ARM GAS  /var/folders/hl/qgbwny5j0fd895c2c41bk3tw0000gp/T//ccFqANMK.s 			page 1


   1              		.cpu cortex-m7
   2              		.eabi_attribute 28, 1
   3              		.eabi_attribute 20, 1
   4              		.eabi_attribute 21, 1
   5              		.eabi_attribute 23, 3
   6              		.eabi_attribute 24, 1
   7              		.eabi_attribute 25, 1
   8              		.eabi_attribute 26, 1
   9              		.eabi_attribute 30, 2
  10              		.eabi_attribute 34, 1
  11              		.eabi_attribute 18, 4
  12              		.file	"OLED.cpp"
  13              		.text
  14              	.Ltext0:
  15              		.cfi_sections	.debug_frame
  16              		.section	.text._ZN5daisy7EncoderD2Ev,"axG",%progbits,_ZN5daisy7EncoderD5Ev,comdat
  17              		.align	1
  18              		.p2align 2,,3
  19              		.weak	_ZN5daisy7EncoderD2Ev
  20              		.arch armv7e-m
  21              		.syntax unified
  22              		.thumb
  23              		.thumb_func
  24              		.fpu fpv5-d16
  26              	_ZN5daisy7EncoderD2Ev:
  27              	.LVL0:
  28              	.LFB1619:
  29              		.file 1 "../../libDaisy/src/hid/encoder.h"
   1:../../libDaisy/src/hid/encoder.h **** #pragma once
   2:../../libDaisy/src/hid/encoder.h **** #ifndef DSY_ENCODER_H
   3:../../libDaisy/src/hid/encoder.h **** #define DSY_ENCODER_H
   4:../../libDaisy/src/hid/encoder.h **** #include "daisy_core.h"
   5:../../libDaisy/src/hid/encoder.h **** #include "per/gpio.h"
   6:../../libDaisy/src/hid/encoder.h **** #include "hid/switch.h"
   7:../../libDaisy/src/hid/encoder.h **** 
   8:../../libDaisy/src/hid/encoder.h **** namespace daisy
   9:../../libDaisy/src/hid/encoder.h **** {
  10:../../libDaisy/src/hid/encoder.h **** /** 
  11:../../libDaisy/src/hid/encoder.h ****     @brief Generic Class for handling Quadrature Encoders \n 
  12:../../libDaisy/src/hid/encoder.h ****     Inspired/influenced by Mutable Instruments (pichenettes) Encoder classes
  13:../../libDaisy/src/hid/encoder.h ****     @author Stephen Hensley
  14:../../libDaisy/src/hid/encoder.h ****     @date December 2019
  15:../../libDaisy/src/hid/encoder.h ****     @ingroup controls
  16:../../libDaisy/src/hid/encoder.h **** */
  17:../../libDaisy/src/hid/encoder.h **** class Encoder
  18:../../libDaisy/src/hid/encoder.h **** {
  19:../../libDaisy/src/hid/encoder.h ****   public:
  20:../../libDaisy/src/hid/encoder.h ****     Encoder() {}
  21:../../libDaisy/src/hid/encoder.h ****     ~Encoder() {}
  30              		.loc 1 21 5 view -0
  31              		.cfi_startproc
  32              		@ args = 0, pretend = 0, frame = 0
  33              		@ frame_needed = 0, uses_anonymous_args = 0
  34              		@ link register save eliminated.
  35              	.LBB393:
  36              	.LBI393:
  37              		.file 2 "../../libDaisy/src/hid/switch.h"
ARM GAS  /var/folders/hl/qgbwny5j0fd895c2c41bk3tw0000gp/T//ccFqANMK.s 			page 2


   1:../../libDaisy/src/hid/switch.h **** #pragma once
   2:../../libDaisy/src/hid/switch.h **** #ifndef DSY_SWITCH_H
   3:../../libDaisy/src/hid/switch.h **** #define DSY_SWITCH_H
   4:../../libDaisy/src/hid/switch.h **** #include "daisy_core.h"
   5:../../libDaisy/src/hid/switch.h **** #include "per/gpio.h"
   6:../../libDaisy/src/hid/switch.h **** #include "sys/system.h"
   7:../../libDaisy/src/hid/switch.h **** 
   8:../../libDaisy/src/hid/switch.h **** namespace daisy
   9:../../libDaisy/src/hid/switch.h **** {
  10:../../libDaisy/src/hid/switch.h **** /** 
  11:../../libDaisy/src/hid/switch.h ****     Generic Class for handling momentary/latching switches \n 
  12:../../libDaisy/src/hid/switch.h ****     Inspired/influenced by Mutable Instruments (pichenettes) Switch classes
  13:../../libDaisy/src/hid/switch.h ****     @author Stephen Hensley
  14:../../libDaisy/src/hid/switch.h ****     @date December 2019
  15:../../libDaisy/src/hid/switch.h ****     @ingroup controls
  16:../../libDaisy/src/hid/switch.h **** */
  17:../../libDaisy/src/hid/switch.h **** class Switch
  18:../../libDaisy/src/hid/switch.h **** {
  19:../../libDaisy/src/hid/switch.h ****   public:
  20:../../libDaisy/src/hid/switch.h ****     /** Specifies the expected behavior of the switch */
  21:../../libDaisy/src/hid/switch.h ****     enum Type
  22:../../libDaisy/src/hid/switch.h ****     {
  23:../../libDaisy/src/hid/switch.h ****         TYPE_TOGGLE,    /**< & */
  24:../../libDaisy/src/hid/switch.h ****         TYPE_MOMENTARY, /**< & */
  25:../../libDaisy/src/hid/switch.h ****     };
  26:../../libDaisy/src/hid/switch.h ****     /** Specifies whether the pressed is HIGH or LOW. */
  27:../../libDaisy/src/hid/switch.h ****     enum Polarity
  28:../../libDaisy/src/hid/switch.h ****     {
  29:../../libDaisy/src/hid/switch.h ****         POLARITY_NORMAL,   /**< & */
  30:../../libDaisy/src/hid/switch.h ****         POLARITY_INVERTED, /**< & */
  31:../../libDaisy/src/hid/switch.h ****     };
  32:../../libDaisy/src/hid/switch.h **** 
  33:../../libDaisy/src/hid/switch.h ****     /** Specifies whether to use built-in Pull Up/Down resistors to hold button at a given state wh
  34:../../libDaisy/src/hid/switch.h ****     enum Pull
  35:../../libDaisy/src/hid/switch.h ****     {
  36:../../libDaisy/src/hid/switch.h ****         PULL_UP,   /**< & */
  37:../../libDaisy/src/hid/switch.h ****         PULL_DOWN, /**< & */
  38:../../libDaisy/src/hid/switch.h ****         PULL_NONE, /**< & */
  39:../../libDaisy/src/hid/switch.h ****     };
  40:../../libDaisy/src/hid/switch.h **** 
  41:../../libDaisy/src/hid/switch.h ****     Switch() {}
  42:../../libDaisy/src/hid/switch.h ****     ~Switch() {}
  38              		.loc 2 42 5 view .LVU1
  39              		.loc 2 42 5 is_stmt 0 view .LVU2
  40              	.LBE393:
  41              		.loc 1 21 17 view .LVU3
  42 0000 7047     		bx	lr
  43              		.cfi_endproc
  44              	.LFE1619:
  46              		.weak	_ZN5daisy7EncoderD1Ev
  47              		.thumb_set _ZN5daisy7EncoderD1Ev,_ZN5daisy7EncoderD2Ev
  48 0002 00BF     		.section	.text._ZN5daisy8patch_sm12DaisyPatchSMD2Ev,"axG",%progbits,_ZN5daisy8patch_sm12DaisyPatch
  49              		.align	1
  50              		.p2align 2,,3
  51              		.weak	_ZN5daisy8patch_sm12DaisyPatchSMD2Ev
  52              		.syntax unified
  53              		.thumb
ARM GAS  /var/folders/hl/qgbwny5j0fd895c2c41bk3tw0000gp/T//ccFqANMK.s 			page 3


  54              		.thumb_func
  55              		.fpu fpv5-d16
  57              	_ZN5daisy8patch_sm12DaisyPatchSMD2Ev:
  58              	.LVL1:
  59              	.LFB2529:
  60              		.file 3 "../../libDaisy/src/daisy_patch_sm.h"
   1:../../libDaisy/src/daisy_patch_sm.h **** #pragma once
   2:../../libDaisy/src/daisy_patch_sm.h **** 
   3:../../libDaisy/src/daisy_patch_sm.h **** #include "daisy.h"
   4:../../libDaisy/src/daisy_patch_sm.h **** 
   5:../../libDaisy/src/daisy_patch_sm.h **** namespace daisy
   6:../../libDaisy/src/daisy_patch_sm.h **** {
   7:../../libDaisy/src/daisy_patch_sm.h **** namespace patch_sm
   8:../../libDaisy/src/daisy_patch_sm.h **** {
   9:../../libDaisy/src/daisy_patch_sm.h ****     /** Accessors for the Analog Controls. 
  10:../../libDaisy/src/daisy_patch_sm.h ****      *  These cover the 8x Bipolar CV inputs
  11:../../libDaisy/src/daisy_patch_sm.h ****      *  as well as the 4x 0-3V3 ADC inputs on
  12:../../libDaisy/src/daisy_patch_sm.h ****      *  the hardware 
  13:../../libDaisy/src/daisy_patch_sm.h ****      * 
  14:../../libDaisy/src/daisy_patch_sm.h ****      *  When reading a value with DaisyPatchSM::GetAdcValue()
  15:../../libDaisy/src/daisy_patch_sm.h ****      * 
  16:../../libDaisy/src/daisy_patch_sm.h ****      *  patch.GetAdcValue(patch_sm::CV_1);
  17:../../libDaisy/src/daisy_patch_sm.h ****      */
  18:../../libDaisy/src/daisy_patch_sm.h ****     enum
  19:../../libDaisy/src/daisy_patch_sm.h ****     {
  20:../../libDaisy/src/daisy_patch_sm.h ****         CV_1 = 0,
  21:../../libDaisy/src/daisy_patch_sm.h ****         CV_2,
  22:../../libDaisy/src/daisy_patch_sm.h ****         CV_3,
  23:../../libDaisy/src/daisy_patch_sm.h ****         CV_4,
  24:../../libDaisy/src/daisy_patch_sm.h ****         CV_5,
  25:../../libDaisy/src/daisy_patch_sm.h ****         CV_6,
  26:../../libDaisy/src/daisy_patch_sm.h ****         CV_7,
  27:../../libDaisy/src/daisy_patch_sm.h ****         CV_8,
  28:../../libDaisy/src/daisy_patch_sm.h ****         ADC_9,
  29:../../libDaisy/src/daisy_patch_sm.h ****         ADC_10,
  30:../../libDaisy/src/daisy_patch_sm.h ****         ADC_11,
  31:../../libDaisy/src/daisy_patch_sm.h ****         ADC_12,
  32:../../libDaisy/src/daisy_patch_sm.h ****         ADC_LAST,
  33:../../libDaisy/src/daisy_patch_sm.h ****     };
  34:../../libDaisy/src/daisy_patch_sm.h **** 
  35:../../libDaisy/src/daisy_patch_sm.h ****     /** Enum for addressing the CV Outputs via the WriteCvOut function. */
  36:../../libDaisy/src/daisy_patch_sm.h ****     enum
  37:../../libDaisy/src/daisy_patch_sm.h ****     {
  38:../../libDaisy/src/daisy_patch_sm.h ****         CV_OUT_BOTH = 0,
  39:../../libDaisy/src/daisy_patch_sm.h ****         CV_OUT_1,
  40:../../libDaisy/src/daisy_patch_sm.h ****         CV_OUT_2,
  41:../../libDaisy/src/daisy_patch_sm.h ****     };
  42:../../libDaisy/src/daisy_patch_sm.h **** 
  43:../../libDaisy/src/daisy_patch_sm.h **** 
  44:../../libDaisy/src/daisy_patch_sm.h ****     /** @brief Board support file for DaisyPatchSM hardware
  45:../../libDaisy/src/daisy_patch_sm.h ****      *  @author shensley
  46:../../libDaisy/src/daisy_patch_sm.h ****      *  @ingroup boards
  47:../../libDaisy/src/daisy_patch_sm.h ****      * 
  48:../../libDaisy/src/daisy_patch_sm.h ****      *  Daisy Patch SM is a complete Eurorack module DSP engine.
  49:../../libDaisy/src/daisy_patch_sm.h ****      *  Based on the Daisy Seed, with circuits added for 
  50:../../libDaisy/src/daisy_patch_sm.h ****      *  interfacing directly with eurorack modular synthesizers.
  51:../../libDaisy/src/daisy_patch_sm.h ****      */
ARM GAS  /var/folders/hl/qgbwny5j0fd895c2c41bk3tw0000gp/T//ccFqANMK.s 			page 4


  52:../../libDaisy/src/daisy_patch_sm.h ****     class DaisyPatchSM
  53:../../libDaisy/src/daisy_patch_sm.h ****     {
  54:../../libDaisy/src/daisy_patch_sm.h ****       public:
  55:../../libDaisy/src/daisy_patch_sm.h ****         /** Helper for mapping pins, and accessing them using the `GetPin` function */
  56:../../libDaisy/src/daisy_patch_sm.h ****         enum class PinBank
  57:../../libDaisy/src/daisy_patch_sm.h ****         {
  58:../../libDaisy/src/daisy_patch_sm.h ****             A,
  59:../../libDaisy/src/daisy_patch_sm.h ****             B,
  60:../../libDaisy/src/daisy_patch_sm.h ****             C,
  61:../../libDaisy/src/daisy_patch_sm.h ****             D
  62:../../libDaisy/src/daisy_patch_sm.h ****         };
  63:../../libDaisy/src/daisy_patch_sm.h **** 
  64:../../libDaisy/src/daisy_patch_sm.h ****         DaisyPatchSM() {}
  65:../../libDaisy/src/daisy_patch_sm.h ****         ~DaisyPatchSM() {}
  61              		.loc 3 65 9 is_stmt 1 view -0
  62              		.cfi_startproc
  63              		@ args = 0, pretend = 0, frame = 0
  64              		@ frame_needed = 0, uses_anonymous_args = 0
  65              		@ link register save eliminated.
  66              	.LBB394:
  67              	.LBI394:
  68              		.file 4 "../../libDaisy/src/hid/gatein.h"
   1:../../libDaisy/src/hid/gatein.h **** #pragma once
   2:../../libDaisy/src/hid/gatein.h **** #ifndef DSY_GATEIN_H
   3:../../libDaisy/src/hid/gatein.h **** #define DSY_GATEIN_H
   4:../../libDaisy/src/hid/gatein.h **** #include "per/gpio.h"
   5:../../libDaisy/src/hid/gatein.h **** 
   6:../../libDaisy/src/hid/gatein.h **** namespace daisy
   7:../../libDaisy/src/hid/gatein.h **** {
   8:../../libDaisy/src/hid/gatein.h **** /**
   9:../../libDaisy/src/hid/gatein.h ****    @brief Generic Class for handling gate inputs through GPIO.
  10:../../libDaisy/src/hid/gatein.h ****    @author Stephen Hensley
  11:../../libDaisy/src/hid/gatein.h ****    @date    March 2020
  12:../../libDaisy/src/hid/gatein.h ****    @ingroup controls
  13:../../libDaisy/src/hid/gatein.h **** */
  14:../../libDaisy/src/hid/gatein.h **** class GateIn
  15:../../libDaisy/src/hid/gatein.h **** {
  16:../../libDaisy/src/hid/gatein.h ****   public:
  17:../../libDaisy/src/hid/gatein.h ****     /** GateIn 
  18:../../libDaisy/src/hid/gatein.h ****     Constructor 
  19:../../libDaisy/src/hid/gatein.h ****     */
  20:../../libDaisy/src/hid/gatein.h ****     GateIn() {}
  21:../../libDaisy/src/hid/gatein.h ****     /** GateIn~
  22:../../libDaisy/src/hid/gatein.h ****     Destructor 
  23:../../libDaisy/src/hid/gatein.h ****     */
  24:../../libDaisy/src/hid/gatein.h ****     ~GateIn() {}
  69              		.loc 4 24 5 view .LVU5
  70              		.loc 4 24 5 is_stmt 0 view .LVU6
  71              	.LBE394:
  72              	.LBB395:
  73              	.LBI395:
  74              		.loc 4 24 5 is_stmt 1 view .LVU7
  75              		.loc 4 24 5 is_stmt 0 view .LVU8
  76              	.LBE395:
  77              	.LBB396:
  78              	.LBI396:
  79              		.file 5 "../../libDaisy/src/dev/codec_pcm3060.h"
ARM GAS  /var/folders/hl/qgbwny5j0fd895c2c41bk3tw0000gp/T//ccFqANMK.s 			page 5


   1:../../libDaisy/src/dev/codec_pcm3060.h **** #pragma once
   2:../../libDaisy/src/dev/codec_pcm3060.h **** #ifndef DSY_CODEC_PCM3060_H
   3:../../libDaisy/src/dev/codec_pcm3060.h **** #define DSY_CODEC_PCM3060_H
   4:../../libDaisy/src/dev/codec_pcm3060.h **** #include "per/i2c.h"
   5:../../libDaisy/src/dev/codec_pcm3060.h **** namespace daisy
   6:../../libDaisy/src/dev/codec_pcm3060.h **** {
   7:../../libDaisy/src/dev/codec_pcm3060.h **** /**
   8:../../libDaisy/src/dev/codec_pcm3060.h ****  * @brief Driver for the TI PCM3060 Audio Codec.
   9:../../libDaisy/src/dev/codec_pcm3060.h ****  * @addtogroup codec
  10:../../libDaisy/src/dev/codec_pcm3060.h ****  * 
  11:../../libDaisy/src/dev/codec_pcm3060.h ****  * For now this is a limited interface that uses I2C to communicate with the PCM3060
  12:../../libDaisy/src/dev/codec_pcm3060.h ****  * The device can also be accessed with SPI, which is not yet supported.
  13:../../libDaisy/src/dev/codec_pcm3060.h ****  * 
  14:../../libDaisy/src/dev/codec_pcm3060.h ****  * For now all registers are set to their defaults, and the Init function will 
  15:../../libDaisy/src/dev/codec_pcm3060.h ****  * perform a MRST and SRST before setting the format to 24bit LJ, and disabling 
  16:../../libDaisy/src/dev/codec_pcm3060.h ****  * power save for both the ADC and DAC.
  17:../../libDaisy/src/dev/codec_pcm3060.h ****  *
  18:../../libDaisy/src/dev/codec_pcm3060.h ****  */
  19:../../libDaisy/src/dev/codec_pcm3060.h **** class Pcm3060
  20:../../libDaisy/src/dev/codec_pcm3060.h **** {
  21:../../libDaisy/src/dev/codec_pcm3060.h ****   public:
  22:../../libDaisy/src/dev/codec_pcm3060.h ****     enum class Result
  23:../../libDaisy/src/dev/codec_pcm3060.h ****     {
  24:../../libDaisy/src/dev/codec_pcm3060.h ****         OK,
  25:../../libDaisy/src/dev/codec_pcm3060.h ****         ERR,
  26:../../libDaisy/src/dev/codec_pcm3060.h ****     };
  27:../../libDaisy/src/dev/codec_pcm3060.h **** 
  28:../../libDaisy/src/dev/codec_pcm3060.h ****     Pcm3060() {}
  29:../../libDaisy/src/dev/codec_pcm3060.h ****     ~Pcm3060() {}
  80              		.loc 5 29 5 is_stmt 1 view .LVU9
  81              		.loc 5 29 5 is_stmt 0 view .LVU10
  82              	.LBE396:
  83              	.LBB397:
  84              	.LBI397:
  85              		.file 6 "../../libDaisy/src/hid/usb.h"
   1:../../libDaisy/src/hid/usb.h **** #pragma once
   2:../../libDaisy/src/hid/usb.h **** #ifndef DSY_HID_USB_H
   3:../../libDaisy/src/hid/usb.h **** #define DSY_HID_USB_H
   4:../../libDaisy/src/hid/usb.h **** #include <stdint.h>
   5:../../libDaisy/src/hid/usb.h **** #include <stdlib.h>
   6:../../libDaisy/src/hid/usb.h **** 
   7:../../libDaisy/src/hid/usb.h **** namespace daisy
   8:../../libDaisy/src/hid/usb.h **** /** @addtogroup human_interface
   9:../../libDaisy/src/hid/usb.h ****     @{
  10:../../libDaisy/src/hid/usb.h **** */
  11:../../libDaisy/src/hid/usb.h **** 
  12:../../libDaisy/src/hid/usb.h **** {
  13:../../libDaisy/src/hid/usb.h **** /** 
  14:../../libDaisy/src/hid/usb.h ****     @brief Interface for initializing and using the USB Peripherals on the daisy
  15:../../libDaisy/src/hid/usb.h ****     @author Stephen Hensley
  16:../../libDaisy/src/hid/usb.h ****     @date December 2019
  17:../../libDaisy/src/hid/usb.h **** */
  18:../../libDaisy/src/hid/usb.h **** class UsbHandle
  19:../../libDaisy/src/hid/usb.h **** {
  20:../../libDaisy/src/hid/usb.h ****   public:
  21:../../libDaisy/src/hid/usb.h ****     /** Return values for USBHandle Functions */
  22:../../libDaisy/src/hid/usb.h ****     enum class Result
ARM GAS  /var/folders/hl/qgbwny5j0fd895c2c41bk3tw0000gp/T//ccFqANMK.s 			page 6


  23:../../libDaisy/src/hid/usb.h ****     {
  24:../../libDaisy/src/hid/usb.h ****         OK,
  25:../../libDaisy/src/hid/usb.h ****         ERR,
  26:../../libDaisy/src/hid/usb.h ****     };
  27:../../libDaisy/src/hid/usb.h **** 
  28:../../libDaisy/src/hid/usb.h ****     /** Specified which of the two USB Peripherals to initialize. */
  29:../../libDaisy/src/hid/usb.h ****     enum UsbPeriph
  30:../../libDaisy/src/hid/usb.h ****     {
  31:../../libDaisy/src/hid/usb.h ****         FS_INTERNAL, /**< Internal pin */
  32:../../libDaisy/src/hid/usb.h ****         FS_EXTERNAL, /**< FS External D+ pin is Pin 38 (GPIO32). FS External D- pin is Pin 37 (GPIO
  33:../../libDaisy/src/hid/usb.h ****         FS_BOTH,     /**< Both */
  34:../../libDaisy/src/hid/usb.h ****     };
  35:../../libDaisy/src/hid/usb.h **** 
  36:../../libDaisy/src/hid/usb.h **** 
  37:../../libDaisy/src/hid/usb.h ****     /** Function called upon reception of a buffer */
  38:../../libDaisy/src/hid/usb.h ****     typedef void (*ReceiveCallback)(uint8_t* buff, uint32_t* len);
  39:../../libDaisy/src/hid/usb.h **** 
  40:../../libDaisy/src/hid/usb.h ****     UsbHandle() {}
  41:../../libDaisy/src/hid/usb.h **** 
  42:../../libDaisy/src/hid/usb.h ****     ~UsbHandle() {}
  86              		.loc 6 42 5 is_stmt 1 view .LVU11
  87              		.loc 6 42 5 is_stmt 0 view .LVU12
  88              	.LBE397:
  89              	.LBB398:
  90              	.LBI398:
  91              		.file 7 "../../libDaisy/src/per/adc.h"
   1:../../libDaisy/src/per/adc.h **** #pragma once
   2:../../libDaisy/src/per/adc.h **** #ifndef DSY_ADC_H
   3:../../libDaisy/src/per/adc.h **** #define DSY_ADC_H /**< Macro */
   4:../../libDaisy/src/per/adc.h **** #include <stdint.h>
   5:../../libDaisy/src/per/adc.h **** #include <stdlib.h>
   6:../../libDaisy/src/per/adc.h **** #include "daisy_core.h"
   7:../../libDaisy/src/per/adc.h **** #include "per/gpio.h"
   8:../../libDaisy/src/per/adc.h **** 
   9:../../libDaisy/src/per/adc.h **** #define DSY_ADC_MAX_CHANNELS 16 /**< Maximum number of ADC channels */
  10:../../libDaisy/src/per/adc.h **** 
  11:../../libDaisy/src/per/adc.h **** namespace daisy
  12:../../libDaisy/src/per/adc.h **** {
  13:../../libDaisy/src/per/adc.h **** /** @addtogroup per_analog
  14:../../libDaisy/src/per/adc.h ****     @{
  15:../../libDaisy/src/per/adc.h **** */
  16:../../libDaisy/src/per/adc.h **** 
  17:../../libDaisy/src/per/adc.h **** /* While there may not be many configuration options here,
  18:../../libDaisy/src/per/adc.h **** using a struct like this allows us to add more configuration
  19:../../libDaisy/src/per/adc.h **** later without breaking existing functionality.
  20:../../libDaisy/src/per/adc.h **** */
  21:../../libDaisy/src/per/adc.h **** 
  22:../../libDaisy/src/per/adc.h **** /** @brief   Configuration Structure for an ADC Channel 
  23:../../libDaisy/src/per/adc.h ****  *  @details This can be used to configure a a single input, 
  24:../../libDaisy/src/per/adc.h ****  *           or a multiplexed input, allowing up to 8 inputs on 
  25:../../libDaisy/src/per/adc.h ****  *           one channel.
  26:../../libDaisy/src/per/adc.h ****  *  @note    Sharing data lines to multiple muxes _is_ possible, but
  27:../../libDaisy/src/per/adc.h ****  *           each channel sharing data lines must be set to the maximum
  28:../../libDaisy/src/per/adc.h ****  *           number of channels, even if some multiplexers have fewer
  29:../../libDaisy/src/per/adc.h ****  *           inputs connected.
  30:../../libDaisy/src/per/adc.h **** */
  31:../../libDaisy/src/per/adc.h **** struct AdcChannelConfig
ARM GAS  /var/folders/hl/qgbwny5j0fd895c2c41bk3tw0000gp/T//ccFqANMK.s 			page 7


  32:../../libDaisy/src/per/adc.h **** {
  33:../../libDaisy/src/per/adc.h ****     /** Which pin to use for multiplexing */
  34:../../libDaisy/src/per/adc.h ****     enum MuxPin
  35:../../libDaisy/src/per/adc.h ****     {
  36:../../libDaisy/src/per/adc.h ****         MUX_SEL_0,    /**< & */
  37:../../libDaisy/src/per/adc.h ****         MUX_SEL_1,    /**< & */
  38:../../libDaisy/src/per/adc.h ****         MUX_SEL_2,    /**< & */
  39:../../libDaisy/src/per/adc.h ****         MUX_SEL_LAST, /**< & */
  40:../../libDaisy/src/per/adc.h ****     };
  41:../../libDaisy/src/per/adc.h **** 
  42:../../libDaisy/src/per/adc.h ****     /** Initializes a single ADC pin as an ADC. 
  43:../../libDaisy/src/per/adc.h ****     \param pin Pin to init.
  44:../../libDaisy/src/per/adc.h ****      */
  45:../../libDaisy/src/per/adc.h ****     void InitSingle(dsy_gpio_pin pin);
  46:../../libDaisy/src/per/adc.h **** 
  47:../../libDaisy/src/per/adc.h ****     /** 
  48:../../libDaisy/src/per/adc.h ****     Initializes a single ADC pin as a Multiplexed ADC.
  49:../../libDaisy/src/per/adc.h ****     Requires a CD405X Multiplexer connected to the pin.
  50:../../libDaisy/src/per/adc.h ****     You only need to supply the mux pins that are required,
  51:../../libDaisy/src/per/adc.h ****     e.g. a 4052 mux would only require mux_0 and mux_1.
  52:../../libDaisy/src/per/adc.h ****     Internal Callbacks handle the pin addressing.
  53:../../libDaisy/src/per/adc.h ****     \param mux_channels must be 1-8
  54:../../libDaisy/src/per/adc.h ****     \param mux_0 First mux pin
  55:../../libDaisy/src/per/adc.h ****     \param mux_1 Second mux pin
  56:../../libDaisy/src/per/adc.h ****     \param mux_2 Third mux pin
  57:../../libDaisy/src/per/adc.h ****     \param adc_pin &
  58:../../libDaisy/src/per/adc.h ****     */
  59:../../libDaisy/src/per/adc.h ****     void InitMux(dsy_gpio_pin adc_pin,
  60:../../libDaisy/src/per/adc.h ****                  size_t       mux_channels,
  61:../../libDaisy/src/per/adc.h ****                  dsy_gpio_pin mux_0,
  62:../../libDaisy/src/per/adc.h ****                  dsy_gpio_pin mux_1 = {DSY_GPIOX, 0},
  63:../../libDaisy/src/per/adc.h ****                  dsy_gpio_pin mux_2 = {DSY_GPIOX, 0});
  64:../../libDaisy/src/per/adc.h **** 
  65:../../libDaisy/src/per/adc.h ****     dsy_gpio pin_;                   /**< & */
  66:../../libDaisy/src/per/adc.h ****     dsy_gpio mux_pin_[MUX_SEL_LAST]; /**< & */
  67:../../libDaisy/src/per/adc.h ****     uint8_t  mux_channels_;          /**< & */
  68:../../libDaisy/src/per/adc.h **** };
  69:../../libDaisy/src/per/adc.h **** 
  70:../../libDaisy/src/per/adc.h **** /**
  71:../../libDaisy/src/per/adc.h ****    @brief Handler for analog to digital conversion
  72:../../libDaisy/src/per/adc.h **** */
  73:../../libDaisy/src/per/adc.h **** class AdcHandle
  74:../../libDaisy/src/per/adc.h **** {
  75:../../libDaisy/src/per/adc.h ****   public:
  76:../../libDaisy/src/per/adc.h ****     /** Supported oversampling amounts */
  77:../../libDaisy/src/per/adc.h ****     enum OverSampling
  78:../../libDaisy/src/per/adc.h ****     {
  79:../../libDaisy/src/per/adc.h ****         OVS_NONE, /**< & */
  80:../../libDaisy/src/per/adc.h ****         OVS_4,    /**< & */
  81:../../libDaisy/src/per/adc.h ****         OVS_8,    /**< & */
  82:../../libDaisy/src/per/adc.h ****         OVS_16,   /**< & */
  83:../../libDaisy/src/per/adc.h ****         OVS_32,   /**< & */
  84:../../libDaisy/src/per/adc.h ****         OVS_64,   /**< & */
  85:../../libDaisy/src/per/adc.h ****         OVS_128,  /**< & */
  86:../../libDaisy/src/per/adc.h ****         OVS_256,  /**< & */
  87:../../libDaisy/src/per/adc.h ****         OVS_512,  /**< & */
  88:../../libDaisy/src/per/adc.h ****         OVS_1024, /**< & */
ARM GAS  /var/folders/hl/qgbwny5j0fd895c2c41bk3tw0000gp/T//ccFqANMK.s 			page 8


  89:../../libDaisy/src/per/adc.h ****         OVS_LAST, /**< & */
  90:../../libDaisy/src/per/adc.h ****     };
  91:../../libDaisy/src/per/adc.h **** 
  92:../../libDaisy/src/per/adc.h ****     AdcHandle() {}
  93:../../libDaisy/src/per/adc.h ****     ~AdcHandle() {}
  92              		.loc 7 93 5 is_stmt 1 view .LVU13
  93              		.loc 7 93 5 is_stmt 0 view .LVU14
  94              	.LBE398:
  95              	.LBB399:
  96              	.LBI399:
  97              		.file 8 "../../libDaisy/src/hid/audio.h"
   1:../../libDaisy/src/hid/audio.h **** #ifndef DSY_AUDIO_H
   2:../../libDaisy/src/hid/audio.h **** #define DSY_AUDIO_H /**< & */
   3:../../libDaisy/src/hid/audio.h **** 
   4:../../libDaisy/src/hid/audio.h **** #include "per/sai.h"
   5:../../libDaisy/src/hid/audio.h **** 
   6:../../libDaisy/src/hid/audio.h **** namespace daisy
   7:../../libDaisy/src/hid/audio.h **** {
   8:../../libDaisy/src/hid/audio.h **** /** @brief Audio Engine Handle
   9:../../libDaisy/src/hid/audio.h ****  *  @ingroup audio 
  10:../../libDaisy/src/hid/audio.h ****  *  @details This class allows for higher level access to an audio engine.
  11:../../libDaisy/src/hid/audio.h ****  *           If you're using a SOM like the DaisySeed or DaisyPatchSM (or any 
  12:../../libDaisy/src/hid/audio.h ****  *            board that includes one of those objects) then the intialization
  13:../../libDaisy/src/hid/audio.h ****  *            is already taken  care of.
  14:../../libDaisy/src/hid/audio.h ****  *           If you're setting up your own custom hardware, or need to make changes
  15:../../libDaisy/src/hid/audio.h ****  *           you will have to take the following steps:
  16:../../libDaisy/src/hid/audio.h ****  *             1. Create and Initialize an SaiHandle or two depending on your requirements
  17:../../libDaisy/src/hid/audio.h ****  *             2. Initialize the Audio Handle with the desired settings and the Initialized SaiHand
  18:../../libDaisy/src/hid/audio.h ****  *             3. If the connected codec requires special configuration or initialization, do so
  19:../../libDaisy/src/hid/audio.h ****  *             4. Write a callback method using either the AudioCallback or the InterleavingAudioCa
  20:../../libDaisy/src/hid/audio.h ****  *             5. Start the Audio using one of the StartAudio function
  21:../../libDaisy/src/hid/audio.h ****  */
  22:../../libDaisy/src/hid/audio.h **** class AudioHandle
  23:../../libDaisy/src/hid/audio.h **** {
  24:../../libDaisy/src/hid/audio.h ****   public:
  25:../../libDaisy/src/hid/audio.h ****     /** Manually configurable details about the Audio Engine */
  26:../../libDaisy/src/hid/audio.h ****     /** TODO: Figure out how to get samplerate in here. */
  27:../../libDaisy/src/hid/audio.h ****     struct Config
  28:../../libDaisy/src/hid/audio.h ****     {
  29:../../libDaisy/src/hid/audio.h ****         /** number of samples to process per callback */
  30:../../libDaisy/src/hid/audio.h ****         size_t blocksize;
  31:../../libDaisy/src/hid/audio.h **** 
  32:../../libDaisy/src/hid/audio.h ****         /**< Sample rate of audio */
  33:../../libDaisy/src/hid/audio.h ****         SaiHandle::Config::SampleRate samplerate;
  34:../../libDaisy/src/hid/audio.h **** 
  35:../../libDaisy/src/hid/audio.h ****         /** factor for adjustment before and after callback for hardware that may have extra headro
  36:../../libDaisy/src/hid/audio.h ****         float postgain;
  37:../../libDaisy/src/hid/audio.h **** 
  38:../../libDaisy/src/hid/audio.h ****         /** factor for additional one-sided compensation to audio path for hardware that may
  39:../../libDaisy/src/hid/audio.h ****          *  have unequal input/output ranges
  40:../../libDaisy/src/hid/audio.h ****          */
  41:../../libDaisy/src/hid/audio.h ****         float output_compensation;
  42:../../libDaisy/src/hid/audio.h **** 
  43:../../libDaisy/src/hid/audio.h ****         /** Sets default values for config struct */
  44:../../libDaisy/src/hid/audio.h ****         Config()
  45:../../libDaisy/src/hid/audio.h ****         : blocksize(48),
  46:../../libDaisy/src/hid/audio.h ****           samplerate(SaiHandle::Config::SampleRate::SAI_48KHZ),
ARM GAS  /var/folders/hl/qgbwny5j0fd895c2c41bk3tw0000gp/T//ccFqANMK.s 			page 9


  47:../../libDaisy/src/hid/audio.h ****           postgain(1.f),
  48:../../libDaisy/src/hid/audio.h ****           output_compensation(1.f)
  49:../../libDaisy/src/hid/audio.h ****         {
  50:../../libDaisy/src/hid/audio.h ****         }
  51:../../libDaisy/src/hid/audio.h ****     };
  52:../../libDaisy/src/hid/audio.h **** 
  53:../../libDaisy/src/hid/audio.h ****     enum class Result
  54:../../libDaisy/src/hid/audio.h ****     {
  55:../../libDaisy/src/hid/audio.h ****         OK,
  56:../../libDaisy/src/hid/audio.h ****         ERR,
  57:../../libDaisy/src/hid/audio.h ****     };
  58:../../libDaisy/src/hid/audio.h **** 
  59:../../libDaisy/src/hid/audio.h ****     /** Non-Interleaving input buffer
  60:../../libDaisy/src/hid/audio.h ****      * Buffer arranged by float[chn][sample] 
  61:../../libDaisy/src/hid/audio.h ****      * const so that the user can't modify the input
  62:../../libDaisy/src/hid/audio.h ****      */
  63:../../libDaisy/src/hid/audio.h ****     typedef const float* const* InputBuffer;
  64:../../libDaisy/src/hid/audio.h **** 
  65:../../libDaisy/src/hid/audio.h ****     /** Non-Interleaving output buffer
  66:../../libDaisy/src/hid/audio.h ****      * Arranged by float[chn][sample] 
  67:../../libDaisy/src/hid/audio.h ****      */
  68:../../libDaisy/src/hid/audio.h ****     typedef float** OutputBuffer;
  69:../../libDaisy/src/hid/audio.h **** 
  70:../../libDaisy/src/hid/audio.h ****     /** Type for a Non-Interleaving audio callback 
  71:../../libDaisy/src/hid/audio.h ****      * Non-Interleaving audio callbacks in daisy will be of this type
  72:../../libDaisy/src/hid/audio.h ****      */
  73:../../libDaisy/src/hid/audio.h ****     typedef void (*AudioCallback)(InputBuffer  in,
  74:../../libDaisy/src/hid/audio.h ****                                   OutputBuffer out,
  75:../../libDaisy/src/hid/audio.h ****                                   size_t       size);
  76:../../libDaisy/src/hid/audio.h **** 
  77:../../libDaisy/src/hid/audio.h ****     /** Interleaving Input buffer
  78:../../libDaisy/src/hid/audio.h ****      ** audio is prepared as { L0, R0, L1, R1, . . . LN, RN }]
  79:../../libDaisy/src/hid/audio.h ****      ** this is const, as the user shouldn't modify it
  80:../../libDaisy/src/hid/audio.h ****     */
  81:../../libDaisy/src/hid/audio.h ****     typedef const float* InterleavingInputBuffer;
  82:../../libDaisy/src/hid/audio.h **** 
  83:../../libDaisy/src/hid/audio.h ****     /** Interleaving Output buffer 
  84:../../libDaisy/src/hid/audio.h ****      ** audio is prepared as { L0, R0, L1, R1, . . . LN, RN }
  85:../../libDaisy/src/hid/audio.h ****     */
  86:../../libDaisy/src/hid/audio.h ****     typedef float* InterleavingOutputBuffer;
  87:../../libDaisy/src/hid/audio.h **** 
  88:../../libDaisy/src/hid/audio.h ****     /** Interleaving Audio Callback 
  89:../../libDaisy/src/hid/audio.h ****      * Interleaving audio callbacks in daisy must be of this type
  90:../../libDaisy/src/hid/audio.h ****      */
  91:../../libDaisy/src/hid/audio.h ****     typedef void (*InterleavingAudioCallback)(InterleavingInputBuffer  in,
  92:../../libDaisy/src/hid/audio.h ****                                               InterleavingOutputBuffer out,
  93:../../libDaisy/src/hid/audio.h ****                                               size_t                   size);
  94:../../libDaisy/src/hid/audio.h **** 
  95:../../libDaisy/src/hid/audio.h ****     AudioHandle() : pimpl_(nullptr) {}
  96:../../libDaisy/src/hid/audio.h ****     ~AudioHandle() {}
  98              		.loc 8 96 5 is_stmt 1 view .LVU15
  99              		.loc 8 96 5 is_stmt 0 view .LVU16
 100              	.LBE399:
 101              	.LBB400:
 102              	.LBI400:
 103              		.file 9 "../../libDaisy/src/sys/system.h"
   1:../../libDaisy/src/sys/system.h **** #ifndef DSY_SYSTEM_H
ARM GAS  /var/folders/hl/qgbwny5j0fd895c2c41bk3tw0000gp/T//ccFqANMK.s 			page 10


   2:../../libDaisy/src/sys/system.h **** #define DSY_SYSTEM_H
   3:../../libDaisy/src/sys/system.h **** 
   4:../../libDaisy/src/sys/system.h **** #ifndef UNIT_TEST // for unit tests, a dummy implementation is provided below
   5:../../libDaisy/src/sys/system.h **** 
   6:../../libDaisy/src/sys/system.h **** #include <cstdint>
   7:../../libDaisy/src/sys/system.h **** #include "per/tim.h"
   8:../../libDaisy/src/sys/system.h **** 
   9:../../libDaisy/src/sys/system.h **** namespace daisy
  10:../../libDaisy/src/sys/system.h **** {
  11:../../libDaisy/src/sys/system.h **** /** A handle for interacting with the Core System. 
  12:../../libDaisy/src/sys/system.h ****  ** This includes the Clock tree, MPU, global DMA initialization,
  13:../../libDaisy/src/sys/system.h ****  ** cache handling, and any other necessary global initiailzation
  14:../../libDaisy/src/sys/system.h ****  **
  15:../../libDaisy/src/sys/system.h ****  ** @author shensley
  16:../../libDaisy/src/sys/system.h ****  ** @ingroup system
  17:../../libDaisy/src/sys/system.h ****  */
  18:../../libDaisy/src/sys/system.h **** class System
  19:../../libDaisy/src/sys/system.h **** {
  20:../../libDaisy/src/sys/system.h ****   public:
  21:../../libDaisy/src/sys/system.h ****     /** Contains settings for initializing the System */
  22:../../libDaisy/src/sys/system.h ****     struct Config
  23:../../libDaisy/src/sys/system.h ****     {
  24:../../libDaisy/src/sys/system.h ****         /** Specifies the system clock frequency that feeds APB/AHB clocks, etc. */
  25:../../libDaisy/src/sys/system.h ****         enum class SysClkFreq
  26:../../libDaisy/src/sys/system.h ****         {
  27:../../libDaisy/src/sys/system.h ****             FREQ_400MHZ,
  28:../../libDaisy/src/sys/system.h ****             FREQ_480MHZ,
  29:../../libDaisy/src/sys/system.h ****         };
  30:../../libDaisy/src/sys/system.h **** 
  31:../../libDaisy/src/sys/system.h ****         /** Method to call on the struct to set to defaults
  32:../../libDaisy/src/sys/system.h ****          ** CPU Freq set to 400MHz
  33:../../libDaisy/src/sys/system.h ****          ** Cache Enabled 
  34:../../libDaisy/src/sys/system.h ****          ** */
  35:../../libDaisy/src/sys/system.h ****         void Defaults()
  36:../../libDaisy/src/sys/system.h ****         {
  37:../../libDaisy/src/sys/system.h ****             cpu_freq    = SysClkFreq::FREQ_400MHZ;
  38:../../libDaisy/src/sys/system.h ****             use_dcache  = true;
  39:../../libDaisy/src/sys/system.h ****             use_icache  = true;
  40:../../libDaisy/src/sys/system.h ****             skip_clocks = false;
  41:../../libDaisy/src/sys/system.h ****         }
  42:../../libDaisy/src/sys/system.h **** 
  43:../../libDaisy/src/sys/system.h ****         /** Method to call on the struct to set to boost mode:
  44:../../libDaisy/src/sys/system.h ****          ** CPU Freq set to 480MHz
  45:../../libDaisy/src/sys/system.h ****          ** Cache Enabled 
  46:../../libDaisy/src/sys/system.h ****          ** */
  47:../../libDaisy/src/sys/system.h ****         void Boost()
  48:../../libDaisy/src/sys/system.h ****         {
  49:../../libDaisy/src/sys/system.h ****             cpu_freq    = SysClkFreq::FREQ_480MHZ;
  50:../../libDaisy/src/sys/system.h ****             use_dcache  = true;
  51:../../libDaisy/src/sys/system.h ****             use_icache  = true;
  52:../../libDaisy/src/sys/system.h ****             skip_clocks = false;
  53:../../libDaisy/src/sys/system.h ****         }
  54:../../libDaisy/src/sys/system.h **** 
  55:../../libDaisy/src/sys/system.h ****         SysClkFreq cpu_freq;
  56:../../libDaisy/src/sys/system.h ****         bool       use_dcache;
  57:../../libDaisy/src/sys/system.h ****         bool       use_icache;
  58:../../libDaisy/src/sys/system.h ****         bool       skip_clocks;
ARM GAS  /var/folders/hl/qgbwny5j0fd895c2c41bk3tw0000gp/T//ccFqANMK.s 			page 11


  59:../../libDaisy/src/sys/system.h ****     };
  60:../../libDaisy/src/sys/system.h **** 
  61:../../libDaisy/src/sys/system.h ****     /** Describes the different regions of memory available to the Daisy
  62:../../libDaisy/src/sys/system.h ****      * 
  63:../../libDaisy/src/sys/system.h ****      */
  64:../../libDaisy/src/sys/system.h ****     enum MemoryRegion
  65:../../libDaisy/src/sys/system.h ****     {
  66:../../libDaisy/src/sys/system.h ****         INTERNAL_FLASH = 0,
  67:../../libDaisy/src/sys/system.h ****         ITCMRAM,
  68:../../libDaisy/src/sys/system.h ****         DTCMRAM,
  69:../../libDaisy/src/sys/system.h ****         SRAM_D1,
  70:../../libDaisy/src/sys/system.h ****         SRAM_D2,
  71:../../libDaisy/src/sys/system.h ****         SRAM_D3,
  72:../../libDaisy/src/sys/system.h ****         SDRAM,
  73:../../libDaisy/src/sys/system.h ****         QSPI,
  74:../../libDaisy/src/sys/system.h ****         INVALID_ADDRESS,
  75:../../libDaisy/src/sys/system.h ****     };
  76:../../libDaisy/src/sys/system.h **** 
  77:../../libDaisy/src/sys/system.h ****     System() {}
  78:../../libDaisy/src/sys/system.h ****     ~System() {}
 104              		.loc 9 78 5 is_stmt 1 view .LVU17
 105              		.loc 9 78 5 is_stmt 0 view .LVU18
 106              	.LBE400:
 107              		.loc 3 65 26 view .LVU19
 108 0000 7047     		bx	lr
 109              		.cfi_endproc
 110              	.LFE2529:
 112              		.weak	_ZN5daisy8patch_sm12DaisyPatchSMD1Ev
 113              		.thumb_set _ZN5daisy8patch_sm12DaisyPatchSMD1Ev,_ZN5daisy8patch_sm12DaisyPatchSMD2Ev
 114 0002 00BF     		.section	.text._ZN5daisy11OledDisplayINS_13SSD130xDriverILj128ELj64ENS_24SSD130x4WireSpiTransportE
 115              		.align	1
 116              		.p2align 2,,3
 117              		.weak	_ZN5daisy11OledDisplayINS_13SSD130xDriverILj128ELj64ENS_24SSD130x4WireSpiTransportEEEE4FillE
 118              		.syntax unified
 119              		.thumb
 120              		.thumb_func
 121              		.fpu fpv5-d16
 123              	_ZN5daisy11OledDisplayINS_13SSD130xDriverILj128ELj64ENS_24SSD130x4WireSpiTransportEEEE4FillEb:
 124              	.LVL2:
 125              	.LFB2584:
 126              		.file 10 "../../libDaisy/src/hid/disp/oled_display.h"
   1:../../libDaisy/src/hid/disp/oled_display.h **** #pragma once
   2:../../libDaisy/src/hid/disp/oled_display.h **** #ifndef DSY_OLED_DISPLAY_H
   3:../../libDaisy/src/hid/disp/oled_display.h **** #define DSY_OLED_DISPLAY_H /**< Macro */
   4:../../libDaisy/src/hid/disp/oled_display.h **** 
   5:../../libDaisy/src/hid/disp/oled_display.h **** #include "display.h"
   6:../../libDaisy/src/hid/disp/oled_display.h **** 
   7:../../libDaisy/src/hid/disp/oled_display.h **** namespace daisy
   8:../../libDaisy/src/hid/disp/oled_display.h **** {
   9:../../libDaisy/src/hid/disp/oled_display.h **** /** 
  10:../../libDaisy/src/hid/disp/oled_display.h ****  * This class is for drawing to a monochrome OLED display. 
  11:../../libDaisy/src/hid/disp/oled_display.h ****  * @ingroup device
  12:../../libDaisy/src/hid/disp/oled_display.h **** */
  13:../../libDaisy/src/hid/disp/oled_display.h **** template <typename DisplayDriver>
  14:../../libDaisy/src/hid/disp/oled_display.h **** class OledDisplay : public OneBitGraphicsDisplayImpl<OledDisplay<DisplayDriver>>
  15:../../libDaisy/src/hid/disp/oled_display.h **** {
  16:../../libDaisy/src/hid/disp/oled_display.h ****   public:
ARM GAS  /var/folders/hl/qgbwny5j0fd895c2c41bk3tw0000gp/T//ccFqANMK.s 			page 12


  17:../../libDaisy/src/hid/disp/oled_display.h ****     OledDisplay() {}
  18:../../libDaisy/src/hid/disp/oled_display.h ****     virtual ~OledDisplay() {}
  19:../../libDaisy/src/hid/disp/oled_display.h **** 
  20:../../libDaisy/src/hid/disp/oled_display.h ****     struct Config
  21:../../libDaisy/src/hid/disp/oled_display.h ****     {
  22:../../libDaisy/src/hid/disp/oled_display.h ****         typename DisplayDriver::Config driver_config;
  23:../../libDaisy/src/hid/disp/oled_display.h ****     };
  24:../../libDaisy/src/hid/disp/oled_display.h **** 
  25:../../libDaisy/src/hid/disp/oled_display.h ****     void Init(Config config) { driver_.Init(config.driver_config); }
  26:../../libDaisy/src/hid/disp/oled_display.h **** 
  27:../../libDaisy/src/hid/disp/oled_display.h ****     uint16_t Height() const override { return driver_.Height(); }
  28:../../libDaisy/src/hid/disp/oled_display.h ****     uint16_t Width() const override { return driver_.Width(); }
  29:../../libDaisy/src/hid/disp/oled_display.h **** 
  30:../../libDaisy/src/hid/disp/oled_display.h ****     /** 
  31:../../libDaisy/src/hid/disp/oled_display.h ****     Fills the entire display with either on/off.
  32:../../libDaisy/src/hid/disp/oled_display.h ****     \param on Sets on or off.
  33:../../libDaisy/src/hid/disp/oled_display.h ****     */
  34:../../libDaisy/src/hid/disp/oled_display.h ****     void Fill(bool on) override { driver_.Fill(on); }
 127              		.loc 10 34 10 is_stmt 1 view -0
 128              		.cfi_startproc
 129              		@ args = 0, pretend = 0, frame = 0
 130              		@ frame_needed = 0, uses_anonymous_args = 0
 131              		@ link register save eliminated.
 132              	.LBB401:
 133              	.LBI401:
 134              		.file 11 "../../libDaisy/src/dev/oled_ssd130x.h"
   1:../../libDaisy/src/dev/oled_ssd130x.h **** #pragma once
   2:../../libDaisy/src/dev/oled_ssd130x.h **** #ifndef SA_OLED_SSD130X_H
   3:../../libDaisy/src/dev/oled_ssd130x.h **** #define SA_OLED_SSD130X_H /**< & */
   4:../../libDaisy/src/dev/oled_ssd130x.h **** 
   5:../../libDaisy/src/dev/oled_ssd130x.h **** #include "per/i2c.h"
   6:../../libDaisy/src/dev/oled_ssd130x.h **** #include "per/spi.h"
   7:../../libDaisy/src/dev/oled_ssd130x.h **** #include "per/gpio.h"
   8:../../libDaisy/src/dev/oled_ssd130x.h **** #include "sys/system.h"
   9:../../libDaisy/src/dev/oled_ssd130x.h **** 
  10:../../libDaisy/src/dev/oled_ssd130x.h **** namespace daisy
  11:../../libDaisy/src/dev/oled_ssd130x.h **** {
  12:../../libDaisy/src/dev/oled_ssd130x.h **** /**
  13:../../libDaisy/src/dev/oled_ssd130x.h ****  * I2C Transport for SSD1306 / SSD1309 OLED display devices
  14:../../libDaisy/src/dev/oled_ssd130x.h ****  */
  15:../../libDaisy/src/dev/oled_ssd130x.h **** class SSD130xI2CTransport
  16:../../libDaisy/src/dev/oled_ssd130x.h **** {
  17:../../libDaisy/src/dev/oled_ssd130x.h ****   public:
  18:../../libDaisy/src/dev/oled_ssd130x.h ****     struct Config
  19:../../libDaisy/src/dev/oled_ssd130x.h ****     {
  20:../../libDaisy/src/dev/oled_ssd130x.h ****         Config()
  21:../../libDaisy/src/dev/oled_ssd130x.h ****         {
  22:../../libDaisy/src/dev/oled_ssd130x.h ****             // Intialize using defaults
  23:../../libDaisy/src/dev/oled_ssd130x.h ****             Defaults();
  24:../../libDaisy/src/dev/oled_ssd130x.h ****         }
  25:../../libDaisy/src/dev/oled_ssd130x.h ****         I2CHandle::Config i2c_config;
  26:../../libDaisy/src/dev/oled_ssd130x.h ****         uint8_t           i2c_address;
  27:../../libDaisy/src/dev/oled_ssd130x.h ****         void              Defaults()
  28:../../libDaisy/src/dev/oled_ssd130x.h ****         {
  29:../../libDaisy/src/dev/oled_ssd130x.h ****             i2c_config.periph         = I2CHandle::Config::Peripheral::I2C_1;
  30:../../libDaisy/src/dev/oled_ssd130x.h ****             i2c_config.speed          = I2CHandle::Config::Speed::I2C_1MHZ;
  31:../../libDaisy/src/dev/oled_ssd130x.h ****             i2c_config.mode           = I2CHandle::Config::Mode::I2C_MASTER;
ARM GAS  /var/folders/hl/qgbwny5j0fd895c2c41bk3tw0000gp/T//ccFqANMK.s 			page 13


  32:../../libDaisy/src/dev/oled_ssd130x.h ****             i2c_config.pin_config.scl = {DSY_GPIOB, 8};
  33:../../libDaisy/src/dev/oled_ssd130x.h ****             i2c_config.pin_config.sda = {DSY_GPIOB, 9};
  34:../../libDaisy/src/dev/oled_ssd130x.h ****             i2c_address               = 0x3C;
  35:../../libDaisy/src/dev/oled_ssd130x.h ****         }
  36:../../libDaisy/src/dev/oled_ssd130x.h ****     };
  37:../../libDaisy/src/dev/oled_ssd130x.h ****     void Init(const Config& config)
  38:../../libDaisy/src/dev/oled_ssd130x.h ****     {
  39:../../libDaisy/src/dev/oled_ssd130x.h ****         i2c_address_ = config.i2c_address;
  40:../../libDaisy/src/dev/oled_ssd130x.h ****         i2c_.Init(config.i2c_config);
  41:../../libDaisy/src/dev/oled_ssd130x.h ****     };
  42:../../libDaisy/src/dev/oled_ssd130x.h ****     void SendCommand(uint8_t cmd)
  43:../../libDaisy/src/dev/oled_ssd130x.h ****     {
  44:../../libDaisy/src/dev/oled_ssd130x.h ****         uint8_t buf[2] = {0X00, cmd};
  45:../../libDaisy/src/dev/oled_ssd130x.h ****         i2c_.TransmitBlocking(i2c_address_, buf, 2, 1000);
  46:../../libDaisy/src/dev/oled_ssd130x.h ****     };
  47:../../libDaisy/src/dev/oled_ssd130x.h **** 
  48:../../libDaisy/src/dev/oled_ssd130x.h ****     void SendData(uint8_t* buff, size_t size)
  49:../../libDaisy/src/dev/oled_ssd130x.h ****     {
  50:../../libDaisy/src/dev/oled_ssd130x.h ****         for(size_t i = 0; i < size; i++)
  51:../../libDaisy/src/dev/oled_ssd130x.h ****         {
  52:../../libDaisy/src/dev/oled_ssd130x.h ****             uint8_t buf[2] = {0X40, buff[i]};
  53:../../libDaisy/src/dev/oled_ssd130x.h ****             i2c_.TransmitBlocking(i2c_address_, buf, 2, 1000);
  54:../../libDaisy/src/dev/oled_ssd130x.h ****         }
  55:../../libDaisy/src/dev/oled_ssd130x.h ****     };
  56:../../libDaisy/src/dev/oled_ssd130x.h **** 
  57:../../libDaisy/src/dev/oled_ssd130x.h ****   private:
  58:../../libDaisy/src/dev/oled_ssd130x.h ****     daisy::I2CHandle i2c_;
  59:../../libDaisy/src/dev/oled_ssd130x.h ****     uint8_t          i2c_address_;
  60:../../libDaisy/src/dev/oled_ssd130x.h **** };
  61:../../libDaisy/src/dev/oled_ssd130x.h **** 
  62:../../libDaisy/src/dev/oled_ssd130x.h **** /**
  63:../../libDaisy/src/dev/oled_ssd130x.h ****  * 4 Wire SPI Transport for SSD1306 / SSD1309 OLED display devices
  64:../../libDaisy/src/dev/oled_ssd130x.h ****  */
  65:../../libDaisy/src/dev/oled_ssd130x.h **** class SSD130x4WireSpiTransport
  66:../../libDaisy/src/dev/oled_ssd130x.h **** {
  67:../../libDaisy/src/dev/oled_ssd130x.h ****   public:
  68:../../libDaisy/src/dev/oled_ssd130x.h ****     struct Config
  69:../../libDaisy/src/dev/oled_ssd130x.h ****     {
  70:../../libDaisy/src/dev/oled_ssd130x.h ****         Config()
  71:../../libDaisy/src/dev/oled_ssd130x.h ****         {
  72:../../libDaisy/src/dev/oled_ssd130x.h ****             // Initialize using defaults
  73:../../libDaisy/src/dev/oled_ssd130x.h ****             Defaults();
  74:../../libDaisy/src/dev/oled_ssd130x.h ****         }
  75:../../libDaisy/src/dev/oled_ssd130x.h ****         SpiHandle::Config spi_config;
  76:../../libDaisy/src/dev/oled_ssd130x.h ****         struct
  77:../../libDaisy/src/dev/oled_ssd130x.h ****         {
  78:../../libDaisy/src/dev/oled_ssd130x.h ****             dsy_gpio_pin dc;    /**< & */
  79:../../libDaisy/src/dev/oled_ssd130x.h ****             dsy_gpio_pin reset; /**< & */
  80:../../libDaisy/src/dev/oled_ssd130x.h ****         } pin_config;
  81:../../libDaisy/src/dev/oled_ssd130x.h ****         void Defaults()
  82:../../libDaisy/src/dev/oled_ssd130x.h ****         {
  83:../../libDaisy/src/dev/oled_ssd130x.h ****             // SPI peripheral config
  84:../../libDaisy/src/dev/oled_ssd130x.h ****             spi_config.periph = SpiHandle::Config::Peripheral::SPI_1;
  85:../../libDaisy/src/dev/oled_ssd130x.h ****             spi_config.mode   = SpiHandle::Config::Mode::MASTER;
  86:../../libDaisy/src/dev/oled_ssd130x.h ****             spi_config.direction
  87:../../libDaisy/src/dev/oled_ssd130x.h ****                 = SpiHandle::Config::Direction::TWO_LINES_TX_ONLY;
  88:../../libDaisy/src/dev/oled_ssd130x.h ****             spi_config.datasize       = 8;
ARM GAS  /var/folders/hl/qgbwny5j0fd895c2c41bk3tw0000gp/T//ccFqANMK.s 			page 14


  89:../../libDaisy/src/dev/oled_ssd130x.h ****             spi_config.clock_polarity = SpiHandle::Config::ClockPolarity::LOW;
  90:../../libDaisy/src/dev/oled_ssd130x.h ****             spi_config.clock_phase    = SpiHandle::Config::ClockPhase::ONE_EDGE;
  91:../../libDaisy/src/dev/oled_ssd130x.h ****             spi_config.nss            = SpiHandle::Config::NSS::HARD_OUTPUT;
  92:../../libDaisy/src/dev/oled_ssd130x.h ****             spi_config.baud_prescaler = SpiHandle::Config::BaudPrescaler::PS_8;
  93:../../libDaisy/src/dev/oled_ssd130x.h ****             // SPI pin config
  94:../../libDaisy/src/dev/oled_ssd130x.h ****             spi_config.pin_config.sclk = {DSY_GPIOG, 11};
  95:../../libDaisy/src/dev/oled_ssd130x.h ****             spi_config.pin_config.miso = {DSY_GPIOX, 0};
  96:../../libDaisy/src/dev/oled_ssd130x.h ****             spi_config.pin_config.mosi = {DSY_GPIOB, 5};
  97:../../libDaisy/src/dev/oled_ssd130x.h ****             spi_config.pin_config.nss  = {DSY_GPIOG, 10};
  98:../../libDaisy/src/dev/oled_ssd130x.h ****             // SSD130x control pin config
  99:../../libDaisy/src/dev/oled_ssd130x.h ****             pin_config.dc    = {DSY_GPIOB, 4};
 100:../../libDaisy/src/dev/oled_ssd130x.h ****             pin_config.reset = {DSY_GPIOB, 15};
 101:../../libDaisy/src/dev/oled_ssd130x.h ****         }
 102:../../libDaisy/src/dev/oled_ssd130x.h ****     };
 103:../../libDaisy/src/dev/oled_ssd130x.h ****     void Init(const Config& config)
 104:../../libDaisy/src/dev/oled_ssd130x.h ****     {
 105:../../libDaisy/src/dev/oled_ssd130x.h ****         // Initialize both GPIO
 106:../../libDaisy/src/dev/oled_ssd130x.h ****         pin_dc_.mode = DSY_GPIO_MODE_OUTPUT_PP;
 107:../../libDaisy/src/dev/oled_ssd130x.h ****         pin_dc_.pin  = config.pin_config.dc;
 108:../../libDaisy/src/dev/oled_ssd130x.h ****         dsy_gpio_init(&pin_dc_);
 109:../../libDaisy/src/dev/oled_ssd130x.h ****         pin_reset_.mode = DSY_GPIO_MODE_OUTPUT_PP;
 110:../../libDaisy/src/dev/oled_ssd130x.h ****         pin_reset_.pin  = config.pin_config.reset;
 111:../../libDaisy/src/dev/oled_ssd130x.h ****         dsy_gpio_init(&pin_reset_);
 112:../../libDaisy/src/dev/oled_ssd130x.h **** 
 113:../../libDaisy/src/dev/oled_ssd130x.h ****         // Initialize SPI
 114:../../libDaisy/src/dev/oled_ssd130x.h ****         spi_.Init(config.spi_config);
 115:../../libDaisy/src/dev/oled_ssd130x.h **** 
 116:../../libDaisy/src/dev/oled_ssd130x.h ****         // Reset and Configure OLED.
 117:../../libDaisy/src/dev/oled_ssd130x.h ****         dsy_gpio_write(&pin_reset_, 0);
 118:../../libDaisy/src/dev/oled_ssd130x.h ****         System::Delay(10);
 119:../../libDaisy/src/dev/oled_ssd130x.h ****         dsy_gpio_write(&pin_reset_, 1);
 120:../../libDaisy/src/dev/oled_ssd130x.h ****         System::Delay(10);
 121:../../libDaisy/src/dev/oled_ssd130x.h ****     };
 122:../../libDaisy/src/dev/oled_ssd130x.h ****     void SendCommand(uint8_t cmd)
 123:../../libDaisy/src/dev/oled_ssd130x.h ****     {
 124:../../libDaisy/src/dev/oled_ssd130x.h ****         dsy_gpio_write(&pin_dc_, 0);
 125:../../libDaisy/src/dev/oled_ssd130x.h ****         spi_.BlockingTransmit(&cmd, 1);
 126:../../libDaisy/src/dev/oled_ssd130x.h ****     };
 127:../../libDaisy/src/dev/oled_ssd130x.h **** 
 128:../../libDaisy/src/dev/oled_ssd130x.h ****     void SendData(uint8_t* buff, size_t size)
 129:../../libDaisy/src/dev/oled_ssd130x.h ****     {
 130:../../libDaisy/src/dev/oled_ssd130x.h ****         dsy_gpio_write(&pin_dc_, 1);
 131:../../libDaisy/src/dev/oled_ssd130x.h ****         spi_.BlockingTransmit(buff, size);
 132:../../libDaisy/src/dev/oled_ssd130x.h ****     };
 133:../../libDaisy/src/dev/oled_ssd130x.h **** 
 134:../../libDaisy/src/dev/oled_ssd130x.h ****   private:
 135:../../libDaisy/src/dev/oled_ssd130x.h ****     SpiHandle spi_;
 136:../../libDaisy/src/dev/oled_ssd130x.h ****     dsy_gpio  pin_reset_;
 137:../../libDaisy/src/dev/oled_ssd130x.h ****     dsy_gpio  pin_dc_;
 138:../../libDaisy/src/dev/oled_ssd130x.h **** };
 139:../../libDaisy/src/dev/oled_ssd130x.h **** 
 140:../../libDaisy/src/dev/oled_ssd130x.h **** 
 141:../../libDaisy/src/dev/oled_ssd130x.h **** /**
 142:../../libDaisy/src/dev/oled_ssd130x.h ****  * A driver implementation for the SSD1306/SSD1309
 143:../../libDaisy/src/dev/oled_ssd130x.h ****  */
 144:../../libDaisy/src/dev/oled_ssd130x.h **** template <size_t width, size_t height, typename Transport>
 145:../../libDaisy/src/dev/oled_ssd130x.h **** class SSD130xDriver
ARM GAS  /var/folders/hl/qgbwny5j0fd895c2c41bk3tw0000gp/T//ccFqANMK.s 			page 15


 146:../../libDaisy/src/dev/oled_ssd130x.h **** {
 147:../../libDaisy/src/dev/oled_ssd130x.h ****   public:
 148:../../libDaisy/src/dev/oled_ssd130x.h ****     struct Config
 149:../../libDaisy/src/dev/oled_ssd130x.h ****     {
 150:../../libDaisy/src/dev/oled_ssd130x.h ****         typename Transport::Config transport_config;
 151:../../libDaisy/src/dev/oled_ssd130x.h ****     };
 152:../../libDaisy/src/dev/oled_ssd130x.h **** 
 153:../../libDaisy/src/dev/oled_ssd130x.h ****     void Init(Config config)
 154:../../libDaisy/src/dev/oled_ssd130x.h ****     {
 155:../../libDaisy/src/dev/oled_ssd130x.h ****         transport_.Init(config.transport_config);
 156:../../libDaisy/src/dev/oled_ssd130x.h **** 
 157:../../libDaisy/src/dev/oled_ssd130x.h ****         // Init routine...
 158:../../libDaisy/src/dev/oled_ssd130x.h **** 
 159:../../libDaisy/src/dev/oled_ssd130x.h ****         // Display Off
 160:../../libDaisy/src/dev/oled_ssd130x.h ****         transport_.SendCommand(0xaE);
 161:../../libDaisy/src/dev/oled_ssd130x.h ****         // Dimension dependent commands...
 162:../../libDaisy/src/dev/oled_ssd130x.h ****         switch(height)
 163:../../libDaisy/src/dev/oled_ssd130x.h ****         {
 164:../../libDaisy/src/dev/oled_ssd130x.h ****             case 16:
 165:../../libDaisy/src/dev/oled_ssd130x.h ****                 // Display Clock Divide Ratio
 166:../../libDaisy/src/dev/oled_ssd130x.h ****                 transport_.SendCommand(0xD5);
 167:../../libDaisy/src/dev/oled_ssd130x.h ****                 transport_.SendCommand(0x60);
 168:../../libDaisy/src/dev/oled_ssd130x.h ****                 // Multiplex Ratio
 169:../../libDaisy/src/dev/oled_ssd130x.h ****                 transport_.SendCommand(0xA8);
 170:../../libDaisy/src/dev/oled_ssd130x.h ****                 transport_.SendCommand(0x0F);
 171:../../libDaisy/src/dev/oled_ssd130x.h ****                 // COM Pins
 172:../../libDaisy/src/dev/oled_ssd130x.h ****                 transport_.SendCommand(0xDA);
 173:../../libDaisy/src/dev/oled_ssd130x.h ****                 transport_.SendCommand(0x02);
 174:../../libDaisy/src/dev/oled_ssd130x.h ****                 break;
 175:../../libDaisy/src/dev/oled_ssd130x.h ****             case 32:
 176:../../libDaisy/src/dev/oled_ssd130x.h ****                 // Display Clock Divide Ratio
 177:../../libDaisy/src/dev/oled_ssd130x.h ****                 transport_.SendCommand(0xD5);
 178:../../libDaisy/src/dev/oled_ssd130x.h ****                 transport_.SendCommand(0x80);
 179:../../libDaisy/src/dev/oled_ssd130x.h ****                 // Multiplex Ratio
 180:../../libDaisy/src/dev/oled_ssd130x.h ****                 transport_.SendCommand(0xA8);
 181:../../libDaisy/src/dev/oled_ssd130x.h ****                 transport_.SendCommand(0x1F);
 182:../../libDaisy/src/dev/oled_ssd130x.h ****                 // COM Pins
 183:../../libDaisy/src/dev/oled_ssd130x.h ****                 transport_.SendCommand(0xDA);
 184:../../libDaisy/src/dev/oled_ssd130x.h ****                 if(width == 64)
 185:../../libDaisy/src/dev/oled_ssd130x.h ****                 {
 186:../../libDaisy/src/dev/oled_ssd130x.h ****                     transport_.SendCommand(0x12);
 187:../../libDaisy/src/dev/oled_ssd130x.h ****                 }
 188:../../libDaisy/src/dev/oled_ssd130x.h ****                 else
 189:../../libDaisy/src/dev/oled_ssd130x.h ****                 {
 190:../../libDaisy/src/dev/oled_ssd130x.h ****                     transport_.SendCommand(0x02);
 191:../../libDaisy/src/dev/oled_ssd130x.h ****                 }
 192:../../libDaisy/src/dev/oled_ssd130x.h **** 
 193:../../libDaisy/src/dev/oled_ssd130x.h ****                 break;
 194:../../libDaisy/src/dev/oled_ssd130x.h ****             case 48:
 195:../../libDaisy/src/dev/oled_ssd130x.h ****                 // Display Clock Divide Ratio
 196:../../libDaisy/src/dev/oled_ssd130x.h ****                 transport_.SendCommand(0xD5);
 197:../../libDaisy/src/dev/oled_ssd130x.h ****                 transport_.SendCommand(0x80);
 198:../../libDaisy/src/dev/oled_ssd130x.h ****                 // Multiplex Ratio
 199:../../libDaisy/src/dev/oled_ssd130x.h ****                 transport_.SendCommand(0xA8);
 200:../../libDaisy/src/dev/oled_ssd130x.h ****                 transport_.SendCommand(0x2F);
 201:../../libDaisy/src/dev/oled_ssd130x.h ****                 // COM Pins
 202:../../libDaisy/src/dev/oled_ssd130x.h ****                 transport_.SendCommand(0xDA);
ARM GAS  /var/folders/hl/qgbwny5j0fd895c2c41bk3tw0000gp/T//ccFqANMK.s 			page 16


 203:../../libDaisy/src/dev/oled_ssd130x.h ****                 transport_.SendCommand(0x12);
 204:../../libDaisy/src/dev/oled_ssd130x.h ****                 break;
 205:../../libDaisy/src/dev/oled_ssd130x.h ****             default: // 128
 206:../../libDaisy/src/dev/oled_ssd130x.h ****                 // Display Clock Divide Ratio
 207:../../libDaisy/src/dev/oled_ssd130x.h ****                 transport_.SendCommand(0xD5);
 208:../../libDaisy/src/dev/oled_ssd130x.h ****                 transport_.SendCommand(0x80);
 209:../../libDaisy/src/dev/oled_ssd130x.h ****                 // Multiplex Ratio
 210:../../libDaisy/src/dev/oled_ssd130x.h ****                 transport_.SendCommand(0xA8);
 211:../../libDaisy/src/dev/oled_ssd130x.h ****                 transport_.SendCommand(0x3F);
 212:../../libDaisy/src/dev/oled_ssd130x.h ****                 // COM Pins
 213:../../libDaisy/src/dev/oled_ssd130x.h ****                 transport_.SendCommand(0xDA);
 214:../../libDaisy/src/dev/oled_ssd130x.h ****                 transport_.SendCommand(0x12);
 215:../../libDaisy/src/dev/oled_ssd130x.h ****                 break;
 216:../../libDaisy/src/dev/oled_ssd130x.h ****         }
 217:../../libDaisy/src/dev/oled_ssd130x.h **** 
 218:../../libDaisy/src/dev/oled_ssd130x.h ****         // Display Offset
 219:../../libDaisy/src/dev/oled_ssd130x.h ****         transport_.SendCommand(0xD3);
 220:../../libDaisy/src/dev/oled_ssd130x.h ****         transport_.SendCommand(0x00);
 221:../../libDaisy/src/dev/oled_ssd130x.h ****         // Start Line Address
 222:../../libDaisy/src/dev/oled_ssd130x.h ****         transport_.SendCommand(0x40);
 223:../../libDaisy/src/dev/oled_ssd130x.h ****         // Normal Display
 224:../../libDaisy/src/dev/oled_ssd130x.h ****         transport_.SendCommand(0xA6);
 225:../../libDaisy/src/dev/oled_ssd130x.h ****         // All On Resume
 226:../../libDaisy/src/dev/oled_ssd130x.h ****         transport_.SendCommand(0xA4);
 227:../../libDaisy/src/dev/oled_ssd130x.h ****         // Charge Pump
 228:../../libDaisy/src/dev/oled_ssd130x.h ****         transport_.SendCommand(0x8D);
 229:../../libDaisy/src/dev/oled_ssd130x.h ****         transport_.SendCommand(0x14);
 230:../../libDaisy/src/dev/oled_ssd130x.h ****         // Set Segment Remap
 231:../../libDaisy/src/dev/oled_ssd130x.h ****         transport_.SendCommand(0xA1);
 232:../../libDaisy/src/dev/oled_ssd130x.h ****         // COM Output Scan Direction
 233:../../libDaisy/src/dev/oled_ssd130x.h ****         transport_.SendCommand(0xC8);
 234:../../libDaisy/src/dev/oled_ssd130x.h ****         // Contrast Control
 235:../../libDaisy/src/dev/oled_ssd130x.h ****         transport_.SendCommand(0x81);
 236:../../libDaisy/src/dev/oled_ssd130x.h ****         transport_.SendCommand(0x8F);
 237:../../libDaisy/src/dev/oled_ssd130x.h ****         // Pre Charge
 238:../../libDaisy/src/dev/oled_ssd130x.h ****         transport_.SendCommand(0xD9);
 239:../../libDaisy/src/dev/oled_ssd130x.h ****         transport_.SendCommand(0x25);
 240:../../libDaisy/src/dev/oled_ssd130x.h ****         // VCOM Detect
 241:../../libDaisy/src/dev/oled_ssd130x.h ****         transport_.SendCommand(0xDB);
 242:../../libDaisy/src/dev/oled_ssd130x.h ****         transport_.SendCommand(0x34);
 243:../../libDaisy/src/dev/oled_ssd130x.h **** 
 244:../../libDaisy/src/dev/oled_ssd130x.h **** 
 245:../../libDaisy/src/dev/oled_ssd130x.h ****         // Display On
 246:../../libDaisy/src/dev/oled_ssd130x.h ****         transport_.SendCommand(0xAF); //--turn on oled panel
 247:../../libDaisy/src/dev/oled_ssd130x.h ****     };
 248:../../libDaisy/src/dev/oled_ssd130x.h **** 
 249:../../libDaisy/src/dev/oled_ssd130x.h ****     size_t Width() const { return width; };
 250:../../libDaisy/src/dev/oled_ssd130x.h ****     size_t Height() const { return height; };
 251:../../libDaisy/src/dev/oled_ssd130x.h **** 
 252:../../libDaisy/src/dev/oled_ssd130x.h ****     void DrawPixel(uint_fast8_t x, uint_fast8_t y, bool on)
 253:../../libDaisy/src/dev/oled_ssd130x.h ****     {
 254:../../libDaisy/src/dev/oled_ssd130x.h ****         if(x >= width || y >= height)
 255:../../libDaisy/src/dev/oled_ssd130x.h ****             return;
 256:../../libDaisy/src/dev/oled_ssd130x.h ****         if(on)
 257:../../libDaisy/src/dev/oled_ssd130x.h ****             buffer_[x + (y / 8) * width] |= (1 << (y % 8));
 258:../../libDaisy/src/dev/oled_ssd130x.h ****         else
 259:../../libDaisy/src/dev/oled_ssd130x.h ****             buffer_[x + (y / 8) * width] &= ~(1 << (y % 8));
ARM GAS  /var/folders/hl/qgbwny5j0fd895c2c41bk3tw0000gp/T//ccFqANMK.s 			page 17


 260:../../libDaisy/src/dev/oled_ssd130x.h ****     }
 261:../../libDaisy/src/dev/oled_ssd130x.h **** 
 262:../../libDaisy/src/dev/oled_ssd130x.h ****     void Fill(bool on)
 135              		.loc 11 262 10 view .LVU21
 136              	.LBB402:
 263:../../libDaisy/src/dev/oled_ssd130x.h ****     {
 264:../../libDaisy/src/dev/oled_ssd130x.h ****         for(size_t i = 0; i < sizeof(buffer_); i++)
 137              		.loc 11 264 29 view .LVU22
 265:../../libDaisy/src/dev/oled_ssd130x.h ****         {
 266:../../libDaisy/src/dev/oled_ssd130x.h ****             buffer_[i] = on ? 0xff : 0x00;
 138              		.loc 11 266 24 is_stmt 0 view .LVU23
 139 0000 4942     		rsbs	r1, r1, #0
 140              	.LVL3:
 141              		.loc 11 266 24 view .LVU24
 142 0002 4FF48062 		mov	r2, #1024
 143 0006 1430     		adds	r0, r0, #20
 144              	.LVL4:
 145              		.loc 11 266 24 view .LVU25
 146 0008 C9B2     		uxtb	r1, r1
 147 000a FFF7FEBF 		b	memset
 148              	.LVL5:
 149              		.loc 11 266 24 view .LVU26
 150              	.LBE402:
 151              	.LBE401:
 152              		.cfi_endproc
 153              	.LFE2584:
 155 000e 00BF     		.section	.text._ZN5daisy11OledDisplayINS_13SSD130xDriverILj128ELj64ENS_24SSD130x4WireSpiTransportE
 156              		.align	1
 157              		.p2align 2,,3
 158              		.weak	_ZN5daisy11OledDisplayINS_13SSD130xDriverILj128ELj64ENS_24SSD130x4WireSpiTransportEEEED2Ev
 159              		.syntax unified
 160              		.thumb
 161              		.thumb_func
 162              		.fpu fpv5-d16
 164              	_ZN5daisy11OledDisplayINS_13SSD130xDriverILj128ELj64ENS_24SSD130x4WireSpiTransportEEEED2Ev:
 165              	.LVL6:
 166              	.LFB2607:
  18:../../libDaisy/src/hid/disp/oled_display.h **** 
 167              		.loc 10 18 13 is_stmt 1 view -0
 168              		.cfi_startproc
 169              		@ args = 0, pretend = 0, frame = 0
 170              		@ frame_needed = 0, uses_anonymous_args = 0
 171              		@ link register save eliminated.
 172              	.LBB403:
 173              	.LBI403:
 174              		.file 12 "../../libDaisy/src/hid/disp/display.h"
   1:../../libDaisy/src/hid/disp/display.h **** #pragma once
   2:../../libDaisy/src/hid/disp/display.h **** #ifndef DSY_DISPLAY_H
   3:../../libDaisy/src/hid/disp/display.h **** #define DSY_DISPLAY_H /**< Macro */
   4:../../libDaisy/src/hid/disp/display.h **** #include <cmath>
   5:../../libDaisy/src/hid/disp/display.h **** #include "util/oled_fonts.h"
   6:../../libDaisy/src/hid/disp/display.h **** #include "daisy_core.h"
   7:../../libDaisy/src/hid/disp/display.h **** #include "graphics_common.h"
   8:../../libDaisy/src/hid/disp/display.h **** 
   9:../../libDaisy/src/hid/disp/display.h **** #ifndef deg2rad
  10:../../libDaisy/src/hid/disp/display.h **** #define deg2rad(deg) ((deg)*3.141592 / 180.0)
  11:../../libDaisy/src/hid/disp/display.h **** #endif
ARM GAS  /var/folders/hl/qgbwny5j0fd895c2c41bk3tw0000gp/T//ccFqANMK.s 			page 18


  12:../../libDaisy/src/hid/disp/display.h **** 
  13:../../libDaisy/src/hid/disp/display.h **** namespace daisy
  14:../../libDaisy/src/hid/disp/display.h **** {
  15:../../libDaisy/src/hid/disp/display.h **** /** 
  16:../../libDaisy/src/hid/disp/display.h ****  * This interface is used as a base class for all types of 1bit-per-pixel
  17:../../libDaisy/src/hid/disp/display.h ****  * graphics displays.
  18:../../libDaisy/src/hid/disp/display.h **** */
  19:../../libDaisy/src/hid/disp/display.h **** class OneBitGraphicsDisplay
  20:../../libDaisy/src/hid/disp/display.h **** {
  21:../../libDaisy/src/hid/disp/display.h ****   public:
  22:../../libDaisy/src/hid/disp/display.h ****     OneBitGraphicsDisplay() {}
  23:../../libDaisy/src/hid/disp/display.h ****     virtual ~OneBitGraphicsDisplay() {}
  24:../../libDaisy/src/hid/disp/display.h **** 
  25:../../libDaisy/src/hid/disp/display.h ****     virtual uint16_t Height() const = 0;
  26:../../libDaisy/src/hid/disp/display.h ****     virtual uint16_t Width() const  = 0;
  27:../../libDaisy/src/hid/disp/display.h **** 
  28:../../libDaisy/src/hid/disp/display.h ****     Rectangle GetBounds() const
  29:../../libDaisy/src/hid/disp/display.h ****     {
  30:../../libDaisy/src/hid/disp/display.h ****         return Rectangle(int16_t(Width()), int16_t(Height()));
  31:../../libDaisy/src/hid/disp/display.h ****     }
  32:../../libDaisy/src/hid/disp/display.h **** 
  33:../../libDaisy/src/hid/disp/display.h **** 
  34:../../libDaisy/src/hid/disp/display.h ****     size_t CurrentX() { return currentX_; };
  35:../../libDaisy/src/hid/disp/display.h ****     size_t CurrentY() { return currentY_; };
  36:../../libDaisy/src/hid/disp/display.h **** 
  37:../../libDaisy/src/hid/disp/display.h ****     /** 
  38:../../libDaisy/src/hid/disp/display.h ****     Fills the entire display with either on/off.
  39:../../libDaisy/src/hid/disp/display.h ****     \param on Sets on or off.
  40:../../libDaisy/src/hid/disp/display.h ****     */
  41:../../libDaisy/src/hid/disp/display.h ****     virtual void Fill(bool on) = 0;
  42:../../libDaisy/src/hid/disp/display.h **** 
  43:../../libDaisy/src/hid/disp/display.h ****     /**
  44:../../libDaisy/src/hid/disp/display.h ****     Sets the pixel at the specified coordinate to be on/off.
  45:../../libDaisy/src/hid/disp/display.h ****     \param x   x Coordinate
  46:../../libDaisy/src/hid/disp/display.h ****     \param y   y coordinate
  47:../../libDaisy/src/hid/disp/display.h ****     \param on  on or off
  48:../../libDaisy/src/hid/disp/display.h ****     */
  49:../../libDaisy/src/hid/disp/display.h ****     virtual void DrawPixel(uint_fast8_t x, uint_fast8_t y, bool on) = 0;
  50:../../libDaisy/src/hid/disp/display.h **** 
  51:../../libDaisy/src/hid/disp/display.h ****     /**
  52:../../libDaisy/src/hid/disp/display.h ****     Draws a line from (x1, y1) to (y1, y2)
  53:../../libDaisy/src/hid/disp/display.h ****     \param x1  x Coordinate of the starting point
  54:../../libDaisy/src/hid/disp/display.h ****     \param y1  y Coordinate of the starting point
  55:../../libDaisy/src/hid/disp/display.h ****     \param x2  x Coordinate of the ending point
  56:../../libDaisy/src/hid/disp/display.h ****     \param y2  y Coordinate of the ending point
  57:../../libDaisy/src/hid/disp/display.h ****     \param on  on or off
  58:../../libDaisy/src/hid/disp/display.h ****     */
  59:../../libDaisy/src/hid/disp/display.h ****     virtual void DrawLine(uint_fast8_t x1,
  60:../../libDaisy/src/hid/disp/display.h ****                           uint_fast8_t y1,
  61:../../libDaisy/src/hid/disp/display.h ****                           uint_fast8_t x2,
  62:../../libDaisy/src/hid/disp/display.h ****                           uint_fast8_t y2,
  63:../../libDaisy/src/hid/disp/display.h ****                           bool         on)
  64:../../libDaisy/src/hid/disp/display.h ****         = 0;
  65:../../libDaisy/src/hid/disp/display.h **** 
  66:../../libDaisy/src/hid/disp/display.h ****     /**
  67:../../libDaisy/src/hid/disp/display.h ****     Draws a rectangle based on two coordinates.
  68:../../libDaisy/src/hid/disp/display.h ****     \param x1 x Coordinate of the first point
ARM GAS  /var/folders/hl/qgbwny5j0fd895c2c41bk3tw0000gp/T//ccFqANMK.s 			page 19


  69:../../libDaisy/src/hid/disp/display.h ****     \param y1 y Coordinate of the first point
  70:../../libDaisy/src/hid/disp/display.h ****     \param x2 x Coordinate of the second point
  71:../../libDaisy/src/hid/disp/display.h ****     \param y2 y Coordinate of the second point
  72:../../libDaisy/src/hid/disp/display.h ****     \param on on or off
  73:../../libDaisy/src/hid/disp/display.h ****     \param fill fill the rectangle or draw only the outline
  74:../../libDaisy/src/hid/disp/display.h ****     */
  75:../../libDaisy/src/hid/disp/display.h ****     virtual void DrawRect(uint_fast8_t x1,
  76:../../libDaisy/src/hid/disp/display.h ****                           uint_fast8_t y1,
  77:../../libDaisy/src/hid/disp/display.h ****                           uint_fast8_t x2,
  78:../../libDaisy/src/hid/disp/display.h ****                           uint_fast8_t y2,
  79:../../libDaisy/src/hid/disp/display.h ****                           bool         on,
  80:../../libDaisy/src/hid/disp/display.h ****                           bool         fill = false)
  81:../../libDaisy/src/hid/disp/display.h ****         = 0;
  82:../../libDaisy/src/hid/disp/display.h **** 
  83:../../libDaisy/src/hid/disp/display.h ****     /**
  84:../../libDaisy/src/hid/disp/display.h ****     Draws a rectangle.
  85:../../libDaisy/src/hid/disp/display.h ****     \param rect the rectangle
  86:../../libDaisy/src/hid/disp/display.h ****     \param on   on or off
  87:../../libDaisy/src/hid/disp/display.h ****     \param fill fill the rectangle or draw only the outline
  88:../../libDaisy/src/hid/disp/display.h ****     */
  89:../../libDaisy/src/hid/disp/display.h ****     void DrawRect(const Rectangle& rect, bool on, bool fill = false)
  90:../../libDaisy/src/hid/disp/display.h ****     {
  91:../../libDaisy/src/hid/disp/display.h ****         DrawRect(rect.GetX(),
  92:../../libDaisy/src/hid/disp/display.h ****                  rect.GetY(),
  93:../../libDaisy/src/hid/disp/display.h ****                  rect.GetRight(),
  94:../../libDaisy/src/hid/disp/display.h ****                  rect.GetBottom(),
  95:../../libDaisy/src/hid/disp/display.h ****                  on,
  96:../../libDaisy/src/hid/disp/display.h ****                  fill);
  97:../../libDaisy/src/hid/disp/display.h ****     }
  98:../../libDaisy/src/hid/disp/display.h **** 
  99:../../libDaisy/src/hid/disp/display.h ****     /**
 100:../../libDaisy/src/hid/disp/display.h ****     Draws an arc around the specified coordinate
 101:../../libDaisy/src/hid/disp/display.h ****     \param x           x Coordinate of the center of the arc
 102:../../libDaisy/src/hid/disp/display.h ****     \param y           y Coordinate of the center of the arc
 103:../../libDaisy/src/hid/disp/display.h ****     \param radius      radius of the arc
 104:../../libDaisy/src/hid/disp/display.h ****     \param start_angle angle where to start the arc
 105:../../libDaisy/src/hid/disp/display.h ****     \param sweep       total angle of the arc
 106:../../libDaisy/src/hid/disp/display.h ****     \param on  on or off
 107:../../libDaisy/src/hid/disp/display.h ****     */
 108:../../libDaisy/src/hid/disp/display.h ****     virtual void DrawArc(uint_fast8_t x,
 109:../../libDaisy/src/hid/disp/display.h ****                          uint_fast8_t y,
 110:../../libDaisy/src/hid/disp/display.h ****                          uint_fast8_t radius,
 111:../../libDaisy/src/hid/disp/display.h ****                          int_fast16_t start_angle,
 112:../../libDaisy/src/hid/disp/display.h ****                          int_fast16_t sweep,
 113:../../libDaisy/src/hid/disp/display.h ****                          bool         on)
 114:../../libDaisy/src/hid/disp/display.h ****         = 0;
 115:../../libDaisy/src/hid/disp/display.h **** 
 116:../../libDaisy/src/hid/disp/display.h ****     /**
 117:../../libDaisy/src/hid/disp/display.h ****     Draws a circle around the specified coordinate
 118:../../libDaisy/src/hid/disp/display.h ****     \param x           x Coordinate of the center of the circle
 119:../../libDaisy/src/hid/disp/display.h ****     \param y           y Coordinate of the center of the circle
 120:../../libDaisy/src/hid/disp/display.h ****     \param radius      radius of the circle
 121:../../libDaisy/src/hid/disp/display.h ****     \param on  on or off
 122:../../libDaisy/src/hid/disp/display.h ****     */
 123:../../libDaisy/src/hid/disp/display.h ****     void
 124:../../libDaisy/src/hid/disp/display.h ****     DrawCircle(uint_fast8_t x, uint_fast8_t y, uint_fast8_t radius, bool on)
 125:../../libDaisy/src/hid/disp/display.h ****     {
ARM GAS  /var/folders/hl/qgbwny5j0fd895c2c41bk3tw0000gp/T//ccFqANMK.s 			page 20


 126:../../libDaisy/src/hid/disp/display.h ****         DrawArc(x, y, radius, 0, 360, on);
 127:../../libDaisy/src/hid/disp/display.h ****     };
 128:../../libDaisy/src/hid/disp/display.h **** 
 129:../../libDaisy/src/hid/disp/display.h ****     /** 
 130:../../libDaisy/src/hid/disp/display.h ****     Writes the character with the specific FontDef
 131:../../libDaisy/src/hid/disp/display.h ****     to the display buffer at the current Cursor position.
 132:../../libDaisy/src/hid/disp/display.h ****     \param ch character to be written
 133:../../libDaisy/src/hid/disp/display.h ****     \param font font to be written in
 134:../../libDaisy/src/hid/disp/display.h ****     \param on    on or off
 135:../../libDaisy/src/hid/disp/display.h ****     \return &
 136:../../libDaisy/src/hid/disp/display.h ****     */
 137:../../libDaisy/src/hid/disp/display.h ****     virtual char WriteChar(char ch, FontDef font, bool on) = 0;
 138:../../libDaisy/src/hid/disp/display.h **** 
 139:../../libDaisy/src/hid/disp/display.h ****     /** 
 140:../../libDaisy/src/hid/disp/display.h ****     Similar to WriteChar, except it will handle an entire String.
 141:../../libDaisy/src/hid/disp/display.h ****     Wrapping does not happen automatically, so the width
 142:../../libDaisy/src/hid/disp/display.h ****     of the string must be kept within the dimensions of the screen.
 143:../../libDaisy/src/hid/disp/display.h ****     \param str string to be written
 144:../../libDaisy/src/hid/disp/display.h ****     \param font font to use
 145:../../libDaisy/src/hid/disp/display.h ****     \param on  on or off
 146:../../libDaisy/src/hid/disp/display.h ****     \return &
 147:../../libDaisy/src/hid/disp/display.h ****     */
 148:../../libDaisy/src/hid/disp/display.h ****     virtual char WriteString(const char* str, FontDef font, bool on) = 0;
 149:../../libDaisy/src/hid/disp/display.h **** 
 150:../../libDaisy/src/hid/disp/display.h ****     /** 
 151:../../libDaisy/src/hid/disp/display.h ****     Similar to WriteString but justified within a bounding box.
 152:../../libDaisy/src/hid/disp/display.h ****     \param str          string to be written
 153:../../libDaisy/src/hid/disp/display.h ****     \param font         font to use
 154:../../libDaisy/src/hid/disp/display.h ****     \param boundingBox  the bounding box to draw the text in
 155:../../libDaisy/src/hid/disp/display.h ****     \param alignment    the alignment to use
 156:../../libDaisy/src/hid/disp/display.h ****     \param on           on or off
 157:../../libDaisy/src/hid/disp/display.h ****     \return The rectangle that was drawn to
 158:../../libDaisy/src/hid/disp/display.h ****     */
 159:../../libDaisy/src/hid/disp/display.h ****     virtual Rectangle WriteStringAligned(const char*    str,
 160:../../libDaisy/src/hid/disp/display.h ****                                          const FontDef& font,
 161:../../libDaisy/src/hid/disp/display.h ****                                          Rectangle      boundingBox,
 162:../../libDaisy/src/hid/disp/display.h ****                                          Alignment      alignment,
 163:../../libDaisy/src/hid/disp/display.h ****                                          bool           on)
 164:../../libDaisy/src/hid/disp/display.h ****         = 0;
 165:../../libDaisy/src/hid/disp/display.h **** 
 166:../../libDaisy/src/hid/disp/display.h ****     /** 
 167:../../libDaisy/src/hid/disp/display.h ****     Moves the 'Cursor' position used for WriteChar, and WriteStr to the specified coordinate.
 168:../../libDaisy/src/hid/disp/display.h ****     \param x x pos
 169:../../libDaisy/src/hid/disp/display.h ****     \param y y pos
 170:../../libDaisy/src/hid/disp/display.h ****     */
 171:../../libDaisy/src/hid/disp/display.h ****     void SetCursor(uint16_t x, uint16_t y)
 172:../../libDaisy/src/hid/disp/display.h ****     {
 173:../../libDaisy/src/hid/disp/display.h ****         currentX_ = (x >= Width()) ? Width() - 1 : x;
 174:../../libDaisy/src/hid/disp/display.h ****         currentY_ = (y >= Height()) ? Height() - 1 : y;
 175:../../libDaisy/src/hid/disp/display.h ****     }
 176:../../libDaisy/src/hid/disp/display.h **** 
 177:../../libDaisy/src/hid/disp/display.h ****     /** 
 178:../../libDaisy/src/hid/disp/display.h ****     Writes the current display buffer to the OLED device using SPI or I2C depending on 
 179:../../libDaisy/src/hid/disp/display.h ****     how the object was initialized.
 180:../../libDaisy/src/hid/disp/display.h ****     */
 181:../../libDaisy/src/hid/disp/display.h ****     virtual void Update() = 0;
 182:../../libDaisy/src/hid/disp/display.h **** 
ARM GAS  /var/folders/hl/qgbwny5j0fd895c2c41bk3tw0000gp/T//ccFqANMK.s 			page 21


 183:../../libDaisy/src/hid/disp/display.h ****   protected:
 184:../../libDaisy/src/hid/disp/display.h ****     uint16_t currentX_;
 185:../../libDaisy/src/hid/disp/display.h ****     uint16_t currentY_;
 186:../../libDaisy/src/hid/disp/display.h **** };
 187:../../libDaisy/src/hid/disp/display.h **** 
 188:../../libDaisy/src/hid/disp/display.h **** /** This class is intended as a intermediary class for your actual implementation of the OneBitGrap
 189:../../libDaisy/src/hid/disp/display.h ****  *  interface. It uses the CRTP design pattern where the template argument is the child class. It p
 190:../../libDaisy/src/hid/disp/display.h ****  *  implementations for most of the functions, except DrawPixel(), Update() and Fill(), which you'l
 191:../../libDaisy/src/hid/disp/display.h ****  *  to provide in your child class.
 192:../../libDaisy/src/hid/disp/display.h ****  *  The main goal of this class is to provide common drawing functions without relying on massive a
 193:../../libDaisy/src/hid/disp/display.h ****  *  virtual function calls that would result in a performance loss. To achieve this, any drawing fu
 194:../../libDaisy/src/hid/disp/display.h ****  *  is implemented here and internally calls other drawing functions (e.g. DrawRect() which interna
 195:../../libDaisy/src/hid/disp/display.h ****  *  DrawPixel() and DrawLine()) makes these calls via the qualified name of these functions to expl
 196:../../libDaisy/src/hid/disp/display.h ****  *  suppress the virtual dispatch mechanism like this:
 197:../../libDaisy/src/hid/disp/display.h ****  * 
 198:../../libDaisy/src/hid/disp/display.h ****  *      ChildType::DrawPixel(...); // no virtual function call; direct call into the child class fu
 199:../../libDaisy/src/hid/disp/display.h ****  *  
 200:../../libDaisy/src/hid/disp/display.h ****  *  To create a custom OneBitGraphicsDisplay implementation, you can 
 201:../../libDaisy/src/hid/disp/display.h ****  *  A) inherit from OneBitGraphicsDisplay directly and provide all the drawing functions yourself
 202:../../libDaisy/src/hid/disp/display.h ****  *  B) Inherit from OneBitGraphicsDisplayImpl and only provide DrawPixel(), Fill() and Update()
 203:../../libDaisy/src/hid/disp/display.h ****  *     like this:
 204:../../libDaisy/src/hid/disp/display.h ****  *  
 205:../../libDaisy/src/hid/disp/display.h ****  *      class MyDisplayClass : public OneBitGraphicsDisplayImpl<MyDisplayClass> 
 206:../../libDaisy/src/hid/disp/display.h ****  *      {
 207:../../libDaisy/src/hid/disp/display.h ****  *      public:
 208:../../libDaisy/src/hid/disp/display.h ****  *          void Fill() override { ... };
 209:../../libDaisy/src/hid/disp/display.h ****  *          void DrawPixel(uint_fast8_t x, uint_fast8_t y, bool on) override { ... };
 210:../../libDaisy/src/hid/disp/display.h ****  *          void Update() override { ... }
 211:../../libDaisy/src/hid/disp/display.h ****  *      };
 212:../../libDaisy/src/hid/disp/display.h ****  *  
 213:../../libDaisy/src/hid/disp/display.h ****  */
 214:../../libDaisy/src/hid/disp/display.h **** template <class ChildType>
 215:../../libDaisy/src/hid/disp/display.h **** class OneBitGraphicsDisplayImpl : public OneBitGraphicsDisplay
 216:../../libDaisy/src/hid/disp/display.h **** {
 217:../../libDaisy/src/hid/disp/display.h ****   public:
 218:../../libDaisy/src/hid/disp/display.h ****     OneBitGraphicsDisplayImpl() {}
 219:../../libDaisy/src/hid/disp/display.h ****     virtual ~OneBitGraphicsDisplayImpl() {}
 175              		.loc 12 219 13 view .LVU28
 176              	.LBB404:
 177              	.LBI404:
  23:../../libDaisy/src/hid/disp/display.h **** 
 178              		.loc 12 23 13 view .LVU29
  23:../../libDaisy/src/hid/disp/display.h **** 
 179              		.loc 12 23 13 is_stmt 0 view .LVU30
 180              	.LBE404:
 181              	.LBE403:
  18:../../libDaisy/src/hid/disp/oled_display.h **** 
 182              		.loc 10 18 29 view .LVU31
 183 0000 7047     		bx	lr
 184              		.cfi_endproc
 185              	.LFE2607:
 187              		.weak	_ZN5daisy11OledDisplayINS_13SSD130xDriverILj128ELj64ENS_24SSD130x4WireSpiTransportEEEED1Ev
 188              		.thumb_set _ZN5daisy11OledDisplayINS_13SSD130xDriverILj128ELj64ENS_24SSD130x4WireSpiTransportEEEED
 189 0002 00BF     		.section	.text._ZNK5daisy11OledDisplayINS_13SSD130xDriverILj128ELj64ENS_24SSD130x4WireSpiTransport
 190              		.align	1
 191              		.p2align 2,,3
 192              		.weak	_ZNK5daisy11OledDisplayINS_13SSD130xDriverILj128ELj64ENS_24SSD130x4WireSpiTransportEEEE6Heig
ARM GAS  /var/folders/hl/qgbwny5j0fd895c2c41bk3tw0000gp/T//ccFqANMK.s 			page 22


 193              		.syntax unified
 194              		.thumb
 195              		.thumb_func
 196              		.fpu fpv5-d16
 198              	_ZNK5daisy11OledDisplayINS_13SSD130xDriverILj128ELj64ENS_24SSD130x4WireSpiTransportEEEE6HeightEv:
 199              	.LVL7:
 200              	.LFB2610:
  27:../../libDaisy/src/hid/disp/oled_display.h ****     uint16_t Width() const override { return driver_.Width(); }
 201              		.loc 10 27 14 is_stmt 1 view -0
 202              		.cfi_startproc
 203              		@ args = 0, pretend = 0, frame = 0
 204              		@ frame_needed = 0, uses_anonymous_args = 0
 205              		@ link register save eliminated.
  27:../../libDaisy/src/hid/disp/oled_display.h ****     uint16_t Width() const override { return driver_.Width(); }
 206              		.loc 10 27 65 is_stmt 0 view .LVU33
 207 0000 4020     		movs	r0, #64
 208              	.LVL8:
  27:../../libDaisy/src/hid/disp/oled_display.h ****     uint16_t Width() const override { return driver_.Width(); }
 209              		.loc 10 27 65 view .LVU34
 210 0002 7047     		bx	lr
 211              		.cfi_endproc
 212              	.LFE2610:
 214              		.section	.text._ZNK5daisy11OledDisplayINS_13SSD130xDriverILj128ELj64ENS_24SSD130x4WireSpiTransport
 215              		.align	1
 216              		.p2align 2,,3
 217              		.weak	_ZNK5daisy11OledDisplayINS_13SSD130xDriverILj128ELj64ENS_24SSD130x4WireSpiTransportEEEE5Widt
 218              		.syntax unified
 219              		.thumb
 220              		.thumb_func
 221              		.fpu fpv5-d16
 223              	_ZNK5daisy11OledDisplayINS_13SSD130xDriverILj128ELj64ENS_24SSD130x4WireSpiTransportEEEE5WidthEv:
 224              	.LVL9:
 225              	.LFB2611:
  28:../../libDaisy/src/hid/disp/oled_display.h **** 
 226              		.loc 10 28 14 is_stmt 1 view -0
 227              		.cfi_startproc
 228              		@ args = 0, pretend = 0, frame = 0
 229              		@ frame_needed = 0, uses_anonymous_args = 0
 230              		@ link register save eliminated.
  28:../../libDaisy/src/hid/disp/oled_display.h **** 
 231              		.loc 10 28 63 is_stmt 0 view .LVU36
 232 0000 8020     		movs	r0, #128
 233              	.LVL10:
  28:../../libDaisy/src/hid/disp/oled_display.h **** 
 234              		.loc 10 28 63 view .LVU37
 235 0002 7047     		bx	lr
 236              		.cfi_endproc
 237              	.LFE2611:
 239              		.section	.text._ZN5daisy11OledDisplayINS_13SSD130xDriverILj128ELj64ENS_24SSD130x4WireSpiTransportE
 240              		.align	1
 241              		.p2align 2,,3
 242              		.weak	_ZN5daisy11OledDisplayINS_13SSD130xDriverILj128ELj64ENS_24SSD130x4WireSpiTransportEEEED0Ev
 243              		.syntax unified
 244              		.thumb
 245              		.thumb_func
 246              		.fpu fpv5-d16
 248              	_ZN5daisy11OledDisplayINS_13SSD130xDriverILj128ELj64ENS_24SSD130x4WireSpiTransportEEEED0Ev:
ARM GAS  /var/folders/hl/qgbwny5j0fd895c2c41bk3tw0000gp/T//ccFqANMK.s 			page 23


 249              	.LVL11:
 250              	.LFB2609:
  18:../../libDaisy/src/hid/disp/oled_display.h **** 
 251              		.loc 10 18 13 is_stmt 1 view -0
 252              		.cfi_startproc
 253              		@ args = 0, pretend = 0, frame = 0
 254              		@ frame_needed = 0, uses_anonymous_args = 0
  18:../../libDaisy/src/hid/disp/oled_display.h **** 
 255              		.loc 10 18 13 is_stmt 0 view .LVU39
 256 0000 10B5     		push	{r4, lr}
 257              		.cfi_def_cfa_offset 8
 258              		.cfi_offset 4, -8
 259              		.cfi_offset 14, -4
  18:../../libDaisy/src/hid/disp/oled_display.h **** 
 260              		.loc 10 18 13 view .LVU40
 261 0002 0446     		mov	r4, r0
 262              	.LVL12:
 263              	.LBB405:
 264              	.LBI405:
  18:../../libDaisy/src/hid/disp/oled_display.h **** 
 265              		.loc 10 18 13 is_stmt 1 view .LVU41
 266              	.LBB406:
 267              	.LBI406:
 268              		.loc 12 219 13 view .LVU42
 269              	.LBB407:
 270              	.LBI407:
  23:../../libDaisy/src/hid/disp/display.h **** 
 271              		.loc 12 23 13 view .LVU43
  23:../../libDaisy/src/hid/disp/display.h **** 
 272              		.loc 12 23 13 is_stmt 0 view .LVU44
 273              	.LBE407:
 274              	.LBE406:
 275              	.LBE405:
  18:../../libDaisy/src/hid/disp/oled_display.h **** 
 276              		.loc 10 18 29 view .LVU45
 277 0004 40F21441 		movw	r1, #1044
 278 0008 FFF7FEFF 		bl	_ZdlPvj
 279              	.LVL13:
  18:../../libDaisy/src/hid/disp/oled_display.h **** 
 280              		.loc 10 18 29 view .LVU46
 281 000c 2046     		mov	r0, r4
 282 000e 10BD     		pop	{r4, pc}
  18:../../libDaisy/src/hid/disp/oled_display.h **** 
 283              		.loc 10 18 29 view .LVU47
 284              		.cfi_endproc
 285              	.LFE2609:
 287              		.section	.text._ZN5daisy11OledDisplayINS_13SSD130xDriverILj128ELj64ENS_24SSD130x4WireSpiTransportE
 288              		.align	1
 289              		.p2align 2,,3
 290              		.weak	_ZN5daisy11OledDisplayINS_13SSD130xDriverILj128ELj64ENS_24SSD130x4WireSpiTransportEEEE6Updat
 291              		.syntax unified
 292              		.thumb
 293              		.thumb_func
 294              		.fpu fpv5-d16
 296              	_ZN5daisy11OledDisplayINS_13SSD130xDriverILj128ELj64ENS_24SSD130x4WireSpiTransportEEEE6UpdateEv:
 297              	.LVL14:
 298              	.LFB2586:
ARM GAS  /var/folders/hl/qgbwny5j0fd895c2c41bk3tw0000gp/T//ccFqANMK.s 			page 24


  35:../../libDaisy/src/hid/disp/oled_display.h **** 
  36:../../libDaisy/src/hid/disp/oled_display.h ****     /**
  37:../../libDaisy/src/hid/disp/oled_display.h ****     Sets the pixel at the specified coordinate to be on/off.
  38:../../libDaisy/src/hid/disp/oled_display.h ****     \param x   x Coordinate
  39:../../libDaisy/src/hid/disp/oled_display.h ****     \param y   y coordinate
  40:../../libDaisy/src/hid/disp/oled_display.h ****     \param on  on or off
  41:../../libDaisy/src/hid/disp/oled_display.h ****     */
  42:../../libDaisy/src/hid/disp/oled_display.h ****     void DrawPixel(uint_fast8_t x, uint_fast8_t y, bool on) override
  43:../../libDaisy/src/hid/disp/oled_display.h ****     {
  44:../../libDaisy/src/hid/disp/oled_display.h ****         driver_.DrawPixel(x, y, on);
  45:../../libDaisy/src/hid/disp/oled_display.h ****     }
  46:../../libDaisy/src/hid/disp/oled_display.h **** 
  47:../../libDaisy/src/hid/disp/oled_display.h ****     /** 
  48:../../libDaisy/src/hid/disp/oled_display.h ****     Writes the current display buffer to the OLED device using SPI or I2C depending on 
  49:../../libDaisy/src/hid/disp/oled_display.h ****     how the object was initialized.
  50:../../libDaisy/src/hid/disp/oled_display.h ****     */
  51:../../libDaisy/src/hid/disp/oled_display.h ****     void Update() override { driver_.Update(); }
 299              		.loc 10 51 10 is_stmt 1 view -0
 300              		.cfi_startproc
 301              		@ args = 0, pretend = 0, frame = 8
 302              		@ frame_needed = 0, uses_anonymous_args = 0
 303              	.LBB418:
 304              	.LBI418:
 267:../../libDaisy/src/dev/oled_ssd130x.h ****         }
 268:../../libDaisy/src/dev/oled_ssd130x.h ****     };
 269:../../libDaisy/src/dev/oled_ssd130x.h **** 
 270:../../libDaisy/src/dev/oled_ssd130x.h ****     /**
 271:../../libDaisy/src/dev/oled_ssd130x.h ****      * Update the display 
 272:../../libDaisy/src/dev/oled_ssd130x.h ****     */
 273:../../libDaisy/src/dev/oled_ssd130x.h ****     void Update()
 305              		.loc 11 273 10 view .LVU49
 306              	.LBB419:
 274:../../libDaisy/src/dev/oled_ssd130x.h ****     {
 275:../../libDaisy/src/dev/oled_ssd130x.h ****         uint8_t i;
 276:../../libDaisy/src/dev/oled_ssd130x.h ****         uint8_t high_column_addr;
 277:../../libDaisy/src/dev/oled_ssd130x.h ****         switch(height)
 278:../../libDaisy/src/dev/oled_ssd130x.h ****         {
 279:../../libDaisy/src/dev/oled_ssd130x.h ****             case 32: high_column_addr = 0x12; break;
 280:../../libDaisy/src/dev/oled_ssd130x.h **** 
 281:../../libDaisy/src/dev/oled_ssd130x.h ****             default: high_column_addr = 0x10; break;
 282:../../libDaisy/src/dev/oled_ssd130x.h ****         }
 283:../../libDaisy/src/dev/oled_ssd130x.h ****         for(i = 0; i < (height / 8); i++)
 307              		.loc 11 283 22 view .LVU50
 308              	.LBE419:
 309              	.LBE418:
 310              		.loc 10 51 10 is_stmt 0 view .LVU51
 311 0000 2DE9F041 		push	{r4, r5, r6, r7, r8, lr}
 312              		.cfi_def_cfa_offset 24
 313              		.cfi_offset 4, -24
 314              		.cfi_offset 5, -20
 315              		.cfi_offset 6, -16
 316              		.cfi_offset 7, -12
 317              		.cfi_offset 8, -8
 318              		.cfi_offset 14, -4
 319              	.LBB441:
 320              	.LBB439:
 321              	.LBB420:
ARM GAS  /var/folders/hl/qgbwny5j0fd895c2c41bk3tw0000gp/T//ccFqANMK.s 			page 25


 322              	.LBB421:
 125:../../libDaisy/src/dev/oled_ssd130x.h ****     };
 323              		.loc 11 125 30 view .LVU52
 324 0004 B024     		movs	r4, #176
 325              	.LBE421:
 326              	.LBE420:
 327              	.LBE439:
 328              	.LBE441:
 329              		.loc 10 51 10 view .LVU53
 330 0006 82B0     		sub	sp, sp, #8
 331              		.cfi_def_cfa_offset 32
 332              	.LBB442:
 333              	.LBB440:
 334              	.LBB426:
 335              	.LBB422:
 124:../../libDaisy/src/dev/oled_ssd130x.h ****         spi_.BlockingTransmit(&cmd, 1);
 336              		.loc 11 124 24 view .LVU54
 337 0008 00F10806 		add	r6, r0, #8
 338 000c 00F11005 		add	r5, r0, #16
 339 0010 00F11408 		add	r8, r0, #20
 340              	.LVL15:
 341              	.L11:
 124:../../libDaisy/src/dev/oled_ssd130x.h ****         spi_.BlockingTransmit(&cmd, 1);
 342              		.loc 11 124 24 view .LVU55
 343 0014 0027     		movs	r7, #0
 124:../../libDaisy/src/dev/oled_ssd130x.h ****         spi_.BlockingTransmit(&cmd, 1);
 344              		.loc 11 124 23 view .LVU56
 345 0016 2846     		mov	r0, r5
 346 0018 8DF80740 		strb	r4, [sp, #7]
 347              	.LVL16:
 124:../../libDaisy/src/dev/oled_ssd130x.h ****         spi_.BlockingTransmit(&cmd, 1);
 348              		.loc 11 124 23 view .LVU57
 349              	.LBE422:
 350              	.LBI420:
 122:../../libDaisy/src/dev/oled_ssd130x.h ****     {
 351              		.loc 11 122 10 is_stmt 1 view .LVU58
 352              	.LBB423:
 124:../../libDaisy/src/dev/oled_ssd130x.h ****         spi_.BlockingTransmit(&cmd, 1);
 353              		.loc 11 124 9 view .LVU59
 354              	.LBE423:
 355              	.LBE426:
 356              		.loc 11 283 22 is_stmt 0 view .LVU60
 357 001c 0134     		adds	r4, r4, #1
 358              	.LVL17:
 359              	.LBB427:
 360              	.LBB424:
 124:../../libDaisy/src/dev/oled_ssd130x.h ****         spi_.BlockingTransmit(&cmd, 1);
 361              		.loc 11 124 23 view .LVU61
 362 001e 3946     		mov	r1, r7
 363 0020 FFF7FEFF 		bl	dsy_gpio_write
 364              	.LVL18:
 125:../../libDaisy/src/dev/oled_ssd130x.h ****     };
 365              		.loc 11 125 9 is_stmt 1 view .LVU62
 125:../../libDaisy/src/dev/oled_ssd130x.h ****     };
 366              		.loc 11 125 30 is_stmt 0 view .LVU63
 367 0024 6423     		movs	r3, #100
 368 0026 0122     		movs	r2, #1
ARM GAS  /var/folders/hl/qgbwny5j0fd895c2c41bk3tw0000gp/T//ccFqANMK.s 			page 26


 369 0028 0DF10701 		add	r1, sp, #7
 370 002c 3046     		mov	r0, r6
 371              	.LBE424:
 372              	.LBE427:
 373              		.loc 11 283 22 view .LVU64
 374 002e E4B2     		uxtb	r4, r4
 375              	.LBB428:
 376              	.LBB425:
 125:../../libDaisy/src/dev/oled_ssd130x.h ****     };
 377              		.loc 11 125 30 view .LVU65
 378 0030 FFF7FEFF 		bl	_ZN5daisy9SpiHandle16BlockingTransmitEPhjm
 379              	.LVL19:
 125:../../libDaisy/src/dev/oled_ssd130x.h ****     };
 380              		.loc 11 125 30 view .LVU66
 381              	.LBE425:
 382              	.LBE428:
 383              	.LBB429:
 384              	.LBB430:
 124:../../libDaisy/src/dev/oled_ssd130x.h ****         spi_.BlockingTransmit(&cmd, 1);
 385              		.loc 11 124 23 view .LVU67
 386 0034 3946     		mov	r1, r7
 387 0036 2846     		mov	r0, r5
 388 0038 8DF80770 		strb	r7, [sp, #7]
 389              	.LVL20:
 124:../../libDaisy/src/dev/oled_ssd130x.h ****         spi_.BlockingTransmit(&cmd, 1);
 390              		.loc 11 124 23 view .LVU68
 391              	.LBE430:
 392              	.LBI429:
 122:../../libDaisy/src/dev/oled_ssd130x.h ****     {
 393              		.loc 11 122 10 is_stmt 1 view .LVU69
 394              	.LBB431:
 124:../../libDaisy/src/dev/oled_ssd130x.h ****         spi_.BlockingTransmit(&cmd, 1);
 395              		.loc 11 124 9 view .LVU70
 124:../../libDaisy/src/dev/oled_ssd130x.h ****         spi_.BlockingTransmit(&cmd, 1);
 396              		.loc 11 124 23 is_stmt 0 view .LVU71
 397 003c FFF7FEFF 		bl	dsy_gpio_write
 398              	.LVL21:
 125:../../libDaisy/src/dev/oled_ssd130x.h ****     };
 399              		.loc 11 125 9 is_stmt 1 view .LVU72
 125:../../libDaisy/src/dev/oled_ssd130x.h ****     };
 400              		.loc 11 125 30 is_stmt 0 view .LVU73
 401 0040 0122     		movs	r2, #1
 402 0042 6423     		movs	r3, #100
 403 0044 0DF10701 		add	r1, sp, #7
 404 0048 3046     		mov	r0, r6
 405 004a FFF7FEFF 		bl	_ZN5daisy9SpiHandle16BlockingTransmitEPhjm
 406              	.LVL22:
 125:../../libDaisy/src/dev/oled_ssd130x.h ****     };
 407              		.loc 11 125 30 view .LVU74
 408 004e 1023     		movs	r3, #16
 409              	.LBE431:
 410              	.LBE429:
 411              	.LBB432:
 412              	.LBB433:
 124:../../libDaisy/src/dev/oled_ssd130x.h ****         spi_.BlockingTransmit(&cmd, 1);
 413              		.loc 11 124 23 view .LVU75
 414 0050 3946     		mov	r1, r7
ARM GAS  /var/folders/hl/qgbwny5j0fd895c2c41bk3tw0000gp/T//ccFqANMK.s 			page 27


 415 0052 2846     		mov	r0, r5
 416 0054 8DF80730 		strb	r3, [sp, #7]
 417              	.LVL23:
 124:../../libDaisy/src/dev/oled_ssd130x.h ****         spi_.BlockingTransmit(&cmd, 1);
 418              		.loc 11 124 23 view .LVU76
 419              	.LBE433:
 420              	.LBI432:
 122:../../libDaisy/src/dev/oled_ssd130x.h ****     {
 421              		.loc 11 122 10 is_stmt 1 view .LVU77
 422              	.LBB434:
 124:../../libDaisy/src/dev/oled_ssd130x.h ****         spi_.BlockingTransmit(&cmd, 1);
 423              		.loc 11 124 9 view .LVU78
 124:../../libDaisy/src/dev/oled_ssd130x.h ****         spi_.BlockingTransmit(&cmd, 1);
 424              		.loc 11 124 23 is_stmt 0 view .LVU79
 425 0058 FFF7FEFF 		bl	dsy_gpio_write
 426              	.LVL24:
 125:../../libDaisy/src/dev/oled_ssd130x.h ****     };
 427              		.loc 11 125 9 is_stmt 1 view .LVU80
 125:../../libDaisy/src/dev/oled_ssd130x.h ****     };
 428              		.loc 11 125 30 is_stmt 0 view .LVU81
 429 005c 6423     		movs	r3, #100
 430 005e 0122     		movs	r2, #1
 431 0060 0DF10701 		add	r1, sp, #7
 432 0064 3046     		mov	r0, r6
 433 0066 FFF7FEFF 		bl	_ZN5daisy9SpiHandle16BlockingTransmitEPhjm
 434              	.LVL25:
 125:../../libDaisy/src/dev/oled_ssd130x.h ****     };
 435              		.loc 11 125 30 view .LVU82
 436              	.LBE434:
 437              	.LBE432:
 438              	.LBB435:
 439              	.LBI435:
 128:../../libDaisy/src/dev/oled_ssd130x.h ****     {
 440              		.loc 11 128 10 is_stmt 1 view .LVU83
 441              	.LBB436:
 130:../../libDaisy/src/dev/oled_ssd130x.h ****         spi_.BlockingTransmit(buff, size);
 442              		.loc 11 130 9 view .LVU84
 130:../../libDaisy/src/dev/oled_ssd130x.h ****         spi_.BlockingTransmit(buff, size);
 443              		.loc 11 130 23 is_stmt 0 view .LVU85
 444 006a 0121     		movs	r1, #1
 445 006c 2846     		mov	r0, r5
 446 006e FFF7FEFF 		bl	dsy_gpio_write
 447              	.LVL26:
 131:../../libDaisy/src/dev/oled_ssd130x.h ****     };
 448              		.loc 11 131 9 is_stmt 1 view .LVU86
 131:../../libDaisy/src/dev/oled_ssd130x.h ****     };
 449              		.loc 11 131 30 is_stmt 0 view .LVU87
 450 0072 8022     		movs	r2, #128
 451 0074 4146     		mov	r1, r8
 452 0076 6423     		movs	r3, #100
 453 0078 3046     		mov	r0, r6
 454              	.LBE436:
 455              	.LBE435:
 456              		.loc 11 283 22 view .LVU88
 457 007a 9044     		add	r8, r8, r2
 458              	.LVL27:
 459              	.LBB438:
ARM GAS  /var/folders/hl/qgbwny5j0fd895c2c41bk3tw0000gp/T//ccFqANMK.s 			page 28


 460              	.LBB437:
 131:../../libDaisy/src/dev/oled_ssd130x.h ****     };
 461              		.loc 11 131 30 view .LVU89
 462 007c FFF7FEFF 		bl	_ZN5daisy9SpiHandle16BlockingTransmitEPhjm
 463              	.LVL28:
 131:../../libDaisy/src/dev/oled_ssd130x.h ****     };
 464              		.loc 11 131 30 view .LVU90
 465              	.LBE437:
 466              	.LBE438:
 467              		.loc 11 283 9 is_stmt 1 view .LVU91
 468              		.loc 11 283 22 view .LVU92
 469 0080 B82C     		cmp	r4, #184
 470 0082 C7D1     		bne	.L11
 471              	.LBE440:
 472              	.LBE442:
 473              		.loc 10 51 48 is_stmt 0 view .LVU93
 474 0084 02B0     		add	sp, sp, #8
 475              		.cfi_def_cfa_offset 24
 476              		@ sp needed
 477 0086 BDE8F081 		pop	{r4, r5, r6, r7, r8, pc}
 478              		.loc 10 51 48 view .LVU94
 479              		.cfi_endproc
 480              	.LFE2586:
 482 008a 00BF     		.section	.text._ZN5daisy25OneBitGraphicsDisplayImplINS_11OledDisplayINS_13SSD130xDriverILj128ELj64
 483              		.align	1
 484              		.p2align 2,,3
 485              		.weak	_ZN5daisy25OneBitGraphicsDisplayImplINS_11OledDisplayINS_13SSD130xDriverILj128ELj64ENS_24SSD
 486              		.syntax unified
 487              		.thumb
 488              		.thumb_func
 489              		.fpu fpv5-d16
 491              	_ZN5daisy25OneBitGraphicsDisplayImplINS_11OledDisplayINS_13SSD130xDriverILj128ELj64ENS_24SSD130x4Wi
 492              	.LVL29:
 493              	.LFB2600:
 220:../../libDaisy/src/hid/disp/display.h **** 
 221:../../libDaisy/src/hid/disp/display.h ****     void DrawLine(uint_fast8_t x1,
 222:../../libDaisy/src/hid/disp/display.h ****                   uint_fast8_t y1,
 223:../../libDaisy/src/hid/disp/display.h ****                   uint_fast8_t x2,
 224:../../libDaisy/src/hid/disp/display.h ****                   uint_fast8_t y2,
 225:../../libDaisy/src/hid/disp/display.h ****                   bool         on) override
 226:../../libDaisy/src/hid/disp/display.h ****     {
 227:../../libDaisy/src/hid/disp/display.h ****         int_fast16_t deltaX = abs((int_fast16_t)x2 - (int_fast16_t)x1);
 228:../../libDaisy/src/hid/disp/display.h ****         int_fast16_t deltaY = abs((int_fast16_t)y2 - (int_fast16_t)y1);
 229:../../libDaisy/src/hid/disp/display.h ****         int_fast16_t signX  = ((x1 < x2) ? 1 : -1);
 230:../../libDaisy/src/hid/disp/display.h ****         int_fast16_t signY  = ((y1 < y2) ? 1 : -1);
 231:../../libDaisy/src/hid/disp/display.h ****         int_fast16_t error  = deltaX - deltaY;
 232:../../libDaisy/src/hid/disp/display.h ****         int_fast16_t error2;
 233:../../libDaisy/src/hid/disp/display.h **** 
 234:../../libDaisy/src/hid/disp/display.h ****         // If we write "ChildType::DrawPixel(x2, y2, on);", we end up with
 235:../../libDaisy/src/hid/disp/display.h ****         // all sorts of weird compiler errors when the Child class is a template
 236:../../libDaisy/src/hid/disp/display.h ****         // class. The only way around this is to use this very verbose syntax:
 237:../../libDaisy/src/hid/disp/display.h ****         ((ChildType*)(this))->ChildType::DrawPixel(x2, y2, on);
 238:../../libDaisy/src/hid/disp/display.h **** 
 239:../../libDaisy/src/hid/disp/display.h ****         while((x1 != x2) || (y1 != y2))
 240:../../libDaisy/src/hid/disp/display.h ****         {
 241:../../libDaisy/src/hid/disp/display.h ****             ((ChildType*)(this))->ChildType::DrawPixel(x1, y1, on);
 242:../../libDaisy/src/hid/disp/display.h ****             error2 = error * 2;
ARM GAS  /var/folders/hl/qgbwny5j0fd895c2c41bk3tw0000gp/T//ccFqANMK.s 			page 29


 243:../../libDaisy/src/hid/disp/display.h ****             if(error2 > -deltaY)
 244:../../libDaisy/src/hid/disp/display.h ****             {
 245:../../libDaisy/src/hid/disp/display.h ****                 error -= deltaY;
 246:../../libDaisy/src/hid/disp/display.h ****                 x1 += signX;
 247:../../libDaisy/src/hid/disp/display.h ****             }
 248:../../libDaisy/src/hid/disp/display.h **** 
 249:../../libDaisy/src/hid/disp/display.h ****             if(error2 < deltaX)
 250:../../libDaisy/src/hid/disp/display.h ****             {
 251:../../libDaisy/src/hid/disp/display.h ****                 error += deltaX;
 252:../../libDaisy/src/hid/disp/display.h ****                 y1 += signY;
 253:../../libDaisy/src/hid/disp/display.h ****             }
 254:../../libDaisy/src/hid/disp/display.h ****         }
 255:../../libDaisy/src/hid/disp/display.h ****     }
 256:../../libDaisy/src/hid/disp/display.h **** 
 257:../../libDaisy/src/hid/disp/display.h ****     void DrawRect(uint_fast8_t x1,
 258:../../libDaisy/src/hid/disp/display.h ****                   uint_fast8_t y1,
 259:../../libDaisy/src/hid/disp/display.h ****                   uint_fast8_t x2,
 260:../../libDaisy/src/hid/disp/display.h ****                   uint_fast8_t y2,
 261:../../libDaisy/src/hid/disp/display.h ****                   bool         on,
 262:../../libDaisy/src/hid/disp/display.h ****                   bool         fill = false) override
 263:../../libDaisy/src/hid/disp/display.h ****     {
 264:../../libDaisy/src/hid/disp/display.h ****         if(fill)
 265:../../libDaisy/src/hid/disp/display.h ****         {
 266:../../libDaisy/src/hid/disp/display.h ****             for(uint_fast8_t x = x1; x <= x2; x++)
 267:../../libDaisy/src/hid/disp/display.h ****             {
 268:../../libDaisy/src/hid/disp/display.h ****                 for(uint_fast8_t y = y1; y <= y2; y++)
 269:../../libDaisy/src/hid/disp/display.h ****                 {
 270:../../libDaisy/src/hid/disp/display.h ****                     ((ChildType*)(this))->ChildType::DrawPixel(x, y, on);
 271:../../libDaisy/src/hid/disp/display.h ****                 }
 272:../../libDaisy/src/hid/disp/display.h ****             }
 273:../../libDaisy/src/hid/disp/display.h ****         }
 274:../../libDaisy/src/hid/disp/display.h ****         else
 275:../../libDaisy/src/hid/disp/display.h ****         {
 276:../../libDaisy/src/hid/disp/display.h ****             ((ChildType*)(this))->ChildType::DrawLine(x1, y1, x2, y1, on);
 277:../../libDaisy/src/hid/disp/display.h ****             ((ChildType*)(this))->ChildType::DrawLine(x2, y1, x2, y2, on);
 278:../../libDaisy/src/hid/disp/display.h ****             ((ChildType*)(this))->ChildType::DrawLine(x2, y2, x1, y2, on);
 279:../../libDaisy/src/hid/disp/display.h ****             ((ChildType*)(this))->ChildType::DrawLine(x1, y2, x1, y1, on);
 280:../../libDaisy/src/hid/disp/display.h ****         }
 281:../../libDaisy/src/hid/disp/display.h ****     }
 282:../../libDaisy/src/hid/disp/display.h **** 
 283:../../libDaisy/src/hid/disp/display.h ****     void DrawArc(uint_fast8_t x,
 284:../../libDaisy/src/hid/disp/display.h ****                  uint_fast8_t y,
 285:../../libDaisy/src/hid/disp/display.h ****                  uint_fast8_t radius,
 286:../../libDaisy/src/hid/disp/display.h ****                  int_fast16_t start_angle,
 287:../../libDaisy/src/hid/disp/display.h ****                  int_fast16_t sweep,
 288:../../libDaisy/src/hid/disp/display.h ****                  bool         on) override
 289:../../libDaisy/src/hid/disp/display.h ****     {
 290:../../libDaisy/src/hid/disp/display.h ****         // Values to calculate the circle
 291:../../libDaisy/src/hid/disp/display.h ****         int_fast16_t t_x, t_y, err, e2;
 292:../../libDaisy/src/hid/disp/display.h **** 
 293:../../libDaisy/src/hid/disp/display.h ****         // Temporary values to speed up comparisons
 294:../../libDaisy/src/hid/disp/display.h ****         float t_sxy, t_syx, t_sxny, t_synx;
 295:../../libDaisy/src/hid/disp/display.h ****         float t_exy, t_eyx, t_exny, t_eynx;
 296:../../libDaisy/src/hid/disp/display.h **** 
 297:../../libDaisy/src/hid/disp/display.h ****         float start_angle_rad, end_angle_rad;
 298:../../libDaisy/src/hid/disp/display.h ****         float start_x, start_y, end_x, end_y;
 299:../../libDaisy/src/hid/disp/display.h **** 
ARM GAS  /var/folders/hl/qgbwny5j0fd895c2c41bk3tw0000gp/T//ccFqANMK.s 			page 30


 300:../../libDaisy/src/hid/disp/display.h ****         bool d1, d2, d3, d4;
 301:../../libDaisy/src/hid/disp/display.h **** 
 302:../../libDaisy/src/hid/disp/display.h ****         d1 = d2 = d3 = d4 = true;
 303:../../libDaisy/src/hid/disp/display.h **** 
 304:../../libDaisy/src/hid/disp/display.h ****         bool circle = false;
 305:../../libDaisy/src/hid/disp/display.h **** 
 306:../../libDaisy/src/hid/disp/display.h ****         if(sweep < 0)
 307:../../libDaisy/src/hid/disp/display.h ****         {
 308:../../libDaisy/src/hid/disp/display.h ****             start_angle += sweep;
 309:../../libDaisy/src/hid/disp/display.h ****             sweep = -sweep;
 310:../../libDaisy/src/hid/disp/display.h ****         }
 311:../../libDaisy/src/hid/disp/display.h **** 
 312:../../libDaisy/src/hid/disp/display.h ****         start_angle_rad = deg2rad(start_angle);
 313:../../libDaisy/src/hid/disp/display.h ****         end_angle_rad   = deg2rad(start_angle + sweep);
 314:../../libDaisy/src/hid/disp/display.h **** 
 315:../../libDaisy/src/hid/disp/display.h ****         start_x = cos(start_angle_rad) * radius;
 316:../../libDaisy/src/hid/disp/display.h ****         start_y = -sin(start_angle_rad) * radius;
 317:../../libDaisy/src/hid/disp/display.h ****         end_x   = cos(end_angle_rad) * radius;
 318:../../libDaisy/src/hid/disp/display.h ****         end_y   = -sin(end_angle_rad) * radius;
 319:../../libDaisy/src/hid/disp/display.h **** 
 320:../../libDaisy/src/hid/disp/display.h ****         // Check if start and endpoint are very near
 321:../../libDaisy/src/hid/disp/display.h ****         if((end_x - start_x) * (end_x - start_x)
 322:../../libDaisy/src/hid/disp/display.h ****                + (end_y - start_y) * (end_y - start_y)
 323:../../libDaisy/src/hid/disp/display.h ****            < 2.0f)
 324:../../libDaisy/src/hid/disp/display.h ****         {
 325:../../libDaisy/src/hid/disp/display.h ****             if(sweep > 180)
 326:../../libDaisy/src/hid/disp/display.h ****                 circle = true;
 327:../../libDaisy/src/hid/disp/display.h ****             else
 328:../../libDaisy/src/hid/disp/display.h ****                 // Nothing to draw
 329:../../libDaisy/src/hid/disp/display.h ****                 return;
 330:../../libDaisy/src/hid/disp/display.h ****         }
 331:../../libDaisy/src/hid/disp/display.h **** 
 332:../../libDaisy/src/hid/disp/display.h ****         t_x = -radius;
 333:../../libDaisy/src/hid/disp/display.h ****         t_y = 0;
 334:../../libDaisy/src/hid/disp/display.h ****         err = 2 - 2 * radius;
 335:../../libDaisy/src/hid/disp/display.h **** 
 336:../../libDaisy/src/hid/disp/display.h ****         do
 337:../../libDaisy/src/hid/disp/display.h ****         {
 338:../../libDaisy/src/hid/disp/display.h ****             if(!circle)
 339:../../libDaisy/src/hid/disp/display.h ****             {
 340:../../libDaisy/src/hid/disp/display.h ****                 t_sxy  = start_x * t_y;
 341:../../libDaisy/src/hid/disp/display.h ****                 t_syx  = start_y * t_x;
 342:../../libDaisy/src/hid/disp/display.h ****                 t_sxny = start_x * -t_y;
 343:../../libDaisy/src/hid/disp/display.h ****                 t_synx = start_y * -t_x;
 344:../../libDaisy/src/hid/disp/display.h ****                 t_exy  = end_x * t_y;
 345:../../libDaisy/src/hid/disp/display.h ****                 t_eyx  = end_y * t_x;
 346:../../libDaisy/src/hid/disp/display.h ****                 t_exny = end_x * -t_y;
 347:../../libDaisy/src/hid/disp/display.h ****                 t_eynx = end_y * -t_x;
 348:../../libDaisy/src/hid/disp/display.h **** 
 349:../../libDaisy/src/hid/disp/display.h ****                 if(sweep > 180)
 350:../../libDaisy/src/hid/disp/display.h ****                 {
 351:../../libDaisy/src/hid/disp/display.h ****                     d1 = (t_sxy - t_synx < 0 || t_exy - t_eynx > 0);
 352:../../libDaisy/src/hid/disp/display.h ****                     d2 = (t_sxy - t_syx < 0 || t_exy - t_eyx > 0);
 353:../../libDaisy/src/hid/disp/display.h ****                     d3 = (t_sxny - t_syx < 0 || t_exny - t_eyx > 0);
 354:../../libDaisy/src/hid/disp/display.h ****                     d4 = (t_sxny - t_synx < 0 || t_exny - t_eynx > 0);
 355:../../libDaisy/src/hid/disp/display.h ****                 }
 356:../../libDaisy/src/hid/disp/display.h ****                 else
ARM GAS  /var/folders/hl/qgbwny5j0fd895c2c41bk3tw0000gp/T//ccFqANMK.s 			page 31


 357:../../libDaisy/src/hid/disp/display.h ****                 {
 358:../../libDaisy/src/hid/disp/display.h ****                     d1 = (t_sxy - t_synx < 0 && t_exy - t_eynx > 0);
 359:../../libDaisy/src/hid/disp/display.h ****                     d2 = (t_sxy - t_syx < 0 && t_exy - t_eyx > 0);
 360:../../libDaisy/src/hid/disp/display.h ****                     d3 = (t_sxny - t_syx < 0 && t_exny - t_eyx > 0);
 361:../../libDaisy/src/hid/disp/display.h ****                     d4 = (t_sxny - t_synx < 0 && t_exny - t_eynx > 0);
 362:../../libDaisy/src/hid/disp/display.h ****                 }
 363:../../libDaisy/src/hid/disp/display.h ****             }
 364:../../libDaisy/src/hid/disp/display.h **** 
 365:../../libDaisy/src/hid/disp/display.h ****             if(d1)
 366:../../libDaisy/src/hid/disp/display.h ****                 ((ChildType*)(this))
 367:../../libDaisy/src/hid/disp/display.h ****                     ->ChildType::DrawPixel(x - t_x, y + t_y, on);
 368:../../libDaisy/src/hid/disp/display.h ****             if(d2)
 369:../../libDaisy/src/hid/disp/display.h ****                 ((ChildType*)(this))
 370:../../libDaisy/src/hid/disp/display.h ****                     ->ChildType::DrawPixel(x + t_x, y + t_y, on);
 371:../../libDaisy/src/hid/disp/display.h ****             if(d3)
 372:../../libDaisy/src/hid/disp/display.h ****                 ((ChildType*)(this))
 373:../../libDaisy/src/hid/disp/display.h ****                     ->ChildType::DrawPixel(x + t_x, y - t_y, on);
 374:../../libDaisy/src/hid/disp/display.h ****             if(d4)
 375:../../libDaisy/src/hid/disp/display.h ****                 ((ChildType*)(this))
 376:../../libDaisy/src/hid/disp/display.h ****                     ->ChildType::DrawPixel(x - t_x, y - t_y, on);
 377:../../libDaisy/src/hid/disp/display.h **** 
 378:../../libDaisy/src/hid/disp/display.h ****             e2 = err;
 379:../../libDaisy/src/hid/disp/display.h ****             if(e2 <= t_y)
 380:../../libDaisy/src/hid/disp/display.h ****             {
 381:../../libDaisy/src/hid/disp/display.h ****                 t_y++;
 382:../../libDaisy/src/hid/disp/display.h ****                 err = err + (t_y * 2 + 1);
 383:../../libDaisy/src/hid/disp/display.h ****                 if(-t_x == t_y && e2 <= t_x)
 384:../../libDaisy/src/hid/disp/display.h ****                 {
 385:../../libDaisy/src/hid/disp/display.h ****                     e2 = 0;
 386:../../libDaisy/src/hid/disp/display.h ****                 }
 387:../../libDaisy/src/hid/disp/display.h ****             }
 388:../../libDaisy/src/hid/disp/display.h ****             if(e2 > t_x)
 389:../../libDaisy/src/hid/disp/display.h ****             {
 390:../../libDaisy/src/hid/disp/display.h ****                 t_x++;
 391:../../libDaisy/src/hid/disp/display.h ****                 err = err + (t_x * 2 + 1);
 392:../../libDaisy/src/hid/disp/display.h ****             }
 393:../../libDaisy/src/hid/disp/display.h ****         } while(t_x <= 0);
 394:../../libDaisy/src/hid/disp/display.h ****     }
 395:../../libDaisy/src/hid/disp/display.h **** 
 396:../../libDaisy/src/hid/disp/display.h ****     char WriteChar(char ch, FontDef font, bool on) override
 494              		.loc 12 396 10 is_stmt 1 view -0
 495              		.cfi_startproc
 496              		@ args = 4, pretend = 0, frame = 16
 497              		@ frame_needed = 0, uses_anonymous_args = 0
 498              		.loc 12 396 10 is_stmt 0 view .LVU96
 499 0000 2DE9F04F 		push	{r4, r5, r6, r7, r8, r9, r10, fp, lr}
 500              		.cfi_def_cfa_offset 36
 501              		.cfi_offset 4, -36
 502              		.cfi_offset 5, -32
 503              		.cfi_offset 6, -28
 504              		.cfi_offset 7, -24
 505              		.cfi_offset 8, -20
 506              		.cfi_offset 9, -16
 507              		.cfi_offset 10, -12
 508              		.cfi_offset 11, -8
 509              		.cfi_offset 14, -4
 510 0004 85B0     		sub	sp, sp, #20
ARM GAS  /var/folders/hl/qgbwny5j0fd895c2c41bk3tw0000gp/T//ccFqANMK.s 			page 32


 511              		.cfi_def_cfa_offset 56
 512              	.LVL30:
 397:../../libDaisy/src/hid/disp/display.h ****     {
 398:../../libDaisy/src/hid/disp/display.h ****         uint32_t i, b, j;
 399:../../libDaisy/src/hid/disp/display.h **** 
 400:../../libDaisy/src/hid/disp/display.h ****         // Check if character is valid
 401:../../libDaisy/src/hid/disp/display.h ****         if(ch < 32 || ch > 126)
 513              		.loc 12 401 20 view .LVU97
 514 0006 A1F12005 		sub	r5, r1, #32
 396:../../libDaisy/src/hid/disp/display.h ****     {
 515              		.loc 12 396 10 view .LVU98
 516 000a 04AC     		add	r4, sp, #16
 517 000c 9DF83870 		ldrb	r7, [sp, #56]	@ zero_extendqisi2
 518 0010 0091     		str	r1, [sp]
 519 0012 04E90C00 		stmdb	r4, {r2, r3}
 520              	.LVL31:
 521              		.loc 12 401 9 view .LVU99
 522 0016 EBB2     		uxtb	r3, r5
 523 0018 5E2B     		cmp	r3, #94
 524 001a 00F29580 		bhi	.L18
 402:../../libDaisy/src/hid/disp/display.h ****             return 0;
 403:../../libDaisy/src/hid/disp/display.h **** 
 404:../../libDaisy/src/hid/disp/display.h ****         // Check remaining space on current line
 405:../../libDaisy/src/hid/disp/display.h ****         if(Width() < (currentX_ + font.FontWidth)
 525              		.loc 12 405 17 view .LVU100
 526 001e 0368     		ldr	r3, [r0]
 527 0020 8046     		mov	r8, r0
 528 0022 5D4A     		ldr	r2, .L53
 529 0024 DB68     		ldr	r3, [r3, #12]
 530 0026 9DF80840 		ldrb	r4, [sp, #8]	@ zero_extendqisi2
 531 002a 9342     		cmp	r3, r2
 532 002c 9DF80960 		ldrb	r6, [sp, #9]	@ zero_extendqisi2
 533 0030 40F09480 		bne	.L45
 534 0034 8020     		movs	r0, #128
 535              	.LVL32:
 536              	.L17:
 537              		.loc 12 405 23 view .LVU101
 538 0036 B8F80430 		ldrh	r3, [r8, #4]
 539              		.loc 12 405 33 view .LVU102
 540 003a 2344     		add	r3, r3, r4
 406:../../libDaisy/src/hid/disp/display.h ****            || Height() < (currentY_ + font.FontHeight))
 541              		.loc 12 406 12 view .LVU103
 542 003c 8342     		cmp	r3, r0
 543 003e 00F38380 		bgt	.L18
 544              		.loc 12 406 21 discriminator 2 view .LVU104
 545 0042 D8F80030 		ldr	r3, [r8]
 546 0046 554A     		ldr	r2, .L53+4
 547 0048 9B68     		ldr	r3, [r3, #8]
 548 004a 9342     		cmp	r3, r2
 549 004c 40F08880 		bne	.L46
 550              		.loc 12 406 21 view .LVU105
 551 0050 4020     		movs	r0, #64
 552              	.L19:
 553              		.loc 12 406 27 discriminator 2 view .LVU106
 554 0052 B8F80620 		ldrh	r2, [r8, #6]
 555              		.loc 12 406 37 discriminator 2 view .LVU107
 556 0056 9319     		adds	r3, r2, r6
ARM GAS  /var/folders/hl/qgbwny5j0fd895c2c41bk3tw0000gp/T//ccFqANMK.s 			page 33


 557              		.loc 12 406 27 discriminator 2 view .LVU108
 558 0058 0192     		str	r2, [sp, #4]
 559              		.loc 12 406 12 discriminator 2 view .LVU109
 560 005a 8342     		cmp	r3, r0
 561 005c 74DC     		bgt	.L18
 562              	.LVL33:
 407:../../libDaisy/src/hid/disp/display.h ****         {
 408:../../libDaisy/src/hid/disp/display.h ****             // Not enough space on current line
 409:../../libDaisy/src/hid/disp/display.h ****             return 0;
 410:../../libDaisy/src/hid/disp/display.h ****         }
 411:../../libDaisy/src/hid/disp/display.h **** 
 412:../../libDaisy/src/hid/disp/display.h ****         // Use the font to write
 413:../../libDaisy/src/hid/disp/display.h ****         for(i = 0; i < font.FontHeight; i++)
 563              		.loc 12 413 22 is_stmt 1 view .LVU110
 564 005e 002E     		cmp	r6, #0
 565 0060 00F08980 		beq	.L20
 414:../../libDaisy/src/hid/disp/display.h ****         {
 415:../../libDaisy/src/hid/disp/display.h ****             b = font.data[(ch - 32) * font.FontHeight + i];
 566              		.loc 12 415 37 is_stmt 0 view .LVU111
 567 0064 06FB05F5 		mul	r5, r6, r5
 568 0068 6FF00040 		mvn	r0, #-2147483648
 569              		.loc 12 415 22 view .LVU112
 570 006c 039B     		ldr	r3, [sp, #12]
 571 006e 9646     		mov	lr, r2
 572 0070 2844     		add	r0, r0, r5
 573 0072 2E44     		add	r6, r6, r5
 416:../../libDaisy/src/hid/disp/display.h ****             for(j = 0; j < font.FontWidth; j++)
 417:../../libDaisy/src/hid/disp/display.h ****             {
 418:../../libDaisy/src/hid/disp/display.h ****                 if((b << j) & 0x8000)
 419:../../libDaisy/src/hid/disp/display.h ****                 {
 420:../../libDaisy/src/hid/disp/display.h ****                     ((ChildType*)(this))
 421:../../libDaisy/src/hid/disp/display.h ****                         ->ChildType::DrawPixel(
 422:../../libDaisy/src/hid/disp/display.h ****                             currentX_ + j, (currentY_ + i), on);
 423:../../libDaisy/src/hid/disp/display.h ****                 }
 424:../../libDaisy/src/hid/disp/display.h ****                 else
 425:../../libDaisy/src/hid/disp/display.h ****                 {
 426:../../libDaisy/src/hid/disp/display.h ****                     ((ChildType*)(this))
 427:../../libDaisy/src/hid/disp/display.h ****                         ->ChildType::DrawPixel(
 428:../../libDaisy/src/hid/disp/display.h ****                             currentX_ + j, (currentY_ + i), !on);
 429:../../libDaisy/src/hid/disp/display.h ****                 }
 430:../../libDaisy/src/hid/disp/display.h ****             }
 431:../../libDaisy/src/hid/disp/display.h ****         }
 432:../../libDaisy/src/hid/disp/display.h **** 
 433:../../libDaisy/src/hid/disp/display.h ****         // The current space is now taken
 434:../../libDaisy/src/hid/disp/display.h ****         SetCursor(currentX_ + font.FontWidth, currentY_);
 574              		.loc 12 434 19 view .LVU113
 575 0074 B8F804A0 		ldrh	r10, [r8, #4]
 576 0078 03EB4000 		add	r0, r3, r0, lsl #1
 577 007c 023B     		subs	r3, r3, #2
 578 007e 03EB460B 		add	fp, r3, r6, lsl #1
 579              	.LVL34:
 580              	.L23:
 415:../../libDaisy/src/hid/disp/display.h ****             for(j = 0; j < font.FontWidth; j++)
 581              		.loc 12 415 15 view .LVU114
 582 0082 30F8026F 		ldrh	r6, [r0, #2]!
 583              	.LVL35:
 416:../../libDaisy/src/hid/disp/display.h ****             for(j = 0; j < font.FontWidth; j++)
ARM GAS  /var/folders/hl/qgbwny5j0fd895c2c41bk3tw0000gp/T//ccFqANMK.s 			page 34


 584              		.loc 12 416 26 is_stmt 1 view .LVU115
 585 0086 BCB3     		cbz	r4, .L28
 586              	.LBB473:
 587              	.LBB474:
 588              	.LBB475:
 589              	.LBB476:
 590              	.LBB477:
 259:../../libDaisy/src/dev/oled_ssd130x.h ****     }
 591              		.loc 11 259 55 is_stmt 0 view .LVU116
 592 0088 0EF00703 		and	r3, lr, #7
 259:../../libDaisy/src/dev/oled_ssd130x.h ****     }
 593              		.loc 11 259 49 view .LVU117
 594 008c 4FF0010C 		mov	ip, #1
 259:../../libDaisy/src/dev/oled_ssd130x.h ****     }
 595              		.loc 11 259 28 view .LVU118
 596 0090 4FEADE02 		lsr	r2, lr, #3
 597 0094 5146     		mov	r1, r10
 259:../../libDaisy/src/dev/oled_ssd130x.h ****     }
 598              		.loc 11 259 49 view .LVU119
 599 0096 0CFA03FC 		lsl	ip, ip, r3
 600 009a 0AF11403 		add	r3, r10, #20
 259:../../libDaisy/src/dev/oled_ssd130x.h ****     }
 601              		.loc 11 259 42 view .LVU120
 602 009e 4FFA8CFC 		sxtb	ip, ip
 603 00a2 03EBC212 		add	r2, r3, r2, lsl #7
 604              	.LBE477:
 605              	.LBE476:
 606              	.LBE475:
 607              	.LBE474:
 608              	.LBE473:
 416:../../libDaisy/src/hid/disp/display.h ****             for(j = 0; j < font.FontWidth; j++)
 609              		.loc 12 416 19 view .LVU121
 610 00a6 0023     		movs	r3, #0
 611              	.LBB495:
 612              	.LBB490:
 613              	.LBB485:
 614              	.LBB481:
 615              	.LBB478:
 259:../../libDaisy/src/dev/oled_ssd130x.h ****     }
 616              		.loc 11 259 42 view .LVU122
 617 00a8 6FEA0C09 		mvn	r9, ip
 618 00ac 4244     		add	r2, r2, r8
 619 00ae 0EE0     		b	.L29
 620              	.LVL36:
 621              	.L47:
 259:../../libDaisy/src/dev/oled_ssd130x.h ****     }
 622              		.loc 11 259 42 view .LVU123
 623              	.LBE478:
 624              	.LBE481:
 625              	.LBE485:
 626              	.LBE490:
 627              	.LBE495:
 628              	.LBB496:
 629              	.LBI496:
  42:../../libDaisy/src/hid/disp/oled_display.h ****     {
 630              		.loc 10 42 10 is_stmt 1 view .LVU124
 631              	.LBB497:
ARM GAS  /var/folders/hl/qgbwny5j0fd895c2c41bk3tw0000gp/T//ccFqANMK.s 			page 35


 632              	.LBI497:
 252:../../libDaisy/src/dev/oled_ssd130x.h ****     {
 633              		.loc 11 252 10 view .LVU125
 634              	.LBB498:
 254:../../libDaisy/src/dev/oled_ssd130x.h ****             return;
 635              		.loc 11 254 9 is_stmt 0 view .LVU126
 636 00b0 7F29     		cmp	r1, #127
 637 00b2 07D8     		bhi	.L25
 638 00b4 BEF13F0F 		cmp	lr, #63
 639 00b8 04D8     		bhi	.L25
 257:../../libDaisy/src/dev/oled_ssd130x.h ****         else
 640              		.loc 11 257 42 view .LVU127
 641 00ba 1578     		ldrb	r5, [r2]	@ zero_extendqisi2
 256:../../libDaisy/src/dev/oled_ssd130x.h ****             buffer_[x + (y / 8) * width] |= (1 << (y % 8));
 642              		.loc 11 256 9 view .LVU128
 643 00bc 9FB1     		cbz	r7, .L27
 644              	.L44:
 256:../../libDaisy/src/dev/oled_ssd130x.h ****             buffer_[x + (y / 8) * width] |= (1 << (y % 8));
 645              		.loc 11 256 9 view .LVU129
 646              	.LBE498:
 647              	.LBE497:
 648              	.LBE496:
 649              	.LBB499:
 650              	.LBB491:
 651              	.LBB486:
 257:../../libDaisy/src/dev/oled_ssd130x.h ****         else
 652              		.loc 11 257 42 view .LVU130
 653 00be 4CEA0505 		orr	r5, ip, r5
 654 00c2 1570     		strb	r5, [r2]
 655              	.L25:
 656              	.LBE486:
 657              	.LBE491:
 658              	.LBE499:
 416:../../libDaisy/src/hid/disp/display.h ****             {
 659              		.loc 12 416 13 is_stmt 1 discriminator 2 view .LVU131
 660 00c4 0133     		adds	r3, r3, #1
 661              	.LVL37:
 416:../../libDaisy/src/hid/disp/display.h ****             {
 662              		.loc 12 416 26 discriminator 2 view .LVU132
 663 00c6 0132     		adds	r2, r2, #1
 664 00c8 0131     		adds	r1, r1, #1
 665 00ca 9C42     		cmp	r4, r3
 666 00cc 14D0     		beq	.L28
 667              	.LVL38:
 668              	.L29:
 418:../../libDaisy/src/hid/disp/display.h ****                 {
 669              		.loc 12 418 23 is_stmt 0 view .LVU133
 670 00ce 06FA03F5 		lsl	r5, r6, r3
 418:../../libDaisy/src/hid/disp/display.h ****                 {
 671              		.loc 12 418 17 view .LVU134
 672 00d2 2D04     		lsls	r5, r5, #16
 673 00d4 ECD4     		bmi	.L47
 674              	.LVL39:
 675              	.LBB500:
 676              	.LBI473:
  42:../../libDaisy/src/hid/disp/oled_display.h ****     {
 677              		.loc 10 42 10 is_stmt 1 view .LVU135
ARM GAS  /var/folders/hl/qgbwny5j0fd895c2c41bk3tw0000gp/T//ccFqANMK.s 			page 36


 678              	.LBB492:
 679              	.LBI474:
 252:../../libDaisy/src/dev/oled_ssd130x.h ****     {
 680              		.loc 11 252 10 view .LVU136
 681              	.LBB487:
 254:../../libDaisy/src/dev/oled_ssd130x.h ****             return;
 682              		.loc 11 254 9 is_stmt 0 view .LVU137
 683 00d6 7F29     		cmp	r1, #127
 684 00d8 F4D8     		bhi	.L25
 685 00da BEF13F0F 		cmp	lr, #63
 686 00de F1D8     		bhi	.L25
 257:../../libDaisy/src/dev/oled_ssd130x.h ****         else
 687              		.loc 11 257 42 view .LVU138
 688 00e0 1578     		ldrb	r5, [r2]	@ zero_extendqisi2
 256:../../libDaisy/src/dev/oled_ssd130x.h ****             buffer_[x + (y / 8) * width] |= (1 << (y % 8));
 689              		.loc 11 256 9 view .LVU139
 690 00e2 002F     		cmp	r7, #0
 691 00e4 EBD0     		beq	.L44
 692              	.L27:
 693              	.LVL40:
 694              	.LBB482:
 695              	.LBI476:
 252:../../libDaisy/src/dev/oled_ssd130x.h ****     {
 696              		.loc 11 252 10 is_stmt 1 view .LVU140
 252:../../libDaisy/src/dev/oled_ssd130x.h ****     {
 697              		.loc 11 252 10 is_stmt 0 view .LVU141
 698              	.LBE482:
 699              	.LBE487:
 700              	.LBE492:
 701              	.LBE500:
 416:../../libDaisy/src/hid/disp/display.h ****             {
 702              		.loc 12 416 13 view .LVU142
 703 00e6 0133     		adds	r3, r3, #1
 704              	.LVL41:
 705              	.LBB501:
 706              	.LBB493:
 707              	.LBB488:
 708              	.LBB483:
 709              	.LBB479:
 259:../../libDaisy/src/dev/oled_ssd130x.h ****     }
 710              		.loc 11 259 42 view .LVU143
 711 00e8 09EA0505 		and	r5, r9, r5
 712              	.LBE479:
 713              	.LBE483:
 714              	.LBE488:
 715              	.LBE493:
 716              	.LBE501:
 416:../../libDaisy/src/hid/disp/display.h ****             {
 717              		.loc 12 416 26 view .LVU144
 718 00ec 0132     		adds	r2, r2, #1
 719 00ee 0131     		adds	r1, r1, #1
 720 00f0 9C42     		cmp	r4, r3
 721              	.LBB502:
 722              	.LBB494:
 723              	.LBB489:
 724              	.LBB484:
 725              	.LBB480:
ARM GAS  /var/folders/hl/qgbwny5j0fd895c2c41bk3tw0000gp/T//ccFqANMK.s 			page 37


 259:../../libDaisy/src/dev/oled_ssd130x.h ****     }
 726              		.loc 11 259 42 view .LVU145
 727 00f2 02F8015C 		strb	r5, [r2, #-1]
 259:../../libDaisy/src/dev/oled_ssd130x.h ****     }
 728              		.loc 11 259 42 view .LVU146
 729              	.LBE480:
 730              	.LBE484:
 731              	.LBE489:
 732              	.LBE494:
 733              	.LBE502:
 416:../../libDaisy/src/hid/disp/display.h ****             {
 734              		.loc 12 416 13 is_stmt 1 view .LVU147
 735              	.LVL42:
 416:../../libDaisy/src/hid/disp/display.h ****             {
 736              		.loc 12 416 26 view .LVU148
 737 00f6 EAD1     		bne	.L29
 738              	.LVL43:
 739              	.L28:
 413:../../libDaisy/src/hid/disp/display.h ****         {
 740              		.loc 12 413 9 view .LVU149
 413:../../libDaisy/src/hid/disp/display.h ****         {
 741              		.loc 12 413 22 view .LVU150
 742 00f8 5845     		cmp	r0, fp
 743 00fa 0EF1010E 		add	lr, lr, #1
 744 00fe C0D1     		bne	.L23
 745              	.LVL44:
 746              	.L22:
 747              	.LBB503:
 748              	.LBB504:
 173:../../libDaisy/src/hid/disp/display.h ****         currentY_ = (y >= Height()) ? Height() - 1 : y;
 749              		.loc 12 173 33 is_stmt 0 view .LVU151
 750 0100 D8F80030 		ldr	r3, [r8]
 751              	.LBE504:
 752              	.LBE503:
 753              		.loc 12 434 18 view .LVU152
 754 0104 5444     		add	r4, r4, r10
 755 0106 2449     		ldr	r1, .L53
 756              	.LBB510:
 757              	.LBB505:
 173:../../libDaisy/src/hid/disp/display.h ****         currentY_ = (y >= Height()) ? Height() - 1 : y;
 758              		.loc 12 173 33 view .LVU153
 759 0108 DA68     		ldr	r2, [r3, #12]
 760              	.LBE505:
 761              	.LBE510:
 762              		.loc 12 434 18 view .LVU154
 763 010a A4B2     		uxth	r4, r4
 764              	.LVL45:
 765              	.LBB511:
 766              	.LBI503:
 171:../../libDaisy/src/hid/disp/display.h ****     {
 767              		.loc 12 171 10 is_stmt 1 view .LVU155
 768              	.LBB506:
 173:../../libDaisy/src/hid/disp/display.h ****         currentY_ = (y >= Height()) ? Height() - 1 : y;
 769              		.loc 12 173 9 view .LVU156
 770 010c 8A42     		cmp	r2, r1
 771 010e 2DD1     		bne	.L48
 173:../../libDaisy/src/hid/disp/display.h ****         currentY_ = (y >= Height()) ? Height() - 1 : y;
ARM GAS  /var/folders/hl/qgbwny5j0fd895c2c41bk3tw0000gp/T//ccFqANMK.s 			page 38


 772              		.loc 12 173 33 is_stmt 0 view .LVU157
 773 0110 8020     		movs	r0, #128
 774              	.L30:
 173:../../libDaisy/src/hid/disp/display.h ****         currentY_ = (y >= Height()) ? Height() - 1 : y;
 775              		.loc 12 173 19 view .LVU158
 776 0112 8442     		cmp	r4, r0
 777 0114 1CD2     		bcs	.L49
 778              	.LVL46:
 779              	.L31:
 174:../../libDaisy/src/hid/disp/display.h ****     }
 780              		.loc 12 174 34 view .LVU159
 781 0116 9B68     		ldr	r3, [r3, #8]
 782 0118 204A     		ldr	r2, .L53+4
 173:../../libDaisy/src/hid/disp/display.h ****         currentY_ = (y >= Height()) ? Height() - 1 : y;
 783              		.loc 12 173 19 view .LVU160
 784 011a A8F80440 		strh	r4, [r8, #4]	@ movhi
 174:../../libDaisy/src/hid/disp/display.h ****     }
 785              		.loc 12 174 9 is_stmt 1 view .LVU161
 786 011e 9342     		cmp	r3, r2
 787 0120 21D1     		bne	.L50
 174:../../libDaisy/src/hid/disp/display.h ****     }
 788              		.loc 12 174 34 is_stmt 0 view .LVU162
 789 0122 4020     		movs	r0, #64
 790              	.L33:
 174:../../libDaisy/src/hid/disp/display.h ****     }
 791              		.loc 12 174 19 view .LVU163
 792 0124 019B     		ldr	r3, [sp, #4]
 793 0126 8342     		cmp	r3, r0
 794 0128 07D3     		bcc	.L34
 174:../../libDaisy/src/hid/disp/display.h ****     }
 795              		.loc 12 174 46 view .LVU164
 796 012a D8F80030 		ldr	r3, [r8]
 797 012e 1B4A     		ldr	r2, .L53+4
 798 0130 9B68     		ldr	r3, [r3, #8]
 799 0132 9342     		cmp	r3, r2
 800 0134 29D1     		bne	.L51
 801 0136 3F23     		movs	r3, #63
 802 0138 0193     		str	r3, [sp, #4]
 803              	.LVL47:
 804              	.L34:
 174:../../libDaisy/src/hid/disp/display.h ****     }
 805              		.loc 12 174 19 view .LVU165
 806 013a DDE90003 		ldrd	r0, r3, [sp]
 807 013e A8F80630 		strh	r3, [r8, #6]	@ movhi
 808              	.LVL48:
 174:../../libDaisy/src/hid/disp/display.h ****     }
 809              		.loc 12 174 19 view .LVU166
 810              	.LBE506:
 811              	.LBE511:
 435:../../libDaisy/src/hid/disp/display.h **** 
 436:../../libDaisy/src/hid/disp/display.h ****         // Return written char for validation
 437:../../libDaisy/src/hid/disp/display.h ****         return ch;
 438:../../libDaisy/src/hid/disp/display.h ****     }
 812              		.loc 12 438 5 view .LVU167
 813 0142 05B0     		add	sp, sp, #20
 814              		.cfi_remember_state
 815              		.cfi_def_cfa_offset 36
ARM GAS  /var/folders/hl/qgbwny5j0fd895c2c41bk3tw0000gp/T//ccFqANMK.s 			page 39


 816              		@ sp needed
 817 0144 BDE8F08F 		pop	{r4, r5, r6, r7, r8, r9, r10, fp, pc}
 818              	.LVL49:
 819              	.L18:
 820              		.cfi_restore_state
 402:../../libDaisy/src/hid/disp/display.h **** 
 821              		.loc 12 402 20 view .LVU168
 822 0148 0020     		movs	r0, #0
 823              		.loc 12 438 5 view .LVU169
 824 014a 05B0     		add	sp, sp, #20
 825              		.cfi_remember_state
 826              		.cfi_def_cfa_offset 36
 827              		@ sp needed
 828 014c BDE8F08F 		pop	{r4, r5, r6, r7, r8, r9, r10, fp, pc}
 829              	.LVL50:
 830              	.L49:
 831              		.cfi_restore_state
 832              	.LBB512:
 833              	.LBB507:
 173:../../libDaisy/src/hid/disp/display.h ****         currentY_ = (y >= Height()) ? Height() - 1 : y;
 834              		.loc 12 173 44 view .LVU170
 835 0150 DA68     		ldr	r2, [r3, #12]
 836 0152 1149     		ldr	r1, .L53
 837 0154 8A42     		cmp	r2, r1
 838 0156 11D1     		bne	.L52
 839 0158 7F24     		movs	r4, #127
 840              	.LVL51:
 173:../../libDaisy/src/hid/disp/display.h ****         currentY_ = (y >= Height()) ? Height() - 1 : y;
 841              		.loc 12 173 44 view .LVU171
 842 015a DCE7     		b	.L31
 843              	.LVL52:
 844              	.L45:
 173:../../libDaisy/src/hid/disp/display.h ****         currentY_ = (y >= Height()) ? Height() - 1 : y;
 845              		.loc 12 173 44 view .LVU172
 846              	.LBE507:
 847              	.LBE512:
 405:../../libDaisy/src/hid/disp/display.h ****            || Height() < (currentY_ + font.FontHeight))
 848              		.loc 12 405 17 view .LVU173
 849 015c 9847     		blx	r3
 850              	.LVL53:
 405:../../libDaisy/src/hid/disp/display.h ****            || Height() < (currentY_ + font.FontHeight))
 851              		.loc 12 405 17 view .LVU174
 852 015e 6AE7     		b	.L17
 853              	.L46:
 406:../../libDaisy/src/hid/disp/display.h ****         {
 854              		.loc 12 406 21 discriminator 2 view .LVU175
 855 0160 4046     		mov	r0, r8
 856 0162 9847     		blx	r3
 857              	.LVL54:
 858 0164 75E7     		b	.L19
 859              	.LVL55:
 860              	.L50:
 861              	.LBB513:
 862              	.LBB508:
 174:../../libDaisy/src/hid/disp/display.h ****     }
 863              		.loc 12 174 33 view .LVU176
 864 0166 4046     		mov	r0, r8
ARM GAS  /var/folders/hl/qgbwny5j0fd895c2c41bk3tw0000gp/T//ccFqANMK.s 			page 40


 865 0168 9847     		blx	r3
 866              	.LVL56:
 867 016a DBE7     		b	.L33
 868              	.LVL57:
 869              	.L48:
 173:../../libDaisy/src/hid/disp/display.h ****         currentY_ = (y >= Height()) ? Height() - 1 : y;
 870              		.loc 12 173 32 view .LVU177
 871 016c 4046     		mov	r0, r8
 872 016e 9047     		blx	r2
 873              	.LVL58:
 173:../../libDaisy/src/hid/disp/display.h ****         currentY_ = (y >= Height()) ? Height() - 1 : y;
 874              		.loc 12 173 44 view .LVU178
 875 0170 D8F80030 		ldr	r3, [r8]
 876 0174 CDE7     		b	.L30
 877              	.LVL59:
 878              	.L20:
 173:../../libDaisy/src/hid/disp/display.h ****         currentY_ = (y >= Height()) ? Height() - 1 : y;
 879              		.loc 12 173 44 view .LVU179
 880              	.LBE508:
 881              	.LBE513:
 434:../../libDaisy/src/hid/disp/display.h **** 
 882              		.loc 12 434 19 view .LVU180
 883 0176 B8F804A0 		ldrh	r10, [r8, #4]
 884 017a C1E7     		b	.L22
 885              	.LVL60:
 886              	.L52:
 887              	.LBB514:
 888              	.LBB509:
 173:../../libDaisy/src/hid/disp/display.h ****         currentY_ = (y >= Height()) ? Height() - 1 : y;
 889              		.loc 12 173 43 view .LVU181
 890 017c 4046     		mov	r0, r8
 891 017e 9047     		blx	r2
 892              	.LVL61:
 173:../../libDaisy/src/hid/disp/display.h ****         currentY_ = (y >= Height()) ? Height() - 1 : y;
 893              		.loc 12 173 19 view .LVU182
 894 0180 0138     		subs	r0, r0, #1
 174:../../libDaisy/src/hid/disp/display.h ****     }
 895              		.loc 12 174 34 view .LVU183
 896 0182 D8F80030 		ldr	r3, [r8]
 173:../../libDaisy/src/hid/disp/display.h ****         currentY_ = (y >= Height()) ? Height() - 1 : y;
 897              		.loc 12 173 19 view .LVU184
 898 0186 84B2     		uxth	r4, r0
 899              	.LVL62:
 173:../../libDaisy/src/hid/disp/display.h ****         currentY_ = (y >= Height()) ? Height() - 1 : y;
 900              		.loc 12 173 19 view .LVU185
 901 0188 C5E7     		b	.L31
 902              	.L51:
 174:../../libDaisy/src/hid/disp/display.h ****     }
 903              		.loc 12 174 45 view .LVU186
 904 018a 4046     		mov	r0, r8
 905 018c 9847     		blx	r3
 906              	.LVL63:
 174:../../libDaisy/src/hid/disp/display.h ****     }
 907              		.loc 12 174 19 view .LVU187
 908 018e 0138     		subs	r0, r0, #1
 909 0190 83B2     		uxth	r3, r0
 910 0192 0193     		str	r3, [sp, #4]
ARM GAS  /var/folders/hl/qgbwny5j0fd895c2c41bk3tw0000gp/T//ccFqANMK.s 			page 41


 911              	.LVL64:
 174:../../libDaisy/src/hid/disp/display.h ****     }
 912              		.loc 12 174 19 view .LVU188
 913 0194 D1E7     		b	.L34
 914              	.L54:
 915 0196 00BF     		.align	2
 916              	.L53:
 917 0198 00000000 		.word	_ZNK5daisy11OledDisplayINS_13SSD130xDriverILj128ELj64ENS_24SSD130x4WireSpiTransportEEEE5Widt
 918 019c 00000000 		.word	_ZNK5daisy11OledDisplayINS_13SSD130xDriverILj128ELj64ENS_24SSD130x4WireSpiTransportEEEE6Heig
 919              	.LBE509:
 920              	.LBE514:
 921              		.cfi_endproc
 922              	.LFE2600:
 924              		.section	.text._ZN5daisy25OneBitGraphicsDisplayImplINS_11OledDisplayINS_13SSD130xDriverILj128ELj64
 925              		.align	1
 926              		.p2align 2,,3
 927              		.weak	_ZN5daisy25OneBitGraphicsDisplayImplINS_11OledDisplayINS_13SSD130xDriverILj128ELj64ENS_24SSD
 928              		.syntax unified
 929              		.thumb
 930              		.thumb_func
 931              		.fpu fpv5-d16
 933              	_ZN5daisy25OneBitGraphicsDisplayImplINS_11OledDisplayINS_13SSD130xDriverILj128ELj64ENS_24SSD130x4Wi
 934              	.LVL65:
 935              	.LFB2585:
 439:../../libDaisy/src/hid/disp/display.h **** 
 440:../../libDaisy/src/hid/disp/display.h ****     char WriteString(const char* str, FontDef font, bool on) override
 936              		.loc 12 440 10 is_stmt 1 view -0
 937              		.cfi_startproc
 938              		@ args = 4, pretend = 0, frame = 32
 939              		@ frame_needed = 0, uses_anonymous_args = 0
 940              		.loc 12 440 10 is_stmt 0 view .LVU190
 941 0000 2DE9F04F 		push	{r4, r5, r6, r7, r8, r9, r10, fp, lr}
 942              		.cfi_def_cfa_offset 36
 943              		.cfi_offset 4, -36
 944              		.cfi_offset 5, -32
 945              		.cfi_offset 6, -28
 946              		.cfi_offset 7, -24
 947              		.cfi_offset 8, -20
 948              		.cfi_offset 9, -16
 949              		.cfi_offset 10, -12
 950              		.cfi_offset 11, -8
 951              		.cfi_offset 14, -4
 952 0004 89B0     		sub	sp, sp, #36
 953              		.cfi_def_cfa_offset 72
 954              		.loc 12 440 10 view .LVU191
 955 0006 08AC     		add	r4, sp, #32
 956 0008 9DF84870 		ldrb	r7, [sp, #72]	@ zero_extendqisi2
 957 000c 0191     		str	r1, [sp, #4]
 958 000e 04E90C00 		stmdb	r4, {r2, r3}
 441:../../libDaisy/src/hid/disp/display.h ****     {
 442:../../libDaisy/src/hid/disp/display.h ****         // Write until null-byte
 443:../../libDaisy/src/hid/disp/display.h ****         while(*str)
 959              		.loc 12 443 9 is_stmt 1 view .LVU192
 960 0012 0B78     		ldrb	r3, [r1]	@ zero_extendqisi2
 961 0014 002B     		cmp	r3, #0
 962 0016 00F0AB80 		beq	.L79
 963 001a 1A46     		mov	r2, r3
ARM GAS  /var/folders/hl/qgbwny5j0fd895c2c41bk3tw0000gp/T//ccFqANMK.s 			page 42


 964 001c 9DF81880 		ldrb	r8, [sp, #24]	@ zero_extendqisi2
 965 0020 9DF81930 		ldrb	r3, [sp, #25]	@ zero_extendqisi2
 966 0024 0646     		mov	r6, r0
 967 0026 4546     		mov	r5, r8
 968 0028 9046     		mov	r8, r2
 969 002a 0393     		str	r3, [sp, #12]
 970 002c 079B     		ldr	r3, [sp, #28]
 971 002e 0593     		str	r3, [sp, #20]
 972              	.LVL66:
 973              	.L80:
 974              	.LBB543:
 975              	.LBI543:
 396:../../libDaisy/src/hid/disp/display.h ****     {
 976              		.loc 12 396 10 view .LVU193
 977              	.LBB544:
 401:../../libDaisy/src/hid/disp/display.h ****             return 0;
 978              		.loc 12 401 20 is_stmt 0 view .LVU194
 979 0030 A8F12004 		sub	r4, r8, #32
 401:../../libDaisy/src/hid/disp/display.h ****             return 0;
 980              		.loc 12 401 9 view .LVU195
 981 0034 E3B2     		uxtb	r3, r4
 982 0036 5E2B     		cmp	r3, #94
 983 0038 00F29E80 		bhi	.L61
 405:../../libDaisy/src/hid/disp/display.h ****            || Height() < (currentY_ + font.FontHeight))
 984              		.loc 12 405 17 view .LVU196
 985 003c 3368     		ldr	r3, [r6]
 986 003e 5E4A     		ldr	r2, .L101
 987 0040 DB68     		ldr	r3, [r3, #12]
 988 0042 9342     		cmp	r3, r2
 989 0044 40F09B80 		bne	.L94
 990 0048 8020     		movs	r0, #128
 991              	.L60:
 405:../../libDaisy/src/hid/disp/display.h ****            || Height() < (currentY_ + font.FontHeight))
 992              		.loc 12 405 23 view .LVU197
 993 004a B388     		ldrh	r3, [r6, #4]
 405:../../libDaisy/src/hid/disp/display.h ****            || Height() < (currentY_ + font.FontHeight))
 994              		.loc 12 405 33 view .LVU198
 995 004c 2B44     		add	r3, r3, r5
 406:../../libDaisy/src/hid/disp/display.h ****         {
 996              		.loc 12 406 12 view .LVU199
 997 004e 8342     		cmp	r3, r0
 998 0050 00F39280 		bgt	.L61
 406:../../libDaisy/src/hid/disp/display.h ****         {
 999              		.loc 12 406 21 view .LVU200
 1000 0054 3368     		ldr	r3, [r6]
 1001 0056 594A     		ldr	r2, .L101+4
 1002 0058 9B68     		ldr	r3, [r3, #8]
 1003 005a 9342     		cmp	r3, r2
 1004 005c 40F09280 		bne	.L95
 1005 0060 4020     		movs	r0, #64
 1006              	.L62:
 406:../../libDaisy/src/hid/disp/display.h ****         {
 1007              		.loc 12 406 27 view .LVU201
 1008 0062 F188     		ldrh	r1, [r6, #6]
 406:../../libDaisy/src/hid/disp/display.h ****         {
 1009              		.loc 12 406 37 view .LVU202
 1010 0064 039A     		ldr	r2, [sp, #12]
ARM GAS  /var/folders/hl/qgbwny5j0fd895c2c41bk3tw0000gp/T//ccFqANMK.s 			page 43


 406:../../libDaisy/src/hid/disp/display.h ****         {
 1011              		.loc 12 406 27 view .LVU203
 1012 0066 0291     		str	r1, [sp, #8]
 406:../../libDaisy/src/hid/disp/display.h ****         {
 1013              		.loc 12 406 37 view .LVU204
 1014 0068 8B18     		adds	r3, r1, r2
 406:../../libDaisy/src/hid/disp/display.h ****         {
 1015              		.loc 12 406 12 view .LVU205
 1016 006a 8342     		cmp	r3, r0
 1017 006c 00F38480 		bgt	.L61
 1018              	.LVL67:
 413:../../libDaisy/src/hid/disp/display.h ****         {
 1019              		.loc 12 413 22 is_stmt 1 view .LVU206
 1020 0070 002A     		cmp	r2, #0
 1021 0072 00F09180 		beq	.L63
 415:../../libDaisy/src/hid/disp/display.h ****             for(j = 0; j < font.FontWidth; j++)
 1022              		.loc 12 415 37 is_stmt 0 view .LVU207
 1023 0076 02FB04F4 		mul	r4, r2, r4
 1024 007a 6FF00049 		mvn	r9, #-2147483648
 1025 007e 059B     		ldr	r3, [sp, #20]
 1026 0080 A144     		add	r9, r9, r4
 1027 0082 1444     		add	r4, r4, r2
 434:../../libDaisy/src/hid/disp/display.h **** 
 1028              		.loc 12 434 19 view .LVU208
 1029 0084 B6F804B0 		ldrh	fp, [r6, #4]
 1030 0088 03EB4909 		add	r9, r3, r9, lsl #1
 1031 008c 023B     		subs	r3, r3, #2
 1032 008e CDF81080 		str	r8, [sp, #16]
 1033 0092 03EB4403 		add	r3, r3, r4, lsl #1
 1034 0096 0C46     		mov	r4, r1
 1035 0098 9A46     		mov	r10, r3
 1036              	.LVL68:
 1037              	.L66:
 415:../../libDaisy/src/hid/disp/display.h ****             for(j = 0; j < font.FontWidth; j++)
 1038              		.loc 12 415 15 view .LVU209
 1039 009a 39F802CF 		ldrh	ip, [r9, #2]!
 1040              	.LVL69:
 416:../../libDaisy/src/hid/disp/display.h ****             {
 1041              		.loc 12 416 26 is_stmt 1 view .LVU210
 1042 009e A5B3     		cbz	r5, .L71
 1043              	.LBB545:
 1044              	.LBB546:
 1045              	.LBB547:
 1046              	.LBB548:
 1047              	.LBB549:
 259:../../libDaisy/src/dev/oled_ssd130x.h ****     }
 1048              		.loc 11 259 55 is_stmt 0 view .LVU211
 1049 00a0 04F00703 		and	r3, r4, #7
 259:../../libDaisy/src/dev/oled_ssd130x.h ****     }
 1050              		.loc 11 259 49 view .LVU212
 1051 00a4 4FF0010E 		mov	lr, #1
 259:../../libDaisy/src/dev/oled_ssd130x.h ****     }
 1052              		.loc 11 259 28 view .LVU213
 1053 00a8 E208     		lsrs	r2, r4, #3
 1054 00aa 5946     		mov	r1, fp
 259:../../libDaisy/src/dev/oled_ssd130x.h ****     }
 1055              		.loc 11 259 49 view .LVU214
ARM GAS  /var/folders/hl/qgbwny5j0fd895c2c41bk3tw0000gp/T//ccFqANMK.s 			page 44


 1056 00ac 0EFA03FE 		lsl	lr, lr, r3
 1057 00b0 0BF11403 		add	r3, fp, #20
 259:../../libDaisy/src/dev/oled_ssd130x.h ****     }
 1058              		.loc 11 259 42 view .LVU215
 1059 00b4 4FFA8EFE 		sxtb	lr, lr
 1060 00b8 03EBC212 		add	r2, r3, r2, lsl #7
 1061              	.LBE549:
 1062              	.LBE548:
 1063              	.LBE547:
 1064              	.LBE546:
 1065              	.LBE545:
 416:../../libDaisy/src/hid/disp/display.h ****             {
 1066              		.loc 12 416 19 view .LVU216
 1067 00bc 0023     		movs	r3, #0
 1068              	.LBB567:
 1069              	.LBB562:
 1070              	.LBB557:
 1071              	.LBB553:
 1072              	.LBB550:
 259:../../libDaisy/src/dev/oled_ssd130x.h ****     }
 1073              		.loc 11 259 42 view .LVU217
 1074 00be 6FEA0E08 		mvn	r8, lr
 1075 00c2 3244     		add	r2, r2, r6
 1076 00c4 0DE0     		b	.L72
 1077              	.LVL70:
 1078              	.L96:
 259:../../libDaisy/src/dev/oled_ssd130x.h ****     }
 1079              		.loc 11 259 42 view .LVU218
 1080              	.LBE550:
 1081              	.LBE553:
 1082              	.LBE557:
 1083              	.LBE562:
 1084              	.LBE567:
 1085              	.LBB568:
 1086              	.LBI568:
  42:../../libDaisy/src/hid/disp/oled_display.h ****     {
 1087              		.loc 10 42 10 is_stmt 1 view .LVU219
 1088              	.LBB569:
 1089              	.LBI569:
 252:../../libDaisy/src/dev/oled_ssd130x.h ****     {
 1090              		.loc 11 252 10 view .LVU220
 1091              	.LBB570:
 254:../../libDaisy/src/dev/oled_ssd130x.h ****             return;
 1092              		.loc 11 254 9 is_stmt 0 view .LVU221
 1093 00c6 7F29     		cmp	r1, #127
 1094 00c8 06D8     		bhi	.L68
 1095 00ca 3F2C     		cmp	r4, #63
 1096 00cc 04D8     		bhi	.L68
 257:../../libDaisy/src/dev/oled_ssd130x.h ****         else
 1097              		.loc 11 257 42 view .LVU222
 1098 00ce 1078     		ldrb	r0, [r2]	@ zero_extendqisi2
 256:../../libDaisy/src/dev/oled_ssd130x.h ****             buffer_[x + (y / 8) * width] |= (1 << (y % 8));
 1099              		.loc 11 256 9 view .LVU223
 1100 00d0 97B1     		cbz	r7, .L70
 1101              	.L93:
 256:../../libDaisy/src/dev/oled_ssd130x.h ****             buffer_[x + (y / 8) * width] |= (1 << (y % 8));
 1102              		.loc 11 256 9 view .LVU224
ARM GAS  /var/folders/hl/qgbwny5j0fd895c2c41bk3tw0000gp/T//ccFqANMK.s 			page 45


 1103              	.LBE570:
 1104              	.LBE569:
 1105              	.LBE568:
 1106              	.LBB571:
 1107              	.LBB563:
 1108              	.LBB558:
 257:../../libDaisy/src/dev/oled_ssd130x.h ****         else
 1109              		.loc 11 257 42 view .LVU225
 1110 00d2 4EEA0000 		orr	r0, lr, r0
 1111 00d6 1070     		strb	r0, [r2]
 1112              	.L68:
 1113              	.LBE558:
 1114              	.LBE563:
 1115              	.LBE571:
 416:../../libDaisy/src/hid/disp/display.h ****             {
 1116              		.loc 12 416 13 is_stmt 1 view .LVU226
 1117 00d8 0133     		adds	r3, r3, #1
 1118              	.LVL71:
 416:../../libDaisy/src/hid/disp/display.h ****             {
 1119              		.loc 12 416 26 view .LVU227
 1120 00da 0132     		adds	r2, r2, #1
 1121 00dc 0131     		adds	r1, r1, #1
 1122 00de AB42     		cmp	r3, r5
 1123 00e0 13D0     		beq	.L71
 1124              	.LVL72:
 1125              	.L72:
 418:../../libDaisy/src/hid/disp/display.h ****                 {
 1126              		.loc 12 418 23 is_stmt 0 view .LVU228
 1127 00e2 0CFA03F0 		lsl	r0, ip, r3
 418:../../libDaisy/src/hid/disp/display.h ****                 {
 1128              		.loc 12 418 17 view .LVU229
 1129 00e6 0004     		lsls	r0, r0, #16
 1130 00e8 EDD4     		bmi	.L96
 1131              	.LVL73:
 1132              	.LBB572:
 1133              	.LBI545:
  42:../../libDaisy/src/hid/disp/oled_display.h ****     {
 1134              		.loc 10 42 10 is_stmt 1 view .LVU230
 1135              	.LBB564:
 1136              	.LBI546:
 252:../../libDaisy/src/dev/oled_ssd130x.h ****     {
 1137              		.loc 11 252 10 view .LVU231
 1138              	.LBB559:
 254:../../libDaisy/src/dev/oled_ssd130x.h ****             return;
 1139              		.loc 11 254 9 is_stmt 0 view .LVU232
 1140 00ea 7F29     		cmp	r1, #127
 1141 00ec F4D8     		bhi	.L68
 1142 00ee 3F2C     		cmp	r4, #63
 1143 00f0 F2D8     		bhi	.L68
 257:../../libDaisy/src/dev/oled_ssd130x.h ****         else
 1144              		.loc 11 257 42 view .LVU233
 1145 00f2 1078     		ldrb	r0, [r2]	@ zero_extendqisi2
 256:../../libDaisy/src/dev/oled_ssd130x.h ****             buffer_[x + (y / 8) * width] |= (1 << (y % 8));
 1146              		.loc 11 256 9 view .LVU234
 1147 00f4 002F     		cmp	r7, #0
 1148 00f6 ECD0     		beq	.L93
 1149              	.L70:
ARM GAS  /var/folders/hl/qgbwny5j0fd895c2c41bk3tw0000gp/T//ccFqANMK.s 			page 46


 1150              	.LVL74:
 1151              	.LBB554:
 1152              	.LBI548:
 252:../../libDaisy/src/dev/oled_ssd130x.h ****     {
 1153              		.loc 11 252 10 is_stmt 1 view .LVU235
 252:../../libDaisy/src/dev/oled_ssd130x.h ****     {
 1154              		.loc 11 252 10 is_stmt 0 view .LVU236
 1155              	.LBE554:
 1156              	.LBE559:
 1157              	.LBE564:
 1158              	.LBE572:
 416:../../libDaisy/src/hid/disp/display.h ****             {
 1159              		.loc 12 416 13 view .LVU237
 1160 00f8 0133     		adds	r3, r3, #1
 1161              	.LVL75:
 1162              	.LBB573:
 1163              	.LBB565:
 1164              	.LBB560:
 1165              	.LBB555:
 1166              	.LBB551:
 259:../../libDaisy/src/dev/oled_ssd130x.h ****     }
 1167              		.loc 11 259 42 view .LVU238
 1168 00fa 08EA0000 		and	r0, r8, r0
 1169              	.LBE551:
 1170              	.LBE555:
 1171              	.LBE560:
 1172              	.LBE565:
 1173              	.LBE573:
 416:../../libDaisy/src/hid/disp/display.h ****             {
 1174              		.loc 12 416 26 view .LVU239
 1175 00fe 0132     		adds	r2, r2, #1
 1176 0100 0131     		adds	r1, r1, #1
 1177 0102 AB42     		cmp	r3, r5
 1178              	.LBB574:
 1179              	.LBB566:
 1180              	.LBB561:
 1181              	.LBB556:
 1182              	.LBB552:
 259:../../libDaisy/src/dev/oled_ssd130x.h ****     }
 1183              		.loc 11 259 42 view .LVU240
 1184 0104 02F8010C 		strb	r0, [r2, #-1]
 259:../../libDaisy/src/dev/oled_ssd130x.h ****     }
 1185              		.loc 11 259 42 view .LVU241
 1186              	.LBE552:
 1187              	.LBE556:
 1188              	.LBE561:
 1189              	.LBE566:
 1190              	.LBE574:
 416:../../libDaisy/src/hid/disp/display.h ****             {
 1191              		.loc 12 416 13 is_stmt 1 view .LVU242
 1192              	.LVL76:
 416:../../libDaisy/src/hid/disp/display.h ****             {
 1193              		.loc 12 416 26 view .LVU243
 1194 0108 EBD1     		bne	.L72
 1195              	.LVL77:
 1196              	.L71:
 413:../../libDaisy/src/hid/disp/display.h ****         {
ARM GAS  /var/folders/hl/qgbwny5j0fd895c2c41bk3tw0000gp/T//ccFqANMK.s 			page 47


 1197              		.loc 12 413 9 view .LVU244
 413:../../libDaisy/src/hid/disp/display.h ****         {
 1198              		.loc 12 413 22 view .LVU245
 1199 010a D145     		cmp	r9, r10
 1200 010c 04F10104 		add	r4, r4, #1
 1201 0110 C3D1     		bne	.L66
 1202 0112 DDF81080 		ldr	r8, [sp, #16]
 1203              	.LVL78:
 1204              	.L65:
 1205              	.LBB575:
 1206              	.LBB576:
 173:../../libDaisy/src/hid/disp/display.h ****         currentY_ = (y >= Height()) ? Height() - 1 : y;
 1207              		.loc 12 173 33 is_stmt 0 view .LVU246
 1208 0116 3268     		ldr	r2, [r6]
 1209              	.LBE576:
 1210              	.LBE575:
 434:../../libDaisy/src/hid/disp/display.h **** 
 1211              		.loc 12 434 18 view .LVU247
 1212 0118 0BEB0504 		add	r4, fp, r5
 1213 011c 2649     		ldr	r1, .L101
 1214              	.LBB581:
 1215              	.LBB577:
 173:../../libDaisy/src/hid/disp/display.h ****         currentY_ = (y >= Height()) ? Height() - 1 : y;
 1216              		.loc 12 173 33 view .LVU248
 1217 011e D368     		ldr	r3, [r2, #12]
 1218              	.LBE577:
 1219              	.LBE581:
 434:../../libDaisy/src/hid/disp/display.h **** 
 1220              		.loc 12 434 18 view .LVU249
 1221 0120 A4B2     		uxth	r4, r4
 1222              	.LVL79:
 1223              	.LBB582:
 1224              	.LBI575:
 171:../../libDaisy/src/hid/disp/display.h ****     {
 1225              		.loc 12 171 10 is_stmt 1 view .LVU250
 1226              	.LBB578:
 173:../../libDaisy/src/hid/disp/display.h ****         currentY_ = (y >= Height()) ? Height() - 1 : y;
 1227              		.loc 12 173 9 view .LVU251
 1228 0122 8B42     		cmp	r3, r1
 1229 0124 34D1     		bne	.L97
 173:../../libDaisy/src/hid/disp/display.h ****         currentY_ = (y >= Height()) ? Height() - 1 : y;
 1230              		.loc 12 173 33 is_stmt 0 view .LVU252
 1231 0126 8020     		movs	r0, #128
 1232              	.L73:
 173:../../libDaisy/src/hid/disp/display.h ****         currentY_ = (y >= Height()) ? Height() - 1 : y;
 1233              		.loc 12 173 19 view .LVU253
 1234 0128 8442     		cmp	r4, r0
 1235 012a 04D3     		bcc	.L74
 173:../../libDaisy/src/hid/disp/display.h ****         currentY_ = (y >= Height()) ? Height() - 1 : y;
 1236              		.loc 12 173 44 view .LVU254
 1237 012c D368     		ldr	r3, [r2, #12]
 1238 012e 2249     		ldr	r1, .L101
 1239 0130 8B42     		cmp	r3, r1
 1240 0132 3AD1     		bne	.L98
 1241 0134 7F24     		movs	r4, #127
 1242              	.LVL80:
 1243              	.L74:
ARM GAS  /var/folders/hl/qgbwny5j0fd895c2c41bk3tw0000gp/T//ccFqANMK.s 			page 48


 174:../../libDaisy/src/hid/disp/display.h ****     }
 1244              		.loc 12 174 34 view .LVU255
 1245 0136 9368     		ldr	r3, [r2, #8]
 1246 0138 204A     		ldr	r2, .L101+4
 173:../../libDaisy/src/hid/disp/display.h ****         currentY_ = (y >= Height()) ? Height() - 1 : y;
 1247              		.loc 12 173 19 view .LVU256
 1248 013a B480     		strh	r4, [r6, #4]	@ movhi
 174:../../libDaisy/src/hid/disp/display.h ****     }
 1249              		.loc 12 174 9 is_stmt 1 view .LVU257
 1250 013c 9342     		cmp	r3, r2
 1251 013e 24D1     		bne	.L99
 174:../../libDaisy/src/hid/disp/display.h ****     }
 1252              		.loc 12 174 34 is_stmt 0 view .LVU258
 1253 0140 4020     		movs	r0, #64
 1254              	.L76:
 174:../../libDaisy/src/hid/disp/display.h ****     }
 1255              		.loc 12 174 19 view .LVU259
 1256 0142 029B     		ldr	r3, [sp, #8]
 1257 0144 8342     		cmp	r3, r0
 1258 0146 06D3     		bcc	.L77
 174:../../libDaisy/src/hid/disp/display.h ****     }
 1259              		.loc 12 174 46 view .LVU260
 1260 0148 3368     		ldr	r3, [r6]
 1261 014a 1C4A     		ldr	r2, .L101+4
 1262 014c 9B68     		ldr	r3, [r3, #8]
 1263 014e 9342     		cmp	r3, r2
 1264 0150 25D1     		bne	.L100
 1265 0152 3F23     		movs	r3, #63
 1266 0154 0293     		str	r3, [sp, #8]
 1267              	.LVL81:
 1268              	.L77:
 174:../../libDaisy/src/hid/disp/display.h ****     }
 1269              		.loc 12 174 19 view .LVU261
 1270 0156 029B     		ldr	r3, [sp, #8]
 1271 0158 F380     		strh	r3, [r6, #6]	@ movhi
 1272              	.LVL82:
 1273              	.L59:
 174:../../libDaisy/src/hid/disp/display.h ****     }
 1274              		.loc 12 174 19 view .LVU262
 1275              	.LBE578:
 1276              	.LBE582:
 1277              	.LBE544:
 1278              	.LBE543:
 444:../../libDaisy/src/hid/disp/display.h ****         {
 445:../../libDaisy/src/hid/disp/display.h ****             if(((ChildType*)(this))->ChildType::WriteChar(*str, font, on)
 446:../../libDaisy/src/hid/disp/display.h ****                != *str)
 1279              		.loc 12 446 16 view .LVU263
 1280 015a 019B     		ldr	r3, [sp, #4]
 1281 015c 1878     		ldrb	r0, [r3]	@ zero_extendqisi2
 445:../../libDaisy/src/hid/disp/display.h ****                != *str)
 1282              		.loc 12 445 13 view .LVU264
 1283 015e 4045     		cmp	r0, r8
 1284 0160 07D1     		bne	.L57
 1285              	.LVL83:
 443:../../libDaisy/src/hid/disp/display.h ****         {
 1286              		.loc 12 443 9 is_stmt 1 view .LVU265
 1287 0162 13F8018F 		ldrb	r8, [r3, #1]!	@ zero_extendqisi2
ARM GAS  /var/folders/hl/qgbwny5j0fd895c2c41bk3tw0000gp/T//ccFqANMK.s 			page 49


 1288              	.LVL84:
 443:../../libDaisy/src/hid/disp/display.h ****         {
 1289              		.loc 12 443 9 is_stmt 0 view .LVU266
 1290 0166 0193     		str	r3, [sp, #4]
 1291 0168 B8F1000F 		cmp	r8, #0
 1292 016c 7FF460AF 		bne	.L80
 1293              	.LVL85:
 1294              	.L79:
 1295              	.LBB587:
 1296              	.LBB585:
 402:../../libDaisy/src/hid/disp/display.h **** 
 1297              		.loc 12 402 20 view .LVU267
 1298 0170 0020     		movs	r0, #0
 1299              	.L57:
 1300              	.LBE585:
 1301              	.LBE587:
 447:../../libDaisy/src/hid/disp/display.h ****             {
 448:../../libDaisy/src/hid/disp/display.h ****                 // Char could not be written
 449:../../libDaisy/src/hid/disp/display.h ****                 return *str;
 450:../../libDaisy/src/hid/disp/display.h ****             }
 451:../../libDaisy/src/hid/disp/display.h **** 
 452:../../libDaisy/src/hid/disp/display.h ****             // Next char
 453:../../libDaisy/src/hid/disp/display.h ****             str++;
 454:../../libDaisy/src/hid/disp/display.h ****         }
 455:../../libDaisy/src/hid/disp/display.h **** 
 456:../../libDaisy/src/hid/disp/display.h ****         // Everything ok
 457:../../libDaisy/src/hid/disp/display.h ****         return *str;
 458:../../libDaisy/src/hid/disp/display.h ****     }
 1302              		.loc 12 458 5 view .LVU268
 1303 0172 09B0     		add	sp, sp, #36
 1304              		.cfi_remember_state
 1305              		.cfi_def_cfa_offset 36
 1306              		@ sp needed
 1307 0174 BDE8F08F 		pop	{r4, r5, r6, r7, r8, r9, r10, fp, pc}
 1308              	.LVL86:
 1309              	.L61:
 1310              		.cfi_restore_state
 1311              	.LBB588:
 1312              	.LBB586:
 402:../../libDaisy/src/hid/disp/display.h **** 
 1313              		.loc 12 402 20 view .LVU269
 1314 0178 4FF00008 		mov	r8, #0
 1315              	.LVL87:
 402:../../libDaisy/src/hid/disp/display.h **** 
 1316              		.loc 12 402 20 view .LVU270
 1317 017c EDE7     		b	.L59
 1318              	.LVL88:
 1319              	.L94:
 405:../../libDaisy/src/hid/disp/display.h ****            || Height() < (currentY_ + font.FontHeight))
 1320              		.loc 12 405 17 view .LVU271
 1321 017e 3046     		mov	r0, r6
 1322 0180 9847     		blx	r3
 1323              	.LVL89:
 1324 0182 62E7     		b	.L60
 1325              	.L95:
 406:../../libDaisy/src/hid/disp/display.h ****         {
 1326              		.loc 12 406 21 view .LVU272
ARM GAS  /var/folders/hl/qgbwny5j0fd895c2c41bk3tw0000gp/T//ccFqANMK.s 			page 50


 1327 0184 3046     		mov	r0, r6
 1328 0186 9847     		blx	r3
 1329              	.LVL90:
 1330 0188 6BE7     		b	.L62
 1331              	.LVL91:
 1332              	.L99:
 1333              	.LBB583:
 1334              	.LBB579:
 174:../../libDaisy/src/hid/disp/display.h ****     }
 1335              		.loc 12 174 33 view .LVU273
 1336 018a 3046     		mov	r0, r6
 1337 018c 9847     		blx	r3
 1338              	.LVL92:
 1339 018e D8E7     		b	.L76
 1340              	.LVL93:
 1341              	.L97:
 173:../../libDaisy/src/hid/disp/display.h ****         currentY_ = (y >= Height()) ? Height() - 1 : y;
 1342              		.loc 12 173 32 view .LVU274
 1343 0190 3046     		mov	r0, r6
 1344 0192 9847     		blx	r3
 1345              	.LVL94:
 173:../../libDaisy/src/hid/disp/display.h ****         currentY_ = (y >= Height()) ? Height() - 1 : y;
 1346              		.loc 12 173 44 view .LVU275
 1347 0194 3268     		ldr	r2, [r6]
 1348 0196 C7E7     		b	.L73
 1349              	.LVL95:
 1350              	.L63:
 173:../../libDaisy/src/hid/disp/display.h ****         currentY_ = (y >= Height()) ? Height() - 1 : y;
 1351              		.loc 12 173 44 view .LVU276
 1352              	.LBE579:
 1353              	.LBE583:
 434:../../libDaisy/src/hid/disp/display.h **** 
 1354              		.loc 12 434 19 view .LVU277
 1355 0198 B6F804B0 		ldrh	fp, [r6, #4]
 1356 019c BBE7     		b	.L65
 1357              	.LVL96:
 1358              	.L100:
 1359              	.LBB584:
 1360              	.LBB580:
 174:../../libDaisy/src/hid/disp/display.h ****     }
 1361              		.loc 12 174 45 view .LVU278
 1362 019e 3046     		mov	r0, r6
 1363 01a0 9847     		blx	r3
 1364              	.LVL97:
 174:../../libDaisy/src/hid/disp/display.h ****     }
 1365              		.loc 12 174 19 view .LVU279
 1366 01a2 431E     		subs	r3, r0, #1
 1367 01a4 9BB2     		uxth	r3, r3
 1368 01a6 0293     		str	r3, [sp, #8]
 1369              	.LVL98:
 174:../../libDaisy/src/hid/disp/display.h ****     }
 1370              		.loc 12 174 19 view .LVU280
 1371 01a8 D5E7     		b	.L77
 1372              	.LVL99:
 1373              	.L98:
 173:../../libDaisy/src/hid/disp/display.h ****         currentY_ = (y >= Height()) ? Height() - 1 : y;
 1374              		.loc 12 173 43 view .LVU281
ARM GAS  /var/folders/hl/qgbwny5j0fd895c2c41bk3tw0000gp/T//ccFqANMK.s 			page 51


 1375 01aa 3046     		mov	r0, r6
 1376 01ac 9847     		blx	r3
 1377              	.LVL100:
 173:../../libDaisy/src/hid/disp/display.h ****         currentY_ = (y >= Height()) ? Height() - 1 : y;
 1378              		.loc 12 173 19 view .LVU282
 1379 01ae 0138     		subs	r0, r0, #1
 174:../../libDaisy/src/hid/disp/display.h ****     }
 1380              		.loc 12 174 34 view .LVU283
 1381 01b0 3268     		ldr	r2, [r6]
 173:../../libDaisy/src/hid/disp/display.h ****         currentY_ = (y >= Height()) ? Height() - 1 : y;
 1382              		.loc 12 173 19 view .LVU284
 1383 01b2 84B2     		uxth	r4, r0
 1384              	.LVL101:
 173:../../libDaisy/src/hid/disp/display.h ****         currentY_ = (y >= Height()) ? Height() - 1 : y;
 1385              		.loc 12 173 19 view .LVU285
 1386 01b4 BFE7     		b	.L74
 1387              	.L102:
 1388 01b6 00BF     		.align	2
 1389              	.L101:
 1390 01b8 00000000 		.word	_ZNK5daisy11OledDisplayINS_13SSD130xDriverILj128ELj64ENS_24SSD130x4WireSpiTransportEEEE5Widt
 1391 01bc 00000000 		.word	_ZNK5daisy11OledDisplayINS_13SSD130xDriverILj128ELj64ENS_24SSD130x4WireSpiTransportEEEE6Heig
 1392              	.LBE580:
 1393              	.LBE584:
 1394              	.LBE586:
 1395              	.LBE588:
 1396              		.cfi_endproc
 1397              	.LFE2585:
 1399              		.section	.text._ZN5daisy11OledDisplayINS_13SSD130xDriverILj128ELj64ENS_24SSD130x4WireSpiTransportE
 1400              		.align	1
 1401              		.p2align 2,,3
 1402              		.weak	_ZN5daisy11OledDisplayINS_13SSD130xDriverILj128ELj64ENS_24SSD130x4WireSpiTransportEEEE9DrawP
 1403              		.syntax unified
 1404              		.thumb
 1405              		.thumb_func
 1406              		.fpu fpv5-d16
 1408              	_ZN5daisy11OledDisplayINS_13SSD130xDriverILj128ELj64ENS_24SSD130x4WireSpiTransportEEEE9DrawPixelEjj
 1409              	.LVL102:
 1410              	.LFB2603:
  42:../../libDaisy/src/hid/disp/oled_display.h ****     {
 1411              		.loc 10 42 10 is_stmt 1 view -0
 1412              		.cfi_startproc
 1413              		@ args = 0, pretend = 0, frame = 0
 1414              		@ frame_needed = 0, uses_anonymous_args = 0
 1415              		@ link register save eliminated.
 1416              	.LBB593:
 1417              	.LBI593:
 252:../../libDaisy/src/dev/oled_ssd130x.h ****     {
 1418              		.loc 11 252 10 view .LVU287
 1419              	.LBB594:
 254:../../libDaisy/src/dev/oled_ssd130x.h ****             return;
 1420              		.loc 11 254 9 is_stmt 0 view .LVU288
 1421 0000 7F29     		cmp	r1, #127
 1422 0002 1ED8     		bhi	.L103
 1423 0004 3F2A     		cmp	r2, #63
 1424 0006 1CD8     		bhi	.L103
 256:../../libDaisy/src/dev/oled_ssd130x.h ****             buffer_[x + (y / 8) * width] |= (1 << (y % 8));
 1425              		.loc 11 256 9 view .LVU289
ARM GAS  /var/folders/hl/qgbwny5j0fd895c2c41bk3tw0000gp/T//ccFqANMK.s 			page 52


 1426 0008 6BB1     		cbz	r3, .L105
 257:../../libDaisy/src/dev/oled_ssd130x.h ****         else
 1427              		.loc 11 257 28 view .LVU290
 1428 000a D308     		lsrs	r3, r2, #3
 1429              	.LVL103:
 257:../../libDaisy/src/dev/oled_ssd130x.h ****         else
 1430              		.loc 11 257 48 view .LVU291
 1431 000c 4FF0010C 		mov	ip, #1
 257:../../libDaisy/src/dev/oled_ssd130x.h ****         else
 1432              		.loc 11 257 54 view .LVU292
 1433 0010 02F00702 		and	r2, r2, #7
 1434              	.LVL104:
 257:../../libDaisy/src/dev/oled_ssd130x.h ****         else
 1435              		.loc 11 257 42 view .LVU293
 1436 0014 01EBC313 		add	r3, r1, r3, lsl #7
 257:../../libDaisy/src/dev/oled_ssd130x.h ****         else
 1437              		.loc 11 257 48 view .LVU294
 1438 0018 0CFA02F2 		lsl	r2, ip, r2
 257:../../libDaisy/src/dev/oled_ssd130x.h ****         else
 1439              		.loc 11 257 42 view .LVU295
 1440 001c C118     		adds	r1, r0, r3
 1441              	.LVL105:
 257:../../libDaisy/src/dev/oled_ssd130x.h ****         else
 1442              		.loc 11 257 42 view .LVU296
 1443 001e 0B7D     		ldrb	r3, [r1, #20]	@ zero_extendqisi2
 1444 0020 1A43     		orrs	r2, r2, r3
 1445 0022 0A75     		strb	r2, [r1, #20]
 1446 0024 7047     		bx	lr
 1447              	.LVL106:
 1448              	.L105:
 1449              	.LBB595:
 1450              	.LBI595:
 252:../../libDaisy/src/dev/oled_ssd130x.h ****     {
 1451              		.loc 11 252 10 is_stmt 1 view .LVU297
 1452              	.LBB596:
 259:../../libDaisy/src/dev/oled_ssd130x.h ****     }
 1453              		.loc 11 259 28 is_stmt 0 view .LVU298
 1454 0026 D308     		lsrs	r3, r2, #3
 1455              	.LVL107:
 259:../../libDaisy/src/dev/oled_ssd130x.h ****     }
 1456              		.loc 11 259 49 view .LVU299
 1457 0028 4FF0010C 		mov	ip, #1
 259:../../libDaisy/src/dev/oled_ssd130x.h ****     }
 1458              		.loc 11 259 55 view .LVU300
 1459 002c 02F00702 		and	r2, r2, #7
 1460              	.LVL108:
 259:../../libDaisy/src/dev/oled_ssd130x.h ****     }
 1461              		.loc 11 259 42 view .LVU301
 1462 0030 01EBC313 		add	r3, r1, r3, lsl #7
 259:../../libDaisy/src/dev/oled_ssd130x.h ****     }
 1463              		.loc 11 259 49 view .LVU302
 1464 0034 0CFA02FC 		lsl	ip, ip, r2
 259:../../libDaisy/src/dev/oled_ssd130x.h ****     }
 1465              		.loc 11 259 42 view .LVU303
 1466 0038 C118     		adds	r1, r0, r3
 1467              	.LVL109:
 259:../../libDaisy/src/dev/oled_ssd130x.h ****     }
ARM GAS  /var/folders/hl/qgbwny5j0fd895c2c41bk3tw0000gp/T//ccFqANMK.s 			page 53


 1468              		.loc 11 259 42 view .LVU304
 1469 003a 0A7D     		ldrb	r2, [r1, #20]	@ zero_extendqisi2
 1470 003c 22EA0C02 		bic	r2, r2, ip
 1471 0040 0A75     		strb	r2, [r1, #20]
 1472              	.LVL110:
 1473              	.L103:
 259:../../libDaisy/src/dev/oled_ssd130x.h ****     }
 1474              		.loc 11 259 42 view .LVU305
 1475              	.LBE596:
 1476              	.LBE595:
 1477              	.LBE594:
 1478              	.LBE593:
  45:../../libDaisy/src/hid/disp/oled_display.h **** 
 1479              		.loc 10 45 5 view .LVU306
 1480 0042 7047     		bx	lr
 1481              		.cfi_endproc
 1482              	.LFE2603:
 1484              		.section	.text._ZN5daisy25OneBitGraphicsDisplayImplINS_11OledDisplayINS_13SSD130xDriverILj128ELj64
 1485              		.align	1
 1486              		.p2align 2,,3
 1487              		.weak	_ZN5daisy25OneBitGraphicsDisplayImplINS_11OledDisplayINS_13SSD130xDriverILj128ELj64ENS_24SSD
 1488              		.syntax unified
 1489              		.thumb
 1490              		.thumb_func
 1491              		.fpu fpv5-d16
 1493              	_ZN5daisy25OneBitGraphicsDisplayImplINS_11OledDisplayINS_13SSD130xDriverILj128ELj64ENS_24SSD130x4Wi
 1494              	.LVL111:
 1495              	.LFB2612:
 221:../../libDaisy/src/hid/disp/display.h ****                   uint_fast8_t y1,
 1496              		.loc 12 221 10 is_stmt 1 view -0
 1497              		.cfi_startproc
 1498              		@ args = 8, pretend = 0, frame = 8
 1499              		@ frame_needed = 0, uses_anonymous_args = 0
 221:../../libDaisy/src/hid/disp/display.h ****                   uint_fast8_t y1,
 1500              		.loc 12 221 10 is_stmt 0 view .LVU308
 1501 0000 2DE9F04F 		push	{r4, r5, r6, r7, r8, r9, r10, fp, lr}
 1502              		.cfi_def_cfa_offset 36
 1503              		.cfi_offset 4, -36
 1504              		.cfi_offset 5, -32
 1505              		.cfi_offset 6, -28
 1506              		.cfi_offset 7, -24
 1507              		.cfi_offset 8, -20
 1508              		.cfi_offset 9, -16
 1509              		.cfi_offset 10, -12
 1510              		.cfi_offset 11, -8
 1511              		.cfi_offset 14, -4
 1512 0004 83B0     		sub	sp, sp, #12
 1513              		.cfi_def_cfa_offset 48
 227:../../libDaisy/src/hid/disp/display.h ****         int_fast16_t deltaY = abs((int_fast16_t)y2 - (int_fast16_t)y1);
 1514              		.loc 12 227 52 view .LVU309
 1515 0006 5C1A     		subs	r4, r3, r1
 221:../../libDaisy/src/hid/disp/display.h ****                   uint_fast8_t y1,
 1516              		.loc 12 221 10 view .LVU310
 1517 0008 0C9E     		ldr	r6, [sp, #48]
 227:../../libDaisy/src/hid/disp/display.h ****         int_fast16_t deltaY = abs((int_fast16_t)y2 - (int_fast16_t)y1);
 1518              		.loc 12 227 22 view .LVU311
 1519 000a 002C     		cmp	r4, #0
ARM GAS  /var/folders/hl/qgbwny5j0fd895c2c41bk3tw0000gp/T//ccFqANMK.s 			page 54


 221:../../libDaisy/src/hid/disp/display.h ****                   uint_fast8_t y1,
 1520              		.loc 12 221 10 view .LVU312
 1521 000c 9DF83490 		ldrb	r9, [sp, #52]	@ zero_extendqisi2
 228:../../libDaisy/src/hid/disp/display.h ****         int_fast16_t signX  = ((x1 < x2) ? 1 : -1);
 1522              		.loc 12 228 52 view .LVU313
 1523 0010 A6EB0208 		sub	r8, r6, r2
 227:../../libDaisy/src/hid/disp/display.h ****         int_fast16_t deltaY = abs((int_fast16_t)y2 - (int_fast16_t)y1);
 1524              		.loc 12 227 22 view .LVU314
 1525 0014 B8BF     		it	lt
 1526 0016 6442     		rsblt	r4, r4, #0
 1527              	.LVL112:
 228:../../libDaisy/src/hid/disp/display.h ****         int_fast16_t signX  = ((x1 < x2) ? 1 : -1);
 1528              		.loc 12 228 22 view .LVU315
 1529 0018 B8F1000F 		cmp	r8, #0
 1530 001c B8BF     		it	lt
 1531 001e C8F10008 		rsblt	r8, r8, #0
 1532              	.LVL113:
 229:../../libDaisy/src/hid/disp/display.h ****         int_fast16_t signY  = ((y1 < y2) ? 1 : -1);
 1533              		.loc 12 229 42 view .LVU316
 1534 0022 8B42     		cmp	r3, r1
 1535 0024 8CBF     		ite	hi
 1536 0026 4FF0010A 		movhi	r10, #1
 1537 002a 4FF0FF3A 		movls	r10, #-1
 1538              	.LVL114:
 230:../../libDaisy/src/hid/disp/display.h ****         int_fast16_t error  = deltaX - deltaY;
 1539              		.loc 12 230 42 view .LVU317
 1540 002e 9642     		cmp	r6, r2
 231:../../libDaisy/src/hid/disp/display.h ****         int_fast16_t error2;
 1541              		.loc 12 231 22 view .LVU318
 1542 0030 A4EB080C 		sub	ip, r4, r8
 230:../../libDaisy/src/hid/disp/display.h ****         int_fast16_t error  = deltaX - deltaY;
 1543              		.loc 12 230 42 view .LVU319
 1544 0034 51D8     		bhi	.L108
 1545              	.LVL115:
 1546              	.LBB613:
 1547              	.LBI613:
  42:../../libDaisy/src/hid/disp/oled_display.h ****     {
 1548              		.loc 10 42 10 is_stmt 1 discriminator 4 view .LVU320
 1549              	.LBB614:
 1550              	.LBI614:
 252:../../libDaisy/src/dev/oled_ssd130x.h ****     {
 1551              		.loc 11 252 10 discriminator 4 view .LVU321
 1552              	.LBE614:
 1553              	.LBE613:
 230:../../libDaisy/src/hid/disp/display.h ****         int_fast16_t error  = deltaX - deltaY;
 1554              		.loc 12 230 42 is_stmt 0 discriminator 4 view .LVU322
 1555 0036 4FF0FF35 		mov	r5, #-1
 1556              	.LBB630:
 1557              	.LBB624:
 1558              	.LBB615:
 254:../../libDaisy/src/dev/oled_ssd130x.h ****             return;
 1559              		.loc 11 254 9 discriminator 4 view .LVU323
 1560 003a 7F2B     		cmp	r3, #127
 1561              	.LBE615:
 1562              	.LBE624:
 1563              	.LBE630:
 230:../../libDaisy/src/hid/disp/display.h ****         int_fast16_t error  = deltaX - deltaY;
ARM GAS  /var/folders/hl/qgbwny5j0fd895c2c41bk3tw0000gp/T//ccFqANMK.s 			page 55


 1564              		.loc 12 230 42 discriminator 4 view .LVU324
 1565 003c 0195     		str	r5, [sp, #4]
 1566              	.LBB631:
 1567              	.LBB625:
 1568              	.LBB620:
 254:../../libDaisy/src/dev/oled_ssd130x.h ****             return;
 1569              		.loc 11 254 9 discriminator 4 view .LVU325
 1570 003e 12D8     		bhi	.L109
 1571 0040 3F2E     		cmp	r6, #63
 1572 0042 10D8     		bhi	.L109
 1573              	.LVL116:
 1574              	.L120:
 257:../../libDaisy/src/dev/oled_ssd130x.h ****         else
 1575              		.loc 11 257 28 view .LVU326
 1576 0044 F508     		lsrs	r5, r6, #3
 257:../../libDaisy/src/dev/oled_ssd130x.h ****         else
 1577              		.loc 11 257 54 view .LVU327
 1578 0046 06F0070E 		and	lr, r6, #7
 257:../../libDaisy/src/dev/oled_ssd130x.h ****         else
 1579              		.loc 11 257 48 view .LVU328
 1580 004a 0127     		movs	r7, #1
 257:../../libDaisy/src/dev/oled_ssd130x.h ****         else
 1581              		.loc 11 257 42 view .LVU329
 1582 004c 03EBC515 		add	r5, r3, r5, lsl #7
 1583 0050 0544     		add	r5, r5, r0
 256:../../libDaisy/src/dev/oled_ssd130x.h ****             buffer_[x + (y / 8) * width] |= (1 << (y % 8));
 1584              		.loc 11 256 9 view .LVU330
 1585 0052 B9F1000F 		cmp	r9, #0
 1586 0056 47D0     		beq	.L110
 257:../../libDaisy/src/dev/oled_ssd130x.h ****         else
 1587              		.loc 11 257 48 view .LVU331
 1588 0058 07FA0EF7 		lsl	r7, r7, lr
 257:../../libDaisy/src/dev/oled_ssd130x.h ****         else
 1589              		.loc 11 257 42 view .LVU332
 1590 005c 95F814E0 		ldrb	lr, [r5, #20]	@ zero_extendqisi2
 1591 0060 47EA0E07 		orr	r7, r7, lr
 1592 0064 2F75     		strb	r7, [r5, #20]
 1593              	.LVL117:
 1594              	.L109:
 257:../../libDaisy/src/dev/oled_ssd130x.h ****         else
 1595              		.loc 11 257 42 view .LVU333
 1596              	.LBE620:
 1597              	.LBE625:
 1598              	.LBE631:
 239:../../libDaisy/src/hid/disp/display.h ****         {
 1599              		.loc 12 239 26 is_stmt 1 view .LVU334
 1600 0066 9642     		cmp	r6, r2
 1601 0068 01D1     		bne	.L113
 1602              	.L132:
 239:../../libDaisy/src/hid/disp/display.h ****         {
 1603              		.loc 12 239 26 is_stmt 0 view .LVU335
 1604 006a 8B42     		cmp	r3, r1
 1605 006c 29D0     		beq	.L106
 1606              	.L113:
 1607              	.LVL118:
 243:../../libDaisy/src/hid/disp/display.h ****             {
 1608              		.loc 12 243 23 view .LVU336
ARM GAS  /var/folders/hl/qgbwny5j0fd895c2c41bk3tw0000gp/T//ccFqANMK.s 			page 56


 1609 006e C8F10007 		rsb	r7, r8, #0
 1610              	.L115:
 1611              	.LVL119:
 1612              	.LBB632:
 1613              	.LBI632:
  42:../../libDaisy/src/hid/disp/oled_display.h ****     {
 1614              		.loc 10 42 10 is_stmt 1 view .LVU337
 1615              	.LBB633:
 1616              	.LBI633:
 252:../../libDaisy/src/dev/oled_ssd130x.h ****     {
 1617              		.loc 11 252 10 view .LVU338
 1618              	.LBB634:
 254:../../libDaisy/src/dev/oled_ssd130x.h ****             return;
 1619              		.loc 11 254 9 is_stmt 0 view .LVU339
 1620 0072 7F29     		cmp	r1, #127
 1621 0074 14D8     		bhi	.L116
 1622 0076 3F2A     		cmp	r2, #63
 1623 0078 12D8     		bhi	.L116
 257:../../libDaisy/src/dev/oled_ssd130x.h ****         else
 1624              		.loc 11 257 28 view .LVU340
 1625 007a D508     		lsrs	r5, r2, #3
 257:../../libDaisy/src/dev/oled_ssd130x.h ****         else
 1626              		.loc 11 257 54 view .LVU341
 1627 007c 02F0070B 		and	fp, r2, #7
 257:../../libDaisy/src/dev/oled_ssd130x.h ****         else
 1628              		.loc 11 257 48 view .LVU342
 1629 0080 4FF0010E 		mov	lr, #1
 257:../../libDaisy/src/dev/oled_ssd130x.h ****         else
 1630              		.loc 11 257 42 view .LVU343
 1631 0084 01EBC515 		add	r5, r1, r5, lsl #7
 1632 0088 0544     		add	r5, r5, r0
 256:../../libDaisy/src/dev/oled_ssd130x.h ****             buffer_[x + (y / 8) * width] |= (1 << (y % 8));
 1633              		.loc 11 256 9 view .LVU344
 1634 008a B9F1000F 		cmp	r9, #0
 1635 008e 1BD0     		beq	.L117
 257:../../libDaisy/src/dev/oled_ssd130x.h ****         else
 1636              		.loc 11 257 48 view .LVU345
 1637 0090 0EFA0BFE 		lsl	lr, lr, fp
 257:../../libDaisy/src/dev/oled_ssd130x.h ****         else
 1638              		.loc 11 257 42 view .LVU346
 1639 0094 95F814B0 		ldrb	fp, [r5, #20]	@ zero_extendqisi2
 1640 0098 4EEA0B0E 		orr	lr, lr, fp
 1641 009c 85F814E0 		strb	lr, [r5, #20]
 1642              	.L116:
 1643              	.LVL120:
 257:../../libDaisy/src/dev/oled_ssd130x.h ****         else
 1644              		.loc 11 257 42 view .LVU347
 1645              	.LBE634:
 1646              	.LBE633:
 1647              	.LBE632:
 243:../../libDaisy/src/hid/disp/display.h ****             {
 1648              		.loc 12 243 13 view .LVU348
 1649 00a0 B7EB4C0F 		cmp	r7, ip, lsl #1
 242:../../libDaisy/src/hid/disp/display.h ****             if(error2 > -deltaY)
 1650              		.loc 12 242 20 view .LVU349
 1651 00a4 4FEA4C05 		lsl	r5, ip, #1
 1652              	.LVL121:
ARM GAS  /var/folders/hl/qgbwny5j0fd895c2c41bk3tw0000gp/T//ccFqANMK.s 			page 57


 243:../../libDaisy/src/hid/disp/display.h ****             {
 1653              		.loc 12 243 13 view .LVU350
 1654 00a8 02DA     		bge	.L118
 245:../../libDaisy/src/hid/disp/display.h ****                 x1 += signX;
 1655              		.loc 12 245 23 view .LVU351
 1656 00aa ACEB080C 		sub	ip, ip, r8
 1657              	.LVL122:
 246:../../libDaisy/src/hid/disp/display.h ****             }
 1658              		.loc 12 246 20 view .LVU352
 1659 00ae 5144     		add	r1, r1, r10
 1660              	.LVL123:
 1661              	.L118:
 249:../../libDaisy/src/hid/disp/display.h ****             {
 1662              		.loc 12 249 13 view .LVU353
 1663 00b0 AC42     		cmp	r4, r5
 1664 00b2 02DD     		ble	.L119
 252:../../libDaisy/src/hid/disp/display.h ****             }
 1665              		.loc 12 252 20 view .LVU354
 1666 00b4 019D     		ldr	r5, [sp, #4]
 1667              	.LVL124:
 251:../../libDaisy/src/hid/disp/display.h ****                 y1 += signY;
 1668              		.loc 12 251 23 view .LVU355
 1669 00b6 A444     		add	ip, ip, r4
 1670              	.LVL125:
 252:../../libDaisy/src/hid/disp/display.h ****             }
 1671              		.loc 12 252 20 view .LVU356
 1672 00b8 2A44     		add	r2, r2, r5
 1673              	.LVL126:
 1674              	.L119:
 239:../../libDaisy/src/hid/disp/display.h ****         {
 1675              		.loc 12 239 26 is_stmt 1 view .LVU357
 1676 00ba 9942     		cmp	r1, r3
 1677 00bc D9D1     		bne	.L115
 239:../../libDaisy/src/hid/disp/display.h ****         {
 1678              		.loc 12 239 26 is_stmt 0 view .LVU358
 1679 00be 9642     		cmp	r6, r2
 1680 00c0 D7D1     		bne	.L115
 1681              	.L106:
 255:../../libDaisy/src/hid/disp/display.h **** 
 1682              		.loc 12 255 5 view .LVU359
 1683 00c2 03B0     		add	sp, sp, #12
 1684              		.cfi_remember_state
 1685              		.cfi_def_cfa_offset 36
 1686              		@ sp needed
 1687 00c4 BDE8F08F 		pop	{r4, r5, r6, r7, r8, r9, r10, fp, pc}
 1688              	.LVL127:
 1689              	.L117:
 1690              		.cfi_restore_state
 1691              	.LBB639:
 1692              	.LBB638:
 1693              	.LBB637:
 1694              	.LBB635:
 1695              	.LBI635:
 252:../../libDaisy/src/dev/oled_ssd130x.h ****     {
 1696              		.loc 11 252 10 is_stmt 1 view .LVU360
 1697              	.LBB636:
 259:../../libDaisy/src/dev/oled_ssd130x.h ****     }
ARM GAS  /var/folders/hl/qgbwny5j0fd895c2c41bk3tw0000gp/T//ccFqANMK.s 			page 58


 1698              		.loc 11 259 49 is_stmt 0 view .LVU361
 1699 00c8 0EFA0BFB 		lsl	fp, lr, fp
 259:../../libDaisy/src/dev/oled_ssd130x.h ****     }
 1700              		.loc 11 259 42 view .LVU362
 1701 00cc 95F814E0 		ldrb	lr, [r5, #20]	@ zero_extendqisi2
 1702 00d0 2EEA0B0E 		bic	lr, lr, fp
 1703 00d4 85F814E0 		strb	lr, [r5, #20]
 1704 00d8 E2E7     		b	.L116
 1705              	.LVL128:
 1706              	.L108:
 259:../../libDaisy/src/dev/oled_ssd130x.h ****     }
 1707              		.loc 11 259 42 view .LVU363
 1708              	.LBE636:
 1709              	.LBE635:
 1710              	.LBE637:
 1711              	.LBE638:
 1712              	.LBE639:
 1713              	.LBB640:
  42:../../libDaisy/src/hid/disp/oled_display.h ****     {
 1714              		.loc 10 42 10 is_stmt 1 view .LVU364
 1715              	.LBB626:
 252:../../libDaisy/src/dev/oled_ssd130x.h ****     {
 1716              		.loc 11 252 10 view .LVU365
 1717              	.LBE626:
 1718              	.LBE640:
 230:../../libDaisy/src/hid/disp/display.h ****         int_fast16_t error  = deltaX - deltaY;
 1719              		.loc 12 230 42 is_stmt 0 view .LVU366
 1720 00da 0125     		movs	r5, #1
 1721              	.LBB641:
 1722              	.LBB627:
 1723              	.LBB621:
 254:../../libDaisy/src/dev/oled_ssd130x.h ****             return;
 1724              		.loc 11 254 9 view .LVU367
 1725 00dc 7F2B     		cmp	r3, #127
 1726              	.LBE621:
 1727              	.LBE627:
 1728              	.LBE641:
 230:../../libDaisy/src/hid/disp/display.h ****         int_fast16_t error  = deltaX - deltaY;
 1729              		.loc 12 230 42 view .LVU368
 1730 00de 0195     		str	r5, [sp, #4]
 1731              	.LBB642:
 1732              	.LBB628:
 1733              	.LBB622:
 254:../../libDaisy/src/dev/oled_ssd130x.h ****             return;
 1734              		.loc 11 254 9 view .LVU369
 1735 00e0 C5D8     		bhi	.L113
 1736 00e2 3F2E     		cmp	r6, #63
 1737 00e4 AED9     		bls	.L120
 1738 00e6 C2E7     		b	.L113
 1739              	.LVL129:
 1740              	.L110:
 1741              	.LBB616:
 1742              	.LBI616:
 252:../../libDaisy/src/dev/oled_ssd130x.h ****     {
 1743              		.loc 11 252 10 is_stmt 1 view .LVU370
 1744              	.LBB617:
 259:../../libDaisy/src/dev/oled_ssd130x.h ****     }
ARM GAS  /var/folders/hl/qgbwny5j0fd895c2c41bk3tw0000gp/T//ccFqANMK.s 			page 59


 1745              		.loc 11 259 49 is_stmt 0 view .LVU371
 1746 00e8 07FA0EFE 		lsl	lr, r7, lr
 259:../../libDaisy/src/dev/oled_ssd130x.h ****     }
 1747              		.loc 11 259 42 view .LVU372
 1748 00ec 2F7D     		ldrb	r7, [r5, #20]	@ zero_extendqisi2
 1749              	.LBE617:
 1750              	.LBE616:
 1751              	.LBE622:
 1752              	.LBE628:
 1753              	.LBE642:
 239:../../libDaisy/src/hid/disp/display.h ****         {
 1754              		.loc 12 239 26 view .LVU373
 1755 00ee 9642     		cmp	r6, r2
 1756              	.LBB643:
 1757              	.LBB629:
 1758              	.LBB623:
 1759              	.LBB619:
 1760              	.LBB618:
 259:../../libDaisy/src/dev/oled_ssd130x.h ****     }
 1761              		.loc 11 259 42 view .LVU374
 1762 00f0 27EA0E07 		bic	r7, r7, lr
 1763 00f4 2F75     		strb	r7, [r5, #20]
 1764              	.LVL130:
 259:../../libDaisy/src/dev/oled_ssd130x.h ****     }
 1765              		.loc 11 259 42 view .LVU375
 1766              	.LBE618:
 1767              	.LBE619:
 1768              	.LBE623:
 1769              	.LBE629:
 1770              	.LBE643:
 239:../../libDaisy/src/hid/disp/display.h ****         {
 1771              		.loc 12 239 26 is_stmt 1 view .LVU376
 1772 00f6 B8D0     		beq	.L132
 1773 00f8 B9E7     		b	.L113
 1774              		.cfi_endproc
 1775              	.LFE2612:
 1777 00fa 00BF     		.section	.text._ZN5daisy25OneBitGraphicsDisplayImplINS_11OledDisplayINS_13SSD130xDriverILj128ELj64
 1778              		.align	1
 1779              		.p2align 2,,3
 1780              		.weak	_ZN5daisy25OneBitGraphicsDisplayImplINS_11OledDisplayINS_13SSD130xDriverILj128ELj64ENS_24SSD
 1781              		.syntax unified
 1782              		.thumb
 1783              		.thumb_func
 1784              		.fpu fpv5-d16
 1786              	_ZN5daisy25OneBitGraphicsDisplayImplINS_11OledDisplayINS_13SSD130xDriverILj128ELj64ENS_24SSD130x4Wi
 1787              	.LVL131:
 1788              	.LFB2614:
 283:../../libDaisy/src/hid/disp/display.h ****                  uint_fast8_t y,
 1789              		.loc 12 283 10 view -0
 1790              		.cfi_startproc
 1791              		@ args = 12, pretend = 0, frame = 8
 1792              		@ frame_needed = 0, uses_anonymous_args = 0
 283:../../libDaisy/src/hid/disp/display.h ****                  uint_fast8_t y,
 1793              		.loc 12 283 10 is_stmt 0 view .LVU378
 1794 0000 2DE9F04F 		push	{r4, r5, r6, r7, r8, r9, r10, fp, lr}
 1795              		.cfi_def_cfa_offset 36
 1796              		.cfi_offset 4, -36
ARM GAS  /var/folders/hl/qgbwny5j0fd895c2c41bk3tw0000gp/T//ccFqANMK.s 			page 60


 1797              		.cfi_offset 5, -32
 1798              		.cfi_offset 6, -28
 1799              		.cfi_offset 7, -24
 1800              		.cfi_offset 8, -20
 1801              		.cfi_offset 9, -16
 1802              		.cfi_offset 10, -12
 1803              		.cfi_offset 11, -8
 1804              		.cfi_offset 14, -4
 1805 0004 2DED068B 		vpush.64	{d8, d9, d10}
 1806              		.cfi_def_cfa_offset 60
 1807              		.cfi_offset 80, -60
 1808              		.cfi_offset 81, -56
 1809              		.cfi_offset 82, -52
 1810              		.cfi_offset 83, -48
 1811              		.cfi_offset 84, -44
 1812              		.cfi_offset 85, -40
 1813 0008 83B0     		sub	sp, sp, #12
 1814              		.cfi_def_cfa_offset 72
 283:../../libDaisy/src/hid/disp/display.h ****                  uint_fast8_t y,
 1815              		.loc 12 283 10 view .LVU379
 1816 000a 1F46     		mov	r7, r3
 1817 000c 8046     		mov	r8, r0
 1818 000e 0D46     		mov	r5, r1
 1819 0010 9DF85030 		ldrb	r3, [sp, #80]	@ zero_extendqisi2
 1820              	.LVL132:
 283:../../libDaisy/src/hid/disp/display.h ****                  uint_fast8_t y,
 1821              		.loc 12 283 10 view .LVU380
 1822 0014 1646     		mov	r6, r2
 1823 0016 0193     		str	r3, [sp, #4]
 306:../../libDaisy/src/hid/disp/display.h ****         {
 1824              		.loc 12 306 9 view .LVU381
 1825 0018 139B     		ldr	r3, [sp, #76]
 1826 001a 002B     		cmp	r3, #0
 1827 001c C0F22182 		blt	.L134
 313:../../libDaisy/src/hid/disp/display.h **** 
 1828              		.loc 12 313 27 view .LVU382
 1829 0020 129A     		ldr	r2, [sp, #72]
 1830              	.LVL133:
 313:../../libDaisy/src/hid/disp/display.h **** 
 1831              		.loc 12 313 27 view .LVU383
 1832 0022 1344     		add	r3, r3, r2
 1833 0024 06EE103A 		vmov	s12, r3	@ int
 1834              	.LVL134:
 1835              	.L135:
 312:../../libDaisy/src/hid/disp/display.h ****         end_angle_rad   = deg2rad(start_angle + sweep);
 1836              		.loc 12 312 27 view .LVU384
 1837 0028 DDED127A 		vldr.32	s15, [sp, #72]	@ int
 313:../../libDaisy/src/hid/disp/display.h **** 
 1838              		.loc 12 313 27 view .LVU385
 1839 002c B8EEC66B 		vcvt.f64.s32	d6, s12
 312:../../libDaisy/src/hid/disp/display.h ****         end_angle_rad   = deg2rad(start_angle + sweep);
 1840              		.loc 12 312 27 view .LVU386
 1841 0030 9FEDCD4B 		vldr.64	d4, .L210
 1842 0034 B8EEE77B 		vcvt.f64.s32	d7, s15
 1843 0038 9FEDCD5B 		vldr.64	d5, .L210+8
 1844 003c 27EE047B 		vmul.f64	d7, d7, d4
 313:../../libDaisy/src/hid/disp/display.h **** 
ARM GAS  /var/folders/hl/qgbwny5j0fd895c2c41bk3tw0000gp/T//ccFqANMK.s 			page 61


 1845              		.loc 12 313 27 view .LVU387
 1846 0040 26EE046B 		vmul.f64	d6, d6, d4
 312:../../libDaisy/src/hid/disp/display.h ****         end_angle_rad   = deg2rad(start_angle + sweep);
 1847              		.loc 12 312 27 view .LVU388
 1848 0044 87EE050B 		vdiv.f64	d0, d7, d5
 313:../../libDaisy/src/hid/disp/display.h **** 
 1849              		.loc 12 313 27 view .LVU389
 1850 0048 86EE05AB 		vdiv.f64	d10, d6, d5
 312:../../libDaisy/src/hid/disp/display.h ****         end_angle_rad   = deg2rad(start_angle + sweep);
 1851              		.loc 12 312 25 view .LVU390
 1852 004c F7EEC08B 		vcvt.f32.f64	s17, d0
 1853              	.LVL135:
 1854              	.LBB676:
 1855              	.LBB677:
 1856              		.file 13 "/opt/homebrew/Cellar/arm-none-eabi-gcc/10.3-2021.07/gcc/arm-none-eabi/include/c++/10.3.1
   1:/opt/homebrew/Cellar/arm-none-eabi-gcc/10.3-2021.07/gcc/arm-none-eabi/include/c++/10.3.1/cmath **** // -*- C++ -*- C forwarding header.
   2:/opt/homebrew/Cellar/arm-none-eabi-gcc/10.3-2021.07/gcc/arm-none-eabi/include/c++/10.3.1/cmath **** 
   3:/opt/homebrew/Cellar/arm-none-eabi-gcc/10.3-2021.07/gcc/arm-none-eabi/include/c++/10.3.1/cmath **** // Copyright (C) 1997-2020 Free Software Foundation, Inc.
   4:/opt/homebrew/Cellar/arm-none-eabi-gcc/10.3-2021.07/gcc/arm-none-eabi/include/c++/10.3.1/cmath **** //
   5:/opt/homebrew/Cellar/arm-none-eabi-gcc/10.3-2021.07/gcc/arm-none-eabi/include/c++/10.3.1/cmath **** // This file is part of the GNU ISO C++ Library.  This library is free
   6:/opt/homebrew/Cellar/arm-none-eabi-gcc/10.3-2021.07/gcc/arm-none-eabi/include/c++/10.3.1/cmath **** // software; you can redistribute it and/or modify it under the
   7:/opt/homebrew/Cellar/arm-none-eabi-gcc/10.3-2021.07/gcc/arm-none-eabi/include/c++/10.3.1/cmath **** // terms of the GNU General Public License as published by the
   8:/opt/homebrew/Cellar/arm-none-eabi-gcc/10.3-2021.07/gcc/arm-none-eabi/include/c++/10.3.1/cmath **** // Free Software Foundation; either version 3, or (at your option)
   9:/opt/homebrew/Cellar/arm-none-eabi-gcc/10.3-2021.07/gcc/arm-none-eabi/include/c++/10.3.1/cmath **** // any later version.
  10:/opt/homebrew/Cellar/arm-none-eabi-gcc/10.3-2021.07/gcc/arm-none-eabi/include/c++/10.3.1/cmath **** 
  11:/opt/homebrew/Cellar/arm-none-eabi-gcc/10.3-2021.07/gcc/arm-none-eabi/include/c++/10.3.1/cmath **** // This library is distributed in the hope that it will be useful,
  12:/opt/homebrew/Cellar/arm-none-eabi-gcc/10.3-2021.07/gcc/arm-none-eabi/include/c++/10.3.1/cmath **** // but WITHOUT ANY WARRANTY; without even the implied warranty of
  13:/opt/homebrew/Cellar/arm-none-eabi-gcc/10.3-2021.07/gcc/arm-none-eabi/include/c++/10.3.1/cmath **** // MERCHANTABILITY or FITNESS FOR A PARTICULAR PURPOSE.  See the
  14:/opt/homebrew/Cellar/arm-none-eabi-gcc/10.3-2021.07/gcc/arm-none-eabi/include/c++/10.3.1/cmath **** // GNU General Public License for more details.
  15:/opt/homebrew/Cellar/arm-none-eabi-gcc/10.3-2021.07/gcc/arm-none-eabi/include/c++/10.3.1/cmath **** 
  16:/opt/homebrew/Cellar/arm-none-eabi-gcc/10.3-2021.07/gcc/arm-none-eabi/include/c++/10.3.1/cmath **** // Under Section 7 of GPL version 3, you are granted additional
  17:/opt/homebrew/Cellar/arm-none-eabi-gcc/10.3-2021.07/gcc/arm-none-eabi/include/c++/10.3.1/cmath **** // permissions described in the GCC Runtime Library Exception, version
  18:/opt/homebrew/Cellar/arm-none-eabi-gcc/10.3-2021.07/gcc/arm-none-eabi/include/c++/10.3.1/cmath **** // 3.1, as published by the Free Software Foundation.
  19:/opt/homebrew/Cellar/arm-none-eabi-gcc/10.3-2021.07/gcc/arm-none-eabi/include/c++/10.3.1/cmath **** 
  20:/opt/homebrew/Cellar/arm-none-eabi-gcc/10.3-2021.07/gcc/arm-none-eabi/include/c++/10.3.1/cmath **** // You should have received a copy of the GNU General Public License and
  21:/opt/homebrew/Cellar/arm-none-eabi-gcc/10.3-2021.07/gcc/arm-none-eabi/include/c++/10.3.1/cmath **** // a copy of the GCC Runtime Library Exception along with this program;
  22:/opt/homebrew/Cellar/arm-none-eabi-gcc/10.3-2021.07/gcc/arm-none-eabi/include/c++/10.3.1/cmath **** // see the files COPYING3 and COPYING.RUNTIME respectively.  If not, see
  23:/opt/homebrew/Cellar/arm-none-eabi-gcc/10.3-2021.07/gcc/arm-none-eabi/include/c++/10.3.1/cmath **** // <http://www.gnu.org/licenses/>.
  24:/opt/homebrew/Cellar/arm-none-eabi-gcc/10.3-2021.07/gcc/arm-none-eabi/include/c++/10.3.1/cmath **** 
  25:/opt/homebrew/Cellar/arm-none-eabi-gcc/10.3-2021.07/gcc/arm-none-eabi/include/c++/10.3.1/cmath **** /** @file include/cmath
  26:/opt/homebrew/Cellar/arm-none-eabi-gcc/10.3-2021.07/gcc/arm-none-eabi/include/c++/10.3.1/cmath ****  *  This is a Standard C++ Library file.  You should @c \#include this file
  27:/opt/homebrew/Cellar/arm-none-eabi-gcc/10.3-2021.07/gcc/arm-none-eabi/include/c++/10.3.1/cmath ****  *  in your programs, rather than any of the @a *.h implementation files.
  28:/opt/homebrew/Cellar/arm-none-eabi-gcc/10.3-2021.07/gcc/arm-none-eabi/include/c++/10.3.1/cmath ****  *
  29:/opt/homebrew/Cellar/arm-none-eabi-gcc/10.3-2021.07/gcc/arm-none-eabi/include/c++/10.3.1/cmath ****  *  This is the C++ version of the Standard C Library header @c math.h,
  30:/opt/homebrew/Cellar/arm-none-eabi-gcc/10.3-2021.07/gcc/arm-none-eabi/include/c++/10.3.1/cmath ****  *  and its contents are (mostly) the same as that header, but are all
  31:/opt/homebrew/Cellar/arm-none-eabi-gcc/10.3-2021.07/gcc/arm-none-eabi/include/c++/10.3.1/cmath ****  *  contained in the namespace @c std (except for names which are defined
  32:/opt/homebrew/Cellar/arm-none-eabi-gcc/10.3-2021.07/gcc/arm-none-eabi/include/c++/10.3.1/cmath ****  *  as macros in C).
  33:/opt/homebrew/Cellar/arm-none-eabi-gcc/10.3-2021.07/gcc/arm-none-eabi/include/c++/10.3.1/cmath ****  */
  34:/opt/homebrew/Cellar/arm-none-eabi-gcc/10.3-2021.07/gcc/arm-none-eabi/include/c++/10.3.1/cmath **** 
  35:/opt/homebrew/Cellar/arm-none-eabi-gcc/10.3-2021.07/gcc/arm-none-eabi/include/c++/10.3.1/cmath **** //
  36:/opt/homebrew/Cellar/arm-none-eabi-gcc/10.3-2021.07/gcc/arm-none-eabi/include/c++/10.3.1/cmath **** // ISO C++ 14882: 26.5  C library
  37:/opt/homebrew/Cellar/arm-none-eabi-gcc/10.3-2021.07/gcc/arm-none-eabi/include/c++/10.3.1/cmath **** //
  38:/opt/homebrew/Cellar/arm-none-eabi-gcc/10.3-2021.07/gcc/arm-none-eabi/include/c++/10.3.1/cmath **** 
  39:/opt/homebrew/Cellar/arm-none-eabi-gcc/10.3-2021.07/gcc/arm-none-eabi/include/c++/10.3.1/cmath **** #pragma GCC system_header
  40:/opt/homebrew/Cellar/arm-none-eabi-gcc/10.3-2021.07/gcc/arm-none-eabi/include/c++/10.3.1/cmath **** 
  41:/opt/homebrew/Cellar/arm-none-eabi-gcc/10.3-2021.07/gcc/arm-none-eabi/include/c++/10.3.1/cmath **** #include <bits/c++config.h>
  42:/opt/homebrew/Cellar/arm-none-eabi-gcc/10.3-2021.07/gcc/arm-none-eabi/include/c++/10.3.1/cmath **** #include <bits/cpp_type_traits.h>
ARM GAS  /var/folders/hl/qgbwny5j0fd895c2c41bk3tw0000gp/T//ccFqANMK.s 			page 62


  43:/opt/homebrew/Cellar/arm-none-eabi-gcc/10.3-2021.07/gcc/arm-none-eabi/include/c++/10.3.1/cmath **** #include <ext/type_traits.h>
  44:/opt/homebrew/Cellar/arm-none-eabi-gcc/10.3-2021.07/gcc/arm-none-eabi/include/c++/10.3.1/cmath **** #define _GLIBCXX_INCLUDE_NEXT_C_HEADERS
  45:/opt/homebrew/Cellar/arm-none-eabi-gcc/10.3-2021.07/gcc/arm-none-eabi/include/c++/10.3.1/cmath **** #include_next <math.h>
  46:/opt/homebrew/Cellar/arm-none-eabi-gcc/10.3-2021.07/gcc/arm-none-eabi/include/c++/10.3.1/cmath **** #undef _GLIBCXX_INCLUDE_NEXT_C_HEADERS
  47:/opt/homebrew/Cellar/arm-none-eabi-gcc/10.3-2021.07/gcc/arm-none-eabi/include/c++/10.3.1/cmath **** #include <bits/std_abs.h>
  48:/opt/homebrew/Cellar/arm-none-eabi-gcc/10.3-2021.07/gcc/arm-none-eabi/include/c++/10.3.1/cmath **** 
  49:/opt/homebrew/Cellar/arm-none-eabi-gcc/10.3-2021.07/gcc/arm-none-eabi/include/c++/10.3.1/cmath **** #ifndef _GLIBCXX_CMATH
  50:/opt/homebrew/Cellar/arm-none-eabi-gcc/10.3-2021.07/gcc/arm-none-eabi/include/c++/10.3.1/cmath **** #define _GLIBCXX_CMATH 1
  51:/opt/homebrew/Cellar/arm-none-eabi-gcc/10.3-2021.07/gcc/arm-none-eabi/include/c++/10.3.1/cmath **** 
  52:/opt/homebrew/Cellar/arm-none-eabi-gcc/10.3-2021.07/gcc/arm-none-eabi/include/c++/10.3.1/cmath **** // Get rid of those macros defined in <math.h> in lieu of real functions.
  53:/opt/homebrew/Cellar/arm-none-eabi-gcc/10.3-2021.07/gcc/arm-none-eabi/include/c++/10.3.1/cmath **** #undef div
  54:/opt/homebrew/Cellar/arm-none-eabi-gcc/10.3-2021.07/gcc/arm-none-eabi/include/c++/10.3.1/cmath **** #undef acos
  55:/opt/homebrew/Cellar/arm-none-eabi-gcc/10.3-2021.07/gcc/arm-none-eabi/include/c++/10.3.1/cmath **** #undef asin
  56:/opt/homebrew/Cellar/arm-none-eabi-gcc/10.3-2021.07/gcc/arm-none-eabi/include/c++/10.3.1/cmath **** #undef atan
  57:/opt/homebrew/Cellar/arm-none-eabi-gcc/10.3-2021.07/gcc/arm-none-eabi/include/c++/10.3.1/cmath **** #undef atan2
  58:/opt/homebrew/Cellar/arm-none-eabi-gcc/10.3-2021.07/gcc/arm-none-eabi/include/c++/10.3.1/cmath **** #undef ceil
  59:/opt/homebrew/Cellar/arm-none-eabi-gcc/10.3-2021.07/gcc/arm-none-eabi/include/c++/10.3.1/cmath **** #undef cos
  60:/opt/homebrew/Cellar/arm-none-eabi-gcc/10.3-2021.07/gcc/arm-none-eabi/include/c++/10.3.1/cmath **** #undef cosh
  61:/opt/homebrew/Cellar/arm-none-eabi-gcc/10.3-2021.07/gcc/arm-none-eabi/include/c++/10.3.1/cmath **** #undef exp
  62:/opt/homebrew/Cellar/arm-none-eabi-gcc/10.3-2021.07/gcc/arm-none-eabi/include/c++/10.3.1/cmath **** #undef fabs
  63:/opt/homebrew/Cellar/arm-none-eabi-gcc/10.3-2021.07/gcc/arm-none-eabi/include/c++/10.3.1/cmath **** #undef floor
  64:/opt/homebrew/Cellar/arm-none-eabi-gcc/10.3-2021.07/gcc/arm-none-eabi/include/c++/10.3.1/cmath **** #undef fmod
  65:/opt/homebrew/Cellar/arm-none-eabi-gcc/10.3-2021.07/gcc/arm-none-eabi/include/c++/10.3.1/cmath **** #undef frexp
  66:/opt/homebrew/Cellar/arm-none-eabi-gcc/10.3-2021.07/gcc/arm-none-eabi/include/c++/10.3.1/cmath **** #undef ldexp
  67:/opt/homebrew/Cellar/arm-none-eabi-gcc/10.3-2021.07/gcc/arm-none-eabi/include/c++/10.3.1/cmath **** #undef log
  68:/opt/homebrew/Cellar/arm-none-eabi-gcc/10.3-2021.07/gcc/arm-none-eabi/include/c++/10.3.1/cmath **** #undef log10
  69:/opt/homebrew/Cellar/arm-none-eabi-gcc/10.3-2021.07/gcc/arm-none-eabi/include/c++/10.3.1/cmath **** #undef modf
  70:/opt/homebrew/Cellar/arm-none-eabi-gcc/10.3-2021.07/gcc/arm-none-eabi/include/c++/10.3.1/cmath **** #undef pow
  71:/opt/homebrew/Cellar/arm-none-eabi-gcc/10.3-2021.07/gcc/arm-none-eabi/include/c++/10.3.1/cmath **** #undef sin
  72:/opt/homebrew/Cellar/arm-none-eabi-gcc/10.3-2021.07/gcc/arm-none-eabi/include/c++/10.3.1/cmath **** #undef sinh
  73:/opt/homebrew/Cellar/arm-none-eabi-gcc/10.3-2021.07/gcc/arm-none-eabi/include/c++/10.3.1/cmath **** #undef sqrt
  74:/opt/homebrew/Cellar/arm-none-eabi-gcc/10.3-2021.07/gcc/arm-none-eabi/include/c++/10.3.1/cmath **** #undef tan
  75:/opt/homebrew/Cellar/arm-none-eabi-gcc/10.3-2021.07/gcc/arm-none-eabi/include/c++/10.3.1/cmath **** #undef tanh
  76:/opt/homebrew/Cellar/arm-none-eabi-gcc/10.3-2021.07/gcc/arm-none-eabi/include/c++/10.3.1/cmath **** 
  77:/opt/homebrew/Cellar/arm-none-eabi-gcc/10.3-2021.07/gcc/arm-none-eabi/include/c++/10.3.1/cmath **** extern "C++"
  78:/opt/homebrew/Cellar/arm-none-eabi-gcc/10.3-2021.07/gcc/arm-none-eabi/include/c++/10.3.1/cmath **** {
  79:/opt/homebrew/Cellar/arm-none-eabi-gcc/10.3-2021.07/gcc/arm-none-eabi/include/c++/10.3.1/cmath **** namespace std _GLIBCXX_VISIBILITY(default)
  80:/opt/homebrew/Cellar/arm-none-eabi-gcc/10.3-2021.07/gcc/arm-none-eabi/include/c++/10.3.1/cmath **** {
  81:/opt/homebrew/Cellar/arm-none-eabi-gcc/10.3-2021.07/gcc/arm-none-eabi/include/c++/10.3.1/cmath **** _GLIBCXX_BEGIN_NAMESPACE_VERSION
  82:/opt/homebrew/Cellar/arm-none-eabi-gcc/10.3-2021.07/gcc/arm-none-eabi/include/c++/10.3.1/cmath **** 
  83:/opt/homebrew/Cellar/arm-none-eabi-gcc/10.3-2021.07/gcc/arm-none-eabi/include/c++/10.3.1/cmath ****   using ::acos;
  84:/opt/homebrew/Cellar/arm-none-eabi-gcc/10.3-2021.07/gcc/arm-none-eabi/include/c++/10.3.1/cmath **** 
  85:/opt/homebrew/Cellar/arm-none-eabi-gcc/10.3-2021.07/gcc/arm-none-eabi/include/c++/10.3.1/cmath **** #ifndef __CORRECT_ISO_CPP_MATH_H_PROTO
  86:/opt/homebrew/Cellar/arm-none-eabi-gcc/10.3-2021.07/gcc/arm-none-eabi/include/c++/10.3.1/cmath ****   inline _GLIBCXX_CONSTEXPR float
  87:/opt/homebrew/Cellar/arm-none-eabi-gcc/10.3-2021.07/gcc/arm-none-eabi/include/c++/10.3.1/cmath ****   acos(float __x)
  88:/opt/homebrew/Cellar/arm-none-eabi-gcc/10.3-2021.07/gcc/arm-none-eabi/include/c++/10.3.1/cmath ****   { return __builtin_acosf(__x); }
  89:/opt/homebrew/Cellar/arm-none-eabi-gcc/10.3-2021.07/gcc/arm-none-eabi/include/c++/10.3.1/cmath **** 
  90:/opt/homebrew/Cellar/arm-none-eabi-gcc/10.3-2021.07/gcc/arm-none-eabi/include/c++/10.3.1/cmath ****   inline _GLIBCXX_CONSTEXPR long double
  91:/opt/homebrew/Cellar/arm-none-eabi-gcc/10.3-2021.07/gcc/arm-none-eabi/include/c++/10.3.1/cmath ****   acos(long double __x)
  92:/opt/homebrew/Cellar/arm-none-eabi-gcc/10.3-2021.07/gcc/arm-none-eabi/include/c++/10.3.1/cmath ****   { return __builtin_acosl(__x); }
  93:/opt/homebrew/Cellar/arm-none-eabi-gcc/10.3-2021.07/gcc/arm-none-eabi/include/c++/10.3.1/cmath **** #endif
  94:/opt/homebrew/Cellar/arm-none-eabi-gcc/10.3-2021.07/gcc/arm-none-eabi/include/c++/10.3.1/cmath **** 
  95:/opt/homebrew/Cellar/arm-none-eabi-gcc/10.3-2021.07/gcc/arm-none-eabi/include/c++/10.3.1/cmath ****   template<typename _Tp>
  96:/opt/homebrew/Cellar/arm-none-eabi-gcc/10.3-2021.07/gcc/arm-none-eabi/include/c++/10.3.1/cmath ****     inline _GLIBCXX_CONSTEXPR
  97:/opt/homebrew/Cellar/arm-none-eabi-gcc/10.3-2021.07/gcc/arm-none-eabi/include/c++/10.3.1/cmath ****     typename __gnu_cxx::__enable_if<__is_integer<_Tp>::__value, 
  98:/opt/homebrew/Cellar/arm-none-eabi-gcc/10.3-2021.07/gcc/arm-none-eabi/include/c++/10.3.1/cmath ****                                     double>::__type
  99:/opt/homebrew/Cellar/arm-none-eabi-gcc/10.3-2021.07/gcc/arm-none-eabi/include/c++/10.3.1/cmath ****     acos(_Tp __x)
ARM GAS  /var/folders/hl/qgbwny5j0fd895c2c41bk3tw0000gp/T//ccFqANMK.s 			page 63


 100:/opt/homebrew/Cellar/arm-none-eabi-gcc/10.3-2021.07/gcc/arm-none-eabi/include/c++/10.3.1/cmath ****     { return __builtin_acos(__x); }
 101:/opt/homebrew/Cellar/arm-none-eabi-gcc/10.3-2021.07/gcc/arm-none-eabi/include/c++/10.3.1/cmath **** 
 102:/opt/homebrew/Cellar/arm-none-eabi-gcc/10.3-2021.07/gcc/arm-none-eabi/include/c++/10.3.1/cmath ****   using ::asin;
 103:/opt/homebrew/Cellar/arm-none-eabi-gcc/10.3-2021.07/gcc/arm-none-eabi/include/c++/10.3.1/cmath **** 
 104:/opt/homebrew/Cellar/arm-none-eabi-gcc/10.3-2021.07/gcc/arm-none-eabi/include/c++/10.3.1/cmath **** #ifndef __CORRECT_ISO_CPP_MATH_H_PROTO
 105:/opt/homebrew/Cellar/arm-none-eabi-gcc/10.3-2021.07/gcc/arm-none-eabi/include/c++/10.3.1/cmath ****   inline _GLIBCXX_CONSTEXPR float
 106:/opt/homebrew/Cellar/arm-none-eabi-gcc/10.3-2021.07/gcc/arm-none-eabi/include/c++/10.3.1/cmath ****   asin(float __x)
 107:/opt/homebrew/Cellar/arm-none-eabi-gcc/10.3-2021.07/gcc/arm-none-eabi/include/c++/10.3.1/cmath ****   { return __builtin_asinf(__x); }
 108:/opt/homebrew/Cellar/arm-none-eabi-gcc/10.3-2021.07/gcc/arm-none-eabi/include/c++/10.3.1/cmath **** 
 109:/opt/homebrew/Cellar/arm-none-eabi-gcc/10.3-2021.07/gcc/arm-none-eabi/include/c++/10.3.1/cmath ****   inline _GLIBCXX_CONSTEXPR long double
 110:/opt/homebrew/Cellar/arm-none-eabi-gcc/10.3-2021.07/gcc/arm-none-eabi/include/c++/10.3.1/cmath ****   asin(long double __x)
 111:/opt/homebrew/Cellar/arm-none-eabi-gcc/10.3-2021.07/gcc/arm-none-eabi/include/c++/10.3.1/cmath ****   { return __builtin_asinl(__x); }
 112:/opt/homebrew/Cellar/arm-none-eabi-gcc/10.3-2021.07/gcc/arm-none-eabi/include/c++/10.3.1/cmath **** #endif
 113:/opt/homebrew/Cellar/arm-none-eabi-gcc/10.3-2021.07/gcc/arm-none-eabi/include/c++/10.3.1/cmath **** 
 114:/opt/homebrew/Cellar/arm-none-eabi-gcc/10.3-2021.07/gcc/arm-none-eabi/include/c++/10.3.1/cmath ****   template<typename _Tp>
 115:/opt/homebrew/Cellar/arm-none-eabi-gcc/10.3-2021.07/gcc/arm-none-eabi/include/c++/10.3.1/cmath ****     inline _GLIBCXX_CONSTEXPR
 116:/opt/homebrew/Cellar/arm-none-eabi-gcc/10.3-2021.07/gcc/arm-none-eabi/include/c++/10.3.1/cmath ****     typename __gnu_cxx::__enable_if<__is_integer<_Tp>::__value,
 117:/opt/homebrew/Cellar/arm-none-eabi-gcc/10.3-2021.07/gcc/arm-none-eabi/include/c++/10.3.1/cmath ****                                     double>::__type
 118:/opt/homebrew/Cellar/arm-none-eabi-gcc/10.3-2021.07/gcc/arm-none-eabi/include/c++/10.3.1/cmath ****     asin(_Tp __x)
 119:/opt/homebrew/Cellar/arm-none-eabi-gcc/10.3-2021.07/gcc/arm-none-eabi/include/c++/10.3.1/cmath ****     { return __builtin_asin(__x); }
 120:/opt/homebrew/Cellar/arm-none-eabi-gcc/10.3-2021.07/gcc/arm-none-eabi/include/c++/10.3.1/cmath **** 
 121:/opt/homebrew/Cellar/arm-none-eabi-gcc/10.3-2021.07/gcc/arm-none-eabi/include/c++/10.3.1/cmath ****   using ::atan;
 122:/opt/homebrew/Cellar/arm-none-eabi-gcc/10.3-2021.07/gcc/arm-none-eabi/include/c++/10.3.1/cmath **** 
 123:/opt/homebrew/Cellar/arm-none-eabi-gcc/10.3-2021.07/gcc/arm-none-eabi/include/c++/10.3.1/cmath **** #ifndef __CORRECT_ISO_CPP_MATH_H_PROTO
 124:/opt/homebrew/Cellar/arm-none-eabi-gcc/10.3-2021.07/gcc/arm-none-eabi/include/c++/10.3.1/cmath ****   inline _GLIBCXX_CONSTEXPR float
 125:/opt/homebrew/Cellar/arm-none-eabi-gcc/10.3-2021.07/gcc/arm-none-eabi/include/c++/10.3.1/cmath ****   atan(float __x)
 126:/opt/homebrew/Cellar/arm-none-eabi-gcc/10.3-2021.07/gcc/arm-none-eabi/include/c++/10.3.1/cmath ****   { return __builtin_atanf(__x); }
 127:/opt/homebrew/Cellar/arm-none-eabi-gcc/10.3-2021.07/gcc/arm-none-eabi/include/c++/10.3.1/cmath **** 
 128:/opt/homebrew/Cellar/arm-none-eabi-gcc/10.3-2021.07/gcc/arm-none-eabi/include/c++/10.3.1/cmath ****   inline _GLIBCXX_CONSTEXPR long double
 129:/opt/homebrew/Cellar/arm-none-eabi-gcc/10.3-2021.07/gcc/arm-none-eabi/include/c++/10.3.1/cmath ****   atan(long double __x)
 130:/opt/homebrew/Cellar/arm-none-eabi-gcc/10.3-2021.07/gcc/arm-none-eabi/include/c++/10.3.1/cmath ****   { return __builtin_atanl(__x); }
 131:/opt/homebrew/Cellar/arm-none-eabi-gcc/10.3-2021.07/gcc/arm-none-eabi/include/c++/10.3.1/cmath **** #endif
 132:/opt/homebrew/Cellar/arm-none-eabi-gcc/10.3-2021.07/gcc/arm-none-eabi/include/c++/10.3.1/cmath **** 
 133:/opt/homebrew/Cellar/arm-none-eabi-gcc/10.3-2021.07/gcc/arm-none-eabi/include/c++/10.3.1/cmath ****   template<typename _Tp>
 134:/opt/homebrew/Cellar/arm-none-eabi-gcc/10.3-2021.07/gcc/arm-none-eabi/include/c++/10.3.1/cmath ****     inline _GLIBCXX_CONSTEXPR
 135:/opt/homebrew/Cellar/arm-none-eabi-gcc/10.3-2021.07/gcc/arm-none-eabi/include/c++/10.3.1/cmath ****     typename __gnu_cxx::__enable_if<__is_integer<_Tp>::__value,
 136:/opt/homebrew/Cellar/arm-none-eabi-gcc/10.3-2021.07/gcc/arm-none-eabi/include/c++/10.3.1/cmath ****                                     double>::__type
 137:/opt/homebrew/Cellar/arm-none-eabi-gcc/10.3-2021.07/gcc/arm-none-eabi/include/c++/10.3.1/cmath ****     atan(_Tp __x)
 138:/opt/homebrew/Cellar/arm-none-eabi-gcc/10.3-2021.07/gcc/arm-none-eabi/include/c++/10.3.1/cmath ****     { return __builtin_atan(__x); }
 139:/opt/homebrew/Cellar/arm-none-eabi-gcc/10.3-2021.07/gcc/arm-none-eabi/include/c++/10.3.1/cmath **** 
 140:/opt/homebrew/Cellar/arm-none-eabi-gcc/10.3-2021.07/gcc/arm-none-eabi/include/c++/10.3.1/cmath ****   using ::atan2;
 141:/opt/homebrew/Cellar/arm-none-eabi-gcc/10.3-2021.07/gcc/arm-none-eabi/include/c++/10.3.1/cmath **** 
 142:/opt/homebrew/Cellar/arm-none-eabi-gcc/10.3-2021.07/gcc/arm-none-eabi/include/c++/10.3.1/cmath **** #ifndef __CORRECT_ISO_CPP_MATH_H_PROTO
 143:/opt/homebrew/Cellar/arm-none-eabi-gcc/10.3-2021.07/gcc/arm-none-eabi/include/c++/10.3.1/cmath ****   inline _GLIBCXX_CONSTEXPR float
 144:/opt/homebrew/Cellar/arm-none-eabi-gcc/10.3-2021.07/gcc/arm-none-eabi/include/c++/10.3.1/cmath ****   atan2(float __y, float __x)
 145:/opt/homebrew/Cellar/arm-none-eabi-gcc/10.3-2021.07/gcc/arm-none-eabi/include/c++/10.3.1/cmath ****   { return __builtin_atan2f(__y, __x); }
 146:/opt/homebrew/Cellar/arm-none-eabi-gcc/10.3-2021.07/gcc/arm-none-eabi/include/c++/10.3.1/cmath **** 
 147:/opt/homebrew/Cellar/arm-none-eabi-gcc/10.3-2021.07/gcc/arm-none-eabi/include/c++/10.3.1/cmath ****   inline _GLIBCXX_CONSTEXPR long double
 148:/opt/homebrew/Cellar/arm-none-eabi-gcc/10.3-2021.07/gcc/arm-none-eabi/include/c++/10.3.1/cmath ****   atan2(long double __y, long double __x)
 149:/opt/homebrew/Cellar/arm-none-eabi-gcc/10.3-2021.07/gcc/arm-none-eabi/include/c++/10.3.1/cmath ****   { return __builtin_atan2l(__y, __x); }
 150:/opt/homebrew/Cellar/arm-none-eabi-gcc/10.3-2021.07/gcc/arm-none-eabi/include/c++/10.3.1/cmath **** #endif
 151:/opt/homebrew/Cellar/arm-none-eabi-gcc/10.3-2021.07/gcc/arm-none-eabi/include/c++/10.3.1/cmath **** 
 152:/opt/homebrew/Cellar/arm-none-eabi-gcc/10.3-2021.07/gcc/arm-none-eabi/include/c++/10.3.1/cmath ****   template<typename _Tp, typename _Up>
 153:/opt/homebrew/Cellar/arm-none-eabi-gcc/10.3-2021.07/gcc/arm-none-eabi/include/c++/10.3.1/cmath ****     inline _GLIBCXX_CONSTEXPR
 154:/opt/homebrew/Cellar/arm-none-eabi-gcc/10.3-2021.07/gcc/arm-none-eabi/include/c++/10.3.1/cmath ****     typename __gnu_cxx::__promote_2<_Tp, _Up>::__type
 155:/opt/homebrew/Cellar/arm-none-eabi-gcc/10.3-2021.07/gcc/arm-none-eabi/include/c++/10.3.1/cmath ****     atan2(_Tp __y, _Up __x)
 156:/opt/homebrew/Cellar/arm-none-eabi-gcc/10.3-2021.07/gcc/arm-none-eabi/include/c++/10.3.1/cmath ****     {
ARM GAS  /var/folders/hl/qgbwny5j0fd895c2c41bk3tw0000gp/T//ccFqANMK.s 			page 64


 157:/opt/homebrew/Cellar/arm-none-eabi-gcc/10.3-2021.07/gcc/arm-none-eabi/include/c++/10.3.1/cmath ****       typedef typename __gnu_cxx::__promote_2<_Tp, _Up>::__type __type;
 158:/opt/homebrew/Cellar/arm-none-eabi-gcc/10.3-2021.07/gcc/arm-none-eabi/include/c++/10.3.1/cmath ****       return atan2(__type(__y), __type(__x));
 159:/opt/homebrew/Cellar/arm-none-eabi-gcc/10.3-2021.07/gcc/arm-none-eabi/include/c++/10.3.1/cmath ****     }
 160:/opt/homebrew/Cellar/arm-none-eabi-gcc/10.3-2021.07/gcc/arm-none-eabi/include/c++/10.3.1/cmath **** 
 161:/opt/homebrew/Cellar/arm-none-eabi-gcc/10.3-2021.07/gcc/arm-none-eabi/include/c++/10.3.1/cmath ****   using ::ceil;
 162:/opt/homebrew/Cellar/arm-none-eabi-gcc/10.3-2021.07/gcc/arm-none-eabi/include/c++/10.3.1/cmath **** 
 163:/opt/homebrew/Cellar/arm-none-eabi-gcc/10.3-2021.07/gcc/arm-none-eabi/include/c++/10.3.1/cmath **** #ifndef __CORRECT_ISO_CPP_MATH_H_PROTO
 164:/opt/homebrew/Cellar/arm-none-eabi-gcc/10.3-2021.07/gcc/arm-none-eabi/include/c++/10.3.1/cmath ****   inline _GLIBCXX_CONSTEXPR float
 165:/opt/homebrew/Cellar/arm-none-eabi-gcc/10.3-2021.07/gcc/arm-none-eabi/include/c++/10.3.1/cmath ****   ceil(float __x)
 166:/opt/homebrew/Cellar/arm-none-eabi-gcc/10.3-2021.07/gcc/arm-none-eabi/include/c++/10.3.1/cmath ****   { return __builtin_ceilf(__x); }
 167:/opt/homebrew/Cellar/arm-none-eabi-gcc/10.3-2021.07/gcc/arm-none-eabi/include/c++/10.3.1/cmath **** 
 168:/opt/homebrew/Cellar/arm-none-eabi-gcc/10.3-2021.07/gcc/arm-none-eabi/include/c++/10.3.1/cmath ****   inline _GLIBCXX_CONSTEXPR long double
 169:/opt/homebrew/Cellar/arm-none-eabi-gcc/10.3-2021.07/gcc/arm-none-eabi/include/c++/10.3.1/cmath ****   ceil(long double __x)
 170:/opt/homebrew/Cellar/arm-none-eabi-gcc/10.3-2021.07/gcc/arm-none-eabi/include/c++/10.3.1/cmath ****   { return __builtin_ceill(__x); }
 171:/opt/homebrew/Cellar/arm-none-eabi-gcc/10.3-2021.07/gcc/arm-none-eabi/include/c++/10.3.1/cmath **** #endif
 172:/opt/homebrew/Cellar/arm-none-eabi-gcc/10.3-2021.07/gcc/arm-none-eabi/include/c++/10.3.1/cmath **** 
 173:/opt/homebrew/Cellar/arm-none-eabi-gcc/10.3-2021.07/gcc/arm-none-eabi/include/c++/10.3.1/cmath ****   template<typename _Tp>
 174:/opt/homebrew/Cellar/arm-none-eabi-gcc/10.3-2021.07/gcc/arm-none-eabi/include/c++/10.3.1/cmath ****     inline _GLIBCXX_CONSTEXPR
 175:/opt/homebrew/Cellar/arm-none-eabi-gcc/10.3-2021.07/gcc/arm-none-eabi/include/c++/10.3.1/cmath ****     typename __gnu_cxx::__enable_if<__is_integer<_Tp>::__value, 
 176:/opt/homebrew/Cellar/arm-none-eabi-gcc/10.3-2021.07/gcc/arm-none-eabi/include/c++/10.3.1/cmath ****                                     double>::__type
 177:/opt/homebrew/Cellar/arm-none-eabi-gcc/10.3-2021.07/gcc/arm-none-eabi/include/c++/10.3.1/cmath ****     ceil(_Tp __x)
 178:/opt/homebrew/Cellar/arm-none-eabi-gcc/10.3-2021.07/gcc/arm-none-eabi/include/c++/10.3.1/cmath ****     { return __builtin_ceil(__x); }
 179:/opt/homebrew/Cellar/arm-none-eabi-gcc/10.3-2021.07/gcc/arm-none-eabi/include/c++/10.3.1/cmath **** 
 180:/opt/homebrew/Cellar/arm-none-eabi-gcc/10.3-2021.07/gcc/arm-none-eabi/include/c++/10.3.1/cmath ****   using ::cos;
 181:/opt/homebrew/Cellar/arm-none-eabi-gcc/10.3-2021.07/gcc/arm-none-eabi/include/c++/10.3.1/cmath **** 
 182:/opt/homebrew/Cellar/arm-none-eabi-gcc/10.3-2021.07/gcc/arm-none-eabi/include/c++/10.3.1/cmath **** #ifndef __CORRECT_ISO_CPP_MATH_H_PROTO
 183:/opt/homebrew/Cellar/arm-none-eabi-gcc/10.3-2021.07/gcc/arm-none-eabi/include/c++/10.3.1/cmath ****   inline _GLIBCXX_CONSTEXPR float
 184:/opt/homebrew/Cellar/arm-none-eabi-gcc/10.3-2021.07/gcc/arm-none-eabi/include/c++/10.3.1/cmath ****   cos(float __x)
 185:/opt/homebrew/Cellar/arm-none-eabi-gcc/10.3-2021.07/gcc/arm-none-eabi/include/c++/10.3.1/cmath ****   { return __builtin_cosf(__x); }
 1857              		.loc 13 185 26 view .LVU391
 1858 0050 B0EE680A 		vmov.f32	s0, s17
 1859 0054 FFF7FEFF 		bl	cosf
 1860              	.LVL136:
 1861              		.loc 13 185 26 view .LVU392
 1862              	.LBE677:
 1863              	.LBE676:
 315:../../libDaisy/src/hid/disp/display.h ****         start_y = -sin(start_angle_rad) * radius;
 1864              		.loc 12 315 17 view .LVU393
 1865 0058 07EE907A 		vmov	s15, r7	@ int
 313:../../libDaisy/src/hid/disp/display.h **** 
 1866              		.loc 12 313 25 view .LVU394
 1867 005c B7EECAAB 		vcvt.f32.f64	s20, d10
 1868              	.LVL137:
 1869              	.LBB680:
 1870              	.LBI676:
 184:/opt/homebrew/Cellar/arm-none-eabi-gcc/10.3-2021.07/gcc/arm-none-eabi/include/c++/10.3.1/cmath ****   { return __builtin_cosf(__x); }
 1871              		.loc 13 184 3 is_stmt 1 view .LVU395
 1872              	.LBB678:
 1873              		.loc 13 185 5 view .LVU396
 1874              		.loc 13 185 5 is_stmt 0 view .LVU397
 1875              	.LBE678:
 1876              	.LBE680:
 315:../../libDaisy/src/hid/disp/display.h ****         start_y = -sin(start_angle_rad) * radius;
 1877              		.loc 12 315 17 view .LVU398
 1878 0060 F8EE679A 		vcvt.f32.u32	s19, s15
 1879              	.LBB681:
 1880              	.LBB679:
ARM GAS  /var/folders/hl/qgbwny5j0fd895c2c41bk3tw0000gp/T//ccFqANMK.s 			page 65


 1881              		.loc 13 185 26 view .LVU399
 1882 0064 B0EE408A 		vmov.f32	s16, s0
 1883              	.LBE679:
 1884              	.LBE681:
 1885              	.LBB682:
 1886              	.LBB683:
 186:/opt/homebrew/Cellar/arm-none-eabi-gcc/10.3-2021.07/gcc/arm-none-eabi/include/c++/10.3.1/cmath **** 
 187:/opt/homebrew/Cellar/arm-none-eabi-gcc/10.3-2021.07/gcc/arm-none-eabi/include/c++/10.3.1/cmath ****   inline _GLIBCXX_CONSTEXPR long double
 188:/opt/homebrew/Cellar/arm-none-eabi-gcc/10.3-2021.07/gcc/arm-none-eabi/include/c++/10.3.1/cmath ****   cos(long double __x)
 189:/opt/homebrew/Cellar/arm-none-eabi-gcc/10.3-2021.07/gcc/arm-none-eabi/include/c++/10.3.1/cmath ****   { return __builtin_cosl(__x); }
 190:/opt/homebrew/Cellar/arm-none-eabi-gcc/10.3-2021.07/gcc/arm-none-eabi/include/c++/10.3.1/cmath **** #endif
 191:/opt/homebrew/Cellar/arm-none-eabi-gcc/10.3-2021.07/gcc/arm-none-eabi/include/c++/10.3.1/cmath **** 
 192:/opt/homebrew/Cellar/arm-none-eabi-gcc/10.3-2021.07/gcc/arm-none-eabi/include/c++/10.3.1/cmath ****   template<typename _Tp>
 193:/opt/homebrew/Cellar/arm-none-eabi-gcc/10.3-2021.07/gcc/arm-none-eabi/include/c++/10.3.1/cmath ****     inline _GLIBCXX_CONSTEXPR
 194:/opt/homebrew/Cellar/arm-none-eabi-gcc/10.3-2021.07/gcc/arm-none-eabi/include/c++/10.3.1/cmath ****     typename __gnu_cxx::__enable_if<__is_integer<_Tp>::__value,
 195:/opt/homebrew/Cellar/arm-none-eabi-gcc/10.3-2021.07/gcc/arm-none-eabi/include/c++/10.3.1/cmath ****                                     double>::__type
 196:/opt/homebrew/Cellar/arm-none-eabi-gcc/10.3-2021.07/gcc/arm-none-eabi/include/c++/10.3.1/cmath ****     cos(_Tp __x)
 197:/opt/homebrew/Cellar/arm-none-eabi-gcc/10.3-2021.07/gcc/arm-none-eabi/include/c++/10.3.1/cmath ****     { return __builtin_cos(__x); }
 198:/opt/homebrew/Cellar/arm-none-eabi-gcc/10.3-2021.07/gcc/arm-none-eabi/include/c++/10.3.1/cmath **** 
 199:/opt/homebrew/Cellar/arm-none-eabi-gcc/10.3-2021.07/gcc/arm-none-eabi/include/c++/10.3.1/cmath ****   using ::cosh;
 200:/opt/homebrew/Cellar/arm-none-eabi-gcc/10.3-2021.07/gcc/arm-none-eabi/include/c++/10.3.1/cmath **** 
 201:/opt/homebrew/Cellar/arm-none-eabi-gcc/10.3-2021.07/gcc/arm-none-eabi/include/c++/10.3.1/cmath **** #ifndef __CORRECT_ISO_CPP_MATH_H_PROTO
 202:/opt/homebrew/Cellar/arm-none-eabi-gcc/10.3-2021.07/gcc/arm-none-eabi/include/c++/10.3.1/cmath ****   inline _GLIBCXX_CONSTEXPR float
 203:/opt/homebrew/Cellar/arm-none-eabi-gcc/10.3-2021.07/gcc/arm-none-eabi/include/c++/10.3.1/cmath ****   cosh(float __x)
 204:/opt/homebrew/Cellar/arm-none-eabi-gcc/10.3-2021.07/gcc/arm-none-eabi/include/c++/10.3.1/cmath ****   { return __builtin_coshf(__x); }
 205:/opt/homebrew/Cellar/arm-none-eabi-gcc/10.3-2021.07/gcc/arm-none-eabi/include/c++/10.3.1/cmath **** 
 206:/opt/homebrew/Cellar/arm-none-eabi-gcc/10.3-2021.07/gcc/arm-none-eabi/include/c++/10.3.1/cmath ****   inline _GLIBCXX_CONSTEXPR long double
 207:/opt/homebrew/Cellar/arm-none-eabi-gcc/10.3-2021.07/gcc/arm-none-eabi/include/c++/10.3.1/cmath ****   cosh(long double __x)
 208:/opt/homebrew/Cellar/arm-none-eabi-gcc/10.3-2021.07/gcc/arm-none-eabi/include/c++/10.3.1/cmath ****   { return __builtin_coshl(__x); }
 209:/opt/homebrew/Cellar/arm-none-eabi-gcc/10.3-2021.07/gcc/arm-none-eabi/include/c++/10.3.1/cmath **** #endif
 210:/opt/homebrew/Cellar/arm-none-eabi-gcc/10.3-2021.07/gcc/arm-none-eabi/include/c++/10.3.1/cmath **** 
 211:/opt/homebrew/Cellar/arm-none-eabi-gcc/10.3-2021.07/gcc/arm-none-eabi/include/c++/10.3.1/cmath ****   template<typename _Tp>
 212:/opt/homebrew/Cellar/arm-none-eabi-gcc/10.3-2021.07/gcc/arm-none-eabi/include/c++/10.3.1/cmath ****     inline _GLIBCXX_CONSTEXPR
 213:/opt/homebrew/Cellar/arm-none-eabi-gcc/10.3-2021.07/gcc/arm-none-eabi/include/c++/10.3.1/cmath ****     typename __gnu_cxx::__enable_if<__is_integer<_Tp>::__value,
 214:/opt/homebrew/Cellar/arm-none-eabi-gcc/10.3-2021.07/gcc/arm-none-eabi/include/c++/10.3.1/cmath ****                                     double>::__type
 215:/opt/homebrew/Cellar/arm-none-eabi-gcc/10.3-2021.07/gcc/arm-none-eabi/include/c++/10.3.1/cmath ****     cosh(_Tp __x)
 216:/opt/homebrew/Cellar/arm-none-eabi-gcc/10.3-2021.07/gcc/arm-none-eabi/include/c++/10.3.1/cmath ****     { return __builtin_cosh(__x); }
 217:/opt/homebrew/Cellar/arm-none-eabi-gcc/10.3-2021.07/gcc/arm-none-eabi/include/c++/10.3.1/cmath **** 
 218:/opt/homebrew/Cellar/arm-none-eabi-gcc/10.3-2021.07/gcc/arm-none-eabi/include/c++/10.3.1/cmath ****   using ::exp;
 219:/opt/homebrew/Cellar/arm-none-eabi-gcc/10.3-2021.07/gcc/arm-none-eabi/include/c++/10.3.1/cmath **** 
 220:/opt/homebrew/Cellar/arm-none-eabi-gcc/10.3-2021.07/gcc/arm-none-eabi/include/c++/10.3.1/cmath **** #ifndef __CORRECT_ISO_CPP_MATH_H_PROTO
 221:/opt/homebrew/Cellar/arm-none-eabi-gcc/10.3-2021.07/gcc/arm-none-eabi/include/c++/10.3.1/cmath ****   inline _GLIBCXX_CONSTEXPR float
 222:/opt/homebrew/Cellar/arm-none-eabi-gcc/10.3-2021.07/gcc/arm-none-eabi/include/c++/10.3.1/cmath ****   exp(float __x)
 223:/opt/homebrew/Cellar/arm-none-eabi-gcc/10.3-2021.07/gcc/arm-none-eabi/include/c++/10.3.1/cmath ****   { return __builtin_expf(__x); }
 224:/opt/homebrew/Cellar/arm-none-eabi-gcc/10.3-2021.07/gcc/arm-none-eabi/include/c++/10.3.1/cmath **** 
 225:/opt/homebrew/Cellar/arm-none-eabi-gcc/10.3-2021.07/gcc/arm-none-eabi/include/c++/10.3.1/cmath ****   inline _GLIBCXX_CONSTEXPR long double
 226:/opt/homebrew/Cellar/arm-none-eabi-gcc/10.3-2021.07/gcc/arm-none-eabi/include/c++/10.3.1/cmath ****   exp(long double __x)
 227:/opt/homebrew/Cellar/arm-none-eabi-gcc/10.3-2021.07/gcc/arm-none-eabi/include/c++/10.3.1/cmath ****   { return __builtin_expl(__x); }
 228:/opt/homebrew/Cellar/arm-none-eabi-gcc/10.3-2021.07/gcc/arm-none-eabi/include/c++/10.3.1/cmath **** #endif
 229:/opt/homebrew/Cellar/arm-none-eabi-gcc/10.3-2021.07/gcc/arm-none-eabi/include/c++/10.3.1/cmath **** 
 230:/opt/homebrew/Cellar/arm-none-eabi-gcc/10.3-2021.07/gcc/arm-none-eabi/include/c++/10.3.1/cmath ****   template<typename _Tp>
 231:/opt/homebrew/Cellar/arm-none-eabi-gcc/10.3-2021.07/gcc/arm-none-eabi/include/c++/10.3.1/cmath ****     inline _GLIBCXX_CONSTEXPR
 232:/opt/homebrew/Cellar/arm-none-eabi-gcc/10.3-2021.07/gcc/arm-none-eabi/include/c++/10.3.1/cmath ****     typename __gnu_cxx::__enable_if<__is_integer<_Tp>::__value,
 233:/opt/homebrew/Cellar/arm-none-eabi-gcc/10.3-2021.07/gcc/arm-none-eabi/include/c++/10.3.1/cmath ****                                     double>::__type
 234:/opt/homebrew/Cellar/arm-none-eabi-gcc/10.3-2021.07/gcc/arm-none-eabi/include/c++/10.3.1/cmath ****     exp(_Tp __x)
 235:/opt/homebrew/Cellar/arm-none-eabi-gcc/10.3-2021.07/gcc/arm-none-eabi/include/c++/10.3.1/cmath ****     { return __builtin_exp(__x); }
 236:/opt/homebrew/Cellar/arm-none-eabi-gcc/10.3-2021.07/gcc/arm-none-eabi/include/c++/10.3.1/cmath **** 
ARM GAS  /var/folders/hl/qgbwny5j0fd895c2c41bk3tw0000gp/T//ccFqANMK.s 			page 66


 237:/opt/homebrew/Cellar/arm-none-eabi-gcc/10.3-2021.07/gcc/arm-none-eabi/include/c++/10.3.1/cmath ****   using ::fabs;
 238:/opt/homebrew/Cellar/arm-none-eabi-gcc/10.3-2021.07/gcc/arm-none-eabi/include/c++/10.3.1/cmath **** 
 239:/opt/homebrew/Cellar/arm-none-eabi-gcc/10.3-2021.07/gcc/arm-none-eabi/include/c++/10.3.1/cmath **** #ifndef __CORRECT_ISO_CPP_MATH_H_PROTO
 240:/opt/homebrew/Cellar/arm-none-eabi-gcc/10.3-2021.07/gcc/arm-none-eabi/include/c++/10.3.1/cmath ****   inline _GLIBCXX_CONSTEXPR float
 241:/opt/homebrew/Cellar/arm-none-eabi-gcc/10.3-2021.07/gcc/arm-none-eabi/include/c++/10.3.1/cmath ****   fabs(float __x)
 242:/opt/homebrew/Cellar/arm-none-eabi-gcc/10.3-2021.07/gcc/arm-none-eabi/include/c++/10.3.1/cmath ****   { return __builtin_fabsf(__x); }
 243:/opt/homebrew/Cellar/arm-none-eabi-gcc/10.3-2021.07/gcc/arm-none-eabi/include/c++/10.3.1/cmath **** 
 244:/opt/homebrew/Cellar/arm-none-eabi-gcc/10.3-2021.07/gcc/arm-none-eabi/include/c++/10.3.1/cmath ****   inline _GLIBCXX_CONSTEXPR long double
 245:/opt/homebrew/Cellar/arm-none-eabi-gcc/10.3-2021.07/gcc/arm-none-eabi/include/c++/10.3.1/cmath ****   fabs(long double __x)
 246:/opt/homebrew/Cellar/arm-none-eabi-gcc/10.3-2021.07/gcc/arm-none-eabi/include/c++/10.3.1/cmath ****   { return __builtin_fabsl(__x); }
 247:/opt/homebrew/Cellar/arm-none-eabi-gcc/10.3-2021.07/gcc/arm-none-eabi/include/c++/10.3.1/cmath **** #endif
 248:/opt/homebrew/Cellar/arm-none-eabi-gcc/10.3-2021.07/gcc/arm-none-eabi/include/c++/10.3.1/cmath **** 
 249:/opt/homebrew/Cellar/arm-none-eabi-gcc/10.3-2021.07/gcc/arm-none-eabi/include/c++/10.3.1/cmath ****   template<typename _Tp>
 250:/opt/homebrew/Cellar/arm-none-eabi-gcc/10.3-2021.07/gcc/arm-none-eabi/include/c++/10.3.1/cmath ****     inline _GLIBCXX_CONSTEXPR
 251:/opt/homebrew/Cellar/arm-none-eabi-gcc/10.3-2021.07/gcc/arm-none-eabi/include/c++/10.3.1/cmath ****     typename __gnu_cxx::__enable_if<__is_integer<_Tp>::__value,
 252:/opt/homebrew/Cellar/arm-none-eabi-gcc/10.3-2021.07/gcc/arm-none-eabi/include/c++/10.3.1/cmath ****                                     double>::__type
 253:/opt/homebrew/Cellar/arm-none-eabi-gcc/10.3-2021.07/gcc/arm-none-eabi/include/c++/10.3.1/cmath ****     fabs(_Tp __x)
 254:/opt/homebrew/Cellar/arm-none-eabi-gcc/10.3-2021.07/gcc/arm-none-eabi/include/c++/10.3.1/cmath ****     { return __builtin_fabs(__x); }
 255:/opt/homebrew/Cellar/arm-none-eabi-gcc/10.3-2021.07/gcc/arm-none-eabi/include/c++/10.3.1/cmath **** 
 256:/opt/homebrew/Cellar/arm-none-eabi-gcc/10.3-2021.07/gcc/arm-none-eabi/include/c++/10.3.1/cmath ****   using ::floor;
 257:/opt/homebrew/Cellar/arm-none-eabi-gcc/10.3-2021.07/gcc/arm-none-eabi/include/c++/10.3.1/cmath **** 
 258:/opt/homebrew/Cellar/arm-none-eabi-gcc/10.3-2021.07/gcc/arm-none-eabi/include/c++/10.3.1/cmath **** #ifndef __CORRECT_ISO_CPP_MATH_H_PROTO
 259:/opt/homebrew/Cellar/arm-none-eabi-gcc/10.3-2021.07/gcc/arm-none-eabi/include/c++/10.3.1/cmath ****   inline _GLIBCXX_CONSTEXPR float
 260:/opt/homebrew/Cellar/arm-none-eabi-gcc/10.3-2021.07/gcc/arm-none-eabi/include/c++/10.3.1/cmath ****   floor(float __x)
 261:/opt/homebrew/Cellar/arm-none-eabi-gcc/10.3-2021.07/gcc/arm-none-eabi/include/c++/10.3.1/cmath ****   { return __builtin_floorf(__x); }
 262:/opt/homebrew/Cellar/arm-none-eabi-gcc/10.3-2021.07/gcc/arm-none-eabi/include/c++/10.3.1/cmath **** 
 263:/opt/homebrew/Cellar/arm-none-eabi-gcc/10.3-2021.07/gcc/arm-none-eabi/include/c++/10.3.1/cmath ****   inline _GLIBCXX_CONSTEXPR long double
 264:/opt/homebrew/Cellar/arm-none-eabi-gcc/10.3-2021.07/gcc/arm-none-eabi/include/c++/10.3.1/cmath ****   floor(long double __x)
 265:/opt/homebrew/Cellar/arm-none-eabi-gcc/10.3-2021.07/gcc/arm-none-eabi/include/c++/10.3.1/cmath ****   { return __builtin_floorl(__x); }
 266:/opt/homebrew/Cellar/arm-none-eabi-gcc/10.3-2021.07/gcc/arm-none-eabi/include/c++/10.3.1/cmath **** #endif
 267:/opt/homebrew/Cellar/arm-none-eabi-gcc/10.3-2021.07/gcc/arm-none-eabi/include/c++/10.3.1/cmath **** 
 268:/opt/homebrew/Cellar/arm-none-eabi-gcc/10.3-2021.07/gcc/arm-none-eabi/include/c++/10.3.1/cmath ****   template<typename _Tp>
 269:/opt/homebrew/Cellar/arm-none-eabi-gcc/10.3-2021.07/gcc/arm-none-eabi/include/c++/10.3.1/cmath ****     inline _GLIBCXX_CONSTEXPR
 270:/opt/homebrew/Cellar/arm-none-eabi-gcc/10.3-2021.07/gcc/arm-none-eabi/include/c++/10.3.1/cmath ****     typename __gnu_cxx::__enable_if<__is_integer<_Tp>::__value,
 271:/opt/homebrew/Cellar/arm-none-eabi-gcc/10.3-2021.07/gcc/arm-none-eabi/include/c++/10.3.1/cmath ****                                     double>::__type
 272:/opt/homebrew/Cellar/arm-none-eabi-gcc/10.3-2021.07/gcc/arm-none-eabi/include/c++/10.3.1/cmath ****     floor(_Tp __x)
 273:/opt/homebrew/Cellar/arm-none-eabi-gcc/10.3-2021.07/gcc/arm-none-eabi/include/c++/10.3.1/cmath ****     { return __builtin_floor(__x); }
 274:/opt/homebrew/Cellar/arm-none-eabi-gcc/10.3-2021.07/gcc/arm-none-eabi/include/c++/10.3.1/cmath **** 
 275:/opt/homebrew/Cellar/arm-none-eabi-gcc/10.3-2021.07/gcc/arm-none-eabi/include/c++/10.3.1/cmath ****   using ::fmod;
 276:/opt/homebrew/Cellar/arm-none-eabi-gcc/10.3-2021.07/gcc/arm-none-eabi/include/c++/10.3.1/cmath **** 
 277:/opt/homebrew/Cellar/arm-none-eabi-gcc/10.3-2021.07/gcc/arm-none-eabi/include/c++/10.3.1/cmath **** #ifndef __CORRECT_ISO_CPP_MATH_H_PROTO
 278:/opt/homebrew/Cellar/arm-none-eabi-gcc/10.3-2021.07/gcc/arm-none-eabi/include/c++/10.3.1/cmath ****   inline _GLIBCXX_CONSTEXPR float
 279:/opt/homebrew/Cellar/arm-none-eabi-gcc/10.3-2021.07/gcc/arm-none-eabi/include/c++/10.3.1/cmath ****   fmod(float __x, float __y)
 280:/opt/homebrew/Cellar/arm-none-eabi-gcc/10.3-2021.07/gcc/arm-none-eabi/include/c++/10.3.1/cmath ****   { return __builtin_fmodf(__x, __y); }
 281:/opt/homebrew/Cellar/arm-none-eabi-gcc/10.3-2021.07/gcc/arm-none-eabi/include/c++/10.3.1/cmath **** 
 282:/opt/homebrew/Cellar/arm-none-eabi-gcc/10.3-2021.07/gcc/arm-none-eabi/include/c++/10.3.1/cmath ****   inline _GLIBCXX_CONSTEXPR long double
 283:/opt/homebrew/Cellar/arm-none-eabi-gcc/10.3-2021.07/gcc/arm-none-eabi/include/c++/10.3.1/cmath ****   fmod(long double __x, long double __y)
 284:/opt/homebrew/Cellar/arm-none-eabi-gcc/10.3-2021.07/gcc/arm-none-eabi/include/c++/10.3.1/cmath ****   { return __builtin_fmodl(__x, __y); }
 285:/opt/homebrew/Cellar/arm-none-eabi-gcc/10.3-2021.07/gcc/arm-none-eabi/include/c++/10.3.1/cmath **** #endif
 286:/opt/homebrew/Cellar/arm-none-eabi-gcc/10.3-2021.07/gcc/arm-none-eabi/include/c++/10.3.1/cmath **** 
 287:/opt/homebrew/Cellar/arm-none-eabi-gcc/10.3-2021.07/gcc/arm-none-eabi/include/c++/10.3.1/cmath ****   template<typename _Tp, typename _Up>
 288:/opt/homebrew/Cellar/arm-none-eabi-gcc/10.3-2021.07/gcc/arm-none-eabi/include/c++/10.3.1/cmath ****     inline _GLIBCXX_CONSTEXPR
 289:/opt/homebrew/Cellar/arm-none-eabi-gcc/10.3-2021.07/gcc/arm-none-eabi/include/c++/10.3.1/cmath ****     typename __gnu_cxx::__promote_2<_Tp, _Up>::__type
 290:/opt/homebrew/Cellar/arm-none-eabi-gcc/10.3-2021.07/gcc/arm-none-eabi/include/c++/10.3.1/cmath ****     fmod(_Tp __x, _Up __y)
 291:/opt/homebrew/Cellar/arm-none-eabi-gcc/10.3-2021.07/gcc/arm-none-eabi/include/c++/10.3.1/cmath ****     {
 292:/opt/homebrew/Cellar/arm-none-eabi-gcc/10.3-2021.07/gcc/arm-none-eabi/include/c++/10.3.1/cmath ****       typedef typename __gnu_cxx::__promote_2<_Tp, _Up>::__type __type;
 293:/opt/homebrew/Cellar/arm-none-eabi-gcc/10.3-2021.07/gcc/arm-none-eabi/include/c++/10.3.1/cmath ****       return fmod(__type(__x), __type(__y));
ARM GAS  /var/folders/hl/qgbwny5j0fd895c2c41bk3tw0000gp/T//ccFqANMK.s 			page 67


 294:/opt/homebrew/Cellar/arm-none-eabi-gcc/10.3-2021.07/gcc/arm-none-eabi/include/c++/10.3.1/cmath ****     }
 295:/opt/homebrew/Cellar/arm-none-eabi-gcc/10.3-2021.07/gcc/arm-none-eabi/include/c++/10.3.1/cmath **** 
 296:/opt/homebrew/Cellar/arm-none-eabi-gcc/10.3-2021.07/gcc/arm-none-eabi/include/c++/10.3.1/cmath ****   using ::frexp;
 297:/opt/homebrew/Cellar/arm-none-eabi-gcc/10.3-2021.07/gcc/arm-none-eabi/include/c++/10.3.1/cmath **** 
 298:/opt/homebrew/Cellar/arm-none-eabi-gcc/10.3-2021.07/gcc/arm-none-eabi/include/c++/10.3.1/cmath **** #ifndef __CORRECT_ISO_CPP_MATH_H_PROTO
 299:/opt/homebrew/Cellar/arm-none-eabi-gcc/10.3-2021.07/gcc/arm-none-eabi/include/c++/10.3.1/cmath ****   inline float
 300:/opt/homebrew/Cellar/arm-none-eabi-gcc/10.3-2021.07/gcc/arm-none-eabi/include/c++/10.3.1/cmath ****   frexp(float __x, int* __exp)
 301:/opt/homebrew/Cellar/arm-none-eabi-gcc/10.3-2021.07/gcc/arm-none-eabi/include/c++/10.3.1/cmath ****   { return __builtin_frexpf(__x, __exp); }
 302:/opt/homebrew/Cellar/arm-none-eabi-gcc/10.3-2021.07/gcc/arm-none-eabi/include/c++/10.3.1/cmath **** 
 303:/opt/homebrew/Cellar/arm-none-eabi-gcc/10.3-2021.07/gcc/arm-none-eabi/include/c++/10.3.1/cmath ****   inline long double
 304:/opt/homebrew/Cellar/arm-none-eabi-gcc/10.3-2021.07/gcc/arm-none-eabi/include/c++/10.3.1/cmath ****   frexp(long double __x, int* __exp)
 305:/opt/homebrew/Cellar/arm-none-eabi-gcc/10.3-2021.07/gcc/arm-none-eabi/include/c++/10.3.1/cmath ****   { return __builtin_frexpl(__x, __exp); }
 306:/opt/homebrew/Cellar/arm-none-eabi-gcc/10.3-2021.07/gcc/arm-none-eabi/include/c++/10.3.1/cmath **** #endif
 307:/opt/homebrew/Cellar/arm-none-eabi-gcc/10.3-2021.07/gcc/arm-none-eabi/include/c++/10.3.1/cmath **** 
 308:/opt/homebrew/Cellar/arm-none-eabi-gcc/10.3-2021.07/gcc/arm-none-eabi/include/c++/10.3.1/cmath ****   template<typename _Tp>
 309:/opt/homebrew/Cellar/arm-none-eabi-gcc/10.3-2021.07/gcc/arm-none-eabi/include/c++/10.3.1/cmath ****     inline _GLIBCXX_CONSTEXPR
 310:/opt/homebrew/Cellar/arm-none-eabi-gcc/10.3-2021.07/gcc/arm-none-eabi/include/c++/10.3.1/cmath ****     typename __gnu_cxx::__enable_if<__is_integer<_Tp>::__value, 
 311:/opt/homebrew/Cellar/arm-none-eabi-gcc/10.3-2021.07/gcc/arm-none-eabi/include/c++/10.3.1/cmath ****                                     double>::__type
 312:/opt/homebrew/Cellar/arm-none-eabi-gcc/10.3-2021.07/gcc/arm-none-eabi/include/c++/10.3.1/cmath ****     frexp(_Tp __x, int* __exp)
 313:/opt/homebrew/Cellar/arm-none-eabi-gcc/10.3-2021.07/gcc/arm-none-eabi/include/c++/10.3.1/cmath ****     { return __builtin_frexp(__x, __exp); }
 314:/opt/homebrew/Cellar/arm-none-eabi-gcc/10.3-2021.07/gcc/arm-none-eabi/include/c++/10.3.1/cmath **** 
 315:/opt/homebrew/Cellar/arm-none-eabi-gcc/10.3-2021.07/gcc/arm-none-eabi/include/c++/10.3.1/cmath ****   using ::ldexp;
 316:/opt/homebrew/Cellar/arm-none-eabi-gcc/10.3-2021.07/gcc/arm-none-eabi/include/c++/10.3.1/cmath **** 
 317:/opt/homebrew/Cellar/arm-none-eabi-gcc/10.3-2021.07/gcc/arm-none-eabi/include/c++/10.3.1/cmath **** #ifndef __CORRECT_ISO_CPP_MATH_H_PROTO
 318:/opt/homebrew/Cellar/arm-none-eabi-gcc/10.3-2021.07/gcc/arm-none-eabi/include/c++/10.3.1/cmath ****   inline _GLIBCXX_CONSTEXPR float
 319:/opt/homebrew/Cellar/arm-none-eabi-gcc/10.3-2021.07/gcc/arm-none-eabi/include/c++/10.3.1/cmath ****   ldexp(float __x, int __exp)
 320:/opt/homebrew/Cellar/arm-none-eabi-gcc/10.3-2021.07/gcc/arm-none-eabi/include/c++/10.3.1/cmath ****   { return __builtin_ldexpf(__x, __exp); }
 321:/opt/homebrew/Cellar/arm-none-eabi-gcc/10.3-2021.07/gcc/arm-none-eabi/include/c++/10.3.1/cmath **** 
 322:/opt/homebrew/Cellar/arm-none-eabi-gcc/10.3-2021.07/gcc/arm-none-eabi/include/c++/10.3.1/cmath ****   inline _GLIBCXX_CONSTEXPR long double
 323:/opt/homebrew/Cellar/arm-none-eabi-gcc/10.3-2021.07/gcc/arm-none-eabi/include/c++/10.3.1/cmath ****   ldexp(long double __x, int __exp)
 324:/opt/homebrew/Cellar/arm-none-eabi-gcc/10.3-2021.07/gcc/arm-none-eabi/include/c++/10.3.1/cmath ****   { return __builtin_ldexpl(__x, __exp); }
 325:/opt/homebrew/Cellar/arm-none-eabi-gcc/10.3-2021.07/gcc/arm-none-eabi/include/c++/10.3.1/cmath **** #endif
 326:/opt/homebrew/Cellar/arm-none-eabi-gcc/10.3-2021.07/gcc/arm-none-eabi/include/c++/10.3.1/cmath **** 
 327:/opt/homebrew/Cellar/arm-none-eabi-gcc/10.3-2021.07/gcc/arm-none-eabi/include/c++/10.3.1/cmath ****   template<typename _Tp>
 328:/opt/homebrew/Cellar/arm-none-eabi-gcc/10.3-2021.07/gcc/arm-none-eabi/include/c++/10.3.1/cmath ****     inline _GLIBCXX_CONSTEXPR
 329:/opt/homebrew/Cellar/arm-none-eabi-gcc/10.3-2021.07/gcc/arm-none-eabi/include/c++/10.3.1/cmath ****     typename __gnu_cxx::__enable_if<__is_integer<_Tp>::__value, 
 330:/opt/homebrew/Cellar/arm-none-eabi-gcc/10.3-2021.07/gcc/arm-none-eabi/include/c++/10.3.1/cmath ****                                     double>::__type
 331:/opt/homebrew/Cellar/arm-none-eabi-gcc/10.3-2021.07/gcc/arm-none-eabi/include/c++/10.3.1/cmath ****     ldexp(_Tp __x, int __exp)
 332:/opt/homebrew/Cellar/arm-none-eabi-gcc/10.3-2021.07/gcc/arm-none-eabi/include/c++/10.3.1/cmath ****     { return __builtin_ldexp(__x, __exp); }
 333:/opt/homebrew/Cellar/arm-none-eabi-gcc/10.3-2021.07/gcc/arm-none-eabi/include/c++/10.3.1/cmath **** 
 334:/opt/homebrew/Cellar/arm-none-eabi-gcc/10.3-2021.07/gcc/arm-none-eabi/include/c++/10.3.1/cmath ****   using ::log;
 335:/opt/homebrew/Cellar/arm-none-eabi-gcc/10.3-2021.07/gcc/arm-none-eabi/include/c++/10.3.1/cmath **** 
 336:/opt/homebrew/Cellar/arm-none-eabi-gcc/10.3-2021.07/gcc/arm-none-eabi/include/c++/10.3.1/cmath **** #ifndef __CORRECT_ISO_CPP_MATH_H_PROTO
 337:/opt/homebrew/Cellar/arm-none-eabi-gcc/10.3-2021.07/gcc/arm-none-eabi/include/c++/10.3.1/cmath ****   inline _GLIBCXX_CONSTEXPR float
 338:/opt/homebrew/Cellar/arm-none-eabi-gcc/10.3-2021.07/gcc/arm-none-eabi/include/c++/10.3.1/cmath ****   log(float __x)
 339:/opt/homebrew/Cellar/arm-none-eabi-gcc/10.3-2021.07/gcc/arm-none-eabi/include/c++/10.3.1/cmath ****   { return __builtin_logf(__x); }
 340:/opt/homebrew/Cellar/arm-none-eabi-gcc/10.3-2021.07/gcc/arm-none-eabi/include/c++/10.3.1/cmath **** 
 341:/opt/homebrew/Cellar/arm-none-eabi-gcc/10.3-2021.07/gcc/arm-none-eabi/include/c++/10.3.1/cmath ****   inline _GLIBCXX_CONSTEXPR long double
 342:/opt/homebrew/Cellar/arm-none-eabi-gcc/10.3-2021.07/gcc/arm-none-eabi/include/c++/10.3.1/cmath ****   log(long double __x)
 343:/opt/homebrew/Cellar/arm-none-eabi-gcc/10.3-2021.07/gcc/arm-none-eabi/include/c++/10.3.1/cmath ****   { return __builtin_logl(__x); }
 344:/opt/homebrew/Cellar/arm-none-eabi-gcc/10.3-2021.07/gcc/arm-none-eabi/include/c++/10.3.1/cmath **** #endif
 345:/opt/homebrew/Cellar/arm-none-eabi-gcc/10.3-2021.07/gcc/arm-none-eabi/include/c++/10.3.1/cmath **** 
 346:/opt/homebrew/Cellar/arm-none-eabi-gcc/10.3-2021.07/gcc/arm-none-eabi/include/c++/10.3.1/cmath ****   template<typename _Tp>
 347:/opt/homebrew/Cellar/arm-none-eabi-gcc/10.3-2021.07/gcc/arm-none-eabi/include/c++/10.3.1/cmath ****     inline _GLIBCXX_CONSTEXPR
 348:/opt/homebrew/Cellar/arm-none-eabi-gcc/10.3-2021.07/gcc/arm-none-eabi/include/c++/10.3.1/cmath ****     typename __gnu_cxx::__enable_if<__is_integer<_Tp>::__value, 
 349:/opt/homebrew/Cellar/arm-none-eabi-gcc/10.3-2021.07/gcc/arm-none-eabi/include/c++/10.3.1/cmath ****                                     double>::__type
 350:/opt/homebrew/Cellar/arm-none-eabi-gcc/10.3-2021.07/gcc/arm-none-eabi/include/c++/10.3.1/cmath ****     log(_Tp __x)
ARM GAS  /var/folders/hl/qgbwny5j0fd895c2c41bk3tw0000gp/T//ccFqANMK.s 			page 68


 351:/opt/homebrew/Cellar/arm-none-eabi-gcc/10.3-2021.07/gcc/arm-none-eabi/include/c++/10.3.1/cmath ****     { return __builtin_log(__x); }
 352:/opt/homebrew/Cellar/arm-none-eabi-gcc/10.3-2021.07/gcc/arm-none-eabi/include/c++/10.3.1/cmath **** 
 353:/opt/homebrew/Cellar/arm-none-eabi-gcc/10.3-2021.07/gcc/arm-none-eabi/include/c++/10.3.1/cmath ****   using ::log10;
 354:/opt/homebrew/Cellar/arm-none-eabi-gcc/10.3-2021.07/gcc/arm-none-eabi/include/c++/10.3.1/cmath **** 
 355:/opt/homebrew/Cellar/arm-none-eabi-gcc/10.3-2021.07/gcc/arm-none-eabi/include/c++/10.3.1/cmath **** #ifndef __CORRECT_ISO_CPP_MATH_H_PROTO
 356:/opt/homebrew/Cellar/arm-none-eabi-gcc/10.3-2021.07/gcc/arm-none-eabi/include/c++/10.3.1/cmath ****   inline _GLIBCXX_CONSTEXPR float
 357:/opt/homebrew/Cellar/arm-none-eabi-gcc/10.3-2021.07/gcc/arm-none-eabi/include/c++/10.3.1/cmath ****   log10(float __x)
 358:/opt/homebrew/Cellar/arm-none-eabi-gcc/10.3-2021.07/gcc/arm-none-eabi/include/c++/10.3.1/cmath ****   { return __builtin_log10f(__x); }
 359:/opt/homebrew/Cellar/arm-none-eabi-gcc/10.3-2021.07/gcc/arm-none-eabi/include/c++/10.3.1/cmath **** 
 360:/opt/homebrew/Cellar/arm-none-eabi-gcc/10.3-2021.07/gcc/arm-none-eabi/include/c++/10.3.1/cmath ****   inline _GLIBCXX_CONSTEXPR long double
 361:/opt/homebrew/Cellar/arm-none-eabi-gcc/10.3-2021.07/gcc/arm-none-eabi/include/c++/10.3.1/cmath ****   log10(long double __x)
 362:/opt/homebrew/Cellar/arm-none-eabi-gcc/10.3-2021.07/gcc/arm-none-eabi/include/c++/10.3.1/cmath ****   { return __builtin_log10l(__x); }
 363:/opt/homebrew/Cellar/arm-none-eabi-gcc/10.3-2021.07/gcc/arm-none-eabi/include/c++/10.3.1/cmath **** #endif
 364:/opt/homebrew/Cellar/arm-none-eabi-gcc/10.3-2021.07/gcc/arm-none-eabi/include/c++/10.3.1/cmath **** 
 365:/opt/homebrew/Cellar/arm-none-eabi-gcc/10.3-2021.07/gcc/arm-none-eabi/include/c++/10.3.1/cmath ****   template<typename _Tp>
 366:/opt/homebrew/Cellar/arm-none-eabi-gcc/10.3-2021.07/gcc/arm-none-eabi/include/c++/10.3.1/cmath ****     inline _GLIBCXX_CONSTEXPR
 367:/opt/homebrew/Cellar/arm-none-eabi-gcc/10.3-2021.07/gcc/arm-none-eabi/include/c++/10.3.1/cmath ****     typename __gnu_cxx::__enable_if<__is_integer<_Tp>::__value,
 368:/opt/homebrew/Cellar/arm-none-eabi-gcc/10.3-2021.07/gcc/arm-none-eabi/include/c++/10.3.1/cmath ****                                     double>::__type
 369:/opt/homebrew/Cellar/arm-none-eabi-gcc/10.3-2021.07/gcc/arm-none-eabi/include/c++/10.3.1/cmath ****     log10(_Tp __x)
 370:/opt/homebrew/Cellar/arm-none-eabi-gcc/10.3-2021.07/gcc/arm-none-eabi/include/c++/10.3.1/cmath ****     { return __builtin_log10(__x); }
 371:/opt/homebrew/Cellar/arm-none-eabi-gcc/10.3-2021.07/gcc/arm-none-eabi/include/c++/10.3.1/cmath **** 
 372:/opt/homebrew/Cellar/arm-none-eabi-gcc/10.3-2021.07/gcc/arm-none-eabi/include/c++/10.3.1/cmath ****   using ::modf;
 373:/opt/homebrew/Cellar/arm-none-eabi-gcc/10.3-2021.07/gcc/arm-none-eabi/include/c++/10.3.1/cmath **** 
 374:/opt/homebrew/Cellar/arm-none-eabi-gcc/10.3-2021.07/gcc/arm-none-eabi/include/c++/10.3.1/cmath **** #ifndef __CORRECT_ISO_CPP_MATH_H_PROTO
 375:/opt/homebrew/Cellar/arm-none-eabi-gcc/10.3-2021.07/gcc/arm-none-eabi/include/c++/10.3.1/cmath ****   inline float
 376:/opt/homebrew/Cellar/arm-none-eabi-gcc/10.3-2021.07/gcc/arm-none-eabi/include/c++/10.3.1/cmath ****   modf(float __x, float* __iptr)
 377:/opt/homebrew/Cellar/arm-none-eabi-gcc/10.3-2021.07/gcc/arm-none-eabi/include/c++/10.3.1/cmath ****   { return __builtin_modff(__x, __iptr); }
 378:/opt/homebrew/Cellar/arm-none-eabi-gcc/10.3-2021.07/gcc/arm-none-eabi/include/c++/10.3.1/cmath **** 
 379:/opt/homebrew/Cellar/arm-none-eabi-gcc/10.3-2021.07/gcc/arm-none-eabi/include/c++/10.3.1/cmath ****   inline long double
 380:/opt/homebrew/Cellar/arm-none-eabi-gcc/10.3-2021.07/gcc/arm-none-eabi/include/c++/10.3.1/cmath ****   modf(long double __x, long double* __iptr)
 381:/opt/homebrew/Cellar/arm-none-eabi-gcc/10.3-2021.07/gcc/arm-none-eabi/include/c++/10.3.1/cmath ****   { return __builtin_modfl(__x, __iptr); }
 382:/opt/homebrew/Cellar/arm-none-eabi-gcc/10.3-2021.07/gcc/arm-none-eabi/include/c++/10.3.1/cmath **** #endif
 383:/opt/homebrew/Cellar/arm-none-eabi-gcc/10.3-2021.07/gcc/arm-none-eabi/include/c++/10.3.1/cmath **** 
 384:/opt/homebrew/Cellar/arm-none-eabi-gcc/10.3-2021.07/gcc/arm-none-eabi/include/c++/10.3.1/cmath ****   using ::pow;
 385:/opt/homebrew/Cellar/arm-none-eabi-gcc/10.3-2021.07/gcc/arm-none-eabi/include/c++/10.3.1/cmath **** 
 386:/opt/homebrew/Cellar/arm-none-eabi-gcc/10.3-2021.07/gcc/arm-none-eabi/include/c++/10.3.1/cmath **** #ifndef __CORRECT_ISO_CPP_MATH_H_PROTO
 387:/opt/homebrew/Cellar/arm-none-eabi-gcc/10.3-2021.07/gcc/arm-none-eabi/include/c++/10.3.1/cmath ****   inline _GLIBCXX_CONSTEXPR float
 388:/opt/homebrew/Cellar/arm-none-eabi-gcc/10.3-2021.07/gcc/arm-none-eabi/include/c++/10.3.1/cmath ****   pow(float __x, float __y)
 389:/opt/homebrew/Cellar/arm-none-eabi-gcc/10.3-2021.07/gcc/arm-none-eabi/include/c++/10.3.1/cmath ****   { return __builtin_powf(__x, __y); }
 390:/opt/homebrew/Cellar/arm-none-eabi-gcc/10.3-2021.07/gcc/arm-none-eabi/include/c++/10.3.1/cmath **** 
 391:/opt/homebrew/Cellar/arm-none-eabi-gcc/10.3-2021.07/gcc/arm-none-eabi/include/c++/10.3.1/cmath ****   inline _GLIBCXX_CONSTEXPR long double
 392:/opt/homebrew/Cellar/arm-none-eabi-gcc/10.3-2021.07/gcc/arm-none-eabi/include/c++/10.3.1/cmath ****   pow(long double __x, long double __y)
 393:/opt/homebrew/Cellar/arm-none-eabi-gcc/10.3-2021.07/gcc/arm-none-eabi/include/c++/10.3.1/cmath ****   { return __builtin_powl(__x, __y); }
 394:/opt/homebrew/Cellar/arm-none-eabi-gcc/10.3-2021.07/gcc/arm-none-eabi/include/c++/10.3.1/cmath **** 
 395:/opt/homebrew/Cellar/arm-none-eabi-gcc/10.3-2021.07/gcc/arm-none-eabi/include/c++/10.3.1/cmath **** #if __cplusplus < 201103L
 396:/opt/homebrew/Cellar/arm-none-eabi-gcc/10.3-2021.07/gcc/arm-none-eabi/include/c++/10.3.1/cmath ****   // _GLIBCXX_RESOLVE_LIB_DEFECTS
 397:/opt/homebrew/Cellar/arm-none-eabi-gcc/10.3-2021.07/gcc/arm-none-eabi/include/c++/10.3.1/cmath ****   // DR 550. What should the return type of pow(float,int) be?
 398:/opt/homebrew/Cellar/arm-none-eabi-gcc/10.3-2021.07/gcc/arm-none-eabi/include/c++/10.3.1/cmath ****   inline double
 399:/opt/homebrew/Cellar/arm-none-eabi-gcc/10.3-2021.07/gcc/arm-none-eabi/include/c++/10.3.1/cmath ****   pow(double __x, int __i)
 400:/opt/homebrew/Cellar/arm-none-eabi-gcc/10.3-2021.07/gcc/arm-none-eabi/include/c++/10.3.1/cmath ****   { return __builtin_powi(__x, __i); }
 401:/opt/homebrew/Cellar/arm-none-eabi-gcc/10.3-2021.07/gcc/arm-none-eabi/include/c++/10.3.1/cmath **** 
 402:/opt/homebrew/Cellar/arm-none-eabi-gcc/10.3-2021.07/gcc/arm-none-eabi/include/c++/10.3.1/cmath ****   inline float
 403:/opt/homebrew/Cellar/arm-none-eabi-gcc/10.3-2021.07/gcc/arm-none-eabi/include/c++/10.3.1/cmath ****   pow(float __x, int __n)
 404:/opt/homebrew/Cellar/arm-none-eabi-gcc/10.3-2021.07/gcc/arm-none-eabi/include/c++/10.3.1/cmath ****   { return __builtin_powif(__x, __n); }
 405:/opt/homebrew/Cellar/arm-none-eabi-gcc/10.3-2021.07/gcc/arm-none-eabi/include/c++/10.3.1/cmath **** 
