ARM GAS  /var/folders/hl/qgbwny5j0fd895c2c41bk3tw0000gp/T//ccFqANMK.s 			page 1


   1              		.cpu cortex-m7
   2              		.eabi_attribute 28, 1
   3              		.eabi_attribute 20, 1
   4              		.eabi_attribute 21, 1
   5              		.eabi_attribute 23, 3
   6              		.eabi_attribute 24, 1
   7              		.eabi_attribute 25, 1
   8              		.eabi_attribute 26, 1
   9              		.eabi_attribute 30, 2
  10              		.eabi_attribute 34, 1
  11              		.eabi_attribute 18, 4
  12              		.file	"OLED.cpp"
  13              		.text
  14              	.Ltext0:
  15              		.cfi_sections	.debug_frame
  16              		.section	.text._ZN5daisy7EncoderD2Ev,"axG",%progbits,_ZN5daisy7EncoderD5Ev,comdat
  17              		.align	1
  18              		.p2align 2,,3
  19              		.weak	_ZN5daisy7EncoderD2Ev
  20              		.arch armv7e-m
  21              		.syntax unified
  22              		.thumb
  23              		.thumb_func
  24              		.fpu fpv5-d16
  26              	_ZN5daisy7EncoderD2Ev:
  27              	.LVL0:
  28              	.LFB1619:
  29              		.file 1 "../../libDaisy/src/hid/encoder.h"
   1:../../libDaisy/src/hid/encoder.h **** #pragma once
   2:../../libDaisy/src/hid/encoder.h **** #ifndef DSY_ENCODER_H
   3:../../libDaisy/src/hid/encoder.h **** #define DSY_ENCODER_H
   4:../../libDaisy/src/hid/encoder.h **** #include "daisy_core.h"
   5:../../libDaisy/src/hid/encoder.h **** #include "per/gpio.h"
   6:../../libDaisy/src/hid/encoder.h **** #include "hid/switch.h"
   7:../../libDaisy/src/hid/encoder.h **** 
   8:../../libDaisy/src/hid/encoder.h **** namespace daisy
   9:../../libDaisy/src/hid/encoder.h **** {
  10:../../libDaisy/src/hid/encoder.h **** /** 
  11:../../libDaisy/src/hid/encoder.h ****     @brief Generic Class for handling Quadrature Encoders \n 
  12:../../libDaisy/src/hid/encoder.h ****     Inspired/influenced by Mutable Instruments (pichenettes) Encoder classes
  13:../../libDaisy/src/hid/encoder.h ****     @author Stephen Hensley
  14:../../libDaisy/src/hid/encoder.h ****     @date December 2019
  15:../../libDaisy/src/hid/encoder.h ****     @ingroup controls
  16:../../libDaisy/src/hid/encoder.h **** */
  17:../../libDaisy/src/hid/encoder.h **** class Encoder
  18:../../libDaisy/src/hid/encoder.h **** {
  19:../../libDaisy/src/hid/encoder.h ****   public:
  20:../../libDaisy/src/hid/encoder.h ****     Encoder() {}
  21:../../libDaisy/src/hid/encoder.h ****     ~Encoder() {}
  30              		.loc 1 21 5 view -0
  31              		.cfi_startproc
  32              		@ args = 0, pretend = 0, frame = 0
  33              		@ frame_needed = 0, uses_anonymous_args = 0
  34              		@ link register save eliminated.
  35              	.LBB393:
  36              	.LBI393:
  37              		.file 2 "../../libDaisy/src/hid/switch.h"
ARM GAS  /var/folders/hl/qgbwny5j0fd895c2c41bk3tw0000gp/T//ccFqANMK.s 			page 2


   1:../../libDaisy/src/hid/switch.h **** #pragma once
   2:../../libDaisy/src/hid/switch.h **** #ifndef DSY_SWITCH_H
   3:../../libDaisy/src/hid/switch.h **** #define DSY_SWITCH_H
   4:../../libDaisy/src/hid/switch.h **** #include "daisy_core.h"
   5:../../libDaisy/src/hid/switch.h **** #include "per/gpio.h"
   6:../../libDaisy/src/hid/switch.h **** #include "sys/system.h"
   7:../../libDaisy/src/hid/switch.h **** 
   8:../../libDaisy/src/hid/switch.h **** namespace daisy
   9:../../libDaisy/src/hid/switch.h **** {
  10:../../libDaisy/src/hid/switch.h **** /** 
  11:../../libDaisy/src/hid/switch.h ****     Generic Class for handling momentary/latching switches \n 
  12:../../libDaisy/src/hid/switch.h ****     Inspired/influenced by Mutable Instruments (pichenettes) Switch classes
  13:../../libDaisy/src/hid/switch.h ****     @author Stephen Hensley
  14:../../libDaisy/src/hid/switch.h ****     @date December 2019
  15:../../libDaisy/src/hid/switch.h ****     @ingroup controls
  16:../../libDaisy/src/hid/switch.h **** */
  17:../../libDaisy/src/hid/switch.h **** class Switch
  18:../../libDaisy/src/hid/switch.h **** {
  19:../../libDaisy/src/hid/switch.h ****   public:
  20:../../libDaisy/src/hid/switch.h ****     /** Specifies the expected behavior of the switch */
  21:../../libDaisy/src/hid/switch.h ****     enum Type
  22:../../libDaisy/src/hid/switch.h ****     {
  23:../../libDaisy/src/hid/switch.h ****         TYPE_TOGGLE,    /**< & */
  24:../../libDaisy/src/hid/switch.h ****         TYPE_MOMENTARY, /**< & */
  25:../../libDaisy/src/hid/switch.h ****     };
  26:../../libDaisy/src/hid/switch.h ****     /** Specifies whether the pressed is HIGH or LOW. */
  27:../../libDaisy/src/hid/switch.h ****     enum Polarity
  28:../../libDaisy/src/hid/switch.h ****     {
  29:../../libDaisy/src/hid/switch.h ****         POLARITY_NORMAL,   /**< & */
  30:../../libDaisy/src/hid/switch.h ****         POLARITY_INVERTED, /**< & */
  31:../../libDaisy/src/hid/switch.h ****     };
  32:../../libDaisy/src/hid/switch.h **** 
  33:../../libDaisy/src/hid/switch.h ****     /** Specifies whether to use built-in Pull Up/Down resistors to hold button at a given state wh
  34:../../libDaisy/src/hid/switch.h ****     enum Pull
  35:../../libDaisy/src/hid/switch.h ****     {
  36:../../libDaisy/src/hid/switch.h ****         PULL_UP,   /**< & */
  37:../../libDaisy/src/hid/switch.h ****         PULL_DOWN, /**< & */
  38:../../libDaisy/src/hid/switch.h ****         PULL_NONE, /**< & */
  39:../../libDaisy/src/hid/switch.h ****     };
  40:../../libDaisy/src/hid/switch.h **** 
  41:../../libDaisy/src/hid/switch.h ****     Switch() {}
  42:../../libDaisy/src/hid/switch.h ****     ~Switch() {}
  38              		.loc 2 42 5 view .LVU1
  39              		.loc 2 42 5 is_stmt 0 view .LVU2
  40              	.LBE393:
  41              		.loc 1 21 17 view .LVU3
  42 0000 7047     		bx	lr
  43              		.cfi_endproc
  44              	.LFE1619:
  46              		.weak	_ZN5daisy7EncoderD1Ev
  47              		.thumb_set _ZN5daisy7EncoderD1Ev,_ZN5daisy7EncoderD2Ev
  48 0002 00BF     		.section	.text._ZN5daisy8patch_sm12DaisyPatchSMD2Ev,"axG",%progbits,_ZN5daisy8patch_sm12DaisyPatch
  49              		.align	1
  50              		.p2align 2,,3
  51              		.weak	_ZN5daisy8patch_sm12DaisyPatchSMD2Ev
  52              		.syntax unified
  53              		.thumb
ARM GAS  /var/folders/hl/qgbwny5j0fd895c2c41bk3tw0000gp/T//ccFqANMK.s 			page 3


  54              		.thumb_func
  55              		.fpu fpv5-d16
  57              	_ZN5daisy8patch_sm12DaisyPatchSMD2Ev:
  58              	.LVL1:
  59              	.LFB2529:
  60              		.file 3 "../../libDaisy/src/daisy_patch_sm.h"
   1:../../libDaisy/src/daisy_patch_sm.h **** #pragma once
   2:../../libDaisy/src/daisy_patch_sm.h **** 
   3:../../libDaisy/src/daisy_patch_sm.h **** #include "daisy.h"
   4:../../libDaisy/src/daisy_patch_sm.h **** 
   5:../../libDaisy/src/daisy_patch_sm.h **** namespace daisy
   6:../../libDaisy/src/daisy_patch_sm.h **** {
   7:../../libDaisy/src/daisy_patch_sm.h **** namespace patch_sm
   8:../../libDaisy/src/daisy_patch_sm.h **** {
   9:../../libDaisy/src/daisy_patch_sm.h ****     /** Accessors for the Analog Controls. 
  10:../../libDaisy/src/daisy_patch_sm.h ****      *  These cover the 8x Bipolar CV inputs
  11:../../libDaisy/src/daisy_patch_sm.h ****      *  as well as the 4x 0-3V3 ADC inputs on
  12:../../libDaisy/src/daisy_patch_sm.h ****      *  the hardware 
  13:../../libDaisy/src/daisy_patch_sm.h ****      * 
  14:../../libDaisy/src/daisy_patch_sm.h ****      *  When reading a value with DaisyPatchSM::GetAdcValue()
  15:../../libDaisy/src/daisy_patch_sm.h ****      * 
  16:../../libDaisy/src/daisy_patch_sm.h ****      *  patch.GetAdcValue(patch_sm::CV_1);
  17:../../libDaisy/src/daisy_patch_sm.h ****      */
  18:../../libDaisy/src/daisy_patch_sm.h ****     enum
  19:../../libDaisy/src/daisy_patch_sm.h ****     {
  20:../../libDaisy/src/daisy_patch_sm.h ****         CV_1 = 0,
  21:../../libDaisy/src/daisy_patch_sm.h ****         CV_2,
  22:../../libDaisy/src/daisy_patch_sm.h ****         CV_3,
  23:../../libDaisy/src/daisy_patch_sm.h ****         CV_4,
  24:../../libDaisy/src/daisy_patch_sm.h ****         CV_5,
  25:../../libDaisy/src/daisy_patch_sm.h ****         CV_6,
  26:../../libDaisy/src/daisy_patch_sm.h ****         CV_7,
  27:../../libDaisy/src/daisy_patch_sm.h ****         CV_8,
  28:../../libDaisy/src/daisy_patch_sm.h ****         ADC_9,
  29:../../libDaisy/src/daisy_patch_sm.h ****         ADC_10,
  30:../../libDaisy/src/daisy_patch_sm.h ****         ADC_11,
  31:../../libDaisy/src/daisy_patch_sm.h ****         ADC_12,
  32:../../libDaisy/src/daisy_patch_sm.h ****         ADC_LAST,
  33:../../libDaisy/src/daisy_patch_sm.h ****     };
  34:../../libDaisy/src/daisy_patch_sm.h **** 
  35:../../libDaisy/src/daisy_patch_sm.h ****     /** Enum for addressing the CV Outputs via the WriteCvOut function. */
  36:../../libDaisy/src/daisy_patch_sm.h ****     enum
  37:../../libDaisy/src/daisy_patch_sm.h ****     {
  38:../../libDaisy/src/daisy_patch_sm.h ****         CV_OUT_BOTH = 0,
  39:../../libDaisy/src/daisy_patch_sm.h ****         CV_OUT_1,
  40:../../libDaisy/src/daisy_patch_sm.h ****         CV_OUT_2,
  41:../../libDaisy/src/daisy_patch_sm.h ****     };
  42:../../libDaisy/src/daisy_patch_sm.h **** 
  43:../../libDaisy/src/daisy_patch_sm.h **** 
  44:../../libDaisy/src/daisy_patch_sm.h ****     /** @brief Board support file for DaisyPatchSM hardware
  45:../../libDaisy/src/daisy_patch_sm.h ****      *  @author shensley
  46:../../libDaisy/src/daisy_patch_sm.h ****      *  @ingroup boards
  47:../../libDaisy/src/daisy_patch_sm.h ****      * 
  48:../../libDaisy/src/daisy_patch_sm.h ****      *  Daisy Patch SM is a complete Eurorack module DSP engine.
  49:../../libDaisy/src/daisy_patch_sm.h ****      *  Based on the Daisy Seed, with circuits added for 
  50:../../libDaisy/src/daisy_patch_sm.h ****      *  interfacing directly with eurorack modular synthesizers.
  51:../../libDaisy/src/daisy_patch_sm.h ****      */
ARM GAS  /var/folders/hl/qgbwny5j0fd895c2c41bk3tw0000gp/T//ccFqANMK.s 			page 4


  52:../../libDaisy/src/daisy_patch_sm.h ****     class DaisyPatchSM
  53:../../libDaisy/src/daisy_patch_sm.h ****     {
  54:../../libDaisy/src/daisy_patch_sm.h ****       public:
  55:../../libDaisy/src/daisy_patch_sm.h ****         /** Helper for mapping pins, and accessing them using the `GetPin` function */
  56:../../libDaisy/src/daisy_patch_sm.h ****         enum class PinBank
  57:../../libDaisy/src/daisy_patch_sm.h ****         {
  58:../../libDaisy/src/daisy_patch_sm.h ****             A,
  59:../../libDaisy/src/daisy_patch_sm.h ****             B,
  60:../../libDaisy/src/daisy_patch_sm.h ****             C,
  61:../../libDaisy/src/daisy_patch_sm.h ****             D
  62:../../libDaisy/src/daisy_patch_sm.h ****         };
  63:../../libDaisy/src/daisy_patch_sm.h **** 
  64:../../libDaisy/src/daisy_patch_sm.h ****         DaisyPatchSM() {}
  65:../../libDaisy/src/daisy_patch_sm.h ****         ~DaisyPatchSM() {}
  61              		.loc 3 65 9 is_stmt 1 view -0
  62              		.cfi_startproc
  63              		@ args = 0, pretend = 0, frame = 0
  64              		@ frame_needed = 0, uses_anonymous_args = 0
  65              		@ link register save eliminated.
  66              	.LBB394:
  67              	.LBI394:
  68              		.file 4 "../../libDaisy/src/hid/gatein.h"
   1:../../libDaisy/src/hid/gatein.h **** #pragma once
   2:../../libDaisy/src/hid/gatein.h **** #ifndef DSY_GATEIN_H
   3:../../libDaisy/src/hid/gatein.h **** #define DSY_GATEIN_H
   4:../../libDaisy/src/hid/gatein.h **** #include "per/gpio.h"
   5:../../libDaisy/src/hid/gatein.h **** 
   6:../../libDaisy/src/hid/gatein.h **** namespace daisy
   7:../../libDaisy/src/hid/gatein.h **** {
   8:../../libDaisy/src/hid/gatein.h **** /**
   9:../../libDaisy/src/hid/gatein.h ****    @brief Generic Class for handling gate inputs through GPIO.
  10:../../libDaisy/src/hid/gatein.h ****    @author Stephen Hensley
  11:../../libDaisy/src/hid/gatein.h ****    @date    March 2020
  12:../../libDaisy/src/hid/gatein.h ****    @ingroup controls
  13:../../libDaisy/src/hid/gatein.h **** */
  14:../../libDaisy/src/hid/gatein.h **** class GateIn
  15:../../libDaisy/src/hid/gatein.h **** {
  16:../../libDaisy/src/hid/gatein.h ****   public:
  17:../../libDaisy/src/hid/gatein.h ****     /** GateIn 
  18:../../libDaisy/src/hid/gatein.h ****     Constructor 
  19:../../libDaisy/src/hid/gatein.h ****     */
  20:../../libDaisy/src/hid/gatein.h ****     GateIn() {}
  21:../../libDaisy/src/hid/gatein.h ****     /** GateIn~
  22:../../libDaisy/src/hid/gatein.h ****     Destructor 
  23:../../libDaisy/src/hid/gatein.h ****     */
  24:../../libDaisy/src/hid/gatein.h ****     ~GateIn() {}
  69              		.loc 4 24 5 view .LVU5
  70              		.loc 4 24 5 is_stmt 0 view .LVU6
  71              	.LBE394:
  72              	.LBB395:
  73              	.LBI395:
  74              		.loc 4 24 5 is_stmt 1 view .LVU7
  75              		.loc 4 24 5 is_stmt 0 view .LVU8
  76              	.LBE395:
  77              	.LBB396:
  78              	.LBI396:
  79              		.file 5 "../../libDaisy/src/dev/codec_pcm3060.h"
ARM GAS  /var/folders/hl/qgbwny5j0fd895c2c41bk3tw0000gp/T//ccFqANMK.s 			page 5


   1:../../libDaisy/src/dev/codec_pcm3060.h **** #pragma once
   2:../../libDaisy/src/dev/codec_pcm3060.h **** #ifndef DSY_CODEC_PCM3060_H
   3:../../libDaisy/src/dev/codec_pcm3060.h **** #define DSY_CODEC_PCM3060_H
   4:../../libDaisy/src/dev/codec_pcm3060.h **** #include "per/i2c.h"
   5:../../libDaisy/src/dev/codec_pcm3060.h **** namespace daisy
   6:../../libDaisy/src/dev/codec_pcm3060.h **** {
   7:../../libDaisy/src/dev/codec_pcm3060.h **** /**
   8:../../libDaisy/src/dev/codec_pcm3060.h ****  * @brief Driver for the TI PCM3060 Audio Codec.
   9:../../libDaisy/src/dev/codec_pcm3060.h ****  * @addtogroup codec
  10:../../libDaisy/src/dev/codec_pcm3060.h ****  * 
  11:../../libDaisy/src/dev/codec_pcm3060.h ****  * For now this is a limited interface that uses I2C to communicate with the PCM3060
  12:../../libDaisy/src/dev/codec_pcm3060.h ****  * The device can also be accessed with SPI, which is not yet supported.
  13:../../libDaisy/src/dev/codec_pcm3060.h ****  * 
  14:../../libDaisy/src/dev/codec_pcm3060.h ****  * For now all registers are set to their defaults, and the Init function will 
  15:../../libDaisy/src/dev/codec_pcm3060.h ****  * perform a MRST and SRST before setting the format to 24bit LJ, and disabling 
  16:../../libDaisy/src/dev/codec_pcm3060.h ****  * power save for both the ADC and DAC.
  17:../../libDaisy/src/dev/codec_pcm3060.h ****  *
  18:../../libDaisy/src/dev/codec_pcm3060.h ****  */
  19:../../libDaisy/src/dev/codec_pcm3060.h **** class Pcm3060
  20:../../libDaisy/src/dev/codec_pcm3060.h **** {
  21:../../libDaisy/src/dev/codec_pcm3060.h ****   public:
  22:../../libDaisy/src/dev/codec_pcm3060.h ****     enum class Result
  23:../../libDaisy/src/dev/codec_pcm3060.h ****     {
  24:../../libDaisy/src/dev/codec_pcm3060.h ****         OK,
  25:../../libDaisy/src/dev/codec_pcm3060.h ****         ERR,
  26:../../libDaisy/src/dev/codec_pcm3060.h ****     };
  27:../../libDaisy/src/dev/codec_pcm3060.h **** 
  28:../../libDaisy/src/dev/codec_pcm3060.h ****     Pcm3060() {}
  29:../../libDaisy/src/dev/codec_pcm3060.h ****     ~Pcm3060() {}
  80              		.loc 5 29 5 is_stmt 1 view .LVU9
  81              		.loc 5 29 5 is_stmt 0 view .LVU10
  82              	.LBE396:
  83              	.LBB397:
  84              	.LBI397:
  85              		.file 6 "../../libDaisy/src/hid/usb.h"
   1:../../libDaisy/src/hid/usb.h **** #pragma once
   2:../../libDaisy/src/hid/usb.h **** #ifndef DSY_HID_USB_H
   3:../../libDaisy/src/hid/usb.h **** #define DSY_HID_USB_H
   4:../../libDaisy/src/hid/usb.h **** #include <stdint.h>
   5:../../libDaisy/src/hid/usb.h **** #include <stdlib.h>
   6:../../libDaisy/src/hid/usb.h **** 
   7:../../libDaisy/src/hid/usb.h **** namespace daisy
   8:../../libDaisy/src/hid/usb.h **** /** @addtogroup human_interface
   9:../../libDaisy/src/hid/usb.h ****     @{
  10:../../libDaisy/src/hid/usb.h **** */
  11:../../libDaisy/src/hid/usb.h **** 
  12:../../libDaisy/src/hid/usb.h **** {
  13:../../libDaisy/src/hid/usb.h **** /** 
  14:../../libDaisy/src/hid/usb.h ****     @brief Interface for initializing and using the USB Peripherals on the daisy
  15:../../libDaisy/src/hid/usb.h ****     @author Stephen Hensley
  16:../../libDaisy/src/hid/usb.h ****     @date December 2019
  17:../../libDaisy/src/hid/usb.h **** */
  18:../../libDaisy/src/hid/usb.h **** class UsbHandle
  19:../../libDaisy/src/hid/usb.h **** {
  20:../../libDaisy/src/hid/usb.h ****   public:
  21:../../libDaisy/src/hid/usb.h ****     /** Return values for USBHandle Functions */
  22:../../libDaisy/src/hid/usb.h ****     enum class Result
ARM GAS  /var/folders/hl/qgbwny5j0fd895c2c41bk3tw0000gp/T//ccFqANMK.s 			page 6


  23:../../libDaisy/src/hid/usb.h ****     {
  24:../../libDaisy/src/hid/usb.h ****         OK,
  25:../../libDaisy/src/hid/usb.h ****         ERR,
  26:../../libDaisy/src/hid/usb.h ****     };
  27:../../libDaisy/src/hid/usb.h **** 
  28:../../libDaisy/src/hid/usb.h ****     /** Specified which of the two USB Peripherals to initialize. */
  29:../../libDaisy/src/hid/usb.h ****     enum UsbPeriph
  30:../../libDaisy/src/hid/usb.h ****     {
  31:../../libDaisy/src/hid/usb.h ****         FS_INTERNAL, /**< Internal pin */
  32:../../libDaisy/src/hid/usb.h ****         FS_EXTERNAL, /**< FS External D+ pin is Pin 38 (GPIO32). FS External D- pin is Pin 37 (GPIO
  33:../../libDaisy/src/hid/usb.h ****         FS_BOTH,     /**< Both */
  34:../../libDaisy/src/hid/usb.h ****     };
  35:../../libDaisy/src/hid/usb.h **** 
  36:../../libDaisy/src/hid/usb.h **** 
  37:../../libDaisy/src/hid/usb.h ****     /** Function called upon reception of a buffer */
  38:../../libDaisy/src/hid/usb.h ****     typedef void (*ReceiveCallback)(uint8_t* buff, uint32_t* len);
  39:../../libDaisy/src/hid/usb.h **** 
  40:../../libDaisy/src/hid/usb.h ****     UsbHandle() {}
  41:../../libDaisy/src/hid/usb.h **** 
  42:../../libDaisy/src/hid/usb.h ****     ~UsbHandle() {}
  86              		.loc 6 42 5 is_stmt 1 view .LVU11
  87              		.loc 6 42 5 is_stmt 0 view .LVU12
  88              	.LBE397:
  89              	.LBB398:
  90              	.LBI398:
  91              		.file 7 "../../libDaisy/src/per/adc.h"
   1:../../libDaisy/src/per/adc.h **** #pragma once
   2:../../libDaisy/src/per/adc.h **** #ifndef DSY_ADC_H
   3:../../libDaisy/src/per/adc.h **** #define DSY_ADC_H /**< Macro */
   4:../../libDaisy/src/per/adc.h **** #include <stdint.h>
   5:../../libDaisy/src/per/adc.h **** #include <stdlib.h>
   6:../../libDaisy/src/per/adc.h **** #include "daisy_core.h"
   7:../../libDaisy/src/per/adc.h **** #include "per/gpio.h"
   8:../../libDaisy/src/per/adc.h **** 
   9:../../libDaisy/src/per/adc.h **** #define DSY_ADC_MAX_CHANNELS 16 /**< Maximum number of ADC channels */
  10:../../libDaisy/src/per/adc.h **** 
  11:../../libDaisy/src/per/adc.h **** namespace daisy
  12:../../libDaisy/src/per/adc.h **** {
  13:../../libDaisy/src/per/adc.h **** /** @addtogroup per_analog
  14:../../libDaisy/src/per/adc.h ****     @{
  15:../../libDaisy/src/per/adc.h **** */
  16:../../libDaisy/src/per/adc.h **** 
  17:../../libDaisy/src/per/adc.h **** /* While there may not be many configuration options here,
  18:../../libDaisy/src/per/adc.h **** using a struct like this allows us to add more configuration
  19:../../libDaisy/src/per/adc.h **** later without breaking existing functionality.
  20:../../libDaisy/src/per/adc.h **** */
  21:../../libDaisy/src/per/adc.h **** 
  22:../../libDaisy/src/per/adc.h **** /** @brief   Configuration Structure for an ADC Channel 
  23:../../libDaisy/src/per/adc.h ****  *  @details This can be used to configure a a single input, 
  24:../../libDaisy/src/per/adc.h ****  *           or a multiplexed input, allowing up to 8 inputs on 
  25:../../libDaisy/src/per/adc.h ****  *           one channel.
  26:../../libDaisy/src/per/adc.h ****  *  @note    Sharing data lines to multiple muxes _is_ possible, but
  27:../../libDaisy/src/per/adc.h ****  *           each channel sharing data lines must be set to the maximum
  28:../../libDaisy/src/per/adc.h ****  *           number of channels, even if some multiplexers have fewer
  29:../../libDaisy/src/per/adc.h ****  *           inputs connected.
  30:../../libDaisy/src/per/adc.h **** */
  31:../../libDaisy/src/per/adc.h **** struct AdcChannelConfig
ARM GAS  /var/folders/hl/qgbwny5j0fd895c2c41bk3tw0000gp/T//ccFqANMK.s 			page 7


  32:../../libDaisy/src/per/adc.h **** {
  33:../../libDaisy/src/per/adc.h ****     /** Which pin to use for multiplexing */
  34:../../libDaisy/src/per/adc.h ****     enum MuxPin
  35:../../libDaisy/src/per/adc.h ****     {
  36:../../libDaisy/src/per/adc.h ****         MUX_SEL_0,    /**< & */
  37:../../libDaisy/src/per/adc.h ****         MUX_SEL_1,    /**< & */
  38:../../libDaisy/src/per/adc.h ****         MUX_SEL_2,    /**< & */
  39:../../libDaisy/src/per/adc.h ****         MUX_SEL_LAST, /**< & */
  40:../../libDaisy/src/per/adc.h ****     };
  41:../../libDaisy/src/per/adc.h **** 
  42:../../libDaisy/src/per/adc.h ****     /** Initializes a single ADC pin as an ADC. 
  43:../../libDaisy/src/per/adc.h ****     \param pin Pin to init.
  44:../../libDaisy/src/per/adc.h ****      */
  45:../../libDaisy/src/per/adc.h ****     void InitSingle(dsy_gpio_pin pin);
  46:../../libDaisy/src/per/adc.h **** 
  47:../../libDaisy/src/per/adc.h ****     /** 
  48:../../libDaisy/src/per/adc.h ****     Initializes a single ADC pin as a Multiplexed ADC.
  49:../../libDaisy/src/per/adc.h ****     Requires a CD405X Multiplexer connected to the pin.
  50:../../libDaisy/src/per/adc.h ****     You only need to supply the mux pins that are required,
  51:../../libDaisy/src/per/adc.h ****     e.g. a 4052 mux would only require mux_0 and mux_1.
  52:../../libDaisy/src/per/adc.h ****     Internal Callbacks handle the pin addressing.
  53:../../libDaisy/src/per/adc.h ****     \param mux_channels must be 1-8
  54:../../libDaisy/src/per/adc.h ****     \param mux_0 First mux pin
  55:../../libDaisy/src/per/adc.h ****     \param mux_1 Second mux pin
  56:../../libDaisy/src/per/adc.h ****     \param mux_2 Third mux pin
  57:../../libDaisy/src/per/adc.h ****     \param adc_pin &
  58:../../libDaisy/src/per/adc.h ****     */
  59:../../libDaisy/src/per/adc.h ****     void InitMux(dsy_gpio_pin adc_pin,
  60:../../libDaisy/src/per/adc.h ****                  size_t       mux_channels,
  61:../../libDaisy/src/per/adc.h ****                  dsy_gpio_pin mux_0,
  62:../../libDaisy/src/per/adc.h ****                  dsy_gpio_pin mux_1 = {DSY_GPIOX, 0},
  63:../../libDaisy/src/per/adc.h ****                  dsy_gpio_pin mux_2 = {DSY_GPIOX, 0});
  64:../../libDaisy/src/per/adc.h **** 
  65:../../libDaisy/src/per/adc.h ****     dsy_gpio pin_;                   /**< & */
  66:../../libDaisy/src/per/adc.h ****     dsy_gpio mux_pin_[MUX_SEL_LAST]; /**< & */
  67:../../libDaisy/src/per/adc.h ****     uint8_t  mux_channels_;          /**< & */
  68:../../libDaisy/src/per/adc.h **** };
  69:../../libDaisy/src/per/adc.h **** 
  70:../../libDaisy/src/per/adc.h **** /**
  71:../../libDaisy/src/per/adc.h ****    @brief Handler for analog to digital conversion
  72:../../libDaisy/src/per/adc.h **** */
  73:../../libDaisy/src/per/adc.h **** class AdcHandle
  74:../../libDaisy/src/per/adc.h **** {
  75:../../libDaisy/src/per/adc.h ****   public:
  76:../../libDaisy/src/per/adc.h ****     /** Supported oversampling amounts */
  77:../../libDaisy/src/per/adc.h ****     enum OverSampling
  78:../../libDaisy/src/per/adc.h ****     {
  79:../../libDaisy/src/per/adc.h ****         OVS_NONE, /**< & */
  80:../../libDaisy/src/per/adc.h ****         OVS_4,    /**< & */
  81:../../libDaisy/src/per/adc.h ****         OVS_8,    /**< & */
  82:../../libDaisy/src/per/adc.h ****         OVS_16,   /**< & */
  83:../../libDaisy/src/per/adc.h ****         OVS_32,   /**< & */
  84:../../libDaisy/src/per/adc.h ****         OVS_64,   /**< & */
  85:../../libDaisy/src/per/adc.h ****         OVS_128,  /**< & */
  86:../../libDaisy/src/per/adc.h ****         OVS_256,  /**< & */
  87:../../libDaisy/src/per/adc.h ****         OVS_512,  /**< & */
  88:../../libDaisy/src/per/adc.h ****         OVS_1024, /**< & */
ARM GAS  /var/folders/hl/qgbwny5j0fd895c2c41bk3tw0000gp/T//ccFqANMK.s 			page 8


  89:../../libDaisy/src/per/adc.h ****         OVS_LAST, /**< & */
  90:../../libDaisy/src/per/adc.h ****     };
  91:../../libDaisy/src/per/adc.h **** 
  92:../../libDaisy/src/per/adc.h ****     AdcHandle() {}
  93:../../libDaisy/src/per/adc.h ****     ~AdcHandle() {}
  92              		.loc 7 93 5 is_stmt 1 view .LVU13
  93              		.loc 7 93 5 is_stmt 0 view .LVU14
  94              	.LBE398:
  95              	.LBB399:
  96              	.LBI399:
  97              		.file 8 "../../libDaisy/src/hid/audio.h"
   1:../../libDaisy/src/hid/audio.h **** #ifndef DSY_AUDIO_H
   2:../../libDaisy/src/hid/audio.h **** #define DSY_AUDIO_H /**< & */
   3:../../libDaisy/src/hid/audio.h **** 
   4:../../libDaisy/src/hid/audio.h **** #include "per/sai.h"
   5:../../libDaisy/src/hid/audio.h **** 
   6:../../libDaisy/src/hid/audio.h **** namespace daisy
   7:../../libDaisy/src/hid/audio.h **** {
   8:../../libDaisy/src/hid/audio.h **** /** @brief Audio Engine Handle
   9:../../libDaisy/src/hid/audio.h ****  *  @ingroup audio 
  10:../../libDaisy/src/hid/audio.h ****  *  @details This class allows for higher level access to an audio engine.
  11:../../libDaisy/src/hid/audio.h ****  *           If you're using a SOM like the DaisySeed or DaisyPatchSM (or any 
  12:../../libDaisy/src/hid/audio.h ****  *            board that includes one of those objects) then the intialization
  13:../../libDaisy/src/hid/audio.h ****  *            is already taken  care of.
  14:../../libDaisy/src/hid/audio.h ****  *           If you're setting up your own custom hardware, or need to make changes
  15:../../libDaisy/src/hid/audio.h ****  *           you will have to take the following steps:
  16:../../libDaisy/src/hid/audio.h ****  *             1. Create and Initialize an SaiHandle or two depending on your requirements
  17:../../libDaisy/src/hid/audio.h ****  *             2. Initialize the Audio Handle with the desired settings and the Initialized SaiHand
  18:../../libDaisy/src/hid/audio.h ****  *             3. If the connected codec requires special configuration or initialization, do so
  19:../../libDaisy/src/hid/audio.h ****  *             4. Write a callback method using either the AudioCallback or the InterleavingAudioCa
  20:../../libDaisy/src/hid/audio.h ****  *             5. Start the Audio using one of the StartAudio function
  21:../../libDaisy/src/hid/audio.h ****  */
  22:../../libDaisy/src/hid/audio.h **** class AudioHandle
  23:../../libDaisy/src/hid/audio.h **** {
  24:../../libDaisy/src/hid/audio.h ****   public:
  25:../../libDaisy/src/hid/audio.h ****     /** Manually configurable details about the Audio Engine */
  26:../../libDaisy/src/hid/audio.h ****     /** TODO: Figure out how to get samplerate in here. */
  27:../../libDaisy/src/hid/audio.h ****     struct Config
  28:../../libDaisy/src/hid/audio.h ****     {
  29:../../libDaisy/src/hid/audio.h ****         /** number of samples to process per callback */
  30:../../libDaisy/src/hid/audio.h ****         size_t blocksize;
  31:../../libDaisy/src/hid/audio.h **** 
  32:../../libDaisy/src/hid/audio.h ****         /**< Sample rate of audio */
  33:../../libDaisy/src/hid/audio.h ****         SaiHandle::Config::SampleRate samplerate;
  34:../../libDaisy/src/hid/audio.h **** 
  35:../../libDaisy/src/hid/audio.h ****         /** factor for adjustment before and after callback for hardware that may have extra headro
  36:../../libDaisy/src/hid/audio.h ****         float postgain;
  37:../../libDaisy/src/hid/audio.h **** 
  38:../../libDaisy/src/hid/audio.h ****         /** factor for additional one-sided compensation to audio path for hardware that may
  39:../../libDaisy/src/hid/audio.h ****          *  have unequal input/output ranges
  40:../../libDaisy/src/hid/audio.h ****          */
  41:../../libDaisy/src/hid/audio.h ****         float output_compensation;
  42:../../libDaisy/src/hid/audio.h **** 
  43:../../libDaisy/src/hid/audio.h ****         /** Sets default values for config struct */
  44:../../libDaisy/src/hid/audio.h ****         Config()
  45:../../libDaisy/src/hid/audio.h ****         : blocksize(48),
  46:../../libDaisy/src/hid/audio.h ****           samplerate(SaiHandle::Config::SampleRate::SAI_48KHZ),
ARM GAS  /var/folders/hl/qgbwny5j0fd895c2c41bk3tw0000gp/T//ccFqANMK.s 			page 9


  47:../../libDaisy/src/hid/audio.h ****           postgain(1.f),
  48:../../libDaisy/src/hid/audio.h ****           output_compensation(1.f)
  49:../../libDaisy/src/hid/audio.h ****         {
  50:../../libDaisy/src/hid/audio.h ****         }
  51:../../libDaisy/src/hid/audio.h ****     };
  52:../../libDaisy/src/hid/audio.h **** 
  53:../../libDaisy/src/hid/audio.h ****     enum class Result
  54:../../libDaisy/src/hid/audio.h ****     {
  55:../../libDaisy/src/hid/audio.h ****         OK,
  56:../../libDaisy/src/hid/audio.h ****         ERR,
  57:../../libDaisy/src/hid/audio.h ****     };
  58:../../libDaisy/src/hid/audio.h **** 
  59:../../libDaisy/src/hid/audio.h ****     /** Non-Interleaving input buffer
  60:../../libDaisy/src/hid/audio.h ****      * Buffer arranged by float[chn][sample] 
  61:../../libDaisy/src/hid/audio.h ****      * const so that the user can't modify the input
  62:../../libDaisy/src/hid/audio.h ****      */
  63:../../libDaisy/src/hid/audio.h ****     typedef const float* const* InputBuffer;
  64:../../libDaisy/src/hid/audio.h **** 
  65:../../libDaisy/src/hid/audio.h ****     /** Non-Interleaving output buffer
  66:../../libDaisy/src/hid/audio.h ****      * Arranged by float[chn][sample] 
  67:../../libDaisy/src/hid/audio.h ****      */
  68:../../libDaisy/src/hid/audio.h ****     typedef float** OutputBuffer;
  69:../../libDaisy/src/hid/audio.h **** 
  70:../../libDaisy/src/hid/audio.h ****     /** Type for a Non-Interleaving audio callback 
  71:../../libDaisy/src/hid/audio.h ****      * Non-Interleaving audio callbacks in daisy will be of this type
  72:../../libDaisy/src/hid/audio.h ****      */
  73:../../libDaisy/src/hid/audio.h ****     typedef void (*AudioCallback)(InputBuffer  in,
  74:../../libDaisy/src/hid/audio.h ****                                   OutputBuffer out,
  75:../../libDaisy/src/hid/audio.h ****                                   size_t       size);
  76:../../libDaisy/src/hid/audio.h **** 
  77:../../libDaisy/src/hid/audio.h ****     /** Interleaving Input buffer
  78:../../libDaisy/src/hid/audio.h ****      ** audio is prepared as { L0, R0, L1, R1, . . . LN, RN }]
  79:../../libDaisy/src/hid/audio.h ****      ** this is const, as the user shouldn't modify it
  80:../../libDaisy/src/hid/audio.h ****     */
  81:../../libDaisy/src/hid/audio.h ****     typedef const float* InterleavingInputBuffer;
  82:../../libDaisy/src/hid/audio.h **** 
  83:../../libDaisy/src/hid/audio.h ****     /** Interleaving Output buffer 
  84:../../libDaisy/src/hid/audio.h ****      ** audio is prepared as { L0, R0, L1, R1, . . . LN, RN }
  85:../../libDaisy/src/hid/audio.h ****     */
  86:../../libDaisy/src/hid/audio.h ****     typedef float* InterleavingOutputBuffer;
  87:../../libDaisy/src/hid/audio.h **** 
  88:../../libDaisy/src/hid/audio.h ****     /** Interleaving Audio Callback 
  89:../../libDaisy/src/hid/audio.h ****      * Interleaving audio callbacks in daisy must be of this type
  90:../../libDaisy/src/hid/audio.h ****      */
  91:../../libDaisy/src/hid/audio.h ****     typedef void (*InterleavingAudioCallback)(InterleavingInputBuffer  in,
  92:../../libDaisy/src/hid/audio.h ****                                               InterleavingOutputBuffer out,
  93:../../libDaisy/src/hid/audio.h ****                                               size_t                   size);
  94:../../libDaisy/src/hid/audio.h **** 
  95:../../libDaisy/src/hid/audio.h ****     AudioHandle() : pimpl_(nullptr) {}
  96:../../libDaisy/src/hid/audio.h ****     ~AudioHandle() {}
  98              		.loc 8 96 5 is_stmt 1 view .LVU15
  99              		.loc 8 96 5 is_stmt 0 view .LVU16
 100              	.LBE399:
 101              	.LBB400:
 102              	.LBI400:
 103              		.file 9 "../../libDaisy/src/sys/system.h"
   1:../../libDaisy/src/sys/system.h **** #ifndef DSY_SYSTEM_H
ARM GAS  /var/folders/hl/qgbwny5j0fd895c2c41bk3tw0000gp/T//ccFqANMK.s 			page 10


   2:../../libDaisy/src/sys/system.h **** #define DSY_SYSTEM_H
   3:../../libDaisy/src/sys/system.h **** 
   4:../../libDaisy/src/sys/system.h **** #ifndef UNIT_TEST // for unit tests, a dummy implementation is provided below
   5:../../libDaisy/src/sys/system.h **** 
   6:../../libDaisy/src/sys/system.h **** #include <cstdint>
   7:../../libDaisy/src/sys/system.h **** #include "per/tim.h"
   8:../../libDaisy/src/sys/system.h **** 
   9:../../libDaisy/src/sys/system.h **** namespace daisy
  10:../../libDaisy/src/sys/system.h **** {
  11:../../libDaisy/src/sys/system.h **** /** A handle for interacting with the Core System. 
  12:../../libDaisy/src/sys/system.h ****  ** This includes the Clock tree, MPU, global DMA initialization,
  13:../../libDaisy/src/sys/system.h ****  ** cache handling, and any other necessary global initiailzation
  14:../../libDaisy/src/sys/system.h ****  **
  15:../../libDaisy/src/sys/system.h ****  ** @author shensley
  16:../../libDaisy/src/sys/system.h ****  ** @ingroup system
  17:../../libDaisy/src/sys/system.h ****  */
  18:../../libDaisy/src/sys/system.h **** class System
  19:../../libDaisy/src/sys/system.h **** {
  20:../../libDaisy/src/sys/system.h ****   public:
  21:../../libDaisy/src/sys/system.h ****     /** Contains settings for initializing the System */
  22:../../libDaisy/src/sys/system.h ****     struct Config
  23:../../libDaisy/src/sys/system.h ****     {
  24:../../libDaisy/src/sys/system.h ****         /** Specifies the system clock frequency that feeds APB/AHB clocks, etc. */
  25:../../libDaisy/src/sys/system.h ****         enum class SysClkFreq
  26:../../libDaisy/src/sys/system.h ****         {
  27:../../libDaisy/src/sys/system.h ****             FREQ_400MHZ,
  28:../../libDaisy/src/sys/system.h ****             FREQ_480MHZ,
  29:../../libDaisy/src/sys/system.h ****         };
  30:../../libDaisy/src/sys/system.h **** 
  31:../../libDaisy/src/sys/system.h ****         /** Method to call on the struct to set to defaults
  32:../../libDaisy/src/sys/system.h ****          ** CPU Freq set to 400MHz
  33:../../libDaisy/src/sys/system.h ****          ** Cache Enabled 
  34:../../libDaisy/src/sys/system.h ****          ** */
  35:../../libDaisy/src/sys/system.h ****         void Defaults()
  36:../../libDaisy/src/sys/system.h ****         {
  37:../../libDaisy/src/sys/system.h ****             cpu_freq    = SysClkFreq::FREQ_400MHZ;
  38:../../libDaisy/src/sys/system.h ****             use_dcache  = true;
  39:../../libDaisy/src/sys/system.h ****             use_icache  = true;
  40:../../libDaisy/src/sys/system.h ****             skip_clocks = false;
  41:../../libDaisy/src/sys/system.h ****         }
  42:../../libDaisy/src/sys/system.h **** 
  43:../../libDaisy/src/sys/system.h ****         /** Method to call on the struct to set to boost mode:
  44:../../libDaisy/src/sys/system.h ****          ** CPU Freq set to 480MHz
  45:../../libDaisy/src/sys/system.h ****          ** Cache Enabled 
  46:../../libDaisy/src/sys/system.h ****          ** */
  47:../../libDaisy/src/sys/system.h ****         void Boost()
  48:../../libDaisy/src/sys/system.h ****         {
  49:../../libDaisy/src/sys/system.h ****             cpu_freq    = SysClkFreq::FREQ_480MHZ;
  50:../../libDaisy/src/sys/system.h ****             use_dcache  = true;
  51:../../libDaisy/src/sys/system.h ****             use_icache  = true;
  52:../../libDaisy/src/sys/system.h ****             skip_clocks = false;
  53:../../libDaisy/src/sys/system.h ****         }
  54:../../libDaisy/src/sys/system.h **** 
  55:../../libDaisy/src/sys/system.h ****         SysClkFreq cpu_freq;
  56:../../libDaisy/src/sys/system.h ****         bool       use_dcache;
  57:../../libDaisy/src/sys/system.h ****         bool       use_icache;
  58:../../libDaisy/src/sys/system.h ****         bool       skip_clocks;
ARM GAS  /var/folders/hl/qgbwny5j0fd895c2c41bk3tw0000gp/T//ccFqANMK.s 			page 11


  59:../../libDaisy/src/sys/system.h ****     };
  60:../../libDaisy/src/sys/system.h **** 
  61:../../libDaisy/src/sys/system.h ****     /** Describes the different regions of memory available to the Daisy
  62:../../libDaisy/src/sys/system.h ****      * 
  63:../../libDaisy/src/sys/system.h ****      */
  64:../../libDaisy/src/sys/system.h ****     enum MemoryRegion
  65:../../libDaisy/src/sys/system.h ****     {
  66:../../libDaisy/src/sys/system.h ****         INTERNAL_FLASH = 0,
  67:../../libDaisy/src/sys/system.h ****         ITCMRAM,
  68:../../libDaisy/src/sys/system.h ****         DTCMRAM,
  69:../../libDaisy/src/sys/system.h ****         SRAM_D1,
  70:../../libDaisy/src/sys/system.h ****         SRAM_D2,
  71:../../libDaisy/src/sys/system.h ****         SRAM_D3,
  72:../../libDaisy/src/sys/system.h ****         SDRAM,
  73:../../libDaisy/src/sys/system.h ****         QSPI,
  74:../../libDaisy/src/sys/system.h ****         INVALID_ADDRESS,
  75:../../libDaisy/src/sys/system.h ****     };
  76:../../libDaisy/src/sys/system.h **** 
  77:../../libDaisy/src/sys/system.h ****     System() {}
  78:../../libDaisy/src/sys/system.h ****     ~System() {}
 104              		.loc 9 78 5 is_stmt 1 view .LVU17
 105              		.loc 9 78 5 is_stmt 0 view .LVU18
 106              	.LBE400:
 107              		.loc 3 65 26 view .LVU19
 108 0000 7047     		bx	lr
 109              		.cfi_endproc
 110              	.LFE2529:
 112              		.weak	_ZN5daisy8patch_sm12DaisyPatchSMD1Ev
 113              		.thumb_set _ZN5daisy8patch_sm12DaisyPatchSMD1Ev,_ZN5daisy8patch_sm12DaisyPatchSMD2Ev
 114 0002 00BF     		.section	.text._ZN5daisy11OledDisplayINS_13SSD130xDriverILj128ELj64ENS_24SSD130x4WireSpiTransportE
 115              		.align	1
 116              		.p2align 2,,3
 117              		.weak	_ZN5daisy11OledDisplayINS_13SSD130xDriverILj128ELj64ENS_24SSD130x4WireSpiTransportEEEE4FillE
 118              		.syntax unified
 119              		.thumb
 120              		.thumb_func
 121              		.fpu fpv5-d16
 123              	_ZN5daisy11OledDisplayINS_13SSD130xDriverILj128ELj64ENS_24SSD130x4WireSpiTransportEEEE4FillEb:
 124              	.LVL2:
 125              	.LFB2584:
 126              		.file 10 "../../libDaisy/src/hid/disp/oled_display.h"
   1:../../libDaisy/src/hid/disp/oled_display.h **** #pragma once
   2:../../libDaisy/src/hid/disp/oled_display.h **** #ifndef DSY_OLED_DISPLAY_H
   3:../../libDaisy/src/hid/disp/oled_display.h **** #define DSY_OLED_DISPLAY_H /**< Macro */
   4:../../libDaisy/src/hid/disp/oled_display.h **** 
   5:../../libDaisy/src/hid/disp/oled_display.h **** #include "display.h"
   6:../../libDaisy/src/hid/disp/oled_display.h **** 
   7:../../libDaisy/src/hid/disp/oled_display.h **** namespace daisy
   8:../../libDaisy/src/hid/disp/oled_display.h **** {
   9:../../libDaisy/src/hid/disp/oled_display.h **** /** 
  10:../../libDaisy/src/hid/disp/oled_display.h ****  * This class is for drawing to a monochrome OLED display. 
  11:../../libDaisy/src/hid/disp/oled_display.h ****  * @ingroup device
  12:../../libDaisy/src/hid/disp/oled_display.h **** */
  13:../../libDaisy/src/hid/disp/oled_display.h **** template <typename DisplayDriver>
  14:../../libDaisy/src/hid/disp/oled_display.h **** class OledDisplay : public OneBitGraphicsDisplayImpl<OledDisplay<DisplayDriver>>
  15:../../libDaisy/src/hid/disp/oled_display.h **** {
  16:../../libDaisy/src/hid/disp/oled_display.h ****   public:
ARM GAS  /var/folders/hl/qgbwny5j0fd895c2c41bk3tw0000gp/T//ccFqANMK.s 			page 12


  17:../../libDaisy/src/hid/disp/oled_display.h ****     OledDisplay() {}
  18:../../libDaisy/src/hid/disp/oled_display.h ****     virtual ~OledDisplay() {}
  19:../../libDaisy/src/hid/disp/oled_display.h **** 
  20:../../libDaisy/src/hid/disp/oled_display.h ****     struct Config
  21:../../libDaisy/src/hid/disp/oled_display.h ****     {
  22:../../libDaisy/src/hid/disp/oled_display.h ****         typename DisplayDriver::Config driver_config;
  23:../../libDaisy/src/hid/disp/oled_display.h ****     };
  24:../../libDaisy/src/hid/disp/oled_display.h **** 
  25:../../libDaisy/src/hid/disp/oled_display.h ****     void Init(Config config) { driver_.Init(config.driver_config); }
  26:../../libDaisy/src/hid/disp/oled_display.h **** 
  27:../../libDaisy/src/hid/disp/oled_display.h ****     uint16_t Height() const override { return driver_.Height(); }
  28:../../libDaisy/src/hid/disp/oled_display.h ****     uint16_t Width() const override { return driver_.Width(); }
  29:../../libDaisy/src/hid/disp/oled_display.h **** 
  30:../../libDaisy/src/hid/disp/oled_display.h ****     /** 
  31:../../libDaisy/src/hid/disp/oled_display.h ****     Fills the entire display with either on/off.
  32:../../libDaisy/src/hid/disp/oled_display.h ****     \param on Sets on or off.
  33:../../libDaisy/src/hid/disp/oled_display.h ****     */
  34:../../libDaisy/src/hid/disp/oled_display.h ****     void Fill(bool on) override { driver_.Fill(on); }
 127              		.loc 10 34 10 is_stmt 1 view -0
 128              		.cfi_startproc
 129              		@ args = 0, pretend = 0, frame = 0
 130              		@ frame_needed = 0, uses_anonymous_args = 0
 131              		@ link register save eliminated.
 132              	.LBB401:
 133              	.LBI401:
 134              		.file 11 "../../libDaisy/src/dev/oled_ssd130x.h"
   1:../../libDaisy/src/dev/oled_ssd130x.h **** #pragma once
   2:../../libDaisy/src/dev/oled_ssd130x.h **** #ifndef SA_OLED_SSD130X_H
   3:../../libDaisy/src/dev/oled_ssd130x.h **** #define SA_OLED_SSD130X_H /**< & */
   4:../../libDaisy/src/dev/oled_ssd130x.h **** 
   5:../../libDaisy/src/dev/oled_ssd130x.h **** #include "per/i2c.h"
   6:../../libDaisy/src/dev/oled_ssd130x.h **** #include "per/spi.h"
   7:../../libDaisy/src/dev/oled_ssd130x.h **** #include "per/gpio.h"
   8:../../libDaisy/src/dev/oled_ssd130x.h **** #include "sys/system.h"
   9:../../libDaisy/src/dev/oled_ssd130x.h **** 
  10:../../libDaisy/src/dev/oled_ssd130x.h **** namespace daisy
  11:../../libDaisy/src/dev/oled_ssd130x.h **** {
  12:../../libDaisy/src/dev/oled_ssd130x.h **** /**
  13:../../libDaisy/src/dev/oled_ssd130x.h ****  * I2C Transport for SSD1306 / SSD1309 OLED display devices
  14:../../libDaisy/src/dev/oled_ssd130x.h ****  */
  15:../../libDaisy/src/dev/oled_ssd130x.h **** class SSD130xI2CTransport
  16:../../libDaisy/src/dev/oled_ssd130x.h **** {
  17:../../libDaisy/src/dev/oled_ssd130x.h ****   public:
  18:../../libDaisy/src/dev/oled_ssd130x.h ****     struct Config
  19:../../libDaisy/src/dev/oled_ssd130x.h ****     {
  20:../../libDaisy/src/dev/oled_ssd130x.h ****         Config()
  21:../../libDaisy/src/dev/oled_ssd130x.h ****         {
  22:../../libDaisy/src/dev/oled_ssd130x.h ****             // Intialize using defaults
  23:../../libDaisy/src/dev/oled_ssd130x.h ****             Defaults();
  24:../../libDaisy/src/dev/oled_ssd130x.h ****         }
  25:../../libDaisy/src/dev/oled_ssd130x.h ****         I2CHandle::Config i2c_config;
  26:../../libDaisy/src/dev/oled_ssd130x.h ****         uint8_t           i2c_address;
  27:../../libDaisy/src/dev/oled_ssd130x.h ****         void              Defaults()
  28:../../libDaisy/src/dev/oled_ssd130x.h ****         {
  29:../../libDaisy/src/dev/oled_ssd130x.h ****             i2c_config.periph         = I2CHandle::Config::Peripheral::I2C_1;
  30:../../libDaisy/src/dev/oled_ssd130x.h ****             i2c_config.speed          = I2CHandle::Config::Speed::I2C_1MHZ;
  31:../../libDaisy/src/dev/oled_ssd130x.h ****             i2c_config.mode           = I2CHandle::Config::Mode::I2C_MASTER;
ARM GAS  /var/folders/hl/qgbwny5j0fd895c2c41bk3tw0000gp/T//ccFqANMK.s 			page 13


  32:../../libDaisy/src/dev/oled_ssd130x.h ****             i2c_config.pin_config.scl = {DSY_GPIOB, 8};
  33:../../libDaisy/src/dev/oled_ssd130x.h ****             i2c_config.pin_config.sda = {DSY_GPIOB, 9};
  34:../../libDaisy/src/dev/oled_ssd130x.h ****             i2c_address               = 0x3C;
  35:../../libDaisy/src/dev/oled_ssd130x.h ****         }
  36:../../libDaisy/src/dev/oled_ssd130x.h ****     };
  37:../../libDaisy/src/dev/oled_ssd130x.h ****     void Init(const Config& config)
  38:../../libDaisy/src/dev/oled_ssd130x.h ****     {
  39:../../libDaisy/src/dev/oled_ssd130x.h ****         i2c_address_ = config.i2c_address;
  40:../../libDaisy/src/dev/oled_ssd130x.h ****         i2c_.Init(config.i2c_config);
  41:../../libDaisy/src/dev/oled_ssd130x.h ****     };
  42:../../libDaisy/src/dev/oled_ssd130x.h ****     void SendCommand(uint8_t cmd)
  43:../../libDaisy/src/dev/oled_ssd130x.h ****     {
  44:../../libDaisy/src/dev/oled_ssd130x.h ****         uint8_t buf[2] = {0X00, cmd};
  45:../../libDaisy/src/dev/oled_ssd130x.h ****         i2c_.TransmitBlocking(i2c_address_, buf, 2, 1000);
  46:../../libDaisy/src/dev/oled_ssd130x.h ****     };
  47:../../libDaisy/src/dev/oled_ssd130x.h **** 
  48:../../libDaisy/src/dev/oled_ssd130x.h ****     void SendData(uint8_t* buff, size_t size)
  49:../../libDaisy/src/dev/oled_ssd130x.h ****     {
  50:../../libDaisy/src/dev/oled_ssd130x.h ****         for(size_t i = 0; i < size; i++)
  51:../../libDaisy/src/dev/oled_ssd130x.h ****         {
  52:../../libDaisy/src/dev/oled_ssd130x.h ****             uint8_t buf[2] = {0X40, buff[i]};
  53:../../libDaisy/src/dev/oled_ssd130x.h ****             i2c_.TransmitBlocking(i2c_address_, buf, 2, 1000);
  54:../../libDaisy/src/dev/oled_ssd130x.h ****         }
  55:../../libDaisy/src/dev/oled_ssd130x.h ****     };
  56:../../libDaisy/src/dev/oled_ssd130x.h **** 
  57:../../libDaisy/src/dev/oled_ssd130x.h ****   private:
  58:../../libDaisy/src/dev/oled_ssd130x.h ****     daisy::I2CHandle i2c_;
  59:../../libDaisy/src/dev/oled_ssd130x.h ****     uint8_t          i2c_address_;
  60:../../libDaisy/src/dev/oled_ssd130x.h **** };
  61:../../libDaisy/src/dev/oled_ssd130x.h **** 
  62:../../libDaisy/src/dev/oled_ssd130x.h **** /**
  63:../../libDaisy/src/dev/oled_ssd130x.h ****  * 4 Wire SPI Transport for SSD1306 / SSD1309 OLED display devices
  64:../../libDaisy/src/dev/oled_ssd130x.h ****  */
  65:../../libDaisy/src/dev/oled_ssd130x.h **** class SSD130x4WireSpiTransport
  66:../../libDaisy/src/dev/oled_ssd130x.h **** {
  67:../../libDaisy/src/dev/oled_ssd130x.h ****   public:
  68:../../libDaisy/src/dev/oled_ssd130x.h ****     struct Config
  69:../../libDaisy/src/dev/oled_ssd130x.h ****     {
  70:../../libDaisy/src/dev/oled_ssd130x.h ****         Config()
  71:../../libDaisy/src/dev/oled_ssd130x.h ****         {
  72:../../libDaisy/src/dev/oled_ssd130x.h ****             // Initialize using defaults
  73:../../libDaisy/src/dev/oled_ssd130x.h ****             Defaults();
  74:../../libDaisy/src/dev/oled_ssd130x.h ****         }
  75:../../libDaisy/src/dev/oled_ssd130x.h ****         SpiHandle::Config spi_config;
  76:../../libDaisy/src/dev/oled_ssd130x.h ****         struct
  77:../../libDaisy/src/dev/oled_ssd130x.h ****         {
  78:../../libDaisy/src/dev/oled_ssd130x.h ****             dsy_gpio_pin dc;    /**< & */
  79:../../libDaisy/src/dev/oled_ssd130x.h ****             dsy_gpio_pin reset; /**< & */
  80:../../libDaisy/src/dev/oled_ssd130x.h ****         } pin_config;
  81:../../libDaisy/src/dev/oled_ssd130x.h ****         void Defaults()
  82:../../libDaisy/src/dev/oled_ssd130x.h ****         {
  83:../../libDaisy/src/dev/oled_ssd130x.h ****             // SPI peripheral config
  84:../../libDaisy/src/dev/oled_ssd130x.h ****             spi_config.periph = SpiHandle::Config::Peripheral::SPI_1;
  85:../../libDaisy/src/dev/oled_ssd130x.h ****             spi_config.mode   = SpiHandle::Config::Mode::MASTER;
  86:../../libDaisy/src/dev/oled_ssd130x.h ****             spi_config.direction
  87:../../libDaisy/src/dev/oled_ssd130x.h ****                 = SpiHandle::Config::Direction::TWO_LINES_TX_ONLY;
  88:../../libDaisy/src/dev/oled_ssd130x.h ****             spi_config.datasize       = 8;
ARM GAS  /var/folders/hl/qgbwny5j0fd895c2c41bk3tw0000gp/T//ccFqANMK.s 			page 14


  89:../../libDaisy/src/dev/oled_ssd130x.h ****             spi_config.clock_polarity = SpiHandle::Config::ClockPolarity::LOW;
  90:../../libDaisy/src/dev/oled_ssd130x.h ****             spi_config.clock_phase    = SpiHandle::Config::ClockPhase::ONE_EDGE;
  91:../../libDaisy/src/dev/oled_ssd130x.h ****             spi_config.nss            = SpiHandle::Config::NSS::HARD_OUTPUT;
  92:../../libDaisy/src/dev/oled_ssd130x.h ****             spi_config.baud_prescaler = SpiHandle::Config::BaudPrescaler::PS_8;
  93:../../libDaisy/src/dev/oled_ssd130x.h ****             // SPI pin config
  94:../../libDaisy/src/dev/oled_ssd130x.h ****             spi_config.pin_config.sclk = {DSY_GPIOG, 11};
  95:../../libDaisy/src/dev/oled_ssd130x.h ****             spi_config.pin_config.miso = {DSY_GPIOX, 0};
  96:../../libDaisy/src/dev/oled_ssd130x.h ****             spi_config.pin_config.mosi = {DSY_GPIOB, 5};
  97:../../libDaisy/src/dev/oled_ssd130x.h ****             spi_config.pin_config.nss  = {DSY_GPIOG, 10};
  98:../../libDaisy/src/dev/oled_ssd130x.h ****             // SSD130x control pin config
  99:../../libDaisy/src/dev/oled_ssd130x.h ****             pin_config.dc    = {DSY_GPIOB, 4};
 100:../../libDaisy/src/dev/oled_ssd130x.h ****             pin_config.reset = {DSY_GPIOB, 15};
 101:../../libDaisy/src/dev/oled_ssd130x.h ****         }
 102:../../libDaisy/src/dev/oled_ssd130x.h ****     };
 103:../../libDaisy/src/dev/oled_ssd130x.h ****     void Init(const Config& config)
 104:../../libDaisy/src/dev/oled_ssd130x.h ****     {
 105:../../libDaisy/src/dev/oled_ssd130x.h ****         // Initialize both GPIO
 106:../../libDaisy/src/dev/oled_ssd130x.h ****         pin_dc_.mode = DSY_GPIO_MODE_OUTPUT_PP;
 107:../../libDaisy/src/dev/oled_ssd130x.h ****         pin_dc_.pin  = config.pin_config.dc;
 108:../../libDaisy/src/dev/oled_ssd130x.h ****         dsy_gpio_init(&pin_dc_);
 109:../../libDaisy/src/dev/oled_ssd130x.h ****         pin_reset_.mode = DSY_GPIO_MODE_OUTPUT_PP;
 110:../../libDaisy/src/dev/oled_ssd130x.h ****         pin_reset_.pin  = config.pin_config.reset;
 111:../../libDaisy/src/dev/oled_ssd130x.h ****         dsy_gpio_init(&pin_reset_);
 112:../../libDaisy/src/dev/oled_ssd130x.h **** 
 113:../../libDaisy/src/dev/oled_ssd130x.h ****         // Initialize SPI
 114:../../libDaisy/src/dev/oled_ssd130x.h ****         spi_.Init(config.spi_config);
 115:../../libDaisy/src/dev/oled_ssd130x.h **** 
 116:../../libDaisy/src/dev/oled_ssd130x.h ****         // Reset and Configure OLED.
 117:../../libDaisy/src/dev/oled_ssd130x.h ****         dsy_gpio_write(&pin_reset_, 0);
 118:../../libDaisy/src/dev/oled_ssd130x.h ****         System::Delay(10);
 119:../../libDaisy/src/dev/oled_ssd130x.h ****         dsy_gpio_write(&pin_reset_, 1);
 120:../../libDaisy/src/dev/oled_ssd130x.h ****         System::Delay(10);
 121:../../libDaisy/src/dev/oled_ssd130x.h ****     };
 122:../../libDaisy/src/dev/oled_ssd130x.h ****     void SendCommand(uint8_t cmd)
 123:../../libDaisy/src/dev/oled_ssd130x.h ****     {
 124:../../libDaisy/src/dev/oled_ssd130x.h ****         dsy_gpio_write(&pin_dc_, 0);
 125:../../libDaisy/src/dev/oled_ssd130x.h ****         spi_.BlockingTransmit(&cmd, 1);
 126:../../libDaisy/src/dev/oled_ssd130x.h ****     };
 127:../../libDaisy/src/dev/oled_ssd130x.h **** 
 128:../../libDaisy/src/dev/oled_ssd130x.h ****     void SendData(uint8_t* buff, size_t size)
 129:../../libDaisy/src/dev/oled_ssd130x.h ****     {
 130:../../libDaisy/src/dev/oled_ssd130x.h ****         dsy_gpio_write(&pin_dc_, 1);
 131:../../libDaisy/src/dev/oled_ssd130x.h ****         spi_.BlockingTransmit(buff, size);
 132:../../libDaisy/src/dev/oled_ssd130x.h ****     };
 133:../../libDaisy/src/dev/oled_ssd130x.h **** 
 134:../../libDaisy/src/dev/oled_ssd130x.h ****   private:
 135:../../libDaisy/src/dev/oled_ssd130x.h ****     SpiHandle spi_;
 136:../../libDaisy/src/dev/oled_ssd130x.h ****     dsy_gpio  pin_reset_;
 137:../../libDaisy/src/dev/oled_ssd130x.h ****     dsy_gpio  pin_dc_;
 138:../../libDaisy/src/dev/oled_ssd130x.h **** };
 139:../../libDaisy/src/dev/oled_ssd130x.h **** 
 140:../../libDaisy/src/dev/oled_ssd130x.h **** 
 141:../../libDaisy/src/dev/oled_ssd130x.h **** /**
 142:../../libDaisy/src/dev/oled_ssd130x.h ****  * A driver implementation for the SSD1306/SSD1309
 143:../../libDaisy/src/dev/oled_ssd130x.h ****  */
 144:../../libDaisy/src/dev/oled_ssd130x.h **** template <size_t width, size_t height, typename Transport>
 145:../../libDaisy/src/dev/oled_ssd130x.h **** class SSD130xDriver
ARM GAS  /var/folders/hl/qgbwny5j0fd895c2c41bk3tw0000gp/T//ccFqANMK.s 			page 15


 146:../../libDaisy/src/dev/oled_ssd130x.h **** {
 147:../../libDaisy/src/dev/oled_ssd130x.h ****   public:
 148:../../libDaisy/src/dev/oled_ssd130x.h ****     struct Config
 149:../../libDaisy/src/dev/oled_ssd130x.h ****     {
 150:../../libDaisy/src/dev/oled_ssd130x.h ****         typename Transport::Config transport_config;
 151:../../libDaisy/src/dev/oled_ssd130x.h ****     };
 152:../../libDaisy/src/dev/oled_ssd130x.h **** 
 153:../../libDaisy/src/dev/oled_ssd130x.h ****     void Init(Config config)
 154:../../libDaisy/src/dev/oled_ssd130x.h ****     {
 155:../../libDaisy/src/dev/oled_ssd130x.h ****         transport_.Init(config.transport_config);
 156:../../libDaisy/src/dev/oled_ssd130x.h **** 
 157:../../libDaisy/src/dev/oled_ssd130x.h ****         // Init routine...
 158:../../libDaisy/src/dev/oled_ssd130x.h **** 
 159:../../libDaisy/src/dev/oled_ssd130x.h ****         // Display Off
 160:../../libDaisy/src/dev/oled_ssd130x.h ****         transport_.SendCommand(0xaE);
 161:../../libDaisy/src/dev/oled_ssd130x.h ****         // Dimension dependent commands...
 162:../../libDaisy/src/dev/oled_ssd130x.h ****         switch(height)
 163:../../libDaisy/src/dev/oled_ssd130x.h ****         {
 164:../../libDaisy/src/dev/oled_ssd130x.h ****             case 16:
 165:../../libDaisy/src/dev/oled_ssd130x.h ****                 // Display Clock Divide Ratio
 166:../../libDaisy/src/dev/oled_ssd130x.h ****                 transport_.SendCommand(0xD5);
 167:../../libDaisy/src/dev/oled_ssd130x.h ****                 transport_.SendCommand(0x60);
 168:../../libDaisy/src/dev/oled_ssd130x.h ****                 // Multiplex Ratio
 169:../../libDaisy/src/dev/oled_ssd130x.h ****                 transport_.SendCommand(0xA8);
 170:../../libDaisy/src/dev/oled_ssd130x.h ****                 transport_.SendCommand(0x0F);
 171:../../libDaisy/src/dev/oled_ssd130x.h ****                 // COM Pins
 172:../../libDaisy/src/dev/oled_ssd130x.h ****                 transport_.SendCommand(0xDA);
 173:../../libDaisy/src/dev/oled_ssd130x.h ****                 transport_.SendCommand(0x02);
 174:../../libDaisy/src/dev/oled_ssd130x.h ****                 break;
 175:../../libDaisy/src/dev/oled_ssd130x.h ****             case 32:
 176:../../libDaisy/src/dev/oled_ssd130x.h ****                 // Display Clock Divide Ratio
 177:../../libDaisy/src/dev/oled_ssd130x.h ****                 transport_.SendCommand(0xD5);
 178:../../libDaisy/src/dev/oled_ssd130x.h ****                 transport_.SendCommand(0x80);
 179:../../libDaisy/src/dev/oled_ssd130x.h ****                 // Multiplex Ratio
 180:../../libDaisy/src/dev/oled_ssd130x.h ****                 transport_.SendCommand(0xA8);
 181:../../libDaisy/src/dev/oled_ssd130x.h ****                 transport_.SendCommand(0x1F);
 182:../../libDaisy/src/dev/oled_ssd130x.h ****                 // COM Pins
 183:../../libDaisy/src/dev/oled_ssd130x.h ****                 transport_.SendCommand(0xDA);
 184:../../libDaisy/src/dev/oled_ssd130x.h ****                 if(width == 64)
 185:../../libDaisy/src/dev/oled_ssd130x.h ****                 {
 186:../../libDaisy/src/dev/oled_ssd130x.h ****                     transport_.SendCommand(0x12);
 187:../../libDaisy/src/dev/oled_ssd130x.h ****                 }
 188:../../libDaisy/src/dev/oled_ssd130x.h ****                 else
 189:../../libDaisy/src/dev/oled_ssd130x.h ****                 {
 190:../../libDaisy/src/dev/oled_ssd130x.h ****                     transport_.SendCommand(0x02);
 191:../../libDaisy/src/dev/oled_ssd130x.h ****                 }
 192:../../libDaisy/src/dev/oled_ssd130x.h **** 
 193:../../libDaisy/src/dev/oled_ssd130x.h ****                 break;
 194:../../libDaisy/src/dev/oled_ssd130x.h ****             case 48:
 195:../../libDaisy/src/dev/oled_ssd130x.h ****                 // Display Clock Divide Ratio
 196:../../libDaisy/src/dev/oled_ssd130x.h ****                 transport_.SendCommand(0xD5);
 197:../../libDaisy/src/dev/oled_ssd130x.h ****                 transport_.SendCommand(0x80);
 198:../../libDaisy/src/dev/oled_ssd130x.h ****                 // Multiplex Ratio
 199:../../libDaisy/src/dev/oled_ssd130x.h ****                 transport_.SendCommand(0xA8);
 200:../../libDaisy/src/dev/oled_ssd130x.h ****                 transport_.SendCommand(0x2F);
 201:../../libDaisy/src/dev/oled_ssd130x.h ****                 // COM Pins
 202:../../libDaisy/src/dev/oled_ssd130x.h ****                 transport_.SendCommand(0xDA);
ARM GAS  /var/folders/hl/qgbwny5j0fd895c2c41bk3tw0000gp/T//ccFqANMK.s 			page 16


 203:../../libDaisy/src/dev/oled_ssd130x.h ****                 transport_.SendCommand(0x12);
 204:../../libDaisy/src/dev/oled_ssd130x.h ****                 break;
 205:../../libDaisy/src/dev/oled_ssd130x.h ****             default: // 128
 206:../../libDaisy/src/dev/oled_ssd130x.h ****                 // Display Clock Divide Ratio
 207:../../libDaisy/src/dev/oled_ssd130x.h ****                 transport_.SendCommand(0xD5);
 208:../../libDaisy/src/dev/oled_ssd130x.h ****                 transport_.SendCommand(0x80);
 209:../../libDaisy/src/dev/oled_ssd130x.h ****                 // Multiplex Ratio
 210:../../libDaisy/src/dev/oled_ssd130x.h ****                 transport_.SendCommand(0xA8);
 211:../../libDaisy/src/dev/oled_ssd130x.h ****                 transport_.SendCommand(0x3F);
 212:../../libDaisy/src/dev/oled_ssd130x.h ****                 // COM Pins
 213:../../libDaisy/src/dev/oled_ssd130x.h ****                 transport_.SendCommand(0xDA);
 214:../../libDaisy/src/dev/oled_ssd130x.h ****                 transport_.SendCommand(0x12);
 215:../../libDaisy/src/dev/oled_ssd130x.h ****                 break;
 216:../../libDaisy/src/dev/oled_ssd130x.h ****         }
 217:../../libDaisy/src/dev/oled_ssd130x.h **** 
 218:../../libDaisy/src/dev/oled_ssd130x.h ****         // Display Offset
 219:../../libDaisy/src/dev/oled_ssd130x.h ****         transport_.SendCommand(0xD3);
 220:../../libDaisy/src/dev/oled_ssd130x.h ****         transport_.SendCommand(0x00);
 221:../../libDaisy/src/dev/oled_ssd130x.h ****         // Start Line Address
 222:../../libDaisy/src/dev/oled_ssd130x.h ****         transport_.SendCommand(0x40);
 223:../../libDaisy/src/dev/oled_ssd130x.h ****         // Normal Display
 224:../../libDaisy/src/dev/oled_ssd130x.h ****         transport_.SendCommand(0xA6);
 225:../../libDaisy/src/dev/oled_ssd130x.h ****         // All On Resume
 226:../../libDaisy/src/dev/oled_ssd130x.h ****         transport_.SendCommand(0xA4);
 227:../../libDaisy/src/dev/oled_ssd130x.h ****         // Charge Pump
 228:../../libDaisy/src/dev/oled_ssd130x.h ****         transport_.SendCommand(0x8D);
 229:../../libDaisy/src/dev/oled_ssd130x.h ****         transport_.SendCommand(0x14);
 230:../../libDaisy/src/dev/oled_ssd130x.h ****         // Set Segment Remap
 231:../../libDaisy/src/dev/oled_ssd130x.h ****         transport_.SendCommand(0xA1);
 232:../../libDaisy/src/dev/oled_ssd130x.h ****         // COM Output Scan Direction
 233:../../libDaisy/src/dev/oled_ssd130x.h ****         transport_.SendCommand(0xC8);
 234:../../libDaisy/src/dev/oled_ssd130x.h ****         // Contrast Control
 235:../../libDaisy/src/dev/oled_ssd130x.h ****         transport_.SendCommand(0x81);
 236:../../libDaisy/src/dev/oled_ssd130x.h ****         transport_.SendCommand(0x8F);
 237:../../libDaisy/src/dev/oled_ssd130x.h ****         // Pre Charge
 238:../../libDaisy/src/dev/oled_ssd130x.h ****         transport_.SendCommand(0xD9);
 239:../../libDaisy/src/dev/oled_ssd130x.h ****         transport_.SendCommand(0x25);
 240:../../libDaisy/src/dev/oled_ssd130x.h ****         // VCOM Detect
 241:../../libDaisy/src/dev/oled_ssd130x.h ****         transport_.SendCommand(0xDB);
 242:../../libDaisy/src/dev/oled_ssd130x.h ****         transport_.SendCommand(0x34);
 243:../../libDaisy/src/dev/oled_ssd130x.h **** 
 244:../../libDaisy/src/dev/oled_ssd130x.h **** 
 245:../../libDaisy/src/dev/oled_ssd130x.h ****         // Display On
 246:../../libDaisy/src/dev/oled_ssd130x.h ****         transport_.SendCommand(0xAF); //--turn on oled panel
 247:../../libDaisy/src/dev/oled_ssd130x.h ****     };
 248:../../libDaisy/src/dev/oled_ssd130x.h **** 
 249:../../libDaisy/src/dev/oled_ssd130x.h ****     size_t Width() const { return width; };
 250:../../libDaisy/src/dev/oled_ssd130x.h ****     size_t Height() const { return height; };
 251:../../libDaisy/src/dev/oled_ssd130x.h **** 
 252:../../libDaisy/src/dev/oled_ssd130x.h ****     void DrawPixel(uint_fast8_t x, uint_fast8_t y, bool on)
 253:../../libDaisy/src/dev/oled_ssd130x.h ****     {
 254:../../libDaisy/src/dev/oled_ssd130x.h ****         if(x >= width || y >= height)
 255:../../libDaisy/src/dev/oled_ssd130x.h ****             return;
 256:../../libDaisy/src/dev/oled_ssd130x.h ****         if(on)
 257:../../libDaisy/src/dev/oled_ssd130x.h ****             buffer_[x + (y / 8) * width] |= (1 << (y % 8));
 258:../../libDaisy/src/dev/oled_ssd130x.h ****         else
 259:../../libDaisy/src/dev/oled_ssd130x.h ****             buffer_[x + (y / 8) * width] &= ~(1 << (y % 8));
ARM GAS  /var/folders/hl/qgbwny5j0fd895c2c41bk3tw0000gp/T//ccFqANMK.s 			page 17


 260:../../libDaisy/src/dev/oled_ssd130x.h ****     }
 261:../../libDaisy/src/dev/oled_ssd130x.h **** 
 262:../../libDaisy/src/dev/oled_ssd130x.h ****     void Fill(bool on)
 135              		.loc 11 262 10 view .LVU21
 136              	.LBB402:
 263:../../libDaisy/src/dev/oled_ssd130x.h ****     {
 264:../../libDaisy/src/dev/oled_ssd130x.h ****         for(size_t i = 0; i < sizeof(buffer_); i++)
 137              		.loc 11 264 29 view .LVU22
 265:../../libDaisy/src/dev/oled_ssd130x.h ****         {
 266:../../libDaisy/src/dev/oled_ssd130x.h ****             buffer_[i] = on ? 0xff : 0x00;
 138              		.loc 11 266 24 is_stmt 0 view .LVU23
 139 0000 4942     		rsbs	r1, r1, #0
 140              	.LVL3:
 141              		.loc 11 266 24 view .LVU24
 142 0002 4FF48062 		mov	r2, #1024
 143 0006 1430     		adds	r0, r0, #20
 144              	.LVL4:
 145              		.loc 11 266 24 view .LVU25
 146 0008 C9B2     		uxtb	r1, r1
 147 000a FFF7FEBF 		b	memset
 148              	.LVL5:
 149              		.loc 11 266 24 view .LVU26
 150              	.LBE402:
 151              	.LBE401:
 152              		.cfi_endproc
 153              	.LFE2584:
 155 000e 00BF     		.section	.text._ZN5daisy11OledDisplayINS_13SSD130xDriverILj128ELj64ENS_24SSD130x4WireSpiTransportE
 156              		.align	1
 157              		.p2align 2,,3
 158              		.weak	_ZN5daisy11OledDisplayINS_13SSD130xDriverILj128ELj64ENS_24SSD130x4WireSpiTransportEEEED2Ev
 159              		.syntax unified
 160              		.thumb
 161              		.thumb_func
 162              		.fpu fpv5-d16
 164              	_ZN5daisy11OledDisplayINS_13SSD130xDriverILj128ELj64ENS_24SSD130x4WireSpiTransportEEEED2Ev:
 165              	.LVL6:
 166              	.LFB2607:
  18:../../libDaisy/src/hid/disp/oled_display.h **** 
 167              		.loc 10 18 13 is_stmt 1 view -0
 168              		.cfi_startproc
 169              		@ args = 0, pretend = 0, frame = 0
 170              		@ frame_needed = 0, uses_anonymous_args = 0
 171              		@ link register save eliminated.
 172              	.LBB403:
 173              	.LBI403:
 174              		.file 12 "../../libDaisy/src/hid/disp/display.h"
   1:../../libDaisy/src/hid/disp/display.h **** #pragma once
   2:../../libDaisy/src/hid/disp/display.h **** #ifndef DSY_DISPLAY_H
   3:../../libDaisy/src/hid/disp/display.h **** #define DSY_DISPLAY_H /**< Macro */
   4:../../libDaisy/src/hid/disp/display.h **** #include <cmath>
   5:../../libDaisy/src/hid/disp/display.h **** #include "util/oled_fonts.h"
   6:../../libDaisy/src/hid/disp/display.h **** #include "daisy_core.h"
   7:../../libDaisy/src/hid/disp/display.h **** #include "graphics_common.h"
   8:../../libDaisy/src/hid/disp/display.h **** 
   9:../../libDaisy/src/hid/disp/display.h **** #ifndef deg2rad
  10:../../libDaisy/src/hid/disp/display.h **** #define deg2rad(deg) ((deg)*3.141592 / 180.0)
  11:../../libDaisy/src/hid/disp/display.h **** #endif
ARM GAS  /var/folders/hl/qgbwny5j0fd895c2c41bk3tw0000gp/T//ccFqANMK.s 			page 18


  12:../../libDaisy/src/hid/disp/display.h **** 
  13:../../libDaisy/src/hid/disp/display.h **** namespace daisy
  14:../../libDaisy/src/hid/disp/display.h **** {
  15:../../libDaisy/src/hid/disp/display.h **** /** 
  16:../../libDaisy/src/hid/disp/display.h ****  * This interface is used as a base class for all types of 1bit-per-pixel
  17:../../libDaisy/src/hid/disp/display.h ****  * graphics displays.
  18:../../libDaisy/src/hid/disp/display.h **** */
  19:../../libDaisy/src/hid/disp/display.h **** class OneBitGraphicsDisplay
  20:../../libDaisy/src/hid/disp/display.h **** {
  21:../../libDaisy/src/hid/disp/display.h ****   public:
  22:../../libDaisy/src/hid/disp/display.h ****     OneBitGraphicsDisplay() {}
  23:../../libDaisy/src/hid/disp/display.h ****     virtual ~OneBitGraphicsDisplay() {}
  24:../../libDaisy/src/hid/disp/display.h **** 
  25:../../libDaisy/src/hid/disp/display.h ****     virtual uint16_t Height() const = 0;
  26:../../libDaisy/src/hid/disp/display.h ****     virtual uint16_t Width() const  = 0;
  27:../../libDaisy/src/hid/disp/display.h **** 
  28:../../libDaisy/src/hid/disp/display.h ****     Rectangle GetBounds() const
  29:../../libDaisy/src/hid/disp/display.h ****     {
  30:../../libDaisy/src/hid/disp/display.h ****         return Rectangle(int16_t(Width()), int16_t(Height()));
  31:../../libDaisy/src/hid/disp/display.h ****     }
  32:../../libDaisy/src/hid/disp/display.h **** 
  33:../../libDaisy/src/hid/disp/display.h **** 
  34:../../libDaisy/src/hid/disp/display.h ****     size_t CurrentX() { return currentX_; };
  35:../../libDaisy/src/hid/disp/display.h ****     size_t CurrentY() { return currentY_; };
  36:../../libDaisy/src/hid/disp/display.h **** 
  37:../../libDaisy/src/hid/disp/display.h ****     /** 
  38:../../libDaisy/src/hid/disp/display.h ****     Fills the entire display with either on/off.
  39:../../libDaisy/src/hid/disp/display.h ****     \param on Sets on or off.
  40:../../libDaisy/src/hid/disp/display.h ****     */
  41:../../libDaisy/src/hid/disp/display.h ****     virtual void Fill(bool on) = 0;
  42:../../libDaisy/src/hid/disp/display.h **** 
  43:../../libDaisy/src/hid/disp/display.h ****     /**
  44:../../libDaisy/src/hid/disp/display.h ****     Sets the pixel at the specified coordinate to be on/off.
  45:../../libDaisy/src/hid/disp/display.h ****     \param x   x Coordinate
  46:../../libDaisy/src/hid/disp/display.h ****     \param y   y coordinate
  47:../../libDaisy/src/hid/disp/display.h ****     \param on  on or off
  48:../../libDaisy/src/hid/disp/display.h ****     */
  49:../../libDaisy/src/hid/disp/display.h ****     virtual void DrawPixel(uint_fast8_t x, uint_fast8_t y, bool on) = 0;
  50:../../libDaisy/src/hid/disp/display.h **** 
  51:../../libDaisy/src/hid/disp/display.h ****     /**
  52:../../libDaisy/src/hid/disp/display.h ****     Draws a line from (x1, y1) to (y1, y2)
  53:../../libDaisy/src/hid/disp/display.h ****     \param x1  x Coordinate of the starting point
  54:../../libDaisy/src/hid/disp/display.h ****     \param y1  y Coordinate of the starting point
  55:../../libDaisy/src/hid/disp/display.h ****     \param x2  x Coordinate of the ending point
  56:../../libDaisy/src/hid/disp/display.h ****     \param y2  y Coordinate of the ending point
  57:../../libDaisy/src/hid/disp/display.h ****     \param on  on or off
  58:../../libDaisy/src/hid/disp/display.h ****     */
  59:../../libDaisy/src/hid/disp/display.h ****     virtual void DrawLine(uint_fast8_t x1,
  60:../../libDaisy/src/hid/disp/display.h ****                           uint_fast8_t y1,
  61:../../libDaisy/src/hid/disp/display.h ****                           uint_fast8_t x2,
  62:../../libDaisy/src/hid/disp/display.h ****                           uint_fast8_t y2,
  63:../../libDaisy/src/hid/disp/display.h ****                           bool         on)
  64:../../libDaisy/src/hid/disp/display.h ****         = 0;
  65:../../libDaisy/src/hid/disp/display.h **** 
  66:../../libDaisy/src/hid/disp/display.h ****     /**
  67:../../libDaisy/src/hid/disp/display.h ****     Draws a rectangle based on two coordinates.
  68:../../libDaisy/src/hid/disp/display.h ****     \param x1 x Coordinate of the first point
ARM GAS  /var/folders/hl/qgbwny5j0fd895c2c41bk3tw0000gp/T//ccFqANMK.s 			page 19


  69:../../libDaisy/src/hid/disp/display.h ****     \param y1 y Coordinate of the first point
  70:../../libDaisy/src/hid/disp/display.h ****     \param x2 x Coordinate of the second point
  71:../../libDaisy/src/hid/disp/display.h ****     \param y2 y Coordinate of the second point
  72:../../libDaisy/src/hid/disp/display.h ****     \param on on or off
  73:../../libDaisy/src/hid/disp/display.h ****     \param fill fill the rectangle or draw only the outline
  74:../../libDaisy/src/hid/disp/display.h ****     */
  75:../../libDaisy/src/hid/disp/display.h ****     virtual void DrawRect(uint_fast8_t x1,
  76:../../libDaisy/src/hid/disp/display.h ****                           uint_fast8_t y1,
  77:../../libDaisy/src/hid/disp/display.h ****                           uint_fast8_t x2,
  78:../../libDaisy/src/hid/disp/display.h ****                           uint_fast8_t y2,
  79:../../libDaisy/src/hid/disp/display.h ****                           bool         on,
  80:../../libDaisy/src/hid/disp/display.h ****                           bool         fill = false)
  81:../../libDaisy/src/hid/disp/display.h ****         = 0;
  82:../../libDaisy/src/hid/disp/display.h **** 
  83:../../libDaisy/src/hid/disp/display.h ****     /**
  84:../../libDaisy/src/hid/disp/display.h ****     Draws a rectangle.
  85:../../libDaisy/src/hid/disp/display.h ****     \param rect the rectangle
  86:../../libDaisy/src/hid/disp/display.h ****     \param on   on or off
  87:../../libDaisy/src/hid/disp/display.h ****     \param fill fill the rectangle or draw only the outline
  88:../../libDaisy/src/hid/disp/display.h ****     */
  89:../../libDaisy/src/hid/disp/display.h ****     void DrawRect(const Rectangle& rect, bool on, bool fill = false)
  90:../../libDaisy/src/hid/disp/display.h ****     {
  91:../../libDaisy/src/hid/disp/display.h ****         DrawRect(rect.GetX(),
  92:../../libDaisy/src/hid/disp/display.h ****                  rect.GetY(),
  93:../../libDaisy/src/hid/disp/display.h ****                  rect.GetRight(),
  94:../../libDaisy/src/hid/disp/display.h ****                  rect.GetBottom(),
  95:../../libDaisy/src/hid/disp/display.h ****                  on,
  96:../../libDaisy/src/hid/disp/display.h ****                  fill);
  97:../../libDaisy/src/hid/disp/display.h ****     }
  98:../../libDaisy/src/hid/disp/display.h **** 
  99:../../libDaisy/src/hid/disp/display.h ****     /**
 100:../../libDaisy/src/hid/disp/display.h ****     Draws an arc around the specified coordinate
 101:../../libDaisy/src/hid/disp/display.h ****     \param x           x Coordinate of the center of the arc
 102:../../libDaisy/src/hid/disp/display.h ****     \param y           y Coordinate of the center of the arc
 103:../../libDaisy/src/hid/disp/display.h ****     \param radius      radius of the arc
 104:../../libDaisy/src/hid/disp/display.h ****     \param start_angle angle where to start the arc
 105:../../libDaisy/src/hid/disp/display.h ****     \param sweep       total angle of the arc
 106:../../libDaisy/src/hid/disp/display.h ****     \param on  on or off
 107:../../libDaisy/src/hid/disp/display.h ****     */
 108:../../libDaisy/src/hid/disp/display.h ****     virtual void DrawArc(uint_fast8_t x,
 109:../../libDaisy/src/hid/disp/display.h ****                          uint_fast8_t y,
 110:../../libDaisy/src/hid/disp/display.h ****                          uint_fast8_t radius,
 111:../../libDaisy/src/hid/disp/display.h ****                          int_fast16_t start_angle,
 112:../../libDaisy/src/hid/disp/display.h ****                          int_fast16_t sweep,
 113:../../libDaisy/src/hid/disp/display.h ****                          bool         on)
 114:../../libDaisy/src/hid/disp/display.h ****         = 0;
 115:../../libDaisy/src/hid/disp/display.h **** 
 116:../../libDaisy/src/hid/disp/display.h ****     /**
 117:../../libDaisy/src/hid/disp/display.h ****     Draws a circle around the specified coordinate
 118:../../libDaisy/src/hid/disp/display.h ****     \param x           x Coordinate of the center of the circle
 119:../../libDaisy/src/hid/disp/display.h ****     \param y           y Coordinate of the center of the circle
 120:../../libDaisy/src/hid/disp/display.h ****     \param radius      radius of the circle
 121:../../libDaisy/src/hid/disp/display.h ****     \param on  on or off
 122:../../libDaisy/src/hid/disp/display.h ****     */
 123:../../libDaisy/src/hid/disp/display.h ****     void
 124:../../libDaisy/src/hid/disp/display.h ****     DrawCircle(uint_fast8_t x, uint_fast8_t y, uint_fast8_t radius, bool on)
 125:../../libDaisy/src/hid/disp/display.h ****     {
ARM GAS  /var/folders/hl/qgbwny5j0fd895c2c41bk3tw0000gp/T//ccFqANMK.s 			page 20


 126:../../libDaisy/src/hid/disp/display.h ****         DrawArc(x, y, radius, 0, 360, on);
 127:../../libDaisy/src/hid/disp/display.h ****     };
 128:../../libDaisy/src/hid/disp/display.h **** 
 129:../../libDaisy/src/hid/disp/display.h ****     /** 
 130:../../libDaisy/src/hid/disp/display.h ****     Writes the character with the specific FontDef
 131:../../libDaisy/src/hid/disp/display.h ****     to the display buffer at the current Cursor position.
 132:../../libDaisy/src/hid/disp/display.h ****     \param ch character to be written
 133:../../libDaisy/src/hid/disp/display.h ****     \param font font to be written in
 134:../../libDaisy/src/hid/disp/display.h ****     \param on    on or off
 135:../../libDaisy/src/hid/disp/display.h ****     \return &
 136:../../libDaisy/src/hid/disp/display.h ****     */
 137:../../libDaisy/src/hid/disp/display.h ****     virtual char WriteChar(char ch, FontDef font, bool on) = 0;
 138:../../libDaisy/src/hid/disp/display.h **** 
 139:../../libDaisy/src/hid/disp/display.h ****     /** 
 140:../../libDaisy/src/hid/disp/display.h ****     Similar to WriteChar, except it will handle an entire String.
 141:../../libDaisy/src/hid/disp/display.h ****     Wrapping does not happen automatically, so the width
 142:../../libDaisy/src/hid/disp/display.h ****     of the string must be kept within the dimensions of the screen.
 143:../../libDaisy/src/hid/disp/display.h ****     \param str string to be written
 144:../../libDaisy/src/hid/disp/display.h ****     \param font font to use
 145:../../libDaisy/src/hid/disp/display.h ****     \param on  on or off
 146:../../libDaisy/src/hid/disp/display.h ****     \return &
 147:../../libDaisy/src/hid/disp/display.h ****     */
 148:../../libDaisy/src/hid/disp/display.h ****     virtual char WriteString(const char* str, FontDef font, bool on) = 0;
 149:../../libDaisy/src/hid/disp/display.h **** 
 150:../../libDaisy/src/hid/disp/display.h ****     /** 
 151:../../libDaisy/src/hid/disp/display.h ****     Similar to WriteString but justified within a bounding box.
 152:../../libDaisy/src/hid/disp/display.h ****     \param str          string to be written
 153:../../libDaisy/src/hid/disp/display.h ****     \param font         font to use
 154:../../libDaisy/src/hid/disp/display.h ****     \param boundingBox  the bounding box to draw the text in
 155:../../libDaisy/src/hid/disp/display.h ****     \param alignment    the alignment to use
 156:../../libDaisy/src/hid/disp/display.h ****     \param on           on or off
 157:../../libDaisy/src/hid/disp/display.h ****     \return The rectangle that was drawn to
 158:../../libDaisy/src/hid/disp/display.h ****     */
 159:../../libDaisy/src/hid/disp/display.h ****     virtual Rectangle WriteStringAligned(const char*    str,
 160:../../libDaisy/src/hid/disp/display.h ****                                          const FontDef& font,
 161:../../libDaisy/src/hid/disp/display.h ****                                          Rectangle      boundingBox,
 162:../../libDaisy/src/hid/disp/display.h ****                                          Alignment      alignment,
 163:../../libDaisy/src/hid/disp/display.h ****                                          bool           on)
 164:../../libDaisy/src/hid/disp/display.h ****         = 0;
 165:../../libDaisy/src/hid/disp/display.h **** 
 166:../../libDaisy/src/hid/disp/display.h ****     /** 
 167:../../libDaisy/src/hid/disp/display.h ****     Moves the 'Cursor' position used for WriteChar, and WriteStr to the specified coordinate.
 168:../../libDaisy/src/hid/disp/display.h ****     \param x x pos
 169:../../libDaisy/src/hid/disp/display.h ****     \param y y pos
 170:../../libDaisy/src/hid/disp/display.h ****     */
 171:../../libDaisy/src/hid/disp/display.h ****     void SetCursor(uint16_t x, uint16_t y)
 172:../../libDaisy/src/hid/disp/display.h ****     {
 173:../../libDaisy/src/hid/disp/display.h ****         currentX_ = (x >= Width()) ? Width() - 1 : x;
 174:../../libDaisy/src/hid/disp/display.h ****         currentY_ = (y >= Height()) ? Height() - 1 : y;
 175:../../libDaisy/src/hid/disp/display.h ****     }
 176:../../libDaisy/src/hid/disp/display.h **** 
 177:../../libDaisy/src/hid/disp/display.h ****     /** 
 178:../../libDaisy/src/hid/disp/display.h ****     Writes the current display buffer to the OLED device using SPI or I2C depending on 
 179:../../libDaisy/src/hid/disp/display.h ****     how the object was initialized.
 180:../../libDaisy/src/hid/disp/display.h ****     */
 181:../../libDaisy/src/hid/disp/display.h ****     virtual void Update() = 0;
 182:../../libDaisy/src/hid/disp/display.h **** 
ARM GAS  /var/folders/hl/qgbwny5j0fd895c2c41bk3tw0000gp/T//ccFqANMK.s 			page 21


 183:../../libDaisy/src/hid/disp/display.h ****   protected:
 184:../../libDaisy/src/hid/disp/display.h ****     uint16_t currentX_;
 185:../../libDaisy/src/hid/disp/display.h ****     uint16_t currentY_;
 186:../../libDaisy/src/hid/disp/display.h **** };
 187:../../libDaisy/src/hid/disp/display.h **** 
 188:../../libDaisy/src/hid/disp/display.h **** /** This class is intended as a intermediary class for your actual implementation of the OneBitGrap
 189:../../libDaisy/src/hid/disp/display.h ****  *  interface. It uses the CRTP design pattern where the template argument is the child class. It p
 190:../../libDaisy/src/hid/disp/display.h ****  *  implementations for most of the functions, except DrawPixel(), Update() and Fill(), which you'l
 191:../../libDaisy/src/hid/disp/display.h ****  *  to provide in your child class.
 192:../../libDaisy/src/hid/disp/display.h ****  *  The main goal of this class is to provide common drawing functions without relying on massive a
 193:../../libDaisy/src/hid/disp/display.h ****  *  virtual function calls that would result in a performance loss. To achieve this, any drawing fu
 194:../../libDaisy/src/hid/disp/display.h ****  *  is implemented here and internally calls other drawing functions (e.g. DrawRect() which interna
 195:../../libDaisy/src/hid/disp/display.h ****  *  DrawPixel() and DrawLine()) makes these calls via the qualified name of these functions to expl
 196:../../libDaisy/src/hid/disp/display.h ****  *  suppress the virtual dispatch mechanism like this:
 197:../../libDaisy/src/hid/disp/display.h ****  * 
 198:../../libDaisy/src/hid/disp/display.h ****  *      ChildType::DrawPixel(...); // no virtual function call; direct call into the child class fu
 199:../../libDaisy/src/hid/disp/display.h ****  *  
 200:../../libDaisy/src/hid/disp/display.h ****  *  To create a custom OneBitGraphicsDisplay implementation, you can 
 201:../../libDaisy/src/hid/disp/display.h ****  *  A) inherit from OneBitGraphicsDisplay directly and provide all the drawing functions yourself
 202:../../libDaisy/src/hid/disp/display.h ****  *  B) Inherit from OneBitGraphicsDisplayImpl and only provide DrawPixel(), Fill() and Update()
 203:../../libDaisy/src/hid/disp/display.h ****  *     like this:
 204:../../libDaisy/src/hid/disp/display.h ****  *  
 205:../../libDaisy/src/hid/disp/display.h ****  *      class MyDisplayClass : public OneBitGraphicsDisplayImpl<MyDisplayClass> 
 206:../../libDaisy/src/hid/disp/display.h ****  *      {
 207:../../libDaisy/src/hid/disp/display.h ****  *      public:
 208:../../libDaisy/src/hid/disp/display.h ****  *          void Fill() override { ... };
 209:../../libDaisy/src/hid/disp/display.h ****  *          void DrawPixel(uint_fast8_t x, uint_fast8_t y, bool on) override { ... };
 210:../../libDaisy/src/hid/disp/display.h ****  *          void Update() override { ... }
 211:../../libDaisy/src/hid/disp/display.h ****  *      };
 212:../../libDaisy/src/hid/disp/display.h ****  *  
 213:../../libDaisy/src/hid/disp/display.h ****  */
 214:../../libDaisy/src/hid/disp/display.h **** template <class ChildType>
 215:../../libDaisy/src/hid/disp/display.h **** class OneBitGraphicsDisplayImpl : public OneBitGraphicsDisplay
 216:../../libDaisy/src/hid/disp/display.h **** {
 217:../../libDaisy/src/hid/disp/display.h ****   public:
 218:../../libDaisy/src/hid/disp/display.h ****     OneBitGraphicsDisplayImpl() {}
 219:../../libDaisy/src/hid/disp/display.h ****     virtual ~OneBitGraphicsDisplayImpl() {}
 175              		.loc 12 219 13 view .LVU28
 176              	.LBB404:
 177              	.LBI404:
  23:../../libDaisy/src/hid/disp/display.h **** 
 178              		.loc 12 23 13 view .LVU29
  23:../../libDaisy/src/hid/disp/display.h **** 
 179              		.loc 12 23 13 is_stmt 0 view .LVU30
 180              	.LBE404:
 181              	.LBE403:
  18:../../libDaisy/src/hid/disp/oled_display.h **** 
 182              		.loc 10 18 29 view .LVU31
 183 0000 7047     		bx	lr
 184              		.cfi_endproc
 185              	.LFE2607:
 187              		.weak	_ZN5daisy11OledDisplayINS_13SSD130xDriverILj128ELj64ENS_24SSD130x4WireSpiTransportEEEED1Ev
 188              		.thumb_set _ZN5daisy11OledDisplayINS_13SSD130xDriverILj128ELj64ENS_24SSD130x4WireSpiTransportEEEED
 189 0002 00BF     		.section	.text._ZNK5daisy11OledDisplayINS_13SSD130xDriverILj128ELj64ENS_24SSD130x4WireSpiTransport
 190              		.align	1
 191              		.p2align 2,,3
 192              		.weak	_ZNK5daisy11OledDisplayINS_13SSD130xDriverILj128ELj64ENS_24SSD130x4WireSpiTransportEEEE6Heig
ARM GAS  /var/folders/hl/qgbwny5j0fd895c2c41bk3tw0000gp/T//ccFqANMK.s 			page 22


 193              		.syntax unified
 194              		.thumb
 195              		.thumb_func
 196              		.fpu fpv5-d16
 198              	_ZNK5daisy11OledDisplayINS_13SSD130xDriverILj128ELj64ENS_24SSD130x4WireSpiTransportEEEE6HeightEv:
 199              	.LVL7:
 200              	.LFB2610:
  27:../../libDaisy/src/hid/disp/oled_display.h ****     uint16_t Width() const override { return driver_.Width(); }
 201              		.loc 10 27 14 is_stmt 1 view -0
 202              		.cfi_startproc
 203              		@ args = 0, pretend = 0, frame = 0
 204              		@ frame_needed = 0, uses_anonymous_args = 0
 205              		@ link register save eliminated.
  27:../../libDaisy/src/hid/disp/oled_display.h ****     uint16_t Width() const override { return driver_.Width(); }
 206              		.loc 10 27 65 is_stmt 0 view .LVU33
 207 0000 4020     		movs	r0, #64
 208              	.LVL8:
  27:../../libDaisy/src/hid/disp/oled_display.h ****     uint16_t Width() const override { return driver_.Width(); }
 209              		.loc 10 27 65 view .LVU34
 210 0002 7047     		bx	lr
 211              		.cfi_endproc
 212              	.LFE2610:
 214              		.section	.text._ZNK5daisy11OledDisplayINS_13SSD130xDriverILj128ELj64ENS_24SSD130x4WireSpiTransport
 215              		.align	1
 216              		.p2align 2,,3
 217              		.weak	_ZNK5daisy11OledDisplayINS_13SSD130xDriverILj128ELj64ENS_24SSD130x4WireSpiTransportEEEE5Widt
 218              		.syntax unified
 219              		.thumb
 220              		.thumb_func
 221              		.fpu fpv5-d16
 223              	_ZNK5daisy11OledDisplayINS_13SSD130xDriverILj128ELj64ENS_24SSD130x4WireSpiTransportEEEE5WidthEv:
 224              	.LVL9:
 225              	.LFB2611:
  28:../../libDaisy/src/hid/disp/oled_display.h **** 
 226              		.loc 10 28 14 is_stmt 1 view -0
 227              		.cfi_startproc
 228              		@ args = 0, pretend = 0, frame = 0
 229              		@ frame_needed = 0, uses_anonymous_args = 0
 230              		@ link register save eliminated.
  28:../../libDaisy/src/hid/disp/oled_display.h **** 
 231              		.loc 10 28 63 is_stmt 0 view .LVU36
 232 0000 8020     		movs	r0, #128
 233              	.LVL10:
  28:../../libDaisy/src/hid/disp/oled_display.h **** 
 234              		.loc 10 28 63 view .LVU37
 235 0002 7047     		bx	lr
 236              		.cfi_endproc
 237              	.LFE2611:
 239              		.section	.text._ZN5daisy11OledDisplayINS_13SSD130xDriverILj128ELj64ENS_24SSD130x4WireSpiTransportE
 240              		.align	1
 241              		.p2align 2,,3
 242              		.weak	_ZN5daisy11OledDisplayINS_13SSD130xDriverILj128ELj64ENS_24SSD130x4WireSpiTransportEEEED0Ev
 243              		.syntax unified
 244              		.thumb
 245              		.thumb_func
 246              		.fpu fpv5-d16
 248              	_ZN5daisy11OledDisplayINS_13SSD130xDriverILj128ELj64ENS_24SSD130x4WireSpiTransportEEEED0Ev:
ARM GAS  /var/folders/hl/qgbwny5j0fd895c2c41bk3tw0000gp/T//ccFqANMK.s 			page 23


 249              	.LVL11:
 250              	.LFB2609:
  18:../../libDaisy/src/hid/disp/oled_display.h **** 
 251              		.loc 10 18 13 is_stmt 1 view -0
 252              		.cfi_startproc
 253              		@ args = 0, pretend = 0, frame = 0
 254              		@ frame_needed = 0, uses_anonymous_args = 0
  18:../../libDaisy/src/hid/disp/oled_display.h **** 
 255              		.loc 10 18 13 is_stmt 0 view .LVU39
 256 0000 10B5     		push	{r4, lr}
 257              		.cfi_def_cfa_offset 8
 258              		.cfi_offset 4, -8
 259              		.cfi_offset 14, -4
  18:../../libDaisy/src/hid/disp/oled_display.h **** 
 260              		.loc 10 18 13 view .LVU40
 261 0002 0446     		mov	r4, r0
 262              	.LVL12:
 263              	.LBB405:
 264              	.LBI405:
  18:../../libDaisy/src/hid/disp/oled_display.h **** 
 265              		.loc 10 18 13 is_stmt 1 view .LVU41
 266              	.LBB406:
 267              	.LBI406:
 268              		.loc 12 219 13 view .LVU42
 269              	.LBB407:
 270              	.LBI407:
  23:../../libDaisy/src/hid/disp/display.h **** 
 271              		.loc 12 23 13 view .LVU43
  23:../../libDaisy/src/hid/disp/display.h **** 
 272              		.loc 12 23 13 is_stmt 0 view .LVU44
 273              	.LBE407:
 274              	.LBE406:
 275              	.LBE405:
  18:../../libDaisy/src/hid/disp/oled_display.h **** 
 276              		.loc 10 18 29 view .LVU45
 277 0004 40F21441 		movw	r1, #1044
 278 0008 FFF7FEFF 		bl	_ZdlPvj
 279              	.LVL13:
  18:../../libDaisy/src/hid/disp/oled_display.h **** 
 280              		.loc 10 18 29 view .LVU46
 281 000c 2046     		mov	r0, r4
 282 000e 10BD     		pop	{r4, pc}
  18:../../libDaisy/src/hid/disp/oled_display.h **** 
 283              		.loc 10 18 29 view .LVU47
 284              		.cfi_endproc
 285              	.LFE2609:
 287              		.section	.text._ZN5daisy11OledDisplayINS_13SSD130xDriverILj128ELj64ENS_24SSD130x4WireSpiTransportE
 288              		.align	1
 289              		.p2align 2,,3
 290              		.weak	_ZN5daisy11OledDisplayINS_13SSD130xDriverILj128ELj64ENS_24SSD130x4WireSpiTransportEEEE6Updat
 291              		.syntax unified
 292              		.thumb
 293              		.thumb_func
 294              		.fpu fpv5-d16
 296              	_ZN5daisy11OledDisplayINS_13SSD130xDriverILj128ELj64ENS_24SSD130x4WireSpiTransportEEEE6UpdateEv:
 297              	.LVL14:
 298              	.LFB2586:
ARM GAS  /var/folders/hl/qgbwny5j0fd895c2c41bk3tw0000gp/T//ccFqANMK.s 			page 24


  35:../../libDaisy/src/hid/disp/oled_display.h **** 
  36:../../libDaisy/src/hid/disp/oled_display.h ****     /**
  37:../../libDaisy/src/hid/disp/oled_display.h ****     Sets the pixel at the specified coordinate to be on/off.
  38:../../libDaisy/src/hid/disp/oled_display.h ****     \param x   x Coordinate
  39:../../libDaisy/src/hid/disp/oled_display.h ****     \param y   y coordinate
  40:../../libDaisy/src/hid/disp/oled_display.h ****     \param on  on or off
  41:../../libDaisy/src/hid/disp/oled_display.h ****     */
  42:../../libDaisy/src/hid/disp/oled_display.h ****     void DrawPixel(uint_fast8_t x, uint_fast8_t y, bool on) override
  43:../../libDaisy/src/hid/disp/oled_display.h ****     {
  44:../../libDaisy/src/hid/disp/oled_display.h ****         driver_.DrawPixel(x, y, on);
  45:../../libDaisy/src/hid/disp/oled_display.h ****     }
  46:../../libDaisy/src/hid/disp/oled_display.h **** 
  47:../../libDaisy/src/hid/disp/oled_display.h ****     /** 
  48:../../libDaisy/src/hid/disp/oled_display.h ****     Writes the current display buffer to the OLED device using SPI or I2C depending on 
  49:../../libDaisy/src/hid/disp/oled_display.h ****     how the object was initialized.
  50:../../libDaisy/src/hid/disp/oled_display.h ****     */
  51:../../libDaisy/src/hid/disp/oled_display.h ****     void Update() override { driver_.Update(); }
 299              		.loc 10 51 10 is_stmt 1 view -0
 300              		.cfi_startproc
 301              		@ args = 0, pretend = 0, frame = 8
 302              		@ frame_needed = 0, uses_anonymous_args = 0
 303              	.LBB418:
 304              	.LBI418:
 267:../../libDaisy/src/dev/oled_ssd130x.h ****         }
 268:../../libDaisy/src/dev/oled_ssd130x.h ****     };
 269:../../libDaisy/src/dev/oled_ssd130x.h **** 
 270:../../libDaisy/src/dev/oled_ssd130x.h ****     /**
 271:../../libDaisy/src/dev/oled_ssd130x.h ****      * Update the display 
 272:../../libDaisy/src/dev/oled_ssd130x.h ****     */
 273:../../libDaisy/src/dev/oled_ssd130x.h ****     void Update()
 305              		.loc 11 273 10 view .LVU49
 306              	.LBB419:
 274:../../libDaisy/src/dev/oled_ssd130x.h ****     {
 275:../../libDaisy/src/dev/oled_ssd130x.h ****         uint8_t i;
 276:../../libDaisy/src/dev/oled_ssd130x.h ****         uint8_t high_column_addr;
 277:../../libDaisy/src/dev/oled_ssd130x.h ****         switch(height)
 278:../../libDaisy/src/dev/oled_ssd130x.h ****         {
 279:../../libDaisy/src/dev/oled_ssd130x.h ****             case 32: high_column_addr = 0x12; break;
 280:../../libDaisy/src/dev/oled_ssd130x.h **** 
 281:../../libDaisy/src/dev/oled_ssd130x.h ****             default: high_column_addr = 0x10; break;
 282:../../libDaisy/src/dev/oled_ssd130x.h ****         }
 283:../../libDaisy/src/dev/oled_ssd130x.h ****         for(i = 0; i < (height / 8); i++)
 307              		.loc 11 283 22 view .LVU50
 308              	.LBE419:
 309              	.LBE418:
 310              		.loc 10 51 10 is_stmt 0 view .LVU51
 311 0000 2DE9F041 		push	{r4, r5, r6, r7, r8, lr}
 312              		.cfi_def_cfa_offset 24
 313              		.cfi_offset 4, -24
 314              		.cfi_offset 5, -20
 315              		.cfi_offset 6, -16
 316              		.cfi_offset 7, -12
 317              		.cfi_offset 8, -8
 318              		.cfi_offset 14, -4
 319              	.LBB441:
 320              	.LBB439:
 321              	.LBB420:
ARM GAS  /var/folders/hl/qgbwny5j0fd895c2c41bk3tw0000gp/T//ccFqANMK.s 			page 25


 322              	.LBB421:
 125:../../libDaisy/src/dev/oled_ssd130x.h ****     };
 323              		.loc 11 125 30 view .LVU52
 324 0004 B024     		movs	r4, #176
 325              	.LBE421:
 326              	.LBE420:
 327              	.LBE439:
 328              	.LBE441:
 329              		.loc 10 51 10 view .LVU53
 330 0006 82B0     		sub	sp, sp, #8
 331              		.cfi_def_cfa_offset 32
 332              	.LBB442:
 333              	.LBB440:
 334              	.LBB426:
 335              	.LBB422:
 124:../../libDaisy/src/dev/oled_ssd130x.h ****         spi_.BlockingTransmit(&cmd, 1);
 336              		.loc 11 124 24 view .LVU54
 337 0008 00F10806 		add	r6, r0, #8
 338 000c 00F11005 		add	r5, r0, #16
 339 0010 00F11408 		add	r8, r0, #20
 340              	.LVL15:
 341              	.L11:
 124:../../libDaisy/src/dev/oled_ssd130x.h ****         spi_.BlockingTransmit(&cmd, 1);
 342              		.loc 11 124 24 view .LVU55
 343 0014 0027     		movs	r7, #0
 124:../../libDaisy/src/dev/oled_ssd130x.h ****         spi_.BlockingTransmit(&cmd, 1);
 344              		.loc 11 124 23 view .LVU56
 345 0016 2846     		mov	r0, r5
 346 0018 8DF80740 		strb	r4, [sp, #7]
 347              	.LVL16:
 124:../../libDaisy/src/dev/oled_ssd130x.h ****         spi_.BlockingTransmit(&cmd, 1);
 348              		.loc 11 124 23 view .LVU57
 349              	.LBE422:
 350              	.LBI420:
 122:../../libDaisy/src/dev/oled_ssd130x.h ****     {
 351              		.loc 11 122 10 is_stmt 1 view .LVU58
 352              	.LBB423:
 124:../../libDaisy/src/dev/oled_ssd130x.h ****         spi_.BlockingTransmit(&cmd, 1);
 353              		.loc 11 124 9 view .LVU59
 354              	.LBE423:
 355              	.LBE426:
 356              		.loc 11 283 22 is_stmt 0 view .LVU60
 357 001c 0134     		adds	r4, r4, #1
 358              	.LVL17:
 359              	.LBB427:
 360              	.LBB424:
 124:../../libDaisy/src/dev/oled_ssd130x.h ****         spi_.BlockingTransmit(&cmd, 1);
 361              		.loc 11 124 23 view .LVU61
 362 001e 3946     		mov	r1, r7
 363 0020 FFF7FEFF 		bl	dsy_gpio_write
 364              	.LVL18:
 125:../../libDaisy/src/dev/oled_ssd130x.h ****     };
 365              		.loc 11 125 9 is_stmt 1 view .LVU62
 125:../../libDaisy/src/dev/oled_ssd130x.h ****     };
 366              		.loc 11 125 30 is_stmt 0 view .LVU63
 367 0024 6423     		movs	r3, #100
 368 0026 0122     		movs	r2, #1
ARM GAS  /var/folders/hl/qgbwny5j0fd895c2c41bk3tw0000gp/T//ccFqANMK.s 			page 26


 369 0028 0DF10701 		add	r1, sp, #7
 370 002c 3046     		mov	r0, r6
 371              	.LBE424:
 372              	.LBE427:
 373              		.loc 11 283 22 view .LVU64
 374 002e E4B2     		uxtb	r4, r4
 375              	.LBB428:
 376              	.LBB425:
 125:../../libDaisy/src/dev/oled_ssd130x.h ****     };
 377              		.loc 11 125 30 view .LVU65
 378 0030 FFF7FEFF 		bl	_ZN5daisy9SpiHandle16BlockingTransmitEPhjm
 379              	.LVL19:
 125:../../libDaisy/src/dev/oled_ssd130x.h ****     };
 380              		.loc 11 125 30 view .LVU66
 381              	.LBE425:
 382              	.LBE428:
 383              	.LBB429:
 384              	.LBB430:
 124:../../libDaisy/src/dev/oled_ssd130x.h ****         spi_.BlockingTransmit(&cmd, 1);
 385              		.loc 11 124 23 view .LVU67
 386 0034 3946     		mov	r1, r7
 387 0036 2846     		mov	r0, r5
 388 0038 8DF80770 		strb	r7, [sp, #7]
 389              	.LVL20:
 124:../../libDaisy/src/dev/oled_ssd130x.h ****         spi_.BlockingTransmit(&cmd, 1);
 390              		.loc 11 124 23 view .LVU68
 391              	.LBE430:
 392              	.LBI429:
 122:../../libDaisy/src/dev/oled_ssd130x.h ****     {
 393              		.loc 11 122 10 is_stmt 1 view .LVU69
 394              	.LBB431:
 124:../../libDaisy/src/dev/oled_ssd130x.h ****         spi_.BlockingTransmit(&cmd, 1);
 395              		.loc 11 124 9 view .LVU70
 124:../../libDaisy/src/dev/oled_ssd130x.h ****         spi_.BlockingTransmit(&cmd, 1);
 396              		.loc 11 124 23 is_stmt 0 view .LVU71
 397 003c FFF7FEFF 		bl	dsy_gpio_write
 398              	.LVL21:
 125:../../libDaisy/src/dev/oled_ssd130x.h ****     };
 399              		.loc 11 125 9 is_stmt 1 view .LVU72
 125:../../libDaisy/src/dev/oled_ssd130x.h ****     };
 400              		.loc 11 125 30 is_stmt 0 view .LVU73
 401 0040 0122     		movs	r2, #1
 402 0042 6423     		movs	r3, #100
 403 0044 0DF10701 		add	r1, sp, #7
 404 0048 3046     		mov	r0, r6
 405 004a FFF7FEFF 		bl	_ZN5daisy9SpiHandle16BlockingTransmitEPhjm
 406              	.LVL22:
 125:../../libDaisy/src/dev/oled_ssd130x.h ****     };
 407              		.loc 11 125 30 view .LVU74
 408 004e 1023     		movs	r3, #16
 409              	.LBE431:
 410              	.LBE429:
 411              	.LBB432:
 412              	.LBB433:
 124:../../libDaisy/src/dev/oled_ssd130x.h ****         spi_.BlockingTransmit(&cmd, 1);
 413              		.loc 11 124 23 view .LVU75
 414 0050 3946     		mov	r1, r7
ARM GAS  /var/folders/hl/qgbwny5j0fd895c2c41bk3tw0000gp/T//ccFqANMK.s 			page 27


 415 0052 2846     		mov	r0, r5
 416 0054 8DF80730 		strb	r3, [sp, #7]
 417              	.LVL23:
 124:../../libDaisy/src/dev/oled_ssd130x.h ****         spi_.BlockingTransmit(&cmd, 1);
 418              		.loc 11 124 23 view .LVU76
 419              	.LBE433:
 420              	.LBI432:
 122:../../libDaisy/src/dev/oled_ssd130x.h ****     {
 421              		.loc 11 122 10 is_stmt 1 view .LVU77
 422              	.LBB434:
 124:../../libDaisy/src/dev/oled_ssd130x.h ****         spi_.BlockingTransmit(&cmd, 1);
 423              		.loc 11 124 9 view .LVU78
 124:../../libDaisy/src/dev/oled_ssd130x.h ****         spi_.BlockingTransmit(&cmd, 1);
 424              		.loc 11 124 23 is_stmt 0 view .LVU79
 425 0058 FFF7FEFF 		bl	dsy_gpio_write
 426              	.LVL24:
 125:../../libDaisy/src/dev/oled_ssd130x.h ****     };
 427              		.loc 11 125 9 is_stmt 1 view .LVU80
 125:../../libDaisy/src/dev/oled_ssd130x.h ****     };
 428              		.loc 11 125 30 is_stmt 0 view .LVU81
 429 005c 6423     		movs	r3, #100
 430 005e 0122     		movs	r2, #1
 431 0060 0DF10701 		add	r1, sp, #7
 432 0064 3046     		mov	r0, r6
 433 0066 FFF7FEFF 		bl	_ZN5daisy9SpiHandle16BlockingTransmitEPhjm
 434              	.LVL25:
 125:../../libDaisy/src/dev/oled_ssd130x.h ****     };
 435              		.loc 11 125 30 view .LVU82
 436              	.LBE434:
 437              	.LBE432:
 438              	.LBB435:
 439              	.LBI435:
 128:../../libDaisy/src/dev/oled_ssd130x.h ****     {
 440              		.loc 11 128 10 is_stmt 1 view .LVU83
 441              	.LBB436:
 130:../../libDaisy/src/dev/oled_ssd130x.h ****         spi_.BlockingTransmit(buff, size);
 442              		.loc 11 130 9 view .LVU84
 130:../../libDaisy/src/dev/oled_ssd130x.h ****         spi_.BlockingTransmit(buff, size);
 443              		.loc 11 130 23 is_stmt 0 view .LVU85
 444 006a 0121     		movs	r1, #1
 445 006c 2846     		mov	r0, r5
 446 006e FFF7FEFF 		bl	dsy_gpio_write
 447              	.LVL26:
 131:../../libDaisy/src/dev/oled_ssd130x.h ****     };
 448              		.loc 11 131 9 is_stmt 1 view .LVU86
 131:../../libDaisy/src/dev/oled_ssd130x.h ****     };
 449              		.loc 11 131 30 is_stmt 0 view .LVU87
 450 0072 8022     		movs	r2, #128
 451 0074 4146     		mov	r1, r8
 452 0076 6423     		movs	r3, #100
 453 0078 3046     		mov	r0, r6
 454              	.LBE436:
 455              	.LBE435:
 456              		.loc 11 283 22 view .LVU88
 457 007a 9044     		add	r8, r8, r2
 458              	.LVL27:
 459              	.LBB438:
ARM GAS  /var/folders/hl/qgbwny5j0fd895c2c41bk3tw0000gp/T//ccFqANMK.s 			page 28


 460              	.LBB437:
 131:../../libDaisy/src/dev/oled_ssd130x.h ****     };
 461              		.loc 11 131 30 view .LVU89
 462 007c FFF7FEFF 		bl	_ZN5daisy9SpiHandle16BlockingTransmitEPhjm
 463              	.LVL28:
 131:../../libDaisy/src/dev/oled_ssd130x.h ****     };
 464              		.loc 11 131 30 view .LVU90
 465              	.LBE437:
 466              	.LBE438:
 467              		.loc 11 283 9 is_stmt 1 view .LVU91
 468              		.loc 11 283 22 view .LVU92
 469 0080 B82C     		cmp	r4, #184
 470 0082 C7D1     		bne	.L11
 471              	.LBE440:
 472              	.LBE442:
 473              		.loc 10 51 48 is_stmt 0 view .LVU93
 474 0084 02B0     		add	sp, sp, #8
 475              		.cfi_def_cfa_offset 24
 476              		@ sp needed
 477 0086 BDE8F081 		pop	{r4, r5, r6, r7, r8, pc}
 478              		.loc 10 51 48 view .LVU94
 479              		.cfi_endproc
 480              	.LFE2586:
 482 008a 00BF     		.section	.text._ZN5daisy25OneBitGraphicsDisplayImplINS_11OledDisplayINS_13SSD130xDriverILj128ELj64
 483              		.align	1
 484              		.p2align 2,,3
 485              		.weak	_ZN5daisy25OneBitGraphicsDisplayImplINS_11OledDisplayINS_13SSD130xDriverILj128ELj64ENS_24SSD
 486              		.syntax unified
 487              		.thumb
 488              		.thumb_func
 489              		.fpu fpv5-d16
 491              	_ZN5daisy25OneBitGraphicsDisplayImplINS_11OledDisplayINS_13SSD130xDriverILj128ELj64ENS_24SSD130x4Wi
 492              	.LVL29:
 493              	.LFB2600:
 220:../../libDaisy/src/hid/disp/display.h **** 
 221:../../libDaisy/src/hid/disp/display.h ****     void DrawLine(uint_fast8_t x1,
 222:../../libDaisy/src/hid/disp/display.h ****                   uint_fast8_t y1,
 223:../../libDaisy/src/hid/disp/display.h ****                   uint_fast8_t x2,
 224:../../libDaisy/src/hid/disp/display.h ****                   uint_fast8_t y2,
 225:../../libDaisy/src/hid/disp/display.h ****                   bool         on) override
 226:../../libDaisy/src/hid/disp/display.h ****     {
 227:../../libDaisy/src/hid/disp/display.h ****         int_fast16_t deltaX = abs((int_fast16_t)x2 - (int_fast16_t)x1);
 228:../../libDaisy/src/hid/disp/display.h ****         int_fast16_t deltaY = abs((int_fast16_t)y2 - (int_fast16_t)y1);
 229:../../libDaisy/src/hid/disp/display.h ****         int_fast16_t signX  = ((x1 < x2) ? 1 : -1);
 230:../../libDaisy/src/hid/disp/display.h ****         int_fast16_t signY  = ((y1 < y2) ? 1 : -1);
 231:../../libDaisy/src/hid/disp/display.h ****         int_fast16_t error  = deltaX - deltaY;
 232:../../libDaisy/src/hid/disp/display.h ****         int_fast16_t error2;
 233:../../libDaisy/src/hid/disp/display.h **** 
 234:../../libDaisy/src/hid/disp/display.h ****         // If we write "ChildType::DrawPixel(x2, y2, on);", we end up with
 235:../../libDaisy/src/hid/disp/display.h ****         // all sorts of weird compiler errors when the Child class is a template
 236:../../libDaisy/src/hid/disp/display.h ****         // class. The only way around this is to use this very verbose syntax:
 237:../../libDaisy/src/hid/disp/display.h ****         ((ChildType*)(this))->ChildType::DrawPixel(x2, y2, on);
 238:../../libDaisy/src/hid/disp/display.h **** 
 239:../../libDaisy/src/hid/disp/display.h ****         while((x1 != x2) || (y1 != y2))
 240:../../libDaisy/src/hid/disp/display.h ****         {
 241:../../libDaisy/src/hid/disp/display.h ****             ((ChildType*)(this))->ChildType::DrawPixel(x1, y1, on);
 242:../../libDaisy/src/hid/disp/display.h ****             error2 = error * 2;
ARM GAS  /var/folders/hl/qgbwny5j0fd895c2c41bk3tw0000gp/T//ccFqANMK.s 			page 29


 243:../../libDaisy/src/hid/disp/display.h ****             if(error2 > -deltaY)
 244:../../libDaisy/src/hid/disp/display.h ****             {
 245:../../libDaisy/src/hid/disp/display.h ****                 error -= deltaY;
 246:../../libDaisy/src/hid/disp/display.h ****                 x1 += signX;
 247:../../libDaisy/src/hid/disp/display.h ****             }
 248:../../libDaisy/src/hid/disp/display.h **** 
 249:../../libDaisy/src/hid/disp/display.h ****             if(error2 < deltaX)
 250:../../libDaisy/src/hid/disp/display.h ****             {
 251:../../libDaisy/src/hid/disp/display.h ****                 error += deltaX;
 252:../../libDaisy/src/hid/disp/display.h ****                 y1 += signY;
 253:../../libDaisy/src/hid/disp/display.h ****             }
 254:../../libDaisy/src/hid/disp/display.h ****         }
 255:../../libDaisy/src/hid/disp/display.h ****     }
 256:../../libDaisy/src/hid/disp/display.h **** 
 257:../../libDaisy/src/hid/disp/display.h ****     void DrawRect(uint_fast8_t x1,
 258:../../libDaisy/src/hid/disp/display.h ****                   uint_fast8_t y1,
 259:../../libDaisy/src/hid/disp/display.h ****                   uint_fast8_t x2,
 260:../../libDaisy/src/hid/disp/display.h ****                   uint_fast8_t y2,
 261:../../libDaisy/src/hid/disp/display.h ****                   bool         on,
 262:../../libDaisy/src/hid/disp/display.h ****                   bool         fill = false) override
 263:../../libDaisy/src/hid/disp/display.h ****     {
 264:../../libDaisy/src/hid/disp/display.h ****         if(fill)
 265:../../libDaisy/src/hid/disp/display.h ****         {
 266:../../libDaisy/src/hid/disp/display.h ****             for(uint_fast8_t x = x1; x <= x2; x++)
 267:../../libDaisy/src/hid/disp/display.h ****             {
 268:../../libDaisy/src/hid/disp/display.h ****                 for(uint_fast8_t y = y1; y <= y2; y++)
 269:../../libDaisy/src/hid/disp/display.h ****                 {
 270:../../libDaisy/src/hid/disp/display.h ****                     ((ChildType*)(this))->ChildType::DrawPixel(x, y, on);
 271:../../libDaisy/src/hid/disp/display.h ****                 }
 272:../../libDaisy/src/hid/disp/display.h ****             }
 273:../../libDaisy/src/hid/disp/display.h ****         }
 274:../../libDaisy/src/hid/disp/display.h ****         else
 275:../../libDaisy/src/hid/disp/display.h ****         {
 276:../../libDaisy/src/hid/disp/display.h ****             ((ChildType*)(this))->ChildType::DrawLine(x1, y1, x2, y1, on);
 277:../../libDaisy/src/hid/disp/display.h ****             ((ChildType*)(this))->ChildType::DrawLine(x2, y1, x2, y2, on);
 278:../../libDaisy/src/hid/disp/display.h ****             ((ChildType*)(this))->ChildType::DrawLine(x2, y2, x1, y2, on);
 279:../../libDaisy/src/hid/disp/display.h ****             ((ChildType*)(this))->ChildType::DrawLine(x1, y2, x1, y1, on);
 280:../../libDaisy/src/hid/disp/display.h ****         }
 281:../../libDaisy/src/hid/disp/display.h ****     }
 282:../../libDaisy/src/hid/disp/display.h **** 
 283:../../libDaisy/src/hid/disp/display.h ****     void DrawArc(uint_fast8_t x,
 284:../../libDaisy/src/hid/disp/display.h ****                  uint_fast8_t y,
 285:../../libDaisy/src/hid/disp/display.h ****                  uint_fast8_t radius,
 286:../../libDaisy/src/hid/disp/display.h ****                  int_fast16_t start_angle,
 287:../../libDaisy/src/hid/disp/display.h ****                  int_fast16_t sweep,
 288:../../libDaisy/src/hid/disp/display.h ****                  bool         on) override
 289:../../libDaisy/src/hid/disp/display.h ****     {
 290:../../libDaisy/src/hid/disp/display.h ****         // Values to calculate the circle
 291:../../libDaisy/src/hid/disp/display.h ****         int_fast16_t t_x, t_y, err, e2;
 292:../../libDaisy/src/hid/disp/display.h **** 
 293:../../libDaisy/src/hid/disp/display.h ****         // Temporary values to speed up comparisons
 294:../../libDaisy/src/hid/disp/display.h ****         float t_sxy, t_syx, t_sxny, t_synx;
 295:../../libDaisy/src/hid/disp/display.h ****         float t_exy, t_eyx, t_exny, t_eynx;
 296:../../libDaisy/src/hid/disp/display.h **** 
 297:../../libDaisy/src/hid/disp/display.h ****         float start_angle_rad, end_angle_rad;
 298:../../libDaisy/src/hid/disp/display.h ****         float start_x, start_y, end_x, end_y;
 299:../../libDaisy/src/hid/disp/display.h **** 
ARM GAS  /var/folders/hl/qgbwny5j0fd895c2c41bk3tw0000gp/T//ccFqANMK.s 			page 30


 300:../../libDaisy/src/hid/disp/display.h ****         bool d1, d2, d3, d4;
 301:../../libDaisy/src/hid/disp/display.h **** 
 302:../../libDaisy/src/hid/disp/display.h ****         d1 = d2 = d3 = d4 = true;
 303:../../libDaisy/src/hid/disp/display.h **** 
 304:../../libDaisy/src/hid/disp/display.h ****         bool circle = false;
 305:../../libDaisy/src/hid/disp/display.h **** 
 306:../../libDaisy/src/hid/disp/display.h ****         if(sweep < 0)
 307:../../libDaisy/src/hid/disp/display.h ****         {
 308:../../libDaisy/src/hid/disp/display.h ****             start_angle += sweep;
 309:../../libDaisy/src/hid/disp/display.h ****             sweep = -sweep;
 310:../../libDaisy/src/hid/disp/display.h ****         }
 311:../../libDaisy/src/hid/disp/display.h **** 
 312:../../libDaisy/src/hid/disp/display.h ****         start_angle_rad = deg2rad(start_angle);
 313:../../libDaisy/src/hid/disp/display.h ****         end_angle_rad   = deg2rad(start_angle + sweep);
 314:../../libDaisy/src/hid/disp/display.h **** 
 315:../../libDaisy/src/hid/disp/display.h ****         start_x = cos(start_angle_rad) * radius;
 316:../../libDaisy/src/hid/disp/display.h ****         start_y = -sin(start_angle_rad) * radius;
 317:../../libDaisy/src/hid/disp/display.h ****         end_x   = cos(end_angle_rad) * radius;
 318:../../libDaisy/src/hid/disp/display.h ****         end_y   = -sin(end_angle_rad) * radius;
 319:../../libDaisy/src/hid/disp/display.h **** 
 320:../../libDaisy/src/hid/disp/display.h ****         // Check if start and endpoint are very near
 321:../../libDaisy/src/hid/disp/display.h ****         if((end_x - start_x) * (end_x - start_x)
 322:../../libDaisy/src/hid/disp/display.h ****                + (end_y - start_y) * (end_y - start_y)
 323:../../libDaisy/src/hid/disp/display.h ****            < 2.0f)
 324:../../libDaisy/src/hid/disp/display.h ****         {
 325:../../libDaisy/src/hid/disp/display.h ****             if(sweep > 180)
 326:../../libDaisy/src/hid/disp/display.h ****                 circle = true;
 327:../../libDaisy/src/hid/disp/display.h ****             else
 328:../../libDaisy/src/hid/disp/display.h ****                 // Nothing to draw
 329:../../libDaisy/src/hid/disp/display.h ****                 return;
 330:../../libDaisy/src/hid/disp/display.h ****         }
 331:../../libDaisy/src/hid/disp/display.h **** 
 332:../../libDaisy/src/hid/disp/display.h ****         t_x = -radius;
 333:../../libDaisy/src/hid/disp/display.h ****         t_y = 0;
 334:../../libDaisy/src/hid/disp/display.h ****         err = 2 - 2 * radius;
 335:../../libDaisy/src/hid/disp/display.h **** 
 336:../../libDaisy/src/hid/disp/display.h ****         do
 337:../../libDaisy/src/hid/disp/display.h ****         {
 338:../../libDaisy/src/hid/disp/display.h ****             if(!circle)
 339:../../libDaisy/src/hid/disp/display.h ****             {
 340:../../libDaisy/src/hid/disp/display.h ****                 t_sxy  = start_x * t_y;
 341:../../libDaisy/src/hid/disp/display.h ****                 t_syx  = start_y * t_x;
 342:../../libDaisy/src/hid/disp/display.h ****                 t_sxny = start_x * -t_y;
 343:../../libDaisy/src/hid/disp/display.h ****                 t_synx = start_y * -t_x;
 344:../../libDaisy/src/hid/disp/display.h ****                 t_exy  = end_x * t_y;
 345:../../libDaisy/src/hid/disp/display.h ****                 t_eyx  = end_y * t_x;
 346:../../libDaisy/src/hid/disp/display.h ****                 t_exny = end_x * -t_y;
 347:../../libDaisy/src/hid/disp/display.h ****                 t_eynx = end_y * -t_x;
 348:../../libDaisy/src/hid/disp/display.h **** 
 349:../../libDaisy/src/hid/disp/display.h ****                 if(sweep > 180)
 350:../../libDaisy/src/hid/disp/display.h ****                 {
 351:../../libDaisy/src/hid/disp/display.h ****                     d1 = (t_sxy - t_synx < 0 || t_exy - t_eynx > 0);
 352:../../libDaisy/src/hid/disp/display.h ****                     d2 = (t_sxy - t_syx < 0 || t_exy - t_eyx > 0);
 353:../../libDaisy/src/hid/disp/display.h ****                     d3 = (t_sxny - t_syx < 0 || t_exny - t_eyx > 0);
 354:../../libDaisy/src/hid/disp/display.h ****                     d4 = (t_sxny - t_synx < 0 || t_exny - t_eynx > 0);
 355:../../libDaisy/src/hid/disp/display.h ****                 }
 356:../../libDaisy/src/hid/disp/display.h ****                 else
ARM GAS  /var/folders/hl/qgbwny5j0fd895c2c41bk3tw0000gp/T//ccFqANMK.s 			page 31


 357:../../libDaisy/src/hid/disp/display.h ****                 {
 358:../../libDaisy/src/hid/disp/display.h ****                     d1 = (t_sxy - t_synx < 0 && t_exy - t_eynx > 0);
 359:../../libDaisy/src/hid/disp/display.h ****                     d2 = (t_sxy - t_syx < 0 && t_exy - t_eyx > 0);
 360:../../libDaisy/src/hid/disp/display.h ****                     d3 = (t_sxny - t_syx < 0 && t_exny - t_eyx > 0);
 361:../../libDaisy/src/hid/disp/display.h ****                     d4 = (t_sxny - t_synx < 0 && t_exny - t_eynx > 0);
 362:../../libDaisy/src/hid/disp/display.h ****                 }
 363:../../libDaisy/src/hid/disp/display.h ****             }
 364:../../libDaisy/src/hid/disp/display.h **** 
 365:../../libDaisy/src/hid/disp/display.h ****             if(d1)
 366:../../libDaisy/src/hid/disp/display.h ****                 ((ChildType*)(this))
 367:../../libDaisy/src/hid/disp/display.h ****                     ->ChildType::DrawPixel(x - t_x, y + t_y, on);
 368:../../libDaisy/src/hid/disp/display.h ****             if(d2)
 369:../../libDaisy/src/hid/disp/display.h ****                 ((ChildType*)(this))
 370:../../libDaisy/src/hid/disp/display.h ****                     ->ChildType::DrawPixel(x + t_x, y + t_y, on);
 371:../../libDaisy/src/hid/disp/display.h ****             if(d3)
 372:../../libDaisy/src/hid/disp/display.h ****                 ((ChildType*)(this))
 373:../../libDaisy/src/hid/disp/display.h ****                     ->ChildType::DrawPixel(x + t_x, y - t_y, on);
 374:../../libDaisy/src/hid/disp/display.h ****             if(d4)
 375:../../libDaisy/src/hid/disp/display.h ****                 ((ChildType*)(this))
 376:../../libDaisy/src/hid/disp/display.h ****                     ->ChildType::DrawPixel(x - t_x, y - t_y, on);
 377:../../libDaisy/src/hid/disp/display.h **** 
 378:../../libDaisy/src/hid/disp/display.h ****             e2 = err;
 379:../../libDaisy/src/hid/disp/display.h ****             if(e2 <= t_y)
 380:../../libDaisy/src/hid/disp/display.h ****             {
 381:../../libDaisy/src/hid/disp/display.h ****                 t_y++;
 382:../../libDaisy/src/hid/disp/display.h ****                 err = err + (t_y * 2 + 1);
 383:../../libDaisy/src/hid/disp/display.h ****                 if(-t_x == t_y && e2 <= t_x)
 384:../../libDaisy/src/hid/disp/display.h ****                 {
 385:../../libDaisy/src/hid/disp/display.h ****                     e2 = 0;
 386:../../libDaisy/src/hid/disp/display.h ****                 }
 387:../../libDaisy/src/hid/disp/display.h ****             }
 388:../../libDaisy/src/hid/disp/display.h ****             if(e2 > t_x)
 389:../../libDaisy/src/hid/disp/display.h ****             {
 390:../../libDaisy/src/hid/disp/display.h ****                 t_x++;
 391:../../libDaisy/src/hid/disp/display.h ****                 err = err + (t_x * 2 + 1);
 392:../../libDaisy/src/hid/disp/display.h ****             }
 393:../../libDaisy/src/hid/disp/display.h ****         } while(t_x <= 0);
 394:../../libDaisy/src/hid/disp/display.h ****     }
 395:../../libDaisy/src/hid/disp/display.h **** 
 396:../../libDaisy/src/hid/disp/display.h ****     char WriteChar(char ch, FontDef font, bool on) override
 494              		.loc 12 396 10 is_stmt 1 view -0
 495              		.cfi_startproc
 496              		@ args = 4, pretend = 0, frame = 16
 497              		@ frame_needed = 0, uses_anonymous_args = 0
 498              		.loc 12 396 10 is_stmt 0 view .LVU96
 499 0000 2DE9F04F 		push	{r4, r5, r6, r7, r8, r9, r10, fp, lr}
 500              		.cfi_def_cfa_offset 36
 501              		.cfi_offset 4, -36
 502              		.cfi_offset 5, -32
 503              		.cfi_offset 6, -28
 504              		.cfi_offset 7, -24
 505              		.cfi_offset 8, -20
 506              		.cfi_offset 9, -16
 507              		.cfi_offset 10, -12
 508              		.cfi_offset 11, -8
 509              		.cfi_offset 14, -4
 510 0004 85B0     		sub	sp, sp, #20
ARM GAS  /var/folders/hl/qgbwny5j0fd895c2c41bk3tw0000gp/T//ccFqANMK.s 			page 32


 511              		.cfi_def_cfa_offset 56
 512              	.LVL30:
 397:../../libDaisy/src/hid/disp/display.h ****     {
 398:../../libDaisy/src/hid/disp/display.h ****         uint32_t i, b, j;
 399:../../libDaisy/src/hid/disp/display.h **** 
 400:../../libDaisy/src/hid/disp/display.h ****         // Check if character is valid
 401:../../libDaisy/src/hid/disp/display.h ****         if(ch < 32 || ch > 126)
 513              		.loc 12 401 20 view .LVU97
 514 0006 A1F12005 		sub	r5, r1, #32
 396:../../libDaisy/src/hid/disp/display.h ****     {
 515              		.loc 12 396 10 view .LVU98
 516 000a 04AC     		add	r4, sp, #16
 517 000c 9DF83870 		ldrb	r7, [sp, #56]	@ zero_extendqisi2
 518 0010 0091     		str	r1, [sp]
 519 0012 04E90C00 		stmdb	r4, {r2, r3}
 520              	.LVL31:
 521              		.loc 12 401 9 view .LVU99
 522 0016 EBB2     		uxtb	r3, r5
 523 0018 5E2B     		cmp	r3, #94
 524 001a 00F29580 		bhi	.L18
 402:../../libDaisy/src/hid/disp/display.h ****             return 0;
 403:../../libDaisy/src/hid/disp/display.h **** 
 404:../../libDaisy/src/hid/disp/display.h ****         // Check remaining space on current line
 405:../../libDaisy/src/hid/disp/display.h ****         if(Width() < (currentX_ + font.FontWidth)
 525              		.loc 12 405 17 view .LVU100
 526 001e 0368     		ldr	r3, [r0]
 527 0020 8046     		mov	r8, r0
 528 0022 5D4A     		ldr	r2, .L53
 529 0024 DB68     		ldr	r3, [r3, #12]
 530 0026 9DF80840 		ldrb	r4, [sp, #8]	@ zero_extendqisi2
 531 002a 9342     		cmp	r3, r2
 532 002c 9DF80960 		ldrb	r6, [sp, #9]	@ zero_extendqisi2
 533 0030 40F09480 		bne	.L45
 534 0034 8020     		movs	r0, #128
 535              	.LVL32:
 536              	.L17:
 537              		.loc 12 405 23 view .LVU101
 538 0036 B8F80430 		ldrh	r3, [r8, #4]
 539              		.loc 12 405 33 view .LVU102
 540 003a 2344     		add	r3, r3, r4
 406:../../libDaisy/src/hid/disp/display.h ****            || Height() < (currentY_ + font.FontHeight))
 541              		.loc 12 406 12 view .LVU103
 542 003c 8342     		cmp	r3, r0
 543 003e 00F38380 		bgt	.L18
 544              		.loc 12 406 21 discriminator 2 view .LVU104
 545 0042 D8F80030 		ldr	r3, [r8]
 546 0046 554A     		ldr	r2, .L53+4
 547 0048 9B68     		ldr	r3, [r3, #8]
 548 004a 9342     		cmp	r3, r2
 549 004c 40F08880 		bne	.L46
 550              		.loc 12 406 21 view .LVU105
 551 0050 4020     		movs	r0, #64
 552              	.L19:
 553              		.loc 12 406 27 discriminator 2 view .LVU106
 554 0052 B8F80620 		ldrh	r2, [r8, #6]
 555              		.loc 12 406 37 discriminator 2 view .LVU107
 556 0056 9319     		adds	r3, r2, r6
ARM GAS  /var/folders/hl/qgbwny5j0fd895c2c41bk3tw0000gp/T//ccFqANMK.s 			page 33


 557              		.loc 12 406 27 discriminator 2 view .LVU108
 558 0058 0192     		str	r2, [sp, #4]
 559              		.loc 12 406 12 discriminator 2 view .LVU109
 560 005a 8342     		cmp	r3, r0
 561 005c 74DC     		bgt	.L18
 562              	.LVL33:
 407:../../libDaisy/src/hid/disp/display.h ****         {
 408:../../libDaisy/src/hid/disp/display.h ****             // Not enough space on current line
 409:../../libDaisy/src/hid/disp/display.h ****             return 0;
 410:../../libDaisy/src/hid/disp/display.h ****         }
 411:../../libDaisy/src/hid/disp/display.h **** 
 412:../../libDaisy/src/hid/disp/display.h ****         // Use the font to write
 413:../../libDaisy/src/hid/disp/display.h ****         for(i = 0; i < font.FontHeight; i++)
 563              		.loc 12 413 22 is_stmt 1 view .LVU110
 564 005e 002E     		cmp	r6, #0
 565 0060 00F08980 		beq	.L20
 414:../../libDaisy/src/hid/disp/display.h ****         {
 415:../../libDaisy/src/hid/disp/display.h ****             b = font.data[(ch - 32) * font.FontHeight + i];
 566              		.loc 12 415 37 is_stmt 0 view .LVU111
 567 0064 06FB05F5 		mul	r5, r6, r5
 568 0068 6FF00040 		mvn	r0, #-2147483648
 569              		.loc 12 415 22 view .LVU112
 570 006c 039B     		ldr	r3, [sp, #12]
 571 006e 9646     		mov	lr, r2
 572 0070 2844     		add	r0, r0, r5
 573 0072 2E44     		add	r6, r6, r5
 416:../../libDaisy/src/hid/disp/display.h ****             for(j = 0; j < font.FontWidth; j++)
 417:../../libDaisy/src/hid/disp/display.h ****             {
 418:../../libDaisy/src/hid/disp/display.h ****                 if((b << j) & 0x8000)
 419:../../libDaisy/src/hid/disp/display.h ****                 {
 420:../../libDaisy/src/hid/disp/display.h ****                     ((ChildType*)(this))
 421:../../libDaisy/src/hid/disp/display.h ****                         ->ChildType::DrawPixel(
 422:../../libDaisy/src/hid/disp/display.h ****                             currentX_ + j, (currentY_ + i), on);
 423:../../libDaisy/src/hid/disp/display.h ****                 }
 424:../../libDaisy/src/hid/disp/display.h ****                 else
 425:../../libDaisy/src/hid/disp/display.h ****                 {
 426:../../libDaisy/src/hid/disp/display.h ****                     ((ChildType*)(this))
 427:../../libDaisy/src/hid/disp/display.h ****                         ->ChildType::DrawPixel(
 428:../../libDaisy/src/hid/disp/display.h ****                             currentX_ + j, (currentY_ + i), !on);
 429:../../libDaisy/src/hid/disp/display.h ****                 }
 430:../../libDaisy/src/hid/disp/display.h ****             }
 431:../../libDaisy/src/hid/disp/display.h ****         }
 432:../../libDaisy/src/hid/disp/display.h **** 
 433:../../libDaisy/src/hid/disp/display.h ****         // The current space is now taken
 434:../../libDaisy/src/hid/disp/display.h ****         SetCursor(currentX_ + font.FontWidth, currentY_);
 574              		.loc 12 434 19 view .LVU113
 575 0074 B8F804A0 		ldrh	r10, [r8, #4]
 576 0078 03EB4000 		add	r0, r3, r0, lsl #1
 577 007c 023B     		subs	r3, r3, #2
 578 007e 03EB460B 		add	fp, r3, r6, lsl #1
 579              	.LVL34:
 580              	.L23:
 415:../../libDaisy/src/hid/disp/display.h ****             for(j = 0; j < font.FontWidth; j++)
 581              		.loc 12 415 15 view .LVU114
 582 0082 30F8026F 		ldrh	r6, [r0, #2]!
 583              	.LVL35:
 416:../../libDaisy/src/hid/disp/display.h ****             for(j = 0; j < font.FontWidth; j++)
ARM GAS  /var/folders/hl/qgbwny5j0fd895c2c41bk3tw0000gp/T//ccFqANMK.s 			page 34


 584              		.loc 12 416 26 is_stmt 1 view .LVU115
 585 0086 BCB3     		cbz	r4, .L28
 586              	.LBB473:
 587              	.LBB474:
 588              	.LBB475:
 589              	.LBB476:
 590              	.LBB477:
 259:../../libDaisy/src/dev/oled_ssd130x.h ****     }
 591              		.loc 11 259 55 is_stmt 0 view .LVU116
 592 0088 0EF00703 		and	r3, lr, #7
 259:../../libDaisy/src/dev/oled_ssd130x.h ****     }
 593              		.loc 11 259 49 view .LVU117
 594 008c 4FF0010C 		mov	ip, #1
 259:../../libDaisy/src/dev/oled_ssd130x.h ****     }
 595              		.loc 11 259 28 view .LVU118
 596 0090 4FEADE02 		lsr	r2, lr, #3
 597 0094 5146     		mov	r1, r10
 259:../../libDaisy/src/dev/oled_ssd130x.h ****     }
 598              		.loc 11 259 49 view .LVU119
 599 0096 0CFA03FC 		lsl	ip, ip, r3
 600 009a 0AF11403 		add	r3, r10, #20
 259:../../libDaisy/src/dev/oled_ssd130x.h ****     }
 601              		.loc 11 259 42 view .LVU120
 602 009e 4FFA8CFC 		sxtb	ip, ip
 603 00a2 03EBC212 		add	r2, r3, r2, lsl #7
 604              	.LBE477:
 605              	.LBE476:
 606              	.LBE475:
 607              	.LBE474:
 608              	.LBE473:
 416:../../libDaisy/src/hid/disp/display.h ****             for(j = 0; j < font.FontWidth; j++)
 609              		.loc 12 416 19 view .LVU121
 610 00a6 0023     		movs	r3, #0
 611              	.LBB495:
 612              	.LBB490:
 613              	.LBB485:
 614              	.LBB481:
 615              	.LBB478:
 259:../../libDaisy/src/dev/oled_ssd130x.h ****     }
 616              		.loc 11 259 42 view .LVU122
 617 00a8 6FEA0C09 		mvn	r9, ip
 618 00ac 4244     		add	r2, r2, r8
 619 00ae 0EE0     		b	.L29
 620              	.LVL36:
 621              	.L47:
 259:../../libDaisy/src/dev/oled_ssd130x.h ****     }
 622              		.loc 11 259 42 view .LVU123
 623              	.LBE478:
 624              	.LBE481:
 625              	.LBE485:
 626              	.LBE490:
 627              	.LBE495:
 628              	.LBB496:
 629              	.LBI496:
  42:../../libDaisy/src/hid/disp/oled_display.h ****     {
 630              		.loc 10 42 10 is_stmt 1 view .LVU124
 631              	.LBB497:
ARM GAS  /var/folders/hl/qgbwny5j0fd895c2c41bk3tw0000gp/T//ccFqANMK.s 			page 35


 632              	.LBI497:
 252:../../libDaisy/src/dev/oled_ssd130x.h ****     {
 633              		.loc 11 252 10 view .LVU125
 634              	.LBB498:
 254:../../libDaisy/src/dev/oled_ssd130x.h ****             return;
 635              		.loc 11 254 9 is_stmt 0 view .LVU126
 636 00b0 7F29     		cmp	r1, #127
 637 00b2 07D8     		bhi	.L25
 638 00b4 BEF13F0F 		cmp	lr, #63
 639 00b8 04D8     		bhi	.L25
 257:../../libDaisy/src/dev/oled_ssd130x.h ****         else
 640              		.loc 11 257 42 view .LVU127
 641 00ba 1578     		ldrb	r5, [r2]	@ zero_extendqisi2
 256:../../libDaisy/src/dev/oled_ssd130x.h ****             buffer_[x + (y / 8) * width] |= (1 << (y % 8));
 642              		.loc 11 256 9 view .LVU128
 643 00bc 9FB1     		cbz	r7, .L27
 644              	.L44:
 256:../../libDaisy/src/dev/oled_ssd130x.h ****             buffer_[x + (y / 8) * width] |= (1 << (y % 8));
 645              		.loc 11 256 9 view .LVU129
 646              	.LBE498:
 647              	.LBE497:
 648              	.LBE496:
 649              	.LBB499:
 650              	.LBB491:
 651              	.LBB486:
 257:../../libDaisy/src/dev/oled_ssd130x.h ****         else
 652              		.loc 11 257 42 view .LVU130
 653 00be 4CEA0505 		orr	r5, ip, r5
 654 00c2 1570     		strb	r5, [r2]
 655              	.L25:
 656              	.LBE486:
 657              	.LBE491:
 658              	.LBE499:
 416:../../libDaisy/src/hid/disp/display.h ****             {
 659              		.loc 12 416 13 is_stmt 1 discriminator 2 view .LVU131
 660 00c4 0133     		adds	r3, r3, #1
 661              	.LVL37:
 416:../../libDaisy/src/hid/disp/display.h ****             {
 662              		.loc 12 416 26 discriminator 2 view .LVU132
 663 00c6 0132     		adds	r2, r2, #1
 664 00c8 0131     		adds	r1, r1, #1
 665 00ca 9C42     		cmp	r4, r3
 666 00cc 14D0     		beq	.L28
 667              	.LVL38:
 668              	.L29:
 418:../../libDaisy/src/hid/disp/display.h ****                 {
 669              		.loc 12 418 23 is_stmt 0 view .LVU133
 670 00ce 06FA03F5 		lsl	r5, r6, r3
 418:../../libDaisy/src/hid/disp/display.h ****                 {
 671              		.loc 12 418 17 view .LVU134
 672 00d2 2D04     		lsls	r5, r5, #16
 673 00d4 ECD4     		bmi	.L47
 674              	.LVL39:
 675              	.LBB500:
 676              	.LBI473:
  42:../../libDaisy/src/hid/disp/oled_display.h ****     {
 677              		.loc 10 42 10 is_stmt 1 view .LVU135
ARM GAS  /var/folders/hl/qgbwny5j0fd895c2c41bk3tw0000gp/T//ccFqANMK.s 			page 36


 678              	.LBB492:
 679              	.LBI474:
 252:../../libDaisy/src/dev/oled_ssd130x.h ****     {
 680              		.loc 11 252 10 view .LVU136
 681              	.LBB487:
 254:../../libDaisy/src/dev/oled_ssd130x.h ****             return;
 682              		.loc 11 254 9 is_stmt 0 view .LVU137
 683 00d6 7F29     		cmp	r1, #127
 684 00d8 F4D8     		bhi	.L25
 685 00da BEF13F0F 		cmp	lr, #63
 686 00de F1D8     		bhi	.L25
 257:../../libDaisy/src/dev/oled_ssd130x.h ****         else
 687              		.loc 11 257 42 view .LVU138
 688 00e0 1578     		ldrb	r5, [r2]	@ zero_extendqisi2
 256:../../libDaisy/src/dev/oled_ssd130x.h ****             buffer_[x + (y / 8) * width] |= (1 << (y % 8));
 689              		.loc 11 256 9 view .LVU139
 690 00e2 002F     		cmp	r7, #0
 691 00e4 EBD0     		beq	.L44
 692              	.L27:
 693              	.LVL40:
 694              	.LBB482:
 695              	.LBI476:
 252:../../libDaisy/src/dev/oled_ssd130x.h ****     {
 696              		.loc 11 252 10 is_stmt 1 view .LVU140
 252:../../libDaisy/src/dev/oled_ssd130x.h ****     {
 697              		.loc 11 252 10 is_stmt 0 view .LVU141
 698              	.LBE482:
 699              	.LBE487:
 700              	.LBE492:
 701              	.LBE500:
 416:../../libDaisy/src/hid/disp/display.h ****             {
 702              		.loc 12 416 13 view .LVU142
 703 00e6 0133     		adds	r3, r3, #1
 704              	.LVL41:
 705              	.LBB501:
 706              	.LBB493:
 707              	.LBB488:
 708              	.LBB483:
 709              	.LBB479:
 259:../../libDaisy/src/dev/oled_ssd130x.h ****     }
 710              		.loc 11 259 42 view .LVU143
 711 00e8 09EA0505 		and	r5, r9, r5
 712              	.LBE479:
 713              	.LBE483:
 714              	.LBE488:
 715              	.LBE493:
 716              	.LBE501:
 416:../../libDaisy/src/hid/disp/display.h ****             {
 717              		.loc 12 416 26 view .LVU144
 718 00ec 0132     		adds	r2, r2, #1
 719 00ee 0131     		adds	r1, r1, #1
 720 00f0 9C42     		cmp	r4, r3
 721              	.LBB502:
 722              	.LBB494:
 723              	.LBB489:
 724              	.LBB484:
 725              	.LBB480:
ARM GAS  /var/folders/hl/qgbwny5j0fd895c2c41bk3tw0000gp/T//ccFqANMK.s 			page 37


 259:../../libDaisy/src/dev/oled_ssd130x.h ****     }
 726              		.loc 11 259 42 view .LVU145
 727 00f2 02F8015C 		strb	r5, [r2, #-1]
 259:../../libDaisy/src/dev/oled_ssd130x.h ****     }
 728              		.loc 11 259 42 view .LVU146
 729              	.LBE480:
 730              	.LBE484:
 731              	.LBE489:
 732              	.LBE494:
 733              	.LBE502:
 416:../../libDaisy/src/hid/disp/display.h ****             {
 734              		.loc 12 416 13 is_stmt 1 view .LVU147
 735              	.LVL42:
 416:../../libDaisy/src/hid/disp/display.h ****             {
 736              		.loc 12 416 26 view .LVU148
 737 00f6 EAD1     		bne	.L29
 738              	.LVL43:
 739              	.L28:
 413:../../libDaisy/src/hid/disp/display.h ****         {
 740              		.loc 12 413 9 view .LVU149
 413:../../libDaisy/src/hid/disp/display.h ****         {
 741              		.loc 12 413 22 view .LVU150
 742 00f8 5845     		cmp	r0, fp
 743 00fa 0EF1010E 		add	lr, lr, #1
 744 00fe C0D1     		bne	.L23
 745              	.LVL44:
 746              	.L22:
 747              	.LBB503:
 748              	.LBB504:
 173:../../libDaisy/src/hid/disp/display.h ****         currentY_ = (y >= Height()) ? Height() - 1 : y;
 749              		.loc 12 173 33 is_stmt 0 view .LVU151
 750 0100 D8F80030 		ldr	r3, [r8]
 751              	.LBE504:
 752              	.LBE503:
 753              		.loc 12 434 18 view .LVU152
 754 0104 5444     		add	r4, r4, r10
 755 0106 2449     		ldr	r1, .L53
 756              	.LBB510:
 757              	.LBB505:
 173:../../libDaisy/src/hid/disp/display.h ****         currentY_ = (y >= Height()) ? Height() - 1 : y;
 758              		.loc 12 173 33 view .LVU153
 759 0108 DA68     		ldr	r2, [r3, #12]
 760              	.LBE505:
 761              	.LBE510:
 762              		.loc 12 434 18 view .LVU154
 763 010a A4B2     		uxth	r4, r4
 764              	.LVL45:
 765              	.LBB511:
 766              	.LBI503:
 171:../../libDaisy/src/hid/disp/display.h ****     {
 767              		.loc 12 171 10 is_stmt 1 view .LVU155
 768              	.LBB506:
 173:../../libDaisy/src/hid/disp/display.h ****         currentY_ = (y >= Height()) ? Height() - 1 : y;
 769              		.loc 12 173 9 view .LVU156
 770 010c 8A42     		cmp	r2, r1
 771 010e 2DD1     		bne	.L48
 173:../../libDaisy/src/hid/disp/display.h ****         currentY_ = (y >= Height()) ? Height() - 1 : y;
ARM GAS  /var/folders/hl/qgbwny5j0fd895c2c41bk3tw0000gp/T//ccFqANMK.s 			page 38


 772              		.loc 12 173 33 is_stmt 0 view .LVU157
 773 0110 8020     		movs	r0, #128
 774              	.L30:
 173:../../libDaisy/src/hid/disp/display.h ****         currentY_ = (y >= Height()) ? Height() - 1 : y;
 775              		.loc 12 173 19 view .LVU158
 776 0112 8442     		cmp	r4, r0
 777 0114 1CD2     		bcs	.L49
 778              	.LVL46:
 779              	.L31:
 174:../../libDaisy/src/hid/disp/display.h ****     }
 780              		.loc 12 174 34 view .LVU159
 781 0116 9B68     		ldr	r3, [r3, #8]
 782 0118 204A     		ldr	r2, .L53+4
 173:../../libDaisy/src/hid/disp/display.h ****         currentY_ = (y >= Height()) ? Height() - 1 : y;
 783              		.loc 12 173 19 view .LVU160
 784 011a A8F80440 		strh	r4, [r8, #4]	@ movhi
 174:../../libDaisy/src/hid/disp/display.h ****     }
 785              		.loc 12 174 9 is_stmt 1 view .LVU161
 786 011e 9342     		cmp	r3, r2
 787 0120 21D1     		bne	.L50
 174:../../libDaisy/src/hid/disp/display.h ****     }
 788              		.loc 12 174 34 is_stmt 0 view .LVU162
 789 0122 4020     		movs	r0, #64
 790              	.L33:
 174:../../libDaisy/src/hid/disp/display.h ****     }
 791              		.loc 12 174 19 view .LVU163
 792 0124 019B     		ldr	r3, [sp, #4]
 793 0126 8342     		cmp	r3, r0
 794 0128 07D3     		bcc	.L34
 174:../../libDaisy/src/hid/disp/display.h ****     }
 795              		.loc 12 174 46 view .LVU164
 796 012a D8F80030 		ldr	r3, [r8]
 797 012e 1B4A     		ldr	r2, .L53+4
 798 0130 9B68     		ldr	r3, [r3, #8]
 799 0132 9342     		cmp	r3, r2
 800 0134 29D1     		bne	.L51
 801 0136 3F23     		movs	r3, #63
 802 0138 0193     		str	r3, [sp, #4]
 803              	.LVL47:
 804              	.L34:
 174:../../libDaisy/src/hid/disp/display.h ****     }
 805              		.loc 12 174 19 view .LVU165
 806 013a DDE90003 		ldrd	r0, r3, [sp]
 807 013e A8F80630 		strh	r3, [r8, #6]	@ movhi
 808              	.LVL48:
 174:../../libDaisy/src/hid/disp/display.h ****     }
 809              		.loc 12 174 19 view .LVU166
 810              	.LBE506:
 811              	.LBE511:
 435:../../libDaisy/src/hid/disp/display.h **** 
 436:../../libDaisy/src/hid/disp/display.h ****         // Return written char for validation
 437:../../libDaisy/src/hid/disp/display.h ****         return ch;
 438:../../libDaisy/src/hid/disp/display.h ****     }
 812              		.loc 12 438 5 view .LVU167
 813 0142 05B0     		add	sp, sp, #20
 814              		.cfi_remember_state
 815              		.cfi_def_cfa_offset 36
ARM GAS  /var/folders/hl/qgbwny5j0fd895c2c41bk3tw0000gp/T//ccFqANMK.s 			page 39


 816              		@ sp needed
 817 0144 BDE8F08F 		pop	{r4, r5, r6, r7, r8, r9, r10, fp, pc}
 818              	.LVL49:
 819              	.L18:
 820              		.cfi_restore_state
 402:../../libDaisy/src/hid/disp/display.h **** 
 821              		.loc 12 402 20 view .LVU168
 822 0148 0020     		movs	r0, #0
 823              		.loc 12 438 5 view .LVU169
 824 014a 05B0     		add	sp, sp, #20
 825              		.cfi_remember_state
 826              		.cfi_def_cfa_offset 36
 827              		@ sp needed
 828 014c BDE8F08F 		pop	{r4, r5, r6, r7, r8, r9, r10, fp, pc}
 829              	.LVL50:
 830              	.L49:
 831              		.cfi_restore_state
 832              	.LBB512:
 833              	.LBB507:
 173:../../libDaisy/src/hid/disp/display.h ****         currentY_ = (y >= Height()) ? Height() - 1 : y;
 834              		.loc 12 173 44 view .LVU170
 835 0150 DA68     		ldr	r2, [r3, #12]
 836 0152 1149     		ldr	r1, .L53
 837 0154 8A42     		cmp	r2, r1
 838 0156 11D1     		bne	.L52
 839 0158 7F24     		movs	r4, #127
 840              	.LVL51:
 173:../../libDaisy/src/hid/disp/display.h ****         currentY_ = (y >= Height()) ? Height() - 1 : y;
 841              		.loc 12 173 44 view .LVU171
 842 015a DCE7     		b	.L31
 843              	.LVL52:
 844              	.L45:
 173:../../libDaisy/src/hid/disp/display.h ****         currentY_ = (y >= Height()) ? Height() - 1 : y;
 845              		.loc 12 173 44 view .LVU172
 846              	.LBE507:
 847              	.LBE512:
 405:../../libDaisy/src/hid/disp/display.h ****            || Height() < (currentY_ + font.FontHeight))
 848              		.loc 12 405 17 view .LVU173
 849 015c 9847     		blx	r3
 850              	.LVL53:
 405:../../libDaisy/src/hid/disp/display.h ****            || Height() < (currentY_ + font.FontHeight))
 851              		.loc 12 405 17 view .LVU174
 852 015e 6AE7     		b	.L17
 853              	.L46:
 406:../../libDaisy/src/hid/disp/display.h ****         {
 854              		.loc 12 406 21 discriminator 2 view .LVU175
 855 0160 4046     		mov	r0, r8
 856 0162 9847     		blx	r3
 857              	.LVL54:
 858 0164 75E7     		b	.L19
 859              	.LVL55:
 860              	.L50:
 861              	.LBB513:
 862              	.LBB508:
 174:../../libDaisy/src/hid/disp/display.h ****     }
 863              		.loc 12 174 33 view .LVU176
 864 0166 4046     		mov	r0, r8
ARM GAS  /var/folders/hl/qgbwny5j0fd895c2c41bk3tw0000gp/T//ccFqANMK.s 			page 40


 865 0168 9847     		blx	r3
 866              	.LVL56:
 867 016a DBE7     		b	.L33
 868              	.LVL57:
 869              	.L48:
 173:../../libDaisy/src/hid/disp/display.h ****         currentY_ = (y >= Height()) ? Height() - 1 : y;
 870              		.loc 12 173 32 view .LVU177
 871 016c 4046     		mov	r0, r8
 872 016e 9047     		blx	r2
 873              	.LVL58:
 173:../../libDaisy/src/hid/disp/display.h ****         currentY_ = (y >= Height()) ? Height() - 1 : y;
 874              		.loc 12 173 44 view .LVU178
 875 0170 D8F80030 		ldr	r3, [r8]
 876 0174 CDE7     		b	.L30
 877              	.LVL59:
 878              	.L20:
 173:../../libDaisy/src/hid/disp/display.h ****         currentY_ = (y >= Height()) ? Height() - 1 : y;
 879              		.loc 12 173 44 view .LVU179
 880              	.LBE508:
 881              	.LBE513:
 434:../../libDaisy/src/hid/disp/display.h **** 
 882              		.loc 12 434 19 view .LVU180
 883 0176 B8F804A0 		ldrh	r10, [r8, #4]
 884 017a C1E7     		b	.L22
 885              	.LVL60:
 886              	.L52:
 887              	.LBB514:
 888              	.LBB509:
 173:../../libDaisy/src/hid/disp/display.h ****         currentY_ = (y >= Height()) ? Height() - 1 : y;
 889              		.loc 12 173 43 view .LVU181
 890 017c 4046     		mov	r0, r8
 891 017e 9047     		blx	r2
 892              	.LVL61:
 173:../../libDaisy/src/hid/disp/display.h ****         currentY_ = (y >= Height()) ? Height() - 1 : y;
 893              		.loc 12 173 19 view .LVU182
 894 0180 0138     		subs	r0, r0, #1
 174:../../libDaisy/src/hid/disp/display.h ****     }
 895              		.loc 12 174 34 view .LVU183
 896 0182 D8F80030 		ldr	r3, [r8]
 173:../../libDaisy/src/hid/disp/display.h ****         currentY_ = (y >= Height()) ? Height() - 1 : y;
 897              		.loc 12 173 19 view .LVU184
 898 0186 84B2     		uxth	r4, r0
 899              	.LVL62:
 173:../../libDaisy/src/hid/disp/display.h ****         currentY_ = (y >= Height()) ? Height() - 1 : y;
 900              		.loc 12 173 19 view .LVU185
 901 0188 C5E7     		b	.L31
 902              	.L51:
 174:../../libDaisy/src/hid/disp/display.h ****     }
 903              		.loc 12 174 45 view .LVU186
 904 018a 4046     		mov	r0, r8
 905 018c 9847     		blx	r3
 906              	.LVL63:
 174:../../libDaisy/src/hid/disp/display.h ****     }
 907              		.loc 12 174 19 view .LVU187
 908 018e 0138     		subs	r0, r0, #1
 909 0190 83B2     		uxth	r3, r0
 910 0192 0193     		str	r3, [sp, #4]
ARM GAS  /var/folders/hl/qgbwny5j0fd895c2c41bk3tw0000gp/T//ccFqANMK.s 			page 41


 911              	.LVL64:
 174:../../libDaisy/src/hid/disp/display.h ****     }
 912              		.loc 12 174 19 view .LVU188
 913 0194 D1E7     		b	.L34
 914              	.L54:
 915 0196 00BF     		.align	2
 916              	.L53:
 917 0198 00000000 		.word	_ZNK5daisy11OledDisplayINS_13SSD130xDriverILj128ELj64ENS_24SSD130x4WireSpiTransportEEEE5Widt
 918 019c 00000000 		.word	_ZNK5daisy11OledDisplayINS_13SSD130xDriverILj128ELj64ENS_24SSD130x4WireSpiTransportEEEE6Heig
 919              	.LBE509:
 920              	.LBE514:
 921              		.cfi_endproc
 922              	.LFE2600:
 924              		.section	.text._ZN5daisy25OneBitGraphicsDisplayImplINS_11OledDisplayINS_13SSD130xDriverILj128ELj64
 925              		.align	1
 926              		.p2align 2,,3
 927              		.weak	_ZN5daisy25OneBitGraphicsDisplayImplINS_11OledDisplayINS_13SSD130xDriverILj128ELj64ENS_24SSD
 928              		.syntax unified
 929              		.thumb
 930              		.thumb_func
 931              		.fpu fpv5-d16
 933              	_ZN5daisy25OneBitGraphicsDisplayImplINS_11OledDisplayINS_13SSD130xDriverILj128ELj64ENS_24SSD130x4Wi
 934              	.LVL65:
 935              	.LFB2585:
 439:../../libDaisy/src/hid/disp/display.h **** 
 440:../../libDaisy/src/hid/disp/display.h ****     char WriteString(const char* str, FontDef font, bool on) override
 936              		.loc 12 440 10 is_stmt 1 view -0
 937              		.cfi_startproc
 938              		@ args = 4, pretend = 0, frame = 32
 939              		@ frame_needed = 0, uses_anonymous_args = 0
 940              		.loc 12 440 10 is_stmt 0 view .LVU190
 941 0000 2DE9F04F 		push	{r4, r5, r6, r7, r8, r9, r10, fp, lr}
 942              		.cfi_def_cfa_offset 36
 943              		.cfi_offset 4, -36
 944              		.cfi_offset 5, -32
 945              		.cfi_offset 6, -28
 946              		.cfi_offset 7, -24
 947              		.cfi_offset 8, -20
 948              		.cfi_offset 9, -16
 949              		.cfi_offset 10, -12
 950              		.cfi_offset 11, -8
 951              		.cfi_offset 14, -4
 952 0004 89B0     		sub	sp, sp, #36
 953              		.cfi_def_cfa_offset 72
 954              		.loc 12 440 10 view .LVU191
 955 0006 08AC     		add	r4, sp, #32
 956 0008 9DF84870 		ldrb	r7, [sp, #72]	@ zero_extendqisi2
 957 000c 0191     		str	r1, [sp, #4]
 958 000e 04E90C00 		stmdb	r4, {r2, r3}
 441:../../libDaisy/src/hid/disp/display.h ****     {
 442:../../libDaisy/src/hid/disp/display.h ****         // Write until null-byte
 443:../../libDaisy/src/hid/disp/display.h ****         while(*str)
 959              		.loc 12 443 9 is_stmt 1 view .LVU192
 960 0012 0B78     		ldrb	r3, [r1]	@ zero_extendqisi2
 961 0014 002B     		cmp	r3, #0
 962 0016 00F0AB80 		beq	.L79
 963 001a 1A46     		mov	r2, r3
ARM GAS  /var/folders/hl/qgbwny5j0fd895c2c41bk3tw0000gp/T//ccFqANMK.s 			page 42


 964 001c 9DF81880 		ldrb	r8, [sp, #24]	@ zero_extendqisi2
 965 0020 9DF81930 		ldrb	r3, [sp, #25]	@ zero_extendqisi2
 966 0024 0646     		mov	r6, r0
 967 0026 4546     		mov	r5, r8
 968 0028 9046     		mov	r8, r2
 969 002a 0393     		str	r3, [sp, #12]
 970 002c 079B     		ldr	r3, [sp, #28]
 971 002e 0593     		str	r3, [sp, #20]
 972              	.LVL66:
 973              	.L80:
 974              	.LBB543:
 975              	.LBI543:
 396:../../libDaisy/src/hid/disp/display.h ****     {
 976              		.loc 12 396 10 view .LVU193
 977              	.LBB544:
 401:../../libDaisy/src/hid/disp/display.h ****             return 0;
 978              		.loc 12 401 20 is_stmt 0 view .LVU194
 979 0030 A8F12004 		sub	r4, r8, #32
 401:../../libDaisy/src/hid/disp/display.h ****             return 0;
 980              		.loc 12 401 9 view .LVU195
 981 0034 E3B2     		uxtb	r3, r4
 982 0036 5E2B     		cmp	r3, #94
 983 0038 00F29E80 		bhi	.L61
 405:../../libDaisy/src/hid/disp/display.h ****            || Height() < (currentY_ + font.FontHeight))
 984              		.loc 12 405 17 view .LVU196
 985 003c 3368     		ldr	r3, [r6]
 986 003e 5E4A     		ldr	r2, .L101
 987 0040 DB68     		ldr	r3, [r3, #12]
 988 0042 9342     		cmp	r3, r2
 989 0044 40F09B80 		bne	.L94
 990 0048 8020     		movs	r0, #128
 991              	.L60:
 405:../../libDaisy/src/hid/disp/display.h ****            || Height() < (currentY_ + font.FontHeight))
 992              		.loc 12 405 23 view .LVU197
 993 004a B388     		ldrh	r3, [r6, #4]
 405:../../libDaisy/src/hid/disp/display.h ****            || Height() < (currentY_ + font.FontHeight))
 994              		.loc 12 405 33 view .LVU198
 995 004c 2B44     		add	r3, r3, r5
 406:../../libDaisy/src/hid/disp/display.h ****         {
 996              		.loc 12 406 12 view .LVU199
 997 004e 8342     		cmp	r3, r0
 998 0050 00F39280 		bgt	.L61
 406:../../libDaisy/src/hid/disp/display.h ****         {
 999              		.loc 12 406 21 view .LVU200
 1000 0054 3368     		ldr	r3, [r6]
 1001 0056 594A     		ldr	r2, .L101+4
 1002 0058 9B68     		ldr	r3, [r3, #8]
 1003 005a 9342     		cmp	r3, r2
 1004 005c 40F09280 		bne	.L95
 1005 0060 4020     		movs	r0, #64
 1006              	.L62:
 406:../../libDaisy/src/hid/disp/display.h ****         {
 1007              		.loc 12 406 27 view .LVU201
 1008 0062 F188     		ldrh	r1, [r6, #6]
 406:../../libDaisy/src/hid/disp/display.h ****         {
 1009              		.loc 12 406 37 view .LVU202
 1010 0064 039A     		ldr	r2, [sp, #12]
ARM GAS  /var/folders/hl/qgbwny5j0fd895c2c41bk3tw0000gp/T//ccFqANMK.s 			page 43


 406:../../libDaisy/src/hid/disp/display.h ****         {
 1011              		.loc 12 406 27 view .LVU203
 1012 0066 0291     		str	r1, [sp, #8]
 406:../../libDaisy/src/hid/disp/display.h ****         {
 1013              		.loc 12 406 37 view .LVU204
 1014 0068 8B18     		adds	r3, r1, r2
 406:../../libDaisy/src/hid/disp/display.h ****         {
 1015              		.loc 12 406 12 view .LVU205
 1016 006a 8342     		cmp	r3, r0
 1017 006c 00F38480 		bgt	.L61
 1018              	.LVL67:
 413:../../libDaisy/src/hid/disp/display.h ****         {
 1019              		.loc 12 413 22 is_stmt 1 view .LVU206
 1020 0070 002A     		cmp	r2, #0
 1021 0072 00F09180 		beq	.L63
 415:../../libDaisy/src/hid/disp/display.h ****             for(j = 0; j < font.FontWidth; j++)
 1022              		.loc 12 415 37 is_stmt 0 view .LVU207
 1023 0076 02FB04F4 		mul	r4, r2, r4
 1024 007a 6FF00049 		mvn	r9, #-2147483648
 1025 007e 059B     		ldr	r3, [sp, #20]
 1026 0080 A144     		add	r9, r9, r4
 1027 0082 1444     		add	r4, r4, r2
 434:../../libDaisy/src/hid/disp/display.h **** 
 1028              		.loc 12 434 19 view .LVU208
 1029 0084 B6F804B0 		ldrh	fp, [r6, #4]
 1030 0088 03EB4909 		add	r9, r3, r9, lsl #1
 1031 008c 023B     		subs	r3, r3, #2
 1032 008e CDF81080 		str	r8, [sp, #16]
 1033 0092 03EB4403 		add	r3, r3, r4, lsl #1
 1034 0096 0C46     		mov	r4, r1
 1035 0098 9A46     		mov	r10, r3
 1036              	.LVL68:
 1037              	.L66:
 415:../../libDaisy/src/hid/disp/display.h ****             for(j = 0; j < font.FontWidth; j++)
 1038              		.loc 12 415 15 view .LVU209
 1039 009a 39F802CF 		ldrh	ip, [r9, #2]!
 1040              	.LVL69:
 416:../../libDaisy/src/hid/disp/display.h ****             {
 1041              		.loc 12 416 26 is_stmt 1 view .LVU210
 1042 009e A5B3     		cbz	r5, .L71
 1043              	.LBB545:
 1044              	.LBB546:
 1045              	.LBB547:
 1046              	.LBB548:
 1047              	.LBB549:
 259:../../libDaisy/src/dev/oled_ssd130x.h ****     }
 1048              		.loc 11 259 55 is_stmt 0 view .LVU211
 1049 00a0 04F00703 		and	r3, r4, #7
 259:../../libDaisy/src/dev/oled_ssd130x.h ****     }
 1050              		.loc 11 259 49 view .LVU212
 1051 00a4 4FF0010E 		mov	lr, #1
 259:../../libDaisy/src/dev/oled_ssd130x.h ****     }
 1052              		.loc 11 259 28 view .LVU213
 1053 00a8 E208     		lsrs	r2, r4, #3
 1054 00aa 5946     		mov	r1, fp
 259:../../libDaisy/src/dev/oled_ssd130x.h ****     }
 1055              		.loc 11 259 49 view .LVU214
ARM GAS  /var/folders/hl/qgbwny5j0fd895c2c41bk3tw0000gp/T//ccFqANMK.s 			page 44


 1056 00ac 0EFA03FE 		lsl	lr, lr, r3
 1057 00b0 0BF11403 		add	r3, fp, #20
 259:../../libDaisy/src/dev/oled_ssd130x.h ****     }
 1058              		.loc 11 259 42 view .LVU215
 1059 00b4 4FFA8EFE 		sxtb	lr, lr
 1060 00b8 03EBC212 		add	r2, r3, r2, lsl #7
 1061              	.LBE549:
 1062              	.LBE548:
 1063              	.LBE547:
 1064              	.LBE546:
 1065              	.LBE545:
 416:../../libDaisy/src/hid/disp/display.h ****             {
 1066              		.loc 12 416 19 view .LVU216
 1067 00bc 0023     		movs	r3, #0
 1068              	.LBB567:
 1069              	.LBB562:
 1070              	.LBB557:
 1071              	.LBB553:
 1072              	.LBB550:
 259:../../libDaisy/src/dev/oled_ssd130x.h ****     }
 1073              		.loc 11 259 42 view .LVU217
 1074 00be 6FEA0E08 		mvn	r8, lr
 1075 00c2 3244     		add	r2, r2, r6
 1076 00c4 0DE0     		b	.L72
 1077              	.LVL70:
 1078              	.L96:
 259:../../libDaisy/src/dev/oled_ssd130x.h ****     }
 1079              		.loc 11 259 42 view .LVU218
 1080              	.LBE550:
 1081              	.LBE553:
 1082              	.LBE557:
 1083              	.LBE562:
 1084              	.LBE567:
 1085              	.LBB568:
 1086              	.LBI568:
  42:../../libDaisy/src/hid/disp/oled_display.h ****     {
 1087              		.loc 10 42 10 is_stmt 1 view .LVU219
 1088              	.LBB569:
 1089              	.LBI569:
 252:../../libDaisy/src/dev/oled_ssd130x.h ****     {
 1090              		.loc 11 252 10 view .LVU220
 1091              	.LBB570:
 254:../../libDaisy/src/dev/oled_ssd130x.h ****             return;
 1092              		.loc 11 254 9 is_stmt 0 view .LVU221
 1093 00c6 7F29     		cmp	r1, #127
 1094 00c8 06D8     		bhi	.L68
 1095 00ca 3F2C     		cmp	r4, #63
 1096 00cc 04D8     		bhi	.L68
 257:../../libDaisy/src/dev/oled_ssd130x.h ****         else
 1097              		.loc 11 257 42 view .LVU222
 1098 00ce 1078     		ldrb	r0, [r2]	@ zero_extendqisi2
 256:../../libDaisy/src/dev/oled_ssd130x.h ****             buffer_[x + (y / 8) * width] |= (1 << (y % 8));
 1099              		.loc 11 256 9 view .LVU223
 1100 00d0 97B1     		cbz	r7, .L70
 1101              	.L93:
 256:../../libDaisy/src/dev/oled_ssd130x.h ****             buffer_[x + (y / 8) * width] |= (1 << (y % 8));
 1102              		.loc 11 256 9 view .LVU224
ARM GAS  /var/folders/hl/qgbwny5j0fd895c2c41bk3tw0000gp/T//ccFqANMK.s 			page 45


 1103              	.LBE570:
 1104              	.LBE569:
 1105              	.LBE568:
 1106              	.LBB571:
 1107              	.LBB563:
 1108              	.LBB558:
 257:../../libDaisy/src/dev/oled_ssd130x.h ****         else
 1109              		.loc 11 257 42 view .LVU225
 1110 00d2 4EEA0000 		orr	r0, lr, r0
 1111 00d6 1070     		strb	r0, [r2]
 1112              	.L68:
 1113              	.LBE558:
 1114              	.LBE563:
 1115              	.LBE571:
 416:../../libDaisy/src/hid/disp/display.h ****             {
 1116              		.loc 12 416 13 is_stmt 1 view .LVU226
 1117 00d8 0133     		adds	r3, r3, #1
 1118              	.LVL71:
 416:../../libDaisy/src/hid/disp/display.h ****             {
 1119              		.loc 12 416 26 view .LVU227
 1120 00da 0132     		adds	r2, r2, #1
 1121 00dc 0131     		adds	r1, r1, #1
 1122 00de AB42     		cmp	r3, r5
 1123 00e0 13D0     		beq	.L71
 1124              	.LVL72:
 1125              	.L72:
 418:../../libDaisy/src/hid/disp/display.h ****                 {
 1126              		.loc 12 418 23 is_stmt 0 view .LVU228
 1127 00e2 0CFA03F0 		lsl	r0, ip, r3
 418:../../libDaisy/src/hid/disp/display.h ****                 {
 1128              		.loc 12 418 17 view .LVU229
 1129 00e6 0004     		lsls	r0, r0, #16
 1130 00e8 EDD4     		bmi	.L96
 1131              	.LVL73:
 1132              	.LBB572:
 1133              	.LBI545:
  42:../../libDaisy/src/hid/disp/oled_display.h ****     {
 1134              		.loc 10 42 10 is_stmt 1 view .LVU230
 1135              	.LBB564:
 1136              	.LBI546:
 252:../../libDaisy/src/dev/oled_ssd130x.h ****     {
 1137              		.loc 11 252 10 view .LVU231
 1138              	.LBB559:
 254:../../libDaisy/src/dev/oled_ssd130x.h ****             return;
 1139              		.loc 11 254 9 is_stmt 0 view .LVU232
 1140 00ea 7F29     		cmp	r1, #127
 1141 00ec F4D8     		bhi	.L68
 1142 00ee 3F2C     		cmp	r4, #63
 1143 00f0 F2D8     		bhi	.L68
 257:../../libDaisy/src/dev/oled_ssd130x.h ****         else
 1144              		.loc 11 257 42 view .LVU233
 1145 00f2 1078     		ldrb	r0, [r2]	@ zero_extendqisi2
 256:../../libDaisy/src/dev/oled_ssd130x.h ****             buffer_[x + (y / 8) * width] |= (1 << (y % 8));
 1146              		.loc 11 256 9 view .LVU234
 1147 00f4 002F     		cmp	r7, #0
 1148 00f6 ECD0     		beq	.L93
 1149              	.L70:
ARM GAS  /var/folders/hl/qgbwny5j0fd895c2c41bk3tw0000gp/T//ccFqANMK.s 			page 46


 1150              	.LVL74:
 1151              	.LBB554:
 1152              	.LBI548:
 252:../../libDaisy/src/dev/oled_ssd130x.h ****     {
 1153              		.loc 11 252 10 is_stmt 1 view .LVU235
 252:../../libDaisy/src/dev/oled_ssd130x.h ****     {
 1154              		.loc 11 252 10 is_stmt 0 view .LVU236
 1155              	.LBE554:
 1156              	.LBE559:
 1157              	.LBE564:
 1158              	.LBE572:
 416:../../libDaisy/src/hid/disp/display.h ****             {
 1159              		.loc 12 416 13 view .LVU237
 1160 00f8 0133     		adds	r3, r3, #1
 1161              	.LVL75:
 1162              	.LBB573:
 1163              	.LBB565:
 1164              	.LBB560:
 1165              	.LBB555:
 1166              	.LBB551:
 259:../../libDaisy/src/dev/oled_ssd130x.h ****     }
 1167              		.loc 11 259 42 view .LVU238
 1168 00fa 08EA0000 		and	r0, r8, r0
 1169              	.LBE551:
 1170              	.LBE555:
 1171              	.LBE560:
 1172              	.LBE565:
 1173              	.LBE573:
 416:../../libDaisy/src/hid/disp/display.h ****             {
 1174              		.loc 12 416 26 view .LVU239
 1175 00fe 0132     		adds	r2, r2, #1
 1176 0100 0131     		adds	r1, r1, #1
 1177 0102 AB42     		cmp	r3, r5
 1178              	.LBB574:
 1179              	.LBB566:
 1180              	.LBB561:
 1181              	.LBB556:
 1182              	.LBB552:
 259:../../libDaisy/src/dev/oled_ssd130x.h ****     }
 1183              		.loc 11 259 42 view .LVU240
 1184 0104 02F8010C 		strb	r0, [r2, #-1]
 259:../../libDaisy/src/dev/oled_ssd130x.h ****     }
 1185              		.loc 11 259 42 view .LVU241
 1186              	.LBE552:
 1187              	.LBE556:
 1188              	.LBE561:
 1189              	.LBE566:
 1190              	.LBE574:
 416:../../libDaisy/src/hid/disp/display.h ****             {
 1191              		.loc 12 416 13 is_stmt 1 view .LVU242
 1192              	.LVL76:
 416:../../libDaisy/src/hid/disp/display.h ****             {
 1193              		.loc 12 416 26 view .LVU243
 1194 0108 EBD1     		bne	.L72
 1195              	.LVL77:
 1196              	.L71:
 413:../../libDaisy/src/hid/disp/display.h ****         {
ARM GAS  /var/folders/hl/qgbwny5j0fd895c2c41bk3tw0000gp/T//ccFqANMK.s 			page 47


 1197              		.loc 12 413 9 view .LVU244
 413:../../libDaisy/src/hid/disp/display.h ****         {
 1198              		.loc 12 413 22 view .LVU245
 1199 010a D145     		cmp	r9, r10
 1200 010c 04F10104 		add	r4, r4, #1
 1201 0110 C3D1     		bne	.L66
 1202 0112 DDF81080 		ldr	r8, [sp, #16]
 1203              	.LVL78:
 1204              	.L65:
 1205              	.LBB575:
 1206              	.LBB576:
 173:../../libDaisy/src/hid/disp/display.h ****         currentY_ = (y >= Height()) ? Height() - 1 : y;
 1207              		.loc 12 173 33 is_stmt 0 view .LVU246
 1208 0116 3268     		ldr	r2, [r6]
 1209              	.LBE576:
 1210              	.LBE575:
 434:../../libDaisy/src/hid/disp/display.h **** 
 1211              		.loc 12 434 18 view .LVU247
 1212 0118 0BEB0504 		add	r4, fp, r5
 1213 011c 2649     		ldr	r1, .L101
 1214              	.LBB581:
 1215              	.LBB577:
 173:../../libDaisy/src/hid/disp/display.h ****         currentY_ = (y >= Height()) ? Height() - 1 : y;
 1216              		.loc 12 173 33 view .LVU248
 1217 011e D368     		ldr	r3, [r2, #12]
 1218              	.LBE577:
 1219              	.LBE581:
 434:../../libDaisy/src/hid/disp/display.h **** 
 1220              		.loc 12 434 18 view .LVU249
 1221 0120 A4B2     		uxth	r4, r4
 1222              	.LVL79:
 1223              	.LBB582:
 1224              	.LBI575:
 171:../../libDaisy/src/hid/disp/display.h ****     {
 1225              		.loc 12 171 10 is_stmt 1 view .LVU250
 1226              	.LBB578:
 173:../../libDaisy/src/hid/disp/display.h ****         currentY_ = (y >= Height()) ? Height() - 1 : y;
 1227              		.loc 12 173 9 view .LVU251
 1228 0122 8B42     		cmp	r3, r1
 1229 0124 34D1     		bne	.L97
 173:../../libDaisy/src/hid/disp/display.h ****         currentY_ = (y >= Height()) ? Height() - 1 : y;
 1230              		.loc 12 173 33 is_stmt 0 view .LVU252
 1231 0126 8020     		movs	r0, #128
 1232              	.L73:
 173:../../libDaisy/src/hid/disp/display.h ****         currentY_ = (y >= Height()) ? Height() - 1 : y;
 1233              		.loc 12 173 19 view .LVU253
 1234 0128 8442     		cmp	r4, r0
 1235 012a 04D3     		bcc	.L74
 173:../../libDaisy/src/hid/disp/display.h ****         currentY_ = (y >= Height()) ? Height() - 1 : y;
 1236              		.loc 12 173 44 view .LVU254
 1237 012c D368     		ldr	r3, [r2, #12]
 1238 012e 2249     		ldr	r1, .L101
 1239 0130 8B42     		cmp	r3, r1
 1240 0132 3AD1     		bne	.L98
 1241 0134 7F24     		movs	r4, #127
 1242              	.LVL80:
 1243              	.L74:
ARM GAS  /var/folders/hl/qgbwny5j0fd895c2c41bk3tw0000gp/T//ccFqANMK.s 			page 48


 174:../../libDaisy/src/hid/disp/display.h ****     }
 1244              		.loc 12 174 34 view .LVU255
 1245 0136 9368     		ldr	r3, [r2, #8]
 1246 0138 204A     		ldr	r2, .L101+4
 173:../../libDaisy/src/hid/disp/display.h ****         currentY_ = (y >= Height()) ? Height() - 1 : y;
 1247              		.loc 12 173 19 view .LVU256
 1248 013a B480     		strh	r4, [r6, #4]	@ movhi
 174:../../libDaisy/src/hid/disp/display.h ****     }
 1249              		.loc 12 174 9 is_stmt 1 view .LVU257
 1250 013c 9342     		cmp	r3, r2
 1251 013e 24D1     		bne	.L99
 174:../../libDaisy/src/hid/disp/display.h ****     }
 1252              		.loc 12 174 34 is_stmt 0 view .LVU258
 1253 0140 4020     		movs	r0, #64
 1254              	.L76:
 174:../../libDaisy/src/hid/disp/display.h ****     }
 1255              		.loc 12 174 19 view .LVU259
 1256 0142 029B     		ldr	r3, [sp, #8]
 1257 0144 8342     		cmp	r3, r0
 1258 0146 06D3     		bcc	.L77
 174:../../libDaisy/src/hid/disp/display.h ****     }
 1259              		.loc 12 174 46 view .LVU260
 1260 0148 3368     		ldr	r3, [r6]
 1261 014a 1C4A     		ldr	r2, .L101+4
 1262 014c 9B68     		ldr	r3, [r3, #8]
 1263 014e 9342     		cmp	r3, r2
 1264 0150 25D1     		bne	.L100
 1265 0152 3F23     		movs	r3, #63
 1266 0154 0293     		str	r3, [sp, #8]
 1267              	.LVL81:
 1268              	.L77:
 174:../../libDaisy/src/hid/disp/display.h ****     }
 1269              		.loc 12 174 19 view .LVU261
 1270 0156 029B     		ldr	r3, [sp, #8]
 1271 0158 F380     		strh	r3, [r6, #6]	@ movhi
 1272              	.LVL82:
 1273              	.L59:
 174:../../libDaisy/src/hid/disp/display.h ****     }
 1274              		.loc 12 174 19 view .LVU262
 1275              	.LBE578:
 1276              	.LBE582:
 1277              	.LBE544:
 1278              	.LBE543:
 444:../../libDaisy/src/hid/disp/display.h ****         {
 445:../../libDaisy/src/hid/disp/display.h ****             if(((ChildType*)(this))->ChildType::WriteChar(*str, font, on)
 446:../../libDaisy/src/hid/disp/display.h ****                != *str)
 1279              		.loc 12 446 16 view .LVU263
 1280 015a 019B     		ldr	r3, [sp, #4]
 1281 015c 1878     		ldrb	r0, [r3]	@ zero_extendqisi2
 445:../../libDaisy/src/hid/disp/display.h ****                != *str)
 1282              		.loc 12 445 13 view .LVU264
 1283 015e 4045     		cmp	r0, r8
 1284 0160 07D1     		bne	.L57
 1285              	.LVL83:
 443:../../libDaisy/src/hid/disp/display.h ****         {
 1286              		.loc 12 443 9 is_stmt 1 view .LVU265
 1287 0162 13F8018F 		ldrb	r8, [r3, #1]!	@ zero_extendqisi2
ARM GAS  /var/folders/hl/qgbwny5j0fd895c2c41bk3tw0000gp/T//ccFqANMK.s 			page 49


 1288              	.LVL84:
 443:../../libDaisy/src/hid/disp/display.h ****         {
 1289              		.loc 12 443 9 is_stmt 0 view .LVU266
 1290 0166 0193     		str	r3, [sp, #4]
 1291 0168 B8F1000F 		cmp	r8, #0
 1292 016c 7FF460AF 		bne	.L80
 1293              	.LVL85:
 1294              	.L79:
 1295              	.LBB587:
 1296              	.LBB585:
 402:../../libDaisy/src/hid/disp/display.h **** 
 1297              		.loc 12 402 20 view .LVU267
 1298 0170 0020     		movs	r0, #0
 1299              	.L57:
 1300              	.LBE585:
 1301              	.LBE587:
 447:../../libDaisy/src/hid/disp/display.h ****             {
 448:../../libDaisy/src/hid/disp/display.h ****                 // Char could not be written
 449:../../libDaisy/src/hid/disp/display.h ****                 return *str;
 450:../../libDaisy/src/hid/disp/display.h ****             }
 451:../../libDaisy/src/hid/disp/display.h **** 
 452:../../libDaisy/src/hid/disp/display.h ****             // Next char
 453:../../libDaisy/src/hid/disp/display.h ****             str++;
 454:../../libDaisy/src/hid/disp/display.h ****         }
 455:../../libDaisy/src/hid/disp/display.h **** 
 456:../../libDaisy/src/hid/disp/display.h ****         // Everything ok
 457:../../libDaisy/src/hid/disp/display.h ****         return *str;
 458:../../libDaisy/src/hid/disp/display.h ****     }
 1302              		.loc 12 458 5 view .LVU268
 1303 0172 09B0     		add	sp, sp, #36
 1304              		.cfi_remember_state
 1305              		.cfi_def_cfa_offset 36
 1306              		@ sp needed
 1307 0174 BDE8F08F 		pop	{r4, r5, r6, r7, r8, r9, r10, fp, pc}
 1308              	.LVL86:
 1309              	.L61:
 1310              		.cfi_restore_state
 1311              	.LBB588:
 1312              	.LBB586:
 402:../../libDaisy/src/hid/disp/display.h **** 
 1313              		.loc 12 402 20 view .LVU269
 1314 0178 4FF00008 		mov	r8, #0
 1315              	.LVL87:
 402:../../libDaisy/src/hid/disp/display.h **** 
 1316              		.loc 12 402 20 view .LVU270
 1317 017c EDE7     		b	.L59
 1318              	.LVL88:
 1319              	.L94:
 405:../../libDaisy/src/hid/disp/display.h ****            || Height() < (currentY_ + font.FontHeight))
 1320              		.loc 12 405 17 view .LVU271
 1321 017e 3046     		mov	r0, r6
 1322 0180 9847     		blx	r3
 1323              	.LVL89:
 1324 0182 62E7     		b	.L60
 1325              	.L95:
 406:../../libDaisy/src/hid/disp/display.h ****         {
 1326              		.loc 12 406 21 view .LVU272
ARM GAS  /var/folders/hl/qgbwny5j0fd895c2c41bk3tw0000gp/T//ccFqANMK.s 			page 50


 1327 0184 3046     		mov	r0, r6
 1328 0186 9847     		blx	r3
 1329              	.LVL90:
 1330 0188 6BE7     		b	.L62
 1331              	.LVL91:
 1332              	.L99:
 1333              	.LBB583:
 1334              	.LBB579:
 174:../../libDaisy/src/hid/disp/display.h ****     }
 1335              		.loc 12 174 33 view .LVU273
 1336 018a 3046     		mov	r0, r6
 1337 018c 9847     		blx	r3
 1338              	.LVL92:
 1339 018e D8E7     		b	.L76
 1340              	.LVL93:
 1341              	.L97:
 173:../../libDaisy/src/hid/disp/display.h ****         currentY_ = (y >= Height()) ? Height() - 1 : y;
 1342              		.loc 12 173 32 view .LVU274
 1343 0190 3046     		mov	r0, r6
 1344 0192 9847     		blx	r3
 1345              	.LVL94:
 173:../../libDaisy/src/hid/disp/display.h ****         currentY_ = (y >= Height()) ? Height() - 1 : y;
 1346              		.loc 12 173 44 view .LVU275
 1347 0194 3268     		ldr	r2, [r6]
 1348 0196 C7E7     		b	.L73
 1349              	.LVL95:
 1350              	.L63:
 173:../../libDaisy/src/hid/disp/display.h ****         currentY_ = (y >= Height()) ? Height() - 1 : y;
 1351              		.loc 12 173 44 view .LVU276
 1352              	.LBE579:
 1353              	.LBE583:
 434:../../libDaisy/src/hid/disp/display.h **** 
 1354              		.loc 12 434 19 view .LVU277
 1355 0198 B6F804B0 		ldrh	fp, [r6, #4]
 1356 019c BBE7     		b	.L65
 1357              	.LVL96:
 1358              	.L100:
 1359              	.LBB584:
 1360              	.LBB580:
 174:../../libDaisy/src/hid/disp/display.h ****     }
 1361              		.loc 12 174 45 view .LVU278
 1362 019e 3046     		mov	r0, r6
 1363 01a0 9847     		blx	r3
 1364              	.LVL97:
 174:../../libDaisy/src/hid/disp/display.h ****     }
 1365              		.loc 12 174 19 view .LVU279
 1366 01a2 431E     		subs	r3, r0, #1
 1367 01a4 9BB2     		uxth	r3, r3
 1368 01a6 0293     		str	r3, [sp, #8]
 1369              	.LVL98:
 174:../../libDaisy/src/hid/disp/display.h ****     }
 1370              		.loc 12 174 19 view .LVU280
 1371 01a8 D5E7     		b	.L77
 1372              	.LVL99:
 1373              	.L98:
 173:../../libDaisy/src/hid/disp/display.h ****         currentY_ = (y >= Height()) ? Height() - 1 : y;
 1374              		.loc 12 173 43 view .LVU281
ARM GAS  /var/folders/hl/qgbwny5j0fd895c2c41bk3tw0000gp/T//ccFqANMK.s 			page 51


 1375 01aa 3046     		mov	r0, r6
 1376 01ac 9847     		blx	r3
 1377              	.LVL100:
 173:../../libDaisy/src/hid/disp/display.h ****         currentY_ = (y >= Height()) ? Height() - 1 : y;
 1378              		.loc 12 173 19 view .LVU282
 1379 01ae 0138     		subs	r0, r0, #1
 174:../../libDaisy/src/hid/disp/display.h ****     }
 1380              		.loc 12 174 34 view .LVU283
 1381 01b0 3268     		ldr	r2, [r6]
 173:../../libDaisy/src/hid/disp/display.h ****         currentY_ = (y >= Height()) ? Height() - 1 : y;
 1382              		.loc 12 173 19 view .LVU284
 1383 01b2 84B2     		uxth	r4, r0
 1384              	.LVL101:
 173:../../libDaisy/src/hid/disp/display.h ****         currentY_ = (y >= Height()) ? Height() - 1 : y;
 1385              		.loc 12 173 19 view .LVU285
 1386 01b4 BFE7     		b	.L74
 1387              	.L102:
 1388 01b6 00BF     		.align	2
 1389              	.L101:
 1390 01b8 00000000 		.word	_ZNK5daisy11OledDisplayINS_13SSD130xDriverILj128ELj64ENS_24SSD130x4WireSpiTransportEEEE5Widt
 1391 01bc 00000000 		.word	_ZNK5daisy11OledDisplayINS_13SSD130xDriverILj128ELj64ENS_24SSD130x4WireSpiTransportEEEE6Heig
 1392              	.LBE580:
 1393              	.LBE584:
 1394              	.LBE586:
 1395              	.LBE588:
 1396              		.cfi_endproc
 1397              	.LFE2585:
 1399              		.section	.text._ZN5daisy11OledDisplayINS_13SSD130xDriverILj128ELj64ENS_24SSD130x4WireSpiTransportE
 1400              		.align	1
 1401              		.p2align 2,,3
 1402              		.weak	_ZN5daisy11OledDisplayINS_13SSD130xDriverILj128ELj64ENS_24SSD130x4WireSpiTransportEEEE9DrawP
 1403              		.syntax unified
 1404              		.thumb
 1405              		.thumb_func
 1406              		.fpu fpv5-d16
 1408              	_ZN5daisy11OledDisplayINS_13SSD130xDriverILj128ELj64ENS_24SSD130x4WireSpiTransportEEEE9DrawPixelEjj
 1409              	.LVL102:
 1410              	.LFB2603:
  42:../../libDaisy/src/hid/disp/oled_display.h ****     {
 1411              		.loc 10 42 10 is_stmt 1 view -0
 1412              		.cfi_startproc
 1413              		@ args = 0, pretend = 0, frame = 0
 1414              		@ frame_needed = 0, uses_anonymous_args = 0
 1415              		@ link register save eliminated.
 1416              	.LBB593:
 1417              	.LBI593:
 252:../../libDaisy/src/dev/oled_ssd130x.h ****     {
 1418              		.loc 11 252 10 view .LVU287
 1419              	.LBB594:
 254:../../libDaisy/src/dev/oled_ssd130x.h ****             return;
 1420              		.loc 11 254 9 is_stmt 0 view .LVU288
 1421 0000 7F29     		cmp	r1, #127
 1422 0002 1ED8     		bhi	.L103
 1423 0004 3F2A     		cmp	r2, #63
 1424 0006 1CD8     		bhi	.L103
 256:../../libDaisy/src/dev/oled_ssd130x.h ****             buffer_[x + (y / 8) * width] |= (1 << (y % 8));
 1425              		.loc 11 256 9 view .LVU289
ARM GAS  /var/folders/hl/qgbwny5j0fd895c2c41bk3tw0000gp/T//ccFqANMK.s 			page 52


 1426 0008 6BB1     		cbz	r3, .L105
 257:../../libDaisy/src/dev/oled_ssd130x.h ****         else
 1427              		.loc 11 257 28 view .LVU290
 1428 000a D308     		lsrs	r3, r2, #3
 1429              	.LVL103:
 257:../../libDaisy/src/dev/oled_ssd130x.h ****         else
 1430              		.loc 11 257 48 view .LVU291
 1431 000c 4FF0010C 		mov	ip, #1
 257:../../libDaisy/src/dev/oled_ssd130x.h ****         else
 1432              		.loc 11 257 54 view .LVU292
 1433 0010 02F00702 		and	r2, r2, #7
 1434              	.LVL104:
 257:../../libDaisy/src/dev/oled_ssd130x.h ****         else
 1435              		.loc 11 257 42 view .LVU293
 1436 0014 01EBC313 		add	r3, r1, r3, lsl #7
 257:../../libDaisy/src/dev/oled_ssd130x.h ****         else
 1437              		.loc 11 257 48 view .LVU294
 1438 0018 0CFA02F2 		lsl	r2, ip, r2
 257:../../libDaisy/src/dev/oled_ssd130x.h ****         else
 1439              		.loc 11 257 42 view .LVU295
 1440 001c C118     		adds	r1, r0, r3
 1441              	.LVL105:
 257:../../libDaisy/src/dev/oled_ssd130x.h ****         else
 1442              		.loc 11 257 42 view .LVU296
 1443 001e 0B7D     		ldrb	r3, [r1, #20]	@ zero_extendqisi2
 1444 0020 1A43     		orrs	r2, r2, r3
 1445 0022 0A75     		strb	r2, [r1, #20]
 1446 0024 7047     		bx	lr
 1447              	.LVL106:
 1448              	.L105:
 1449              	.LBB595:
 1450              	.LBI595:
 252:../../libDaisy/src/dev/oled_ssd130x.h ****     {
 1451              		.loc 11 252 10 is_stmt 1 view .LVU297
 1452              	.LBB596:
 259:../../libDaisy/src/dev/oled_ssd130x.h ****     }
 1453              		.loc 11 259 28 is_stmt 0 view .LVU298
 1454 0026 D308     		lsrs	r3, r2, #3
 1455              	.LVL107:
 259:../../libDaisy/src/dev/oled_ssd130x.h ****     }
 1456              		.loc 11 259 49 view .LVU299
 1457 0028 4FF0010C 		mov	ip, #1
 259:../../libDaisy/src/dev/oled_ssd130x.h ****     }
 1458              		.loc 11 259 55 view .LVU300
 1459 002c 02F00702 		and	r2, r2, #7
 1460              	.LVL108:
 259:../../libDaisy/src/dev/oled_ssd130x.h ****     }
 1461              		.loc 11 259 42 view .LVU301
 1462 0030 01EBC313 		add	r3, r1, r3, lsl #7
 259:../../libDaisy/src/dev/oled_ssd130x.h ****     }
 1463              		.loc 11 259 49 view .LVU302
 1464 0034 0CFA02FC 		lsl	ip, ip, r2
 259:../../libDaisy/src/dev/oled_ssd130x.h ****     }
 1465              		.loc 11 259 42 view .LVU303
 1466 0038 C118     		adds	r1, r0, r3
 1467              	.LVL109:
 259:../../libDaisy/src/dev/oled_ssd130x.h ****     }
ARM GAS  /var/folders/hl/qgbwny5j0fd895c2c41bk3tw0000gp/T//ccFqANMK.s 			page 53


 1468              		.loc 11 259 42 view .LVU304
 1469 003a 0A7D     		ldrb	r2, [r1, #20]	@ zero_extendqisi2
 1470 003c 22EA0C02 		bic	r2, r2, ip
 1471 0040 0A75     		strb	r2, [r1, #20]
 1472              	.LVL110:
 1473              	.L103:
 259:../../libDaisy/src/dev/oled_ssd130x.h ****     }
 1474              		.loc 11 259 42 view .LVU305
 1475              	.LBE596:
 1476              	.LBE595:
 1477              	.LBE594:
 1478              	.LBE593:
  45:../../libDaisy/src/hid/disp/oled_display.h **** 
 1479              		.loc 10 45 5 view .LVU306
 1480 0042 7047     		bx	lr
 1481              		.cfi_endproc
 1482              	.LFE2603:
 1484              		.section	.text._ZN5daisy25OneBitGraphicsDisplayImplINS_11OledDisplayINS_13SSD130xDriverILj128ELj64
 1485              		.align	1
 1486              		.p2align 2,,3
 1487              		.weak	_ZN5daisy25OneBitGraphicsDisplayImplINS_11OledDisplayINS_13SSD130xDriverILj128ELj64ENS_24SSD
 1488              		.syntax unified
 1489              		.thumb
 1490              		.thumb_func
 1491              		.fpu fpv5-d16
 1493              	_ZN5daisy25OneBitGraphicsDisplayImplINS_11OledDisplayINS_13SSD130xDriverILj128ELj64ENS_24SSD130x4Wi
 1494              	.LVL111:
 1495              	.LFB2612:
 221:../../libDaisy/src/hid/disp/display.h ****                   uint_fast8_t y1,
 1496              		.loc 12 221 10 is_stmt 1 view -0
 1497              		.cfi_startproc
 1498              		@ args = 8, pretend = 0, frame = 8
 1499              		@ frame_needed = 0, uses_anonymous_args = 0
 221:../../libDaisy/src/hid/disp/display.h ****                   uint_fast8_t y1,
 1500              		.loc 12 221 10 is_stmt 0 view .LVU308
 1501 0000 2DE9F04F 		push	{r4, r5, r6, r7, r8, r9, r10, fp, lr}
 1502              		.cfi_def_cfa_offset 36
 1503              		.cfi_offset 4, -36
 1504              		.cfi_offset 5, -32
 1505              		.cfi_offset 6, -28
 1506              		.cfi_offset 7, -24
 1507              		.cfi_offset 8, -20
 1508              		.cfi_offset 9, -16
 1509              		.cfi_offset 10, -12
 1510              		.cfi_offset 11, -8
 1511              		.cfi_offset 14, -4
 1512 0004 83B0     		sub	sp, sp, #12
 1513              		.cfi_def_cfa_offset 48
 227:../../libDaisy/src/hid/disp/display.h ****         int_fast16_t deltaY = abs((int_fast16_t)y2 - (int_fast16_t)y1);
 1514              		.loc 12 227 52 view .LVU309
 1515 0006 5C1A     		subs	r4, r3, r1
 221:../../libDaisy/src/hid/disp/display.h ****                   uint_fast8_t y1,
 1516              		.loc 12 221 10 view .LVU310
 1517 0008 0C9E     		ldr	r6, [sp, #48]
 227:../../libDaisy/src/hid/disp/display.h ****         int_fast16_t deltaY = abs((int_fast16_t)y2 - (int_fast16_t)y1);
 1518              		.loc 12 227 22 view .LVU311
 1519 000a 002C     		cmp	r4, #0
ARM GAS  /var/folders/hl/qgbwny5j0fd895c2c41bk3tw0000gp/T//ccFqANMK.s 			page 54


 221:../../libDaisy/src/hid/disp/display.h ****                   uint_fast8_t y1,
 1520              		.loc 12 221 10 view .LVU312
 1521 000c 9DF83490 		ldrb	r9, [sp, #52]	@ zero_extendqisi2
 228:../../libDaisy/src/hid/disp/display.h ****         int_fast16_t signX  = ((x1 < x2) ? 1 : -1);
 1522              		.loc 12 228 52 view .LVU313
 1523 0010 A6EB0208 		sub	r8, r6, r2
 227:../../libDaisy/src/hid/disp/display.h ****         int_fast16_t deltaY = abs((int_fast16_t)y2 - (int_fast16_t)y1);
 1524              		.loc 12 227 22 view .LVU314
 1525 0014 B8BF     		it	lt
 1526 0016 6442     		rsblt	r4, r4, #0
 1527              	.LVL112:
 228:../../libDaisy/src/hid/disp/display.h ****         int_fast16_t signX  = ((x1 < x2) ? 1 : -1);
 1528              		.loc 12 228 22 view .LVU315
 1529 0018 B8F1000F 		cmp	r8, #0
 1530 001c B8BF     		it	lt
 1531 001e C8F10008 		rsblt	r8, r8, #0
 1532              	.LVL113:
 229:../../libDaisy/src/hid/disp/display.h ****         int_fast16_t signY  = ((y1 < y2) ? 1 : -1);
 1533              		.loc 12 229 42 view .LVU316
 1534 0022 8B42     		cmp	r3, r1
 1535 0024 8CBF     		ite	hi
 1536 0026 4FF0010A 		movhi	r10, #1
 1537 002a 4FF0FF3A 		movls	r10, #-1
 1538              	.LVL114:
 230:../../libDaisy/src/hid/disp/display.h ****         int_fast16_t error  = deltaX - deltaY;
 1539              		.loc 12 230 42 view .LVU317
 1540 002e 9642     		cmp	r6, r2
 231:../../libDaisy/src/hid/disp/display.h ****         int_fast16_t error2;
 1541              		.loc 12 231 22 view .LVU318
 1542 0030 A4EB080C 		sub	ip, r4, r8
 230:../../libDaisy/src/hid/disp/display.h ****         int_fast16_t error  = deltaX - deltaY;
 1543              		.loc 12 230 42 view .LVU319
 1544 0034 51D8     		bhi	.L108
 1545              	.LVL115:
 1546              	.LBB613:
 1547              	.LBI613:
  42:../../libDaisy/src/hid/disp/oled_display.h ****     {
 1548              		.loc 10 42 10 is_stmt 1 discriminator 4 view .LVU320
 1549              	.LBB614:
 1550              	.LBI614:
 252:../../libDaisy/src/dev/oled_ssd130x.h ****     {
 1551              		.loc 11 252 10 discriminator 4 view .LVU321
 1552              	.LBE614:
 1553              	.LBE613:
 230:../../libDaisy/src/hid/disp/display.h ****         int_fast16_t error  = deltaX - deltaY;
 1554              		.loc 12 230 42 is_stmt 0 discriminator 4 view .LVU322
 1555 0036 4FF0FF35 		mov	r5, #-1
 1556              	.LBB630:
 1557              	.LBB624:
 1558              	.LBB615:
 254:../../libDaisy/src/dev/oled_ssd130x.h ****             return;
 1559              		.loc 11 254 9 discriminator 4 view .LVU323
 1560 003a 7F2B     		cmp	r3, #127
 1561              	.LBE615:
 1562              	.LBE624:
 1563              	.LBE630:
 230:../../libDaisy/src/hid/disp/display.h ****         int_fast16_t error  = deltaX - deltaY;
ARM GAS  /var/folders/hl/qgbwny5j0fd895c2c41bk3tw0000gp/T//ccFqANMK.s 			page 55


 1564              		.loc 12 230 42 discriminator 4 view .LVU324
 1565 003c 0195     		str	r5, [sp, #4]
 1566              	.LBB631:
 1567              	.LBB625:
 1568              	.LBB620:
 254:../../libDaisy/src/dev/oled_ssd130x.h ****             return;
 1569              		.loc 11 254 9 discriminator 4 view .LVU325
 1570 003e 12D8     		bhi	.L109
 1571 0040 3F2E     		cmp	r6, #63
 1572 0042 10D8     		bhi	.L109
 1573              	.LVL116:
 1574              	.L120:
 257:../../libDaisy/src/dev/oled_ssd130x.h ****         else
 1575              		.loc 11 257 28 view .LVU326
 1576 0044 F508     		lsrs	r5, r6, #3
 257:../../libDaisy/src/dev/oled_ssd130x.h ****         else
 1577              		.loc 11 257 54 view .LVU327
 1578 0046 06F0070E 		and	lr, r6, #7
 257:../../libDaisy/src/dev/oled_ssd130x.h ****         else
 1579              		.loc 11 257 48 view .LVU328
 1580 004a 0127     		movs	r7, #1
 257:../../libDaisy/src/dev/oled_ssd130x.h ****         else
 1581              		.loc 11 257 42 view .LVU329
 1582 004c 03EBC515 		add	r5, r3, r5, lsl #7
 1583 0050 0544     		add	r5, r5, r0
 256:../../libDaisy/src/dev/oled_ssd130x.h ****             buffer_[x + (y / 8) * width] |= (1 << (y % 8));
 1584              		.loc 11 256 9 view .LVU330
 1585 0052 B9F1000F 		cmp	r9, #0
 1586 0056 47D0     		beq	.L110
 257:../../libDaisy/src/dev/oled_ssd130x.h ****         else
 1587              		.loc 11 257 48 view .LVU331
 1588 0058 07FA0EF7 		lsl	r7, r7, lr
 257:../../libDaisy/src/dev/oled_ssd130x.h ****         else
 1589              		.loc 11 257 42 view .LVU332
 1590 005c 95F814E0 		ldrb	lr, [r5, #20]	@ zero_extendqisi2
 1591 0060 47EA0E07 		orr	r7, r7, lr
 1592 0064 2F75     		strb	r7, [r5, #20]
 1593              	.LVL117:
 1594              	.L109:
 257:../../libDaisy/src/dev/oled_ssd130x.h ****         else
 1595              		.loc 11 257 42 view .LVU333
 1596              	.LBE620:
 1597              	.LBE625:
 1598              	.LBE631:
 239:../../libDaisy/src/hid/disp/display.h ****         {
 1599              		.loc 12 239 26 is_stmt 1 view .LVU334
 1600 0066 9642     		cmp	r6, r2
 1601 0068 01D1     		bne	.L113
 1602              	.L132:
 239:../../libDaisy/src/hid/disp/display.h ****         {
 1603              		.loc 12 239 26 is_stmt 0 view .LVU335
 1604 006a 8B42     		cmp	r3, r1
 1605 006c 29D0     		beq	.L106
 1606              	.L113:
 1607              	.LVL118:
 243:../../libDaisy/src/hid/disp/display.h ****             {
 1608              		.loc 12 243 23 view .LVU336
ARM GAS  /var/folders/hl/qgbwny5j0fd895c2c41bk3tw0000gp/T//ccFqANMK.s 			page 56


 1609 006e C8F10007 		rsb	r7, r8, #0
 1610              	.L115:
 1611              	.LVL119:
 1612              	.LBB632:
 1613              	.LBI632:
  42:../../libDaisy/src/hid/disp/oled_display.h ****     {
 1614              		.loc 10 42 10 is_stmt 1 view .LVU337
 1615              	.LBB633:
 1616              	.LBI633:
 252:../../libDaisy/src/dev/oled_ssd130x.h ****     {
 1617              		.loc 11 252 10 view .LVU338
 1618              	.LBB634:
 254:../../libDaisy/src/dev/oled_ssd130x.h ****             return;
 1619              		.loc 11 254 9 is_stmt 0 view .LVU339
 1620 0072 7F29     		cmp	r1, #127
 1621 0074 14D8     		bhi	.L116
 1622 0076 3F2A     		cmp	r2, #63
 1623 0078 12D8     		bhi	.L116
 257:../../libDaisy/src/dev/oled_ssd130x.h ****         else
 1624              		.loc 11 257 28 view .LVU340
 1625 007a D508     		lsrs	r5, r2, #3
 257:../../libDaisy/src/dev/oled_ssd130x.h ****         else
 1626              		.loc 11 257 54 view .LVU341
 1627 007c 02F0070B 		and	fp, r2, #7
 257:../../libDaisy/src/dev/oled_ssd130x.h ****         else
 1628              		.loc 11 257 48 view .LVU342
 1629 0080 4FF0010E 		mov	lr, #1
 257:../../libDaisy/src/dev/oled_ssd130x.h ****         else
 1630              		.loc 11 257 42 view .LVU343
 1631 0084 01EBC515 		add	r5, r1, r5, lsl #7
 1632 0088 0544     		add	r5, r5, r0
 256:../../libDaisy/src/dev/oled_ssd130x.h ****             buffer_[x + (y / 8) * width] |= (1 << (y % 8));
 1633              		.loc 11 256 9 view .LVU344
 1634 008a B9F1000F 		cmp	r9, #0
 1635 008e 1BD0     		beq	.L117
 257:../../libDaisy/src/dev/oled_ssd130x.h ****         else
 1636              		.loc 11 257 48 view .LVU345
 1637 0090 0EFA0BFE 		lsl	lr, lr, fp
 257:../../libDaisy/src/dev/oled_ssd130x.h ****         else
 1638              		.loc 11 257 42 view .LVU346
 1639 0094 95F814B0 		ldrb	fp, [r5, #20]	@ zero_extendqisi2
 1640 0098 4EEA0B0E 		orr	lr, lr, fp
 1641 009c 85F814E0 		strb	lr, [r5, #20]
 1642              	.L116:
 1643              	.LVL120:
 257:../../libDaisy/src/dev/oled_ssd130x.h ****         else
 1644              		.loc 11 257 42 view .LVU347
 1645              	.LBE634:
 1646              	.LBE633:
 1647              	.LBE632:
 243:../../libDaisy/src/hid/disp/display.h ****             {
 1648              		.loc 12 243 13 view .LVU348
 1649 00a0 B7EB4C0F 		cmp	r7, ip, lsl #1
 242:../../libDaisy/src/hid/disp/display.h ****             if(error2 > -deltaY)
 1650              		.loc 12 242 20 view .LVU349
 1651 00a4 4FEA4C05 		lsl	r5, ip, #1
 1652              	.LVL121:
ARM GAS  /var/folders/hl/qgbwny5j0fd895c2c41bk3tw0000gp/T//ccFqANMK.s 			page 57


 243:../../libDaisy/src/hid/disp/display.h ****             {
 1653              		.loc 12 243 13 view .LVU350
 1654 00a8 02DA     		bge	.L118
 245:../../libDaisy/src/hid/disp/display.h ****                 x1 += signX;
 1655              		.loc 12 245 23 view .LVU351
 1656 00aa ACEB080C 		sub	ip, ip, r8
 1657              	.LVL122:
 246:../../libDaisy/src/hid/disp/display.h ****             }
 1658              		.loc 12 246 20 view .LVU352
 1659 00ae 5144     		add	r1, r1, r10
 1660              	.LVL123:
 1661              	.L118:
 249:../../libDaisy/src/hid/disp/display.h ****             {
 1662              		.loc 12 249 13 view .LVU353
 1663 00b0 AC42     		cmp	r4, r5
 1664 00b2 02DD     		ble	.L119
 252:../../libDaisy/src/hid/disp/display.h ****             }
 1665              		.loc 12 252 20 view .LVU354
 1666 00b4 019D     		ldr	r5, [sp, #4]
 1667              	.LVL124:
 251:../../libDaisy/src/hid/disp/display.h ****                 y1 += signY;
 1668              		.loc 12 251 23 view .LVU355
 1669 00b6 A444     		add	ip, ip, r4
 1670              	.LVL125:
 252:../../libDaisy/src/hid/disp/display.h ****             }
 1671              		.loc 12 252 20 view .LVU356
 1672 00b8 2A44     		add	r2, r2, r5
 1673              	.LVL126:
 1674              	.L119:
 239:../../libDaisy/src/hid/disp/display.h ****         {
 1675              		.loc 12 239 26 is_stmt 1 view .LVU357
 1676 00ba 9942     		cmp	r1, r3
 1677 00bc D9D1     		bne	.L115
 239:../../libDaisy/src/hid/disp/display.h ****         {
 1678              		.loc 12 239 26 is_stmt 0 view .LVU358
 1679 00be 9642     		cmp	r6, r2
 1680 00c0 D7D1     		bne	.L115
 1681              	.L106:
 255:../../libDaisy/src/hid/disp/display.h **** 
 1682              		.loc 12 255 5 view .LVU359
 1683 00c2 03B0     		add	sp, sp, #12
 1684              		.cfi_remember_state
 1685              		.cfi_def_cfa_offset 36
 1686              		@ sp needed
 1687 00c4 BDE8F08F 		pop	{r4, r5, r6, r7, r8, r9, r10, fp, pc}
 1688              	.LVL127:
 1689              	.L117:
 1690              		.cfi_restore_state
 1691              	.LBB639:
 1692              	.LBB638:
 1693              	.LBB637:
 1694              	.LBB635:
 1695              	.LBI635:
 252:../../libDaisy/src/dev/oled_ssd130x.h ****     {
 1696              		.loc 11 252 10 is_stmt 1 view .LVU360
 1697              	.LBB636:
 259:../../libDaisy/src/dev/oled_ssd130x.h ****     }
ARM GAS  /var/folders/hl/qgbwny5j0fd895c2c41bk3tw0000gp/T//ccFqANMK.s 			page 58


 1698              		.loc 11 259 49 is_stmt 0 view .LVU361
 1699 00c8 0EFA0BFB 		lsl	fp, lr, fp
 259:../../libDaisy/src/dev/oled_ssd130x.h ****     }
 1700              		.loc 11 259 42 view .LVU362
 1701 00cc 95F814E0 		ldrb	lr, [r5, #20]	@ zero_extendqisi2
 1702 00d0 2EEA0B0E 		bic	lr, lr, fp
 1703 00d4 85F814E0 		strb	lr, [r5, #20]
 1704 00d8 E2E7     		b	.L116
 1705              	.LVL128:
 1706              	.L108:
 259:../../libDaisy/src/dev/oled_ssd130x.h ****     }
 1707              		.loc 11 259 42 view .LVU363
 1708              	.LBE636:
 1709              	.LBE635:
 1710              	.LBE637:
 1711              	.LBE638:
 1712              	.LBE639:
 1713              	.LBB640:
  42:../../libDaisy/src/hid/disp/oled_display.h ****     {
 1714              		.loc 10 42 10 is_stmt 1 view .LVU364
 1715              	.LBB626:
 252:../../libDaisy/src/dev/oled_ssd130x.h ****     {
 1716              		.loc 11 252 10 view .LVU365
 1717              	.LBE626:
 1718              	.LBE640:
 230:../../libDaisy/src/hid/disp/display.h ****         int_fast16_t error  = deltaX - deltaY;
 1719              		.loc 12 230 42 is_stmt 0 view .LVU366
 1720 00da 0125     		movs	r5, #1
 1721              	.LBB641:
 1722              	.LBB627:
 1723              	.LBB621:
 254:../../libDaisy/src/dev/oled_ssd130x.h ****             return;
 1724              		.loc 11 254 9 view .LVU367
 1725 00dc 7F2B     		cmp	r3, #127
 1726              	.LBE621:
 1727              	.LBE627:
 1728              	.LBE641:
 230:../../libDaisy/src/hid/disp/display.h ****         int_fast16_t error  = deltaX - deltaY;
 1729              		.loc 12 230 42 view .LVU368
 1730 00de 0195     		str	r5, [sp, #4]
 1731              	.LBB642:
 1732              	.LBB628:
 1733              	.LBB622:
 254:../../libDaisy/src/dev/oled_ssd130x.h ****             return;
 1734              		.loc 11 254 9 view .LVU369
 1735 00e0 C5D8     		bhi	.L113
 1736 00e2 3F2E     		cmp	r6, #63
 1737 00e4 AED9     		bls	.L120
 1738 00e6 C2E7     		b	.L113
 1739              	.LVL129:
 1740              	.L110:
 1741              	.LBB616:
 1742              	.LBI616:
 252:../../libDaisy/src/dev/oled_ssd130x.h ****     {
 1743              		.loc 11 252 10 is_stmt 1 view .LVU370
 1744              	.LBB617:
 259:../../libDaisy/src/dev/oled_ssd130x.h ****     }
ARM GAS  /var/folders/hl/qgbwny5j0fd895c2c41bk3tw0000gp/T//ccFqANMK.s 			page 59


 1745              		.loc 11 259 49 is_stmt 0 view .LVU371
 1746 00e8 07FA0EFE 		lsl	lr, r7, lr
 259:../../libDaisy/src/dev/oled_ssd130x.h ****     }
 1747              		.loc 11 259 42 view .LVU372
 1748 00ec 2F7D     		ldrb	r7, [r5, #20]	@ zero_extendqisi2
 1749              	.LBE617:
 1750              	.LBE616:
 1751              	.LBE622:
 1752              	.LBE628:
 1753              	.LBE642:
 239:../../libDaisy/src/hid/disp/display.h ****         {
 1754              		.loc 12 239 26 view .LVU373
 1755 00ee 9642     		cmp	r6, r2
 1756              	.LBB643:
 1757              	.LBB629:
 1758              	.LBB623:
 1759              	.LBB619:
 1760              	.LBB618:
 259:../../libDaisy/src/dev/oled_ssd130x.h ****     }
 1761              		.loc 11 259 42 view .LVU374
 1762 00f0 27EA0E07 		bic	r7, r7, lr
 1763 00f4 2F75     		strb	r7, [r5, #20]
 1764              	.LVL130:
 259:../../libDaisy/src/dev/oled_ssd130x.h ****     }
 1765              		.loc 11 259 42 view .LVU375
 1766              	.LBE618:
 1767              	.LBE619:
 1768              	.LBE623:
 1769              	.LBE629:
 1770              	.LBE643:
 239:../../libDaisy/src/hid/disp/display.h ****         {
 1771              		.loc 12 239 26 is_stmt 1 view .LVU376
 1772 00f6 B8D0     		beq	.L132
 1773 00f8 B9E7     		b	.L113
 1774              		.cfi_endproc
 1775              	.LFE2612:
 1777 00fa 00BF     		.section	.text._ZN5daisy25OneBitGraphicsDisplayImplINS_11OledDisplayINS_13SSD130xDriverILj128ELj64
 1778              		.align	1
 1779              		.p2align 2,,3
 1780              		.weak	_ZN5daisy25OneBitGraphicsDisplayImplINS_11OledDisplayINS_13SSD130xDriverILj128ELj64ENS_24SSD
 1781              		.syntax unified
 1782              		.thumb
 1783              		.thumb_func
 1784              		.fpu fpv5-d16
 1786              	_ZN5daisy25OneBitGraphicsDisplayImplINS_11OledDisplayINS_13SSD130xDriverILj128ELj64ENS_24SSD130x4Wi
 1787              	.LVL131:
 1788              	.LFB2614:
 283:../../libDaisy/src/hid/disp/display.h ****                  uint_fast8_t y,
 1789              		.loc 12 283 10 view -0
 1790              		.cfi_startproc
 1791              		@ args = 12, pretend = 0, frame = 8
 1792              		@ frame_needed = 0, uses_anonymous_args = 0
 283:../../libDaisy/src/hid/disp/display.h ****                  uint_fast8_t y,
 1793              		.loc 12 283 10 is_stmt 0 view .LVU378
 1794 0000 2DE9F04F 		push	{r4, r5, r6, r7, r8, r9, r10, fp, lr}
 1795              		.cfi_def_cfa_offset 36
 1796              		.cfi_offset 4, -36
ARM GAS  /var/folders/hl/qgbwny5j0fd895c2c41bk3tw0000gp/T//ccFqANMK.s 			page 60


 1797              		.cfi_offset 5, -32
 1798              		.cfi_offset 6, -28
 1799              		.cfi_offset 7, -24
 1800              		.cfi_offset 8, -20
 1801              		.cfi_offset 9, -16
 1802              		.cfi_offset 10, -12
 1803              		.cfi_offset 11, -8
 1804              		.cfi_offset 14, -4
 1805 0004 2DED068B 		vpush.64	{d8, d9, d10}
 1806              		.cfi_def_cfa_offset 60
 1807              		.cfi_offset 80, -60
 1808              		.cfi_offset 81, -56
 1809              		.cfi_offset 82, -52
 1810              		.cfi_offset 83, -48
 1811              		.cfi_offset 84, -44
 1812              		.cfi_offset 85, -40
 1813 0008 83B0     		sub	sp, sp, #12
 1814              		.cfi_def_cfa_offset 72
 283:../../libDaisy/src/hid/disp/display.h ****                  uint_fast8_t y,
 1815              		.loc 12 283 10 view .LVU379
 1816 000a 1F46     		mov	r7, r3
 1817 000c 8046     		mov	r8, r0
 1818 000e 0D46     		mov	r5, r1
 1819 0010 9DF85030 		ldrb	r3, [sp, #80]	@ zero_extendqisi2
 1820              	.LVL132:
 283:../../libDaisy/src/hid/disp/display.h ****                  uint_fast8_t y,
 1821              		.loc 12 283 10 view .LVU380
 1822 0014 1646     		mov	r6, r2
 1823 0016 0193     		str	r3, [sp, #4]
 306:../../libDaisy/src/hid/disp/display.h ****         {
 1824              		.loc 12 306 9 view .LVU381
 1825 0018 139B     		ldr	r3, [sp, #76]
 1826 001a 002B     		cmp	r3, #0
 1827 001c C0F22182 		blt	.L134
 313:../../libDaisy/src/hid/disp/display.h **** 
 1828              		.loc 12 313 27 view .LVU382
 1829 0020 129A     		ldr	r2, [sp, #72]
 1830              	.LVL133:
 313:../../libDaisy/src/hid/disp/display.h **** 
 1831              		.loc 12 313 27 view .LVU383
 1832 0022 1344     		add	r3, r3, r2
 1833 0024 06EE103A 		vmov	s12, r3	@ int
 1834              	.LVL134:
 1835              	.L135:
 312:../../libDaisy/src/hid/disp/display.h ****         end_angle_rad   = deg2rad(start_angle + sweep);
 1836              		.loc 12 312 27 view .LVU384
 1837 0028 DDED127A 		vldr.32	s15, [sp, #72]	@ int
 313:../../libDaisy/src/hid/disp/display.h **** 
 1838              		.loc 12 313 27 view .LVU385
 1839 002c B8EEC66B 		vcvt.f64.s32	d6, s12
 312:../../libDaisy/src/hid/disp/display.h ****         end_angle_rad   = deg2rad(start_angle + sweep);
 1840              		.loc 12 312 27 view .LVU386
 1841 0030 9FEDCD4B 		vldr.64	d4, .L210
 1842 0034 B8EEE77B 		vcvt.f64.s32	d7, s15
 1843 0038 9FEDCD5B 		vldr.64	d5, .L210+8
 1844 003c 27EE047B 		vmul.f64	d7, d7, d4
 313:../../libDaisy/src/hid/disp/display.h **** 
ARM GAS  /var/folders/hl/qgbwny5j0fd895c2c41bk3tw0000gp/T//ccFqANMK.s 			page 61


 1845              		.loc 12 313 27 view .LVU387
 1846 0040 26EE046B 		vmul.f64	d6, d6, d4
 312:../../libDaisy/src/hid/disp/display.h ****         end_angle_rad   = deg2rad(start_angle + sweep);
 1847              		.loc 12 312 27 view .LVU388
 1848 0044 87EE050B 		vdiv.f64	d0, d7, d5
 313:../../libDaisy/src/hid/disp/display.h **** 
 1849              		.loc 12 313 27 view .LVU389
 1850 0048 86EE05AB 		vdiv.f64	d10, d6, d5
 312:../../libDaisy/src/hid/disp/display.h ****         end_angle_rad   = deg2rad(start_angle + sweep);
 1851              		.loc 12 312 25 view .LVU390
 1852 004c F7EEC08B 		vcvt.f32.f64	s17, d0
 1853              	.LVL135:
 1854              	.LBB676:
 1855              	.LBB677:
 1856              		.file 13 "/opt/homebrew/Cellar/arm-none-eabi-gcc/10.3-2021.07/gcc/arm-none-eabi/include/c++/10.3.1
   1:/opt/homebrew/Cellar/arm-none-eabi-gcc/10.3-2021.07/gcc/arm-none-eabi/include/c++/10.3.1/cmath **** // -*- C++ -*- C forwarding header.
   2:/opt/homebrew/Cellar/arm-none-eabi-gcc/10.3-2021.07/gcc/arm-none-eabi/include/c++/10.3.1/cmath **** 
   3:/opt/homebrew/Cellar/arm-none-eabi-gcc/10.3-2021.07/gcc/arm-none-eabi/include/c++/10.3.1/cmath **** // Copyright (C) 1997-2020 Free Software Foundation, Inc.
   4:/opt/homebrew/Cellar/arm-none-eabi-gcc/10.3-2021.07/gcc/arm-none-eabi/include/c++/10.3.1/cmath **** //
   5:/opt/homebrew/Cellar/arm-none-eabi-gcc/10.3-2021.07/gcc/arm-none-eabi/include/c++/10.3.1/cmath **** // This file is part of the GNU ISO C++ Library.  This library is free
   6:/opt/homebrew/Cellar/arm-none-eabi-gcc/10.3-2021.07/gcc/arm-none-eabi/include/c++/10.3.1/cmath **** // software; you can redistribute it and/or modify it under the
   7:/opt/homebrew/Cellar/arm-none-eabi-gcc/10.3-2021.07/gcc/arm-none-eabi/include/c++/10.3.1/cmath **** // terms of the GNU General Public License as published by the
   8:/opt/homebrew/Cellar/arm-none-eabi-gcc/10.3-2021.07/gcc/arm-none-eabi/include/c++/10.3.1/cmath **** // Free Software Foundation; either version 3, or (at your option)
   9:/opt/homebrew/Cellar/arm-none-eabi-gcc/10.3-2021.07/gcc/arm-none-eabi/include/c++/10.3.1/cmath **** // any later version.
  10:/opt/homebrew/Cellar/arm-none-eabi-gcc/10.3-2021.07/gcc/arm-none-eabi/include/c++/10.3.1/cmath **** 
  11:/opt/homebrew/Cellar/arm-none-eabi-gcc/10.3-2021.07/gcc/arm-none-eabi/include/c++/10.3.1/cmath **** // This library is distributed in the hope that it will be useful,
  12:/opt/homebrew/Cellar/arm-none-eabi-gcc/10.3-2021.07/gcc/arm-none-eabi/include/c++/10.3.1/cmath **** // but WITHOUT ANY WARRANTY; without even the implied warranty of
  13:/opt/homebrew/Cellar/arm-none-eabi-gcc/10.3-2021.07/gcc/arm-none-eabi/include/c++/10.3.1/cmath **** // MERCHANTABILITY or FITNESS FOR A PARTICULAR PURPOSE.  See the
  14:/opt/homebrew/Cellar/arm-none-eabi-gcc/10.3-2021.07/gcc/arm-none-eabi/include/c++/10.3.1/cmath **** // GNU General Public License for more details.
  15:/opt/homebrew/Cellar/arm-none-eabi-gcc/10.3-2021.07/gcc/arm-none-eabi/include/c++/10.3.1/cmath **** 
  16:/opt/homebrew/Cellar/arm-none-eabi-gcc/10.3-2021.07/gcc/arm-none-eabi/include/c++/10.3.1/cmath **** // Under Section 7 of GPL version 3, you are granted additional
  17:/opt/homebrew/Cellar/arm-none-eabi-gcc/10.3-2021.07/gcc/arm-none-eabi/include/c++/10.3.1/cmath **** // permissions described in the GCC Runtime Library Exception, version
  18:/opt/homebrew/Cellar/arm-none-eabi-gcc/10.3-2021.07/gcc/arm-none-eabi/include/c++/10.3.1/cmath **** // 3.1, as published by the Free Software Foundation.
  19:/opt/homebrew/Cellar/arm-none-eabi-gcc/10.3-2021.07/gcc/arm-none-eabi/include/c++/10.3.1/cmath **** 
  20:/opt/homebrew/Cellar/arm-none-eabi-gcc/10.3-2021.07/gcc/arm-none-eabi/include/c++/10.3.1/cmath **** // You should have received a copy of the GNU General Public License and
  21:/opt/homebrew/Cellar/arm-none-eabi-gcc/10.3-2021.07/gcc/arm-none-eabi/include/c++/10.3.1/cmath **** // a copy of the GCC Runtime Library Exception along with this program;
  22:/opt/homebrew/Cellar/arm-none-eabi-gcc/10.3-2021.07/gcc/arm-none-eabi/include/c++/10.3.1/cmath **** // see the files COPYING3 and COPYING.RUNTIME respectively.  If not, see
  23:/opt/homebrew/Cellar/arm-none-eabi-gcc/10.3-2021.07/gcc/arm-none-eabi/include/c++/10.3.1/cmath **** // <http://www.gnu.org/licenses/>.
  24:/opt/homebrew/Cellar/arm-none-eabi-gcc/10.3-2021.07/gcc/arm-none-eabi/include/c++/10.3.1/cmath **** 
  25:/opt/homebrew/Cellar/arm-none-eabi-gcc/10.3-2021.07/gcc/arm-none-eabi/include/c++/10.3.1/cmath **** /** @file include/cmath
  26:/opt/homebrew/Cellar/arm-none-eabi-gcc/10.3-2021.07/gcc/arm-none-eabi/include/c++/10.3.1/cmath ****  *  This is a Standard C++ Library file.  You should @c \#include this file
  27:/opt/homebrew/Cellar/arm-none-eabi-gcc/10.3-2021.07/gcc/arm-none-eabi/include/c++/10.3.1/cmath ****  *  in your programs, rather than any of the @a *.h implementation files.
  28:/opt/homebrew/Cellar/arm-none-eabi-gcc/10.3-2021.07/gcc/arm-none-eabi/include/c++/10.3.1/cmath ****  *
  29:/opt/homebrew/Cellar/arm-none-eabi-gcc/10.3-2021.07/gcc/arm-none-eabi/include/c++/10.3.1/cmath ****  *  This is the C++ version of the Standard C Library header @c math.h,
  30:/opt/homebrew/Cellar/arm-none-eabi-gcc/10.3-2021.07/gcc/arm-none-eabi/include/c++/10.3.1/cmath ****  *  and its contents are (mostly) the same as that header, but are all
  31:/opt/homebrew/Cellar/arm-none-eabi-gcc/10.3-2021.07/gcc/arm-none-eabi/include/c++/10.3.1/cmath ****  *  contained in the namespace @c std (except for names which are defined
  32:/opt/homebrew/Cellar/arm-none-eabi-gcc/10.3-2021.07/gcc/arm-none-eabi/include/c++/10.3.1/cmath ****  *  as macros in C).
  33:/opt/homebrew/Cellar/arm-none-eabi-gcc/10.3-2021.07/gcc/arm-none-eabi/include/c++/10.3.1/cmath ****  */
  34:/opt/homebrew/Cellar/arm-none-eabi-gcc/10.3-2021.07/gcc/arm-none-eabi/include/c++/10.3.1/cmath **** 
  35:/opt/homebrew/Cellar/arm-none-eabi-gcc/10.3-2021.07/gcc/arm-none-eabi/include/c++/10.3.1/cmath **** //
  36:/opt/homebrew/Cellar/arm-none-eabi-gcc/10.3-2021.07/gcc/arm-none-eabi/include/c++/10.3.1/cmath **** // ISO C++ 14882: 26.5  C library
  37:/opt/homebrew/Cellar/arm-none-eabi-gcc/10.3-2021.07/gcc/arm-none-eabi/include/c++/10.3.1/cmath **** //
  38:/opt/homebrew/Cellar/arm-none-eabi-gcc/10.3-2021.07/gcc/arm-none-eabi/include/c++/10.3.1/cmath **** 
  39:/opt/homebrew/Cellar/arm-none-eabi-gcc/10.3-2021.07/gcc/arm-none-eabi/include/c++/10.3.1/cmath **** #pragma GCC system_header
  40:/opt/homebrew/Cellar/arm-none-eabi-gcc/10.3-2021.07/gcc/arm-none-eabi/include/c++/10.3.1/cmath **** 
  41:/opt/homebrew/Cellar/arm-none-eabi-gcc/10.3-2021.07/gcc/arm-none-eabi/include/c++/10.3.1/cmath **** #include <bits/c++config.h>
  42:/opt/homebrew/Cellar/arm-none-eabi-gcc/10.3-2021.07/gcc/arm-none-eabi/include/c++/10.3.1/cmath **** #include <bits/cpp_type_traits.h>
ARM GAS  /var/folders/hl/qgbwny5j0fd895c2c41bk3tw0000gp/T//ccFqANMK.s 			page 62


  43:/opt/homebrew/Cellar/arm-none-eabi-gcc/10.3-2021.07/gcc/arm-none-eabi/include/c++/10.3.1/cmath **** #include <ext/type_traits.h>
  44:/opt/homebrew/Cellar/arm-none-eabi-gcc/10.3-2021.07/gcc/arm-none-eabi/include/c++/10.3.1/cmath **** #define _GLIBCXX_INCLUDE_NEXT_C_HEADERS
  45:/opt/homebrew/Cellar/arm-none-eabi-gcc/10.3-2021.07/gcc/arm-none-eabi/include/c++/10.3.1/cmath **** #include_next <math.h>
  46:/opt/homebrew/Cellar/arm-none-eabi-gcc/10.3-2021.07/gcc/arm-none-eabi/include/c++/10.3.1/cmath **** #undef _GLIBCXX_INCLUDE_NEXT_C_HEADERS
  47:/opt/homebrew/Cellar/arm-none-eabi-gcc/10.3-2021.07/gcc/arm-none-eabi/include/c++/10.3.1/cmath **** #include <bits/std_abs.h>
  48:/opt/homebrew/Cellar/arm-none-eabi-gcc/10.3-2021.07/gcc/arm-none-eabi/include/c++/10.3.1/cmath **** 
  49:/opt/homebrew/Cellar/arm-none-eabi-gcc/10.3-2021.07/gcc/arm-none-eabi/include/c++/10.3.1/cmath **** #ifndef _GLIBCXX_CMATH
  50:/opt/homebrew/Cellar/arm-none-eabi-gcc/10.3-2021.07/gcc/arm-none-eabi/include/c++/10.3.1/cmath **** #define _GLIBCXX_CMATH 1
  51:/opt/homebrew/Cellar/arm-none-eabi-gcc/10.3-2021.07/gcc/arm-none-eabi/include/c++/10.3.1/cmath **** 
  52:/opt/homebrew/Cellar/arm-none-eabi-gcc/10.3-2021.07/gcc/arm-none-eabi/include/c++/10.3.1/cmath **** // Get rid of those macros defined in <math.h> in lieu of real functions.
  53:/opt/homebrew/Cellar/arm-none-eabi-gcc/10.3-2021.07/gcc/arm-none-eabi/include/c++/10.3.1/cmath **** #undef div
  54:/opt/homebrew/Cellar/arm-none-eabi-gcc/10.3-2021.07/gcc/arm-none-eabi/include/c++/10.3.1/cmath **** #undef acos
  55:/opt/homebrew/Cellar/arm-none-eabi-gcc/10.3-2021.07/gcc/arm-none-eabi/include/c++/10.3.1/cmath **** #undef asin
  56:/opt/homebrew/Cellar/arm-none-eabi-gcc/10.3-2021.07/gcc/arm-none-eabi/include/c++/10.3.1/cmath **** #undef atan
  57:/opt/homebrew/Cellar/arm-none-eabi-gcc/10.3-2021.07/gcc/arm-none-eabi/include/c++/10.3.1/cmath **** #undef atan2
  58:/opt/homebrew/Cellar/arm-none-eabi-gcc/10.3-2021.07/gcc/arm-none-eabi/include/c++/10.3.1/cmath **** #undef ceil
  59:/opt/homebrew/Cellar/arm-none-eabi-gcc/10.3-2021.07/gcc/arm-none-eabi/include/c++/10.3.1/cmath **** #undef cos
  60:/opt/homebrew/Cellar/arm-none-eabi-gcc/10.3-2021.07/gcc/arm-none-eabi/include/c++/10.3.1/cmath **** #undef cosh
  61:/opt/homebrew/Cellar/arm-none-eabi-gcc/10.3-2021.07/gcc/arm-none-eabi/include/c++/10.3.1/cmath **** #undef exp
  62:/opt/homebrew/Cellar/arm-none-eabi-gcc/10.3-2021.07/gcc/arm-none-eabi/include/c++/10.3.1/cmath **** #undef fabs
  63:/opt/homebrew/Cellar/arm-none-eabi-gcc/10.3-2021.07/gcc/arm-none-eabi/include/c++/10.3.1/cmath **** #undef floor
  64:/opt/homebrew/Cellar/arm-none-eabi-gcc/10.3-2021.07/gcc/arm-none-eabi/include/c++/10.3.1/cmath **** #undef fmod
  65:/opt/homebrew/Cellar/arm-none-eabi-gcc/10.3-2021.07/gcc/arm-none-eabi/include/c++/10.3.1/cmath **** #undef frexp
  66:/opt/homebrew/Cellar/arm-none-eabi-gcc/10.3-2021.07/gcc/arm-none-eabi/include/c++/10.3.1/cmath **** #undef ldexp
  67:/opt/homebrew/Cellar/arm-none-eabi-gcc/10.3-2021.07/gcc/arm-none-eabi/include/c++/10.3.1/cmath **** #undef log
  68:/opt/homebrew/Cellar/arm-none-eabi-gcc/10.3-2021.07/gcc/arm-none-eabi/include/c++/10.3.1/cmath **** #undef log10
  69:/opt/homebrew/Cellar/arm-none-eabi-gcc/10.3-2021.07/gcc/arm-none-eabi/include/c++/10.3.1/cmath **** #undef modf
  70:/opt/homebrew/Cellar/arm-none-eabi-gcc/10.3-2021.07/gcc/arm-none-eabi/include/c++/10.3.1/cmath **** #undef pow
  71:/opt/homebrew/Cellar/arm-none-eabi-gcc/10.3-2021.07/gcc/arm-none-eabi/include/c++/10.3.1/cmath **** #undef sin
  72:/opt/homebrew/Cellar/arm-none-eabi-gcc/10.3-2021.07/gcc/arm-none-eabi/include/c++/10.3.1/cmath **** #undef sinh
  73:/opt/homebrew/Cellar/arm-none-eabi-gcc/10.3-2021.07/gcc/arm-none-eabi/include/c++/10.3.1/cmath **** #undef sqrt
  74:/opt/homebrew/Cellar/arm-none-eabi-gcc/10.3-2021.07/gcc/arm-none-eabi/include/c++/10.3.1/cmath **** #undef tan
  75:/opt/homebrew/Cellar/arm-none-eabi-gcc/10.3-2021.07/gcc/arm-none-eabi/include/c++/10.3.1/cmath **** #undef tanh
  76:/opt/homebrew/Cellar/arm-none-eabi-gcc/10.3-2021.07/gcc/arm-none-eabi/include/c++/10.3.1/cmath **** 
  77:/opt/homebrew/Cellar/arm-none-eabi-gcc/10.3-2021.07/gcc/arm-none-eabi/include/c++/10.3.1/cmath **** extern "C++"
  78:/opt/homebrew/Cellar/arm-none-eabi-gcc/10.3-2021.07/gcc/arm-none-eabi/include/c++/10.3.1/cmath **** {
  79:/opt/homebrew/Cellar/arm-none-eabi-gcc/10.3-2021.07/gcc/arm-none-eabi/include/c++/10.3.1/cmath **** namespace std _GLIBCXX_VISIBILITY(default)
  80:/opt/homebrew/Cellar/arm-none-eabi-gcc/10.3-2021.07/gcc/arm-none-eabi/include/c++/10.3.1/cmath **** {
  81:/opt/homebrew/Cellar/arm-none-eabi-gcc/10.3-2021.07/gcc/arm-none-eabi/include/c++/10.3.1/cmath **** _GLIBCXX_BEGIN_NAMESPACE_VERSION
  82:/opt/homebrew/Cellar/arm-none-eabi-gcc/10.3-2021.07/gcc/arm-none-eabi/include/c++/10.3.1/cmath **** 
  83:/opt/homebrew/Cellar/arm-none-eabi-gcc/10.3-2021.07/gcc/arm-none-eabi/include/c++/10.3.1/cmath ****   using ::acos;
  84:/opt/homebrew/Cellar/arm-none-eabi-gcc/10.3-2021.07/gcc/arm-none-eabi/include/c++/10.3.1/cmath **** 
  85:/opt/homebrew/Cellar/arm-none-eabi-gcc/10.3-2021.07/gcc/arm-none-eabi/include/c++/10.3.1/cmath **** #ifndef __CORRECT_ISO_CPP_MATH_H_PROTO
  86:/opt/homebrew/Cellar/arm-none-eabi-gcc/10.3-2021.07/gcc/arm-none-eabi/include/c++/10.3.1/cmath ****   inline _GLIBCXX_CONSTEXPR float
  87:/opt/homebrew/Cellar/arm-none-eabi-gcc/10.3-2021.07/gcc/arm-none-eabi/include/c++/10.3.1/cmath ****   acos(float __x)
  88:/opt/homebrew/Cellar/arm-none-eabi-gcc/10.3-2021.07/gcc/arm-none-eabi/include/c++/10.3.1/cmath ****   { return __builtin_acosf(__x); }
  89:/opt/homebrew/Cellar/arm-none-eabi-gcc/10.3-2021.07/gcc/arm-none-eabi/include/c++/10.3.1/cmath **** 
  90:/opt/homebrew/Cellar/arm-none-eabi-gcc/10.3-2021.07/gcc/arm-none-eabi/include/c++/10.3.1/cmath ****   inline _GLIBCXX_CONSTEXPR long double
  91:/opt/homebrew/Cellar/arm-none-eabi-gcc/10.3-2021.07/gcc/arm-none-eabi/include/c++/10.3.1/cmath ****   acos(long double __x)
  92:/opt/homebrew/Cellar/arm-none-eabi-gcc/10.3-2021.07/gcc/arm-none-eabi/include/c++/10.3.1/cmath ****   { return __builtin_acosl(__x); }
  93:/opt/homebrew/Cellar/arm-none-eabi-gcc/10.3-2021.07/gcc/arm-none-eabi/include/c++/10.3.1/cmath **** #endif
  94:/opt/homebrew/Cellar/arm-none-eabi-gcc/10.3-2021.07/gcc/arm-none-eabi/include/c++/10.3.1/cmath **** 
  95:/opt/homebrew/Cellar/arm-none-eabi-gcc/10.3-2021.07/gcc/arm-none-eabi/include/c++/10.3.1/cmath ****   template<typename _Tp>
  96:/opt/homebrew/Cellar/arm-none-eabi-gcc/10.3-2021.07/gcc/arm-none-eabi/include/c++/10.3.1/cmath ****     inline _GLIBCXX_CONSTEXPR
  97:/opt/homebrew/Cellar/arm-none-eabi-gcc/10.3-2021.07/gcc/arm-none-eabi/include/c++/10.3.1/cmath ****     typename __gnu_cxx::__enable_if<__is_integer<_Tp>::__value, 
  98:/opt/homebrew/Cellar/arm-none-eabi-gcc/10.3-2021.07/gcc/arm-none-eabi/include/c++/10.3.1/cmath ****                                     double>::__type
  99:/opt/homebrew/Cellar/arm-none-eabi-gcc/10.3-2021.07/gcc/arm-none-eabi/include/c++/10.3.1/cmath ****     acos(_Tp __x)
ARM GAS  /var/folders/hl/qgbwny5j0fd895c2c41bk3tw0000gp/T//ccFqANMK.s 			page 63


 100:/opt/homebrew/Cellar/arm-none-eabi-gcc/10.3-2021.07/gcc/arm-none-eabi/include/c++/10.3.1/cmath ****     { return __builtin_acos(__x); }
 101:/opt/homebrew/Cellar/arm-none-eabi-gcc/10.3-2021.07/gcc/arm-none-eabi/include/c++/10.3.1/cmath **** 
 102:/opt/homebrew/Cellar/arm-none-eabi-gcc/10.3-2021.07/gcc/arm-none-eabi/include/c++/10.3.1/cmath ****   using ::asin;
 103:/opt/homebrew/Cellar/arm-none-eabi-gcc/10.3-2021.07/gcc/arm-none-eabi/include/c++/10.3.1/cmath **** 
 104:/opt/homebrew/Cellar/arm-none-eabi-gcc/10.3-2021.07/gcc/arm-none-eabi/include/c++/10.3.1/cmath **** #ifndef __CORRECT_ISO_CPP_MATH_H_PROTO
 105:/opt/homebrew/Cellar/arm-none-eabi-gcc/10.3-2021.07/gcc/arm-none-eabi/include/c++/10.3.1/cmath ****   inline _GLIBCXX_CONSTEXPR float
 106:/opt/homebrew/Cellar/arm-none-eabi-gcc/10.3-2021.07/gcc/arm-none-eabi/include/c++/10.3.1/cmath ****   asin(float __x)
 107:/opt/homebrew/Cellar/arm-none-eabi-gcc/10.3-2021.07/gcc/arm-none-eabi/include/c++/10.3.1/cmath ****   { return __builtin_asinf(__x); }
 108:/opt/homebrew/Cellar/arm-none-eabi-gcc/10.3-2021.07/gcc/arm-none-eabi/include/c++/10.3.1/cmath **** 
 109:/opt/homebrew/Cellar/arm-none-eabi-gcc/10.3-2021.07/gcc/arm-none-eabi/include/c++/10.3.1/cmath ****   inline _GLIBCXX_CONSTEXPR long double
 110:/opt/homebrew/Cellar/arm-none-eabi-gcc/10.3-2021.07/gcc/arm-none-eabi/include/c++/10.3.1/cmath ****   asin(long double __x)
 111:/opt/homebrew/Cellar/arm-none-eabi-gcc/10.3-2021.07/gcc/arm-none-eabi/include/c++/10.3.1/cmath ****   { return __builtin_asinl(__x); }
 112:/opt/homebrew/Cellar/arm-none-eabi-gcc/10.3-2021.07/gcc/arm-none-eabi/include/c++/10.3.1/cmath **** #endif
 113:/opt/homebrew/Cellar/arm-none-eabi-gcc/10.3-2021.07/gcc/arm-none-eabi/include/c++/10.3.1/cmath **** 
 114:/opt/homebrew/Cellar/arm-none-eabi-gcc/10.3-2021.07/gcc/arm-none-eabi/include/c++/10.3.1/cmath ****   template<typename _Tp>
 115:/opt/homebrew/Cellar/arm-none-eabi-gcc/10.3-2021.07/gcc/arm-none-eabi/include/c++/10.3.1/cmath ****     inline _GLIBCXX_CONSTEXPR
 116:/opt/homebrew/Cellar/arm-none-eabi-gcc/10.3-2021.07/gcc/arm-none-eabi/include/c++/10.3.1/cmath ****     typename __gnu_cxx::__enable_if<__is_integer<_Tp>::__value,
 117:/opt/homebrew/Cellar/arm-none-eabi-gcc/10.3-2021.07/gcc/arm-none-eabi/include/c++/10.3.1/cmath ****                                     double>::__type
 118:/opt/homebrew/Cellar/arm-none-eabi-gcc/10.3-2021.07/gcc/arm-none-eabi/include/c++/10.3.1/cmath ****     asin(_Tp __x)
 119:/opt/homebrew/Cellar/arm-none-eabi-gcc/10.3-2021.07/gcc/arm-none-eabi/include/c++/10.3.1/cmath ****     { return __builtin_asin(__x); }
 120:/opt/homebrew/Cellar/arm-none-eabi-gcc/10.3-2021.07/gcc/arm-none-eabi/include/c++/10.3.1/cmath **** 
 121:/opt/homebrew/Cellar/arm-none-eabi-gcc/10.3-2021.07/gcc/arm-none-eabi/include/c++/10.3.1/cmath ****   using ::atan;
 122:/opt/homebrew/Cellar/arm-none-eabi-gcc/10.3-2021.07/gcc/arm-none-eabi/include/c++/10.3.1/cmath **** 
 123:/opt/homebrew/Cellar/arm-none-eabi-gcc/10.3-2021.07/gcc/arm-none-eabi/include/c++/10.3.1/cmath **** #ifndef __CORRECT_ISO_CPP_MATH_H_PROTO
 124:/opt/homebrew/Cellar/arm-none-eabi-gcc/10.3-2021.07/gcc/arm-none-eabi/include/c++/10.3.1/cmath ****   inline _GLIBCXX_CONSTEXPR float
 125:/opt/homebrew/Cellar/arm-none-eabi-gcc/10.3-2021.07/gcc/arm-none-eabi/include/c++/10.3.1/cmath ****   atan(float __x)
 126:/opt/homebrew/Cellar/arm-none-eabi-gcc/10.3-2021.07/gcc/arm-none-eabi/include/c++/10.3.1/cmath ****   { return __builtin_atanf(__x); }
 127:/opt/homebrew/Cellar/arm-none-eabi-gcc/10.3-2021.07/gcc/arm-none-eabi/include/c++/10.3.1/cmath **** 
 128:/opt/homebrew/Cellar/arm-none-eabi-gcc/10.3-2021.07/gcc/arm-none-eabi/include/c++/10.3.1/cmath ****   inline _GLIBCXX_CONSTEXPR long double
 129:/opt/homebrew/Cellar/arm-none-eabi-gcc/10.3-2021.07/gcc/arm-none-eabi/include/c++/10.3.1/cmath ****   atan(long double __x)
 130:/opt/homebrew/Cellar/arm-none-eabi-gcc/10.3-2021.07/gcc/arm-none-eabi/include/c++/10.3.1/cmath ****   { return __builtin_atanl(__x); }
 131:/opt/homebrew/Cellar/arm-none-eabi-gcc/10.3-2021.07/gcc/arm-none-eabi/include/c++/10.3.1/cmath **** #endif
 132:/opt/homebrew/Cellar/arm-none-eabi-gcc/10.3-2021.07/gcc/arm-none-eabi/include/c++/10.3.1/cmath **** 
 133:/opt/homebrew/Cellar/arm-none-eabi-gcc/10.3-2021.07/gcc/arm-none-eabi/include/c++/10.3.1/cmath ****   template<typename _Tp>
 134:/opt/homebrew/Cellar/arm-none-eabi-gcc/10.3-2021.07/gcc/arm-none-eabi/include/c++/10.3.1/cmath ****     inline _GLIBCXX_CONSTEXPR
 135:/opt/homebrew/Cellar/arm-none-eabi-gcc/10.3-2021.07/gcc/arm-none-eabi/include/c++/10.3.1/cmath ****     typename __gnu_cxx::__enable_if<__is_integer<_Tp>::__value,
 136:/opt/homebrew/Cellar/arm-none-eabi-gcc/10.3-2021.07/gcc/arm-none-eabi/include/c++/10.3.1/cmath ****                                     double>::__type
 137:/opt/homebrew/Cellar/arm-none-eabi-gcc/10.3-2021.07/gcc/arm-none-eabi/include/c++/10.3.1/cmath ****     atan(_Tp __x)
 138:/opt/homebrew/Cellar/arm-none-eabi-gcc/10.3-2021.07/gcc/arm-none-eabi/include/c++/10.3.1/cmath ****     { return __builtin_atan(__x); }
 139:/opt/homebrew/Cellar/arm-none-eabi-gcc/10.3-2021.07/gcc/arm-none-eabi/include/c++/10.3.1/cmath **** 
 140:/opt/homebrew/Cellar/arm-none-eabi-gcc/10.3-2021.07/gcc/arm-none-eabi/include/c++/10.3.1/cmath ****   using ::atan2;
 141:/opt/homebrew/Cellar/arm-none-eabi-gcc/10.3-2021.07/gcc/arm-none-eabi/include/c++/10.3.1/cmath **** 
 142:/opt/homebrew/Cellar/arm-none-eabi-gcc/10.3-2021.07/gcc/arm-none-eabi/include/c++/10.3.1/cmath **** #ifndef __CORRECT_ISO_CPP_MATH_H_PROTO
 143:/opt/homebrew/Cellar/arm-none-eabi-gcc/10.3-2021.07/gcc/arm-none-eabi/include/c++/10.3.1/cmath ****   inline _GLIBCXX_CONSTEXPR float
 144:/opt/homebrew/Cellar/arm-none-eabi-gcc/10.3-2021.07/gcc/arm-none-eabi/include/c++/10.3.1/cmath ****   atan2(float __y, float __x)
 145:/opt/homebrew/Cellar/arm-none-eabi-gcc/10.3-2021.07/gcc/arm-none-eabi/include/c++/10.3.1/cmath ****   { return __builtin_atan2f(__y, __x); }
 146:/opt/homebrew/Cellar/arm-none-eabi-gcc/10.3-2021.07/gcc/arm-none-eabi/include/c++/10.3.1/cmath **** 
 147:/opt/homebrew/Cellar/arm-none-eabi-gcc/10.3-2021.07/gcc/arm-none-eabi/include/c++/10.3.1/cmath ****   inline _GLIBCXX_CONSTEXPR long double
 148:/opt/homebrew/Cellar/arm-none-eabi-gcc/10.3-2021.07/gcc/arm-none-eabi/include/c++/10.3.1/cmath ****   atan2(long double __y, long double __x)
 149:/opt/homebrew/Cellar/arm-none-eabi-gcc/10.3-2021.07/gcc/arm-none-eabi/include/c++/10.3.1/cmath ****   { return __builtin_atan2l(__y, __x); }
 150:/opt/homebrew/Cellar/arm-none-eabi-gcc/10.3-2021.07/gcc/arm-none-eabi/include/c++/10.3.1/cmath **** #endif
 151:/opt/homebrew/Cellar/arm-none-eabi-gcc/10.3-2021.07/gcc/arm-none-eabi/include/c++/10.3.1/cmath **** 
 152:/opt/homebrew/Cellar/arm-none-eabi-gcc/10.3-2021.07/gcc/arm-none-eabi/include/c++/10.3.1/cmath ****   template<typename _Tp, typename _Up>
 153:/opt/homebrew/Cellar/arm-none-eabi-gcc/10.3-2021.07/gcc/arm-none-eabi/include/c++/10.3.1/cmath ****     inline _GLIBCXX_CONSTEXPR
 154:/opt/homebrew/Cellar/arm-none-eabi-gcc/10.3-2021.07/gcc/arm-none-eabi/include/c++/10.3.1/cmath ****     typename __gnu_cxx::__promote_2<_Tp, _Up>::__type
 155:/opt/homebrew/Cellar/arm-none-eabi-gcc/10.3-2021.07/gcc/arm-none-eabi/include/c++/10.3.1/cmath ****     atan2(_Tp __y, _Up __x)
 156:/opt/homebrew/Cellar/arm-none-eabi-gcc/10.3-2021.07/gcc/arm-none-eabi/include/c++/10.3.1/cmath ****     {
ARM GAS  /var/folders/hl/qgbwny5j0fd895c2c41bk3tw0000gp/T//ccFqANMK.s 			page 64


 157:/opt/homebrew/Cellar/arm-none-eabi-gcc/10.3-2021.07/gcc/arm-none-eabi/include/c++/10.3.1/cmath ****       typedef typename __gnu_cxx::__promote_2<_Tp, _Up>::__type __type;
 158:/opt/homebrew/Cellar/arm-none-eabi-gcc/10.3-2021.07/gcc/arm-none-eabi/include/c++/10.3.1/cmath ****       return atan2(__type(__y), __type(__x));
 159:/opt/homebrew/Cellar/arm-none-eabi-gcc/10.3-2021.07/gcc/arm-none-eabi/include/c++/10.3.1/cmath ****     }
 160:/opt/homebrew/Cellar/arm-none-eabi-gcc/10.3-2021.07/gcc/arm-none-eabi/include/c++/10.3.1/cmath **** 
 161:/opt/homebrew/Cellar/arm-none-eabi-gcc/10.3-2021.07/gcc/arm-none-eabi/include/c++/10.3.1/cmath ****   using ::ceil;
 162:/opt/homebrew/Cellar/arm-none-eabi-gcc/10.3-2021.07/gcc/arm-none-eabi/include/c++/10.3.1/cmath **** 
 163:/opt/homebrew/Cellar/arm-none-eabi-gcc/10.3-2021.07/gcc/arm-none-eabi/include/c++/10.3.1/cmath **** #ifndef __CORRECT_ISO_CPP_MATH_H_PROTO
 164:/opt/homebrew/Cellar/arm-none-eabi-gcc/10.3-2021.07/gcc/arm-none-eabi/include/c++/10.3.1/cmath ****   inline _GLIBCXX_CONSTEXPR float
 165:/opt/homebrew/Cellar/arm-none-eabi-gcc/10.3-2021.07/gcc/arm-none-eabi/include/c++/10.3.1/cmath ****   ceil(float __x)
 166:/opt/homebrew/Cellar/arm-none-eabi-gcc/10.3-2021.07/gcc/arm-none-eabi/include/c++/10.3.1/cmath ****   { return __builtin_ceilf(__x); }
 167:/opt/homebrew/Cellar/arm-none-eabi-gcc/10.3-2021.07/gcc/arm-none-eabi/include/c++/10.3.1/cmath **** 
 168:/opt/homebrew/Cellar/arm-none-eabi-gcc/10.3-2021.07/gcc/arm-none-eabi/include/c++/10.3.1/cmath ****   inline _GLIBCXX_CONSTEXPR long double
 169:/opt/homebrew/Cellar/arm-none-eabi-gcc/10.3-2021.07/gcc/arm-none-eabi/include/c++/10.3.1/cmath ****   ceil(long double __x)
 170:/opt/homebrew/Cellar/arm-none-eabi-gcc/10.3-2021.07/gcc/arm-none-eabi/include/c++/10.3.1/cmath ****   { return __builtin_ceill(__x); }
 171:/opt/homebrew/Cellar/arm-none-eabi-gcc/10.3-2021.07/gcc/arm-none-eabi/include/c++/10.3.1/cmath **** #endif
 172:/opt/homebrew/Cellar/arm-none-eabi-gcc/10.3-2021.07/gcc/arm-none-eabi/include/c++/10.3.1/cmath **** 
 173:/opt/homebrew/Cellar/arm-none-eabi-gcc/10.3-2021.07/gcc/arm-none-eabi/include/c++/10.3.1/cmath ****   template<typename _Tp>
 174:/opt/homebrew/Cellar/arm-none-eabi-gcc/10.3-2021.07/gcc/arm-none-eabi/include/c++/10.3.1/cmath ****     inline _GLIBCXX_CONSTEXPR
 175:/opt/homebrew/Cellar/arm-none-eabi-gcc/10.3-2021.07/gcc/arm-none-eabi/include/c++/10.3.1/cmath ****     typename __gnu_cxx::__enable_if<__is_integer<_Tp>::__value, 
 176:/opt/homebrew/Cellar/arm-none-eabi-gcc/10.3-2021.07/gcc/arm-none-eabi/include/c++/10.3.1/cmath ****                                     double>::__type
 177:/opt/homebrew/Cellar/arm-none-eabi-gcc/10.3-2021.07/gcc/arm-none-eabi/include/c++/10.3.1/cmath ****     ceil(_Tp __x)
 178:/opt/homebrew/Cellar/arm-none-eabi-gcc/10.3-2021.07/gcc/arm-none-eabi/include/c++/10.3.1/cmath ****     { return __builtin_ceil(__x); }
 179:/opt/homebrew/Cellar/arm-none-eabi-gcc/10.3-2021.07/gcc/arm-none-eabi/include/c++/10.3.1/cmath **** 
 180:/opt/homebrew/Cellar/arm-none-eabi-gcc/10.3-2021.07/gcc/arm-none-eabi/include/c++/10.3.1/cmath ****   using ::cos;
 181:/opt/homebrew/Cellar/arm-none-eabi-gcc/10.3-2021.07/gcc/arm-none-eabi/include/c++/10.3.1/cmath **** 
 182:/opt/homebrew/Cellar/arm-none-eabi-gcc/10.3-2021.07/gcc/arm-none-eabi/include/c++/10.3.1/cmath **** #ifndef __CORRECT_ISO_CPP_MATH_H_PROTO
 183:/opt/homebrew/Cellar/arm-none-eabi-gcc/10.3-2021.07/gcc/arm-none-eabi/include/c++/10.3.1/cmath ****   inline _GLIBCXX_CONSTEXPR float
 184:/opt/homebrew/Cellar/arm-none-eabi-gcc/10.3-2021.07/gcc/arm-none-eabi/include/c++/10.3.1/cmath ****   cos(float __x)
 185:/opt/homebrew/Cellar/arm-none-eabi-gcc/10.3-2021.07/gcc/arm-none-eabi/include/c++/10.3.1/cmath ****   { return __builtin_cosf(__x); }
 1857              		.loc 13 185 26 view .LVU391
 1858 0050 B0EE680A 		vmov.f32	s0, s17
 1859 0054 FFF7FEFF 		bl	cosf
 1860              	.LVL136:
 1861              		.loc 13 185 26 view .LVU392
 1862              	.LBE677:
 1863              	.LBE676:
 315:../../libDaisy/src/hid/disp/display.h ****         start_y = -sin(start_angle_rad) * radius;
 1864              		.loc 12 315 17 view .LVU393
 1865 0058 07EE907A 		vmov	s15, r7	@ int
 313:../../libDaisy/src/hid/disp/display.h **** 
 1866              		.loc 12 313 25 view .LVU394
 1867 005c B7EECAAB 		vcvt.f32.f64	s20, d10
 1868              	.LVL137:
 1869              	.LBB680:
 1870              	.LBI676:
 184:/opt/homebrew/Cellar/arm-none-eabi-gcc/10.3-2021.07/gcc/arm-none-eabi/include/c++/10.3.1/cmath ****   { return __builtin_cosf(__x); }
 1871              		.loc 13 184 3 is_stmt 1 view .LVU395
 1872              	.LBB678:
 1873              		.loc 13 185 5 view .LVU396
 1874              		.loc 13 185 5 is_stmt 0 view .LVU397
 1875              	.LBE678:
 1876              	.LBE680:
 315:../../libDaisy/src/hid/disp/display.h ****         start_y = -sin(start_angle_rad) * radius;
 1877              		.loc 12 315 17 view .LVU398
 1878 0060 F8EE679A 		vcvt.f32.u32	s19, s15
 1879              	.LBB681:
 1880              	.LBB679:
ARM GAS  /var/folders/hl/qgbwny5j0fd895c2c41bk3tw0000gp/T//ccFqANMK.s 			page 65


 1881              		.loc 13 185 26 view .LVU399
 1882 0064 B0EE408A 		vmov.f32	s16, s0
 1883              	.LBE679:
 1884              	.LBE681:
 1885              	.LBB682:
 1886              	.LBB683:
 186:/opt/homebrew/Cellar/arm-none-eabi-gcc/10.3-2021.07/gcc/arm-none-eabi/include/c++/10.3.1/cmath **** 
 187:/opt/homebrew/Cellar/arm-none-eabi-gcc/10.3-2021.07/gcc/arm-none-eabi/include/c++/10.3.1/cmath ****   inline _GLIBCXX_CONSTEXPR long double
 188:/opt/homebrew/Cellar/arm-none-eabi-gcc/10.3-2021.07/gcc/arm-none-eabi/include/c++/10.3.1/cmath ****   cos(long double __x)
 189:/opt/homebrew/Cellar/arm-none-eabi-gcc/10.3-2021.07/gcc/arm-none-eabi/include/c++/10.3.1/cmath ****   { return __builtin_cosl(__x); }
 190:/opt/homebrew/Cellar/arm-none-eabi-gcc/10.3-2021.07/gcc/arm-none-eabi/include/c++/10.3.1/cmath **** #endif
 191:/opt/homebrew/Cellar/arm-none-eabi-gcc/10.3-2021.07/gcc/arm-none-eabi/include/c++/10.3.1/cmath **** 
 192:/opt/homebrew/Cellar/arm-none-eabi-gcc/10.3-2021.07/gcc/arm-none-eabi/include/c++/10.3.1/cmath ****   template<typename _Tp>
 193:/opt/homebrew/Cellar/arm-none-eabi-gcc/10.3-2021.07/gcc/arm-none-eabi/include/c++/10.3.1/cmath ****     inline _GLIBCXX_CONSTEXPR
 194:/opt/homebrew/Cellar/arm-none-eabi-gcc/10.3-2021.07/gcc/arm-none-eabi/include/c++/10.3.1/cmath ****     typename __gnu_cxx::__enable_if<__is_integer<_Tp>::__value,
 195:/opt/homebrew/Cellar/arm-none-eabi-gcc/10.3-2021.07/gcc/arm-none-eabi/include/c++/10.3.1/cmath ****                                     double>::__type
 196:/opt/homebrew/Cellar/arm-none-eabi-gcc/10.3-2021.07/gcc/arm-none-eabi/include/c++/10.3.1/cmath ****     cos(_Tp __x)
 197:/opt/homebrew/Cellar/arm-none-eabi-gcc/10.3-2021.07/gcc/arm-none-eabi/include/c++/10.3.1/cmath ****     { return __builtin_cos(__x); }
 198:/opt/homebrew/Cellar/arm-none-eabi-gcc/10.3-2021.07/gcc/arm-none-eabi/include/c++/10.3.1/cmath **** 
 199:/opt/homebrew/Cellar/arm-none-eabi-gcc/10.3-2021.07/gcc/arm-none-eabi/include/c++/10.3.1/cmath ****   using ::cosh;
 200:/opt/homebrew/Cellar/arm-none-eabi-gcc/10.3-2021.07/gcc/arm-none-eabi/include/c++/10.3.1/cmath **** 
 201:/opt/homebrew/Cellar/arm-none-eabi-gcc/10.3-2021.07/gcc/arm-none-eabi/include/c++/10.3.1/cmath **** #ifndef __CORRECT_ISO_CPP_MATH_H_PROTO
 202:/opt/homebrew/Cellar/arm-none-eabi-gcc/10.3-2021.07/gcc/arm-none-eabi/include/c++/10.3.1/cmath ****   inline _GLIBCXX_CONSTEXPR float
 203:/opt/homebrew/Cellar/arm-none-eabi-gcc/10.3-2021.07/gcc/arm-none-eabi/include/c++/10.3.1/cmath ****   cosh(float __x)
 204:/opt/homebrew/Cellar/arm-none-eabi-gcc/10.3-2021.07/gcc/arm-none-eabi/include/c++/10.3.1/cmath ****   { return __builtin_coshf(__x); }
 205:/opt/homebrew/Cellar/arm-none-eabi-gcc/10.3-2021.07/gcc/arm-none-eabi/include/c++/10.3.1/cmath **** 
 206:/opt/homebrew/Cellar/arm-none-eabi-gcc/10.3-2021.07/gcc/arm-none-eabi/include/c++/10.3.1/cmath ****   inline _GLIBCXX_CONSTEXPR long double
 207:/opt/homebrew/Cellar/arm-none-eabi-gcc/10.3-2021.07/gcc/arm-none-eabi/include/c++/10.3.1/cmath ****   cosh(long double __x)
 208:/opt/homebrew/Cellar/arm-none-eabi-gcc/10.3-2021.07/gcc/arm-none-eabi/include/c++/10.3.1/cmath ****   { return __builtin_coshl(__x); }
 209:/opt/homebrew/Cellar/arm-none-eabi-gcc/10.3-2021.07/gcc/arm-none-eabi/include/c++/10.3.1/cmath **** #endif
 210:/opt/homebrew/Cellar/arm-none-eabi-gcc/10.3-2021.07/gcc/arm-none-eabi/include/c++/10.3.1/cmath **** 
 211:/opt/homebrew/Cellar/arm-none-eabi-gcc/10.3-2021.07/gcc/arm-none-eabi/include/c++/10.3.1/cmath ****   template<typename _Tp>
 212:/opt/homebrew/Cellar/arm-none-eabi-gcc/10.3-2021.07/gcc/arm-none-eabi/include/c++/10.3.1/cmath ****     inline _GLIBCXX_CONSTEXPR
 213:/opt/homebrew/Cellar/arm-none-eabi-gcc/10.3-2021.07/gcc/arm-none-eabi/include/c++/10.3.1/cmath ****     typename __gnu_cxx::__enable_if<__is_integer<_Tp>::__value,
 214:/opt/homebrew/Cellar/arm-none-eabi-gcc/10.3-2021.07/gcc/arm-none-eabi/include/c++/10.3.1/cmath ****                                     double>::__type
 215:/opt/homebrew/Cellar/arm-none-eabi-gcc/10.3-2021.07/gcc/arm-none-eabi/include/c++/10.3.1/cmath ****     cosh(_Tp __x)
 216:/opt/homebrew/Cellar/arm-none-eabi-gcc/10.3-2021.07/gcc/arm-none-eabi/include/c++/10.3.1/cmath ****     { return __builtin_cosh(__x); }
 217:/opt/homebrew/Cellar/arm-none-eabi-gcc/10.3-2021.07/gcc/arm-none-eabi/include/c++/10.3.1/cmath **** 
 218:/opt/homebrew/Cellar/arm-none-eabi-gcc/10.3-2021.07/gcc/arm-none-eabi/include/c++/10.3.1/cmath ****   using ::exp;
 219:/opt/homebrew/Cellar/arm-none-eabi-gcc/10.3-2021.07/gcc/arm-none-eabi/include/c++/10.3.1/cmath **** 
 220:/opt/homebrew/Cellar/arm-none-eabi-gcc/10.3-2021.07/gcc/arm-none-eabi/include/c++/10.3.1/cmath **** #ifndef __CORRECT_ISO_CPP_MATH_H_PROTO
 221:/opt/homebrew/Cellar/arm-none-eabi-gcc/10.3-2021.07/gcc/arm-none-eabi/include/c++/10.3.1/cmath ****   inline _GLIBCXX_CONSTEXPR float
 222:/opt/homebrew/Cellar/arm-none-eabi-gcc/10.3-2021.07/gcc/arm-none-eabi/include/c++/10.3.1/cmath ****   exp(float __x)
 223:/opt/homebrew/Cellar/arm-none-eabi-gcc/10.3-2021.07/gcc/arm-none-eabi/include/c++/10.3.1/cmath ****   { return __builtin_expf(__x); }
 224:/opt/homebrew/Cellar/arm-none-eabi-gcc/10.3-2021.07/gcc/arm-none-eabi/include/c++/10.3.1/cmath **** 
 225:/opt/homebrew/Cellar/arm-none-eabi-gcc/10.3-2021.07/gcc/arm-none-eabi/include/c++/10.3.1/cmath ****   inline _GLIBCXX_CONSTEXPR long double
 226:/opt/homebrew/Cellar/arm-none-eabi-gcc/10.3-2021.07/gcc/arm-none-eabi/include/c++/10.3.1/cmath ****   exp(long double __x)
 227:/opt/homebrew/Cellar/arm-none-eabi-gcc/10.3-2021.07/gcc/arm-none-eabi/include/c++/10.3.1/cmath ****   { return __builtin_expl(__x); }
 228:/opt/homebrew/Cellar/arm-none-eabi-gcc/10.3-2021.07/gcc/arm-none-eabi/include/c++/10.3.1/cmath **** #endif
 229:/opt/homebrew/Cellar/arm-none-eabi-gcc/10.3-2021.07/gcc/arm-none-eabi/include/c++/10.3.1/cmath **** 
 230:/opt/homebrew/Cellar/arm-none-eabi-gcc/10.3-2021.07/gcc/arm-none-eabi/include/c++/10.3.1/cmath ****   template<typename _Tp>
 231:/opt/homebrew/Cellar/arm-none-eabi-gcc/10.3-2021.07/gcc/arm-none-eabi/include/c++/10.3.1/cmath ****     inline _GLIBCXX_CONSTEXPR
 232:/opt/homebrew/Cellar/arm-none-eabi-gcc/10.3-2021.07/gcc/arm-none-eabi/include/c++/10.3.1/cmath ****     typename __gnu_cxx::__enable_if<__is_integer<_Tp>::__value,
 233:/opt/homebrew/Cellar/arm-none-eabi-gcc/10.3-2021.07/gcc/arm-none-eabi/include/c++/10.3.1/cmath ****                                     double>::__type
 234:/opt/homebrew/Cellar/arm-none-eabi-gcc/10.3-2021.07/gcc/arm-none-eabi/include/c++/10.3.1/cmath ****     exp(_Tp __x)
 235:/opt/homebrew/Cellar/arm-none-eabi-gcc/10.3-2021.07/gcc/arm-none-eabi/include/c++/10.3.1/cmath ****     { return __builtin_exp(__x); }
 236:/opt/homebrew/Cellar/arm-none-eabi-gcc/10.3-2021.07/gcc/arm-none-eabi/include/c++/10.3.1/cmath **** 
ARM GAS  /var/folders/hl/qgbwny5j0fd895c2c41bk3tw0000gp/T//ccFqANMK.s 			page 66


 237:/opt/homebrew/Cellar/arm-none-eabi-gcc/10.3-2021.07/gcc/arm-none-eabi/include/c++/10.3.1/cmath ****   using ::fabs;
 238:/opt/homebrew/Cellar/arm-none-eabi-gcc/10.3-2021.07/gcc/arm-none-eabi/include/c++/10.3.1/cmath **** 
 239:/opt/homebrew/Cellar/arm-none-eabi-gcc/10.3-2021.07/gcc/arm-none-eabi/include/c++/10.3.1/cmath **** #ifndef __CORRECT_ISO_CPP_MATH_H_PROTO
 240:/opt/homebrew/Cellar/arm-none-eabi-gcc/10.3-2021.07/gcc/arm-none-eabi/include/c++/10.3.1/cmath ****   inline _GLIBCXX_CONSTEXPR float
 241:/opt/homebrew/Cellar/arm-none-eabi-gcc/10.3-2021.07/gcc/arm-none-eabi/include/c++/10.3.1/cmath ****   fabs(float __x)
 242:/opt/homebrew/Cellar/arm-none-eabi-gcc/10.3-2021.07/gcc/arm-none-eabi/include/c++/10.3.1/cmath ****   { return __builtin_fabsf(__x); }
 243:/opt/homebrew/Cellar/arm-none-eabi-gcc/10.3-2021.07/gcc/arm-none-eabi/include/c++/10.3.1/cmath **** 
 244:/opt/homebrew/Cellar/arm-none-eabi-gcc/10.3-2021.07/gcc/arm-none-eabi/include/c++/10.3.1/cmath ****   inline _GLIBCXX_CONSTEXPR long double
 245:/opt/homebrew/Cellar/arm-none-eabi-gcc/10.3-2021.07/gcc/arm-none-eabi/include/c++/10.3.1/cmath ****   fabs(long double __x)
 246:/opt/homebrew/Cellar/arm-none-eabi-gcc/10.3-2021.07/gcc/arm-none-eabi/include/c++/10.3.1/cmath ****   { return __builtin_fabsl(__x); }
 247:/opt/homebrew/Cellar/arm-none-eabi-gcc/10.3-2021.07/gcc/arm-none-eabi/include/c++/10.3.1/cmath **** #endif
 248:/opt/homebrew/Cellar/arm-none-eabi-gcc/10.3-2021.07/gcc/arm-none-eabi/include/c++/10.3.1/cmath **** 
 249:/opt/homebrew/Cellar/arm-none-eabi-gcc/10.3-2021.07/gcc/arm-none-eabi/include/c++/10.3.1/cmath ****   template<typename _Tp>
 250:/opt/homebrew/Cellar/arm-none-eabi-gcc/10.3-2021.07/gcc/arm-none-eabi/include/c++/10.3.1/cmath ****     inline _GLIBCXX_CONSTEXPR
 251:/opt/homebrew/Cellar/arm-none-eabi-gcc/10.3-2021.07/gcc/arm-none-eabi/include/c++/10.3.1/cmath ****     typename __gnu_cxx::__enable_if<__is_integer<_Tp>::__value,
 252:/opt/homebrew/Cellar/arm-none-eabi-gcc/10.3-2021.07/gcc/arm-none-eabi/include/c++/10.3.1/cmath ****                                     double>::__type
 253:/opt/homebrew/Cellar/arm-none-eabi-gcc/10.3-2021.07/gcc/arm-none-eabi/include/c++/10.3.1/cmath ****     fabs(_Tp __x)
 254:/opt/homebrew/Cellar/arm-none-eabi-gcc/10.3-2021.07/gcc/arm-none-eabi/include/c++/10.3.1/cmath ****     { return __builtin_fabs(__x); }
 255:/opt/homebrew/Cellar/arm-none-eabi-gcc/10.3-2021.07/gcc/arm-none-eabi/include/c++/10.3.1/cmath **** 
 256:/opt/homebrew/Cellar/arm-none-eabi-gcc/10.3-2021.07/gcc/arm-none-eabi/include/c++/10.3.1/cmath ****   using ::floor;
 257:/opt/homebrew/Cellar/arm-none-eabi-gcc/10.3-2021.07/gcc/arm-none-eabi/include/c++/10.3.1/cmath **** 
 258:/opt/homebrew/Cellar/arm-none-eabi-gcc/10.3-2021.07/gcc/arm-none-eabi/include/c++/10.3.1/cmath **** #ifndef __CORRECT_ISO_CPP_MATH_H_PROTO
 259:/opt/homebrew/Cellar/arm-none-eabi-gcc/10.3-2021.07/gcc/arm-none-eabi/include/c++/10.3.1/cmath ****   inline _GLIBCXX_CONSTEXPR float
 260:/opt/homebrew/Cellar/arm-none-eabi-gcc/10.3-2021.07/gcc/arm-none-eabi/include/c++/10.3.1/cmath ****   floor(float __x)
 261:/opt/homebrew/Cellar/arm-none-eabi-gcc/10.3-2021.07/gcc/arm-none-eabi/include/c++/10.3.1/cmath ****   { return __builtin_floorf(__x); }
 262:/opt/homebrew/Cellar/arm-none-eabi-gcc/10.3-2021.07/gcc/arm-none-eabi/include/c++/10.3.1/cmath **** 
 263:/opt/homebrew/Cellar/arm-none-eabi-gcc/10.3-2021.07/gcc/arm-none-eabi/include/c++/10.3.1/cmath ****   inline _GLIBCXX_CONSTEXPR long double
 264:/opt/homebrew/Cellar/arm-none-eabi-gcc/10.3-2021.07/gcc/arm-none-eabi/include/c++/10.3.1/cmath ****   floor(long double __x)
 265:/opt/homebrew/Cellar/arm-none-eabi-gcc/10.3-2021.07/gcc/arm-none-eabi/include/c++/10.3.1/cmath ****   { return __builtin_floorl(__x); }
 266:/opt/homebrew/Cellar/arm-none-eabi-gcc/10.3-2021.07/gcc/arm-none-eabi/include/c++/10.3.1/cmath **** #endif
 267:/opt/homebrew/Cellar/arm-none-eabi-gcc/10.3-2021.07/gcc/arm-none-eabi/include/c++/10.3.1/cmath **** 
 268:/opt/homebrew/Cellar/arm-none-eabi-gcc/10.3-2021.07/gcc/arm-none-eabi/include/c++/10.3.1/cmath ****   template<typename _Tp>
 269:/opt/homebrew/Cellar/arm-none-eabi-gcc/10.3-2021.07/gcc/arm-none-eabi/include/c++/10.3.1/cmath ****     inline _GLIBCXX_CONSTEXPR
 270:/opt/homebrew/Cellar/arm-none-eabi-gcc/10.3-2021.07/gcc/arm-none-eabi/include/c++/10.3.1/cmath ****     typename __gnu_cxx::__enable_if<__is_integer<_Tp>::__value,
 271:/opt/homebrew/Cellar/arm-none-eabi-gcc/10.3-2021.07/gcc/arm-none-eabi/include/c++/10.3.1/cmath ****                                     double>::__type
 272:/opt/homebrew/Cellar/arm-none-eabi-gcc/10.3-2021.07/gcc/arm-none-eabi/include/c++/10.3.1/cmath ****     floor(_Tp __x)
 273:/opt/homebrew/Cellar/arm-none-eabi-gcc/10.3-2021.07/gcc/arm-none-eabi/include/c++/10.3.1/cmath ****     { return __builtin_floor(__x); }
 274:/opt/homebrew/Cellar/arm-none-eabi-gcc/10.3-2021.07/gcc/arm-none-eabi/include/c++/10.3.1/cmath **** 
 275:/opt/homebrew/Cellar/arm-none-eabi-gcc/10.3-2021.07/gcc/arm-none-eabi/include/c++/10.3.1/cmath ****   using ::fmod;
 276:/opt/homebrew/Cellar/arm-none-eabi-gcc/10.3-2021.07/gcc/arm-none-eabi/include/c++/10.3.1/cmath **** 
 277:/opt/homebrew/Cellar/arm-none-eabi-gcc/10.3-2021.07/gcc/arm-none-eabi/include/c++/10.3.1/cmath **** #ifndef __CORRECT_ISO_CPP_MATH_H_PROTO
 278:/opt/homebrew/Cellar/arm-none-eabi-gcc/10.3-2021.07/gcc/arm-none-eabi/include/c++/10.3.1/cmath ****   inline _GLIBCXX_CONSTEXPR float
 279:/opt/homebrew/Cellar/arm-none-eabi-gcc/10.3-2021.07/gcc/arm-none-eabi/include/c++/10.3.1/cmath ****   fmod(float __x, float __y)
 280:/opt/homebrew/Cellar/arm-none-eabi-gcc/10.3-2021.07/gcc/arm-none-eabi/include/c++/10.3.1/cmath ****   { return __builtin_fmodf(__x, __y); }
 281:/opt/homebrew/Cellar/arm-none-eabi-gcc/10.3-2021.07/gcc/arm-none-eabi/include/c++/10.3.1/cmath **** 
 282:/opt/homebrew/Cellar/arm-none-eabi-gcc/10.3-2021.07/gcc/arm-none-eabi/include/c++/10.3.1/cmath ****   inline _GLIBCXX_CONSTEXPR long double
 283:/opt/homebrew/Cellar/arm-none-eabi-gcc/10.3-2021.07/gcc/arm-none-eabi/include/c++/10.3.1/cmath ****   fmod(long double __x, long double __y)
 284:/opt/homebrew/Cellar/arm-none-eabi-gcc/10.3-2021.07/gcc/arm-none-eabi/include/c++/10.3.1/cmath ****   { return __builtin_fmodl(__x, __y); }
 285:/opt/homebrew/Cellar/arm-none-eabi-gcc/10.3-2021.07/gcc/arm-none-eabi/include/c++/10.3.1/cmath **** #endif
 286:/opt/homebrew/Cellar/arm-none-eabi-gcc/10.3-2021.07/gcc/arm-none-eabi/include/c++/10.3.1/cmath **** 
 287:/opt/homebrew/Cellar/arm-none-eabi-gcc/10.3-2021.07/gcc/arm-none-eabi/include/c++/10.3.1/cmath ****   template<typename _Tp, typename _Up>
 288:/opt/homebrew/Cellar/arm-none-eabi-gcc/10.3-2021.07/gcc/arm-none-eabi/include/c++/10.3.1/cmath ****     inline _GLIBCXX_CONSTEXPR
 289:/opt/homebrew/Cellar/arm-none-eabi-gcc/10.3-2021.07/gcc/arm-none-eabi/include/c++/10.3.1/cmath ****     typename __gnu_cxx::__promote_2<_Tp, _Up>::__type
 290:/opt/homebrew/Cellar/arm-none-eabi-gcc/10.3-2021.07/gcc/arm-none-eabi/include/c++/10.3.1/cmath ****     fmod(_Tp __x, _Up __y)
 291:/opt/homebrew/Cellar/arm-none-eabi-gcc/10.3-2021.07/gcc/arm-none-eabi/include/c++/10.3.1/cmath ****     {
 292:/opt/homebrew/Cellar/arm-none-eabi-gcc/10.3-2021.07/gcc/arm-none-eabi/include/c++/10.3.1/cmath ****       typedef typename __gnu_cxx::__promote_2<_Tp, _Up>::__type __type;
 293:/opt/homebrew/Cellar/arm-none-eabi-gcc/10.3-2021.07/gcc/arm-none-eabi/include/c++/10.3.1/cmath ****       return fmod(__type(__x), __type(__y));
ARM GAS  /var/folders/hl/qgbwny5j0fd895c2c41bk3tw0000gp/T//ccFqANMK.s 			page 67


 294:/opt/homebrew/Cellar/arm-none-eabi-gcc/10.3-2021.07/gcc/arm-none-eabi/include/c++/10.3.1/cmath ****     }
 295:/opt/homebrew/Cellar/arm-none-eabi-gcc/10.3-2021.07/gcc/arm-none-eabi/include/c++/10.3.1/cmath **** 
 296:/opt/homebrew/Cellar/arm-none-eabi-gcc/10.3-2021.07/gcc/arm-none-eabi/include/c++/10.3.1/cmath ****   using ::frexp;
 297:/opt/homebrew/Cellar/arm-none-eabi-gcc/10.3-2021.07/gcc/arm-none-eabi/include/c++/10.3.1/cmath **** 
 298:/opt/homebrew/Cellar/arm-none-eabi-gcc/10.3-2021.07/gcc/arm-none-eabi/include/c++/10.3.1/cmath **** #ifndef __CORRECT_ISO_CPP_MATH_H_PROTO
 299:/opt/homebrew/Cellar/arm-none-eabi-gcc/10.3-2021.07/gcc/arm-none-eabi/include/c++/10.3.1/cmath ****   inline float
 300:/opt/homebrew/Cellar/arm-none-eabi-gcc/10.3-2021.07/gcc/arm-none-eabi/include/c++/10.3.1/cmath ****   frexp(float __x, int* __exp)
 301:/opt/homebrew/Cellar/arm-none-eabi-gcc/10.3-2021.07/gcc/arm-none-eabi/include/c++/10.3.1/cmath ****   { return __builtin_frexpf(__x, __exp); }
 302:/opt/homebrew/Cellar/arm-none-eabi-gcc/10.3-2021.07/gcc/arm-none-eabi/include/c++/10.3.1/cmath **** 
 303:/opt/homebrew/Cellar/arm-none-eabi-gcc/10.3-2021.07/gcc/arm-none-eabi/include/c++/10.3.1/cmath ****   inline long double
 304:/opt/homebrew/Cellar/arm-none-eabi-gcc/10.3-2021.07/gcc/arm-none-eabi/include/c++/10.3.1/cmath ****   frexp(long double __x, int* __exp)
 305:/opt/homebrew/Cellar/arm-none-eabi-gcc/10.3-2021.07/gcc/arm-none-eabi/include/c++/10.3.1/cmath ****   { return __builtin_frexpl(__x, __exp); }
 306:/opt/homebrew/Cellar/arm-none-eabi-gcc/10.3-2021.07/gcc/arm-none-eabi/include/c++/10.3.1/cmath **** #endif
 307:/opt/homebrew/Cellar/arm-none-eabi-gcc/10.3-2021.07/gcc/arm-none-eabi/include/c++/10.3.1/cmath **** 
 308:/opt/homebrew/Cellar/arm-none-eabi-gcc/10.3-2021.07/gcc/arm-none-eabi/include/c++/10.3.1/cmath ****   template<typename _Tp>
 309:/opt/homebrew/Cellar/arm-none-eabi-gcc/10.3-2021.07/gcc/arm-none-eabi/include/c++/10.3.1/cmath ****     inline _GLIBCXX_CONSTEXPR
 310:/opt/homebrew/Cellar/arm-none-eabi-gcc/10.3-2021.07/gcc/arm-none-eabi/include/c++/10.3.1/cmath ****     typename __gnu_cxx::__enable_if<__is_integer<_Tp>::__value, 
 311:/opt/homebrew/Cellar/arm-none-eabi-gcc/10.3-2021.07/gcc/arm-none-eabi/include/c++/10.3.1/cmath ****                                     double>::__type
 312:/opt/homebrew/Cellar/arm-none-eabi-gcc/10.3-2021.07/gcc/arm-none-eabi/include/c++/10.3.1/cmath ****     frexp(_Tp __x, int* __exp)
 313:/opt/homebrew/Cellar/arm-none-eabi-gcc/10.3-2021.07/gcc/arm-none-eabi/include/c++/10.3.1/cmath ****     { return __builtin_frexp(__x, __exp); }
 314:/opt/homebrew/Cellar/arm-none-eabi-gcc/10.3-2021.07/gcc/arm-none-eabi/include/c++/10.3.1/cmath **** 
 315:/opt/homebrew/Cellar/arm-none-eabi-gcc/10.3-2021.07/gcc/arm-none-eabi/include/c++/10.3.1/cmath ****   using ::ldexp;
 316:/opt/homebrew/Cellar/arm-none-eabi-gcc/10.3-2021.07/gcc/arm-none-eabi/include/c++/10.3.1/cmath **** 
 317:/opt/homebrew/Cellar/arm-none-eabi-gcc/10.3-2021.07/gcc/arm-none-eabi/include/c++/10.3.1/cmath **** #ifndef __CORRECT_ISO_CPP_MATH_H_PROTO
 318:/opt/homebrew/Cellar/arm-none-eabi-gcc/10.3-2021.07/gcc/arm-none-eabi/include/c++/10.3.1/cmath ****   inline _GLIBCXX_CONSTEXPR float
 319:/opt/homebrew/Cellar/arm-none-eabi-gcc/10.3-2021.07/gcc/arm-none-eabi/include/c++/10.3.1/cmath ****   ldexp(float __x, int __exp)
 320:/opt/homebrew/Cellar/arm-none-eabi-gcc/10.3-2021.07/gcc/arm-none-eabi/include/c++/10.3.1/cmath ****   { return __builtin_ldexpf(__x, __exp); }
 321:/opt/homebrew/Cellar/arm-none-eabi-gcc/10.3-2021.07/gcc/arm-none-eabi/include/c++/10.3.1/cmath **** 
 322:/opt/homebrew/Cellar/arm-none-eabi-gcc/10.3-2021.07/gcc/arm-none-eabi/include/c++/10.3.1/cmath ****   inline _GLIBCXX_CONSTEXPR long double
 323:/opt/homebrew/Cellar/arm-none-eabi-gcc/10.3-2021.07/gcc/arm-none-eabi/include/c++/10.3.1/cmath ****   ldexp(long double __x, int __exp)
 324:/opt/homebrew/Cellar/arm-none-eabi-gcc/10.3-2021.07/gcc/arm-none-eabi/include/c++/10.3.1/cmath ****   { return __builtin_ldexpl(__x, __exp); }
 325:/opt/homebrew/Cellar/arm-none-eabi-gcc/10.3-2021.07/gcc/arm-none-eabi/include/c++/10.3.1/cmath **** #endif
 326:/opt/homebrew/Cellar/arm-none-eabi-gcc/10.3-2021.07/gcc/arm-none-eabi/include/c++/10.3.1/cmath **** 
 327:/opt/homebrew/Cellar/arm-none-eabi-gcc/10.3-2021.07/gcc/arm-none-eabi/include/c++/10.3.1/cmath ****   template<typename _Tp>
 328:/opt/homebrew/Cellar/arm-none-eabi-gcc/10.3-2021.07/gcc/arm-none-eabi/include/c++/10.3.1/cmath ****     inline _GLIBCXX_CONSTEXPR
 329:/opt/homebrew/Cellar/arm-none-eabi-gcc/10.3-2021.07/gcc/arm-none-eabi/include/c++/10.3.1/cmath ****     typename __gnu_cxx::__enable_if<__is_integer<_Tp>::__value, 
 330:/opt/homebrew/Cellar/arm-none-eabi-gcc/10.3-2021.07/gcc/arm-none-eabi/include/c++/10.3.1/cmath ****                                     double>::__type
 331:/opt/homebrew/Cellar/arm-none-eabi-gcc/10.3-2021.07/gcc/arm-none-eabi/include/c++/10.3.1/cmath ****     ldexp(_Tp __x, int __exp)
 332:/opt/homebrew/Cellar/arm-none-eabi-gcc/10.3-2021.07/gcc/arm-none-eabi/include/c++/10.3.1/cmath ****     { return __builtin_ldexp(__x, __exp); }
 333:/opt/homebrew/Cellar/arm-none-eabi-gcc/10.3-2021.07/gcc/arm-none-eabi/include/c++/10.3.1/cmath **** 
 334:/opt/homebrew/Cellar/arm-none-eabi-gcc/10.3-2021.07/gcc/arm-none-eabi/include/c++/10.3.1/cmath ****   using ::log;
 335:/opt/homebrew/Cellar/arm-none-eabi-gcc/10.3-2021.07/gcc/arm-none-eabi/include/c++/10.3.1/cmath **** 
 336:/opt/homebrew/Cellar/arm-none-eabi-gcc/10.3-2021.07/gcc/arm-none-eabi/include/c++/10.3.1/cmath **** #ifndef __CORRECT_ISO_CPP_MATH_H_PROTO
 337:/opt/homebrew/Cellar/arm-none-eabi-gcc/10.3-2021.07/gcc/arm-none-eabi/include/c++/10.3.1/cmath ****   inline _GLIBCXX_CONSTEXPR float
 338:/opt/homebrew/Cellar/arm-none-eabi-gcc/10.3-2021.07/gcc/arm-none-eabi/include/c++/10.3.1/cmath ****   log(float __x)
 339:/opt/homebrew/Cellar/arm-none-eabi-gcc/10.3-2021.07/gcc/arm-none-eabi/include/c++/10.3.1/cmath ****   { return __builtin_logf(__x); }
 340:/opt/homebrew/Cellar/arm-none-eabi-gcc/10.3-2021.07/gcc/arm-none-eabi/include/c++/10.3.1/cmath **** 
 341:/opt/homebrew/Cellar/arm-none-eabi-gcc/10.3-2021.07/gcc/arm-none-eabi/include/c++/10.3.1/cmath ****   inline _GLIBCXX_CONSTEXPR long double
 342:/opt/homebrew/Cellar/arm-none-eabi-gcc/10.3-2021.07/gcc/arm-none-eabi/include/c++/10.3.1/cmath ****   log(long double __x)
 343:/opt/homebrew/Cellar/arm-none-eabi-gcc/10.3-2021.07/gcc/arm-none-eabi/include/c++/10.3.1/cmath ****   { return __builtin_logl(__x); }
 344:/opt/homebrew/Cellar/arm-none-eabi-gcc/10.3-2021.07/gcc/arm-none-eabi/include/c++/10.3.1/cmath **** #endif
 345:/opt/homebrew/Cellar/arm-none-eabi-gcc/10.3-2021.07/gcc/arm-none-eabi/include/c++/10.3.1/cmath **** 
 346:/opt/homebrew/Cellar/arm-none-eabi-gcc/10.3-2021.07/gcc/arm-none-eabi/include/c++/10.3.1/cmath ****   template<typename _Tp>
 347:/opt/homebrew/Cellar/arm-none-eabi-gcc/10.3-2021.07/gcc/arm-none-eabi/include/c++/10.3.1/cmath ****     inline _GLIBCXX_CONSTEXPR
 348:/opt/homebrew/Cellar/arm-none-eabi-gcc/10.3-2021.07/gcc/arm-none-eabi/include/c++/10.3.1/cmath ****     typename __gnu_cxx::__enable_if<__is_integer<_Tp>::__value, 
 349:/opt/homebrew/Cellar/arm-none-eabi-gcc/10.3-2021.07/gcc/arm-none-eabi/include/c++/10.3.1/cmath ****                                     double>::__type
 350:/opt/homebrew/Cellar/arm-none-eabi-gcc/10.3-2021.07/gcc/arm-none-eabi/include/c++/10.3.1/cmath ****     log(_Tp __x)
ARM GAS  /var/folders/hl/qgbwny5j0fd895c2c41bk3tw0000gp/T//ccFqANMK.s 			page 68


 351:/opt/homebrew/Cellar/arm-none-eabi-gcc/10.3-2021.07/gcc/arm-none-eabi/include/c++/10.3.1/cmath ****     { return __builtin_log(__x); }
 352:/opt/homebrew/Cellar/arm-none-eabi-gcc/10.3-2021.07/gcc/arm-none-eabi/include/c++/10.3.1/cmath **** 
 353:/opt/homebrew/Cellar/arm-none-eabi-gcc/10.3-2021.07/gcc/arm-none-eabi/include/c++/10.3.1/cmath ****   using ::log10;
 354:/opt/homebrew/Cellar/arm-none-eabi-gcc/10.3-2021.07/gcc/arm-none-eabi/include/c++/10.3.1/cmath **** 
 355:/opt/homebrew/Cellar/arm-none-eabi-gcc/10.3-2021.07/gcc/arm-none-eabi/include/c++/10.3.1/cmath **** #ifndef __CORRECT_ISO_CPP_MATH_H_PROTO
 356:/opt/homebrew/Cellar/arm-none-eabi-gcc/10.3-2021.07/gcc/arm-none-eabi/include/c++/10.3.1/cmath ****   inline _GLIBCXX_CONSTEXPR float
 357:/opt/homebrew/Cellar/arm-none-eabi-gcc/10.3-2021.07/gcc/arm-none-eabi/include/c++/10.3.1/cmath ****   log10(float __x)
 358:/opt/homebrew/Cellar/arm-none-eabi-gcc/10.3-2021.07/gcc/arm-none-eabi/include/c++/10.3.1/cmath ****   { return __builtin_log10f(__x); }
 359:/opt/homebrew/Cellar/arm-none-eabi-gcc/10.3-2021.07/gcc/arm-none-eabi/include/c++/10.3.1/cmath **** 
 360:/opt/homebrew/Cellar/arm-none-eabi-gcc/10.3-2021.07/gcc/arm-none-eabi/include/c++/10.3.1/cmath ****   inline _GLIBCXX_CONSTEXPR long double
 361:/opt/homebrew/Cellar/arm-none-eabi-gcc/10.3-2021.07/gcc/arm-none-eabi/include/c++/10.3.1/cmath ****   log10(long double __x)
 362:/opt/homebrew/Cellar/arm-none-eabi-gcc/10.3-2021.07/gcc/arm-none-eabi/include/c++/10.3.1/cmath ****   { return __builtin_log10l(__x); }
 363:/opt/homebrew/Cellar/arm-none-eabi-gcc/10.3-2021.07/gcc/arm-none-eabi/include/c++/10.3.1/cmath **** #endif
 364:/opt/homebrew/Cellar/arm-none-eabi-gcc/10.3-2021.07/gcc/arm-none-eabi/include/c++/10.3.1/cmath **** 
 365:/opt/homebrew/Cellar/arm-none-eabi-gcc/10.3-2021.07/gcc/arm-none-eabi/include/c++/10.3.1/cmath ****   template<typename _Tp>
 366:/opt/homebrew/Cellar/arm-none-eabi-gcc/10.3-2021.07/gcc/arm-none-eabi/include/c++/10.3.1/cmath ****     inline _GLIBCXX_CONSTEXPR
 367:/opt/homebrew/Cellar/arm-none-eabi-gcc/10.3-2021.07/gcc/arm-none-eabi/include/c++/10.3.1/cmath ****     typename __gnu_cxx::__enable_if<__is_integer<_Tp>::__value,
 368:/opt/homebrew/Cellar/arm-none-eabi-gcc/10.3-2021.07/gcc/arm-none-eabi/include/c++/10.3.1/cmath ****                                     double>::__type
 369:/opt/homebrew/Cellar/arm-none-eabi-gcc/10.3-2021.07/gcc/arm-none-eabi/include/c++/10.3.1/cmath ****     log10(_Tp __x)
 370:/opt/homebrew/Cellar/arm-none-eabi-gcc/10.3-2021.07/gcc/arm-none-eabi/include/c++/10.3.1/cmath ****     { return __builtin_log10(__x); }
 371:/opt/homebrew/Cellar/arm-none-eabi-gcc/10.3-2021.07/gcc/arm-none-eabi/include/c++/10.3.1/cmath **** 
 372:/opt/homebrew/Cellar/arm-none-eabi-gcc/10.3-2021.07/gcc/arm-none-eabi/include/c++/10.3.1/cmath ****   using ::modf;
 373:/opt/homebrew/Cellar/arm-none-eabi-gcc/10.3-2021.07/gcc/arm-none-eabi/include/c++/10.3.1/cmath **** 
 374:/opt/homebrew/Cellar/arm-none-eabi-gcc/10.3-2021.07/gcc/arm-none-eabi/include/c++/10.3.1/cmath **** #ifndef __CORRECT_ISO_CPP_MATH_H_PROTO
 375:/opt/homebrew/Cellar/arm-none-eabi-gcc/10.3-2021.07/gcc/arm-none-eabi/include/c++/10.3.1/cmath ****   inline float
 376:/opt/homebrew/Cellar/arm-none-eabi-gcc/10.3-2021.07/gcc/arm-none-eabi/include/c++/10.3.1/cmath ****   modf(float __x, float* __iptr)
 377:/opt/homebrew/Cellar/arm-none-eabi-gcc/10.3-2021.07/gcc/arm-none-eabi/include/c++/10.3.1/cmath ****   { return __builtin_modff(__x, __iptr); }
 378:/opt/homebrew/Cellar/arm-none-eabi-gcc/10.3-2021.07/gcc/arm-none-eabi/include/c++/10.3.1/cmath **** 
 379:/opt/homebrew/Cellar/arm-none-eabi-gcc/10.3-2021.07/gcc/arm-none-eabi/include/c++/10.3.1/cmath ****   inline long double
 380:/opt/homebrew/Cellar/arm-none-eabi-gcc/10.3-2021.07/gcc/arm-none-eabi/include/c++/10.3.1/cmath ****   modf(long double __x, long double* __iptr)
 381:/opt/homebrew/Cellar/arm-none-eabi-gcc/10.3-2021.07/gcc/arm-none-eabi/include/c++/10.3.1/cmath ****   { return __builtin_modfl(__x, __iptr); }
 382:/opt/homebrew/Cellar/arm-none-eabi-gcc/10.3-2021.07/gcc/arm-none-eabi/include/c++/10.3.1/cmath **** #endif
 383:/opt/homebrew/Cellar/arm-none-eabi-gcc/10.3-2021.07/gcc/arm-none-eabi/include/c++/10.3.1/cmath **** 
 384:/opt/homebrew/Cellar/arm-none-eabi-gcc/10.3-2021.07/gcc/arm-none-eabi/include/c++/10.3.1/cmath ****   using ::pow;
 385:/opt/homebrew/Cellar/arm-none-eabi-gcc/10.3-2021.07/gcc/arm-none-eabi/include/c++/10.3.1/cmath **** 
 386:/opt/homebrew/Cellar/arm-none-eabi-gcc/10.3-2021.07/gcc/arm-none-eabi/include/c++/10.3.1/cmath **** #ifndef __CORRECT_ISO_CPP_MATH_H_PROTO
 387:/opt/homebrew/Cellar/arm-none-eabi-gcc/10.3-2021.07/gcc/arm-none-eabi/include/c++/10.3.1/cmath ****   inline _GLIBCXX_CONSTEXPR float
 388:/opt/homebrew/Cellar/arm-none-eabi-gcc/10.3-2021.07/gcc/arm-none-eabi/include/c++/10.3.1/cmath ****   pow(float __x, float __y)
 389:/opt/homebrew/Cellar/arm-none-eabi-gcc/10.3-2021.07/gcc/arm-none-eabi/include/c++/10.3.1/cmath ****   { return __builtin_powf(__x, __y); }
 390:/opt/homebrew/Cellar/arm-none-eabi-gcc/10.3-2021.07/gcc/arm-none-eabi/include/c++/10.3.1/cmath **** 
 391:/opt/homebrew/Cellar/arm-none-eabi-gcc/10.3-2021.07/gcc/arm-none-eabi/include/c++/10.3.1/cmath ****   inline _GLIBCXX_CONSTEXPR long double
 392:/opt/homebrew/Cellar/arm-none-eabi-gcc/10.3-2021.07/gcc/arm-none-eabi/include/c++/10.3.1/cmath ****   pow(long double __x, long double __y)
 393:/opt/homebrew/Cellar/arm-none-eabi-gcc/10.3-2021.07/gcc/arm-none-eabi/include/c++/10.3.1/cmath ****   { return __builtin_powl(__x, __y); }
 394:/opt/homebrew/Cellar/arm-none-eabi-gcc/10.3-2021.07/gcc/arm-none-eabi/include/c++/10.3.1/cmath **** 
 395:/opt/homebrew/Cellar/arm-none-eabi-gcc/10.3-2021.07/gcc/arm-none-eabi/include/c++/10.3.1/cmath **** #if __cplusplus < 201103L
 396:/opt/homebrew/Cellar/arm-none-eabi-gcc/10.3-2021.07/gcc/arm-none-eabi/include/c++/10.3.1/cmath ****   // _GLIBCXX_RESOLVE_LIB_DEFECTS
 397:/opt/homebrew/Cellar/arm-none-eabi-gcc/10.3-2021.07/gcc/arm-none-eabi/include/c++/10.3.1/cmath ****   // DR 550. What should the return type of pow(float,int) be?
 398:/opt/homebrew/Cellar/arm-none-eabi-gcc/10.3-2021.07/gcc/arm-none-eabi/include/c++/10.3.1/cmath ****   inline double
 399:/opt/homebrew/Cellar/arm-none-eabi-gcc/10.3-2021.07/gcc/arm-none-eabi/include/c++/10.3.1/cmath ****   pow(double __x, int __i)
 400:/opt/homebrew/Cellar/arm-none-eabi-gcc/10.3-2021.07/gcc/arm-none-eabi/include/c++/10.3.1/cmath ****   { return __builtin_powi(__x, __i); }
 401:/opt/homebrew/Cellar/arm-none-eabi-gcc/10.3-2021.07/gcc/arm-none-eabi/include/c++/10.3.1/cmath **** 
 402:/opt/homebrew/Cellar/arm-none-eabi-gcc/10.3-2021.07/gcc/arm-none-eabi/include/c++/10.3.1/cmath ****   inline float
 403:/opt/homebrew/Cellar/arm-none-eabi-gcc/10.3-2021.07/gcc/arm-none-eabi/include/c++/10.3.1/cmath ****   pow(float __x, int __n)
 404:/opt/homebrew/Cellar/arm-none-eabi-gcc/10.3-2021.07/gcc/arm-none-eabi/include/c++/10.3.1/cmath ****   { return __builtin_powif(__x, __n); }
 405:/opt/homebrew/Cellar/arm-none-eabi-gcc/10.3-2021.07/gcc/arm-none-eabi/include/c++/10.3.1/cmath **** 
 406:/opt/homebrew/Cellar/arm-none-eabi-gcc/10.3-2021.07/gcc/arm-none-eabi/include/c++/10.3.1/cmath ****   inline long double
 407:/opt/homebrew/Cellar/arm-none-eabi-gcc/10.3-2021.07/gcc/arm-none-eabi/include/c++/10.3.1/cmath ****   pow(long double __x, int __n)
ARM GAS  /var/folders/hl/qgbwny5j0fd895c2c41bk3tw0000gp/T//ccFqANMK.s 			page 69


 408:/opt/homebrew/Cellar/arm-none-eabi-gcc/10.3-2021.07/gcc/arm-none-eabi/include/c++/10.3.1/cmath ****   { return __builtin_powil(__x, __n); }
 409:/opt/homebrew/Cellar/arm-none-eabi-gcc/10.3-2021.07/gcc/arm-none-eabi/include/c++/10.3.1/cmath **** #endif
 410:/opt/homebrew/Cellar/arm-none-eabi-gcc/10.3-2021.07/gcc/arm-none-eabi/include/c++/10.3.1/cmath **** #endif
 411:/opt/homebrew/Cellar/arm-none-eabi-gcc/10.3-2021.07/gcc/arm-none-eabi/include/c++/10.3.1/cmath **** 
 412:/opt/homebrew/Cellar/arm-none-eabi-gcc/10.3-2021.07/gcc/arm-none-eabi/include/c++/10.3.1/cmath ****   template<typename _Tp, typename _Up>
 413:/opt/homebrew/Cellar/arm-none-eabi-gcc/10.3-2021.07/gcc/arm-none-eabi/include/c++/10.3.1/cmath ****     inline _GLIBCXX_CONSTEXPR
 414:/opt/homebrew/Cellar/arm-none-eabi-gcc/10.3-2021.07/gcc/arm-none-eabi/include/c++/10.3.1/cmath ****     typename __gnu_cxx::__promote_2<_Tp, _Up>::__type
 415:/opt/homebrew/Cellar/arm-none-eabi-gcc/10.3-2021.07/gcc/arm-none-eabi/include/c++/10.3.1/cmath ****     pow(_Tp __x, _Up __y)
 416:/opt/homebrew/Cellar/arm-none-eabi-gcc/10.3-2021.07/gcc/arm-none-eabi/include/c++/10.3.1/cmath ****     {
 417:/opt/homebrew/Cellar/arm-none-eabi-gcc/10.3-2021.07/gcc/arm-none-eabi/include/c++/10.3.1/cmath ****       typedef typename __gnu_cxx::__promote_2<_Tp, _Up>::__type __type;
 418:/opt/homebrew/Cellar/arm-none-eabi-gcc/10.3-2021.07/gcc/arm-none-eabi/include/c++/10.3.1/cmath ****       return pow(__type(__x), __type(__y));
 419:/opt/homebrew/Cellar/arm-none-eabi-gcc/10.3-2021.07/gcc/arm-none-eabi/include/c++/10.3.1/cmath ****     }
 420:/opt/homebrew/Cellar/arm-none-eabi-gcc/10.3-2021.07/gcc/arm-none-eabi/include/c++/10.3.1/cmath **** 
 421:/opt/homebrew/Cellar/arm-none-eabi-gcc/10.3-2021.07/gcc/arm-none-eabi/include/c++/10.3.1/cmath ****   using ::sin;
 422:/opt/homebrew/Cellar/arm-none-eabi-gcc/10.3-2021.07/gcc/arm-none-eabi/include/c++/10.3.1/cmath **** 
 423:/opt/homebrew/Cellar/arm-none-eabi-gcc/10.3-2021.07/gcc/arm-none-eabi/include/c++/10.3.1/cmath **** #ifndef __CORRECT_ISO_CPP_MATH_H_PROTO
 424:/opt/homebrew/Cellar/arm-none-eabi-gcc/10.3-2021.07/gcc/arm-none-eabi/include/c++/10.3.1/cmath ****   inline _GLIBCXX_CONSTEXPR float
 425:/opt/homebrew/Cellar/arm-none-eabi-gcc/10.3-2021.07/gcc/arm-none-eabi/include/c++/10.3.1/cmath ****   sin(float __x)
 426:/opt/homebrew/Cellar/arm-none-eabi-gcc/10.3-2021.07/gcc/arm-none-eabi/include/c++/10.3.1/cmath ****   { return __builtin_sinf(__x); }
 1887              		.loc 13 426 26 view .LVU400
 1888 0068 B0EE680A 		vmov.f32	s0, s17
 1889 006c FFF7FEFF 		bl	sinf
 1890              	.LVL138:
 1891              	.LBE683:
 1892              	.LBE682:
 316:../../libDaisy/src/hid/disp/display.h ****         end_x   = cos(end_angle_rad) * radius;
 1893              		.loc 12 316 17 view .LVU401
 1894 0070 60EE698A 		vnmul.f32	s17, s0, s19
 1895              	.LVL139:
 1896              	.LBB685:
 1897              	.LBB686:
 185:/opt/homebrew/Cellar/arm-none-eabi-gcc/10.3-2021.07/gcc/arm-none-eabi/include/c++/10.3.1/cmath **** 
 1898              		.loc 13 185 26 view .LVU402
 1899 0074 B0EE4A0A 		vmov.f32	s0, s20
 1900 0078 FFF7FEFF 		bl	cosf
 1901              	.LVL140:
 1902 007c B0EE409A 		vmov.f32	s18, s0
 1903              	.LBE686:
 1904              	.LBE685:
 1905              	.LBB688:
 1906              	.LBB689:
 1907              		.loc 13 426 26 view .LVU403
 1908 0080 B0EE4A0A 		vmov.f32	s0, s20
 1909 0084 FFF7FEFF 		bl	sinf
 1910              	.LVL141:
 1911              	.LBE689:
 1912              	.LBE688:
 318:../../libDaisy/src/hid/disp/display.h **** 
 1913              		.loc 12 318 17 view .LVU404
 1914 0088 20EE690A 		vnmul.f32	s0, s0, s19
 315:../../libDaisy/src/hid/disp/display.h ****         start_y = -sin(start_angle_rad) * radius;
 1915              		.loc 12 315 17 view .LVU405
 1916 008c 29EE888A 		vmul.f32	s16, s19, s16
 1917              	.LVL142:
 1918              	.LBB691:
 1919              	.LBI682:
 425:/opt/homebrew/Cellar/arm-none-eabi-gcc/10.3-2021.07/gcc/arm-none-eabi/include/c++/10.3.1/cmath ****   { return __builtin_sinf(__x); }
ARM GAS  /var/folders/hl/qgbwny5j0fd895c2c41bk3tw0000gp/T//ccFqANMK.s 			page 70


 1920              		.loc 13 425 3 is_stmt 1 view .LVU406
 1921              	.LBB684:
 1922              		.loc 13 426 5 view .LVU407
 1923              		.loc 13 426 5 is_stmt 0 view .LVU408
 1924              	.LBE684:
 1925              	.LBE691:
 1926              	.LBB692:
 1927              	.LBI685:
 184:/opt/homebrew/Cellar/arm-none-eabi-gcc/10.3-2021.07/gcc/arm-none-eabi/include/c++/10.3.1/cmath ****   { return __builtin_cosf(__x); }
 1928              		.loc 13 184 3 is_stmt 1 view .LVU409
 1929              	.LBB687:
 185:/opt/homebrew/Cellar/arm-none-eabi-gcc/10.3-2021.07/gcc/arm-none-eabi/include/c++/10.3.1/cmath **** 
 1930              		.loc 13 185 5 view .LVU410
 185:/opt/homebrew/Cellar/arm-none-eabi-gcc/10.3-2021.07/gcc/arm-none-eabi/include/c++/10.3.1/cmath **** 
 1931              		.loc 13 185 5 is_stmt 0 view .LVU411
 1932              	.LBE687:
 1933              	.LBE692:
 317:../../libDaisy/src/hid/disp/display.h ****         end_y   = -sin(end_angle_rad) * radius;
 1934              		.loc 12 317 17 view .LVU412
 1935 0090 29EE899A 		vmul.f32	s18, s19, s18
 1936              	.LVL143:
 1937              	.LBB693:
 1938              	.LBI688:
 425:/opt/homebrew/Cellar/arm-none-eabi-gcc/10.3-2021.07/gcc/arm-none-eabi/include/c++/10.3.1/cmath ****   { return __builtin_sinf(__x); }
 1939              		.loc 13 425 3 is_stmt 1 view .LVU413
 1940              	.LBB690:
 1941              		.loc 13 426 5 view .LVU414
 1942              		.loc 13 426 5 is_stmt 0 view .LVU415
 1943              	.LBE690:
 1944              	.LBE693:
 322:../../libDaisy/src/hid/disp/display.h ****            < 2.0f)
 1945              		.loc 12 322 25 view .LVU416
 1946 0094 70EE687A 		vsub.f32	s15, s0, s17
 321:../../libDaisy/src/hid/disp/display.h ****                + (end_y - start_y) * (end_y - start_y)
 1947              		.loc 12 321 9 view .LVU417
 1948 0098 F0EE006A 		vmov.f32	s13, #2.0e+0
 321:../../libDaisy/src/hid/disp/display.h ****                + (end_y - start_y) * (end_y - start_y)
 1949              		.loc 12 321 19 view .LVU418
 1950 009c 39EE487A 		vsub.f32	s14, s18, s16
 322:../../libDaisy/src/hid/disp/display.h ****            < 2.0f)
 1951              		.loc 12 322 36 view .LVU419
 1952 00a0 67EEA77A 		vmul.f32	s15, s15, s15
 322:../../libDaisy/src/hid/disp/display.h ****            < 2.0f)
 1953              		.loc 12 322 16 view .LVU420
 1954 00a4 E7EE077A 		vfma.f32	s15, s14, s14
 321:../../libDaisy/src/hid/disp/display.h ****                + (end_y - start_y) * (end_y - start_y)
 1955              		.loc 12 321 9 view .LVU421
 1956 00a8 F4EEE67A 		vcmpe.f32	s15, s13
 1957 00ac F1EE10FA 		vmrs	APSR_nzcv, FPSCR
 1958 00b0 06D5     		bpl	.L192
 325:../../libDaisy/src/hid/disp/display.h ****                 circle = true;
 1959              		.loc 12 325 13 view .LVU422
 1960 00b2 139B     		ldr	r3, [sp, #76]
 1961 00b4 B42B     		cmp	r3, #180
 1962 00b6 40F39680 		ble	.L133
 326:../../libDaisy/src/hid/disp/display.h ****             else
 1963              		.loc 12 326 24 view .LVU423
ARM GAS  /var/folders/hl/qgbwny5j0fd895c2c41bk3tw0000gp/T//ccFqANMK.s 			page 71


 1964 00ba 4FF00109 		mov	r9, #1
 1965 00be 01E0     		b	.L136
 1966              	.L192:
 304:../../libDaisy/src/hid/disp/display.h **** 
 1967              		.loc 12 304 14 view .LVU424
 1968 00c0 4FF00009 		mov	r9, #0
 1969              	.L136:
 1970              	.LVL144:
 302:../../libDaisy/src/hid/disp/display.h **** 
 1971              		.loc 12 302 27 view .LVU425
 1972 00c4 0124     		movs	r4, #1
 332:../../libDaisy/src/hid/disp/display.h ****         t_y = 0;
 1973              		.loc 12 332 13 view .LVU426
 1974 00c6 7842     		rsbs	r0, r7, #0
 1975              	.LVL145:
 333:../../libDaisy/src/hid/disp/display.h ****         err = 2 - 2 * radius;
 1976              		.loc 12 333 13 view .LVU427
 1977 00c8 4FF0000C 		mov	ip, #0
 1978 00cc 0095     		str	r5, [sp]
 334:../../libDaisy/src/hid/disp/display.h **** 
 1979              		.loc 12 334 17 view .LVU428
 1980 00ce E31B     		subs	r3, r4, r7
 302:../../libDaisy/src/hid/disp/display.h **** 
 1981              		.loc 12 302 17 view .LVU429
 1982 00d0 2146     		mov	r1, r4
 302:../../libDaisy/src/hid/disp/display.h **** 
 1983              		.loc 12 302 22 view .LVU430
 1984 00d2 2746     		mov	r7, r4
 1985              	.LVL146:
 302:../../libDaisy/src/hid/disp/display.h **** 
 1986              		.loc 12 302 12 view .LVU431
 1987 00d4 2246     		mov	r2, r4
 334:../../libDaisy/src/hid/disp/display.h **** 
 1988              		.loc 12 334 17 view .LVU432
 1989 00d6 A340     		lsls	r3, r3, r4
 1990              	.LVL147:
 1991              	.L162:
 338:../../libDaisy/src/hid/disp/display.h ****             {
 1992              		.loc 12 338 13 view .LVU433
 1993 00d8 B9F1000F 		cmp	r9, #0
 1994 00dc 6AD1     		bne	.L138
 343:../../libDaisy/src/hid/disp/display.h ****                 t_exy  = end_x * t_y;
 1995              		.loc 12 343 34 view .LVU434
 1996 00de 4242     		rsbs	r2, r0, #0
 1997              	.LVL148:
 340:../../libDaisy/src/hid/disp/display.h ****                 t_syx  = start_y * t_x;
 1998              		.loc 12 340 24 view .LVU435
 1999 00e0 06EE90CA 		vmov	s13, ip	@ int
 342:../../libDaisy/src/hid/disp/display.h ****                 t_synx = start_y * -t_x;
 2000              		.loc 12 342 34 view .LVU436
 2001 00e4 CCF10001 		rsb	r1, ip, #0
 2002              	.LVL149:
 343:../../libDaisy/src/hid/disp/display.h ****                 t_exy  = end_x * t_y;
 2003              		.loc 12 343 34 view .LVU437
 2004 00e8 07EE102A 		vmov	s14, r2	@ int
 340:../../libDaisy/src/hid/disp/display.h ****                 t_syx  = start_y * t_x;
 2005              		.loc 12 340 24 view .LVU438
ARM GAS  /var/folders/hl/qgbwny5j0fd895c2c41bk3tw0000gp/T//ccFqANMK.s 			page 72


 2006 00ec B8EEE66A 		vcvt.f32.s32	s12, s13
 342:../../libDaisy/src/hid/disp/display.h ****                 t_synx = start_y * -t_x;
 2007              		.loc 12 342 34 view .LVU439
 2008 00f0 07EE901A 		vmov	s15, r1	@ int
 341:../../libDaisy/src/hid/disp/display.h ****                 t_sxny = start_x * -t_y;
 2009              		.loc 12 341 24 view .LVU440
 2010 00f4 06EE900A 		vmov	s13, r0	@ int
 343:../../libDaisy/src/hid/disp/display.h ****                 t_exy  = end_x * t_y;
 2011              		.loc 12 343 34 view .LVU441
 2012 00f8 B8EEC77A 		vcvt.f32.s32	s14, s14
 349:../../libDaisy/src/hid/disp/display.h ****                 {
 2013              		.loc 12 349 17 view .LVU442
 2014 00fc 139A     		ldr	r2, [sp, #76]
 340:../../libDaisy/src/hid/disp/display.h ****                 t_syx  = start_y * t_x;
 2015              		.loc 12 340 24 view .LVU443
 2016 00fe 66EE084A 		vmul.f32	s9, s12, s16
 2017              	.LVL150:
 342:../../libDaisy/src/hid/disp/display.h ****                 t_synx = start_y * -t_x;
 2018              		.loc 12 342 34 view .LVU444
 2019 0102 F8EEE77A 		vcvt.f32.s32	s15, s15
 349:../../libDaisy/src/hid/disp/display.h ****                 {
 2020              		.loc 12 349 17 view .LVU445
 2021 0106 B42A     		cmp	r2, #180
 343:../../libDaisy/src/hid/disp/display.h ****                 t_exy  = end_x * t_y;
 2022              		.loc 12 343 24 view .LVU446
 2023 0108 27EE284A 		vmul.f32	s8, s14, s17
 341:../../libDaisy/src/hid/disp/display.h ****                 t_sxny = start_x * -t_y;
 2024              		.loc 12 341 24 view .LVU447
 2025 010c F8EEE66A 		vcvt.f32.s32	s13, s13
 342:../../libDaisy/src/hid/disp/display.h ****                 t_synx = start_y * -t_x;
 2026              		.loc 12 342 24 view .LVU448
 2027 0110 67EE885A 		vmul.f32	s11, s15, s16
 351:../../libDaisy/src/hid/disp/display.h ****                     d2 = (t_sxy - t_syx < 0 || t_exy - t_eyx > 0);
 2028              		.loc 12 351 33 view .LVU449
 2029 0114 74EEC43A 		vsub.f32	s7, s9, s8
 341:../../libDaisy/src/hid/disp/display.h ****                 t_sxny = start_x * -t_y;
 2030              		.loc 12 341 24 view .LVU450
 2031 0118 26EEA85A 		vmul.f32	s10, s13, s17
 2032              	.LVL151:
 344:../../libDaisy/src/hid/disp/display.h ****                 t_eyx  = end_y * t_x;
 2033              		.loc 12 344 24 view .LVU451
 2034 011c 26EE096A 		vmul.f32	s12, s12, s18
 2035              	.LVL152:
 345:../../libDaisy/src/hid/disp/display.h ****                 t_exny = end_x * -t_y;
 2036              		.loc 12 345 24 view .LVU452
 2037 0120 66EE806A 		vmul.f32	s13, s13, s0
 2038              	.LVL153:
 346:../../libDaisy/src/hid/disp/display.h ****                 t_eynx = end_y * -t_x;
 2039              		.loc 12 346 24 view .LVU453
 2040 0124 67EE897A 		vmul.f32	s15, s15, s18
 2041              	.LVL154:
 347:../../libDaisy/src/hid/disp/display.h **** 
 2042              		.loc 12 347 24 view .LVU454
 2043 0128 27EE007A 		vmul.f32	s14, s14, s0
 2044              	.LVL155:
 351:../../libDaisy/src/hid/disp/display.h ****                     d2 = (t_sxy - t_syx < 0 || t_exy - t_eyx > 0);
 2045              		.loc 12 351 46 view .LVU455
ARM GAS  /var/folders/hl/qgbwny5j0fd895c2c41bk3tw0000gp/T//ccFqANMK.s 			page 73


 2046 012c F5EEC03A 		vcmpe.f32	s7, #0
 349:../../libDaisy/src/hid/disp/display.h ****                 {
 2047              		.loc 12 349 17 view .LVU456
 2048 0130 40F3F280 		ble	.L139
 351:../../libDaisy/src/hid/disp/display.h ****                     d2 = (t_sxy - t_syx < 0 || t_exy - t_eyx > 0);
 2049              		.loc 12 351 46 view .LVU457
 2050 0134 F1EE10FA 		vmrs	APSR_nzcv, FPSCR
 2051 0138 00F17F81 		bmi	.L165
 351:../../libDaisy/src/hid/disp/display.h ****                     d2 = (t_sxy - t_syx < 0 || t_exy - t_eyx > 0);
 2052              		.loc 12 351 55 discriminator 2 view .LVU458
 2053 013c 76EE473A 		vsub.f32	s7, s12, s14
 352:../../libDaisy/src/hid/disp/display.h ****                     d3 = (t_sxny - t_syx < 0 || t_exny - t_eyx > 0);
 2054              		.loc 12 352 33 discriminator 2 view .LVU459
 2055 0140 74EEC54A 		vsub.f32	s9, s9, s10
 2056              	.LVL156:
 351:../../libDaisy/src/hid/disp/display.h ****                     d2 = (t_sxy - t_syx < 0 || t_exy - t_eyx > 0);
 2057              		.loc 12 351 46 discriminator 2 view .LVU460
 2058 0144 F5EEC03A 		vcmpe.f32	s7, #0
 2059 0148 F1EE10FA 		vmrs	APSR_nzcv, FPSCR
 352:../../libDaisy/src/hid/disp/display.h ****                     d3 = (t_sxny - t_syx < 0 || t_exny - t_eyx > 0);
 2060              		.loc 12 352 45 discriminator 2 view .LVU461
 2061 014c F5EEC04A 		vcmpe.f32	s9, #0
 351:../../libDaisy/src/hid/disp/display.h ****                     d2 = (t_sxy - t_syx < 0 || t_exy - t_eyx > 0);
 2062              		.loc 12 351 46 discriminator 2 view .LVU462
 2063 0150 CCBF     		ite	gt
 2064 0152 0122     		movgt	r2, #1
 2065 0154 0022     		movle	r2, #0
 2066              	.LVL157:
 352:../../libDaisy/src/hid/disp/display.h ****                     d3 = (t_sxny - t_syx < 0 || t_exny - t_eyx > 0);
 2067              		.loc 12 352 45 discriminator 2 view .LVU463
 2068 0156 F1EE10FA 		vmrs	APSR_nzcv, FPSCR
 2069 015a 00F17781 		bmi	.L166
 2070              	.L208:
 352:../../libDaisy/src/hid/disp/display.h ****                     d3 = (t_sxny - t_syx < 0 || t_exny - t_eyx > 0);
 2071              		.loc 12 352 54 discriminator 2 view .LVU464
 2072 015e 36EE666A 		vsub.f32	s12, s12, s13
 2073              	.LVL158:
 353:../../libDaisy/src/hid/disp/display.h ****                     d4 = (t_sxny - t_synx < 0 || t_exny - t_eynx > 0);
 2074              		.loc 12 353 34 discriminator 2 view .LVU465
 2075 0162 35EEC55A 		vsub.f32	s10, s11, s10
 2076              	.LVL159:
 352:../../libDaisy/src/hid/disp/display.h ****                     d3 = (t_sxny - t_syx < 0 || t_exny - t_eyx > 0);
 2077              		.loc 12 352 45 discriminator 2 view .LVU466
 2078 0166 B5EEC06A 		vcmpe.f32	s12, #0
 2079 016a F1EE10FA 		vmrs	APSR_nzcv, FPSCR
 353:../../libDaisy/src/hid/disp/display.h ****                     d4 = (t_sxny - t_synx < 0 || t_exny - t_eynx > 0);
 2080              		.loc 12 353 46 discriminator 2 view .LVU467
 2081 016e B5EEC05A 		vcmpe.f32	s10, #0
 352:../../libDaisy/src/hid/disp/display.h ****                     d3 = (t_sxny - t_syx < 0 || t_exny - t_eyx > 0);
 2082              		.loc 12 352 45 discriminator 2 view .LVU468
 2083 0172 CCBF     		ite	gt
 2084 0174 0121     		movgt	r1, #1
 2085 0176 0021     		movle	r1, #0
 2086              	.LVL160:
 353:../../libDaisy/src/hid/disp/display.h ****                     d4 = (t_sxny - t_synx < 0 || t_exny - t_eynx > 0);
 2087              		.loc 12 353 46 discriminator 2 view .LVU469
 2088 0178 F1EE10FA 		vmrs	APSR_nzcv, FPSCR
ARM GAS  /var/folders/hl/qgbwny5j0fd895c2c41bk3tw0000gp/T//ccFqANMK.s 			page 74


 2089 017c 00F16F81 		bmi	.L167
 2090              	.L209:
 353:../../libDaisy/src/hid/disp/display.h ****                     d4 = (t_sxny - t_synx < 0 || t_exny - t_eynx > 0);
 2091              		.loc 12 353 56 discriminator 2 view .LVU470
 2092 0180 77EEE66A 		vsub.f32	s13, s15, s13
 2093              	.LVL161:
 353:../../libDaisy/src/hid/disp/display.h ****                     d4 = (t_sxny - t_synx < 0 || t_exny - t_eynx > 0);
 2094              		.loc 12 353 46 discriminator 2 view .LVU471
 2095 0184 F5EEC06A 		vcmpe.f32	s13, #0
 2096 0188 F1EE10FA 		vmrs	APSR_nzcv, FPSCR
 2097 018c CCBF     		ite	gt
 2098 018e 0127     		movgt	r7, #1
 2099              	.LVL162:
 353:../../libDaisy/src/hid/disp/display.h ****                     d4 = (t_sxny - t_synx < 0 || t_exny - t_eynx > 0);
 2100              		.loc 12 353 46 discriminator 2 view .LVU472
 2101 0190 0027     		movle	r7, #0
 2102              	.L142:
 2103              	.LVL163:
 354:../../libDaisy/src/hid/disp/display.h ****                 }
 2104              		.loc 12 354 34 discriminator 6 view .LVU473
 2105 0192 75EEC45A 		vsub.f32	s11, s11, s8
 2106              	.LVL164:
 354:../../libDaisy/src/hid/disp/display.h ****                 }
 2107              		.loc 12 354 47 discriminator 6 view .LVU474
 2108 0196 F5EEC05A 		vcmpe.f32	s11, #0
 2109 019a F1EE10FA 		vmrs	APSR_nzcv, FPSCR
 2110 019e 00F14781 		bmi	.L168
 2111              	.L198:
 361:../../libDaisy/src/hid/disp/display.h ****                 }
 2112              		.loc 12 361 57 discriminator 1 view .LVU475
 2113 01a2 77EEC77A 		vsub.f32	s15, s15, s14
 2114              	.LVL165:
 361:../../libDaisy/src/hid/disp/display.h ****                 }
 2115              		.loc 12 361 47 discriminator 1 view .LVU476
 2116 01a6 F5EEC07A 		vcmpe.f32	s15, #0
 2117 01aa F1EE10FA 		vmrs	APSR_nzcv, FPSCR
 2118 01ae CCBF     		ite	gt
 2119 01b0 0124     		movgt	r4, #1
 2120              	.LVL166:
 361:../../libDaisy/src/hid/disp/display.h ****                 }
 2121              		.loc 12 361 47 discriminator 1 view .LVU477
 2122 01b2 0024     		movle	r4, #0
 2123              	.LVL167:
 2124              	.L138:
 365:../../libDaisy/src/hid/disp/display.h ****                 ((ChildType*)(this))
 2125              		.loc 12 365 13 view .LVU478
 2126 01b4 002A     		cmp	r2, #0
 2127 01b6 40F08A80 		bne	.L199
 2128              	.L150:
 368:../../libDaisy/src/hid/disp/display.h ****                 ((ChildType*)(this))
 2129              		.loc 12 368 13 view .LVU479
 2130 01ba 0029     		cmp	r1, #0
 2131 01bc 64D1     		bne	.L200
 2132              	.L152:
 371:../../libDaisy/src/hid/disp/display.h ****                 ((ChildType*)(this))
 2133              		.loc 12 371 13 view .LVU480
 2134 01be BFB9     		cbnz	r7, .L201
ARM GAS  /var/folders/hl/qgbwny5j0fd895c2c41bk3tw0000gp/T//ccFqANMK.s 			page 75


 2135              	.L154:
 374:../../libDaisy/src/hid/disp/display.h ****                 ((ChildType*)(this))
 2136              		.loc 12 374 13 view .LVU481
 2137 01c0 C4BB     		cbnz	r4, .L202
 2138              	.L156:
 2139              	.LVL168:
 379:../../libDaisy/src/hid/disp/display.h ****             {
 2140              		.loc 12 379 13 view .LVU482
 2141 01c2 9C45     		cmp	ip, r3
 2142 01c4 58DB     		blt	.L173
 2143              	.L204:
 381:../../libDaisy/src/hid/disp/display.h ****                 err = err + (t_y * 2 + 1);
 2144              		.loc 12 381 17 view .LVU483
 2145 01c6 0CF1010C 		add	ip, ip, #1
 2146              	.LVL169:
 382:../../libDaisy/src/hid/disp/display.h ****                 if(-t_x == t_y && e2 <= t_x)
 2147              		.loc 12 382 38 view .LVU484
 2148 01ca 03EB4C0E 		add	lr, r3, ip, lsl #1
 383:../../libDaisy/src/hid/disp/display.h ****                 {
 2149              		.loc 12 383 17 view .LVU485
 2150 01ce 1CEB000F 		cmn	ip, r0
 382:../../libDaisy/src/hid/disp/display.h ****                 if(-t_x == t_y && e2 <= t_x)
 2151              		.loc 12 382 21 view .LVU486
 2152 01d2 0EF1010E 		add	lr, lr, #1
 2153              	.LVL170:
 383:../../libDaisy/src/hid/disp/display.h ****                 {
 2154              		.loc 12 383 17 view .LVU487
 2155 01d6 00F0C080 		beq	.L203
 2156              	.LVL171:
 2157              	.L158:
 388:../../libDaisy/src/hid/disp/display.h ****             {
 2158              		.loc 12 388 13 view .LVU488
 2159 01da 9842     		cmp	r0, r3
 2160 01dc 4FDB     		blt	.L159
 2161              	.L174:
 388:../../libDaisy/src/hid/disp/display.h ****             {
 2162              		.loc 12 388 13 view .LVU489
 2163 01de 7346     		mov	r3, lr
 2164              	.LVL172:
 2165              	.L160:
 393:../../libDaisy/src/hid/disp/display.h ****     }
 2166              		.loc 12 393 21 is_stmt 1 view .LVU490
 2167 01e0 0028     		cmp	r0, #0
 2168 01e2 7FF779AF 		ble	.L162
 2169              	.LVL173:
 2170              	.L133:
 394:../../libDaisy/src/hid/disp/display.h **** 
 2171              		.loc 12 394 5 is_stmt 0 view .LVU491
 2172 01e6 03B0     		add	sp, sp, #12
 2173              		.cfi_remember_state
 2174              		.cfi_def_cfa_offset 60
 2175              		@ sp needed
 2176 01e8 BDEC068B 		vldm	sp!, {d8-d10}
 2177              		.cfi_restore 84
 2178              		.cfi_restore 85
 2179              		.cfi_restore 82
 2180              		.cfi_restore 83
ARM GAS  /var/folders/hl/qgbwny5j0fd895c2c41bk3tw0000gp/T//ccFqANMK.s 			page 76


 2181              		.cfi_restore 80
 2182              		.cfi_restore 81
 2183              		.cfi_def_cfa_offset 36
 2184              	.LVL174:
 394:../../libDaisy/src/hid/disp/display.h **** 
 2185              		.loc 12 394 5 view .LVU492
 2186 01ec BDE8F08F 		pop	{r4, r5, r6, r7, r8, r9, r10, fp, pc}
 2187              	.LVL175:
 2188              	.L201:
 2189              		.cfi_restore_state
 373:../../libDaisy/src/hid/disp/display.h ****             if(d4)
 2190              		.loc 12 373 43 view .LVU493
 2191 01f0 009D     		ldr	r5, [sp]
 2192 01f2 A6EB0C0E 		sub	lr, r6, ip
 2193 01f6 00EB050A 		add	r10, r0, r5
 2194              	.LVL176:
 2195              	.LBB694:
 2196              	.LBI694:
  42:../../libDaisy/src/hid/disp/oled_display.h ****     {
 2197              		.loc 10 42 10 is_stmt 1 view .LVU494
 2198              	.LBB695:
 2199              	.LBI695:
 252:../../libDaisy/src/dev/oled_ssd130x.h ****     {
 2200              		.loc 11 252 10 view .LVU495
 2201              	.LBB696:
 254:../../libDaisy/src/dev/oled_ssd130x.h ****             return;
 2202              		.loc 11 254 9 is_stmt 0 view .LVU496
 2203 01fa BAF17F0F 		cmp	r10, #127
 2204 01fe DFD8     		bhi	.L154
 2205 0200 BEF13F0F 		cmp	lr, #63
 2206 0204 DCD8     		bhi	.L154
 257:../../libDaisy/src/dev/oled_ssd130x.h ****         else
 2207              		.loc 11 257 28 view .LVU497
 2208 0206 4FEADE0B 		lsr	fp, lr, #3
 256:../../libDaisy/src/dev/oled_ssd130x.h ****             buffer_[x + (y / 8) * width] |= (1 << (y % 8));
 2209              		.loc 11 256 9 view .LVU498
 2210 020a 019D     		ldr	r5, [sp, #4]
 257:../../libDaisy/src/dev/oled_ssd130x.h ****         else
 2211              		.loc 11 257 42 view .LVU499
 2212 020c 0AEBCB1A 		add	r10, r10, fp, lsl #7
 2213              	.LVL177:
 256:../../libDaisy/src/dev/oled_ssd130x.h ****             buffer_[x + (y / 8) * width] |= (1 << (y % 8));
 2214              		.loc 11 256 9 view .LVU500
 2215 0210 002D     		cmp	r5, #0
 2216 0212 00F0B180 		beq	.L155
 257:../../libDaisy/src/dev/oled_ssd130x.h ****         else
 2217              		.loc 11 257 54 view .LVU501
 2218 0216 0EF0070B 		and	fp, lr, #7
 257:../../libDaisy/src/dev/oled_ssd130x.h ****         else
 2219              		.loc 11 257 42 view .LVU502
 2220 021a C244     		add	r10, r10, r8
 257:../../libDaisy/src/dev/oled_ssd130x.h ****         else
 2221              		.loc 11 257 48 view .LVU503
 2222 021c 4FF0010E 		mov	lr, #1
 2223              	.LVL178:
 257:../../libDaisy/src/dev/oled_ssd130x.h ****         else
 2224              		.loc 11 257 48 view .LVU504
ARM GAS  /var/folders/hl/qgbwny5j0fd895c2c41bk3tw0000gp/T//ccFqANMK.s 			page 77


 2225 0220 0EFA0BFE 		lsl	lr, lr, fp
 257:../../libDaisy/src/dev/oled_ssd130x.h ****         else
 2226              		.loc 11 257 42 view .LVU505
 2227 0224 9AF814B0 		ldrb	fp, [r10, #20]	@ zero_extendqisi2
 2228 0228 4EEA0B0E 		orr	lr, lr, fp
 2229 022c 8AF814E0 		strb	lr, [r10, #20]
 2230              	.LVL179:
 257:../../libDaisy/src/dev/oled_ssd130x.h ****         else
 2231              		.loc 11 257 42 view .LVU506
 2232              	.LBE696:
 2233              	.LBE695:
 2234              	.LBE694:
 374:../../libDaisy/src/hid/disp/display.h ****                 ((ChildType*)(this))
 2235              		.loc 12 374 13 view .LVU507
 2236 0230 002C     		cmp	r4, #0
 2237 0232 C6D0     		beq	.L156
 2238              	.L202:
 376:../../libDaisy/src/hid/disp/display.h **** 
 2239              		.loc 12 376 43 view .LVU508
 2240 0234 009D     		ldr	r5, [sp]
 2241 0236 A6EB0C0E 		sub	lr, r6, ip
 2242 023a A5EB000A 		sub	r10, r5, r0
 2243              	.LVL180:
 2244              	.LBB701:
 2245              	.LBI701:
  42:../../libDaisy/src/hid/disp/oled_display.h ****     {
 2246              		.loc 10 42 10 is_stmt 1 view .LVU509
 2247              	.LBB702:
 2248              	.LBI702:
 252:../../libDaisy/src/dev/oled_ssd130x.h ****     {
 2249              		.loc 11 252 10 view .LVU510
 2250              	.LBB703:
 254:../../libDaisy/src/dev/oled_ssd130x.h ****             return;
 2251              		.loc 11 254 9 is_stmt 0 view .LVU511
 2252 023e BAF17F0F 		cmp	r10, #127
 2253 0242 BED8     		bhi	.L156
 2254 0244 BEF13F0F 		cmp	lr, #63
 2255 0248 BBD8     		bhi	.L156
 257:../../libDaisy/src/dev/oled_ssd130x.h ****         else
 2256              		.loc 11 257 28 view .LVU512
 2257 024a 4FEADE0B 		lsr	fp, lr, #3
 256:../../libDaisy/src/dev/oled_ssd130x.h ****             buffer_[x + (y / 8) * width] |= (1 << (y % 8));
 2258              		.loc 11 256 9 view .LVU513
 2259 024e 019D     		ldr	r5, [sp, #4]
 257:../../libDaisy/src/dev/oled_ssd130x.h ****         else
 2260              		.loc 11 257 42 view .LVU514
 2261 0250 0AEBCB1A 		add	r10, r10, fp, lsl #7
 2262              	.LVL181:
 256:../../libDaisy/src/dev/oled_ssd130x.h ****             buffer_[x + (y / 8) * width] |= (1 << (y % 8));
 2263              		.loc 11 256 9 view .LVU515
 2264 0254 002D     		cmp	r5, #0
 2265 0256 00F0AE80 		beq	.L157
 257:../../libDaisy/src/dev/oled_ssd130x.h ****         else
 2266              		.loc 11 257 54 view .LVU516
 2267 025a 0EF0070B 		and	fp, lr, #7
 257:../../libDaisy/src/dev/oled_ssd130x.h ****         else
 2268              		.loc 11 257 42 view .LVU517
ARM GAS  /var/folders/hl/qgbwny5j0fd895c2c41bk3tw0000gp/T//ccFqANMK.s 			page 78


 2269 025e C244     		add	r10, r10, r8
 257:../../libDaisy/src/dev/oled_ssd130x.h ****         else
 2270              		.loc 11 257 48 view .LVU518
 2271 0260 4FF0010E 		mov	lr, #1
 2272              	.LVL182:
 257:../../libDaisy/src/dev/oled_ssd130x.h ****         else
 2273              		.loc 11 257 48 view .LVU519
 2274              	.LBE703:
 2275              	.LBE702:
 2276              	.LBE701:
 379:../../libDaisy/src/hid/disp/display.h ****             {
 2277              		.loc 12 379 13 view .LVU520
 2278 0264 9C45     		cmp	ip, r3
 2279              	.LBB710:
 2280              	.LBB708:
 2281              	.LBB706:
 257:../../libDaisy/src/dev/oled_ssd130x.h ****         else
 2282              		.loc 11 257 48 view .LVU521
 2283 0266 0EFA0BFE 		lsl	lr, lr, fp
 257:../../libDaisy/src/dev/oled_ssd130x.h ****         else
 2284              		.loc 11 257 42 view .LVU522
 2285 026a 9AF814B0 		ldrb	fp, [r10, #20]	@ zero_extendqisi2
 2286 026e 4EEA0B0E 		orr	lr, lr, fp
 2287 0272 8AF814E0 		strb	lr, [r10, #20]
 2288              	.LVL183:
 257:../../libDaisy/src/dev/oled_ssd130x.h ****         else
 2289              		.loc 11 257 42 view .LVU523
 2290              	.LBE706:
 2291              	.LBE708:
 2292              	.LBE710:
 379:../../libDaisy/src/hid/disp/display.h ****             {
 2293              		.loc 12 379 13 view .LVU524
 2294 0276 A6DA     		bge	.L204
 2295              	.L173:
 388:../../libDaisy/src/hid/disp/display.h ****             {
 2296              		.loc 12 388 13 view .LVU525
 2297 0278 9842     		cmp	r0, r3
 2298 027a 9E46     		mov	lr, r3
 2299              	.LVL184:
 388:../../libDaisy/src/hid/disp/display.h ****             {
 2300              		.loc 12 388 13 view .LVU526
 2301 027c AFDA     		bge	.L174
 2302              	.LVL185:
 2303              	.L159:
 390:../../libDaisy/src/hid/disp/display.h ****                 err = err + (t_x * 2 + 1);
 2304              		.loc 12 390 17 view .LVU527
 2305 027e 0130     		adds	r0, r0, #1
 2306              	.LVL186:
 391:../../libDaisy/src/hid/disp/display.h ****             }
 2307              		.loc 12 391 38 view .LVU528
 2308 0280 0EEB4003 		add	r3, lr, r0, lsl #1
 391:../../libDaisy/src/hid/disp/display.h ****             }
 2309              		.loc 12 391 21 view .LVU529
 2310 0284 0133     		adds	r3, r3, #1
 2311              	.LVL187:
 391:../../libDaisy/src/hid/disp/display.h ****             }
 2312              		.loc 12 391 21 view .LVU530
ARM GAS  /var/folders/hl/qgbwny5j0fd895c2c41bk3tw0000gp/T//ccFqANMK.s 			page 79


 2313 0286 ABE7     		b	.L160
 2314              	.L200:
 370:../../libDaisy/src/hid/disp/display.h ****             if(d3)
 2315              		.loc 12 370 43 view .LVU531
 2316 0288 009D     		ldr	r5, [sp]
 2317 028a 0CEB060E 		add	lr, ip, r6
 2318 028e 00EB050A 		add	r10, r0, r5
 2319              	.LVL188:
 2320              	.LBB711:
 2321              	.LBI711:
  42:../../libDaisy/src/hid/disp/oled_display.h ****     {
 2322              		.loc 10 42 10 is_stmt 1 view .LVU532
 2323              	.LBB712:
 2324              	.LBI712:
 252:../../libDaisy/src/dev/oled_ssd130x.h ****     {
 2325              		.loc 11 252 10 view .LVU533
 2326              	.LBB713:
 254:../../libDaisy/src/dev/oled_ssd130x.h ****             return;
 2327              		.loc 11 254 9 is_stmt 0 view .LVU534
 2328 0292 BAF17F0F 		cmp	r10, #127
 2329 0296 92D8     		bhi	.L152
 2330 0298 BEF13F0F 		cmp	lr, #63
 2331 029c 8FD8     		bhi	.L152
 257:../../libDaisy/src/dev/oled_ssd130x.h ****         else
 2332              		.loc 11 257 28 view .LVU535
 2333 029e 4FEADE0B 		lsr	fp, lr, #3
 256:../../libDaisy/src/dev/oled_ssd130x.h ****             buffer_[x + (y / 8) * width] |= (1 << (y % 8));
 2334              		.loc 11 256 9 view .LVU536
 2335 02a2 019D     		ldr	r5, [sp, #4]
 257:../../libDaisy/src/dev/oled_ssd130x.h ****         else
 2336              		.loc 11 257 42 view .LVU537
 2337 02a4 0AEBCB1A 		add	r10, r10, fp, lsl #7
 2338              	.LVL189:
 256:../../libDaisy/src/dev/oled_ssd130x.h ****             buffer_[x + (y / 8) * width] |= (1 << (y % 8));
 2339              		.loc 11 256 9 view .LVU538
 2340 02a8 002D     		cmp	r5, #0
 2341 02aa 73D0     		beq	.L153
 257:../../libDaisy/src/dev/oled_ssd130x.h ****         else
 2342              		.loc 11 257 54 view .LVU539
 2343 02ac 0EF0070B 		and	fp, lr, #7
 257:../../libDaisy/src/dev/oled_ssd130x.h ****         else
 2344              		.loc 11 257 42 view .LVU540
 2345 02b0 C244     		add	r10, r10, r8
 257:../../libDaisy/src/dev/oled_ssd130x.h ****         else
 2346              		.loc 11 257 48 view .LVU541
 2347 02b2 4FF0010E 		mov	lr, #1
 2348              	.LVL190:
 257:../../libDaisy/src/dev/oled_ssd130x.h ****         else
 2349              		.loc 11 257 48 view .LVU542
 2350 02b6 0EFA0BFE 		lsl	lr, lr, fp
 257:../../libDaisy/src/dev/oled_ssd130x.h ****         else
 2351              		.loc 11 257 42 view .LVU543
 2352 02ba 9AF814B0 		ldrb	fp, [r10, #20]	@ zero_extendqisi2
 2353 02be 4EEA0B0E 		orr	lr, lr, fp
 2354 02c2 8AF814E0 		strb	lr, [r10, #20]
 2355              	.LVL191:
 257:../../libDaisy/src/dev/oled_ssd130x.h ****         else
ARM GAS  /var/folders/hl/qgbwny5j0fd895c2c41bk3tw0000gp/T//ccFqANMK.s 			page 80


 2356              		.loc 11 257 42 view .LVU544
 2357              	.LBE713:
 2358              	.LBE712:
 2359              	.LBE711:
 371:../../libDaisy/src/hid/disp/display.h ****                 ((ChildType*)(this))
 2360              		.loc 12 371 13 view .LVU545
 2361 02c6 002F     		cmp	r7, #0
 2362 02c8 3FF47AAF 		beq	.L154
 2363 02cc 90E7     		b	.L201
 2364              	.L199:
 367:../../libDaisy/src/hid/disp/display.h ****             if(d2)
 2365              		.loc 12 367 43 view .LVU546
 2366 02ce 009D     		ldr	r5, [sp]
 2367 02d0 0CEB060E 		add	lr, ip, r6
 2368 02d4 A5EB000A 		sub	r10, r5, r0
 2369              	.LVL192:
 2370              	.LBB718:
 2371              	.LBI718:
  42:../../libDaisy/src/hid/disp/oled_display.h ****     {
 2372              		.loc 10 42 10 is_stmt 1 view .LVU547
 2373              	.LBB719:
 2374              	.LBI719:
 252:../../libDaisy/src/dev/oled_ssd130x.h ****     {
 2375              		.loc 11 252 10 view .LVU548
 2376              	.LBB720:
 254:../../libDaisy/src/dev/oled_ssd130x.h ****             return;
 2377              		.loc 11 254 9 is_stmt 0 view .LVU549
 2378 02d8 BAF17F0F 		cmp	r10, #127
 2379 02dc 3FF66DAF 		bhi	.L150
 2380 02e0 BEF13F0F 		cmp	lr, #63
 2381 02e4 3FF669AF 		bhi	.L150
 257:../../libDaisy/src/dev/oled_ssd130x.h ****         else
 2382              		.loc 11 257 28 view .LVU550
 2383 02e8 4FEADE0B 		lsr	fp, lr, #3
 256:../../libDaisy/src/dev/oled_ssd130x.h ****             buffer_[x + (y / 8) * width] |= (1 << (y % 8));
 2384              		.loc 11 256 9 view .LVU551
 2385 02ec 019D     		ldr	r5, [sp, #4]
 257:../../libDaisy/src/dev/oled_ssd130x.h ****         else
 2386              		.loc 11 257 42 view .LVU552
 2387 02ee 0AEBCB1A 		add	r10, r10, fp, lsl #7
 2388              	.LVL193:
 256:../../libDaisy/src/dev/oled_ssd130x.h ****             buffer_[x + (y / 8) * width] |= (1 << (y % 8));
 2389              		.loc 11 256 9 view .LVU553
 2390 02f2 002D     		cmp	r5, #0
 2391 02f4 6DD0     		beq	.L151
 257:../../libDaisy/src/dev/oled_ssd130x.h ****         else
 2392              		.loc 11 257 54 view .LVU554
 2393 02f6 0EF0070B 		and	fp, lr, #7
 257:../../libDaisy/src/dev/oled_ssd130x.h ****         else
 2394              		.loc 11 257 42 view .LVU555
 2395 02fa C244     		add	r10, r10, r8
 257:../../libDaisy/src/dev/oled_ssd130x.h ****         else
 2396              		.loc 11 257 48 view .LVU556
 2397 02fc 4FF0010E 		mov	lr, #1
 2398              	.LVL194:
 257:../../libDaisy/src/dev/oled_ssd130x.h ****         else
 2399              		.loc 11 257 48 view .LVU557
ARM GAS  /var/folders/hl/qgbwny5j0fd895c2c41bk3tw0000gp/T//ccFqANMK.s 			page 81


 2400 0300 0EFA0BFE 		lsl	lr, lr, fp
 257:../../libDaisy/src/dev/oled_ssd130x.h ****         else
 2401              		.loc 11 257 42 view .LVU558
 2402 0304 9AF814B0 		ldrb	fp, [r10, #20]	@ zero_extendqisi2
 2403 0308 4EEA0B0E 		orr	lr, lr, fp
 2404 030c 8AF814E0 		strb	lr, [r10, #20]
 2405              	.LVL195:
 257:../../libDaisy/src/dev/oled_ssd130x.h ****         else
 2406              		.loc 11 257 42 view .LVU559
 2407              	.LBE720:
 2408              	.LBE719:
 2409              	.LBE718:
 368:../../libDaisy/src/hid/disp/display.h ****                 ((ChildType*)(this))
 2410              		.loc 12 368 13 view .LVU560
 2411 0310 0029     		cmp	r1, #0
 2412 0312 3FF454AF 		beq	.L152
 2413 0316 B7E7     		b	.L200
 2414              	.LVL196:
 2415              	.L139:
 358:../../libDaisy/src/hid/disp/display.h ****                     d2 = (t_sxy - t_syx < 0 && t_exy - t_eyx > 0);
 2416              		.loc 12 358 46 view .LVU561
 2417 0318 F1EE10FA 		vmrs	APSR_nzcv, FPSCR
 2418 031c 7ED4     		bmi	.L205
 2419 031e 4A46     		mov	r2, r9
 2420              	.L143:
 2421              	.LVL197:
 359:../../libDaisy/src/hid/disp/display.h ****                     d3 = (t_sxny - t_syx < 0 && t_exny - t_eyx > 0);
 2422              		.loc 12 359 33 discriminator 6 view .LVU562
 2423 0320 74EEC54A 		vsub.f32	s9, s9, s10
 2424              	.LVL198:
 359:../../libDaisy/src/hid/disp/display.h ****                     d3 = (t_sxny - t_syx < 0 && t_exny - t_eyx > 0);
 2425              		.loc 12 359 45 discriminator 6 view .LVU563
 2426 0324 F5EEC04A 		vcmpe.f32	s9, #0
 2427 0328 F1EE10FA 		vmrs	APSR_nzcv, FPSCR
 2428 032c 6CD4     		bmi	.L206
 359:../../libDaisy/src/hid/disp/display.h ****                     d3 = (t_sxny - t_syx < 0 && t_exny - t_eyx > 0);
 2429              		.loc 12 359 45 view .LVU564
 2430 032e 0021     		movs	r1, #0
 2431              	.LVL199:
 2432              	.L145:
 360:../../libDaisy/src/hid/disp/display.h ****                     d4 = (t_sxny - t_synx < 0 && t_exny - t_eynx > 0);
 2433              		.loc 12 360 34 discriminator 6 view .LVU565
 2434 0330 35EEC55A 		vsub.f32	s10, s11, s10
 2435              	.LVL200:
 360:../../libDaisy/src/hid/disp/display.h ****                     d4 = (t_sxny - t_synx < 0 && t_exny - t_eynx > 0);
 2436              		.loc 12 360 46 discriminator 6 view .LVU566
 2437 0334 B5EEC05A 		vcmpe.f32	s10, #0
 2438 0338 F1EE10FA 		vmrs	APSR_nzcv, FPSCR
 2439 033c 5AD4     		bmi	.L207
 360:../../libDaisy/src/hid/disp/display.h ****                     d4 = (t_sxny - t_synx < 0 && t_exny - t_eynx > 0);
 2440              		.loc 12 360 46 view .LVU567
 2441 033e 0027     		movs	r7, #0
 2442              	.LVL201:
 2443              	.L147:
 361:../../libDaisy/src/hid/disp/display.h ****                 }
 2444              		.loc 12 361 34 discriminator 6 view .LVU568
 2445 0340 75EEC45A 		vsub.f32	s11, s11, s8
ARM GAS  /var/folders/hl/qgbwny5j0fd895c2c41bk3tw0000gp/T//ccFqANMK.s 			page 82


 2446              	.LVL202:
 361:../../libDaisy/src/hid/disp/display.h ****                 }
 2447              		.loc 12 361 47 discriminator 6 view .LVU569
 2448 0344 F5EEC05A 		vcmpe.f32	s11, #0
 2449 0348 F1EE10FA 		vmrs	APSR_nzcv, FPSCR
 2450 034c 3FF529AF 		bmi	.L198
 361:../../libDaisy/src/hid/disp/display.h ****                 }
 2451              		.loc 12 361 47 view .LVU570
 2452 0350 0024     		movs	r4, #0
 2453              	.LVL203:
 365:../../libDaisy/src/hid/disp/display.h ****                 ((ChildType*)(this))
 2454              		.loc 12 365 13 view .LVU571
 2455 0352 002A     		cmp	r2, #0
 2456 0354 3FF431AF 		beq	.L150
 2457 0358 B9E7     		b	.L199
 2458              	.LVL204:
 2459              	.L203:
 383:../../libDaisy/src/hid/disp/display.h ****                 {
 2460              		.loc 12 383 32 discriminator 1 view .LVU572
 2461 035a 9842     		cmp	r0, r3
 2462 035c 8FDB     		blt	.L159
 385:../../libDaisy/src/hid/disp/display.h ****                 }
 2463              		.loc 12 385 24 view .LVU573
 2464 035e 0023     		movs	r3, #0
 2465              	.LVL205:
 385:../../libDaisy/src/hid/disp/display.h ****                 }
 2466              		.loc 12 385 24 view .LVU574
 2467 0360 3BE7     		b	.L158
 2468              	.L211:
 2469 0362 00BFAFF3 		.align	3
 2469      0080
 2470              	.L210:
 2471 0368 7A008BFC 		.word	-57999238
 2472 036c FA210940 		.word	1074340346
 2473 0370 00000000 		.word	0
 2474 0374 00806640 		.word	1080459264
 2475              	.LVL206:
 2476              	.L155:
 2477              	.LBB725:
 2478              	.LBB700:
 2479              	.LBB699:
 2480              	.LBB697:
 2481              	.LBI697:
 252:../../libDaisy/src/dev/oled_ssd130x.h ****     {
 2482              		.loc 11 252 10 is_stmt 1 view .LVU575
 2483              	.LBB698:
 259:../../libDaisy/src/dev/oled_ssd130x.h ****     }
 2484              		.loc 11 259 42 is_stmt 0 view .LVU576
 2485 0378 C244     		add	r10, r10, r8
 2486              	.LVL207:
 259:../../libDaisy/src/dev/oled_ssd130x.h ****     }
 2487              		.loc 11 259 49 view .LVU577
 2488 037a 4FF0010B 		mov	fp, #1
 2489              	.LVL208:
 259:../../libDaisy/src/dev/oled_ssd130x.h ****     }
 2490              		.loc 11 259 55 view .LVU578
 2491 037e 0EF0070E 		and	lr, lr, #7
ARM GAS  /var/folders/hl/qgbwny5j0fd895c2c41bk3tw0000gp/T//ccFqANMK.s 			page 83


 2492              	.LVL209:
 259:../../libDaisy/src/dev/oled_ssd130x.h ****     }
 2493              		.loc 11 259 49 view .LVU579
 2494 0382 0BFA0EFE 		lsl	lr, fp, lr
 259:../../libDaisy/src/dev/oled_ssd130x.h ****     }
 2495              		.loc 11 259 42 view .LVU580
 2496 0386 9AF814B0 		ldrb	fp, [r10, #20]	@ zero_extendqisi2
 2497 038a 2BEA0E0E 		bic	lr, fp, lr
 2498 038e 8AF814E0 		strb	lr, [r10, #20]
 2499              	.LVL210:
 259:../../libDaisy/src/dev/oled_ssd130x.h ****     }
 2500              		.loc 11 259 42 view .LVU581
 2501 0392 15E7     		b	.L154
 2502              	.LVL211:
 2503              	.L153:
 259:../../libDaisy/src/dev/oled_ssd130x.h ****     }
 2504              		.loc 11 259 42 view .LVU582
 2505              	.LBE698:
 2506              	.LBE697:
 2507              	.LBE699:
 2508              	.LBE700:
 2509              	.LBE725:
 2510              	.LBB726:
 2511              	.LBB717:
 2512              	.LBB716:
 2513              	.LBB714:
 2514              	.LBI714:
 252:../../libDaisy/src/dev/oled_ssd130x.h ****     {
 2515              		.loc 11 252 10 is_stmt 1 view .LVU583
 2516              	.LBB715:
 259:../../libDaisy/src/dev/oled_ssd130x.h ****     }
 2517              		.loc 11 259 42 is_stmt 0 view .LVU584
 2518 0394 C244     		add	r10, r10, r8
 2519              	.LVL212:
 259:../../libDaisy/src/dev/oled_ssd130x.h ****     }
 2520              		.loc 11 259 49 view .LVU585
 2521 0396 4FF0010B 		mov	fp, #1
 2522              	.LVL213:
 259:../../libDaisy/src/dev/oled_ssd130x.h ****     }
 2523              		.loc 11 259 55 view .LVU586
 2524 039a 0EF0070E 		and	lr, lr, #7
 2525              	.LVL214:
 259:../../libDaisy/src/dev/oled_ssd130x.h ****     }
 2526              		.loc 11 259 49 view .LVU587
 2527 039e 0BFA0EFE 		lsl	lr, fp, lr
 259:../../libDaisy/src/dev/oled_ssd130x.h ****     }
 2528              		.loc 11 259 42 view .LVU588
 2529 03a2 9AF814B0 		ldrb	fp, [r10, #20]	@ zero_extendqisi2
 2530 03a6 2BEA0E0E 		bic	lr, fp, lr
 2531 03aa 8AF814E0 		strb	lr, [r10, #20]
 2532              	.LVL215:
 259:../../libDaisy/src/dev/oled_ssd130x.h ****     }
 2533              		.loc 11 259 42 view .LVU589
 2534              	.LBE715:
 2535              	.LBE714:
 2536              	.LBE716:
 2537              	.LBE717:
ARM GAS  /var/folders/hl/qgbwny5j0fd895c2c41bk3tw0000gp/T//ccFqANMK.s 			page 84


 2538              	.LBE726:
 371:../../libDaisy/src/hid/disp/display.h ****                 ((ChildType*)(this))
 2539              		.loc 12 371 13 view .LVU590
 2540 03ae 002F     		cmp	r7, #0
 2541 03b0 3FF406AF 		beq	.L154
 2542 03b4 1CE7     		b	.L201
 2543              	.LVL216:
 2544              	.L157:
 2545              	.LBB727:
 2546              	.LBB709:
 2547              	.LBB707:
 2548              	.LBB704:
 2549              	.LBI704:
 252:../../libDaisy/src/dev/oled_ssd130x.h ****     {
 2550              		.loc 11 252 10 is_stmt 1 view .LVU591
 2551              	.LBB705:
 259:../../libDaisy/src/dev/oled_ssd130x.h ****     }
 2552              		.loc 11 259 42 is_stmt 0 view .LVU592
 2553 03b6 C244     		add	r10, r10, r8
 2554              	.LVL217:
 259:../../libDaisy/src/dev/oled_ssd130x.h ****     }
 2555              		.loc 11 259 49 view .LVU593
 2556 03b8 4FF0010B 		mov	fp, #1
 2557              	.LVL218:
 259:../../libDaisy/src/dev/oled_ssd130x.h ****     }
 2558              		.loc 11 259 55 view .LVU594
 2559 03bc 0EF0070E 		and	lr, lr, #7
 2560              	.LVL219:
 259:../../libDaisy/src/dev/oled_ssd130x.h ****     }
 2561              		.loc 11 259 49 view .LVU595
 2562 03c0 0BFA0EFE 		lsl	lr, fp, lr
 259:../../libDaisy/src/dev/oled_ssd130x.h ****     }
 2563              		.loc 11 259 42 view .LVU596
 2564 03c4 9AF814B0 		ldrb	fp, [r10, #20]	@ zero_extendqisi2
 2565 03c8 2BEA0E0E 		bic	lr, fp, lr
 2566 03cc 8AF814E0 		strb	lr, [r10, #20]
 2567              	.LVL220:
 259:../../libDaisy/src/dev/oled_ssd130x.h ****     }
 2568              		.loc 11 259 42 view .LVU597
 2569 03d0 F7E6     		b	.L156
 2570              	.LVL221:
 2571              	.L151:
 259:../../libDaisy/src/dev/oled_ssd130x.h ****     }
 2572              		.loc 11 259 42 view .LVU598
 2573              	.LBE705:
 2574              	.LBE704:
 2575              	.LBE707:
 2576              	.LBE709:
 2577              	.LBE727:
 2578              	.LBB728:
 2579              	.LBB724:
 2580              	.LBB723:
 2581              	.LBB721:
 2582              	.LBI721:
 252:../../libDaisy/src/dev/oled_ssd130x.h ****     {
 2583              		.loc 11 252 10 is_stmt 1 view .LVU599
 2584              	.LBB722:
ARM GAS  /var/folders/hl/qgbwny5j0fd895c2c41bk3tw0000gp/T//ccFqANMK.s 			page 85


 259:../../libDaisy/src/dev/oled_ssd130x.h ****     }
 2585              		.loc 11 259 42 is_stmt 0 view .LVU600
 2586 03d2 C244     		add	r10, r10, r8
 2587              	.LVL222:
 259:../../libDaisy/src/dev/oled_ssd130x.h ****     }
 2588              		.loc 11 259 49 view .LVU601
 2589 03d4 4FF0010B 		mov	fp, #1
 2590              	.LVL223:
 259:../../libDaisy/src/dev/oled_ssd130x.h ****     }
 2591              		.loc 11 259 55 view .LVU602
 2592 03d8 0EF0070E 		and	lr, lr, #7
 2593              	.LVL224:
 259:../../libDaisy/src/dev/oled_ssd130x.h ****     }
 2594              		.loc 11 259 49 view .LVU603
 2595 03dc 0BFA0EFE 		lsl	lr, fp, lr
 259:../../libDaisy/src/dev/oled_ssd130x.h ****     }
 2596              		.loc 11 259 42 view .LVU604
 2597 03e0 9AF814B0 		ldrb	fp, [r10, #20]	@ zero_extendqisi2
 2598 03e4 2BEA0E0E 		bic	lr, fp, lr
 2599 03e8 8AF814E0 		strb	lr, [r10, #20]
 2600              	.LVL225:
 259:../../libDaisy/src/dev/oled_ssd130x.h ****     }
 2601              		.loc 11 259 42 view .LVU605
 2602              	.LBE722:
 2603              	.LBE721:
 2604              	.LBE723:
 2605              	.LBE724:
 2606              	.LBE728:
 368:../../libDaisy/src/hid/disp/display.h ****                 ((ChildType*)(this))
 2607              		.loc 12 368 13 view .LVU606
 2608 03ec 0029     		cmp	r1, #0
 2609 03ee 3FF4E6AE 		beq	.L152
 2610 03f2 49E7     		b	.L200
 2611              	.LVL226:
 2612              	.L207:
 360:../../libDaisy/src/hid/disp/display.h ****                     d4 = (t_sxny - t_synx < 0 && t_exny - t_eynx > 0);
 2613              		.loc 12 360 56 discriminator 1 view .LVU607
 2614 03f4 77EEE66A 		vsub.f32	s13, s15, s13
 2615              	.LVL227:
 360:../../libDaisy/src/hid/disp/display.h ****                     d4 = (t_sxny - t_synx < 0 && t_exny - t_eynx > 0);
 2616              		.loc 12 360 46 discriminator 1 view .LVU608
 2617 03f8 F5EEC06A 		vcmpe.f32	s13, #0
 2618 03fc F1EE10FA 		vmrs	APSR_nzcv, FPSCR
 2619 0400 CCBF     		ite	gt
 2620 0402 0127     		movgt	r7, #1
 2621              	.LVL228:
 360:../../libDaisy/src/hid/disp/display.h ****                     d4 = (t_sxny - t_synx < 0 && t_exny - t_eynx > 0);
 2622              		.loc 12 360 46 discriminator 1 view .LVU609
 2623 0404 0027     		movle	r7, #0
 2624 0406 9BE7     		b	.L147
 2625              	.LVL229:
 2626              	.L206:
 359:../../libDaisy/src/hid/disp/display.h ****                     d3 = (t_sxny - t_syx < 0 && t_exny - t_eyx > 0);
 2627              		.loc 12 359 54 discriminator 1 view .LVU610
 2628 0408 36EE666A 		vsub.f32	s12, s12, s13
 2629              	.LVL230:
 359:../../libDaisy/src/hid/disp/display.h ****                     d3 = (t_sxny - t_syx < 0 && t_exny - t_eyx > 0);
ARM GAS  /var/folders/hl/qgbwny5j0fd895c2c41bk3tw0000gp/T//ccFqANMK.s 			page 86


 2630              		.loc 12 359 45 discriminator 1 view .LVU611
 2631 040c B5EEC06A 		vcmpe.f32	s12, #0
 2632 0410 F1EE10FA 		vmrs	APSR_nzcv, FPSCR
 2633 0414 CCBF     		ite	gt
 2634 0416 0121     		movgt	r1, #1
 2635 0418 0021     		movle	r1, #0
 2636 041a 89E7     		b	.L145
 2637              	.LVL231:
 2638              	.L205:
 358:../../libDaisy/src/hid/disp/display.h ****                     d2 = (t_sxy - t_syx < 0 && t_exy - t_eyx > 0);
 2639              		.loc 12 358 55 discriminator 1 view .LVU612
 2640 041c 76EE473A 		vsub.f32	s7, s12, s14
 358:../../libDaisy/src/hid/disp/display.h ****                     d2 = (t_sxy - t_syx < 0 && t_exy - t_eyx > 0);
 2641              		.loc 12 358 46 discriminator 1 view .LVU613
 2642 0420 F5EEC03A 		vcmpe.f32	s7, #0
 2643 0424 F1EE10FA 		vmrs	APSR_nzcv, FPSCR
 2644 0428 CCBF     		ite	gt
 2645 042a 0122     		movgt	r2, #1
 2646 042c 0022     		movle	r2, #0
 2647 042e 77E7     		b	.L143
 2648              	.LVL232:
 2649              	.L168:
 354:../../libDaisy/src/hid/disp/display.h ****                 }
 2650              		.loc 12 354 47 view .LVU614
 2651 0430 0124     		movs	r4, #1
 2652              	.LVL233:
 365:../../libDaisy/src/hid/disp/display.h ****                 ((ChildType*)(this))
 2653              		.loc 12 365 13 view .LVU615
 2654 0432 002A     		cmp	r2, #0
 2655 0434 3FF4C1AE 		beq	.L150
 365:../../libDaisy/src/hid/disp/display.h ****                 ((ChildType*)(this))
 2656              		.loc 12 365 13 view .LVU616
 2657 0438 49E7     		b	.L199
 2658              	.LVL234:
 2659              	.L165:
 352:../../libDaisy/src/hid/disp/display.h ****                     d3 = (t_sxny - t_syx < 0 || t_exny - t_eyx > 0);
 2660              		.loc 12 352 33 view .LVU617
 2661 043a 74EEC54A 		vsub.f32	s9, s9, s10
 2662              	.LVL235:
 351:../../libDaisy/src/hid/disp/display.h ****                     d2 = (t_sxy - t_syx < 0 || t_exy - t_eyx > 0);
 2663              		.loc 12 351 46 view .LVU618
 2664 043e 0122     		movs	r2, #1
 2665              	.LVL236:
 352:../../libDaisy/src/hid/disp/display.h ****                     d3 = (t_sxny - t_syx < 0 || t_exny - t_eyx > 0);
 2666              		.loc 12 352 45 view .LVU619
 2667 0440 F5EEC04A 		vcmpe.f32	s9, #0
 2668 0444 F1EE10FA 		vmrs	APSR_nzcv, FPSCR
 2669 0448 7FF589AE 		bpl	.L208
 2670              	.L166:
 353:../../libDaisy/src/hid/disp/display.h ****                     d4 = (t_sxny - t_synx < 0 || t_exny - t_eynx > 0);
 2671              		.loc 12 353 34 view .LVU620
 2672 044c 35EEC55A 		vsub.f32	s10, s11, s10
 2673              	.LVL237:
 352:../../libDaisy/src/hid/disp/display.h ****                     d3 = (t_sxny - t_syx < 0 || t_exny - t_eyx > 0);
 2674              		.loc 12 352 45 view .LVU621
 2675 0450 0121     		movs	r1, #1
 2676              	.LVL238:
ARM GAS  /var/folders/hl/qgbwny5j0fd895c2c41bk3tw0000gp/T//ccFqANMK.s 			page 87


 353:../../libDaisy/src/hid/disp/display.h ****                     d4 = (t_sxny - t_synx < 0 || t_exny - t_eynx > 0);
 2677              		.loc 12 353 46 view .LVU622
 2678 0452 B5EEC05A 		vcmpe.f32	s10, #0
 2679 0456 F1EE10FA 		vmrs	APSR_nzcv, FPSCR
 2680 045a 7FF591AE 		bpl	.L209
 2681              	.LVL239:
 2682              	.L167:
 353:../../libDaisy/src/hid/disp/display.h ****                     d4 = (t_sxny - t_synx < 0 || t_exny - t_eynx > 0);
 2683              		.loc 12 353 46 view .LVU623
 2684 045e 0127     		movs	r7, #1
 2685              	.LVL240:
 353:../../libDaisy/src/hid/disp/display.h ****                     d4 = (t_sxny - t_synx < 0 || t_exny - t_eynx > 0);
 2686              		.loc 12 353 46 view .LVU624
 2687 0460 97E6     		b	.L142
 2688              	.LVL241:
 2689              	.L134:
 308:../../libDaisy/src/hid/disp/display.h ****             sweep = -sweep;
 2690              		.loc 12 308 25 view .LVU625
 2691 0462 DDE91223 		ldrd	r2, r3, [sp, #72]
 2692              	.LVL242:
 308:../../libDaisy/src/hid/disp/display.h ****             sweep = -sweep;
 2693              		.loc 12 308 25 view .LVU626
 2694 0466 1344     		add	r3, r3, r2
 2695              	.LVL243:
 308:../../libDaisy/src/hid/disp/display.h ****             sweep = -sweep;
 2696              		.loc 12 308 25 view .LVU627
 2697 0468 06EE102A 		vmov	s12, r2	@ int
 2698 046c 1293     		str	r3, [sp, #72]
 2699 046e 139B     		ldr	r3, [sp, #76]
 2700              	.LVL244:
 308:../../libDaisy/src/hid/disp/display.h ****             sweep = -sweep;
 2701              		.loc 12 308 25 view .LVU628
 2702 0470 5B42     		rsbs	r3, r3, #0
 2703 0472 1393     		str	r3, [sp, #76]
 2704              	.LVL245:
 308:../../libDaisy/src/hid/disp/display.h ****             sweep = -sweep;
 2705              		.loc 12 308 25 view .LVU629
 2706 0474 D8E5     		b	.L135
 2707              		.cfi_endproc
 2708              	.LFE2614:
 2710 0476 00BF     		.section	.text._ZN5daisy25OneBitGraphicsDisplayImplINS_11OledDisplayINS_13SSD130xDriverILj128ELj64
 2711              		.align	1
 2712              		.p2align 2,,3
 2713              		.weak	_ZN5daisy25OneBitGraphicsDisplayImplINS_11OledDisplayINS_13SSD130xDriverILj128ELj64ENS_24SSD
 2714              		.syntax unified
 2715              		.thumb
 2716              		.thumb_func
 2717              		.fpu fpv5-d16
 2719              	_ZN5daisy25OneBitGraphicsDisplayImplINS_11OledDisplayINS_13SSD130xDriverILj128ELj64ENS_24SSD130x4Wi
 2720              	.LVL246:
 2721              	.LFB2615:
 459:../../libDaisy/src/hid/disp/display.h **** 
 460:../../libDaisy/src/hid/disp/display.h ****     Rectangle WriteStringAligned(const char*    str,
 2722              		.loc 12 460 15 is_stmt 1 view -0
 2723              		.cfi_startproc
 2724              		@ args = 12, pretend = 0, frame = 32
 2725              		@ frame_needed = 0, uses_anonymous_args = 0
ARM GAS  /var/folders/hl/qgbwny5j0fd895c2c41bk3tw0000gp/T//ccFqANMK.s 			page 88


 2726              		.loc 12 460 15 is_stmt 0 view .LVU631
 2727 0000 2DE9F04F 		push	{r4, r5, r6, r7, r8, r9, r10, fp, lr}
 2728              		.cfi_def_cfa_offset 36
 2729              		.cfi_offset 4, -36
 2730              		.cfi_offset 5, -32
 2731              		.cfi_offset 6, -28
 2732              		.cfi_offset 7, -24
 2733              		.cfi_offset 8, -20
 2734              		.cfi_offset 9, -16
 2735              		.cfi_offset 10, -12
 2736              		.cfi_offset 11, -8
 2737              		.cfi_offset 14, -4
 2738 0004 89B0     		sub	sp, sp, #36
 2739              		.cfi_def_cfa_offset 72
 2740              		.loc 12 460 15 view .LVU632
 2741 0006 1D46     		mov	r5, r3
 2742 0008 8846     		mov	r8, r1
 2743              	.LVL247:
 2744              	.LBB867:
 2745              	.LBI867:
 461:../../libDaisy/src/hid/disp/display.h ****                                  const FontDef& font,
 462:../../libDaisy/src/hid/disp/display.h ****                                  Rectangle      boundingBox,
 463:../../libDaisy/src/hid/disp/display.h ****                                  Alignment      alignment,
 464:../../libDaisy/src/hid/disp/display.h ****                                  bool           on) override
 465:../../libDaisy/src/hid/disp/display.h ****     {
 466:../../libDaisy/src/hid/disp/display.h ****         const auto alignedRect
 467:../../libDaisy/src/hid/disp/display.h ****             = GetTextRect(str, font).AlignedWithin(boundingBox, alignment);
 468:../../libDaisy/src/hid/disp/display.h ****         SetCursor(alignedRect.GetX(), alignedRect.GetY());
 469:../../libDaisy/src/hid/disp/display.h ****         ((ChildType*)(this))->ChildType::WriteString(str, font, on);
 470:../../libDaisy/src/hid/disp/display.h ****         return alignedRect;
 471:../../libDaisy/src/hid/disp/display.h ****     }
 472:../../libDaisy/src/hid/disp/display.h **** 
 473:../../libDaisy/src/hid/disp/display.h ****   private:
 474:../../libDaisy/src/hid/disp/display.h ****     uint32_t strlen(const char* string)
 475:../../libDaisy/src/hid/disp/display.h ****     {
 476:../../libDaisy/src/hid/disp/display.h ****         uint32_t result = 0;
 477:../../libDaisy/src/hid/disp/display.h ****         while(*string++ != '\0')
 478:../../libDaisy/src/hid/disp/display.h ****             result++;
 479:../../libDaisy/src/hid/disp/display.h ****         return result;
 480:../../libDaisy/src/hid/disp/display.h ****     }
 481:../../libDaisy/src/hid/disp/display.h **** 
 482:../../libDaisy/src/hid/disp/display.h ****     Rectangle GetTextRect(const char* text, const FontDef& font)
 2746              		.loc 12 482 15 is_stmt 1 view .LVU633
 2747              	.LBB868:
 2748              	.LBB869:
 2749              	.LBI869:
 474:../../libDaisy/src/hid/disp/display.h ****     {
 2750              		.loc 12 474 14 view .LVU634
 2751              	.LBB870:
 477:../../libDaisy/src/hid/disp/display.h ****             result++;
 2752              		.loc 12 477 25 view .LVU635
 2753              	.LBE870:
 2754              	.LBE869:
 2755              	.LBE868:
 2756              	.LBE867:
 460:../../libDaisy/src/hid/disp/display.h ****                                  const FontDef& font,
 2757              		.loc 12 460 15 is_stmt 0 view .LVU636
ARM GAS  /var/folders/hl/qgbwny5j0fd895c2c41bk3tw0000gp/T//ccFqANMK.s 			page 89


 2758 000a 0690     		str	r0, [sp, #24]
 2759              	.LBB885:
 2760              	.LBB881:
 2761              	.LBB874:
 2762              	.LBB871:
 477:../../libDaisy/src/hid/disp/display.h ****             result++;
 2763              		.loc 12 477 25 view .LVU637
 2764 000c 1046     		mov	r0, r2
 2765              	.LVL248:
 477:../../libDaisy/src/hid/disp/display.h ****             result++;
 2766              		.loc 12 477 25 view .LVU638
 2767              	.LBE871:
 2768              	.LBE874:
 2769              	.LBE881:
 2770              	.LBE885:
 460:../../libDaisy/src/hid/disp/display.h ****                                  const FontDef& font,
 2771              		.loc 12 460 15 view .LVU639
 2772 000e 129C     		ldr	r4, [sp, #72]
 2773              	.LBB886:
 2774              	.LBB882:
 2775              	.LBB875:
 2776              	.LBB872:
 477:../../libDaisy/src/hid/disp/display.h ****             result++;
 2777              		.loc 12 477 25 view .LVU640
 2778 0010 10F8013B 		ldrb	r3, [r0], #1	@ zero_extendqisi2
 2779              	.LVL249:
 477:../../libDaisy/src/hid/disp/display.h ****             result++;
 2780              		.loc 12 477 25 view .LVU641
 2781              	.LBE872:
 2782              	.LBE875:
 2783              	.LBE882:
 2784              	.LBE886:
 460:../../libDaisy/src/hid/disp/display.h ****                                  const FontDef& font,
 2785              		.loc 12 460 15 view .LVU642
 2786 0014 1399     		ldr	r1, [sp, #76]
 2787              	.LVL250:
 460:../../libDaisy/src/hid/disp/display.h ****                                  const FontDef& font,
 2788              		.loc 12 460 15 view .LVU643
 2789 0016 9DF85060 		ldrb	r6, [sp, #80]	@ zero_extendqisi2
 2790 001a 0092     		str	r2, [sp]
 2791              	.LBB887:
 2792              	.LBB883:
 2793              	.LBB876:
 2794              	.LBB873:
 477:../../libDaisy/src/hid/disp/display.h ****             result++;
 2795              		.loc 12 477 25 view .LVU644
 2796 001c 33B1     		cbz	r3, .L213
 476:../../libDaisy/src/hid/disp/display.h ****         while(*string++ != '\0')
 2797              		.loc 12 476 18 view .LVU645
 2798 001e 0022     		movs	r2, #0
 2799              	.LVL251:
 2800              	.L214:
 477:../../libDaisy/src/hid/disp/display.h ****             result++;
 2801              		.loc 12 477 25 view .LVU646
 2802 0020 10F8013B 		ldrb	r3, [r0], #1	@ zero_extendqisi2
 2803              	.LVL252:
 478:../../libDaisy/src/hid/disp/display.h ****         return result;
ARM GAS  /var/folders/hl/qgbwny5j0fd895c2c41bk3tw0000gp/T//ccFqANMK.s 			page 90


 2804              		.loc 12 478 13 view .LVU647
 2805 0024 0132     		adds	r2, r2, #1
 2806              	.LVL253:
 477:../../libDaisy/src/hid/disp/display.h ****             result++;
 2807              		.loc 12 477 25 is_stmt 1 view .LVU648
 2808 0026 002B     		cmp	r3, #0
 2809 0028 FAD1     		bne	.L214
 2810              	.LBE873:
 2811              	.LBE876:
 483:../../libDaisy/src/hid/disp/display.h ****     {
 484:../../libDaisy/src/hid/disp/display.h ****         const auto numChars = strlen(text);
 485:../../libDaisy/src/hid/disp/display.h ****         return {int16_t(numChars * font.FontWidth), font.FontHeight};
 2812              		.loc 12 485 68 is_stmt 0 view .LVU649
 2813 002a 93B2     		uxth	r3, r2
 2814              	.LVL254:
 2815              	.L213:
 2816              		.loc 12 485 68 view .LVU650
 2817 002c 2A78     		ldrb	r2, [r5]	@ zero_extendqisi2
 2818              		.loc 12 485 58 view .LVU651
 2819 002e 6878     		ldrb	r0, [r5, #1]	@ zero_extendqisi2
 2820              		.loc 12 485 68 view .LVU652
 2821 0030 12FB03F3 		smulbb	r3, r2, r3
 2822 0034 02B2     		sxth	r2, r0
 2823              	.LVL255:
 2824              	.LBB877:
 2825              	.LBI877:
 2826              		.file 14 "../../libDaisy/src/hid/disp/graphics_common.h"
   1:../../libDaisy/src/hid/disp/graphics_common.h **** #pragma once
   2:../../libDaisy/src/hid/disp/graphics_common.h **** 
   3:../../libDaisy/src/hid/disp/graphics_common.h **** #include <cstdint>
   4:../../libDaisy/src/hid/disp/graphics_common.h **** 
   5:../../libDaisy/src/hid/disp/graphics_common.h **** namespace daisy
   6:../../libDaisy/src/hid/disp/graphics_common.h **** {
   7:../../libDaisy/src/hid/disp/graphics_common.h **** /** Justifications */
   8:../../libDaisy/src/hid/disp/graphics_common.h **** enum class Alignment
   9:../../libDaisy/src/hid/disp/graphics_common.h **** {
  10:../../libDaisy/src/hid/disp/graphics_common.h ****     centered,
  11:../../libDaisy/src/hid/disp/graphics_common.h ****     topLeft,
  12:../../libDaisy/src/hid/disp/graphics_common.h ****     topCentered,
  13:../../libDaisy/src/hid/disp/graphics_common.h ****     topRight,
  14:../../libDaisy/src/hid/disp/graphics_common.h ****     bottomLeft,
  15:../../libDaisy/src/hid/disp/graphics_common.h ****     bottomCentered,
  16:../../libDaisy/src/hid/disp/graphics_common.h ****     bottomRight,
  17:../../libDaisy/src/hid/disp/graphics_common.h ****     centeredLeft,
  18:../../libDaisy/src/hid/disp/graphics_common.h ****     centeredRight
  19:../../libDaisy/src/hid/disp/graphics_common.h **** };
  20:../../libDaisy/src/hid/disp/graphics_common.h **** 
  21:../../libDaisy/src/hid/disp/graphics_common.h **** class Rectangle
  22:../../libDaisy/src/hid/disp/graphics_common.h **** {
  23:../../libDaisy/src/hid/disp/graphics_common.h ****   public:
  24:../../libDaisy/src/hid/disp/graphics_common.h ****     Rectangle() : x_(0), y_(0), width_(0), height_(0) {}
  25:../../libDaisy/src/hid/disp/graphics_common.h **** 
  26:../../libDaisy/src/hid/disp/graphics_common.h ****     Rectangle(int16_t width, int16_t height)
 2827              		.loc 14 26 5 is_stmt 1 view .LVU653
 2828              	.LBB878:
 2829              	.LBI878:
  27:../../libDaisy/src/hid/disp/graphics_common.h ****     : x_(0), y_(0), width_(max(0, width)), height_(max(0, height))
ARM GAS  /var/folders/hl/qgbwny5j0fd895c2c41bk3tw0000gp/T//ccFqANMK.s 			page 91


  28:../../libDaisy/src/hid/disp/graphics_common.h ****     {
  29:../../libDaisy/src/hid/disp/graphics_common.h ****     }
  30:../../libDaisy/src/hid/disp/graphics_common.h **** 
  31:../../libDaisy/src/hid/disp/graphics_common.h ****     Rectangle(int16_t x, int16_t y, int16_t width, int16_t height)
  32:../../libDaisy/src/hid/disp/graphics_common.h ****     : x_(x), y_(y), width_(max(0, width)), height_(max(0, height))
  33:../../libDaisy/src/hid/disp/graphics_common.h ****     {
  34:../../libDaisy/src/hid/disp/graphics_common.h ****     }
  35:../../libDaisy/src/hid/disp/graphics_common.h **** 
  36:../../libDaisy/src/hid/disp/graphics_common.h ****     Rectangle(const Rectangle& other) { *this = other; }
  37:../../libDaisy/src/hid/disp/graphics_common.h **** 
  38:../../libDaisy/src/hid/disp/graphics_common.h ****     Rectangle& operator=(const Rectangle& other)
  39:../../libDaisy/src/hid/disp/graphics_common.h ****     {
  40:../../libDaisy/src/hid/disp/graphics_common.h ****         x_      = other.x_;
  41:../../libDaisy/src/hid/disp/graphics_common.h ****         y_      = other.y_;
  42:../../libDaisy/src/hid/disp/graphics_common.h ****         width_  = other.width_;
  43:../../libDaisy/src/hid/disp/graphics_common.h ****         height_ = other.height_;
  44:../../libDaisy/src/hid/disp/graphics_common.h ****         return *this;
  45:../../libDaisy/src/hid/disp/graphics_common.h ****     }
  46:../../libDaisy/src/hid/disp/graphics_common.h **** 
  47:../../libDaisy/src/hid/disp/graphics_common.h ****     bool operator==(const Rectangle& other) const
  48:../../libDaisy/src/hid/disp/graphics_common.h ****     {
  49:../../libDaisy/src/hid/disp/graphics_common.h ****         return (x_ == other.x_) && (y_ == other.y_) && (width_ == other.width_)
  50:../../libDaisy/src/hid/disp/graphics_common.h ****                && (height_ == other.height_);
  51:../../libDaisy/src/hid/disp/graphics_common.h ****     }
  52:../../libDaisy/src/hid/disp/graphics_common.h ****     bool operator!=(const Rectangle& other) const { return !(*this == other); }
  53:../../libDaisy/src/hid/disp/graphics_common.h **** 
  54:../../libDaisy/src/hid/disp/graphics_common.h ****     bool IsEmpty() const { return (width_ <= 0) || (height_ <= 0); }
  55:../../libDaisy/src/hid/disp/graphics_common.h **** 
  56:../../libDaisy/src/hid/disp/graphics_common.h ****     int16_t GetX() const { return x_; }
  57:../../libDaisy/src/hid/disp/graphics_common.h ****     int16_t GetY() const { return y_; }
  58:../../libDaisy/src/hid/disp/graphics_common.h ****     int16_t GetWidth() const { return width_; }
  59:../../libDaisy/src/hid/disp/graphics_common.h ****     int16_t GetHeight() const { return height_; }
  60:../../libDaisy/src/hid/disp/graphics_common.h ****     int16_t GetRight() const { return x_ + width_; }
  61:../../libDaisy/src/hid/disp/graphics_common.h ****     int16_t GetBottom() const { return y_ + height_; }
  62:../../libDaisy/src/hid/disp/graphics_common.h ****     int16_t GetCenterX() const { return x_ + width_ / 2; }
  63:../../libDaisy/src/hid/disp/graphics_common.h ****     int16_t GetCenterY() const { return y_ + height_ / 2; }
  64:../../libDaisy/src/hid/disp/graphics_common.h **** 
  65:../../libDaisy/src/hid/disp/graphics_common.h ****     Rectangle WithX(int16_t x) const { return {x, y_, width_, height_}; }
  66:../../libDaisy/src/hid/disp/graphics_common.h ****     Rectangle WithY(int16_t y) const { return {x_, y, width_, height_}; }
  67:../../libDaisy/src/hid/disp/graphics_common.h ****     Rectangle WithWidth(int16_t width) const
  68:../../libDaisy/src/hid/disp/graphics_common.h ****     {
  69:../../libDaisy/src/hid/disp/graphics_common.h ****         return {x_, y_, width, height_};
  70:../../libDaisy/src/hid/disp/graphics_common.h ****     }
  71:../../libDaisy/src/hid/disp/graphics_common.h ****     Rectangle WithHeight(int16_t height) const
  72:../../libDaisy/src/hid/disp/graphics_common.h ****     {
  73:../../libDaisy/src/hid/disp/graphics_common.h ****         return {x_, y_, width_, height};
  74:../../libDaisy/src/hid/disp/graphics_common.h ****     }
  75:../../libDaisy/src/hid/disp/graphics_common.h ****     Rectangle WithSize(int16_t width, int16_t height) const
  76:../../libDaisy/src/hid/disp/graphics_common.h ****     {
  77:../../libDaisy/src/hid/disp/graphics_common.h ****         return {x_, y_, width, height};
  78:../../libDaisy/src/hid/disp/graphics_common.h ****     }
  79:../../libDaisy/src/hid/disp/graphics_common.h ****     Rectangle WithWidthKeepingCenter(int16_t width) const
  80:../../libDaisy/src/hid/disp/graphics_common.h ****     {
  81:../../libDaisy/src/hid/disp/graphics_common.h ****         return Rectangle(x_, y_, width, height_)
  82:../../libDaisy/src/hid/disp/graphics_common.h ****             .WithCenter(GetCenterX(), GetCenterY());
  83:../../libDaisy/src/hid/disp/graphics_common.h ****     }
  84:../../libDaisy/src/hid/disp/graphics_common.h ****     Rectangle WithHeightKeepingCenter(int16_t height) const
ARM GAS  /var/folders/hl/qgbwny5j0fd895c2c41bk3tw0000gp/T//ccFqANMK.s 			page 92


  85:../../libDaisy/src/hid/disp/graphics_common.h ****     {
  86:../../libDaisy/src/hid/disp/graphics_common.h ****         return Rectangle(x_, y_, width_, height)
  87:../../libDaisy/src/hid/disp/graphics_common.h ****             .WithCenter(GetCenterX(), GetCenterY());
  88:../../libDaisy/src/hid/disp/graphics_common.h ****     }
  89:../../libDaisy/src/hid/disp/graphics_common.h ****     Rectangle WithSizeKeepingCenter(int16_t width, int16_t height) const
  90:../../libDaisy/src/hid/disp/graphics_common.h ****     {
  91:../../libDaisy/src/hid/disp/graphics_common.h ****         return Rectangle(x_, y_, width, height)
  92:../../libDaisy/src/hid/disp/graphics_common.h ****             .WithCenter(GetCenterX(), GetCenterY());
  93:../../libDaisy/src/hid/disp/graphics_common.h ****     }
  94:../../libDaisy/src/hid/disp/graphics_common.h **** 
  95:../../libDaisy/src/hid/disp/graphics_common.h ****     Rectangle Reduced(int16_t sizeToReduce) const
  96:../../libDaisy/src/hid/disp/graphics_common.h ****     {
  97:../../libDaisy/src/hid/disp/graphics_common.h ****         return {int16_t(x_ + sizeToReduce),
  98:../../libDaisy/src/hid/disp/graphics_common.h ****                 int16_t(y_ + sizeToReduce),
  99:../../libDaisy/src/hid/disp/graphics_common.h ****                 int16_t(width_ - 2 * sizeToReduce),
 100:../../libDaisy/src/hid/disp/graphics_common.h ****                 int16_t(height_ - 2 * sizeToReduce)};
 101:../../libDaisy/src/hid/disp/graphics_common.h ****     }
 102:../../libDaisy/src/hid/disp/graphics_common.h ****     Rectangle Reduced(int16_t xToReduce, int16_t yToReduce) const
 103:../../libDaisy/src/hid/disp/graphics_common.h ****     {
 104:../../libDaisy/src/hid/disp/graphics_common.h ****         return {int16_t(x_ + xToReduce),
 105:../../libDaisy/src/hid/disp/graphics_common.h ****                 int16_t(y_ + yToReduce),
 106:../../libDaisy/src/hid/disp/graphics_common.h ****                 int16_t(width_ - 2 * xToReduce),
 107:../../libDaisy/src/hid/disp/graphics_common.h ****                 int16_t(height_ - 2 * yToReduce)};
 108:../../libDaisy/src/hid/disp/graphics_common.h ****     }
 109:../../libDaisy/src/hid/disp/graphics_common.h **** 
 110:../../libDaisy/src/hid/disp/graphics_common.h ****     Rectangle Translated(int16_t x, int16_t y) const
 111:../../libDaisy/src/hid/disp/graphics_common.h ****     {
 112:../../libDaisy/src/hid/disp/graphics_common.h ****         return {int16_t(x_ + x), int16_t(y_ + y), width_, height_};
 113:../../libDaisy/src/hid/disp/graphics_common.h ****     }
 114:../../libDaisy/src/hid/disp/graphics_common.h **** 
 115:../../libDaisy/src/hid/disp/graphics_common.h ****     Rectangle WithLeft(int16_t left) const
 116:../../libDaisy/src/hid/disp/graphics_common.h ****     {
 117:../../libDaisy/src/hid/disp/graphics_common.h ****         const auto newWidth = int16_t((x_ - left) + width_);
 118:../../libDaisy/src/hid/disp/graphics_common.h ****         return {left, y_, newWidth, height_};
 119:../../libDaisy/src/hid/disp/graphics_common.h ****     }
 120:../../libDaisy/src/hid/disp/graphics_common.h **** 
 121:../../libDaisy/src/hid/disp/graphics_common.h ****     Rectangle WithRight(int16_t right) const
 122:../../libDaisy/src/hid/disp/graphics_common.h ****     {
 123:../../libDaisy/src/hid/disp/graphics_common.h ****         const auto newWidth = int16_t(right - x_);
 124:../../libDaisy/src/hid/disp/graphics_common.h ****         return {x_, y_, newWidth, height_};
 125:../../libDaisy/src/hid/disp/graphics_common.h ****     }
 126:../../libDaisy/src/hid/disp/graphics_common.h **** 
 127:../../libDaisy/src/hid/disp/graphics_common.h ****     Rectangle WithTop(int16_t top) const
 128:../../libDaisy/src/hid/disp/graphics_common.h ****     {
 129:../../libDaisy/src/hid/disp/graphics_common.h ****         const auto newHeight = int16_t((y_ - top) + height_);
 130:../../libDaisy/src/hid/disp/graphics_common.h ****         return {x_, top, width_, newHeight};
 131:../../libDaisy/src/hid/disp/graphics_common.h ****     }
 132:../../libDaisy/src/hid/disp/graphics_common.h **** 
 133:../../libDaisy/src/hid/disp/graphics_common.h ****     Rectangle WithBottom(int16_t bottom) const
 134:../../libDaisy/src/hid/disp/graphics_common.h ****     {
 135:../../libDaisy/src/hid/disp/graphics_common.h ****         const auto newHeight = int16_t(bottom - y_);
 136:../../libDaisy/src/hid/disp/graphics_common.h ****         return {x_, y_, width_, newHeight};
 137:../../libDaisy/src/hid/disp/graphics_common.h ****     }
 138:../../libDaisy/src/hid/disp/graphics_common.h **** 
 139:../../libDaisy/src/hid/disp/graphics_common.h ****     Rectangle WithTrimmedLeft(int16_t pxToTrim) const
 140:../../libDaisy/src/hid/disp/graphics_common.h ****     {
 141:../../libDaisy/src/hid/disp/graphics_common.h ****         return {
ARM GAS  /var/folders/hl/qgbwny5j0fd895c2c41bk3tw0000gp/T//ccFqANMK.s 			page 93


 142:../../libDaisy/src/hid/disp/graphics_common.h ****             int16_t(x_ + pxToTrim), y_, int16_t(width_ - pxToTrim), height_};
 143:../../libDaisy/src/hid/disp/graphics_common.h ****     }
 144:../../libDaisy/src/hid/disp/graphics_common.h **** 
 145:../../libDaisy/src/hid/disp/graphics_common.h ****     Rectangle WithTrimmedRight(int16_t pxToTrim) const
 146:../../libDaisy/src/hid/disp/graphics_common.h ****     {
 147:../../libDaisy/src/hid/disp/graphics_common.h ****         return {x_, y_, int16_t(width_ - pxToTrim), height_};
 148:../../libDaisy/src/hid/disp/graphics_common.h ****     }
 149:../../libDaisy/src/hid/disp/graphics_common.h **** 
 150:../../libDaisy/src/hid/disp/graphics_common.h ****     Rectangle WithTrimmedTop(int16_t pxToTrim) const
 151:../../libDaisy/src/hid/disp/graphics_common.h ****     {
 152:../../libDaisy/src/hid/disp/graphics_common.h ****         return {
 153:../../libDaisy/src/hid/disp/graphics_common.h ****             x_, int16_t(y_ + pxToTrim), width_, int16_t(height_ - pxToTrim)};
 154:../../libDaisy/src/hid/disp/graphics_common.h ****     }
 155:../../libDaisy/src/hid/disp/graphics_common.h **** 
 156:../../libDaisy/src/hid/disp/graphics_common.h ****     Rectangle WithTrimmedBottom(int16_t pxToTrim) const
 157:../../libDaisy/src/hid/disp/graphics_common.h ****     {
 158:../../libDaisy/src/hid/disp/graphics_common.h ****         return {x_, y_, width_, int16_t(height_ - pxToTrim)};
 159:../../libDaisy/src/hid/disp/graphics_common.h ****     }
 160:../../libDaisy/src/hid/disp/graphics_common.h **** 
 161:../../libDaisy/src/hid/disp/graphics_common.h ****     Rectangle WithCenterX(int16_t centerX) const
 162:../../libDaisy/src/hid/disp/graphics_common.h ****     {
 163:../../libDaisy/src/hid/disp/graphics_common.h ****         return {int16_t(x_ + centerX - GetCenterX()), y_, width_, height_};
 164:../../libDaisy/src/hid/disp/graphics_common.h ****     }
 165:../../libDaisy/src/hid/disp/graphics_common.h **** 
 166:../../libDaisy/src/hid/disp/graphics_common.h ****     Rectangle WithCenterY(int16_t centerY) const
 167:../../libDaisy/src/hid/disp/graphics_common.h ****     {
 168:../../libDaisy/src/hid/disp/graphics_common.h ****         return {x_, int16_t(y_ + centerY - GetCenterY()), width_, height_};
 169:../../libDaisy/src/hid/disp/graphics_common.h ****     }
 170:../../libDaisy/src/hid/disp/graphics_common.h **** 
 171:../../libDaisy/src/hid/disp/graphics_common.h ****     Rectangle WithCenter(int16_t centerX, int16_t centerY) const
 172:../../libDaisy/src/hid/disp/graphics_common.h ****     {
 173:../../libDaisy/src/hid/disp/graphics_common.h ****         return {int16_t(x_ + centerX - GetCenterX()),
 174:../../libDaisy/src/hid/disp/graphics_common.h ****                 int16_t(y_ + centerY - GetCenterY()),
 175:../../libDaisy/src/hid/disp/graphics_common.h ****                 width_,
 176:../../libDaisy/src/hid/disp/graphics_common.h ****                 height_};
 177:../../libDaisy/src/hid/disp/graphics_common.h ****     }
 178:../../libDaisy/src/hid/disp/graphics_common.h **** 
 179:../../libDaisy/src/hid/disp/graphics_common.h ****     Rectangle RemoveFromLeft(int16_t pxToRemove)
 180:../../libDaisy/src/hid/disp/graphics_common.h ****     {
 181:../../libDaisy/src/hid/disp/graphics_common.h ****         const auto result = this->WithWidth(min(pxToRemove, width_));
 182:../../libDaisy/src/hid/disp/graphics_common.h ****         x_ += min(pxToRemove, width_);
 183:../../libDaisy/src/hid/disp/graphics_common.h ****         width_ = max(int16_t(width_ - pxToRemove), 0);
 184:../../libDaisy/src/hid/disp/graphics_common.h ****         return result;
 185:../../libDaisy/src/hid/disp/graphics_common.h ****     }
 186:../../libDaisy/src/hid/disp/graphics_common.h **** 
 187:../../libDaisy/src/hid/disp/graphics_common.h ****     Rectangle RemoveFromRight(int16_t pxToRemove)
 188:../../libDaisy/src/hid/disp/graphics_common.h ****     {
 189:../../libDaisy/src/hid/disp/graphics_common.h ****         const auto canRemove = min(pxToRemove, width_);
 190:../../libDaisy/src/hid/disp/graphics_common.h ****         width_ -= canRemove;
 191:../../libDaisy/src/hid/disp/graphics_common.h ****         return {int16_t(x_ + width_), y_, canRemove, height_};
 192:../../libDaisy/src/hid/disp/graphics_common.h ****     }
 193:../../libDaisy/src/hid/disp/graphics_common.h **** 
 194:../../libDaisy/src/hid/disp/graphics_common.h ****     Rectangle RemoveFromTop(int16_t pxToRemove)
 195:../../libDaisy/src/hid/disp/graphics_common.h ****     {
 196:../../libDaisy/src/hid/disp/graphics_common.h ****         const auto result = this->WithHeight(min(pxToRemove, height_));
 197:../../libDaisy/src/hid/disp/graphics_common.h ****         y_ += min(pxToRemove, height_);
 198:../../libDaisy/src/hid/disp/graphics_common.h ****         height_ = max(height_ - pxToRemove, 0);
ARM GAS  /var/folders/hl/qgbwny5j0fd895c2c41bk3tw0000gp/T//ccFqANMK.s 			page 94


 199:../../libDaisy/src/hid/disp/graphics_common.h ****         return result;
 200:../../libDaisy/src/hid/disp/graphics_common.h ****     }
 201:../../libDaisy/src/hid/disp/graphics_common.h **** 
 202:../../libDaisy/src/hid/disp/graphics_common.h ****     Rectangle RemoveFromBottom(int16_t pxToRemove)
 203:../../libDaisy/src/hid/disp/graphics_common.h ****     {
 204:../../libDaisy/src/hid/disp/graphics_common.h ****         const auto canRemove = min(pxToRemove, height_);
 205:../../libDaisy/src/hid/disp/graphics_common.h ****         height_ -= canRemove;
 206:../../libDaisy/src/hid/disp/graphics_common.h ****         return {x_, int16_t(y_ + height_), width_, canRemove};
 207:../../libDaisy/src/hid/disp/graphics_common.h ****     }
 208:../../libDaisy/src/hid/disp/graphics_common.h **** 
 209:../../libDaisy/src/hid/disp/graphics_common.h ****     Rectangle AlignedWithin(const Rectangle& other, Alignment alignment) const
 210:../../libDaisy/src/hid/disp/graphics_common.h ****     {
 211:../../libDaisy/src/hid/disp/graphics_common.h ****         switch(alignment)
 212:../../libDaisy/src/hid/disp/graphics_common.h ****         {
 213:../../libDaisy/src/hid/disp/graphics_common.h ****             case Alignment::topLeft:
 214:../../libDaisy/src/hid/disp/graphics_common.h ****                 return {other.x_, other.y_, width_, height_};
 215:../../libDaisy/src/hid/disp/graphics_common.h ****             case Alignment::topRight:
 216:../../libDaisy/src/hid/disp/graphics_common.h ****                 return {int16_t(other.GetRight() - width_),
 217:../../libDaisy/src/hid/disp/graphics_common.h ****                         other.y_,
 218:../../libDaisy/src/hid/disp/graphics_common.h ****                         width_,
 219:../../libDaisy/src/hid/disp/graphics_common.h ****                         height_};
 220:../../libDaisy/src/hid/disp/graphics_common.h ****             case Alignment::topCentered:
 221:../../libDaisy/src/hid/disp/graphics_common.h ****                 return {int16_t(x_ + (other.GetCenterX() - GetCenterX())),
 222:../../libDaisy/src/hid/disp/graphics_common.h ****                         other.y_,
 223:../../libDaisy/src/hid/disp/graphics_common.h ****                         width_,
 224:../../libDaisy/src/hid/disp/graphics_common.h ****                         height_};
 225:../../libDaisy/src/hid/disp/graphics_common.h ****             case Alignment::bottomLeft:
 226:../../libDaisy/src/hid/disp/graphics_common.h ****                 return {other.x_,
 227:../../libDaisy/src/hid/disp/graphics_common.h ****                         int16_t(other.GetBottom() - height_),
 228:../../libDaisy/src/hid/disp/graphics_common.h ****                         width_,
 229:../../libDaisy/src/hid/disp/graphics_common.h ****                         height_};
 230:../../libDaisy/src/hid/disp/graphics_common.h ****             case Alignment::bottomRight:
 231:../../libDaisy/src/hid/disp/graphics_common.h ****                 return {int16_t(other.GetRight() - width_),
 232:../../libDaisy/src/hid/disp/graphics_common.h ****                         int16_t(other.GetBottom() - height_),
 233:../../libDaisy/src/hid/disp/graphics_common.h ****                         width_,
 234:../../libDaisy/src/hid/disp/graphics_common.h ****                         height_};
 235:../../libDaisy/src/hid/disp/graphics_common.h ****             case Alignment::bottomCentered:
 236:../../libDaisy/src/hid/disp/graphics_common.h ****                 return {int16_t(x_ + (other.GetCenterX() - GetCenterX())),
 237:../../libDaisy/src/hid/disp/graphics_common.h ****                         int16_t(other.GetBottom() - height_),
 238:../../libDaisy/src/hid/disp/graphics_common.h ****                         width_,
 239:../../libDaisy/src/hid/disp/graphics_common.h ****                         height_};
 240:../../libDaisy/src/hid/disp/graphics_common.h ****             case Alignment::centeredLeft:
 241:../../libDaisy/src/hid/disp/graphics_common.h ****                 return {other.x_,
 242:../../libDaisy/src/hid/disp/graphics_common.h ****                         int16_t(y_ + (other.GetCenterY() - GetCenterY())),
 243:../../libDaisy/src/hid/disp/graphics_common.h ****                         width_,
 244:../../libDaisy/src/hid/disp/graphics_common.h ****                         height_};
 245:../../libDaisy/src/hid/disp/graphics_common.h ****             case Alignment::centeredRight:
 246:../../libDaisy/src/hid/disp/graphics_common.h ****                 return {int16_t(other.GetRight() - width_),
 247:../../libDaisy/src/hid/disp/graphics_common.h ****                         int16_t(y_ + (other.GetCenterY() - GetCenterY())),
 248:../../libDaisy/src/hid/disp/graphics_common.h ****                         width_,
 249:../../libDaisy/src/hid/disp/graphics_common.h ****                         height_};
 250:../../libDaisy/src/hid/disp/graphics_common.h ****             case Alignment::centered:
 251:../../libDaisy/src/hid/disp/graphics_common.h ****                 return {int16_t(x_ + (other.GetCenterX() - GetCenterX())),
 252:../../libDaisy/src/hid/disp/graphics_common.h ****                         int16_t(y_ + (other.GetCenterY() - GetCenterY())),
 253:../../libDaisy/src/hid/disp/graphics_common.h ****                         width_,
 254:../../libDaisy/src/hid/disp/graphics_common.h ****                         height_};
 255:../../libDaisy/src/hid/disp/graphics_common.h ****             default: return {};
ARM GAS  /var/folders/hl/qgbwny5j0fd895c2c41bk3tw0000gp/T//ccFqANMK.s 			page 95


 256:../../libDaisy/src/hid/disp/graphics_common.h ****         }
 257:../../libDaisy/src/hid/disp/graphics_common.h ****     }
 258:../../libDaisy/src/hid/disp/graphics_common.h **** 
 259:../../libDaisy/src/hid/disp/graphics_common.h ****   private:
 260:../../libDaisy/src/hid/disp/graphics_common.h ****     int16_t x_, y_, width_, height_;
 261:../../libDaisy/src/hid/disp/graphics_common.h ****     int16_t max(int16_t a, int16_t b) { return (a > b) ? a : b; }
 2830              		.loc 14 261 13 view .LVU654
 2831              	.LBE878:
 2832              	.LBE877:
 2833              	.LBE883:
 2834              	.LBE887:
 2835              		.loc 14 261 41 view .LVU655
 2836              	.LBB888:
 2837              	.LBB884:
 2838              	.LBB880:
 2839              	.LBB879:
 2840              	.LBI879:
 2841              		.loc 14 261 13 view .LVU656
 2842              	.LBE879:
 2843              	.LBE880:
 2844              	.LBE884:
 2845              	.LBE888:
 2846              		.loc 14 261 41 view .LVU657
 2847              	.LBB889:
 2848              	.LBI889:
 209:../../libDaisy/src/hid/disp/graphics_common.h ****     {
 2849              		.loc 14 209 15 view .LVU658
 2850              	.LBB890:
 211:../../libDaisy/src/hid/disp/graphics_common.h ****         {
 2851              		.loc 14 211 9 view .LVU659
 2852 0036 1BB2     		sxth	r3, r3
 2853 0038 23EAE373 		bic	r3, r3, r3, asr #31
 2854 003c 0829     		cmp	r1, #8
 2855 003e 00F2A681 		bhi	.L215
 2856 0042 DFE811F0 		tbh	[pc, r1, lsl #1]
 2857              	.L217:
 2858 0046 0101     		.2byte	(.L225-.L217)/2
 2859 0048 1301     		.2byte	(.L224-.L217)/2
 2860 004a 1F01     		.2byte	(.L223-.L217)/2
 2861 004c 3301     		.2byte	(.L222-.L217)/2
 2862 004e 4101     		.2byte	(.L221-.L217)/2
 2863 0050 4F01     		.2byte	(.L220-.L217)/2
 2864 0052 6601     		.2byte	(.L219-.L217)/2
 2865 0054 6F01     		.2byte	(.L218-.L217)/2
 2866 0056 0900     		.2byte	(.L216-.L217)/2
 2867              		.p2align 1
 2868              	.L216:
 245:../../libDaisy/src/hid/disp/graphics_common.h ****                 return {int16_t(other.GetRight() - width_),
 2869              		.loc 14 245 13 view .LVU660
 246:../../libDaisy/src/hid/disp/graphics_common.h ****                         int16_t(y_ + (other.GetCenterY() - GetCenterY())),
 2870              		.loc 14 246 17 view .LVU661
 2871              	.LVL256:
 2872              	.LBB891:
 2873              	.LBI891:
  60:../../libDaisy/src/hid/disp/graphics_common.h ****     int16_t GetBottom() const { return y_ + height_; }
 2874              		.loc 14 60 13 view .LVU662
 2875              	.LBB892:
ARM GAS  /var/folders/hl/qgbwny5j0fd895c2c41bk3tw0000gp/T//ccFqANMK.s 			page 96


  60:../../libDaisy/src/hid/disp/graphics_common.h ****     int16_t GetBottom() const { return y_ + height_; }
 2876              		.loc 14 60 32 view .LVU663
  60:../../libDaisy/src/hid/disp/graphics_common.h ****     int16_t GetBottom() const { return y_ + height_; }
 2877              		.loc 14 60 42 is_stmt 0 view .LVU664
 2878 0058 A188     		ldrh	r1, [r4, #4]
 2879              	.LVL257:
  60:../../libDaisy/src/hid/disp/graphics_common.h ****     int16_t GetBottom() const { return y_ + height_; }
 2880              		.loc 14 60 42 view .LVU665
 2881 005a 2788     		ldrh	r7, [r4]
 2882 005c 0F44     		add	r7, r7, r1
 2883              	.LBE892:
 2884              	.LBE891:
 2885              	.LBB893:
 2886              	.LBB894:
  63:../../libDaisy/src/hid/disp/graphics_common.h **** 
 2887              		.loc 14 63 54 view .LVU666
 2888 005e B4F90610 		ldrsh	r1, [r4, #6]
 2889              	.LBE894:
 2890              	.LBE893:
 246:../../libDaisy/src/hid/disp/graphics_common.h ****                         int16_t(y_ + (other.GetCenterY() - GetCenterY())),
 2891              		.loc 14 246 50 view .LVU667
 2892 0062 FF1A     		subs	r7, r7, r3
 2893              	.LBB898:
 2894              	.LBB895:
  63:../../libDaisy/src/hid/disp/graphics_common.h **** 
 2895              		.loc 14 63 54 view .LVU668
 2896 0064 0029     		cmp	r1, #0
 2897              	.LBE895:
 2898              	.LBE898:
 246:../../libDaisy/src/hid/disp/graphics_common.h ****                         int16_t(y_ + (other.GetCenterY() - GetCenterY())),
 2899              		.loc 14 246 50 view .LVU669
 2900 0066 BFB2     		uxth	r7, r7
 2901              	.LVL258:
 2902              	.LBB899:
 2903              	.LBI893:
  63:../../libDaisy/src/hid/disp/graphics_common.h **** 
 2904              		.loc 14 63 13 is_stmt 1 view .LVU670
 2905              	.LBB896:
  63:../../libDaisy/src/hid/disp/graphics_common.h **** 
 2906              		.loc 14 63 34 view .LVU671
  63:../../libDaisy/src/hid/disp/graphics_common.h **** 
 2907              		.loc 14 63 34 is_stmt 0 view .LVU672
 2908              	.LBE896:
 2909              	.LBE899:
 2910              	.LBB900:
 2911              	.LBI900:
  63:../../libDaisy/src/hid/disp/graphics_common.h **** 
 2912              		.loc 14 63 13 is_stmt 1 view .LVU673
 2913              	.LBB901:
  63:../../libDaisy/src/hid/disp/graphics_common.h **** 
 2914              		.loc 14 63 34 view .LVU674
  63:../../libDaisy/src/hid/disp/graphics_common.h **** 
 2915              		.loc 14 63 34 is_stmt 0 view .LVU675
 2916              	.LBE901:
 2917              	.LBE900:
 2918              	.LBB902:
 2919              	.LBB897:
ARM GAS  /var/folders/hl/qgbwny5j0fd895c2c41bk3tw0000gp/T//ccFqANMK.s 			page 97


  63:../../libDaisy/src/hid/disp/graphics_common.h **** 
 2920              		.loc 14 63 54 view .LVU676
 2921 0068 C0F2FE80 		blt	.L288
 2922              	.L232:
  63:../../libDaisy/src/hid/disp/graphics_common.h **** 
 2923              		.loc 14 63 54 view .LVU677
 2924              	.LBE897:
 2925              	.LBE902:
 2926              	.LBB903:
 2927              	.LBB904:
  63:../../libDaisy/src/hid/disp/graphics_common.h **** 
 2928              		.loc 14 63 44 view .LVU678
 2929 006c 6488     		ldrh	r4, [r4, #2]
 2930              	.LVL259:
  63:../../libDaisy/src/hid/disp/graphics_common.h **** 
 2931              		.loc 14 63 44 view .LVU679
 2932              	.LBE904:
 2933              	.LBE903:
 2934              	.LBB910:
 2935              	.LBB911:
 2936              	.LBB912:
  32:../../libDaisy/src/hid/disp/graphics_common.h ****     {
 2937              		.loc 14 32 66 view .LVU680
 2938 006e 0698     		ldr	r0, [sp, #24]
 2939              	.LBE912:
 2940              	.LBE911:
 2941              	.LBE910:
 2942              	.LBB923:
 2943              	.LBB905:
  63:../../libDaisy/src/hid/disp/graphics_common.h **** 
 2944              		.loc 14 63 44 view .LVU681
 2945 0070 04EB6104 		add	r4, r4, r1, asr #1
 2946              	.LBE905:
 2947              	.LBE923:
 2948              	.LBB924:
 2949              	.LBB919:
 2950              	.LBB915:
  32:../../libDaisy/src/hid/disp/graphics_common.h ****     {
 2951              		.loc 14 32 66 view .LVU682
 2952 0074 C280     		strh	r2, [r0, #6]	@ movhi
 2953              	.LBE915:
 2954              	.LBE919:
 2955              	.LBE924:
 252:../../libDaisy/src/hid/disp/graphics_common.h ****                         width_,
 2956              		.loc 14 252 58 view .LVU683
 2957 0076 A4EB5202 		sub	r2, r4, r2, lsr #1
 2958              	.LBB925:
 2959              	.LBB920:
 2960              	.LBB916:
  32:../../libDaisy/src/hid/disp/graphics_common.h ****     {
 2961              		.loc 14 32 66 view .LVU684
 2962 007a 8380     		strh	r3, [r0, #4]	@ movhi
 2963 007c 0780     		strh	r7, [r0]	@ movhi
 2964              	.LBE916:
 2965              	.LBE920:
 2966              	.LBE925:
 252:../../libDaisy/src/hid/disp/graphics_common.h ****                         width_,
ARM GAS  /var/folders/hl/qgbwny5j0fd895c2c41bk3tw0000gp/T//ccFqANMK.s 			page 98


 2967              		.loc 14 252 58 view .LVU685
 2968 007e 94B2     		uxth	r4, r2
 2969              	.LVL260:
 2970              	.LBB926:
 2971              	.LBI910:
  31:../../libDaisy/src/hid/disp/graphics_common.h ****     : x_(x), y_(y), width_(max(0, width)), height_(max(0, height))
 2972              		.loc 14 31 5 is_stmt 1 view .LVU686
 2973              	.LBB921:
 2974              	.LBB917:
  32:../../libDaisy/src/hid/disp/graphics_common.h ****     {
 2975              		.loc 14 32 66 is_stmt 0 view .LVU687
 2976 0080 4480     		strh	r4, [r0, #2]	@ movhi
 2977              	.LVL261:
 2978              	.LBB913:
 2979              	.LBI913:
 2980              		.loc 14 261 13 is_stmt 1 view .LVU688
 2981              	.LBE913:
 2982              	.LBE917:
 2983              	.LBE921:
 2984              	.LBE926:
 2985              	.LBE890:
 2986              	.LBE889:
 2987              		.loc 14 261 41 view .LVU689
 2988              	.LBB1115:
 2989              	.LBB1093:
 2990              	.LBB927:
 2991              	.LBB922:
 2992              	.LBB918:
 2993              	.LBB914:
 2994              	.LBI914:
 2995              		.loc 14 261 13 view .LVU690
 2996              	.LBE914:
 2997              	.LBE918:
 2998              	.LBE922:
 2999              	.LBE927:
 3000              	.LBE1093:
 3001              	.LBE1115:
 3002              		.loc 14 261 41 view .LVU691
 3003              	.L226:
  56:../../libDaisy/src/hid/disp/graphics_common.h ****     int16_t GetY() const { return y_; }
 3004              		.loc 14 56 28 view .LVU692
  57:../../libDaisy/src/hid/disp/graphics_common.h ****     int16_t GetWidth() const { return width_; }
 3005              		.loc 14 57 28 view .LVU693
 3006              	.LBB1116:
 3007              	.LBI1116:
 171:../../libDaisy/src/hid/disp/display.h ****     {
 3008              		.loc 12 171 10 view .LVU694
 3009              	.LBB1117:
 173:../../libDaisy/src/hid/disp/display.h ****         currentY_ = (y >= Height()) ? Height() - 1 : y;
 3010              		.loc 12 173 9 view .LVU695
 3011 0082 A64A     		ldr	r2, .L298
 173:../../libDaisy/src/hid/disp/display.h ****         currentY_ = (y >= Height()) ? Height() - 1 : y;
 3012              		.loc 12 173 33 is_stmt 0 view .LVU696
 3013 0084 D8F80030 		ldr	r3, [r8]
 3014 0088 1146     		mov	r1, r2
 3015 008a 0192     		str	r2, [sp, #4]
 3016 008c DA68     		ldr	r2, [r3, #12]
ARM GAS  /var/folders/hl/qgbwny5j0fd895c2c41bk3tw0000gp/T//ccFqANMK.s 			page 99


 3017 008e 8A42     		cmp	r2, r1
 3018 0090 40F08B81 		bne	.L234
 3019 0094 8020     		movs	r0, #128
 3020              	.LVL262:
 3021              	.L235:
 173:../../libDaisy/src/hid/disp/display.h ****         currentY_ = (y >= Height()) ? Height() - 1 : y;
 3022              		.loc 12 173 19 view .LVU697
 3023 0096 B842     		cmp	r0, r7
 3024 0098 05D8     		bhi	.L236
 173:../../libDaisy/src/hid/disp/display.h ****         currentY_ = (y >= Height()) ? Height() - 1 : y;
 3025              		.loc 12 173 44 view .LVU698
 3026 009a DA68     		ldr	r2, [r3, #12]
 3027 009c 0199     		ldr	r1, [sp, #4]
 3028 009e 8A42     		cmp	r2, r1
 3029 00a0 40F09881 		bne	.L289
 3030 00a4 7F27     		movs	r7, #127
 3031              	.L236:
 3032 00a6 9E4A     		ldr	r2, .L298+4
 174:../../libDaisy/src/hid/disp/display.h ****     }
 3033              		.loc 12 174 34 view .LVU699
 3034 00a8 9B68     		ldr	r3, [r3, #8]
 173:../../libDaisy/src/hid/disp/display.h ****         currentY_ = (y >= Height()) ? Height() - 1 : y;
 3035              		.loc 12 173 19 view .LVU700
 3036 00aa A8F80470 		strh	r7, [r8, #4]	@ movhi
 174:../../libDaisy/src/hid/disp/display.h ****     }
 3037              		.loc 12 174 9 is_stmt 1 view .LVU701
 3038 00ae 9342     		cmp	r3, r2
 3039 00b0 0392     		str	r2, [sp, #12]
 3040 00b2 40F08781 		bne	.L266
 174:../../libDaisy/src/hid/disp/display.h ****     }
 3041              		.loc 12 174 34 is_stmt 0 view .LVU702
 3042 00b6 4020     		movs	r0, #64
 3043              	.L238:
 174:../../libDaisy/src/hid/disp/display.h ****     }
 3044              		.loc 12 174 19 view .LVU703
 3045 00b8 A042     		cmp	r0, r4
 3046 00ba 07D8     		bhi	.L240
 174:../../libDaisy/src/hid/disp/display.h ****     }
 3047              		.loc 12 174 46 view .LVU704
 3048 00bc D8F80030 		ldr	r3, [r8]
 3049 00c0 039A     		ldr	r2, [sp, #12]
 3050 00c2 9B68     		ldr	r3, [r3, #8]
 3051 00c4 9342     		cmp	r3, r2
 3052 00c6 40F08081 		bne	.L290
 3053 00ca 3F24     		movs	r4, #63
 3054              	.L240:
 174:../../libDaisy/src/hid/disp/display.h ****     }
 3055              		.loc 12 174 46 view .LVU705
 3056              	.LBE1117:
 3057              	.LBE1116:
 3058              	.LBB1121:
 3059              	.LBB1122:
 443:../../libDaisy/src/hid/disp/display.h ****         {
 3060              		.loc 12 443 9 view .LVU706
 3061 00cc 009B     		ldr	r3, [sp]
 3062              	.LBE1122:
 3063              	.LBE1121:
ARM GAS  /var/folders/hl/qgbwny5j0fd895c2c41bk3tw0000gp/T//ccFqANMK.s 			page 100


 3064              	.LBB1170:
 3065              	.LBB1118:
 174:../../libDaisy/src/hid/disp/display.h ****     }
 3066              		.loc 12 174 19 view .LVU707
 3067 00ce A8F80640 		strh	r4, [r8, #6]	@ movhi
 3068              	.LVL263:
 174:../../libDaisy/src/hid/disp/display.h ****     }
 3069              		.loc 12 174 19 view .LVU708
 3070              	.LBE1118:
 3071              	.LBE1170:
 3072              	.LBB1171:
 3073              	.LBB1167:
 443:../../libDaisy/src/hid/disp/display.h ****         {
 3074              		.loc 12 443 9 view .LVU709
 3075 00d2 93F800B0 		ldrb	fp, [r3]	@ zero_extendqisi2
 3076 00d6 6B78     		ldrb	r3, [r5, #1]	@ zero_extendqisi2
 3077              	.LVL264:
 443:../../libDaisy/src/hid/disp/display.h ****         {
 3078              		.loc 12 443 9 view .LVU710
 3079 00d8 2C78     		ldrb	r4, [r5]	@ zero_extendqisi2
 3080              	.LVL265:
 443:../../libDaisy/src/hid/disp/display.h ****         {
 3081              		.loc 12 443 9 view .LVU711
 3082 00da 0493     		str	r3, [sp, #16]
 3083              	.LVL266:
 443:../../libDaisy/src/hid/disp/display.h ****         {
 3084              		.loc 12 443 9 view .LVU712
 3085 00dc 6B68     		ldr	r3, [r5, #4]
 3086 00de 0793     		str	r3, [sp, #28]
 3087              	.LVL267:
 443:../../libDaisy/src/hid/disp/display.h ****         {
 3088              		.loc 12 443 9 view .LVU713
 3089              	.LBE1167:
 3090              	.LBI1121:
 440:../../libDaisy/src/hid/disp/display.h ****     {
 3091              		.loc 12 440 10 is_stmt 1 view .LVU714
 3092              	.LBB1168:
 443:../../libDaisy/src/hid/disp/display.h ****         {
 3093              		.loc 12 443 9 view .LVU715
 3094 00e0 BBF1000F 		cmp	fp, #0
 3095 00e4 00F0AC80 		beq	.L212
 3096              	.LVL268:
 3097              	.L242:
 3098              	.LBB1123:
 3099              	.LBI1123:
 396:../../libDaisy/src/hid/disp/display.h ****     {
 3100              		.loc 12 396 10 view .LVU716
 3101              	.LBB1124:
 401:../../libDaisy/src/hid/disp/display.h ****             return 0;
 3102              		.loc 12 401 20 is_stmt 0 view .LVU717
 3103 00e8 ABF12005 		sub	r5, fp, #32
 401:../../libDaisy/src/hid/disp/display.h ****             return 0;
 3104              		.loc 12 401 9 view .LVU718
 3105 00ec EBB2     		uxtb	r3, r5
 3106 00ee 5E2B     		cmp	r3, #94
 3107 00f0 00F22C81 		bhi	.L246
 405:../../libDaisy/src/hid/disp/display.h ****            || Height() < (currentY_ + font.FontHeight))
ARM GAS  /var/folders/hl/qgbwny5j0fd895c2c41bk3tw0000gp/T//ccFqANMK.s 			page 101


 3108              		.loc 12 405 17 view .LVU719
 3109 00f4 D8F80030 		ldr	r3, [r8]
 3110 00f8 019A     		ldr	r2, [sp, #4]
 3111 00fa DB68     		ldr	r3, [r3, #12]
 3112 00fc 9342     		cmp	r3, r2
 3113 00fe 40F02881 		bne	.L291
 3114 0102 8020     		movs	r0, #128
 3115              	.L245:
 405:../../libDaisy/src/hid/disp/display.h ****            || Height() < (currentY_ + font.FontHeight))
 3116              		.loc 12 405 23 view .LVU720
 3117 0104 B8F80430 		ldrh	r3, [r8, #4]
 405:../../libDaisy/src/hid/disp/display.h ****            || Height() < (currentY_ + font.FontHeight))
 3118              		.loc 12 405 33 view .LVU721
 3119 0108 2344     		add	r3, r3, r4
 406:../../libDaisy/src/hid/disp/display.h ****         {
 3120              		.loc 12 406 12 view .LVU722
 3121 010a 9842     		cmp	r0, r3
 3122 010c C0F21E81 		blt	.L246
 406:../../libDaisy/src/hid/disp/display.h ****         {
 3123              		.loc 12 406 21 view .LVU723
 3124 0110 D8F80030 		ldr	r3, [r8]
 3125 0114 039A     		ldr	r2, [sp, #12]
 3126 0116 9B68     		ldr	r3, [r3, #8]
 3127 0118 9342     		cmp	r3, r2
 3128 011a 40F01D81 		bne	.L292
 3129 011e 4020     		movs	r0, #64
 3130              	.L247:
 406:../../libDaisy/src/hid/disp/display.h ****         {
 3131              		.loc 12 406 27 view .LVU724
 3132 0120 B8F80610 		ldrh	r1, [r8, #6]
 406:../../libDaisy/src/hid/disp/display.h ****         {
 3133              		.loc 12 406 37 view .LVU725
 3134 0124 049A     		ldr	r2, [sp, #16]
 406:../../libDaisy/src/hid/disp/display.h ****         {
 3135              		.loc 12 406 27 view .LVU726
 3136 0126 0291     		str	r1, [sp, #8]
 406:../../libDaisy/src/hid/disp/display.h ****         {
 3137              		.loc 12 406 37 view .LVU727
 3138 0128 8B18     		adds	r3, r1, r2
 406:../../libDaisy/src/hid/disp/display.h ****         {
 3139              		.loc 12 406 12 view .LVU728
 3140 012a 9842     		cmp	r0, r3
 3141 012c C0F20E81 		blt	.L246
 3142              	.LVL269:
 413:../../libDaisy/src/hid/disp/display.h ****         {
 3143              		.loc 12 413 22 is_stmt 1 view .LVU729
 3144 0130 002A     		cmp	r2, #0
 3145 0132 00F01C81 		beq	.L248
 415:../../libDaisy/src/hid/disp/display.h ****             for(j = 0; j < font.FontWidth; j++)
 3146              		.loc 12 415 37 is_stmt 0 view .LVU730
 3147 0136 02FB05F5 		mul	r5, r2, r5
 3148 013a 6FF0004E 		mvn	lr, #-2147483648
 3149 013e 079B     		ldr	r3, [sp, #28]
 3150 0140 AE44     		add	lr, lr, r5
 3151 0142 1544     		add	r5, r5, r2
 3152 0144 CDF814B0 		str	fp, [sp, #20]
 3153 0148 03EB4E0E 		add	lr, r3, lr, lsl #1
ARM GAS  /var/folders/hl/qgbwny5j0fd895c2c41bk3tw0000gp/T//ccFqANMK.s 			page 102


 3154 014c 023B     		subs	r3, r3, #2
 434:../../libDaisy/src/hid/disp/display.h **** 
 3155              		.loc 12 434 19 view .LVU731
 3156 014e B8F804A0 		ldrh	r10, [r8, #4]
 3157 0152 03EB4503 		add	r3, r3, r5, lsl #1
 3158 0156 0D46     		mov	r5, r1
 3159 0158 9B46     		mov	fp, r3
 3160              	.LVL270:
 3161              	.L251:
 415:../../libDaisy/src/hid/disp/display.h ****             for(j = 0; j < font.FontWidth; j++)
 3162              		.loc 12 415 15 view .LVU732
 3163 015a 3EF8027F 		ldrh	r7, [lr, #2]!
 3164              	.LVL271:
 416:../../libDaisy/src/hid/disp/display.h ****             {
 3165              		.loc 12 416 26 is_stmt 1 view .LVU733
 3166 015e A4B3     		cbz	r4, .L256
 3167              	.LBB1125:
 3168              	.LBB1126:
 3169              	.LBB1127:
 3170              	.LBB1128:
 3171              	.LBB1129:
 259:../../libDaisy/src/dev/oled_ssd130x.h ****     }
 3172              		.loc 11 259 55 is_stmt 0 view .LVU734
 3173 0160 05F00703 		and	r3, r5, #7
 259:../../libDaisy/src/dev/oled_ssd130x.h ****     }
 3174              		.loc 11 259 49 view .LVU735
 3175 0164 4FF0010C 		mov	ip, #1
 259:../../libDaisy/src/dev/oled_ssd130x.h ****     }
 3176              		.loc 11 259 28 view .LVU736
 3177 0168 EA08     		lsrs	r2, r5, #3
 3178 016a 5146     		mov	r1, r10
 259:../../libDaisy/src/dev/oled_ssd130x.h ****     }
 3179              		.loc 11 259 49 view .LVU737
 3180 016c 0CFA03FC 		lsl	ip, ip, r3
 3181 0170 0AF11403 		add	r3, r10, #20
 259:../../libDaisy/src/dev/oled_ssd130x.h ****     }
 3182              		.loc 11 259 42 view .LVU738
 3183 0174 4FFA8CFC 		sxtb	ip, ip
 3184 0178 03EBC212 		add	r2, r3, r2, lsl #7
 3185              	.LBE1129:
 3186              	.LBE1128:
 3187              	.LBE1127:
 3188              	.LBE1126:
 3189              	.LBE1125:
 416:../../libDaisy/src/hid/disp/display.h ****             {
 3190              		.loc 12 416 19 view .LVU739
 3191 017c 0023     		movs	r3, #0
 3192              	.LBB1147:
 3193              	.LBB1142:
 3194              	.LBB1137:
 3195              	.LBB1133:
 3196              	.LBB1130:
 259:../../libDaisy/src/dev/oled_ssd130x.h ****     }
 3197              		.loc 11 259 42 view .LVU740
 3198 017e 6FEA0C09 		mvn	r9, ip
 3199 0182 4244     		add	r2, r2, r8
 3200 0184 0DE0     		b	.L257
ARM GAS  /var/folders/hl/qgbwny5j0fd895c2c41bk3tw0000gp/T//ccFqANMK.s 			page 103


 3201              	.LVL272:
 3202              	.L293:
 259:../../libDaisy/src/dev/oled_ssd130x.h ****     }
 3203              		.loc 11 259 42 view .LVU741
 3204              	.LBE1130:
 3205              	.LBE1133:
 3206              	.LBE1137:
 3207              	.LBE1142:
 3208              	.LBE1147:
 3209              	.LBB1148:
 3210              	.LBI1148:
  42:../../libDaisy/src/hid/disp/oled_display.h ****     {
 3211              		.loc 10 42 10 is_stmt 1 view .LVU742
 3212              	.LBB1149:
 3213              	.LBI1149:
 252:../../libDaisy/src/dev/oled_ssd130x.h ****     {
 3214              		.loc 11 252 10 view .LVU743
 3215              	.LBB1150:
 254:../../libDaisy/src/dev/oled_ssd130x.h ****             return;
 3216              		.loc 11 254 9 is_stmt 0 view .LVU744
 3217 0186 7F29     		cmp	r1, #127
 3218 0188 06D8     		bhi	.L253
 3219 018a 3F2D     		cmp	r5, #63
 3220 018c 04D8     		bhi	.L253
 257:../../libDaisy/src/dev/oled_ssd130x.h ****         else
 3221              		.loc 11 257 42 view .LVU745
 3222 018e 1078     		ldrb	r0, [r2]	@ zero_extendqisi2
 256:../../libDaisy/src/dev/oled_ssd130x.h ****             buffer_[x + (y / 8) * width] |= (1 << (y % 8));
 3223              		.loc 11 256 9 view .LVU746
 3224 0190 96B1     		cbz	r6, .L255
 3225              	.L287:
 256:../../libDaisy/src/dev/oled_ssd130x.h ****             buffer_[x + (y / 8) * width] |= (1 << (y % 8));
 3226              		.loc 11 256 9 view .LVU747
 3227              	.LBE1150:
 3228              	.LBE1149:
 3229              	.LBE1148:
 3230              	.LBB1151:
 3231              	.LBB1143:
 3232              	.LBB1138:
 257:../../libDaisy/src/dev/oled_ssd130x.h ****         else
 3233              		.loc 11 257 42 view .LVU748
 3234 0192 4CEA0000 		orr	r0, ip, r0
 3235 0196 1070     		strb	r0, [r2]
 3236              	.L253:
 3237              	.LBE1138:
 3238              	.LBE1143:
 3239              	.LBE1151:
 416:../../libDaisy/src/hid/disp/display.h ****             {
 3240              		.loc 12 416 13 is_stmt 1 view .LVU749
 3241 0198 0133     		adds	r3, r3, #1
 3242              	.LVL273:
 416:../../libDaisy/src/hid/disp/display.h ****             {
 3243              		.loc 12 416 26 view .LVU750
 3244 019a 0132     		adds	r2, r2, #1
 3245 019c 0131     		adds	r1, r1, #1
 3246 019e 9C42     		cmp	r4, r3
 3247 01a0 13D0     		beq	.L256
ARM GAS  /var/folders/hl/qgbwny5j0fd895c2c41bk3tw0000gp/T//ccFqANMK.s 			page 104


 3248              	.LVL274:
 3249              	.L257:
 418:../../libDaisy/src/hid/disp/display.h ****                 {
 3250              		.loc 12 418 23 is_stmt 0 view .LVU751
 3251 01a2 07FA03F0 		lsl	r0, r7, r3
 418:../../libDaisy/src/hid/disp/display.h ****                 {
 3252              		.loc 12 418 17 view .LVU752
 3253 01a6 0004     		lsls	r0, r0, #16
 3254 01a8 EDD4     		bmi	.L293
 3255              	.LVL275:
 3256              	.LBB1152:
 3257              	.LBI1125:
  42:../../libDaisy/src/hid/disp/oled_display.h ****     {
 3258              		.loc 10 42 10 is_stmt 1 view .LVU753
 3259              	.LBB1144:
 3260              	.LBI1126:
 252:../../libDaisy/src/dev/oled_ssd130x.h ****     {
 3261              		.loc 11 252 10 view .LVU754
 3262              	.LBB1139:
 254:../../libDaisy/src/dev/oled_ssd130x.h ****             return;
 3263              		.loc 11 254 9 is_stmt 0 view .LVU755
 3264 01aa 7F29     		cmp	r1, #127
 3265 01ac F4D8     		bhi	.L253
 3266 01ae 3F2D     		cmp	r5, #63
 3267 01b0 F2D8     		bhi	.L253
 257:../../libDaisy/src/dev/oled_ssd130x.h ****         else
 3268              		.loc 11 257 42 view .LVU756
 3269 01b2 1078     		ldrb	r0, [r2]	@ zero_extendqisi2
 256:../../libDaisy/src/dev/oled_ssd130x.h ****             buffer_[x + (y / 8) * width] |= (1 << (y % 8));
 3270              		.loc 11 256 9 view .LVU757
 3271 01b4 002E     		cmp	r6, #0
 3272 01b6 ECD0     		beq	.L287
 3273              	.L255:
 3274              	.LVL276:
 3275              	.LBB1134:
 3276              	.LBI1128:
 252:../../libDaisy/src/dev/oled_ssd130x.h ****     {
 3277              		.loc 11 252 10 is_stmt 1 view .LVU758
 252:../../libDaisy/src/dev/oled_ssd130x.h ****     {
 3278              		.loc 11 252 10 is_stmt 0 view .LVU759
 3279              	.LBE1134:
 3280              	.LBE1139:
 3281              	.LBE1144:
 3282              	.LBE1152:
 416:../../libDaisy/src/hid/disp/display.h ****             {
 3283              		.loc 12 416 13 view .LVU760
 3284 01b8 0133     		adds	r3, r3, #1
 3285              	.LVL277:
 3286              	.LBB1153:
 3287              	.LBB1145:
 3288              	.LBB1140:
 3289              	.LBB1135:
 3290              	.LBB1131:
 259:../../libDaisy/src/dev/oled_ssd130x.h ****     }
 3291              		.loc 11 259 42 view .LVU761
 3292 01ba 09EA0000 		and	r0, r9, r0
 3293              	.LBE1131:
ARM GAS  /var/folders/hl/qgbwny5j0fd895c2c41bk3tw0000gp/T//ccFqANMK.s 			page 105


 3294              	.LBE1135:
 3295              	.LBE1140:
 3296              	.LBE1145:
 3297              	.LBE1153:
 416:../../libDaisy/src/hid/disp/display.h ****             {
 3298              		.loc 12 416 26 view .LVU762
 3299 01be 0132     		adds	r2, r2, #1
 3300 01c0 0131     		adds	r1, r1, #1
 3301 01c2 9C42     		cmp	r4, r3
 3302              	.LBB1154:
 3303              	.LBB1146:
 3304              	.LBB1141:
 3305              	.LBB1136:
 3306              	.LBB1132:
 259:../../libDaisy/src/dev/oled_ssd130x.h ****     }
 3307              		.loc 11 259 42 view .LVU763
 3308 01c4 02F8010C 		strb	r0, [r2, #-1]
 259:../../libDaisy/src/dev/oled_ssd130x.h ****     }
 3309              		.loc 11 259 42 view .LVU764
 3310              	.LBE1132:
 3311              	.LBE1136:
 3312              	.LBE1141:
 3313              	.LBE1146:
 3314              	.LBE1154:
 416:../../libDaisy/src/hid/disp/display.h ****             {
 3315              		.loc 12 416 13 is_stmt 1 view .LVU765
 3316              	.LVL278:
 416:../../libDaisy/src/hid/disp/display.h ****             {
 3317              		.loc 12 416 26 view .LVU766
 3318 01c8 EBD1     		bne	.L257
 3319              	.LVL279:
 3320              	.L256:
 413:../../libDaisy/src/hid/disp/display.h ****         {
 3321              		.loc 12 413 9 view .LVU767
 413:../../libDaisy/src/hid/disp/display.h ****         {
 3322              		.loc 12 413 22 view .LVU768
 3323 01ca F345     		cmp	fp, lr
 3324 01cc 05F10105 		add	r5, r5, #1
 3325 01d0 C3D1     		bne	.L251
 3326 01d2 DDF814B0 		ldr	fp, [sp, #20]
 3327              	.LVL280:
 3328              	.L250:
 3329              	.LBB1155:
 3330              	.LBB1156:
 173:../../libDaisy/src/hid/disp/display.h ****         currentY_ = (y >= Height()) ? Height() - 1 : y;
 3331              		.loc 12 173 33 is_stmt 0 view .LVU769
 3332 01d6 D8F80020 		ldr	r2, [r8]
 3333              	.LBE1156:
 3334              	.LBE1155:
 434:../../libDaisy/src/hid/disp/display.h **** 
 3335              		.loc 12 434 18 view .LVU770
 3336 01da 0AEB0405 		add	r5, r10, r4
 3337 01de 0199     		ldr	r1, [sp, #4]
 3338              	.LBB1161:
 3339              	.LBB1157:
 173:../../libDaisy/src/hid/disp/display.h ****         currentY_ = (y >= Height()) ? Height() - 1 : y;
 3340              		.loc 12 173 33 view .LVU771
ARM GAS  /var/folders/hl/qgbwny5j0fd895c2c41bk3tw0000gp/T//ccFqANMK.s 			page 106


 3341 01e0 D368     		ldr	r3, [r2, #12]
 3342              	.LBE1157:
 3343              	.LBE1161:
 434:../../libDaisy/src/hid/disp/display.h **** 
 3344              		.loc 12 434 18 view .LVU772
 3345 01e2 ADB2     		uxth	r5, r5
 3346              	.LVL281:
 3347              	.LBB1162:
 3348              	.LBI1155:
 171:../../libDaisy/src/hid/disp/display.h ****     {
 3349              		.loc 12 171 10 is_stmt 1 view .LVU773
 3350              	.LBB1158:
 173:../../libDaisy/src/hid/disp/display.h ****         currentY_ = (y >= Height()) ? Height() - 1 : y;
 3351              		.loc 12 173 9 view .LVU774
 3352 01e4 8B42     		cmp	r3, r1
 3353 01e6 40F0BD80 		bne	.L294
 173:../../libDaisy/src/hid/disp/display.h ****         currentY_ = (y >= Height()) ? Height() - 1 : y;
 3354              		.loc 12 173 33 is_stmt 0 view .LVU775
 3355 01ea 8020     		movs	r0, #128
 3356              	.L258:
 173:../../libDaisy/src/hid/disp/display.h ****         currentY_ = (y >= Height()) ? Height() - 1 : y;
 3357              		.loc 12 173 19 view .LVU776
 3358 01ec 8542     		cmp	r5, r0
 3359 01ee 05D3     		bcc	.L259
 173:../../libDaisy/src/hid/disp/display.h ****         currentY_ = (y >= Height()) ? Height() - 1 : y;
 3360              		.loc 12 173 44 view .LVU777
 3361 01f0 D368     		ldr	r3, [r2, #12]
 3362 01f2 0199     		ldr	r1, [sp, #4]
 3363 01f4 8B42     		cmp	r3, r1
 3364 01f6 40F0C380 		bne	.L295
 3365 01fa 7F25     		movs	r5, #127
 3366              	.LVL282:
 3367              	.L259:
 174:../../libDaisy/src/hid/disp/display.h ****     }
 3368              		.loc 12 174 34 view .LVU778
 3369 01fc 9368     		ldr	r3, [r2, #8]
 3370 01fe 039A     		ldr	r2, [sp, #12]
 173:../../libDaisy/src/hid/disp/display.h ****         currentY_ = (y >= Height()) ? Height() - 1 : y;
 3371              		.loc 12 173 19 view .LVU779
 3372 0200 A8F80450 		strh	r5, [r8, #4]	@ movhi
 174:../../libDaisy/src/hid/disp/display.h ****     }
 3373              		.loc 12 174 9 is_stmt 1 view .LVU780
 3374 0204 9342     		cmp	r3, r2
 3375 0206 40F0AA80 		bne	.L296
 174:../../libDaisy/src/hid/disp/display.h ****     }
 3376              		.loc 12 174 34 is_stmt 0 view .LVU781
 3377 020a 4020     		movs	r0, #64
 3378              	.L261:
 174:../../libDaisy/src/hid/disp/display.h ****     }
 3379              		.loc 12 174 19 view .LVU782
 3380 020c 029B     		ldr	r3, [sp, #8]
 3381 020e 8342     		cmp	r3, r0
 3382 0210 08D3     		bcc	.L262
 174:../../libDaisy/src/hid/disp/display.h ****     }
 3383              		.loc 12 174 46 view .LVU783
 3384 0212 D8F80030 		ldr	r3, [r8]
 3385 0216 039A     		ldr	r2, [sp, #12]
ARM GAS  /var/folders/hl/qgbwny5j0fd895c2c41bk3tw0000gp/T//ccFqANMK.s 			page 107


 3386 0218 9B68     		ldr	r3, [r3, #8]
 3387 021a 9342     		cmp	r3, r2
 3388 021c 40F0AA80 		bne	.L297
 3389 0220 3F23     		movs	r3, #63
 3390 0222 0293     		str	r3, [sp, #8]
 3391              	.LVL283:
 3392              	.L262:
 174:../../libDaisy/src/hid/disp/display.h ****     }
 3393              		.loc 12 174 19 view .LVU784
 3394 0224 029B     		ldr	r3, [sp, #8]
 3395 0226 A8F80630 		strh	r3, [r8, #6]	@ movhi
 3396              	.LVL284:
 3397              	.L244:
 174:../../libDaisy/src/hid/disp/display.h ****     }
 3398              		.loc 12 174 19 view .LVU785
 3399              	.LBE1158:
 3400              	.LBE1162:
 3401              	.LBE1124:
 3402              	.LBE1123:
 445:../../libDaisy/src/hid/disp/display.h ****                != *str)
 3403              		.loc 12 445 13 view .LVU786
 3404 022a 009A     		ldr	r2, [sp]
 3405 022c 1378     		ldrb	r3, [r2]	@ zero_extendqisi2
 3406 022e 5B45     		cmp	r3, fp
 3407 0230 06D1     		bne	.L212
 3408              	.LVL285:
 443:../../libDaisy/src/hid/disp/display.h ****         {
 3409              		.loc 12 443 9 is_stmt 1 view .LVU787
 3410 0232 12F801BF 		ldrb	fp, [r2, #1]!	@ zero_extendqisi2
 3411              	.LVL286:
 443:../../libDaisy/src/hid/disp/display.h ****         {
 3412              		.loc 12 443 9 is_stmt 0 view .LVU788
 3413 0236 0092     		str	r2, [sp]
 3414 0238 BBF1000F 		cmp	fp, #0
 3415 023c 7FF454AF 		bne	.L242
 3416              	.LVL287:
 3417              	.L212:
 443:../../libDaisy/src/hid/disp/display.h ****         {
 3418              		.loc 12 443 9 view .LVU789
 3419              	.LBE1168:
 3420              	.LBE1171:
 471:../../libDaisy/src/hid/disp/display.h **** 
 3421              		.loc 12 471 5 view .LVU790
 3422 0240 0698     		ldr	r0, [sp, #24]
 3423 0242 09B0     		add	sp, sp, #36
 3424              		.cfi_remember_state
 3425              		.cfi_def_cfa_offset 36
 3426              		@ sp needed
 3427 0244 BDE8F08F 		pop	{r4, r5, r6, r7, r8, r9, r10, fp, pc}
 3428              	.LVL288:
 3429              	.L225:
 3430              		.cfi_restore_state
 3431              	.LBB1172:
 3432              	.LBB1094:
 250:../../libDaisy/src/hid/disp/graphics_common.h ****                 return {int16_t(x_ + (other.GetCenterX() - GetCenterX())),
 3433              		.loc 14 250 13 is_stmt 1 view .LVU791
 251:../../libDaisy/src/hid/disp/graphics_common.h ****                         int16_t(y_ + (other.GetCenterY() - GetCenterY())),
ARM GAS  /var/folders/hl/qgbwny5j0fd895c2c41bk3tw0000gp/T//ccFqANMK.s 			page 108


 3434              		.loc 14 251 17 view .LVU792
 3435              	.LBB928:
 3436              	.LBI928:
  62:../../libDaisy/src/hid/disp/graphics_common.h ****     int16_t GetCenterY() const { return y_ + height_ / 2; }
 3437              		.loc 14 62 13 view .LVU793
 3438              	.LBB929:
  62:../../libDaisy/src/hid/disp/graphics_common.h ****     int16_t GetCenterY() const { return y_ + height_ / 2; }
 3439              		.loc 14 62 34 view .LVU794
  62:../../libDaisy/src/hid/disp/graphics_common.h ****     int16_t GetCenterY() const { return y_ + height_ / 2; }
 3440              		.loc 14 62 34 is_stmt 0 view .LVU795
 3441              	.LBE929:
 3442              	.LBE928:
 3443              	.LBB931:
 3444              	.LBI931:
  62:../../libDaisy/src/hid/disp/graphics_common.h ****     int16_t GetCenterY() const { return y_ + height_ / 2; }
 3445              		.loc 14 62 13 is_stmt 1 view .LVU796
 3446              	.LBB932:
  62:../../libDaisy/src/hid/disp/graphics_common.h ****     int16_t GetCenterY() const { return y_ + height_ / 2; }
 3447              		.loc 14 62 34 view .LVU797
  62:../../libDaisy/src/hid/disp/graphics_common.h ****     int16_t GetCenterY() const { return y_ + height_ / 2; }
 3448              		.loc 14 62 34 is_stmt 0 view .LVU798
 3449              	.LBE932:
 3450              	.LBE931:
 3451              	.LBB933:
 3452              	.LBB930:
  62:../../libDaisy/src/hid/disp/graphics_common.h ****     int16_t GetCenterY() const { return y_ + height_ / 2; }
 3453              		.loc 14 62 53 view .LVU799
 3454 0248 B4F90410 		ldrsh	r1, [r4, #4]
 3455              	.LVL289:
  62:../../libDaisy/src/hid/disp/graphics_common.h ****     int16_t GetCenterY() const { return y_ + height_ / 2; }
 3456              		.loc 14 62 44 view .LVU800
 3457 024c 2788     		ldrh	r7, [r4]
  62:../../libDaisy/src/hid/disp/graphics_common.h ****     int16_t GetCenterY() const { return y_ + height_ / 2; }
 3458              		.loc 14 62 53 view .LVU801
 3459 024e 0029     		cmp	r1, #0
 3460 0250 B8BF     		it	lt
 3461 0252 0131     		addlt	r1, r1, #1
  62:../../libDaisy/src/hid/disp/graphics_common.h ****     int16_t GetCenterY() const { return y_ + height_ / 2; }
 3462              		.loc 14 62 44 view .LVU802
 3463 0254 07EB6107 		add	r7, r7, r1, asr #1
 3464              	.LBE930:
 3465              	.LBE933:
 3466              	.LBB934:
 3467              	.LBB906:
  63:../../libDaisy/src/hid/disp/graphics_common.h **** 
 3468              		.loc 14 63 54 view .LVU803
 3469 0258 B4F90610 		ldrsh	r1, [r4, #6]
 3470              	.LBE906:
 3471              	.LBE934:
 251:../../libDaisy/src/hid/disp/graphics_common.h ****                         int16_t(y_ + (other.GetCenterY() - GetCenterY())),
 3472              		.loc 14 251 58 view .LVU804
 3473 025c A7EB6307 		sub	r7, r7, r3, asr #1
 3474              	.LBB935:
 3475              	.LBB907:
  63:../../libDaisy/src/hid/disp/graphics_common.h **** 
 3476              		.loc 14 63 54 view .LVU805
 3477 0260 0029     		cmp	r1, #0
ARM GAS  /var/folders/hl/qgbwny5j0fd895c2c41bk3tw0000gp/T//ccFqANMK.s 			page 109


 3478              	.LBE907:
 3479              	.LBE935:
 251:../../libDaisy/src/hid/disp/graphics_common.h ****                         int16_t(y_ + (other.GetCenterY() - GetCenterY())),
 3480              		.loc 14 251 58 view .LVU806
 3481 0262 BFB2     		uxth	r7, r7
 3482              	.LVL290:
 3483              	.LBB936:
 3484              	.LBI903:
  63:../../libDaisy/src/hid/disp/graphics_common.h **** 
 3485              		.loc 14 63 13 is_stmt 1 view .LVU807
 3486              	.LBB908:
  63:../../libDaisy/src/hid/disp/graphics_common.h **** 
 3487              		.loc 14 63 34 view .LVU808
  63:../../libDaisy/src/hid/disp/graphics_common.h **** 
 3488              		.loc 14 63 34 is_stmt 0 view .LVU809
 3489              	.LBE908:
 3490              	.LBE936:
 3491              	.LBB937:
 3492              	.LBI937:
  63:../../libDaisy/src/hid/disp/graphics_common.h **** 
 3493              		.loc 14 63 13 is_stmt 1 view .LVU810
 3494              	.LBB938:
  63:../../libDaisy/src/hid/disp/graphics_common.h **** 
 3495              		.loc 14 63 34 view .LVU811
  63:../../libDaisy/src/hid/disp/graphics_common.h **** 
 3496              		.loc 14 63 34 is_stmt 0 view .LVU812
 3497              	.LBE938:
 3498              	.LBE937:
 3499              	.LBB939:
 3500              	.LBB909:
  63:../../libDaisy/src/hid/disp/graphics_common.h **** 
 3501              		.loc 14 63 54 view .LVU813
 3502 0264 BFF602AF 		bge	.L232
 3503              	.L288:
  63:../../libDaisy/src/hid/disp/graphics_common.h **** 
 3504              		.loc 14 63 54 view .LVU814
 3505 0268 0131     		adds	r1, r1, #1
 3506 026a FFE6     		b	.L232
 3507              	.LVL291:
 3508              	.L224:
  63:../../libDaisy/src/hid/disp/graphics_common.h **** 
 3509              		.loc 14 63 54 view .LVU815
 3510              	.LBE909:
 3511              	.LBE939:
 213:../../libDaisy/src/hid/disp/graphics_common.h ****                 return {other.x_, other.y_, width_, height_};
 3512              		.loc 14 213 13 is_stmt 1 view .LVU816
 214:../../libDaisy/src/hid/disp/graphics_common.h ****             case Alignment::topRight:
 3513              		.loc 14 214 17 view .LVU817
 214:../../libDaisy/src/hid/disp/graphics_common.h ****             case Alignment::topRight:
 3514              		.loc 14 214 31 is_stmt 0 view .LVU818
 3515 026c B4F90070 		ldrsh	r7, [r4]
 3516              	.LBB940:
 3517              	.LBB941:
 3518              	.LBB942:
  32:../../libDaisy/src/hid/disp/graphics_common.h ****     {
 3519              		.loc 14 32 66 view .LVU819
 3520 0270 0699     		ldr	r1, [sp, #24]
ARM GAS  /var/folders/hl/qgbwny5j0fd895c2c41bk3tw0000gp/T//ccFqANMK.s 			page 110


 3521              	.LVL292:
  32:../../libDaisy/src/hid/disp/graphics_common.h ****     {
 3522              		.loc 14 32 66 view .LVU820
 3523              	.LBE942:
 3524              	.LBE941:
 3525              	.LBE940:
 214:../../libDaisy/src/hid/disp/graphics_common.h ****             case Alignment::topRight:
 3526              		.loc 14 214 41 view .LVU821
 3527 0272 B4F90240 		ldrsh	r4, [r4, #2]
 3528              	.LVL293:
 3529              	.LBB955:
 3530              	.LBI940:
  31:../../libDaisy/src/hid/disp/graphics_common.h ****     : x_(x), y_(y), width_(max(0, width)), height_(max(0, height))
 3531              		.loc 14 31 5 is_stmt 1 view .LVU822
 3532              	.LBB950:
 3533              	.LBB945:
  32:../../libDaisy/src/hid/disp/graphics_common.h ****     {
 3534              		.loc 14 32 66 is_stmt 0 view .LVU823
 3535 0276 0F80     		strh	r7, [r1]	@ movhi
 3536              	.LBE945:
 3537              	.LBE950:
 3538              	.LBE955:
 3539              	.LBE1094:
 3540              	.LBE1172:
 468:../../libDaisy/src/hid/disp/display.h ****         ((ChildType*)(this))->ChildType::WriteString(str, font, on);
 3541              		.loc 12 468 18 view .LVU824
 3542 0278 BFB2     		uxth	r7, r7
 3543              	.LVL294:
 3544              	.LBB1173:
 3545              	.LBB1095:
 3546              	.LBB956:
 3547              	.LBB951:
 3548              	.LBB946:
  32:../../libDaisy/src/hid/disp/graphics_common.h ****     {
 3549              		.loc 14 32 66 view .LVU825
 3550 027a 4C80     		strh	r4, [r1, #2]	@ movhi
 3551              	.LBE946:
 3552              	.LBE951:
 3553              	.LBE956:
 3554              	.LBE1095:
 3555              	.LBE1173:
 468:../../libDaisy/src/hid/disp/display.h ****         ((ChildType*)(this))->ChildType::WriteString(str, font, on);
 3556              		.loc 12 468 18 view .LVU826
 3557 027c A4B2     		uxth	r4, r4
 3558              	.LVL295:
 3559              	.LBB1174:
 3560              	.LBB1096:
 3561              	.LBB957:
 3562              	.LBB952:
 3563              	.LBB947:
  32:../../libDaisy/src/hid/disp/graphics_common.h ****     {
 3564              		.loc 14 32 66 view .LVU827
 3565 027e 8B80     		strh	r3, [r1, #4]	@ movhi
 3566              	.LVL296:
 3567              	.LBB943:
 3568              	.LBI943:
 3569              		.loc 14 261 13 is_stmt 1 view .LVU828
ARM GAS  /var/folders/hl/qgbwny5j0fd895c2c41bk3tw0000gp/T//ccFqANMK.s 			page 111


 3570              	.LBE943:
 3571              	.LBE947:
 3572              	.LBE952:
 3573              	.LBE957:
 3574              	.LBE1096:
 3575              	.LBE1174:
 3576              		.loc 14 261 41 view .LVU829
 3577              	.LBB1175:
 3578              	.LBB1097:
 3579              	.LBB958:
 3580              	.LBB953:
 3581              	.LBB948:
 3582              	.LBB944:
 3583              	.LBI944:
 3584              		.loc 14 261 13 view .LVU830
 3585              	.LBE944:
 3586              	.LBE948:
 3587              	.LBE953:
 3588              	.LBE958:
 3589              	.LBE1097:
 3590              	.LBE1175:
 3591              		.loc 14 261 41 view .LVU831
 3592              	.LBB1176:
 3593              	.LBB1098:
 3594              	.LBB959:
 3595              	.LBB954:
 3596              	.LBB949:
  32:../../libDaisy/src/hid/disp/graphics_common.h ****     {
 3597              		.loc 14 32 66 is_stmt 0 view .LVU832
 3598 0280 CA80     		strh	r2, [r1, #6]	@ movhi
 3599              	.LBE949:
  34:../../libDaisy/src/hid/disp/graphics_common.h **** 
 3600              		.loc 14 34 5 view .LVU833
 3601 0282 FEE6     		b	.L226
 3602              	.LVL297:
 3603              	.L223:
  34:../../libDaisy/src/hid/disp/graphics_common.h **** 
 3604              		.loc 14 34 5 view .LVU834
 3605              	.LBE954:
 3606              	.LBE959:
 220:../../libDaisy/src/hid/disp/graphics_common.h ****                 return {int16_t(x_ + (other.GetCenterX() - GetCenterX())),
 3607              		.loc 14 220 13 is_stmt 1 view .LVU835
 221:../../libDaisy/src/hid/disp/graphics_common.h ****                         other.y_,
 3608              		.loc 14 221 17 view .LVU836
 3609              	.LBB960:
 3610              	.LBI960:
  62:../../libDaisy/src/hid/disp/graphics_common.h ****     int16_t GetCenterY() const { return y_ + height_ / 2; }
 3611              		.loc 14 62 13 view .LVU837
 3612              	.LBB961:
  62:../../libDaisy/src/hid/disp/graphics_common.h ****     int16_t GetCenterY() const { return y_ + height_ / 2; }
 3613              		.loc 14 62 34 view .LVU838
  62:../../libDaisy/src/hid/disp/graphics_common.h ****     int16_t GetCenterY() const { return y_ + height_ / 2; }
 3614              		.loc 14 62 34 is_stmt 0 view .LVU839
 3615              	.LBE961:
 3616              	.LBE960:
 3617              	.LBB964:
 3618              	.LBI964:
ARM GAS  /var/folders/hl/qgbwny5j0fd895c2c41bk3tw0000gp/T//ccFqANMK.s 			page 112


  62:../../libDaisy/src/hid/disp/graphics_common.h ****     int16_t GetCenterY() const { return y_ + height_ / 2; }
 3619              		.loc 14 62 13 is_stmt 1 view .LVU840
 3620              	.LBB965:
  62:../../libDaisy/src/hid/disp/graphics_common.h ****     int16_t GetCenterY() const { return y_ + height_ / 2; }
 3621              		.loc 14 62 34 view .LVU841
  62:../../libDaisy/src/hid/disp/graphics_common.h ****     int16_t GetCenterY() const { return y_ + height_ / 2; }
 3622              		.loc 14 62 34 is_stmt 0 view .LVU842
 3623              	.LBE965:
 3624              	.LBE964:
 3625              	.LBB966:
 3626              	.LBB962:
  62:../../libDaisy/src/hid/disp/graphics_common.h ****     int16_t GetCenterY() const { return y_ + height_ / 2; }
 3627              		.loc 14 62 53 view .LVU843
 3628 0284 B4F90410 		ldrsh	r1, [r4, #4]
 3629              	.LVL298:
  62:../../libDaisy/src/hid/disp/graphics_common.h ****     int16_t GetCenterY() const { return y_ + height_ / 2; }
 3630              		.loc 14 62 44 view .LVU844
 3631 0288 2788     		ldrh	r7, [r4]
  62:../../libDaisy/src/hid/disp/graphics_common.h ****     int16_t GetCenterY() const { return y_ + height_ / 2; }
 3632              		.loc 14 62 53 view .LVU845
 3633 028a 0029     		cmp	r1, #0
 3634              	.LBE962:
 3635              	.LBE966:
 222:../../libDaisy/src/hid/disp/graphics_common.h ****                         width_,
 3636              		.loc 14 222 31 view .LVU846
 3637 028c B4F90240 		ldrsh	r4, [r4, #2]
 3638              	.LVL299:
 3639              	.LBB967:
 3640              	.LBB963:
  62:../../libDaisy/src/hid/disp/graphics_common.h ****     int16_t GetCenterY() const { return y_ + height_ / 2; }
 3641              		.loc 14 62 53 view .LVU847
 3642 0290 B8BF     		it	lt
 3643 0292 0131     		addlt	r1, r1, #1
  62:../../libDaisy/src/hid/disp/graphics_common.h ****     int16_t GetCenterY() const { return y_ + height_ / 2; }
 3644              		.loc 14 62 44 view .LVU848
 3645 0294 07EB6107 		add	r7, r7, r1, asr #1
 3646              	.LBE963:
 3647              	.LBE967:
 3648              	.LBB968:
 3649              	.LBB969:
 3650              	.LBB970:
  32:../../libDaisy/src/hid/disp/graphics_common.h ****     {
 3651              		.loc 14 32 66 view .LVU849
 3652 0298 0699     		ldr	r1, [sp, #24]
 3653 029a 8B80     		strh	r3, [r1, #4]	@ movhi
 3654              	.LBE970:
 3655              	.LBE969:
 3656              	.LBE968:
 221:../../libDaisy/src/hid/disp/graphics_common.h ****                         other.y_,
 3657              		.loc 14 221 58 view .LVU850
 3658 029c A7EB6303 		sub	r3, r7, r3, asr #1
 3659              	.LBB981:
 3660              	.LBB977:
 3661              	.LBB973:
  32:../../libDaisy/src/hid/disp/graphics_common.h ****     {
 3662              		.loc 14 32 66 view .LVU851
 3663 02a0 4C80     		strh	r4, [r1, #2]	@ movhi
ARM GAS  /var/folders/hl/qgbwny5j0fd895c2c41bk3tw0000gp/T//ccFqANMK.s 			page 113


 3664              	.LBE973:
 3665              	.LBE977:
 3666              	.LBE981:
 3667              	.LBE1098:
 3668              	.LBE1176:
 468:../../libDaisy/src/hid/disp/display.h ****         ((ChildType*)(this))->ChildType::WriteString(str, font, on);
 3669              		.loc 12 468 18 view .LVU852
 3670 02a2 A4B2     		uxth	r4, r4
 3671              	.LBB1177:
 3672              	.LBB1099:
 221:../../libDaisy/src/hid/disp/graphics_common.h ****                         other.y_,
 3673              		.loc 14 221 58 view .LVU853
 3674 02a4 9FB2     		uxth	r7, r3
 3675              	.LVL300:
 3676              	.LBB982:
 3677              	.LBI968:
  31:../../libDaisy/src/hid/disp/graphics_common.h ****     : x_(x), y_(y), width_(max(0, width)), height_(max(0, height))
 3678              		.loc 14 31 5 is_stmt 1 view .LVU854
 3679              	.LBB978:
 3680              	.LBB974:
 3681              	.LBB971:
 3682              	.LBI971:
 3683              		.loc 14 261 13 view .LVU855
 3684              	.LBE971:
 3685              	.LBE974:
 3686              	.LBE978:
 3687              	.LBE982:
 3688              	.LBE1099:
 3689              	.LBE1177:
 3690              		.loc 14 261 41 view .LVU856
 3691              	.LBB1178:
 3692              	.LBB1100:
 3693              	.LBB983:
 3694              	.LBB979:
 3695              	.LBB975:
 3696              	.LBB972:
 3697              	.LBI972:
 3698              		.loc 14 261 13 view .LVU857
 3699              	.LBE972:
 3700              	.LBE975:
 3701              	.LBE979:
 3702              	.LBE983:
 3703              	.LBE1100:
 3704              	.LBE1178:
 3705              		.loc 14 261 41 view .LVU858
 3706              	.LBB1179:
 3707              	.LBB1101:
 3708              	.LBB984:
 3709              	.LBB980:
 3710              	.LBB976:
  32:../../libDaisy/src/hid/disp/graphics_common.h ****     {
 3711              		.loc 14 32 66 is_stmt 0 view .LVU859
 3712 02a6 CA80     		strh	r2, [r1, #6]	@ movhi
 3713 02a8 0F80     		strh	r7, [r1]	@ movhi
 3714              	.LBE976:
  34:../../libDaisy/src/hid/disp/graphics_common.h **** 
 3715              		.loc 14 34 5 view .LVU860
ARM GAS  /var/folders/hl/qgbwny5j0fd895c2c41bk3tw0000gp/T//ccFqANMK.s 			page 114


 3716 02aa EAE6     		b	.L226
 3717              	.LVL301:
 3718              	.L222:
  34:../../libDaisy/src/hid/disp/graphics_common.h **** 
 3719              		.loc 14 34 5 view .LVU861
 3720              	.LBE980:
 3721              	.LBE984:
 215:../../libDaisy/src/hid/disp/graphics_common.h ****                 return {int16_t(other.GetRight() - width_),
 3722              		.loc 14 215 13 is_stmt 1 view .LVU862
 216:../../libDaisy/src/hid/disp/graphics_common.h ****                         other.y_,
 3723              		.loc 14 216 17 view .LVU863
 3724              	.LBB985:
 3725              	.LBI985:
  60:../../libDaisy/src/hid/disp/graphics_common.h ****     int16_t GetBottom() const { return y_ + height_; }
 3726              		.loc 14 60 13 view .LVU864
 3727              	.LBB986:
  60:../../libDaisy/src/hid/disp/graphics_common.h ****     int16_t GetBottom() const { return y_ + height_; }
 3728              		.loc 14 60 32 view .LVU865
  60:../../libDaisy/src/hid/disp/graphics_common.h ****     int16_t GetBottom() const { return y_ + height_; }
 3729              		.loc 14 60 42 is_stmt 0 view .LVU866
 3730 02ac A188     		ldrh	r1, [r4, #4]
 3731              	.LVL302:
  60:../../libDaisy/src/hid/disp/graphics_common.h ****     int16_t GetBottom() const { return y_ + height_; }
 3732              		.loc 14 60 42 view .LVU867
 3733 02ae 2788     		ldrh	r7, [r4]
 3734              	.LBE986:
 3735              	.LBE985:
 217:../../libDaisy/src/hid/disp/graphics_common.h ****                         width_,
 3736              		.loc 14 217 31 view .LVU868
 3737 02b0 B4F90240 		ldrsh	r4, [r4, #2]
 3738              	.LVL303:
 3739              	.LBB988:
 3740              	.LBB987:
  60:../../libDaisy/src/hid/disp/graphics_common.h ****     int16_t GetBottom() const { return y_ + height_; }
 3741              		.loc 14 60 42 view .LVU869
 3742 02b4 0F44     		add	r7, r7, r1
 3743              	.LBE987:
 3744              	.LBE988:
 3745              	.LBB989:
 3746              	.LBB990:
 3747              	.LBB991:
  32:../../libDaisy/src/hid/disp/graphics_common.h ****     {
 3748              		.loc 14 32 66 view .LVU870
 3749 02b6 0699     		ldr	r1, [sp, #24]
 3750 02b8 8B80     		strh	r3, [r1, #4]	@ movhi
 3751              	.LBE991:
 3752              	.LBE990:
 3753              	.LBE989:
 216:../../libDaisy/src/hid/disp/graphics_common.h ****                         other.y_,
 3754              		.loc 14 216 50 view .LVU871
 3755 02ba FB1A     		subs	r3, r7, r3
 3756              	.LBB1002:
 3757              	.LBB998:
 3758              	.LBB994:
  32:../../libDaisy/src/hid/disp/graphics_common.h ****     {
 3759              		.loc 14 32 66 view .LVU872
 3760 02bc 4C80     		strh	r4, [r1, #2]	@ movhi
ARM GAS  /var/folders/hl/qgbwny5j0fd895c2c41bk3tw0000gp/T//ccFqANMK.s 			page 115


 3761              	.LBE994:
 3762              	.LBE998:
 3763              	.LBE1002:
 3764              	.LBE1101:
 3765              	.LBE1179:
 468:../../libDaisy/src/hid/disp/display.h ****         ((ChildType*)(this))->ChildType::WriteString(str, font, on);
 3766              		.loc 12 468 18 view .LVU873
 3767 02be A4B2     		uxth	r4, r4
 3768              	.LBB1180:
 3769              	.LBB1102:
 216:../../libDaisy/src/hid/disp/graphics_common.h ****                         other.y_,
 3770              		.loc 14 216 50 view .LVU874
 3771 02c0 9FB2     		uxth	r7, r3
 3772              	.LVL304:
 3773              	.LBB1003:
 3774              	.LBI989:
  31:../../libDaisy/src/hid/disp/graphics_common.h ****     : x_(x), y_(y), width_(max(0, width)), height_(max(0, height))
 3775              		.loc 14 31 5 is_stmt 1 view .LVU875
 3776              	.LBB999:
 3777              	.LBB995:
 3778              	.LBB992:
 3779              	.LBI992:
 3780              		.loc 14 261 13 view .LVU876
 3781              	.LBE992:
 3782              	.LBE995:
 3783              	.LBE999:
 3784              	.LBE1003:
 3785              	.LBE1102:
 3786              	.LBE1180:
 3787              		.loc 14 261 41 view .LVU877
 3788              	.LBB1181:
 3789              	.LBB1103:
 3790              	.LBB1004:
 3791              	.LBB1000:
 3792              	.LBB996:
 3793              	.LBB993:
 3794              	.LBI993:
 3795              		.loc 14 261 13 view .LVU878
 3796              	.LBE993:
 3797              	.LBE996:
 3798              	.LBE1000:
 3799              	.LBE1004:
 3800              	.LBE1103:
 3801              	.LBE1181:
 3802              		.loc 14 261 41 view .LVU879
 3803              	.LBB1182:
 3804              	.LBB1104:
 3805              	.LBB1005:
 3806              	.LBB1001:
 3807              	.LBB997:
  32:../../libDaisy/src/hid/disp/graphics_common.h ****     {
 3808              		.loc 14 32 66 is_stmt 0 view .LVU880
 3809 02c2 CA80     		strh	r2, [r1, #6]	@ movhi
 3810 02c4 0F80     		strh	r7, [r1]	@ movhi
 3811              	.LBE997:
  34:../../libDaisy/src/hid/disp/graphics_common.h **** 
 3812              		.loc 14 34 5 view .LVU881
ARM GAS  /var/folders/hl/qgbwny5j0fd895c2c41bk3tw0000gp/T//ccFqANMK.s 			page 116


 3813 02c6 DCE6     		b	.L226
 3814              	.LVL305:
 3815              	.L221:
  34:../../libDaisy/src/hid/disp/graphics_common.h **** 
 3816              		.loc 14 34 5 view .LVU882
 3817              	.LBE1001:
 3818              	.LBE1005:
 225:../../libDaisy/src/hid/disp/graphics_common.h ****                 return {other.x_,
 3819              		.loc 14 225 13 is_stmt 1 view .LVU883
 226:../../libDaisy/src/hid/disp/graphics_common.h ****                         int16_t(other.GetBottom() - height_),
 3820              		.loc 14 226 17 view .LVU884
 3821              	.LBB1006:
 3822              	.LBB1007:
  61:../../libDaisy/src/hid/disp/graphics_common.h ****     int16_t GetCenterX() const { return x_ + width_ / 2; }
 3823              		.loc 14 61 43 is_stmt 0 view .LVU885
 3824 02c8 E788     		ldrh	r7, [r4, #6]
 3825 02ca 6188     		ldrh	r1, [r4, #2]
 3826              	.LVL306:
  61:../../libDaisy/src/hid/disp/graphics_common.h ****     int16_t GetCenterX() const { return x_ + width_ / 2; }
 3827              		.loc 14 61 43 view .LVU886
 3828 02cc 3944     		add	r1, r1, r7
 3829              	.LBE1007:
 3830              	.LBE1006:
 226:../../libDaisy/src/hid/disp/graphics_common.h ****                         int16_t(other.GetBottom() - height_),
 3831              		.loc 14 226 31 view .LVU887
 3832 02ce B4F90070 		ldrsh	r7, [r4]
 227:../../libDaisy/src/hid/disp/graphics_common.h ****                         width_,
 3833              		.loc 14 227 51 view .LVU888
 3834 02d2 081A     		subs	r0, r1, r0
 3835              	.LVL307:
 3836              	.LBB1009:
 3837              	.LBI1006:
  61:../../libDaisy/src/hid/disp/graphics_common.h ****     int16_t GetCenterX() const { return x_ + width_ / 2; }
 3838              		.loc 14 61 13 is_stmt 1 view .LVU889
 3839              	.LBB1008:
  61:../../libDaisy/src/hid/disp/graphics_common.h ****     int16_t GetCenterX() const { return x_ + width_ / 2; }
 3840              		.loc 14 61 33 view .LVU890
  61:../../libDaisy/src/hid/disp/graphics_common.h ****     int16_t GetCenterX() const { return x_ + width_ / 2; }
 3841              		.loc 14 61 33 is_stmt 0 view .LVU891
 3842              	.LBE1008:
 3843              	.LBE1009:
 3844              	.LBB1010:
 3845              	.LBB1011:
 3846              	.LBB1012:
  32:../../libDaisy/src/hid/disp/graphics_common.h ****     {
 3847              		.loc 14 32 66 view .LVU892
 3848 02d4 0699     		ldr	r1, [sp, #24]
 3849              	.LBE1012:
 3850              	.LBE1011:
 3851              	.LBE1010:
 227:../../libDaisy/src/hid/disp/graphics_common.h ****                         width_,
 3852              		.loc 14 227 51 view .LVU893
 3853 02d6 84B2     		uxth	r4, r0
 3854              	.LVL308:
 3855              	.LBB1022:
 3856              	.LBB1018:
 3857              	.LBB1015:
ARM GAS  /var/folders/hl/qgbwny5j0fd895c2c41bk3tw0000gp/T//ccFqANMK.s 			page 117


  32:../../libDaisy/src/hid/disp/graphics_common.h ****     {
 3858              		.loc 14 32 66 view .LVU894
 3859 02d8 0F80     		strh	r7, [r1]	@ movhi
 3860 02da 8B80     		strh	r3, [r1, #4]	@ movhi
 3861              	.LVL309:
  32:../../libDaisy/src/hid/disp/graphics_common.h ****     {
 3862              		.loc 14 32 66 view .LVU895
 3863              	.LBE1015:
 3864              	.LBE1018:
 3865              	.LBI1010:
  31:../../libDaisy/src/hid/disp/graphics_common.h ****     : x_(x), y_(y), width_(max(0, width)), height_(max(0, height))
 3866              		.loc 14 31 5 is_stmt 1 view .LVU896
 3867              	.LBE1022:
 3868              	.LBE1104:
 3869              	.LBE1182:
 468:../../libDaisy/src/hid/disp/display.h ****         ((ChildType*)(this))->ChildType::WriteString(str, font, on);
 3870              		.loc 12 468 18 is_stmt 0 view .LVU897
 3871 02dc BFB2     		uxth	r7, r7
 3872              	.LVL310:
 3873              	.LBB1183:
 3874              	.LBB1105:
 3875              	.LBB1023:
 3876              	.LBB1019:
 3877              	.LBB1016:
  32:../../libDaisy/src/hid/disp/graphics_common.h ****     {
 3878              		.loc 14 32 66 view .LVU898
 3879 02de CA80     		strh	r2, [r1, #6]	@ movhi
 3880 02e0 4C80     		strh	r4, [r1, #2]	@ movhi
 3881              	.LVL311:
 3882              	.LBB1013:
 3883              	.LBI1013:
 3884              		.loc 14 261 13 is_stmt 1 view .LVU899
 3885              	.LBE1013:
 3886              	.LBE1016:
 3887              	.LBE1019:
 3888              	.LBE1023:
 3889              	.LBE1105:
 3890              	.LBE1183:
 3891              		.loc 14 261 41 view .LVU900
 3892              	.LBB1184:
 3893              	.LBB1106:
 3894              	.LBB1024:
 3895              	.LBB1020:
 3896              	.LBB1017:
 3897              	.LBB1014:
 3898              	.LBI1014:
 3899              		.loc 14 261 13 view .LVU901
 3900              	.LBE1014:
 3901              	.LBE1017:
 3902              	.LBE1020:
 3903              	.LBE1024:
 3904              	.LBE1106:
 3905              	.LBE1184:
 3906              		.loc 14 261 41 view .LVU902
 3907              	.LBB1185:
 3908              	.LBB1107:
 3909              	.LBB1025:
ARM GAS  /var/folders/hl/qgbwny5j0fd895c2c41bk3tw0000gp/T//ccFqANMK.s 			page 118


 3910              	.LBB1021:
  34:../../libDaisy/src/hid/disp/graphics_common.h **** 
 3911              		.loc 14 34 5 is_stmt 0 view .LVU903
 3912 02e2 CEE6     		b	.L226
 3913              	.LVL312:
 3914              	.L220:
  34:../../libDaisy/src/hid/disp/graphics_common.h **** 
 3915              		.loc 14 34 5 view .LVU904
 3916              	.LBE1021:
 3917              	.LBE1025:
 235:../../libDaisy/src/hid/disp/graphics_common.h ****                 return {int16_t(x_ + (other.GetCenterX() - GetCenterX())),
 3918              		.loc 14 235 13 is_stmt 1 view .LVU905
 236:../../libDaisy/src/hid/disp/graphics_common.h ****                         int16_t(other.GetBottom() - height_),
 3919              		.loc 14 236 17 view .LVU906
 3920              	.LBB1026:
 3921              	.LBI1026:
  62:../../libDaisy/src/hid/disp/graphics_common.h ****     int16_t GetCenterY() const { return y_ + height_ / 2; }
 3922              		.loc 14 62 13 view .LVU907
 3923              	.LBB1027:
  62:../../libDaisy/src/hid/disp/graphics_common.h ****     int16_t GetCenterY() const { return y_ + height_ / 2; }
 3924              		.loc 14 62 34 view .LVU908
  62:../../libDaisy/src/hid/disp/graphics_common.h ****     int16_t GetCenterY() const { return y_ + height_ / 2; }
 3925              		.loc 14 62 34 is_stmt 0 view .LVU909
 3926              	.LBE1027:
 3927              	.LBE1026:
 3928              	.LBB1029:
 3929              	.LBI1029:
  62:../../libDaisy/src/hid/disp/graphics_common.h ****     int16_t GetCenterY() const { return y_ + height_ / 2; }
 3930              		.loc 14 62 13 is_stmt 1 view .LVU910
 3931              	.LBB1030:
  62:../../libDaisy/src/hid/disp/graphics_common.h ****     int16_t GetCenterY() const { return y_ + height_ / 2; }
 3932              		.loc 14 62 34 view .LVU911
  62:../../libDaisy/src/hid/disp/graphics_common.h ****     int16_t GetCenterY() const { return y_ + height_ / 2; }
 3933              		.loc 14 62 34 is_stmt 0 view .LVU912
 3934              	.LBE1030:
 3935              	.LBE1029:
 3936              	.LBB1031:
 3937              	.LBB1028:
  62:../../libDaisy/src/hid/disp/graphics_common.h ****     int16_t GetCenterY() const { return y_ + height_ / 2; }
 3938              		.loc 14 62 53 view .LVU913
 3939 02e4 B4F90410 		ldrsh	r1, [r4, #4]
 3940              	.LVL313:
  62:../../libDaisy/src/hid/disp/graphics_common.h ****     int16_t GetCenterY() const { return y_ + height_ / 2; }
 3941              		.loc 14 62 44 view .LVU914
 3942 02e8 2788     		ldrh	r7, [r4]
  62:../../libDaisy/src/hid/disp/graphics_common.h ****     int16_t GetCenterY() const { return y_ + height_ / 2; }
 3943              		.loc 14 62 53 view .LVU915
 3944 02ea 0029     		cmp	r1, #0
 3945 02ec B8BF     		it	lt
 3946 02ee 0131     		addlt	r1, r1, #1
  62:../../libDaisy/src/hid/disp/graphics_common.h ****     int16_t GetCenterY() const { return y_ + height_ / 2; }
 3947              		.loc 14 62 44 view .LVU916
 3948 02f0 07EB6107 		add	r7, r7, r1, asr #1
 3949              	.LBE1028:
 3950              	.LBE1031:
 236:../../libDaisy/src/hid/disp/graphics_common.h ****                         int16_t(other.GetBottom() - height_),
 3951              		.loc 14 236 58 view .LVU917
ARM GAS  /var/folders/hl/qgbwny5j0fd895c2c41bk3tw0000gp/T//ccFqANMK.s 			page 119


 3952 02f4 A7EB6307 		sub	r7, r7, r3, asr #1
 3953              	.L286:
 3954              	.LBB1032:
 3955              	.LBB1033:
  61:../../libDaisy/src/hid/disp/graphics_common.h ****     int16_t GetCenterX() const { return x_ + width_ / 2; }
 3956              		.loc 14 61 43 view .LVU918
 3957 02f8 B4F802C0 		ldrh	ip, [r4, #2]
 3958              	.LBE1033:
 3959              	.LBE1032:
 236:../../libDaisy/src/hid/disp/graphics_common.h ****                         int16_t(other.GetBottom() - height_),
 3960              		.loc 14 236 58 view .LVU919
 3961 02fc BFB2     		uxth	r7, r7
 3962              	.LVL314:
 3963              	.LBB1036:
 3964              	.LBI1032:
  61:../../libDaisy/src/hid/disp/graphics_common.h ****     int16_t GetCenterX() const { return x_ + width_ / 2; }
 3965              		.loc 14 61 13 is_stmt 1 view .LVU920
 3966              	.LBB1034:
  61:../../libDaisy/src/hid/disp/graphics_common.h ****     int16_t GetCenterX() const { return x_ + width_ / 2; }
 3967              		.loc 14 61 33 view .LVU921
  61:../../libDaisy/src/hid/disp/graphics_common.h ****     int16_t GetCenterX() const { return x_ + width_ / 2; }
 3968              		.loc 14 61 43 is_stmt 0 view .LVU922
 3969 02fe E488     		ldrh	r4, [r4, #6]
 3970              	.LVL315:
  61:../../libDaisy/src/hid/disp/graphics_common.h ****     int16_t GetCenterX() const { return x_ + width_ / 2; }
 3971              		.loc 14 61 43 view .LVU923
 3972              	.LBE1034:
 3973              	.LBE1036:
 3974              	.LBB1037:
 3975              	.LBB1038:
 3976              	.LBB1039:
  32:../../libDaisy/src/hid/disp/graphics_common.h ****     {
 3977              		.loc 14 32 66 view .LVU924
 3978 0300 0699     		ldr	r1, [sp, #24]
 3979              	.LBE1039:
 3980              	.LBE1038:
 3981              	.LBE1037:
 3982              	.LBB1051:
 3983              	.LBB1035:
  61:../../libDaisy/src/hid/disp/graphics_common.h ****     int16_t GetCenterX() const { return x_ + width_ / 2; }
 3984              		.loc 14 61 43 view .LVU925
 3985 0302 6444     		add	r4, r4, ip
 3986              	.LBE1035:
 3987              	.LBE1051:
 3988              	.LBB1052:
 3989              	.LBB1046:
 3990              	.LBB1042:
  32:../../libDaisy/src/hid/disp/graphics_common.h ****     {
 3991              		.loc 14 32 66 view .LVU926
 3992 0304 8B80     		strh	r3, [r1, #4]	@ movhi
 3993              	.LBE1042:
 3994              	.LBE1046:
 3995              	.LBE1052:
 237:../../libDaisy/src/hid/disp/graphics_common.h ****                         width_,
 3996              		.loc 14 237 51 view .LVU927
 3997 0306 201A     		subs	r0, r4, r0
 3998              	.LBB1053:
ARM GAS  /var/folders/hl/qgbwny5j0fd895c2c41bk3tw0000gp/T//ccFqANMK.s 			page 120


 3999              	.LBB1047:
 4000              	.LBB1043:
  32:../../libDaisy/src/hid/disp/graphics_common.h ****     {
 4001              		.loc 14 32 66 view .LVU928
 4002 0308 CA80     		strh	r2, [r1, #6]	@ movhi
 4003 030a 0F80     		strh	r7, [r1]	@ movhi
 4004              	.LBE1043:
 4005              	.LBE1047:
 4006              	.LBE1053:
 237:../../libDaisy/src/hid/disp/graphics_common.h ****                         width_,
 4007              		.loc 14 237 51 view .LVU929
 4008 030c 84B2     		uxth	r4, r0
 4009              	.LVL316:
 4010              	.LBB1054:
 4011              	.LBI1037:
  31:../../libDaisy/src/hid/disp/graphics_common.h ****     : x_(x), y_(y), width_(max(0, width)), height_(max(0, height))
 4012              		.loc 14 31 5 is_stmt 1 view .LVU930
 4013              	.LBB1048:
 4014              	.LBB1044:
  32:../../libDaisy/src/hid/disp/graphics_common.h ****     {
 4015              		.loc 14 32 66 is_stmt 0 view .LVU931
 4016 030e 4C80     		strh	r4, [r1, #2]	@ movhi
 4017              	.LVL317:
 4018              	.LBB1040:
 4019              	.LBI1040:
 4020              		.loc 14 261 13 is_stmt 1 view .LVU932
 4021              	.LBE1040:
 4022              	.LBE1044:
 4023              	.LBE1048:
 4024              	.LBE1054:
 4025              	.LBE1107:
 4026              	.LBE1185:
 4027              		.loc 14 261 41 view .LVU933
 4028              	.LBB1186:
 4029              	.LBB1108:
 4030              	.LBB1055:
 4031              	.LBB1049:
 4032              	.LBB1045:
 4033              	.LBB1041:
 4034              	.LBI1041:
 4035              		.loc 14 261 13 view .LVU934
 4036              	.LBE1041:
 4037              	.LBE1045:
 4038              	.LBE1049:
 4039              	.LBE1055:
 4040              	.LBE1108:
 4041              	.LBE1186:
 4042              		.loc 14 261 41 view .LVU935
 4043              	.LBB1187:
 4044              	.LBB1109:
 4045              	.LBB1056:
 4046              	.LBB1050:
  34:../../libDaisy/src/hid/disp/graphics_common.h **** 
 4047              		.loc 14 34 5 is_stmt 0 view .LVU936
 4048 0310 B7E6     		b	.L226
 4049              	.LVL318:
 4050              	.L219:
ARM GAS  /var/folders/hl/qgbwny5j0fd895c2c41bk3tw0000gp/T//ccFqANMK.s 			page 121


  34:../../libDaisy/src/hid/disp/graphics_common.h **** 
 4051              		.loc 14 34 5 view .LVU937
 4052              	.LBE1050:
 4053              	.LBE1056:
 230:../../libDaisy/src/hid/disp/graphics_common.h ****                 return {int16_t(other.GetRight() - width_),
 4054              		.loc 14 230 13 is_stmt 1 view .LVU938
 231:../../libDaisy/src/hid/disp/graphics_common.h ****                         int16_t(other.GetBottom() - height_),
 4055              		.loc 14 231 17 view .LVU939
 4056              	.LBB1057:
 4057              	.LBI1057:
  60:../../libDaisy/src/hid/disp/graphics_common.h ****     int16_t GetBottom() const { return y_ + height_; }
 4058              		.loc 14 60 13 view .LVU940
 4059              	.LBB1058:
  60:../../libDaisy/src/hid/disp/graphics_common.h ****     int16_t GetBottom() const { return y_ + height_; }
 4060              		.loc 14 60 32 view .LVU941
  60:../../libDaisy/src/hid/disp/graphics_common.h ****     int16_t GetBottom() const { return y_ + height_; }
 4061              		.loc 14 60 42 is_stmt 0 view .LVU942
 4062 0312 2788     		ldrh	r7, [r4]
 4063 0314 A188     		ldrh	r1, [r4, #4]
 4064              	.LVL319:
  60:../../libDaisy/src/hid/disp/graphics_common.h ****     int16_t GetBottom() const { return y_ + height_; }
 4065              		.loc 14 60 42 view .LVU943
 4066 0316 0F44     		add	r7, r7, r1
 4067              	.LBE1058:
 4068              	.LBE1057:
 231:../../libDaisy/src/hid/disp/graphics_common.h ****                         int16_t(other.GetBottom() - height_),
 4069              		.loc 14 231 50 view .LVU944
 4070 0318 FF1A     		subs	r7, r7, r3
 4071 031a EDE7     		b	.L286
 4072              	.L299:
 4073              		.align	2
 4074              	.L298:
 4075 031c 00000000 		.word	_ZNK5daisy11OledDisplayINS_13SSD130xDriverILj128ELj64ENS_24SSD130x4WireSpiTransportEEEE5Widt
 4076 0320 00000000 		.word	_ZNK5daisy11OledDisplayINS_13SSD130xDriverILj128ELj64ENS_24SSD130x4WireSpiTransportEEEE6Heig
 4077              	.LVL320:
 4078              	.L218:
 240:../../libDaisy/src/hid/disp/graphics_common.h ****                 return {other.x_,
 4079              		.loc 14 240 13 is_stmt 1 view .LVU945
 241:../../libDaisy/src/hid/disp/graphics_common.h ****                         int16_t(y_ + (other.GetCenterY() - GetCenterY())),
 4080              		.loc 14 241 17 view .LVU946
 4081              	.LBB1059:
 4082              	.LBB1060:
  63:../../libDaisy/src/hid/disp/graphics_common.h **** 
 4083              		.loc 14 63 54 is_stmt 0 view .LVU947
 4084 0324 B4F90610 		ldrsh	r1, [r4, #6]
 4085              	.LVL321:
  63:../../libDaisy/src/hid/disp/graphics_common.h **** 
 4086              		.loc 14 63 54 view .LVU948
 4087              	.LBE1060:
 4088              	.LBE1059:
 241:../../libDaisy/src/hid/disp/graphics_common.h ****                         int16_t(y_ + (other.GetCenterY() - GetCenterY())),
 4089              		.loc 14 241 31 view .LVU949
 4090 0328 B4F90070 		ldrsh	r7, [r4]
 4091              	.LVL322:
 4092              	.LBB1065:
 4093              	.LBI1059:
  63:../../libDaisy/src/hid/disp/graphics_common.h **** 
ARM GAS  /var/folders/hl/qgbwny5j0fd895c2c41bk3tw0000gp/T//ccFqANMK.s 			page 122


 4094              		.loc 14 63 13 is_stmt 1 view .LVU950
 4095              	.LBB1061:
  63:../../libDaisy/src/hid/disp/graphics_common.h **** 
 4096              		.loc 14 63 34 view .LVU951
  63:../../libDaisy/src/hid/disp/graphics_common.h **** 
 4097              		.loc 14 63 34 is_stmt 0 view .LVU952
 4098              	.LBE1061:
 4099              	.LBE1065:
 4100              	.LBB1066:
 4101              	.LBI1066:
  63:../../libDaisy/src/hid/disp/graphics_common.h **** 
 4102              		.loc 14 63 13 is_stmt 1 view .LVU953
 4103              	.LBB1067:
  63:../../libDaisy/src/hid/disp/graphics_common.h **** 
 4104              		.loc 14 63 34 view .LVU954
  63:../../libDaisy/src/hid/disp/graphics_common.h **** 
 4105              		.loc 14 63 34 is_stmt 0 view .LVU955
 4106              	.LBE1067:
 4107              	.LBE1066:
 4108              	.LBB1068:
 4109              	.LBB1062:
  63:../../libDaisy/src/hid/disp/graphics_common.h **** 
 4110              		.loc 14 63 54 view .LVU956
 4111 032c 0029     		cmp	r1, #0
  63:../../libDaisy/src/hid/disp/graphics_common.h **** 
 4112              		.loc 14 63 44 view .LVU957
 4113 032e 6488     		ldrh	r4, [r4, #2]
 4114              	.LVL323:
  63:../../libDaisy/src/hid/disp/graphics_common.h **** 
 4115              		.loc 14 63 44 view .LVU958
 4116              	.LBE1062:
 4117              	.LBE1068:
 4118              	.LBB1069:
 4119              	.LBB1070:
 4120              	.LBB1071:
  32:../../libDaisy/src/hid/disp/graphics_common.h ****     {
 4121              		.loc 14 32 66 view .LVU959
 4122 0330 0698     		ldr	r0, [sp, #24]
 4123              	.LBE1071:
 4124              	.LBE1070:
 4125              	.LBE1069:
 4126              	.LBB1083:
 4127              	.LBB1063:
  63:../../libDaisy/src/hid/disp/graphics_common.h **** 
 4128              		.loc 14 63 54 view .LVU960
 4129 0332 B8BF     		it	lt
 4130 0334 0131     		addlt	r1, r1, #1
 4131              	.LBE1063:
 4132              	.LBE1083:
 4133              	.LBB1084:
 4134              	.LBB1078:
 4135              	.LBB1074:
  32:../../libDaisy/src/hid/disp/graphics_common.h ****     {
 4136              		.loc 14 32 66 view .LVU961
 4137 0336 C280     		strh	r2, [r0, #6]	@ movhi
 4138              	.LBE1074:
 4139              	.LBE1078:
ARM GAS  /var/folders/hl/qgbwny5j0fd895c2c41bk3tw0000gp/T//ccFqANMK.s 			page 123


 4140              	.LBE1084:
 4141              	.LBB1085:
 4142              	.LBB1064:
  63:../../libDaisy/src/hid/disp/graphics_common.h **** 
 4143              		.loc 14 63 44 view .LVU962
 4144 0338 04EB6104 		add	r4, r4, r1, asr #1
 4145              	.LBE1064:
 4146              	.LBE1085:
 4147              	.LBB1086:
 4148              	.LBB1079:
 4149              	.LBB1075:
  32:../../libDaisy/src/hid/disp/graphics_common.h ****     {
 4150              		.loc 14 32 66 view .LVU963
 4151 033c 0780     		strh	r7, [r0]	@ movhi
 4152 033e 8380     		strh	r3, [r0, #4]	@ movhi
 4153              	.LBE1075:
 4154              	.LBE1079:
 4155              	.LBE1086:
 4156              	.LBE1109:
 4157              	.LBE1187:
 468:../../libDaisy/src/hid/disp/display.h ****         ((ChildType*)(this))->ChildType::WriteString(str, font, on);
 4158              		.loc 12 468 18 view .LVU964
 4159 0340 BFB2     		uxth	r7, r7
 4160              	.LBB1188:
 4161              	.LBB1110:
 242:../../libDaisy/src/hid/disp/graphics_common.h ****                         width_,
 4162              		.loc 14 242 58 view .LVU965
 4163 0342 A4EB5202 		sub	r2, r4, r2, lsr #1
 4164 0346 94B2     		uxth	r4, r2
 4165              	.LVL324:
 4166              	.LBB1087:
 4167              	.LBI1069:
  31:../../libDaisy/src/hid/disp/graphics_common.h ****     : x_(x), y_(y), width_(max(0, width)), height_(max(0, height))
 4168              		.loc 14 31 5 is_stmt 1 view .LVU966
 4169              	.LBB1080:
 4170              	.LBB1076:
  32:../../libDaisy/src/hid/disp/graphics_common.h ****     {
 4171              		.loc 14 32 66 is_stmt 0 view .LVU967
 4172 0348 4480     		strh	r4, [r0, #2]	@ movhi
 4173              	.LVL325:
 4174              	.LBB1072:
 4175              	.LBI1072:
 4176              		.loc 14 261 13 is_stmt 1 view .LVU968
 4177              	.LBE1072:
 4178              	.LBE1076:
 4179              	.LBE1080:
 4180              	.LBE1087:
 4181              	.LBE1110:
 4182              	.LBE1188:
 4183              		.loc 14 261 41 view .LVU969
 4184              	.LBB1189:
 4185              	.LBB1111:
 4186              	.LBB1088:
 4187              	.LBB1081:
 4188              	.LBB1077:
 4189              	.LBB1073:
 4190              	.LBI1073:
ARM GAS  /var/folders/hl/qgbwny5j0fd895c2c41bk3tw0000gp/T//ccFqANMK.s 			page 124


 4191              		.loc 14 261 13 view .LVU970
 4192              	.LBE1073:
 4193              	.LBE1077:
 4194              	.LBE1081:
 4195              	.LBE1088:
 4196              	.LBE1111:
 4197              	.LBE1189:
 4198              		.loc 14 261 41 view .LVU971
 4199              	.LBB1190:
 4200              	.LBB1112:
 4201              	.LBB1089:
 4202              	.LBB1082:
  34:../../libDaisy/src/hid/disp/graphics_common.h **** 
 4203              		.loc 14 34 5 is_stmt 0 view .LVU972
 4204 034a 9AE6     		b	.L226
 4205              	.LVL326:
 4206              	.L246:
  34:../../libDaisy/src/hid/disp/graphics_common.h **** 
 4207              		.loc 14 34 5 view .LVU973
 4208              	.LBE1082:
 4209              	.LBE1089:
 4210              	.LBE1112:
 4211              	.LBE1190:
 4212              	.LBB1191:
 4213              	.LBB1169:
 4214              	.LBB1166:
 4215              	.LBB1165:
 402:../../libDaisy/src/hid/disp/display.h **** 
 4216              		.loc 12 402 20 view .LVU974
 4217 034c 4FF0000B 		mov	fp, #0
 4218              	.LVL327:
 402:../../libDaisy/src/hid/disp/display.h **** 
 4219              		.loc 12 402 20 view .LVU975
 4220 0350 6BE7     		b	.L244
 4221              	.LVL328:
 4222              	.L291:
 405:../../libDaisy/src/hid/disp/display.h ****            || Height() < (currentY_ + font.FontHeight))
 4223              		.loc 12 405 17 view .LVU976
 4224 0352 4046     		mov	r0, r8
 4225 0354 9847     		blx	r3
 4226              	.LVL329:
 4227 0356 D5E6     		b	.L245
 4228              	.L292:
 406:../../libDaisy/src/hid/disp/display.h ****         {
 4229              		.loc 12 406 21 view .LVU977
 4230 0358 4046     		mov	r0, r8
 4231 035a 9847     		blx	r3
 4232              	.LVL330:
 4233 035c E0E6     		b	.L247
 4234              	.LVL331:
 4235              	.L296:
 4236              	.LBB1163:
 4237              	.LBB1159:
 174:../../libDaisy/src/hid/disp/display.h ****     }
 4238              		.loc 12 174 33 view .LVU978
 4239 035e 4046     		mov	r0, r8
 4240 0360 9847     		blx	r3
ARM GAS  /var/folders/hl/qgbwny5j0fd895c2c41bk3tw0000gp/T//ccFqANMK.s 			page 125


 4241              	.LVL332:
 4242 0362 53E7     		b	.L261
 4243              	.LVL333:
 4244              	.L294:
 173:../../libDaisy/src/hid/disp/display.h ****         currentY_ = (y >= Height()) ? Height() - 1 : y;
 4245              		.loc 12 173 32 view .LVU979
 4246 0364 4046     		mov	r0, r8
 4247 0366 9847     		blx	r3
 4248              	.LVL334:
 173:../../libDaisy/src/hid/disp/display.h ****         currentY_ = (y >= Height()) ? Height() - 1 : y;
 4249              		.loc 12 173 44 view .LVU980
 4250 0368 D8F80020 		ldr	r2, [r8]
 4251 036c 3EE7     		b	.L258
 4252              	.LVL335:
 4253              	.L248:
 173:../../libDaisy/src/hid/disp/display.h ****         currentY_ = (y >= Height()) ? Height() - 1 : y;
 4254              		.loc 12 173 44 view .LVU981
 4255              	.LBE1159:
 4256              	.LBE1163:
 434:../../libDaisy/src/hid/disp/display.h **** 
 4257              		.loc 12 434 19 view .LVU982
 4258 036e B8F804A0 		ldrh	r10, [r8, #4]
 4259 0372 30E7     		b	.L250
 4260              	.LVL336:
 4261              	.L297:
 4262              	.LBB1164:
 4263              	.LBB1160:
 174:../../libDaisy/src/hid/disp/display.h ****     }
 4264              		.loc 12 174 45 view .LVU983
 4265 0374 4046     		mov	r0, r8
 4266 0376 9847     		blx	r3
 4267              	.LVL337:
 174:../../libDaisy/src/hid/disp/display.h ****     }
 4268              		.loc 12 174 19 view .LVU984
 4269 0378 0138     		subs	r0, r0, #1
 4270 037a 83B2     		uxth	r3, r0
 4271 037c 0293     		str	r3, [sp, #8]
 4272              	.LVL338:
 174:../../libDaisy/src/hid/disp/display.h ****     }
 4273              		.loc 12 174 19 view .LVU985
 4274 037e 51E7     		b	.L262
 4275              	.LVL339:
 4276              	.L295:
 173:../../libDaisy/src/hid/disp/display.h ****         currentY_ = (y >= Height()) ? Height() - 1 : y;
 4277              		.loc 12 173 43 view .LVU986
 4278 0380 4046     		mov	r0, r8
 4279 0382 9847     		blx	r3
 4280              	.LVL340:
 173:../../libDaisy/src/hid/disp/display.h ****         currentY_ = (y >= Height()) ? Height() - 1 : y;
 4281              		.loc 12 173 19 view .LVU987
 4282 0384 0138     		subs	r0, r0, #1
 174:../../libDaisy/src/hid/disp/display.h ****     }
 4283              		.loc 12 174 34 view .LVU988
 4284 0386 D8F80020 		ldr	r2, [r8]
 173:../../libDaisy/src/hid/disp/display.h ****         currentY_ = (y >= Height()) ? Height() - 1 : y;
 4285              		.loc 12 173 19 view .LVU989
 4286 038a 85B2     		uxth	r5, r0
ARM GAS  /var/folders/hl/qgbwny5j0fd895c2c41bk3tw0000gp/T//ccFqANMK.s 			page 126


 4287              	.LVL341:
 173:../../libDaisy/src/hid/disp/display.h ****         currentY_ = (y >= Height()) ? Height() - 1 : y;
 4288              		.loc 12 173 19 view .LVU990
 4289 038c 36E7     		b	.L259
 4290              	.LVL342:
 4291              	.L215:
 173:../../libDaisy/src/hid/disp/display.h ****         currentY_ = (y >= Height()) ? Height() - 1 : y;
 4292              		.loc 12 173 19 view .LVU991
 4293              	.LBE1160:
 4294              	.LBE1164:
 4295              	.LBE1165:
 4296              	.LBE1166:
 4297              	.LBE1169:
 4298              	.LBE1191:
 4299              	.LBB1192:
 4300              	.LBB1113:
 255:../../libDaisy/src/hid/disp/graphics_common.h ****         }
 4301              		.loc 14 255 13 is_stmt 1 view .LVU992
 255:../../libDaisy/src/hid/disp/graphics_common.h ****         }
 4302              		.loc 14 255 22 view .LVU993
 4303              	.LBB1090:
 4304              	.LBI1090:
  24:../../libDaisy/src/hid/disp/graphics_common.h **** 
 4305              		.loc 14 24 5 view .LVU994
 4306              	.LBE1090:
 4307              	.LBE1113:
 4308              	.LBE1192:
 4309              	.LBB1193:
 4310              	.LBB1119:
 173:../../libDaisy/src/hid/disp/display.h ****         currentY_ = (y >= Height()) ? Height() - 1 : y;
 4311              		.loc 12 173 33 is_stmt 0 view .LVU995
 4312 038e D8F80030 		ldr	r3, [r8]
 4313              	.LBE1119:
 4314              	.LBE1193:
 4315              	.LBB1194:
 4316              	.LBB1114:
 4317              	.LBB1092:
 4318              	.LBB1091:
  24:../../libDaisy/src/hid/disp/graphics_common.h **** 
 4319              		.loc 14 24 53 view .LVU996
 4320 0392 0024     		movs	r4, #0
 4321              	.LVL343:
  24:../../libDaisy/src/hid/disp/graphics_common.h **** 
 4322              		.loc 14 24 53 view .LVU997
 4323 0394 069A     		ldr	r2, [sp, #24]
 4324 0396 1349     		ldr	r1, .L300
 4325              	.LVL344:
  24:../../libDaisy/src/hid/disp/graphics_common.h **** 
 4326              		.loc 14 24 53 view .LVU998
 4327 0398 1480     		strh	r4, [r2]	@ movhi
 4328 039a 5480     		strh	r4, [r2, #2]	@ movhi
 4329 039c 9480     		strh	r4, [r2, #4]	@ movhi
 4330 039e D480     		strh	r4, [r2, #6]	@ movhi
 4331              	.LVL345:
  24:../../libDaisy/src/hid/disp/graphics_common.h **** 
 4332              		.loc 14 24 53 view .LVU999
 4333              	.LBE1091:
ARM GAS  /var/folders/hl/qgbwny5j0fd895c2c41bk3tw0000gp/T//ccFqANMK.s 			page 127


 4334              	.LBE1092:
 4335              	.LBE1114:
 4336              	.LBE1194:
  56:../../libDaisy/src/hid/disp/graphics_common.h ****     int16_t GetY() const { return y_; }
 4337              		.loc 14 56 28 is_stmt 1 view .LVU1000
  57:../../libDaisy/src/hid/disp/graphics_common.h ****     int16_t GetWidth() const { return width_; }
 4338              		.loc 14 57 28 view .LVU1001
 4339              	.LBB1195:
 171:../../libDaisy/src/hid/disp/display.h ****     {
 4340              		.loc 12 171 10 view .LVU1002
 4341              	.LBB1120:
 173:../../libDaisy/src/hid/disp/display.h ****         currentY_ = (y >= Height()) ? Height() - 1 : y;
 4342              		.loc 12 173 9 view .LVU1003
 173:../../libDaisy/src/hid/disp/display.h ****         currentY_ = (y >= Height()) ? Height() - 1 : y;
 4343              		.loc 12 173 33 is_stmt 0 view .LVU1004
 4344 03a0 DA68     		ldr	r2, [r3, #12]
 4345 03a2 0191     		str	r1, [sp, #4]
 4346 03a4 8A42     		cmp	r2, r1
 4347 03a6 05D0     		beq	.L233
 4348 03a8 2746     		mov	r7, r4
 4349              	.LVL346:
 4350              	.L234:
 173:../../libDaisy/src/hid/disp/display.h ****         currentY_ = (y >= Height()) ? Height() - 1 : y;
 4351              		.loc 12 173 32 view .LVU1005
 4352 03aa 4046     		mov	r0, r8
 4353 03ac 9047     		blx	r2
 4354              	.LVL347:
 173:../../libDaisy/src/hid/disp/display.h ****         currentY_ = (y >= Height()) ? Height() - 1 : y;
 4355              		.loc 12 173 44 view .LVU1006
 4356 03ae D8F80030 		ldr	r3, [r8]
 4357 03b2 70E6     		b	.L235
 4358              	.LVL348:
 4359              	.L233:
 174:../../libDaisy/src/hid/disp/display.h ****     }
 4360              		.loc 12 174 34 view .LVU1007
 4361 03b4 9B68     		ldr	r3, [r3, #8]
 4362 03b6 0C4A     		ldr	r2, .L300+4
 173:../../libDaisy/src/hid/disp/display.h ****         currentY_ = (y >= Height()) ? Height() - 1 : y;
 4363              		.loc 12 173 19 view .LVU1008
 4364 03b8 A8F80440 		strh	r4, [r8, #4]	@ movhi
 174:../../libDaisy/src/hid/disp/display.h ****     }
 4365              		.loc 12 174 9 is_stmt 1 view .LVU1009
 4366 03bc 9342     		cmp	r3, r2
 4367 03be 0392     		str	r2, [sp, #12]
 4368 03c0 3FF484AE 		beq	.L240
 4369              	.LVL349:
 4370              	.L266:
 174:../../libDaisy/src/hid/disp/display.h ****     }
 4371              		.loc 12 174 33 is_stmt 0 view .LVU1010
 4372 03c4 4046     		mov	r0, r8
 4373 03c6 9847     		blx	r3
 4374              	.LVL350:
 4375 03c8 76E6     		b	.L238
 4376              	.L290:
 174:../../libDaisy/src/hid/disp/display.h ****     }
 4377              		.loc 12 174 45 view .LVU1011
 4378 03ca 4046     		mov	r0, r8
ARM GAS  /var/folders/hl/qgbwny5j0fd895c2c41bk3tw0000gp/T//ccFqANMK.s 			page 128


 4379 03cc 9847     		blx	r3
 4380              	.LVL351:
 174:../../libDaisy/src/hid/disp/display.h ****     }
 4381              		.loc 12 174 19 view .LVU1012
 4382 03ce 0138     		subs	r0, r0, #1
 4383 03d0 84B2     		uxth	r4, r0
 4384 03d2 7BE6     		b	.L240
 4385              	.L289:
 173:../../libDaisy/src/hid/disp/display.h ****         currentY_ = (y >= Height()) ? Height() - 1 : y;
 4386              		.loc 12 173 43 view .LVU1013
 4387 03d4 4046     		mov	r0, r8
 4388 03d6 9047     		blx	r2
 4389              	.LVL352:
 173:../../libDaisy/src/hid/disp/display.h ****         currentY_ = (y >= Height()) ? Height() - 1 : y;
 4390              		.loc 12 173 19 view .LVU1014
 4391 03d8 0138     		subs	r0, r0, #1
 174:../../libDaisy/src/hid/disp/display.h ****     }
 4392              		.loc 12 174 34 view .LVU1015
 4393 03da D8F80030 		ldr	r3, [r8]
 173:../../libDaisy/src/hid/disp/display.h ****         currentY_ = (y >= Height()) ? Height() - 1 : y;
 4394              		.loc 12 173 19 view .LVU1016
 4395 03de 87B2     		uxth	r7, r0
 4396 03e0 61E6     		b	.L236
 4397              	.L301:
 4398 03e2 00BF     		.align	2
 4399              	.L300:
 4400 03e4 00000000 		.word	_ZNK5daisy11OledDisplayINS_13SSD130xDriverILj128ELj64ENS_24SSD130x4WireSpiTransportEEEE5Widt
 4401 03e8 00000000 		.word	_ZNK5daisy11OledDisplayINS_13SSD130xDriverILj128ELj64ENS_24SSD130x4WireSpiTransportEEEE6Heig
 4402              	.LBE1120:
 4403              	.LBE1195:
 4404              		.cfi_endproc
 4405              	.LFE2615:
 4407              		.section	.text._ZN5daisy25OneBitGraphicsDisplayImplINS_11OledDisplayINS_13SSD130xDriverILj128ELj64
 4408              		.align	1
 4409              		.p2align 2,,3
 4410              		.weak	_ZN5daisy25OneBitGraphicsDisplayImplINS_11OledDisplayINS_13SSD130xDriverILj128ELj64ENS_24SSD
 4411              		.syntax unified
 4412              		.thumb
 4413              		.thumb_func
 4414              		.fpu fpv5-d16
 4416              	_ZN5daisy25OneBitGraphicsDisplayImplINS_11OledDisplayINS_13SSD130xDriverILj128ELj64ENS_24SSD130x4Wi
 4417              	.LVL353:
 4418              	.LFB2613:
 257:../../libDaisy/src/hid/disp/display.h ****                   uint_fast8_t y1,
 4419              		.loc 12 257 10 is_stmt 1 view -0
 4420              		.cfi_startproc
 4421              		@ args = 12, pretend = 0, frame = 24
 4422              		@ frame_needed = 0, uses_anonymous_args = 0
 257:../../libDaisy/src/hid/disp/display.h ****                   uint_fast8_t y1,
 4423              		.loc 12 257 10 is_stmt 0 view .LVU1018
 4424 0000 2DE9F04F 		push	{r4, r5, r6, r7, r8, r9, r10, fp, lr}
 4425              		.cfi_def_cfa_offset 36
 4426              		.cfi_offset 4, -36
 4427              		.cfi_offset 5, -32
 4428              		.cfi_offset 6, -28
 4429              		.cfi_offset 7, -24
 4430              		.cfi_offset 8, -20
ARM GAS  /var/folders/hl/qgbwny5j0fd895c2c41bk3tw0000gp/T//ccFqANMK.s 			page 129


 4431              		.cfi_offset 9, -16
 4432              		.cfi_offset 10, -12
 4433              		.cfi_offset 11, -8
 4434              		.cfi_offset 14, -4
 4435 0004 87B0     		sub	sp, sp, #28
 4436              		.cfi_def_cfa_offset 64
 257:../../libDaisy/src/hid/disp/display.h ****                   uint_fast8_t y1,
 4437              		.loc 12 257 10 view .LVU1019
 4438 0006 9DF84850 		ldrb	r5, [sp, #72]	@ zero_extendqisi2
 4439 000a 109C     		ldr	r4, [sp, #64]
 4440 000c 2E46     		mov	r6, r5
 4441 000e 0195     		str	r5, [sp, #4]
 4442 0010 9DF84450 		ldrb	r5, [sp, #68]	@ zero_extendqisi2
 4443              	.LBB1265:
 264:../../libDaisy/src/hid/disp/display.h ****         {
 4444              		.loc 12 264 9 view .LVU1020
 4445 0014 9EB3     		cbz	r6, .L303
 4446              	.LVL354:
 264:../../libDaisy/src/hid/disp/display.h ****         {
 4447              		.loc 12 264 9 view .LVU1021
 4448              	.LBE1265:
 4449              	.LBB1387:
 4450              	.LBB1388:
 266:../../libDaisy/src/hid/disp/display.h ****             {
 4451              		.loc 12 266 40 is_stmt 1 view .LVU1022
 4452 0016 9942     		cmp	r1, r3
 4453 0018 2ED8     		bhi	.L302
 4454 001a 9946     		mov	r9, r3
 4455              	.LVL355:
 4456              	.L306:
 4457              	.LBB1389:
 268:../../libDaisy/src/hid/disp/display.h ****                 {
 4458              		.loc 12 268 44 view .LVU1023
 4459 001c A242     		cmp	r2, r4
 4460 001e 28D8     		bhi	.L309
 4461              	.LBB1390:
 4462              	.LBB1391:
 4463              	.LBB1392:
 254:../../libDaisy/src/dev/oled_ssd130x.h ****             return;
 4464              		.loc 11 254 14 is_stmt 0 view .LVU1024
 4465 0020 7F29     		cmp	r1, #127
 4466 0022 1646     		mov	r6, r2
 4467 0024 94BF     		ite	ls
 4468 0026 0023     		movls	r3, #0
 4469 0028 0123     		movhi	r3, #1
 4470 002a 08E0     		b	.L310
 4471              	.LVL356:
 4472              	.L393:
 257:../../libDaisy/src/dev/oled_ssd130x.h ****         else
 4473              		.loc 11 257 42 view .LVU1025
 4474 002c 9CF81480 		ldrb	r8, [ip, #20]	@ zero_extendqisi2
 4475 0030 4EEA080E 		orr	lr, lr, r8
 4476 0034 8CF814E0 		strb	lr, [ip, #20]
 4477              	.LVL357:
 4478              	.L307:
 257:../../libDaisy/src/dev/oled_ssd130x.h ****         else
 4479              		.loc 11 257 42 view .LVU1026
ARM GAS  /var/folders/hl/qgbwny5j0fd895c2c41bk3tw0000gp/T//ccFqANMK.s 			page 130


 4480              	.LBE1392:
 4481              	.LBE1391:
 4482              	.LBE1390:
 268:../../libDaisy/src/hid/disp/display.h ****                 {
 4483              		.loc 12 268 17 is_stmt 1 view .LVU1027
 4484 0038 0136     		adds	r6, r6, #1
 4485              	.LVL358:
 268:../../libDaisy/src/hid/disp/display.h ****                 {
 4486              		.loc 12 268 44 view .LVU1028
 4487 003a B442     		cmp	r4, r6
 4488 003c 19D3     		bcc	.L309
 4489              	.L310:
 4490              	.LVL359:
 4491              	.LBB1406:
 4492              	.LBI1390:
  42:../../libDaisy/src/hid/disp/oled_display.h ****     {
 4493              		.loc 10 42 10 view .LVU1029
 4494              	.LBB1403:
 4495              	.LBI1391:
 252:../../libDaisy/src/dev/oled_ssd130x.h ****     {
 4496              		.loc 11 252 10 view .LVU1030
 4497              	.LBB1400:
 254:../../libDaisy/src/dev/oled_ssd130x.h ****             return;
 4498              		.loc 11 254 9 is_stmt 0 view .LVU1031
 4499 003e 3F2E     		cmp	r6, #63
 4500 0040 FAD8     		bhi	.L307
 254:../../libDaisy/src/dev/oled_ssd130x.h ****             return;
 4501              		.loc 11 254 9 view .LVU1032
 4502 0042 002B     		cmp	r3, #0
 4503 0044 F8D1     		bne	.L307
 4504              	.LVL360:
 4505              	.LBB1393:
 4506              	.LBI1393:
 252:../../libDaisy/src/dev/oled_ssd130x.h ****     {
 4507              		.loc 11 252 10 is_stmt 1 view .LVU1033
 252:../../libDaisy/src/dev/oled_ssd130x.h ****     {
 4508              		.loc 11 252 10 is_stmt 0 view .LVU1034
 4509              	.LBE1393:
 257:../../libDaisy/src/dev/oled_ssd130x.h ****         else
 4510              		.loc 11 257 28 view .LVU1035
 4511 0046 4FEAD60C 		lsr	ip, r6, #3
 257:../../libDaisy/src/dev/oled_ssd130x.h ****         else
 4512              		.loc 11 257 54 view .LVU1036
 4513 004a 06F0070E 		and	lr, r6, #7
 257:../../libDaisy/src/dev/oled_ssd130x.h ****         else
 4514              		.loc 11 257 48 view .LVU1037
 4515 004e 4FF00108 		mov	r8, #1
 257:../../libDaisy/src/dev/oled_ssd130x.h ****         else
 4516              		.loc 11 257 42 view .LVU1038
 4517 0052 01EBCC1C 		add	ip, r1, ip, lsl #7
 257:../../libDaisy/src/dev/oled_ssd130x.h ****         else
 4518              		.loc 11 257 48 view .LVU1039
 4519 0056 08FA0EFE 		lsl	lr, r8, lr
 257:../../libDaisy/src/dev/oled_ssd130x.h ****         else
 4520              		.loc 11 257 42 view .LVU1040
 4521 005a 8444     		add	ip, ip, r0
 256:../../libDaisy/src/dev/oled_ssd130x.h ****             buffer_[x + (y / 8) * width] |= (1 << (y % 8));
ARM GAS  /var/folders/hl/qgbwny5j0fd895c2c41bk3tw0000gp/T//ccFqANMK.s 			page 131


 4522              		.loc 11 256 9 view .LVU1041
 4523 005c 002D     		cmp	r5, #0
 4524 005e E5D1     		bne	.L393
 4525              	.LBB1397:
 4526              	.LBB1394:
 259:../../libDaisy/src/dev/oled_ssd130x.h ****     }
 4527              		.loc 11 259 42 view .LVU1042
 4528 0060 9CF814B0 		ldrb	fp, [ip, #20]	@ zero_extendqisi2
 4529              	.LBE1394:
 4530              	.LBE1397:
 4531              	.LBE1400:
 4532              	.LBE1403:
 4533              	.LBE1406:
 268:../../libDaisy/src/hid/disp/display.h ****                 {
 4534              		.loc 12 268 17 view .LVU1043
 4535 0064 0136     		adds	r6, r6, #1
 4536              	.LVL361:
 4537              	.LBB1407:
 4538              	.LBB1404:
 4539              	.LBB1401:
 4540              	.LBB1398:
 4541              	.LBB1395:
 259:../../libDaisy/src/dev/oled_ssd130x.h ****     }
 4542              		.loc 11 259 42 view .LVU1044
 4543 0066 2BEA0E0A 		bic	r10, fp, lr
 4544              	.LBE1395:
 4545              	.LBE1398:
 4546              	.LBE1401:
 4547              	.LBE1404:
 4548              	.LBE1407:
 268:../../libDaisy/src/hid/disp/display.h ****                 {
 4549              		.loc 12 268 44 view .LVU1045
 4550 006a B442     		cmp	r4, r6
 4551              	.LBB1408:
 4552              	.LBB1405:
 4553              	.LBB1402:
 4554              	.LBB1399:
 4555              	.LBB1396:
 259:../../libDaisy/src/dev/oled_ssd130x.h ****     }
 4556              		.loc 11 259 42 view .LVU1046
 4557 006c 8CF814A0 		strb	r10, [ip, #20]
 4558              	.LVL362:
 259:../../libDaisy/src/dev/oled_ssd130x.h ****     }
 4559              		.loc 11 259 42 view .LVU1047
 4560              	.LBE1396:
 4561              	.LBE1399:
 4562              	.LBE1402:
 4563              	.LBE1405:
 4564              	.LBE1408:
 268:../../libDaisy/src/hid/disp/display.h ****                 {
 4565              		.loc 12 268 17 is_stmt 1 view .LVU1048
 268:../../libDaisy/src/hid/disp/display.h ****                 {
 4566              		.loc 12 268 44 view .LVU1049
 4567 0070 E5D2     		bcs	.L310
 4568              	.LVL363:
 4569              	.L309:
 268:../../libDaisy/src/hid/disp/display.h ****                 {
ARM GAS  /var/folders/hl/qgbwny5j0fd895c2c41bk3tw0000gp/T//ccFqANMK.s 			page 132


 4570              		.loc 12 268 44 is_stmt 0 view .LVU1050
 4571              	.LBE1389:
 266:../../libDaisy/src/hid/disp/display.h ****             {
 4572              		.loc 12 266 13 is_stmt 1 view .LVU1051
 4573 0072 0131     		adds	r1, r1, #1
 4574              	.LVL364:
 266:../../libDaisy/src/hid/disp/display.h ****             {
 4575              		.loc 12 266 40 view .LVU1052
 4576 0074 8945     		cmp	r9, r1
 4577 0076 D1D2     		bcs	.L306
 4578              	.LVL365:
 4579              	.L302:
 266:../../libDaisy/src/hid/disp/display.h ****             {
 4580              		.loc 12 266 40 is_stmt 0 view .LVU1053
 4581              	.LBE1388:
 4582              	.LBE1387:
 281:../../libDaisy/src/hid/disp/display.h **** 
 4583              		.loc 12 281 5 view .LVU1054
 4584 0078 07B0     		add	sp, sp, #28
 4585              		.cfi_remember_state
 4586              		.cfi_def_cfa_offset 36
 4587              		@ sp needed
 4588 007a BDE8F08F 		pop	{r4, r5, r6, r7, r8, r9, r10, fp, pc}
 4589              	.LVL366:
 4590              	.L303:
 4591              		.cfi_restore_state
 4592              	.LBB1409:
 4593              	.LBB1266:
 4594              	.LBI1266:
 221:../../libDaisy/src/hid/disp/display.h ****                   uint_fast8_t y1,
 4595              		.loc 12 221 10 is_stmt 1 view .LVU1055
 4596              	.LBB1267:
 227:../../libDaisy/src/hid/disp/display.h ****         int_fast16_t deltaY = abs((int_fast16_t)y2 - (int_fast16_t)y1);
 4597              		.loc 12 227 52 is_stmt 0 view .LVU1056
 4598 007e A3EB0108 		sub	r8, r3, r1
 227:../../libDaisy/src/hid/disp/display.h ****         int_fast16_t deltaY = abs((int_fast16_t)y2 - (int_fast16_t)y1);
 4599              		.loc 12 227 22 view .LVU1057
 4600 0082 B8F1000F 		cmp	r8, #0
 4601 0086 B8BF     		it	lt
 4602 0088 C8F10008 		rsblt	r8, r8, #0
 4603              	.LVL367:
 229:../../libDaisy/src/hid/disp/display.h ****         int_fast16_t signY  = ((y1 < y2) ? 1 : -1);
 4604              		.loc 12 229 42 view .LVU1058
 4605 008c 9942     		cmp	r1, r3
 4606 008e C0F04E81 		bcc	.L311
 4607              	.LVL368:
 4608              	.LBB1268:
 4609              	.LBI1268:
  42:../../libDaisy/src/hid/disp/oled_display.h ****     {
 4610              		.loc 10 42 10 is_stmt 1 view .LVU1059
 4611              	.LBB1269:
 4612              	.LBI1269:
 252:../../libDaisy/src/dev/oled_ssd130x.h ****     {
 4613              		.loc 11 252 10 view .LVU1060
 4614              	.LBB1270:
 254:../../libDaisy/src/dev/oled_ssd130x.h ****             return;
 4615              		.loc 11 254 14 is_stmt 0 view .LVU1061
ARM GAS  /var/folders/hl/qgbwny5j0fd895c2c41bk3tw0000gp/T//ccFqANMK.s 			page 133


 4616 0092 7F2B     		cmp	r3, #127
 4617              	.LBE1270:
 4618              	.LBE1269:
 4619              	.LBE1268:
 229:../../libDaisy/src/hid/disp/display.h ****         int_fast16_t signY  = ((y1 < y2) ? 1 : -1);
 4620              		.loc 12 229 42 view .LVU1062
 4621 0094 4FF0FF3A 		mov	r10, #-1
 4622              	.LBB1281:
 4623              	.LBB1277:
 4624              	.LBB1273:
 254:../../libDaisy/src/dev/oled_ssd130x.h ****             return;
 4625              		.loc 11 254 14 view .LVU1063
 4626 0098 94BF     		ite	ls
 4627 009a 0026     		movls	r6, #0
 4628 009c 0126     		movhi	r6, #1
 254:../../libDaisy/src/dev/oled_ssd130x.h ****             return;
 4629              		.loc 11 254 28 view .LVU1064
 4630 009e 3F2A     		cmp	r2, #63
 254:../../libDaisy/src/dev/oled_ssd130x.h ****             return;
 4631              		.loc 11 254 14 view .LVU1065
 4632 00a0 0096     		str	r6, [sp]
 254:../../libDaisy/src/dev/oled_ssd130x.h ****             return;
 4633              		.loc 11 254 28 view .LVU1066
 4634 00a2 94BF     		ite	ls
 4635 00a4 0027     		movls	r7, #0
 4636 00a6 0127     		movhi	r7, #1
 4637 00a8 0297     		str	r7, [sp, #8]
 254:../../libDaisy/src/dev/oled_ssd130x.h ****             return;
 4638              		.loc 11 254 9 view .LVU1067
 4639 00aa A6B9     		cbnz	r6, .L312
 4640 00ac 9FB9     		cbnz	r7, .L312
 4641              	.LVL369:
 4642              	.L353:
 257:../../libDaisy/src/dev/oled_ssd130x.h ****         else
 4643              		.loc 11 257 28 view .LVU1068
 4644 00ae D608     		lsrs	r6, r2, #3
 257:../../libDaisy/src/dev/oled_ssd130x.h ****         else
 4645              		.loc 11 257 54 view .LVU1069
 4646 00b0 02F0070C 		and	ip, r2, #7
 257:../../libDaisy/src/dev/oled_ssd130x.h ****         else
 4647              		.loc 11 257 48 view .LVU1070
 4648 00b4 0127     		movs	r7, #1
 257:../../libDaisy/src/dev/oled_ssd130x.h ****         else
 4649              		.loc 11 257 42 view .LVU1071
 4650 00b6 03EBC616 		add	r6, r3, r6, lsl #7
 4651 00ba 0644     		add	r6, r6, r0
 256:../../libDaisy/src/dev/oled_ssd130x.h ****             buffer_[x + (y / 8) * width] |= (1 << (y % 8));
 4652              		.loc 11 256 9 view .LVU1072
 4653 00bc 002D     		cmp	r5, #0
 4654 00be 00F09481 		beq	.L313
 257:../../libDaisy/src/dev/oled_ssd130x.h ****         else
 4655              		.loc 11 257 48 view .LVU1073
 4656 00c2 07FA0CF7 		lsl	r7, r7, ip
 257:../../libDaisy/src/dev/oled_ssd130x.h ****         else
 4657              		.loc 11 257 42 view .LVU1074
 4658 00c6 96F814C0 		ldrb	ip, [r6, #20]	@ zero_extendqisi2
 4659 00ca 47EA0C07 		orr	r7, r7, ip
ARM GAS  /var/folders/hl/qgbwny5j0fd895c2c41bk3tw0000gp/T//ccFqANMK.s 			page 134


 4660 00ce 3775     		strb	r7, [r6, #20]
 4661 00d0 0026     		movs	r6, #0
 4662 00d2 0296     		str	r6, [sp, #8]
 4663 00d4 0096     		str	r6, [sp]
 4664              	.L312:
 4665              	.LVL370:
 257:../../libDaisy/src/dev/oled_ssd130x.h ****         else
 4666              		.loc 11 257 42 view .LVU1075
 4667              	.LBE1273:
 4668              	.LBE1277:
 4669              	.LBE1281:
 239:../../libDaisy/src/hid/disp/display.h ****         {
 4670              		.loc 12 239 26 is_stmt 1 view .LVU1076
 4671 00d6 9942     		cmp	r1, r3
 4672 00d8 00F09781 		beq	.L394
 4673              	.L315:
 4674              	.LVL371:
 227:../../libDaisy/src/hid/disp/display.h ****         int_fast16_t deltaY = abs((int_fast16_t)y2 - (int_fast16_t)y1);
 4675              		.loc 12 227 22 is_stmt 0 view .LVU1077
 4676 00dc 4646     		mov	r6, r8
 4677 00de 9446     		mov	ip, r2
 4678 00e0 8E46     		mov	lr, r1
 4679              	.LVL372:
 4680              	.L317:
 4681              	.LBB1282:
 4682              	.LBI1282:
  42:../../libDaisy/src/hid/disp/oled_display.h ****     {
 4683              		.loc 10 42 10 is_stmt 1 view .LVU1078
 4684              	.LBB1283:
 4685              	.LBI1283:
 252:../../libDaisy/src/dev/oled_ssd130x.h ****     {
 4686              		.loc 11 252 10 view .LVU1079
 4687              	.LBB1284:
 254:../../libDaisy/src/dev/oled_ssd130x.h ****             return;
 4688              		.loc 11 254 9 is_stmt 0 view .LVU1080
 4689 00e2 BEF17F0F 		cmp	lr, #127
 4690 00e6 16D8     		bhi	.L318
 4691 00e8 BCF13F0F 		cmp	ip, #63
 4692 00ec 13D8     		bhi	.L318
 257:../../libDaisy/src/dev/oled_ssd130x.h ****         else
 4693              		.loc 11 257 28 view .LVU1081
 4694 00ee 4FEADC07 		lsr	r7, ip, #3
 257:../../libDaisy/src/dev/oled_ssd130x.h ****         else
 4695              		.loc 11 257 54 view .LVU1082
 4696 00f2 0CF0070B 		and	fp, ip, #7
 257:../../libDaisy/src/dev/oled_ssd130x.h ****         else
 4697              		.loc 11 257 48 view .LVU1083
 4698 00f6 4FF00109 		mov	r9, #1
 257:../../libDaisy/src/dev/oled_ssd130x.h ****         else
 4699              		.loc 11 257 42 view .LVU1084
 4700 00fa 0EEBC717 		add	r7, lr, r7, lsl #7
 4701 00fe 0744     		add	r7, r7, r0
 256:../../libDaisy/src/dev/oled_ssd130x.h ****             buffer_[x + (y / 8) * width] |= (1 << (y % 8));
 4702              		.loc 11 256 9 view .LVU1085
 4703 0100 002D     		cmp	r5, #0
 4704 0102 00F03981 		beq	.L319
 257:../../libDaisy/src/dev/oled_ssd130x.h ****         else
ARM GAS  /var/folders/hl/qgbwny5j0fd895c2c41bk3tw0000gp/T//ccFqANMK.s 			page 135


 4705              		.loc 11 257 48 view .LVU1086
 4706 0106 09FA0BF9 		lsl	r9, r9, fp
 257:../../libDaisy/src/dev/oled_ssd130x.h ****         else
 4707              		.loc 11 257 42 view .LVU1087
 4708 010a 97F814B0 		ldrb	fp, [r7, #20]	@ zero_extendqisi2
 4709 010e 49EA0B09 		orr	r9, r9, fp
 4710 0112 87F81490 		strb	r9, [r7, #20]
 4711              	.L318:
 4712              	.LVL373:
 257:../../libDaisy/src/dev/oled_ssd130x.h ****         else
 4713              		.loc 11 257 42 view .LVU1088
 4714              	.LBE1284:
 4715              	.LBE1283:
 4716              	.LBE1282:
 243:../../libDaisy/src/hid/disp/display.h ****             {
 4717              		.loc 12 243 13 view .LVU1089
 4718 0116 7700     		lsls	r7, r6, #1
 4719              	.LVL374:
 246:../../libDaisy/src/hid/disp/display.h ****             }
 4720              		.loc 12 246 20 view .LVU1090
 4721 0118 18BF     		it	ne
 4722 011a D644     		addne	lr, lr, r10
 4723              	.LVL375:
 249:../../libDaisy/src/hid/disp/display.h ****             {
 4724              		.loc 12 249 13 view .LVU1091
 4725 011c B845     		cmp	r8, r7
 4726 011e 02DD     		ble	.L321
 251:../../libDaisy/src/hid/disp/display.h ****                 y1 += signY;
 4727              		.loc 12 251 23 view .LVU1092
 4728 0120 4644     		add	r6, r6, r8
 4729              	.LVL376:
 252:../../libDaisy/src/hid/disp/display.h ****             }
 4730              		.loc 12 252 20 view .LVU1093
 4731 0122 0CF1FF3C 		add	ip, ip, #-1
 4732              	.LVL377:
 4733              	.L321:
 239:../../libDaisy/src/hid/disp/display.h ****         {
 4734              		.loc 12 239 26 is_stmt 1 view .LVU1094
 4735 0126 7345     		cmp	r3, lr
 4736 0128 DBD1     		bne	.L317
 239:../../libDaisy/src/hid/disp/display.h ****         {
 4737              		.loc 12 239 26 is_stmt 0 view .LVU1095
 4738 012a 6245     		cmp	r2, ip
 4739 012c D9D1     		bne	.L317
 4740 012e 0026     		movs	r6, #0
 4741              	.LVL378:
 239:../../libDaisy/src/hid/disp/display.h ****         {
 4742              		.loc 12 239 26 view .LVU1096
 4743 0130 0496     		str	r6, [sp, #16]
 4744              	.LVL379:
 4745              	.L314:
 239:../../libDaisy/src/hid/disp/display.h ****         {
 4746              		.loc 12 239 26 view .LVU1097
 4747              	.LBE1267:
 4748              	.LBE1266:
 4749              	.LBB1297:
 4750              	.LBI1297:
ARM GAS  /var/folders/hl/qgbwny5j0fd895c2c41bk3tw0000gp/T//ccFqANMK.s 			page 136


 221:../../libDaisy/src/hid/disp/display.h ****                   uint_fast8_t y1,
 4751              		.loc 12 221 10 is_stmt 1 view .LVU1098
 4752              	.LBB1298:
 228:../../libDaisy/src/hid/disp/display.h ****         int_fast16_t signX  = ((x1 < x2) ? 1 : -1);
 4753              		.loc 12 228 52 is_stmt 0 view .LVU1099
 4754 0132 A4EB0209 		sub	r9, r4, r2
 4755              	.LBB1299:
 4756              	.LBB1300:
 4757              	.LBB1301:
 254:../../libDaisy/src/dev/oled_ssd130x.h ****             return;
 4758              		.loc 11 254 9 view .LVU1100
 4759 0136 009F     		ldr	r7, [sp]
 4760              	.LBE1301:
 4761              	.LBE1300:
 4762              	.LBE1299:
 228:../../libDaisy/src/hid/disp/display.h ****         int_fast16_t signX  = ((x1 < x2) ? 1 : -1);
 4763              		.loc 12 228 22 view .LVU1101
 4764 0138 B9F1000F 		cmp	r9, #0
 4765 013c B8BF     		it	lt
 4766 013e C9F10009 		rsblt	r9, r9, #0
 4767              	.LVL380:
 4768              	.LBB1316:
 4769              	.LBB1310:
 4770              	.LBB1304:
 254:../../libDaisy/src/dev/oled_ssd130x.h ****             return;
 4771              		.loc 11 254 28 view .LVU1102
 4772 0142 3F2C     		cmp	r4, #63
 4773 0144 94BF     		ite	ls
 4774 0146 0026     		movls	r6, #0
 4775 0148 0126     		movhi	r6, #1
 4776              	.LBE1304:
 4777              	.LBE1310:
 4778              	.LBE1316:
 230:../../libDaisy/src/hid/disp/display.h ****         int_fast16_t error  = deltaX - deltaY;
 4779              		.loc 12 230 42 view .LVU1103
 4780 014a A242     		cmp	r2, r4
 231:../../libDaisy/src/hid/disp/display.h ****         int_fast16_t error2;
 4781              		.loc 12 231 22 view .LVU1104
 4782 014c C9F10008 		rsb	r8, r9, #0
 4783              	.LVL381:
 4784              	.LBB1317:
 4785              	.LBI1299:
  42:../../libDaisy/src/hid/disp/oled_display.h ****     {
 4786              		.loc 10 42 10 is_stmt 1 view .LVU1105
 4787              	.LBB1311:
 4788              	.LBI1300:
 252:../../libDaisy/src/dev/oled_ssd130x.h ****     {
 4789              		.loc 11 252 10 view .LVU1106
 4790              	.LBB1305:
 254:../../libDaisy/src/dev/oled_ssd130x.h ****             return;
 4791              		.loc 11 254 28 is_stmt 0 view .LVU1107
 4792 0150 0396     		str	r6, [sp, #12]
 4793              	.LBE1305:
 4794              	.LBE1311:
 4795              	.LBE1317:
 230:../../libDaisy/src/hid/disp/display.h ****         int_fast16_t error  = deltaX - deltaY;
 4796              		.loc 12 230 42 view .LVU1108
ARM GAS  /var/folders/hl/qgbwny5j0fd895c2c41bk3tw0000gp/T//ccFqANMK.s 			page 137


 4797 0152 C0F02381 		bcc	.L322
 4798              	.LVL382:
 4799              	.LBB1318:
 4800              	.LBB1312:
 4801              	.LBB1306:
 254:../../libDaisy/src/dev/oled_ssd130x.h ****             return;
 4802              		.loc 11 254 9 view .LVU1109
 4803 0156 002F     		cmp	r7, #0
 4804 0158 40F05081 		bne	.L357
 4805 015c 002E     		cmp	r6, #0
 4806 015e 40F04D81 		bne	.L357
 4807              	.LBE1306:
 4808              	.LBE1312:
 4809              	.LBE1318:
 230:../../libDaisy/src/hid/disp/display.h ****         int_fast16_t error  = deltaX - deltaY;
 4810              		.loc 12 230 42 view .LVU1110
 4811 0162 4FF0FF36 		mov	r6, #-1
 4812 0166 0096     		str	r6, [sp]
 4813              	.LBB1319:
 4814              	.LBB1313:
 4815              	.LBB1307:
 257:../../libDaisy/src/dev/oled_ssd130x.h ****         else
 4816              		.loc 11 257 28 view .LVU1111
 4817 0168 E608     		lsrs	r6, r4, #3
 257:../../libDaisy/src/dev/oled_ssd130x.h ****         else
 4818              		.loc 11 257 42 view .LVU1112
 4819 016a 03EBC616 		add	r6, r3, r6, lsl #7
 4820 016e 0644     		add	r6, r6, r0
 256:../../libDaisy/src/dev/oled_ssd130x.h ****             buffer_[x + (y / 8) * width] |= (1 << (y % 8));
 4821              		.loc 11 256 9 view .LVU1113
 4822 0170 002D     		cmp	r5, #0
 4823 0172 00F01E81 		beq	.L324
 4824              	.LVL383:
 4825              	.L396:
 257:../../libDaisy/src/dev/oled_ssd130x.h ****         else
 4826              		.loc 11 257 48 view .LVU1114
 4827 0176 4FF0010C 		mov	ip, #1
 257:../../libDaisy/src/dev/oled_ssd130x.h ****         else
 4828              		.loc 11 257 54 view .LVU1115
 4829 017a 04F00707 		and	r7, r4, #7
 257:../../libDaisy/src/dev/oled_ssd130x.h ****         else
 4830              		.loc 11 257 48 view .LVU1116
 4831 017e 0CFA07F7 		lsl	r7, ip, r7
 257:../../libDaisy/src/dev/oled_ssd130x.h ****         else
 4832              		.loc 11 257 42 view .LVU1117
 4833 0182 96F814C0 		ldrb	ip, [r6, #20]	@ zero_extendqisi2
 4834 0186 47EA0C07 		orr	r7, r7, ip
 4835 018a 3775     		strb	r7, [r6, #20]
 4836 018c 0026     		movs	r6, #0
 4837 018e 0396     		str	r6, [sp, #12]
 4838              	.L323:
 4839              	.LVL384:
 257:../../libDaisy/src/dev/oled_ssd130x.h ****         else
 4840              		.loc 11 257 42 view .LVU1118
 4841              	.LBE1307:
 4842              	.LBE1313:
 4843              	.LBE1319:
ARM GAS  /var/folders/hl/qgbwny5j0fd895c2c41bk3tw0000gp/T//ccFqANMK.s 			page 138


 239:../../libDaisy/src/hid/disp/display.h ****         {
 4844              		.loc 12 239 26 is_stmt 1 view .LVU1119
 4845 0190 A242     		cmp	r2, r4
 4846 0192 00F03D81 		beq	.L395
 4847              	.L326:
 4848              	.LVL385:
 230:../../libDaisy/src/hid/disp/display.h ****         int_fast16_t error  = deltaX - deltaY;
 4849              		.loc 12 230 42 is_stmt 0 view .LVU1120
 4850 0196 C446     		mov	ip, r8
 4851 0198 1646     		mov	r6, r2
 4852 019a 1F46     		mov	r7, r3
 4853 019c 0592     		str	r2, [sp, #20]
 4854              	.LVL386:
 4855              	.L328:
 4856              	.LBB1320:
 4857              	.LBI1320:
  42:../../libDaisy/src/hid/disp/oled_display.h ****     {
 4858              		.loc 10 42 10 is_stmt 1 view .LVU1121
 4859              	.LBB1321:
 4860              	.LBI1321:
 252:../../libDaisy/src/dev/oled_ssd130x.h ****     {
 4861              		.loc 11 252 10 view .LVU1122
 4862              	.LBB1322:
 254:../../libDaisy/src/dev/oled_ssd130x.h ****             return;
 4863              		.loc 11 254 9 is_stmt 0 view .LVU1123
 4864 019e 7F2F     		cmp	r7, #127
 4865 01a0 15D8     		bhi	.L329
 4866 01a2 3F2E     		cmp	r6, #63
 4867 01a4 13D8     		bhi	.L329
 257:../../libDaisy/src/dev/oled_ssd130x.h ****         else
 4868              		.loc 11 257 28 view .LVU1124
 4869 01a6 4FEAD60E 		lsr	lr, r6, #3
 257:../../libDaisy/src/dev/oled_ssd130x.h ****         else
 4870              		.loc 11 257 54 view .LVU1125
 4871 01aa 06F0070B 		and	fp, r6, #7
 257:../../libDaisy/src/dev/oled_ssd130x.h ****         else
 4872              		.loc 11 257 48 view .LVU1126
 4873 01ae 4FF0010A 		mov	r10, #1
 257:../../libDaisy/src/dev/oled_ssd130x.h ****         else
 4874              		.loc 11 257 42 view .LVU1127
 4875 01b2 07EBCE1E 		add	lr, r7, lr, lsl #7
 4876 01b6 8644     		add	lr, lr, r0
 256:../../libDaisy/src/dev/oled_ssd130x.h ****             buffer_[x + (y / 8) * width] |= (1 << (y % 8));
 4877              		.loc 11 256 9 view .LVU1128
 4878 01b8 002D     		cmp	r5, #0
 4879 01ba 00F0E680 		beq	.L330
 257:../../libDaisy/src/dev/oled_ssd130x.h ****         else
 4880              		.loc 11 257 48 view .LVU1129
 4881 01be 0AFA0BFA 		lsl	r10, r10, fp
 257:../../libDaisy/src/dev/oled_ssd130x.h ****         else
 4882              		.loc 11 257 42 view .LVU1130
 4883 01c2 9EF814B0 		ldrb	fp, [lr, #20]	@ zero_extendqisi2
 4884 01c6 4AEA0B0A 		orr	r10, r10, fp
 4885 01ca 8EF814A0 		strb	r10, [lr, #20]
 4886              	.L329:
 4887              	.LVL387:
 257:../../libDaisy/src/dev/oled_ssd130x.h ****         else
ARM GAS  /var/folders/hl/qgbwny5j0fd895c2c41bk3tw0000gp/T//ccFqANMK.s 			page 139


 4888              		.loc 11 257 42 view .LVU1131
 4889              	.LBE1322:
 4890              	.LBE1321:
 4891              	.LBE1320:
 243:../../libDaisy/src/hid/disp/display.h ****             {
 4892              		.loc 12 243 13 view .LVU1132
 4893 01ce B8EB4C0F 		cmp	r8, ip, lsl #1
 242:../../libDaisy/src/hid/disp/display.h ****             if(error2 > -deltaY)
 4894              		.loc 12 242 20 view .LVU1133
 4895 01d2 4FEA4C0E 		lsl	lr, ip, #1
 4896              	.LVL388:
 243:../../libDaisy/src/hid/disp/display.h ****             {
 4897              		.loc 12 243 13 view .LVU1134
 4898 01d6 02DA     		bge	.L331
 245:../../libDaisy/src/hid/disp/display.h ****                 x1 += signX;
 4899              		.loc 12 245 23 view .LVU1135
 4900 01d8 ACEB090C 		sub	ip, ip, r9
 4901              	.LVL389:
 246:../../libDaisy/src/hid/disp/display.h ****             }
 4902              		.loc 12 246 20 view .LVU1136
 4903 01dc 013F     		subs	r7, r7, #1
 4904              	.LVL390:
 4905              	.L331:
 249:../../libDaisy/src/hid/disp/display.h ****             {
 4906              		.loc 12 249 13 view .LVU1137
 4907 01de BEF1000F 		cmp	lr, #0
 4908 01e2 01D0     		beq	.L332
 252:../../libDaisy/src/hid/disp/display.h ****             }
 4909              		.loc 12 252 20 view .LVU1138
 4910 01e4 009A     		ldr	r2, [sp]
 4911 01e6 1644     		add	r6, r6, r2
 4912              	.LVL391:
 4913              	.L332:
 239:../../libDaisy/src/hid/disp/display.h ****         {
 4914              		.loc 12 239 26 is_stmt 1 view .LVU1139
 4915 01e8 BB42     		cmp	r3, r7
 4916 01ea D8D1     		bne	.L328
 239:../../libDaisy/src/hid/disp/display.h ****         {
 4917              		.loc 12 239 26 is_stmt 0 view .LVU1140
 4918 01ec B442     		cmp	r4, r6
 4919 01ee D6D1     		bne	.L328
 4920 01f0 059A     		ldr	r2, [sp, #20]
 4921              	.LVL392:
 4922              	.L325:
 239:../../libDaisy/src/hid/disp/display.h ****         {
 4923              		.loc 12 239 26 view .LVU1141
 4924              	.LBE1298:
 4925              	.LBE1297:
 4926              	.LBB1333:
 4927              	.LBI1333:
 221:../../libDaisy/src/hid/disp/display.h ****                   uint_fast8_t y1,
 4928              		.loc 12 221 10 is_stmt 1 view .LVU1142
 4929              	.LBB1334:
 227:../../libDaisy/src/hid/disp/display.h ****         int_fast16_t deltaY = abs((int_fast16_t)y2 - (int_fast16_t)y1);
 4930              		.loc 12 227 52 is_stmt 0 view .LVU1143
 4931 01f2 A1EB030E 		sub	lr, r1, r3
 227:../../libDaisy/src/hid/disp/display.h ****         int_fast16_t deltaY = abs((int_fast16_t)y2 - (int_fast16_t)y1);
ARM GAS  /var/folders/hl/qgbwny5j0fd895c2c41bk3tw0000gp/T//ccFqANMK.s 			page 140


 4932              		.loc 12 227 22 view .LVU1144
 4933 01f6 BEF1000F 		cmp	lr, #0
 4934 01fa B8BF     		it	lt
 4935 01fc CEF1000E 		rsblt	lr, lr, #0
 4936              	.LVL393:
 4937              	.LBB1335:
 4938              	.LBB1336:
 4939              	.LBB1337:
 254:../../libDaisy/src/dev/oled_ssd130x.h ****             return;
 4940              		.loc 11 254 14 view .LVU1145
 4941 0200 7F29     		cmp	r1, #127
 4942 0202 94BF     		ite	ls
 4943 0204 4FF0000A 		movls	r10, #0
 4944 0208 4FF0010A 		movhi	r10, #1
 4945              	.LBE1337:
 4946              	.LBE1336:
 4947              	.LBE1335:
 229:../../libDaisy/src/hid/disp/display.h ****         int_fast16_t signY  = ((y1 < y2) ? 1 : -1);
 4948              		.loc 12 229 42 view .LVU1146
 4949 020c 9942     		cmp	r1, r3
 4950 020e 8CBF     		ite	hi
 4951 0210 4FF00109 		movhi	r9, #1
 4952 0214 4FF0FF39 		movls	r9, #-1
 4953              	.LVL394:
 4954              	.LBB1344:
 4955              	.LBI1335:
  42:../../libDaisy/src/hid/disp/oled_display.h ****     {
 4956              		.loc 10 42 10 is_stmt 1 view .LVU1147
 4957              	.LBB1342:
 4958              	.LBI1336:
 252:../../libDaisy/src/dev/oled_ssd130x.h ****     {
 4959              		.loc 11 252 10 view .LVU1148
 4960              	.LBB1340:
 254:../../libDaisy/src/dev/oled_ssd130x.h ****             return;
 4961              		.loc 11 254 9 is_stmt 0 view .LVU1149
 4962 0218 BAF1000F 		cmp	r10, #0
 4963 021c 13D1     		bne	.L334
 4964 021e 039E     		ldr	r6, [sp, #12]
 4965 0220 8EB9     		cbnz	r6, .L334
 257:../../libDaisy/src/dev/oled_ssd130x.h ****         else
 4966              		.loc 11 257 28 view .LVU1150
 4967 0222 E608     		lsrs	r6, r4, #3
 257:../../libDaisy/src/dev/oled_ssd130x.h ****         else
 4968              		.loc 11 257 42 view .LVU1151
 4969 0224 01EBC616 		add	r6, r1, r6, lsl #7
 4970 0228 0644     		add	r6, r6, r0
 256:../../libDaisy/src/dev/oled_ssd130x.h ****             buffer_[x + (y / 8) * width] |= (1 << (y % 8));
 4971              		.loc 11 256 9 view .LVU1152
 4972 022a 002D     		cmp	r5, #0
 4973 022c 00F0D380 		beq	.L335
 257:../../libDaisy/src/dev/oled_ssd130x.h ****         else
 4974              		.loc 11 257 48 view .LVU1153
 4975 0230 4FF0010C 		mov	ip, #1
 257:../../libDaisy/src/dev/oled_ssd130x.h ****         else
 4976              		.loc 11 257 54 view .LVU1154
 4977 0234 04F00707 		and	r7, r4, #7
 257:../../libDaisy/src/dev/oled_ssd130x.h ****         else
ARM GAS  /var/folders/hl/qgbwny5j0fd895c2c41bk3tw0000gp/T//ccFqANMK.s 			page 141


 4978              		.loc 11 257 48 view .LVU1155
 4979 0238 0CFA07F7 		lsl	r7, ip, r7
 257:../../libDaisy/src/dev/oled_ssd130x.h ****         else
 4980              		.loc 11 257 42 view .LVU1156
 4981 023c 96F814C0 		ldrb	ip, [r6, #20]	@ zero_extendqisi2
 4982 0240 47EA0C07 		orr	r7, r7, ip
 4983 0244 3775     		strb	r7, [r6, #20]
 4984              	.L334:
 4985              	.LVL395:
 257:../../libDaisy/src/dev/oled_ssd130x.h ****         else
 4986              		.loc 11 257 42 view .LVU1157
 4987              	.LBE1340:
 4988              	.LBE1342:
 4989              	.LBE1344:
 239:../../libDaisy/src/hid/disp/display.h ****         {
 4990              		.loc 12 239 26 is_stmt 1 view .LVU1158
 4991 0246 049E     		ldr	r6, [sp, #16]
 4992 0248 26BB     		cbnz	r6, .L336
 227:../../libDaisy/src/hid/disp/display.h ****         int_fast16_t deltaY = abs((int_fast16_t)y2 - (int_fast16_t)y1);
 4993              		.loc 12 227 22 is_stmt 0 view .LVU1159
 4994 024a 7746     		mov	r7, lr
 239:../../libDaisy/src/hid/disp/display.h ****         {
 4995              		.loc 12 239 26 view .LVU1160
 4996 024c 2646     		mov	r6, r4
 4997              	.LVL396:
 4998              	.L337:
 4999              	.LBB1345:
 5000              	.LBI1345:
  42:../../libDaisy/src/hid/disp/oled_display.h ****     {
 5001              		.loc 10 42 10 is_stmt 1 view .LVU1161
 5002              	.LBB1346:
 5003              	.LBI1346:
 252:../../libDaisy/src/dev/oled_ssd130x.h ****     {
 5004              		.loc 11 252 10 view .LVU1162
 5005              	.LBB1347:
 254:../../libDaisy/src/dev/oled_ssd130x.h ****             return;
 5006              		.loc 11 254 9 is_stmt 0 view .LVU1163
 5007 024e 7F2B     		cmp	r3, #127
 5008 0250 14D8     		bhi	.L339
 254:../../libDaisy/src/dev/oled_ssd130x.h ****             return;
 5009              		.loc 11 254 9 view .LVU1164
 5010 0252 3F2E     		cmp	r6, #63
 5011 0254 12D8     		bhi	.L339
 257:../../libDaisy/src/dev/oled_ssd130x.h ****         else
 5012              		.loc 11 257 28 view .LVU1165
 5013 0256 4FEAD60C 		lsr	ip, r6, #3
 257:../../libDaisy/src/dev/oled_ssd130x.h ****         else
 5014              		.loc 11 257 54 view .LVU1166
 5015 025a 06F0070B 		and	fp, r6, #7
 257:../../libDaisy/src/dev/oled_ssd130x.h ****         else
 5016              		.loc 11 257 48 view .LVU1167
 5017 025e 4FF00108 		mov	r8, #1
 257:../../libDaisy/src/dev/oled_ssd130x.h ****         else
 5018              		.loc 11 257 42 view .LVU1168
 5019 0262 03EBCC1C 		add	ip, r3, ip, lsl #7
 5020 0266 8444     		add	ip, ip, r0
 256:../../libDaisy/src/dev/oled_ssd130x.h ****             buffer_[x + (y / 8) * width] |= (1 << (y % 8));
ARM GAS  /var/folders/hl/qgbwny5j0fd895c2c41bk3tw0000gp/T//ccFqANMK.s 			page 142


 5021              		.loc 11 256 9 view .LVU1169
 5022 0268 002D     		cmp	r5, #0
 5023 026a 73D0     		beq	.L340
 257:../../libDaisy/src/dev/oled_ssd130x.h ****         else
 5024              		.loc 11 257 48 view .LVU1170
 5025 026c 08FA0BF8 		lsl	r8, r8, fp
 257:../../libDaisy/src/dev/oled_ssd130x.h ****         else
 5026              		.loc 11 257 42 view .LVU1171
 5027 0270 9CF814B0 		ldrb	fp, [ip, #20]	@ zero_extendqisi2
 5028 0274 48EA0B08 		orr	r8, r8, fp
 5029 0278 8CF81480 		strb	r8, [ip, #20]
 5030              	.L339:
 5031              	.LVL397:
 257:../../libDaisy/src/dev/oled_ssd130x.h ****         else
 5032              		.loc 11 257 42 view .LVU1172
 5033              	.LBE1347:
 5034              	.LBE1346:
 5035              	.LBE1345:
 243:../../libDaisy/src/hid/disp/display.h ****             {
 5036              		.loc 12 243 13 view .LVU1173
 5037 027c 5FEA470C 		lsls	ip, r7, #1
 5038              	.LVL398:
 246:../../libDaisy/src/hid/disp/display.h ****             }
 5039              		.loc 12 246 20 view .LVU1174
 5040 0280 18BF     		it	ne
 5041 0282 4B44     		addne	r3, r3, r9
 5042              	.LVL399:
 249:../../libDaisy/src/hid/disp/display.h ****             {
 5043              		.loc 12 249 13 view .LVU1175
 5044 0284 E645     		cmp	lr, ip
 5045 0286 01DD     		ble	.L342
 251:../../libDaisy/src/hid/disp/display.h ****                 y1 += signY;
 5046              		.loc 12 251 23 view .LVU1176
 5047 0288 7744     		add	r7, r7, lr
 5048              	.LVL400:
 252:../../libDaisy/src/hid/disp/display.h ****             }
 5049              		.loc 12 252 20 view .LVU1177
 5050 028a 013E     		subs	r6, r6, #1
 5051              	.LVL401:
 5052              	.L342:
 239:../../libDaisy/src/hid/disp/display.h ****         {
 5053              		.loc 12 239 26 is_stmt 1 view .LVU1178
 5054 028c 9942     		cmp	r1, r3
 5055 028e DED1     		bne	.L337
 239:../../libDaisy/src/hid/disp/display.h ****         {
 5056              		.loc 12 239 26 is_stmt 0 view .LVU1179
 5057 0290 B442     		cmp	r4, r6
 5058 0292 DCD1     		bne	.L337
 5059              	.LVL402:
 5060              	.L336:
 239:../../libDaisy/src/hid/disp/display.h ****         {
 5061              		.loc 12 239 26 view .LVU1180
 5062              	.LBE1334:
 5063              	.LBE1333:
 5064              	.LBB1356:
 5065              	.LBI1356:
 221:../../libDaisy/src/hid/disp/display.h ****                   uint_fast8_t y1,
ARM GAS  /var/folders/hl/qgbwny5j0fd895c2c41bk3tw0000gp/T//ccFqANMK.s 			page 143


 5066              		.loc 12 221 10 is_stmt 1 view .LVU1181
 5067              	.LBB1357:
 228:../../libDaisy/src/hid/disp/display.h ****         int_fast16_t signX  = ((x1 < x2) ? 1 : -1);
 5068              		.loc 12 228 52 is_stmt 0 view .LVU1182
 5069 0294 A2EB040E 		sub	lr, r2, r4
 228:../../libDaisy/src/hid/disp/display.h ****         int_fast16_t signX  = ((x1 < x2) ? 1 : -1);
 5070              		.loc 12 228 22 view .LVU1183
 5071 0298 BEF1000F 		cmp	lr, #0
 5072 029c B8BF     		it	lt
 5073 029e CEF1000E 		rsblt	lr, lr, #0
 5074              	.LVL403:
 230:../../libDaisy/src/hid/disp/display.h ****         int_fast16_t error  = deltaX - deltaY;
 5075              		.loc 12 230 42 view .LVU1184
 5076 02a2 A242     		cmp	r2, r4
 5077 02a4 8CBF     		ite	hi
 5078 02a6 4FF00108 		movhi	r8, #1
 5079 02aa 4FF0FF38 		movls	r8, #-1
 5080              	.LVL404:
 231:../../libDaisy/src/hid/disp/display.h ****         int_fast16_t error2;
 5081              		.loc 12 231 22 view .LVU1185
 5082 02ae CEF1000C 		rsb	ip, lr, #0
 5083              	.LVL405:
 5084              	.LBB1358:
 5085              	.LBI1358:
  42:../../libDaisy/src/hid/disp/oled_display.h ****     {
 5086              		.loc 10 42 10 is_stmt 1 view .LVU1186
 5087              	.LBB1359:
 5088              	.LBI1359:
 252:../../libDaisy/src/dev/oled_ssd130x.h ****     {
 5089              		.loc 11 252 10 view .LVU1187
 5090              	.LBB1360:
 254:../../libDaisy/src/dev/oled_ssd130x.h ****             return;
 5091              		.loc 11 254 9 is_stmt 0 view .LVU1188
 5092 02b2 BAF1000F 		cmp	r10, #0
 5093 02b6 0ED1     		bne	.L344
 5094 02b8 029B     		ldr	r3, [sp, #8]
 5095 02ba 63B9     		cbnz	r3, .L344
 257:../../libDaisy/src/dev/oled_ssd130x.h ****         else
 5096              		.loc 11 257 28 view .LVU1189
 5097 02bc D308     		lsrs	r3, r2, #3
 257:../../libDaisy/src/dev/oled_ssd130x.h ****         else
 5098              		.loc 11 257 54 view .LVU1190
 5099 02be 02F00707 		and	r7, r2, #7
 257:../../libDaisy/src/dev/oled_ssd130x.h ****         else
 5100              		.loc 11 257 48 view .LVU1191
 5101 02c2 0126     		movs	r6, #1
 257:../../libDaisy/src/dev/oled_ssd130x.h ****         else
 5102              		.loc 11 257 42 view .LVU1192
 5103 02c4 01EBC313 		add	r3, r1, r3, lsl #7
 5104 02c8 0344     		add	r3, r3, r0
 256:../../libDaisy/src/dev/oled_ssd130x.h ****             buffer_[x + (y / 8) * width] |= (1 << (y % 8));
 5105              		.loc 11 256 9 view .LVU1193
 5106 02ca 002D     		cmp	r5, #0
 5107 02cc 7CD0     		beq	.L345
 257:../../libDaisy/src/dev/oled_ssd130x.h ****         else
 5108              		.loc 11 257 48 view .LVU1194
 5109 02ce BE40     		lsls	r6, r6, r7
ARM GAS  /var/folders/hl/qgbwny5j0fd895c2c41bk3tw0000gp/T//ccFqANMK.s 			page 144


 257:../../libDaisy/src/dev/oled_ssd130x.h ****         else
 5110              		.loc 11 257 42 view .LVU1195
 5111 02d0 1F7D     		ldrb	r7, [r3, #20]	@ zero_extendqisi2
 5112 02d2 3E43     		orrs	r6, r6, r7
 5113 02d4 1E75     		strb	r6, [r3, #20]
 5114              	.L344:
 5115              	.LVL406:
 257:../../libDaisy/src/dev/oled_ssd130x.h ****         else
 5116              		.loc 11 257 42 view .LVU1196
 5117              	.LBE1360:
 5118              	.LBE1359:
 5119              	.LBE1358:
 239:../../libDaisy/src/hid/disp/display.h ****         {
 5120              		.loc 12 239 26 is_stmt 1 view .LVU1197
 5121 02d6 019B     		ldr	r3, [sp, #4]
 5122 02d8 002B     		cmp	r3, #0
 5123 02da 7FF4CDAE 		bne	.L302
 5124 02de 6646     		mov	r6, ip
 5125 02e0 0B46     		mov	r3, r1
 5126              	.LVL407:
 5127              	.L346:
 5128              	.LBB1365:
 5129              	.LBI1365:
  42:../../libDaisy/src/hid/disp/oled_display.h ****     {
 5130              		.loc 10 42 10 view .LVU1198
 5131              	.LBB1366:
 5132              	.LBI1366:
 252:../../libDaisy/src/dev/oled_ssd130x.h ****     {
 5133              		.loc 11 252 10 view .LVU1199
 5134              	.LBB1367:
 254:../../libDaisy/src/dev/oled_ssd130x.h ****             return;
 5135              		.loc 11 254 9 is_stmt 0 view .LVU1200
 5136 02e2 7F2B     		cmp	r3, #127
 5137 02e4 12D8     		bhi	.L348
 254:../../libDaisy/src/dev/oled_ssd130x.h ****             return;
 5138              		.loc 11 254 9 view .LVU1201
 5139 02e6 3F2C     		cmp	r4, #63
 5140 02e8 10D8     		bhi	.L348
 257:../../libDaisy/src/dev/oled_ssd130x.h ****         else
 5141              		.loc 11 257 28 view .LVU1202
 5142 02ea E708     		lsrs	r7, r4, #3
 257:../../libDaisy/src/dev/oled_ssd130x.h ****         else
 5143              		.loc 11 257 54 view .LVU1203
 5144 02ec 04F0070A 		and	r10, r4, #7
 257:../../libDaisy/src/dev/oled_ssd130x.h ****         else
 5145              		.loc 11 257 48 view .LVU1204
 5146 02f0 4FF00109 		mov	r9, #1
 257:../../libDaisy/src/dev/oled_ssd130x.h ****         else
 5147              		.loc 11 257 42 view .LVU1205
 5148 02f4 03EBC717 		add	r7, r3, r7, lsl #7
 5149 02f8 0744     		add	r7, r7, r0
 256:../../libDaisy/src/dev/oled_ssd130x.h ****             buffer_[x + (y / 8) * width] |= (1 << (y % 8));
 5150              		.loc 11 256 9 view .LVU1206
 5151 02fa A5B3     		cbz	r5, .L349
 257:../../libDaisy/src/dev/oled_ssd130x.h ****         else
 5152              		.loc 11 257 48 view .LVU1207
 5153 02fc 09FA0AF9 		lsl	r9, r9, r10
ARM GAS  /var/folders/hl/qgbwny5j0fd895c2c41bk3tw0000gp/T//ccFqANMK.s 			page 145


 257:../../libDaisy/src/dev/oled_ssd130x.h ****         else
 5154              		.loc 11 257 42 view .LVU1208
 5155 0300 97F814A0 		ldrb	r10, [r7, #20]	@ zero_extendqisi2
 5156 0304 49EA0A09 		orr	r9, r9, r10
 5157 0308 87F81490 		strb	r9, [r7, #20]
 5158              	.L348:
 5159              	.LVL408:
 257:../../libDaisy/src/dev/oled_ssd130x.h ****         else
 5160              		.loc 11 257 42 view .LVU1209
 5161              	.LBE1367:
 5162              	.LBE1366:
 5163              	.LBE1365:
 243:../../libDaisy/src/hid/disp/display.h ****             {
 5164              		.loc 12 243 13 view .LVU1210
 5165 030c BCEB460F 		cmp	ip, r6, lsl #1
 242:../../libDaisy/src/hid/disp/display.h ****             if(error2 > -deltaY)
 5166              		.loc 12 242 20 view .LVU1211
 5167 0310 4FEA4607 		lsl	r7, r6, #1
 5168              	.LVL409:
 243:../../libDaisy/src/hid/disp/display.h ****             {
 5169              		.loc 12 243 13 view .LVU1212
 5170 0314 02DA     		bge	.L350
 245:../../libDaisy/src/hid/disp/display.h ****                 x1 += signX;
 5171              		.loc 12 245 23 view .LVU1213
 5172 0316 A6EB0E06 		sub	r6, r6, lr
 5173              	.LVL410:
 246:../../libDaisy/src/hid/disp/display.h ****             }
 5174              		.loc 12 246 20 view .LVU1214
 5175 031a 013B     		subs	r3, r3, #1
 5176              	.LVL411:
 5177              	.L350:
 249:../../libDaisy/src/hid/disp/display.h ****             {
 5178              		.loc 12 249 13 view .LVU1215
 5179 031c 07B1     		cbz	r7, .L351
 252:../../libDaisy/src/hid/disp/display.h ****             }
 5180              		.loc 12 252 20 view .LVU1216
 5181 031e 4444     		add	r4, r4, r8
 5182              	.LVL412:
 5183              	.L351:
 239:../../libDaisy/src/hid/disp/display.h ****         {
 5184              		.loc 12 239 26 is_stmt 1 view .LVU1217
 5185 0320 9942     		cmp	r1, r3
 5186 0322 DED1     		bne	.L346
 239:../../libDaisy/src/hid/disp/display.h ****         {
 5187              		.loc 12 239 26 is_stmt 0 view .LVU1218
 5188 0324 A242     		cmp	r2, r4
 5189 0326 DCD1     		bne	.L346
 5190              	.LBE1357:
 5191              	.LBE1356:
 5192              	.LBE1409:
 281:../../libDaisy/src/hid/disp/display.h **** 
 5193              		.loc 12 281 5 view .LVU1219
 5194 0328 07B0     		add	sp, sp, #28
 5195              		.cfi_remember_state
 5196              		.cfi_def_cfa_offset 36
 5197              		@ sp needed
 5198 032a BDE8F08F 		pop	{r4, r5, r6, r7, r8, r9, r10, fp, pc}
ARM GAS  /var/folders/hl/qgbwny5j0fd895c2c41bk3tw0000gp/T//ccFqANMK.s 			page 146


 5199              	.LVL413:
 5200              	.L311:
 5201              		.cfi_restore_state
 5202              	.LBB1410:
 5203              	.LBB1376:
 5204              	.LBB1293:
 5205              	.LBB1289:
  42:../../libDaisy/src/hid/disp/oled_display.h ****     {
 5206              		.loc 10 42 10 is_stmt 1 view .LVU1220
 5207              	.LBB1278:
 252:../../libDaisy/src/dev/oled_ssd130x.h ****     {
 5208              		.loc 11 252 10 view .LVU1221
 5209              	.LBB1274:
 254:../../libDaisy/src/dev/oled_ssd130x.h ****             return;
 5210              		.loc 11 254 28 is_stmt 0 view .LVU1222
 5211 032e 3F2A     		cmp	r2, #63
 5212              	.LBE1274:
 5213              	.LBE1278:
 5214              	.LBE1289:
 229:../../libDaisy/src/hid/disp/display.h ****         int_fast16_t signY  = ((y1 < y2) ? 1 : -1);
 5215              		.loc 12 229 42 view .LVU1223
 5216 0330 4FF0010A 		mov	r10, #1
 5217              	.LBB1290:
 5218              	.LBB1279:
 5219              	.LBB1275:
 254:../../libDaisy/src/dev/oled_ssd130x.h ****             return;
 5220              		.loc 11 254 28 view .LVU1224
 5221 0334 94BF     		ite	ls
 5222 0336 0026     		movls	r6, #0
 5223 0338 0126     		movhi	r6, #1
 254:../../libDaisy/src/dev/oled_ssd130x.h ****             return;
 5224              		.loc 11 254 14 view .LVU1225
 5225 033a 7F2B     		cmp	r3, #127
 254:../../libDaisy/src/dev/oled_ssd130x.h ****             return;
 5226              		.loc 11 254 28 view .LVU1226
 5227 033c 0296     		str	r6, [sp, #8]
 254:../../libDaisy/src/dev/oled_ssd130x.h ****             return;
 5228              		.loc 11 254 14 view .LVU1227
 5229 033e 94BF     		ite	ls
 5230 0340 0027     		movls	r7, #0
 5231 0342 0127     		movhi	r7, #1
 5232 0344 0097     		str	r7, [sp]
 254:../../libDaisy/src/dev/oled_ssd130x.h ****             return;
 5233              		.loc 11 254 9 view .LVU1228
 5234 0346 002E     		cmp	r6, #0
 5235 0348 7FF4C8AE 		bne	.L315
 5236 034c 002F     		cmp	r7, #0
 5237 034e 3FF4AEAE 		beq	.L353
 5238 0352 C3E6     		b	.L315
 5239              	.LVL414:
 5240              	.L340:
 254:../../libDaisy/src/dev/oled_ssd130x.h ****             return;
 5241              		.loc 11 254 9 view .LVU1229
 5242              	.LBE1275:
 5243              	.LBE1279:
 5244              	.LBE1290:
 5245              	.LBE1293:
ARM GAS  /var/folders/hl/qgbwny5j0fd895c2c41bk3tw0000gp/T//ccFqANMK.s 			page 147


 5246              	.LBE1376:
 5247              	.LBB1377:
 5248              	.LBB1354:
 5249              	.LBB1352:
 5250              	.LBB1351:
 5251              	.LBB1350:
 5252              	.LBB1348:
 5253              	.LBI1348:
 252:../../libDaisy/src/dev/oled_ssd130x.h ****     {
 5254              		.loc 11 252 10 is_stmt 1 view .LVU1230
 5255              	.LBB1349:
 259:../../libDaisy/src/dev/oled_ssd130x.h ****     }
 5256              		.loc 11 259 49 is_stmt 0 view .LVU1231
 5257 0354 08FA0BFB 		lsl	fp, r8, fp
 259:../../libDaisy/src/dev/oled_ssd130x.h ****     }
 5258              		.loc 11 259 42 view .LVU1232
 5259 0358 9CF81480 		ldrb	r8, [ip, #20]	@ zero_extendqisi2
 5260 035c 28EA0B08 		bic	r8, r8, fp
 5261 0360 8CF81480 		strb	r8, [ip, #20]
 5262 0364 8AE7     		b	.L339
 5263              	.LVL415:
 5264              	.L349:
 259:../../libDaisy/src/dev/oled_ssd130x.h ****     }
 5265              		.loc 11 259 42 view .LVU1233
 5266              	.LBE1349:
 5267              	.LBE1348:
 5268              	.LBE1350:
 5269              	.LBE1351:
 5270              	.LBE1352:
 5271              	.LBE1354:
 5272              	.LBE1377:
 5273              	.LBB1378:
 5274              	.LBB1374:
 5275              	.LBB1372:
 5276              	.LBB1371:
 5277              	.LBB1370:
 5278              	.LBB1368:
 5279              	.LBI1368:
 252:../../libDaisy/src/dev/oled_ssd130x.h ****     {
 5280              		.loc 11 252 10 is_stmt 1 view .LVU1234
 5281              	.LBB1369:
 259:../../libDaisy/src/dev/oled_ssd130x.h ****     }
 5282              		.loc 11 259 49 is_stmt 0 view .LVU1235
 5283 0366 09FA0AFA 		lsl	r10, r9, r10
 259:../../libDaisy/src/dev/oled_ssd130x.h ****     }
 5284              		.loc 11 259 42 view .LVU1236
 5285 036a 97F81490 		ldrb	r9, [r7, #20]	@ zero_extendqisi2
 5286 036e 29EA0A09 		bic	r9, r9, r10
 5287 0372 87F81490 		strb	r9, [r7, #20]
 5288 0376 C9E7     		b	.L348
 5289              	.LVL416:
 5290              	.L319:
 259:../../libDaisy/src/dev/oled_ssd130x.h ****     }
 5291              		.loc 11 259 42 view .LVU1237
 5292              	.LBE1369:
 5293              	.LBE1368:
 5294              	.LBE1370:
ARM GAS  /var/folders/hl/qgbwny5j0fd895c2c41bk3tw0000gp/T//ccFqANMK.s 			page 148


 5295              	.LBE1371:
 5296              	.LBE1372:
 5297              	.LBE1374:
 5298              	.LBE1378:
 5299              	.LBB1379:
 5300              	.LBB1294:
 5301              	.LBB1291:
 5302              	.LBB1288:
 5303              	.LBB1287:
 5304              	.LBB1285:
 5305              	.LBI1285:
 252:../../libDaisy/src/dev/oled_ssd130x.h ****     {
 5306              		.loc 11 252 10 is_stmt 1 view .LVU1238
 5307              	.LBB1286:
 259:../../libDaisy/src/dev/oled_ssd130x.h ****     }
 5308              		.loc 11 259 49 is_stmt 0 view .LVU1239
 5309 0378 09FA0BFB 		lsl	fp, r9, fp
 259:../../libDaisy/src/dev/oled_ssd130x.h ****     }
 5310              		.loc 11 259 42 view .LVU1240
 5311 037c 97F81490 		ldrb	r9, [r7, #20]	@ zero_extendqisi2
 5312 0380 29EA0B09 		bic	r9, r9, fp
 5313 0384 87F81490 		strb	r9, [r7, #20]
 5314 0388 C5E6     		b	.L318
 5315              	.LVL417:
 5316              	.L330:
 259:../../libDaisy/src/dev/oled_ssd130x.h ****     }
 5317              		.loc 11 259 42 view .LVU1241
 5318              	.LBE1286:
 5319              	.LBE1285:
 5320              	.LBE1287:
 5321              	.LBE1288:
 5322              	.LBE1291:
 5323              	.LBE1294:
 5324              	.LBE1379:
 5325              	.LBB1380:
 5326              	.LBB1330:
 5327              	.LBB1327:
 5328              	.LBB1326:
 5329              	.LBB1325:
 5330              	.LBB1323:
 5331              	.LBI1323:
 252:../../libDaisy/src/dev/oled_ssd130x.h ****     {
 5332              		.loc 11 252 10 is_stmt 1 view .LVU1242
 5333              	.LBB1324:
 259:../../libDaisy/src/dev/oled_ssd130x.h ****     }
 5334              		.loc 11 259 49 is_stmt 0 view .LVU1243
 5335 038a 0AFA0BFB 		lsl	fp, r10, fp
 259:../../libDaisy/src/dev/oled_ssd130x.h ****     }
 5336              		.loc 11 259 42 view .LVU1244
 5337 038e 9EF814A0 		ldrb	r10, [lr, #20]	@ zero_extendqisi2
 5338 0392 2AEA0B0A 		bic	r10, r10, fp
 5339 0396 8EF814A0 		strb	r10, [lr, #20]
 5340 039a 18E7     		b	.L329
 5341              	.LVL418:
 5342              	.L322:
 259:../../libDaisy/src/dev/oled_ssd130x.h ****     }
 5343              		.loc 11 259 42 view .LVU1245
ARM GAS  /var/folders/hl/qgbwny5j0fd895c2c41bk3tw0000gp/T//ccFqANMK.s 			page 149


 5344              	.LBE1324:
 5345              	.LBE1323:
 5346              	.LBE1325:
 5347              	.LBE1326:
 5348              	.LBE1327:
 5349              	.LBB1328:
 5350              	.LBB1314:
 5351              	.LBB1308:
 254:../../libDaisy/src/dev/oled_ssd130x.h ****             return;
 5352              		.loc 11 254 9 view .LVU1246
 5353 039c 97BB     		cbnz	r7, .L361
 5354 039e 8EBB     		cbnz	r6, .L361
 5355              	.LBE1308:
 5356              	.LBE1314:
 5357              	.LBE1328:
 230:../../libDaisy/src/hid/disp/display.h ****         int_fast16_t error  = deltaX - deltaY;
 5358              		.loc 12 230 42 view .LVU1247
 5359 03a0 0126     		movs	r6, #1
 5360 03a2 0096     		str	r6, [sp]
 5361              	.LBB1329:
 5362              	.LBB1315:
 5363              	.LBB1309:
 257:../../libDaisy/src/dev/oled_ssd130x.h ****         else
 5364              		.loc 11 257 28 view .LVU1248
 5365 03a4 E608     		lsrs	r6, r4, #3
 257:../../libDaisy/src/dev/oled_ssd130x.h ****         else
 5366              		.loc 11 257 42 view .LVU1249
 5367 03a6 03EBC616 		add	r6, r3, r6, lsl #7
 5368 03aa 0644     		add	r6, r6, r0
 256:../../libDaisy/src/dev/oled_ssd130x.h ****             buffer_[x + (y / 8) * width] |= (1 << (y % 8));
 5369              		.loc 11 256 9 view .LVU1250
 5370 03ac 002D     		cmp	r5, #0
 5371 03ae 7FF4E2AE 		bne	.L396
 5372              	.LVL419:
 5373              	.L324:
 5374              	.LBB1302:
 5375              	.LBI1302:
 252:../../libDaisy/src/dev/oled_ssd130x.h ****     {
 5376              		.loc 11 252 10 is_stmt 1 view .LVU1251
 5377              	.LBB1303:
 259:../../libDaisy/src/dev/oled_ssd130x.h ****     }
 5378              		.loc 11 259 49 is_stmt 0 view .LVU1252
 5379 03b2 0127     		movs	r7, #1
 259:../../libDaisy/src/dev/oled_ssd130x.h ****     }
 5380              		.loc 11 259 55 view .LVU1253
 5381 03b4 04F0070C 		and	ip, r4, #7
 259:../../libDaisy/src/dev/oled_ssd130x.h ****     }
 5382              		.loc 11 259 42 view .LVU1254
 5383 03b8 0395     		str	r5, [sp, #12]
 259:../../libDaisy/src/dev/oled_ssd130x.h ****     }
 5384              		.loc 11 259 49 view .LVU1255
 5385 03ba 07FA0CFC 		lsl	ip, r7, ip
 259:../../libDaisy/src/dev/oled_ssd130x.h ****     }
 5386              		.loc 11 259 42 view .LVU1256
 5387 03be 377D     		ldrb	r7, [r6, #20]	@ zero_extendqisi2
 5388 03c0 27EA0C07 		bic	r7, r7, ip
 5389 03c4 3775     		strb	r7, [r6, #20]
ARM GAS  /var/folders/hl/qgbwny5j0fd895c2c41bk3tw0000gp/T//ccFqANMK.s 			page 150


 5390 03c6 E3E6     		b	.L323
 5391              	.LVL420:
 5392              	.L345:
 259:../../libDaisy/src/dev/oled_ssd130x.h ****     }
 5393              		.loc 11 259 42 view .LVU1257
 5394              	.LBE1303:
 5395              	.LBE1302:
 5396              	.LBE1309:
 5397              	.LBE1315:
 5398              	.LBE1329:
 5399              	.LBE1330:
 5400              	.LBE1380:
 5401              	.LBB1381:
 5402              	.LBB1375:
 5403              	.LBB1373:
 5404              	.LBB1364:
 5405              	.LBB1363:
 5406              	.LBB1361:
 5407              	.LBI1361:
 252:../../libDaisy/src/dev/oled_ssd130x.h ****     {
 5408              		.loc 11 252 10 is_stmt 1 view .LVU1258
 5409              	.LBB1362:
 259:../../libDaisy/src/dev/oled_ssd130x.h ****     }
 5410              		.loc 11 259 49 is_stmt 0 view .LVU1259
 5411 03c8 06FA07F7 		lsl	r7, r6, r7
 259:../../libDaisy/src/dev/oled_ssd130x.h ****     }
 5412              		.loc 11 259 42 view .LVU1260
 5413 03cc 1E7D     		ldrb	r6, [r3, #20]	@ zero_extendqisi2
 5414 03ce 26EA0706 		bic	r6, r6, r7
 5415 03d2 1E75     		strb	r6, [r3, #20]
 5416 03d4 7FE7     		b	.L344
 5417              	.LVL421:
 5418              	.L335:
 259:../../libDaisy/src/dev/oled_ssd130x.h ****     }
 5419              		.loc 11 259 42 view .LVU1261
 5420              	.LBE1362:
 5421              	.LBE1361:
 5422              	.LBE1363:
 5423              	.LBE1364:
 5424              	.LBE1373:
 5425              	.LBE1375:
 5426              	.LBE1381:
 5427              	.LBB1382:
 5428              	.LBB1355:
 5429              	.LBB1353:
 5430              	.LBB1343:
 5431              	.LBB1341:
 5432              	.LBB1338:
 5433              	.LBI1338:
 252:../../libDaisy/src/dev/oled_ssd130x.h ****     {
 5434              		.loc 11 252 10 is_stmt 1 view .LVU1262
 5435              	.LBB1339:
 259:../../libDaisy/src/dev/oled_ssd130x.h ****     }
 5436              		.loc 11 259 49 is_stmt 0 view .LVU1263
 5437 03d6 0127     		movs	r7, #1
 259:../../libDaisy/src/dev/oled_ssd130x.h ****     }
 5438              		.loc 11 259 55 view .LVU1264
ARM GAS  /var/folders/hl/qgbwny5j0fd895c2c41bk3tw0000gp/T//ccFqANMK.s 			page 151


 5439 03d8 04F0070C 		and	ip, r4, #7
 259:../../libDaisy/src/dev/oled_ssd130x.h ****     }
 5440              		.loc 11 259 49 view .LVU1265
 5441 03dc 07FA0CFC 		lsl	ip, r7, ip
 259:../../libDaisy/src/dev/oled_ssd130x.h ****     }
 5442              		.loc 11 259 42 view .LVU1266
 5443 03e0 377D     		ldrb	r7, [r6, #20]	@ zero_extendqisi2
 5444 03e2 27EA0C07 		bic	r7, r7, ip
 5445 03e6 3775     		strb	r7, [r6, #20]
 5446 03e8 2DE7     		b	.L334
 5447              	.LVL422:
 5448              	.L313:
 259:../../libDaisy/src/dev/oled_ssd130x.h ****     }
 5449              		.loc 11 259 42 view .LVU1267
 5450              	.LBE1339:
 5451              	.LBE1338:
 5452              	.LBE1341:
 5453              	.LBE1343:
 5454              	.LBE1353:
 5455              	.LBE1355:
 5456              	.LBE1382:
 5457              	.LBB1383:
 5458              	.LBB1295:
 5459              	.LBB1292:
 5460              	.LBB1280:
 5461              	.LBB1276:
 5462              	.LBB1271:
 5463              	.LBI1271:
 252:../../libDaisy/src/dev/oled_ssd130x.h ****     {
 5464              		.loc 11 252 10 is_stmt 1 view .LVU1268
 5465              	.LBB1272:
 259:../../libDaisy/src/dev/oled_ssd130x.h ****     }
 5466              		.loc 11 259 49 is_stmt 0 view .LVU1269
 5467 03ea 07FA0CFC 		lsl	ip, r7, ip
 259:../../libDaisy/src/dev/oled_ssd130x.h ****     }
 5468              		.loc 11 259 42 view .LVU1270
 5469 03ee 377D     		ldrb	r7, [r6, #20]	@ zero_extendqisi2
 5470 03f0 0295     		str	r5, [sp, #8]
 5471 03f2 27EA0C07 		bic	r7, r7, ip
 5472 03f6 0095     		str	r5, [sp]
 5473 03f8 3775     		strb	r7, [r6, #20]
 5474 03fa 6CE6     		b	.L312
 5475              	.LVL423:
 5476              	.L357:
 259:../../libDaisy/src/dev/oled_ssd130x.h ****     }
 5477              		.loc 11 259 42 view .LVU1271
 5478              	.LBE1272:
 5479              	.LBE1271:
 5480              	.LBE1276:
 5481              	.LBE1280:
 5482              	.LBE1292:
 5483              	.LBE1295:
 5484              	.LBE1383:
 5485              	.LBB1384:
 5486              	.LBB1331:
 230:../../libDaisy/src/hid/disp/display.h ****         int_fast16_t error  = deltaX - deltaY;
 5487              		.loc 12 230 42 view .LVU1272
ARM GAS  /var/folders/hl/qgbwny5j0fd895c2c41bk3tw0000gp/T//ccFqANMK.s 			page 152


 5488 03fc 4FF0FF36 		mov	r6, #-1
 5489 0400 0096     		str	r6, [sp]
 5490 0402 C5E6     		b	.L323
 5491              	.LVL424:
 5492              	.L361:
 230:../../libDaisy/src/hid/disp/display.h ****         int_fast16_t error  = deltaX - deltaY;
 5493              		.loc 12 230 42 view .LVU1273
 5494 0404 0126     		movs	r6, #1
 5495 0406 0096     		str	r6, [sp]
 5496 0408 C5E6     		b	.L326
 5497              	.LVL425:
 5498              	.L394:
 230:../../libDaisy/src/hid/disp/display.h ****         int_fast16_t error  = deltaX - deltaY;
 5499              		.loc 12 230 42 view .LVU1274
 5500              	.LBE1331:
 5501              	.LBE1384:
 5502              	.LBB1385:
 5503              	.LBB1296:
 239:../../libDaisy/src/hid/disp/display.h ****         {
 5504              		.loc 12 239 19 view .LVU1275
 5505 040a 0126     		movs	r6, #1
 5506 040c 0496     		str	r6, [sp, #16]
 5507 040e 90E6     		b	.L314
 5508              	.LVL426:
 5509              	.L395:
 239:../../libDaisy/src/hid/disp/display.h ****         {
 5510              		.loc 12 239 19 view .LVU1276
 5511              	.LBE1296:
 5512              	.LBE1385:
 5513              	.LBB1386:
 5514              	.LBB1332:
 239:../../libDaisy/src/hid/disp/display.h ****         {
 5515              		.loc 12 239 33 view .LVU1277
 5516 0410 0126     		movs	r6, #1
 5517 0412 0196     		str	r6, [sp, #4]
 5518 0414 EDE6     		b	.L325
 5519              	.LBE1332:
 5520              	.LBE1386:
 5521              	.LBE1410:
 5522              		.cfi_endproc
 5523              	.LFE2613:
 5525 0416 00BF     		.section	.text._ZN5daisy13SSD130xDriverILj128ELj64ENS_24SSD130x4WireSpiTransportEE4InitENS2_6Confi
 5526              		.align	1
 5527              		.p2align 2,,3
 5528              		.weak	_ZN5daisy13SSD130xDriverILj128ELj64ENS_24SSD130x4WireSpiTransportEE4InitENS2_6ConfigE
 5529              		.syntax unified
 5530              		.thumb
 5531              		.thumb_func
 5532              		.fpu fpv5-d16
 5534              	_ZN5daisy13SSD130xDriverILj128ELj64ENS_24SSD130x4WireSpiTransportEE4InitENS2_6ConfigE:
 5535              	.LVL427:
 5536              	.LFB2598:
 153:../../libDaisy/src/dev/oled_ssd130x.h ****     {
 5537              		.loc 11 153 10 is_stmt 1 view -0
 5538              		.cfi_startproc
 5539              		@ args = 48, pretend = 16, frame = 8
 5540              		@ frame_needed = 0, uses_anonymous_args = 0
ARM GAS  /var/folders/hl/qgbwny5j0fd895c2c41bk3tw0000gp/T//ccFqANMK.s 			page 153


 153:../../libDaisy/src/dev/oled_ssd130x.h ****     {
 5541              		.loc 11 153 10 is_stmt 0 view .LVU1279
 5542 0000 84B0     		sub	sp, sp, #16
 5543              		.cfi_def_cfa_offset 16
 5544 0002 2DE9F041 		push	{r4, r5, r6, r7, r8, lr}
 5545              		.cfi_def_cfa_offset 40
 5546              		.cfi_offset 4, -40
 5547              		.cfi_offset 5, -36
 5548              		.cfi_offset 6, -32
 5549              		.cfi_offset 7, -28
 5550              		.cfi_offset 8, -24
 5551              		.cfi_offset 14, -20
 5552 0006 82B0     		sub	sp, sp, #8
 5553              		.cfi_def_cfa_offset 48
 5554              	.LBB1459:
 5555              	.LBB1460:
 106:../../libDaisy/src/dev/oled_ssd130x.h ****         pin_dc_.pin  = config.pin_config.dc;
 5556              		.loc 11 106 22 view .LVU1280
 5557 0008 0125     		movs	r5, #1
 107:../../libDaisy/src/dev/oled_ssd130x.h ****         dsy_gpio_init(&pin_dc_);
 5558              		.loc 11 107 22 view .LVU1281
 5559 000a 0646     		mov	r6, r0
 5560              	.LBE1460:
 5561              	.LBE1459:
 153:../../libDaisy/src/dev/oled_ssd130x.h ****     {
 5562              		.loc 11 153 10 view .LVU1282
 5563 000c 0446     		mov	r4, r0
 5564              	.LVL428:
 5565              	.LBB1464:
 5566              	.LBI1459:
 103:../../libDaisy/src/dev/oled_ssd130x.h ****     {
 5567              		.loc 11 103 10 is_stmt 1 view .LVU1283
 5568              	.LBB1461:
 106:../../libDaisy/src/dev/oled_ssd130x.h ****         pin_dc_.pin  = config.pin_config.dc;
 5569              		.loc 11 106 9 view .LVU1284
 5570              	.LBE1461:
 5571              	.LBE1464:
 153:../../libDaisy/src/dev/oled_ssd130x.h ****     {
 5572              		.loc 11 153 10 is_stmt 0 view .LVU1285
 5573 000e 0DF12408 		add	r8, sp, #36
 5574              	.LBB1465:
 5575              	.LBB1462:
 106:../../libDaisy/src/dev/oled_ssd130x.h ****         pin_dc_.pin  = config.pin_config.dc;
 5576              		.loc 11 106 22 view .LVU1286
 5577 0012 8572     		strb	r5, [r0, #10]
 107:../../libDaisy/src/dev/oled_ssd130x.h ****         dsy_gpio_init(&pin_dc_);
 5578              		.loc 11 107 9 is_stmt 1 view .LVU1287
 110:../../libDaisy/src/dev/oled_ssd130x.h ****         dsy_gpio_init(&pin_reset_);
 5579              		.loc 11 110 25 is_stmt 0 view .LVU1288
 5580 0014 2746     		mov	r7, r4
 5581              	.LBE1462:
 5582              	.LBE1465:
 153:../../libDaisy/src/dev/oled_ssd130x.h ****     {
 5583              		.loc 11 153 10 view .LVU1289
 5584 0016 88E80E00 		stm	r8, {r1, r2, r3}
 5585              	.LBB1466:
 5586              	.LBB1463:
ARM GAS  /var/folders/hl/qgbwny5j0fd895c2c41bk3tw0000gp/T//ccFqANMK.s 			page 154


 107:../../libDaisy/src/dev/oled_ssd130x.h ****         dsy_gpio_init(&pin_dc_);
 5587              		.loc 11 107 22 view .LVU1290
 5588 001a BDF84C30 		ldrh	r3, [sp, #76]
 5589 001e 26F8083F 		strh	r3, [r6, #8]!	@ movhi
 108:../../libDaisy/src/dev/oled_ssd130x.h ****         pin_reset_.mode = DSY_GPIO_MODE_OUTPUT_PP;
 5590              		.loc 11 108 9 is_stmt 1 view .LVU1291
 108:../../libDaisy/src/dev/oled_ssd130x.h ****         pin_reset_.mode = DSY_GPIO_MODE_OUTPUT_PP;
 5591              		.loc 11 108 22 is_stmt 0 view .LVU1292
 5592 0022 3046     		mov	r0, r6
 5593              	.LVL429:
 108:../../libDaisy/src/dev/oled_ssd130x.h ****         pin_reset_.mode = DSY_GPIO_MODE_OUTPUT_PP;
 5594              		.loc 11 108 22 view .LVU1293
 5595 0024 FFF7FEFF 		bl	dsy_gpio_init
 5596              	.LVL430:
 109:../../libDaisy/src/dev/oled_ssd130x.h ****         pin_reset_.pin  = config.pin_config.reset;
 5597              		.loc 11 109 9 is_stmt 1 view .LVU1294
 110:../../libDaisy/src/dev/oled_ssd130x.h ****         dsy_gpio_init(&pin_reset_);
 5598              		.loc 11 110 25 is_stmt 0 view .LVU1295
 5599 0028 BDF84E30 		ldrh	r3, [sp, #78]
 109:../../libDaisy/src/dev/oled_ssd130x.h ****         pin_reset_.pin  = config.pin_config.reset;
 5600              		.loc 11 109 25 view .LVU1296
 5601 002c A571     		strb	r5, [r4, #6]
 110:../../libDaisy/src/dev/oled_ssd130x.h ****         dsy_gpio_init(&pin_reset_);
 5602              		.loc 11 110 9 is_stmt 1 view .LVU1297
 110:../../libDaisy/src/dev/oled_ssd130x.h ****         dsy_gpio_init(&pin_reset_);
 5603              		.loc 11 110 25 is_stmt 0 view .LVU1298
 5604 002e 27F8043F 		strh	r3, [r7, #4]!	@ movhi
 111:../../libDaisy/src/dev/oled_ssd130x.h **** 
 5605              		.loc 11 111 9 is_stmt 1 view .LVU1299
 111:../../libDaisy/src/dev/oled_ssd130x.h **** 
 5606              		.loc 11 111 22 is_stmt 0 view .LVU1300
 5607 0032 3846     		mov	r0, r7
 5608 0034 FFF7FEFF 		bl	dsy_gpio_init
 5609              	.LVL431:
 114:../../libDaisy/src/dev/oled_ssd130x.h **** 
 5610              		.loc 11 114 9 is_stmt 1 view .LVU1301
 114:../../libDaisy/src/dev/oled_ssd130x.h **** 
 5611              		.loc 11 114 18 is_stmt 0 view .LVU1302
 5612 0038 4146     		mov	r1, r8
 5613 003a 2046     		mov	r0, r4
 5614 003c FFF7FEFF 		bl	_ZN5daisy9SpiHandle4InitERKNS0_6ConfigE
 5615              	.LVL432:
 117:../../libDaisy/src/dev/oled_ssd130x.h ****         System::Delay(10);
 5616              		.loc 11 117 9 is_stmt 1 view .LVU1303
 117:../../libDaisy/src/dev/oled_ssd130x.h ****         System::Delay(10);
 5617              		.loc 11 117 23 is_stmt 0 view .LVU1304
 5618 0040 0021     		movs	r1, #0
 5619 0042 3846     		mov	r0, r7
 5620 0044 FFF7FEFF 		bl	dsy_gpio_write
 5621              	.LVL433:
 118:../../libDaisy/src/dev/oled_ssd130x.h ****         dsy_gpio_write(&pin_reset_, 1);
 5622              		.loc 11 118 9 is_stmt 1 view .LVU1305
 118:../../libDaisy/src/dev/oled_ssd130x.h ****         dsy_gpio_write(&pin_reset_, 1);
 5623              		.loc 11 118 22 is_stmt 0 view .LVU1306
 5624 0048 0A20     		movs	r0, #10
 5625 004a FFF7FEFF 		bl	_ZN5daisy6System5DelayEm
 5626              	.LVL434:
ARM GAS  /var/folders/hl/qgbwny5j0fd895c2c41bk3tw0000gp/T//ccFqANMK.s 			page 155


 119:../../libDaisy/src/dev/oled_ssd130x.h ****         System::Delay(10);
 5627              		.loc 11 119 9 is_stmt 1 view .LVU1307
 119:../../libDaisy/src/dev/oled_ssd130x.h ****         System::Delay(10);
 5628              		.loc 11 119 23 is_stmt 0 view .LVU1308
 5629 004e 2946     		mov	r1, r5
 5630 0050 3846     		mov	r0, r7
 5631 0052 FFF7FEFF 		bl	dsy_gpio_write
 5632              	.LVL435:
 120:../../libDaisy/src/dev/oled_ssd130x.h ****     };
 5633              		.loc 11 120 9 is_stmt 1 view .LVU1309
 120:../../libDaisy/src/dev/oled_ssd130x.h ****     };
 5634              		.loc 11 120 22 is_stmt 0 view .LVU1310
 5635 0056 0A20     		movs	r0, #10
 5636 0058 FFF7FEFF 		bl	_ZN5daisy6System5DelayEm
 5637              	.LVL436:
 120:../../libDaisy/src/dev/oled_ssd130x.h ****     };
 5638              		.loc 11 120 22 view .LVU1311
 5639 005c AE23     		movs	r3, #174
 5640              	.LBE1463:
 5641              	.LBE1466:
 5642              	.LBB1467:
 5643              	.LBB1468:
 124:../../libDaisy/src/dev/oled_ssd130x.h ****         spi_.BlockingTransmit(&cmd, 1);
 5644              		.loc 11 124 23 view .LVU1312
 5645 005e 3046     		mov	r0, r6
 5646 0060 0021     		movs	r1, #0
 5647 0062 8DF80730 		strb	r3, [sp, #7]
 5648              	.LVL437:
 124:../../libDaisy/src/dev/oled_ssd130x.h ****         spi_.BlockingTransmit(&cmd, 1);
 5649              		.loc 11 124 23 view .LVU1313
 5650              	.LBE1468:
 5651              	.LBI1467:
 122:../../libDaisy/src/dev/oled_ssd130x.h ****     {
 5652              		.loc 11 122 10 is_stmt 1 view .LVU1314
 5653              	.LBB1469:
 124:../../libDaisy/src/dev/oled_ssd130x.h ****         spi_.BlockingTransmit(&cmd, 1);
 5654              		.loc 11 124 9 view .LVU1315
 124:../../libDaisy/src/dev/oled_ssd130x.h ****         spi_.BlockingTransmit(&cmd, 1);
 5655              		.loc 11 124 23 is_stmt 0 view .LVU1316
 5656 0066 FFF7FEFF 		bl	dsy_gpio_write
 5657              	.LVL438:
 125:../../libDaisy/src/dev/oled_ssd130x.h ****     };
 5658              		.loc 11 125 9 is_stmt 1 view .LVU1317
 125:../../libDaisy/src/dev/oled_ssd130x.h ****     };
 5659              		.loc 11 125 30 is_stmt 0 view .LVU1318
 5660 006a 2A46     		mov	r2, r5
 5661 006c 0DF10701 		add	r1, sp, #7
 5662 0070 6423     		movs	r3, #100
 5663 0072 2046     		mov	r0, r4
 5664 0074 FFF7FEFF 		bl	_ZN5daisy9SpiHandle16BlockingTransmitEPhjm
 5665              	.LVL439:
 125:../../libDaisy/src/dev/oled_ssd130x.h ****     };
 5666              		.loc 11 125 30 view .LVU1319
 5667 0078 D523     		movs	r3, #213
 5668              	.LBE1469:
 5669              	.LBE1467:
 5670              	.LBB1470:
ARM GAS  /var/folders/hl/qgbwny5j0fd895c2c41bk3tw0000gp/T//ccFqANMK.s 			page 156


 5671              	.LBB1471:
 124:../../libDaisy/src/dev/oled_ssd130x.h ****         spi_.BlockingTransmit(&cmd, 1);
 5672              		.loc 11 124 23 view .LVU1320
 5673 007a 3046     		mov	r0, r6
 5674 007c 0021     		movs	r1, #0
 5675 007e 8DF80730 		strb	r3, [sp, #7]
 5676              	.LVL440:
 124:../../libDaisy/src/dev/oled_ssd130x.h ****         spi_.BlockingTransmit(&cmd, 1);
 5677              		.loc 11 124 23 view .LVU1321
 5678              	.LBE1471:
 5679              	.LBI1470:
 122:../../libDaisy/src/dev/oled_ssd130x.h ****     {
 5680              		.loc 11 122 10 is_stmt 1 view .LVU1322
 5681              	.LBB1472:
 124:../../libDaisy/src/dev/oled_ssd130x.h ****         spi_.BlockingTransmit(&cmd, 1);
 5682              		.loc 11 124 9 view .LVU1323
 124:../../libDaisy/src/dev/oled_ssd130x.h ****         spi_.BlockingTransmit(&cmd, 1);
 5683              		.loc 11 124 23 is_stmt 0 view .LVU1324
 5684 0082 FFF7FEFF 		bl	dsy_gpio_write
 5685              	.LVL441:
 125:../../libDaisy/src/dev/oled_ssd130x.h ****     };
 5686              		.loc 11 125 9 is_stmt 1 view .LVU1325
 125:../../libDaisy/src/dev/oled_ssd130x.h ****     };
 5687              		.loc 11 125 30 is_stmt 0 view .LVU1326
 5688 0086 2A46     		mov	r2, r5
 5689 0088 0DF10701 		add	r1, sp, #7
 5690 008c 6423     		movs	r3, #100
 5691 008e 2046     		mov	r0, r4
 5692 0090 FFF7FEFF 		bl	_ZN5daisy9SpiHandle16BlockingTransmitEPhjm
 5693              	.LVL442:
 125:../../libDaisy/src/dev/oled_ssd130x.h ****     };
 5694              		.loc 11 125 30 view .LVU1327
 5695 0094 8023     		movs	r3, #128
 5696              	.LBE1472:
 5697              	.LBE1470:
 5698              	.LBB1473:
 5699              	.LBB1474:
 124:../../libDaisy/src/dev/oled_ssd130x.h ****         spi_.BlockingTransmit(&cmd, 1);
 5700              		.loc 11 124 23 view .LVU1328
 5701 0096 3046     		mov	r0, r6
 5702 0098 0021     		movs	r1, #0
 5703 009a 8DF80730 		strb	r3, [sp, #7]
 5704              	.LVL443:
 124:../../libDaisy/src/dev/oled_ssd130x.h ****         spi_.BlockingTransmit(&cmd, 1);
 5705              		.loc 11 124 23 view .LVU1329
 5706              	.LBE1474:
 5707              	.LBI1473:
 122:../../libDaisy/src/dev/oled_ssd130x.h ****     {
 5708              		.loc 11 122 10 is_stmt 1 view .LVU1330
 5709              	.LBB1475:
 124:../../libDaisy/src/dev/oled_ssd130x.h ****         spi_.BlockingTransmit(&cmd, 1);
 5710              		.loc 11 124 9 view .LVU1331
 124:../../libDaisy/src/dev/oled_ssd130x.h ****         spi_.BlockingTransmit(&cmd, 1);
 5711              		.loc 11 124 23 is_stmt 0 view .LVU1332
 5712 009e FFF7FEFF 		bl	dsy_gpio_write
 5713              	.LVL444:
 125:../../libDaisy/src/dev/oled_ssd130x.h ****     };
ARM GAS  /var/folders/hl/qgbwny5j0fd895c2c41bk3tw0000gp/T//ccFqANMK.s 			page 157


 5714              		.loc 11 125 9 is_stmt 1 view .LVU1333
 125:../../libDaisy/src/dev/oled_ssd130x.h ****     };
 5715              		.loc 11 125 30 is_stmt 0 view .LVU1334
 5716 00a2 2A46     		mov	r2, r5
 5717 00a4 0DF10701 		add	r1, sp, #7
 5718 00a8 6423     		movs	r3, #100
 5719 00aa 2046     		mov	r0, r4
 5720 00ac FFF7FEFF 		bl	_ZN5daisy9SpiHandle16BlockingTransmitEPhjm
 5721              	.LVL445:
 125:../../libDaisy/src/dev/oled_ssd130x.h ****     };
 5722              		.loc 11 125 30 view .LVU1335
 5723 00b0 A823     		movs	r3, #168
 5724              	.LBE1475:
 5725              	.LBE1473:
 5726              	.LBB1476:
 5727              	.LBB1477:
 124:../../libDaisy/src/dev/oled_ssd130x.h ****         spi_.BlockingTransmit(&cmd, 1);
 5728              		.loc 11 124 23 view .LVU1336
 5729 00b2 3046     		mov	r0, r6
 5730 00b4 0021     		movs	r1, #0
 5731 00b6 8DF80730 		strb	r3, [sp, #7]
 5732              	.LVL446:
 124:../../libDaisy/src/dev/oled_ssd130x.h ****         spi_.BlockingTransmit(&cmd, 1);
 5733              		.loc 11 124 23 view .LVU1337
 5734              	.LBE1477:
 5735              	.LBI1476:
 122:../../libDaisy/src/dev/oled_ssd130x.h ****     {
 5736              		.loc 11 122 10 is_stmt 1 view .LVU1338
 5737              	.LBB1478:
 124:../../libDaisy/src/dev/oled_ssd130x.h ****         spi_.BlockingTransmit(&cmd, 1);
 5738              		.loc 11 124 9 view .LVU1339
 124:../../libDaisy/src/dev/oled_ssd130x.h ****         spi_.BlockingTransmit(&cmd, 1);
 5739              		.loc 11 124 23 is_stmt 0 view .LVU1340
 5740 00ba FFF7FEFF 		bl	dsy_gpio_write
 5741              	.LVL447:
 125:../../libDaisy/src/dev/oled_ssd130x.h ****     };
 5742              		.loc 11 125 9 is_stmt 1 view .LVU1341
 125:../../libDaisy/src/dev/oled_ssd130x.h ****     };
 5743              		.loc 11 125 30 is_stmt 0 view .LVU1342
 5744 00be 2A46     		mov	r2, r5
 5745 00c0 0DF10701 		add	r1, sp, #7
 5746 00c4 6423     		movs	r3, #100
 5747 00c6 2046     		mov	r0, r4
 5748 00c8 FFF7FEFF 		bl	_ZN5daisy9SpiHandle16BlockingTransmitEPhjm
 5749              	.LVL448:
 125:../../libDaisy/src/dev/oled_ssd130x.h ****     };
 5750              		.loc 11 125 30 view .LVU1343
 5751 00cc 3F23     		movs	r3, #63
 5752              	.LBE1478:
 5753              	.LBE1476:
 5754              	.LBB1479:
 5755              	.LBB1480:
 124:../../libDaisy/src/dev/oled_ssd130x.h ****         spi_.BlockingTransmit(&cmd, 1);
 5756              		.loc 11 124 23 view .LVU1344
 5757 00ce 3046     		mov	r0, r6
 5758 00d0 0021     		movs	r1, #0
 5759 00d2 8DF80730 		strb	r3, [sp, #7]
ARM GAS  /var/folders/hl/qgbwny5j0fd895c2c41bk3tw0000gp/T//ccFqANMK.s 			page 158


 5760              	.LVL449:
 124:../../libDaisy/src/dev/oled_ssd130x.h ****         spi_.BlockingTransmit(&cmd, 1);
 5761              		.loc 11 124 23 view .LVU1345
 5762              	.LBE1480:
 5763              	.LBI1479:
 122:../../libDaisy/src/dev/oled_ssd130x.h ****     {
 5764              		.loc 11 122 10 is_stmt 1 view .LVU1346
 5765              	.LBB1481:
 124:../../libDaisy/src/dev/oled_ssd130x.h ****         spi_.BlockingTransmit(&cmd, 1);
 5766              		.loc 11 124 9 view .LVU1347
 124:../../libDaisy/src/dev/oled_ssd130x.h ****         spi_.BlockingTransmit(&cmd, 1);
 5767              		.loc 11 124 23 is_stmt 0 view .LVU1348
 5768 00d6 FFF7FEFF 		bl	dsy_gpio_write
 5769              	.LVL450:
 125:../../libDaisy/src/dev/oled_ssd130x.h ****     };
 5770              		.loc 11 125 9 is_stmt 1 view .LVU1349
 125:../../libDaisy/src/dev/oled_ssd130x.h ****     };
 5771              		.loc 11 125 30 is_stmt 0 view .LVU1350
 5772 00da 2A46     		mov	r2, r5
 5773 00dc 0DF10701 		add	r1, sp, #7
 5774 00e0 6423     		movs	r3, #100
 5775 00e2 2046     		mov	r0, r4
 5776 00e4 FFF7FEFF 		bl	_ZN5daisy9SpiHandle16BlockingTransmitEPhjm
 5777              	.LVL451:
 125:../../libDaisy/src/dev/oled_ssd130x.h ****     };
 5778              		.loc 11 125 30 view .LVU1351
 5779 00e8 DA23     		movs	r3, #218
 5780              	.LBE1481:
 5781              	.LBE1479:
 5782              	.LBB1482:
 5783              	.LBB1483:
 124:../../libDaisy/src/dev/oled_ssd130x.h ****         spi_.BlockingTransmit(&cmd, 1);
 5784              		.loc 11 124 23 view .LVU1352
 5785 00ea 3046     		mov	r0, r6
 5786 00ec 0021     		movs	r1, #0
 5787 00ee 8DF80730 		strb	r3, [sp, #7]
 5788              	.LVL452:
 124:../../libDaisy/src/dev/oled_ssd130x.h ****         spi_.BlockingTransmit(&cmd, 1);
 5789              		.loc 11 124 23 view .LVU1353
 5790              	.LBE1483:
 5791              	.LBI1482:
 122:../../libDaisy/src/dev/oled_ssd130x.h ****     {
 5792              		.loc 11 122 10 is_stmt 1 view .LVU1354
 5793              	.LBB1484:
 124:../../libDaisy/src/dev/oled_ssd130x.h ****         spi_.BlockingTransmit(&cmd, 1);
 5794              		.loc 11 124 9 view .LVU1355
 124:../../libDaisy/src/dev/oled_ssd130x.h ****         spi_.BlockingTransmit(&cmd, 1);
 5795              		.loc 11 124 23 is_stmt 0 view .LVU1356
 5796 00f2 FFF7FEFF 		bl	dsy_gpio_write
 5797              	.LVL453:
 125:../../libDaisy/src/dev/oled_ssd130x.h ****     };
 5798              		.loc 11 125 9 is_stmt 1 view .LVU1357
 125:../../libDaisy/src/dev/oled_ssd130x.h ****     };
 5799              		.loc 11 125 30 is_stmt 0 view .LVU1358
 5800 00f6 2A46     		mov	r2, r5
 5801 00f8 0DF10701 		add	r1, sp, #7
 5802 00fc 6423     		movs	r3, #100
ARM GAS  /var/folders/hl/qgbwny5j0fd895c2c41bk3tw0000gp/T//ccFqANMK.s 			page 159


 5803 00fe 2046     		mov	r0, r4
 5804 0100 FFF7FEFF 		bl	_ZN5daisy9SpiHandle16BlockingTransmitEPhjm
 5805              	.LVL454:
 125:../../libDaisy/src/dev/oled_ssd130x.h ****     };
 5806              		.loc 11 125 30 view .LVU1359
 5807 0104 1223     		movs	r3, #18
 5808              	.LBE1484:
 5809              	.LBE1482:
 5810              	.LBB1485:
 5811              	.LBB1486:
 124:../../libDaisy/src/dev/oled_ssd130x.h ****         spi_.BlockingTransmit(&cmd, 1);
 5812              		.loc 11 124 23 view .LVU1360
 5813 0106 3046     		mov	r0, r6
 5814 0108 0021     		movs	r1, #0
 5815 010a 8DF80730 		strb	r3, [sp, #7]
 5816              	.LVL455:
 124:../../libDaisy/src/dev/oled_ssd130x.h ****         spi_.BlockingTransmit(&cmd, 1);
 5817              		.loc 11 124 23 view .LVU1361
 5818              	.LBE1486:
 5819              	.LBI1485:
 122:../../libDaisy/src/dev/oled_ssd130x.h ****     {
 5820              		.loc 11 122 10 is_stmt 1 view .LVU1362
 5821              	.LBB1487:
 124:../../libDaisy/src/dev/oled_ssd130x.h ****         spi_.BlockingTransmit(&cmd, 1);
 5822              		.loc 11 124 9 view .LVU1363
 124:../../libDaisy/src/dev/oled_ssd130x.h ****         spi_.BlockingTransmit(&cmd, 1);
 5823              		.loc 11 124 23 is_stmt 0 view .LVU1364
 5824 010e FFF7FEFF 		bl	dsy_gpio_write
 5825              	.LVL456:
 125:../../libDaisy/src/dev/oled_ssd130x.h ****     };
 5826              		.loc 11 125 9 is_stmt 1 view .LVU1365
 125:../../libDaisy/src/dev/oled_ssd130x.h ****     };
 5827              		.loc 11 125 30 is_stmt 0 view .LVU1366
 5828 0112 2A46     		mov	r2, r5
 5829 0114 0DF10701 		add	r1, sp, #7
 5830 0118 6423     		movs	r3, #100
 5831 011a 2046     		mov	r0, r4
 5832 011c FFF7FEFF 		bl	_ZN5daisy9SpiHandle16BlockingTransmitEPhjm
 5833              	.LVL457:
 125:../../libDaisy/src/dev/oled_ssd130x.h ****     };
 5834              		.loc 11 125 30 view .LVU1367
 5835              	.LBE1487:
 5836              	.LBE1485:
 5837              	.LBB1488:
 5838              	.LBB1489:
 124:../../libDaisy/src/dev/oled_ssd130x.h ****         spi_.BlockingTransmit(&cmd, 1);
 5839              		.loc 11 124 23 view .LVU1368
 5840 0120 0021     		movs	r1, #0
 5841 0122 D323     		movs	r3, #211
 5842 0124 3046     		mov	r0, r6
 5843 0126 0F46     		mov	r7, r1
 5844 0128 8DF80730 		strb	r3, [sp, #7]
 5845              	.LVL458:
 124:../../libDaisy/src/dev/oled_ssd130x.h ****         spi_.BlockingTransmit(&cmd, 1);
 5846              		.loc 11 124 23 view .LVU1369
 5847              	.LBE1489:
 5848              	.LBI1488:
ARM GAS  /var/folders/hl/qgbwny5j0fd895c2c41bk3tw0000gp/T//ccFqANMK.s 			page 160


 122:../../libDaisy/src/dev/oled_ssd130x.h ****     {
 5849              		.loc 11 122 10 is_stmt 1 view .LVU1370
 5850              	.LBB1490:
 124:../../libDaisy/src/dev/oled_ssd130x.h ****         spi_.BlockingTransmit(&cmd, 1);
 5851              		.loc 11 124 9 view .LVU1371
 124:../../libDaisy/src/dev/oled_ssd130x.h ****         spi_.BlockingTransmit(&cmd, 1);
 5852              		.loc 11 124 23 is_stmt 0 view .LVU1372
 5853 012c FFF7FEFF 		bl	dsy_gpio_write
 5854              	.LVL459:
 125:../../libDaisy/src/dev/oled_ssd130x.h ****     };
 5855              		.loc 11 125 9 is_stmt 1 view .LVU1373
 125:../../libDaisy/src/dev/oled_ssd130x.h ****     };
 5856              		.loc 11 125 30 is_stmt 0 view .LVU1374
 5857 0130 2A46     		mov	r2, r5
 5858 0132 6423     		movs	r3, #100
 5859 0134 0DF10701 		add	r1, sp, #7
 5860 0138 2046     		mov	r0, r4
 5861 013a FFF7FEFF 		bl	_ZN5daisy9SpiHandle16BlockingTransmitEPhjm
 5862              	.LVL460:
 125:../../libDaisy/src/dev/oled_ssd130x.h ****     };
 5863              		.loc 11 125 30 view .LVU1375
 5864              	.LBE1490:
 5865              	.LBE1488:
 5866              	.LBB1491:
 5867              	.LBB1492:
 124:../../libDaisy/src/dev/oled_ssd130x.h ****         spi_.BlockingTransmit(&cmd, 1);
 5868              		.loc 11 124 23 view .LVU1376
 5869 013e 3946     		mov	r1, r7
 5870 0140 3046     		mov	r0, r6
 5871 0142 8DF80770 		strb	r7, [sp, #7]
 5872              	.LVL461:
 124:../../libDaisy/src/dev/oled_ssd130x.h ****         spi_.BlockingTransmit(&cmd, 1);
 5873              		.loc 11 124 23 view .LVU1377
 5874              	.LBE1492:
 5875              	.LBI1491:
 122:../../libDaisy/src/dev/oled_ssd130x.h ****     {
 5876              		.loc 11 122 10 is_stmt 1 view .LVU1378
 5877              	.LBB1493:
 124:../../libDaisy/src/dev/oled_ssd130x.h ****         spi_.BlockingTransmit(&cmd, 1);
 5878              		.loc 11 124 9 view .LVU1379
 124:../../libDaisy/src/dev/oled_ssd130x.h ****         spi_.BlockingTransmit(&cmd, 1);
 5879              		.loc 11 124 23 is_stmt 0 view .LVU1380
 5880 0146 FFF7FEFF 		bl	dsy_gpio_write
 5881              	.LVL462:
 125:../../libDaisy/src/dev/oled_ssd130x.h ****     };
 5882              		.loc 11 125 9 is_stmt 1 view .LVU1381
 125:../../libDaisy/src/dev/oled_ssd130x.h ****     };
 5883              		.loc 11 125 30 is_stmt 0 view .LVU1382
 5884 014a 2A46     		mov	r2, r5
 5885 014c 0DF10701 		add	r1, sp, #7
 5886 0150 6423     		movs	r3, #100
 5887 0152 2046     		mov	r0, r4
 5888 0154 FFF7FEFF 		bl	_ZN5daisy9SpiHandle16BlockingTransmitEPhjm
 5889              	.LVL463:
 125:../../libDaisy/src/dev/oled_ssd130x.h ****     };
 5890              		.loc 11 125 30 view .LVU1383
 5891 0158 4023     		movs	r3, #64
ARM GAS  /var/folders/hl/qgbwny5j0fd895c2c41bk3tw0000gp/T//ccFqANMK.s 			page 161


 5892              	.LBE1493:
 5893              	.LBE1491:
 5894              	.LBB1494:
 5895              	.LBB1495:
 124:../../libDaisy/src/dev/oled_ssd130x.h ****         spi_.BlockingTransmit(&cmd, 1);
 5896              		.loc 11 124 23 view .LVU1384
 5897 015a 3946     		mov	r1, r7
 5898 015c 3046     		mov	r0, r6
 5899 015e 8DF80730 		strb	r3, [sp, #7]
 5900              	.LVL464:
 124:../../libDaisy/src/dev/oled_ssd130x.h ****         spi_.BlockingTransmit(&cmd, 1);
 5901              		.loc 11 124 23 view .LVU1385
 5902              	.LBE1495:
 5903              	.LBI1494:
 122:../../libDaisy/src/dev/oled_ssd130x.h ****     {
 5904              		.loc 11 122 10 is_stmt 1 view .LVU1386
 5905              	.LBB1496:
 124:../../libDaisy/src/dev/oled_ssd130x.h ****         spi_.BlockingTransmit(&cmd, 1);
 5906              		.loc 11 124 9 view .LVU1387
 124:../../libDaisy/src/dev/oled_ssd130x.h ****         spi_.BlockingTransmit(&cmd, 1);
 5907              		.loc 11 124 23 is_stmt 0 view .LVU1388
 5908 0162 FFF7FEFF 		bl	dsy_gpio_write
 5909              	.LVL465:
 125:../../libDaisy/src/dev/oled_ssd130x.h ****     };
 5910              		.loc 11 125 9 is_stmt 1 view .LVU1389
 125:../../libDaisy/src/dev/oled_ssd130x.h ****     };
 5911              		.loc 11 125 30 is_stmt 0 view .LVU1390
 5912 0166 2A46     		mov	r2, r5
 5913 0168 0DF10701 		add	r1, sp, #7
 5914 016c 6423     		movs	r3, #100
 5915 016e 2046     		mov	r0, r4
 5916 0170 FFF7FEFF 		bl	_ZN5daisy9SpiHandle16BlockingTransmitEPhjm
 5917              	.LVL466:
 125:../../libDaisy/src/dev/oled_ssd130x.h ****     };
 5918              		.loc 11 125 30 view .LVU1391
 5919 0174 A623     		movs	r3, #166
 5920              	.LBE1496:
 5921              	.LBE1494:
 5922              	.LBB1497:
 5923              	.LBB1498:
 124:../../libDaisy/src/dev/oled_ssd130x.h ****         spi_.BlockingTransmit(&cmd, 1);
 5924              		.loc 11 124 23 view .LVU1392
 5925 0176 3946     		mov	r1, r7
 5926 0178 3046     		mov	r0, r6
 5927 017a 8DF80730 		strb	r3, [sp, #7]
 5928              	.LVL467:
 124:../../libDaisy/src/dev/oled_ssd130x.h ****         spi_.BlockingTransmit(&cmd, 1);
 5929              		.loc 11 124 23 view .LVU1393
 5930              	.LBE1498:
 5931              	.LBI1497:
 122:../../libDaisy/src/dev/oled_ssd130x.h ****     {
 5932              		.loc 11 122 10 is_stmt 1 view .LVU1394
 5933              	.LBB1499:
 124:../../libDaisy/src/dev/oled_ssd130x.h ****         spi_.BlockingTransmit(&cmd, 1);
 5934              		.loc 11 124 9 view .LVU1395
 124:../../libDaisy/src/dev/oled_ssd130x.h ****         spi_.BlockingTransmit(&cmd, 1);
 5935              		.loc 11 124 23 is_stmt 0 view .LVU1396
ARM GAS  /var/folders/hl/qgbwny5j0fd895c2c41bk3tw0000gp/T//ccFqANMK.s 			page 162


 5936 017e FFF7FEFF 		bl	dsy_gpio_write
 5937              	.LVL468:
 125:../../libDaisy/src/dev/oled_ssd130x.h ****     };
 5938              		.loc 11 125 9 is_stmt 1 view .LVU1397
 125:../../libDaisy/src/dev/oled_ssd130x.h ****     };
 5939              		.loc 11 125 30 is_stmt 0 view .LVU1398
 5940 0182 2A46     		mov	r2, r5
 5941 0184 0DF10701 		add	r1, sp, #7
 5942 0188 6423     		movs	r3, #100
 5943 018a 2046     		mov	r0, r4
 5944 018c FFF7FEFF 		bl	_ZN5daisy9SpiHandle16BlockingTransmitEPhjm
 5945              	.LVL469:
 125:../../libDaisy/src/dev/oled_ssd130x.h ****     };
 5946              		.loc 11 125 30 view .LVU1399
 5947 0190 A423     		movs	r3, #164
 5948              	.LBE1499:
 5949              	.LBE1497:
 5950              	.LBB1500:
 5951              	.LBB1501:
 124:../../libDaisy/src/dev/oled_ssd130x.h ****         spi_.BlockingTransmit(&cmd, 1);
 5952              		.loc 11 124 23 view .LVU1400
 5953 0192 3946     		mov	r1, r7
 5954 0194 3046     		mov	r0, r6
 5955 0196 8DF80730 		strb	r3, [sp, #7]
 5956              	.LVL470:
 124:../../libDaisy/src/dev/oled_ssd130x.h ****         spi_.BlockingTransmit(&cmd, 1);
 5957              		.loc 11 124 23 view .LVU1401
 5958              	.LBE1501:
 5959              	.LBI1500:
 122:../../libDaisy/src/dev/oled_ssd130x.h ****     {
 5960              		.loc 11 122 10 is_stmt 1 view .LVU1402
 5961              	.LBB1502:
 124:../../libDaisy/src/dev/oled_ssd130x.h ****         spi_.BlockingTransmit(&cmd, 1);
 5962              		.loc 11 124 9 view .LVU1403
 124:../../libDaisy/src/dev/oled_ssd130x.h ****         spi_.BlockingTransmit(&cmd, 1);
 5963              		.loc 11 124 23 is_stmt 0 view .LVU1404
 5964 019a FFF7FEFF 		bl	dsy_gpio_write
 5965              	.LVL471:
 125:../../libDaisy/src/dev/oled_ssd130x.h ****     };
 5966              		.loc 11 125 9 is_stmt 1 view .LVU1405
 125:../../libDaisy/src/dev/oled_ssd130x.h ****     };
 5967              		.loc 11 125 30 is_stmt 0 view .LVU1406
 5968 019e 2A46     		mov	r2, r5
 5969 01a0 0DF10701 		add	r1, sp, #7
 5970 01a4 6423     		movs	r3, #100
 5971 01a6 2046     		mov	r0, r4
 5972 01a8 FFF7FEFF 		bl	_ZN5daisy9SpiHandle16BlockingTransmitEPhjm
 5973              	.LVL472:
 125:../../libDaisy/src/dev/oled_ssd130x.h ****     };
 5974              		.loc 11 125 30 view .LVU1407
 5975 01ac 8D23     		movs	r3, #141
 5976              	.LBE1502:
 5977              	.LBE1500:
 5978              	.LBB1503:
 5979              	.LBB1504:
 124:../../libDaisy/src/dev/oled_ssd130x.h ****         spi_.BlockingTransmit(&cmd, 1);
 5980              		.loc 11 124 23 view .LVU1408
ARM GAS  /var/folders/hl/qgbwny5j0fd895c2c41bk3tw0000gp/T//ccFqANMK.s 			page 163


 5981 01ae 3946     		mov	r1, r7
 5982 01b0 3046     		mov	r0, r6
 5983 01b2 8DF80730 		strb	r3, [sp, #7]
 5984              	.LVL473:
 124:../../libDaisy/src/dev/oled_ssd130x.h ****         spi_.BlockingTransmit(&cmd, 1);
 5985              		.loc 11 124 23 view .LVU1409
 5986              	.LBE1504:
 5987              	.LBI1503:
 122:../../libDaisy/src/dev/oled_ssd130x.h ****     {
 5988              		.loc 11 122 10 is_stmt 1 view .LVU1410
 5989              	.LBB1505:
 124:../../libDaisy/src/dev/oled_ssd130x.h ****         spi_.BlockingTransmit(&cmd, 1);
 5990              		.loc 11 124 9 view .LVU1411
 124:../../libDaisy/src/dev/oled_ssd130x.h ****         spi_.BlockingTransmit(&cmd, 1);
 5991              		.loc 11 124 23 is_stmt 0 view .LVU1412
 5992 01b6 FFF7FEFF 		bl	dsy_gpio_write
 5993              	.LVL474:
 125:../../libDaisy/src/dev/oled_ssd130x.h ****     };
 5994              		.loc 11 125 9 is_stmt 1 view .LVU1413
 125:../../libDaisy/src/dev/oled_ssd130x.h ****     };
 5995              		.loc 11 125 30 is_stmt 0 view .LVU1414
 5996 01ba 2A46     		mov	r2, r5
 5997 01bc 0DF10701 		add	r1, sp, #7
 5998 01c0 6423     		movs	r3, #100
 5999 01c2 2046     		mov	r0, r4
 6000 01c4 FFF7FEFF 		bl	_ZN5daisy9SpiHandle16BlockingTransmitEPhjm
 6001              	.LVL475:
 125:../../libDaisy/src/dev/oled_ssd130x.h ****     };
 6002              		.loc 11 125 30 view .LVU1415
 6003 01c8 1423     		movs	r3, #20
 6004              	.LBE1505:
 6005              	.LBE1503:
 6006              	.LBB1506:
 6007              	.LBB1507:
 124:../../libDaisy/src/dev/oled_ssd130x.h ****         spi_.BlockingTransmit(&cmd, 1);
 6008              		.loc 11 124 23 view .LVU1416
 6009 01ca 3946     		mov	r1, r7
 6010 01cc 3046     		mov	r0, r6
 6011 01ce 8DF80730 		strb	r3, [sp, #7]
 6012              	.LVL476:
 124:../../libDaisy/src/dev/oled_ssd130x.h ****         spi_.BlockingTransmit(&cmd, 1);
 6013              		.loc 11 124 23 view .LVU1417
 6014              	.LBE1507:
 6015              	.LBI1506:
 122:../../libDaisy/src/dev/oled_ssd130x.h ****     {
 6016              		.loc 11 122 10 is_stmt 1 view .LVU1418
 6017              	.LBB1508:
 124:../../libDaisy/src/dev/oled_ssd130x.h ****         spi_.BlockingTransmit(&cmd, 1);
 6018              		.loc 11 124 9 view .LVU1419
 124:../../libDaisy/src/dev/oled_ssd130x.h ****         spi_.BlockingTransmit(&cmd, 1);
 6019              		.loc 11 124 23 is_stmt 0 view .LVU1420
 6020 01d2 FFF7FEFF 		bl	dsy_gpio_write
 6021              	.LVL477:
 125:../../libDaisy/src/dev/oled_ssd130x.h ****     };
 6022              		.loc 11 125 9 is_stmt 1 view .LVU1421
 125:../../libDaisy/src/dev/oled_ssd130x.h ****     };
 6023              		.loc 11 125 30 is_stmt 0 view .LVU1422
ARM GAS  /var/folders/hl/qgbwny5j0fd895c2c41bk3tw0000gp/T//ccFqANMK.s 			page 164


 6024 01d6 2A46     		mov	r2, r5
 6025 01d8 0DF10701 		add	r1, sp, #7
 6026 01dc 6423     		movs	r3, #100
 6027 01de 2046     		mov	r0, r4
 6028 01e0 FFF7FEFF 		bl	_ZN5daisy9SpiHandle16BlockingTransmitEPhjm
 6029              	.LVL478:
 125:../../libDaisy/src/dev/oled_ssd130x.h ****     };
 6030              		.loc 11 125 30 view .LVU1423
 6031 01e4 A123     		movs	r3, #161
 6032              	.LBE1508:
 6033              	.LBE1506:
 6034              	.LBB1509:
 6035              	.LBB1510:
 124:../../libDaisy/src/dev/oled_ssd130x.h ****         spi_.BlockingTransmit(&cmd, 1);
 6036              		.loc 11 124 23 view .LVU1424
 6037 01e6 3946     		mov	r1, r7
 6038 01e8 3046     		mov	r0, r6
 6039 01ea 8DF80730 		strb	r3, [sp, #7]
 6040              	.LVL479:
 124:../../libDaisy/src/dev/oled_ssd130x.h ****         spi_.BlockingTransmit(&cmd, 1);
 6041              		.loc 11 124 23 view .LVU1425
 6042              	.LBE1510:
 6043              	.LBI1509:
 122:../../libDaisy/src/dev/oled_ssd130x.h ****     {
 6044              		.loc 11 122 10 is_stmt 1 view .LVU1426
 6045              	.LBB1511:
 124:../../libDaisy/src/dev/oled_ssd130x.h ****         spi_.BlockingTransmit(&cmd, 1);
 6046              		.loc 11 124 9 view .LVU1427
 124:../../libDaisy/src/dev/oled_ssd130x.h ****         spi_.BlockingTransmit(&cmd, 1);
 6047              		.loc 11 124 23 is_stmt 0 view .LVU1428
 6048 01ee FFF7FEFF 		bl	dsy_gpio_write
 6049              	.LVL480:
 125:../../libDaisy/src/dev/oled_ssd130x.h ****     };
 6050              		.loc 11 125 9 is_stmt 1 view .LVU1429
 125:../../libDaisy/src/dev/oled_ssd130x.h ****     };
 6051              		.loc 11 125 30 is_stmt 0 view .LVU1430
 6052 01f2 2A46     		mov	r2, r5
 6053 01f4 0DF10701 		add	r1, sp, #7
 6054 01f8 6423     		movs	r3, #100
 6055 01fa 2046     		mov	r0, r4
 6056 01fc FFF7FEFF 		bl	_ZN5daisy9SpiHandle16BlockingTransmitEPhjm
 6057              	.LVL481:
 125:../../libDaisy/src/dev/oled_ssd130x.h ****     };
 6058              		.loc 11 125 30 view .LVU1431
 6059 0200 C823     		movs	r3, #200
 6060              	.LBE1511:
 6061              	.LBE1509:
 6062              	.LBB1512:
 6063              	.LBB1513:
 124:../../libDaisy/src/dev/oled_ssd130x.h ****         spi_.BlockingTransmit(&cmd, 1);
 6064              		.loc 11 124 23 view .LVU1432
 6065 0202 3946     		mov	r1, r7
 6066 0204 3046     		mov	r0, r6
 6067 0206 8DF80730 		strb	r3, [sp, #7]
 6068              	.LVL482:
 124:../../libDaisy/src/dev/oled_ssd130x.h ****         spi_.BlockingTransmit(&cmd, 1);
 6069              		.loc 11 124 23 view .LVU1433
ARM GAS  /var/folders/hl/qgbwny5j0fd895c2c41bk3tw0000gp/T//ccFqANMK.s 			page 165


 6070              	.LBE1513:
 6071              	.LBI1512:
 122:../../libDaisy/src/dev/oled_ssd130x.h ****     {
 6072              		.loc 11 122 10 is_stmt 1 view .LVU1434
 6073              	.LBB1514:
 124:../../libDaisy/src/dev/oled_ssd130x.h ****         spi_.BlockingTransmit(&cmd, 1);
 6074              		.loc 11 124 9 view .LVU1435
 124:../../libDaisy/src/dev/oled_ssd130x.h ****         spi_.BlockingTransmit(&cmd, 1);
 6075              		.loc 11 124 23 is_stmt 0 view .LVU1436
 6076 020a FFF7FEFF 		bl	dsy_gpio_write
 6077              	.LVL483:
 125:../../libDaisy/src/dev/oled_ssd130x.h ****     };
 6078              		.loc 11 125 9 is_stmt 1 view .LVU1437
 125:../../libDaisy/src/dev/oled_ssd130x.h ****     };
 6079              		.loc 11 125 30 is_stmt 0 view .LVU1438
 6080 020e 2A46     		mov	r2, r5
 6081 0210 0DF10701 		add	r1, sp, #7
 6082 0214 6423     		movs	r3, #100
 6083 0216 2046     		mov	r0, r4
 6084 0218 FFF7FEFF 		bl	_ZN5daisy9SpiHandle16BlockingTransmitEPhjm
 6085              	.LVL484:
 125:../../libDaisy/src/dev/oled_ssd130x.h ****     };
 6086              		.loc 11 125 30 view .LVU1439
 6087 021c 8123     		movs	r3, #129
 6088              	.LBE1514:
 6089              	.LBE1512:
 6090              	.LBB1515:
 6091              	.LBB1516:
 124:../../libDaisy/src/dev/oled_ssd130x.h ****         spi_.BlockingTransmit(&cmd, 1);
 6092              		.loc 11 124 23 view .LVU1440
 6093 021e 3946     		mov	r1, r7
 6094 0220 3046     		mov	r0, r6
 6095 0222 8DF80730 		strb	r3, [sp, #7]
 6096              	.LVL485:
 124:../../libDaisy/src/dev/oled_ssd130x.h ****         spi_.BlockingTransmit(&cmd, 1);
 6097              		.loc 11 124 23 view .LVU1441
 6098              	.LBE1516:
 6099              	.LBI1515:
 122:../../libDaisy/src/dev/oled_ssd130x.h ****     {
 6100              		.loc 11 122 10 is_stmt 1 view .LVU1442
 6101              	.LBB1517:
 124:../../libDaisy/src/dev/oled_ssd130x.h ****         spi_.BlockingTransmit(&cmd, 1);
 6102              		.loc 11 124 9 view .LVU1443
 124:../../libDaisy/src/dev/oled_ssd130x.h ****         spi_.BlockingTransmit(&cmd, 1);
 6103              		.loc 11 124 23 is_stmt 0 view .LVU1444
 6104 0226 FFF7FEFF 		bl	dsy_gpio_write
 6105              	.LVL486:
 125:../../libDaisy/src/dev/oled_ssd130x.h ****     };
 6106              		.loc 11 125 9 is_stmt 1 view .LVU1445
 125:../../libDaisy/src/dev/oled_ssd130x.h ****     };
 6107              		.loc 11 125 30 is_stmt 0 view .LVU1446
 6108 022a 2A46     		mov	r2, r5
 6109 022c 0DF10701 		add	r1, sp, #7
 6110 0230 6423     		movs	r3, #100
 6111 0232 2046     		mov	r0, r4
 6112 0234 FFF7FEFF 		bl	_ZN5daisy9SpiHandle16BlockingTransmitEPhjm
 6113              	.LVL487:
ARM GAS  /var/folders/hl/qgbwny5j0fd895c2c41bk3tw0000gp/T//ccFqANMK.s 			page 166


 125:../../libDaisy/src/dev/oled_ssd130x.h ****     };
 6114              		.loc 11 125 30 view .LVU1447
 6115 0238 8F23     		movs	r3, #143
 6116              	.LBE1517:
 6117              	.LBE1515:
 6118              	.LBB1518:
 6119              	.LBB1519:
 124:../../libDaisy/src/dev/oled_ssd130x.h ****         spi_.BlockingTransmit(&cmd, 1);
 6120              		.loc 11 124 23 view .LVU1448
 6121 023a 3946     		mov	r1, r7
 6122 023c 3046     		mov	r0, r6
 6123 023e 8DF80730 		strb	r3, [sp, #7]
 6124              	.LVL488:
 124:../../libDaisy/src/dev/oled_ssd130x.h ****         spi_.BlockingTransmit(&cmd, 1);
 6125              		.loc 11 124 23 view .LVU1449
 6126              	.LBE1519:
 6127              	.LBI1518:
 122:../../libDaisy/src/dev/oled_ssd130x.h ****     {
 6128              		.loc 11 122 10 is_stmt 1 view .LVU1450
 6129              	.LBB1520:
 124:../../libDaisy/src/dev/oled_ssd130x.h ****         spi_.BlockingTransmit(&cmd, 1);
 6130              		.loc 11 124 9 view .LVU1451
 124:../../libDaisy/src/dev/oled_ssd130x.h ****         spi_.BlockingTransmit(&cmd, 1);
 6131              		.loc 11 124 23 is_stmt 0 view .LVU1452
 6132 0242 FFF7FEFF 		bl	dsy_gpio_write
 6133              	.LVL489:
 125:../../libDaisy/src/dev/oled_ssd130x.h ****     };
 6134              		.loc 11 125 9 is_stmt 1 view .LVU1453
 125:../../libDaisy/src/dev/oled_ssd130x.h ****     };
 6135              		.loc 11 125 30 is_stmt 0 view .LVU1454
 6136 0246 2A46     		mov	r2, r5
 6137 0248 0DF10701 		add	r1, sp, #7
 6138 024c 6423     		movs	r3, #100
 6139 024e 2046     		mov	r0, r4
 6140 0250 FFF7FEFF 		bl	_ZN5daisy9SpiHandle16BlockingTransmitEPhjm
 6141              	.LVL490:
 125:../../libDaisy/src/dev/oled_ssd130x.h ****     };
 6142              		.loc 11 125 30 view .LVU1455
 6143 0254 D923     		movs	r3, #217
 6144              	.LBE1520:
 6145              	.LBE1518:
 6146              	.LBB1521:
 6147              	.LBB1522:
 124:../../libDaisy/src/dev/oled_ssd130x.h ****         spi_.BlockingTransmit(&cmd, 1);
 6148              		.loc 11 124 23 view .LVU1456
 6149 0256 3946     		mov	r1, r7
 6150 0258 3046     		mov	r0, r6
 6151 025a 8DF80730 		strb	r3, [sp, #7]
 6152              	.LVL491:
 124:../../libDaisy/src/dev/oled_ssd130x.h ****         spi_.BlockingTransmit(&cmd, 1);
 6153              		.loc 11 124 23 view .LVU1457
 6154              	.LBE1522:
 6155              	.LBI1521:
 122:../../libDaisy/src/dev/oled_ssd130x.h ****     {
 6156              		.loc 11 122 10 is_stmt 1 view .LVU1458
 6157              	.LBB1523:
 124:../../libDaisy/src/dev/oled_ssd130x.h ****         spi_.BlockingTransmit(&cmd, 1);
ARM GAS  /var/folders/hl/qgbwny5j0fd895c2c41bk3tw0000gp/T//ccFqANMK.s 			page 167


 6158              		.loc 11 124 9 view .LVU1459
 124:../../libDaisy/src/dev/oled_ssd130x.h ****         spi_.BlockingTransmit(&cmd, 1);
 6159              		.loc 11 124 23 is_stmt 0 view .LVU1460
 6160 025e FFF7FEFF 		bl	dsy_gpio_write
 6161              	.LVL492:
 125:../../libDaisy/src/dev/oled_ssd130x.h ****     };
 6162              		.loc 11 125 9 is_stmt 1 view .LVU1461
 125:../../libDaisy/src/dev/oled_ssd130x.h ****     };
 6163              		.loc 11 125 30 is_stmt 0 view .LVU1462
 6164 0262 2A46     		mov	r2, r5
 6165 0264 0DF10701 		add	r1, sp, #7
 6166 0268 6423     		movs	r3, #100
 6167 026a 2046     		mov	r0, r4
 6168 026c FFF7FEFF 		bl	_ZN5daisy9SpiHandle16BlockingTransmitEPhjm
 6169              	.LVL493:
 125:../../libDaisy/src/dev/oled_ssd130x.h ****     };
 6170              		.loc 11 125 30 view .LVU1463
 6171 0270 2523     		movs	r3, #37
 6172              	.LBE1523:
 6173              	.LBE1521:
 6174              	.LBB1524:
 6175              	.LBB1525:
 124:../../libDaisy/src/dev/oled_ssd130x.h ****         spi_.BlockingTransmit(&cmd, 1);
 6176              		.loc 11 124 23 view .LVU1464
 6177 0272 3946     		mov	r1, r7
 6178 0274 3046     		mov	r0, r6
 6179 0276 8DF80730 		strb	r3, [sp, #7]
 6180              	.LVL494:
 124:../../libDaisy/src/dev/oled_ssd130x.h ****         spi_.BlockingTransmit(&cmd, 1);
 6181              		.loc 11 124 23 view .LVU1465
 6182              	.LBE1525:
 6183              	.LBI1524:
 122:../../libDaisy/src/dev/oled_ssd130x.h ****     {
 6184              		.loc 11 122 10 is_stmt 1 view .LVU1466
 6185              	.LBB1526:
 124:../../libDaisy/src/dev/oled_ssd130x.h ****         spi_.BlockingTransmit(&cmd, 1);
 6186              		.loc 11 124 9 view .LVU1467
 124:../../libDaisy/src/dev/oled_ssd130x.h ****         spi_.BlockingTransmit(&cmd, 1);
 6187              		.loc 11 124 23 is_stmt 0 view .LVU1468
 6188 027a FFF7FEFF 		bl	dsy_gpio_write
 6189              	.LVL495:
 125:../../libDaisy/src/dev/oled_ssd130x.h ****     };
 6190              		.loc 11 125 9 is_stmt 1 view .LVU1469
 125:../../libDaisy/src/dev/oled_ssd130x.h ****     };
 6191              		.loc 11 125 30 is_stmt 0 view .LVU1470
 6192 027e 2A46     		mov	r2, r5
 6193 0280 0DF10701 		add	r1, sp, #7
 6194 0284 6423     		movs	r3, #100
 6195 0286 2046     		mov	r0, r4
 6196 0288 FFF7FEFF 		bl	_ZN5daisy9SpiHandle16BlockingTransmitEPhjm
 6197              	.LVL496:
 125:../../libDaisy/src/dev/oled_ssd130x.h ****     };
 6198              		.loc 11 125 30 view .LVU1471
 6199 028c DB23     		movs	r3, #219
 6200              	.LBE1526:
 6201              	.LBE1524:
 6202              	.LBB1527:
ARM GAS  /var/folders/hl/qgbwny5j0fd895c2c41bk3tw0000gp/T//ccFqANMK.s 			page 168


 6203              	.LBB1528:
 124:../../libDaisy/src/dev/oled_ssd130x.h ****         spi_.BlockingTransmit(&cmd, 1);
 6204              		.loc 11 124 23 view .LVU1472
 6205 028e 3946     		mov	r1, r7
 6206 0290 3046     		mov	r0, r6
 6207 0292 8DF80730 		strb	r3, [sp, #7]
 6208              	.LVL497:
 124:../../libDaisy/src/dev/oled_ssd130x.h ****         spi_.BlockingTransmit(&cmd, 1);
 6209              		.loc 11 124 23 view .LVU1473
 6210              	.LBE1528:
 6211              	.LBI1527:
 122:../../libDaisy/src/dev/oled_ssd130x.h ****     {
 6212              		.loc 11 122 10 is_stmt 1 view .LVU1474
 6213              	.LBB1529:
 124:../../libDaisy/src/dev/oled_ssd130x.h ****         spi_.BlockingTransmit(&cmd, 1);
 6214              		.loc 11 124 9 view .LVU1475
 124:../../libDaisy/src/dev/oled_ssd130x.h ****         spi_.BlockingTransmit(&cmd, 1);
 6215              		.loc 11 124 23 is_stmt 0 view .LVU1476
 6216 0296 FFF7FEFF 		bl	dsy_gpio_write
 6217              	.LVL498:
 125:../../libDaisy/src/dev/oled_ssd130x.h ****     };
 6218              		.loc 11 125 9 is_stmt 1 view .LVU1477
 125:../../libDaisy/src/dev/oled_ssd130x.h ****     };
 6219              		.loc 11 125 30 is_stmt 0 view .LVU1478
 6220 029a 2A46     		mov	r2, r5
 6221 029c 0DF10701 		add	r1, sp, #7
 6222 02a0 6423     		movs	r3, #100
 6223 02a2 2046     		mov	r0, r4
 6224 02a4 FFF7FEFF 		bl	_ZN5daisy9SpiHandle16BlockingTransmitEPhjm
 6225              	.LVL499:
 125:../../libDaisy/src/dev/oled_ssd130x.h ****     };
 6226              		.loc 11 125 30 view .LVU1479
 6227 02a8 3423     		movs	r3, #52
 6228              	.LBE1529:
 6229              	.LBE1527:
 6230              	.LBB1530:
 6231              	.LBB1531:
 124:../../libDaisy/src/dev/oled_ssd130x.h ****         spi_.BlockingTransmit(&cmd, 1);
 6232              		.loc 11 124 23 view .LVU1480
 6233 02aa 3946     		mov	r1, r7
 6234 02ac 3046     		mov	r0, r6
 6235 02ae 8DF80730 		strb	r3, [sp, #7]
 6236              	.LVL500:
 124:../../libDaisy/src/dev/oled_ssd130x.h ****         spi_.BlockingTransmit(&cmd, 1);
 6237              		.loc 11 124 23 view .LVU1481
 6238              	.LBE1531:
 6239              	.LBI1530:
 122:../../libDaisy/src/dev/oled_ssd130x.h ****     {
 6240              		.loc 11 122 10 is_stmt 1 view .LVU1482
 6241              	.LBB1532:
 124:../../libDaisy/src/dev/oled_ssd130x.h ****         spi_.BlockingTransmit(&cmd, 1);
 6242              		.loc 11 124 9 view .LVU1483
 124:../../libDaisy/src/dev/oled_ssd130x.h ****         spi_.BlockingTransmit(&cmd, 1);
 6243              		.loc 11 124 23 is_stmt 0 view .LVU1484
 6244 02b2 FFF7FEFF 		bl	dsy_gpio_write
 6245              	.LVL501:
 125:../../libDaisy/src/dev/oled_ssd130x.h ****     };
ARM GAS  /var/folders/hl/qgbwny5j0fd895c2c41bk3tw0000gp/T//ccFqANMK.s 			page 169


 6246              		.loc 11 125 9 is_stmt 1 view .LVU1485
 125:../../libDaisy/src/dev/oled_ssd130x.h ****     };
 6247              		.loc 11 125 30 is_stmt 0 view .LVU1486
 6248 02b6 2A46     		mov	r2, r5
 6249 02b8 0DF10701 		add	r1, sp, #7
 6250 02bc 6423     		movs	r3, #100
 6251 02be 2046     		mov	r0, r4
 6252 02c0 FFF7FEFF 		bl	_ZN5daisy9SpiHandle16BlockingTransmitEPhjm
 6253              	.LVL502:
 125:../../libDaisy/src/dev/oled_ssd130x.h ****     };
 6254              		.loc 11 125 30 view .LVU1487
 6255 02c4 AF23     		movs	r3, #175
 6256              	.LBE1532:
 6257              	.LBE1530:
 6258              	.LBB1533:
 6259              	.LBB1534:
 124:../../libDaisy/src/dev/oled_ssd130x.h ****         spi_.BlockingTransmit(&cmd, 1);
 6260              		.loc 11 124 23 view .LVU1488
 6261 02c6 3946     		mov	r1, r7
 6262 02c8 3046     		mov	r0, r6
 6263 02ca 8DF80730 		strb	r3, [sp, #7]
 6264              	.LVL503:
 124:../../libDaisy/src/dev/oled_ssd130x.h ****         spi_.BlockingTransmit(&cmd, 1);
 6265              		.loc 11 124 23 view .LVU1489
 6266              	.LBE1534:
 6267              	.LBI1533:
 122:../../libDaisy/src/dev/oled_ssd130x.h ****     {
 6268              		.loc 11 122 10 is_stmt 1 view .LVU1490
 6269              	.LBB1535:
 124:../../libDaisy/src/dev/oled_ssd130x.h ****         spi_.BlockingTransmit(&cmd, 1);
 6270              		.loc 11 124 9 view .LVU1491
 124:../../libDaisy/src/dev/oled_ssd130x.h ****         spi_.BlockingTransmit(&cmd, 1);
 6271              		.loc 11 124 23 is_stmt 0 view .LVU1492
 6272 02ce FFF7FEFF 		bl	dsy_gpio_write
 6273              	.LVL504:
 125:../../libDaisy/src/dev/oled_ssd130x.h ****     };
 6274              		.loc 11 125 9 is_stmt 1 view .LVU1493
 125:../../libDaisy/src/dev/oled_ssd130x.h ****     };
 6275              		.loc 11 125 30 is_stmt 0 view .LVU1494
 6276 02d2 6423     		movs	r3, #100
 6277 02d4 2A46     		mov	r2, r5
 6278 02d6 0DF10701 		add	r1, sp, #7
 6279 02da 2046     		mov	r0, r4
 6280 02dc FFF7FEFF 		bl	_ZN5daisy9SpiHandle16BlockingTransmitEPhjm
 6281              	.LVL505:
 125:../../libDaisy/src/dev/oled_ssd130x.h ****     };
 6282              		.loc 11 125 30 view .LVU1495
 6283              	.LBE1535:
 6284              	.LBE1533:
 247:../../libDaisy/src/dev/oled_ssd130x.h **** 
 6285              		.loc 11 247 5 view .LVU1496
 6286 02e0 02B0     		add	sp, sp, #8
 6287              		.cfi_def_cfa_offset 40
 6288              		@ sp needed
 6289 02e2 BDE8F041 		pop	{r4, r5, r6, r7, r8, lr}
 6290              		.cfi_restore 14
 6291              		.cfi_restore 8
ARM GAS  /var/folders/hl/qgbwny5j0fd895c2c41bk3tw0000gp/T//ccFqANMK.s 			page 170


 6292              		.cfi_restore 7
 6293              		.cfi_restore 6
 6294              		.cfi_restore 5
 6295              		.cfi_restore 4
 6296              		.cfi_def_cfa_offset 16
 6297              	.LVL506:
 247:../../libDaisy/src/dev/oled_ssd130x.h **** 
 6298              		.loc 11 247 5 view .LVU1497
 6299 02e6 04B0     		add	sp, sp, #16
 6300              		.cfi_def_cfa_offset 0
 6301 02e8 7047     		bx	lr
 6302              		.cfi_endproc
 6303              	.LFE2598:
 6305 02ea 00BF     		.section	.rodata.main.str1.4,"aMS",%progbits,1
 6306              		.align	2
 6307              	.LC5:
 6308 0000 54657374 		.ascii	"Testing. . .\000"
 6308      696E672E 
 6308      202E202E 
 6308      00
 6309 000d 000000   		.align	2
 6310              	.LC6:
 6311 0010 44616973 		.ascii	"Daisy. . .\000"
 6311      792E202E 
 6311      202E00
 6312 001b 00       		.align	2
 6313              	.LC7:
 6314 001c 312E202E 		.ascii	"1. . .\000"
 6314      202E00
 6315 0023 00       		.align	2
 6316              	.LC8:
 6317 0024 322E202E 		.ascii	"2. . .\000"
 6317      202E00
 6318 002b 00       		.align	2
 6319              	.LC9:
 6320 002c 332E202E 		.ascii	"3. . .\000"
 6320      202E00
 6321              		.section	.text.startup.main,"ax",%progbits
 6322              		.align	1
 6323              		.p2align 2,,3
 6324              		.global	main
 6325              		.syntax unified
 6326              		.thumb
 6327              		.thumb_func
 6328              		.fpu fpv5-d16
 6330              	main:
 6331              	.LFB2558:
 6332              		.file 15 "OLED.cpp"
   1:OLED.cpp      **** #include <stdio.h>
   2:OLED.cpp      **** #include <string.h>
   3:OLED.cpp      **** #include "daisy_patch_sm.h"
   4:OLED.cpp      **** #include "dev/oled_ssd130x.h"
   5:OLED.cpp      **** #include <hid/encoder.h>
   6:OLED.cpp      **** 
   7:OLED.cpp      **** using namespace daisy;
   8:OLED.cpp      **** using namespace patch_sm;
   9:OLED.cpp      **** using MyOledDisplay = OledDisplay<SSD130x4WireSpi128x64Driver>;
ARM GAS  /var/folders/hl/qgbwny5j0fd895c2c41bk3tw0000gp/T//ccFqANMK.s 			page 171


  10:OLED.cpp      **** 
  11:OLED.cpp      **** DaisyPatchSM     hw;
  12:OLED.cpp      **** MyOledDisplay display;
  13:OLED.cpp      **** Encoder myEnc;
  14:OLED.cpp      **** 
  15:OLED.cpp      **** int main(void)
  16:OLED.cpp      **** {
 6333              		.loc 15 16 1 is_stmt 1 view -0
 6334              		.cfi_startproc
 6335              		@ args = 0, pretend = 0, frame = 200
 6336              		@ frame_needed = 0, uses_anonymous_args = 0
  17:OLED.cpp      ****     uint8_t message_idx;
 6337              		.loc 15 17 5 view .LVU1499
  18:OLED.cpp      ****     hw.Init();
 6338              		.loc 15 18 5 view .LVU1500
  16:OLED.cpp      ****     uint8_t message_idx;
 6339              		.loc 15 16 1 is_stmt 0 view .LVU1501
 6340 0000 2DE9F04F 		push	{r4, r5, r6, r7, r8, r9, r10, fp, lr}
 6341              		.cfi_def_cfa_offset 36
 6342              		.cfi_offset 4, -36
 6343              		.cfi_offset 5, -32
 6344              		.cfi_offset 6, -28
 6345              		.cfi_offset 7, -24
 6346              		.cfi_offset 8, -20
 6347              		.cfi_offset 9, -16
 6348              		.cfi_offset 10, -12
 6349              		.cfi_offset 11, -8
 6350              		.cfi_offset 14, -4
 6351              		.loc 15 18 12 view .LVU1502
 6352 0004 B548     		ldr	r0, .L430
  16:OLED.cpp      ****     uint8_t message_idx;
 6353              		.loc 15 16 1 view .LVU1503
 6354 0006 BBB0     		sub	sp, sp, #236
 6355              		.cfi_def_cfa_offset 272
 6356              		.loc 15 18 12 view .LVU1504
 6357 0008 FFF7FEFF 		bl	_ZN5daisy8patch_sm12DaisyPatchSM4InitEv
 6358              	.LVL507:
  19:OLED.cpp      **** 
  20:OLED.cpp      ****     /* Init Encoder (left pin, right pin, click pin)*/
  21:OLED.cpp      **** 	myEnc.Init(DaisyPatchSM::D8,DaisyPatchSM::A8,DaisyPatchSM::B7); /* pins are currently placeholder 
 6359              		.loc 15 21 2 is_stmt 1 view .LVU1505
 6360              		.loc 15 21 12 is_stmt 0 view .LVU1506
 6361 000c B44A     		ldr	r2, .L430+4
 6362 000e B549     		ldr	r1, .L430+8
 6363 0010 0026     		movs	r6, #0
 6364 0012 1378     		ldrb	r3, [r2]	@ zero_extendqisi2
 6365 0014 0FAD     		add	r5, sp, #60
 6366 0016 5278     		ldrb	r2, [r2, #1]	@ zero_extendqisi2
 6367              	.LBB1607:
 6368              	.LBB1608:
  25:../../libDaisy/src/hid/disp/oled_display.h **** 
 6369              		.loc 10 25 44 view .LVU1507
 6370 0018 1DAF     		add	r7, sp, #116
 6371              	.LBE1608:
 6372              	.LBE1607:
 6373              		.loc 15 21 12 view .LVU1508
 6374 001a B34C     		ldr	r4, .L430+12
ARM GAS  /var/folders/hl/qgbwny5j0fd895c2c41bk3tw0000gp/T//ccFqANMK.s 			page 172


 6375 001c 43EA0223 		orr	r3, r3, r2, lsl #8
 6376 0020 0A78     		ldrb	r2, [r1]	@ zero_extendqisi2
 6377 0022 4978     		ldrb	r1, [r1, #1]	@ zero_extendqisi2
 6378 0024 9FEDB10A 		vldr.32	s0, .L430+16
 6379 0028 42EA0122 		orr	r2, r2, r1, lsl #8
 6380 002c 2178     		ldrb	r1, [r4]	@ zero_extendqisi2
 6381 002e 6478     		ldrb	r4, [r4, #1]	@ zero_extendqisi2
 6382 0030 AF48     		ldr	r0, .L430+20
 6383 0032 41EA0421 		orr	r1, r1, r4, lsl #8
 6384 0036 1AAC     		add	r4, sp, #104
 6385 0038 FFF7FEFF 		bl	_ZN5daisy7Encoder4InitE12dsy_gpio_pinS1_S1_f
 6386              	.LVL508:
  22:OLED.cpp      **** 
  23:OLED.cpp      ****     /** Configure the Display */
  24:OLED.cpp      ****     MyOledDisplay::Config disp_cfg;
 6387              		.loc 15 24 5 is_stmt 1 view .LVU1509
 6388              	.LBB1611:
 6389              	.LBI1611:
  20:../../libDaisy/src/hid/disp/oled_display.h ****     {
 6390              		.loc 10 20 12 view .LVU1510
 6391              	.LBB1612:
 6392              	.LBI1612:
 148:../../libDaisy/src/dev/oled_ssd130x.h ****     {
 6393              		.loc 11 148 12 view .LVU1511
 6394              	.LBB1613:
 6395              	.LBI1613:
  70:../../libDaisy/src/dev/oled_ssd130x.h ****         {
 6396              		.loc 11 70 9 view .LVU1512
 6397              	.LBB1614:
 6398              	.LBB1615:
 6399              	.LBI1615:
 6400              		.file 16 "../../libDaisy/src/per/spi.h"
   1:../../libDaisy/src/per/spi.h **** #pragma once
   2:../../libDaisy/src/per/spi.h **** #ifndef DSY_SPI_H
   3:../../libDaisy/src/per/spi.h **** #define DSY_SPI_H
   4:../../libDaisy/src/per/spi.h **** 
   5:../../libDaisy/src/per/spi.h **** #include "daisy_core.h"
   6:../../libDaisy/src/per/spi.h **** 
   7:../../libDaisy/src/per/spi.h **** /* TODO:
   8:../../libDaisy/src/per/spi.h **** - Add documentation
   9:../../libDaisy/src/per/spi.h **** - Add IT
  10:../../libDaisy/src/per/spi.h **** */
  11:../../libDaisy/src/per/spi.h **** 
  12:../../libDaisy/src/per/spi.h **** namespace daisy
  13:../../libDaisy/src/per/spi.h **** {
  14:../../libDaisy/src/per/spi.h **** /** @addtogroup serial
  15:../../libDaisy/src/per/spi.h **** @{
  16:../../libDaisy/src/per/spi.h **** */
  17:../../libDaisy/src/per/spi.h **** 
  18:../../libDaisy/src/per/spi.h **** /**  Handler for serial peripheral interface */
  19:../../libDaisy/src/per/spi.h **** class SpiHandle
  20:../../libDaisy/src/per/spi.h **** {
  21:../../libDaisy/src/per/spi.h ****   public:
  22:../../libDaisy/src/per/spi.h ****     struct Config
  23:../../libDaisy/src/per/spi.h ****     {
  24:../../libDaisy/src/per/spi.h ****         enum class Peripheral
  25:../../libDaisy/src/per/spi.h ****         {
ARM GAS  /var/folders/hl/qgbwny5j0fd895c2c41bk3tw0000gp/T//ccFqANMK.s 			page 173


  26:../../libDaisy/src/per/spi.h ****             SPI_1,
  27:../../libDaisy/src/per/spi.h ****             SPI_2,
  28:../../libDaisy/src/per/spi.h ****             SPI_3,
  29:../../libDaisy/src/per/spi.h ****             SPI_4,
  30:../../libDaisy/src/per/spi.h ****             SPI_5,
  31:../../libDaisy/src/per/spi.h ****             SPI_6,
  32:../../libDaisy/src/per/spi.h ****         };
  33:../../libDaisy/src/per/spi.h **** 
  34:../../libDaisy/src/per/spi.h ****         enum class Mode
  35:../../libDaisy/src/per/spi.h ****         {
  36:../../libDaisy/src/per/spi.h ****             MASTER,
  37:../../libDaisy/src/per/spi.h ****             SLAVE,
  38:../../libDaisy/src/per/spi.h ****         };
  39:../../libDaisy/src/per/spi.h **** 
  40:../../libDaisy/src/per/spi.h ****         enum class Direction
  41:../../libDaisy/src/per/spi.h ****         {
  42:../../libDaisy/src/per/spi.h ****             TWO_LINES,
  43:../../libDaisy/src/per/spi.h ****             TWO_LINES_TX_ONLY,
  44:../../libDaisy/src/per/spi.h ****             TWO_LINES_RX_ONLY,
  45:../../libDaisy/src/per/spi.h ****             ONE_LINE,
  46:../../libDaisy/src/per/spi.h ****         };
  47:../../libDaisy/src/per/spi.h **** 
  48:../../libDaisy/src/per/spi.h ****         enum class ClockPolarity
  49:../../libDaisy/src/per/spi.h ****         {
  50:../../libDaisy/src/per/spi.h ****             LOW,
  51:../../libDaisy/src/per/spi.h ****             HIGH,
  52:../../libDaisy/src/per/spi.h ****         };
  53:../../libDaisy/src/per/spi.h **** 
  54:../../libDaisy/src/per/spi.h ****         enum class ClockPhase
  55:../../libDaisy/src/per/spi.h ****         {
  56:../../libDaisy/src/per/spi.h ****             ONE_EDGE,
  57:../../libDaisy/src/per/spi.h ****             TWO_EDGE,
  58:../../libDaisy/src/per/spi.h ****         };
  59:../../libDaisy/src/per/spi.h **** 
  60:../../libDaisy/src/per/spi.h ****         enum class NSS
  61:../../libDaisy/src/per/spi.h ****         {
  62:../../libDaisy/src/per/spi.h ****             SOFT,
  63:../../libDaisy/src/per/spi.h ****             HARD_INPUT,
  64:../../libDaisy/src/per/spi.h ****             HARD_OUTPUT,
  65:../../libDaisy/src/per/spi.h ****         };
  66:../../libDaisy/src/per/spi.h **** 
  67:../../libDaisy/src/per/spi.h ****         enum class BaudPrescaler
  68:../../libDaisy/src/per/spi.h ****         {
  69:../../libDaisy/src/per/spi.h ****             PS_2,
  70:../../libDaisy/src/per/spi.h ****             PS_4,
  71:../../libDaisy/src/per/spi.h ****             PS_8,
  72:../../libDaisy/src/per/spi.h ****             PS_16,
  73:../../libDaisy/src/per/spi.h ****             PS_32,
  74:../../libDaisy/src/per/spi.h ****             PS_64,
  75:../../libDaisy/src/per/spi.h ****             PS_128,
  76:../../libDaisy/src/per/spi.h ****             PS_256,
  77:../../libDaisy/src/per/spi.h ****         };
  78:../../libDaisy/src/per/spi.h **** 
  79:../../libDaisy/src/per/spi.h ****         struct
  80:../../libDaisy/src/per/spi.h ****         {
  81:../../libDaisy/src/per/spi.h ****             dsy_gpio_pin sclk; /**< & */
  82:../../libDaisy/src/per/spi.h ****             dsy_gpio_pin miso; /**< & */
ARM GAS  /var/folders/hl/qgbwny5j0fd895c2c41bk3tw0000gp/T//ccFqANMK.s 			page 174


  83:../../libDaisy/src/per/spi.h ****             dsy_gpio_pin mosi; /**< & */
  84:../../libDaisy/src/per/spi.h ****             dsy_gpio_pin nss;  /**< & */
  85:../../libDaisy/src/per/spi.h ****         } pin_config;
  86:../../libDaisy/src/per/spi.h **** 
  87:../../libDaisy/src/per/spi.h ****         Config()
 6401              		.loc 16 87 9 view .LVU1513
 6402              	.LBE1615:
 6403              	.LBE1614:
 6404              	.LBE1613:
 6405              	.LBE1612:
 6406              	.LBE1611:
  88:../../libDaisy/src/per/spi.h ****         {
  89:../../libDaisy/src/per/spi.h ****             // user must specify periph, mode, direction, nss, and pin_config
  90:../../libDaisy/src/per/spi.h ****             datasize       = 8;
 6407              		.loc 16 90 13 view .LVU1514
  91:../../libDaisy/src/per/spi.h ****             clock_polarity = ClockPolarity::LOW;
 6408              		.loc 16 91 13 view .LVU1515
  92:../../libDaisy/src/per/spi.h ****             clock_phase    = ClockPhase::ONE_EDGE;
 6409              		.loc 16 92 13 view .LVU1516
  93:../../libDaisy/src/per/spi.h ****             baud_prescaler = BaudPrescaler::PS_8;
 6410              		.loc 16 93 13 view .LVU1517
  73:../../libDaisy/src/dev/oled_ssd130x.h ****         }
 6411              		.loc 11 73 13 view .LVU1518
 6412              	.LBB1620:
 6413              	.LBB1619:
 6414              	.LBB1618:
 6415              	.LBB1617:
 6416              	.LBB1616:
 6417              	.LBI1616:
  81:../../libDaisy/src/dev/oled_ssd130x.h ****         {
 6418              		.loc 11 81 14 view .LVU1519
 6419              	.LBE1616:
 6420              	.LBE1617:
 6421              	.LBE1618:
 6422              	.LBE1619:
 6423              	.LBE1620:
  84:../../libDaisy/src/dev/oled_ssd130x.h ****             spi_config.mode   = SpiHandle::Config::Mode::MASTER;
 6424              		.loc 11 84 13 view .LVU1520
  85:../../libDaisy/src/dev/oled_ssd130x.h ****             spi_config.direction
 6425              		.loc 11 85 13 view .LVU1521
  86:../../libDaisy/src/dev/oled_ssd130x.h ****                 = SpiHandle::Config::Direction::TWO_LINES_TX_ONLY;
 6426              		.loc 11 86 13 view .LVU1522
  88:../../libDaisy/src/dev/oled_ssd130x.h ****             spi_config.clock_polarity = SpiHandle::Config::ClockPolarity::LOW;
 6427              		.loc 11 88 13 view .LVU1523
  89:../../libDaisy/src/dev/oled_ssd130x.h ****             spi_config.clock_phase    = SpiHandle::Config::ClockPhase::ONE_EDGE;
 6428              		.loc 11 89 13 view .LVU1524
  90:../../libDaisy/src/dev/oled_ssd130x.h ****             spi_config.nss            = SpiHandle::Config::NSS::HARD_OUTPUT;
 6429              		.loc 11 90 13 view .LVU1525
  91:../../libDaisy/src/dev/oled_ssd130x.h ****             spi_config.baud_prescaler = SpiHandle::Config::BaudPrescaler::PS_8;
 6430              		.loc 11 91 13 view .LVU1526
  92:../../libDaisy/src/dev/oled_ssd130x.h ****             // SPI pin config
 6431              		.loc 11 92 13 view .LVU1527
  94:../../libDaisy/src/dev/oled_ssd130x.h ****             spi_config.pin_config.miso = {DSY_GPIOX, 0};
 6432              		.loc 11 94 13 view .LVU1528
  95:../../libDaisy/src/dev/oled_ssd130x.h ****             spi_config.pin_config.mosi = {DSY_GPIOB, 5};
 6433              		.loc 11 95 13 view .LVU1529
  96:../../libDaisy/src/dev/oled_ssd130x.h ****             spi_config.pin_config.nss  = {DSY_GPIOG, 10};
ARM GAS  /var/folders/hl/qgbwny5j0fd895c2c41bk3tw0000gp/T//ccFqANMK.s 			page 175


 6434              		.loc 11 96 13 view .LVU1530
  97:../../libDaisy/src/dev/oled_ssd130x.h ****             // SSD130x control pin config
 6435              		.loc 11 97 13 view .LVU1531
  99:../../libDaisy/src/dev/oled_ssd130x.h ****             pin_config.reset = {DSY_GPIOB, 15};
 6436              		.loc 11 99 13 view .LVU1532
 100:../../libDaisy/src/dev/oled_ssd130x.h ****         }
 6437              		.loc 11 100 13 view .LVU1533
  25:OLED.cpp      **** 
  26:OLED.cpp      ****     disp_cfg.driver_config.transport_config.spi_config.periph = SpiHandle::Config::Peripheral::SPI_
 6438              		.loc 15 26 5 view .LVU1534
  27:OLED.cpp      ****     disp_cfg.driver_config.transport_config.spi_config.pin_config.sclk = hw.GetPin(DaisyPatchSM::Pi
 6439              		.loc 15 27 5 view .LVU1535
 6440              		.loc 15 27 112 is_stmt 0 view .LVU1536
 6441 003c 0A22     		movs	r2, #10
 6442 003e 0321     		movs	r1, #3
 6443 0040 A648     		ldr	r0, .L430
 6444 0042 FFF7FEFF 		bl	_ZN5daisy8patch_sm12DaisyPatchSM6GetPinENS1_7PinBankEi
 6445              	.LVL509:
 6446 0046 0346     		mov	r3, r0	@ movhi
  28:OLED.cpp      ****     disp_cfg.driver_config.transport_config.spi_config.pin_config.mosi = hw.GetPin(DaisyPatchSM::Pi
 6447              		.loc 15 28 111 view .LVU1537
 6448 0048 0922     		movs	r2, #9
 6449 004a 0321     		movs	r1, #3
 6450 004c A348     		ldr	r0, .L430
  27:OLED.cpp      ****     disp_cfg.driver_config.transport_config.spi_config.pin_config.sclk = hw.GetPin(DaisyPatchSM::Pi
 6451              		.loc 15 27 112 view .LVU1538
 6452 004e ADF83C30 		strh	r3, [sp, #60]	@ movhi
 6453              		.loc 15 28 5 is_stmt 1 view .LVU1539
 6454              		.loc 15 28 111 is_stmt 0 view .LVU1540
 6455 0052 FFF7FEFF 		bl	_ZN5daisy8patch_sm12DaisyPatchSM6GetPinENS1_7PinBankEi
 6456              	.LVL510:
 6457 0056 0346     		mov	r3, r0	@ movhi
  29:OLED.cpp      ****     disp_cfg.driver_config.transport_config.spi_config.pin_config.nss  = hw.GetPin(DaisyPatchSM::Pi
 6458              		.loc 15 29 111 view .LVU1541
 6459 0058 0122     		movs	r2, #1
 6460 005a 0321     		movs	r1, #3
 6461 005c 9F48     		ldr	r0, .L430
  28:OLED.cpp      ****     disp_cfg.driver_config.transport_config.spi_config.pin_config.mosi = hw.GetPin(DaisyPatchSM::Pi
 6462              		.loc 15 28 111 view .LVU1542
 6463 005e ADF84030 		strh	r3, [sp, #64]	@ movhi
 6464              		.loc 15 29 5 is_stmt 1 view .LVU1543
 6465              		.loc 15 29 111 is_stmt 0 view .LVU1544
 6466 0062 FFF7FEFF 		bl	_ZN5daisy8patch_sm12DaisyPatchSM6GetPinENS1_7PinBankEi
 6467              	.LVL511:
 6468 0066 0346     		mov	r3, r0	@ movhi
  30:OLED.cpp      ****     disp_cfg.driver_config.transport_config.pin_config.dc    = hw.GetPin(DaisyPatchSM::PinBank::A, 
 6469              		.loc 15 30 101 view .LVU1545
 6470 0068 3146     		mov	r1, r6
 6471 006a 0222     		movs	r2, #2
 6472 006c 9B48     		ldr	r0, .L430
  29:OLED.cpp      ****     disp_cfg.driver_config.transport_config.spi_config.pin_config.nss  = hw.GetPin(DaisyPatchSM::Pi
 6473              		.loc 15 29 111 view .LVU1546
 6474 006e ADF84230 		strh	r3, [sp, #66]	@ movhi
 6475              		.loc 15 30 5 is_stmt 1 view .LVU1547
 6476              		.loc 15 30 101 is_stmt 0 view .LVU1548
 6477 0072 FFF7FEFF 		bl	_ZN5daisy8patch_sm12DaisyPatchSM6GetPinENS1_7PinBankEi
 6478              	.LVL512:
ARM GAS  /var/folders/hl/qgbwny5j0fd895c2c41bk3tw0000gp/T//ccFqANMK.s 			page 176


 6479 0076 0346     		mov	r3, r0	@ movhi
  31:OLED.cpp      ****     disp_cfg.driver_config.transport_config.pin_config.reset = hw.GetPin(DaisyPatchSM::PinBank::A, 
 6480              		.loc 15 31 101 view .LVU1549
 6481 0078 3146     		mov	r1, r6
 6482 007a 0322     		movs	r2, #3
 6483 007c 9748     		ldr	r0, .L430
  30:OLED.cpp      ****     disp_cfg.driver_config.transport_config.pin_config.dc    = hw.GetPin(DaisyPatchSM::PinBank::A, 
 6484              		.loc 15 30 101 view .LVU1550
 6485 007e ADF86430 		strh	r3, [sp, #100]	@ movhi
 6486              		.loc 15 31 5 is_stmt 1 view .LVU1551
 6487              		.loc 15 31 101 is_stmt 0 view .LVU1552
 6488 0082 FFF7FEFF 		bl	_ZN5daisy8patch_sm12DaisyPatchSM6GetPinENS1_7PinBankEi
 6489              	.LVL513:
 6490 0086 0222     		movs	r2, #2
 6491 0088 0123     		movs	r3, #1
 6492 008a 0B21     		movs	r1, #11
 6493 008c 1596     		str	r6, [sp, #84]
 6494 008e 1696     		str	r6, [sp, #88]
 6495 0090 1393     		str	r3, [sp, #76]
 6496 0092 1296     		str	r6, [sp, #72]
 6497 0094 ADF86600 		strh	r0, [sp, #102]	@ movhi
  32:OLED.cpp      ****     /** And Initialize */
  33:OLED.cpp      ****     display.Init(disp_cfg);
 6498              		.loc 15 33 5 is_stmt 1 view .LVU1553
 6499              	.LVL514:
 6500              		.loc 15 33 5 is_stmt 0 view .LVU1554
 6501 0098 ADF83E10 		strh	r1, [sp, #62]	@ movhi
 6502 009c 1193     		str	r3, [sp, #68]
  34:OLED.cpp      **** 
  35:OLED.cpp      ****     message_idx = 0;
 6503              		.loc 15 35 17 view .LVU1555
 6504 009e 0D96     		str	r6, [sp, #52]
 6505              	.LBB1621:
 6506              	.LBB1609:
  25:../../libDaisy/src/hid/disp/oled_display.h **** 
 6507              		.loc 10 25 44 view .LVU1556
 6508 00a0 6E46     		mov	r6, sp
 6509 00a2 DFF878B2 		ldr	fp, .L430+64
 6510 00a6 CDE91722 		strd	r2, r2, [sp, #92]
 6511 00aa 0822     		movs	r2, #8
 6512 00ac 1492     		str	r2, [sp, #80]
 6513 00ae 0FCD     		ldmia	r5!, {r0, r1, r2, r3}
 6514 00b0 0FC4     		stmia	r4!, {r0, r1, r2, r3}
 6515 00b2 0FCD     		ldmia	r5!, {r0, r1, r2, r3}
 6516 00b4 0FC4     		stmia	r4!, {r0, r1, r2, r3}
 6517 00b6 95E80700 		ldm	r5, {r0, r1, r2}
 6518 00ba 84E80700 		stm	r4, {r0, r1, r2}
 6519              	.LBE1609:
 6520              	.LBI1607:
  25:../../libDaisy/src/hid/disp/oled_display.h **** 
 6521              		.loc 10 25 10 is_stmt 1 view .LVU1557
 6522              	.LBB1610:
  25:../../libDaisy/src/hid/disp/oled_display.h **** 
 6523              		.loc 10 25 44 is_stmt 0 view .LVU1558
 6524 00be 0FCF     		ldmia	r7!, {r0, r1, r2, r3}
 6525 00c0 0FC6     		stmia	r6!, {r0, r1, r2, r3}
 6526 00c2 97E80F00 		ldm	r7, {r0, r1, r2, r3}
ARM GAS  /var/folders/hl/qgbwny5j0fd895c2c41bk3tw0000gp/T//ccFqANMK.s 			page 177


 6527 00c6 86E80F00 		stm	r6, {r0, r1, r2, r3}
 6528 00ca 1AAB     		add	r3, sp, #104
 6529 00cc 0BF10800 		add	r0, fp, #8
 6530 00d0 0ECB     		ldm	r3, {r1, r2, r3}
 6531 00d2 FFF7FEFF 		bl	_ZN5daisy13SSD130xDriverILj128ELj64ENS_24SSD130x4WireSpiTransportEE4InitENS2_6ConfigE
 6532              	.LVL515:
  25:../../libDaisy/src/hid/disp/oled_display.h **** 
 6533              		.loc 10 25 44 view .LVU1559
 6534              	.LBE1610:
 6535              	.LBE1621:
 6536              		.loc 15 35 5 is_stmt 1 view .LVU1560
 6537              	.L420:
  36:OLED.cpp      ****     char strbuff[128];
 6538              		.loc 15 36 5 view .LVU1561
  37:OLED.cpp      ****     while(1)
 6539              		.loc 15 37 5 view .LVU1562
 6540              	.LBB1622:
  38:OLED.cpp      ****     {
  39:OLED.cpp      ****         System::Delay(500);
 6541              		.loc 15 39 9 view .LVU1563
 6542              		.loc 15 39 22 is_stmt 0 view .LVU1564
 6543 00d6 4FF4FA70 		mov	r0, #500
 6544 00da FFF7FEFF 		bl	_ZN5daisy6System5DelayEm
 6545              	.LVL516:
  40:OLED.cpp      ****         switch(message_idx)
 6546              		.loc 15 40 9 is_stmt 1 view .LVU1565
 6547 00de 0D9B     		ldr	r3, [sp, #52]
 6548 00e0 042B     		cmp	r3, #4
 6549 00e2 0FD8     		bhi	.L400
 6550 00e4 DFE813F0 		tbh	[pc, r3, lsl #1]
 6551              	.L402:
 6552 00e8 EB00     		.2byte	(.L406-.L402)/2
 6553 00ea F100     		.2byte	(.L405-.L402)/2
 6554 00ec E900     		.2byte	(.L404-.L402)/2
 6555 00ee E700     		.2byte	(.L403-.L402)/2
 6556 00f0 0500     		.2byte	(.L401-.L402)/2
 6557              		.p2align 1
 6558              	.L401:
  41:OLED.cpp      ****         {
  42:OLED.cpp      ****             case 0: sprintf(strbuff, "Testing. . ."); break;
  43:OLED.cpp      ****             case 1: sprintf(strbuff, "Daisy. . ."); break;
  44:OLED.cpp      ****             case 2: sprintf(strbuff, "1. . ."); break;
  45:OLED.cpp      ****             case 3: sprintf(strbuff, "2. . ."); break;
  46:OLED.cpp      ****             case 4: sprintf(strbuff, "3. . ."); break;
 6559              		.loc 15 46 13 view .LVU1566
 6560              		.loc 15 46 21 view .LVU1567
 6561              		.loc 15 46 28 is_stmt 0 view .LVU1568
 6562 00f2 804B     		ldr	r3, .L430+24
 6563              	.L428:
 6564 00f4 93E80300 		ldm	r3, {r0, r1}
 6565 00f8 ADF86C10 		strh	r1, [sp, #108]	@ movhi
 6566 00fc 090C     		lsrs	r1, r1, #16
 6567 00fe 1A90     		str	r0, [sp, #104]
 6568 0100 8DF86E10 		strb	r1, [sp, #110]
 6569              		.loc 15 46 49 is_stmt 1 view .LVU1569
 6570              	.LVL517:
 6571              	.L400:
ARM GAS  /var/folders/hl/qgbwny5j0fd895c2c41bk3tw0000gp/T//ccFqANMK.s 			page 178


  47:OLED.cpp      ****             default: break;
  48:OLED.cpp      ****         }
  49:OLED.cpp      ****         message_idx = (message_idx + 1) % 5;
 6572              		.loc 15 49 9 view .LVU1570
 6573              		.loc 15 49 36 is_stmt 0 view .LVU1571
 6574 0104 0D9B     		ldr	r3, [sp, #52]
 6575              	.LBB1623:
 6576              	.LBB1624:
 6577              	.LBB1625:
 266:../../libDaisy/src/dev/oled_ssd130x.h ****         }
 6578              		.loc 11 266 24 view .LVU1572
 6579 0106 FF21     		movs	r1, #255
 6580              	.LBE1625:
 6581              	.LBE1624:
 6582              	.LBE1623:
 6583              		.loc 15 49 41 view .LVU1573
 6584 0108 7B4C     		ldr	r4, .L430+28
 6585              		.loc 15 49 36 view .LVU1574
 6586 010a 0133     		adds	r3, r3, #1
 6587              	.LBB1632:
 6588              	.LBB1629:
 6589              	.LBB1626:
 266:../../libDaisy/src/dev/oled_ssd130x.h ****         }
 6590              		.loc 11 266 24 view .LVU1575
 6591 010c 7B48     		ldr	r0, .L430+32
 6592              	.LBE1626:
 6593              	.LBE1629:
 6594              	.LBE1632:
 6595              		.loc 15 49 36 view .LVU1576
 6596 010e DBB2     		uxtb	r3, r3
 6597              		.loc 15 49 41 view .LVU1577
 6598 0110 A4FB0324 		umull	r2, r4, r4, r3
 6599              	.LBB1633:
 6600              	.LBB1630:
 6601              	.LBB1627:
 266:../../libDaisy/src/dev/oled_ssd130x.h ****         }
 6602              		.loc 11 266 24 view .LVU1578
 6603 0114 4FF48062 		mov	r2, #1024
 6604              	.LBE1627:
 6605              	.LBE1630:
 6606              	.LBE1633:
 6607              		.loc 15 49 41 view .LVU1579
 6608 0118 04F0FC05 		and	r5, r4, #252
 6609 011c 05EB9404 		add	r4, r5, r4, lsr #2
 6610 0120 1B1B     		subs	r3, r3, r4
 6611              		.loc 15 49 21 view .LVU1580
 6612 0122 DBB2     		uxtb	r3, r3
 6613 0124 0D93     		str	r3, [sp, #52]
 6614              	.LVL518:
  50:OLED.cpp      ****         display.Fill(true);
 6615              		.loc 15 50 9 is_stmt 1 view .LVU1581
 6616              	.LBB1634:
 6617              	.LBI1623:
  34:../../libDaisy/src/hid/disp/oled_display.h **** 
 6618              		.loc 10 34 10 view .LVU1582
 6619              	.LBB1631:
 6620              	.LBI1624:
ARM GAS  /var/folders/hl/qgbwny5j0fd895c2c41bk3tw0000gp/T//ccFqANMK.s 			page 179


 262:../../libDaisy/src/dev/oled_ssd130x.h ****     {
 6621              		.loc 11 262 10 view .LVU1583
 6622              	.LBB1628:
 264:../../libDaisy/src/dev/oled_ssd130x.h ****         {
 6623              		.loc 11 264 29 view .LVU1584
 266:../../libDaisy/src/dev/oled_ssd130x.h ****         }
 6624              		.loc 11 266 24 is_stmt 0 view .LVU1585
 6625 0126 FFF7FEFF 		bl	memset
 6626              	.LVL519:
 266:../../libDaisy/src/dev/oled_ssd130x.h ****         }
 6627              		.loc 11 266 24 view .LVU1586
 6628              	.LBE1628:
 6629              	.LBE1631:
 6630              	.LBE1634:
  51:OLED.cpp      ****         display.SetCursor(0, 0);
 6631              		.loc 15 51 9 is_stmt 1 view .LVU1587
 6632              	.LBB1635:
 6633              	.LBI1635:
 171:../../libDaisy/src/hid/disp/display.h ****     {
 6634              		.loc 12 171 10 view .LVU1588
 6635              	.LBB1636:
 173:../../libDaisy/src/hid/disp/display.h ****         currentY_ = (y >= Height()) ? Height() - 1 : y;
 6636              		.loc 12 173 9 view .LVU1589
 174:../../libDaisy/src/hid/disp/display.h ****     }
 6637              		.loc 12 174 9 view .LVU1590
 6638 012a 754A     		ldr	r2, .L430+36
 173:../../libDaisy/src/hid/disp/display.h ****         currentY_ = (y >= Height()) ? Height() - 1 : y;
 6639              		.loc 12 173 19 is_stmt 0 view .LVU1591
 6640 012c 0023     		movs	r3, #0
 6641 012e 5178     		ldrb	r1, [r2, #1]	@ zero_extendqisi2
 6642 0130 92F800A0 		ldrb	r10, [r2]	@ zero_extendqisi2
 6643 0134 CBF80430 		str	r3, [fp, #4]
 6644              	.LVL520:
 173:../../libDaisy/src/hid/disp/display.h ****         currentY_ = (y >= Height()) ? Height() - 1 : y;
 6645              		.loc 12 173 19 view .LVU1592
 6646              	.LBE1636:
 6647              	.LBE1635:
  52:OLED.cpp      ****         display.WriteString(strbuff, Font_11x18, false);
 6648              		.loc 15 52 9 is_stmt 1 view .LVU1593
 6649              		.loc 15 52 9 is_stmt 0 view .LVU1594
 6650 0138 5268     		ldr	r2, [r2, #4]
 6651              	.LBB1637:
 6652              	.LBB1638:
 443:../../libDaisy/src/hid/disp/display.h ****         {
 6653              		.loc 12 443 9 view .LVU1595
 6654 013a 9DF86830 		ldrb	r3, [sp, #104]	@ zero_extendqisi2
 6655 013e 0B91     		str	r1, [sp, #44]
 6656              	.LVL521:
 443:../../libDaisy/src/hid/disp/display.h ****         {
 6657              		.loc 12 443 9 view .LVU1596
 6658 0140 0C92     		str	r2, [sp, #48]
 6659              	.LVL522:
 443:../../libDaisy/src/hid/disp/display.h ****         {
 6660              		.loc 12 443 9 view .LVU1597
 6661              	.LBE1638:
 6662              	.LBI1637:
 440:../../libDaisy/src/hid/disp/display.h ****     {
ARM GAS  /var/folders/hl/qgbwny5j0fd895c2c41bk3tw0000gp/T//ccFqANMK.s 			page 180


 6663              		.loc 12 440 10 is_stmt 1 view .LVU1598
 6664              	.LBB1676:
 443:../../libDaisy/src/hid/disp/display.h ****         {
 6665              		.loc 12 443 9 view .LVU1599
 6666 0142 002B     		cmp	r3, #0
 6667 0144 6FD0     		beq	.L408
 6668 0146 1AAA     		add	r2, sp, #104
 6669              	.LVL523:
 443:../../libDaisy/src/hid/disp/display.h ****         {
 6670              		.loc 12 443 9 is_stmt 0 view .LVU1600
 6671 0148 5546     		mov	r5, r10
 6672 014a 0992     		str	r2, [sp, #36]
 6673              	.LVL524:
 6674              	.L407:
 6675              	.LBB1639:
 6676              	.LBI1639:
 396:../../libDaisy/src/hid/disp/display.h ****     {
 6677              		.loc 12 396 10 is_stmt 1 view .LVU1601
 6678              	.LBB1640:
 401:../../libDaisy/src/hid/disp/display.h ****             return 0;
 6679              		.loc 12 401 20 is_stmt 0 view .LVU1602
 6680 014c 203B     		subs	r3, r3, #32
 6681              	.LVL525:
 401:../../libDaisy/src/hid/disp/display.h ****             return 0;
 6682              		.loc 12 401 9 view .LVU1603
 6683 014e DAB2     		uxtb	r2, r3
 6684 0150 5E2A     		cmp	r2, #94
 6685 0152 68D8     		bhi	.L408
 405:../../libDaisy/src/hid/disp/display.h ****            || Height() < (currentY_ + font.FontHeight))
 6686              		.loc 12 405 23 view .LVU1604
 6687 0154 BBF80490 		ldrh	r9, [fp, #4]
 405:../../libDaisy/src/hid/disp/display.h ****            || Height() < (currentY_ + font.FontHeight))
 6688              		.loc 12 405 33 view .LVU1605
 6689 0158 09EB0508 		add	r8, r9, r5
 406:../../libDaisy/src/hid/disp/display.h ****         {
 6690              		.loc 12 406 12 view .LVU1606
 6691 015c B8F1800F 		cmp	r8, #128
 6692 0160 61DC     		bgt	.L408
 406:../../libDaisy/src/hid/disp/display.h ****         {
 6693              		.loc 12 406 27 view .LVU1607
 6694 0162 BBF80620 		ldrh	r2, [fp, #6]
 406:../../libDaisy/src/hid/disp/display.h ****         {
 6695              		.loc 12 406 37 view .LVU1608
 6696 0166 0B99     		ldr	r1, [sp, #44]
 406:../../libDaisy/src/hid/disp/display.h ****         {
 6697              		.loc 12 406 27 view .LVU1609
 6698 0168 0A92     		str	r2, [sp, #40]
 406:../../libDaisy/src/hid/disp/display.h ****         {
 6699              		.loc 12 406 37 view .LVU1610
 6700 016a 0A44     		add	r2, r2, r1
 406:../../libDaisy/src/hid/disp/display.h ****         {
 6701              		.loc 12 406 12 view .LVU1611
 6702 016c 402A     		cmp	r2, #64
 6703 016e 5ADC     		bgt	.L408
 6704              	.LVL526:
 413:../../libDaisy/src/hid/disp/display.h ****         {
 6705              		.loc 12 413 22 is_stmt 1 view .LVU1612
ARM GAS  /var/folders/hl/qgbwny5j0fd895c2c41bk3tw0000gp/T//ccFqANMK.s 			page 181


 6706 0170 0029     		cmp	r1, #0
 6707 0172 43D0     		beq	.L413
 415:../../libDaisy/src/hid/disp/display.h ****             for(j = 0; j < font.FontWidth; j++)
 6708              		.loc 12 415 37 is_stmt 0 view .LVU1613
 6709 0174 0B9A     		ldr	r2, [sp, #44]
 6710 0176 6FF0004C 		mvn	ip, #-2147483648
 6711 017a 0A9C     		ldr	r4, [sp, #40]
 6712 017c 02FB03F3 		mul	r3, r2, r3
 6713 0180 9C44     		add	ip, ip, r3
 6714 0182 1344     		add	r3, r3, r2
 6715 0184 0C9A     		ldr	r2, [sp, #48]
 6716 0186 A2F1020A 		sub	r10, r2, #2
 6717 018a 02EB4C0C 		add	ip, r2, ip, lsl #1
 6718 018e 0AEB430A 		add	r10, r10, r3, lsl #1
 6719              	.LVL527:
 6720              	.L414:
 415:../../libDaisy/src/hid/disp/display.h ****             for(j = 0; j < font.FontWidth; j++)
 6721              		.loc 12 415 15 view .LVU1614
 6722 0192 3CF8026F 		ldrh	r6, [ip, #2]!
 6723              	.LVL528:
 416:../../libDaisy/src/hid/disp/display.h ****             {
 6724              		.loc 12 416 26 is_stmt 1 view .LVU1615
 6725 0196 6DB3     		cbz	r5, .L417
 6726              	.LBB1641:
 6727              	.LBB1642:
 6728              	.LBB1643:
 257:../../libDaisy/src/dev/oled_ssd130x.h ****         else
 6729              		.loc 11 257 54 is_stmt 0 view .LVU1616
 6730 0198 04F00703 		and	r3, r4, #7
 257:../../libDaisy/src/dev/oled_ssd130x.h ****         else
 6731              		.loc 11 257 48 view .LVU1617
 6732 019c 0127     		movs	r7, #1
 257:../../libDaisy/src/dev/oled_ssd130x.h ****         else
 6733              		.loc 11 257 28 view .LVU1618
 6734 019e E208     		lsrs	r2, r4, #3
 6735 01a0 4946     		mov	r1, r9
 257:../../libDaisy/src/dev/oled_ssd130x.h ****         else
 6736              		.loc 11 257 48 view .LVU1619
 6737 01a2 9F40     		lsls	r7, r7, r3
 6738 01a4 09F11403 		add	r3, r9, #20
 257:../../libDaisy/src/dev/oled_ssd130x.h ****         else
 6739              		.loc 11 257 42 view .LVU1620
 6740 01a8 7FB2     		sxtb	r7, r7
 6741 01aa 03EBC212 		add	r2, r3, r2, lsl #7
 6742              	.LBE1643:
 6743              	.LBE1642:
 6744              	.LBE1641:
 416:../../libDaisy/src/hid/disp/display.h ****             {
 6745              		.loc 12 416 19 view .LVU1621
 6746 01ae 0023     		movs	r3, #0
 6747              	.LBB1651:
 6748              	.LBB1652:
 6749              	.LBB1653:
 6750              	.LBB1654:
 6751              	.LBB1655:
 259:../../libDaisy/src/dev/oled_ssd130x.h ****     }
 6752              		.loc 11 259 42 view .LVU1622
ARM GAS  /var/folders/hl/qgbwny5j0fd895c2c41bk3tw0000gp/T//ccFqANMK.s 			page 182


 6753 01b0 6FEA070E 		mvn	lr, r7
 6754 01b4 5A44     		add	r2, r2, fp
 6755 01b6 0CE0     		b	.L418
 6756              	.LVL529:
 6757              	.L429:
 259:../../libDaisy/src/dev/oled_ssd130x.h ****     }
 6758              		.loc 11 259 42 view .LVU1623
 6759              	.LBE1655:
 6760              	.LBI1654:
 252:../../libDaisy/src/dev/oled_ssd130x.h ****     {
 6761              		.loc 11 252 10 is_stmt 1 view .LVU1624
 252:../../libDaisy/src/dev/oled_ssd130x.h ****     {
 6762              		.loc 11 252 10 is_stmt 0 view .LVU1625
 6763              	.LBE1654:
 254:../../libDaisy/src/dev/oled_ssd130x.h ****             return;
 6764              		.loc 11 254 9 view .LVU1626
 6765 01b8 7F29     		cmp	r1, #127
 6766 01ba 05D8     		bhi	.L416
 6767 01bc 3F2C     		cmp	r4, #63
 6768 01be 03D8     		bhi	.L416
 6769              	.LBB1657:
 6770              	.LBB1656:
 259:../../libDaisy/src/dev/oled_ssd130x.h ****     }
 6771              		.loc 11 259 42 view .LVU1627
 6772 01c0 1078     		ldrb	r0, [r2]	@ zero_extendqisi2
 6773 01c2 0EEA0000 		and	r0, lr, r0
 6774 01c6 1070     		strb	r0, [r2]
 6775              	.LVL530:
 6776              	.L416:
 259:../../libDaisy/src/dev/oled_ssd130x.h ****     }
 6777              		.loc 11 259 42 view .LVU1628
 6778              	.LBE1656:
 6779              	.LBE1657:
 6780              	.LBE1653:
 6781              	.LBE1652:
 6782              	.LBE1651:
 416:../../libDaisy/src/hid/disp/display.h ****             {
 6783              		.loc 12 416 13 is_stmt 1 view .LVU1629
 6784 01c8 0133     		adds	r3, r3, #1
 6785              	.LVL531:
 416:../../libDaisy/src/hid/disp/display.h ****             {
 6786              		.loc 12 416 26 view .LVU1630
 6787 01ca 0132     		adds	r2, r2, #1
 6788 01cc 0131     		adds	r1, r1, #1
 6789 01ce AB42     		cmp	r3, r5
 6790 01d0 10D0     		beq	.L417
 6791              	.LVL532:
 6792              	.L418:
 6793              	.LBB1659:
 6794              	.LBI1651:
  42:../../libDaisy/src/hid/disp/oled_display.h ****     {
 6795              		.loc 10 42 10 view .LVU1631
 6796              	.LBB1658:
 6797              	.LBI1652:
 252:../../libDaisy/src/dev/oled_ssd130x.h ****     {
 6798              		.loc 11 252 10 view .LVU1632
 252:../../libDaisy/src/dev/oled_ssd130x.h ****     {
ARM GAS  /var/folders/hl/qgbwny5j0fd895c2c41bk3tw0000gp/T//ccFqANMK.s 			page 183


 6799              		.loc 11 252 10 is_stmt 0 view .LVU1633
 6800              	.LBE1658:
 6801              	.LBE1659:
 6802              	.LBB1660:
 6803              	.LBI1641:
  42:../../libDaisy/src/hid/disp/oled_display.h ****     {
 6804              		.loc 10 42 10 is_stmt 1 view .LVU1634
 6805              	.LBB1647:
 6806              	.LBI1642:
 252:../../libDaisy/src/dev/oled_ssd130x.h ****     {
 6807              		.loc 11 252 10 view .LVU1635
 6808              	.LBE1647:
 6809              	.LBE1660:
 418:../../libDaisy/src/hid/disp/display.h ****                 {
 6810              		.loc 12 418 23 is_stmt 0 view .LVU1636
 6811 01d2 06FA03F0 		lsl	r0, r6, r3
 418:../../libDaisy/src/hid/disp/display.h ****                 {
 6812              		.loc 12 418 17 view .LVU1637
 6813 01d6 0004     		lsls	r0, r0, #16
 6814 01d8 EED4     		bmi	.L429
 6815              	.LBB1661:
 6816              	.LBB1648:
 6817              	.LBB1644:
 254:../../libDaisy/src/dev/oled_ssd130x.h ****             return;
 6818              		.loc 11 254 9 view .LVU1638
 6819 01da 7F29     		cmp	r1, #127
 6820 01dc F4D8     		bhi	.L416
 6821 01de 3F2C     		cmp	r4, #63
 6822 01e0 F2D8     		bhi	.L416
 257:../../libDaisy/src/dev/oled_ssd130x.h ****         else
 6823              		.loc 11 257 42 view .LVU1639
 6824 01e2 1078     		ldrb	r0, [r2]	@ zero_extendqisi2
 6825              	.LBE1644:
 6826              	.LBE1648:
 6827              	.LBE1661:
 416:../../libDaisy/src/hid/disp/display.h ****             {
 6828              		.loc 12 416 13 view .LVU1640
 6829 01e4 0133     		adds	r3, r3, #1
 6830              	.LVL533:
 416:../../libDaisy/src/hid/disp/display.h ****             {
 6831              		.loc 12 416 26 view .LVU1641
 6832 01e6 0132     		adds	r2, r2, #1
 6833 01e8 0131     		adds	r1, r1, #1
 6834              	.LBB1662:
 6835              	.LBB1649:
 6836              	.LBB1645:
 257:../../libDaisy/src/dev/oled_ssd130x.h ****         else
 6837              		.loc 11 257 42 view .LVU1642
 6838 01ea 3843     		orrs	r0, r0, r7
 6839              	.LBE1645:
 6840              	.LBE1649:
 6841              	.LBE1662:
 416:../../libDaisy/src/hid/disp/display.h ****             {
 6842              		.loc 12 416 26 view .LVU1643
 6843 01ec AB42     		cmp	r3, r5
 6844              	.LBB1663:
 6845              	.LBB1650:
ARM GAS  /var/folders/hl/qgbwny5j0fd895c2c41bk3tw0000gp/T//ccFqANMK.s 			page 184


 6846              	.LBB1646:
 257:../../libDaisy/src/dev/oled_ssd130x.h ****         else
 6847              		.loc 11 257 42 view .LVU1644
 6848 01ee 02F8010C 		strb	r0, [r2, #-1]
 6849              	.LVL534:
 257:../../libDaisy/src/dev/oled_ssd130x.h ****         else
 6850              		.loc 11 257 42 view .LVU1645
 6851              	.LBE1646:
 6852              	.LBE1650:
 6853              	.LBE1663:
 416:../../libDaisy/src/hid/disp/display.h ****             {
 6854              		.loc 12 416 13 is_stmt 1 view .LVU1646
 416:../../libDaisy/src/hid/disp/display.h ****             {
 6855              		.loc 12 416 26 view .LVU1647
 6856 01f2 EED1     		bne	.L418
 6857              	.LVL535:
 6858              	.L417:
 413:../../libDaisy/src/hid/disp/display.h ****         {
 6859              		.loc 12 413 9 view .LVU1648
 413:../../libDaisy/src/hid/disp/display.h ****         {
 6860              		.loc 12 413 22 view .LVU1649
 6861 01f4 E245     		cmp	r10, ip
 6862 01f6 04F10104 		add	r4, r4, #1
 6863 01fa CAD1     		bne	.L414
 6864              	.LVL536:
 6865              	.L413:
 6866              	.LBB1664:
 6867              	.LBI1664:
 171:../../libDaisy/src/hid/disp/display.h ****     {
 6868              		.loc 12 171 10 view .LVU1650
 6869              	.LBB1665:
 173:../../libDaisy/src/hid/disp/display.h ****         currentY_ = (y >= Height()) ? Height() - 1 : y;
 6870              		.loc 12 173 9 view .LVU1651
 174:../../libDaisy/src/hid/disp/display.h ****     }
 6871              		.loc 12 174 19 is_stmt 0 view .LVU1652
 6872 01fc 0A9B     		ldr	r3, [sp, #40]
 173:../../libDaisy/src/hid/disp/display.h ****         currentY_ = (y >= Height()) ? Height() - 1 : y;
 6873              		.loc 12 173 19 view .LVU1653
 6874 01fe 1FFA88F8 		uxth	r8, r8
 6875              	.LBE1665:
 6876              	.LBE1664:
 6877              	.LBE1640:
 6878              	.LBE1639:
 443:../../libDaisy/src/hid/disp/display.h ****         {
 6879              		.loc 12 443 9 view .LVU1654
 6880 0202 099A     		ldr	r2, [sp, #36]
 6881              	.LBB1673:
 6882              	.LBB1670:
 6883              	.LBB1668:
 6884              	.LBB1666:
 174:../../libDaisy/src/hid/disp/display.h ****     }
 6885              		.loc 12 174 19 view .LVU1655
 6886 0204 3F2B     		cmp	r3, #63
 6887 0206 28BF     		it	cs
 6888 0208 3F23     		movcs	r3, #63
 173:../../libDaisy/src/hid/disp/display.h ****         currentY_ = (y >= Height()) ? Height() - 1 : y;
 6889              		.loc 12 173 19 view .LVU1656
ARM GAS  /var/folders/hl/qgbwny5j0fd895c2c41bk3tw0000gp/T//ccFqANMK.s 			page 185


 6890 020a B8F17F0F 		cmp	r8, #127
 174:../../libDaisy/src/hid/disp/display.h ****     }
 6891              		.loc 12 174 19 view .LVU1657
 6892 020e ABF80630 		strh	r3, [fp, #6]	@ movhi
 173:../../libDaisy/src/hid/disp/display.h ****         currentY_ = (y >= Height()) ? Height() - 1 : y;
 6893              		.loc 12 173 19 view .LVU1658
 6894 0212 28BF     		it	cs
 6895 0214 4FF07F08 		movcs	r8, #127
 6896              	.LBE1666:
 6897              	.LBE1668:
 6898              	.LBE1670:
 6899              	.LBE1673:
 443:../../libDaisy/src/hid/disp/display.h ****         {
 6900              		.loc 12 443 9 view .LVU1659
 6901 0218 12F8013F 		ldrb	r3, [r2, #1]!	@ zero_extendqisi2
 6902              	.LBB1674:
 6903              	.LBB1671:
 6904              	.LBB1669:
 6905              	.LBB1667:
 173:../../libDaisy/src/hid/disp/display.h ****         currentY_ = (y >= Height()) ? Height() - 1 : y;
 6906              		.loc 12 173 19 view .LVU1660
 6907 021c ABF80480 		strh	r8, [fp, #4]	@ movhi
 174:../../libDaisy/src/hid/disp/display.h ****     }
 6908              		.loc 12 174 9 is_stmt 1 view .LVU1661
 6909              	.LVL537:
 174:../../libDaisy/src/hid/disp/display.h ****     }
 6910              		.loc 12 174 9 is_stmt 0 view .LVU1662
 6911              	.LBE1667:
 6912              	.LBE1669:
 6913              	.LBE1671:
 6914              	.LBE1674:
 443:../../libDaisy/src/hid/disp/display.h ****         {
 6915              		.loc 12 443 9 is_stmt 1 view .LVU1663
 6916 0220 0992     		str	r2, [sp, #36]
 6917 0222 002B     		cmp	r3, #0
 6918 0224 92D1     		bne	.L407
 6919              	.LVL538:
 6920              	.L408:
 443:../../libDaisy/src/hid/disp/display.h ****         {
 6921              		.loc 12 443 9 is_stmt 0 view .LVU1664
 6922              	.LBE1676:
 6923              	.LBE1637:
  53:OLED.cpp      ****         display.Update();
 6924              		.loc 15 53 9 is_stmt 1 view .LVU1665
 6925              	.LBB1678:
 6926              	.LBI1678:
 6927              		.loc 10 51 10 view .LVU1666
 6928              	.LBB1679:
 6929              	.LBI1679:
 273:../../libDaisy/src/dev/oled_ssd130x.h ****     {
 6930              		.loc 11 273 10 view .LVU1667
 6931              	.LBB1680:
 6932              		.loc 11 283 22 view .LVU1668
 6933 0226 354E     		ldr	r6, .L430+32
 6934              	.LBE1680:
 6935              	.LBE1679:
 6936              	.LBE1678:
ARM GAS  /var/folders/hl/qgbwny5j0fd895c2c41bk3tw0000gp/T//ccFqANMK.s 			page 186


 6937              	.LBB1700:
 6938              	.LBB1677:
 6939              	.LBB1675:
 6940              	.LBB1672:
 416:../../libDaisy/src/hid/disp/display.h ****             {
 6941              		.loc 12 416 19 is_stmt 0 view .LVU1669
 6942 0228 B024     		movs	r4, #176
 6943              	.LVL539:
 6944              	.L419:
 416:../../libDaisy/src/hid/disp/display.h ****             {
 6945              		.loc 12 416 19 view .LVU1670
 6946 022a 0025     		movs	r5, #0
 6947              	.LBE1672:
 6948              	.LBE1675:
 6949              	.LBE1677:
 6950              	.LBE1700:
 6951              	.LBB1701:
 6952              	.LBB1699:
 6953              	.LBB1698:
 6954              	.LBB1681:
 6955              	.LBB1682:
 124:../../libDaisy/src/dev/oled_ssd130x.h ****         spi_.BlockingTransmit(&cmd, 1);
 6956              		.loc 11 124 23 view .LVU1671
 6957 022c 3548     		ldr	r0, .L430+40
 6958 022e 8DF83B40 		strb	r4, [sp, #59]
 6959              	.LVL540:
 124:../../libDaisy/src/dev/oled_ssd130x.h ****         spi_.BlockingTransmit(&cmd, 1);
 6960              		.loc 11 124 23 view .LVU1672
 6961              	.LBE1682:
 6962              	.LBI1681:
 122:../../libDaisy/src/dev/oled_ssd130x.h ****     {
 6963              		.loc 11 122 10 is_stmt 1 view .LVU1673
 6964              	.LBB1683:
 124:../../libDaisy/src/dev/oled_ssd130x.h ****         spi_.BlockingTransmit(&cmd, 1);
 6965              		.loc 11 124 9 view .LVU1674
 6966              	.LBE1683:
 6967              	.LBE1681:
 6968              		.loc 11 283 22 is_stmt 0 view .LVU1675
 6969 0232 0134     		adds	r4, r4, #1
 6970              	.LVL541:
 6971              	.LBB1686:
 6972              	.LBB1684:
 124:../../libDaisy/src/dev/oled_ssd130x.h ****         spi_.BlockingTransmit(&cmd, 1);
 6973              		.loc 11 124 23 view .LVU1676
 6974 0234 2946     		mov	r1, r5
 6975 0236 FFF7FEFF 		bl	dsy_gpio_write
 6976              	.LVL542:
 125:../../libDaisy/src/dev/oled_ssd130x.h ****     };
 6977              		.loc 11 125 9 is_stmt 1 view .LVU1677
 125:../../libDaisy/src/dev/oled_ssd130x.h ****     };
 6978              		.loc 11 125 30 is_stmt 0 view .LVU1678
 6979 023a 6423     		movs	r3, #100
 6980 023c 0122     		movs	r2, #1
 6981 023e 0DF13B01 		add	r1, sp, #59
 6982 0242 3148     		ldr	r0, .L430+44
 6983              	.LBE1684:
 6984              	.LBE1686:
ARM GAS  /var/folders/hl/qgbwny5j0fd895c2c41bk3tw0000gp/T//ccFqANMK.s 			page 187


 6985              		.loc 11 283 22 view .LVU1679
 6986 0244 E4B2     		uxtb	r4, r4
 6987              	.LBB1687:
 6988              	.LBB1685:
 125:../../libDaisy/src/dev/oled_ssd130x.h ****     };
 6989              		.loc 11 125 30 view .LVU1680
 6990 0246 FFF7FEFF 		bl	_ZN5daisy9SpiHandle16BlockingTransmitEPhjm
 6991              	.LVL543:
 125:../../libDaisy/src/dev/oled_ssd130x.h ****     };
 6992              		.loc 11 125 30 view .LVU1681
 6993              	.LBE1685:
 6994              	.LBE1687:
 6995              	.LBB1688:
 6996              	.LBB1689:
 124:../../libDaisy/src/dev/oled_ssd130x.h ****         spi_.BlockingTransmit(&cmd, 1);
 6997              		.loc 11 124 23 view .LVU1682
 6998 024a 2946     		mov	r1, r5
 6999 024c 2D48     		ldr	r0, .L430+40
 7000 024e 8DF83B50 		strb	r5, [sp, #59]
 7001              	.LVL544:
 124:../../libDaisy/src/dev/oled_ssd130x.h ****         spi_.BlockingTransmit(&cmd, 1);
 7002              		.loc 11 124 23 view .LVU1683
 7003              	.LBE1689:
 7004              	.LBI1688:
 122:../../libDaisy/src/dev/oled_ssd130x.h ****     {
 7005              		.loc 11 122 10 is_stmt 1 view .LVU1684
 7006              	.LBB1690:
 124:../../libDaisy/src/dev/oled_ssd130x.h ****         spi_.BlockingTransmit(&cmd, 1);
 7007              		.loc 11 124 9 view .LVU1685
 124:../../libDaisy/src/dev/oled_ssd130x.h ****         spi_.BlockingTransmit(&cmd, 1);
 7008              		.loc 11 124 23 is_stmt 0 view .LVU1686
 7009 0252 FFF7FEFF 		bl	dsy_gpio_write
 7010              	.LVL545:
 125:../../libDaisy/src/dev/oled_ssd130x.h ****     };
 7011              		.loc 11 125 9 is_stmt 1 view .LVU1687
 125:../../libDaisy/src/dev/oled_ssd130x.h ****     };
 7012              		.loc 11 125 30 is_stmt 0 view .LVU1688
 7013 0256 0122     		movs	r2, #1
 7014 0258 6423     		movs	r3, #100
 7015 025a 0DF13B01 		add	r1, sp, #59
 7016 025e 2A48     		ldr	r0, .L430+44
 7017 0260 FFF7FEFF 		bl	_ZN5daisy9SpiHandle16BlockingTransmitEPhjm
 7018              	.LVL546:
 125:../../libDaisy/src/dev/oled_ssd130x.h ****     };
 7019              		.loc 11 125 30 view .LVU1689
 7020 0264 1023     		movs	r3, #16
 7021              	.LBE1690:
 7022              	.LBE1688:
 7023              	.LBB1691:
 7024              	.LBB1692:
 124:../../libDaisy/src/dev/oled_ssd130x.h ****         spi_.BlockingTransmit(&cmd, 1);
 7025              		.loc 11 124 23 view .LVU1690
 7026 0266 2946     		mov	r1, r5
 7027 0268 2648     		ldr	r0, .L430+40
 7028 026a 8DF83B30 		strb	r3, [sp, #59]
 7029              	.LVL547:
 124:../../libDaisy/src/dev/oled_ssd130x.h ****         spi_.BlockingTransmit(&cmd, 1);
ARM GAS  /var/folders/hl/qgbwny5j0fd895c2c41bk3tw0000gp/T//ccFqANMK.s 			page 188


 7030              		.loc 11 124 23 view .LVU1691
 7031              	.LBE1692:
 7032              	.LBI1691:
 122:../../libDaisy/src/dev/oled_ssd130x.h ****     {
 7033              		.loc 11 122 10 is_stmt 1 view .LVU1692
 7034              	.LBB1693:
 124:../../libDaisy/src/dev/oled_ssd130x.h ****         spi_.BlockingTransmit(&cmd, 1);
 7035              		.loc 11 124 9 view .LVU1693
 124:../../libDaisy/src/dev/oled_ssd130x.h ****         spi_.BlockingTransmit(&cmd, 1);
 7036              		.loc 11 124 23 is_stmt 0 view .LVU1694
 7037 026e FFF7FEFF 		bl	dsy_gpio_write
 7038              	.LVL548:
 125:../../libDaisy/src/dev/oled_ssd130x.h ****     };
 7039              		.loc 11 125 9 is_stmt 1 view .LVU1695
 125:../../libDaisy/src/dev/oled_ssd130x.h ****     };
 7040              		.loc 11 125 30 is_stmt 0 view .LVU1696
 7041 0272 6423     		movs	r3, #100
 7042 0274 0122     		movs	r2, #1
 7043 0276 0DF13B01 		add	r1, sp, #59
 7044 027a 2348     		ldr	r0, .L430+44
 7045 027c FFF7FEFF 		bl	_ZN5daisy9SpiHandle16BlockingTransmitEPhjm
 7046              	.LVL549:
 125:../../libDaisy/src/dev/oled_ssd130x.h ****     };
 7047              		.loc 11 125 30 view .LVU1697
 7048              	.LBE1693:
 7049              	.LBE1691:
 7050              	.LBB1694:
 7051              	.LBI1694:
 128:../../libDaisy/src/dev/oled_ssd130x.h ****     {
 7052              		.loc 11 128 10 is_stmt 1 view .LVU1698
 7053              	.LBB1695:
 130:../../libDaisy/src/dev/oled_ssd130x.h ****         spi_.BlockingTransmit(buff, size);
 7054              		.loc 11 130 9 view .LVU1699
 130:../../libDaisy/src/dev/oled_ssd130x.h ****         spi_.BlockingTransmit(buff, size);
 7055              		.loc 11 130 23 is_stmt 0 view .LVU1700
 7056 0280 0121     		movs	r1, #1
 7057 0282 2048     		ldr	r0, .L430+40
 7058 0284 FFF7FEFF 		bl	dsy_gpio_write
 7059              	.LVL550:
 131:../../libDaisy/src/dev/oled_ssd130x.h ****     };
 7060              		.loc 11 131 9 is_stmt 1 view .LVU1701
 131:../../libDaisy/src/dev/oled_ssd130x.h ****     };
 7061              		.loc 11 131 30 is_stmt 0 view .LVU1702
 7062 0288 3146     		mov	r1, r6
 7063 028a 6423     		movs	r3, #100
 7064 028c 8022     		movs	r2, #128
 7065 028e 1E48     		ldr	r0, .L430+44
 7066              	.LBE1695:
 7067              	.LBE1694:
 7068              		.loc 11 283 22 view .LVU1703
 7069 0290 8036     		adds	r6, r6, #128
 7070              	.LVL551:
 7071              	.LBB1697:
 7072              	.LBB1696:
 131:../../libDaisy/src/dev/oled_ssd130x.h ****     };
 7073              		.loc 11 131 30 view .LVU1704
 7074 0292 FFF7FEFF 		bl	_ZN5daisy9SpiHandle16BlockingTransmitEPhjm
ARM GAS  /var/folders/hl/qgbwny5j0fd895c2c41bk3tw0000gp/T//ccFqANMK.s 			page 189


 7075              	.LVL552:
 131:../../libDaisy/src/dev/oled_ssd130x.h ****     };
 7076              		.loc 11 131 30 view .LVU1705
 7077              	.LBE1696:
 7078              	.LBE1697:
 7079              		.loc 11 283 9 is_stmt 1 view .LVU1706
 7080              		.loc 11 283 22 view .LVU1707
 7081 0296 B82C     		cmp	r4, #184
 7082 0298 C7D1     		bne	.L419
 7083              	.LVL553:
 7084              		.loc 11 283 22 is_stmt 0 view .LVU1708
 7085              	.LBE1698:
 7086              	.LBE1699:
 7087              	.LBE1701:
  54:OLED.cpp      **** 
  55:OLED.cpp      ****         /** Debounce the switch */
  56:OLED.cpp      ****         myEnc.Debounce();
 7088              		.loc 15 56 9 is_stmt 1 view .LVU1709
 7089              		.loc 15 56 23 is_stmt 0 view .LVU1710
 7090 029a 1548     		ldr	r0, .L430+20
 7091 029c FFF7FEFF 		bl	_ZN5daisy7Encoder8DebounceEv
 7092              	.LVL554:
  57:OLED.cpp      **** 
  58:OLED.cpp      ****         /** Get the current button state */
  59:OLED.cpp      ****         bool state = myEnc.Pressed();
 7093              		.loc 15 59 9 is_stmt 1 view .LVU1711
 7094              	.LBB1702:
 7095              	.LBI1702:
  22:../../libDaisy/src/hid/encoder.h **** 
  23:../../libDaisy/src/hid/encoder.h ****     /** Initializes the encoder with the specified hardware pins.
  24:../../libDaisy/src/hid/encoder.h ****      * Update rate is to be deprecated in a future release
  25:../../libDaisy/src/hid/encoder.h ****      */
  26:../../libDaisy/src/hid/encoder.h ****     void Init(dsy_gpio_pin a,
  27:../../libDaisy/src/hid/encoder.h ****               dsy_gpio_pin b,
  28:../../libDaisy/src/hid/encoder.h ****               dsy_gpio_pin click,
  29:../../libDaisy/src/hid/encoder.h ****               float        update_rate = 0.f);
  30:../../libDaisy/src/hid/encoder.h ****     /** Called at update_rate to debounce and handle timing for the switch.
  31:../../libDaisy/src/hid/encoder.h ****      * In order for events not to be missed, its important that the Edge/Pressed checks be made at 
  32:../../libDaisy/src/hid/encoder.h ****      */
  33:../../libDaisy/src/hid/encoder.h ****     void Debounce();
  34:../../libDaisy/src/hid/encoder.h **** 
  35:../../libDaisy/src/hid/encoder.h ****     /** Returns +1 if the encoder was turned clockwise, -1 if it was turned counter-clockwise, or 0
  36:../../libDaisy/src/hid/encoder.h ****     inline int32_t Increment() const { return updated_ ? inc_ : 0; }
  37:../../libDaisy/src/hid/encoder.h **** 
  38:../../libDaisy/src/hid/encoder.h ****     /** Returns true if the encoder was just pressed. */
  39:../../libDaisy/src/hid/encoder.h ****     inline bool RisingEdge() const { return sw_.RisingEdge(); }
  40:../../libDaisy/src/hid/encoder.h **** 
  41:../../libDaisy/src/hid/encoder.h ****     /** Returns true if the encoder was just released. */
  42:../../libDaisy/src/hid/encoder.h ****     inline bool FallingEdge() const { return sw_.FallingEdge(); }
  43:../../libDaisy/src/hid/encoder.h **** 
  44:../../libDaisy/src/hid/encoder.h ****     /** Returns true while the encoder is held down.*/
  45:../../libDaisy/src/hid/encoder.h ****     inline bool Pressed() const { return sw_.Pressed(); }
 7096              		.loc 1 45 17 view .LVU1712
 7097              	.LBE1702:
 7098              	.LBE1622:
 7099              		.loc 1 45 35 view .LVU1713
 7100              	.LBB1712:
ARM GAS  /var/folders/hl/qgbwny5j0fd895c2c41bk3tw0000gp/T//ccFqANMK.s 			page 190


 7101              	.LBB1709:
 7102              	.LBB1703:
 7103              	.LBI1703:
  43:../../libDaisy/src/hid/switch.h **** 
  44:../../libDaisy/src/hid/switch.h ****     /** 
  45:../../libDaisy/src/hid/switch.h ****     Initializes the switch object with a given port/pin combo.
  46:../../libDaisy/src/hid/switch.h ****     \param pin port/pin object to tell the switch which hardware pin to use.
  47:../../libDaisy/src/hid/switch.h ****     \param update_rate Does nothing. Backwards compatibility until next breaking update.
  48:../../libDaisy/src/hid/switch.h ****     \param t switch type -- Default: TYPE_MOMENTARY
  49:../../libDaisy/src/hid/switch.h ****     \param pol switch polarity -- Default: POLARITY_INVERTED
  50:../../libDaisy/src/hid/switch.h ****     \param pu switch pull up/down -- Default: PULL_UP
  51:../../libDaisy/src/hid/switch.h ****     */
  52:../../libDaisy/src/hid/switch.h ****     void
  53:../../libDaisy/src/hid/switch.h ****     Init(dsy_gpio_pin pin, float update_rate, Type t, Polarity pol, Pull pu);
  54:../../libDaisy/src/hid/switch.h **** 
  55:../../libDaisy/src/hid/switch.h ****     /**
  56:../../libDaisy/src/hid/switch.h ****        Simplified Init.
  57:../../libDaisy/src/hid/switch.h ****        \param pin port/pin object to tell the switch which hardware pin to use.
  58:../../libDaisy/src/hid/switch.h ****        \param update_rate Left for backwards compatibility until next breaking change.
  59:../../libDaisy/src/hid/switch.h ****     */
  60:../../libDaisy/src/hid/switch.h ****     void Init(dsy_gpio_pin pin, float update_rate = 0.f);
  61:../../libDaisy/src/hid/switch.h **** 
  62:../../libDaisy/src/hid/switch.h ****     /** 
  63:../../libDaisy/src/hid/switch.h ****     Called at update_rate to debounce and handle timing for the switch.
  64:../../libDaisy/src/hid/switch.h ****     In order for events not to be missed, its important that the Edge/Pressed checks
  65:../../libDaisy/src/hid/switch.h ****     be made at the same rate as the debounce function is being called.
  66:../../libDaisy/src/hid/switch.h ****     */
  67:../../libDaisy/src/hid/switch.h ****     void Debounce();
  68:../../libDaisy/src/hid/switch.h **** 
  69:../../libDaisy/src/hid/switch.h ****     /** \return true if a button was just pressed. */
  70:../../libDaisy/src/hid/switch.h ****     inline bool RisingEdge() const { return updated_ ? state_ == 0x7f : false; }
  71:../../libDaisy/src/hid/switch.h **** 
  72:../../libDaisy/src/hid/switch.h ****     /** \return true if the button was just released */
  73:../../libDaisy/src/hid/switch.h ****     inline bool FallingEdge() const
  74:../../libDaisy/src/hid/switch.h ****     {
  75:../../libDaisy/src/hid/switch.h ****         return updated_ ? state_ == 0x80 : false;
  76:../../libDaisy/src/hid/switch.h ****     }
  77:../../libDaisy/src/hid/switch.h **** 
  78:../../libDaisy/src/hid/switch.h ****     /** \return true if the button is held down (or if the toggle is on) */
  79:../../libDaisy/src/hid/switch.h ****     inline bool Pressed() const { return state_ == 0xff; }
 7104              		.loc 2 79 17 view .LVU1714
 7105              	.LBB1704:
 7106              		.loc 2 79 35 view .LVU1715
 7107              		.loc 2 79 35 is_stmt 0 view .LVU1716
 7108              	.LBE1704:
 7109              	.LBE1703:
 7110              	.LBE1709:
  60:OLED.cpp      **** 
  61:OLED.cpp      ****         /** Set the onboard led to the current state */
  62:OLED.cpp      ****         hw.SetLed(state);
 7111              		.loc 15 62 9 is_stmt 1 view .LVU1717
 7112              	.LBB1710:
 7113              	.LBB1707:
 7114              	.LBB1705:
 7115              		.loc 2 79 52 is_stmt 0 view .LVU1718
 7116 02a0 134B     		ldr	r3, .L430+20
 7117              	.LBE1705:
ARM GAS  /var/folders/hl/qgbwny5j0fd895c2c41bk3tw0000gp/T//ccFqANMK.s 			page 191


 7118              	.LBE1707:
 7119              	.LBE1710:
 7120              		.loc 15 62 18 view .LVU1719
 7121 02a2 0E48     		ldr	r0, .L430
 7122              	.LBB1711:
 7123              	.LBB1708:
 7124              	.LBB1706:
 7125              		.loc 2 79 52 view .LVU1720
 7126 02a4 997C     		ldrb	r1, [r3, #18]	@ zero_extendqisi2
 7127              	.LBE1706:
 7128              	.LBE1708:
 7129              	.LBE1711:
 7130              		.loc 15 62 18 view .LVU1721
 7131 02a6 A1F1FF01 		sub	r1, #255
 7132 02aa B1FA81F1 		clz	r1, r1
 7133 02ae 4909     		lsrs	r1, r1, #5
 7134 02b0 FFF7FEFF 		bl	_ZN5daisy8patch_sm12DaisyPatchSM6SetLedEb
 7135              	.LVL555:
 7136              		.loc 15 62 18 view .LVU1722
 7137              	.LBE1712:
  37:OLED.cpp      ****     {
 7138              		.loc 15 37 5 is_stmt 1 view .LVU1723
  63:OLED.cpp      ****     }
 7139              		.loc 15 63 5 is_stmt 0 view .LVU1724
 7140 02b4 0FE7     		b	.L420
 7141              	.LVL556:
 7142              	.L403:
 7143              	.LBB1713:
  45:OLED.cpp      ****             case 4: sprintf(strbuff, "3. . ."); break;
 7144              		.loc 15 45 13 is_stmt 1 view .LVU1725
  45:OLED.cpp      ****             case 4: sprintf(strbuff, "3. . ."); break;
 7145              		.loc 15 45 21 view .LVU1726
  45:OLED.cpp      ****             case 4: sprintf(strbuff, "3. . ."); break;
 7146              		.loc 15 45 28 is_stmt 0 view .LVU1727
 7147 02b6 154B     		ldr	r3, .L430+48
 7148 02b8 1CE7     		b	.L428
 7149              	.L404:
  44:OLED.cpp      ****             case 3: sprintf(strbuff, "2. . ."); break;
 7150              		.loc 15 44 13 is_stmt 1 view .LVU1728
  44:OLED.cpp      ****             case 3: sprintf(strbuff, "2. . ."); break;
 7151              		.loc 15 44 21 view .LVU1729
  44:OLED.cpp      ****             case 3: sprintf(strbuff, "2. . ."); break;
 7152              		.loc 15 44 28 is_stmt 0 view .LVU1730
 7153 02ba 154B     		ldr	r3, .L430+52
 7154 02bc 1AE7     		b	.L428
 7155              	.L406:
 7156              	.LVL557:
  42:OLED.cpp      ****             case 1: sprintf(strbuff, "Daisy. . ."); break;
 7157              		.loc 15 42 13 is_stmt 1 view .LVU1731
  42:OLED.cpp      ****             case 1: sprintf(strbuff, "Daisy. . ."); break;
 7158              		.loc 15 42 21 view .LVU1732
  42:OLED.cpp      ****             case 1: sprintf(strbuff, "Daisy. . ."); break;
 7159              		.loc 15 42 28 is_stmt 0 view .LVU1733
 7160 02be 154B     		ldr	r3, .L430+56
 7161 02c0 1AAC     		add	r4, sp, #104
 7162 02c2 0FCB     		ldm	r3, {r0, r1, r2, r3}
 7163 02c4 07C4     		stmia	r4!, {r0, r1, r2}
ARM GAS  /var/folders/hl/qgbwny5j0fd895c2c41bk3tw0000gp/T//ccFqANMK.s 			page 192


 7164 02c6 2370     		strb	r3, [r4]
  42:OLED.cpp      ****             case 1: sprintf(strbuff, "Daisy. . ."); break;
 7165              		.loc 15 42 55 is_stmt 1 view .LVU1734
 7166 02c8 1CE7     		b	.L400
 7167              	.LVL558:
 7168              	.L405:
  43:OLED.cpp      ****             case 2: sprintf(strbuff, "1. . ."); break;
 7169              		.loc 15 43 13 view .LVU1735
  43:OLED.cpp      ****             case 2: sprintf(strbuff, "1. . ."); break;
 7170              		.loc 15 43 21 view .LVU1736
  43:OLED.cpp      ****             case 2: sprintf(strbuff, "1. . ."); break;
 7171              		.loc 15 43 28 is_stmt 0 view .LVU1737
 7172 02ca 134A     		ldr	r2, .L430+60
 7173 02cc 1AAB     		add	r3, sp, #104
 7174 02ce 07CA     		ldm	r2, {r0, r1, r2}
 7175 02d0 03C3     		stmia	r3!, {r0, r1}
 7176 02d2 23F8022B 		strh	r2, [r3], #2	@ movhi
 7177 02d6 120C     		lsrs	r2, r2, #16
 7178 02d8 1A70     		strb	r2, [r3]
  43:OLED.cpp      ****             case 2: sprintf(strbuff, "1. . ."); break;
 7179              		.loc 15 43 53 is_stmt 1 view .LVU1738
 7180 02da 13E7     		b	.L400
 7181              	.L431:
 7182              		.align	2
 7183              	.L430:
 7184 02dc 00000000 		.word	.LANCHOR0
 7185 02e0 00000000 		.word	_ZN5daisy8patch_sm12DaisyPatchSM2B7E
 7186 02e4 00000000 		.word	_ZN5daisy8patch_sm12DaisyPatchSM2A8E
 7187 02e8 00000000 		.word	_ZN5daisy8patch_sm12DaisyPatchSM2D8E
 7188 02ec 00000000 		.word	0
 7189 02f0 00000000 		.word	.LANCHOR1
 7190 02f4 2C000000 		.word	.LC9
 7191 02f8 CDCCCCCC 		.word	-858993459
 7192 02fc 14000000 		.word	.LANCHOR2+20
 7193 0300 00000000 		.word	Font_11x18
 7194 0304 10000000 		.word	.LANCHOR2+16
 7195 0308 08000000 		.word	.LANCHOR2+8
 7196 030c 24000000 		.word	.LC8
 7197 0310 1C000000 		.word	.LC7
 7198 0314 00000000 		.word	.LC5
 7199 0318 10000000 		.word	.LC6
 7200 031c 00000000 		.word	.LANCHOR2
 7201              	.LBE1713:
 7202              		.cfi_endproc
 7203              	.LFE2558:
 7205              		.section	.text.startup._GLOBAL__sub_I_hw,"ax",%progbits
 7206              		.align	1
 7207              		.p2align 2,,3
 7208              		.syntax unified
 7209              		.thumb
 7210              		.thumb_func
 7211              		.fpu fpv5-d16
 7213              	_GLOBAL__sub_I_hw:
 7214              	.LFB2620:
  64:OLED.cpp      **** }
 7215              		.loc 15 64 1 view -0
 7216              		.cfi_startproc
ARM GAS  /var/folders/hl/qgbwny5j0fd895c2c41bk3tw0000gp/T//ccFqANMK.s 			page 193


 7217              		@ args = 0, pretend = 0, frame = 0
 7218              		@ frame_needed = 0, uses_anonymous_args = 0
 7219              	.LBB1757:
 7220              	.LBI1757:
 7221              		.loc 15 64 1 view .LVU1740
 7222              	.LVL559:
 7223              	.LBB1758:
 7224              	.LBB1759:
 7225              	.LBI1759:
  64:../../libDaisy/src/daisy_patch_sm.h ****         ~DaisyPatchSM() {}
 7226              		.loc 3 64 9 view .LVU1741
 7227              	.LBB1760:
 7228              	.LBB1761:
 7229              	.LBI1761:
  77:../../libDaisy/src/sys/system.h ****     ~System() {}
 7230              		.loc 9 77 5 view .LVU1742
  77:../../libDaisy/src/sys/system.h ****     ~System() {}
 7231              		.loc 9 77 5 is_stmt 0 view .LVU1743
 7232              	.LBE1761:
 7233              	.LBB1762:
 7234              	.LBI1762:
 7235              		.file 17 "../../libDaisy/src/per/qspi.h"
   1:../../libDaisy/src/per/qspi.h **** #ifndef DSY_QSPI
   2:../../libDaisy/src/per/qspi.h **** #define DSY_QSPI /**< Macro */
   3:../../libDaisy/src/per/qspi.h **** 
   4:../../libDaisy/src/per/qspi.h **** #ifndef UNIT_TEST // for unit tests, a dummy implementation
   5:../../libDaisy/src/per/qspi.h **** 
   6:../../libDaisy/src/per/qspi.h **** #include <cstdint>
   7:../../libDaisy/src/per/qspi.h **** #include "daisy_core.h" // Added for dsy_gpio_pin typedef
   8:../../libDaisy/src/per/qspi.h **** 
   9:../../libDaisy/src/per/qspi.h **** #define DSY_QSPI_TEXT       \
  10:../../libDaisy/src/per/qspi.h ****     __attribute__((section( \
  11:../../libDaisy/src/per/qspi.h ****         ".qspiflash_text"))) /**< used for reading memory in memory_mapped mode. */
  12:../../libDaisy/src/per/qspi.h **** #define DSY_QSPI_DATA       \
  13:../../libDaisy/src/per/qspi.h ****     __attribute__((section( \
  14:../../libDaisy/src/per/qspi.h ****         ".qspiflash_data"))) /**< used for reading memory in memory_mapped mode. */
  15:../../libDaisy/src/per/qspi.h **** #define DSY_QSPI_BSS        \
  16:../../libDaisy/src/per/qspi.h ****     __attribute__((section( \
  17:../../libDaisy/src/per/qspi.h ****         ".qspiflash_bss"))) /**< used for reading memory in memory_mapped mode. */
  18:../../libDaisy/src/per/qspi.h **** 
  19:../../libDaisy/src/per/qspi.h **** namespace daisy
  20:../../libDaisy/src/per/qspi.h **** {
  21:../../libDaisy/src/per/qspi.h **** /** @addtogroup serial
  22:../../libDaisy/src/per/qspi.h **** @{
  23:../../libDaisy/src/per/qspi.h **** */
  24:../../libDaisy/src/per/qspi.h **** 
  25:../../libDaisy/src/per/qspi.h **** /** 
  26:../../libDaisy/src/per/qspi.h ****  Driver for QSPI peripheral to interface with external flash memory. \n 
  27:../../libDaisy/src/per/qspi.h ****     Currently supported QSPI Devices: \n 
  28:../../libDaisy/src/per/qspi.h ****     * IS25LP080D
  29:../../libDaisy/src/per/qspi.h **** */
  30:../../libDaisy/src/per/qspi.h **** class QSPIHandle
  31:../../libDaisy/src/per/qspi.h **** {
  32:../../libDaisy/src/per/qspi.h ****   public:
  33:../../libDaisy/src/per/qspi.h ****     enum Result
  34:../../libDaisy/src/per/qspi.h ****     {
  35:../../libDaisy/src/per/qspi.h ****         OK = 0,
ARM GAS  /var/folders/hl/qgbwny5j0fd895c2c41bk3tw0000gp/T//ccFqANMK.s 			page 194


  36:../../libDaisy/src/per/qspi.h ****         ERR
  37:../../libDaisy/src/per/qspi.h ****     };
  38:../../libDaisy/src/per/qspi.h **** 
  39:../../libDaisy/src/per/qspi.h ****     /** Indicates the current status of the module. 
  40:../../libDaisy/src/per/qspi.h ****          *  Warnings are indicated by a leading W.
  41:../../libDaisy/src/per/qspi.h ****          *  Errors are indicated by a leading E and cause an immediate exit.
  42:../../libDaisy/src/per/qspi.h ****          * 
  43:../../libDaisy/src/per/qspi.h ****          *  \param GOOD - No errors have been reported.
  44:../../libDaisy/src/per/qspi.h ****          *  \param E_HAL_ERROR - HAL code did not return HAL_OK.
  45:../../libDaisy/src/per/qspi.h ****          *  \param E_SWITCHING_MODES - An error was encountered while switching QSPI peripheral mod
  46:../../libDaisy/src/per/qspi.h ****          *  \param E_INVALID_MODE - QSPI should not be written to while the program is executing fr
  47:../../libDaisy/src/per/qspi.h ****          */
  48:../../libDaisy/src/per/qspi.h ****     enum Status
  49:../../libDaisy/src/per/qspi.h ****     {
  50:../../libDaisy/src/per/qspi.h ****         GOOD = 0,
  51:../../libDaisy/src/per/qspi.h ****         E_HAL_ERROR,
  52:../../libDaisy/src/per/qspi.h ****         E_SWITCHING_MODES,
  53:../../libDaisy/src/per/qspi.h ****         E_INVALID_MODE,
  54:../../libDaisy/src/per/qspi.h ****     };
  55:../../libDaisy/src/per/qspi.h **** 
  56:../../libDaisy/src/per/qspi.h ****     /** Configuration structure for interfacing with QSPI Driver */
  57:../../libDaisy/src/per/qspi.h ****     struct Config
  58:../../libDaisy/src/per/qspi.h ****     {
  59:../../libDaisy/src/per/qspi.h ****         /** Flash Devices supported. (Both of these are more-or-less the same, just different sizes
  60:../../libDaisy/src/per/qspi.h ****         enum Device
  61:../../libDaisy/src/per/qspi.h ****         {
  62:../../libDaisy/src/per/qspi.h ****             IS25LP080D,  /**< & */
  63:../../libDaisy/src/per/qspi.h ****             IS25LP064A,  /**< & */
  64:../../libDaisy/src/per/qspi.h ****             DEVICE_LAST, /**< & */
  65:../../libDaisy/src/per/qspi.h ****         };
  66:../../libDaisy/src/per/qspi.h **** 
  67:../../libDaisy/src/per/qspi.h ****         /** 
  68:../../libDaisy/src/per/qspi.h ****         Modes of operation.
  69:../../libDaisy/src/per/qspi.h ****         Memory Mapped mode: QSPI configured so that the QSPI can be
  70:../../libDaisy/src/per/qspi.h ****         read from starting address 0x90000000. Writing is not
  71:../../libDaisy/src/per/qspi.h ****         possible in this mode. \n 
  72:../../libDaisy/src/per/qspi.h ****         Indirect Polling mode: Device driver enabled. 
  73:../../libDaisy/src/per/qspi.h ****         */
  74:../../libDaisy/src/per/qspi.h ****         enum Mode
  75:../../libDaisy/src/per/qspi.h ****         {
  76:../../libDaisy/src/per/qspi.h ****             MEMORY_MAPPED,    /**< & */
  77:../../libDaisy/src/per/qspi.h ****             INDIRECT_POLLING, /**< & */
  78:../../libDaisy/src/per/qspi.h ****             MODE_LAST,
  79:../../libDaisy/src/per/qspi.h ****         };
  80:../../libDaisy/src/per/qspi.h **** 
  81:../../libDaisy/src/per/qspi.h ****         //SCK,  CE# (active low)
  82:../../libDaisy/src/per/qspi.h ****         struct
  83:../../libDaisy/src/per/qspi.h ****         {
  84:../../libDaisy/src/per/qspi.h ****             dsy_gpio_pin io0; /**< & */
  85:../../libDaisy/src/per/qspi.h ****             dsy_gpio_pin io1; /**< & */
  86:../../libDaisy/src/per/qspi.h ****             dsy_gpio_pin io2; /**< & */
  87:../../libDaisy/src/per/qspi.h ****             dsy_gpio_pin io3; /**< & */
  88:../../libDaisy/src/per/qspi.h ****             dsy_gpio_pin clk; /**< & */
  89:../../libDaisy/src/per/qspi.h ****             dsy_gpio_pin ncs; /**< & */
  90:../../libDaisy/src/per/qspi.h ****         } pin_config;
  91:../../libDaisy/src/per/qspi.h **** 
  92:../../libDaisy/src/per/qspi.h ****         Device device;
ARM GAS  /var/folders/hl/qgbwny5j0fd895c2c41bk3tw0000gp/T//ccFqANMK.s 			page 195


  93:../../libDaisy/src/per/qspi.h ****         Mode   mode;
  94:../../libDaisy/src/per/qspi.h ****     };
  95:../../libDaisy/src/per/qspi.h **** 
  96:../../libDaisy/src/per/qspi.h ****     /** 
  97:../../libDaisy/src/per/qspi.h ****         Initializes QSPI peripheral, and Resets, and prepares memory for access.
  98:../../libDaisy/src/per/qspi.h ****         \param config should be populated with the mode, device and pin_config before calling this 
  99:../../libDaisy/src/per/qspi.h ****         \return Result::OK or Result::ERR
 100:../../libDaisy/src/per/qspi.h ****         */
 101:../../libDaisy/src/per/qspi.h ****     Result Init(const Config& config);
 102:../../libDaisy/src/per/qspi.h **** 
 103:../../libDaisy/src/per/qspi.h ****     /** Returns the current config. */
 104:../../libDaisy/src/per/qspi.h ****     const Config& GetConfig() const;
 105:../../libDaisy/src/per/qspi.h **** 
 106:../../libDaisy/src/per/qspi.h ****     // Couldn't this just be called before anything else in init? That
 107:../../libDaisy/src/per/qspi.h ****     // would make manually calling it unnecessary.
 108:../../libDaisy/src/per/qspi.h ****     /** 
 109:../../libDaisy/src/per/qspi.h ****         Deinitializes the peripheral
 110:../../libDaisy/src/per/qspi.h ****         This should be called before reinitializing QSPI in a different mode.
 111:../../libDaisy/src/per/qspi.h ****         \return Result::OK or Result::ERR
 112:../../libDaisy/src/per/qspi.h ****         */
 113:../../libDaisy/src/per/qspi.h ****     Result DeInit();
 114:../../libDaisy/src/per/qspi.h **** 
 115:../../libDaisy/src/per/qspi.h ****     /** 
 116:../../libDaisy/src/per/qspi.h ****         Writes a single page to to the specified address on the QSPI chip.
 117:../../libDaisy/src/per/qspi.h ****         For IS25LP*, page size is 256 bytes.
 118:../../libDaisy/src/per/qspi.h ****         \param address Address to write to
 119:../../libDaisy/src/per/qspi.h ****         \param size Buffer size
 120:../../libDaisy/src/per/qspi.h ****         \param buffer Buffer to write
 121:../../libDaisy/src/per/qspi.h ****         \return Result::OK or Result::ERR
 122:../../libDaisy/src/per/qspi.h ****         */
 123:../../libDaisy/src/per/qspi.h ****     Result WritePage(uint32_t address, uint32_t size, uint8_t* buffer);
 124:../../libDaisy/src/per/qspi.h **** 
 125:../../libDaisy/src/per/qspi.h ****     /** 
 126:../../libDaisy/src/per/qspi.h ****         Writes data in buffer to to the QSPI. Starting at address to address+size 
 127:../../libDaisy/src/per/qspi.h ****         \param address Address to write to
 128:../../libDaisy/src/per/qspi.h ****         \param size Buffer size
 129:../../libDaisy/src/per/qspi.h ****         \param buffer Buffer to write
 130:../../libDaisy/src/per/qspi.h ****         \return Result::OK or Result::ERR
 131:../../libDaisy/src/per/qspi.h ****         */
 132:../../libDaisy/src/per/qspi.h ****     Result Write(uint32_t address, uint32_t size, uint8_t* buffer);
 133:../../libDaisy/src/per/qspi.h **** 
 134:../../libDaisy/src/per/qspi.h ****     /** 
 135:../../libDaisy/src/per/qspi.h ****         Erases the area specified on the chip.
 136:../../libDaisy/src/per/qspi.h ****         Erasures will happen by 4K, 32K or 64K increments.
 137:../../libDaisy/src/per/qspi.h ****         Smallest erase possible is 4kB at a time. (on IS25LP*)
 138:../../libDaisy/src/per/qspi.h ****         \param start_addr Address to begin erasing from
 139:../../libDaisy/src/per/qspi.h ****         \param end_addr  Address to stop erasing at
 140:../../libDaisy/src/per/qspi.h ****         \return Result::OK or Result::ERR
 141:../../libDaisy/src/per/qspi.h ****         */
 142:../../libDaisy/src/per/qspi.h ****     Result Erase(uint32_t start_addr, uint32_t end_addr);
 143:../../libDaisy/src/per/qspi.h **** 
 144:../../libDaisy/src/per/qspi.h ****     /**  
 145:../../libDaisy/src/per/qspi.h ****          Erases a single sector of the chip.  
 146:../../libDaisy/src/per/qspi.h ****         TODO: Document the size of this function. 
 147:../../libDaisy/src/per/qspi.h ****         \param address Address of sector to erase
 148:../../libDaisy/src/per/qspi.h ****         \return Result::OK or Result::ERR
 149:../../libDaisy/src/per/qspi.h ****         */
ARM GAS  /var/folders/hl/qgbwny5j0fd895c2c41bk3tw0000gp/T//ccFqANMK.s 			page 196


 150:../../libDaisy/src/per/qspi.h ****     Result EraseSector(uint32_t address);
 151:../../libDaisy/src/per/qspi.h **** 
 152:../../libDaisy/src/per/qspi.h ****     /** Returns the current class status. Useful for debugging.
 153:../../libDaisy/src/per/qspi.h ****      *  \returns Status
 154:../../libDaisy/src/per/qspi.h ****      */
 155:../../libDaisy/src/per/qspi.h ****     Status GetStatus();
 156:../../libDaisy/src/per/qspi.h **** 
 157:../../libDaisy/src/per/qspi.h ****     /** Returns a pointer to the actual memory used 
 158:../../libDaisy/src/per/qspi.h ****      *  The memory at this address is read-only
 159:../../libDaisy/src/per/qspi.h ****      *  to write to it use the Write function.
 160:../../libDaisy/src/per/qspi.h ****      * 
 161:../../libDaisy/src/per/qspi.h ****      *  \param offset returns the pointer starting this 
 162:../../libDaisy/src/per/qspi.h ****      *                many bytes into the memory
 163:../../libDaisy/src/per/qspi.h ****     */
 164:../../libDaisy/src/per/qspi.h ****     void* GetData(uint32_t offset = 0);
 165:../../libDaisy/src/per/qspi.h **** 
 166:../../libDaisy/src/per/qspi.h ****     QSPIHandle() : pimpl_(nullptr) {}
 7236              		.loc 17 166 5 is_stmt 1 view .LVU1744
 7237              	.LBE1762:
 7238              	.LBE1760:
 7239              	.LBE1759:
 7240              	.LBE1758:
 7241              	.LBE1757:
 7242              		.loc 15 64 1 is_stmt 0 view .LVU1745
 7243 0000 10B5     		push	{r4, lr}
 7244              		.cfi_def_cfa_offset 8
 7245              		.cfi_offset 4, -8
 7246              		.cfi_offset 14, -4
 7247              	.LBB1813:
 7248              	.LBB1810:
 7249              	.LBB1788:
 7250              	.LBB1785:
 7251              	.LBB1765:
 7252              	.LBB1763:
 7253              	.LBB1764:
 7254              		.loc 17 166 34 view .LVU1746
 7255 0002 0C48     		ldr	r0, .L434
 7256 0004 0024     		movs	r4, #0
 7257              	.LBE1764:
 7258              	.LBE1763:
 7259              	.LBE1765:
 7260              	.LBE1785:
 7261              	.LBE1788:
  11:OLED.cpp      **** MyOledDisplay display;
 7262              		.loc 15 11 18 view .LVU1747
 7263 0006 0C4A     		ldr	r2, .L434+4
 7264 0008 0C49     		ldr	r1, .L434+8
 7265              	.LBB1789:
 7266              	.LBB1786:
 7267              	.LBB1766:
 7268              	.LBB1767:
 7269              	.LBB1768:
 7270              	.LBB1769:
 7271              	.LBB1770:
 7272              		.file 18 "../../libDaisy/src/per/i2c.h"
   1:../../libDaisy/src/per/i2c.h **** #pragma once
   2:../../libDaisy/src/per/i2c.h **** #include "daisy_core.h"
ARM GAS  /var/folders/hl/qgbwny5j0fd895c2c41bk3tw0000gp/T//ccFqANMK.s 			page 197


   3:../../libDaisy/src/per/i2c.h **** 
   4:../../libDaisy/src/per/i2c.h **** namespace daisy
   5:../../libDaisy/src/per/i2c.h **** {
   6:../../libDaisy/src/per/i2c.h **** /** A handle for interacting with an I2C peripheral. This is a dumb
   7:../../libDaisy/src/per/i2c.h ****  *  gateway that internally points to one of the four I2C peripherals
   8:../../libDaisy/src/per/i2c.h ****  *  after it was initialised. It can then be copied and passed around.
   9:../../libDaisy/src/per/i2c.h ****  *  Use an I2CHandle like this:
  10:../../libDaisy/src/per/i2c.h ****  *  
  11:../../libDaisy/src/per/i2c.h ****  *      // setup the configuration
  12:../../libDaisy/src/per/i2c.h ****  *      I2CHandle::Config i2c_conf;
  13:../../libDaisy/src/per/i2c.h ****  *      i2c_conf.periph = I2CHandle::Config::Peripheral::I2C_1;
  14:../../libDaisy/src/per/i2c.h ****  *      i2c_conf.speed  = I2CHandle::Config::Speed::I2C_400KHZ;
  15:../../libDaisy/src/per/i2c.h ****  *      i2c_conf.mode   = I2CHandle::Config::Mode::Master;
  16:../../libDaisy/src/per/i2c.h ****  *      i2c_conf.pin_config.scl  = {DSY_GPIOB, 8};
  17:../../libDaisy/src/per/i2c.h ****  *      i2c_conf.pin_config.sda  = {DSY_GPIOB, 9};
  18:../../libDaisy/src/per/i2c.h ****  *      // initialise the peripheral
  19:../../libDaisy/src/per/i2c.h ****  *      I2CHandle i2c;
  20:../../libDaisy/src/per/i2c.h ****  *      i2c.Init(i2c_conf);
  21:../../libDaisy/src/per/i2c.h ****  *      // now i2c points to the corresponding peripheral and can be used.
  22:../../libDaisy/src/per/i2c.h ****  *      i2c.TransmitBlocking( ... );
  23:../../libDaisy/src/per/i2c.h ****  */
  24:../../libDaisy/src/per/i2c.h **** class I2CHandle
  25:../../libDaisy/src/per/i2c.h **** {
  26:../../libDaisy/src/per/i2c.h ****   public:
  27:../../libDaisy/src/per/i2c.h ****     /** Contains settings for initialising an I2C interface. */
  28:../../libDaisy/src/per/i2c.h ****     struct Config
  29:../../libDaisy/src/per/i2c.h ****     {
  30:../../libDaisy/src/per/i2c.h ****         /** Specifies whether the interface will operate in master or slave mode. */
  31:../../libDaisy/src/per/i2c.h ****         enum class Mode
  32:../../libDaisy/src/per/i2c.h ****         {
  33:../../libDaisy/src/per/i2c.h ****             I2C_MASTER,
  34:../../libDaisy/src/per/i2c.h ****             I2C_SLAVE,
  35:../../libDaisy/src/per/i2c.h ****         };
  36:../../libDaisy/src/per/i2c.h **** 
  37:../../libDaisy/src/per/i2c.h ****         /** Specifices the internal peripheral to use (these are mapped to different pins on the ha
  38:../../libDaisy/src/per/i2c.h ****         enum class Peripheral
  39:../../libDaisy/src/per/i2c.h ****         {
  40:../../libDaisy/src/per/i2c.h ****             I2C_1 = 0, /**< & */
  41:../../libDaisy/src/per/i2c.h ****             I2C_2,     /**< & */
  42:../../libDaisy/src/per/i2c.h ****             I2C_3,     /**< & */
  43:../../libDaisy/src/per/i2c.h ****             I2C_4,     /**< & */
  44:../../libDaisy/src/per/i2c.h ****         };
  45:../../libDaisy/src/per/i2c.h **** 
  46:../../libDaisy/src/per/i2c.h ****         /** Rate at which the clock/data will be sent/received. The device being used will have max
  47:../../libDaisy/src/per/i2c.h ****          *  1MHZ Mode is currently 886kHz
  48:../../libDaisy/src/per/i2c.h ****          */
  49:../../libDaisy/src/per/i2c.h ****         enum class Speed
  50:../../libDaisy/src/per/i2c.h ****         {
  51:../../libDaisy/src/per/i2c.h ****             I2C_100KHZ, /**< & */
  52:../../libDaisy/src/per/i2c.h ****             I2C_400KHZ, /**< & */
  53:../../libDaisy/src/per/i2c.h ****             I2C_1MHZ,   /**< & */
  54:../../libDaisy/src/per/i2c.h ****         };
  55:../../libDaisy/src/per/i2c.h **** 
  56:../../libDaisy/src/per/i2c.h ****         Peripheral periph; /**< & */
  57:../../libDaisy/src/per/i2c.h ****         struct
  58:../../libDaisy/src/per/i2c.h ****         {
  59:../../libDaisy/src/per/i2c.h ****             dsy_gpio_pin scl; /**< & */
ARM GAS  /var/folders/hl/qgbwny5j0fd895c2c41bk3tw0000gp/T//ccFqANMK.s 			page 198


  60:../../libDaisy/src/per/i2c.h ****             dsy_gpio_pin sda; /**< & */
  61:../../libDaisy/src/per/i2c.h ****         } pin_config;         /**< & */
  62:../../libDaisy/src/per/i2c.h **** 
  63:../../libDaisy/src/per/i2c.h ****         Speed speed; /**< & */
  64:../../libDaisy/src/per/i2c.h ****         Mode  mode;  /**< & */
  65:../../libDaisy/src/per/i2c.h ****         // 0x10 is chosen as a default to avoid conflicts with reserved addresses
  66:../../libDaisy/src/per/i2c.h ****         uint8_t address = 0x10; /**< & */
  67:../../libDaisy/src/per/i2c.h ****     };
  68:../../libDaisy/src/per/i2c.h **** 
  69:../../libDaisy/src/per/i2c.h ****     /** Return values for I2C functions. */
  70:../../libDaisy/src/per/i2c.h ****     enum class Result
  71:../../libDaisy/src/per/i2c.h ****     {
  72:../../libDaisy/src/per/i2c.h ****         OK, /**< & */
  73:../../libDaisy/src/per/i2c.h ****         ERR /**< & */
  74:../../libDaisy/src/per/i2c.h ****     };
  75:../../libDaisy/src/per/i2c.h **** 
  76:../../libDaisy/src/per/i2c.h ****     enum class Direction
  77:../../libDaisy/src/per/i2c.h ****     {
  78:../../libDaisy/src/per/i2c.h ****         TRANSMIT, /**< & */
  79:../../libDaisy/src/per/i2c.h ****         RECEIVE,  /**< & */
  80:../../libDaisy/src/per/i2c.h ****     };
  81:../../libDaisy/src/per/i2c.h **** 
  82:../../libDaisy/src/per/i2c.h ****     I2CHandle() : pimpl_(nullptr) {}
 7273              		.loc 18 82 33 view .LVU1748
 7274 000a 0462     		str	r4, [r0, #32]
 7275              	.LBE1770:
 7276              	.LBE1769:
 7277              	.LBE1768:
 7278              	.LBE1767:
 7279              	.LBE1766:
 7280              	.LBB1773:
 7281              	.LBB1774:
 7282              	.LBB1775:
 7283              		.file 19 "../../libDaisy/src/per/dac.h"
   1:../../libDaisy/src/per/dac.h **** #pragma once
   2:../../libDaisy/src/per/dac.h **** #ifndef DSY_DAC_H
   3:../../libDaisy/src/per/dac.h **** #define DSY_DAC_H
   4:../../libDaisy/src/per/dac.h **** 
   5:../../libDaisy/src/per/dac.h **** #include "daisy_core.h"
   6:../../libDaisy/src/per/dac.h **** 
   7:../../libDaisy/src/per/dac.h **** namespace daisy
   8:../../libDaisy/src/per/dac.h **** {
   9:../../libDaisy/src/per/dac.h **** /** @brief DAC handle for Built-in DAC Peripheral 
  10:../../libDaisy/src/per/dac.h ****  *  @ingroup per_analog
  11:../../libDaisy/src/per/dac.h ****  ** 
  12:../../libDaisy/src/per/dac.h ****  ** For now only Normal Mode is supported,
  13:../../libDaisy/src/per/dac.h ****  ** Sample and hold mode provides reduced power consumption, but requires a bit more setup.
  14:../../libDaisy/src/per/dac.h ****  **
  15:../../libDaisy/src/per/dac.h ****  ** For now connecting the DAC through other internal peripherals is also not supported.
  16:../../libDaisy/src/per/dac.h ****  **
  17:../../libDaisy/src/per/dac.h ****  ** Since the DAC channels have dedicated pins we don't need to pass in a pin config like with
  18:../../libDaisy/src/per/dac.h ****  ** other modules. However, it is still important to not try to use the DAC pins for anything else.
  19:../../libDaisy/src/per/dac.h ****  ** DAC Channel 1 is on PA4, and DAC Channel 2 is on PA5
  20:../../libDaisy/src/per/dac.h ****  ***/
  21:../../libDaisy/src/per/dac.h **** class DacHandle
  22:../../libDaisy/src/per/dac.h **** {
  23:../../libDaisy/src/per/dac.h ****   public:
ARM GAS  /var/folders/hl/qgbwny5j0fd895c2c41bk3tw0000gp/T//ccFqANMK.s 			page 199


  24:../../libDaisy/src/per/dac.h ****     /** Return Values for the DacHandle class */
  25:../../libDaisy/src/per/dac.h ****     enum class Result
  26:../../libDaisy/src/per/dac.h ****     {
  27:../../libDaisy/src/per/dac.h ****         OK,
  28:../../libDaisy/src/per/dac.h ****         ERR,
  29:../../libDaisy/src/per/dac.h ****     };
  30:../../libDaisy/src/per/dac.h **** 
  31:../../libDaisy/src/per/dac.h ****     /** Selects which channel(s) will be configured for use. */
  32:../../libDaisy/src/per/dac.h ****     enum class Channel
  33:../../libDaisy/src/per/dac.h ****     {
  34:../../libDaisy/src/per/dac.h ****         ONE,
  35:../../libDaisy/src/per/dac.h ****         TWO,
  36:../../libDaisy/src/per/dac.h ****         BOTH,
  37:../../libDaisy/src/per/dac.h ****     };
  38:../../libDaisy/src/per/dac.h **** 
  39:../../libDaisy/src/per/dac.h ****     /** Sets the Mode for the DAC channels.
  40:../../libDaisy/src/per/dac.h ****      **
  41:../../libDaisy/src/per/dac.h ****      ** Polling mode uses the blocking mode to transmit a single value at a time.
  42:../../libDaisy/src/per/dac.h ****      **
  43:../../libDaisy/src/per/dac.h ****      ** DMA mode uses a buffer, and periodically transmits it triggering a 
  44:../../libDaisy/src/per/dac.h ****      ** callback to fill the buffer when it is ready for more samples.
  45:../../libDaisy/src/per/dac.h ****      ***/
  46:../../libDaisy/src/per/dac.h ****     enum class Mode
  47:../../libDaisy/src/per/dac.h ****     {
  48:../../libDaisy/src/per/dac.h ****         POLLING,
  49:../../libDaisy/src/per/dac.h ****         DMA,
  50:../../libDaisy/src/per/dac.h ****     };
  51:../../libDaisy/src/per/dac.h **** 
  52:../../libDaisy/src/per/dac.h ****     /** Sets the number of bits per sample transmitted out of the DAC.
  53:../../libDaisy/src/per/dac.h ****      ** The output range will be: 0V - VDDA
  54:../../libDaisy/src/per/dac.h ****      ** The resolution will be roughly: bitdepth / (VDDA - 0V) 
  55:../../libDaisy/src/per/dac.h ****      ***/
  56:../../libDaisy/src/per/dac.h ****     enum class BitDepth
  57:../../libDaisy/src/per/dac.h ****     {
  58:../../libDaisy/src/per/dac.h ****         BITS_8,
  59:../../libDaisy/src/per/dac.h ****         BITS_12
  60:../../libDaisy/src/per/dac.h ****     };
  61:../../libDaisy/src/per/dac.h **** 
  62:../../libDaisy/src/per/dac.h ****     /** Sets whether the DAC output is buffered for higher drive ability. */
  63:../../libDaisy/src/per/dac.h ****     enum class BufferState
  64:../../libDaisy/src/per/dac.h ****     {
  65:../../libDaisy/src/per/dac.h ****         ENABLED,
  66:../../libDaisy/src/per/dac.h ****         DISABLED,
  67:../../libDaisy/src/per/dac.h ****     };
  68:../../libDaisy/src/per/dac.h **** 
  69:../../libDaisy/src/per/dac.h ****     /** Configuration structure for initializing the DAC structure. */
  70:../../libDaisy/src/per/dac.h ****     struct Config
  71:../../libDaisy/src/per/dac.h ****     {
  72:../../libDaisy/src/per/dac.h ****         /** Target Samplerate in Hz used to configure the internal 
  73:../../libDaisy/src/per/dac.h ****          ** timebase for DMA mode. Does nothing in POLLING mode.
  74:../../libDaisy/src/per/dac.h ****          ** If the value is 0 at Init time this will default to 48000Hz 
  75:../../libDaisy/src/per/dac.h ****          ** otherwise the driver will attempt meet the target.*/
  76:../../libDaisy/src/per/dac.h ****         uint32_t target_samplerate;
  77:../../libDaisy/src/per/dac.h **** 
  78:../../libDaisy/src/per/dac.h ****         Channel     chn;
  79:../../libDaisy/src/per/dac.h ****         Mode        mode;
  80:../../libDaisy/src/per/dac.h ****         BitDepth    bitdepth;
ARM GAS  /var/folders/hl/qgbwny5j0fd895c2c41bk3tw0000gp/T//ccFqANMK.s 			page 200


  81:../../libDaisy/src/per/dac.h ****         BufferState buff_state;
  82:../../libDaisy/src/per/dac.h ****     };
  83:../../libDaisy/src/per/dac.h **** 
  84:../../libDaisy/src/per/dac.h ****     DacHandle() : pimpl_(nullptr) {}
 7284              		.loc 19 84 33 view .LVU1749
 7285 000c 8462     		str	r4, [r0, #40]
 7286              	.LBE1775:
 7287              	.LBE1774:
 7288              	.LBE1773:
 7289              	.LBB1776:
 7290              	.LBB1777:
 7291              	.LBB1778:
  95:../../libDaisy/src/hid/audio.h ****     ~AudioHandle() {}
 7292              		.loc 8 95 35 view .LVU1750
 7293 000e C0E90344 		strd	r4, r4, [r0, #12]
 7294              	.LVL560:
  95:../../libDaisy/src/hid/audio.h ****     ~AudioHandle() {}
 7295              		.loc 8 95 35 view .LVU1751
 7296              	.LBE1778:
 7297              	.LBE1777:
 7298              	.LBE1776:
 7299              	.LBB1779:
 7300              	.LBI1779:
  92:../../libDaisy/src/per/adc.h ****     ~AdcHandle() {}
 7301              		.loc 7 92 5 is_stmt 1 view .LVU1752
  92:../../libDaisy/src/per/adc.h ****     ~AdcHandle() {}
 7302              		.loc 7 92 5 is_stmt 0 view .LVU1753
 7303              	.LBE1779:
 7304              	.LBB1780:
 7305              	.LBI1780:
  40:../../libDaisy/src/hid/usb.h **** 
 7306              		.loc 6 40 5 is_stmt 1 view .LVU1754
  40:../../libDaisy/src/hid/usb.h **** 
 7307              		.loc 6 40 5 is_stmt 0 view .LVU1755
 7308              	.LBE1780:
 7309              	.LBB1781:
 7310              	.LBI1766:
  28:../../libDaisy/src/dev/codec_pcm3060.h ****     ~Pcm3060() {}
 7311              		.loc 5 28 5 is_stmt 1 view .LVU1756
 7312              	.LBB1772:
 7313              	.LBB1771:
 7314              	.LBI1768:
 7315              		.loc 18 82 5 view .LVU1757
 7316              		.loc 18 82 5 is_stmt 0 view .LVU1758
 7317              	.LBE1771:
 7318              	.LBE1772:
 7319              	.LBE1781:
 7320              	.LBB1782:
 7321              	.LBI1773:
 7322              		.loc 19 84 5 is_stmt 1 view .LVU1759
 7323              		.loc 19 84 5 is_stmt 0 view .LVU1760
 7324              	.LBE1782:
 7325              	.LBE1786:
 7326              	.LBE1789:
 7327              	.LBE1810:
 7328              	.LBE1813:
  64:../../libDaisy/src/daisy_patch_sm.h ****         ~DaisyPatchSM() {}
ARM GAS  /var/folders/hl/qgbwny5j0fd895c2c41bk3tw0000gp/T//ccFqANMK.s 			page 201


 7329              		.loc 3 64 24 is_stmt 1 view .LVU1761
 7330              	.LBB1814:
 7331              	.LBB1811:
 7332              	.LBB1790:
 7333              	.LBB1787:
 7334              	.LBB1783:
 7335              	.LBI1783:
  20:../../libDaisy/src/hid/gatein.h ****     /** GateIn~
 7336              		.loc 4 20 5 view .LVU1762
  20:../../libDaisy/src/hid/gatein.h ****     /** GateIn~
 7337              		.loc 4 20 5 is_stmt 0 view .LVU1763
 7338              	.LBE1783:
 7339              	.LBB1784:
 7340              	.LBI1784:
  20:../../libDaisy/src/hid/gatein.h ****     /** GateIn~
 7341              		.loc 4 20 5 is_stmt 1 view .LVU1764
  20:../../libDaisy/src/hid/gatein.h ****     /** GateIn~
 7342              		.loc 4 20 5 is_stmt 0 view .LVU1765
 7343              	.LBE1784:
 7344              	.LBE1787:
 7345              	.LBE1790:
  11:OLED.cpp      **** MyOledDisplay display;
 7346              		.loc 15 11 18 view .LVU1766
 7347 0012 FFF7FEFF 		bl	__aeabi_atexit
 7348              	.LVL561:
 7349              	.LBB1791:
 7350              	.LBI1791:
  17:../../libDaisy/src/hid/disp/oled_display.h ****     virtual ~OledDisplay() {}
 7351              		.loc 10 17 5 is_stmt 1 view .LVU1767
 7352              	.LBB1792:
 7353              	.LBB1793:
 7354              	.LBB1794:
 7355              	.LBI1794:
 218:../../libDaisy/src/hid/disp/display.h ****     virtual ~OneBitGraphicsDisplayImpl() {}
 7356              		.loc 12 218 5 view .LVU1768
 7357              	.LBB1795:
 7358              	.LBI1795:
  22:../../libDaisy/src/hid/disp/display.h ****     virtual ~OneBitGraphicsDisplay() {}
 7359              		.loc 12 22 5 view .LVU1769
  22:../../libDaisy/src/hid/disp/display.h ****     virtual ~OneBitGraphicsDisplay() {}
 7360              		.loc 12 22 5 is_stmt 0 view .LVU1770
 7361              	.LBE1795:
 7362              	.LBE1794:
  17:../../libDaisy/src/hid/disp/oled_display.h ****     virtual ~OledDisplay() {}
 7363              		.loc 10 17 19 view .LVU1771
 7364 0016 0A48     		ldr	r0, .L434+12
 7365 0018 0A4B     		ldr	r3, .L434+16
 7366              	.LBE1793:
 7367              	.LBE1792:
 7368              	.LBE1791:
  12:OLED.cpp      **** Encoder myEnc;
 7369              		.loc 15 12 15 view .LVU1772
 7370 001a 0B49     		ldr	r1, .L434+20
 7371 001c 064A     		ldr	r2, .L434+4
 7372              	.LBB1806:
 7373              	.LBB1805:
 7374              	.LBB1804:
ARM GAS  /var/folders/hl/qgbwny5j0fd895c2c41bk3tw0000gp/T//ccFqANMK.s 			page 202


 7375              	.LBB1796:
 7376              	.LBB1797:
 7377              	.LBB1798:
 7378              	.LBB1799:
 7379              	.LBB1800:
  94:../../libDaisy/src/per/spi.h ****         }
  95:../../libDaisy/src/per/spi.h **** 
  96:../../libDaisy/src/per/spi.h ****         Peripheral    periph;
  97:../../libDaisy/src/per/spi.h ****         Mode          mode;
  98:../../libDaisy/src/per/spi.h ****         Direction     direction;
  99:../../libDaisy/src/per/spi.h ****         unsigned long datasize;
 100:../../libDaisy/src/per/spi.h ****         ClockPolarity clock_polarity;
 101:../../libDaisy/src/per/spi.h ****         ClockPhase    clock_phase;
 102:../../libDaisy/src/per/spi.h ****         NSS           nss;
 103:../../libDaisy/src/per/spi.h ****         BaudPrescaler baud_prescaler;
 104:../../libDaisy/src/per/spi.h ****     };
 105:../../libDaisy/src/per/spi.h **** 
 106:../../libDaisy/src/per/spi.h ****     SpiHandle() : pimpl_(nullptr) {}
 7380              		.loc 16 106 33 view .LVU1773
 7381 001e 8460     		str	r4, [r0, #8]
 7382              	.LBE1800:
 7383              	.LBE1799:
 7384              	.LBE1798:
 7385              	.LBE1797:
 7386              	.LBE1796:
  17:../../libDaisy/src/hid/disp/oled_display.h ****     virtual ~OledDisplay() {}
 7387              		.loc 10 17 19 view .LVU1774
 7388 0020 0360     		str	r3, [r0]
 7389              	.LVL562:
 7390              	.LBB1803:
 7391              	.LBI1796:
 145:../../libDaisy/src/dev/oled_ssd130x.h **** {
 7392              		.loc 11 145 7 is_stmt 1 view .LVU1775
 7393              	.LBB1802:
 7394              	.LBI1797:
  65:../../libDaisy/src/dev/oled_ssd130x.h **** {
 7395              		.loc 11 65 7 view .LVU1776
 7396              	.LBB1801:
 7397              	.LBI1798:
 7398              		.loc 16 106 5 view .LVU1777
 7399              		.loc 16 106 5 is_stmt 0 view .LVU1778
 7400              	.LBE1801:
 7401              	.LBE1802:
 7402              	.LBE1803:
 7403              	.LBE1804:
 7404              	.LBE1805:
 7405              	.LBE1806:
  12:OLED.cpp      **** Encoder myEnc;
 7406              		.loc 15 12 15 view .LVU1779
 7407 0022 FFF7FEFF 		bl	__aeabi_atexit
 7408              	.LVL563:
 7409              	.LBB1807:
 7410              	.LBI1807:
  20:../../libDaisy/src/hid/encoder.h ****     ~Encoder() {}
 7411              		.loc 1 20 5 is_stmt 1 view .LVU1780
 7412              	.LBB1808:
 7413              	.LBB1809:
ARM GAS  /var/folders/hl/qgbwny5j0fd895c2c41bk3tw0000gp/T//ccFqANMK.s 			page 203


 7414              	.LBI1809:
  41:../../libDaisy/src/hid/switch.h ****     ~Switch() {}
 7415              		.loc 2 41 5 view .LVU1781
  41:../../libDaisy/src/hid/switch.h ****     ~Switch() {}
 7416              		.loc 2 41 5 is_stmt 0 view .LVU1782
 7417              	.LBE1809:
 7418              	.LBE1808:
 7419              	.LBE1807:
  13:OLED.cpp      **** 
 7420              		.loc 15 13 9 view .LVU1783
 7421 0026 044A     		ldr	r2, .L434+4
 7422 0028 0849     		ldr	r1, .L434+24
 7423 002a 0948     		ldr	r0, .L434+28
 7424              	.LBE1811:
 7425              	.LBE1814:
 7426              		.loc 15 64 1 view .LVU1784
 7427 002c BDE81040 		pop	{r4, lr}
 7428              		.cfi_restore 14
 7429              		.cfi_restore 4
 7430              		.cfi_def_cfa_offset 0
 7431              	.LBB1815:
 7432              	.LBB1812:
  13:OLED.cpp      **** 
 7433              		.loc 15 13 9 view .LVU1785
 7434 0030 FFF7FEBF 		b	__aeabi_atexit
 7435              	.LVL564:
 7436              	.L435:
 7437              		.align	2
 7438              	.L434:
 7439 0034 00000000 		.word	.LANCHOR0
 7440 0038 00000000 		.word	__dso_handle
 7441 003c 00000000 		.word	_ZN5daisy8patch_sm12DaisyPatchSMD1Ev
 7442 0040 00000000 		.word	.LANCHOR2
 7443 0044 08000000 		.word	_ZTVN5daisy11OledDisplayINS_13SSD130xDriverILj128ELj64ENS_24SSD130x4WireSpiTransportEEEEE+8
 7444 0048 00000000 		.word	_ZN5daisy11OledDisplayINS_13SSD130xDriverILj128ELj64ENS_24SSD130x4WireSpiTransportEEEED1Ev
 7445 004c 00000000 		.word	_ZN5daisy7EncoderD1Ev
 7446 0050 00000000 		.word	.LANCHOR1
 7447              	.LBE1812:
 7448              	.LBE1815:
 7449              		.cfi_endproc
 7450              	.LFE2620:
 7452              		.section	.init_array,"aw",%init_array
 7453              		.align	2
 7454 0000 00000000 		.word	_GLOBAL__sub_I_hw(target1)
 7455              		.weak	_ZTVN5daisy11OledDisplayINS_13SSD130xDriverILj128ELj64ENS_24SSD130x4WireSpiTransportEEEEE
 7456              		.section	.rodata._ZTVN5daisy11OledDisplayINS_13SSD130xDriverILj128ELj64ENS_24SSD130x4WireSpiTransp
 7457              		.align	2
 7460              	_ZTVN5daisy11OledDisplayINS_13SSD130xDriverILj128ELj64ENS_24SSD130x4WireSpiTransportEEEEE:
 7461 0000 00000000 		.word	0
 7462 0004 00000000 		.word	0
 7463 0008 00000000 		.word	_ZN5daisy11OledDisplayINS_13SSD130xDriverILj128ELj64ENS_24SSD130x4WireSpiTransportEEEED1Ev
 7464 000c 00000000 		.word	_ZN5daisy11OledDisplayINS_13SSD130xDriverILj128ELj64ENS_24SSD130x4WireSpiTransportEEEED0Ev
 7465 0010 00000000 		.word	_ZNK5daisy11OledDisplayINS_13SSD130xDriverILj128ELj64ENS_24SSD130x4WireSpiTransportEEEE6Heig
 7466 0014 00000000 		.word	_ZNK5daisy11OledDisplayINS_13SSD130xDriverILj128ELj64ENS_24SSD130x4WireSpiTransportEEEE5Widt
 7467 0018 00000000 		.word	_ZN5daisy11OledDisplayINS_13SSD130xDriverILj128ELj64ENS_24SSD130x4WireSpiTransportEEEE4FillE
 7468 001c 00000000 		.word	_ZN5daisy11OledDisplayINS_13SSD130xDriverILj128ELj64ENS_24SSD130x4WireSpiTransportEEEE9DrawP
 7469 0020 00000000 		.word	_ZN5daisy25OneBitGraphicsDisplayImplINS_11OledDisplayINS_13SSD130xDriverILj128ELj64ENS_24SSD
ARM GAS  /var/folders/hl/qgbwny5j0fd895c2c41bk3tw0000gp/T//ccFqANMK.s 			page 204


 7470 0024 00000000 		.word	_ZN5daisy25OneBitGraphicsDisplayImplINS_11OledDisplayINS_13SSD130xDriverILj128ELj64ENS_24SSD
 7471 0028 00000000 		.word	_ZN5daisy25OneBitGraphicsDisplayImplINS_11OledDisplayINS_13SSD130xDriverILj128ELj64ENS_24SSD
 7472 002c 00000000 		.word	_ZN5daisy25OneBitGraphicsDisplayImplINS_11OledDisplayINS_13SSD130xDriverILj128ELj64ENS_24SSD
 7473 0030 00000000 		.word	_ZN5daisy25OneBitGraphicsDisplayImplINS_11OledDisplayINS_13SSD130xDriverILj128ELj64ENS_24SSD
 7474 0034 00000000 		.word	_ZN5daisy25OneBitGraphicsDisplayImplINS_11OledDisplayINS_13SSD130xDriverILj128ELj64ENS_24SSD
 7475 0038 00000000 		.word	_ZN5daisy11OledDisplayINS_13SSD130xDriverILj128ELj64ENS_24SSD130x4WireSpiTransportEEEE6Updat
 7476              		.global	myEnc
 7477              		.global	display
 7478              		.global	hw
 7479              		.section	.bss.display,"aw",%nobits
 7480              		.align	2
 7481              		.set	.LANCHOR2,. + 0
 7484              	display:
 7485 0000 00000000 		.space	1044
 7485      00000000 
 7485      00000000 
 7485      00000000 
 7485      00000000 
 7486              		.section	.bss.hw,"aw",%nobits
 7487              		.align	2
 7488              		.set	.LANCHOR0,. + 0
 7491              	hw:
 7492 0000 00000000 		.space	464
 7492      00000000 
 7492      00000000 
 7492      00000000 
 7492      00000000 
 7493              		.section	.bss.myEnc,"aw",%nobits
 7494              		.align	2
 7495              		.set	.LANCHOR1,. + 0
 7498              	myEnc:
 7499 0000 00000000 		.space	40
 7499      00000000 
 7499      00000000 
 7499      00000000 
 7499      00000000 
 7500              		.text
 7501              	.Letext0:
 7502              		.file 20 "/opt/homebrew/Cellar/arm-none-eabi-gcc/10.3-2021.07/gcc/arm-none-eabi/include/machine/_d
 7503              		.file 21 "/opt/homebrew/Cellar/arm-none-eabi-gcc/10.3-2021.07/gcc/arm-none-eabi/include/sys/_stdin
 7504              		.file 22 "/opt/homebrew/Cellar/arm-none-eabi-gcc/10.3-2021.07/gcc/arm-none-eabi/include/stdint.h"
 7505              		.file 23 "/opt/homebrew/Cellar/arm-none-eabi-gcc/10.3-2021.07/gcc/lib/gcc/arm-none-eabi/10.3.1/inc
 7506              		.file 24 "/opt/homebrew/Cellar/arm-none-eabi-gcc/10.3-2021.07/gcc/arm-none-eabi/include/c++/10.3.1
 7507              		.file 25 "/opt/homebrew/Cellar/arm-none-eabi-gcc/10.3-2021.07/gcc/arm-none-eabi/include/c++/10.3.1
 7508              		.file 26 "/opt/homebrew/Cellar/arm-none-eabi-gcc/10.3-2021.07/gcc/arm-none-eabi/include/c++/10.3.1
 7509              		.file 27 "/opt/homebrew/Cellar/arm-none-eabi-gcc/10.3-2021.07/gcc/arm-none-eabi/include/c++/10.3.1
 7510              		.file 28 "/opt/homebrew/Cellar/arm-none-eabi-gcc/10.3-2021.07/gcc/arm-none-eabi/include/c++/10.3.1
 7511              		.file 29 "/opt/homebrew/Cellar/arm-none-eabi-gcc/10.3-2021.07/gcc/arm-none-eabi/include/c++/10.3.1
 7512              		.file 30 "/opt/homebrew/Cellar/arm-none-eabi-gcc/10.3-2021.07/gcc/arm-none-eabi/include/c++/10.3.1
 7513              		.file 31 "/opt/homebrew/Cellar/arm-none-eabi-gcc/10.3-2021.07/gcc/arm-none-eabi/include/c++/10.3.1
 7514              		.file 32 "/opt/homebrew/Cellar/arm-none-eabi-gcc/10.3-2021.07/gcc/arm-none-eabi/include/c++/10.3.1
 7515              		.file 33 "/opt/homebrew/Cellar/arm-none-eabi-gcc/10.3-2021.07/gcc/arm-none-eabi/include/c++/10.3.1
 7516              		.file 34 "/opt/homebrew/Cellar/arm-none-eabi-gcc/10.3-2021.07/gcc/arm-none-eabi/include/c++/10.3.1
 7517              		.file 35 "/opt/homebrew/Cellar/arm-none-eabi-gcc/10.3-2021.07/gcc/arm-none-eabi/include/c++/10.3.1
 7518              		.file 36 "/opt/homebrew/Cellar/arm-none-eabi-gcc/10.3-2021.07/gcc/arm-none-eabi/include/c++/10.3.1
 7519              		.file 37 "/opt/homebrew/Cellar/arm-none-eabi-gcc/10.3-2021.07/gcc/arm-none-eabi/include/sys/_types
 7520              		.file 38 "/opt/homebrew/Cellar/arm-none-eabi-gcc/10.3-2021.07/gcc/arm-none-eabi/include/sys/reent.
ARM GAS  /var/folders/hl/qgbwny5j0fd895c2c41bk3tw0000gp/T//ccFqANMK.s 			page 205


 7521              		.file 39 "/opt/homebrew/Cellar/arm-none-eabi-gcc/10.3-2021.07/gcc/arm-none-eabi/include/sys/lock.h
 7522              		.file 40 "/opt/homebrew/Cellar/arm-none-eabi-gcc/10.3-2021.07/gcc/arm-none-eabi/include/math.h"
 7523              		.file 41 "/opt/homebrew/Cellar/arm-none-eabi-gcc/10.3-2021.07/gcc/arm-none-eabi/include/stdlib.h"
 7524              		.file 42 "/opt/homebrew/Cellar/arm-none-eabi-gcc/10.3-2021.07/gcc/arm-none-eabi/include/c++/10.3.1
 7525              		.file 43 "/opt/homebrew/Cellar/arm-none-eabi-gcc/10.3-2021.07/gcc/lib/gcc/arm-none-eabi/10.3.1/inc
 7526              		.file 44 "/opt/homebrew/Cellar/arm-none-eabi-gcc/10.3-2021.07/gcc/arm-none-eabi/include/stdio.h"
 7527              		.file 45 "/opt/homebrew/Cellar/arm-none-eabi-gcc/10.3-2021.07/gcc/arm-none-eabi/include/c++/10.3.1
 7528              		.file 46 "../../libDaisy/src/daisy_core.h"
 7529              		.file 47 "../../libDaisy/src/per/tim.h"
 7530              		.file 48 "../../libDaisy/src/per/sai.h"
 7531              		.file 49 "../../libDaisy/src/hid/ctrl.h"
 7532              		.file 50 "../../libDaisy/src/util/wav_format.h"
 7533              		.file 51 "../../libDaisy/src/dev/max11300.h"
 7534              		.file 52 "../../libDaisy/src/per/gpio.h"
 7535              		.file 53 "../../libDaisy/src/dev/sdram.h"
 7536              		.file 54 "../../libDaisy/src/util/oled_fonts.h"
 7537              		.file 55 "/opt/homebrew/Cellar/arm-none-eabi-gcc/10.3-2021.07/gcc/arm-none-eabi/include/string.h"
 7538              		.file 56 "../../libDaisy/src/dev/sr_595.h"
 7539              		.file 57 "/opt/homebrew/Cellar/arm-none-eabi-gcc/10.3-2021.07/gcc/arm-none-eabi/include/c++/10.3.1
 7540              		.file 58 "<built-in>"
ARM GAS  /var/folders/hl/qgbwny5j0fd895c2c41bk3tw0000gp/T//ccFqANMK.s 			page 206


DEFINED SYMBOLS
                            *ABS*:0000000000000000 OLED.cpp
/var/folders/hl/qgbwny5j0fd895c2c41bk3tw0000gp/T//ccFqANMK.s:17     .text._ZN5daisy7EncoderD2Ev:0000000000000000 $t
/var/folders/hl/qgbwny5j0fd895c2c41bk3tw0000gp/T//ccFqANMK.s:26     .text._ZN5daisy7EncoderD2Ev:0000000000000000 _ZN5daisy7EncoderD2Ev
/var/folders/hl/qgbwny5j0fd895c2c41bk3tw0000gp/T//ccFqANMK.s:26     .text._ZN5daisy7EncoderD2Ev:0000000000000000 _ZN5daisy7EncoderD1Ev
/var/folders/hl/qgbwny5j0fd895c2c41bk3tw0000gp/T//ccFqANMK.s:49     .text._ZN5daisy8patch_sm12DaisyPatchSMD2Ev:0000000000000000 $t
/var/folders/hl/qgbwny5j0fd895c2c41bk3tw0000gp/T//ccFqANMK.s:57     .text._ZN5daisy8patch_sm12DaisyPatchSMD2Ev:0000000000000000 _ZN5daisy8patch_sm12DaisyPatchSMD2Ev
/var/folders/hl/qgbwny5j0fd895c2c41bk3tw0000gp/T//ccFqANMK.s:57     .text._ZN5daisy8patch_sm12DaisyPatchSMD2Ev:0000000000000000 _ZN5daisy8patch_sm12DaisyPatchSMD1Ev
/var/folders/hl/qgbwny5j0fd895c2c41bk3tw0000gp/T//ccFqANMK.s:115    .text._ZN5daisy11OledDisplayINS_13SSD130xDriverILj128ELj64ENS_24SSD130x4WireSpiTransportEEEE4FillEb:0000000000000000 $t
/var/folders/hl/qgbwny5j0fd895c2c41bk3tw0000gp/T//ccFqANMK.s:123    .text._ZN5daisy11OledDisplayINS_13SSD130xDriverILj128ELj64ENS_24SSD130x4WireSpiTransportEEEE4FillEb:0000000000000000 _ZN5daisy11OledDisplayINS_13SSD130xDriverILj128ELj64ENS_24SSD130x4WireSpiTransportEEEE4FillEb
/var/folders/hl/qgbwny5j0fd895c2c41bk3tw0000gp/T//ccFqANMK.s:156    .text._ZN5daisy11OledDisplayINS_13SSD130xDriverILj128ELj64ENS_24SSD130x4WireSpiTransportEEEED2Ev:0000000000000000 $t
/var/folders/hl/qgbwny5j0fd895c2c41bk3tw0000gp/T//ccFqANMK.s:164    .text._ZN5daisy11OledDisplayINS_13SSD130xDriverILj128ELj64ENS_24SSD130x4WireSpiTransportEEEED2Ev:0000000000000000 _ZN5daisy11OledDisplayINS_13SSD130xDriverILj128ELj64ENS_24SSD130x4WireSpiTransportEEEED2Ev
/var/folders/hl/qgbwny5j0fd895c2c41bk3tw0000gp/T//ccFqANMK.s:164    .text._ZN5daisy11OledDisplayINS_13SSD130xDriverILj128ELj64ENS_24SSD130x4WireSpiTransportEEEED2Ev:0000000000000000 _ZN5daisy11OledDisplayINS_13SSD130xDriverILj128ELj64ENS_24SSD130x4WireSpiTransportEEEED1Ev
/var/folders/hl/qgbwny5j0fd895c2c41bk3tw0000gp/T//ccFqANMK.s:190    .text._ZNK5daisy11OledDisplayINS_13SSD130xDriverILj128ELj64ENS_24SSD130x4WireSpiTransportEEEE6HeightEv:0000000000000000 $t
/var/folders/hl/qgbwny5j0fd895c2c41bk3tw0000gp/T//ccFqANMK.s:198    .text._ZNK5daisy11OledDisplayINS_13SSD130xDriverILj128ELj64ENS_24SSD130x4WireSpiTransportEEEE6HeightEv:0000000000000000 _ZNK5daisy11OledDisplayINS_13SSD130xDriverILj128ELj64ENS_24SSD130x4WireSpiTransportEEEE6HeightEv
/var/folders/hl/qgbwny5j0fd895c2c41bk3tw0000gp/T//ccFqANMK.s:215    .text._ZNK5daisy11OledDisplayINS_13SSD130xDriverILj128ELj64ENS_24SSD130x4WireSpiTransportEEEE5WidthEv:0000000000000000 $t
/var/folders/hl/qgbwny5j0fd895c2c41bk3tw0000gp/T//ccFqANMK.s:223    .text._ZNK5daisy11OledDisplayINS_13SSD130xDriverILj128ELj64ENS_24SSD130x4WireSpiTransportEEEE5WidthEv:0000000000000000 _ZNK5daisy11OledDisplayINS_13SSD130xDriverILj128ELj64ENS_24SSD130x4WireSpiTransportEEEE5WidthEv
/var/folders/hl/qgbwny5j0fd895c2c41bk3tw0000gp/T//ccFqANMK.s:240    .text._ZN5daisy11OledDisplayINS_13SSD130xDriverILj128ELj64ENS_24SSD130x4WireSpiTransportEEEED0Ev:0000000000000000 $t
/var/folders/hl/qgbwny5j0fd895c2c41bk3tw0000gp/T//ccFqANMK.s:248    .text._ZN5daisy11OledDisplayINS_13SSD130xDriverILj128ELj64ENS_24SSD130x4WireSpiTransportEEEED0Ev:0000000000000000 _ZN5daisy11OledDisplayINS_13SSD130xDriverILj128ELj64ENS_24SSD130x4WireSpiTransportEEEED0Ev
/var/folders/hl/qgbwny5j0fd895c2c41bk3tw0000gp/T//ccFqANMK.s:288    .text._ZN5daisy11OledDisplayINS_13SSD130xDriverILj128ELj64ENS_24SSD130x4WireSpiTransportEEEE6UpdateEv:0000000000000000 $t
/var/folders/hl/qgbwny5j0fd895c2c41bk3tw0000gp/T//ccFqANMK.s:296    .text._ZN5daisy11OledDisplayINS_13SSD130xDriverILj128ELj64ENS_24SSD130x4WireSpiTransportEEEE6UpdateEv:0000000000000000 _ZN5daisy11OledDisplayINS_13SSD130xDriverILj128ELj64ENS_24SSD130x4WireSpiTransportEEEE6UpdateEv
/var/folders/hl/qgbwny5j0fd895c2c41bk3tw0000gp/T//ccFqANMK.s:483    .text._ZN5daisy25OneBitGraphicsDisplayImplINS_11OledDisplayINS_13SSD130xDriverILj128ELj64ENS_24SSD130x4WireSpiTransportEEEEEE9WriteCharEc7FontDefb:0000000000000000 $t
/var/folders/hl/qgbwny5j0fd895c2c41bk3tw0000gp/T//ccFqANMK.s:491    .text._ZN5daisy25OneBitGraphicsDisplayImplINS_11OledDisplayINS_13SSD130xDriverILj128ELj64ENS_24SSD130x4WireSpiTransportEEEEEE9WriteCharEc7FontDefb:0000000000000000 _ZN5daisy25OneBitGraphicsDisplayImplINS_11OledDisplayINS_13SSD130xDriverILj128ELj64ENS_24SSD130x4WireSpiTransportEEEEEE9WriteCharEc7FontDefb
/var/folders/hl/qgbwny5j0fd895c2c41bk3tw0000gp/T//ccFqANMK.s:917    .text._ZN5daisy25OneBitGraphicsDisplayImplINS_11OledDisplayINS_13SSD130xDriverILj128ELj64ENS_24SSD130x4WireSpiTransportEEEEEE9WriteCharEc7FontDefb:0000000000000198 $d
/var/folders/hl/qgbwny5j0fd895c2c41bk3tw0000gp/T//ccFqANMK.s:925    .text._ZN5daisy25OneBitGraphicsDisplayImplINS_11OledDisplayINS_13SSD130xDriverILj128ELj64ENS_24SSD130x4WireSpiTransportEEEEEE11WriteStringEPKc7FontDefb:0000000000000000 $t
/var/folders/hl/qgbwny5j0fd895c2c41bk3tw0000gp/T//ccFqANMK.s:933    .text._ZN5daisy25OneBitGraphicsDisplayImplINS_11OledDisplayINS_13SSD130xDriverILj128ELj64ENS_24SSD130x4WireSpiTransportEEEEEE11WriteStringEPKc7FontDefb:0000000000000000 _ZN5daisy25OneBitGraphicsDisplayImplINS_11OledDisplayINS_13SSD130xDriverILj128ELj64ENS_24SSD130x4WireSpiTransportEEEEEE11WriteStringEPKc7FontDefb
/var/folders/hl/qgbwny5j0fd895c2c41bk3tw0000gp/T//ccFqANMK.s:1390   .text._ZN5daisy25OneBitGraphicsDisplayImplINS_11OledDisplayINS_13SSD130xDriverILj128ELj64ENS_24SSD130x4WireSpiTransportEEEEEE11WriteStringEPKc7FontDefb:00000000000001b8 $d
/var/folders/hl/qgbwny5j0fd895c2c41bk3tw0000gp/T//ccFqANMK.s:1400   .text._ZN5daisy11OledDisplayINS_13SSD130xDriverILj128ELj64ENS_24SSD130x4WireSpiTransportEEEE9DrawPixelEjjb:0000000000000000 $t
/var/folders/hl/qgbwny5j0fd895c2c41bk3tw0000gp/T//ccFqANMK.s:1408   .text._ZN5daisy11OledDisplayINS_13SSD130xDriverILj128ELj64ENS_24SSD130x4WireSpiTransportEEEE9DrawPixelEjjb:0000000000000000 _ZN5daisy11OledDisplayINS_13SSD130xDriverILj128ELj64ENS_24SSD130x4WireSpiTransportEEEE9DrawPixelEjjb
/var/folders/hl/qgbwny5j0fd895c2c41bk3tw0000gp/T//ccFqANMK.s:1485   .text._ZN5daisy25OneBitGraphicsDisplayImplINS_11OledDisplayINS_13SSD130xDriverILj128ELj64ENS_24SSD130x4WireSpiTransportEEEEEE8DrawLineEjjjjb:0000000000000000 $t
/var/folders/hl/qgbwny5j0fd895c2c41bk3tw0000gp/T//ccFqANMK.s:1493   .text._ZN5daisy25OneBitGraphicsDisplayImplINS_11OledDisplayINS_13SSD130xDriverILj128ELj64ENS_24SSD130x4WireSpiTransportEEEEEE8DrawLineEjjjjb:0000000000000000 _ZN5daisy25OneBitGraphicsDisplayImplINS_11OledDisplayINS_13SSD130xDriverILj128ELj64ENS_24SSD130x4WireSpiTransportEEEEEE8DrawLineEjjjjb
/var/folders/hl/qgbwny5j0fd895c2c41bk3tw0000gp/T//ccFqANMK.s:1778   .text._ZN5daisy25OneBitGraphicsDisplayImplINS_11OledDisplayINS_13SSD130xDriverILj128ELj64ENS_24SSD130x4WireSpiTransportEEEEEE7DrawArcEjjjiib:0000000000000000 $t
/var/folders/hl/qgbwny5j0fd895c2c41bk3tw0000gp/T//ccFqANMK.s:1786   .text._ZN5daisy25OneBitGraphicsDisplayImplINS_11OledDisplayINS_13SSD130xDriverILj128ELj64ENS_24SSD130x4WireSpiTransportEEEEEE7DrawArcEjjjiib:0000000000000000 _ZN5daisy25OneBitGraphicsDisplayImplINS_11OledDisplayINS_13SSD130xDriverILj128ELj64ENS_24SSD130x4WireSpiTransportEEEEEE7DrawArcEjjjiib
/var/folders/hl/qgbwny5j0fd895c2c41bk3tw0000gp/T//ccFqANMK.s:2471   .text._ZN5daisy25OneBitGraphicsDisplayImplINS_11OledDisplayINS_13SSD130xDriverILj128ELj64ENS_24SSD130x4WireSpiTransportEEEEEE7DrawArcEjjjiib:0000000000000368 $d
/var/folders/hl/qgbwny5j0fd895c2c41bk3tw0000gp/T//ccFqANMK.s:2485   .text._ZN5daisy25OneBitGraphicsDisplayImplINS_11OledDisplayINS_13SSD130xDriverILj128ELj64ENS_24SSD130x4WireSpiTransportEEEEEE7DrawArcEjjjiib:0000000000000378 $t
/var/folders/hl/qgbwny5j0fd895c2c41bk3tw0000gp/T//ccFqANMK.s:2711   .text._ZN5daisy25OneBitGraphicsDisplayImplINS_11OledDisplayINS_13SSD130xDriverILj128ELj64ENS_24SSD130x4WireSpiTransportEEEEEE18WriteStringAlignedEPKcRK7FontDefNS_9RectangleENS_9AlignmentEb:0000000000000000 $t
/var/folders/hl/qgbwny5j0fd895c2c41bk3tw0000gp/T//ccFqANMK.s:2719   .text._ZN5daisy25OneBitGraphicsDisplayImplINS_11OledDisplayINS_13SSD130xDriverILj128ELj64ENS_24SSD130x4WireSpiTransportEEEEEE18WriteStringAlignedEPKcRK7FontDefNS_9RectangleENS_9AlignmentEb:0000000000000000 _ZN5daisy25OneBitGraphicsDisplayImplINS_11OledDisplayINS_13SSD130xDriverILj128ELj64ENS_24SSD130x4WireSpiTransportEEEEEE18WriteStringAlignedEPKcRK7FontDefNS_9RectangleENS_9AlignmentEb
/var/folders/hl/qgbwny5j0fd895c2c41bk3tw0000gp/T//ccFqANMK.s:2858   .text._ZN5daisy25OneBitGraphicsDisplayImplINS_11OledDisplayINS_13SSD130xDriverILj128ELj64ENS_24SSD130x4WireSpiTransportEEEEEE18WriteStringAlignedEPKcRK7FontDefNS_9RectangleENS_9AlignmentEb:0000000000000046 $d
/var/folders/hl/qgbwny5j0fd895c2c41bk3tw0000gp/T//ccFqANMK.s:2867   .text._ZN5daisy25OneBitGraphicsDisplayImplINS_11OledDisplayINS_13SSD130xDriverILj128ELj64ENS_24SSD130x4WireSpiTransportEEEEEE18WriteStringAlignedEPKcRK7FontDefNS_9RectangleENS_9AlignmentEb:0000000000000058 $t
/var/folders/hl/qgbwny5j0fd895c2c41bk3tw0000gp/T//ccFqANMK.s:4075   .text._ZN5daisy25OneBitGraphicsDisplayImplINS_11OledDisplayINS_13SSD130xDriverILj128ELj64ENS_24SSD130x4WireSpiTransportEEEEEE18WriteStringAlignedEPKcRK7FontDefNS_9RectangleENS_9AlignmentEb:000000000000031c $d
/var/folders/hl/qgbwny5j0fd895c2c41bk3tw0000gp/T//ccFqANMK.s:4084   .text._ZN5daisy25OneBitGraphicsDisplayImplINS_11OledDisplayINS_13SSD130xDriverILj128ELj64ENS_24SSD130x4WireSpiTransportEEEEEE18WriteStringAlignedEPKcRK7FontDefNS_9RectangleENS_9AlignmentEb:0000000000000324 $t
/var/folders/hl/qgbwny5j0fd895c2c41bk3tw0000gp/T//ccFqANMK.s:4400   .text._ZN5daisy25OneBitGraphicsDisplayImplINS_11OledDisplayINS_13SSD130xDriverILj128ELj64ENS_24SSD130x4WireSpiTransportEEEEEE18WriteStringAlignedEPKcRK7FontDefNS_9RectangleENS_9AlignmentEb:00000000000003e4 $d
/var/folders/hl/qgbwny5j0fd895c2c41bk3tw0000gp/T//ccFqANMK.s:4408   .text._ZN5daisy25OneBitGraphicsDisplayImplINS_11OledDisplayINS_13SSD130xDriverILj128ELj64ENS_24SSD130x4WireSpiTransportEEEEEE8DrawRectEjjjjbb:0000000000000000 $t
/var/folders/hl/qgbwny5j0fd895c2c41bk3tw0000gp/T//ccFqANMK.s:4416   .text._ZN5daisy25OneBitGraphicsDisplayImplINS_11OledDisplayINS_13SSD130xDriverILj128ELj64ENS_24SSD130x4WireSpiTransportEEEEEE8DrawRectEjjjjbb:0000000000000000 _ZN5daisy25OneBitGraphicsDisplayImplINS_11OledDisplayINS_13SSD130xDriverILj128ELj64ENS_24SSD130x4WireSpiTransportEEEEEE8DrawRectEjjjjbb
/var/folders/hl/qgbwny5j0fd895c2c41bk3tw0000gp/T//ccFqANMK.s:5526   .text._ZN5daisy13SSD130xDriverILj128ELj64ENS_24SSD130x4WireSpiTransportEE4InitENS2_6ConfigE:0000000000000000 $t
/var/folders/hl/qgbwny5j0fd895c2c41bk3tw0000gp/T//ccFqANMK.s:5534   .text._ZN5daisy13SSD130xDriverILj128ELj64ENS_24SSD130x4WireSpiTransportEE4InitENS2_6ConfigE:0000000000000000 _ZN5daisy13SSD130xDriverILj128ELj64ENS_24SSD130x4WireSpiTransportEE4InitENS2_6ConfigE
/var/folders/hl/qgbwny5j0fd895c2c41bk3tw0000gp/T//ccFqANMK.s:6306   .rodata.main.str1.4:0000000000000000 $d
/var/folders/hl/qgbwny5j0fd895c2c41bk3tw0000gp/T//ccFqANMK.s:6322   .text.startup.main:0000000000000000 $t
/var/folders/hl/qgbwny5j0fd895c2c41bk3tw0000gp/T//ccFqANMK.s:6330   .text.startup.main:0000000000000000 main
/var/folders/hl/qgbwny5j0fd895c2c41bk3tw0000gp/T//ccFqANMK.s:6552   .text.startup.main:00000000000000e8 $d
/var/folders/hl/qgbwny5j0fd895c2c41bk3tw0000gp/T//ccFqANMK.s:6557   .text.startup.main:00000000000000f2 $t
/var/folders/hl/qgbwny5j0fd895c2c41bk3tw0000gp/T//ccFqANMK.s:7184   .text.startup.main:00000000000002dc $d
/var/folders/hl/qgbwny5j0fd895c2c41bk3tw0000gp/T//ccFqANMK.s:7206   .text.startup._GLOBAL__sub_I_hw:0000000000000000 $t
/var/folders/hl/qgbwny5j0fd895c2c41bk3tw0000gp/T//ccFqANMK.s:7213   .text.startup._GLOBAL__sub_I_hw:0000000000000000 _GLOBAL__sub_I_hw
/var/folders/hl/qgbwny5j0fd895c2c41bk3tw0000gp/T//ccFqANMK.s:7439   .text.startup._GLOBAL__sub_I_hw:0000000000000034 $d
/var/folders/hl/qgbwny5j0fd895c2c41bk3tw0000gp/T//ccFqANMK.s:7460   .rodata._ZTVN5daisy11OledDisplayINS_13SSD130xDriverILj128ELj64ENS_24SSD130x4WireSpiTransportEEEEE:0000000000000000 _ZTVN5daisy11OledDisplayINS_13SSD130xDriverILj128ELj64ENS_24SSD130x4WireSpiTransportEEEEE
/var/folders/hl/qgbwny5j0fd895c2c41bk3tw0000gp/T//ccFqANMK.s:7453   .init_array:0000000000000000 $d
ARM GAS  /var/folders/hl/qgbwny5j0fd895c2c41bk3tw0000gp/T//ccFqANMK.s 			page 207


/var/folders/hl/qgbwny5j0fd895c2c41bk3tw0000gp/T//ccFqANMK.s:7457   .rodata._ZTVN5daisy11OledDisplayINS_13SSD130xDriverILj128ELj64ENS_24SSD130x4WireSpiTransportEEEEE:0000000000000000 $d
/var/folders/hl/qgbwny5j0fd895c2c41bk3tw0000gp/T//ccFqANMK.s:7498   .bss.myEnc:0000000000000000 myEnc
/var/folders/hl/qgbwny5j0fd895c2c41bk3tw0000gp/T//ccFqANMK.s:7484   .bss.display:0000000000000000 display
/var/folders/hl/qgbwny5j0fd895c2c41bk3tw0000gp/T//ccFqANMK.s:7491   .bss.hw:0000000000000000 hw
/var/folders/hl/qgbwny5j0fd895c2c41bk3tw0000gp/T//ccFqANMK.s:7480   .bss.display:0000000000000000 $d
/var/folders/hl/qgbwny5j0fd895c2c41bk3tw0000gp/T//ccFqANMK.s:7487   .bss.hw:0000000000000000 $d
/var/folders/hl/qgbwny5j0fd895c2c41bk3tw0000gp/T//ccFqANMK.s:7494   .bss.myEnc:0000000000000000 $d
                           .group:0000000000000000 _ZN5daisy7EncoderD5Ev
                           .group:0000000000000000 _ZN5daisy8patch_sm12DaisyPatchSMD5Ev
                           .group:0000000000000000 _ZN5daisy11OledDisplayINS_13SSD130xDriverILj128ELj64ENS_24SSD130x4WireSpiTransportEEEED5Ev

UNDEFINED SYMBOLS
memset
_ZdlPvj
dsy_gpio_write
_ZN5daisy9SpiHandle16BlockingTransmitEPhjm
cosf
sinf
dsy_gpio_init
_ZN5daisy9SpiHandle4InitERKNS0_6ConfigE
_ZN5daisy6System5DelayEm
_ZN5daisy8patch_sm12DaisyPatchSM4InitEv
_ZN5daisy7Encoder4InitE12dsy_gpio_pinS1_S1_f
_ZN5daisy8patch_sm12DaisyPatchSM6GetPinENS1_7PinBankEi
_ZN5daisy7Encoder8DebounceEv
_ZN5daisy8patch_sm12DaisyPatchSM6SetLedEb
_ZN5daisy8patch_sm12DaisyPatchSM2B7E
_ZN5daisy8patch_sm12DaisyPatchSM2A8E
_ZN5daisy8patch_sm12DaisyPatchSM2D8E
Font_11x18
__aeabi_atexit
__dso_handle
