ARM GAS  /var/folders/hl/qgbwny5j0fd895c2c41bk3tw0000gp/T//ccBxTnvh.s 			page 1


   1              		.cpu cortex-m7
   2              		.eabi_attribute 28, 1
   3              		.eabi_attribute 20, 1
   4              		.eabi_attribute 21, 1
   5              		.eabi_attribute 23, 3
   6              		.eabi_attribute 24, 1
   7              		.eabi_attribute 25, 1
   8              		.eabi_attribute 26, 1
   9              		.eabi_attribute 30, 2
  10              		.eabi_attribute 34, 1
  11              		.eabi_attribute 18, 4
  12              		.file	"Twines.cpp"
  13              		.text
  14              	.Ltext0:
  15              		.cfi_sections	.debug_frame
  16              		.section	.text._ZN5daisy6SwitchD2Ev,"axG",%progbits,_ZN5daisy6SwitchD5Ev,comdat
  17              		.align	1
  18              		.p2align 2,,3
  19              		.weak	_ZN5daisy6SwitchD2Ev
  20              		.arch armv7e-m
  21              		.syntax unified
  22              		.thumb
  23              		.thumb_func
  24              		.fpu fpv5-d16
  26              	_ZN5daisy6SwitchD2Ev:
  27              	.LVL0:
  28              	.LFB1606:
  29              		.file 1 "../../libDaisy//src/hid/switch.h"
   1:../../libDaisy//src/hid/switch.h **** #pragma once
   2:../../libDaisy//src/hid/switch.h **** #ifndef DSY_SWITCH_H
   3:../../libDaisy//src/hid/switch.h **** #define DSY_SWITCH_H
   4:../../libDaisy//src/hid/switch.h **** #include "daisy_core.h"
   5:../../libDaisy//src/hid/switch.h **** #include "per/gpio.h"
   6:../../libDaisy//src/hid/switch.h **** #include "sys/system.h"
   7:../../libDaisy//src/hid/switch.h **** 
   8:../../libDaisy//src/hid/switch.h **** namespace daisy
   9:../../libDaisy//src/hid/switch.h **** {
  10:../../libDaisy//src/hid/switch.h **** /** 
  11:../../libDaisy//src/hid/switch.h ****     Generic Class for handling momentary/latching switches \n 
  12:../../libDaisy//src/hid/switch.h ****     Inspired/influenced by Mutable Instruments (pichenettes) Switch classes
  13:../../libDaisy//src/hid/switch.h ****     @author Stephen Hensley
  14:../../libDaisy//src/hid/switch.h ****     @date December 2019
  15:../../libDaisy//src/hid/switch.h ****     @ingroup controls
  16:../../libDaisy//src/hid/switch.h **** */
  17:../../libDaisy//src/hid/switch.h **** class Switch
  18:../../libDaisy//src/hid/switch.h **** {
  19:../../libDaisy//src/hid/switch.h ****   public:
  20:../../libDaisy//src/hid/switch.h ****     /** Specifies the expected behavior of the switch */
  21:../../libDaisy//src/hid/switch.h ****     enum Type
  22:../../libDaisy//src/hid/switch.h ****     {
  23:../../libDaisy//src/hid/switch.h ****         TYPE_TOGGLE,    /**< & */
  24:../../libDaisy//src/hid/switch.h ****         TYPE_MOMENTARY, /**< & */
  25:../../libDaisy//src/hid/switch.h ****     };
  26:../../libDaisy//src/hid/switch.h ****     /** Specifies whether the pressed is HIGH or LOW. */
  27:../../libDaisy//src/hid/switch.h ****     enum Polarity
  28:../../libDaisy//src/hid/switch.h ****     {
  29:../../libDaisy//src/hid/switch.h ****         POLARITY_NORMAL,   /**< & */
ARM GAS  /var/folders/hl/qgbwny5j0fd895c2c41bk3tw0000gp/T//ccBxTnvh.s 			page 2


  30:../../libDaisy//src/hid/switch.h ****         POLARITY_INVERTED, /**< & */
  31:../../libDaisy//src/hid/switch.h ****     };
  32:../../libDaisy//src/hid/switch.h **** 
  33:../../libDaisy//src/hid/switch.h ****     /** Specifies whether to use built-in Pull Up/Down resistors to hold button at a given state wh
  34:../../libDaisy//src/hid/switch.h ****     enum Pull
  35:../../libDaisy//src/hid/switch.h ****     {
  36:../../libDaisy//src/hid/switch.h ****         PULL_UP,   /**< & */
  37:../../libDaisy//src/hid/switch.h ****         PULL_DOWN, /**< & */
  38:../../libDaisy//src/hid/switch.h ****         PULL_NONE, /**< & */
  39:../../libDaisy//src/hid/switch.h ****     };
  40:../../libDaisy//src/hid/switch.h **** 
  41:../../libDaisy//src/hid/switch.h ****     Switch() {}
  42:../../libDaisy//src/hid/switch.h ****     ~Switch() {}
  30              		.loc 1 42 5 view -0
  31              		.cfi_startproc
  32              		@ args = 0, pretend = 0, frame = 0
  33              		@ frame_needed = 0, uses_anonymous_args = 0
  34              		@ link register save eliminated.
  35              		.loc 1 42 16 is_stmt 0 view .LVU1
  36 0000 7047     		bx	lr
  37              		.cfi_endproc
  38              	.LFE1606:
  40              		.weak	_ZN5daisy6SwitchD1Ev
  41              		.thumb_set _ZN5daisy6SwitchD1Ev,_ZN5daisy6SwitchD2Ev
  42 0002 00BF     		.section	.text._ZN5daisy8patch_sm12DaisyPatchSMD2Ev,"axG",%progbits,_ZN5daisy8patch_sm12DaisyPatch
  43              		.align	1
  44              		.p2align 2,,3
  45              		.weak	_ZN5daisy8patch_sm12DaisyPatchSMD2Ev
  46              		.syntax unified
  47              		.thumb
  48              		.thumb_func
  49              		.fpu fpv5-d16
  51              	_ZN5daisy8patch_sm12DaisyPatchSMD2Ev:
  52              	.LVL1:
  53              	.LFB2529:
  54              		.file 2 "../../libDaisy//src/daisy_patch_sm.h"
   1:../../libDaisy//src/daisy_patch_sm.h **** #pragma once
   2:../../libDaisy//src/daisy_patch_sm.h **** 
   3:../../libDaisy//src/daisy_patch_sm.h **** #include "daisy.h"
   4:../../libDaisy//src/daisy_patch_sm.h **** 
   5:../../libDaisy//src/daisy_patch_sm.h **** namespace daisy
   6:../../libDaisy//src/daisy_patch_sm.h **** {
   7:../../libDaisy//src/daisy_patch_sm.h **** namespace patch_sm
   8:../../libDaisy//src/daisy_patch_sm.h **** {
   9:../../libDaisy//src/daisy_patch_sm.h ****     /** Accessors for the Analog Controls. 
  10:../../libDaisy//src/daisy_patch_sm.h ****      *  These cover the 8x Bipolar CV inputs
  11:../../libDaisy//src/daisy_patch_sm.h ****      *  as well as the 4x 0-3V3 ADC inputs on
  12:../../libDaisy//src/daisy_patch_sm.h ****      *  the hardware 
  13:../../libDaisy//src/daisy_patch_sm.h ****      * 
  14:../../libDaisy//src/daisy_patch_sm.h ****      *  When reading a value with DaisyPatchSM::GetAdcValue()
  15:../../libDaisy//src/daisy_patch_sm.h ****      * 
  16:../../libDaisy//src/daisy_patch_sm.h ****      *  patch.GetAdcValue(patch_sm::CV_1);
  17:../../libDaisy//src/daisy_patch_sm.h ****      */
  18:../../libDaisy//src/daisy_patch_sm.h ****     enum
  19:../../libDaisy//src/daisy_patch_sm.h ****     {
  20:../../libDaisy//src/daisy_patch_sm.h ****         CV_1 = 0,
  21:../../libDaisy//src/daisy_patch_sm.h ****         CV_2,
ARM GAS  /var/folders/hl/qgbwny5j0fd895c2c41bk3tw0000gp/T//ccBxTnvh.s 			page 3


  22:../../libDaisy//src/daisy_patch_sm.h ****         CV_3,
  23:../../libDaisy//src/daisy_patch_sm.h ****         CV_4,
  24:../../libDaisy//src/daisy_patch_sm.h ****         CV_5,
  25:../../libDaisy//src/daisy_patch_sm.h ****         CV_6,
  26:../../libDaisy//src/daisy_patch_sm.h ****         CV_7,
  27:../../libDaisy//src/daisy_patch_sm.h ****         CV_8,
  28:../../libDaisy//src/daisy_patch_sm.h ****         ADC_9,
  29:../../libDaisy//src/daisy_patch_sm.h ****         ADC_10,
  30:../../libDaisy//src/daisy_patch_sm.h ****         ADC_11,
  31:../../libDaisy//src/daisy_patch_sm.h ****         ADC_12,
  32:../../libDaisy//src/daisy_patch_sm.h ****         ADC_LAST,
  33:../../libDaisy//src/daisy_patch_sm.h ****     };
  34:../../libDaisy//src/daisy_patch_sm.h **** 
  35:../../libDaisy//src/daisy_patch_sm.h ****     /** Enum for addressing the CV Outputs via the WriteCvOut function. */
  36:../../libDaisy//src/daisy_patch_sm.h ****     enum
  37:../../libDaisy//src/daisy_patch_sm.h ****     {
  38:../../libDaisy//src/daisy_patch_sm.h ****         CV_OUT_BOTH = 0,
  39:../../libDaisy//src/daisy_patch_sm.h ****         CV_OUT_1,
  40:../../libDaisy//src/daisy_patch_sm.h ****         CV_OUT_2,
  41:../../libDaisy//src/daisy_patch_sm.h ****     };
  42:../../libDaisy//src/daisy_patch_sm.h **** 
  43:../../libDaisy//src/daisy_patch_sm.h **** 
  44:../../libDaisy//src/daisy_patch_sm.h ****     /** @brief Board support file for DaisyPatchSM hardware
  45:../../libDaisy//src/daisy_patch_sm.h ****      *  @author shensley
  46:../../libDaisy//src/daisy_patch_sm.h ****      *  @ingroup boards
  47:../../libDaisy//src/daisy_patch_sm.h ****      * 
  48:../../libDaisy//src/daisy_patch_sm.h ****      *  Daisy Patch SM is a complete Eurorack module DSP engine.
  49:../../libDaisy//src/daisy_patch_sm.h ****      *  Based on the Daisy Seed, with circuits added for 
  50:../../libDaisy//src/daisy_patch_sm.h ****      *  interfacing directly with eurorack modular synthesizers.
  51:../../libDaisy//src/daisy_patch_sm.h ****      */
  52:../../libDaisy//src/daisy_patch_sm.h ****     class DaisyPatchSM
  53:../../libDaisy//src/daisy_patch_sm.h ****     {
  54:../../libDaisy//src/daisy_patch_sm.h ****       public:
  55:../../libDaisy//src/daisy_patch_sm.h ****         /** Helper for mapping pins, and accessing them using the `GetPin` function */
  56:../../libDaisy//src/daisy_patch_sm.h ****         enum class PinBank
  57:../../libDaisy//src/daisy_patch_sm.h ****         {
  58:../../libDaisy//src/daisy_patch_sm.h ****             A,
  59:../../libDaisy//src/daisy_patch_sm.h ****             B,
  60:../../libDaisy//src/daisy_patch_sm.h ****             C,
  61:../../libDaisy//src/daisy_patch_sm.h ****             D
  62:../../libDaisy//src/daisy_patch_sm.h ****         };
  63:../../libDaisy//src/daisy_patch_sm.h **** 
  64:../../libDaisy//src/daisy_patch_sm.h ****         DaisyPatchSM() {}
  65:../../libDaisy//src/daisy_patch_sm.h ****         ~DaisyPatchSM() {}
  55              		.loc 2 65 9 is_stmt 1 view -0
  56              		.cfi_startproc
  57              		@ args = 0, pretend = 0, frame = 0
  58              		@ frame_needed = 0, uses_anonymous_args = 0
  59              		@ link register save eliminated.
  60              	.LBB495:
  61              	.LBI495:
  62              		.file 3 "../../libDaisy//src/hid/gatein.h"
   1:../../libDaisy//src/hid/gatein.h **** #pragma once
   2:../../libDaisy//src/hid/gatein.h **** #ifndef DSY_GATEIN_H
   3:../../libDaisy//src/hid/gatein.h **** #define DSY_GATEIN_H
   4:../../libDaisy//src/hid/gatein.h **** #include "per/gpio.h"
   5:../../libDaisy//src/hid/gatein.h **** 
ARM GAS  /var/folders/hl/qgbwny5j0fd895c2c41bk3tw0000gp/T//ccBxTnvh.s 			page 4


   6:../../libDaisy//src/hid/gatein.h **** namespace daisy
   7:../../libDaisy//src/hid/gatein.h **** {
   8:../../libDaisy//src/hid/gatein.h **** /**
   9:../../libDaisy//src/hid/gatein.h ****    @brief Generic Class for handling gate inputs through GPIO.
  10:../../libDaisy//src/hid/gatein.h ****    @author Stephen Hensley
  11:../../libDaisy//src/hid/gatein.h ****    @date    March 2020
  12:../../libDaisy//src/hid/gatein.h ****    @ingroup controls
  13:../../libDaisy//src/hid/gatein.h **** */
  14:../../libDaisy//src/hid/gatein.h **** class GateIn
  15:../../libDaisy//src/hid/gatein.h **** {
  16:../../libDaisy//src/hid/gatein.h ****   public:
  17:../../libDaisy//src/hid/gatein.h ****     /** GateIn 
  18:../../libDaisy//src/hid/gatein.h ****     Constructor 
  19:../../libDaisy//src/hid/gatein.h ****     */
  20:../../libDaisy//src/hid/gatein.h ****     GateIn() {}
  21:../../libDaisy//src/hid/gatein.h ****     /** GateIn~
  22:../../libDaisy//src/hid/gatein.h ****     Destructor 
  23:../../libDaisy//src/hid/gatein.h ****     */
  24:../../libDaisy//src/hid/gatein.h ****     ~GateIn() {}
  63              		.loc 3 24 5 view .LVU3
  64              		.loc 3 24 5 is_stmt 0 view .LVU4
  65              	.LBE495:
  66              	.LBB496:
  67              	.LBI496:
  68              		.loc 3 24 5 is_stmt 1 view .LVU5
  69              		.loc 3 24 5 is_stmt 0 view .LVU6
  70              	.LBE496:
  71              	.LBB497:
  72              	.LBI497:
  73              		.file 4 "../../libDaisy//src/dev/codec_pcm3060.h"
   1:../../libDaisy//src/dev/codec_pcm3060.h **** #pragma once
   2:../../libDaisy//src/dev/codec_pcm3060.h **** #ifndef DSY_CODEC_PCM3060_H
   3:../../libDaisy//src/dev/codec_pcm3060.h **** #define DSY_CODEC_PCM3060_H
   4:../../libDaisy//src/dev/codec_pcm3060.h **** #include "per/i2c.h"
   5:../../libDaisy//src/dev/codec_pcm3060.h **** namespace daisy
   6:../../libDaisy//src/dev/codec_pcm3060.h **** {
   7:../../libDaisy//src/dev/codec_pcm3060.h **** /**
   8:../../libDaisy//src/dev/codec_pcm3060.h ****  * @brief Driver for the TI PCM3060 Audio Codec.
   9:../../libDaisy//src/dev/codec_pcm3060.h ****  * @addtogroup codec
  10:../../libDaisy//src/dev/codec_pcm3060.h ****  * 
  11:../../libDaisy//src/dev/codec_pcm3060.h ****  * For now this is a limited interface that uses I2C to communicate with the PCM3060
  12:../../libDaisy//src/dev/codec_pcm3060.h ****  * The device can also be accessed with SPI, which is not yet supported.
  13:../../libDaisy//src/dev/codec_pcm3060.h ****  * 
  14:../../libDaisy//src/dev/codec_pcm3060.h ****  * For now all registers are set to their defaults, and the Init function will 
  15:../../libDaisy//src/dev/codec_pcm3060.h ****  * perform a MRST and SRST before setting the format to 24bit LJ, and disabling 
  16:../../libDaisy//src/dev/codec_pcm3060.h ****  * power save for both the ADC and DAC.
  17:../../libDaisy//src/dev/codec_pcm3060.h ****  *
  18:../../libDaisy//src/dev/codec_pcm3060.h ****  */
  19:../../libDaisy//src/dev/codec_pcm3060.h **** class Pcm3060
  20:../../libDaisy//src/dev/codec_pcm3060.h **** {
  21:../../libDaisy//src/dev/codec_pcm3060.h ****   public:
  22:../../libDaisy//src/dev/codec_pcm3060.h ****     enum class Result
  23:../../libDaisy//src/dev/codec_pcm3060.h ****     {
  24:../../libDaisy//src/dev/codec_pcm3060.h ****         OK,
  25:../../libDaisy//src/dev/codec_pcm3060.h ****         ERR,
  26:../../libDaisy//src/dev/codec_pcm3060.h ****     };
  27:../../libDaisy//src/dev/codec_pcm3060.h **** 
ARM GAS  /var/folders/hl/qgbwny5j0fd895c2c41bk3tw0000gp/T//ccBxTnvh.s 			page 5


  28:../../libDaisy//src/dev/codec_pcm3060.h ****     Pcm3060() {}
  29:../../libDaisy//src/dev/codec_pcm3060.h ****     ~Pcm3060() {}
  74              		.loc 4 29 5 is_stmt 1 view .LVU7
  75              		.loc 4 29 5 is_stmt 0 view .LVU8
  76              	.LBE497:
  77              	.LBB498:
  78              	.LBI498:
  79              		.file 5 "../../libDaisy//src/hid/usb.h"
   1:../../libDaisy//src/hid/usb.h **** #pragma once
   2:../../libDaisy//src/hid/usb.h **** #ifndef DSY_HID_USB_H
   3:../../libDaisy//src/hid/usb.h **** #define DSY_HID_USB_H
   4:../../libDaisy//src/hid/usb.h **** #include <stdint.h>
   5:../../libDaisy//src/hid/usb.h **** #include <stdlib.h>
   6:../../libDaisy//src/hid/usb.h **** 
   7:../../libDaisy//src/hid/usb.h **** namespace daisy
   8:../../libDaisy//src/hid/usb.h **** /** @addtogroup human_interface
   9:../../libDaisy//src/hid/usb.h ****     @{
  10:../../libDaisy//src/hid/usb.h **** */
  11:../../libDaisy//src/hid/usb.h **** 
  12:../../libDaisy//src/hid/usb.h **** {
  13:../../libDaisy//src/hid/usb.h **** /** 
  14:../../libDaisy//src/hid/usb.h ****     @brief Interface for initializing and using the USB Peripherals on the daisy
  15:../../libDaisy//src/hid/usb.h ****     @author Stephen Hensley
  16:../../libDaisy//src/hid/usb.h ****     @date December 2019
  17:../../libDaisy//src/hid/usb.h **** */
  18:../../libDaisy//src/hid/usb.h **** class UsbHandle
  19:../../libDaisy//src/hid/usb.h **** {
  20:../../libDaisy//src/hid/usb.h ****   public:
  21:../../libDaisy//src/hid/usb.h ****     /** Return values for USBHandle Functions */
  22:../../libDaisy//src/hid/usb.h ****     enum class Result
  23:../../libDaisy//src/hid/usb.h ****     {
  24:../../libDaisy//src/hid/usb.h ****         OK,
  25:../../libDaisy//src/hid/usb.h ****         ERR,
  26:../../libDaisy//src/hid/usb.h ****     };
  27:../../libDaisy//src/hid/usb.h **** 
  28:../../libDaisy//src/hid/usb.h ****     /** Specified which of the two USB Peripherals to initialize. */
  29:../../libDaisy//src/hid/usb.h ****     enum UsbPeriph
  30:../../libDaisy//src/hid/usb.h ****     {
  31:../../libDaisy//src/hid/usb.h ****         FS_INTERNAL, /**< Internal pin */
  32:../../libDaisy//src/hid/usb.h ****         FS_EXTERNAL, /**< FS External D+ pin is Pin 38 (GPIO32). FS External D- pin is Pin 37 (GPIO
  33:../../libDaisy//src/hid/usb.h ****         FS_BOTH,     /**< Both */
  34:../../libDaisy//src/hid/usb.h ****     };
  35:../../libDaisy//src/hid/usb.h **** 
  36:../../libDaisy//src/hid/usb.h **** 
  37:../../libDaisy//src/hid/usb.h ****     /** Function called upon reception of a buffer */
  38:../../libDaisy//src/hid/usb.h ****     typedef void (*ReceiveCallback)(uint8_t* buff, uint32_t* len);
  39:../../libDaisy//src/hid/usb.h **** 
  40:../../libDaisy//src/hid/usb.h ****     UsbHandle() {}
  41:../../libDaisy//src/hid/usb.h **** 
  42:../../libDaisy//src/hid/usb.h ****     ~UsbHandle() {}
  80              		.loc 5 42 5 is_stmt 1 view .LVU9
  81              		.loc 5 42 5 is_stmt 0 view .LVU10
  82              	.LBE498:
  83              	.LBB499:
  84              	.LBI499:
  85              		.file 6 "../../libDaisy//src/per/adc.h"
   1:../../libDaisy//src/per/adc.h **** #pragma once
ARM GAS  /var/folders/hl/qgbwny5j0fd895c2c41bk3tw0000gp/T//ccBxTnvh.s 			page 6


   2:../../libDaisy//src/per/adc.h **** #ifndef DSY_ADC_H
   3:../../libDaisy//src/per/adc.h **** #define DSY_ADC_H /**< Macro */
   4:../../libDaisy//src/per/adc.h **** #include <stdint.h>
   5:../../libDaisy//src/per/adc.h **** #include <stdlib.h>
   6:../../libDaisy//src/per/adc.h **** #include "daisy_core.h"
   7:../../libDaisy//src/per/adc.h **** #include "per/gpio.h"
   8:../../libDaisy//src/per/adc.h **** 
   9:../../libDaisy//src/per/adc.h **** #define DSY_ADC_MAX_CHANNELS 16 /**< Maximum number of ADC channels */
  10:../../libDaisy//src/per/adc.h **** 
  11:../../libDaisy//src/per/adc.h **** namespace daisy
  12:../../libDaisy//src/per/adc.h **** {
  13:../../libDaisy//src/per/adc.h **** /** @addtogroup per_analog
  14:../../libDaisy//src/per/adc.h ****     @{
  15:../../libDaisy//src/per/adc.h **** */
  16:../../libDaisy//src/per/adc.h **** 
  17:../../libDaisy//src/per/adc.h **** /* While there may not be many configuration options here,
  18:../../libDaisy//src/per/adc.h **** using a struct like this allows us to add more configuration
  19:../../libDaisy//src/per/adc.h **** later without breaking existing functionality.
  20:../../libDaisy//src/per/adc.h **** */
  21:../../libDaisy//src/per/adc.h **** 
  22:../../libDaisy//src/per/adc.h **** /** @brief   Configuration Structure for an ADC Channel 
  23:../../libDaisy//src/per/adc.h ****  *  @details This can be used to configure a a single input, 
  24:../../libDaisy//src/per/adc.h ****  *           or a multiplexed input, allowing up to 8 inputs on 
  25:../../libDaisy//src/per/adc.h ****  *           one channel.
  26:../../libDaisy//src/per/adc.h ****  *  @note    Sharing data lines to multiple muxes _is_ possible, but
  27:../../libDaisy//src/per/adc.h ****  *           each channel sharing data lines must be set to the maximum
  28:../../libDaisy//src/per/adc.h ****  *           number of channels, even if some multiplexers have fewer
  29:../../libDaisy//src/per/adc.h ****  *           inputs connected.
  30:../../libDaisy//src/per/adc.h **** */
  31:../../libDaisy//src/per/adc.h **** struct AdcChannelConfig
  32:../../libDaisy//src/per/adc.h **** {
  33:../../libDaisy//src/per/adc.h ****     /** Which pin to use for multiplexing */
  34:../../libDaisy//src/per/adc.h ****     enum MuxPin
  35:../../libDaisy//src/per/adc.h ****     {
  36:../../libDaisy//src/per/adc.h ****         MUX_SEL_0,    /**< & */
  37:../../libDaisy//src/per/adc.h ****         MUX_SEL_1,    /**< & */
  38:../../libDaisy//src/per/adc.h ****         MUX_SEL_2,    /**< & */
  39:../../libDaisy//src/per/adc.h ****         MUX_SEL_LAST, /**< & */
  40:../../libDaisy//src/per/adc.h ****     };
  41:../../libDaisy//src/per/adc.h **** 
  42:../../libDaisy//src/per/adc.h ****     /** Initializes a single ADC pin as an ADC. 
  43:../../libDaisy//src/per/adc.h ****     \param pin Pin to init.
  44:../../libDaisy//src/per/adc.h ****      */
  45:../../libDaisy//src/per/adc.h ****     void InitSingle(dsy_gpio_pin pin);
  46:../../libDaisy//src/per/adc.h **** 
  47:../../libDaisy//src/per/adc.h ****     /** 
  48:../../libDaisy//src/per/adc.h ****     Initializes a single ADC pin as a Multiplexed ADC.
  49:../../libDaisy//src/per/adc.h ****     Requires a CD405X Multiplexer connected to the pin.
  50:../../libDaisy//src/per/adc.h ****     You only need to supply the mux pins that are required,
  51:../../libDaisy//src/per/adc.h ****     e.g. a 4052 mux would only require mux_0 and mux_1.
  52:../../libDaisy//src/per/adc.h ****     Internal Callbacks handle the pin addressing.
  53:../../libDaisy//src/per/adc.h ****     \param mux_channels must be 1-8
  54:../../libDaisy//src/per/adc.h ****     \param mux_0 First mux pin
  55:../../libDaisy//src/per/adc.h ****     \param mux_1 Second mux pin
  56:../../libDaisy//src/per/adc.h ****     \param mux_2 Third mux pin
  57:../../libDaisy//src/per/adc.h ****     \param adc_pin &
  58:../../libDaisy//src/per/adc.h ****     */
ARM GAS  /var/folders/hl/qgbwny5j0fd895c2c41bk3tw0000gp/T//ccBxTnvh.s 			page 7


  59:../../libDaisy//src/per/adc.h ****     void InitMux(dsy_gpio_pin adc_pin,
  60:../../libDaisy//src/per/adc.h ****                  size_t       mux_channels,
  61:../../libDaisy//src/per/adc.h ****                  dsy_gpio_pin mux_0,
  62:../../libDaisy//src/per/adc.h ****                  dsy_gpio_pin mux_1 = {DSY_GPIOX, 0},
  63:../../libDaisy//src/per/adc.h ****                  dsy_gpio_pin mux_2 = {DSY_GPIOX, 0});
  64:../../libDaisy//src/per/adc.h **** 
  65:../../libDaisy//src/per/adc.h ****     dsy_gpio pin_;                   /**< & */
  66:../../libDaisy//src/per/adc.h ****     dsy_gpio mux_pin_[MUX_SEL_LAST]; /**< & */
  67:../../libDaisy//src/per/adc.h ****     uint8_t  mux_channels_;          /**< & */
  68:../../libDaisy//src/per/adc.h **** };
  69:../../libDaisy//src/per/adc.h **** 
  70:../../libDaisy//src/per/adc.h **** /**
  71:../../libDaisy//src/per/adc.h ****    @brief Handler for analog to digital conversion
  72:../../libDaisy//src/per/adc.h **** */
  73:../../libDaisy//src/per/adc.h **** class AdcHandle
  74:../../libDaisy//src/per/adc.h **** {
  75:../../libDaisy//src/per/adc.h ****   public:
  76:../../libDaisy//src/per/adc.h ****     /** Supported oversampling amounts */
  77:../../libDaisy//src/per/adc.h ****     enum OverSampling
  78:../../libDaisy//src/per/adc.h ****     {
  79:../../libDaisy//src/per/adc.h ****         OVS_NONE, /**< & */
  80:../../libDaisy//src/per/adc.h ****         OVS_4,    /**< & */
  81:../../libDaisy//src/per/adc.h ****         OVS_8,    /**< & */
  82:../../libDaisy//src/per/adc.h ****         OVS_16,   /**< & */
  83:../../libDaisy//src/per/adc.h ****         OVS_32,   /**< & */
  84:../../libDaisy//src/per/adc.h ****         OVS_64,   /**< & */
  85:../../libDaisy//src/per/adc.h ****         OVS_128,  /**< & */
  86:../../libDaisy//src/per/adc.h ****         OVS_256,  /**< & */
  87:../../libDaisy//src/per/adc.h ****         OVS_512,  /**< & */
  88:../../libDaisy//src/per/adc.h ****         OVS_1024, /**< & */
  89:../../libDaisy//src/per/adc.h ****         OVS_LAST, /**< & */
  90:../../libDaisy//src/per/adc.h ****     };
  91:../../libDaisy//src/per/adc.h **** 
  92:../../libDaisy//src/per/adc.h ****     AdcHandle() {}
  93:../../libDaisy//src/per/adc.h ****     ~AdcHandle() {}
  86              		.loc 6 93 5 is_stmt 1 view .LVU11
  87              		.loc 6 93 5 is_stmt 0 view .LVU12
  88              	.LBE499:
  89              	.LBB500:
  90              	.LBI500:
  91              		.file 7 "../../libDaisy//src/hid/audio.h"
   1:../../libDaisy//src/hid/audio.h **** #ifndef DSY_AUDIO_H
   2:../../libDaisy//src/hid/audio.h **** #define DSY_AUDIO_H /**< & */
   3:../../libDaisy//src/hid/audio.h **** 
   4:../../libDaisy//src/hid/audio.h **** #include "per/sai.h"
   5:../../libDaisy//src/hid/audio.h **** 
   6:../../libDaisy//src/hid/audio.h **** namespace daisy
   7:../../libDaisy//src/hid/audio.h **** {
   8:../../libDaisy//src/hid/audio.h **** /** @brief Audio Engine Handle
   9:../../libDaisy//src/hid/audio.h ****  *  @ingroup audio 
  10:../../libDaisy//src/hid/audio.h ****  *  @details This class allows for higher level access to an audio engine.
  11:../../libDaisy//src/hid/audio.h ****  *           If you're using a SOM like the DaisySeed or DaisyPatchSM (or any 
  12:../../libDaisy//src/hid/audio.h ****  *            board that includes one of those objects) then the intialization
  13:../../libDaisy//src/hid/audio.h ****  *            is already taken  care of.
  14:../../libDaisy//src/hid/audio.h ****  *           If you're setting up your own custom hardware, or need to make changes
  15:../../libDaisy//src/hid/audio.h ****  *           you will have to take the following steps:
  16:../../libDaisy//src/hid/audio.h ****  *             1. Create and Initialize an SaiHandle or two depending on your requirements
ARM GAS  /var/folders/hl/qgbwny5j0fd895c2c41bk3tw0000gp/T//ccBxTnvh.s 			page 8


  17:../../libDaisy//src/hid/audio.h ****  *             2. Initialize the Audio Handle with the desired settings and the Initialized SaiHand
  18:../../libDaisy//src/hid/audio.h ****  *             3. If the connected codec requires special configuration or initialization, do so
  19:../../libDaisy//src/hid/audio.h ****  *             4. Write a callback method using either the AudioCallback or the InterleavingAudioCa
  20:../../libDaisy//src/hid/audio.h ****  *             5. Start the Audio using one of the StartAudio function
  21:../../libDaisy//src/hid/audio.h ****  */
  22:../../libDaisy//src/hid/audio.h **** class AudioHandle
  23:../../libDaisy//src/hid/audio.h **** {
  24:../../libDaisy//src/hid/audio.h ****   public:
  25:../../libDaisy//src/hid/audio.h ****     /** Manually configurable details about the Audio Engine */
  26:../../libDaisy//src/hid/audio.h ****     /** TODO: Figure out how to get samplerate in here. */
  27:../../libDaisy//src/hid/audio.h ****     struct Config
  28:../../libDaisy//src/hid/audio.h ****     {
  29:../../libDaisy//src/hid/audio.h ****         /** number of samples to process per callback */
  30:../../libDaisy//src/hid/audio.h ****         size_t blocksize;
  31:../../libDaisy//src/hid/audio.h **** 
  32:../../libDaisy//src/hid/audio.h ****         /**< Sample rate of audio */
  33:../../libDaisy//src/hid/audio.h ****         SaiHandle::Config::SampleRate samplerate;
  34:../../libDaisy//src/hid/audio.h **** 
  35:../../libDaisy//src/hid/audio.h ****         /** factor for adjustment before and after callback for hardware that may have extra headro
  36:../../libDaisy//src/hid/audio.h ****         float postgain;
  37:../../libDaisy//src/hid/audio.h **** 
  38:../../libDaisy//src/hid/audio.h ****         /** factor for additional one-sided compensation to audio path for hardware that may
  39:../../libDaisy//src/hid/audio.h ****          *  have unequal input/output ranges
  40:../../libDaisy//src/hid/audio.h ****          */
  41:../../libDaisy//src/hid/audio.h ****         float output_compensation;
  42:../../libDaisy//src/hid/audio.h **** 
  43:../../libDaisy//src/hid/audio.h ****         /** Sets default values for config struct */
  44:../../libDaisy//src/hid/audio.h ****         Config()
  45:../../libDaisy//src/hid/audio.h ****         : blocksize(48),
  46:../../libDaisy//src/hid/audio.h ****           samplerate(SaiHandle::Config::SampleRate::SAI_48KHZ),
  47:../../libDaisy//src/hid/audio.h ****           postgain(1.f),
  48:../../libDaisy//src/hid/audio.h ****           output_compensation(1.f)
  49:../../libDaisy//src/hid/audio.h ****         {
  50:../../libDaisy//src/hid/audio.h ****         }
  51:../../libDaisy//src/hid/audio.h ****     };
  52:../../libDaisy//src/hid/audio.h **** 
  53:../../libDaisy//src/hid/audio.h ****     enum class Result
  54:../../libDaisy//src/hid/audio.h ****     {
  55:../../libDaisy//src/hid/audio.h ****         OK,
  56:../../libDaisy//src/hid/audio.h ****         ERR,
  57:../../libDaisy//src/hid/audio.h ****     };
  58:../../libDaisy//src/hid/audio.h **** 
  59:../../libDaisy//src/hid/audio.h ****     /** Non-Interleaving input buffer
  60:../../libDaisy//src/hid/audio.h ****      * Buffer arranged by float[chn][sample] 
  61:../../libDaisy//src/hid/audio.h ****      * const so that the user can't modify the input
  62:../../libDaisy//src/hid/audio.h ****      */
  63:../../libDaisy//src/hid/audio.h ****     typedef const float* const* InputBuffer;
  64:../../libDaisy//src/hid/audio.h **** 
  65:../../libDaisy//src/hid/audio.h ****     /** Non-Interleaving output buffer
  66:../../libDaisy//src/hid/audio.h ****      * Arranged by float[chn][sample] 
  67:../../libDaisy//src/hid/audio.h ****      */
  68:../../libDaisy//src/hid/audio.h ****     typedef float** OutputBuffer;
  69:../../libDaisy//src/hid/audio.h **** 
  70:../../libDaisy//src/hid/audio.h ****     /** Type for a Non-Interleaving audio callback 
  71:../../libDaisy//src/hid/audio.h ****      * Non-Interleaving audio callbacks in daisy will be of this type
  72:../../libDaisy//src/hid/audio.h ****      */
  73:../../libDaisy//src/hid/audio.h ****     typedef void (*AudioCallback)(InputBuffer  in,
ARM GAS  /var/folders/hl/qgbwny5j0fd895c2c41bk3tw0000gp/T//ccBxTnvh.s 			page 9


  74:../../libDaisy//src/hid/audio.h ****                                   OutputBuffer out,
  75:../../libDaisy//src/hid/audio.h ****                                   size_t       size);
  76:../../libDaisy//src/hid/audio.h **** 
  77:../../libDaisy//src/hid/audio.h ****     /** Interleaving Input buffer
  78:../../libDaisy//src/hid/audio.h ****      ** audio is prepared as { L0, R0, L1, R1, . . . LN, RN }]
  79:../../libDaisy//src/hid/audio.h ****      ** this is const, as the user shouldn't modify it
  80:../../libDaisy//src/hid/audio.h ****     */
  81:../../libDaisy//src/hid/audio.h ****     typedef const float* InterleavingInputBuffer;
  82:../../libDaisy//src/hid/audio.h **** 
  83:../../libDaisy//src/hid/audio.h ****     /** Interleaving Output buffer 
  84:../../libDaisy//src/hid/audio.h ****      ** audio is prepared as { L0, R0, L1, R1, . . . LN, RN }
  85:../../libDaisy//src/hid/audio.h ****     */
  86:../../libDaisy//src/hid/audio.h ****     typedef float* InterleavingOutputBuffer;
  87:../../libDaisy//src/hid/audio.h **** 
  88:../../libDaisy//src/hid/audio.h ****     /** Interleaving Audio Callback 
  89:../../libDaisy//src/hid/audio.h ****      * Interleaving audio callbacks in daisy must be of this type
  90:../../libDaisy//src/hid/audio.h ****      */
  91:../../libDaisy//src/hid/audio.h ****     typedef void (*InterleavingAudioCallback)(InterleavingInputBuffer  in,
  92:../../libDaisy//src/hid/audio.h ****                                               InterleavingOutputBuffer out,
  93:../../libDaisy//src/hid/audio.h ****                                               size_t                   size);
  94:../../libDaisy//src/hid/audio.h **** 
  95:../../libDaisy//src/hid/audio.h ****     AudioHandle() : pimpl_(nullptr) {}
  96:../../libDaisy//src/hid/audio.h ****     ~AudioHandle() {}
  92              		.loc 7 96 5 is_stmt 1 view .LVU13
  93              		.loc 7 96 5 is_stmt 0 view .LVU14
  94              	.LBE500:
  95              	.LBB501:
  96              	.LBI501:
  97              		.file 8 "../../libDaisy//src/sys/system.h"
   1:../../libDaisy//src/sys/system.h **** #ifndef DSY_SYSTEM_H
   2:../../libDaisy//src/sys/system.h **** #define DSY_SYSTEM_H
   3:../../libDaisy//src/sys/system.h **** 
   4:../../libDaisy//src/sys/system.h **** #ifndef UNIT_TEST // for unit tests, a dummy implementation is provided below
   5:../../libDaisy//src/sys/system.h **** 
   6:../../libDaisy//src/sys/system.h **** #include <cstdint>
   7:../../libDaisy//src/sys/system.h **** #include "per/tim.h"
   8:../../libDaisy//src/sys/system.h **** 
   9:../../libDaisy//src/sys/system.h **** namespace daisy
  10:../../libDaisy//src/sys/system.h **** {
  11:../../libDaisy//src/sys/system.h **** /** A handle for interacting with the Core System. 
  12:../../libDaisy//src/sys/system.h ****  ** This includes the Clock tree, MPU, global DMA initialization,
  13:../../libDaisy//src/sys/system.h ****  ** cache handling, and any other necessary global initiailzation
  14:../../libDaisy//src/sys/system.h ****  **
  15:../../libDaisy//src/sys/system.h ****  ** @author shensley
  16:../../libDaisy//src/sys/system.h ****  ** @ingroup system
  17:../../libDaisy//src/sys/system.h ****  */
  18:../../libDaisy//src/sys/system.h **** class System
  19:../../libDaisy//src/sys/system.h **** {
  20:../../libDaisy//src/sys/system.h ****   public:
  21:../../libDaisy//src/sys/system.h ****     /** Contains settings for initializing the System */
  22:../../libDaisy//src/sys/system.h ****     struct Config
  23:../../libDaisy//src/sys/system.h ****     {
  24:../../libDaisy//src/sys/system.h ****         /** Specifies the system clock frequency that feeds APB/AHB clocks, etc. */
  25:../../libDaisy//src/sys/system.h ****         enum class SysClkFreq
  26:../../libDaisy//src/sys/system.h ****         {
  27:../../libDaisy//src/sys/system.h ****             FREQ_400MHZ,
  28:../../libDaisy//src/sys/system.h ****             FREQ_480MHZ,
ARM GAS  /var/folders/hl/qgbwny5j0fd895c2c41bk3tw0000gp/T//ccBxTnvh.s 			page 10


  29:../../libDaisy//src/sys/system.h ****         };
  30:../../libDaisy//src/sys/system.h **** 
  31:../../libDaisy//src/sys/system.h ****         /** Method to call on the struct to set to defaults
  32:../../libDaisy//src/sys/system.h ****          ** CPU Freq set to 400MHz
  33:../../libDaisy//src/sys/system.h ****          ** Cache Enabled 
  34:../../libDaisy//src/sys/system.h ****          ** */
  35:../../libDaisy//src/sys/system.h ****         void Defaults()
  36:../../libDaisy//src/sys/system.h ****         {
  37:../../libDaisy//src/sys/system.h ****             cpu_freq    = SysClkFreq::FREQ_400MHZ;
  38:../../libDaisy//src/sys/system.h ****             use_dcache  = true;
  39:../../libDaisy//src/sys/system.h ****             use_icache  = true;
  40:../../libDaisy//src/sys/system.h ****             skip_clocks = false;
  41:../../libDaisy//src/sys/system.h ****         }
  42:../../libDaisy//src/sys/system.h **** 
  43:../../libDaisy//src/sys/system.h ****         /** Method to call on the struct to set to boost mode:
  44:../../libDaisy//src/sys/system.h ****          ** CPU Freq set to 480MHz
  45:../../libDaisy//src/sys/system.h ****          ** Cache Enabled 
  46:../../libDaisy//src/sys/system.h ****          ** */
  47:../../libDaisy//src/sys/system.h ****         void Boost()
  48:../../libDaisy//src/sys/system.h ****         {
  49:../../libDaisy//src/sys/system.h ****             cpu_freq    = SysClkFreq::FREQ_480MHZ;
  50:../../libDaisy//src/sys/system.h ****             use_dcache  = true;
  51:../../libDaisy//src/sys/system.h ****             use_icache  = true;
  52:../../libDaisy//src/sys/system.h ****             skip_clocks = false;
  53:../../libDaisy//src/sys/system.h ****         }
  54:../../libDaisy//src/sys/system.h **** 
  55:../../libDaisy//src/sys/system.h ****         SysClkFreq cpu_freq;
  56:../../libDaisy//src/sys/system.h ****         bool       use_dcache;
  57:../../libDaisy//src/sys/system.h ****         bool       use_icache;
  58:../../libDaisy//src/sys/system.h ****         bool       skip_clocks;
  59:../../libDaisy//src/sys/system.h ****     };
  60:../../libDaisy//src/sys/system.h **** 
  61:../../libDaisy//src/sys/system.h ****     /** Describes the different regions of memory available to the Daisy
  62:../../libDaisy//src/sys/system.h ****      * 
  63:../../libDaisy//src/sys/system.h ****      */
  64:../../libDaisy//src/sys/system.h ****     enum MemoryRegion
  65:../../libDaisy//src/sys/system.h ****     {
  66:../../libDaisy//src/sys/system.h ****         INTERNAL_FLASH = 0,
  67:../../libDaisy//src/sys/system.h ****         ITCMRAM,
  68:../../libDaisy//src/sys/system.h ****         DTCMRAM,
  69:../../libDaisy//src/sys/system.h ****         SRAM_D1,
  70:../../libDaisy//src/sys/system.h ****         SRAM_D2,
  71:../../libDaisy//src/sys/system.h ****         SRAM_D3,
  72:../../libDaisy//src/sys/system.h ****         SDRAM,
  73:../../libDaisy//src/sys/system.h ****         QSPI,
  74:../../libDaisy//src/sys/system.h ****         INVALID_ADDRESS,
  75:../../libDaisy//src/sys/system.h ****     };
  76:../../libDaisy//src/sys/system.h **** 
  77:../../libDaisy//src/sys/system.h ****     System() {}
  78:../../libDaisy//src/sys/system.h ****     ~System() {}
  98              		.loc 8 78 5 is_stmt 1 view .LVU15
  99              		.loc 8 78 5 is_stmt 0 view .LVU16
 100              	.LBE501:
 101              		.loc 2 65 26 view .LVU17
 102 0000 7047     		bx	lr
 103              		.cfi_endproc
 104              	.LFE2529:
ARM GAS  /var/folders/hl/qgbwny5j0fd895c2c41bk3tw0000gp/T//ccBxTnvh.s 			page 11


 106              		.weak	_ZN5daisy8patch_sm12DaisyPatchSMD1Ev
 107              		.thumb_set _ZN5daisy8patch_sm12DaisyPatchSMD1Ev,_ZN5daisy8patch_sm12DaisyPatchSMD2Ev
 108 0002 00BF     		.section	.text._ZN7daisysp8DiffuserD2Ev,"axG",%progbits,_ZN7daisysp8DiffuserD5Ev,comdat
 109              		.align	1
 110              		.p2align 2,,3
 111              		.weak	_ZN7daisysp8DiffuserD2Ev
 112              		.syntax unified
 113              		.thumb
 114              		.thumb_func
 115              		.fpu fpv5-d16
 117              	_ZN7daisysp8DiffuserD2Ev:
 118              	.LVL2:
 119              	.LFB4844:
 120              		.file 9 "diffuser.h"
   1:diffuser.h    **** #pragma once
   2:diffuser.h    **** #ifndef DSY_DIFFUSER_H
   3:diffuser.h    **** #define DSY_DIFFUSER_H
   4:diffuser.h    **** 
   5:diffuser.h    **** #include "fx_engine.h"
   6:diffuser.h    **** #include "Utility/dsp.h"
   7:diffuser.h    **** 
   8:diffuser.h    **** #include <stdint.h>
   9:diffuser.h    **** #ifdef __cplusplus
  10:diffuser.h    **** 
  11:diffuser.h    **** /** @file diffuser.h */
  12:diffuser.h    **** 
  13:diffuser.h    **** namespace daisysp
  14:diffuser.h    **** {
  15:diffuser.h    **** /**  
  16:diffuser.h    ****        @brief Granular Diffuser
  17:diffuser.h    **** 	   @author Ben Sergentanis
  18:diffuser.h    **** 	   @date Jan 2021
  19:diffuser.h    **** 	   Ported from pichenettes/eurorack/plaits/dsp/fx/diffuser.h \n
  20:diffuser.h    **** 	   to an independent module. \n
  21:diffuser.h    **** 	   Original code written by Emilie Gillet in 2016. \n
  22:diffuser.h    **** */
  23:diffuser.h    **** class Diffuser
  24:diffuser.h    **** {
  25:diffuser.h    ****   public:
  26:diffuser.h    ****     Diffuser() {}
  27:diffuser.h    ****     ~Diffuser() {}
 121              		.loc 9 27 5 is_stmt 1 view -0
 122              		.cfi_startproc
 123              		@ args = 0, pretend = 0, frame = 0
 124              		@ frame_needed = 0, uses_anonymous_args = 0
 125              		@ link register save eliminated.
 126              	.LBB502:
 127              	.LBI502:
 128              		.file 10 "fx_engine.h"
   1:fx_engine.h   **** #pragma once
   2:fx_engine.h   **** #ifndef DSY_FX_ENGINE_H
   3:fx_engine.h   **** #define DSY_FX_ENGINE_H
   4:fx_engine.h   **** 
   5:fx_engine.h   **** #include <algorithm>
   6:fx_engine.h   **** #include <stdint.h>
   7:fx_engine.h   **** #include "Utility/dsp.h"
   8:fx_engine.h   **** #ifdef __cplusplus
ARM GAS  /var/folders/hl/qgbwny5j0fd895c2c41bk3tw0000gp/T//ccBxTnvh.s 			page 12


   9:fx_engine.h   **** 
  10:fx_engine.h   **** #define JOIN(lhs, rhs) JOIN_1(lhs, rhs)
  11:fx_engine.h   **** #define JOIN_1(lhs, rhs) JOIN_2(lhs, rhs)
  12:fx_engine.h   **** #define JOIN_2(lhs, rhs) lhs##rhs
  13:fx_engine.h   **** 
  14:fx_engine.h   **** #define STATIC_ASSERT(expression, message)                                  \
  15:fx_engine.h   ****     struct JOIN(__static_assertion_at_line_, __LINE__)                      \
  16:fx_engine.h   ****     {                                                                       \
  17:fx_engine.h   ****         impl::StaticAssertion<static_cast<bool>((expression))>              \
  18:fx_engine.h   ****             JOIN(JOIN(JOIN(STATIC_ASSERTION_FAILED_AT_LINE_, __LINE__), _), \
  19:fx_engine.h   ****                  message);                                                  \
  20:fx_engine.h   ****     };
  21:fx_engine.h   **** 
  22:fx_engine.h   **** /** @file fx_engine.h */
  23:fx_engine.h   **** namespace impl
  24:fx_engine.h   **** {
  25:fx_engine.h   **** template <bool>
  26:fx_engine.h   **** struct StaticAssertion;
  27:fx_engine.h   **** 
  28:fx_engine.h   **** template <>
  29:fx_engine.h   **** struct StaticAssertion<true>
  30:fx_engine.h   **** {
  31:fx_engine.h   **** }; // StaticAssertion<true>
  32:fx_engine.h   **** 
  33:fx_engine.h   **** template <int i>
  34:fx_engine.h   **** struct StaticAssertionTest
  35:fx_engine.h   **** {
  36:fx_engine.h   **** }; // StaticAssertionTest<int>
  37:fx_engine.h   **** 
  38:fx_engine.h   **** } // namespace impl
  39:fx_engine.h   **** 
  40:fx_engine.h   **** namespace daisysp
  41:fx_engine.h   **** {
  42:fx_engine.h   **** #define TAIL , -1
  43:fx_engine.h   **** 
  44:fx_engine.h   **** enum Format
  45:fx_engine.h   **** {
  46:fx_engine.h   ****     FORMAT_12_BIT,
  47:fx_engine.h   ****     FORMAT_16_BIT,
  48:fx_engine.h   ****     FORMAT_32_BIT
  49:fx_engine.h   **** };
  50:fx_engine.h   **** 
  51:fx_engine.h   **** enum LFOIndex
  52:fx_engine.h   **** {
  53:fx_engine.h   ****     LFO_1,
  54:fx_engine.h   ****     LFO_2
  55:fx_engine.h   **** };
  56:fx_engine.h   **** 
  57:fx_engine.h   **** static inline int32_t Clip16(int32_t x)
  58:fx_engine.h   **** {
  59:fx_engine.h   ****     if(x < -32768)
  60:fx_engine.h   ****     {
  61:fx_engine.h   ****         return -32768;
  62:fx_engine.h   ****     }
  63:fx_engine.h   ****     else if(x > 32767)
  64:fx_engine.h   ****     {
  65:fx_engine.h   ****         return 32767;
ARM GAS  /var/folders/hl/qgbwny5j0fd895c2c41bk3tw0000gp/T//ccBxTnvh.s 			page 13


  66:fx_engine.h   ****     }
  67:fx_engine.h   ****     else
  68:fx_engine.h   ****     {
  69:fx_engine.h   ****         return x;
  70:fx_engine.h   ****     }
  71:fx_engine.h   **** }
  72:fx_engine.h   **** 
  73:fx_engine.h   **** template <Format format>
  74:fx_engine.h   **** struct DataType
  75:fx_engine.h   **** {
  76:fx_engine.h   **** };
  77:fx_engine.h   **** 
  78:fx_engine.h   **** template <>
  79:fx_engine.h   **** struct DataType<FORMAT_12_BIT>
  80:fx_engine.h   **** {
  81:fx_engine.h   ****     typedef uint16_t T;
  82:fx_engine.h   **** 
  83:fx_engine.h   ****     static inline float Decompress(T value)
  84:fx_engine.h   ****     {
  85:fx_engine.h   ****         return static_cast<float>(static_cast<int16_t>(value)) / 4096.0f;
  86:fx_engine.h   ****     }
  87:fx_engine.h   **** 
  88:fx_engine.h   ****     static inline T Compress(float value)
  89:fx_engine.h   ****     {
  90:fx_engine.h   ****         return static_cast<uint16_t>(
  91:fx_engine.h   ****             Clip16(static_cast<int32_t>(value * 4096.0f)));
  92:fx_engine.h   ****     }
  93:fx_engine.h   **** };
  94:fx_engine.h   **** 
  95:fx_engine.h   **** template <>
  96:fx_engine.h   **** struct DataType<FORMAT_16_BIT>
  97:fx_engine.h   **** {
  98:fx_engine.h   ****     typedef uint16_t T;
  99:fx_engine.h   **** 
 100:fx_engine.h   ****     static inline float Decompress(T value)
 101:fx_engine.h   ****     {
 102:fx_engine.h   ****         return static_cast<float>(static_cast<int16_t>(value)) / 32768.0f;
 103:fx_engine.h   ****     }
 104:fx_engine.h   **** 
 105:fx_engine.h   ****     static inline T Compress(float value)
 106:fx_engine.h   ****     {
 107:fx_engine.h   ****         return static_cast<uint16_t>(
 108:fx_engine.h   ****             Clip16(static_cast<int32_t>(value * 32768.0f)));
 109:fx_engine.h   ****     }
 110:fx_engine.h   **** };
 111:fx_engine.h   **** 
 112:fx_engine.h   **** template <>
 113:fx_engine.h   **** struct DataType<FORMAT_32_BIT>
 114:fx_engine.h   **** {
 115:fx_engine.h   ****     typedef float T;
 116:fx_engine.h   **** 
 117:fx_engine.h   ****     static inline float Decompress(T value)
 118:fx_engine.h   ****     {
 119:fx_engine.h   ****         return value;
 120:fx_engine.h   ****         ;
 121:fx_engine.h   ****     }
 122:fx_engine.h   **** 
ARM GAS  /var/folders/hl/qgbwny5j0fd895c2c41bk3tw0000gp/T//ccBxTnvh.s 			page 14


 123:fx_engine.h   ****     static inline T Compress(float value) { return value; }
 124:fx_engine.h   **** };
 125:fx_engine.h   **** 
 126:fx_engine.h   **** /**  
 127:fx_engine.h   ****        @brief Base Class for building reverbs
 128:fx_engine.h   **** 	   @author Ben Sergentanis
 129:fx_engine.h   **** 	   @date Jan 2021
 130:fx_engine.h   **** 	   Ported from pichenettes/eurorack/plaits/dsp/fx/fx_engine.h \n
 131:fx_engine.h   **** 	   to an independent module. \n
 132:fx_engine.h   **** 	   Original code written by Emilie Gillet in 2014. \n
 133:fx_engine.h   **** */
 134:fx_engine.h   **** template <size_t size, Format format = FORMAT_12_BIT>
 135:fx_engine.h   **** class FxEngine
 136:fx_engine.h   **** {
 137:fx_engine.h   ****   public:
 138:fx_engine.h   ****     typedef typename DataType<format>::T T;
 139:fx_engine.h   ****     FxEngine() {}
 140:fx_engine.h   ****     ~FxEngine() {}
 129              		.loc 10 140 5 view .LVU19
 130              		.loc 10 140 5 is_stmt 0 view .LVU20
 131              	.LBE502:
 132              		.loc 9 27 18 view .LVU21
 133 0000 7047     		bx	lr
 134              		.cfi_endproc
 135              	.LFE4844:
 137              		.weak	_ZN7daisysp8DiffuserD1Ev
 138              		.thumb_set _ZN7daisysp8DiffuserD1Ev,_ZN7daisysp8DiffuserD2Ev
 139 0002 00BF     		.section	.text.__tcf_0,"ax",%progbits
 140              		.align	1
 141              		.p2align 2,,3
 142              		.syntax unified
 143              		.thumb
 144              		.thumb_func
 145              		.fpu fpv5-d16
 147              	__tcf_0:
 148              	.LFB5421:
 149              		.file 11 "Twines.cpp"
   1:Twines.cpp    **** #include "daisy_patch_sm.h"
   2:Twines.cpp    **** #include "daisysp.h"
   3:Twines.cpp    **** #include "daisy_bed.h"
   4:Twines.cpp    **** #include "Grain.h"
   5:Twines.cpp    **** #include "diffuser.h"
   6:Twines.cpp    **** 
   7:Twines.cpp    **** using namespace daisy;
   8:Twines.cpp    **** using namespace patch_sm;
   9:Twines.cpp    **** using namespace daisysp;
  10:Twines.cpp    **** 
  11:Twines.cpp    **** DaisyPatchSM 	hw;
  12:Twines.cpp    **** Diffuser		diffuser;
  13:Twines.cpp    **** 
  14:Twines.cpp    **** const int   kCPUReportInterval  = 500;                      // In ms
  15:Twines.cpp    **** const int   kBufferDuration     = 10;                       // In seconds
  16:Twines.cpp    **** const int   kBufferSize         = 48000 * kBufferDuration;  // Assume 48kHz sample rate
  17:Twines.cpp    **** 
  18:Twines.cpp    **** const int kGrainCount = 5;
  19:Twines.cpp    **** static graindelay::Grain grains[kGrainCount];
 150              		.loc 11 19 26 is_stmt 1 view -0
ARM GAS  /var/folders/hl/qgbwny5j0fd895c2c41bk3tw0000gp/T//ccBxTnvh.s 			page 15


 151              		.cfi_startproc
 152              		@ args = 0, pretend = 0, frame = 0
 153              		@ frame_needed = 0, uses_anonymous_args = 0
 154              		@ link register save eliminated.
 155              		.loc 11 19 26 is_stmt 0 view .LVU23
 156 0000 7047     		bx	lr
 157              		.cfi_endproc
 158              	.LFE5421:
 160 0002 00BF     		.section	.text._ZN5daisy8patch_sm7InitBedEv,"ax",%progbits
 161              		.align	1
 162              		.p2align 2,,3
 163              		.global	_ZN5daisy8patch_sm7InitBedEv
 164              		.syntax unified
 165              		.thumb
 166              		.thumb_func
 167              		.fpu fpv5-d16
 169              	_ZN5daisy8patch_sm7InitBedEv:
 170              	.LFB4793:
 171              		.file 12 "daisy_bed.h"
   1:daisy_bed.h   **** #pragma once
   2:daisy_bed.h   **** 
   3:daisy_bed.h   **** #include "daisy.h"
   4:daisy_bed.h   **** #include "daisysp.h"
   5:daisy_bed.h   **** #include "per/gpio.h"
   6:daisy_bed.h   **** #include "daisy_patch_sm.h"
   7:daisy_bed.h   **** 
   8:daisy_bed.h   **** namespace daisy
   9:daisy_bed.h   **** {
  10:daisy_bed.h   **** namespace patch_sm
  11:daisy_bed.h   **** {
  12:daisy_bed.h   ****     // simple stupid led set up
  13:daisy_bed.h   ****     GPIO    gen_led1;
  14:daisy_bed.h   ****     GPIO    gen_led2;
  15:daisy_bed.h   ****     GPIO    cv_led1;
  16:daisy_bed.h   ****     GPIO    cv_led2;
  17:daisy_bed.h   ****     GPIO    gate_in_led;
  18:daisy_bed.h   ****     GPIO    gate_out_led;
  19:daisy_bed.h   **** 
  20:daisy_bed.h   ****     // generic leds
  21:daisy_bed.h   ****     dsy_gpio_pin oldPinD7 = DaisyPatchSM::D7;
  22:daisy_bed.h   ****     Pin newPinD7 = Pin(static_cast<GPIOPort>(oldPinD7.port), oldPinD7.pin);
  23:daisy_bed.h   ****     dsy_gpio_pin oldPinA9 = DaisyPatchSM::A9;
  24:daisy_bed.h   ****     Pin newPinA9 = Pin(static_cast<GPIOPort>(oldPinA9.port), oldPinA9.pin);
  25:daisy_bed.h   **** 
  26:daisy_bed.h   ****     // cv leds
  27:daisy_bed.h   ****     dsy_gpio_pin oldPinD2 = DaisyPatchSM::D2;
  28:daisy_bed.h   ****     Pin newPinD2 = Pin(static_cast<GPIOPort>(oldPinD2.port), oldPinD2.pin);
  29:daisy_bed.h   ****     dsy_gpio_pin oldPinD1 = DaisyPatchSM::D1;
  30:daisy_bed.h   ****     Pin newPinD1 = Pin(static_cast<GPIOPort>(oldPinD1.port), oldPinD1.pin);
  31:daisy_bed.h   **** 
  32:daisy_bed.h   ****     // gate leds
  33:daisy_bed.h   ****     dsy_gpio_pin oldPinD3 = DaisyPatchSM::D3;
  34:daisy_bed.h   ****     Pin newPinD3 = Pin(static_cast<GPIOPort>(oldPinD3.port), oldPinD3.pin);
  35:daisy_bed.h   ****     dsy_gpio_pin oldPinD6 = DaisyPatchSM::D6;
  36:daisy_bed.h   ****     Pin newPinD6 = Pin(static_cast<GPIOPort>(oldPinD6.port), oldPinD6.pin);
  37:daisy_bed.h   **** 
  38:daisy_bed.h   ****     // remap
ARM GAS  /var/folders/hl/qgbwny5j0fd895c2c41bk3tw0000gp/T//ccBxTnvh.s 			page 16


  39:daisy_bed.h   ****      
  40:daisy_bed.h   ****     // map buttons
  41:daisy_bed.h   ****     Switch      b1,b2;
  42:daisy_bed.h   **** 
  43:daisy_bed.h   ****     void InitBed(){
 172              		.loc 12 43 19 is_stmt 1 view -0
 173              		.cfi_startproc
 174              		@ args = 0, pretend = 0, frame = 8
 175              		@ frame_needed = 0, uses_anonymous_args = 0
  44:daisy_bed.h   ****         // leds
  45:daisy_bed.h   ****         gen_led1.Init(newPinD7, GPIO::Mode::OUTPUT);
 176              		.loc 12 45 9 view .LVU25
  43:daisy_bed.h   ****         // leds
 177              		.loc 12 43 19 is_stmt 0 view .LVU26
 178 0000 10B5     		push	{r4, lr}
 179              		.cfi_def_cfa_offset 8
 180              		.cfi_offset 4, -8
 181              		.cfi_offset 14, -4
 182              		.loc 12 45 22 view .LVU27
 183 0002 2549     		ldr	r1, .L8
  43:daisy_bed.h   ****         // leds
 184              		.loc 12 43 19 view .LVU28
 185 0004 84B0     		sub	sp, sp, #16
 186              		.cfi_def_cfa_offset 24
 187              		.loc 12 45 22 view .LVU29
 188 0006 0024     		movs	r4, #0
 189 0008 0122     		movs	r2, #1
 190 000a 0968     		ldr	r1, [r1]
 191 000c 2346     		mov	r3, r4
 192 000e 2348     		ldr	r0, .L8+4
 193 0010 0094     		str	r4, [sp]
 194 0012 FFF7FEFF 		bl	_ZN5daisy4GPIO4InitENS_3PinENS0_4ModeENS0_4PullENS0_5SpeedE
 195              	.LVL3:
  46:daisy_bed.h   ****         gen_led2.Init(newPinA9, GPIO::Mode::OUTPUT);
 196              		.loc 12 46 9 is_stmt 1 view .LVU30
 197              		.loc 12 46 22 is_stmt 0 view .LVU31
 198 0016 2249     		ldr	r1, .L8+8
 199 0018 2346     		mov	r3, r4
 200 001a 0122     		movs	r2, #1
 201 001c 0968     		ldr	r1, [r1]
 202 001e 2148     		ldr	r0, .L8+12
 203 0020 0094     		str	r4, [sp]
 204 0022 FFF7FEFF 		bl	_ZN5daisy4GPIO4InitENS_3PinENS0_4ModeENS0_4PullENS0_5SpeedE
 205              	.LVL4:
  47:daisy_bed.h   ****         cv_led1.Init(newPinD2, GPIO::Mode::OUTPUT);
 206              		.loc 12 47 9 is_stmt 1 view .LVU32
 207              		.loc 12 47 21 is_stmt 0 view .LVU33
 208 0026 2049     		ldr	r1, .L8+16
 209 0028 2346     		mov	r3, r4
 210 002a 0122     		movs	r2, #1
 211 002c 0968     		ldr	r1, [r1]
 212 002e 1F48     		ldr	r0, .L8+20
 213 0030 0094     		str	r4, [sp]
 214 0032 FFF7FEFF 		bl	_ZN5daisy4GPIO4InitENS_3PinENS0_4ModeENS0_4PullENS0_5SpeedE
 215              	.LVL5:
  48:daisy_bed.h   ****         cv_led2.Init(newPinD1, GPIO::Mode::OUTPUT);
 216              		.loc 12 48 9 is_stmt 1 view .LVU34
ARM GAS  /var/folders/hl/qgbwny5j0fd895c2c41bk3tw0000gp/T//ccBxTnvh.s 			page 17


 217              		.loc 12 48 21 is_stmt 0 view .LVU35
 218 0036 1E49     		ldr	r1, .L8+24
 219 0038 2346     		mov	r3, r4
 220 003a 0122     		movs	r2, #1
 221 003c 0968     		ldr	r1, [r1]
 222 003e 1D48     		ldr	r0, .L8+28
 223 0040 0094     		str	r4, [sp]
 224 0042 FFF7FEFF 		bl	_ZN5daisy4GPIO4InitENS_3PinENS0_4ModeENS0_4PullENS0_5SpeedE
 225              	.LVL6:
  49:daisy_bed.h   ****         gate_in_led.Init(newPinD3, GPIO::Mode::OUTPUT);
 226              		.loc 12 49 9 is_stmt 1 view .LVU36
 227              		.loc 12 49 25 is_stmt 0 view .LVU37
 228 0046 1C49     		ldr	r1, .L8+32
 229 0048 2346     		mov	r3, r4
 230 004a 0122     		movs	r2, #1
 231 004c 0968     		ldr	r1, [r1]
 232 004e 1B48     		ldr	r0, .L8+36
 233 0050 0094     		str	r4, [sp]
 234 0052 FFF7FEFF 		bl	_ZN5daisy4GPIO4InitENS_3PinENS0_4ModeENS0_4PullENS0_5SpeedE
 235              	.LVL7:
  50:daisy_bed.h   ****         gate_out_led.Init(newPinD6, GPIO::Mode::OUTPUT);
 236              		.loc 12 50 9 is_stmt 1 view .LVU38
 237              		.loc 12 50 26 is_stmt 0 view .LVU39
 238 0056 1A49     		ldr	r1, .L8+40
 239 0058 2346     		mov	r3, r4
 240 005a 0122     		movs	r2, #1
 241 005c 0968     		ldr	r1, [r1]
 242 005e 1948     		ldr	r0, .L8+44
 243 0060 0094     		str	r4, [sp]
 244 0062 FFF7FEFF 		bl	_ZN5daisy4GPIO4InitENS_3PinENS0_4ModeENS0_4PullENS0_5SpeedE
 245              	.LVL8:
  51:daisy_bed.h   **** 
  52:daisy_bed.h   ****         // buttons
  53:daisy_bed.h   ****         b1.Init(DaisyPatchSM::A8);
 246              		.loc 12 53 9 is_stmt 1 view .LVU40
 247              		.loc 12 53 16 is_stmt 0 view .LVU41
 248 0066 184B     		ldr	r3, .L8+48
 249 0068 9FED180A 		vldr.32	s0, .L8+52
 250 006c 1A78     		ldrb	r2, [r3]	@ zero_extendqisi2
 251 006e 5978     		ldrb	r1, [r3, #1]	@ zero_extendqisi2
 252 0070 1748     		ldr	r0, .L8+56
 253 0072 42EA0121 		orr	r1, r2, r1, lsl #8
 254 0076 8DED030A 		vstr.32	s0, [sp, #12]	@ int
 255 007a FFF7FEFF 		bl	_ZN5daisy6Switch4InitE12dsy_gpio_pinf
 256              	.LVL9:
  54:daisy_bed.h   ****         b2.Init(DaisyPatchSM::D10);
 257              		.loc 12 54 9 is_stmt 1 view .LVU42
 258              		.loc 12 54 16 is_stmt 0 view .LVU43
 259 007e 154B     		ldr	r3, .L8+60
 260 0080 9DED030A 		vldr.32	s0, [sp, #12]	@ int
 261 0084 1A78     		ldrb	r2, [r3]	@ zero_extendqisi2
 262 0086 5978     		ldrb	r1, [r3, #1]	@ zero_extendqisi2
 263 0088 1348     		ldr	r0, .L8+64
 264 008a 42EA0121 		orr	r1, r2, r1, lsl #8
  55:daisy_bed.h   ****     }
 265              		.loc 12 55 5 view .LVU44
 266 008e 04B0     		add	sp, sp, #16
ARM GAS  /var/folders/hl/qgbwny5j0fd895c2c41bk3tw0000gp/T//ccBxTnvh.s 			page 18


 267              		.cfi_def_cfa_offset 8
 268              		@ sp needed
 269 0090 BDE81040 		pop	{r4, lr}
 270              		.cfi_restore 14
 271              		.cfi_restore 4
 272              		.cfi_def_cfa_offset 0
  54:daisy_bed.h   ****         b2.Init(DaisyPatchSM::D10);
 273              		.loc 12 54 16 view .LVU45
 274 0094 FFF7FEBF 		b	_ZN5daisy6Switch4InitE12dsy_gpio_pinf
 275              	.LVL10:
 276              	.L9:
 277              		.align	2
 278              	.L8:
 279 0098 00000000 		.word	.LANCHOR0
 280 009c 00000000 		.word	.LANCHOR1
 281 00a0 00000000 		.word	.LANCHOR2
 282 00a4 00000000 		.word	.LANCHOR3
 283 00a8 00000000 		.word	.LANCHOR4
 284 00ac 00000000 		.word	.LANCHOR5
 285 00b0 00000000 		.word	.LANCHOR6
 286 00b4 00000000 		.word	.LANCHOR7
 287 00b8 00000000 		.word	.LANCHOR8
 288 00bc 00000000 		.word	.LANCHOR9
 289 00c0 00000000 		.word	.LANCHOR10
 290 00c4 00000000 		.word	.LANCHOR11
 291 00c8 00000000 		.word	_ZN5daisy8patch_sm12DaisyPatchSM2A8E
 292 00cc 00000000 		.word	0
 293 00d0 00000000 		.word	.LANCHOR12
 294 00d4 00000000 		.word	_ZN5daisy8patch_sm12DaisyPatchSM3D10E
 295 00d8 00000000 		.word	.LANCHOR13
 296              		.cfi_endproc
 297              	.LFE4793:
 299              		.section	.text._ZN5daisy8patch_sm6ledOffEv,"ax",%progbits
 300              		.align	1
 301              		.p2align 2,,3
 302              		.global	_ZN5daisy8patch_sm6ledOffEv
 303              		.syntax unified
 304              		.thumb
 305              		.thumb_func
 306              		.fpu fpv5-d16
 308              	_ZN5daisy8patch_sm6ledOffEv:
 309              	.LFB4794:
  56:daisy_bed.h   **** 
  57:daisy_bed.h   ****     void ledOff(){
 310              		.loc 12 57 18 is_stmt 1 view -0
 311              		.cfi_startproc
 312              		@ args = 0, pretend = 0, frame = 0
 313              		@ frame_needed = 0, uses_anonymous_args = 0
  58:daisy_bed.h   ****         gen_led1.Write(false);
 314              		.loc 12 58 9 view .LVU47
  57:daisy_bed.h   ****         gen_led1.Write(false);
 315              		.loc 12 57 18 is_stmt 0 view .LVU48
 316 0000 08B5     		push	{r3, lr}
 317              		.cfi_def_cfa_offset 8
 318              		.cfi_offset 3, -8
 319              		.cfi_offset 14, -4
 320              		.loc 12 58 23 view .LVU49
ARM GAS  /var/folders/hl/qgbwny5j0fd895c2c41bk3tw0000gp/T//ccBxTnvh.s 			page 19


 321 0002 0021     		movs	r1, #0
 322 0004 0848     		ldr	r0, .L12
 323 0006 FFF7FEFF 		bl	_ZN5daisy4GPIO5WriteEb
 324              	.LVL11:
  59:daisy_bed.h   ****         gen_led2.Write(false);
 325              		.loc 12 59 9 is_stmt 1 view .LVU50
 326              		.loc 12 59 23 is_stmt 0 view .LVU51
 327 000a 0021     		movs	r1, #0
 328 000c 0748     		ldr	r0, .L12+4
 329 000e FFF7FEFF 		bl	_ZN5daisy4GPIO5WriteEb
 330              	.LVL12:
  60:daisy_bed.h   ****         cv_led1.Write(false);
 331              		.loc 12 60 9 is_stmt 1 view .LVU52
 332              		.loc 12 60 22 is_stmt 0 view .LVU53
 333 0012 0021     		movs	r1, #0
 334 0014 0648     		ldr	r0, .L12+8
 335 0016 FFF7FEFF 		bl	_ZN5daisy4GPIO5WriteEb
 336              	.LVL13:
  61:daisy_bed.h   ****         cv_led2.Write(false);
 337              		.loc 12 61 9 is_stmt 1 view .LVU54
 338              		.loc 12 61 22 is_stmt 0 view .LVU55
 339 001a 0021     		movs	r1, #0
 340 001c 0548     		ldr	r0, .L12+12
  62:daisy_bed.h   ****     }
 341              		.loc 12 62 5 view .LVU56
 342 001e BDE80840 		pop	{r3, lr}
 343              		.cfi_restore 14
 344              		.cfi_restore 3
 345              		.cfi_def_cfa_offset 0
  61:daisy_bed.h   ****         cv_led2.Write(false);
 346              		.loc 12 61 22 view .LVU57
 347 0022 FFF7FEBF 		b	_ZN5daisy4GPIO5WriteEb
 348              	.LVL14:
 349              	.L13:
 350 0026 00BF     		.align	2
 351              	.L12:
 352 0028 00000000 		.word	.LANCHOR1
 353 002c 00000000 		.word	.LANCHOR3
 354 0030 00000000 		.word	.LANCHOR5
 355 0034 00000000 		.word	.LANCHOR7
 356              		.cfi_endproc
 357              	.LFE4794:
 359              		.section	.text._Z8Controlsv,"ax",%progbits
 360              		.align	1
 361              		.p2align 2,,3
 362              		.global	_Z8Controlsv
 363              		.syntax unified
 364              		.thumb
 365              		.thumb_func
 366              		.fpu fpv5-d16
 368              	_Z8Controlsv:
 369              	.LFB4849:
  20:Twines.cpp    **** float DSY_SDRAM_BSS grainBuffer[kBufferSize * kGrainCount];
  21:Twines.cpp    **** 
  22:Twines.cpp    **** void Controls(){
 370              		.loc 11 22 16 is_stmt 1 view -0
 371              		.cfi_startproc
ARM GAS  /var/folders/hl/qgbwny5j0fd895c2c41bk3tw0000gp/T//ccBxTnvh.s 			page 20


 372              		@ args = 0, pretend = 0, frame = 0
 373              		@ frame_needed = 0, uses_anonymous_args = 0
  23:Twines.cpp    **** 	// rewrite this? 
  24:Twines.cpp    **** 	
  25:Twines.cpp    **** 	float speed, feedback, duration, density, time, amount;
 374              		.loc 11 25 2 view .LVU59
  26:Twines.cpp    **** 	
  27:Twines.cpp    **** 	speed = fmap(hw.GetAdcValue(CV_1), 0.0f, 1.0f);
 375              		.loc 11 27 2 view .LVU60
  22:Twines.cpp    **** 	// rewrite this? 
 376              		.loc 11 22 16 is_stmt 0 view .LVU61
 377 0000 38B5     		push	{r3, r4, r5, lr}
 378              		.cfi_def_cfa_offset 16
 379              		.cfi_offset 3, -16
 380              		.cfi_offset 4, -12
 381              		.cfi_offset 5, -8
 382              		.cfi_offset 14, -4
 383              		.loc 11 27 14 view .LVU62
 384 0002 0021     		movs	r1, #0
 385 0004 3C48     		ldr	r0, .L18
 386 0006 3D4C     		ldr	r4, .L18+4
  22:Twines.cpp    **** 	// rewrite this? 
 387              		.loc 11 22 16 view .LVU63
 388 0008 2DED088B 		vpush.64	{d8, d9, d10, d11}
 389              		.cfi_def_cfa_offset 48
 390              		.cfi_offset 80, -48
 391              		.cfi_offset 81, -44
 392              		.cfi_offset 82, -40
 393              		.cfi_offset 83, -36
 394              		.cfi_offset 84, -32
 395              		.cfi_offset 85, -28
 396              		.cfi_offset 86, -24
 397              		.cfi_offset 87, -20
 398              	.LBB576:
 399              	.LBB577:
 400              		.file 13 "../../DaisySP//Source/Utility/dsp.h"
   1:../../DaisySP//Source/Utility/dsp.h **** /** Helpful defines, functions, and other utilities for use in/with daisysp modules.
   2:../../DaisySP//Source/Utility/dsp.h **** */
   3:../../DaisySP//Source/Utility/dsp.h **** #pragma once
   4:../../DaisySP//Source/Utility/dsp.h **** #ifndef DSY_CORE_DSP
   5:../../DaisySP//Source/Utility/dsp.h **** #define DSY_CORE_DSP
   6:../../DaisySP//Source/Utility/dsp.h **** #include <cassert>
   7:../../DaisySP//Source/Utility/dsp.h **** #include <cstdint>
   8:../../DaisySP//Source/Utility/dsp.h **** #include <random>
   9:../../DaisySP//Source/Utility/dsp.h **** #include <cmath>
  10:../../DaisySP//Source/Utility/dsp.h **** 
  11:../../DaisySP//Source/Utility/dsp.h **** /** PIs
  12:../../DaisySP//Source/Utility/dsp.h **** */
  13:../../DaisySP//Source/Utility/dsp.h **** #define PI_F 3.1415927410125732421875f
  14:../../DaisySP//Source/Utility/dsp.h **** #define TWOPI_F (2.0f * PI_F)
  15:../../DaisySP//Source/Utility/dsp.h **** #define HALFPI_F (PI_F * 0.5f)
  16:../../DaisySP//Source/Utility/dsp.h **** #define DSY_MIN(in, mn) (in < mn ? in : mn)
  17:../../DaisySP//Source/Utility/dsp.h **** #define DSY_MAX(in, mx) (in > mx ? in : mx)
  18:../../DaisySP//Source/Utility/dsp.h **** #define DSY_CLAMP(in, mn, mx) (DSY_MIN(DSY_MAX(in, mn), mx))
  19:../../DaisySP//Source/Utility/dsp.h **** #define DSY_COUNTOF(_arr) (sizeof(_arr) / sizeof(_arr[0]))
  20:../../DaisySP//Source/Utility/dsp.h **** 
  21:../../DaisySP//Source/Utility/dsp.h **** namespace daisysp
ARM GAS  /var/folders/hl/qgbwny5j0fd895c2c41bk3tw0000gp/T//ccBxTnvh.s 			page 21


  22:../../DaisySP//Source/Utility/dsp.h **** {
  23:../../DaisySP//Source/Utility/dsp.h **** //Avoids division for random floats. e.g. rand() * kRandFrac
  24:../../DaisySP//Source/Utility/dsp.h **** static constexpr float kRandFrac = 1.f / (float)RAND_MAX;
  25:../../DaisySP//Source/Utility/dsp.h **** 
  26:../../DaisySP//Source/Utility/dsp.h **** //Convert from semitones to other units. e.g. 2 ^ (kOneTwelfth * x)
  27:../../DaisySP//Source/Utility/dsp.h **** static constexpr float kOneTwelfth = 1.f / 12.f;
  28:../../DaisySP//Source/Utility/dsp.h **** 
  29:../../DaisySP//Source/Utility/dsp.h **** /** efficient floating point min/max
  30:../../DaisySP//Source/Utility/dsp.h **** c/o stephen mccaul
  31:../../DaisySP//Source/Utility/dsp.h **** */
  32:../../DaisySP//Source/Utility/dsp.h **** inline float fmax(float a, float b)
  33:../../DaisySP//Source/Utility/dsp.h **** {
  34:../../DaisySP//Source/Utility/dsp.h ****     float r;
  35:../../DaisySP//Source/Utility/dsp.h **** #ifdef __arm__
  36:../../DaisySP//Source/Utility/dsp.h ****     asm("vmaxnm.f32 %[d], %[n], %[m]" : [d] "=t"(r) : [n] "t"(a), [m] "t"(b) :);
  37:../../DaisySP//Source/Utility/dsp.h **** #else
  38:../../DaisySP//Source/Utility/dsp.h ****     r = (a > b) ? a : b;
  39:../../DaisySP//Source/Utility/dsp.h **** #endif // __arm__
  40:../../DaisySP//Source/Utility/dsp.h ****     return r;
  41:../../DaisySP//Source/Utility/dsp.h **** }
  42:../../DaisySP//Source/Utility/dsp.h **** 
  43:../../DaisySP//Source/Utility/dsp.h **** inline float fmin(float a, float b)
  44:../../DaisySP//Source/Utility/dsp.h **** {
  45:../../DaisySP//Source/Utility/dsp.h ****     float r;
  46:../../DaisySP//Source/Utility/dsp.h **** #ifdef __arm__
  47:../../DaisySP//Source/Utility/dsp.h ****     asm("vminnm.f32 %[d], %[n], %[m]" : [d] "=t"(r) : [n] "t"(a), [m] "t"(b) :);
  48:../../DaisySP//Source/Utility/dsp.h **** #else
  49:../../DaisySP//Source/Utility/dsp.h ****     r = (a < b) ? a : b;
  50:../../DaisySP//Source/Utility/dsp.h **** #endif // __arm__
  51:../../DaisySP//Source/Utility/dsp.h ****     return r;
  52:../../DaisySP//Source/Utility/dsp.h **** }
  53:../../DaisySP//Source/Utility/dsp.h **** 
  54:../../DaisySP//Source/Utility/dsp.h **** /** quick fp clamp
  55:../../DaisySP//Source/Utility/dsp.h **** */
  56:../../DaisySP//Source/Utility/dsp.h **** inline float fclamp(float in, float min, float max)
  57:../../DaisySP//Source/Utility/dsp.h **** {
  58:../../DaisySP//Source/Utility/dsp.h ****     return fmin(fmax(in, min), max);
  59:../../DaisySP//Source/Utility/dsp.h **** }
  60:../../DaisySP//Source/Utility/dsp.h **** 
  61:../../DaisySP//Source/Utility/dsp.h **** /** From Musicdsp.org "Fast power and root estimates for 32bit floats)
  62:../../DaisySP//Source/Utility/dsp.h **** Original code by Stefan Stenzel
  63:../../DaisySP//Source/Utility/dsp.h **** These are approximations
  64:../../DaisySP//Source/Utility/dsp.h **** */
  65:../../DaisySP//Source/Utility/dsp.h **** inline float fastpower(float f, int n)
  66:../../DaisySP//Source/Utility/dsp.h **** {
  67:../../DaisySP//Source/Utility/dsp.h ****     long *lp, l;
  68:../../DaisySP//Source/Utility/dsp.h ****     lp = (long *)(&f);
  69:../../DaisySP//Source/Utility/dsp.h ****     l  = *lp;
  70:../../DaisySP//Source/Utility/dsp.h ****     l -= 0x3F800000;
  71:../../DaisySP//Source/Utility/dsp.h ****     l <<= (n - 1);
  72:../../DaisySP//Source/Utility/dsp.h ****     l += 0x3F800000;
  73:../../DaisySP//Source/Utility/dsp.h ****     *lp = l;
  74:../../DaisySP//Source/Utility/dsp.h ****     return f;
  75:../../DaisySP//Source/Utility/dsp.h **** }
  76:../../DaisySP//Source/Utility/dsp.h **** 
  77:../../DaisySP//Source/Utility/dsp.h **** inline float fastroot(float f, int n)
  78:../../DaisySP//Source/Utility/dsp.h **** {
ARM GAS  /var/folders/hl/qgbwny5j0fd895c2c41bk3tw0000gp/T//ccBxTnvh.s 			page 22


  79:../../DaisySP//Source/Utility/dsp.h ****     long *lp, l;
  80:../../DaisySP//Source/Utility/dsp.h ****     lp = (long *)(&f);
  81:../../DaisySP//Source/Utility/dsp.h ****     l  = *lp;
  82:../../DaisySP//Source/Utility/dsp.h ****     l -= 0x3F800000;
  83:../../DaisySP//Source/Utility/dsp.h ****     l >>= (n = 1);
  84:../../DaisySP//Source/Utility/dsp.h ****     l += 0x3F800000;
  85:../../DaisySP//Source/Utility/dsp.h ****     *lp = l;
  86:../../DaisySP//Source/Utility/dsp.h ****     return f;
  87:../../DaisySP//Source/Utility/dsp.h **** }
  88:../../DaisySP//Source/Utility/dsp.h **** 
  89:../../DaisySP//Source/Utility/dsp.h **** /** From http://openaudio.blogspot.com/2017/02/faster-log10-and-pow.html
  90:../../DaisySP//Source/Utility/dsp.h **** No approximation, pow10f(x) gives a 90% speed increase over powf(10.f, x)
  91:../../DaisySP//Source/Utility/dsp.h **** */
  92:../../DaisySP//Source/Utility/dsp.h **** inline float pow10f(float f)
  93:../../DaisySP//Source/Utility/dsp.h **** {
  94:../../DaisySP//Source/Utility/dsp.h ****     return expf(2.302585092994046f * f);
  95:../../DaisySP//Source/Utility/dsp.h **** }
  96:../../DaisySP//Source/Utility/dsp.h **** 
  97:../../DaisySP//Source/Utility/dsp.h **** /* Original code for fastlog2f by Dr. Paul Beckmann from the ARM community forum, adapted from the 
  98:../../DaisySP//Source/Utility/dsp.h **** About 25% performance increase over std::log10f
  99:../../DaisySP//Source/Utility/dsp.h **** */
 100:../../DaisySP//Source/Utility/dsp.h **** inline float fastlog2f(float f)
 101:../../DaisySP//Source/Utility/dsp.h **** {
 102:../../DaisySP//Source/Utility/dsp.h ****     float frac;
 103:../../DaisySP//Source/Utility/dsp.h ****     int   exp;
 104:../../DaisySP//Source/Utility/dsp.h ****     frac = frexpf(fabsf(f), &exp);
 105:../../DaisySP//Source/Utility/dsp.h ****     f    = 1.23149591368684f;
 106:../../DaisySP//Source/Utility/dsp.h ****     f *= frac;
 107:../../DaisySP//Source/Utility/dsp.h ****     f += -4.11852516267426f;
 108:../../DaisySP//Source/Utility/dsp.h ****     f *= frac;
 109:../../DaisySP//Source/Utility/dsp.h ****     f += 6.02197014179219f;
 110:../../DaisySP//Source/Utility/dsp.h ****     f *= frac;
 111:../../DaisySP//Source/Utility/dsp.h ****     f += -3.13396450166353f;
 112:../../DaisySP//Source/Utility/dsp.h ****     f += exp;
 113:../../DaisySP//Source/Utility/dsp.h ****     return (f);
 114:../../DaisySP//Source/Utility/dsp.h **** }
 115:../../DaisySP//Source/Utility/dsp.h **** 
 116:../../DaisySP//Source/Utility/dsp.h **** inline float fastlog10f(float f)
 117:../../DaisySP//Source/Utility/dsp.h **** {
 118:../../DaisySP//Source/Utility/dsp.h ****     return fastlog2f(f) * 0.3010299956639812f;
 119:../../DaisySP//Source/Utility/dsp.h **** }
 120:../../DaisySP//Source/Utility/dsp.h **** 
 121:../../DaisySP//Source/Utility/dsp.h **** /** Midi to frequency helper
 122:../../DaisySP//Source/Utility/dsp.h **** */
 123:../../DaisySP//Source/Utility/dsp.h **** inline float mtof(float m)
 124:../../DaisySP//Source/Utility/dsp.h **** {
 125:../../DaisySP//Source/Utility/dsp.h ****     return powf(2, (m - 69.0f) / 12.0f) * 440.0f;
 126:../../DaisySP//Source/Utility/dsp.h **** }
 127:../../DaisySP//Source/Utility/dsp.h **** 
 128:../../DaisySP//Source/Utility/dsp.h **** 
 129:../../DaisySP//Source/Utility/dsp.h **** /** one pole lpf
 130:../../DaisySP//Source/Utility/dsp.h **** out is passed by reference, and must be retained between
 131:../../DaisySP//Source/Utility/dsp.h **** calls to properly filter the signal
 132:../../DaisySP//Source/Utility/dsp.h **** coeff can be calculated:
 133:../../DaisySP//Source/Utility/dsp.h **** coeff = 1.0 / (time * sample_rate) ; where time is in seconds
 134:../../DaisySP//Source/Utility/dsp.h **** */
 135:../../DaisySP//Source/Utility/dsp.h **** inline void fonepole(float &out, float in, float coeff)
ARM GAS  /var/folders/hl/qgbwny5j0fd895c2c41bk3tw0000gp/T//ccBxTnvh.s 			page 23


 136:../../DaisySP//Source/Utility/dsp.h **** {
 137:../../DaisySP//Source/Utility/dsp.h ****     out += coeff * (in - out);
 138:../../DaisySP//Source/Utility/dsp.h **** }
 139:../../DaisySP//Source/Utility/dsp.h **** 
 140:../../DaisySP//Source/Utility/dsp.h **** /** Curves to use with the fmap function */
 141:../../DaisySP//Source/Utility/dsp.h **** enum class Mapping
 142:../../DaisySP//Source/Utility/dsp.h **** {
 143:../../DaisySP//Source/Utility/dsp.h ****     LINEAR,
 144:../../DaisySP//Source/Utility/dsp.h ****     EXP,
 145:../../DaisySP//Source/Utility/dsp.h ****     LOG,
 146:../../DaisySP//Source/Utility/dsp.h **** };
 147:../../DaisySP//Source/Utility/dsp.h **** 
 148:../../DaisySP//Source/Utility/dsp.h **** /** Maps a float between a specified range, using a specified curve. 
 149:../../DaisySP//Source/Utility/dsp.h ****  * 
 150:../../DaisySP//Source/Utility/dsp.h ****  *  \param in a value between 0 to 1 that will be mapped to the new range.
 151:../../DaisySP//Source/Utility/dsp.h ****  *  \param min the new minimum value
 152:../../DaisySP//Source/Utility/dsp.h ****  *  \param max the new maxmimum value
 153:../../DaisySP//Source/Utility/dsp.h ****  *  \param curve a Mapping Value to adjust the response curve of the transformation
 154:../../DaisySP//Source/Utility/dsp.h ****  *               defaults to Linear. @see Mapping
 155:../../DaisySP//Source/Utility/dsp.h ****  * 
 156:../../DaisySP//Source/Utility/dsp.h ****  *  When using the log curve min and max, must be greater than zero.
 157:../../DaisySP//Source/Utility/dsp.h ****  * 
 158:../../DaisySP//Source/Utility/dsp.h ****  *  \retval returns the transformed float within the new range.
 159:../../DaisySP//Source/Utility/dsp.h **** */
 160:../../DaisySP//Source/Utility/dsp.h **** inline float
 161:../../DaisySP//Source/Utility/dsp.h **** fmap(float in, float min, float max, Mapping curve = Mapping::LINEAR)
 162:../../DaisySP//Source/Utility/dsp.h **** {
 163:../../DaisySP//Source/Utility/dsp.h ****     switch(curve)
 164:../../DaisySP//Source/Utility/dsp.h ****     {
 165:../../DaisySP//Source/Utility/dsp.h ****         case Mapping::EXP:
 166:../../DaisySP//Source/Utility/dsp.h ****             return fclamp(min + (in * in) * (max - min), min, max);
 167:../../DaisySP//Source/Utility/dsp.h ****         case Mapping::LOG:
 168:../../DaisySP//Source/Utility/dsp.h ****         {
 169:../../DaisySP//Source/Utility/dsp.h ****             const float a = 1.f / log10f(max / min);
 170:../../DaisySP//Source/Utility/dsp.h ****             return fclamp(min * powf(10, in / a), min, max);
 171:../../DaisySP//Source/Utility/dsp.h ****         }
 172:../../DaisySP//Source/Utility/dsp.h ****         case Mapping::LINEAR:
 173:../../DaisySP//Source/Utility/dsp.h ****         default: return fclamp(min + in * (max - min), min, max);
 401              		.loc 13 173 31 view .LVU64
 402 000c 9FED3C8A 		vldr.32	s16, .L18+8
 403              	.LBE577:
 404              	.LBE576:
 405              		.loc 11 27 14 view .LVU65
 406 0010 FFF7FEFF 		bl	_ZN5daisy8patch_sm12DaisyPatchSM11GetAdcValueEi
 407              	.LVL15:
 408              	.LBB599:
 409              	.LBI576:
 161:../../DaisySP//Source/Utility/dsp.h **** {
 410              		.loc 13 161 1 is_stmt 1 view .LVU66
 411              	.LBE599:
 163:../../DaisySP//Source/Utility/dsp.h ****     {
 412              		.loc 13 163 5 view .LVU67
 413              	.LBB600:
 414              	.LBB593:
 172:../../DaisySP//Source/Utility/dsp.h ****         default: return fclamp(min + in * (max - min), min, max);
 415              		.loc 13 172 9 view .LVU68
 416              		.loc 13 173 9 view .LVU69
ARM GAS  /var/folders/hl/qgbwny5j0fd895c2c41bk3tw0000gp/T//ccBxTnvh.s 			page 24


 417              		.loc 13 173 18 view .LVU70
 418              	.LBB578:
 419              	.LBI578:
  56:../../DaisySP//Source/Utility/dsp.h **** {
 420              		.loc 13 56 14 view .LVU71
 421              	.LBE578:
 422              	.LBE593:
 423              	.LBE600:
  58:../../DaisySP//Source/Utility/dsp.h **** }
 424              		.loc 13 58 5 view .LVU72
 425              	.LBB601:
 426              	.LBB594:
 427              	.LBB589:
 428              	.LBB579:
 429              	.LBI579:
  32:../../DaisySP//Source/Utility/dsp.h **** {
 430              		.loc 13 32 14 view .LVU73
 431              	.LBB580:
  34:../../DaisySP//Source/Utility/dsp.h **** #ifdef __arm__
 432              		.loc 13 34 5 view .LVU74
  36:../../DaisySP//Source/Utility/dsp.h **** #else
 433              		.loc 13 36 5 view .LVU75
 434              	.LBE580:
 435              	.LBE579:
 436              	.LBE589:
 437              	.LBE594:
 438              	.LBE601:
  28:Twines.cpp    **** 	feedback = fmap(hw.GetAdcValue(CV_2), 0.0f, 1.0f);
 439              		.loc 11 28 17 is_stmt 0 view .LVU76
 440 0014 0121     		movs	r1, #1
 441 0016 3848     		ldr	r0, .L18
 442              	.LBB602:
 443              	.LBB595:
 444              		.loc 13 173 31 view .LVU77
 445 0018 70EE08AA 		vadd.f32	s21, s0, s16
 446              	.LVL16:
 447              		.loc 13 173 31 view .LVU78
 448              	.LBE595:
 449              	.LBE602:
 450              		.loc 11 28 17 view .LVU79
 451 001c FFF7FEFF 		bl	_ZN5daisy8patch_sm12DaisyPatchSM11GetAdcValueEi
 452              	.LVL17:
  29:Twines.cpp    **** 	duration = fmap(hw.GetAdcValue(CV_3), 0.0f, 1.0f);
 453              		.loc 11 29 17 view .LVU80
 454 0020 0221     		movs	r1, #2
 455 0022 3548     		ldr	r0, .L18
 456              	.LBB603:
 457              	.LBB604:
 458              		.loc 13 173 31 view .LVU81
 459 0024 30EE08AA 		vadd.f32	s20, s0, s16
 460              	.LBE604:
 461              	.LBE603:
 462              		.loc 11 29 17 view .LVU82
 463 0028 FFF7FEFF 		bl	_ZN5daisy8patch_sm12DaisyPatchSM11GetAdcValueEi
 464              	.LVL18:
  30:Twines.cpp    **** 	density = fmap(hw.GetAdcValue(CV_4), 0.0f, 1.0f);
 465              		.loc 11 30 16 view .LVU83
ARM GAS  /var/folders/hl/qgbwny5j0fd895c2c41bk3tw0000gp/T//ccBxTnvh.s 			page 25


 466 002c 0321     		movs	r1, #3
 467 002e 3248     		ldr	r0, .L18
 468              	.LBB617:
 469              	.LBB618:
 470              		.loc 13 173 31 view .LVU84
 471 0030 70EE089A 		vadd.f32	s19, s0, s16
 472 0034 04F56B75 		add	r5, r4, #940
 473              	.LBE618:
 474              	.LBE617:
 475              		.loc 11 30 16 view .LVU85
 476 0038 FFF7FEFF 		bl	_ZN5daisy8patch_sm12DaisyPatchSM11GetAdcValueEi
 477              	.LVL19:
  31:Twines.cpp    **** 	time = fmap(hw.GetAdcValue(ADC_12), 0.0f, 1.0f);
 478              		.loc 11 31 13 view .LVU86
 479 003c 0B21     		movs	r1, #11
 480 003e 2E48     		ldr	r0, .L18
 481              	.LBB631:
 482              	.LBB632:
 483              		.loc 13 173 31 view .LVU87
 484 0040 30EE089A 		vadd.f32	s18, s0, s16
 485              	.LBE632:
 486              	.LBE631:
 487              		.loc 11 31 13 view .LVU88
 488 0044 FFF7FEFF 		bl	_ZN5daisy8patch_sm12DaisyPatchSM11GetAdcValueEi
 489              	.LVL20:
  32:Twines.cpp    ****  	amount = fmap(hw.GetAdcValue(ADC_11), 0.0f, 1.0f);
 490              		.loc 11 32 16 view .LVU89
 491 0048 0A21     		movs	r1, #10
 492 004a 2B48     		ldr	r0, .L18
 493              	.LBB645:
 494              	.LBB596:
 495              	.LBB590:
 496              	.LBB582:
 497              	.LBB583:
  47:../../DaisySP//Source/Utility/dsp.h **** #else
 498              		.loc 13 47 5 view .LVU90
 499 004c F7EE00BA 		vmov.f32	s23, #1.0e+0
 500              	.LBE583:
 501              	.LBE582:
 502              	.LBE590:
 503              	.LBE596:
 504              	.LBE645:
 505              	.LBB646:
 506              	.LBB647:
 507              		.loc 13 173 31 view .LVU91
 508 0050 30EE08BA 		vadd.f32	s22, s0, s16
 509              	.LBE647:
 510              	.LBE646:
 511              		.loc 11 32 16 view .LVU92
 512 0054 FFF7FEFF 		bl	_ZN5daisy8patch_sm12DaisyPatchSM11GetAdcValueEi
 513              	.LVL21:
 514              	.LBB660:
 515              	.LBB597:
 516              	.LBB591:
 517              	.LBB586:
 518              	.LBB581:
  36:../../DaisySP//Source/Utility/dsp.h **** #else
ARM GAS  /var/folders/hl/qgbwny5j0fd895c2c41bk3tw0000gp/T//ccBxTnvh.s 			page 26


 519              		.loc 13 36 5 view .LVU93
 520              		.syntax unified
 521              	@ 36 "../../DaisySP//Source/Utility/dsp.h" 1
 522 0058 CAFE88AA 		vmaxnm.f32 s21, s21, s16
 523              	@ 0 "" 2
 524              	.LVL22:
  40:../../DaisySP//Source/Utility/dsp.h **** }
 525              		.loc 13 40 5 is_stmt 1 view .LVU94
  40:../../DaisySP//Source/Utility/dsp.h **** }
 526              		.loc 13 40 5 is_stmt 0 view .LVU95
 527              		.thumb
 528              		.syntax unified
 529              	.LBE581:
 530              	.LBE586:
 531              	.LBB587:
 532              	.LBI582:
  43:../../DaisySP//Source/Utility/dsp.h **** {
 533              		.loc 13 43 14 is_stmt 1 view .LVU96
 534              	.LBB584:
  45:../../DaisySP//Source/Utility/dsp.h **** #ifdef __arm__
 535              		.loc 13 45 5 view .LVU97
  47:../../DaisySP//Source/Utility/dsp.h **** #else
 536              		.loc 13 47 5 view .LVU98
 537              	.LBE584:
 538              	.LBE587:
 539              	.LBE591:
 540              	.LBE597:
 541              	.LBE660:
 542              	.LBB661:
 543              	.LBB614:
 544              	.LBB605:
 545              	.LBB606:
 546              	.LBB607:
  36:../../DaisySP//Source/Utility/dsp.h **** #else
 547              		.loc 13 36 5 is_stmt 0 view .LVU99
 548              		.syntax unified
 549              	@ 36 "../../DaisySP//Source/Utility/dsp.h" 1
 550 005c 8AFE08AA 		vmaxnm.f32 s20, s20, s16
 551              	@ 0 "" 2
 552              		.thumb
 553              		.syntax unified
 554              	.LBE607:
 555              	.LBE606:
 556              	.LBE605:
 557              	.LBE614:
 558              	.LBE661:
 559              	.LBB662:
 560              	.LBB628:
 561              	.LBB619:
 562              	.LBB620:
 563              	.LBB621:
 564              		.syntax unified
 565              	@ 36 "../../DaisySP//Source/Utility/dsp.h" 1
 566 0060 C9FE889A 		vmaxnm.f32 s19, s19, s16
 567              	@ 0 "" 2
 568              		.thumb
 569              		.syntax unified
ARM GAS  /var/folders/hl/qgbwny5j0fd895c2c41bk3tw0000gp/T//ccBxTnvh.s 			page 27


 570              	.LBE621:
 571              	.LBE620:
 572              	.LBE619:
 573              	.LBE628:
 574              	.LBE662:
 575              	.LBB663:
 576              	.LBB642:
 577              	.LBB633:
 578              	.LBB634:
 579              	.LBB635:
 580              		.syntax unified
 581              	@ 36 "../../DaisySP//Source/Utility/dsp.h" 1
 582 0064 89FE089A 		vmaxnm.f32 s18, s18, s16
 583              	@ 0 "" 2
 584              		.thumb
 585              		.syntax unified
 586              	.LBE635:
 587              	.LBE634:
 588              	.LBE633:
 589              	.LBE642:
 590              	.LBE663:
 591              	.LBB664:
 592              	.LBB657:
 593              	.LBB648:
 594              	.LBB649:
 595              	.LBB650:
 596              		.syntax unified
 597              	@ 36 "../../DaisySP//Source/Utility/dsp.h" 1
 598 0068 8BFE08BA 		vmaxnm.f32 s22, s22, s16
 599              	@ 0 "" 2
 600              		.thumb
 601              		.syntax unified
 602              	.LBE650:
 603              	.LBE649:
 604              	.LBE648:
 605              	.LBE657:
 606              	.LBE664:
 607              	.LBB665:
 608              	.LBB598:
 609              	.LBB592:
 610              	.LBB588:
 611              	.LBB585:
  47:../../DaisySP//Source/Utility/dsp.h **** #else
 612              		.loc 13 47 5 view .LVU100
 613              		.syntax unified
 614              	@ 47 "../../DaisySP//Source/Utility/dsp.h" 1
 615 006c CAFEEBAA 		vminnm.f32 s21, s21, s23
 616              	@ 0 "" 2
 617              	.LVL23:
  51:../../DaisySP//Source/Utility/dsp.h **** }
 618              		.loc 13 51 5 is_stmt 1 view .LVU101
  51:../../DaisySP//Source/Utility/dsp.h **** }
 619              		.loc 13 51 5 is_stmt 0 view .LVU102
 620              		.thumb
 621              		.syntax unified
 622              	.LBE585:
 623              	.LBE588:
ARM GAS  /var/folders/hl/qgbwny5j0fd895c2c41bk3tw0000gp/T//ccBxTnvh.s 			page 28


 624              	.LBE592:
 625              	.LBE598:
 626              	.LBE665:
  28:Twines.cpp    **** 	duration = fmap(hw.GetAdcValue(CV_3), 0.0f, 1.0f);
 627              		.loc 11 28 2 is_stmt 1 view .LVU103
 628              	.LBB666:
 629              	.LBI603:
 161:../../DaisySP//Source/Utility/dsp.h **** {
 630              		.loc 13 161 1 view .LVU104
 631              	.LBE666:
 163:../../DaisySP//Source/Utility/dsp.h ****     {
 632              		.loc 13 163 5 view .LVU105
 633              	.LBB667:
 634              	.LBB615:
 172:../../DaisySP//Source/Utility/dsp.h ****         default: return fclamp(min + in * (max - min), min, max);
 635              		.loc 13 172 9 view .LVU106
 636              		.loc 13 173 9 view .LVU107
 637              		.loc 13 173 18 view .LVU108
 638              	.LBB612:
 639              	.LBI605:
  56:../../DaisySP//Source/Utility/dsp.h **** {
 640              		.loc 13 56 14 view .LVU109
 641              	.LBE612:
 642              	.LBE615:
 643              	.LBE667:
  58:../../DaisySP//Source/Utility/dsp.h **** }
 644              		.loc 13 58 5 view .LVU110
 645              	.LBB668:
 646              	.LBB616:
 647              	.LBB613:
 648              	.LBB609:
 649              	.LBI606:
  32:../../DaisySP//Source/Utility/dsp.h **** {
 650              		.loc 13 32 14 view .LVU111
 651              	.LBB608:
  34:../../DaisySP//Source/Utility/dsp.h **** #ifdef __arm__
 652              		.loc 13 34 5 view .LVU112
  36:../../DaisySP//Source/Utility/dsp.h **** #else
 653              		.loc 13 36 5 view .LVU113
  40:../../DaisySP//Source/Utility/dsp.h **** }
 654              		.loc 13 40 5 view .LVU114
  40:../../DaisySP//Source/Utility/dsp.h **** }
 655              		.loc 13 40 5 is_stmt 0 view .LVU115
 656              	.LBE608:
 657              	.LBE609:
 658              	.LBB610:
 659              	.LBI610:
  43:../../DaisySP//Source/Utility/dsp.h **** {
 660              		.loc 13 43 14 is_stmt 1 view .LVU116
 661              	.LBB611:
  45:../../DaisySP//Source/Utility/dsp.h **** #ifdef __arm__
 662              		.loc 13 45 5 view .LVU117
  47:../../DaisySP//Source/Utility/dsp.h **** #else
 663              		.loc 13 47 5 view .LVU118
 664              		.syntax unified
 665              	@ 47 "../../DaisySP//Source/Utility/dsp.h" 1
 666 0070 8AFE6BAA 		vminnm.f32 s20, s20, s23
ARM GAS  /var/folders/hl/qgbwny5j0fd895c2c41bk3tw0000gp/T//ccBxTnvh.s 			page 29


 667              	@ 0 "" 2
 668              	.LVL24:
  51:../../DaisySP//Source/Utility/dsp.h **** }
 669              		.loc 13 51 5 view .LVU119
  51:../../DaisySP//Source/Utility/dsp.h **** }
 670              		.loc 13 51 5 is_stmt 0 view .LVU120
 671              		.thumb
 672              		.syntax unified
 673              	.LBE611:
 674              	.LBE610:
 675              	.LBE613:
 676              	.LBE616:
 677              	.LBE668:
  29:Twines.cpp    **** 	density = fmap(hw.GetAdcValue(CV_4), 0.0f, 1.0f);
 678              		.loc 11 29 2 is_stmt 1 view .LVU121
 679              	.LBB669:
 680              	.LBI617:
 161:../../DaisySP//Source/Utility/dsp.h **** {
 681              		.loc 13 161 1 view .LVU122
 682              	.LBE669:
 163:../../DaisySP//Source/Utility/dsp.h ****     {
 683              		.loc 13 163 5 view .LVU123
 684              	.LBB670:
 685              	.LBB629:
 172:../../DaisySP//Source/Utility/dsp.h ****         default: return fclamp(min + in * (max - min), min, max);
 686              		.loc 13 172 9 view .LVU124
 687              		.loc 13 173 9 view .LVU125
 688              		.loc 13 173 18 view .LVU126
 689              	.LBB626:
 690              	.LBI619:
  56:../../DaisySP//Source/Utility/dsp.h **** {
 691              		.loc 13 56 14 view .LVU127
 692              	.LBE626:
 693              	.LBE629:
 694              	.LBE670:
  58:../../DaisySP//Source/Utility/dsp.h **** }
 695              		.loc 13 58 5 view .LVU128
 696              	.LBB671:
 697              	.LBB630:
 698              	.LBB627:
 699              	.LBB623:
 700              	.LBI620:
  32:../../DaisySP//Source/Utility/dsp.h **** {
 701              		.loc 13 32 14 view .LVU129
 702              	.LBB622:
  34:../../DaisySP//Source/Utility/dsp.h **** #ifdef __arm__
 703              		.loc 13 34 5 view .LVU130
  36:../../DaisySP//Source/Utility/dsp.h **** #else
 704              		.loc 13 36 5 view .LVU131
  40:../../DaisySP//Source/Utility/dsp.h **** }
 705              		.loc 13 40 5 view .LVU132
  40:../../DaisySP//Source/Utility/dsp.h **** }
 706              		.loc 13 40 5 is_stmt 0 view .LVU133
 707              	.LBE622:
 708              	.LBE623:
 709              	.LBB624:
 710              	.LBI624:
ARM GAS  /var/folders/hl/qgbwny5j0fd895c2c41bk3tw0000gp/T//ccBxTnvh.s 			page 30


  43:../../DaisySP//Source/Utility/dsp.h **** {
 711              		.loc 13 43 14 is_stmt 1 view .LVU134
 712              	.LBB625:
  45:../../DaisySP//Source/Utility/dsp.h **** #ifdef __arm__
 713              		.loc 13 45 5 view .LVU135
  47:../../DaisySP//Source/Utility/dsp.h **** #else
 714              		.loc 13 47 5 view .LVU136
 715              		.syntax unified
 716              	@ 47 "../../DaisySP//Source/Utility/dsp.h" 1
 717 0074 C9FEEB9A 		vminnm.f32 s19, s19, s23
 718              	@ 0 "" 2
 719              	.LVL25:
  51:../../DaisySP//Source/Utility/dsp.h **** }
 720              		.loc 13 51 5 view .LVU137
  51:../../DaisySP//Source/Utility/dsp.h **** }
 721              		.loc 13 51 5 is_stmt 0 view .LVU138
 722              		.thumb
 723              		.syntax unified
 724              	.LBE625:
 725              	.LBE624:
 726              	.LBE627:
 727              	.LBE630:
 728              	.LBE671:
  30:Twines.cpp    **** 	time = fmap(hw.GetAdcValue(ADC_12), 0.0f, 1.0f);
 729              		.loc 11 30 2 is_stmt 1 view .LVU139
 730              	.LBB672:
 731              	.LBI631:
 161:../../DaisySP//Source/Utility/dsp.h **** {
 732              		.loc 13 161 1 view .LVU140
 733              	.LBE672:
 163:../../DaisySP//Source/Utility/dsp.h ****     {
 734              		.loc 13 163 5 view .LVU141
 735              	.LBB673:
 736              	.LBB643:
 172:../../DaisySP//Source/Utility/dsp.h ****         default: return fclamp(min + in * (max - min), min, max);
 737              		.loc 13 172 9 view .LVU142
 738              		.loc 13 173 9 view .LVU143
 739              		.loc 13 173 18 view .LVU144
 740              	.LBB640:
 741              	.LBI633:
  56:../../DaisySP//Source/Utility/dsp.h **** {
 742              		.loc 13 56 14 view .LVU145
 743              	.LBE640:
 744              	.LBE643:
 745              	.LBE673:
  58:../../DaisySP//Source/Utility/dsp.h **** }
 746              		.loc 13 58 5 view .LVU146
 747              	.LBB674:
 748              	.LBB644:
 749              	.LBB641:
 750              	.LBB637:
 751              	.LBI634:
  32:../../DaisySP//Source/Utility/dsp.h **** {
 752              		.loc 13 32 14 view .LVU147
 753              	.LBB636:
  34:../../DaisySP//Source/Utility/dsp.h **** #ifdef __arm__
 754              		.loc 13 34 5 view .LVU148
ARM GAS  /var/folders/hl/qgbwny5j0fd895c2c41bk3tw0000gp/T//ccBxTnvh.s 			page 31


  36:../../DaisySP//Source/Utility/dsp.h **** #else
 755              		.loc 13 36 5 view .LVU149
  40:../../DaisySP//Source/Utility/dsp.h **** }
 756              		.loc 13 40 5 view .LVU150
  40:../../DaisySP//Source/Utility/dsp.h **** }
 757              		.loc 13 40 5 is_stmt 0 view .LVU151
 758              	.LBE636:
 759              	.LBE637:
 760              	.LBB638:
 761              	.LBI638:
  43:../../DaisySP//Source/Utility/dsp.h **** {
 762              		.loc 13 43 14 is_stmt 1 view .LVU152
 763              	.LBB639:
  45:../../DaisySP//Source/Utility/dsp.h **** #ifdef __arm__
 764              		.loc 13 45 5 view .LVU153
  47:../../DaisySP//Source/Utility/dsp.h **** #else
 765              		.loc 13 47 5 view .LVU154
 766              		.syntax unified
 767              	@ 47 "../../DaisySP//Source/Utility/dsp.h" 1
 768 0078 89FE6B9A 		vminnm.f32 s18, s18, s23
 769              	@ 0 "" 2
 770              	.LVL26:
  51:../../DaisySP//Source/Utility/dsp.h **** }
 771              		.loc 13 51 5 view .LVU155
  51:../../DaisySP//Source/Utility/dsp.h **** }
 772              		.loc 13 51 5 is_stmt 0 view .LVU156
 773              		.thumb
 774              		.syntax unified
 775              	.LBE639:
 776              	.LBE638:
 777              	.LBE641:
 778              	.LBE644:
 779              	.LBE674:
  31:Twines.cpp    ****  	amount = fmap(hw.GetAdcValue(ADC_11), 0.0f, 1.0f);
 780              		.loc 11 31 2 is_stmt 1 view .LVU157
 781              	.LBB675:
 782              	.LBI646:
 161:../../DaisySP//Source/Utility/dsp.h **** {
 783              		.loc 13 161 1 view .LVU158
 784              	.LBE675:
 163:../../DaisySP//Source/Utility/dsp.h ****     {
 785              		.loc 13 163 5 view .LVU159
 786              	.LBB676:
 787              	.LBB658:
 172:../../DaisySP//Source/Utility/dsp.h ****         default: return fclamp(min + in * (max - min), min, max);
 788              		.loc 13 172 9 view .LVU160
 789              		.loc 13 173 9 view .LVU161
 790              		.loc 13 173 18 view .LVU162
 791              	.LBB655:
 792              	.LBI648:
  56:../../DaisySP//Source/Utility/dsp.h **** {
 793              		.loc 13 56 14 view .LVU163
 794              	.LBE655:
 795              	.LBE658:
 796              	.LBE676:
  58:../../DaisySP//Source/Utility/dsp.h **** }
 797              		.loc 13 58 5 view .LVU164
ARM GAS  /var/folders/hl/qgbwny5j0fd895c2c41bk3tw0000gp/T//ccBxTnvh.s 			page 32


 798              	.LBB677:
 799              	.LBB659:
 800              	.LBB656:
 801              	.LBB652:
 802              	.LBI649:
  32:../../DaisySP//Source/Utility/dsp.h **** {
 803              		.loc 13 32 14 view .LVU165
 804              	.LBB651:
  34:../../DaisySP//Source/Utility/dsp.h **** #ifdef __arm__
 805              		.loc 13 34 5 view .LVU166
  36:../../DaisySP//Source/Utility/dsp.h **** #else
 806              		.loc 13 36 5 view .LVU167
  40:../../DaisySP//Source/Utility/dsp.h **** }
 807              		.loc 13 40 5 view .LVU168
  40:../../DaisySP//Source/Utility/dsp.h **** }
 808              		.loc 13 40 5 is_stmt 0 view .LVU169
 809              	.LBE651:
 810              	.LBE652:
 811              	.LBB653:
 812              	.LBI653:
  43:../../DaisySP//Source/Utility/dsp.h **** {
 813              		.loc 13 43 14 is_stmt 1 view .LVU170
 814              	.LBB654:
  45:../../DaisySP//Source/Utility/dsp.h **** #ifdef __arm__
 815              		.loc 13 45 5 view .LVU171
  47:../../DaisySP//Source/Utility/dsp.h **** #else
 816              		.loc 13 47 5 view .LVU172
 817              		.syntax unified
 818              	@ 47 "../../DaisySP//Source/Utility/dsp.h" 1
 819 007c 8BFE6BBA 		vminnm.f32 s22, s22, s23
 820              	@ 0 "" 2
 821              	.LVL27:
  51:../../DaisySP//Source/Utility/dsp.h **** }
 822              		.loc 13 51 5 view .LVU173
  51:../../DaisySP//Source/Utility/dsp.h **** }
 823              		.loc 13 51 5 is_stmt 0 view .LVU174
 824              		.thumb
 825              		.syntax unified
 826              	.LBE654:
 827              	.LBE653:
 828              	.LBE656:
 829              	.LBE659:
 830              	.LBE677:
 831              		.loc 11 32 3 is_stmt 1 view .LVU175
 832              	.LBB678:
 833              	.LBI678:
 161:../../DaisySP//Source/Utility/dsp.h **** {
 834              		.loc 13 161 1 view .LVU176
 835              	.LBE678:
 163:../../DaisySP//Source/Utility/dsp.h ****     {
 836              		.loc 13 163 5 view .LVU177
 837              	.LBB690:
 838              	.LBB679:
 172:../../DaisySP//Source/Utility/dsp.h ****         default: return fclamp(min + in * (max - min), min, max);
 839              		.loc 13 172 9 view .LVU178
 840              		.loc 13 173 9 view .LVU179
 841              		.loc 13 173 18 view .LVU180
ARM GAS  /var/folders/hl/qgbwny5j0fd895c2c41bk3tw0000gp/T//ccBxTnvh.s 			page 33


 842              	.LBB680:
 843              	.LBI680:
  56:../../DaisySP//Source/Utility/dsp.h **** {
 844              		.loc 13 56 14 view .LVU181
 845              	.LBE680:
 846              	.LBE679:
 847              	.LBE690:
  58:../../DaisySP//Source/Utility/dsp.h **** }
 848              		.loc 13 58 5 view .LVU182
 849              	.LBB691:
 850              	.LBB689:
 851              	.LBB687:
 852              	.LBB681:
 853              	.LBI681:
  32:../../DaisySP//Source/Utility/dsp.h **** {
 854              		.loc 13 32 14 view .LVU183
 855              	.LBB682:
  34:../../DaisySP//Source/Utility/dsp.h **** #ifdef __arm__
 856              		.loc 13 34 5 view .LVU184
  36:../../DaisySP//Source/Utility/dsp.h **** #else
 857              		.loc 13 36 5 view .LVU185
 858              	.LBE682:
 859              	.LBE681:
 860              	.LBE687:
 861              		.loc 13 173 31 is_stmt 0 view .LVU186
 862 0080 30EE080A 		vadd.f32	s0, s0, s16
 863              	.LVL28:
 864              	.LBB688:
 865              	.LBB684:
 866              	.LBB683:
  36:../../DaisySP//Source/Utility/dsp.h **** #else
 867              		.loc 13 36 5 view .LVU187
 868              		.syntax unified
 869              	@ 36 "../../DaisySP//Source/Utility/dsp.h" 1
 870 0084 80FE088A 		vmaxnm.f32 s16, s0, s16
 871              	@ 0 "" 2
 872              	.LVL29:
  40:../../DaisySP//Source/Utility/dsp.h **** }
 873              		.loc 13 40 5 is_stmt 1 view .LVU188
  40:../../DaisySP//Source/Utility/dsp.h **** }
 874              		.loc 13 40 5 is_stmt 0 view .LVU189
 875              		.thumb
 876              		.syntax unified
 877              	.LBE683:
 878              	.LBE684:
 879              	.LBB685:
 880              	.LBI685:
  43:../../DaisySP//Source/Utility/dsp.h **** {
 881              		.loc 13 43 14 is_stmt 1 view .LVU190
 882              	.LBB686:
  45:../../DaisySP//Source/Utility/dsp.h **** #ifdef __arm__
 883              		.loc 13 45 5 view .LVU191
  47:../../DaisySP//Source/Utility/dsp.h **** #else
 884              		.loc 13 47 5 view .LVU192
 885              		.syntax unified
 886              	@ 47 "../../DaisySP//Source/Utility/dsp.h" 1
 887 0088 C8FE6BBA 		vminnm.f32 s23, s16, s23
ARM GAS  /var/folders/hl/qgbwny5j0fd895c2c41bk3tw0000gp/T//ccBxTnvh.s 			page 34


 888              	@ 0 "" 2
 889              	.LVL30:
  51:../../DaisySP//Source/Utility/dsp.h **** }
 890              		.loc 13 51 5 view .LVU193
  51:../../DaisySP//Source/Utility/dsp.h **** }
 891              		.loc 13 51 5 is_stmt 0 view .LVU194
 892              		.thumb
 893              		.syntax unified
 894              	.LBE686:
 895              	.LBE685:
 896              	.LBE688:
 897              	.LBE689:
 898              	.LBE691:
  33:Twines.cpp    **** 
  34:Twines.cpp    **** 	for (int i = 0; i < kGrainCount; i++) {
 899              		.loc 11 34 2 is_stmt 1 view .LVU195
 900              	.LBB692:
 901              		.loc 11 34 20 view .LVU196
 902              	.L15:
  35:Twines.cpp    ****         grains[i].SetSpeed(speed);
 903              		.loc 11 35 9 discriminator 2 view .LVU197
 904              		.loc 11 35 27 is_stmt 0 discriminator 2 view .LVU198
 905 008c 2046     		mov	r0, r4
 906 008e B0EE6A0A 		vmov.f32	s0, s21
 907 0092 FFF7FEFF 		bl	_ZN10graindelay5Grain8SetSpeedEf
 908              	.LVL31:
  36:Twines.cpp    **** 		grains[i].SetFeedback(feedback);
 909              		.loc 11 36 3 is_stmt 1 discriminator 2 view .LVU199
 910              	.LBB693:
 911              	.LBI693:
 912              		.file 14 "Grain.h"
   1:Grain.h       **** #pragma once
   2:Grain.h       **** #ifndef GRAIN_H
   3:Grain.h       **** #define GRAIN_H
   4:Grain.h       **** #include <stdint.h>
   5:Grain.h       **** #include "daisysp.h"
   6:Grain.h       **** #ifdef __cplusplus
   7:Grain.h       **** 
   8:Grain.h       **** using namespace daisysp;
   9:Grain.h       **** 
  10:Grain.h       **** namespace graindelay
  11:Grain.h       **** {
  12:Grain.h       **** class Grain
  13:Grain.h       **** {
  14:Grain.h       ****     public:
  15:Grain.h       ****         Grain() {}
  16:Grain.h       ****         ~Grain() {}
  17:Grain.h       **** 
  18:Grain.h       ****         void Init(const float sampleRate, float* buffer, const size_t bufferSize)
  19:Grain.h       ****         {
  20:Grain.h       ****             sampleRate_ = sampleRate;
  21:Grain.h       ****             buffer_ = buffer;
  22:Grain.h       ****             bufferSize_ = bufferSize - kInterpolationTail;
  23:Grain.h       ****             for (size_t i = 0; i < bufferSize; i++)
  24:Grain.h       ****                 buffer_[i] = 0;
  25:Grain.h       ****             writeIndex_ = 0;
  26:Grain.h       ****             readPosition_ = 0;
ARM GAS  /var/folders/hl/qgbwny5j0fd895c2c41bk3tw0000gp/T//ccBxTnvh.s 			page 35


  27:Grain.h       **** 
  28:Grain.h       ****             feedbackSvf_.Init(sampleRate);
  29:Grain.h       ****             env_.Init(sampleRate);
  30:Grain.h       **** 
  31:Grain.h       ****             audible_ = 0.0f;
  32:Grain.h       ****             speed_ = 1.0f;
  33:Grain.h       ****             amp_ = 0.0f;
  34:Grain.h       ****             grainDensity_ = 0.0f;
  35:Grain.h       ****             feedback_ = 0.0f;
  36:Grain.h       ****         }
  37:Grain.h       **** 
  38:Grain.h       ****         void SetSpeed(const float speed);
  39:Grain.h       **** 
  40:Grain.h       ****         void SetAmp(const float amp)
  41:Grain.h       ****         {
  42:Grain.h       ****             amp_ = fclamp(amp, 0.0f, 1.0f);
  43:Grain.h       ****         }
  44:Grain.h       **** 
  45:Grain.h       ****         inline void SetFeedback(const float feedback)
 913              		.loc 14 45 21 discriminator 2 view .LVU200
 914              	.LBB694:
  46:Grain.h       ****         {
  47:Grain.h       ****             feedback_ = fclamp(feedback, 0.0f, 1.0f);
 915              		.loc 14 47 13 discriminator 2 view .LVU201
 916              	.LBB695:
 917              	.LBI695:
  56:../../DaisySP//Source/Utility/dsp.h **** {
 918              		.loc 13 56 14 discriminator 2 view .LVU202
 919              	.LBE695:
 920              	.LBE694:
 921              	.LBE693:
 922              	.LBE692:
  58:../../DaisySP//Source/Utility/dsp.h **** }
 923              		.loc 13 58 5 discriminator 2 view .LVU203
 924              	.LBB732:
 925              	.LBB711:
 926              	.LBB709:
 927              	.LBB706:
 928              	.LBB696:
 929              	.LBI696:
  32:../../DaisySP//Source/Utility/dsp.h **** {
 930              		.loc 13 32 14 discriminator 2 view .LVU204
 931              	.LBB697:
  34:../../DaisySP//Source/Utility/dsp.h **** #ifdef __arm__
 932              		.loc 13 34 5 discriminator 2 view .LVU205
  36:../../DaisySP//Source/Utility/dsp.h **** #else
 933              		.loc 13 36 5 discriminator 2 view .LVU206
 934              	.LBE697:
 935              	.LBE696:
 936              	.LBE706:
  48:Grain.h       ****             feedbackSvf_.SetFreq(20.0f + 100.0f * feedback_ * feedback_);   // Formula from https:/
 937              		.loc 14 48 49 is_stmt 0 discriminator 2 view .LVU207
 938 0096 9FED1B7A 		vldr.32	s14, .L18+12
 939              	.LBB707:
 940              	.LBB700:
 941              	.LBB701:
  47:../../DaisySP//Source/Utility/dsp.h **** #else
ARM GAS  /var/folders/hl/qgbwny5j0fd895c2c41bk3tw0000gp/T//ccBxTnvh.s 			page 36


 942              		.loc 13 47 5 discriminator 2 view .LVU208
 943 009a B7EE008A 		vmov.f32	s16, #1.0e+0
 944              	.LBE701:
 945              	.LBE700:
 946              	.LBB703:
 947              	.LBB698:
  36:../../DaisySP//Source/Utility/dsp.h **** #else
 948              		.loc 13 36 5 discriminator 2 view .LVU209
 949 009e DFED188A 		vldr.32	s17, .L18+8
 950              	.LBE698:
 951              	.LBE703:
 952              	.LBE707:
 953              		.loc 14 48 33 discriminator 2 view .LVU210
 954 00a2 B3EE040A 		vmov.f32	s0, #2.0e+1
 955 00a6 04F17000 		add	r0, r4, #112
 956              	.LBB708:
 957              	.LBB704:
 958              	.LBB699:
  36:../../DaisySP//Source/Utility/dsp.h **** #else
 959              		.loc 13 36 5 discriminator 2 view .LVU211
 960              		.syntax unified
 961              	@ 36 "../../DaisySP//Source/Utility/dsp.h" 1
 962 00aa CAFE287A 		vmaxnm.f32 s15, s20, s17
 963              	@ 0 "" 2
 964              	.LVL32:
  40:../../DaisySP//Source/Utility/dsp.h **** }
 965              		.loc 13 40 5 is_stmt 1 discriminator 2 view .LVU212
  40:../../DaisySP//Source/Utility/dsp.h **** }
 966              		.loc 13 40 5 is_stmt 0 discriminator 2 view .LVU213
 967              		.thumb
 968              		.syntax unified
 969              	.LBE699:
 970              	.LBE704:
 971              	.LBB705:
 972              	.LBI700:
  43:../../DaisySP//Source/Utility/dsp.h **** {
 973              		.loc 13 43 14 is_stmt 1 discriminator 2 view .LVU214
 974              	.LBB702:
  45:../../DaisySP//Source/Utility/dsp.h **** #ifdef __arm__
 975              		.loc 13 45 5 discriminator 2 view .LVU215
  47:../../DaisySP//Source/Utility/dsp.h **** #else
 976              		.loc 13 47 5 discriminator 2 view .LVU216
 977              		.syntax unified
 978              	@ 47 "../../DaisySP//Source/Utility/dsp.h" 1
 979 00ae C7FEC87A 		vminnm.f32 s15, s15, s16
 980              	@ 0 "" 2
 981              	.LVL33:
  51:../../DaisySP//Source/Utility/dsp.h **** }
 982              		.loc 13 51 5 discriminator 2 view .LVU217
  51:../../DaisySP//Source/Utility/dsp.h **** }
 983              		.loc 13 51 5 is_stmt 0 discriminator 2 view .LVU218
 984              		.thumb
 985              		.syntax unified
 986              	.LBE702:
 987              	.LBE705:
 988              	.LBE708:
 989              		.loc 14 48 49 discriminator 2 view .LVU219
ARM GAS  /var/folders/hl/qgbwny5j0fd895c2c41bk3tw0000gp/T//ccBxTnvh.s 			page 37


 990 00b2 27EE877A 		vmul.f32	s14, s15, s14
  47:Grain.h       ****             feedbackSvf_.SetFreq(20.0f + 100.0f * feedback_ * feedback_);   // Formula from https:/
 991              		.loc 14 47 23 discriminator 2 view .LVU220
 992 00b6 C4ED077A 		vstr.32	s15, [r4, #28]
 993              		.loc 14 48 13 is_stmt 1 discriminator 2 view .LVU221
 994              	.LBE709:
 995              	.LBE711:
  34:Twines.cpp    ****         grains[i].SetSpeed(speed);
 996              		.loc 11 34 20 is_stmt 0 discriminator 2 view .LVU222
 997 00ba BC34     		adds	r4, r4, #188
 998              	.LVL34:
 999              	.LBB712:
 1000              	.LBB710:
 1001              		.loc 14 48 33 discriminator 2 view .LVU223
 1002 00bc A7EE870A 		vfma.f32	s0, s15, s14
 1003 00c0 FFF7FEFF 		bl	_ZN7daisysp3Svf7SetFreqEf
 1004              	.LVL35:
 1005              		.loc 14 48 33 discriminator 2 view .LVU224
 1006              	.LBE710:
 1007              	.LBE712:
  37:Twines.cpp    **** 		grains[i].SetDuration(duration);
 1008              		.loc 11 37 3 is_stmt 1 discriminator 2 view .LVU225
 1009              	.LBB713:
 1010              	.LBI713:
  49:Grain.h       ****         }
  50:Grain.h       **** 
  51:Grain.h       ****         inline void Trigger()
  52:Grain.h       ****         {
  53:Grain.h       ****             readPosition_ = speed_ > sampleRate_ ? ((writeIndex_ - grainSize_) + bufferSize_) % buf
  54:Grain.h       ****             env_.Trigger();
  55:Grain.h       ****         }
  56:Grain.h       **** 
  57:Grain.h       ****         inline void SetDuration(const float length)
 1011              		.loc 14 57 21 discriminator 2 view .LVU226
 1012              	.LBB714:
  58:Grain.h       ****         {
  59:Grain.h       ****             nextDuration_ = length;
 1013              		.loc 14 59 13 discriminator 2 view .LVU227
 1014              	.LBE714:
 1015              	.LBE713:
  34:Twines.cpp    ****         grains[i].SetSpeed(speed);
 1016              		.loc 11 34 20 is_stmt 0 discriminator 2 view .LVU228
 1017 00c4 AC42     		cmp	r4, r5
 1018              	.LBB716:
 1019              	.LBB717:
 1020              	.LBB718:
 1021              	.LBB719:
 1022              	.LBB720:
  36:../../DaisySP//Source/Utility/dsp.h **** #else
 1023              		.loc 13 36 5 discriminator 2 view .LVU229
 1024              		.syntax unified
 1025              	@ 36 "../../DaisySP//Source/Utility/dsp.h" 1
 1026 00c6 C9FE287A 		vmaxnm.f32 s15, s18, s17
 1027              	@ 0 "" 2
 1028              		.thumb
 1029              		.syntax unified
 1030              	.LBE720:
ARM GAS  /var/folders/hl/qgbwny5j0fd895c2c41bk3tw0000gp/T//ccBxTnvh.s 			page 38


 1031              	.LBE719:
 1032              	.LBE718:
 1033              	.LBE717:
 1034              	.LBE716:
 1035              	.LBB729:
 1036              	.LBB715:
 1037              		.loc 14 59 27 discriminator 2 view .LVU230
 1038 00ca 44ED279A 		vstr.32	s19, [r4, #-156]
 1039              	.LVL36:
 1040              		.loc 14 59 27 discriminator 2 view .LVU231
 1041              	.LBE715:
 1042              	.LBE729:
  38:Twines.cpp    **** 		grains[i].SetGrainDensity(density);
 1043              		.loc 11 38 3 is_stmt 1 discriminator 2 view .LVU232
 1044              	.LBB730:
 1045              	.LBI716:
  60:Grain.h       ****         }
  61:Grain.h       **** 
  62:Grain.h       ****         inline void SetGrainDensity(const float grainDensity)
 1046              		.loc 14 62 21 discriminator 2 view .LVU233
 1047              	.LBB727:
  63:Grain.h       ****         {
  64:Grain.h       ****             grainDensity_ = fclamp(grainDensity, 0.0f, 1.0f);
 1048              		.loc 14 64 13 discriminator 2 view .LVU234
 1049              	.LBB725:
 1050              	.LBI718:
  56:../../DaisySP//Source/Utility/dsp.h **** {
 1051              		.loc 13 56 14 discriminator 2 view .LVU235
 1052              	.LBE725:
 1053              	.LBE727:
 1054              	.LBE730:
 1055              	.LBE732:
  58:../../DaisySP//Source/Utility/dsp.h **** }
 1056              		.loc 13 58 5 discriminator 2 view .LVU236
 1057              	.LBB733:
 1058              	.LBB731:
 1059              	.LBB728:
 1060              	.LBB726:
 1061              	.LBB722:
 1062              	.LBI719:
  32:../../DaisySP//Source/Utility/dsp.h **** {
 1063              		.loc 13 32 14 discriminator 2 view .LVU237
 1064              	.LBB721:
  34:../../DaisySP//Source/Utility/dsp.h **** #ifdef __arm__
 1065              		.loc 13 34 5 discriminator 2 view .LVU238
  36:../../DaisySP//Source/Utility/dsp.h **** #else
 1066              		.loc 13 36 5 discriminator 2 view .LVU239
  40:../../DaisySP//Source/Utility/dsp.h **** }
 1067              		.loc 13 40 5 discriminator 2 view .LVU240
  40:../../DaisySP//Source/Utility/dsp.h **** }
 1068              		.loc 13 40 5 is_stmt 0 discriminator 2 view .LVU241
 1069              	.LBE721:
 1070              	.LBE722:
 1071              	.LBB723:
 1072              	.LBI723:
  43:../../DaisySP//Source/Utility/dsp.h **** {
 1073              		.loc 13 43 14 is_stmt 1 discriminator 2 view .LVU242
ARM GAS  /var/folders/hl/qgbwny5j0fd895c2c41bk3tw0000gp/T//ccBxTnvh.s 			page 39


 1074              	.LBB724:
  45:../../DaisySP//Source/Utility/dsp.h **** #ifdef __arm__
 1075              		.loc 13 45 5 discriminator 2 view .LVU243
  47:../../DaisySP//Source/Utility/dsp.h **** #else
 1076              		.loc 13 47 5 discriminator 2 view .LVU244
 1077              		.syntax unified
 1078              	@ 47 "../../DaisySP//Source/Utility/dsp.h" 1
 1079 00ce C7FEC87A 		vminnm.f32 s15, s15, s16
 1080              	@ 0 "" 2
 1081              	.LVL37:
  51:../../DaisySP//Source/Utility/dsp.h **** }
 1082              		.loc 13 51 5 discriminator 2 view .LVU245
  51:../../DaisySP//Source/Utility/dsp.h **** }
 1083              		.loc 13 51 5 is_stmt 0 discriminator 2 view .LVU246
 1084              		.thumb
 1085              		.syntax unified
 1086              	.LBE724:
 1087              	.LBE723:
 1088              	.LBE726:
 1089              		.loc 14 64 27 discriminator 2 view .LVU247
 1090 00d2 44ED267A 		vstr.32	s15, [r4, #-152]
 1091              	.LVL38:
 1092              		.loc 14 64 27 discriminator 2 view .LVU248
 1093              	.LBE728:
 1094              	.LBE731:
  34:Twines.cpp    ****         grains[i].SetSpeed(speed);
 1095              		.loc 11 34 2 is_stmt 1 discriminator 2 view .LVU249
  34:Twines.cpp    ****         grains[i].SetSpeed(speed);
 1096              		.loc 11 34 20 discriminator 2 view .LVU250
 1097 00d6 D9D1     		bne	.L15
  34:Twines.cpp    ****         grains[i].SetSpeed(speed);
 1098              		.loc 11 34 20 is_stmt 0 discriminator 2 view .LVU251
 1099              	.LBE733:
  39:Twines.cpp    ****     }
  40:Twines.cpp    **** 	
  41:Twines.cpp    **** 	diffuser.SetAmount(amount);
 1100              		.loc 11 41 2 is_stmt 1 view .LVU252
 1101              	.LVL39:
 1102              	.LBB734:
 1103              	.LBI734:
  28:diffuser.h    **** 
  29:diffuser.h    ****     /** Initialize the module
  30:diffuser.h    **** 	*/
  31:diffuser.h    ****     void Init();
  32:diffuser.h    **** 
  33:diffuser.h    ****     /** Reset the reverb */
  34:diffuser.h    ****     void Clear() { engine_.Clear(); }
  35:diffuser.h    **** 
  36:diffuser.h    ****     /** Get the next sample
  37:diffuser.h    **** 		\param in Next sample to process
  38:diffuser.h    **** 	*/
  39:diffuser.h    ****     float Process(float in);
  40:diffuser.h    **** 
  41:diffuser.h    ****     /** Set the reverb tail length
  42:diffuser.h    **** 		\param rt Works 0-1.
  43:diffuser.h    **** 	*/
  44:diffuser.h    ****     void SetTime(float rt) { rt_ = fclamp(rt, 0.f, 1.f); }
ARM GAS  /var/folders/hl/qgbwny5j0fd895c2c41bk3tw0000gp/T//ccBxTnvh.s 			page 40


  45:diffuser.h    **** 
  46:diffuser.h    ****     /** Set the amount of reverb.
  47:diffuser.h    **** 		\param amount Works 0-1.
  48:diffuser.h    **** 	*/
  49:diffuser.h    ****     void SetAmount(float amount) { amount_ = fclamp(amount, 0.f, 1.f); };
 1104              		.loc 9 49 10 view .LVU253
 1105              	.LBB735:
 1106              		.loc 9 49 36 view .LVU254
 1107              	.LBB736:
 1108              	.LBI736:
  56:../../DaisySP//Source/Utility/dsp.h **** {
 1109              		.loc 13 56 14 view .LVU255
 1110              	.LBE736:
 1111              	.LBE735:
 1112              	.LBE734:
  58:../../DaisySP//Source/Utility/dsp.h **** }
 1113              		.loc 13 58 5 view .LVU256
 1114              	.LBB751:
 1115              	.LBB748:
 1116              	.LBB745:
 1117              	.LBB737:
 1118              	.LBI737:
  32:../../DaisySP//Source/Utility/dsp.h **** {
 1119              		.loc 13 32 14 view .LVU257
 1120              	.LBB738:
  34:../../DaisySP//Source/Utility/dsp.h **** #ifdef __arm__
 1121              		.loc 13 34 5 view .LVU258
  36:../../DaisySP//Source/Utility/dsp.h **** #else
 1122              		.loc 13 36 5 view .LVU259
 1123              	.LBE738:
 1124              	.LBE737:
 1125              	.LBE745:
 1126              		.loc 9 49 44 is_stmt 0 view .LVU260
 1127 00d8 0B4B     		ldr	r3, .L18+16
 1128              	.LBB746:
 1129              	.LBB740:
 1130              	.LBB739:
  36:../../DaisySP//Source/Utility/dsp.h **** #else
 1131              		.loc 13 36 5 view .LVU261
 1132              		.syntax unified
 1133              	@ 36 "../../DaisySP//Source/Utility/dsp.h" 1
 1134 00da CBFEA8BA 		vmaxnm.f32 s23, s23, s17
 1135              	@ 0 "" 2
 1136              	.LVL40:
  40:../../DaisySP//Source/Utility/dsp.h **** }
 1137              		.loc 13 40 5 is_stmt 1 view .LVU262
  40:../../DaisySP//Source/Utility/dsp.h **** }
 1138              		.loc 13 40 5 is_stmt 0 view .LVU263
 1139              		.thumb
 1140              		.syntax unified
 1141              	.LBE739:
 1142              	.LBE740:
 1143              	.LBB741:
 1144              	.LBI741:
  43:../../DaisySP//Source/Utility/dsp.h **** {
 1145              		.loc 13 43 14 is_stmt 1 view .LVU264
 1146              	.LBB742:
ARM GAS  /var/folders/hl/qgbwny5j0fd895c2c41bk3tw0000gp/T//ccBxTnvh.s 			page 41


  45:../../DaisySP//Source/Utility/dsp.h **** #ifdef __arm__
 1147              		.loc 13 45 5 view .LVU265
  47:../../DaisySP//Source/Utility/dsp.h **** #else
 1148              		.loc 13 47 5 view .LVU266
 1149              	.LBE742:
 1150              	.LBE741:
 1151              	.LBE746:
 1152              	.LBE748:
 1153              	.LBE751:
 1154              	.LBB752:
 1155              	.LBB753:
 1156              	.LBB754:
 1157              	.LBB755:
 1158              	.LBB756:
  36:../../DaisySP//Source/Utility/dsp.h **** #else
 1159              		.loc 13 36 5 is_stmt 0 view .LVU267
 1160              		.syntax unified
 1161              	@ 36 "../../DaisySP//Source/Utility/dsp.h" 1
 1162 00de CBFE288A 		vmaxnm.f32 s17, s22, s17
 1163              	@ 0 "" 2
 1164              		.thumb
 1165              		.syntax unified
 1166              	.LBE756:
 1167              	.LBE755:
 1168              	.LBE754:
 1169              	.LBE753:
 1170              	.LBE752:
 1171              	.LBB769:
 1172              	.LBB749:
 1173              	.LBB747:
 1174              	.LBB744:
 1175              	.LBB743:
  47:../../DaisySP//Source/Utility/dsp.h **** #else
 1176              		.loc 13 47 5 view .LVU268
 1177              		.syntax unified
 1178              	@ 47 "../../DaisySP//Source/Utility/dsp.h" 1
 1179 00e2 CBFEC8BA 		vminnm.f32 s23, s23, s16
 1180              	@ 0 "" 2
 1181              	.LVL41:
  51:../../DaisySP//Source/Utility/dsp.h **** }
 1182              		.loc 13 51 5 is_stmt 1 view .LVU269
  51:../../DaisySP//Source/Utility/dsp.h **** }
 1183              		.loc 13 51 5 is_stmt 0 view .LVU270
 1184              		.thumb
 1185              		.syntax unified
 1186              	.LBE743:
 1187              	.LBE744:
 1188              	.LBE747:
 1189              	.LBE749:
 1190              	.LBE769:
 1191              	.LBB770:
 1192              	.LBB766:
 1193              	.LBB763:
 1194              	.LBB758:
 1195              	.LBB759:
  47:../../DaisySP//Source/Utility/dsp.h **** #else
 1196              		.loc 13 47 5 view .LVU271
ARM GAS  /var/folders/hl/qgbwny5j0fd895c2c41bk3tw0000gp/T//ccBxTnvh.s 			page 42


 1197              		.syntax unified
 1198              	@ 47 "../../DaisySP//Source/Utility/dsp.h" 1
 1199 00e6 88FEC88A 		vminnm.f32 s16, s17, s16
 1200              	@ 0 "" 2
 1201              		.thumb
 1202              		.syntax unified
 1203              	.LBE759:
 1204              	.LBE758:
 1205              	.LBE763:
 1206              	.LBE766:
 1207              	.LBE770:
 1208              	.LBB771:
 1209              	.LBB750:
 1210              		.loc 9 49 44 view .LVU272
 1211 00ea C3ED01BA 		vstr.32	s23, [r3, #4]
 1212              	.LVL42:
 1213              		.loc 9 49 44 view .LVU273
 1214              	.LBE750:
 1215              	.LBE771:
  42:Twines.cpp    **** 	diffuser.SetTime(time);
 1216              		.loc 11 42 2 is_stmt 1 view .LVU274
 1217              	.LBB772:
 1218              	.LBI752:
  44:diffuser.h    **** 
 1219              		.loc 9 44 10 view .LVU275
 1220              	.LBB767:
  44:diffuser.h    **** 
 1221              		.loc 9 44 30 view .LVU276
 1222              	.LBB764:
 1223              	.LBI754:
  56:../../DaisySP//Source/Utility/dsp.h **** {
 1224              		.loc 13 56 14 view .LVU277
 1225              	.LBE764:
 1226              	.LBE767:
 1227              	.LBE772:
  58:../../DaisySP//Source/Utility/dsp.h **** }
 1228              		.loc 13 58 5 view .LVU278
 1229              	.LBB773:
 1230              	.LBB768:
 1231              	.LBB765:
 1232              	.LBB761:
 1233              	.LBI755:
  32:../../DaisySP//Source/Utility/dsp.h **** {
 1234              		.loc 13 32 14 view .LVU279
 1235              	.LBB757:
  34:../../DaisySP//Source/Utility/dsp.h **** #ifdef __arm__
 1236              		.loc 13 34 5 view .LVU280
  36:../../DaisySP//Source/Utility/dsp.h **** #else
 1237              		.loc 13 36 5 view .LVU281
  40:../../DaisySP//Source/Utility/dsp.h **** }
 1238              		.loc 13 40 5 view .LVU282
  40:../../DaisySP//Source/Utility/dsp.h **** }
 1239              		.loc 13 40 5 is_stmt 0 view .LVU283
 1240              	.LBE757:
 1241              	.LBE761:
 1242              	.LBB762:
 1243              	.LBI758:
ARM GAS  /var/folders/hl/qgbwny5j0fd895c2c41bk3tw0000gp/T//ccBxTnvh.s 			page 43


  43:../../DaisySP//Source/Utility/dsp.h **** {
 1244              		.loc 13 43 14 is_stmt 1 view .LVU284
 1245              	.LBB760:
  45:../../DaisySP//Source/Utility/dsp.h **** #ifdef __arm__
 1246              		.loc 13 45 5 view .LVU285
  47:../../DaisySP//Source/Utility/dsp.h **** #else
 1247              		.loc 13 47 5 view .LVU286
  51:../../DaisySP//Source/Utility/dsp.h **** }
 1248              		.loc 13 51 5 view .LVU287
  51:../../DaisySP//Source/Utility/dsp.h **** }
 1249              		.loc 13 51 5 is_stmt 0 view .LVU288
 1250              	.LBE760:
 1251              	.LBE762:
 1252              	.LBE765:
  44:diffuser.h    **** 
 1253              		.loc 9 44 34 view .LVU289
 1254 00ee 83ED008A 		vstr.32	s16, [r3]
 1255              	.LVL43:
  44:diffuser.h    **** 
 1256              		.loc 9 44 34 view .LVU290
 1257              	.LBE768:
 1258              	.LBE773:
  43:Twines.cpp    **** }
 1259              		.loc 11 43 1 view .LVU291
 1260 00f2 BDEC088B 		vldm	sp!, {d8-d11}
 1261              		.cfi_restore 86
 1262              		.cfi_restore 87
 1263              		.cfi_restore 84
 1264              		.cfi_restore 85
 1265              		.cfi_restore 82
 1266              		.cfi_restore 83
 1267              		.cfi_restore 80
 1268              		.cfi_restore 81
 1269              		.cfi_def_cfa_offset 16
 1270              	.LVL44:
 1271              		.loc 11 43 1 view .LVU292
 1272 00f6 38BD     		pop	{r3, r4, r5, pc}
 1273              	.L19:
 1274              		.align	2
 1275              	.L18:
 1276 00f8 00000000 		.word	.LANCHOR14
 1277 00fc 00000000 		.word	.LANCHOR15
 1278 0100 00000000 		.word	0
 1279 0104 0000C842 		.word	1120403456
 1280 0108 00000000 		.word	diffuser
 1281              		.cfi_endproc
 1282              	.LFE4849:
 1284              		.section	.text._Z13AudioCallbackPKPKfPPfj,"ax",%progbits
 1285              		.align	1
 1286              		.p2align 2,,3
 1287              		.global	_Z13AudioCallbackPKPKfPPfj
 1288              		.syntax unified
 1289              		.thumb
 1290              		.thumb_func
 1291              		.fpu fpv5-d16
 1293              	_Z13AudioCallbackPKPKfPPfj:
 1294              	.LVL45:
ARM GAS  /var/folders/hl/qgbwny5j0fd895c2c41bk3tw0000gp/T//ccBxTnvh.s 			page 44


 1295              	.LFB4850:
  44:Twines.cpp    **** 
  45:Twines.cpp    **** void AudioCallback(AudioHandle::InputBuffer in, AudioHandle::OutputBuffer out, size_t size)
  46:Twines.cpp    **** {
 1296              		.loc 11 46 1 is_stmt 1 view -0
 1297              		.cfi_startproc
 1298              		@ args = 0, pretend = 0, frame = 0
 1299              		@ frame_needed = 0, uses_anonymous_args = 0
  47:Twines.cpp    **** 	hw.ProcessAllControls();
 1300              		.loc 11 47 2 view .LVU294
 1301              	.LBB774:
 1302              	.LBI774:
  66:../../libDaisy//src/daisy_patch_sm.h **** 
  67:../../libDaisy//src/daisy_patch_sm.h ****         /** Initializes the memories, and core peripherals for the Daisy Patch SM */
  68:../../libDaisy//src/daisy_patch_sm.h ****         void Init();
  69:../../libDaisy//src/daisy_patch_sm.h **** 
  70:../../libDaisy//src/daisy_patch_sm.h ****         /** Starts a non-interleaving audio callback */
  71:../../libDaisy//src/daisy_patch_sm.h ****         void StartAudio(AudioHandle::AudioCallback cb);
  72:../../libDaisy//src/daisy_patch_sm.h **** 
  73:../../libDaisy//src/daisy_patch_sm.h ****         /** Starts an interleaving audio callback */
  74:../../libDaisy//src/daisy_patch_sm.h ****         void StartAudio(AudioHandle::InterleavingAudioCallback cb);
  75:../../libDaisy//src/daisy_patch_sm.h **** 
  76:../../libDaisy//src/daisy_patch_sm.h ****         /** Changes the callback that is executing.
  77:../../libDaisy//src/daisy_patch_sm.h ****          *  This may cause clicks if done while audio is processing.
  78:../../libDaisy//src/daisy_patch_sm.h ****          */
  79:../../libDaisy//src/daisy_patch_sm.h ****         void ChangeAudioCallback(AudioHandle::AudioCallback cb);
  80:../../libDaisy//src/daisy_patch_sm.h **** 
  81:../../libDaisy//src/daisy_patch_sm.h ****         /** Changes the callback that is executing.
  82:../../libDaisy//src/daisy_patch_sm.h ****          *  This may cause clicks if done while audio is processing.
  83:../../libDaisy//src/daisy_patch_sm.h ****          */
  84:../../libDaisy//src/daisy_patch_sm.h ****         void ChangeAudioCallback(AudioHandle::InterleavingAudioCallback cb);
  85:../../libDaisy//src/daisy_patch_sm.h **** 
  86:../../libDaisy//src/daisy_patch_sm.h ****         /** Stops the transmission of audio. */
  87:../../libDaisy//src/daisy_patch_sm.h ****         void StopAudio();
  88:../../libDaisy//src/daisy_patch_sm.h **** 
  89:../../libDaisy//src/daisy_patch_sm.h ****         /** Sets the number of samples processed in an audio callback. 
  90:../../libDaisy//src/daisy_patch_sm.h ****          *  This will only take effect on the next invocation of `StartAudio`
  91:../../libDaisy//src/daisy_patch_sm.h ****          */
  92:../../libDaisy//src/daisy_patch_sm.h ****         void SetAudioBlockSize(size_t size);
  93:../../libDaisy//src/daisy_patch_sm.h **** 
  94:../../libDaisy//src/daisy_patch_sm.h ****         /** Sets the samplerate for the audio engine 
  95:../../libDaisy//src/daisy_patch_sm.h ****          *  This will set it to the closest valid samplerate. Options being:
  96:../../libDaisy//src/daisy_patch_sm.h ****          *  8kHz, 16kHz, 32kHz, 48kHz, and 96kHz
  97:../../libDaisy//src/daisy_patch_sm.h ****          */
  98:../../libDaisy//src/daisy_patch_sm.h ****         void SetAudioSampleRate(float sr);
  99:../../libDaisy//src/daisy_patch_sm.h **** 
 100:../../libDaisy//src/daisy_patch_sm.h ****         void SetAudioSampleRate(SaiHandle::Config::SampleRate sample_rate);
 101:../../libDaisy//src/daisy_patch_sm.h **** 
 102:../../libDaisy//src/daisy_patch_sm.h ****         /** Returns the number of samples processed in an audio callback */
 103:../../libDaisy//src/daisy_patch_sm.h ****         size_t AudioBlockSize();
 104:../../libDaisy//src/daisy_patch_sm.h **** 
 105:../../libDaisy//src/daisy_patch_sm.h ****         /** Returns the audio engine's samplerate in Hz */
 106:../../libDaisy//src/daisy_patch_sm.h ****         float AudioSampleRate();
 107:../../libDaisy//src/daisy_patch_sm.h **** 
 108:../../libDaisy//src/daisy_patch_sm.h ****         /** Returns the rate at which the audio callback will be called in Hz */
 109:../../libDaisy//src/daisy_patch_sm.h ****         float AudioCallbackRate();
 110:../../libDaisy//src/daisy_patch_sm.h **** 
ARM GAS  /var/folders/hl/qgbwny5j0fd895c2c41bk3tw0000gp/T//ccBxTnvh.s 			page 45


 111:../../libDaisy//src/daisy_patch_sm.h ****         /** Starts the Control ADCs 
 112:../../libDaisy//src/daisy_patch_sm.h ****          * 
 113:../../libDaisy//src/daisy_patch_sm.h ****          *  This is started automatically when Init() is called.
 114:../../libDaisy//src/daisy_patch_sm.h ****          */
 115:../../libDaisy//src/daisy_patch_sm.h ****         void StartAdc();
 116:../../libDaisy//src/daisy_patch_sm.h **** 
 117:../../libDaisy//src/daisy_patch_sm.h ****         /** Stops the Control ADCs */
 118:../../libDaisy//src/daisy_patch_sm.h ****         void StopAdc();
 119:../../libDaisy//src/daisy_patch_sm.h **** 
 120:../../libDaisy//src/daisy_patch_sm.h ****         /** Reads and filters all of the analog control inputs */
 121:../../libDaisy//src/daisy_patch_sm.h ****         void ProcessAnalogControls();
 122:../../libDaisy//src/daisy_patch_sm.h **** 
 123:../../libDaisy//src/daisy_patch_sm.h ****         /** Reads and debounces any of the digital control inputs 
 124:../../libDaisy//src/daisy_patch_sm.h ****          *  This does nothing on this board at this time.
 125:../../libDaisy//src/daisy_patch_sm.h ****          */
 126:../../libDaisy//src/daisy_patch_sm.h ****         void ProcessDigitalControls();
 127:../../libDaisy//src/daisy_patch_sm.h **** 
 128:../../libDaisy//src/daisy_patch_sm.h ****         /** Does both of the above */
 129:../../libDaisy//src/daisy_patch_sm.h ****         void ProcessAllControls()
 1303              		.loc 2 129 14 view .LVU295
 1304              	.LBB775:
 130:../../libDaisy//src/daisy_patch_sm.h ****         {
 131:../../libDaisy//src/daisy_patch_sm.h ****             ProcessAnalogControls();
 1305              		.loc 2 131 13 view .LVU296
 1306              	.LBE775:
 1307              	.LBE774:
  46:Twines.cpp    **** 	hw.ProcessAllControls();
 1308              		.loc 11 46 1 is_stmt 0 view .LVU297
 1309 0000 2DE9F047 		push	{r4, r5, r6, r7, r8, r9, r10, lr}
 1310              		.cfi_def_cfa_offset 32
 1311              		.cfi_offset 4, -32
 1312              		.cfi_offset 5, -28
 1313              		.cfi_offset 6, -24
 1314              		.cfi_offset 7, -20
 1315              		.cfi_offset 8, -16
 1316              		.cfi_offset 9, -12
 1317              		.cfi_offset 10, -8
 1318              		.cfi_offset 14, -4
 1319 0004 9146     		mov	r9, r2
 1320 0006 0746     		mov	r7, r0
 1321              	.LBB778:
 1322              	.LBB776:
 1323              		.loc 2 131 34 view .LVU298
 1324 0008 1C48     		ldr	r0, .L30
 1325              	.LVL46:
 1326              		.loc 2 131 34 view .LVU299
 1327              	.LBE776:
 1328              	.LBE778:
  46:Twines.cpp    **** 	hw.ProcessAllControls();
 1329              		.loc 11 46 1 view .LVU300
 1330 000a 8846     		mov	r8, r1
 1331 000c 2DED028B 		vpush.64	{d8}
 1332              		.cfi_def_cfa_offset 40
 1333              		.cfi_offset 80, -40
 1334              		.cfi_offset 81, -36
 1335              	.LBB779:
 1336              	.LBB777:
ARM GAS  /var/folders/hl/qgbwny5j0fd895c2c41bk3tw0000gp/T//ccBxTnvh.s 			page 46


 1337              		.loc 2 131 34 view .LVU301
 1338 0010 FFF7FEFF 		bl	_ZN5daisy8patch_sm12DaisyPatchSM21ProcessAnalogControlsEv
 1339              	.LVL47:
 132:../../libDaisy//src/daisy_patch_sm.h ****             ProcessDigitalControls();
 1340              		.loc 2 132 13 is_stmt 1 view .LVU302
 1341              		.loc 2 132 35 is_stmt 0 view .LVU303
 1342 0014 1948     		ldr	r0, .L30
 1343 0016 FFF7FEFF 		bl	_ZN5daisy8patch_sm12DaisyPatchSM22ProcessDigitalControlsEv
 1344              	.LVL48:
 1345              		.loc 2 132 35 view .LVU304
 1346              	.LBE777:
 1347              	.LBE779:
  48:Twines.cpp    **** 	float inputs, grain_process, mix;
 1348              		.loc 11 48 2 is_stmt 1 view .LVU305
  49:Twines.cpp    **** 
  50:Twines.cpp    **** 	Controls();
 1349              		.loc 11 50 2 view .LVU306
 1350              		.loc 11 50 10 is_stmt 0 view .LVU307
 1351 001a FFF7FEFF 		bl	_Z8Controlsv
 1352              	.LVL49:
  51:Twines.cpp    **** 
  52:Twines.cpp    **** 	for (size_t i = 0; i < size; i++)
 1353              		.loc 11 52 2 is_stmt 1 view .LVU308
 1354              	.LBB780:
 1355              		.loc 11 52 23 view .LVU309
 1356 001e B9F1000F 		cmp	r9, #0
 1357 0022 26D0     		beq	.L20
 1358              		.loc 11 52 14 is_stmt 0 view .LVU310
 1359 0024 0025     		movs	r5, #0
 1360 0026 164E     		ldr	r6, .L30+4
 1361              	.LVL50:
 1362              	.L23:
 1363              	.LBB781:
  53:Twines.cpp    **** 	{
  54:Twines.cpp    **** 		inputs = IN_L[i] + IN_R[i];
 1364              		.loc 11 54 3 is_stmt 1 view .LVU311
 1365 0028 4FEA850A 		lsl	r10, r5, #2
 1366 002c 154C     		ldr	r4, .L30+8
 1367              		.loc 11 54 28 is_stmt 0 view .LVU312
 1368 002e D7E90023 		ldrd	r2, r3, [r7]
 1369              		.loc 11 54 18 view .LVU313
 1370 0032 02EB8502 		add	r2, r2, r5, lsl #2
 1371              		.loc 11 54 28 view .LVU314
 1372 0036 03EB8503 		add	r3, r3, r5, lsl #2
 1373              		.loc 11 54 10 view .LVU315
 1374 003a 92ED008A 		vldr.32	s16, [r2]
 1375 003e D3ED007A 		vldr.32	s15, [r3]
 1376 0042 38EE278A 		vadd.f32	s16, s16, s15
 1377              	.LVL51:
  55:Twines.cpp    **** 
  56:Twines.cpp    ****         for (int j = 0; j < kGrainCount; j++)
 1378              		.loc 11 56 9 is_stmt 1 view .LVU316
 1379              	.LBB782:
 1380              		.loc 11 56 27 view .LVU317
 1381              	.L22:
  57:Twines.cpp    ****         {
  58:Twines.cpp    ****             grain_process = grains[j].Process(inputs);
ARM GAS  /var/folders/hl/qgbwny5j0fd895c2c41bk3tw0000gp/T//ccBxTnvh.s 			page 47


 1382              		.loc 11 58 13 discriminator 2 view .LVU318
 1383              		.loc 11 58 46 is_stmt 0 discriminator 2 view .LVU319
 1384 0046 2046     		mov	r0, r4
  56:Twines.cpp    ****         {
 1385              		.loc 11 56 27 discriminator 2 view .LVU320
 1386 0048 BC34     		adds	r4, r4, #188
 1387              		.loc 11 58 46 discriminator 2 view .LVU321
 1388 004a B0EE480A 		vmov.f32	s0, s16
 1389 004e FFF7FEFF 		bl	_ZN10graindelay5Grain7ProcessEf
 1390              	.LVL52:
  56:Twines.cpp    ****         {
 1391              		.loc 11 56 9 is_stmt 1 discriminator 2 view .LVU322
  56:Twines.cpp    ****         {
 1392              		.loc 11 56 27 discriminator 2 view .LVU323
 1393 0052 A642     		cmp	r6, r4
 1394 0054 F7D1     		bne	.L22
 1395              	.LBE782:
  59:Twines.cpp    ****         }	
  60:Twines.cpp    **** 	
  61:Twines.cpp    **** 		mix = diffuser.Process(grain_process);
 1396              		.loc 11 61 3 discriminator 2 view .LVU324
 1397              		.loc 11 61 25 is_stmt 0 discriminator 2 view .LVU325
 1398 0056 0C48     		ldr	r0, .L30+12
 1399              	.LBE781:
  52:Twines.cpp    **** 	{
 1400              		.loc 11 52 2 discriminator 2 view .LVU326
 1401 0058 0135     		adds	r5, r5, #1
 1402              	.LVL53:
 1403              	.LBB783:
 1404              		.loc 11 61 25 discriminator 2 view .LVU327
 1405 005a FFF7FEFF 		bl	_ZN7daisysp8Diffuser7ProcessEf
 1406              	.LVL54:
 1407              		.loc 11 61 25 discriminator 2 view .LVU328
 1408              	.LBE783:
  52:Twines.cpp    **** 	{
 1409              		.loc 11 52 23 discriminator 2 view .LVU329
 1410 005e A945     		cmp	r9, r5
 1411              	.LBB784:
  62:Twines.cpp    **** 
  63:Twines.cpp    **** 		OUT_L[i] = mix;
  64:Twines.cpp    **** 		OUT_R[i] = mix;
 1412              		.loc 11 64 12 discriminator 2 view .LVU330
 1413 0060 D8E90023 		ldrd	r2, r3, [r8]
 1414              	.LVL55:
  63:Twines.cpp    **** 		OUT_R[i] = mix;
 1415              		.loc 11 63 3 is_stmt 1 discriminator 2 view .LVU331
  63:Twines.cpp    **** 		OUT_R[i] = mix;
 1416              		.loc 11 63 12 is_stmt 0 discriminator 2 view .LVU332
 1417 0064 5244     		add	r2, r2, r10
 1418              		.loc 11 64 12 discriminator 2 view .LVU333
 1419 0066 5344     		add	r3, r3, r10
  63:Twines.cpp    **** 		OUT_R[i] = mix;
 1420              		.loc 11 63 12 discriminator 2 view .LVU334
 1421 0068 82ED000A 		vstr.32	s0, [r2]
 1422              		.loc 11 64 3 is_stmt 1 discriminator 2 view .LVU335
 1423              		.loc 11 64 12 is_stmt 0 discriminator 2 view .LVU336
 1424 006c 83ED000A 		vstr.32	s0, [r3]
ARM GAS  /var/folders/hl/qgbwny5j0fd895c2c41bk3tw0000gp/T//ccBxTnvh.s 			page 48


 1425              	.LBE784:
  52:Twines.cpp    **** 	{
 1426              		.loc 11 52 2 is_stmt 1 discriminator 2 view .LVU337
 1427              	.LVL56:
  52:Twines.cpp    **** 	{
 1428              		.loc 11 52 23 discriminator 2 view .LVU338
 1429 0070 DAD1     		bne	.L23
 1430              	.LVL57:
 1431              	.L20:
  52:Twines.cpp    **** 	{
 1432              		.loc 11 52 23 is_stmt 0 discriminator 2 view .LVU339
 1433              	.LBE780:
  65:Twines.cpp    **** 	}
  66:Twines.cpp    **** }
 1434              		.loc 11 66 1 view .LVU340
 1435 0072 BDEC028B 		vldm	sp!, {d8}
 1436              		.cfi_restore 80
 1437              		.cfi_restore 81
 1438              		.cfi_def_cfa_offset 32
 1439 0076 BDE8F087 		pop	{r4, r5, r6, r7, r8, r9, r10, pc}
 1440              	.LVL58:
 1441              	.L31:
 1442              		.loc 11 66 1 view .LVU341
 1443 007a 00BF     		.align	2
 1444              	.L30:
 1445 007c 00000000 		.word	.LANCHOR14
 1446 0080 AC030000 		.word	.LANCHOR15+940
 1447 0084 00000000 		.word	.LANCHOR15
 1448 0088 00000000 		.word	diffuser
 1449              		.cfi_endproc
 1450              	.LFE4850:
 1452              		.section	.text.startup.main,"ax",%progbits
 1453              		.align	1
 1454              		.p2align 2,,3
 1455              		.global	main
 1456              		.syntax unified
 1457              		.thumb
 1458              		.thumb_func
 1459              		.fpu fpv5-d16
 1461              	main:
 1462              	.LFB4851:
  67:Twines.cpp    **** 
  68:Twines.cpp    **** int main(void)
  69:Twines.cpp    **** {
 1463              		.loc 11 69 1 is_stmt 1 view -0
 1464              		.cfi_startproc
 1465              		@ args = 0, pretend = 0, frame = 0
 1466              		@ frame_needed = 0, uses_anonymous_args = 0
  70:Twines.cpp    **** 	hw.Init();
 1467              		.loc 11 70 2 view .LVU343
  69:Twines.cpp    **** 	hw.Init();
 1468              		.loc 11 69 1 is_stmt 0 view .LVU344
 1469 0000 2DE9F041 		push	{r4, r5, r6, r7, r8, lr}
 1470              		.cfi_def_cfa_offset 24
 1471              		.cfi_offset 4, -24
 1472              		.cfi_offset 5, -20
 1473              		.cfi_offset 6, -16
ARM GAS  /var/folders/hl/qgbwny5j0fd895c2c41bk3tw0000gp/T//ccBxTnvh.s 			page 49


 1474              		.cfi_offset 7, -12
 1475              		.cfi_offset 8, -8
 1476              		.cfi_offset 14, -4
 1477              		.loc 11 70 9 view .LVU345
 1478 0004 2D48     		ldr	r0, .L39
 1479              	.LBB796:
 1480              	.LBB797:
 1481              	.LBB798:
  22:Grain.h       ****             for (size_t i = 0; i < bufferSize; i++)
 1482              		.loc 14 22 38 view .LVU346
 1483 0006 2E4F     		ldr	r7, .L39+4
 1484 0008 2E4D     		ldr	r5, .L39+8
 1485              	.LBE798:
 1486              	.LBE797:
 1487              	.LBE796:
  69:Twines.cpp    **** 	hw.Init();
 1488              		.loc 11 69 1 view .LVU347
 1489 000a 2DED028B 		vpush.64	{d8}
 1490              		.cfi_def_cfa_offset 32
 1491              		.cfi_offset 80, -32
 1492              		.cfi_offset 81, -28
 1493              		.loc 11 70 9 view .LVU348
 1494 000e FFF7FEFF 		bl	_ZN5daisy8patch_sm12DaisyPatchSM4InitEv
 1495              	.LVL59:
  71:Twines.cpp    **** 	hw.SetAudioBlockSize(4); // number of samples handled per callback
 1496              		.loc 11 71 2 is_stmt 1 view .LVU349
 1497              		.loc 11 71 22 is_stmt 0 view .LVU350
 1498 0012 0421     		movs	r1, #4
 1499 0014 2948     		ldr	r0, .L39
 1500 0016 05F56B78 		add	r8, r5, #940
 1501 001a FFF7FEFF 		bl	_ZN5daisy8patch_sm12DaisyPatchSM17SetAudioBlockSizeEj
 1502              	.LVL60:
  72:Twines.cpp    **** 	hw.SetAudioSampleRate(SaiHandle::Config::SampleRate::SAI_48KHZ);
 1503              		.loc 11 72 2 is_stmt 1 view .LVU351
 1504              		.loc 11 72 23 is_stmt 0 view .LVU352
 1505 001e 0321     		movs	r1, #3
 1506 0020 2648     		ldr	r0, .L39
 1507 0022 FFF7FEFF 		bl	_ZN5daisy8patch_sm12DaisyPatchSM18SetAudioSampleRateENS_9SaiHandle6Config10SampleRateE
 1508              	.LVL61:
  73:Twines.cpp    **** 	float sample_rate = hw.AudioSampleRate();
 1509              		.loc 11 73 2 is_stmt 1 view .LVU353
 1510              		.loc 11 73 40 is_stmt 0 view .LVU354
 1511 0026 2548     		ldr	r0, .L39
 1512 0028 FFF7FEFF 		bl	_ZN5daisy8patch_sm12DaisyPatchSM15AudioSampleRateEv
 1513              	.LVL62:
 1514 002c F0EE408A 		vmov.f32	s17, s0
 1515              	.LVL63:
  74:Twines.cpp    **** 
  75:Twines.cpp    **** 	InitBed();
 1516              		.loc 11 75 2 is_stmt 1 view .LVU355
 1517              		.loc 11 75 9 is_stmt 0 view .LVU356
 1518 0030 FFF7FEFF 		bl	_ZN5daisy8patch_sm7InitBedEv
 1519              	.LVL64:
  76:Twines.cpp    **** 
  77:Twines.cpp    **** 	// init grains
  78:Twines.cpp    **** 	for (int i = 0; i < kGrainCount; i++) {
 1520              		.loc 11 78 2 is_stmt 1 view .LVU357
ARM GAS  /var/folders/hl/qgbwny5j0fd895c2c41bk3tw0000gp/T//ccBxTnvh.s 			page 50


 1521              	.LBB817:
 1522              		.loc 11 78 20 view .LVU358
 1523              	.LBB804:
 1524              	.LBB800:
  22:Grain.h       ****             for (size_t i = 0; i < bufferSize; i++)
 1525              		.loc 14 22 40 is_stmt 0 view .LVU359
 1526 0034 244B     		ldr	r3, .L39+12
  22:Grain.h       ****             for (size_t i = 0; i < bufferSize; i++)
 1527              		.loc 14 22 38 view .LVU360
 1528 0036 1B68     		ldr	r3, [r3]
 1529 0038 FF1A     		subs	r7, r7, r3
 1530 003a 244B     		ldr	r3, .L39+16
 1531              	.LVL65:
 1532              	.L34:
  22:Grain.h       ****             for (size_t i = 0; i < bufferSize; i++)
 1533              		.loc 14 22 38 view .LVU361
 1534              	.LBE800:
 1535              	.LBE804:
  79:Twines.cpp    ****         grains[i].Init(sample_rate, &grainBuffer[kBufferSize * i], kBufferSize);
 1536              		.loc 11 79 9 is_stmt 1 discriminator 2 view .LVU362
 1537 003c 244C     		ldr	r4, .L39+20
 1538 003e A5F17006 		sub	r6, r5, #112
 1539              	.LBB805:
 1540              	.LBB801:
  20:Grain.h       ****             buffer_ = buffer;
 1541              		.loc 14 20 25 is_stmt 0 discriminator 2 view .LVU363
 1542 0042 45ED128A 		vstr.32	s17, [r5, #-72]
 1543 0046 1C44     		add	r4, r4, r3
 1544              	.LVL66:
  20:Grain.h       ****             buffer_ = buffer;
 1545              		.loc 14 20 25 discriminator 2 view .LVU364
 1546              	.LBE801:
 1547              	.LBI797:
  18:Grain.h       ****         {
 1548              		.loc 14 18 14 is_stmt 1 discriminator 2 view .LVU365
 1549              	.LBB802:
  20:Grain.h       ****             buffer_ = buffer;
 1550              		.loc 14 20 13 discriminator 2 view .LVU366
  21:Grain.h       ****             bufferSize_ = bufferSize - kInterpolationTail;
 1551              		.loc 14 21 13 discriminator 2 view .LVU367
  22:Grain.h       ****             for (size_t i = 0; i < bufferSize; i++)
 1552              		.loc 14 22 25 is_stmt 0 discriminator 2 view .LVU368
 1553 0048 45F86C7C 		str	r7, [r5, #-108]
  21:Grain.h       ****             bufferSize_ = bufferSize - kInterpolationTail;
 1554              		.loc 14 21 21 discriminator 2 view .LVU369
 1555 004c 45F8704C 		str	r4, [r5, #-112]
  22:Grain.h       ****             for (size_t i = 0; i < bufferSize; i++)
 1556              		.loc 14 22 13 is_stmt 1 discriminator 2 view .LVU370
  23:Grain.h       ****                 buffer_[i] = 0;
 1557              		.loc 14 23 13 discriminator 2 view .LVU371
 1558              	.LVL67:
 1559              	.LBB799:
  23:Grain.h       ****                 buffer_[i] = 0;
 1560              		.loc 14 23 34 discriminator 2 view .LVU372
 1561              	.L33:
  24:Grain.h       ****             writeIndex_ = 0;
 1562              		.loc 14 24 17 view .LVU373
ARM GAS  /var/folders/hl/qgbwny5j0fd895c2c41bk3tw0000gp/T//ccBxTnvh.s 			page 51


  24:Grain.h       ****             writeIndex_ = 0;
 1563              		.loc 14 24 28 is_stmt 0 view .LVU374
 1564 0050 9FED208A 		vldr.32	s16, .L39+24
 1565 0054 A4EC018A 		vstmia.32	r4!, {s16}
  23:Grain.h       ****                 buffer_[i] = 0;
 1566              		.loc 14 23 13 is_stmt 1 view .LVU375
  23:Grain.h       ****                 buffer_[i] = 0;
 1567              		.loc 14 23 34 view .LVU376
 1568 0058 9C42     		cmp	r4, r3
 1569 005a F9D1     		bne	.L33
 1570              	.LBE799:
  25:Grain.h       ****             readPosition_ = 0;
 1571              		.loc 14 25 13 view .LVU377
  25:Grain.h       ****             readPosition_ = 0;
 1572              		.loc 14 25 25 is_stmt 0 view .LVU378
 1573 005c 0023     		movs	r3, #0
  28:Grain.h       ****             env_.Init(sampleRate);
 1574              		.loc 14 28 30 view .LVU379
 1575 005e 2846     		mov	r0, r5
 1576 0060 B0EE680A 		vmov.f32	s0, s17
  26:Grain.h       **** 
 1577              		.loc 14 26 27 view .LVU380
 1578 0064 05ED108A 		vstr.32	s16, [r5, #-64]
  25:Grain.h       ****             readPosition_ = 0;
 1579              		.loc 14 25 25 view .LVU381
 1580 0068 45F8683C 		str	r3, [r5, #-104]
  26:Grain.h       **** 
 1581              		.loc 14 26 13 is_stmt 1 view .LVU382
  28:Grain.h       ****             env_.Init(sampleRate);
 1582              		.loc 14 28 13 view .LVU383
  28:Grain.h       ****             env_.Init(sampleRate);
 1583              		.loc 14 28 30 is_stmt 0 view .LVU384
 1584 006c FFF7FEFF 		bl	_ZN7daisysp3Svf4InitEf
 1585              	.LVL68:
  29:Grain.h       **** 
 1586              		.loc 14 29 13 is_stmt 1 view .LVU385
  29:Grain.h       **** 
 1587              		.loc 14 29 22 is_stmt 0 view .LVU386
 1588 0070 A5F13800 		sub	r0, r5, #56
 1589 0074 B0EE680A 		vmov.f32	s0, s17
 1590 0078 FFF7FEFF 		bl	_ZN7daisysp5AdEnv4InitEf
 1591              	.LVL69:
  31:Grain.h       ****             speed_ = 1.0f;
 1592              		.loc 14 31 13 is_stmt 1 view .LVU387
  32:Grain.h       ****             amp_ = 0.0f;
 1593              		.loc 14 32 20 is_stmt 0 view .LVU388
 1594 007c B7EE000A 		vmov.f32	s0, #1.0e+0
  31:Grain.h       ****             speed_ = 1.0f;
 1595              		.loc 14 31 22 view .LVU389
 1596 0080 05ED0F8A 		vstr.32	s16, [r5, #-60]
  32:Grain.h       ****             amp_ = 0.0f;
 1597              		.loc 14 32 13 is_stmt 1 view .LVU390
 1598              	.LBE802:
 1599              	.LBE805:
  80:Twines.cpp    ****         grains[i].SetAmp(1.0f);
  81:Twines.cpp    ****         grains[i].SetSpeed(1.0f);
 1600              		.loc 11 81 27 is_stmt 0 view .LVU391
ARM GAS  /var/folders/hl/qgbwny5j0fd895c2c41bk3tw0000gp/T//ccBxTnvh.s 			page 52


 1601 0084 3046     		mov	r0, r6
 1602              	.LBB806:
 1603              	.LBB803:
  34:Grain.h       ****             feedback_ = 0.0f;
 1604              		.loc 14 34 27 view .LVU392
 1605 0086 05ED138A 		vstr.32	s16, [r5, #-76]
  35:Grain.h       ****         }
 1606              		.loc 14 35 23 view .LVU393
 1607 008a 05ED158A 		vstr.32	s16, [r5, #-84]
  32:Grain.h       ****             amp_ = 0.0f;
 1608              		.loc 14 32 20 view .LVU394
 1609 008e 05ED110A 		vstr.32	s0, [r5, #-68]
  33:Grain.h       ****             grainDensity_ = 0.0f;
 1610              		.loc 14 33 13 is_stmt 1 view .LVU395
  34:Grain.h       ****             feedback_ = 0.0f;
 1611              		.loc 14 34 13 view .LVU396
  35:Grain.h       ****         }
 1612              		.loc 14 35 13 view .LVU397
 1613              	.LVL70:
  35:Grain.h       ****         }
 1614              		.loc 14 35 13 is_stmt 0 view .LVU398
 1615              	.LBE803:
 1616              	.LBE806:
  80:Twines.cpp    ****         grains[i].SetSpeed(1.0f);
 1617              		.loc 11 80 9 is_stmt 1 view .LVU399
 1618              	.LBB807:
 1619              	.LBI807:
  40:Grain.h       ****         {
 1620              		.loc 14 40 14 view .LVU400
 1621              	.LBB808:
  42:Grain.h       ****         }
 1622              		.loc 14 42 13 view .LVU401
 1623              	.LBB809:
 1624              	.LBI809:
  56:../../DaisySP//Source/Utility/dsp.h **** {
 1625              		.loc 13 56 14 view .LVU402
 1626              	.LBE809:
 1627              	.LBE808:
 1628              	.LBE807:
 1629              	.LBE817:
  58:../../DaisySP//Source/Utility/dsp.h **** }
 1630              		.loc 13 58 5 view .LVU403
 1631              	.LBB818:
 1632              	.LBB816:
 1633              	.LBB815:
 1634              	.LBB814:
 1635              	.LBB810:
 1636              	.LBI810:
  32:../../DaisySP//Source/Utility/dsp.h **** {
 1637              		.loc 13 32 14 view .LVU404
 1638              	.LBB811:
  34:../../DaisySP//Source/Utility/dsp.h **** #ifdef __arm__
 1639              		.loc 13 34 5 view .LVU405
  36:../../DaisySP//Source/Utility/dsp.h **** #else
 1640              		.loc 13 36 5 view .LVU406
 1641              		.syntax unified
 1642              	@ 36 "../../DaisySP//Source/Utility/dsp.h" 1
ARM GAS  /var/folders/hl/qgbwny5j0fd895c2c41bk3tw0000gp/T//ccBxTnvh.s 			page 53


 1643 0092 80FE088A 		vmaxnm.f32 s16, s0, s16
 1644              	@ 0 "" 2
 1645              	.LVL71:
  40:../../DaisySP//Source/Utility/dsp.h **** }
 1646              		.loc 13 40 5 view .LVU407
  40:../../DaisySP//Source/Utility/dsp.h **** }
 1647              		.loc 13 40 5 is_stmt 0 view .LVU408
 1648              		.thumb
 1649              		.syntax unified
 1650              	.LBE811:
 1651              	.LBE810:
 1652              	.LBB812:
 1653              	.LBI812:
  43:../../DaisySP//Source/Utility/dsp.h **** {
 1654              		.loc 13 43 14 is_stmt 1 view .LVU409
 1655              	.LBB813:
  45:../../DaisySP//Source/Utility/dsp.h **** #ifdef __arm__
 1656              		.loc 13 45 5 view .LVU410
  47:../../DaisySP//Source/Utility/dsp.h **** #else
 1657              		.loc 13 47 5 view .LVU411
 1658              		.syntax unified
 1659              	@ 47 "../../DaisySP//Source/Utility/dsp.h" 1
 1660 0096 88FE408A 		vminnm.f32 s16, s16, s0
 1661              	@ 0 "" 2
 1662              	.LVL72:
  51:../../DaisySP//Source/Utility/dsp.h **** }
 1663              		.loc 13 51 5 view .LVU412
  51:../../DaisySP//Source/Utility/dsp.h **** }
 1664              		.loc 13 51 5 is_stmt 0 view .LVU413
 1665              		.thumb
 1666              		.syntax unified
 1667              	.LBE813:
 1668              	.LBE812:
 1669              	.LBE814:
  42:Grain.h       ****         }
 1670              		.loc 14 42 18 view .LVU414
 1671 009a 05ED178A 		vstr.32	s16, [r5, #-92]
 1672              	.LVL73:
  42:Grain.h       ****         }
 1673              		.loc 14 42 18 view .LVU415
 1674              	.LBE815:
 1675              	.LBE816:
 1676              		.loc 11 81 9 is_stmt 1 view .LVU416
  78:Twines.cpp    ****         grains[i].Init(sample_rate, &grainBuffer[kBufferSize * i], kBufferSize);
 1677              		.loc 11 78 20 is_stmt 0 view .LVU417
 1678 009e BC35     		adds	r5, r5, #188
 1679              		.loc 11 81 27 view .LVU418
 1680 00a0 FFF7FEFF 		bl	_ZN10graindelay5Grain8SetSpeedEf
 1681              	.LVL74:
  78:Twines.cpp    ****         grains[i].Init(sample_rate, &grainBuffer[kBufferSize * i], kBufferSize);
 1682              		.loc 11 78 2 is_stmt 1 view .LVU419
  78:Twines.cpp    ****         grains[i].Init(sample_rate, &grainBuffer[kBufferSize * i], kBufferSize);
 1683              		.loc 11 78 20 view .LVU420
 1684 00a4 0C4B     		ldr	r3, .L39+28
 1685 00a6 4545     		cmp	r5, r8
 1686 00a8 2344     		add	r3, r3, r4
 1687 00aa C7D1     		bne	.L34
ARM GAS  /var/folders/hl/qgbwny5j0fd895c2c41bk3tw0000gp/T//ccBxTnvh.s 			page 54


 1688              	.LBE818:
  82:Twines.cpp    ****     }
  83:Twines.cpp    **** 
  84:Twines.cpp    **** 	// init diffuser
  85:Twines.cpp    **** 	diffuser.Init();
 1689              		.loc 11 85 2 view .LVU421
 1690              		.loc 11 85 15 is_stmt 0 view .LVU422
 1691 00ac 0B48     		ldr	r0, .L39+32
 1692 00ae FFF7FEFF 		bl	_ZN7daisysp8Diffuser4InitEv
 1693              	.LVL75:
  86:Twines.cpp    **** 
  87:Twines.cpp    **** 	hw.StartAudio(AudioCallback);
 1694              		.loc 11 87 2 is_stmt 1 view .LVU423
 1695              		.loc 11 87 15 is_stmt 0 view .LVU424
 1696 00b2 0B49     		ldr	r1, .L39+36
 1697 00b4 0148     		ldr	r0, .L39
 1698 00b6 FFF7FEFF 		bl	_ZN5daisy8patch_sm12DaisyPatchSM10StartAudioEPFvPKPKfPPfjE
 1699              	.LVL76:
 1700              	.L35:
  88:Twines.cpp    **** 	while(1) {}
 1701              		.loc 11 88 2 is_stmt 1 discriminator 1 view .LVU425
 1702              		.loc 11 88 2 discriminator 1 view .LVU426
 1703              		.loc 11 88 2 discriminator 1 view .LVU427
 1704              		.loc 11 88 2 discriminator 1 view .LVU428
 1705 00ba FEE7     		b	.L35
 1706              	.L40:
 1707              		.align	2
 1708              	.L39:
 1709 00bc 00000000 		.word	.LANCHOR14
 1710 00c0 00530700 		.word	480000
 1711 00c4 70000000 		.word	.LANCHOR15+112
 1712 00c8 00000000 		.word	_ZN10graindelay5Grain18kInterpolationTailE
 1713 00cc 004C1D00 		.word	grainBuffer+1920000
 1714 00d0 00B4E2FF 		.word	-1920000
 1715 00d4 00000000 		.word	0
 1716 00d8 004C1D00 		.word	1920000
 1717 00dc 00000000 		.word	diffuser
 1718 00e0 00000000 		.word	_Z13AudioCallbackPKPKfPPfj
 1719              		.cfi_endproc
 1720              	.LFE4851:
 1722              		.section	.text.startup._GLOBAL__sub_I__ZN5daisy8patch_sm8gen_led1E,"ax",%progbits
 1723              		.align	1
 1724              		.p2align 2,,3
 1725              		.syntax unified
 1726              		.thumb
 1727              		.thumb_func
 1728              		.fpu fpv5-d16
 1730              	_GLOBAL__sub_I__ZN5daisy8patch_sm8gen_led1E:
 1731              	.LFB5422:
  89:Twines.cpp    **** }
 1732              		.loc 11 89 1 view -0
 1733              		.cfi_startproc
 1734              		@ args = 0, pretend = 0, frame = 0
 1735              		@ frame_needed = 0, uses_anonymous_args = 0
 1736              	.LBB924:
 1737              	.LBI924:
 1738              		.loc 11 89 1 view .LVU430
ARM GAS  /var/folders/hl/qgbwny5j0fd895c2c41bk3tw0000gp/T//ccBxTnvh.s 			page 55


 1739              	.LVL77:
 1740              	.LBB925:
 1741              	.LBB926:
 1742              	.LBI926:
 1743              		.file 15 "../../libDaisy//src/per/gpio.h"
   1:../../libDaisy//src/per/gpio.h **** #pragma once
   2:../../libDaisy//src/per/gpio.h **** #ifndef DSY_GPIO_H
   3:../../libDaisy//src/per/gpio.h **** #define DSY_GPIO_H
   4:../../libDaisy//src/per/gpio.h **** #include "daisy_core.h"
   5:../../libDaisy//src/per/gpio.h **** 
   6:../../libDaisy//src/per/gpio.h **** #ifdef __cplusplus
   7:../../libDaisy//src/per/gpio.h **** 
   8:../../libDaisy//src/per/gpio.h **** namespace daisy
   9:../../libDaisy//src/per/gpio.h **** {
  10:../../libDaisy//src/per/gpio.h **** /** @brief General Purpose I/O control 
  11:../../libDaisy//src/per/gpio.h ****  *  @details peripheral control over a single GPIO
  12:../../libDaisy//src/per/gpio.h ****  *  @ingroup peripheral
  13:../../libDaisy//src/per/gpio.h ****  *   
  14:../../libDaisy//src/per/gpio.h ****  *  Button Input (with internal Pullup resistor)
  15:../../libDaisy//src/per/gpio.h ****  *  @include GPIO_Input.cpp 
  16:../../libDaisy//src/per/gpio.h ****  * 
  17:../../libDaisy//src/per/gpio.h ****  *  Output Example (perfect for blinking an LED)
  18:../../libDaisy//src/per/gpio.h ****  *  @include GPIO_Output.cpp
  19:../../libDaisy//src/per/gpio.h ****  * 
  20:../../libDaisy//src/per/gpio.h **** */
  21:../../libDaisy//src/per/gpio.h **** class GPIO
  22:../../libDaisy//src/per/gpio.h **** {
  23:../../libDaisy//src/per/gpio.h ****   public:
  24:../../libDaisy//src/per/gpio.h ****     /** @brief Mode of operation for the specified GPIO */
  25:../../libDaisy//src/per/gpio.h ****     enum class Mode
  26:../../libDaisy//src/per/gpio.h ****     {
  27:../../libDaisy//src/per/gpio.h ****         INPUT,     /**< Input for reading state of pin */
  28:../../libDaisy//src/per/gpio.h ****         OUTPUT,    /**< Output w/ push-pull configuration */
  29:../../libDaisy//src/per/gpio.h ****         OUTPUT_OD, /**< Output w/ open-drain configuration */
  30:../../libDaisy//src/per/gpio.h ****         ANALOG,    /**< Analog for connection to ADC or DAC peripheral */
  31:../../libDaisy//src/per/gpio.h ****     };
  32:../../libDaisy//src/per/gpio.h **** 
  33:../../libDaisy//src/per/gpio.h ****     /** @brief Configures whether an internal Pull up or Pull down resistor is used. 
  34:../../libDaisy//src/per/gpio.h ****      *  
  35:../../libDaisy//src/per/gpio.h ****      * Internal Pull up/down resistors are typically 40k ohms, and will be between
  36:../../libDaisy//src/per/gpio.h ****      * 30k and 50k
  37:../../libDaisy//src/per/gpio.h ****      * 
  38:../../libDaisy//src/per/gpio.h ****      * When the Pin is configured in Analog mode, the pull up/down resistors are
  39:../../libDaisy//src/per/gpio.h ****      * disabled by hardware. 
  40:../../libDaisy//src/per/gpio.h ****      */
  41:../../libDaisy//src/per/gpio.h ****     enum class Pull
  42:../../libDaisy//src/per/gpio.h ****     {
  43:../../libDaisy//src/per/gpio.h ****         NOPULL,   /**< No pull up resistor */
  44:../../libDaisy//src/per/gpio.h ****         PULLUP,   /**< Internal pull up enabled */
  45:../../libDaisy//src/per/gpio.h ****         PULLDOWN, /**< Internal pull down enabled*/
  46:../../libDaisy//src/per/gpio.h ****     };
  47:../../libDaisy//src/per/gpio.h **** 
  48:../../libDaisy//src/per/gpio.h ****     /** @brief Output speed controls the drive strength, and slew rate of the pin */
  49:../../libDaisy//src/per/gpio.h ****     enum class Speed
  50:../../libDaisy//src/per/gpio.h ****     {
  51:../../libDaisy//src/per/gpio.h ****         LOW,
  52:../../libDaisy//src/per/gpio.h ****         MEDIUM,
ARM GAS  /var/folders/hl/qgbwny5j0fd895c2c41bk3tw0000gp/T//ccBxTnvh.s 			page 56


  53:../../libDaisy//src/per/gpio.h ****         HIGH,
  54:../../libDaisy//src/per/gpio.h ****         VERY_HIGH,
  55:../../libDaisy//src/per/gpio.h ****     };
  56:../../libDaisy//src/per/gpio.h **** 
  57:../../libDaisy//src/per/gpio.h ****     /** @brief Configuration for a given GPIO */
  58:../../libDaisy//src/per/gpio.h ****     struct Config
  59:../../libDaisy//src/per/gpio.h ****     {
  60:../../libDaisy//src/per/gpio.h ****         Pin   pin;
  61:../../libDaisy//src/per/gpio.h ****         Mode  mode;
  62:../../libDaisy//src/per/gpio.h ****         Pull  pull;
  63:../../libDaisy//src/per/gpio.h ****         Speed speed;
  64:../../libDaisy//src/per/gpio.h **** 
  65:../../libDaisy//src/per/gpio.h ****         /** Constructor with no arguments will prepare an invalid GPIO set as
  66:../../libDaisy//src/per/gpio.h ****          *  an input, with no pullup. 
  67:../../libDaisy//src/per/gpio.h ****          */
  68:../../libDaisy//src/per/gpio.h ****         Config()
  69:../../libDaisy//src/per/gpio.h ****         : pin(), mode(Mode::INPUT), pull(Pull::NOPULL), speed(Speed::LOW)
  70:../../libDaisy//src/per/gpio.h ****         {
  71:../../libDaisy//src/per/gpio.h ****         }
  72:../../libDaisy//src/per/gpio.h ****     };
  73:../../libDaisy//src/per/gpio.h **** 
  74:../../libDaisy//src/per/gpio.h ****     GPIO() {}
 1744              		.loc 15 74 5 view .LVU431
 1745              	.LBB927:
 1746              	.LBB928:
 1747              	.LBI928:
  68:../../libDaisy//src/per/gpio.h ****         : pin(), mode(Mode::INPUT), pull(Pull::NOPULL), speed(Speed::LOW)
 1748              		.loc 15 68 9 view .LVU432
 1749              	.LBB929:
 1750              	.LBB930:
 1751              	.LBB931:
 1752              	.LBI931:
 1753              		.file 16 "../../libDaisy//src/daisy_core.h"
   1:../../libDaisy//src/daisy_core.h **** #pragma once
   2:../../libDaisy//src/daisy_core.h **** #ifndef DSY_CORE_HW_H
   3:../../libDaisy//src/daisy_core.h **** #define DSY_CORE_HW_H /**< & */
   4:../../libDaisy//src/daisy_core.h **** #include <stdint.h>
   5:../../libDaisy//src/daisy_core.h **** #include <stdlib.h>
   6:../../libDaisy//src/daisy_core.h **** 
   7:../../libDaisy//src/daisy_core.h **** #if defined(_MSC_VER)
   8:../../libDaisy//src/daisy_core.h **** #define FORCE_INLINE __forceinline /**< & */
   9:../../libDaisy//src/daisy_core.h **** #elif defined(__clang__)
  10:../../libDaisy//src/daisy_core.h **** #define FORCE_INLINE inline __attribute__((always_inline)) /**< & */
  11:../../libDaisy//src/daisy_core.h **** #pragma clang diagnostic ignored "-Wduplicate-decl-specifier"
  12:../../libDaisy//src/daisy_core.h **** #elif defined(__GNUC__)
  13:../../libDaisy//src/daisy_core.h **** #define FORCE_INLINE inline __attribute__((always_inline)) /**< & */
  14:../../libDaisy//src/daisy_core.h **** #else
  15:../../libDaisy//src/daisy_core.h **** #error unknown compiler
  16:../../libDaisy//src/daisy_core.h **** #endif
  17:../../libDaisy//src/daisy_core.h **** 
  18:../../libDaisy//src/daisy_core.h **** /** @addtogroup utility
  19:../../libDaisy//src/daisy_core.h ****     @{
  20:../../libDaisy//src/daisy_core.h **** */
  21:../../libDaisy//src/daisy_core.h **** 
  22:../../libDaisy//src/daisy_core.h **** /** Macro for area of memory that is configured as cacheless
  23:../../libDaisy//src/daisy_core.h **** This should be used primarily for DMA buffers, and the like.
  24:../../libDaisy//src/daisy_core.h **** */
ARM GAS  /var/folders/hl/qgbwny5j0fd895c2c41bk3tw0000gp/T//ccBxTnvh.s 			page 57


  25:../../libDaisy//src/daisy_core.h **** #define DMA_BUFFER_MEM_SECTION __attribute__((section(".sram1_bss")))
  26:../../libDaisy//src/daisy_core.h **** /** 
  27:../../libDaisy//src/daisy_core.h **** THE DTCM RAM section is also non-cached. However, is not suitable 
  28:../../libDaisy//src/daisy_core.h **** for DMA transfers. Performance is on par with internal SRAM w/ 
  29:../../libDaisy//src/daisy_core.h **** cache enabled.
  30:../../libDaisy//src/daisy_core.h **** */
  31:../../libDaisy//src/daisy_core.h **** #define DTCM_MEM_SECTION __attribute__((section(".dtcmram_bss")))
  32:../../libDaisy//src/daisy_core.h **** 
  33:../../libDaisy//src/daisy_core.h **** #define FBIPMAX 0.999985f             /**< close to 1.0f-LSB at 16 bit */
  34:../../libDaisy//src/daisy_core.h **** #define FBIPMIN (-FBIPMAX)            /**< - (1 - LSB) */
  35:../../libDaisy//src/daisy_core.h **** #define U82F_SCALE 0.0078740f         /**< 1 / 127 */
  36:../../libDaisy//src/daisy_core.h **** #define F2U8_SCALE 127.0f             /**< 128 - 1 */
  37:../../libDaisy//src/daisy_core.h **** #define S82F_SCALE 0.0078125f         /**< 1 / (2**7) */
  38:../../libDaisy//src/daisy_core.h **** #define F2S8_SCALE 127.0f             /**< (2 ** 7) - 1 */
  39:../../libDaisy//src/daisy_core.h **** #define S162F_SCALE 3.0517578125e-05f /**< 1 / (2** 15) */
  40:../../libDaisy//src/daisy_core.h **** #define F2S16_SCALE 32767.0f          /**< (2 ** 15) - 1 */
  41:../../libDaisy//src/daisy_core.h **** #define F2S24_SCALE 8388608.0f        /**< 2 ** 23 */
  42:../../libDaisy//src/daisy_core.h **** #define S242F_SCALE 1.192092896e-07f  /**< 1 / (2 ** 23) */
  43:../../libDaisy//src/daisy_core.h **** #define S24SIGN 0x800000              /**< 2 ** 23 */
  44:../../libDaisy//src/daisy_core.h **** #define S322F_SCALE 4.6566129e-10f    /**< 1 / (2** 31) */
  45:../../libDaisy//src/daisy_core.h **** #define F2S32_SCALE 2147483647.f      /**< (2 ** 31) - 1 */
  46:../../libDaisy//src/daisy_core.h **** 
  47:../../libDaisy//src/daisy_core.h **** 
  48:../../libDaisy//src/daisy_core.h **** /** shorthand macro for simplifying the reading of the left 
  49:../../libDaisy//src/daisy_core.h ****  *  channel of a non-interleaved output buffer named out */
  50:../../libDaisy//src/daisy_core.h **** #define OUT_L out[0]
  51:../../libDaisy//src/daisy_core.h **** 
  52:../../libDaisy//src/daisy_core.h **** /** shorthand macro for simplifying the reading of the right 
  53:../../libDaisy//src/daisy_core.h ****  *  channel of a non-interleaved output buffer named out */
  54:../../libDaisy//src/daisy_core.h **** #define OUT_R out[1]
  55:../../libDaisy//src/daisy_core.h **** 
  56:../../libDaisy//src/daisy_core.h **** /** shorthand macro for simplifying the reading of the left 
  57:../../libDaisy//src/daisy_core.h ****  *  channel of a non-interleaved input buffer named in */
  58:../../libDaisy//src/daisy_core.h **** #define IN_L in[0]
  59:../../libDaisy//src/daisy_core.h **** 
  60:../../libDaisy//src/daisy_core.h **** /** shorthand macro for simplifying the reading of the right 
  61:../../libDaisy//src/daisy_core.h ****  *  channel of a non-interleaved input buffer named in */
  62:../../libDaisy//src/daisy_core.h **** #define IN_R in[1]
  63:../../libDaisy//src/daisy_core.h **** 
  64:../../libDaisy//src/daisy_core.h **** /** 
  65:../../libDaisy//src/daisy_core.h ****     Computes cube.
  66:../../libDaisy//src/daisy_core.h ****     \param x Number to be cubed
  67:../../libDaisy//src/daisy_core.h ****     \return x ^ 3
  68:../../libDaisy//src/daisy_core.h **** */
  69:../../libDaisy//src/daisy_core.h **** FORCE_INLINE float cube(float x)
  70:../../libDaisy//src/daisy_core.h **** {
  71:../../libDaisy//src/daisy_core.h ****     return (x * x) * x;
  72:../../libDaisy//src/daisy_core.h **** }
  73:../../libDaisy//src/daisy_core.h **** 
  74:../../libDaisy//src/daisy_core.h **** /** 
  75:../../libDaisy//src/daisy_core.h ****     Converts unsigned 8-bit to float
  76:../../libDaisy//src/daisy_core.h ****     \param x Number to be scaled.
  77:../../libDaisy//src/daisy_core.h ****     \return Scaled number.
  78:../../libDaisy//src/daisy_core.h **** */
  79:../../libDaisy//src/daisy_core.h **** FORCE_INLINE float u82f(uint8_t x)
  80:../../libDaisy//src/daisy_core.h **** {
  81:../../libDaisy//src/daisy_core.h ****     return ((float)x - 127.f) * U82F_SCALE;
ARM GAS  /var/folders/hl/qgbwny5j0fd895c2c41bk3tw0000gp/T//ccBxTnvh.s 			page 58


  82:../../libDaisy//src/daisy_core.h **** }
  83:../../libDaisy//src/daisy_core.h **** 
  84:../../libDaisy//src/daisy_core.h **** /**
  85:../../libDaisy//src/daisy_core.h ****     Converts float to unsigned 8-bit
  86:../../libDaisy//src/daisy_core.h **** */
  87:../../libDaisy//src/daisy_core.h **** FORCE_INLINE uint8_t f2u8(float x)
  88:../../libDaisy//src/daisy_core.h **** {
  89:../../libDaisy//src/daisy_core.h ****     x = x <= FBIPMIN ? FBIPMIN : x;
  90:../../libDaisy//src/daisy_core.h ****     x = x >= FBIPMAX ? FBIPMAX : x;
  91:../../libDaisy//src/daisy_core.h ****     return (uint8_t)((x * F2U8_SCALE) + F2U8_SCALE);
  92:../../libDaisy//src/daisy_core.h **** }
  93:../../libDaisy//src/daisy_core.h **** 
  94:../../libDaisy//src/daisy_core.h **** 
  95:../../libDaisy//src/daisy_core.h **** /** 
  96:../../libDaisy//src/daisy_core.h ****     Converts Signed 8-bit to float
  97:../../libDaisy//src/daisy_core.h ****     \param x Number to be scaled.
  98:../../libDaisy//src/daisy_core.h ****     \return Scaled number.
  99:../../libDaisy//src/daisy_core.h **** */
 100:../../libDaisy//src/daisy_core.h **** FORCE_INLINE float s82f(int8_t x)
 101:../../libDaisy//src/daisy_core.h **** {
 102:../../libDaisy//src/daisy_core.h ****     return (float)x * S82F_SCALE;
 103:../../libDaisy//src/daisy_core.h **** }
 104:../../libDaisy//src/daisy_core.h **** 
 105:../../libDaisy//src/daisy_core.h **** /**
 106:../../libDaisy//src/daisy_core.h ****     Converts float to Signed 8-bit
 107:../../libDaisy//src/daisy_core.h **** */
 108:../../libDaisy//src/daisy_core.h **** FORCE_INLINE int8_t f2s8(float x)
 109:../../libDaisy//src/daisy_core.h **** {
 110:../../libDaisy//src/daisy_core.h ****     x = x <= FBIPMIN ? FBIPMIN : x;
 111:../../libDaisy//src/daisy_core.h ****     x = x >= FBIPMAX ? FBIPMAX : x;
 112:../../libDaisy//src/daisy_core.h ****     return (int32_t)(x * F2S8_SCALE);
 113:../../libDaisy//src/daisy_core.h **** }
 114:../../libDaisy//src/daisy_core.h **** 
 115:../../libDaisy//src/daisy_core.h **** /** 
 116:../../libDaisy//src/daisy_core.h ****     Converts Signed 16-bit to float
 117:../../libDaisy//src/daisy_core.h ****     \param x Number to be scaled.
 118:../../libDaisy//src/daisy_core.h ****     \return Scaled number.
 119:../../libDaisy//src/daisy_core.h **** */
 120:../../libDaisy//src/daisy_core.h **** FORCE_INLINE float s162f(int16_t x)
 121:../../libDaisy//src/daisy_core.h **** {
 122:../../libDaisy//src/daisy_core.h ****     return (float)x * S162F_SCALE;
 123:../../libDaisy//src/daisy_core.h **** }
 124:../../libDaisy//src/daisy_core.h **** 
 125:../../libDaisy//src/daisy_core.h **** /**
 126:../../libDaisy//src/daisy_core.h ****     Converts float to Signed 16-bit
 127:../../libDaisy//src/daisy_core.h **** */
 128:../../libDaisy//src/daisy_core.h **** FORCE_INLINE int16_t f2s16(float x)
 129:../../libDaisy//src/daisy_core.h **** {
 130:../../libDaisy//src/daisy_core.h ****     x = x <= FBIPMIN ? FBIPMIN : x;
 131:../../libDaisy//src/daisy_core.h ****     x = x >= FBIPMAX ? FBIPMAX : x;
 132:../../libDaisy//src/daisy_core.h ****     return (int32_t)(x * F2S16_SCALE);
 133:../../libDaisy//src/daisy_core.h **** }
 134:../../libDaisy//src/daisy_core.h **** 
 135:../../libDaisy//src/daisy_core.h **** /**
 136:../../libDaisy//src/daisy_core.h ****     Converts Signed 24-bit to float
 137:../../libDaisy//src/daisy_core.h ****  */
 138:../../libDaisy//src/daisy_core.h **** FORCE_INLINE float s242f(int32_t x)
ARM GAS  /var/folders/hl/qgbwny5j0fd895c2c41bk3tw0000gp/T//ccBxTnvh.s 			page 59


 139:../../libDaisy//src/daisy_core.h **** {
 140:../../libDaisy//src/daisy_core.h ****     x = (x ^ S24SIGN) - S24SIGN; //sign extend aka ((x<<8)>>8)
 141:../../libDaisy//src/daisy_core.h ****     return (float)x * S242F_SCALE;
 142:../../libDaisy//src/daisy_core.h **** }
 143:../../libDaisy//src/daisy_core.h **** /**
 144:../../libDaisy//src/daisy_core.h ****     Converts float to Signed 24-bit
 145:../../libDaisy//src/daisy_core.h ****  */
 146:../../libDaisy//src/daisy_core.h **** FORCE_INLINE int32_t f2s24(float x)
 147:../../libDaisy//src/daisy_core.h **** {
 148:../../libDaisy//src/daisy_core.h ****     x = x <= FBIPMIN ? FBIPMIN : x;
 149:../../libDaisy//src/daisy_core.h ****     x = x >= FBIPMAX ? FBIPMAX : x;
 150:../../libDaisy//src/daisy_core.h ****     return (int32_t)(x * F2S24_SCALE);
 151:../../libDaisy//src/daisy_core.h **** }
 152:../../libDaisy//src/daisy_core.h **** 
 153:../../libDaisy//src/daisy_core.h **** /**
 154:../../libDaisy//src/daisy_core.h ****     Converts Signed 32-bit to float
 155:../../libDaisy//src/daisy_core.h ****  */
 156:../../libDaisy//src/daisy_core.h **** FORCE_INLINE float s322f(int32_t x)
 157:../../libDaisy//src/daisy_core.h **** {
 158:../../libDaisy//src/daisy_core.h ****     return (float)x * S322F_SCALE;
 159:../../libDaisy//src/daisy_core.h **** }
 160:../../libDaisy//src/daisy_core.h **** /**
 161:../../libDaisy//src/daisy_core.h ****     Converts float to Signed 24-bit
 162:../../libDaisy//src/daisy_core.h ****  */
 163:../../libDaisy//src/daisy_core.h **** FORCE_INLINE int32_t f2s32(float x)
 164:../../libDaisy//src/daisy_core.h **** {
 165:../../libDaisy//src/daisy_core.h ****     x = x <= FBIPMIN ? FBIPMIN : x;
 166:../../libDaisy//src/daisy_core.h ****     x = x >= FBIPMAX ? FBIPMAX : x;
 167:../../libDaisy//src/daisy_core.h ****     return (int32_t)(x * F2S32_SCALE);
 168:../../libDaisy//src/daisy_core.h **** }
 169:../../libDaisy//src/daisy_core.h **** 
 170:../../libDaisy//src/daisy_core.h **** 
 171:../../libDaisy//src/daisy_core.h **** /** Enums and a simple struct for defining a hardware pin on the MCU
 172:../../libDaisy//src/daisy_core.h ****  *  These correlate with the stm32 datasheet, and are used to configure
 173:../../libDaisy//src/daisy_core.h ****  *  the hardware.
 174:../../libDaisy//src/daisy_core.h ****  * 
 175:../../libDaisy//src/daisy_core.h ****  *  This along with the dsy_gpio_pin class should no longer be used.
 176:../../libDaisy//src/daisy_core.h ****  *  They are available for backwards compatability. 
 177:../../libDaisy//src/daisy_core.h ****  * 
 178:../../libDaisy//src/daisy_core.h ****  *  Please use GPIOPort enum and the Pin struct instead.
 179:../../libDaisy//src/daisy_core.h ****  */
 180:../../libDaisy//src/daisy_core.h **** typedef enum
 181:../../libDaisy//src/daisy_core.h **** {
 182:../../libDaisy//src/daisy_core.h ****     DSY_GPIOA, /**< & */
 183:../../libDaisy//src/daisy_core.h ****     DSY_GPIOB, /**< & */
 184:../../libDaisy//src/daisy_core.h ****     DSY_GPIOC, /**< & */
 185:../../libDaisy//src/daisy_core.h ****     DSY_GPIOD, /**< & */
 186:../../libDaisy//src/daisy_core.h ****     DSY_GPIOE, /**< & */
 187:../../libDaisy//src/daisy_core.h ****     DSY_GPIOF, /**< & */
 188:../../libDaisy//src/daisy_core.h ****     DSY_GPIOG, /**< & */
 189:../../libDaisy//src/daisy_core.h ****     DSY_GPIOH, /**< & */
 190:../../libDaisy//src/daisy_core.h ****     DSY_GPIOI, /**< & */
 191:../../libDaisy//src/daisy_core.h ****     DSY_GPIOJ, /**< & */
 192:../../libDaisy//src/daisy_core.h ****     DSY_GPIOK, /**< & */
 193:../../libDaisy//src/daisy_core.h ****     DSY_GPIOX, /** This is a non-existant port for unsupported bits of hardware. */
 194:../../libDaisy//src/daisy_core.h ****     DSY_GPIO_LAST, /** Final enum member */
 195:../../libDaisy//src/daisy_core.h **** } dsy_gpio_port;
ARM GAS  /var/folders/hl/qgbwny5j0fd895c2c41bk3tw0000gp/T//ccBxTnvh.s 			page 60


 196:../../libDaisy//src/daisy_core.h **** 
 197:../../libDaisy//src/daisy_core.h **** /** Hardware define pins 
 198:../../libDaisy//src/daisy_core.h ****  *  
 199:../../libDaisy//src/daisy_core.h ****  *  The dsy_gpio_pin struct should no longer be used, and is only available for
 200:../../libDaisy//src/daisy_core.h ****  *  backwards compatability.
 201:../../libDaisy//src/daisy_core.h ****  * 
 202:../../libDaisy//src/daisy_core.h ****  *  Please use Pin struct instead.
 203:../../libDaisy//src/daisy_core.h ****  */
 204:../../libDaisy//src/daisy_core.h **** typedef struct
 205:../../libDaisy//src/daisy_core.h **** {
 206:../../libDaisy//src/daisy_core.h ****     dsy_gpio_port port; /**< & */
 207:../../libDaisy//src/daisy_core.h ****     uint8_t       pin;  /**< number 0-15 */
 208:../../libDaisy//src/daisy_core.h **** } dsy_gpio_pin;
 209:../../libDaisy//src/daisy_core.h **** 
 210:../../libDaisy//src/daisy_core.h **** /** Helper for creating pins from port/pin combos easily
 211:../../libDaisy//src/daisy_core.h ****  * 
 212:../../libDaisy//src/daisy_core.h ****  *  The dsy_gpio_pin struct should no longer be used, and is only available for
 213:../../libDaisy//src/daisy_core.h ****  *  backwards compatability.
 214:../../libDaisy//src/daisy_core.h ****  * 
 215:../../libDaisy//src/daisy_core.h ****  *  Please use Pin struct instead.
 216:../../libDaisy//src/daisy_core.h **** */
 217:../../libDaisy//src/daisy_core.h **** FORCE_INLINE dsy_gpio_pin dsy_pin(dsy_gpio_port port, uint8_t pin)
 218:../../libDaisy//src/daisy_core.h **** {
 219:../../libDaisy//src/daisy_core.h ****     dsy_gpio_pin p;
 220:../../libDaisy//src/daisy_core.h ****     p.port = port;
 221:../../libDaisy//src/daisy_core.h ****     p.pin  = pin;
 222:../../libDaisy//src/daisy_core.h ****     return p;
 223:../../libDaisy//src/daisy_core.h **** }
 224:../../libDaisy//src/daisy_core.h **** 
 225:../../libDaisy//src/daisy_core.h **** /** Helper for testing sameness of two dsy_gpio_pins
 226:../../libDaisy//src/daisy_core.h ****  *  \return    1 if same, 0 if different
 227:../../libDaisy//src/daisy_core.h ****  * 
 228:../../libDaisy//src/daisy_core.h ****  *  The dsy_gpio_pin struct should no longer be used, and is only available for
 229:../../libDaisy//src/daisy_core.h ****  *  backwards compatability.
 230:../../libDaisy//src/daisy_core.h ****  * 
 231:../../libDaisy//src/daisy_core.h ****  *  Please use Pin struct instead.
 232:../../libDaisy//src/daisy_core.h ****  */
 233:../../libDaisy//src/daisy_core.h **** FORCE_INLINE uint8_t dsy_pin_cmp(dsy_gpio_pin *a, dsy_gpio_pin *b)
 234:../../libDaisy//src/daisy_core.h **** {
 235:../../libDaisy//src/daisy_core.h ****     return ((a->port == b->port) && (a->pin == b->pin));
 236:../../libDaisy//src/daisy_core.h **** }
 237:../../libDaisy//src/daisy_core.h **** 
 238:../../libDaisy//src/daisy_core.h **** #ifdef __cplusplus
 239:../../libDaisy//src/daisy_core.h **** 
 240:../../libDaisy//src/daisy_core.h **** namespace daisy
 241:../../libDaisy//src/daisy_core.h **** {
 242:../../libDaisy//src/daisy_core.h **** /** @brief GPIO Port names */
 243:../../libDaisy//src/daisy_core.h **** enum GPIOPort
 244:../../libDaisy//src/daisy_core.h **** {
 245:../../libDaisy//src/daisy_core.h ****     PORTA, /**< Port A */
 246:../../libDaisy//src/daisy_core.h ****     PORTB, /**< Port B */
 247:../../libDaisy//src/daisy_core.h ****     PORTC, /**< Port C */
 248:../../libDaisy//src/daisy_core.h ****     PORTD, /**< Port D */
 249:../../libDaisy//src/daisy_core.h ****     PORTE, /**< Port E */
 250:../../libDaisy//src/daisy_core.h ****     PORTF, /**< Port F */
 251:../../libDaisy//src/daisy_core.h ****     PORTG, /**< Port G */
 252:../../libDaisy//src/daisy_core.h ****     PORTH, /**< Port H */
ARM GAS  /var/folders/hl/qgbwny5j0fd895c2c41bk3tw0000gp/T//ccBxTnvh.s 			page 61


 253:../../libDaisy//src/daisy_core.h ****     PORTI, /**< Port I */
 254:../../libDaisy//src/daisy_core.h ****     PORTJ, /**< Port J */
 255:../../libDaisy//src/daisy_core.h ****     PORTK, /**< Port K */
 256:../../libDaisy//src/daisy_core.h ****     PORTX, /**< Used as a dummy port to signal an invalid pin. */
 257:../../libDaisy//src/daisy_core.h **** };
 258:../../libDaisy//src/daisy_core.h **** 
 259:../../libDaisy//src/daisy_core.h **** /** @brief representation of hardware port/pin combination */
 260:../../libDaisy//src/daisy_core.h **** struct Pin
 261:../../libDaisy//src/daisy_core.h **** {
 262:../../libDaisy//src/daisy_core.h ****     GPIOPort port;
 263:../../libDaisy//src/daisy_core.h ****     uint8_t  pin;
 264:../../libDaisy//src/daisy_core.h **** 
 265:../../libDaisy//src/daisy_core.h ****     /** @brief Constructor creates a valid pin. 
 266:../../libDaisy//src/daisy_core.h ****      *  @param pt GPIOPort between PA, and PK corresponding to STM32 Port.
 267:../../libDaisy//src/daisy_core.h ****      *  @param pn pin number in range of 0-15
 268:../../libDaisy//src/daisy_core.h ****     */
 269:../../libDaisy//src/daisy_core.h ****     constexpr Pin(const GPIOPort pt, const uint8_t pn) : port(pt), pin(pn) {}
 270:../../libDaisy//src/daisy_core.h **** 
 271:../../libDaisy//src/daisy_core.h ****     /** @brief Basic Constructor creates an invalid Pin object */
 272:../../libDaisy//src/daisy_core.h ****     constexpr Pin() : port(PORTX), pin(255) {}
 1754              		.loc 16 272 15 view .LVU433
 1755              		.loc 16 272 15 is_stmt 0 view .LVU434
 1756              	.LBE931:
 1757              	.LBE930:
 1758              	.LBE929:
 1759              	.LBE928:
 1760              	.LBE927:
 1761              	.LBE926:
 1762              	.LBE925:
 1763              	.LBE924:
 1764              		.loc 11 89 1 view .LVU435
 1765 0000 38B5     		push	{r3, r4, r5, lr}
 1766              		.cfi_def_cfa_offset 16
 1767              		.cfi_offset 3, -16
 1768              		.cfi_offset 4, -12
 1769              		.cfi_offset 5, -8
 1770              		.cfi_offset 14, -4
 1771              	.LBB1093:
 1772              	.LBB1090:
 1773              	.LBB940:
 1774              	.LBB941:
 1775              		.loc 15 74 12 view .LVU436
 1776 0002 394A     		ldr	r2, .L43
 1777              	.LBE941:
 1778              	.LBE940:
 1779              	.LBB951:
 1780              	.LBB938:
 1781              	.LBB936:
 1782              	.LBB934:
 1783              	.LBB932:
  69:../../libDaisy//src/per/gpio.h ****         {
 1784              		.loc 15 69 73 view .LVU437
 1785 0004 0024     		movs	r4, #0
 1786              	.LBE932:
 1787              	.LBE934:
 1788              	.LBE936:
 1789              		.loc 15 74 12 view .LVU438
ARM GAS  /var/folders/hl/qgbwny5j0fd895c2c41bk3tw0000gp/T//ccBxTnvh.s 			page 62


 1790 0006 4FF60B73 		movw	r3, #65291
 1791 000a 3849     		ldr	r1, .L43+4
 1792              	.LBE938:
 1793              	.LBE951:
 1794              	.LBB952:
 1795              	.LBB953:
 1796 000c 3848     		ldr	r0, .L43+8
 1797              	.LBE953:
 1798              	.LBE952:
  21:daisy_bed.h   ****     Pin newPinD7 = Pin(static_cast<GPIOPort>(oldPinD7.port), oldPinD7.pin);
 1799              		.loc 12 21 18 view .LVU439
 1800 000e 394D     		ldr	r5, .L43+12
 1801              	.LBB967:
 1802              	.LBB949:
 1803              	.LBB942:
 1804              	.LBB943:
 1805              	.LBB944:
  69:../../libDaisy//src/per/gpio.h ****         {
 1806              		.loc 15 69 73 view .LVU440
 1807 0010 C2E90034 		strd	r3, r4, [r2]
 1808 0014 C2E90244 		strd	r4, r4, [r2, #8]
 1809              	.LBE944:
 1810              	.LBE943:
 1811              	.LBE942:
 1812              	.LBE949:
 1813              	.LBE967:
 1814              	.LBB968:
 1815              	.LBB969:
 1816              		.loc 15 74 12 view .LVU441
 1817 0018 374A     		ldr	r2, .L43+16
 1818              	.LBB970:
 1819              	.LBB971:
 1820              	.LBB972:
  69:../../libDaisy//src/per/gpio.h ****         {
 1821              		.loc 15 69 73 view .LVU442
 1822 001a C2E90034 		strd	r3, r4, [r2]
 1823 001e C2E90244 		strd	r4, r4, [r2, #8]
 1824              	.LBE972:
 1825              	.LBE971:
 1826              	.LBE970:
 1827              	.LBE969:
 1828              	.LBE968:
 1829              	.LBB978:
 1830              	.LBB979:
 1831              		.loc 15 74 12 view .LVU443
 1832 0022 364A     		ldr	r2, .L43+20
 1833              	.LBE979:
 1834              	.LBE978:
 1835              	.LBB994:
 1836              	.LBB939:
 1837              	.LBB937:
 1838              	.LBB935:
 1839              	.LBB933:
  69:../../libDaisy//src/per/gpio.h ****         {
 1840              		.loc 15 69 73 view .LVU444
 1841 0024 C1E90034 		strd	r3, r4, [r1]
 1842 0028 C1E90244 		strd	r4, r4, [r1, #8]
ARM GAS  /var/folders/hl/qgbwny5j0fd895c2c41bk3tw0000gp/T//ccBxTnvh.s 			page 63


 1843              	.LVL78:
  69:../../libDaisy//src/per/gpio.h ****         {
 1844              		.loc 15 69 73 view .LVU445
 1845              	.LBE933:
 1846              	.LBE935:
 1847              	.LBE937:
 1848              	.LBE939:
 1849              	.LBE994:
 1850              	.LBB995:
 1851              	.LBI940:
 1852              		.loc 15 74 5 is_stmt 1 view .LVU446
 1853              	.LBB950:
 1854              	.LBB948:
 1855              	.LBI942:
  68:../../libDaisy//src/per/gpio.h ****         : pin(), mode(Mode::INPUT), pull(Pull::NOPULL), speed(Speed::LOW)
 1856              		.loc 15 68 9 view .LVU447
 1857              	.LBB947:
 1858              	.LBB946:
 1859              	.LBB945:
 1860              	.LBI945:
 1861              		.loc 16 272 15 view .LVU448
 1862              		.loc 16 272 15 is_stmt 0 view .LVU449
 1863              	.LBE945:
 1864              	.LBE946:
 1865              	.LBE947:
 1866              	.LBE948:
 1867              	.LBE950:
 1868              	.LBE995:
 1869              	.LBB996:
 1870              	.LBI952:
 1871              		.loc 15 74 5 is_stmt 1 view .LVU450
 1872              	.LBB964:
 1873              	.LBB954:
 1874              	.LBI954:
  68:../../libDaisy//src/per/gpio.h ****         : pin(), mode(Mode::INPUT), pull(Pull::NOPULL), speed(Speed::LOW)
 1875              		.loc 15 68 9 view .LVU451
 1876              	.LBB955:
 1877              	.LBB956:
 1878              	.LBB957:
 1879              	.LBI957:
 1880              		.loc 16 272 15 view .LVU452
 1881              		.loc 16 272 15 is_stmt 0 view .LVU453
 1882              	.LBE957:
 1883              	.LBE956:
 1884              	.LBE955:
 1885              	.LBE954:
 1886              	.LBE964:
 1887              	.LBE996:
 1888              	.LBB997:
 1889              	.LBB990:
 1890              		.loc 15 74 12 view .LVU454
 1891 002c 1360     		str	r3, [r2]
 1892              	.LBE990:
 1893              	.LBE997:
 1894              	.LBB998:
 1895              	.LBB999:
 1896 002e 3449     		ldr	r1, .L43+24
ARM GAS  /var/folders/hl/qgbwny5j0fd895c2c41bk3tw0000gp/T//ccBxTnvh.s 			page 64


 1897              	.LBE999:
 1898              	.LBE998:
 1899              	.LBB1013:
 1900              	.LBB991:
 1901              	.LBB980:
 1902              	.LBB981:
 1903              	.LBB982:
  69:../../libDaisy//src/per/gpio.h ****         {
 1904              		.loc 15 69 73 view .LVU455
 1905 0030 D460     		str	r4, [r2, #12]
 1906              	.LBE982:
 1907              	.LBE981:
 1908              	.LBE980:
 1909              	.LBE991:
 1910              	.LBE1013:
 1911              	.LBB1014:
 1912              	.LBB1010:
 1913              		.loc 15 74 12 view .LVU456
 1914 0032 0B60     		str	r3, [r1]
 1915              	.LBB1000:
 1916              	.LBB1001:
 1917              	.LBB1002:
  69:../../libDaisy//src/per/gpio.h ****         {
 1918              		.loc 15 69 73 view .LVU457
 1919 0034 CC60     		str	r4, [r1, #12]
 1920              	.LBE1002:
 1921              	.LBE1001:
 1922              	.LBE1000:
 1923              	.LBE1010:
 1924              	.LBE1014:
 1925              	.LBB1015:
 1926              	.LBB992:
 1927              	.LBB988:
 1928              	.LBB986:
 1929              	.LBB984:
 1930 0036 C2E90144 		strd	r4, r4, [r2, #4]
 1931              	.LBE984:
 1932              	.LBE986:
 1933              	.LBE988:
 1934              	.LBE992:
 1935              	.LBE1015:
  23:daisy_bed.h   ****     Pin newPinA9 = Pin(static_cast<GPIOPort>(oldPinA9.port), oldPinA9.pin);
 1936              		.loc 12 23 18 view .LVU458
 1937 003a 324A     		ldr	r2, .L43+28
 1938              	.LBB1016:
 1939              	.LBB965:
 1940              	.LBB962:
 1941              	.LBB960:
 1942              	.LBB958:
  69:../../libDaisy//src/per/gpio.h ****         {
 1943              		.loc 15 69 73 view .LVU459
 1944 003c C0E90034 		strd	r3, r4, [r0]
 1945              	.LBE958:
 1946              	.LBE960:
 1947              	.LBE962:
 1948              	.LBE965:
 1949              	.LBE1016:
ARM GAS  /var/folders/hl/qgbwny5j0fd895c2c41bk3tw0000gp/T//ccBxTnvh.s 			page 65


  23:daisy_bed.h   ****     Pin newPinA9 = Pin(static_cast<GPIOPort>(oldPinA9.port), oldPinA9.pin);
 1950              		.loc 12 23 18 view .LVU460
 1951 0040 B2F800E0 		ldrh	lr, [r2]	@ unaligned
  21:daisy_bed.h   ****     Pin newPinD7 = Pin(static_cast<GPIOPort>(oldPinD7.port), oldPinD7.pin);
 1952              		.loc 12 21 18 view .LVU461
 1953 0044 2B88     		ldrh	r3, [r5]	@ unaligned
  23:daisy_bed.h   ****     Pin newPinA9 = Pin(static_cast<GPIOPort>(oldPinA9.port), oldPinA9.pin);
 1954              		.loc 12 23 18 view .LVU462
 1955 0046 304A     		ldr	r2, .L43+32
 1956              	.LBB1017:
 1957              	.LBB966:
 1958              	.LBB963:
 1959              	.LBB961:
 1960              	.LBB959:
  69:../../libDaisy//src/per/gpio.h ****         {
 1961              		.loc 15 69 73 view .LVU463
 1962 0048 C0E90244 		strd	r4, r4, [r0, #8]
 1963              	.LVL79:
  69:../../libDaisy//src/per/gpio.h ****         {
 1964              		.loc 15 69 73 view .LVU464
 1965              	.LBE959:
 1966              	.LBE961:
 1967              	.LBE963:
 1968              	.LBE966:
 1969              	.LBE1017:
 1970              	.LBB1018:
 1971              	.LBI968:
 1972              		.loc 15 74 5 is_stmt 1 view .LVU465
 1973              	.LBB977:
 1974              	.LBB976:
 1975              	.LBI970:
  68:../../libDaisy//src/per/gpio.h ****         : pin(), mode(Mode::INPUT), pull(Pull::NOPULL), speed(Speed::LOW)
 1976              		.loc 15 68 9 view .LVU466
 1977              	.LBB975:
 1978              	.LBB974:
 1979              	.LBB973:
 1980              	.LBI973:
 1981              		.loc 16 272 15 view .LVU467
 1982              		.loc 16 272 15 is_stmt 0 view .LVU468
 1983              	.LBE973:
 1984              	.LBE974:
 1985              	.LBE975:
 1986              	.LBE976:
 1987              	.LBE977:
 1988              	.LBE1018:
 1989              	.LBB1019:
 1990              	.LBI998:
 1991              		.loc 15 74 5 is_stmt 1 view .LVU469
 1992              	.LBB1011:
 1993              	.LBB1008:
 1994              	.LBI1000:
  68:../../libDaisy//src/per/gpio.h ****         : pin(), mode(Mode::INPUT), pull(Pull::NOPULL), speed(Speed::LOW)
 1995              		.loc 15 68 9 view .LVU470
 1996              	.LBB1006:
 1997              	.LBB1004:
 1998              	.LBB1003:
 1999              	.LBI1003:
ARM GAS  /var/folders/hl/qgbwny5j0fd895c2c41bk3tw0000gp/T//ccBxTnvh.s 			page 66


 2000              		.loc 16 272 15 view .LVU471
 2001              		.loc 16 272 15 is_stmt 0 view .LVU472
 2002              	.LBE1003:
 2003              	.LBE1004:
 2004              	.LBE1006:
 2005              	.LBE1008:
 2006              	.LBE1011:
 2007              	.LBE1019:
 2008              	.LBB1020:
 2009              	.LBI978:
 2010              		.loc 15 74 5 is_stmt 1 view .LVU473
 2011              	.LBB993:
 2012              	.LBB989:
 2013              	.LBI980:
  68:../../libDaisy//src/per/gpio.h ****         : pin(), mode(Mode::INPUT), pull(Pull::NOPULL), speed(Speed::LOW)
 2014              		.loc 15 68 9 view .LVU474
 2015              	.LBB987:
 2016              	.LBB985:
 2017              	.LBB983:
 2018              	.LBI983:
 2019              		.loc 16 272 15 view .LVU475
 2020              		.loc 16 272 15 is_stmt 0 view .LVU476
 2021              	.LBE983:
 2022              	.LBE985:
 2023              	.LBE987:
 2024              	.LBE989:
 2025              	.LBE993:
 2026              	.LBE1020:
 2027              	.LBB1021:
 2028              	.LBI1021:
 269:../../libDaisy//src/daisy_core.h **** 
 2029              		.loc 16 269 15 is_stmt 1 view .LVU477
 2030              	.LBE1021:
  21:daisy_bed.h   ****     Pin newPinD7 = Pin(static_cast<GPIOPort>(oldPinD7.port), oldPinD7.pin);
 2031              		.loc 12 21 18 is_stmt 0 view .LVU478
 2032 004c 2F48     		ldr	r0, .L43+36
  23:daisy_bed.h   ****     Pin newPinA9 = Pin(static_cast<GPIOPort>(oldPinA9.port), oldPinA9.pin);
 2033              		.loc 12 23 18 view .LVU479
 2034 004e A2F800E0 		strh	lr, [r2]	@ unaligned
  21:daisy_bed.h   ****     Pin newPinD7 = Pin(static_cast<GPIOPort>(oldPinD7.port), oldPinD7.pin);
 2035              		.loc 12 21 18 view .LVU480
 2036 0052 0380     		strh	r3, [r0]	@ unaligned
 2037              	.LVL80:
  24:daisy_bed.h   **** 
 2038              		.loc 12 24 55 view .LVU481
 2039 0054 1288     		ldrh	r2, [r2]
  22:daisy_bed.h   ****     dsy_gpio_pin oldPinA9 = DaisyPatchSM::A9;
 2040              		.loc 12 22 55 view .LVU482
 2041 0056 B0F800C0 		ldrh	ip, [r0]
 2042              	.LBB1026:
 2043              	.LBB1027:
 2044              	.LBB1028:
 269:../../libDaisy//src/daisy_core.h **** 
 2045              		.loc 16 269 74 view .LVU483
 2046 005a 2D48     		ldr	r0, .L43+40
 2047              	.LBE1028:
 2048              	.LBE1027:
ARM GAS  /var/folders/hl/qgbwny5j0fd895c2c41bk3tw0000gp/T//ccBxTnvh.s 			page 67


 2049              	.LBE1026:
  27:daisy_bed.h   ****     Pin newPinD2 = Pin(static_cast<GPIOPort>(oldPinD2.port), oldPinD2.pin);
 2050              		.loc 12 27 18 view .LVU484
 2051 005c 2D4B     		ldr	r3, .L43+44
 2052              	.LBB1031:
 2053              	.LBB1030:
 2054              	.LBB1029:
 269:../../libDaisy//src/daisy_core.h **** 
 2055              		.loc 16 269 74 view .LVU485
 2056 005e 0280     		strh	r2, [r0]	@ movhi
 2057              	.LBE1029:
 2058              	.LBE1030:
 2059              	.LBE1031:
 2060              	.LBB1032:
 2061              	.LBB1022:
 2062              	.LBB1023:
 2063 0060 2D48     		ldr	r0, .L43+48
 2064              	.LBE1023:
 2065              	.LBE1022:
 2066              	.LBE1032:
 2067              	.LBB1033:
 2068              	.LBB1034:
 2069              	.LBB1035:
 2070 0062 2E4A     		ldr	r2, .L43+52
 2071              	.LBE1035:
 2072              	.LBE1034:
 2073              	.LBE1033:
 2074              	.LBB1038:
 2075              	.LBB1012:
 2076              	.LBB1009:
 2077              	.LBB1007:
 2078              	.LBB1005:
  69:../../libDaisy//src/per/gpio.h ****         {
 2079              		.loc 15 69 73 view .LVU486
 2080 0064 C1E90144 		strd	r4, r4, [r1, #4]
 2081              	.LBE1005:
 2082              	.LBE1007:
 2083              	.LBE1009:
 2084              	.LBE1012:
 2085              	.LBE1038:
  27:daisy_bed.h   ****     Pin newPinD2 = Pin(static_cast<GPIOPort>(oldPinD2.port), oldPinD2.pin);
 2086              		.loc 12 27 18 view .LVU487
 2087 0068 2D49     		ldr	r1, .L43+56
 2088              	.LBB1039:
 2089              	.LBB1025:
 2090              	.LBB1024:
 269:../../libDaisy//src/daisy_core.h **** 
 2091              		.loc 16 269 74 view .LVU488
 2092 006a A0F800C0 		strh	ip, [r0]	@ movhi
 2093              	.LVL81:
 269:../../libDaisy//src/daisy_core.h **** 
 2094              		.loc 16 269 74 view .LVU489
 2095              	.LBE1024:
 2096              	.LBE1025:
 2097              	.LBE1039:
 2098              	.LBB1040:
 2099              	.LBI1026:
ARM GAS  /var/folders/hl/qgbwny5j0fd895c2c41bk3tw0000gp/T//ccBxTnvh.s 			page 68


 269:../../libDaisy//src/daisy_core.h **** 
 2100              		.loc 16 269 15 is_stmt 1 view .LVU490
 269:../../libDaisy//src/daisy_core.h **** 
 2101              		.loc 16 269 15 is_stmt 0 view .LVU491
 2102              	.LBE1040:
  27:daisy_bed.h   ****     Pin newPinD2 = Pin(static_cast<GPIOPort>(oldPinD2.port), oldPinD2.pin);
 2103              		.loc 12 27 18 view .LVU492
 2104 006e 0988     		ldrh	r1, [r1]	@ unaligned
  29:daisy_bed.h   ****     Pin newPinD1 = Pin(static_cast<GPIOPort>(oldPinD1.port), oldPinD1.pin);
 2105              		.loc 12 29 18 view .LVU493
 2106 0070 2C48     		ldr	r0, .L43+60
  27:daisy_bed.h   ****     Pin newPinD2 = Pin(static_cast<GPIOPort>(oldPinD2.port), oldPinD2.pin);
 2107              		.loc 12 27 18 view .LVU494
 2108 0072 1980     		strh	r1, [r3]	@ unaligned
  28:daisy_bed.h   ****     dsy_gpio_pin oldPinD1 = DaisyPatchSM::D1;
 2109              		.loc 12 28 55 view .LVU495
 2110 0074 1B88     		ldrh	r3, [r3]
 2111              	.LVL82:
 2112              	.LBB1041:
 2113              	.LBI1033:
 269:../../libDaisy//src/daisy_core.h **** 
 2114              		.loc 16 269 15 is_stmt 1 view .LVU496
 2115              	.LBE1041:
  29:daisy_bed.h   ****     Pin newPinD1 = Pin(static_cast<GPIOPort>(oldPinD1.port), oldPinD1.pin);
 2116              		.loc 12 29 18 is_stmt 0 view .LVU497
 2117 0076 0088     		ldrh	r0, [r0]	@ unaligned
 2118              	.LBB1042:
 2119              	.LBB1037:
 2120              	.LBB1036:
 269:../../libDaisy//src/daisy_core.h **** 
 2121              		.loc 16 269 74 view .LVU498
 2122 0078 1380     		strh	r3, [r2]	@ movhi
 2123              	.LVL83:
 269:../../libDaisy//src/daisy_core.h **** 
 2124              		.loc 16 269 74 view .LVU499
 2125              	.LBE1036:
 2126              	.LBE1037:
 2127              	.LBE1042:
  33:daisy_bed.h   ****     Pin newPinD3 = Pin(static_cast<GPIOPort>(oldPinD3.port), oldPinD3.pin);
 2128              		.loc 12 33 18 view .LVU500
 2129 007a 2B49     		ldr	r1, .L43+64
  29:daisy_bed.h   ****     Pin newPinD1 = Pin(static_cast<GPIOPort>(oldPinD1.port), oldPinD1.pin);
 2130              		.loc 12 29 18 view .LVU501
 2131 007c 2B4B     		ldr	r3, .L43+68
  33:daisy_bed.h   ****     Pin newPinD3 = Pin(static_cast<GPIOPort>(oldPinD3.port), oldPinD3.pin);
 2132              		.loc 12 33 18 view .LVU502
 2133 007e 0988     		ldrh	r1, [r1]	@ unaligned
  29:daisy_bed.h   ****     Pin newPinD1 = Pin(static_cast<GPIOPort>(oldPinD1.port), oldPinD1.pin);
 2134              		.loc 12 29 18 view .LVU503
 2135 0080 1880     		strh	r0, [r3]	@ unaligned
  35:daisy_bed.h   ****     Pin newPinD6 = Pin(static_cast<GPIOPort>(oldPinD6.port), oldPinD6.pin);
 2136              		.loc 12 35 18 view .LVU504
 2137 0082 2B4A     		ldr	r2, .L43+72
  30:daisy_bed.h   **** 
 2138              		.loc 12 30 55 view .LVU505
 2139 0084 B3F800E0 		ldrh	lr, [r3]
 2140              	.LVL84:
ARM GAS  /var/folders/hl/qgbwny5j0fd895c2c41bk3tw0000gp/T//ccBxTnvh.s 			page 69


 2141              	.LBB1043:
 2142              	.LBI1043:
 269:../../libDaisy//src/daisy_core.h **** 
 2143              		.loc 16 269 15 is_stmt 1 view .LVU506
 2144              	.LBE1043:
  33:daisy_bed.h   ****     Pin newPinD3 = Pin(static_cast<GPIOPort>(oldPinD3.port), oldPinD3.pin);
 2145              		.loc 12 33 18 is_stmt 0 view .LVU507
 2146 0088 2A4B     		ldr	r3, .L43+76
  35:daisy_bed.h   ****     Pin newPinD6 = Pin(static_cast<GPIOPort>(oldPinD6.port), oldPinD6.pin);
 2147              		.loc 12 35 18 view .LVU508
 2148 008a 1288     		ldrh	r2, [r2]	@ unaligned
  33:daisy_bed.h   ****     Pin newPinD3 = Pin(static_cast<GPIOPort>(oldPinD3.port), oldPinD3.pin);
 2149              		.loc 12 33 18 view .LVU509
 2150 008c 1980     		strh	r1, [r3]	@ unaligned
  34:daisy_bed.h   ****     dsy_gpio_pin oldPinD6 = DaisyPatchSM::D6;
 2151              		.loc 12 34 55 view .LVU510
 2152 008e B3F800C0 		ldrh	ip, [r3]
  35:daisy_bed.h   ****     Pin newPinD6 = Pin(static_cast<GPIOPort>(oldPinD6.port), oldPinD6.pin);
 2153              		.loc 12 35 18 view .LVU511
 2154 0092 294B     		ldr	r3, .L43+80
  41:daisy_bed.h   **** 
 2155              		.loc 12 41 17 view .LVU512
 2156 0094 2949     		ldr	r1, .L43+84
  35:daisy_bed.h   ****     Pin newPinD6 = Pin(static_cast<GPIOPort>(oldPinD6.port), oldPinD6.pin);
 2157              		.loc 12 35 18 view .LVU513
 2158 0096 1A80     		strh	r2, [r3]	@ unaligned
  36:daisy_bed.h   **** 
 2159              		.loc 12 36 55 view .LVU514
 2160 0098 1888     		ldrh	r0, [r3]
 2161              	.LBB1048:
 2162              	.LBB1044:
 2163              	.LBB1045:
 269:../../libDaisy//src/daisy_core.h **** 
 2164              		.loc 16 269 74 view .LVU515
 2165 009a 294B     		ldr	r3, .L43+88
 2166              	.LBE1045:
 2167              	.LBE1044:
 2168              	.LBE1048:
  41:daisy_bed.h   **** 
 2169              		.loc 12 41 17 view .LVU516
 2170 009c 294A     		ldr	r2, .L43+92
 2171              	.LBB1049:
 2172              	.LBB1047:
 2173              	.LBB1046:
 269:../../libDaisy//src/daisy_core.h **** 
 2174              		.loc 16 269 74 view .LVU517
 2175 009e A3F800E0 		strh	lr, [r3]	@ movhi
 2176              	.LVL85:
 269:../../libDaisy//src/daisy_core.h **** 
 2177              		.loc 16 269 74 view .LVU518
 2178              	.LBE1046:
 2179              	.LBE1047:
 2180              	.LBE1049:
 2181              	.LBB1050:
 2182              	.LBI1050:
 269:../../libDaisy//src/daisy_core.h **** 
 2183              		.loc 16 269 15 is_stmt 1 view .LVU519
ARM GAS  /var/folders/hl/qgbwny5j0fd895c2c41bk3tw0000gp/T//ccBxTnvh.s 			page 70


 2184              	.LBB1051:
 2185              	.LBB1052:
 269:../../libDaisy//src/daisy_core.h **** 
 2186              		.loc 16 269 74 is_stmt 0 view .LVU520
 2187 00a2 294B     		ldr	r3, .L43+96
 2188 00a4 A3F800C0 		strh	ip, [r3]	@ movhi
 2189              	.LVL86:
 269:../../libDaisy//src/daisy_core.h **** 
 2190              		.loc 16 269 74 view .LVU521
 2191              	.LBE1052:
 2192              	.LBE1051:
 2193              	.LBE1050:
 2194              	.LBB1053:
 2195              	.LBI1053:
 269:../../libDaisy//src/daisy_core.h **** 
 2196              		.loc 16 269 15 is_stmt 1 view .LVU522
 2197              	.LBB1054:
 2198              	.LBB1055:
 269:../../libDaisy//src/daisy_core.h **** 
 2199              		.loc 16 269 74 is_stmt 0 view .LVU523
 2200 00a8 284B     		ldr	r3, .L43+100
 2201 00aa 1880     		strh	r0, [r3]	@ movhi
 2202              	.LVL87:
 269:../../libDaisy//src/daisy_core.h **** 
 2203              		.loc 16 269 74 view .LVU524
 2204              	.LBE1055:
 2205              	.LBE1054:
 2206              	.LBE1053:
 2207              	.LBB1056:
 2208              	.LBI1056:
  41:../../libDaisy//src/hid/switch.h ****     ~Switch() {}
 2209              		.loc 1 41 5 is_stmt 1 view .LVU525
  41:../../libDaisy//src/hid/switch.h ****     ~Switch() {}
 2210              		.loc 1 41 5 is_stmt 0 view .LVU526
 2211              	.LBE1056:
  41:daisy_bed.h   **** 
 2212              		.loc 12 41 17 view .LVU527
 2213 00ac 2848     		ldr	r0, .L43+104
 2214 00ae FFF7FEFF 		bl	__aeabi_atexit
 2215              	.LVL88:
 2216              	.LBB1057:
 2217              	.LBI1057:
  41:../../libDaisy//src/hid/switch.h ****     ~Switch() {}
 2218              		.loc 1 41 5 is_stmt 1 view .LVU528
  41:../../libDaisy//src/hid/switch.h ****     ~Switch() {}
 2219              		.loc 1 41 5 is_stmt 0 view .LVU529
 2220              	.LBE1057:
  41:daisy_bed.h   **** 
 2221              		.loc 12 41 20 view .LVU530
 2222 00b2 244A     		ldr	r2, .L43+92
 2223 00b4 2149     		ldr	r1, .L43+84
 2224 00b6 2748     		ldr	r0, .L43+108
 2225 00b8 FFF7FEFF 		bl	__aeabi_atexit
 2226              	.LVL89:
 2227              	.LBB1058:
 2228              	.LBI1058:
  64:../../libDaisy//src/daisy_patch_sm.h ****         ~DaisyPatchSM() {}
ARM GAS  /var/folders/hl/qgbwny5j0fd895c2c41bk3tw0000gp/T//ccBxTnvh.s 			page 71


 2229              		.loc 2 64 9 is_stmt 1 view .LVU531
 2230              	.LBB1059:
 2231              	.LBB1060:
 2232              	.LBI1060:
  77:../../libDaisy//src/sys/system.h ****     ~System() {}
 2233              		.loc 8 77 5 view .LVU532
  77:../../libDaisy//src/sys/system.h ****     ~System() {}
 2234              		.loc 8 77 5 is_stmt 0 view .LVU533
 2235              	.LBE1060:
 2236              	.LBB1061:
 2237              	.LBI1061:
 2238              		.file 17 "../../libDaisy//src/per/qspi.h"
   1:../../libDaisy//src/per/qspi.h **** #ifndef DSY_QSPI
   2:../../libDaisy//src/per/qspi.h **** #define DSY_QSPI /**< Macro */
   3:../../libDaisy//src/per/qspi.h **** 
   4:../../libDaisy//src/per/qspi.h **** #ifndef UNIT_TEST // for unit tests, a dummy implementation
   5:../../libDaisy//src/per/qspi.h **** 
   6:../../libDaisy//src/per/qspi.h **** #include <cstdint>
   7:../../libDaisy//src/per/qspi.h **** #include "daisy_core.h" // Added for dsy_gpio_pin typedef
   8:../../libDaisy//src/per/qspi.h **** 
   9:../../libDaisy//src/per/qspi.h **** #define DSY_QSPI_TEXT       \
  10:../../libDaisy//src/per/qspi.h ****     __attribute__((section( \
  11:../../libDaisy//src/per/qspi.h ****         ".qspiflash_text"))) /**< used for reading memory in memory_mapped mode. */
  12:../../libDaisy//src/per/qspi.h **** #define DSY_QSPI_DATA       \
  13:../../libDaisy//src/per/qspi.h ****     __attribute__((section( \
  14:../../libDaisy//src/per/qspi.h ****         ".qspiflash_data"))) /**< used for reading memory in memory_mapped mode. */
  15:../../libDaisy//src/per/qspi.h **** #define DSY_QSPI_BSS        \
  16:../../libDaisy//src/per/qspi.h ****     __attribute__((section( \
  17:../../libDaisy//src/per/qspi.h ****         ".qspiflash_bss"))) /**< used for reading memory in memory_mapped mode. */
  18:../../libDaisy//src/per/qspi.h **** 
  19:../../libDaisy//src/per/qspi.h **** namespace daisy
  20:../../libDaisy//src/per/qspi.h **** {
  21:../../libDaisy//src/per/qspi.h **** /** @addtogroup serial
  22:../../libDaisy//src/per/qspi.h **** @{
  23:../../libDaisy//src/per/qspi.h **** */
  24:../../libDaisy//src/per/qspi.h **** 
  25:../../libDaisy//src/per/qspi.h **** /** 
  26:../../libDaisy//src/per/qspi.h ****  Driver for QSPI peripheral to interface with external flash memory. \n 
  27:../../libDaisy//src/per/qspi.h ****     Currently supported QSPI Devices: \n 
  28:../../libDaisy//src/per/qspi.h ****     * IS25LP080D
  29:../../libDaisy//src/per/qspi.h **** */
  30:../../libDaisy//src/per/qspi.h **** class QSPIHandle
  31:../../libDaisy//src/per/qspi.h **** {
  32:../../libDaisy//src/per/qspi.h ****   public:
  33:../../libDaisy//src/per/qspi.h ****     enum Result
  34:../../libDaisy//src/per/qspi.h ****     {
  35:../../libDaisy//src/per/qspi.h ****         OK = 0,
  36:../../libDaisy//src/per/qspi.h ****         ERR
  37:../../libDaisy//src/per/qspi.h ****     };
  38:../../libDaisy//src/per/qspi.h **** 
  39:../../libDaisy//src/per/qspi.h ****     /** Indicates the current status of the module. 
  40:../../libDaisy//src/per/qspi.h ****          *  Warnings are indicated by a leading W.
  41:../../libDaisy//src/per/qspi.h ****          *  Errors are indicated by a leading E and cause an immediate exit.
  42:../../libDaisy//src/per/qspi.h ****          * 
  43:../../libDaisy//src/per/qspi.h ****          *  \param GOOD - No errors have been reported.
  44:../../libDaisy//src/per/qspi.h ****          *  \param E_HAL_ERROR - HAL code did not return HAL_OK.
  45:../../libDaisy//src/per/qspi.h ****          *  \param E_SWITCHING_MODES - An error was encountered while switching QSPI peripheral mod
ARM GAS  /var/folders/hl/qgbwny5j0fd895c2c41bk3tw0000gp/T//ccBxTnvh.s 			page 72


  46:../../libDaisy//src/per/qspi.h ****          *  \param E_INVALID_MODE - QSPI should not be written to while the program is executing fr
  47:../../libDaisy//src/per/qspi.h ****          */
  48:../../libDaisy//src/per/qspi.h ****     enum Status
  49:../../libDaisy//src/per/qspi.h ****     {
  50:../../libDaisy//src/per/qspi.h ****         GOOD = 0,
  51:../../libDaisy//src/per/qspi.h ****         E_HAL_ERROR,
  52:../../libDaisy//src/per/qspi.h ****         E_SWITCHING_MODES,
  53:../../libDaisy//src/per/qspi.h ****         E_INVALID_MODE,
  54:../../libDaisy//src/per/qspi.h ****     };
  55:../../libDaisy//src/per/qspi.h **** 
  56:../../libDaisy//src/per/qspi.h ****     /** Configuration structure for interfacing with QSPI Driver */
  57:../../libDaisy//src/per/qspi.h ****     struct Config
  58:../../libDaisy//src/per/qspi.h ****     {
  59:../../libDaisy//src/per/qspi.h ****         /** Flash Devices supported. (Both of these are more-or-less the same, just different sizes
  60:../../libDaisy//src/per/qspi.h ****         enum Device
  61:../../libDaisy//src/per/qspi.h ****         {
  62:../../libDaisy//src/per/qspi.h ****             IS25LP080D,  /**< & */
  63:../../libDaisy//src/per/qspi.h ****             IS25LP064A,  /**< & */
  64:../../libDaisy//src/per/qspi.h ****             DEVICE_LAST, /**< & */
  65:../../libDaisy//src/per/qspi.h ****         };
  66:../../libDaisy//src/per/qspi.h **** 
  67:../../libDaisy//src/per/qspi.h ****         /** 
  68:../../libDaisy//src/per/qspi.h ****         Modes of operation.
  69:../../libDaisy//src/per/qspi.h ****         Memory Mapped mode: QSPI configured so that the QSPI can be
  70:../../libDaisy//src/per/qspi.h ****         read from starting address 0x90000000. Writing is not
  71:../../libDaisy//src/per/qspi.h ****         possible in this mode. \n 
  72:../../libDaisy//src/per/qspi.h ****         Indirect Polling mode: Device driver enabled. 
  73:../../libDaisy//src/per/qspi.h ****         */
  74:../../libDaisy//src/per/qspi.h ****         enum Mode
  75:../../libDaisy//src/per/qspi.h ****         {
  76:../../libDaisy//src/per/qspi.h ****             MEMORY_MAPPED,    /**< & */
  77:../../libDaisy//src/per/qspi.h ****             INDIRECT_POLLING, /**< & */
  78:../../libDaisy//src/per/qspi.h ****             MODE_LAST,
  79:../../libDaisy//src/per/qspi.h ****         };
  80:../../libDaisy//src/per/qspi.h **** 
  81:../../libDaisy//src/per/qspi.h ****         //SCK,  CE# (active low)
  82:../../libDaisy//src/per/qspi.h ****         struct
  83:../../libDaisy//src/per/qspi.h ****         {
  84:../../libDaisy//src/per/qspi.h ****             dsy_gpio_pin io0; /**< & */
  85:../../libDaisy//src/per/qspi.h ****             dsy_gpio_pin io1; /**< & */
  86:../../libDaisy//src/per/qspi.h ****             dsy_gpio_pin io2; /**< & */
  87:../../libDaisy//src/per/qspi.h ****             dsy_gpio_pin io3; /**< & */
  88:../../libDaisy//src/per/qspi.h ****             dsy_gpio_pin clk; /**< & */
  89:../../libDaisy//src/per/qspi.h ****             dsy_gpio_pin ncs; /**< & */
  90:../../libDaisy//src/per/qspi.h ****         } pin_config;
  91:../../libDaisy//src/per/qspi.h **** 
  92:../../libDaisy//src/per/qspi.h ****         Device device;
  93:../../libDaisy//src/per/qspi.h ****         Mode   mode;
  94:../../libDaisy//src/per/qspi.h ****     };
  95:../../libDaisy//src/per/qspi.h **** 
  96:../../libDaisy//src/per/qspi.h ****     /** 
  97:../../libDaisy//src/per/qspi.h ****         Initializes QSPI peripheral, and Resets, and prepares memory for access.
  98:../../libDaisy//src/per/qspi.h ****         \param config should be populated with the mode, device and pin_config before calling this 
  99:../../libDaisy//src/per/qspi.h ****         \return Result::OK or Result::ERR
 100:../../libDaisy//src/per/qspi.h ****         */
 101:../../libDaisy//src/per/qspi.h ****     Result Init(const Config& config);
 102:../../libDaisy//src/per/qspi.h **** 
ARM GAS  /var/folders/hl/qgbwny5j0fd895c2c41bk3tw0000gp/T//ccBxTnvh.s 			page 73


 103:../../libDaisy//src/per/qspi.h ****     /** Returns the current config. */
 104:../../libDaisy//src/per/qspi.h ****     const Config& GetConfig() const;
 105:../../libDaisy//src/per/qspi.h **** 
 106:../../libDaisy//src/per/qspi.h ****     // Couldn't this just be called before anything else in init? That
 107:../../libDaisy//src/per/qspi.h ****     // would make manually calling it unnecessary.
 108:../../libDaisy//src/per/qspi.h ****     /** 
 109:../../libDaisy//src/per/qspi.h ****         Deinitializes the peripheral
 110:../../libDaisy//src/per/qspi.h ****         This should be called before reinitializing QSPI in a different mode.
 111:../../libDaisy//src/per/qspi.h ****         \return Result::OK or Result::ERR
 112:../../libDaisy//src/per/qspi.h ****         */
 113:../../libDaisy//src/per/qspi.h ****     Result DeInit();
 114:../../libDaisy//src/per/qspi.h **** 
 115:../../libDaisy//src/per/qspi.h ****     /** 
 116:../../libDaisy//src/per/qspi.h ****         Writes a single page to to the specified address on the QSPI chip.
 117:../../libDaisy//src/per/qspi.h ****         For IS25LP*, page size is 256 bytes.
 118:../../libDaisy//src/per/qspi.h ****         \param address Address to write to
 119:../../libDaisy//src/per/qspi.h ****         \param size Buffer size
 120:../../libDaisy//src/per/qspi.h ****         \param buffer Buffer to write
 121:../../libDaisy//src/per/qspi.h ****         \return Result::OK or Result::ERR
 122:../../libDaisy//src/per/qspi.h ****         */
 123:../../libDaisy//src/per/qspi.h ****     Result WritePage(uint32_t address, uint32_t size, uint8_t* buffer);
 124:../../libDaisy//src/per/qspi.h **** 
 125:../../libDaisy//src/per/qspi.h ****     /** 
 126:../../libDaisy//src/per/qspi.h ****         Writes data in buffer to to the QSPI. Starting at address to address+size 
 127:../../libDaisy//src/per/qspi.h ****         \param address Address to write to
 128:../../libDaisy//src/per/qspi.h ****         \param size Buffer size
 129:../../libDaisy//src/per/qspi.h ****         \param buffer Buffer to write
 130:../../libDaisy//src/per/qspi.h ****         \return Result::OK or Result::ERR
 131:../../libDaisy//src/per/qspi.h ****         */
 132:../../libDaisy//src/per/qspi.h ****     Result Write(uint32_t address, uint32_t size, uint8_t* buffer);
 133:../../libDaisy//src/per/qspi.h **** 
 134:../../libDaisy//src/per/qspi.h ****     /** 
 135:../../libDaisy//src/per/qspi.h ****         Erases the area specified on the chip.
 136:../../libDaisy//src/per/qspi.h ****         Erasures will happen by 4K, 32K or 64K increments.
 137:../../libDaisy//src/per/qspi.h ****         Smallest erase possible is 4kB at a time. (on IS25LP*)
 138:../../libDaisy//src/per/qspi.h ****         \param start_addr Address to begin erasing from
 139:../../libDaisy//src/per/qspi.h ****         \param end_addr  Address to stop erasing at
 140:../../libDaisy//src/per/qspi.h ****         \return Result::OK or Result::ERR
 141:../../libDaisy//src/per/qspi.h ****         */
 142:../../libDaisy//src/per/qspi.h ****     Result Erase(uint32_t start_addr, uint32_t end_addr);
 143:../../libDaisy//src/per/qspi.h **** 
 144:../../libDaisy//src/per/qspi.h ****     /**  
 145:../../libDaisy//src/per/qspi.h ****          Erases a single sector of the chip.  
 146:../../libDaisy//src/per/qspi.h ****         TODO: Document the size of this function. 
 147:../../libDaisy//src/per/qspi.h ****         \param address Address of sector to erase
 148:../../libDaisy//src/per/qspi.h ****         \return Result::OK or Result::ERR
 149:../../libDaisy//src/per/qspi.h ****         */
 150:../../libDaisy//src/per/qspi.h ****     Result EraseSector(uint32_t address);
 151:../../libDaisy//src/per/qspi.h **** 
 152:../../libDaisy//src/per/qspi.h ****     /** Returns the current class status. Useful for debugging.
 153:../../libDaisy//src/per/qspi.h ****      *  \returns Status
 154:../../libDaisy//src/per/qspi.h ****      */
 155:../../libDaisy//src/per/qspi.h ****     Status GetStatus();
 156:../../libDaisy//src/per/qspi.h **** 
 157:../../libDaisy//src/per/qspi.h ****     /** Returns a pointer to the actual memory used 
 158:../../libDaisy//src/per/qspi.h ****      *  The memory at this address is read-only
 159:../../libDaisy//src/per/qspi.h ****      *  to write to it use the Write function.
ARM GAS  /var/folders/hl/qgbwny5j0fd895c2c41bk3tw0000gp/T//ccBxTnvh.s 			page 74


 160:../../libDaisy//src/per/qspi.h ****      * 
 161:../../libDaisy//src/per/qspi.h ****      *  \param offset returns the pointer starting this 
 162:../../libDaisy//src/per/qspi.h ****      *                many bytes into the memory
 163:../../libDaisy//src/per/qspi.h ****     */
 164:../../libDaisy//src/per/qspi.h ****     void* GetData(uint32_t offset = 0);
 165:../../libDaisy//src/per/qspi.h **** 
 166:../../libDaisy//src/per/qspi.h ****     QSPIHandle() : pimpl_(nullptr) {}
 2239              		.loc 17 166 5 is_stmt 1 view .LVU534
 2240              	.LBB1062:
 2241              	.LBB1063:
 2242              		.loc 17 166 34 is_stmt 0 view .LVU535
 2243 00bc 2648     		ldr	r0, .L43+112
 2244              	.LBE1063:
 2245              	.LBE1062:
 2246              	.LBE1061:
 2247              	.LBE1059:
 2248              	.LBE1058:
  11:Twines.cpp    **** Diffuser		diffuser;
 2249              		.loc 11 11 15 view .LVU536
 2250 00be 2749     		ldr	r1, .L43+116
 2251 00c0 204A     		ldr	r2, .L43+92
 2252              	.LBB1085:
 2253              	.LBB1083:
 2254              	.LBB1064:
 2255              	.LBB1065:
 2256              	.LBB1066:
 2257              	.LBB1067:
 2258              	.LBB1068:
 2259              		.file 18 "../../libDaisy//src/per/i2c.h"
   1:../../libDaisy//src/per/i2c.h **** #pragma once
   2:../../libDaisy//src/per/i2c.h **** #include "daisy_core.h"
   3:../../libDaisy//src/per/i2c.h **** 
   4:../../libDaisy//src/per/i2c.h **** namespace daisy
   5:../../libDaisy//src/per/i2c.h **** {
   6:../../libDaisy//src/per/i2c.h **** /** A handle for interacting with an I2C peripheral. This is a dumb
   7:../../libDaisy//src/per/i2c.h ****  *  gateway that internally points to one of the four I2C peripherals
   8:../../libDaisy//src/per/i2c.h ****  *  after it was initialised. It can then be copied and passed around.
   9:../../libDaisy//src/per/i2c.h ****  *  Use an I2CHandle like this:
  10:../../libDaisy//src/per/i2c.h ****  *  
  11:../../libDaisy//src/per/i2c.h ****  *      // setup the configuration
  12:../../libDaisy//src/per/i2c.h ****  *      I2CHandle::Config i2c_conf;
  13:../../libDaisy//src/per/i2c.h ****  *      i2c_conf.periph = I2CHandle::Config::Peripheral::I2C_1;
  14:../../libDaisy//src/per/i2c.h ****  *      i2c_conf.speed  = I2CHandle::Config::Speed::I2C_400KHZ;
  15:../../libDaisy//src/per/i2c.h ****  *      i2c_conf.mode   = I2CHandle::Config::Mode::Master;
  16:../../libDaisy//src/per/i2c.h ****  *      i2c_conf.pin_config.scl  = {DSY_GPIOB, 8};
  17:../../libDaisy//src/per/i2c.h ****  *      i2c_conf.pin_config.sda  = {DSY_GPIOB, 9};
  18:../../libDaisy//src/per/i2c.h ****  *      // initialise the peripheral
  19:../../libDaisy//src/per/i2c.h ****  *      I2CHandle i2c;
  20:../../libDaisy//src/per/i2c.h ****  *      i2c.Init(i2c_conf);
  21:../../libDaisy//src/per/i2c.h ****  *      // now i2c points to the corresponding peripheral and can be used.
  22:../../libDaisy//src/per/i2c.h ****  *      i2c.TransmitBlocking( ... );
  23:../../libDaisy//src/per/i2c.h ****  */
  24:../../libDaisy//src/per/i2c.h **** class I2CHandle
  25:../../libDaisy//src/per/i2c.h **** {
  26:../../libDaisy//src/per/i2c.h ****   public:
  27:../../libDaisy//src/per/i2c.h ****     /** Contains settings for initialising an I2C interface. */
  28:../../libDaisy//src/per/i2c.h ****     struct Config
ARM GAS  /var/folders/hl/qgbwny5j0fd895c2c41bk3tw0000gp/T//ccBxTnvh.s 			page 75


  29:../../libDaisy//src/per/i2c.h ****     {
  30:../../libDaisy//src/per/i2c.h ****         /** Specifies whether the interface will operate in master or slave mode. */
  31:../../libDaisy//src/per/i2c.h ****         enum class Mode
  32:../../libDaisy//src/per/i2c.h ****         {
  33:../../libDaisy//src/per/i2c.h ****             I2C_MASTER,
  34:../../libDaisy//src/per/i2c.h ****             I2C_SLAVE,
  35:../../libDaisy//src/per/i2c.h ****         };
  36:../../libDaisy//src/per/i2c.h **** 
  37:../../libDaisy//src/per/i2c.h ****         /** Specifices the internal peripheral to use (these are mapped to different pins on the ha
  38:../../libDaisy//src/per/i2c.h ****         enum class Peripheral
  39:../../libDaisy//src/per/i2c.h ****         {
  40:../../libDaisy//src/per/i2c.h ****             I2C_1 = 0, /**< & */
  41:../../libDaisy//src/per/i2c.h ****             I2C_2,     /**< & */
  42:../../libDaisy//src/per/i2c.h ****             I2C_3,     /**< & */
  43:../../libDaisy//src/per/i2c.h ****             I2C_4,     /**< & */
  44:../../libDaisy//src/per/i2c.h ****         };
  45:../../libDaisy//src/per/i2c.h **** 
  46:../../libDaisy//src/per/i2c.h ****         /** Rate at which the clock/data will be sent/received. The device being used will have max
  47:../../libDaisy//src/per/i2c.h ****          *  1MHZ Mode is currently 886kHz
  48:../../libDaisy//src/per/i2c.h ****          */
  49:../../libDaisy//src/per/i2c.h ****         enum class Speed
  50:../../libDaisy//src/per/i2c.h ****         {
  51:../../libDaisy//src/per/i2c.h ****             I2C_100KHZ, /**< & */
  52:../../libDaisy//src/per/i2c.h ****             I2C_400KHZ, /**< & */
  53:../../libDaisy//src/per/i2c.h ****             I2C_1MHZ,   /**< & */
  54:../../libDaisy//src/per/i2c.h ****         };
  55:../../libDaisy//src/per/i2c.h **** 
  56:../../libDaisy//src/per/i2c.h ****         Peripheral periph; /**< & */
  57:../../libDaisy//src/per/i2c.h ****         struct
  58:../../libDaisy//src/per/i2c.h ****         {
  59:../../libDaisy//src/per/i2c.h ****             dsy_gpio_pin scl; /**< & */
  60:../../libDaisy//src/per/i2c.h ****             dsy_gpio_pin sda; /**< & */
  61:../../libDaisy//src/per/i2c.h ****         } pin_config;         /**< & */
  62:../../libDaisy//src/per/i2c.h **** 
  63:../../libDaisy//src/per/i2c.h ****         Speed speed; /**< & */
  64:../../libDaisy//src/per/i2c.h ****         Mode  mode;  /**< & */
  65:../../libDaisy//src/per/i2c.h ****         // 0x10 is chosen as a default to avoid conflicts with reserved addresses
  66:../../libDaisy//src/per/i2c.h ****         uint8_t address = 0x10; /**< & */
  67:../../libDaisy//src/per/i2c.h ****     };
  68:../../libDaisy//src/per/i2c.h **** 
  69:../../libDaisy//src/per/i2c.h ****     /** Return values for I2C functions. */
  70:../../libDaisy//src/per/i2c.h ****     enum class Result
  71:../../libDaisy//src/per/i2c.h ****     {
  72:../../libDaisy//src/per/i2c.h ****         OK, /**< & */
  73:../../libDaisy//src/per/i2c.h ****         ERR /**< & */
  74:../../libDaisy//src/per/i2c.h ****     };
  75:../../libDaisy//src/per/i2c.h **** 
  76:../../libDaisy//src/per/i2c.h ****     enum class Direction
  77:../../libDaisy//src/per/i2c.h ****     {
  78:../../libDaisy//src/per/i2c.h ****         TRANSMIT, /**< & */
  79:../../libDaisy//src/per/i2c.h ****         RECEIVE,  /**< & */
  80:../../libDaisy//src/per/i2c.h ****     };
  81:../../libDaisy//src/per/i2c.h **** 
  82:../../libDaisy//src/per/i2c.h ****     I2CHandle() : pimpl_(nullptr) {}
 2260              		.loc 18 82 33 view .LVU537
 2261 00c2 0462     		str	r4, [r0, #32]
 2262              	.LBE1068:
ARM GAS  /var/folders/hl/qgbwny5j0fd895c2c41bk3tw0000gp/T//ccBxTnvh.s 			page 76


 2263              	.LBE1067:
 2264              	.LBE1066:
 2265              	.LBE1065:
 2266              	.LBE1064:
 2267              	.LBB1071:
 2268              	.LBB1072:
 2269              	.LBB1073:
 2270              		.file 19 "../../libDaisy//src/per/dac.h"
   1:../../libDaisy//src/per/dac.h **** #pragma once
   2:../../libDaisy//src/per/dac.h **** #ifndef DSY_DAC_H
   3:../../libDaisy//src/per/dac.h **** #define DSY_DAC_H
   4:../../libDaisy//src/per/dac.h **** 
   5:../../libDaisy//src/per/dac.h **** #include "daisy_core.h"
   6:../../libDaisy//src/per/dac.h **** 
   7:../../libDaisy//src/per/dac.h **** namespace daisy
   8:../../libDaisy//src/per/dac.h **** {
   9:../../libDaisy//src/per/dac.h **** /** @brief DAC handle for Built-in DAC Peripheral 
  10:../../libDaisy//src/per/dac.h ****  *  @ingroup per_analog
  11:../../libDaisy//src/per/dac.h ****  ** 
  12:../../libDaisy//src/per/dac.h ****  ** For now only Normal Mode is supported,
  13:../../libDaisy//src/per/dac.h ****  ** Sample and hold mode provides reduced power consumption, but requires a bit more setup.
  14:../../libDaisy//src/per/dac.h ****  **
  15:../../libDaisy//src/per/dac.h ****  ** For now connecting the DAC through other internal peripherals is also not supported.
  16:../../libDaisy//src/per/dac.h ****  **
  17:../../libDaisy//src/per/dac.h ****  ** Since the DAC channels have dedicated pins we don't need to pass in a pin config like with
  18:../../libDaisy//src/per/dac.h ****  ** other modules. However, it is still important to not try to use the DAC pins for anything else.
  19:../../libDaisy//src/per/dac.h ****  ** DAC Channel 1 is on PA4, and DAC Channel 2 is on PA5
  20:../../libDaisy//src/per/dac.h ****  ***/
  21:../../libDaisy//src/per/dac.h **** class DacHandle
  22:../../libDaisy//src/per/dac.h **** {
  23:../../libDaisy//src/per/dac.h ****   public:
  24:../../libDaisy//src/per/dac.h ****     /** Return Values for the DacHandle class */
  25:../../libDaisy//src/per/dac.h ****     enum class Result
  26:../../libDaisy//src/per/dac.h ****     {
  27:../../libDaisy//src/per/dac.h ****         OK,
  28:../../libDaisy//src/per/dac.h ****         ERR,
  29:../../libDaisy//src/per/dac.h ****     };
  30:../../libDaisy//src/per/dac.h **** 
  31:../../libDaisy//src/per/dac.h ****     /** Selects which channel(s) will be configured for use. */
  32:../../libDaisy//src/per/dac.h ****     enum class Channel
  33:../../libDaisy//src/per/dac.h ****     {
  34:../../libDaisy//src/per/dac.h ****         ONE,
  35:../../libDaisy//src/per/dac.h ****         TWO,
  36:../../libDaisy//src/per/dac.h ****         BOTH,
  37:../../libDaisy//src/per/dac.h ****     };
  38:../../libDaisy//src/per/dac.h **** 
  39:../../libDaisy//src/per/dac.h ****     /** Sets the Mode for the DAC channels.
  40:../../libDaisy//src/per/dac.h ****      **
  41:../../libDaisy//src/per/dac.h ****      ** Polling mode uses the blocking mode to transmit a single value at a time.
  42:../../libDaisy//src/per/dac.h ****      **
  43:../../libDaisy//src/per/dac.h ****      ** DMA mode uses a buffer, and periodically transmits it triggering a 
  44:../../libDaisy//src/per/dac.h ****      ** callback to fill the buffer when it is ready for more samples.
  45:../../libDaisy//src/per/dac.h ****      ***/
  46:../../libDaisy//src/per/dac.h ****     enum class Mode
  47:../../libDaisy//src/per/dac.h ****     {
  48:../../libDaisy//src/per/dac.h ****         POLLING,
  49:../../libDaisy//src/per/dac.h ****         DMA,
ARM GAS  /var/folders/hl/qgbwny5j0fd895c2c41bk3tw0000gp/T//ccBxTnvh.s 			page 77


  50:../../libDaisy//src/per/dac.h ****     };
  51:../../libDaisy//src/per/dac.h **** 
  52:../../libDaisy//src/per/dac.h ****     /** Sets the number of bits per sample transmitted out of the DAC.
  53:../../libDaisy//src/per/dac.h ****      ** The output range will be: 0V - VDDA
  54:../../libDaisy//src/per/dac.h ****      ** The resolution will be roughly: bitdepth / (VDDA - 0V) 
  55:../../libDaisy//src/per/dac.h ****      ***/
  56:../../libDaisy//src/per/dac.h ****     enum class BitDepth
  57:../../libDaisy//src/per/dac.h ****     {
  58:../../libDaisy//src/per/dac.h ****         BITS_8,
  59:../../libDaisy//src/per/dac.h ****         BITS_12
  60:../../libDaisy//src/per/dac.h ****     };
  61:../../libDaisy//src/per/dac.h **** 
  62:../../libDaisy//src/per/dac.h ****     /** Sets whether the DAC output is buffered for higher drive ability. */
  63:../../libDaisy//src/per/dac.h ****     enum class BufferState
  64:../../libDaisy//src/per/dac.h ****     {
  65:../../libDaisy//src/per/dac.h ****         ENABLED,
  66:../../libDaisy//src/per/dac.h ****         DISABLED,
  67:../../libDaisy//src/per/dac.h ****     };
  68:../../libDaisy//src/per/dac.h **** 
  69:../../libDaisy//src/per/dac.h ****     /** Configuration structure for initializing the DAC structure. */
  70:../../libDaisy//src/per/dac.h ****     struct Config
  71:../../libDaisy//src/per/dac.h ****     {
  72:../../libDaisy//src/per/dac.h ****         /** Target Samplerate in Hz used to configure the internal 
  73:../../libDaisy//src/per/dac.h ****          ** timebase for DMA mode. Does nothing in POLLING mode.
  74:../../libDaisy//src/per/dac.h ****          ** If the value is 0 at Init time this will default to 48000Hz 
  75:../../libDaisy//src/per/dac.h ****          ** otherwise the driver will attempt meet the target.*/
  76:../../libDaisy//src/per/dac.h ****         uint32_t target_samplerate;
  77:../../libDaisy//src/per/dac.h **** 
  78:../../libDaisy//src/per/dac.h ****         Channel     chn;
  79:../../libDaisy//src/per/dac.h ****         Mode        mode;
  80:../../libDaisy//src/per/dac.h ****         BitDepth    bitdepth;
  81:../../libDaisy//src/per/dac.h ****         BufferState buff_state;
  82:../../libDaisy//src/per/dac.h ****     };
  83:../../libDaisy//src/per/dac.h **** 
  84:../../libDaisy//src/per/dac.h ****     DacHandle() : pimpl_(nullptr) {}
 2271              		.loc 19 84 33 view .LVU538
 2272 00c4 8462     		str	r4, [r0, #40]
 2273              	.LBE1073:
 2274              	.LBE1072:
 2275              	.LBE1071:
 2276              	.LBB1074:
 2277              	.LBB1075:
 2278              	.LBB1076:
  95:../../libDaisy//src/hid/audio.h ****     ~AudioHandle() {}
 2279              		.loc 7 95 35 view .LVU539
 2280 00c6 C0E90344 		strd	r4, r4, [r0, #12]
 2281              	.LVL90:
  95:../../libDaisy//src/hid/audio.h ****     ~AudioHandle() {}
 2282              		.loc 7 95 35 view .LVU540
 2283              	.LBE1076:
 2284              	.LBE1075:
 2285              	.LBE1074:
 2286              	.LBB1077:
 2287              	.LBI1077:
  92:../../libDaisy//src/per/adc.h ****     ~AdcHandle() {}
 2288              		.loc 6 92 5 is_stmt 1 view .LVU541
  92:../../libDaisy//src/per/adc.h ****     ~AdcHandle() {}
ARM GAS  /var/folders/hl/qgbwny5j0fd895c2c41bk3tw0000gp/T//ccBxTnvh.s 			page 78


 2289              		.loc 6 92 5 is_stmt 0 view .LVU542
 2290              	.LBE1077:
 2291              	.LBB1078:
 2292              	.LBI1078:
  40:../../libDaisy//src/hid/usb.h **** 
 2293              		.loc 5 40 5 is_stmt 1 view .LVU543
  40:../../libDaisy//src/hid/usb.h **** 
 2294              		.loc 5 40 5 is_stmt 0 view .LVU544
 2295              	.LBE1078:
 2296              	.LBB1079:
 2297              	.LBI1064:
  28:../../libDaisy//src/dev/codec_pcm3060.h ****     ~Pcm3060() {}
 2298              		.loc 4 28 5 is_stmt 1 view .LVU545
 2299              	.LBB1070:
 2300              	.LBB1069:
 2301              	.LBI1066:
 2302              		.loc 18 82 5 view .LVU546
 2303              		.loc 18 82 5 is_stmt 0 view .LVU547
 2304              	.LBE1069:
 2305              	.LBE1070:
 2306              	.LBE1079:
 2307              	.LBB1080:
 2308              	.LBI1071:
 2309              		.loc 19 84 5 is_stmt 1 view .LVU548
 2310              		.loc 19 84 5 is_stmt 0 view .LVU549
 2311              	.LBE1080:
 2312              	.LBE1083:
 2313              	.LBE1085:
 2314              	.LBE1090:
 2315              	.LBE1093:
  64:../../libDaisy//src/daisy_patch_sm.h ****         ~DaisyPatchSM() {}
 2316              		.loc 2 64 24 is_stmt 1 view .LVU550
 2317              	.LBB1094:
 2318              	.LBB1091:
 2319              	.LBB1086:
 2320              	.LBB1084:
 2321              	.LBB1081:
 2322              	.LBI1081:
  20:../../libDaisy//src/hid/gatein.h ****     /** GateIn~
 2323              		.loc 3 20 5 view .LVU551
  20:../../libDaisy//src/hid/gatein.h ****     /** GateIn~
 2324              		.loc 3 20 5 is_stmt 0 view .LVU552
 2325              	.LBE1081:
 2326              	.LBB1082:
 2327              	.LBI1082:
  20:../../libDaisy//src/hid/gatein.h ****     /** GateIn~
 2328              		.loc 3 20 5 is_stmt 1 view .LVU553
  20:../../libDaisy//src/hid/gatein.h ****     /** GateIn~
 2329              		.loc 3 20 5 is_stmt 0 view .LVU554
 2330              	.LBE1082:
 2331              	.LBE1084:
 2332              	.LBE1086:
  11:Twines.cpp    **** Diffuser		diffuser;
 2333              		.loc 11 11 15 view .LVU555
 2334 00ca FFF7FEFF 		bl	__aeabi_atexit
 2335              	.LVL91:
 2336              	.LBB1087:
ARM GAS  /var/folders/hl/qgbwny5j0fd895c2c41bk3tw0000gp/T//ccBxTnvh.s 			page 79


 2337              	.LBI1087:
  26:diffuser.h    ****     ~Diffuser() {}
 2338              		.loc 9 26 5 is_stmt 1 view .LVU556
 2339              	.LBB1088:
 2340              	.LBB1089:
 2341              	.LBI1089:
 139:fx_engine.h   ****     ~FxEngine() {}
 2342              		.loc 10 139 5 view .LVU557
 139:fx_engine.h   ****     ~FxEngine() {}
 2343              		.loc 10 139 5 is_stmt 0 view .LVU558
 2344              	.LBE1089:
 2345              	.LBE1088:
 2346              	.LBE1087:
  12:Twines.cpp    **** 
 2347              		.loc 11 12 11 view .LVU559
 2348 00ce 1D4A     		ldr	r2, .L43+92
 2349 00d0 2349     		ldr	r1, .L43+120
 2350 00d2 2448     		ldr	r0, .L43+124
 2351 00d4 FFF7FEFF 		bl	__aeabi_atexit
 2352              	.LVL92:
  19:Twines.cpp    **** float DSY_SDRAM_BSS grainBuffer[kBufferSize * kGrainCount];
 2353              		.loc 11 19 44 is_stmt 1 view .LVU560
  19:Twines.cpp    **** float DSY_SDRAM_BSS grainBuffer[kBufferSize * kGrainCount];
 2354              		.loc 11 19 26 is_stmt 0 view .LVU561
 2355 00d8 2046     		mov	r0, r4
 2356 00da 1A4A     		ldr	r2, .L43+92
 2357 00dc 2249     		ldr	r1, .L43+128
 2358              	.LBE1091:
 2359              	.LBE1094:
 2360              		.loc 11 89 1 view .LVU562
 2361 00de BDE83840 		pop	{r3, r4, r5, lr}
 2362              		.cfi_restore 14
 2363              		.cfi_restore 5
 2364              		.cfi_restore 4
 2365              		.cfi_restore 3
 2366              		.cfi_def_cfa_offset 0
 2367              	.LBB1095:
 2368              	.LBB1092:
  19:Twines.cpp    **** float DSY_SDRAM_BSS grainBuffer[kBufferSize * kGrainCount];
 2369              		.loc 11 19 26 view .LVU563
 2370 00e2 FFF7FEBF 		b	__aeabi_atexit
 2371              	.LVL93:
 2372              	.L44:
 2373 00e6 00BF     		.align	2
 2374              	.L43:
 2375 00e8 00000000 		.word	.LANCHOR3
 2376 00ec 00000000 		.word	.LANCHOR1
 2377 00f0 00000000 		.word	.LANCHOR5
 2378 00f4 00000000 		.word	_ZN5daisy8patch_sm12DaisyPatchSM2D7E
 2379 00f8 00000000 		.word	.LANCHOR7
 2380 00fc 00000000 		.word	.LANCHOR11
 2381 0100 00000000 		.word	.LANCHOR9
 2382 0104 00000000 		.word	_ZN5daisy8patch_sm12DaisyPatchSM2A9E
 2383 0108 00000000 		.word	.LANCHOR17
 2384 010c 00000000 		.word	.LANCHOR16
 2385 0110 00000000 		.word	.LANCHOR2
 2386 0114 00000000 		.word	.LANCHOR18
ARM GAS  /var/folders/hl/qgbwny5j0fd895c2c41bk3tw0000gp/T//ccBxTnvh.s 			page 80


 2387 0118 00000000 		.word	.LANCHOR0
 2388 011c 00000000 		.word	.LANCHOR4
 2389 0120 00000000 		.word	_ZN5daisy8patch_sm12DaisyPatchSM2D2E
 2390 0124 00000000 		.word	_ZN5daisy8patch_sm12DaisyPatchSM2D1E
 2391 0128 00000000 		.word	_ZN5daisy8patch_sm12DaisyPatchSM2D3E
 2392 012c 00000000 		.word	.LANCHOR19
 2393 0130 00000000 		.word	_ZN5daisy8patch_sm12DaisyPatchSM2D6E
 2394 0134 00000000 		.word	.LANCHOR20
 2395 0138 00000000 		.word	.LANCHOR21
 2396 013c 00000000 		.word	_ZN5daisy6SwitchD1Ev
 2397 0140 00000000 		.word	.LANCHOR6
 2398 0144 00000000 		.word	__dso_handle
 2399 0148 00000000 		.word	.LANCHOR8
 2400 014c 00000000 		.word	.LANCHOR10
 2401 0150 00000000 		.word	.LANCHOR12
 2402 0154 00000000 		.word	.LANCHOR13
 2403 0158 00000000 		.word	.LANCHOR14
 2404 015c 00000000 		.word	_ZN5daisy8patch_sm12DaisyPatchSMD1Ev
 2405 0160 00000000 		.word	_ZN7daisysp8DiffuserD1Ev
 2406 0164 00000000 		.word	diffuser
 2407 0168 00000000 		.word	__tcf_0
 2408              	.LBE1092:
 2409              	.LBE1095:
 2410              		.cfi_endproc
 2411              	.LFE5422:
 2413              		.section	.init_array,"aw",%init_array
 2414              		.align	2
 2415 0000 00000000 		.word	_GLOBAL__sub_I__ZN5daisy8patch_sm8gen_led1E(target1)
 2416              		.global	grainBuffer
 2417              		.global	diffuser
 2418              		.global	hw
 2419              		.global	_ZN5daisy8patch_sm2b2E
 2420              		.global	_ZN5daisy8patch_sm2b1E
 2421              		.global	_ZN5daisy8patch_sm8newPinD6E
 2422              		.global	_ZN5daisy8patch_sm8oldPinD6E
 2423              		.global	_ZN5daisy8patch_sm8newPinD3E
 2424              		.global	_ZN5daisy8patch_sm8oldPinD3E
 2425              		.global	_ZN5daisy8patch_sm8newPinD1E
 2426              		.global	_ZN5daisy8patch_sm8oldPinD1E
 2427              		.global	_ZN5daisy8patch_sm8newPinD2E
 2428              		.global	_ZN5daisy8patch_sm8oldPinD2E
 2429              		.global	_ZN5daisy8patch_sm8newPinA9E
 2430              		.global	_ZN5daisy8patch_sm8oldPinA9E
 2431              		.global	_ZN5daisy8patch_sm8newPinD7E
 2432              		.global	_ZN5daisy8patch_sm8oldPinD7E
 2433              		.global	_ZN5daisy8patch_sm12gate_out_ledE
 2434              		.global	_ZN5daisy8patch_sm11gate_in_ledE
 2435              		.global	_ZN5daisy8patch_sm7cv_led2E
 2436              		.global	_ZN5daisy8patch_sm7cv_led1E
 2437              		.global	_ZN5daisy8patch_sm8gen_led2E
 2438              		.global	_ZN5daisy8patch_sm8gen_led1E
 2439              		.section	.bss._ZL6grains,"aw",%nobits
 2440              		.align	2
 2441              		.set	.LANCHOR15,. + 0
 2444              	_ZL6grains:
 2445 0000 00000000 		.space	940
 2445      00000000 
ARM GAS  /var/folders/hl/qgbwny5j0fd895c2c41bk3tw0000gp/T//ccBxTnvh.s 			page 81


 2445      00000000 
 2445      00000000 
 2445      00000000 
 2446              		.section	.bss._ZN5daisy8patch_sm11gate_in_ledE,"aw",%nobits
 2447              		.align	2
 2448              		.set	.LANCHOR9,. + 0
 2451              	_ZN5daisy8patch_sm11gate_in_ledE:
 2452 0000 00000000 		.space	20
 2452      00000000 
 2452      00000000 
 2452      00000000 
 2452      00000000 
 2453              		.section	.bss._ZN5daisy8patch_sm12gate_out_ledE,"aw",%nobits
 2454              		.align	2
 2455              		.set	.LANCHOR11,. + 0
 2458              	_ZN5daisy8patch_sm12gate_out_ledE:
 2459 0000 00000000 		.space	20
 2459      00000000 
 2459      00000000 
 2459      00000000 
 2459      00000000 
 2460              		.section	.bss._ZN5daisy8patch_sm2b1E,"aw",%nobits
 2461              		.align	2
 2462              		.set	.LANCHOR12,. + 0
 2465              	_ZN5daisy8patch_sm2b1E:
 2466 0000 00000000 		.space	16
 2466      00000000 
 2466      00000000 
 2466      00000000 
 2467              		.section	.bss._ZN5daisy8patch_sm2b2E,"aw",%nobits
 2468              		.align	2
 2469              		.set	.LANCHOR13,. + 0
 2472              	_ZN5daisy8patch_sm2b2E:
 2473 0000 00000000 		.space	16
 2473      00000000 
 2473      00000000 
 2473      00000000 
 2474              		.section	.bss._ZN5daisy8patch_sm7cv_led1E,"aw",%nobits
 2475              		.align	2
 2476              		.set	.LANCHOR5,. + 0
 2479              	_ZN5daisy8patch_sm7cv_led1E:
 2480 0000 00000000 		.space	20
 2480      00000000 
 2480      00000000 
 2480      00000000 
 2480      00000000 
 2481              		.section	.bss._ZN5daisy8patch_sm7cv_led2E,"aw",%nobits
 2482              		.align	2
 2483              		.set	.LANCHOR7,. + 0
 2486              	_ZN5daisy8patch_sm7cv_led2E:
 2487 0000 00000000 		.space	20
 2487      00000000 
 2487      00000000 
 2487      00000000 
 2487      00000000 
 2488              		.section	.bss._ZN5daisy8patch_sm8gen_led1E,"aw",%nobits
 2489              		.align	2
ARM GAS  /var/folders/hl/qgbwny5j0fd895c2c41bk3tw0000gp/T//ccBxTnvh.s 			page 82


 2490              		.set	.LANCHOR1,. + 0
 2493              	_ZN5daisy8patch_sm8gen_led1E:
 2494 0000 00000000 		.space	20
 2494      00000000 
 2494      00000000 
 2494      00000000 
 2494      00000000 
 2495              		.section	.bss._ZN5daisy8patch_sm8gen_led2E,"aw",%nobits
 2496              		.align	2
 2497              		.set	.LANCHOR3,. + 0
 2500              	_ZN5daisy8patch_sm8gen_led2E:
 2501 0000 00000000 		.space	20
 2501      00000000 
 2501      00000000 
 2501      00000000 
 2501      00000000 
 2502              		.section	.bss._ZN5daisy8patch_sm8newPinA9E,"aw",%nobits
 2503              		.align	2
 2504              		.set	.LANCHOR2,. + 0
 2507              	_ZN5daisy8patch_sm8newPinA9E:
 2508 0000 0000     		.space	2
 2509              		.section	.bss._ZN5daisy8patch_sm8newPinD1E,"aw",%nobits
 2510              		.align	2
 2511              		.set	.LANCHOR6,. + 0
 2514              	_ZN5daisy8patch_sm8newPinD1E:
 2515 0000 0000     		.space	2
 2516              		.section	.bss._ZN5daisy8patch_sm8newPinD2E,"aw",%nobits
 2517              		.align	2
 2518              		.set	.LANCHOR4,. + 0
 2521              	_ZN5daisy8patch_sm8newPinD2E:
 2522 0000 0000     		.space	2
 2523              		.section	.bss._ZN5daisy8patch_sm8newPinD3E,"aw",%nobits
 2524              		.align	2
 2525              		.set	.LANCHOR8,. + 0
 2528              	_ZN5daisy8patch_sm8newPinD3E:
 2529 0000 0000     		.space	2
 2530              		.section	.bss._ZN5daisy8patch_sm8newPinD6E,"aw",%nobits
 2531              		.align	2
 2532              		.set	.LANCHOR10,. + 0
 2535              	_ZN5daisy8patch_sm8newPinD6E:
 2536 0000 0000     		.space	2
 2537              		.section	.bss._ZN5daisy8patch_sm8newPinD7E,"aw",%nobits
 2538              		.align	2
 2539              		.set	.LANCHOR0,. + 0
 2542              	_ZN5daisy8patch_sm8newPinD7E:
 2543 0000 0000     		.space	2
 2544              		.section	.bss._ZN5daisy8patch_sm8oldPinA9E,"aw",%nobits
 2545              		.align	2
 2546              		.set	.LANCHOR17,. + 0
 2549              	_ZN5daisy8patch_sm8oldPinA9E:
 2550 0000 0000     		.space	2
 2551              		.section	.bss._ZN5daisy8patch_sm8oldPinD1E,"aw",%nobits
 2552              		.align	2
 2553              		.set	.LANCHOR19,. + 0
 2556              	_ZN5daisy8patch_sm8oldPinD1E:
 2557 0000 0000     		.space	2
 2558              		.section	.bss._ZN5daisy8patch_sm8oldPinD2E,"aw",%nobits
ARM GAS  /var/folders/hl/qgbwny5j0fd895c2c41bk3tw0000gp/T//ccBxTnvh.s 			page 83


 2559              		.align	2
 2560              		.set	.LANCHOR18,. + 0
 2563              	_ZN5daisy8patch_sm8oldPinD2E:
 2564 0000 0000     		.space	2
 2565              		.section	.bss._ZN5daisy8patch_sm8oldPinD3E,"aw",%nobits
 2566              		.align	2
 2567              		.set	.LANCHOR20,. + 0
 2570              	_ZN5daisy8patch_sm8oldPinD3E:
 2571 0000 0000     		.space	2
 2572              		.section	.bss._ZN5daisy8patch_sm8oldPinD6E,"aw",%nobits
 2573              		.align	2
 2574              		.set	.LANCHOR21,. + 0
 2577              	_ZN5daisy8patch_sm8oldPinD6E:
 2578 0000 0000     		.space	2
 2579              		.section	.bss._ZN5daisy8patch_sm8oldPinD7E,"aw",%nobits
 2580              		.align	2
 2581              		.set	.LANCHOR16,. + 0
 2584              	_ZN5daisy8patch_sm8oldPinD7E:
 2585 0000 0000     		.space	2
 2586              		.section	.bss.diffuser,"aw",%nobits
 2587              		.align	2
 2590              	diffuser:
 2591 0000 00000000 		.space	16420
 2591      00000000 
 2591      00000000 
 2591      00000000 
 2591      00000000 
 2592              		.section	.bss.hw,"aw",%nobits
 2593              		.align	2
 2594              		.set	.LANCHOR14,. + 0
 2597              	hw:
 2598 0000 00000000 		.space	464
 2598      00000000 
 2598      00000000 
 2598      00000000 
 2598      00000000 
 2599              		.section	.sdram_bss,"aw"
 2600              		.align	2
 2603              	grainBuffer:
 2604 0000 00000000 		.space	9600000
 2604      00000000 
 2604      00000000 
 2604      00000000 
 2604      00000000 
 2605              		.text
 2606              	.Letext0:
 2607              		.file 20 "/opt/homebrew/Cellar/arm-none-eabi-gcc/10.3-2021.07/gcc/arm-none-eabi/include/machine/_d
 2608              		.file 21 "/opt/homebrew/Cellar/arm-none-eabi-gcc/10.3-2021.07/gcc/arm-none-eabi/include/sys/_stdin
 2609              		.file 22 "/opt/homebrew/Cellar/arm-none-eabi-gcc/10.3-2021.07/gcc/arm-none-eabi/include/stdint.h"
 2610              		.file 23 "/opt/homebrew/Cellar/arm-none-eabi-gcc/10.3-2021.07/gcc/lib/gcc/arm-none-eabi/10.3.1/inc
 2611              		.file 24 "/opt/homebrew/Cellar/arm-none-eabi-gcc/10.3-2021.07/gcc/arm-none-eabi/include/c++/10.3.1
 2612              		.file 25 "/opt/homebrew/Cellar/arm-none-eabi-gcc/10.3-2021.07/gcc/arm-none-eabi/include/c++/10.3.1
 2613              		.file 26 "/opt/homebrew/Cellar/arm-none-eabi-gcc/10.3-2021.07/gcc/arm-none-eabi/include/c++/10.3.1
 2614              		.file 27 "/opt/homebrew/Cellar/arm-none-eabi-gcc/10.3-2021.07/gcc/arm-none-eabi/include/c++/10.3.1
 2615              		.file 28 "/opt/homebrew/Cellar/arm-none-eabi-gcc/10.3-2021.07/gcc/arm-none-eabi/include/c++/10.3.1
 2616              		.file 29 "/opt/homebrew/Cellar/arm-none-eabi-gcc/10.3-2021.07/gcc/arm-none-eabi/include/c++/10.3.1
 2617              		.file 30 "/opt/homebrew/Cellar/arm-none-eabi-gcc/10.3-2021.07/gcc/arm-none-eabi/include/c++/10.3.1
ARM GAS  /var/folders/hl/qgbwny5j0fd895c2c41bk3tw0000gp/T//ccBxTnvh.s 			page 84


 2618              		.file 31 "/opt/homebrew/Cellar/arm-none-eabi-gcc/10.3-2021.07/gcc/arm-none-eabi/include/c++/10.3.1
 2619              		.file 32 "/opt/homebrew/Cellar/arm-none-eabi-gcc/10.3-2021.07/gcc/arm-none-eabi/include/c++/10.3.1
 2620              		.file 33 "/opt/homebrew/Cellar/arm-none-eabi-gcc/10.3-2021.07/gcc/arm-none-eabi/include/c++/10.3.1
 2621              		.file 34 "/opt/homebrew/Cellar/arm-none-eabi-gcc/10.3-2021.07/gcc/arm-none-eabi/include/c++/10.3.1
 2622              		.file 35 "/opt/homebrew/Cellar/arm-none-eabi-gcc/10.3-2021.07/gcc/arm-none-eabi/include/c++/10.3.1
 2623              		.file 36 "/opt/homebrew/Cellar/arm-none-eabi-gcc/10.3-2021.07/gcc/arm-none-eabi/include/c++/10.3.1
 2624              		.file 37 "/opt/homebrew/Cellar/arm-none-eabi-gcc/10.3-2021.07/gcc/arm-none-eabi/include/c++/10.3.1
 2625              		.file 38 "/opt/homebrew/Cellar/arm-none-eabi-gcc/10.3-2021.07/gcc/arm-none-eabi/include/c++/10.3.1
 2626              		.file 39 "/opt/homebrew/Cellar/arm-none-eabi-gcc/10.3-2021.07/gcc/arm-none-eabi/include/c++/10.3.1
 2627              		.file 40 "/opt/homebrew/Cellar/arm-none-eabi-gcc/10.3-2021.07/gcc/arm-none-eabi/include/c++/10.3.1
 2628              		.file 41 "/opt/homebrew/Cellar/arm-none-eabi-gcc/10.3-2021.07/gcc/arm-none-eabi/include/c++/10.3.1
 2629              		.file 42 "/opt/homebrew/Cellar/arm-none-eabi-gcc/10.3-2021.07/gcc/arm-none-eabi/include/sys/_types
 2630              		.file 43 "/opt/homebrew/Cellar/arm-none-eabi-gcc/10.3-2021.07/gcc/arm-none-eabi/include/sys/reent.
 2631              		.file 44 "/opt/homebrew/Cellar/arm-none-eabi-gcc/10.3-2021.07/gcc/arm-none-eabi/include/sys/lock.h
 2632              		.file 45 "/opt/homebrew/Cellar/arm-none-eabi-gcc/10.3-2021.07/gcc/arm-none-eabi/include/math.h"
 2633              		.file 46 "/opt/homebrew/Cellar/arm-none-eabi-gcc/10.3-2021.07/gcc/arm-none-eabi/include/stdlib.h"
 2634              		.file 47 "/opt/homebrew/Cellar/arm-none-eabi-gcc/10.3-2021.07/gcc/arm-none-eabi/include/c++/10.3.1
 2635              		.file 48 "/opt/homebrew/Cellar/arm-none-eabi-gcc/10.3-2021.07/gcc/arm-none-eabi/include/c++/10.3.1
 2636              		.file 49 "../../libDaisy//src/per/tim.h"
 2637              		.file 50 "../../libDaisy//src/per/sai.h"
 2638              		.file 51 "../../libDaisy//src/hid/ctrl.h"
 2639              		.file 52 "../../libDaisy//src/util/wav_format.h"
 2640              		.file 53 "../../libDaisy//src/dev/max11300.h"
 2641              		.file 54 "../../libDaisy//src/dev/sdram.h"
 2642              		.file 55 "/opt/homebrew/Cellar/arm-none-eabi-gcc/10.3-2021.07/gcc/lib/gcc/arm-none-eabi/10.3.1/inc
 2643              		.file 56 "/opt/homebrew/Cellar/arm-none-eabi-gcc/10.3-2021.07/gcc/arm-none-eabi/include/stdio.h"
 2644              		.file 57 "/opt/homebrew/Cellar/arm-none-eabi-gcc/10.3-2021.07/gcc/arm-none-eabi/include/string.h"
 2645              		.file 58 "../../DaisySP//Source/Control/adenv.h"
 2646              		.file 59 "../../DaisySP//Source/Filters/svf.h"
 2647              		.file 60 "/opt/homebrew/Cellar/arm-none-eabi-gcc/10.3-2021.07/gcc/arm-none-eabi/include/wchar.h"
 2648              		.file 61 "/opt/homebrew/Cellar/arm-none-eabi-gcc/10.3-2021.07/gcc/arm-none-eabi/include/locale.h"
 2649              		.file 62 "../../libDaisy//src/dev/sr_595.h"
 2650              		.file 63 "<built-in>"
ARM GAS  /var/folders/hl/qgbwny5j0fd895c2c41bk3tw0000gp/T//ccBxTnvh.s 			page 85

