ARM GAS  /var/folders/hl/qgbwny5j0fd895c2c41bk3tw0000gp/T//cc6AdWFS.s 			page 1


   1              		.cpu cortex-m7
   2              		.eabi_attribute 28, 1
   3              		.eabi_attribute 20, 1
   4              		.eabi_attribute 21, 1
   5              		.eabi_attribute 23, 3
   6              		.eabi_attribute 24, 1
   7              		.eabi_attribute 25, 1
   8              		.eabi_attribute 26, 1
   9              		.eabi_attribute 30, 4
  10              		.eabi_attribute 34, 1
  11              		.eabi_attribute 18, 4
  12              		.file	"string.cpp"
  13              		.text
  14              	.Ltext0:
  15              		.cfi_sections	.debug_frame
  16              		.section	.text._ZN6stmlib11InterpolateEPKfff,"axG",%progbits,_ZN6stmlib11InterpolateEPKfff,comdat
  17              		.align	1
  18              		.weak	_ZN6stmlib11InterpolateEPKfff
  19              		.arch armv7e-m
  20              		.syntax unified
  21              		.thumb
  22              		.thumb_func
  23              		.fpu fpv5-d16
  25              	_ZN6stmlib11InterpolateEPKfff:
  26              	.LVL0:
  27              	.LFB1384:
  28              		.file 1 "../../stmlib/dsp/dsp.h"
   1:../../stmlib/dsp/dsp.h **** // Copyright 2012 Emilie Gillet.
   2:../../stmlib/dsp/dsp.h **** //
   3:../../stmlib/dsp/dsp.h **** // Author: Emilie Gillet (emilie.o.gillet@gmail.com)
   4:../../stmlib/dsp/dsp.h **** //
   5:../../stmlib/dsp/dsp.h **** // Permission is hereby granted, free of charge, to any person obtaining a copy
   6:../../stmlib/dsp/dsp.h **** // of this software and associated documentation files (the "Software"), to deal
   7:../../stmlib/dsp/dsp.h **** // in the Software without restriction, including without limitation the rights
   8:../../stmlib/dsp/dsp.h **** // to use, copy, modify, merge, publish, distribute, sublicense, and/or sell
   9:../../stmlib/dsp/dsp.h **** // copies of the Software, and to permit persons to whom the Software is
  10:../../stmlib/dsp/dsp.h **** // furnished to do so, subject to the following conditions:
  11:../../stmlib/dsp/dsp.h **** // 
  12:../../stmlib/dsp/dsp.h **** // The above copyright notice and this permission notice shall be included in
  13:../../stmlib/dsp/dsp.h **** // all copies or substantial portions of the Software.
  14:../../stmlib/dsp/dsp.h **** // 
  15:../../stmlib/dsp/dsp.h **** // THE SOFTWARE IS PROVIDED "AS IS", WITHOUT WARRANTY OF ANY KIND, EXPRESS OR
  16:../../stmlib/dsp/dsp.h **** // IMPLIED, INCLUDING BUT NOT LIMITED TO THE WARRANTIES OF MERCHANTABILITY,
  17:../../stmlib/dsp/dsp.h **** // FITNESS FOR A PARTICULAR PURPOSE AND NONINFRINGEMENT. IN NO EVENT SHALL THE
  18:../../stmlib/dsp/dsp.h **** // AUTHORS OR COPYRIGHT HOLDERS BE LIABLE FOR ANY CLAIM, DAMAGES OR OTHER
  19:../../stmlib/dsp/dsp.h **** // LIABILITY, WHETHER IN AN ACTION OF CONTRACT, TORT OR OTHERWISE, ARISING FROM,
  20:../../stmlib/dsp/dsp.h **** // OUT OF OR IN CONNECTION WITH THE SOFTWARE OR THE USE OR OTHER DEALINGS IN
  21:../../stmlib/dsp/dsp.h **** // THE SOFTWARE.
  22:../../stmlib/dsp/dsp.h **** // 
  23:../../stmlib/dsp/dsp.h **** // See http://creativecommons.org/licenses/MIT/ for more information.
  24:../../stmlib/dsp/dsp.h **** //
  25:../../stmlib/dsp/dsp.h **** // -----------------------------------------------------------------------------
  26:../../stmlib/dsp/dsp.h **** //
  27:../../stmlib/dsp/dsp.h **** // DSP utility routines.
  28:../../stmlib/dsp/dsp.h **** 
  29:../../stmlib/dsp/dsp.h **** #ifndef STMLIB_UTILS_DSP_DSP_H_
  30:../../stmlib/dsp/dsp.h **** #define STMLIB_UTILS_DSP_DSP_H_
ARM GAS  /var/folders/hl/qgbwny5j0fd895c2c41bk3tw0000gp/T//cc6AdWFS.s 			page 2


  31:../../stmlib/dsp/dsp.h **** 
  32:../../stmlib/dsp/dsp.h **** #include "stmlib/stmlib.h"
  33:../../stmlib/dsp/dsp.h **** 
  34:../../stmlib/dsp/dsp.h **** #include <cmath>
  35:../../stmlib/dsp/dsp.h **** #include <math.h>
  36:../../stmlib/dsp/dsp.h **** 
  37:../../stmlib/dsp/dsp.h **** namespace stmlib {
  38:../../stmlib/dsp/dsp.h **** 
  39:../../stmlib/dsp/dsp.h **** #define MAKE_INTEGRAL_FRACTIONAL(x) \
  40:../../stmlib/dsp/dsp.h ****   int32_t x ## _integral = static_cast<int32_t>(x); \
  41:../../stmlib/dsp/dsp.h ****   float x ## _fractional = x - static_cast<float>(x ## _integral);
  42:../../stmlib/dsp/dsp.h **** 
  43:../../stmlib/dsp/dsp.h **** inline float Interpolate(const float* table, float index, float size) {
  29              		.loc 1 43 71 view -0
  30              		.cfi_startproc
  31              		@ args = 0, pretend = 0, frame = 0
  32              		@ frame_needed = 0, uses_anonymous_args = 0
  33              		@ link register save eliminated.
  44:../../stmlib/dsp/dsp.h ****   index *= size;
  34              		.loc 1 44 3 view .LVU1
  35              		.loc 1 44 9 is_stmt 0 view .LVU2
  36 0000 60EE200A 		vmul.f32	s1, s0, s1
  37              	.LVL1:
  45:../../stmlib/dsp/dsp.h ****   MAKE_INTEGRAL_FRACTIONAL(index)
  38              		.loc 1 45 3 is_stmt 1 view .LVU3
  39 0004 FDEEE07A 		vcvt.s32.f32	s15, s1
  40              	.LVL2:
  41              		.loc 1 45 3 view .LVU4
  46:../../stmlib/dsp/dsp.h ****   float a = table[index_integral];
  42              		.loc 1 46 3 view .LVU5
  43              		.loc 1 46 9 is_stmt 0 view .LVU6
  44 0008 17EE903A 		vmov	r3, s15	@ int
  45:../../stmlib/dsp/dsp.h ****   MAKE_INTEGRAL_FRACTIONAL(index)
  45              		.loc 1 45 3 view .LVU7
  46 000c F8EEE77A 		vcvt.f32.s32	s15, s15
  47              	.LVL3:
  48              		.loc 1 46 9 view .LVU8
  49 0010 00EB8300 		add	r0, r0, r3, lsl #2
  50              	.LVL4:
  45:../../stmlib/dsp/dsp.h ****   MAKE_INTEGRAL_FRACTIONAL(index)
  51              		.loc 1 45 3 view .LVU9
  52 0014 70EEE70A 		vsub.f32	s1, s1, s15
  53              	.LVL5:
  54              		.loc 1 46 9 view .LVU10
  55 0018 90ED000A 		vldr.32	s0, [r0]
  56              	.LVL6:
  47:../../stmlib/dsp/dsp.h ****   float b = table[index_integral + 1];
  57              		.loc 1 47 3 is_stmt 1 view .LVU11
  48:../../stmlib/dsp/dsp.h ****   return a + (b - a) * index_fractional;
  58              		.loc 1 48 3 view .LVU12
  59              		.loc 1 48 17 is_stmt 0 view .LVU13
  60 001c 90ED017A 		vldr.32	s14, [r0, #4]
  61 0020 37EE407A 		vsub.f32	s14, s14, s0
  49:../../stmlib/dsp/dsp.h **** }
  62              		.loc 1 49 1 view .LVU14
  63 0024 A7EE200A 		vfma.f32	s0, s14, s1
  64              	.LVL7:
ARM GAS  /var/folders/hl/qgbwny5j0fd895c2c41bk3tw0000gp/T//cc6AdWFS.s 			page 3


  65              		.loc 1 49 1 view .LVU15
  66 0028 7047     		bx	lr
  67              		.cfi_endproc
  68              	.LFE1384:
  70              		.section	.text._ZN5torus13DampingFilter7ProcessEf,"axG",%progbits,_ZN5torus13DampingFilter7Process
  71              		.align	1
  72              		.weak	_ZN5torus13DampingFilter7ProcessEf
  73              		.syntax unified
  74              		.thumb
  75              		.thumb_func
  76              		.fpu fpv5-d16
  78              	_ZN5torus13DampingFilter7ProcessEf:
  79              	.LVL8:
  80              	.LFB1496:
  81              		.file 2 "./dsp/string.h"
   1:./dsp/string.h **** // Copyright 2015 Emilie Gillet.
   2:./dsp/string.h **** //
   3:./dsp/string.h **** // Author: Emilie Gillet (emilie.o.gillet@gmail.com)
   4:./dsp/string.h **** //
   5:./dsp/string.h **** // Permission is hereby granted, free of charge, to any person obtaining a copy
   6:./dsp/string.h **** // of this software and associated documentation files (the "Software"), to deal
   7:./dsp/string.h **** // in the Software without restriction, including without limitation the rights
   8:./dsp/string.h **** // to use, copy, modify, merge, publish, distribute, sublicense, and/or sell
   9:./dsp/string.h **** // copies of the Software, and to permit persons to whom the Software is
  10:./dsp/string.h **** // furnished to do so, subject to the following conditions:
  11:./dsp/string.h **** //
  12:./dsp/string.h **** // The above copyright notice and this permission notice shall be included in
  13:./dsp/string.h **** // all copies or substantial portions of the Software.
  14:./dsp/string.h **** //
  15:./dsp/string.h **** // THE SOFTWARE IS PROVIDED "AS IS", WITHOUT WARRANTY OF ANY KIND, EXPRESS OR
  16:./dsp/string.h **** // IMPLIED, INCLUDING BUT NOT LIMITED TO THE WARRANTIES OF MERCHANTABILITY,
  17:./dsp/string.h **** // FITNESS FOR A PARTICULAR PURPOSE AND NONINFRINGEMENT. IN NO EVENT SHALL THE
  18:./dsp/string.h **** // AUTHORS OR COPYRIGHT HOLDERS BE LIABLE FOR ANY CLAIM, DAMAGES OR OTHER
  19:./dsp/string.h **** // LIABILITY, WHETHER IN AN ACTION OF CONTRACT, TORT OR OTHERWISE, ARISING FROM,
  20:./dsp/string.h **** // OUT OF OR IN CONNECTION WITH THE SOFTWARE OR THE USE OR OTHER DEALINGS IN
  21:./dsp/string.h **** // THE SOFTWARE.
  22:./dsp/string.h **** //
  23:./dsp/string.h **** // See http://creativecommons.org/licenses/MIT/ for more information.
  24:./dsp/string.h **** //
  25:./dsp/string.h **** // -----------------------------------------------------------------------------
  26:./dsp/string.h **** //
  27:./dsp/string.h **** // Comb filter / KS string.
  28:./dsp/string.h **** 
  29:./dsp/string.h **** #ifndef TORUS_DSP_STRING_H_
  30:./dsp/string.h **** #define TORUS_DSP_STRING_H_
  31:./dsp/string.h **** 
  32:./dsp/string.h **** #include "stmlib/stmlib.h"
  33:./dsp/string.h **** 
  34:./dsp/string.h **** #include <algorithm>
  35:./dsp/string.h **** 
  36:./dsp/string.h **** #include "stmlib/dsp/delay_line.h"
  37:./dsp/string.h **** #include "stmlib/dsp/filter.h"
  38:./dsp/string.h **** 
  39:./dsp/string.h **** #include "dsp/dsp.h"
  40:./dsp/string.h **** 
  41:./dsp/string.h **** namespace torus
  42:./dsp/string.h **** {
ARM GAS  /var/folders/hl/qgbwny5j0fd895c2c41bk3tw0000gp/T//cc6AdWFS.s 			page 4


  43:./dsp/string.h **** const size_t kDelayLineSize = 2048;
  44:./dsp/string.h **** 
  45:./dsp/string.h **** class DampingFilter
  46:./dsp/string.h **** {
  47:./dsp/string.h ****   public:
  48:./dsp/string.h ****     DampingFilter() {}
  49:./dsp/string.h ****     ~DampingFilter() {}
  50:./dsp/string.h **** 
  51:./dsp/string.h ****     void Init()
  52:./dsp/string.h ****     {
  53:./dsp/string.h ****         x_                    = 0.0f;
  54:./dsp/string.h ****         x__                   = 0.0f;
  55:./dsp/string.h ****         brightness_           = 0.0f;
  56:./dsp/string.h ****         brightness_increment_ = 0.0f;
  57:./dsp/string.h ****         damping_              = 0.0f;
  58:./dsp/string.h ****         damping_increment_    = 0.0f;
  59:./dsp/string.h ****     }
  60:./dsp/string.h **** 
  61:./dsp/string.h ****     inline void Configure(float damping, float brightness, size_t size)
  62:./dsp/string.h ****     {
  63:./dsp/string.h ****         if(!size)
  64:./dsp/string.h ****         {
  65:./dsp/string.h ****             damping_              = damping;
  66:./dsp/string.h ****             brightness_           = brightness;
  67:./dsp/string.h ****             damping_increment_    = 0.0f;
  68:./dsp/string.h ****             brightness_increment_ = 0.0f;
  69:./dsp/string.h ****         }
  70:./dsp/string.h ****         else
  71:./dsp/string.h ****         {
  72:./dsp/string.h ****             float step            = 1.0f / static_cast<float>(size);
  73:./dsp/string.h ****             damping_increment_    = (damping - damping_) * step;
  74:./dsp/string.h ****             brightness_increment_ = (brightness - brightness_) * step;
  75:./dsp/string.h ****         }
  76:./dsp/string.h ****     }
  77:./dsp/string.h **** 
  78:./dsp/string.h ****     inline float Process(float x)
  82              		.loc 2 78 18 is_stmt 1 view -0
  83              		.cfi_startproc
  84              		@ args = 0, pretend = 0, frame = 0
  85              		@ frame_needed = 0, uses_anonymous_args = 0
  86              		@ link register save eliminated.
  79:./dsp/string.h ****     {
  80:./dsp/string.h ****         float h0 = (1.0f + brightness_) * 0.5f;
  87              		.loc 2 80 9 view .LVU17
  88              		.loc 2 80 26 is_stmt 0 view .LVU18
  89 0000 B7EE007A 		vmov.f32	s14, #1.0e+0
  90              		.loc 2 80 28 view .LVU19
  91 0004 D0ED026A 		vldr.32	s13, [r0, #8]
  92              	.LVL9:
  81:./dsp/string.h ****         float h1 = (1.0f - brightness_) * 0.25f;
  93              		.loc 2 81 9 is_stmt 1 view .LVU20
  82:./dsp/string.h ****         float y  = damping_ * (h0 * x_ + h1 * (x + x__));
  94              		.loc 2 82 9 view .LVU21
  80:./dsp/string.h ****         float h1 = (1.0f - brightness_) * 0.25f;
  95              		.loc 2 80 15 is_stmt 0 view .LVU22
  96 0008 F6EE007A 		vmov.f32	s15, #5.0e-1
  97              		.loc 2 82 37 view .LVU23
ARM GAS  /var/folders/hl/qgbwny5j0fd895c2c41bk3tw0000gp/T//cc6AdWFS.s 			page 5


  98 000c 90ED005A 		vldr.32	s10, [r0]
  81:./dsp/string.h ****         float h1 = (1.0f - brightness_) * 0.25f;
  99              		.loc 2 81 15 view .LVU24
 100 0010 F5EE004A 		vmov.f32	s9, #2.5e-1
 101              		.loc 2 82 20 view .LVU25
 102 0014 D0ED045A 		vldr.32	s11, [r0, #16]
  80:./dsp/string.h ****         float h1 = (1.0f - brightness_) * 0.25f;
 103              		.loc 2 80 26 view .LVU26
 104 0018 36EE876A 		vadd.f32	s12, s13, s14
  83:./dsp/string.h ****         x__      = x_;
  84:./dsp/string.h ****         x_       = x;
 105              		.loc 2 84 18 view .LVU27
 106 001c 80ED000A 		vstr.32	s0, [r0]
  81:./dsp/string.h ****         float y  = damping_ * (h0 * x_ + h1 * (x + x__));
 107              		.loc 2 81 26 view .LVU28
 108 0020 37EE667A 		vsub.f32	s14, s14, s13
  80:./dsp/string.h ****         float h1 = (1.0f - brightness_) * 0.25f;
 109              		.loc 2 80 15 view .LVU29
 110 0024 26EE276A 		vmul.f32	s12, s12, s15
 111              	.LVL10:
  82:./dsp/string.h ****         x__      = x_;
 112              		.loc 2 82 50 view .LVU30
 113 0028 D0ED017A 		vldr.32	s15, [r0, #4]
  81:./dsp/string.h ****         float y  = damping_ * (h0 * x_ + h1 * (x + x__));
 114              		.loc 2 81 15 view .LVU31
 115 002c 27EE247A 		vmul.f32	s14, s14, s9
 116              	.LVL11:
  83:./dsp/string.h ****         x__      = x_;
 117              		.loc 2 83 18 view .LVU32
 118 0030 80ED015A 		vstr.32	s10, [r0, #4]
  82:./dsp/string.h ****         x__      = x_;
 119              		.loc 2 82 50 view .LVU33
 120 0034 70EE277A 		vadd.f32	s15, s0, s15
  82:./dsp/string.h ****         x__      = x_;
 121              		.loc 2 82 45 view .LVU34
 122 0038 67EE877A 		vmul.f32	s15, s15, s14
  85:./dsp/string.h ****         brightness_ += brightness_increment_;
 123              		.loc 2 85 21 view .LVU35
 124 003c 90ED037A 		vldr.32	s14, [r0, #12]
 125              	.LVL12:
 126              		.loc 2 85 21 view .LVU36
 127 0040 37EE267A 		vadd.f32	s14, s14, s13
  82:./dsp/string.h ****         x__      = x_;
 128              		.loc 2 82 40 view .LVU37
 129 0044 E5EE067A 		vfma.f32	s15, s10, s12
 130              	.LVL13:
  83:./dsp/string.h ****         x_       = x;
 131              		.loc 2 83 9 is_stmt 1 view .LVU38
  84:./dsp/string.h ****         brightness_ += brightness_increment_;
 132              		.loc 2 84 9 view .LVU39
 133              		.loc 2 85 9 view .LVU40
 134              		.loc 2 85 21 is_stmt 0 view .LVU41
 135 0048 80ED027A 		vstr.32	s14, [r0, #8]
  86:./dsp/string.h ****         damping_ += damping_increment_;
 136              		.loc 2 86 9 is_stmt 1 view .LVU42
 137              		.loc 2 86 18 is_stmt 0 view .LVU43
 138 004c 90ED057A 		vldr.32	s14, [r0, #20]
ARM GAS  /var/folders/hl/qgbwny5j0fd895c2c41bk3tw0000gp/T//cc6AdWFS.s 			page 6


 139 0050 37EE257A 		vadd.f32	s14, s14, s11
  87:./dsp/string.h ****         return y;
  88:./dsp/string.h ****     }
 140              		.loc 2 88 5 view .LVU44
 141 0054 25EEA70A 		vmul.f32	s0, s11, s15
 142              	.LVL14:
  86:./dsp/string.h ****         damping_ += damping_increment_;
 143              		.loc 2 86 18 view .LVU45
 144 0058 80ED047A 		vstr.32	s14, [r0, #16]
  87:./dsp/string.h ****         return y;
 145              		.loc 2 87 9 is_stmt 1 view .LVU46
 146              		.loc 2 88 5 is_stmt 0 view .LVU47
 147 005c 7047     		bx	lr
 148              		.cfi_endproc
 149              	.LFE1496:
 151              		.section	.text._ZN6stmlib16SemitonesToRatioEf,"axG",%progbits,_ZN6stmlib16SemitonesToRatioEf,comda
 152              		.align	1
 153              		.weak	_ZN6stmlib16SemitonesToRatioEf
 154              		.syntax unified
 155              		.thumb
 156              		.thumb_func
 157              		.fpu fpv5-d16
 159              	_ZN6stmlib16SemitonesToRatioEf:
 160              	.LVL15:
 161              	.LFB1525:
 162              		.file 3 "../../stmlib/dsp/units.h"
   1:../../stmlib/dsp/units.h **** // Copyright 2014 Emilie Gillet.
   2:../../stmlib/dsp/units.h **** //
   3:../../stmlib/dsp/units.h **** // Author: Emilie Gillet (emilie.o.gillet@gmail.com)
   4:../../stmlib/dsp/units.h **** //
   5:../../stmlib/dsp/units.h **** // Permission is hereby granted, free of charge, to any person obtaining a copy
   6:../../stmlib/dsp/units.h **** // of this software and associated documentation files (the "Software"), to deal
   7:../../stmlib/dsp/units.h **** // in the Software without restriction, including without limitation the rights
   8:../../stmlib/dsp/units.h **** // to use, copy, modify, merge, publish, distribute, sublicense, and/or sell
   9:../../stmlib/dsp/units.h **** // copies of the Software, and to permit persons to whom the Software is
  10:../../stmlib/dsp/units.h **** // furnished to do so, subject to the following conditions:
  11:../../stmlib/dsp/units.h **** // 
  12:../../stmlib/dsp/units.h **** // The above copyright notice and this permission notice shall be included in
  13:../../stmlib/dsp/units.h **** // all copies or substantial portions of the Software.
  14:../../stmlib/dsp/units.h **** // 
  15:../../stmlib/dsp/units.h **** // THE SOFTWARE IS PROVIDED "AS IS", WITHOUT WARRANTY OF ANY KIND, EXPRESS OR
  16:../../stmlib/dsp/units.h **** // IMPLIED, INCLUDING BUT NOT LIMITED TO THE WARRANTIES OF MERCHANTABILITY,
  17:../../stmlib/dsp/units.h **** // FITNESS FOR A PARTICULAR PURPOSE AND NONINFRINGEMENT. IN NO EVENT SHALL THE
  18:../../stmlib/dsp/units.h **** // AUTHORS OR COPYRIGHT HOLDERS BE LIABLE FOR ANY CLAIM, DAMAGES OR OTHER
  19:../../stmlib/dsp/units.h **** // LIABILITY, WHETHER IN AN ACTION OF CONTRACT, TORT OR OTHERWISE, ARISING FROM,
  20:../../stmlib/dsp/units.h **** // OUT OF OR IN CONNECTION WITH THE SOFTWARE OR THE USE OR OTHER DEALINGS IN
  21:../../stmlib/dsp/units.h **** // THE SOFTWARE.
  22:../../stmlib/dsp/units.h **** // 
  23:../../stmlib/dsp/units.h **** // See http://creativecommons.org/licenses/MIT/ for more information.
  24:../../stmlib/dsp/units.h **** //
  25:../../stmlib/dsp/units.h **** // -----------------------------------------------------------------------------
  26:../../stmlib/dsp/units.h **** //
  27:../../stmlib/dsp/units.h **** // Conversion from semitones to frequency ratio.
  28:../../stmlib/dsp/units.h **** 
  29:../../stmlib/dsp/units.h **** #ifndef STMLIB_DSP_UNITS_H_
  30:../../stmlib/dsp/units.h **** #define STMLIB_DSP_UNITS_H_
  31:../../stmlib/dsp/units.h **** 
ARM GAS  /var/folders/hl/qgbwny5j0fd895c2c41bk3tw0000gp/T//cc6AdWFS.s 			page 7


  32:../../stmlib/dsp/units.h **** #include "stmlib/stmlib.h"
  33:../../stmlib/dsp/units.h **** #include "stmlib/dsp/dsp.h"
  34:../../stmlib/dsp/units.h **** 
  35:../../stmlib/dsp/units.h **** namespace stmlib {
  36:../../stmlib/dsp/units.h **** 
  37:../../stmlib/dsp/units.h **** extern const float lut_pitch_ratio_high[257];
  38:../../stmlib/dsp/units.h **** extern const float lut_pitch_ratio_low[257];
  39:../../stmlib/dsp/units.h **** 
  40:../../stmlib/dsp/units.h **** inline float SemitonesToRatio(float semitones) {
 163              		.loc 3 40 48 is_stmt 1 view -0
 164              		.cfi_startproc
 165              		@ args = 0, pretend = 0, frame = 0
 166              		@ frame_needed = 0, uses_anonymous_args = 0
 167              		@ link register save eliminated.
  41:../../stmlib/dsp/units.h ****   float pitch = semitones + 128.0f;
 168              		.loc 3 41 3 view .LVU49
 169              		.loc 3 41 9 is_stmt 0 view .LVU50
 170 0000 DFED0E7A 		vldr.32	s15, .L4
  42:../../stmlib/dsp/units.h ****   MAKE_INTEGRAL_FRACTIONAL(pitch)
  43:../../stmlib/dsp/units.h **** 
  44:../../stmlib/dsp/units.h ****   return lut_pitch_ratio_high[pitch_integral] * \
  45:../../stmlib/dsp/units.h ****       lut_pitch_ratio_low[static_cast<int32_t>(pitch_fractional * 256.0f)];
 171              		.loc 3 45 74 view .LVU51
 172 0004 0E4A     		ldr	r2, .L4+4
  41:../../stmlib/dsp/units.h ****   float pitch = semitones + 128.0f;
 173              		.loc 3 41 9 view .LVU52
 174 0006 30EE270A 		vadd.f32	s0, s0, s15
 175              	.LVL16:
  42:../../stmlib/dsp/units.h ****   MAKE_INTEGRAL_FRACTIONAL(pitch)
 176              		.loc 3 42 3 is_stmt 1 view .LVU53
 177 000a FDEEC07A 		vcvt.s32.f32	s15, s0
 178              	.LVL17:
  42:../../stmlib/dsp/units.h ****   MAKE_INTEGRAL_FRACTIONAL(pitch)
 179              		.loc 3 42 3 view .LVU54
  44:../../stmlib/dsp/units.h ****       lut_pitch_ratio_low[static_cast<int32_t>(pitch_fractional * 256.0f)];
 180              		.loc 3 44 3 view .LVU55
  42:../../stmlib/dsp/units.h ****   MAKE_INTEGRAL_FRACTIONAL(pitch)
 181              		.loc 3 42 3 is_stmt 0 view .LVU56
 182 000e B8EEE77A 		vcvt.f32.s32	s14, s15
  44:../../stmlib/dsp/units.h ****       lut_pitch_ratio_low[static_cast<int32_t>(pitch_fractional * 256.0f)];
 183              		.loc 3 44 45 view .LVU57
 184 0012 17EE901A 		vmov	r1, s15	@ int
  42:../../stmlib/dsp/units.h ****   MAKE_INTEGRAL_FRACTIONAL(pitch)
 185              		.loc 3 42 3 view .LVU58
 186 0016 30EE470A 		vsub.f32	s0, s0, s14
 187              	.LVL18:
 188              		.loc 3 45 27 view .LVU59
 189 001a BEEECC0A 		vcvt.s32.f32	s0, s0, #8
 190              	.LVL19:
 191              		.loc 3 45 74 view .LVU60
 192 001e 10EE103A 		vmov	r3, s0	@ int
 193 0022 02EB8302 		add	r2, r2, r3, lsl #2
  44:../../stmlib/dsp/units.h ****       lut_pitch_ratio_low[static_cast<int32_t>(pitch_fractional * 256.0f)];
 194              		.loc 3 44 45 view .LVU61
 195 0026 074B     		ldr	r3, .L4+8
 196 0028 03EB8103 		add	r3, r3, r1, lsl #2
 197              		.loc 3 45 74 view .LVU62
ARM GAS  /var/folders/hl/qgbwny5j0fd895c2c41bk3tw0000gp/T//cc6AdWFS.s 			page 8


 198 002c 92ED000A 		vldr.32	s0, [r2]
 199 0030 D3ED007A 		vldr.32	s15, [r3]
 200              	.LVL20:
  46:../../stmlib/dsp/units.h **** }
 201              		.loc 3 46 1 view .LVU63
 202 0034 20EE270A 		vmul.f32	s0, s0, s15
 203 0038 7047     		bx	lr
 204              	.L5:
 205 003a 00BF     		.align	2
 206              	.L4:
 207 003c 00000043 		.word	1124073472
 208 0040 00000000 		.word	_ZN6stmlib19lut_pitch_ratio_lowE
 209 0044 00000000 		.word	_ZN6stmlib20lut_pitch_ratio_highE
 210              		.cfi_endproc
 211              	.LFE1525:
 213              		.section	.text._ZN5torus6String4InitEb,"ax",%progbits
 214              		.align	1
 215              		.global	_ZN5torus6String4InitEb
 216              		.syntax unified
 217              		.thumb
 218              		.thumb_func
 219              		.fpu fpv5-d16
 221              	_ZN5torus6String4InitEb:
 222              	.LVL21:
 223              	.LFB1531:
 224              		.file 4 "dsp/string.cpp"
   1:dsp/string.cpp **** // Copyright 2015 Emilie Gillet.
   2:dsp/string.cpp **** //
   3:dsp/string.cpp **** // Author: Emilie Gillet (emilie.o.gillet@gmail.com)
   4:dsp/string.cpp **** //
   5:dsp/string.cpp **** // Permission is hereby granted, free of charge, to any person obtaining a copy
   6:dsp/string.cpp **** // of this software and associated documentation files (the "Software"), to deal
   7:dsp/string.cpp **** // in the Software without restriction, including without limitation the rights
   8:dsp/string.cpp **** // to use, copy, modify, merge, publish, distribute, sublicense, and/or sell
   9:dsp/string.cpp **** // copies of the Software, and to permit persons to whom the Software is
  10:dsp/string.cpp **** // furnished to do so, subject to the following conditions:
  11:dsp/string.cpp **** //
  12:dsp/string.cpp **** // The above copyright notice and this permission notice shall be included in
  13:dsp/string.cpp **** // all copies or substantial portions of the Software.
  14:dsp/string.cpp **** //
  15:dsp/string.cpp **** // THE SOFTWARE IS PROVIDED "AS IS", WITHOUT WARRANTY OF ANY KIND, EXPRESS OR
  16:dsp/string.cpp **** // IMPLIED, INCLUDING BUT NOT LIMITED TO THE WARRANTIES OF MERCHANTABILITY,
  17:dsp/string.cpp **** // FITNESS FOR A PARTICULAR PURPOSE AND NONINFRINGEMENT. IN NO EVENT SHALL THE
  18:dsp/string.cpp **** // AUTHORS OR COPYRIGHT HOLDERS BE LIABLE FOR ANY CLAIM, DAMAGES OR OTHER
  19:dsp/string.cpp **** // LIABILITY, WHETHER IN AN ACTION OF CONTRACT, TORT OR OTHERWISE, ARISING FROM,
  20:dsp/string.cpp **** // OUT OF OR IN CONNECTION WITH THE SOFTWARE OR THE USE OR OTHER DEALINGS IN
  21:dsp/string.cpp **** // THE SOFTWARE.
  22:dsp/string.cpp **** //
  23:dsp/string.cpp **** // See http://creativecommons.org/licenses/MIT/ for more information.
  24:dsp/string.cpp **** //
  25:dsp/string.cpp **** // -----------------------------------------------------------------------------
  26:dsp/string.cpp **** //
  27:dsp/string.cpp **** // Comb filter / KS string.
  28:dsp/string.cpp **** 
  29:dsp/string.cpp **** #include "dsp/string.h"
  30:dsp/string.cpp **** 
  31:dsp/string.cpp **** #include <cmath>
ARM GAS  /var/folders/hl/qgbwny5j0fd895c2c41bk3tw0000gp/T//cc6AdWFS.s 			page 9


  32:dsp/string.cpp **** 
  33:dsp/string.cpp **** #include "stmlib/dsp/dsp.h"
  34:dsp/string.cpp **** #include "stmlib/dsp/parameter_interpolator.h"
  35:dsp/string.cpp **** #include "stmlib/dsp/units.h"
  36:dsp/string.cpp **** #include "stmlib/utils/random.h"
  37:dsp/string.cpp **** 
  38:dsp/string.cpp **** #include "resources.h"
  39:dsp/string.cpp **** 
  40:dsp/string.cpp **** namespace torus
  41:dsp/string.cpp **** {
  42:dsp/string.cpp **** using namespace std;
  43:dsp/string.cpp **** using namespace stmlib;
  44:dsp/string.cpp **** 
  45:dsp/string.cpp **** void String::Init(bool enable_dispersion)
  46:dsp/string.cpp **** {
 225              		.loc 4 46 1 is_stmt 1 view -0
 226              		.cfi_startproc
 227              		@ args = 0, pretend = 0, frame = 0
 228              		@ frame_needed = 0, uses_anonymous_args = 0
  47:dsp/string.cpp ****     enable_dispersion_ = enable_dispersion;
 229              		.loc 4 47 5 view .LVU65
  46:dsp/string.cpp ****     enable_dispersion_ = enable_dispersion;
 230              		.loc 4 46 1 is_stmt 0 view .LVU66
 231 0000 70B5     		push	{r4, r5, r6, lr}
 232              		.cfi_def_cfa_offset 16
 233              		.cfi_offset 4, -16
 234              		.cfi_offset 5, -12
 235              		.cfi_offset 6, -8
 236              		.cfi_offset 14, -4
  46:dsp/string.cpp ****     enable_dispersion_ = enable_dispersion;
 237              		.loc 4 46 1 view .LVU67
 238 0002 0446     		mov	r4, r0
 239              		.loc 4 47 24 view .LVU68
 240 0004 80F82410 		strb	r1, [r0, #36]
  48:dsp/string.cpp **** 
  49:dsp/string.cpp ****     string_.Init();
 241              		.loc 4 49 5 is_stmt 1 view .LVU69
 242              	.LVL22:
 243              	.LBB179:
 244              	.LBI179:
 245              		.file 5 "../../stmlib/dsp/delay_line.h"
   1:../../stmlib/dsp/delay_line.h **** // Copyright 2014 Emilie Gillet.
   2:../../stmlib/dsp/delay_line.h **** //
   3:../../stmlib/dsp/delay_line.h **** // Author: Emilie Gillet (emilie.o.gillet@gmail.com)
   4:../../stmlib/dsp/delay_line.h **** //
   5:../../stmlib/dsp/delay_line.h **** // Permission is hereby granted, free of charge, to any person obtaining a copy
   6:../../stmlib/dsp/delay_line.h **** // of this software and associated documentation files (the "Software"), to deal
   7:../../stmlib/dsp/delay_line.h **** // in the Software without restriction, including without limitation the rights
   8:../../stmlib/dsp/delay_line.h **** // to use, copy, modify, merge, publish, distribute, sublicense, and/or sell
   9:../../stmlib/dsp/delay_line.h **** // copies of the Software, and to permit persons to whom the Software is
  10:../../stmlib/dsp/delay_line.h **** // furnished to do so, subject to the following conditions:
  11:../../stmlib/dsp/delay_line.h **** // 
  12:../../stmlib/dsp/delay_line.h **** // The above copyright notice and this permission notice shall be included in
  13:../../stmlib/dsp/delay_line.h **** // all copies or substantial portions of the Software.
  14:../../stmlib/dsp/delay_line.h **** // 
  15:../../stmlib/dsp/delay_line.h **** // THE SOFTWARE IS PROVIDED "AS IS", WITHOUT WARRANTY OF ANY KIND, EXPRESS OR
  16:../../stmlib/dsp/delay_line.h **** // IMPLIED, INCLUDING BUT NOT LIMITED TO THE WARRANTIES OF MERCHANTABILITY,
ARM GAS  /var/folders/hl/qgbwny5j0fd895c2c41bk3tw0000gp/T//cc6AdWFS.s 			page 10


  17:../../stmlib/dsp/delay_line.h **** // FITNESS FOR A PARTICULAR PURPOSE AND NONINFRINGEMENT. IN NO EVENT SHALL THE
  18:../../stmlib/dsp/delay_line.h **** // AUTHORS OR COPYRIGHT HOLDERS BE LIABLE FOR ANY CLAIM, DAMAGES OR OTHER
  19:../../stmlib/dsp/delay_line.h **** // LIABILITY, WHETHER IN AN ACTION OF CONTRACT, TORT OR OTHERWISE, ARISING FROM,
  20:../../stmlib/dsp/delay_line.h **** // OUT OF OR IN CONNECTION WITH THE SOFTWARE OR THE USE OR OTHER DEALINGS IN
  21:../../stmlib/dsp/delay_line.h **** // THE SOFTWARE.
  22:../../stmlib/dsp/delay_line.h **** // 
  23:../../stmlib/dsp/delay_line.h **** // See http://creativecommons.org/licenses/MIT/ for more information.
  24:../../stmlib/dsp/delay_line.h **** //
  25:../../stmlib/dsp/delay_line.h **** // -----------------------------------------------------------------------------
  26:../../stmlib/dsp/delay_line.h **** //
  27:../../stmlib/dsp/delay_line.h **** // Delay line.
  28:../../stmlib/dsp/delay_line.h **** 
  29:../../stmlib/dsp/delay_line.h **** #ifndef STMLIB_DSP_DELAY_LINE_H_
  30:../../stmlib/dsp/delay_line.h **** #define STMLIB_DSP_DELAY_LINE_H_
  31:../../stmlib/dsp/delay_line.h **** 
  32:../../stmlib/dsp/delay_line.h **** #include "stmlib/stmlib.h"
  33:../../stmlib/dsp/delay_line.h **** #include "stmlib/dsp/dsp.h"
  34:../../stmlib/dsp/delay_line.h **** 
  35:../../stmlib/dsp/delay_line.h **** #include <algorithm>
  36:../../stmlib/dsp/delay_line.h **** 
  37:../../stmlib/dsp/delay_line.h **** namespace stmlib {
  38:../../stmlib/dsp/delay_line.h **** 
  39:../../stmlib/dsp/delay_line.h **** template<typename T, size_t max_delay>
  40:../../stmlib/dsp/delay_line.h **** class DelayLine {
  41:../../stmlib/dsp/delay_line.h ****  public:
  42:../../stmlib/dsp/delay_line.h ****   DelayLine() { }
  43:../../stmlib/dsp/delay_line.h ****   ~DelayLine() { }
  44:../../stmlib/dsp/delay_line.h ****   
  45:../../stmlib/dsp/delay_line.h ****   void Init() {
 246              		.loc 5 45 8 view .LVU70
 247              	.LBB180:
 248              	.LBI180:
  46:../../stmlib/dsp/delay_line.h ****     Reset();
  47:../../stmlib/dsp/delay_line.h ****   }
  48:../../stmlib/dsp/delay_line.h **** 
  49:../../stmlib/dsp/delay_line.h ****   void Reset() {
 249              		.loc 5 49 8 view .LVU71
 250              	.LBB181:
 251              	.LBB182:
 252              	.LBI182:
 253              		.file 6 "/opt/homebrew/Cellar/arm-none-eabi-gcc/10.3-2021.07/gcc/arm-none-eabi/include/c++/10.3.1/
   1:/opt/homebrew/Cellar/arm-none-eabi-gcc/10.3-2021.07/gcc/arm-none-eabi/include/c++/10.3.1/bits/stl_algobase.h **** // Core algorithmic facilities -*- C++ -*-
   2:/opt/homebrew/Cellar/arm-none-eabi-gcc/10.3-2021.07/gcc/arm-none-eabi/include/c++/10.3.1/bits/stl_algobase.h **** 
   3:/opt/homebrew/Cellar/arm-none-eabi-gcc/10.3-2021.07/gcc/arm-none-eabi/include/c++/10.3.1/bits/stl_algobase.h **** // Copyright (C) 2001-2020 Free Software Foundation, Inc.
   4:/opt/homebrew/Cellar/arm-none-eabi-gcc/10.3-2021.07/gcc/arm-none-eabi/include/c++/10.3.1/bits/stl_algobase.h **** //
   5:/opt/homebrew/Cellar/arm-none-eabi-gcc/10.3-2021.07/gcc/arm-none-eabi/include/c++/10.3.1/bits/stl_algobase.h **** // This file is part of the GNU ISO C++ Library.  This library is free
   6:/opt/homebrew/Cellar/arm-none-eabi-gcc/10.3-2021.07/gcc/arm-none-eabi/include/c++/10.3.1/bits/stl_algobase.h **** // software; you can redistribute it and/or modify it under the
   7:/opt/homebrew/Cellar/arm-none-eabi-gcc/10.3-2021.07/gcc/arm-none-eabi/include/c++/10.3.1/bits/stl_algobase.h **** // terms of the GNU General Public License as published by the
   8:/opt/homebrew/Cellar/arm-none-eabi-gcc/10.3-2021.07/gcc/arm-none-eabi/include/c++/10.3.1/bits/stl_algobase.h **** // Free Software Foundation; either version 3, or (at your option)
   9:/opt/homebrew/Cellar/arm-none-eabi-gcc/10.3-2021.07/gcc/arm-none-eabi/include/c++/10.3.1/bits/stl_algobase.h **** // any later version.
  10:/opt/homebrew/Cellar/arm-none-eabi-gcc/10.3-2021.07/gcc/arm-none-eabi/include/c++/10.3.1/bits/stl_algobase.h **** 
  11:/opt/homebrew/Cellar/arm-none-eabi-gcc/10.3-2021.07/gcc/arm-none-eabi/include/c++/10.3.1/bits/stl_algobase.h **** // This library is distributed in the hope that it will be useful,
  12:/opt/homebrew/Cellar/arm-none-eabi-gcc/10.3-2021.07/gcc/arm-none-eabi/include/c++/10.3.1/bits/stl_algobase.h **** // but WITHOUT ANY WARRANTY; without even the implied warranty of
  13:/opt/homebrew/Cellar/arm-none-eabi-gcc/10.3-2021.07/gcc/arm-none-eabi/include/c++/10.3.1/bits/stl_algobase.h **** // MERCHANTABILITY or FITNESS FOR A PARTICULAR PURPOSE.  See the
  14:/opt/homebrew/Cellar/arm-none-eabi-gcc/10.3-2021.07/gcc/arm-none-eabi/include/c++/10.3.1/bits/stl_algobase.h **** // GNU General Public License for more details.
  15:/opt/homebrew/Cellar/arm-none-eabi-gcc/10.3-2021.07/gcc/arm-none-eabi/include/c++/10.3.1/bits/stl_algobase.h **** 
  16:/opt/homebrew/Cellar/arm-none-eabi-gcc/10.3-2021.07/gcc/arm-none-eabi/include/c++/10.3.1/bits/stl_algobase.h **** // Under Section 7 of GPL version 3, you are granted additional
ARM GAS  /var/folders/hl/qgbwny5j0fd895c2c41bk3tw0000gp/T//cc6AdWFS.s 			page 11


  17:/opt/homebrew/Cellar/arm-none-eabi-gcc/10.3-2021.07/gcc/arm-none-eabi/include/c++/10.3.1/bits/stl_algobase.h **** // permissions described in the GCC Runtime Library Exception, version
  18:/opt/homebrew/Cellar/arm-none-eabi-gcc/10.3-2021.07/gcc/arm-none-eabi/include/c++/10.3.1/bits/stl_algobase.h **** // 3.1, as published by the Free Software Foundation.
  19:/opt/homebrew/Cellar/arm-none-eabi-gcc/10.3-2021.07/gcc/arm-none-eabi/include/c++/10.3.1/bits/stl_algobase.h **** 
  20:/opt/homebrew/Cellar/arm-none-eabi-gcc/10.3-2021.07/gcc/arm-none-eabi/include/c++/10.3.1/bits/stl_algobase.h **** // You should have received a copy of the GNU General Public License and
  21:/opt/homebrew/Cellar/arm-none-eabi-gcc/10.3-2021.07/gcc/arm-none-eabi/include/c++/10.3.1/bits/stl_algobase.h **** // a copy of the GCC Runtime Library Exception along with this program;
  22:/opt/homebrew/Cellar/arm-none-eabi-gcc/10.3-2021.07/gcc/arm-none-eabi/include/c++/10.3.1/bits/stl_algobase.h **** // see the files COPYING3 and COPYING.RUNTIME respectively.  If not, see
  23:/opt/homebrew/Cellar/arm-none-eabi-gcc/10.3-2021.07/gcc/arm-none-eabi/include/c++/10.3.1/bits/stl_algobase.h **** // <http://www.gnu.org/licenses/>.
  24:/opt/homebrew/Cellar/arm-none-eabi-gcc/10.3-2021.07/gcc/arm-none-eabi/include/c++/10.3.1/bits/stl_algobase.h **** 
  25:/opt/homebrew/Cellar/arm-none-eabi-gcc/10.3-2021.07/gcc/arm-none-eabi/include/c++/10.3.1/bits/stl_algobase.h **** /*
  26:/opt/homebrew/Cellar/arm-none-eabi-gcc/10.3-2021.07/gcc/arm-none-eabi/include/c++/10.3.1/bits/stl_algobase.h ****  *
  27:/opt/homebrew/Cellar/arm-none-eabi-gcc/10.3-2021.07/gcc/arm-none-eabi/include/c++/10.3.1/bits/stl_algobase.h ****  * Copyright (c) 1994
  28:/opt/homebrew/Cellar/arm-none-eabi-gcc/10.3-2021.07/gcc/arm-none-eabi/include/c++/10.3.1/bits/stl_algobase.h ****  * Hewlett-Packard Company
  29:/opt/homebrew/Cellar/arm-none-eabi-gcc/10.3-2021.07/gcc/arm-none-eabi/include/c++/10.3.1/bits/stl_algobase.h ****  *
  30:/opt/homebrew/Cellar/arm-none-eabi-gcc/10.3-2021.07/gcc/arm-none-eabi/include/c++/10.3.1/bits/stl_algobase.h ****  * Permission to use, copy, modify, distribute and sell this software
  31:/opt/homebrew/Cellar/arm-none-eabi-gcc/10.3-2021.07/gcc/arm-none-eabi/include/c++/10.3.1/bits/stl_algobase.h ****  * and its documentation for any purpose is hereby granted without fee,
  32:/opt/homebrew/Cellar/arm-none-eabi-gcc/10.3-2021.07/gcc/arm-none-eabi/include/c++/10.3.1/bits/stl_algobase.h ****  * provided that the above copyright notice appear in all copies and
  33:/opt/homebrew/Cellar/arm-none-eabi-gcc/10.3-2021.07/gcc/arm-none-eabi/include/c++/10.3.1/bits/stl_algobase.h ****  * that both that copyright notice and this permission notice appear
  34:/opt/homebrew/Cellar/arm-none-eabi-gcc/10.3-2021.07/gcc/arm-none-eabi/include/c++/10.3.1/bits/stl_algobase.h ****  * in supporting documentation.  Hewlett-Packard Company makes no
  35:/opt/homebrew/Cellar/arm-none-eabi-gcc/10.3-2021.07/gcc/arm-none-eabi/include/c++/10.3.1/bits/stl_algobase.h ****  * representations about the suitability of this software for any
  36:/opt/homebrew/Cellar/arm-none-eabi-gcc/10.3-2021.07/gcc/arm-none-eabi/include/c++/10.3.1/bits/stl_algobase.h ****  * purpose.  It is provided "as is" without express or implied warranty.
  37:/opt/homebrew/Cellar/arm-none-eabi-gcc/10.3-2021.07/gcc/arm-none-eabi/include/c++/10.3.1/bits/stl_algobase.h ****  *
  38:/opt/homebrew/Cellar/arm-none-eabi-gcc/10.3-2021.07/gcc/arm-none-eabi/include/c++/10.3.1/bits/stl_algobase.h ****  *
  39:/opt/homebrew/Cellar/arm-none-eabi-gcc/10.3-2021.07/gcc/arm-none-eabi/include/c++/10.3.1/bits/stl_algobase.h ****  * Copyright (c) 1996-1998
  40:/opt/homebrew/Cellar/arm-none-eabi-gcc/10.3-2021.07/gcc/arm-none-eabi/include/c++/10.3.1/bits/stl_algobase.h ****  * Silicon Graphics Computer Systems, Inc.
  41:/opt/homebrew/Cellar/arm-none-eabi-gcc/10.3-2021.07/gcc/arm-none-eabi/include/c++/10.3.1/bits/stl_algobase.h ****  *
  42:/opt/homebrew/Cellar/arm-none-eabi-gcc/10.3-2021.07/gcc/arm-none-eabi/include/c++/10.3.1/bits/stl_algobase.h ****  * Permission to use, copy, modify, distribute and sell this software
  43:/opt/homebrew/Cellar/arm-none-eabi-gcc/10.3-2021.07/gcc/arm-none-eabi/include/c++/10.3.1/bits/stl_algobase.h ****  * and its documentation for any purpose is hereby granted without fee,
  44:/opt/homebrew/Cellar/arm-none-eabi-gcc/10.3-2021.07/gcc/arm-none-eabi/include/c++/10.3.1/bits/stl_algobase.h ****  * provided that the above copyright notice appear in all copies and
  45:/opt/homebrew/Cellar/arm-none-eabi-gcc/10.3-2021.07/gcc/arm-none-eabi/include/c++/10.3.1/bits/stl_algobase.h ****  * that both that copyright notice and this permission notice appear
  46:/opt/homebrew/Cellar/arm-none-eabi-gcc/10.3-2021.07/gcc/arm-none-eabi/include/c++/10.3.1/bits/stl_algobase.h ****  * in supporting documentation.  Silicon Graphics makes no
  47:/opt/homebrew/Cellar/arm-none-eabi-gcc/10.3-2021.07/gcc/arm-none-eabi/include/c++/10.3.1/bits/stl_algobase.h ****  * representations about the suitability of this software for any
  48:/opt/homebrew/Cellar/arm-none-eabi-gcc/10.3-2021.07/gcc/arm-none-eabi/include/c++/10.3.1/bits/stl_algobase.h ****  * purpose.  It is provided "as is" without express or implied warranty.
  49:/opt/homebrew/Cellar/arm-none-eabi-gcc/10.3-2021.07/gcc/arm-none-eabi/include/c++/10.3.1/bits/stl_algobase.h ****  */
  50:/opt/homebrew/Cellar/arm-none-eabi-gcc/10.3-2021.07/gcc/arm-none-eabi/include/c++/10.3.1/bits/stl_algobase.h **** 
  51:/opt/homebrew/Cellar/arm-none-eabi-gcc/10.3-2021.07/gcc/arm-none-eabi/include/c++/10.3.1/bits/stl_algobase.h **** /** @file bits/stl_algobase.h
  52:/opt/homebrew/Cellar/arm-none-eabi-gcc/10.3-2021.07/gcc/arm-none-eabi/include/c++/10.3.1/bits/stl_algobase.h ****  *  This is an internal header file, included by other library headers.
  53:/opt/homebrew/Cellar/arm-none-eabi-gcc/10.3-2021.07/gcc/arm-none-eabi/include/c++/10.3.1/bits/stl_algobase.h ****  *  Do not attempt to use it directly. @headername{algorithm}
  54:/opt/homebrew/Cellar/arm-none-eabi-gcc/10.3-2021.07/gcc/arm-none-eabi/include/c++/10.3.1/bits/stl_algobase.h ****  */
  55:/opt/homebrew/Cellar/arm-none-eabi-gcc/10.3-2021.07/gcc/arm-none-eabi/include/c++/10.3.1/bits/stl_algobase.h **** 
  56:/opt/homebrew/Cellar/arm-none-eabi-gcc/10.3-2021.07/gcc/arm-none-eabi/include/c++/10.3.1/bits/stl_algobase.h **** #ifndef _STL_ALGOBASE_H
  57:/opt/homebrew/Cellar/arm-none-eabi-gcc/10.3-2021.07/gcc/arm-none-eabi/include/c++/10.3.1/bits/stl_algobase.h **** #define _STL_ALGOBASE_H 1
  58:/opt/homebrew/Cellar/arm-none-eabi-gcc/10.3-2021.07/gcc/arm-none-eabi/include/c++/10.3.1/bits/stl_algobase.h **** 
  59:/opt/homebrew/Cellar/arm-none-eabi-gcc/10.3-2021.07/gcc/arm-none-eabi/include/c++/10.3.1/bits/stl_algobase.h **** #include <bits/c++config.h>
  60:/opt/homebrew/Cellar/arm-none-eabi-gcc/10.3-2021.07/gcc/arm-none-eabi/include/c++/10.3.1/bits/stl_algobase.h **** #include <bits/functexcept.h>
  61:/opt/homebrew/Cellar/arm-none-eabi-gcc/10.3-2021.07/gcc/arm-none-eabi/include/c++/10.3.1/bits/stl_algobase.h **** #include <bits/cpp_type_traits.h>
  62:/opt/homebrew/Cellar/arm-none-eabi-gcc/10.3-2021.07/gcc/arm-none-eabi/include/c++/10.3.1/bits/stl_algobase.h **** #include <ext/type_traits.h>
  63:/opt/homebrew/Cellar/arm-none-eabi-gcc/10.3-2021.07/gcc/arm-none-eabi/include/c++/10.3.1/bits/stl_algobase.h **** #include <ext/numeric_traits.h>
  64:/opt/homebrew/Cellar/arm-none-eabi-gcc/10.3-2021.07/gcc/arm-none-eabi/include/c++/10.3.1/bits/stl_algobase.h **** #include <bits/stl_pair.h>
  65:/opt/homebrew/Cellar/arm-none-eabi-gcc/10.3-2021.07/gcc/arm-none-eabi/include/c++/10.3.1/bits/stl_algobase.h **** #include <bits/stl_iterator_base_types.h>
  66:/opt/homebrew/Cellar/arm-none-eabi-gcc/10.3-2021.07/gcc/arm-none-eabi/include/c++/10.3.1/bits/stl_algobase.h **** #include <bits/stl_iterator_base_funcs.h>
  67:/opt/homebrew/Cellar/arm-none-eabi-gcc/10.3-2021.07/gcc/arm-none-eabi/include/c++/10.3.1/bits/stl_algobase.h **** #include <bits/stl_iterator.h>
  68:/opt/homebrew/Cellar/arm-none-eabi-gcc/10.3-2021.07/gcc/arm-none-eabi/include/c++/10.3.1/bits/stl_algobase.h **** #include <bits/concept_check.h>
  69:/opt/homebrew/Cellar/arm-none-eabi-gcc/10.3-2021.07/gcc/arm-none-eabi/include/c++/10.3.1/bits/stl_algobase.h **** #include <debug/debug.h>
  70:/opt/homebrew/Cellar/arm-none-eabi-gcc/10.3-2021.07/gcc/arm-none-eabi/include/c++/10.3.1/bits/stl_algobase.h **** #include <bits/move.h> // For std::swap
  71:/opt/homebrew/Cellar/arm-none-eabi-gcc/10.3-2021.07/gcc/arm-none-eabi/include/c++/10.3.1/bits/stl_algobase.h **** #include <bits/predefined_ops.h>
  72:/opt/homebrew/Cellar/arm-none-eabi-gcc/10.3-2021.07/gcc/arm-none-eabi/include/c++/10.3.1/bits/stl_algobase.h **** #if __cplusplus >= 201103L
  73:/opt/homebrew/Cellar/arm-none-eabi-gcc/10.3-2021.07/gcc/arm-none-eabi/include/c++/10.3.1/bits/stl_algobase.h **** # include <type_traits>
ARM GAS  /var/folders/hl/qgbwny5j0fd895c2c41bk3tw0000gp/T//cc6AdWFS.s 			page 12


  74:/opt/homebrew/Cellar/arm-none-eabi-gcc/10.3-2021.07/gcc/arm-none-eabi/include/c++/10.3.1/bits/stl_algobase.h **** #endif
  75:/opt/homebrew/Cellar/arm-none-eabi-gcc/10.3-2021.07/gcc/arm-none-eabi/include/c++/10.3.1/bits/stl_algobase.h **** #if __cplusplus > 201703L
  76:/opt/homebrew/Cellar/arm-none-eabi-gcc/10.3-2021.07/gcc/arm-none-eabi/include/c++/10.3.1/bits/stl_algobase.h **** # include <compare>
  77:/opt/homebrew/Cellar/arm-none-eabi-gcc/10.3-2021.07/gcc/arm-none-eabi/include/c++/10.3.1/bits/stl_algobase.h **** #endif
  78:/opt/homebrew/Cellar/arm-none-eabi-gcc/10.3-2021.07/gcc/arm-none-eabi/include/c++/10.3.1/bits/stl_algobase.h **** 
  79:/opt/homebrew/Cellar/arm-none-eabi-gcc/10.3-2021.07/gcc/arm-none-eabi/include/c++/10.3.1/bits/stl_algobase.h **** namespace std _GLIBCXX_VISIBILITY(default)
  80:/opt/homebrew/Cellar/arm-none-eabi-gcc/10.3-2021.07/gcc/arm-none-eabi/include/c++/10.3.1/bits/stl_algobase.h **** {
  81:/opt/homebrew/Cellar/arm-none-eabi-gcc/10.3-2021.07/gcc/arm-none-eabi/include/c++/10.3.1/bits/stl_algobase.h **** _GLIBCXX_BEGIN_NAMESPACE_VERSION
  82:/opt/homebrew/Cellar/arm-none-eabi-gcc/10.3-2021.07/gcc/arm-none-eabi/include/c++/10.3.1/bits/stl_algobase.h **** 
  83:/opt/homebrew/Cellar/arm-none-eabi-gcc/10.3-2021.07/gcc/arm-none-eabi/include/c++/10.3.1/bits/stl_algobase.h ****   /*
  84:/opt/homebrew/Cellar/arm-none-eabi-gcc/10.3-2021.07/gcc/arm-none-eabi/include/c++/10.3.1/bits/stl_algobase.h ****    * A constexpr wrapper for __builtin_memcmp.
  85:/opt/homebrew/Cellar/arm-none-eabi-gcc/10.3-2021.07/gcc/arm-none-eabi/include/c++/10.3.1/bits/stl_algobase.h ****    * @param __num The number of elements of type _Tp (not bytes).
  86:/opt/homebrew/Cellar/arm-none-eabi-gcc/10.3-2021.07/gcc/arm-none-eabi/include/c++/10.3.1/bits/stl_algobase.h ****    */
  87:/opt/homebrew/Cellar/arm-none-eabi-gcc/10.3-2021.07/gcc/arm-none-eabi/include/c++/10.3.1/bits/stl_algobase.h ****   template<typename _Tp, typename _Up>
  88:/opt/homebrew/Cellar/arm-none-eabi-gcc/10.3-2021.07/gcc/arm-none-eabi/include/c++/10.3.1/bits/stl_algobase.h ****     _GLIBCXX14_CONSTEXPR
  89:/opt/homebrew/Cellar/arm-none-eabi-gcc/10.3-2021.07/gcc/arm-none-eabi/include/c++/10.3.1/bits/stl_algobase.h ****     inline int
  90:/opt/homebrew/Cellar/arm-none-eabi-gcc/10.3-2021.07/gcc/arm-none-eabi/include/c++/10.3.1/bits/stl_algobase.h ****     __memcmp(const _Tp* __first1, const _Up* __first2, size_t __num)
  91:/opt/homebrew/Cellar/arm-none-eabi-gcc/10.3-2021.07/gcc/arm-none-eabi/include/c++/10.3.1/bits/stl_algobase.h ****     {
  92:/opt/homebrew/Cellar/arm-none-eabi-gcc/10.3-2021.07/gcc/arm-none-eabi/include/c++/10.3.1/bits/stl_algobase.h **** #if __cplusplus >= 201103L
  93:/opt/homebrew/Cellar/arm-none-eabi-gcc/10.3-2021.07/gcc/arm-none-eabi/include/c++/10.3.1/bits/stl_algobase.h ****       static_assert(sizeof(_Tp) == sizeof(_Up), "can be compared with memcmp");
  94:/opt/homebrew/Cellar/arm-none-eabi-gcc/10.3-2021.07/gcc/arm-none-eabi/include/c++/10.3.1/bits/stl_algobase.h **** #endif
  95:/opt/homebrew/Cellar/arm-none-eabi-gcc/10.3-2021.07/gcc/arm-none-eabi/include/c++/10.3.1/bits/stl_algobase.h **** #ifdef __cpp_lib_is_constant_evaluated
  96:/opt/homebrew/Cellar/arm-none-eabi-gcc/10.3-2021.07/gcc/arm-none-eabi/include/c++/10.3.1/bits/stl_algobase.h ****       if (std::is_constant_evaluated())
  97:/opt/homebrew/Cellar/arm-none-eabi-gcc/10.3-2021.07/gcc/arm-none-eabi/include/c++/10.3.1/bits/stl_algobase.h **** 	{
  98:/opt/homebrew/Cellar/arm-none-eabi-gcc/10.3-2021.07/gcc/arm-none-eabi/include/c++/10.3.1/bits/stl_algobase.h **** 	  for(; __num > 0; ++__first1, ++__first2, --__num)
  99:/opt/homebrew/Cellar/arm-none-eabi-gcc/10.3-2021.07/gcc/arm-none-eabi/include/c++/10.3.1/bits/stl_algobase.h **** 	    if (*__first1 != *__first2)
 100:/opt/homebrew/Cellar/arm-none-eabi-gcc/10.3-2021.07/gcc/arm-none-eabi/include/c++/10.3.1/bits/stl_algobase.h **** 	      return *__first1 < *__first2 ? -1 : 1;
 101:/opt/homebrew/Cellar/arm-none-eabi-gcc/10.3-2021.07/gcc/arm-none-eabi/include/c++/10.3.1/bits/stl_algobase.h **** 	  return 0;
 102:/opt/homebrew/Cellar/arm-none-eabi-gcc/10.3-2021.07/gcc/arm-none-eabi/include/c++/10.3.1/bits/stl_algobase.h **** 	}
 103:/opt/homebrew/Cellar/arm-none-eabi-gcc/10.3-2021.07/gcc/arm-none-eabi/include/c++/10.3.1/bits/stl_algobase.h ****       else
 104:/opt/homebrew/Cellar/arm-none-eabi-gcc/10.3-2021.07/gcc/arm-none-eabi/include/c++/10.3.1/bits/stl_algobase.h **** #endif
 105:/opt/homebrew/Cellar/arm-none-eabi-gcc/10.3-2021.07/gcc/arm-none-eabi/include/c++/10.3.1/bits/stl_algobase.h **** 	return __builtin_memcmp(__first1, __first2, sizeof(_Tp) * __num);
 106:/opt/homebrew/Cellar/arm-none-eabi-gcc/10.3-2021.07/gcc/arm-none-eabi/include/c++/10.3.1/bits/stl_algobase.h ****     }
 107:/opt/homebrew/Cellar/arm-none-eabi-gcc/10.3-2021.07/gcc/arm-none-eabi/include/c++/10.3.1/bits/stl_algobase.h **** 
 108:/opt/homebrew/Cellar/arm-none-eabi-gcc/10.3-2021.07/gcc/arm-none-eabi/include/c++/10.3.1/bits/stl_algobase.h **** #if __cplusplus < 201103L
 109:/opt/homebrew/Cellar/arm-none-eabi-gcc/10.3-2021.07/gcc/arm-none-eabi/include/c++/10.3.1/bits/stl_algobase.h ****   // See http://gcc.gnu.org/ml/libstdc++/2004-08/msg00167.html: in a
 110:/opt/homebrew/Cellar/arm-none-eabi-gcc/10.3-2021.07/gcc/arm-none-eabi/include/c++/10.3.1/bits/stl_algobase.h ****   // nutshell, we are partially implementing the resolution of DR 187,
 111:/opt/homebrew/Cellar/arm-none-eabi-gcc/10.3-2021.07/gcc/arm-none-eabi/include/c++/10.3.1/bits/stl_algobase.h ****   // when it's safe, i.e., the value_types are equal.
 112:/opt/homebrew/Cellar/arm-none-eabi-gcc/10.3-2021.07/gcc/arm-none-eabi/include/c++/10.3.1/bits/stl_algobase.h ****   template<bool _BoolType>
 113:/opt/homebrew/Cellar/arm-none-eabi-gcc/10.3-2021.07/gcc/arm-none-eabi/include/c++/10.3.1/bits/stl_algobase.h ****     struct __iter_swap
 114:/opt/homebrew/Cellar/arm-none-eabi-gcc/10.3-2021.07/gcc/arm-none-eabi/include/c++/10.3.1/bits/stl_algobase.h ****     {
 115:/opt/homebrew/Cellar/arm-none-eabi-gcc/10.3-2021.07/gcc/arm-none-eabi/include/c++/10.3.1/bits/stl_algobase.h ****       template<typename _ForwardIterator1, typename _ForwardIterator2>
 116:/opt/homebrew/Cellar/arm-none-eabi-gcc/10.3-2021.07/gcc/arm-none-eabi/include/c++/10.3.1/bits/stl_algobase.h **** 	static void
 117:/opt/homebrew/Cellar/arm-none-eabi-gcc/10.3-2021.07/gcc/arm-none-eabi/include/c++/10.3.1/bits/stl_algobase.h **** 	iter_swap(_ForwardIterator1 __a, _ForwardIterator2 __b)
 118:/opt/homebrew/Cellar/arm-none-eabi-gcc/10.3-2021.07/gcc/arm-none-eabi/include/c++/10.3.1/bits/stl_algobase.h **** 	{
 119:/opt/homebrew/Cellar/arm-none-eabi-gcc/10.3-2021.07/gcc/arm-none-eabi/include/c++/10.3.1/bits/stl_algobase.h **** 	  typedef typename iterator_traits<_ForwardIterator1>::value_type
 120:/opt/homebrew/Cellar/arm-none-eabi-gcc/10.3-2021.07/gcc/arm-none-eabi/include/c++/10.3.1/bits/stl_algobase.h **** 	    _ValueType1;
 121:/opt/homebrew/Cellar/arm-none-eabi-gcc/10.3-2021.07/gcc/arm-none-eabi/include/c++/10.3.1/bits/stl_algobase.h **** 	  _ValueType1 __tmp = *__a;
 122:/opt/homebrew/Cellar/arm-none-eabi-gcc/10.3-2021.07/gcc/arm-none-eabi/include/c++/10.3.1/bits/stl_algobase.h **** 	  *__a = *__b;
 123:/opt/homebrew/Cellar/arm-none-eabi-gcc/10.3-2021.07/gcc/arm-none-eabi/include/c++/10.3.1/bits/stl_algobase.h **** 	  *__b = __tmp;
 124:/opt/homebrew/Cellar/arm-none-eabi-gcc/10.3-2021.07/gcc/arm-none-eabi/include/c++/10.3.1/bits/stl_algobase.h **** 	}
 125:/opt/homebrew/Cellar/arm-none-eabi-gcc/10.3-2021.07/gcc/arm-none-eabi/include/c++/10.3.1/bits/stl_algobase.h ****     };
 126:/opt/homebrew/Cellar/arm-none-eabi-gcc/10.3-2021.07/gcc/arm-none-eabi/include/c++/10.3.1/bits/stl_algobase.h **** 
 127:/opt/homebrew/Cellar/arm-none-eabi-gcc/10.3-2021.07/gcc/arm-none-eabi/include/c++/10.3.1/bits/stl_algobase.h ****   template<>
 128:/opt/homebrew/Cellar/arm-none-eabi-gcc/10.3-2021.07/gcc/arm-none-eabi/include/c++/10.3.1/bits/stl_algobase.h ****     struct __iter_swap<true>
 129:/opt/homebrew/Cellar/arm-none-eabi-gcc/10.3-2021.07/gcc/arm-none-eabi/include/c++/10.3.1/bits/stl_algobase.h ****     {
 130:/opt/homebrew/Cellar/arm-none-eabi-gcc/10.3-2021.07/gcc/arm-none-eabi/include/c++/10.3.1/bits/stl_algobase.h ****       template<typename _ForwardIterator1, typename _ForwardIterator2>
ARM GAS  /var/folders/hl/qgbwny5j0fd895c2c41bk3tw0000gp/T//cc6AdWFS.s 			page 13


 131:/opt/homebrew/Cellar/arm-none-eabi-gcc/10.3-2021.07/gcc/arm-none-eabi/include/c++/10.3.1/bits/stl_algobase.h **** 	static void
 132:/opt/homebrew/Cellar/arm-none-eabi-gcc/10.3-2021.07/gcc/arm-none-eabi/include/c++/10.3.1/bits/stl_algobase.h **** 	iter_swap(_ForwardIterator1 __a, _ForwardIterator2 __b)
 133:/opt/homebrew/Cellar/arm-none-eabi-gcc/10.3-2021.07/gcc/arm-none-eabi/include/c++/10.3.1/bits/stl_algobase.h **** 	{
 134:/opt/homebrew/Cellar/arm-none-eabi-gcc/10.3-2021.07/gcc/arm-none-eabi/include/c++/10.3.1/bits/stl_algobase.h **** 	  swap(*__a, *__b);
 135:/opt/homebrew/Cellar/arm-none-eabi-gcc/10.3-2021.07/gcc/arm-none-eabi/include/c++/10.3.1/bits/stl_algobase.h **** 	}
 136:/opt/homebrew/Cellar/arm-none-eabi-gcc/10.3-2021.07/gcc/arm-none-eabi/include/c++/10.3.1/bits/stl_algobase.h ****     };
 137:/opt/homebrew/Cellar/arm-none-eabi-gcc/10.3-2021.07/gcc/arm-none-eabi/include/c++/10.3.1/bits/stl_algobase.h **** #endif // C++03
 138:/opt/homebrew/Cellar/arm-none-eabi-gcc/10.3-2021.07/gcc/arm-none-eabi/include/c++/10.3.1/bits/stl_algobase.h **** 
 139:/opt/homebrew/Cellar/arm-none-eabi-gcc/10.3-2021.07/gcc/arm-none-eabi/include/c++/10.3.1/bits/stl_algobase.h ****   /**
 140:/opt/homebrew/Cellar/arm-none-eabi-gcc/10.3-2021.07/gcc/arm-none-eabi/include/c++/10.3.1/bits/stl_algobase.h ****    *  @brief Swaps the contents of two iterators.
 141:/opt/homebrew/Cellar/arm-none-eabi-gcc/10.3-2021.07/gcc/arm-none-eabi/include/c++/10.3.1/bits/stl_algobase.h ****    *  @ingroup mutating_algorithms
 142:/opt/homebrew/Cellar/arm-none-eabi-gcc/10.3-2021.07/gcc/arm-none-eabi/include/c++/10.3.1/bits/stl_algobase.h ****    *  @param  __a  An iterator.
 143:/opt/homebrew/Cellar/arm-none-eabi-gcc/10.3-2021.07/gcc/arm-none-eabi/include/c++/10.3.1/bits/stl_algobase.h ****    *  @param  __b  Another iterator.
 144:/opt/homebrew/Cellar/arm-none-eabi-gcc/10.3-2021.07/gcc/arm-none-eabi/include/c++/10.3.1/bits/stl_algobase.h ****    *  @return   Nothing.
 145:/opt/homebrew/Cellar/arm-none-eabi-gcc/10.3-2021.07/gcc/arm-none-eabi/include/c++/10.3.1/bits/stl_algobase.h ****    *
 146:/opt/homebrew/Cellar/arm-none-eabi-gcc/10.3-2021.07/gcc/arm-none-eabi/include/c++/10.3.1/bits/stl_algobase.h ****    *  This function swaps the values pointed to by two iterators, not the
 147:/opt/homebrew/Cellar/arm-none-eabi-gcc/10.3-2021.07/gcc/arm-none-eabi/include/c++/10.3.1/bits/stl_algobase.h ****    *  iterators themselves.
 148:/opt/homebrew/Cellar/arm-none-eabi-gcc/10.3-2021.07/gcc/arm-none-eabi/include/c++/10.3.1/bits/stl_algobase.h ****   */
 149:/opt/homebrew/Cellar/arm-none-eabi-gcc/10.3-2021.07/gcc/arm-none-eabi/include/c++/10.3.1/bits/stl_algobase.h ****   template<typename _ForwardIterator1, typename _ForwardIterator2>
 150:/opt/homebrew/Cellar/arm-none-eabi-gcc/10.3-2021.07/gcc/arm-none-eabi/include/c++/10.3.1/bits/stl_algobase.h ****     _GLIBCXX20_CONSTEXPR
 151:/opt/homebrew/Cellar/arm-none-eabi-gcc/10.3-2021.07/gcc/arm-none-eabi/include/c++/10.3.1/bits/stl_algobase.h ****     inline void
 152:/opt/homebrew/Cellar/arm-none-eabi-gcc/10.3-2021.07/gcc/arm-none-eabi/include/c++/10.3.1/bits/stl_algobase.h ****     iter_swap(_ForwardIterator1 __a, _ForwardIterator2 __b)
 153:/opt/homebrew/Cellar/arm-none-eabi-gcc/10.3-2021.07/gcc/arm-none-eabi/include/c++/10.3.1/bits/stl_algobase.h ****     {
 154:/opt/homebrew/Cellar/arm-none-eabi-gcc/10.3-2021.07/gcc/arm-none-eabi/include/c++/10.3.1/bits/stl_algobase.h ****       // concept requirements
 155:/opt/homebrew/Cellar/arm-none-eabi-gcc/10.3-2021.07/gcc/arm-none-eabi/include/c++/10.3.1/bits/stl_algobase.h ****       __glibcxx_function_requires(_Mutable_ForwardIteratorConcept<
 156:/opt/homebrew/Cellar/arm-none-eabi-gcc/10.3-2021.07/gcc/arm-none-eabi/include/c++/10.3.1/bits/stl_algobase.h **** 				  _ForwardIterator1>)
 157:/opt/homebrew/Cellar/arm-none-eabi-gcc/10.3-2021.07/gcc/arm-none-eabi/include/c++/10.3.1/bits/stl_algobase.h ****       __glibcxx_function_requires(_Mutable_ForwardIteratorConcept<
 158:/opt/homebrew/Cellar/arm-none-eabi-gcc/10.3-2021.07/gcc/arm-none-eabi/include/c++/10.3.1/bits/stl_algobase.h **** 				  _ForwardIterator2>)
 159:/opt/homebrew/Cellar/arm-none-eabi-gcc/10.3-2021.07/gcc/arm-none-eabi/include/c++/10.3.1/bits/stl_algobase.h **** 
 160:/opt/homebrew/Cellar/arm-none-eabi-gcc/10.3-2021.07/gcc/arm-none-eabi/include/c++/10.3.1/bits/stl_algobase.h **** #if __cplusplus < 201103L
 161:/opt/homebrew/Cellar/arm-none-eabi-gcc/10.3-2021.07/gcc/arm-none-eabi/include/c++/10.3.1/bits/stl_algobase.h ****       typedef typename iterator_traits<_ForwardIterator1>::value_type
 162:/opt/homebrew/Cellar/arm-none-eabi-gcc/10.3-2021.07/gcc/arm-none-eabi/include/c++/10.3.1/bits/stl_algobase.h **** 	_ValueType1;
 163:/opt/homebrew/Cellar/arm-none-eabi-gcc/10.3-2021.07/gcc/arm-none-eabi/include/c++/10.3.1/bits/stl_algobase.h ****       typedef typename iterator_traits<_ForwardIterator2>::value_type
 164:/opt/homebrew/Cellar/arm-none-eabi-gcc/10.3-2021.07/gcc/arm-none-eabi/include/c++/10.3.1/bits/stl_algobase.h **** 	_ValueType2;
 165:/opt/homebrew/Cellar/arm-none-eabi-gcc/10.3-2021.07/gcc/arm-none-eabi/include/c++/10.3.1/bits/stl_algobase.h **** 
 166:/opt/homebrew/Cellar/arm-none-eabi-gcc/10.3-2021.07/gcc/arm-none-eabi/include/c++/10.3.1/bits/stl_algobase.h ****       __glibcxx_function_requires(_ConvertibleConcept<_ValueType1,
 167:/opt/homebrew/Cellar/arm-none-eabi-gcc/10.3-2021.07/gcc/arm-none-eabi/include/c++/10.3.1/bits/stl_algobase.h **** 				  _ValueType2>)
 168:/opt/homebrew/Cellar/arm-none-eabi-gcc/10.3-2021.07/gcc/arm-none-eabi/include/c++/10.3.1/bits/stl_algobase.h ****       __glibcxx_function_requires(_ConvertibleConcept<_ValueType2,
 169:/opt/homebrew/Cellar/arm-none-eabi-gcc/10.3-2021.07/gcc/arm-none-eabi/include/c++/10.3.1/bits/stl_algobase.h **** 				  _ValueType1>)
 170:/opt/homebrew/Cellar/arm-none-eabi-gcc/10.3-2021.07/gcc/arm-none-eabi/include/c++/10.3.1/bits/stl_algobase.h **** 
 171:/opt/homebrew/Cellar/arm-none-eabi-gcc/10.3-2021.07/gcc/arm-none-eabi/include/c++/10.3.1/bits/stl_algobase.h ****       typedef typename iterator_traits<_ForwardIterator1>::reference
 172:/opt/homebrew/Cellar/arm-none-eabi-gcc/10.3-2021.07/gcc/arm-none-eabi/include/c++/10.3.1/bits/stl_algobase.h **** 	_ReferenceType1;
 173:/opt/homebrew/Cellar/arm-none-eabi-gcc/10.3-2021.07/gcc/arm-none-eabi/include/c++/10.3.1/bits/stl_algobase.h ****       typedef typename iterator_traits<_ForwardIterator2>::reference
 174:/opt/homebrew/Cellar/arm-none-eabi-gcc/10.3-2021.07/gcc/arm-none-eabi/include/c++/10.3.1/bits/stl_algobase.h **** 	_ReferenceType2;
 175:/opt/homebrew/Cellar/arm-none-eabi-gcc/10.3-2021.07/gcc/arm-none-eabi/include/c++/10.3.1/bits/stl_algobase.h ****       std::__iter_swap<__are_same<_ValueType1, _ValueType2>::__value
 176:/opt/homebrew/Cellar/arm-none-eabi-gcc/10.3-2021.07/gcc/arm-none-eabi/include/c++/10.3.1/bits/stl_algobase.h **** 	&& __are_same<_ValueType1&, _ReferenceType1>::__value
 177:/opt/homebrew/Cellar/arm-none-eabi-gcc/10.3-2021.07/gcc/arm-none-eabi/include/c++/10.3.1/bits/stl_algobase.h **** 	&& __are_same<_ValueType2&, _ReferenceType2>::__value>::
 178:/opt/homebrew/Cellar/arm-none-eabi-gcc/10.3-2021.07/gcc/arm-none-eabi/include/c++/10.3.1/bits/stl_algobase.h **** 	iter_swap(__a, __b);
 179:/opt/homebrew/Cellar/arm-none-eabi-gcc/10.3-2021.07/gcc/arm-none-eabi/include/c++/10.3.1/bits/stl_algobase.h **** #else
 180:/opt/homebrew/Cellar/arm-none-eabi-gcc/10.3-2021.07/gcc/arm-none-eabi/include/c++/10.3.1/bits/stl_algobase.h ****       // _GLIBCXX_RESOLVE_LIB_DEFECTS
 181:/opt/homebrew/Cellar/arm-none-eabi-gcc/10.3-2021.07/gcc/arm-none-eabi/include/c++/10.3.1/bits/stl_algobase.h ****       // 187. iter_swap underspecified
 182:/opt/homebrew/Cellar/arm-none-eabi-gcc/10.3-2021.07/gcc/arm-none-eabi/include/c++/10.3.1/bits/stl_algobase.h ****       swap(*__a, *__b);
 183:/opt/homebrew/Cellar/arm-none-eabi-gcc/10.3-2021.07/gcc/arm-none-eabi/include/c++/10.3.1/bits/stl_algobase.h **** #endif
 184:/opt/homebrew/Cellar/arm-none-eabi-gcc/10.3-2021.07/gcc/arm-none-eabi/include/c++/10.3.1/bits/stl_algobase.h ****     }
 185:/opt/homebrew/Cellar/arm-none-eabi-gcc/10.3-2021.07/gcc/arm-none-eabi/include/c++/10.3.1/bits/stl_algobase.h **** 
 186:/opt/homebrew/Cellar/arm-none-eabi-gcc/10.3-2021.07/gcc/arm-none-eabi/include/c++/10.3.1/bits/stl_algobase.h ****   /**
 187:/opt/homebrew/Cellar/arm-none-eabi-gcc/10.3-2021.07/gcc/arm-none-eabi/include/c++/10.3.1/bits/stl_algobase.h ****    *  @brief Swap the elements of two sequences.
ARM GAS  /var/folders/hl/qgbwny5j0fd895c2c41bk3tw0000gp/T//cc6AdWFS.s 			page 14


 188:/opt/homebrew/Cellar/arm-none-eabi-gcc/10.3-2021.07/gcc/arm-none-eabi/include/c++/10.3.1/bits/stl_algobase.h ****    *  @ingroup mutating_algorithms
 189:/opt/homebrew/Cellar/arm-none-eabi-gcc/10.3-2021.07/gcc/arm-none-eabi/include/c++/10.3.1/bits/stl_algobase.h ****    *  @param  __first1  A forward iterator.
 190:/opt/homebrew/Cellar/arm-none-eabi-gcc/10.3-2021.07/gcc/arm-none-eabi/include/c++/10.3.1/bits/stl_algobase.h ****    *  @param  __last1   A forward iterator.
 191:/opt/homebrew/Cellar/arm-none-eabi-gcc/10.3-2021.07/gcc/arm-none-eabi/include/c++/10.3.1/bits/stl_algobase.h ****    *  @param  __first2  A forward iterator.
 192:/opt/homebrew/Cellar/arm-none-eabi-gcc/10.3-2021.07/gcc/arm-none-eabi/include/c++/10.3.1/bits/stl_algobase.h ****    *  @return   An iterator equal to @p first2+(last1-first1).
 193:/opt/homebrew/Cellar/arm-none-eabi-gcc/10.3-2021.07/gcc/arm-none-eabi/include/c++/10.3.1/bits/stl_algobase.h ****    *
 194:/opt/homebrew/Cellar/arm-none-eabi-gcc/10.3-2021.07/gcc/arm-none-eabi/include/c++/10.3.1/bits/stl_algobase.h ****    *  Swaps each element in the range @p [first1,last1) with the
 195:/opt/homebrew/Cellar/arm-none-eabi-gcc/10.3-2021.07/gcc/arm-none-eabi/include/c++/10.3.1/bits/stl_algobase.h ****    *  corresponding element in the range @p [first2,(last1-first1)).
 196:/opt/homebrew/Cellar/arm-none-eabi-gcc/10.3-2021.07/gcc/arm-none-eabi/include/c++/10.3.1/bits/stl_algobase.h ****    *  The ranges must not overlap.
 197:/opt/homebrew/Cellar/arm-none-eabi-gcc/10.3-2021.07/gcc/arm-none-eabi/include/c++/10.3.1/bits/stl_algobase.h ****   */
 198:/opt/homebrew/Cellar/arm-none-eabi-gcc/10.3-2021.07/gcc/arm-none-eabi/include/c++/10.3.1/bits/stl_algobase.h ****   template<typename _ForwardIterator1, typename _ForwardIterator2>
 199:/opt/homebrew/Cellar/arm-none-eabi-gcc/10.3-2021.07/gcc/arm-none-eabi/include/c++/10.3.1/bits/stl_algobase.h ****     _GLIBCXX20_CONSTEXPR
 200:/opt/homebrew/Cellar/arm-none-eabi-gcc/10.3-2021.07/gcc/arm-none-eabi/include/c++/10.3.1/bits/stl_algobase.h ****     _ForwardIterator2
 201:/opt/homebrew/Cellar/arm-none-eabi-gcc/10.3-2021.07/gcc/arm-none-eabi/include/c++/10.3.1/bits/stl_algobase.h ****     swap_ranges(_ForwardIterator1 __first1, _ForwardIterator1 __last1,
 202:/opt/homebrew/Cellar/arm-none-eabi-gcc/10.3-2021.07/gcc/arm-none-eabi/include/c++/10.3.1/bits/stl_algobase.h **** 		_ForwardIterator2 __first2)
 203:/opt/homebrew/Cellar/arm-none-eabi-gcc/10.3-2021.07/gcc/arm-none-eabi/include/c++/10.3.1/bits/stl_algobase.h ****     {
 204:/opt/homebrew/Cellar/arm-none-eabi-gcc/10.3-2021.07/gcc/arm-none-eabi/include/c++/10.3.1/bits/stl_algobase.h ****       // concept requirements
 205:/opt/homebrew/Cellar/arm-none-eabi-gcc/10.3-2021.07/gcc/arm-none-eabi/include/c++/10.3.1/bits/stl_algobase.h ****       __glibcxx_function_requires(_Mutable_ForwardIteratorConcept<
 206:/opt/homebrew/Cellar/arm-none-eabi-gcc/10.3-2021.07/gcc/arm-none-eabi/include/c++/10.3.1/bits/stl_algobase.h **** 				  _ForwardIterator1>)
 207:/opt/homebrew/Cellar/arm-none-eabi-gcc/10.3-2021.07/gcc/arm-none-eabi/include/c++/10.3.1/bits/stl_algobase.h ****       __glibcxx_function_requires(_Mutable_ForwardIteratorConcept<
 208:/opt/homebrew/Cellar/arm-none-eabi-gcc/10.3-2021.07/gcc/arm-none-eabi/include/c++/10.3.1/bits/stl_algobase.h **** 				  _ForwardIterator2>)
 209:/opt/homebrew/Cellar/arm-none-eabi-gcc/10.3-2021.07/gcc/arm-none-eabi/include/c++/10.3.1/bits/stl_algobase.h ****       __glibcxx_requires_valid_range(__first1, __last1);
 210:/opt/homebrew/Cellar/arm-none-eabi-gcc/10.3-2021.07/gcc/arm-none-eabi/include/c++/10.3.1/bits/stl_algobase.h **** 
 211:/opt/homebrew/Cellar/arm-none-eabi-gcc/10.3-2021.07/gcc/arm-none-eabi/include/c++/10.3.1/bits/stl_algobase.h ****       for (; __first1 != __last1; ++__first1, (void)++__first2)
 212:/opt/homebrew/Cellar/arm-none-eabi-gcc/10.3-2021.07/gcc/arm-none-eabi/include/c++/10.3.1/bits/stl_algobase.h **** 	std::iter_swap(__first1, __first2);
 213:/opt/homebrew/Cellar/arm-none-eabi-gcc/10.3-2021.07/gcc/arm-none-eabi/include/c++/10.3.1/bits/stl_algobase.h ****       return __first2;
 214:/opt/homebrew/Cellar/arm-none-eabi-gcc/10.3-2021.07/gcc/arm-none-eabi/include/c++/10.3.1/bits/stl_algobase.h ****     }
 215:/opt/homebrew/Cellar/arm-none-eabi-gcc/10.3-2021.07/gcc/arm-none-eabi/include/c++/10.3.1/bits/stl_algobase.h **** 
 216:/opt/homebrew/Cellar/arm-none-eabi-gcc/10.3-2021.07/gcc/arm-none-eabi/include/c++/10.3.1/bits/stl_algobase.h ****   /**
 217:/opt/homebrew/Cellar/arm-none-eabi-gcc/10.3-2021.07/gcc/arm-none-eabi/include/c++/10.3.1/bits/stl_algobase.h ****    *  @brief This does what you think it does.
 218:/opt/homebrew/Cellar/arm-none-eabi-gcc/10.3-2021.07/gcc/arm-none-eabi/include/c++/10.3.1/bits/stl_algobase.h ****    *  @ingroup sorting_algorithms
 219:/opt/homebrew/Cellar/arm-none-eabi-gcc/10.3-2021.07/gcc/arm-none-eabi/include/c++/10.3.1/bits/stl_algobase.h ****    *  @param  __a  A thing of arbitrary type.
 220:/opt/homebrew/Cellar/arm-none-eabi-gcc/10.3-2021.07/gcc/arm-none-eabi/include/c++/10.3.1/bits/stl_algobase.h ****    *  @param  __b  Another thing of arbitrary type.
 221:/opt/homebrew/Cellar/arm-none-eabi-gcc/10.3-2021.07/gcc/arm-none-eabi/include/c++/10.3.1/bits/stl_algobase.h ****    *  @return   The lesser of the parameters.
 222:/opt/homebrew/Cellar/arm-none-eabi-gcc/10.3-2021.07/gcc/arm-none-eabi/include/c++/10.3.1/bits/stl_algobase.h ****    *
 223:/opt/homebrew/Cellar/arm-none-eabi-gcc/10.3-2021.07/gcc/arm-none-eabi/include/c++/10.3.1/bits/stl_algobase.h ****    *  This is the simple classic generic implementation.  It will work on
 224:/opt/homebrew/Cellar/arm-none-eabi-gcc/10.3-2021.07/gcc/arm-none-eabi/include/c++/10.3.1/bits/stl_algobase.h ****    *  temporary expressions, since they are only evaluated once, unlike a
 225:/opt/homebrew/Cellar/arm-none-eabi-gcc/10.3-2021.07/gcc/arm-none-eabi/include/c++/10.3.1/bits/stl_algobase.h ****    *  preprocessor macro.
 226:/opt/homebrew/Cellar/arm-none-eabi-gcc/10.3-2021.07/gcc/arm-none-eabi/include/c++/10.3.1/bits/stl_algobase.h ****   */
 227:/opt/homebrew/Cellar/arm-none-eabi-gcc/10.3-2021.07/gcc/arm-none-eabi/include/c++/10.3.1/bits/stl_algobase.h ****   template<typename _Tp>
 228:/opt/homebrew/Cellar/arm-none-eabi-gcc/10.3-2021.07/gcc/arm-none-eabi/include/c++/10.3.1/bits/stl_algobase.h ****     _GLIBCXX14_CONSTEXPR
 229:/opt/homebrew/Cellar/arm-none-eabi-gcc/10.3-2021.07/gcc/arm-none-eabi/include/c++/10.3.1/bits/stl_algobase.h ****     inline const _Tp&
 230:/opt/homebrew/Cellar/arm-none-eabi-gcc/10.3-2021.07/gcc/arm-none-eabi/include/c++/10.3.1/bits/stl_algobase.h ****     min(const _Tp& __a, const _Tp& __b)
 231:/opt/homebrew/Cellar/arm-none-eabi-gcc/10.3-2021.07/gcc/arm-none-eabi/include/c++/10.3.1/bits/stl_algobase.h ****     {
 232:/opt/homebrew/Cellar/arm-none-eabi-gcc/10.3-2021.07/gcc/arm-none-eabi/include/c++/10.3.1/bits/stl_algobase.h ****       // concept requirements
 233:/opt/homebrew/Cellar/arm-none-eabi-gcc/10.3-2021.07/gcc/arm-none-eabi/include/c++/10.3.1/bits/stl_algobase.h ****       __glibcxx_function_requires(_LessThanComparableConcept<_Tp>)
 234:/opt/homebrew/Cellar/arm-none-eabi-gcc/10.3-2021.07/gcc/arm-none-eabi/include/c++/10.3.1/bits/stl_algobase.h ****       //return __b < __a ? __b : __a;
 235:/opt/homebrew/Cellar/arm-none-eabi-gcc/10.3-2021.07/gcc/arm-none-eabi/include/c++/10.3.1/bits/stl_algobase.h ****       if (__b < __a)
 236:/opt/homebrew/Cellar/arm-none-eabi-gcc/10.3-2021.07/gcc/arm-none-eabi/include/c++/10.3.1/bits/stl_algobase.h **** 	return __b;
 237:/opt/homebrew/Cellar/arm-none-eabi-gcc/10.3-2021.07/gcc/arm-none-eabi/include/c++/10.3.1/bits/stl_algobase.h ****       return __a;
 238:/opt/homebrew/Cellar/arm-none-eabi-gcc/10.3-2021.07/gcc/arm-none-eabi/include/c++/10.3.1/bits/stl_algobase.h ****     }
 239:/opt/homebrew/Cellar/arm-none-eabi-gcc/10.3-2021.07/gcc/arm-none-eabi/include/c++/10.3.1/bits/stl_algobase.h **** 
 240:/opt/homebrew/Cellar/arm-none-eabi-gcc/10.3-2021.07/gcc/arm-none-eabi/include/c++/10.3.1/bits/stl_algobase.h ****   /**
 241:/opt/homebrew/Cellar/arm-none-eabi-gcc/10.3-2021.07/gcc/arm-none-eabi/include/c++/10.3.1/bits/stl_algobase.h ****    *  @brief This does what you think it does.
 242:/opt/homebrew/Cellar/arm-none-eabi-gcc/10.3-2021.07/gcc/arm-none-eabi/include/c++/10.3.1/bits/stl_algobase.h ****    *  @ingroup sorting_algorithms
 243:/opt/homebrew/Cellar/arm-none-eabi-gcc/10.3-2021.07/gcc/arm-none-eabi/include/c++/10.3.1/bits/stl_algobase.h ****    *  @param  __a  A thing of arbitrary type.
 244:/opt/homebrew/Cellar/arm-none-eabi-gcc/10.3-2021.07/gcc/arm-none-eabi/include/c++/10.3.1/bits/stl_algobase.h ****    *  @param  __b  Another thing of arbitrary type.
ARM GAS  /var/folders/hl/qgbwny5j0fd895c2c41bk3tw0000gp/T//cc6AdWFS.s 			page 15


 245:/opt/homebrew/Cellar/arm-none-eabi-gcc/10.3-2021.07/gcc/arm-none-eabi/include/c++/10.3.1/bits/stl_algobase.h ****    *  @return   The greater of the parameters.
 246:/opt/homebrew/Cellar/arm-none-eabi-gcc/10.3-2021.07/gcc/arm-none-eabi/include/c++/10.3.1/bits/stl_algobase.h ****    *
 247:/opt/homebrew/Cellar/arm-none-eabi-gcc/10.3-2021.07/gcc/arm-none-eabi/include/c++/10.3.1/bits/stl_algobase.h ****    *  This is the simple classic generic implementation.  It will work on
 248:/opt/homebrew/Cellar/arm-none-eabi-gcc/10.3-2021.07/gcc/arm-none-eabi/include/c++/10.3.1/bits/stl_algobase.h ****    *  temporary expressions, since they are only evaluated once, unlike a
 249:/opt/homebrew/Cellar/arm-none-eabi-gcc/10.3-2021.07/gcc/arm-none-eabi/include/c++/10.3.1/bits/stl_algobase.h ****    *  preprocessor macro.
 250:/opt/homebrew/Cellar/arm-none-eabi-gcc/10.3-2021.07/gcc/arm-none-eabi/include/c++/10.3.1/bits/stl_algobase.h ****   */
 251:/opt/homebrew/Cellar/arm-none-eabi-gcc/10.3-2021.07/gcc/arm-none-eabi/include/c++/10.3.1/bits/stl_algobase.h ****   template<typename _Tp>
 252:/opt/homebrew/Cellar/arm-none-eabi-gcc/10.3-2021.07/gcc/arm-none-eabi/include/c++/10.3.1/bits/stl_algobase.h ****     _GLIBCXX14_CONSTEXPR
 253:/opt/homebrew/Cellar/arm-none-eabi-gcc/10.3-2021.07/gcc/arm-none-eabi/include/c++/10.3.1/bits/stl_algobase.h ****     inline const _Tp&
 254:/opt/homebrew/Cellar/arm-none-eabi-gcc/10.3-2021.07/gcc/arm-none-eabi/include/c++/10.3.1/bits/stl_algobase.h ****     max(const _Tp& __a, const _Tp& __b)
 255:/opt/homebrew/Cellar/arm-none-eabi-gcc/10.3-2021.07/gcc/arm-none-eabi/include/c++/10.3.1/bits/stl_algobase.h ****     {
 256:/opt/homebrew/Cellar/arm-none-eabi-gcc/10.3-2021.07/gcc/arm-none-eabi/include/c++/10.3.1/bits/stl_algobase.h ****       // concept requirements
 257:/opt/homebrew/Cellar/arm-none-eabi-gcc/10.3-2021.07/gcc/arm-none-eabi/include/c++/10.3.1/bits/stl_algobase.h ****       __glibcxx_function_requires(_LessThanComparableConcept<_Tp>)
 258:/opt/homebrew/Cellar/arm-none-eabi-gcc/10.3-2021.07/gcc/arm-none-eabi/include/c++/10.3.1/bits/stl_algobase.h ****       //return  __a < __b ? __b : __a;
 259:/opt/homebrew/Cellar/arm-none-eabi-gcc/10.3-2021.07/gcc/arm-none-eabi/include/c++/10.3.1/bits/stl_algobase.h ****       if (__a < __b)
 260:/opt/homebrew/Cellar/arm-none-eabi-gcc/10.3-2021.07/gcc/arm-none-eabi/include/c++/10.3.1/bits/stl_algobase.h **** 	return __b;
 261:/opt/homebrew/Cellar/arm-none-eabi-gcc/10.3-2021.07/gcc/arm-none-eabi/include/c++/10.3.1/bits/stl_algobase.h ****       return __a;
 262:/opt/homebrew/Cellar/arm-none-eabi-gcc/10.3-2021.07/gcc/arm-none-eabi/include/c++/10.3.1/bits/stl_algobase.h ****     }
 263:/opt/homebrew/Cellar/arm-none-eabi-gcc/10.3-2021.07/gcc/arm-none-eabi/include/c++/10.3.1/bits/stl_algobase.h **** 
 264:/opt/homebrew/Cellar/arm-none-eabi-gcc/10.3-2021.07/gcc/arm-none-eabi/include/c++/10.3.1/bits/stl_algobase.h ****   /**
 265:/opt/homebrew/Cellar/arm-none-eabi-gcc/10.3-2021.07/gcc/arm-none-eabi/include/c++/10.3.1/bits/stl_algobase.h ****    *  @brief This does what you think it does.
 266:/opt/homebrew/Cellar/arm-none-eabi-gcc/10.3-2021.07/gcc/arm-none-eabi/include/c++/10.3.1/bits/stl_algobase.h ****    *  @ingroup sorting_algorithms
 267:/opt/homebrew/Cellar/arm-none-eabi-gcc/10.3-2021.07/gcc/arm-none-eabi/include/c++/10.3.1/bits/stl_algobase.h ****    *  @param  __a  A thing of arbitrary type.
 268:/opt/homebrew/Cellar/arm-none-eabi-gcc/10.3-2021.07/gcc/arm-none-eabi/include/c++/10.3.1/bits/stl_algobase.h ****    *  @param  __b  Another thing of arbitrary type.
 269:/opt/homebrew/Cellar/arm-none-eabi-gcc/10.3-2021.07/gcc/arm-none-eabi/include/c++/10.3.1/bits/stl_algobase.h ****    *  @param  __comp  A @link comparison_functors comparison functor@endlink.
 270:/opt/homebrew/Cellar/arm-none-eabi-gcc/10.3-2021.07/gcc/arm-none-eabi/include/c++/10.3.1/bits/stl_algobase.h ****    *  @return   The lesser of the parameters.
 271:/opt/homebrew/Cellar/arm-none-eabi-gcc/10.3-2021.07/gcc/arm-none-eabi/include/c++/10.3.1/bits/stl_algobase.h ****    *
 272:/opt/homebrew/Cellar/arm-none-eabi-gcc/10.3-2021.07/gcc/arm-none-eabi/include/c++/10.3.1/bits/stl_algobase.h ****    *  This will work on temporary expressions, since they are only evaluated
 273:/opt/homebrew/Cellar/arm-none-eabi-gcc/10.3-2021.07/gcc/arm-none-eabi/include/c++/10.3.1/bits/stl_algobase.h ****    *  once, unlike a preprocessor macro.
 274:/opt/homebrew/Cellar/arm-none-eabi-gcc/10.3-2021.07/gcc/arm-none-eabi/include/c++/10.3.1/bits/stl_algobase.h ****   */
 275:/opt/homebrew/Cellar/arm-none-eabi-gcc/10.3-2021.07/gcc/arm-none-eabi/include/c++/10.3.1/bits/stl_algobase.h ****   template<typename _Tp, typename _Compare>
 276:/opt/homebrew/Cellar/arm-none-eabi-gcc/10.3-2021.07/gcc/arm-none-eabi/include/c++/10.3.1/bits/stl_algobase.h ****     _GLIBCXX14_CONSTEXPR
 277:/opt/homebrew/Cellar/arm-none-eabi-gcc/10.3-2021.07/gcc/arm-none-eabi/include/c++/10.3.1/bits/stl_algobase.h ****     inline const _Tp&
 278:/opt/homebrew/Cellar/arm-none-eabi-gcc/10.3-2021.07/gcc/arm-none-eabi/include/c++/10.3.1/bits/stl_algobase.h ****     min(const _Tp& __a, const _Tp& __b, _Compare __comp)
 279:/opt/homebrew/Cellar/arm-none-eabi-gcc/10.3-2021.07/gcc/arm-none-eabi/include/c++/10.3.1/bits/stl_algobase.h ****     {
 280:/opt/homebrew/Cellar/arm-none-eabi-gcc/10.3-2021.07/gcc/arm-none-eabi/include/c++/10.3.1/bits/stl_algobase.h ****       //return __comp(__b, __a) ? __b : __a;
 281:/opt/homebrew/Cellar/arm-none-eabi-gcc/10.3-2021.07/gcc/arm-none-eabi/include/c++/10.3.1/bits/stl_algobase.h ****       if (__comp(__b, __a))
 282:/opt/homebrew/Cellar/arm-none-eabi-gcc/10.3-2021.07/gcc/arm-none-eabi/include/c++/10.3.1/bits/stl_algobase.h **** 	return __b;
 283:/opt/homebrew/Cellar/arm-none-eabi-gcc/10.3-2021.07/gcc/arm-none-eabi/include/c++/10.3.1/bits/stl_algobase.h ****       return __a;
 284:/opt/homebrew/Cellar/arm-none-eabi-gcc/10.3-2021.07/gcc/arm-none-eabi/include/c++/10.3.1/bits/stl_algobase.h ****     }
 285:/opt/homebrew/Cellar/arm-none-eabi-gcc/10.3-2021.07/gcc/arm-none-eabi/include/c++/10.3.1/bits/stl_algobase.h **** 
 286:/opt/homebrew/Cellar/arm-none-eabi-gcc/10.3-2021.07/gcc/arm-none-eabi/include/c++/10.3.1/bits/stl_algobase.h ****   /**
 287:/opt/homebrew/Cellar/arm-none-eabi-gcc/10.3-2021.07/gcc/arm-none-eabi/include/c++/10.3.1/bits/stl_algobase.h ****    *  @brief This does what you think it does.
 288:/opt/homebrew/Cellar/arm-none-eabi-gcc/10.3-2021.07/gcc/arm-none-eabi/include/c++/10.3.1/bits/stl_algobase.h ****    *  @ingroup sorting_algorithms
 289:/opt/homebrew/Cellar/arm-none-eabi-gcc/10.3-2021.07/gcc/arm-none-eabi/include/c++/10.3.1/bits/stl_algobase.h ****    *  @param  __a  A thing of arbitrary type.
 290:/opt/homebrew/Cellar/arm-none-eabi-gcc/10.3-2021.07/gcc/arm-none-eabi/include/c++/10.3.1/bits/stl_algobase.h ****    *  @param  __b  Another thing of arbitrary type.
 291:/opt/homebrew/Cellar/arm-none-eabi-gcc/10.3-2021.07/gcc/arm-none-eabi/include/c++/10.3.1/bits/stl_algobase.h ****    *  @param  __comp  A @link comparison_functors comparison functor@endlink.
 292:/opt/homebrew/Cellar/arm-none-eabi-gcc/10.3-2021.07/gcc/arm-none-eabi/include/c++/10.3.1/bits/stl_algobase.h ****    *  @return   The greater of the parameters.
 293:/opt/homebrew/Cellar/arm-none-eabi-gcc/10.3-2021.07/gcc/arm-none-eabi/include/c++/10.3.1/bits/stl_algobase.h ****    *
 294:/opt/homebrew/Cellar/arm-none-eabi-gcc/10.3-2021.07/gcc/arm-none-eabi/include/c++/10.3.1/bits/stl_algobase.h ****    *  This will work on temporary expressions, since they are only evaluated
 295:/opt/homebrew/Cellar/arm-none-eabi-gcc/10.3-2021.07/gcc/arm-none-eabi/include/c++/10.3.1/bits/stl_algobase.h ****    *  once, unlike a preprocessor macro.
 296:/opt/homebrew/Cellar/arm-none-eabi-gcc/10.3-2021.07/gcc/arm-none-eabi/include/c++/10.3.1/bits/stl_algobase.h ****   */
 297:/opt/homebrew/Cellar/arm-none-eabi-gcc/10.3-2021.07/gcc/arm-none-eabi/include/c++/10.3.1/bits/stl_algobase.h ****   template<typename _Tp, typename _Compare>
 298:/opt/homebrew/Cellar/arm-none-eabi-gcc/10.3-2021.07/gcc/arm-none-eabi/include/c++/10.3.1/bits/stl_algobase.h ****     _GLIBCXX14_CONSTEXPR
 299:/opt/homebrew/Cellar/arm-none-eabi-gcc/10.3-2021.07/gcc/arm-none-eabi/include/c++/10.3.1/bits/stl_algobase.h ****     inline const _Tp&
 300:/opt/homebrew/Cellar/arm-none-eabi-gcc/10.3-2021.07/gcc/arm-none-eabi/include/c++/10.3.1/bits/stl_algobase.h ****     max(const _Tp& __a, const _Tp& __b, _Compare __comp)
 301:/opt/homebrew/Cellar/arm-none-eabi-gcc/10.3-2021.07/gcc/arm-none-eabi/include/c++/10.3.1/bits/stl_algobase.h ****     {
ARM GAS  /var/folders/hl/qgbwny5j0fd895c2c41bk3tw0000gp/T//cc6AdWFS.s 			page 16


 302:/opt/homebrew/Cellar/arm-none-eabi-gcc/10.3-2021.07/gcc/arm-none-eabi/include/c++/10.3.1/bits/stl_algobase.h ****       //return __comp(__a, __b) ? __b : __a;
 303:/opt/homebrew/Cellar/arm-none-eabi-gcc/10.3-2021.07/gcc/arm-none-eabi/include/c++/10.3.1/bits/stl_algobase.h ****       if (__comp(__a, __b))
 304:/opt/homebrew/Cellar/arm-none-eabi-gcc/10.3-2021.07/gcc/arm-none-eabi/include/c++/10.3.1/bits/stl_algobase.h **** 	return __b;
 305:/opt/homebrew/Cellar/arm-none-eabi-gcc/10.3-2021.07/gcc/arm-none-eabi/include/c++/10.3.1/bits/stl_algobase.h ****       return __a;
 306:/opt/homebrew/Cellar/arm-none-eabi-gcc/10.3-2021.07/gcc/arm-none-eabi/include/c++/10.3.1/bits/stl_algobase.h ****     }
 307:/opt/homebrew/Cellar/arm-none-eabi-gcc/10.3-2021.07/gcc/arm-none-eabi/include/c++/10.3.1/bits/stl_algobase.h **** 
 308:/opt/homebrew/Cellar/arm-none-eabi-gcc/10.3-2021.07/gcc/arm-none-eabi/include/c++/10.3.1/bits/stl_algobase.h ****   // Fallback implementation of the function in bits/stl_iterator.h used to
 309:/opt/homebrew/Cellar/arm-none-eabi-gcc/10.3-2021.07/gcc/arm-none-eabi/include/c++/10.3.1/bits/stl_algobase.h ****   // remove the __normal_iterator wrapper. See copy, fill, ...
 310:/opt/homebrew/Cellar/arm-none-eabi-gcc/10.3-2021.07/gcc/arm-none-eabi/include/c++/10.3.1/bits/stl_algobase.h ****   template<typename _Iterator>
 311:/opt/homebrew/Cellar/arm-none-eabi-gcc/10.3-2021.07/gcc/arm-none-eabi/include/c++/10.3.1/bits/stl_algobase.h ****     _GLIBCXX20_CONSTEXPR
 312:/opt/homebrew/Cellar/arm-none-eabi-gcc/10.3-2021.07/gcc/arm-none-eabi/include/c++/10.3.1/bits/stl_algobase.h ****     inline _Iterator
 313:/opt/homebrew/Cellar/arm-none-eabi-gcc/10.3-2021.07/gcc/arm-none-eabi/include/c++/10.3.1/bits/stl_algobase.h ****     __niter_base(_Iterator __it)
 314:/opt/homebrew/Cellar/arm-none-eabi-gcc/10.3-2021.07/gcc/arm-none-eabi/include/c++/10.3.1/bits/stl_algobase.h ****     _GLIBCXX_NOEXCEPT_IF(std::is_nothrow_copy_constructible<_Iterator>::value)
 315:/opt/homebrew/Cellar/arm-none-eabi-gcc/10.3-2021.07/gcc/arm-none-eabi/include/c++/10.3.1/bits/stl_algobase.h ****     { return __it; }
 316:/opt/homebrew/Cellar/arm-none-eabi-gcc/10.3-2021.07/gcc/arm-none-eabi/include/c++/10.3.1/bits/stl_algobase.h **** 
 317:/opt/homebrew/Cellar/arm-none-eabi-gcc/10.3-2021.07/gcc/arm-none-eabi/include/c++/10.3.1/bits/stl_algobase.h ****   // Reverse the __niter_base transformation to get a
 318:/opt/homebrew/Cellar/arm-none-eabi-gcc/10.3-2021.07/gcc/arm-none-eabi/include/c++/10.3.1/bits/stl_algobase.h ****   // __normal_iterator back again (this assumes that __normal_iterator
 319:/opt/homebrew/Cellar/arm-none-eabi-gcc/10.3-2021.07/gcc/arm-none-eabi/include/c++/10.3.1/bits/stl_algobase.h ****   // is only used to wrap random access iterators, like pointers).
 320:/opt/homebrew/Cellar/arm-none-eabi-gcc/10.3-2021.07/gcc/arm-none-eabi/include/c++/10.3.1/bits/stl_algobase.h ****   template<typename _From, typename _To>
 321:/opt/homebrew/Cellar/arm-none-eabi-gcc/10.3-2021.07/gcc/arm-none-eabi/include/c++/10.3.1/bits/stl_algobase.h ****     _GLIBCXX20_CONSTEXPR
 322:/opt/homebrew/Cellar/arm-none-eabi-gcc/10.3-2021.07/gcc/arm-none-eabi/include/c++/10.3.1/bits/stl_algobase.h ****     inline _From
 323:/opt/homebrew/Cellar/arm-none-eabi-gcc/10.3-2021.07/gcc/arm-none-eabi/include/c++/10.3.1/bits/stl_algobase.h ****     __niter_wrap(_From __from, _To __res)
 324:/opt/homebrew/Cellar/arm-none-eabi-gcc/10.3-2021.07/gcc/arm-none-eabi/include/c++/10.3.1/bits/stl_algobase.h ****     { return __from + (__res - std::__niter_base(__from)); }
 325:/opt/homebrew/Cellar/arm-none-eabi-gcc/10.3-2021.07/gcc/arm-none-eabi/include/c++/10.3.1/bits/stl_algobase.h **** 
 326:/opt/homebrew/Cellar/arm-none-eabi-gcc/10.3-2021.07/gcc/arm-none-eabi/include/c++/10.3.1/bits/stl_algobase.h ****   // No need to wrap, iterator already has the right type.
 327:/opt/homebrew/Cellar/arm-none-eabi-gcc/10.3-2021.07/gcc/arm-none-eabi/include/c++/10.3.1/bits/stl_algobase.h ****   template<typename _Iterator>
 328:/opt/homebrew/Cellar/arm-none-eabi-gcc/10.3-2021.07/gcc/arm-none-eabi/include/c++/10.3.1/bits/stl_algobase.h ****     _GLIBCXX20_CONSTEXPR
 329:/opt/homebrew/Cellar/arm-none-eabi-gcc/10.3-2021.07/gcc/arm-none-eabi/include/c++/10.3.1/bits/stl_algobase.h ****     inline _Iterator
 330:/opt/homebrew/Cellar/arm-none-eabi-gcc/10.3-2021.07/gcc/arm-none-eabi/include/c++/10.3.1/bits/stl_algobase.h ****     __niter_wrap(const _Iterator&, _Iterator __res)
 331:/opt/homebrew/Cellar/arm-none-eabi-gcc/10.3-2021.07/gcc/arm-none-eabi/include/c++/10.3.1/bits/stl_algobase.h ****     { return __res; }
 332:/opt/homebrew/Cellar/arm-none-eabi-gcc/10.3-2021.07/gcc/arm-none-eabi/include/c++/10.3.1/bits/stl_algobase.h **** 
 333:/opt/homebrew/Cellar/arm-none-eabi-gcc/10.3-2021.07/gcc/arm-none-eabi/include/c++/10.3.1/bits/stl_algobase.h ****   // All of these auxiliary structs serve two purposes.  (1) Replace
 334:/opt/homebrew/Cellar/arm-none-eabi-gcc/10.3-2021.07/gcc/arm-none-eabi/include/c++/10.3.1/bits/stl_algobase.h ****   // calls to copy with memmove whenever possible.  (Memmove, not memcpy,
 335:/opt/homebrew/Cellar/arm-none-eabi-gcc/10.3-2021.07/gcc/arm-none-eabi/include/c++/10.3.1/bits/stl_algobase.h ****   // because the input and output ranges are permitted to overlap.)
 336:/opt/homebrew/Cellar/arm-none-eabi-gcc/10.3-2021.07/gcc/arm-none-eabi/include/c++/10.3.1/bits/stl_algobase.h ****   // (2) If we're using random access iterators, then write the loop as
 337:/opt/homebrew/Cellar/arm-none-eabi-gcc/10.3-2021.07/gcc/arm-none-eabi/include/c++/10.3.1/bits/stl_algobase.h ****   // a for loop with an explicit count.
 338:/opt/homebrew/Cellar/arm-none-eabi-gcc/10.3-2021.07/gcc/arm-none-eabi/include/c++/10.3.1/bits/stl_algobase.h **** 
 339:/opt/homebrew/Cellar/arm-none-eabi-gcc/10.3-2021.07/gcc/arm-none-eabi/include/c++/10.3.1/bits/stl_algobase.h ****   template<bool _IsMove, bool _IsSimple, typename _Category>
 340:/opt/homebrew/Cellar/arm-none-eabi-gcc/10.3-2021.07/gcc/arm-none-eabi/include/c++/10.3.1/bits/stl_algobase.h ****     struct __copy_move
 341:/opt/homebrew/Cellar/arm-none-eabi-gcc/10.3-2021.07/gcc/arm-none-eabi/include/c++/10.3.1/bits/stl_algobase.h ****     {
 342:/opt/homebrew/Cellar/arm-none-eabi-gcc/10.3-2021.07/gcc/arm-none-eabi/include/c++/10.3.1/bits/stl_algobase.h ****       template<typename _II, typename _OI>
 343:/opt/homebrew/Cellar/arm-none-eabi-gcc/10.3-2021.07/gcc/arm-none-eabi/include/c++/10.3.1/bits/stl_algobase.h **** 	_GLIBCXX20_CONSTEXPR
 344:/opt/homebrew/Cellar/arm-none-eabi-gcc/10.3-2021.07/gcc/arm-none-eabi/include/c++/10.3.1/bits/stl_algobase.h **** 	static _OI
 345:/opt/homebrew/Cellar/arm-none-eabi-gcc/10.3-2021.07/gcc/arm-none-eabi/include/c++/10.3.1/bits/stl_algobase.h **** 	__copy_m(_II __first, _II __last, _OI __result)
 346:/opt/homebrew/Cellar/arm-none-eabi-gcc/10.3-2021.07/gcc/arm-none-eabi/include/c++/10.3.1/bits/stl_algobase.h **** 	{
 347:/opt/homebrew/Cellar/arm-none-eabi-gcc/10.3-2021.07/gcc/arm-none-eabi/include/c++/10.3.1/bits/stl_algobase.h **** 	  for (; __first != __last; ++__result, (void)++__first)
 348:/opt/homebrew/Cellar/arm-none-eabi-gcc/10.3-2021.07/gcc/arm-none-eabi/include/c++/10.3.1/bits/stl_algobase.h **** 	    *__result = *__first;
 349:/opt/homebrew/Cellar/arm-none-eabi-gcc/10.3-2021.07/gcc/arm-none-eabi/include/c++/10.3.1/bits/stl_algobase.h **** 	  return __result;
 350:/opt/homebrew/Cellar/arm-none-eabi-gcc/10.3-2021.07/gcc/arm-none-eabi/include/c++/10.3.1/bits/stl_algobase.h **** 	}
 351:/opt/homebrew/Cellar/arm-none-eabi-gcc/10.3-2021.07/gcc/arm-none-eabi/include/c++/10.3.1/bits/stl_algobase.h ****     };
 352:/opt/homebrew/Cellar/arm-none-eabi-gcc/10.3-2021.07/gcc/arm-none-eabi/include/c++/10.3.1/bits/stl_algobase.h **** 
 353:/opt/homebrew/Cellar/arm-none-eabi-gcc/10.3-2021.07/gcc/arm-none-eabi/include/c++/10.3.1/bits/stl_algobase.h **** #if __cplusplus >= 201103L
 354:/opt/homebrew/Cellar/arm-none-eabi-gcc/10.3-2021.07/gcc/arm-none-eabi/include/c++/10.3.1/bits/stl_algobase.h ****   template<typename _Category>
 355:/opt/homebrew/Cellar/arm-none-eabi-gcc/10.3-2021.07/gcc/arm-none-eabi/include/c++/10.3.1/bits/stl_algobase.h ****     struct __copy_move<true, false, _Category>
 356:/opt/homebrew/Cellar/arm-none-eabi-gcc/10.3-2021.07/gcc/arm-none-eabi/include/c++/10.3.1/bits/stl_algobase.h ****     {
 357:/opt/homebrew/Cellar/arm-none-eabi-gcc/10.3-2021.07/gcc/arm-none-eabi/include/c++/10.3.1/bits/stl_algobase.h ****       template<typename _II, typename _OI>
 358:/opt/homebrew/Cellar/arm-none-eabi-gcc/10.3-2021.07/gcc/arm-none-eabi/include/c++/10.3.1/bits/stl_algobase.h **** 	_GLIBCXX20_CONSTEXPR
ARM GAS  /var/folders/hl/qgbwny5j0fd895c2c41bk3tw0000gp/T//cc6AdWFS.s 			page 17


 359:/opt/homebrew/Cellar/arm-none-eabi-gcc/10.3-2021.07/gcc/arm-none-eabi/include/c++/10.3.1/bits/stl_algobase.h **** 	static _OI
 360:/opt/homebrew/Cellar/arm-none-eabi-gcc/10.3-2021.07/gcc/arm-none-eabi/include/c++/10.3.1/bits/stl_algobase.h **** 	__copy_m(_II __first, _II __last, _OI __result)
 361:/opt/homebrew/Cellar/arm-none-eabi-gcc/10.3-2021.07/gcc/arm-none-eabi/include/c++/10.3.1/bits/stl_algobase.h **** 	{
 362:/opt/homebrew/Cellar/arm-none-eabi-gcc/10.3-2021.07/gcc/arm-none-eabi/include/c++/10.3.1/bits/stl_algobase.h **** 	  for (; __first != __last; ++__result, (void)++__first)
 363:/opt/homebrew/Cellar/arm-none-eabi-gcc/10.3-2021.07/gcc/arm-none-eabi/include/c++/10.3.1/bits/stl_algobase.h **** 	    *__result = std::move(*__first);
 364:/opt/homebrew/Cellar/arm-none-eabi-gcc/10.3-2021.07/gcc/arm-none-eabi/include/c++/10.3.1/bits/stl_algobase.h **** 	  return __result;
 365:/opt/homebrew/Cellar/arm-none-eabi-gcc/10.3-2021.07/gcc/arm-none-eabi/include/c++/10.3.1/bits/stl_algobase.h **** 	}
 366:/opt/homebrew/Cellar/arm-none-eabi-gcc/10.3-2021.07/gcc/arm-none-eabi/include/c++/10.3.1/bits/stl_algobase.h ****     };
 367:/opt/homebrew/Cellar/arm-none-eabi-gcc/10.3-2021.07/gcc/arm-none-eabi/include/c++/10.3.1/bits/stl_algobase.h **** #endif
 368:/opt/homebrew/Cellar/arm-none-eabi-gcc/10.3-2021.07/gcc/arm-none-eabi/include/c++/10.3.1/bits/stl_algobase.h **** 
 369:/opt/homebrew/Cellar/arm-none-eabi-gcc/10.3-2021.07/gcc/arm-none-eabi/include/c++/10.3.1/bits/stl_algobase.h ****   template<>
 370:/opt/homebrew/Cellar/arm-none-eabi-gcc/10.3-2021.07/gcc/arm-none-eabi/include/c++/10.3.1/bits/stl_algobase.h ****     struct __copy_move<false, false, random_access_iterator_tag>
 371:/opt/homebrew/Cellar/arm-none-eabi-gcc/10.3-2021.07/gcc/arm-none-eabi/include/c++/10.3.1/bits/stl_algobase.h ****     {
 372:/opt/homebrew/Cellar/arm-none-eabi-gcc/10.3-2021.07/gcc/arm-none-eabi/include/c++/10.3.1/bits/stl_algobase.h ****       template<typename _II, typename _OI>
 373:/opt/homebrew/Cellar/arm-none-eabi-gcc/10.3-2021.07/gcc/arm-none-eabi/include/c++/10.3.1/bits/stl_algobase.h **** 	_GLIBCXX20_CONSTEXPR
 374:/opt/homebrew/Cellar/arm-none-eabi-gcc/10.3-2021.07/gcc/arm-none-eabi/include/c++/10.3.1/bits/stl_algobase.h **** 	static _OI
 375:/opt/homebrew/Cellar/arm-none-eabi-gcc/10.3-2021.07/gcc/arm-none-eabi/include/c++/10.3.1/bits/stl_algobase.h **** 	__copy_m(_II __first, _II __last, _OI __result)
 376:/opt/homebrew/Cellar/arm-none-eabi-gcc/10.3-2021.07/gcc/arm-none-eabi/include/c++/10.3.1/bits/stl_algobase.h **** 	{
 377:/opt/homebrew/Cellar/arm-none-eabi-gcc/10.3-2021.07/gcc/arm-none-eabi/include/c++/10.3.1/bits/stl_algobase.h **** 	  typedef typename iterator_traits<_II>::difference_type _Distance;
 378:/opt/homebrew/Cellar/arm-none-eabi-gcc/10.3-2021.07/gcc/arm-none-eabi/include/c++/10.3.1/bits/stl_algobase.h **** 	  for(_Distance __n = __last - __first; __n > 0; --__n)
 379:/opt/homebrew/Cellar/arm-none-eabi-gcc/10.3-2021.07/gcc/arm-none-eabi/include/c++/10.3.1/bits/stl_algobase.h **** 	    {
 380:/opt/homebrew/Cellar/arm-none-eabi-gcc/10.3-2021.07/gcc/arm-none-eabi/include/c++/10.3.1/bits/stl_algobase.h **** 	      *__result = *__first;
 381:/opt/homebrew/Cellar/arm-none-eabi-gcc/10.3-2021.07/gcc/arm-none-eabi/include/c++/10.3.1/bits/stl_algobase.h **** 	      ++__first;
 382:/opt/homebrew/Cellar/arm-none-eabi-gcc/10.3-2021.07/gcc/arm-none-eabi/include/c++/10.3.1/bits/stl_algobase.h **** 	      ++__result;
 383:/opt/homebrew/Cellar/arm-none-eabi-gcc/10.3-2021.07/gcc/arm-none-eabi/include/c++/10.3.1/bits/stl_algobase.h **** 	    }
 384:/opt/homebrew/Cellar/arm-none-eabi-gcc/10.3-2021.07/gcc/arm-none-eabi/include/c++/10.3.1/bits/stl_algobase.h **** 	  return __result;
 385:/opt/homebrew/Cellar/arm-none-eabi-gcc/10.3-2021.07/gcc/arm-none-eabi/include/c++/10.3.1/bits/stl_algobase.h **** 	}
 386:/opt/homebrew/Cellar/arm-none-eabi-gcc/10.3-2021.07/gcc/arm-none-eabi/include/c++/10.3.1/bits/stl_algobase.h ****     };
 387:/opt/homebrew/Cellar/arm-none-eabi-gcc/10.3-2021.07/gcc/arm-none-eabi/include/c++/10.3.1/bits/stl_algobase.h **** 
 388:/opt/homebrew/Cellar/arm-none-eabi-gcc/10.3-2021.07/gcc/arm-none-eabi/include/c++/10.3.1/bits/stl_algobase.h **** #if __cplusplus >= 201103L
 389:/opt/homebrew/Cellar/arm-none-eabi-gcc/10.3-2021.07/gcc/arm-none-eabi/include/c++/10.3.1/bits/stl_algobase.h ****   template<>
 390:/opt/homebrew/Cellar/arm-none-eabi-gcc/10.3-2021.07/gcc/arm-none-eabi/include/c++/10.3.1/bits/stl_algobase.h ****     struct __copy_move<true, false, random_access_iterator_tag>
 391:/opt/homebrew/Cellar/arm-none-eabi-gcc/10.3-2021.07/gcc/arm-none-eabi/include/c++/10.3.1/bits/stl_algobase.h ****     {
 392:/opt/homebrew/Cellar/arm-none-eabi-gcc/10.3-2021.07/gcc/arm-none-eabi/include/c++/10.3.1/bits/stl_algobase.h ****       template<typename _II, typename _OI>
 393:/opt/homebrew/Cellar/arm-none-eabi-gcc/10.3-2021.07/gcc/arm-none-eabi/include/c++/10.3.1/bits/stl_algobase.h **** 	_GLIBCXX20_CONSTEXPR
 394:/opt/homebrew/Cellar/arm-none-eabi-gcc/10.3-2021.07/gcc/arm-none-eabi/include/c++/10.3.1/bits/stl_algobase.h **** 	static _OI
 395:/opt/homebrew/Cellar/arm-none-eabi-gcc/10.3-2021.07/gcc/arm-none-eabi/include/c++/10.3.1/bits/stl_algobase.h **** 	__copy_m(_II __first, _II __last, _OI __result)
 396:/opt/homebrew/Cellar/arm-none-eabi-gcc/10.3-2021.07/gcc/arm-none-eabi/include/c++/10.3.1/bits/stl_algobase.h **** 	{
 397:/opt/homebrew/Cellar/arm-none-eabi-gcc/10.3-2021.07/gcc/arm-none-eabi/include/c++/10.3.1/bits/stl_algobase.h **** 	  typedef typename iterator_traits<_II>::difference_type _Distance;
 398:/opt/homebrew/Cellar/arm-none-eabi-gcc/10.3-2021.07/gcc/arm-none-eabi/include/c++/10.3.1/bits/stl_algobase.h **** 	  for(_Distance __n = __last - __first; __n > 0; --__n)
 399:/opt/homebrew/Cellar/arm-none-eabi-gcc/10.3-2021.07/gcc/arm-none-eabi/include/c++/10.3.1/bits/stl_algobase.h **** 	    {
 400:/opt/homebrew/Cellar/arm-none-eabi-gcc/10.3-2021.07/gcc/arm-none-eabi/include/c++/10.3.1/bits/stl_algobase.h **** 	      *__result = std::move(*__first);
 401:/opt/homebrew/Cellar/arm-none-eabi-gcc/10.3-2021.07/gcc/arm-none-eabi/include/c++/10.3.1/bits/stl_algobase.h **** 	      ++__first;
 402:/opt/homebrew/Cellar/arm-none-eabi-gcc/10.3-2021.07/gcc/arm-none-eabi/include/c++/10.3.1/bits/stl_algobase.h **** 	      ++__result;
 403:/opt/homebrew/Cellar/arm-none-eabi-gcc/10.3-2021.07/gcc/arm-none-eabi/include/c++/10.3.1/bits/stl_algobase.h **** 	    }
 404:/opt/homebrew/Cellar/arm-none-eabi-gcc/10.3-2021.07/gcc/arm-none-eabi/include/c++/10.3.1/bits/stl_algobase.h **** 	  return __result;
 405:/opt/homebrew/Cellar/arm-none-eabi-gcc/10.3-2021.07/gcc/arm-none-eabi/include/c++/10.3.1/bits/stl_algobase.h **** 	}
 406:/opt/homebrew/Cellar/arm-none-eabi-gcc/10.3-2021.07/gcc/arm-none-eabi/include/c++/10.3.1/bits/stl_algobase.h ****     };
 407:/opt/homebrew/Cellar/arm-none-eabi-gcc/10.3-2021.07/gcc/arm-none-eabi/include/c++/10.3.1/bits/stl_algobase.h **** #endif
 408:/opt/homebrew/Cellar/arm-none-eabi-gcc/10.3-2021.07/gcc/arm-none-eabi/include/c++/10.3.1/bits/stl_algobase.h **** 
 409:/opt/homebrew/Cellar/arm-none-eabi-gcc/10.3-2021.07/gcc/arm-none-eabi/include/c++/10.3.1/bits/stl_algobase.h ****   template<bool _IsMove>
 410:/opt/homebrew/Cellar/arm-none-eabi-gcc/10.3-2021.07/gcc/arm-none-eabi/include/c++/10.3.1/bits/stl_algobase.h ****     struct __copy_move<_IsMove, true, random_access_iterator_tag>
 411:/opt/homebrew/Cellar/arm-none-eabi-gcc/10.3-2021.07/gcc/arm-none-eabi/include/c++/10.3.1/bits/stl_algobase.h ****     {
 412:/opt/homebrew/Cellar/arm-none-eabi-gcc/10.3-2021.07/gcc/arm-none-eabi/include/c++/10.3.1/bits/stl_algobase.h ****       template<typename _Tp>
 413:/opt/homebrew/Cellar/arm-none-eabi-gcc/10.3-2021.07/gcc/arm-none-eabi/include/c++/10.3.1/bits/stl_algobase.h **** 	_GLIBCXX20_CONSTEXPR
 414:/opt/homebrew/Cellar/arm-none-eabi-gcc/10.3-2021.07/gcc/arm-none-eabi/include/c++/10.3.1/bits/stl_algobase.h **** 	static _Tp*
 415:/opt/homebrew/Cellar/arm-none-eabi-gcc/10.3-2021.07/gcc/arm-none-eabi/include/c++/10.3.1/bits/stl_algobase.h **** 	__copy_m(const _Tp* __first, const _Tp* __last, _Tp* __result)
ARM GAS  /var/folders/hl/qgbwny5j0fd895c2c41bk3tw0000gp/T//cc6AdWFS.s 			page 18


 416:/opt/homebrew/Cellar/arm-none-eabi-gcc/10.3-2021.07/gcc/arm-none-eabi/include/c++/10.3.1/bits/stl_algobase.h **** 	{
 417:/opt/homebrew/Cellar/arm-none-eabi-gcc/10.3-2021.07/gcc/arm-none-eabi/include/c++/10.3.1/bits/stl_algobase.h **** #if __cplusplus >= 201103L
 418:/opt/homebrew/Cellar/arm-none-eabi-gcc/10.3-2021.07/gcc/arm-none-eabi/include/c++/10.3.1/bits/stl_algobase.h **** 	  using __assignable = conditional<_IsMove,
 419:/opt/homebrew/Cellar/arm-none-eabi-gcc/10.3-2021.07/gcc/arm-none-eabi/include/c++/10.3.1/bits/stl_algobase.h **** 					   is_move_assignable<_Tp>,
 420:/opt/homebrew/Cellar/arm-none-eabi-gcc/10.3-2021.07/gcc/arm-none-eabi/include/c++/10.3.1/bits/stl_algobase.h **** 					   is_copy_assignable<_Tp>>;
 421:/opt/homebrew/Cellar/arm-none-eabi-gcc/10.3-2021.07/gcc/arm-none-eabi/include/c++/10.3.1/bits/stl_algobase.h **** 	  // trivial types can have deleted assignment
 422:/opt/homebrew/Cellar/arm-none-eabi-gcc/10.3-2021.07/gcc/arm-none-eabi/include/c++/10.3.1/bits/stl_algobase.h **** 	  static_assert( __assignable::type::value, "type is not assignable" );
 423:/opt/homebrew/Cellar/arm-none-eabi-gcc/10.3-2021.07/gcc/arm-none-eabi/include/c++/10.3.1/bits/stl_algobase.h **** #endif
 424:/opt/homebrew/Cellar/arm-none-eabi-gcc/10.3-2021.07/gcc/arm-none-eabi/include/c++/10.3.1/bits/stl_algobase.h **** 	  const ptrdiff_t _Num = __last - __first;
 425:/opt/homebrew/Cellar/arm-none-eabi-gcc/10.3-2021.07/gcc/arm-none-eabi/include/c++/10.3.1/bits/stl_algobase.h **** 	  if (_Num)
 426:/opt/homebrew/Cellar/arm-none-eabi-gcc/10.3-2021.07/gcc/arm-none-eabi/include/c++/10.3.1/bits/stl_algobase.h **** 	    __builtin_memmove(__result, __first, sizeof(_Tp) * _Num);
 427:/opt/homebrew/Cellar/arm-none-eabi-gcc/10.3-2021.07/gcc/arm-none-eabi/include/c++/10.3.1/bits/stl_algobase.h **** 	  return __result + _Num;
 428:/opt/homebrew/Cellar/arm-none-eabi-gcc/10.3-2021.07/gcc/arm-none-eabi/include/c++/10.3.1/bits/stl_algobase.h **** 	}
 429:/opt/homebrew/Cellar/arm-none-eabi-gcc/10.3-2021.07/gcc/arm-none-eabi/include/c++/10.3.1/bits/stl_algobase.h ****     };
 430:/opt/homebrew/Cellar/arm-none-eabi-gcc/10.3-2021.07/gcc/arm-none-eabi/include/c++/10.3.1/bits/stl_algobase.h **** 
 431:/opt/homebrew/Cellar/arm-none-eabi-gcc/10.3-2021.07/gcc/arm-none-eabi/include/c++/10.3.1/bits/stl_algobase.h ****   // Helpers for streambuf iterators (either istream or ostream).
 432:/opt/homebrew/Cellar/arm-none-eabi-gcc/10.3-2021.07/gcc/arm-none-eabi/include/c++/10.3.1/bits/stl_algobase.h ****   // NB: avoid including <iosfwd>, relatively large.
 433:/opt/homebrew/Cellar/arm-none-eabi-gcc/10.3-2021.07/gcc/arm-none-eabi/include/c++/10.3.1/bits/stl_algobase.h ****   template<typename _CharT>
 434:/opt/homebrew/Cellar/arm-none-eabi-gcc/10.3-2021.07/gcc/arm-none-eabi/include/c++/10.3.1/bits/stl_algobase.h ****     struct char_traits;
 435:/opt/homebrew/Cellar/arm-none-eabi-gcc/10.3-2021.07/gcc/arm-none-eabi/include/c++/10.3.1/bits/stl_algobase.h **** 
 436:/opt/homebrew/Cellar/arm-none-eabi-gcc/10.3-2021.07/gcc/arm-none-eabi/include/c++/10.3.1/bits/stl_algobase.h ****   template<typename _CharT, typename _Traits>
 437:/opt/homebrew/Cellar/arm-none-eabi-gcc/10.3-2021.07/gcc/arm-none-eabi/include/c++/10.3.1/bits/stl_algobase.h ****     class istreambuf_iterator;
 438:/opt/homebrew/Cellar/arm-none-eabi-gcc/10.3-2021.07/gcc/arm-none-eabi/include/c++/10.3.1/bits/stl_algobase.h **** 
 439:/opt/homebrew/Cellar/arm-none-eabi-gcc/10.3-2021.07/gcc/arm-none-eabi/include/c++/10.3.1/bits/stl_algobase.h ****   template<typename _CharT, typename _Traits>
 440:/opt/homebrew/Cellar/arm-none-eabi-gcc/10.3-2021.07/gcc/arm-none-eabi/include/c++/10.3.1/bits/stl_algobase.h ****     class ostreambuf_iterator;
 441:/opt/homebrew/Cellar/arm-none-eabi-gcc/10.3-2021.07/gcc/arm-none-eabi/include/c++/10.3.1/bits/stl_algobase.h **** 
 442:/opt/homebrew/Cellar/arm-none-eabi-gcc/10.3-2021.07/gcc/arm-none-eabi/include/c++/10.3.1/bits/stl_algobase.h ****   template<bool _IsMove, typename _CharT>
 443:/opt/homebrew/Cellar/arm-none-eabi-gcc/10.3-2021.07/gcc/arm-none-eabi/include/c++/10.3.1/bits/stl_algobase.h ****     typename __gnu_cxx::__enable_if<__is_char<_CharT>::__value,
 444:/opt/homebrew/Cellar/arm-none-eabi-gcc/10.3-2021.07/gcc/arm-none-eabi/include/c++/10.3.1/bits/stl_algobase.h **** 	     ostreambuf_iterator<_CharT, char_traits<_CharT> > >::__type
 445:/opt/homebrew/Cellar/arm-none-eabi-gcc/10.3-2021.07/gcc/arm-none-eabi/include/c++/10.3.1/bits/stl_algobase.h ****     __copy_move_a2(_CharT*, _CharT*,
 446:/opt/homebrew/Cellar/arm-none-eabi-gcc/10.3-2021.07/gcc/arm-none-eabi/include/c++/10.3.1/bits/stl_algobase.h **** 		   ostreambuf_iterator<_CharT, char_traits<_CharT> >);
 447:/opt/homebrew/Cellar/arm-none-eabi-gcc/10.3-2021.07/gcc/arm-none-eabi/include/c++/10.3.1/bits/stl_algobase.h **** 
 448:/opt/homebrew/Cellar/arm-none-eabi-gcc/10.3-2021.07/gcc/arm-none-eabi/include/c++/10.3.1/bits/stl_algobase.h ****   template<bool _IsMove, typename _CharT>
 449:/opt/homebrew/Cellar/arm-none-eabi-gcc/10.3-2021.07/gcc/arm-none-eabi/include/c++/10.3.1/bits/stl_algobase.h ****     typename __gnu_cxx::__enable_if<__is_char<_CharT>::__value,
 450:/opt/homebrew/Cellar/arm-none-eabi-gcc/10.3-2021.07/gcc/arm-none-eabi/include/c++/10.3.1/bits/stl_algobase.h **** 	     ostreambuf_iterator<_CharT, char_traits<_CharT> > >::__type
 451:/opt/homebrew/Cellar/arm-none-eabi-gcc/10.3-2021.07/gcc/arm-none-eabi/include/c++/10.3.1/bits/stl_algobase.h ****     __copy_move_a2(const _CharT*, const _CharT*,
 452:/opt/homebrew/Cellar/arm-none-eabi-gcc/10.3-2021.07/gcc/arm-none-eabi/include/c++/10.3.1/bits/stl_algobase.h **** 		   ostreambuf_iterator<_CharT, char_traits<_CharT> >);
 453:/opt/homebrew/Cellar/arm-none-eabi-gcc/10.3-2021.07/gcc/arm-none-eabi/include/c++/10.3.1/bits/stl_algobase.h **** 
 454:/opt/homebrew/Cellar/arm-none-eabi-gcc/10.3-2021.07/gcc/arm-none-eabi/include/c++/10.3.1/bits/stl_algobase.h ****   template<bool _IsMove, typename _CharT>
 455:/opt/homebrew/Cellar/arm-none-eabi-gcc/10.3-2021.07/gcc/arm-none-eabi/include/c++/10.3.1/bits/stl_algobase.h ****     typename __gnu_cxx::__enable_if<__is_char<_CharT>::__value,
 456:/opt/homebrew/Cellar/arm-none-eabi-gcc/10.3-2021.07/gcc/arm-none-eabi/include/c++/10.3.1/bits/stl_algobase.h **** 				    _CharT*>::__type
 457:/opt/homebrew/Cellar/arm-none-eabi-gcc/10.3-2021.07/gcc/arm-none-eabi/include/c++/10.3.1/bits/stl_algobase.h ****     __copy_move_a2(istreambuf_iterator<_CharT, char_traits<_CharT> >,
 458:/opt/homebrew/Cellar/arm-none-eabi-gcc/10.3-2021.07/gcc/arm-none-eabi/include/c++/10.3.1/bits/stl_algobase.h **** 		   istreambuf_iterator<_CharT, char_traits<_CharT> >, _CharT*);
 459:/opt/homebrew/Cellar/arm-none-eabi-gcc/10.3-2021.07/gcc/arm-none-eabi/include/c++/10.3.1/bits/stl_algobase.h **** 
 460:/opt/homebrew/Cellar/arm-none-eabi-gcc/10.3-2021.07/gcc/arm-none-eabi/include/c++/10.3.1/bits/stl_algobase.h ****   template<bool _IsMove, typename _II, typename _OI>
 461:/opt/homebrew/Cellar/arm-none-eabi-gcc/10.3-2021.07/gcc/arm-none-eabi/include/c++/10.3.1/bits/stl_algobase.h ****     _GLIBCXX20_CONSTEXPR
 462:/opt/homebrew/Cellar/arm-none-eabi-gcc/10.3-2021.07/gcc/arm-none-eabi/include/c++/10.3.1/bits/stl_algobase.h ****     inline _OI
 463:/opt/homebrew/Cellar/arm-none-eabi-gcc/10.3-2021.07/gcc/arm-none-eabi/include/c++/10.3.1/bits/stl_algobase.h ****     __copy_move_a2(_II __first, _II __last, _OI __result)
 464:/opt/homebrew/Cellar/arm-none-eabi-gcc/10.3-2021.07/gcc/arm-none-eabi/include/c++/10.3.1/bits/stl_algobase.h ****     {
 465:/opt/homebrew/Cellar/arm-none-eabi-gcc/10.3-2021.07/gcc/arm-none-eabi/include/c++/10.3.1/bits/stl_algobase.h ****       typedef typename iterator_traits<_II>::iterator_category _Category;
 466:/opt/homebrew/Cellar/arm-none-eabi-gcc/10.3-2021.07/gcc/arm-none-eabi/include/c++/10.3.1/bits/stl_algobase.h **** #ifdef __cpp_lib_is_constant_evaluated
 467:/opt/homebrew/Cellar/arm-none-eabi-gcc/10.3-2021.07/gcc/arm-none-eabi/include/c++/10.3.1/bits/stl_algobase.h ****       if (std::is_constant_evaluated())
 468:/opt/homebrew/Cellar/arm-none-eabi-gcc/10.3-2021.07/gcc/arm-none-eabi/include/c++/10.3.1/bits/stl_algobase.h **** 	return std::__copy_move<_IsMove, false, _Category>::
 469:/opt/homebrew/Cellar/arm-none-eabi-gcc/10.3-2021.07/gcc/arm-none-eabi/include/c++/10.3.1/bits/stl_algobase.h **** 	  __copy_m(__first, __last, __result);
 470:/opt/homebrew/Cellar/arm-none-eabi-gcc/10.3-2021.07/gcc/arm-none-eabi/include/c++/10.3.1/bits/stl_algobase.h **** #endif
 471:/opt/homebrew/Cellar/arm-none-eabi-gcc/10.3-2021.07/gcc/arm-none-eabi/include/c++/10.3.1/bits/stl_algobase.h ****       return std::__copy_move<_IsMove, __memcpyable<_OI, _II>::__value,
 472:/opt/homebrew/Cellar/arm-none-eabi-gcc/10.3-2021.07/gcc/arm-none-eabi/include/c++/10.3.1/bits/stl_algobase.h **** 			      _Category>::__copy_m(__first, __last, __result);
ARM GAS  /var/folders/hl/qgbwny5j0fd895c2c41bk3tw0000gp/T//cc6AdWFS.s 			page 19


 473:/opt/homebrew/Cellar/arm-none-eabi-gcc/10.3-2021.07/gcc/arm-none-eabi/include/c++/10.3.1/bits/stl_algobase.h ****     }
 474:/opt/homebrew/Cellar/arm-none-eabi-gcc/10.3-2021.07/gcc/arm-none-eabi/include/c++/10.3.1/bits/stl_algobase.h **** 
 475:/opt/homebrew/Cellar/arm-none-eabi-gcc/10.3-2021.07/gcc/arm-none-eabi/include/c++/10.3.1/bits/stl_algobase.h **** _GLIBCXX_BEGIN_NAMESPACE_CONTAINER
 476:/opt/homebrew/Cellar/arm-none-eabi-gcc/10.3-2021.07/gcc/arm-none-eabi/include/c++/10.3.1/bits/stl_algobase.h **** 
 477:/opt/homebrew/Cellar/arm-none-eabi-gcc/10.3-2021.07/gcc/arm-none-eabi/include/c++/10.3.1/bits/stl_algobase.h ****   template<typename _Tp, typename _Ref, typename _Ptr>
 478:/opt/homebrew/Cellar/arm-none-eabi-gcc/10.3-2021.07/gcc/arm-none-eabi/include/c++/10.3.1/bits/stl_algobase.h ****     struct _Deque_iterator;
 479:/opt/homebrew/Cellar/arm-none-eabi-gcc/10.3-2021.07/gcc/arm-none-eabi/include/c++/10.3.1/bits/stl_algobase.h **** 
 480:/opt/homebrew/Cellar/arm-none-eabi-gcc/10.3-2021.07/gcc/arm-none-eabi/include/c++/10.3.1/bits/stl_algobase.h **** _GLIBCXX_END_NAMESPACE_CONTAINER
 481:/opt/homebrew/Cellar/arm-none-eabi-gcc/10.3-2021.07/gcc/arm-none-eabi/include/c++/10.3.1/bits/stl_algobase.h **** 
 482:/opt/homebrew/Cellar/arm-none-eabi-gcc/10.3-2021.07/gcc/arm-none-eabi/include/c++/10.3.1/bits/stl_algobase.h ****   template<bool _IsMove,
 483:/opt/homebrew/Cellar/arm-none-eabi-gcc/10.3-2021.07/gcc/arm-none-eabi/include/c++/10.3.1/bits/stl_algobase.h **** 	   typename _Tp, typename _Ref, typename _Ptr, typename _OI>
 484:/opt/homebrew/Cellar/arm-none-eabi-gcc/10.3-2021.07/gcc/arm-none-eabi/include/c++/10.3.1/bits/stl_algobase.h ****     _OI
 485:/opt/homebrew/Cellar/arm-none-eabi-gcc/10.3-2021.07/gcc/arm-none-eabi/include/c++/10.3.1/bits/stl_algobase.h ****     __copy_move_a1(_GLIBCXX_STD_C::_Deque_iterator<_Tp, _Ref, _Ptr>,
 486:/opt/homebrew/Cellar/arm-none-eabi-gcc/10.3-2021.07/gcc/arm-none-eabi/include/c++/10.3.1/bits/stl_algobase.h **** 		   _GLIBCXX_STD_C::_Deque_iterator<_Tp, _Ref, _Ptr>,
 487:/opt/homebrew/Cellar/arm-none-eabi-gcc/10.3-2021.07/gcc/arm-none-eabi/include/c++/10.3.1/bits/stl_algobase.h **** 		   _OI);
 488:/opt/homebrew/Cellar/arm-none-eabi-gcc/10.3-2021.07/gcc/arm-none-eabi/include/c++/10.3.1/bits/stl_algobase.h **** 
 489:/opt/homebrew/Cellar/arm-none-eabi-gcc/10.3-2021.07/gcc/arm-none-eabi/include/c++/10.3.1/bits/stl_algobase.h ****   template<bool _IsMove,
 490:/opt/homebrew/Cellar/arm-none-eabi-gcc/10.3-2021.07/gcc/arm-none-eabi/include/c++/10.3.1/bits/stl_algobase.h **** 	   typename _ITp, typename _IRef, typename _IPtr, typename _OTp>
 491:/opt/homebrew/Cellar/arm-none-eabi-gcc/10.3-2021.07/gcc/arm-none-eabi/include/c++/10.3.1/bits/stl_algobase.h ****     _GLIBCXX_STD_C::_Deque_iterator<_OTp, _OTp&, _OTp*>
 492:/opt/homebrew/Cellar/arm-none-eabi-gcc/10.3-2021.07/gcc/arm-none-eabi/include/c++/10.3.1/bits/stl_algobase.h ****     __copy_move_a1(_GLIBCXX_STD_C::_Deque_iterator<_ITp, _IRef, _IPtr>,
 493:/opt/homebrew/Cellar/arm-none-eabi-gcc/10.3-2021.07/gcc/arm-none-eabi/include/c++/10.3.1/bits/stl_algobase.h **** 		   _GLIBCXX_STD_C::_Deque_iterator<_ITp, _IRef, _IPtr>,
 494:/opt/homebrew/Cellar/arm-none-eabi-gcc/10.3-2021.07/gcc/arm-none-eabi/include/c++/10.3.1/bits/stl_algobase.h **** 		   _GLIBCXX_STD_C::_Deque_iterator<_OTp, _OTp&, _OTp*>);
 495:/opt/homebrew/Cellar/arm-none-eabi-gcc/10.3-2021.07/gcc/arm-none-eabi/include/c++/10.3.1/bits/stl_algobase.h **** 
 496:/opt/homebrew/Cellar/arm-none-eabi-gcc/10.3-2021.07/gcc/arm-none-eabi/include/c++/10.3.1/bits/stl_algobase.h ****   template<bool _IsMove, typename _II, typename _Tp>
 497:/opt/homebrew/Cellar/arm-none-eabi-gcc/10.3-2021.07/gcc/arm-none-eabi/include/c++/10.3.1/bits/stl_algobase.h ****     typename __gnu_cxx::__enable_if<
 498:/opt/homebrew/Cellar/arm-none-eabi-gcc/10.3-2021.07/gcc/arm-none-eabi/include/c++/10.3.1/bits/stl_algobase.h ****       __is_random_access_iter<_II>::__value,
 499:/opt/homebrew/Cellar/arm-none-eabi-gcc/10.3-2021.07/gcc/arm-none-eabi/include/c++/10.3.1/bits/stl_algobase.h ****       _GLIBCXX_STD_C::_Deque_iterator<_Tp, _Tp&, _Tp*> >::__type
 500:/opt/homebrew/Cellar/arm-none-eabi-gcc/10.3-2021.07/gcc/arm-none-eabi/include/c++/10.3.1/bits/stl_algobase.h ****     __copy_move_a1(_II, _II, _GLIBCXX_STD_C::_Deque_iterator<_Tp, _Tp&, _Tp*>);
 501:/opt/homebrew/Cellar/arm-none-eabi-gcc/10.3-2021.07/gcc/arm-none-eabi/include/c++/10.3.1/bits/stl_algobase.h **** 
 502:/opt/homebrew/Cellar/arm-none-eabi-gcc/10.3-2021.07/gcc/arm-none-eabi/include/c++/10.3.1/bits/stl_algobase.h ****   template<bool _IsMove, typename _II, typename _OI>
 503:/opt/homebrew/Cellar/arm-none-eabi-gcc/10.3-2021.07/gcc/arm-none-eabi/include/c++/10.3.1/bits/stl_algobase.h ****     _GLIBCXX20_CONSTEXPR
 504:/opt/homebrew/Cellar/arm-none-eabi-gcc/10.3-2021.07/gcc/arm-none-eabi/include/c++/10.3.1/bits/stl_algobase.h ****     inline _OI
 505:/opt/homebrew/Cellar/arm-none-eabi-gcc/10.3-2021.07/gcc/arm-none-eabi/include/c++/10.3.1/bits/stl_algobase.h ****     __copy_move_a1(_II __first, _II __last, _OI __result)
 506:/opt/homebrew/Cellar/arm-none-eabi-gcc/10.3-2021.07/gcc/arm-none-eabi/include/c++/10.3.1/bits/stl_algobase.h ****     { return std::__copy_move_a2<_IsMove>(__first, __last, __result); }
 507:/opt/homebrew/Cellar/arm-none-eabi-gcc/10.3-2021.07/gcc/arm-none-eabi/include/c++/10.3.1/bits/stl_algobase.h **** 
 508:/opt/homebrew/Cellar/arm-none-eabi-gcc/10.3-2021.07/gcc/arm-none-eabi/include/c++/10.3.1/bits/stl_algobase.h ****   template<bool _IsMove, typename _II, typename _OI>
 509:/opt/homebrew/Cellar/arm-none-eabi-gcc/10.3-2021.07/gcc/arm-none-eabi/include/c++/10.3.1/bits/stl_algobase.h ****     _GLIBCXX20_CONSTEXPR
 510:/opt/homebrew/Cellar/arm-none-eabi-gcc/10.3-2021.07/gcc/arm-none-eabi/include/c++/10.3.1/bits/stl_algobase.h ****     inline _OI
 511:/opt/homebrew/Cellar/arm-none-eabi-gcc/10.3-2021.07/gcc/arm-none-eabi/include/c++/10.3.1/bits/stl_algobase.h ****     __copy_move_a(_II __first, _II __last, _OI __result)
 512:/opt/homebrew/Cellar/arm-none-eabi-gcc/10.3-2021.07/gcc/arm-none-eabi/include/c++/10.3.1/bits/stl_algobase.h ****     {
 513:/opt/homebrew/Cellar/arm-none-eabi-gcc/10.3-2021.07/gcc/arm-none-eabi/include/c++/10.3.1/bits/stl_algobase.h ****       return std::__niter_wrap(__result,
 514:/opt/homebrew/Cellar/arm-none-eabi-gcc/10.3-2021.07/gcc/arm-none-eabi/include/c++/10.3.1/bits/stl_algobase.h **** 		std::__copy_move_a1<_IsMove>(std::__niter_base(__first),
 515:/opt/homebrew/Cellar/arm-none-eabi-gcc/10.3-2021.07/gcc/arm-none-eabi/include/c++/10.3.1/bits/stl_algobase.h **** 					     std::__niter_base(__last),
 516:/opt/homebrew/Cellar/arm-none-eabi-gcc/10.3-2021.07/gcc/arm-none-eabi/include/c++/10.3.1/bits/stl_algobase.h **** 					     std::__niter_base(__result)));
 517:/opt/homebrew/Cellar/arm-none-eabi-gcc/10.3-2021.07/gcc/arm-none-eabi/include/c++/10.3.1/bits/stl_algobase.h ****     }
 518:/opt/homebrew/Cellar/arm-none-eabi-gcc/10.3-2021.07/gcc/arm-none-eabi/include/c++/10.3.1/bits/stl_algobase.h **** 
 519:/opt/homebrew/Cellar/arm-none-eabi-gcc/10.3-2021.07/gcc/arm-none-eabi/include/c++/10.3.1/bits/stl_algobase.h ****   template<bool _IsMove,
 520:/opt/homebrew/Cellar/arm-none-eabi-gcc/10.3-2021.07/gcc/arm-none-eabi/include/c++/10.3.1/bits/stl_algobase.h **** 	   typename _Ite, typename _Seq, typename _Cat, typename _OI>
 521:/opt/homebrew/Cellar/arm-none-eabi-gcc/10.3-2021.07/gcc/arm-none-eabi/include/c++/10.3.1/bits/stl_algobase.h ****     _OI
 522:/opt/homebrew/Cellar/arm-none-eabi-gcc/10.3-2021.07/gcc/arm-none-eabi/include/c++/10.3.1/bits/stl_algobase.h ****     __copy_move_a(const ::__gnu_debug::_Safe_iterator<_Ite, _Seq, _Cat>&,
 523:/opt/homebrew/Cellar/arm-none-eabi-gcc/10.3-2021.07/gcc/arm-none-eabi/include/c++/10.3.1/bits/stl_algobase.h **** 		  const ::__gnu_debug::_Safe_iterator<_Ite, _Seq, _Cat>&,
 524:/opt/homebrew/Cellar/arm-none-eabi-gcc/10.3-2021.07/gcc/arm-none-eabi/include/c++/10.3.1/bits/stl_algobase.h **** 		  _OI);
 525:/opt/homebrew/Cellar/arm-none-eabi-gcc/10.3-2021.07/gcc/arm-none-eabi/include/c++/10.3.1/bits/stl_algobase.h **** 
 526:/opt/homebrew/Cellar/arm-none-eabi-gcc/10.3-2021.07/gcc/arm-none-eabi/include/c++/10.3.1/bits/stl_algobase.h ****   template<bool _IsMove,
 527:/opt/homebrew/Cellar/arm-none-eabi-gcc/10.3-2021.07/gcc/arm-none-eabi/include/c++/10.3.1/bits/stl_algobase.h **** 	   typename _II, typename _Ite, typename _Seq, typename _Cat>
 528:/opt/homebrew/Cellar/arm-none-eabi-gcc/10.3-2021.07/gcc/arm-none-eabi/include/c++/10.3.1/bits/stl_algobase.h ****     __gnu_debug::_Safe_iterator<_Ite, _Seq, _Cat>
 529:/opt/homebrew/Cellar/arm-none-eabi-gcc/10.3-2021.07/gcc/arm-none-eabi/include/c++/10.3.1/bits/stl_algobase.h ****     __copy_move_a(_II, _II,
ARM GAS  /var/folders/hl/qgbwny5j0fd895c2c41bk3tw0000gp/T//cc6AdWFS.s 			page 20


 530:/opt/homebrew/Cellar/arm-none-eabi-gcc/10.3-2021.07/gcc/arm-none-eabi/include/c++/10.3.1/bits/stl_algobase.h **** 		  const ::__gnu_debug::_Safe_iterator<_Ite, _Seq, _Cat>&);
 531:/opt/homebrew/Cellar/arm-none-eabi-gcc/10.3-2021.07/gcc/arm-none-eabi/include/c++/10.3.1/bits/stl_algobase.h **** 
 532:/opt/homebrew/Cellar/arm-none-eabi-gcc/10.3-2021.07/gcc/arm-none-eabi/include/c++/10.3.1/bits/stl_algobase.h ****   template<bool _IsMove,
 533:/opt/homebrew/Cellar/arm-none-eabi-gcc/10.3-2021.07/gcc/arm-none-eabi/include/c++/10.3.1/bits/stl_algobase.h **** 	   typename _IIte, typename _ISeq, typename _ICat,
 534:/opt/homebrew/Cellar/arm-none-eabi-gcc/10.3-2021.07/gcc/arm-none-eabi/include/c++/10.3.1/bits/stl_algobase.h **** 	   typename _OIte, typename _OSeq, typename _OCat>
 535:/opt/homebrew/Cellar/arm-none-eabi-gcc/10.3-2021.07/gcc/arm-none-eabi/include/c++/10.3.1/bits/stl_algobase.h ****     ::__gnu_debug::_Safe_iterator<_OIte, _OSeq, _OCat>
 536:/opt/homebrew/Cellar/arm-none-eabi-gcc/10.3-2021.07/gcc/arm-none-eabi/include/c++/10.3.1/bits/stl_algobase.h ****     __copy_move_a(const ::__gnu_debug::_Safe_iterator<_IIte, _ISeq, _ICat>&,
 537:/opt/homebrew/Cellar/arm-none-eabi-gcc/10.3-2021.07/gcc/arm-none-eabi/include/c++/10.3.1/bits/stl_algobase.h **** 		  const ::__gnu_debug::_Safe_iterator<_IIte, _ISeq, _ICat>&,
 538:/opt/homebrew/Cellar/arm-none-eabi-gcc/10.3-2021.07/gcc/arm-none-eabi/include/c++/10.3.1/bits/stl_algobase.h **** 		  const ::__gnu_debug::_Safe_iterator<_OIte, _OSeq, _OCat>&);
 539:/opt/homebrew/Cellar/arm-none-eabi-gcc/10.3-2021.07/gcc/arm-none-eabi/include/c++/10.3.1/bits/stl_algobase.h **** 
 540:/opt/homebrew/Cellar/arm-none-eabi-gcc/10.3-2021.07/gcc/arm-none-eabi/include/c++/10.3.1/bits/stl_algobase.h ****   /**
 541:/opt/homebrew/Cellar/arm-none-eabi-gcc/10.3-2021.07/gcc/arm-none-eabi/include/c++/10.3.1/bits/stl_algobase.h ****    *  @brief Copies the range [first,last) into result.
 542:/opt/homebrew/Cellar/arm-none-eabi-gcc/10.3-2021.07/gcc/arm-none-eabi/include/c++/10.3.1/bits/stl_algobase.h ****    *  @ingroup mutating_algorithms
 543:/opt/homebrew/Cellar/arm-none-eabi-gcc/10.3-2021.07/gcc/arm-none-eabi/include/c++/10.3.1/bits/stl_algobase.h ****    *  @param  __first  An input iterator.
 544:/opt/homebrew/Cellar/arm-none-eabi-gcc/10.3-2021.07/gcc/arm-none-eabi/include/c++/10.3.1/bits/stl_algobase.h ****    *  @param  __last   An input iterator.
 545:/opt/homebrew/Cellar/arm-none-eabi-gcc/10.3-2021.07/gcc/arm-none-eabi/include/c++/10.3.1/bits/stl_algobase.h ****    *  @param  __result An output iterator.
 546:/opt/homebrew/Cellar/arm-none-eabi-gcc/10.3-2021.07/gcc/arm-none-eabi/include/c++/10.3.1/bits/stl_algobase.h ****    *  @return   result + (last - first)
 547:/opt/homebrew/Cellar/arm-none-eabi-gcc/10.3-2021.07/gcc/arm-none-eabi/include/c++/10.3.1/bits/stl_algobase.h ****    *
 548:/opt/homebrew/Cellar/arm-none-eabi-gcc/10.3-2021.07/gcc/arm-none-eabi/include/c++/10.3.1/bits/stl_algobase.h ****    *  This inline function will boil down to a call to @c memmove whenever
 549:/opt/homebrew/Cellar/arm-none-eabi-gcc/10.3-2021.07/gcc/arm-none-eabi/include/c++/10.3.1/bits/stl_algobase.h ****    *  possible.  Failing that, if random access iterators are passed, then the
 550:/opt/homebrew/Cellar/arm-none-eabi-gcc/10.3-2021.07/gcc/arm-none-eabi/include/c++/10.3.1/bits/stl_algobase.h ****    *  loop count will be known (and therefore a candidate for compiler
 551:/opt/homebrew/Cellar/arm-none-eabi-gcc/10.3-2021.07/gcc/arm-none-eabi/include/c++/10.3.1/bits/stl_algobase.h ****    *  optimizations such as unrolling).  Result may not be contained within
 552:/opt/homebrew/Cellar/arm-none-eabi-gcc/10.3-2021.07/gcc/arm-none-eabi/include/c++/10.3.1/bits/stl_algobase.h ****    *  [first,last); the copy_backward function should be used instead.
 553:/opt/homebrew/Cellar/arm-none-eabi-gcc/10.3-2021.07/gcc/arm-none-eabi/include/c++/10.3.1/bits/stl_algobase.h ****    *
 554:/opt/homebrew/Cellar/arm-none-eabi-gcc/10.3-2021.07/gcc/arm-none-eabi/include/c++/10.3.1/bits/stl_algobase.h ****    *  Note that the end of the output range is permitted to be contained
 555:/opt/homebrew/Cellar/arm-none-eabi-gcc/10.3-2021.07/gcc/arm-none-eabi/include/c++/10.3.1/bits/stl_algobase.h ****    *  within [first,last).
 556:/opt/homebrew/Cellar/arm-none-eabi-gcc/10.3-2021.07/gcc/arm-none-eabi/include/c++/10.3.1/bits/stl_algobase.h ****   */
 557:/opt/homebrew/Cellar/arm-none-eabi-gcc/10.3-2021.07/gcc/arm-none-eabi/include/c++/10.3.1/bits/stl_algobase.h ****   template<typename _II, typename _OI>
 558:/opt/homebrew/Cellar/arm-none-eabi-gcc/10.3-2021.07/gcc/arm-none-eabi/include/c++/10.3.1/bits/stl_algobase.h ****     _GLIBCXX20_CONSTEXPR
 559:/opt/homebrew/Cellar/arm-none-eabi-gcc/10.3-2021.07/gcc/arm-none-eabi/include/c++/10.3.1/bits/stl_algobase.h ****     inline _OI
 560:/opt/homebrew/Cellar/arm-none-eabi-gcc/10.3-2021.07/gcc/arm-none-eabi/include/c++/10.3.1/bits/stl_algobase.h ****     copy(_II __first, _II __last, _OI __result)
 561:/opt/homebrew/Cellar/arm-none-eabi-gcc/10.3-2021.07/gcc/arm-none-eabi/include/c++/10.3.1/bits/stl_algobase.h ****     {
 562:/opt/homebrew/Cellar/arm-none-eabi-gcc/10.3-2021.07/gcc/arm-none-eabi/include/c++/10.3.1/bits/stl_algobase.h ****       // concept requirements
 563:/opt/homebrew/Cellar/arm-none-eabi-gcc/10.3-2021.07/gcc/arm-none-eabi/include/c++/10.3.1/bits/stl_algobase.h ****       __glibcxx_function_requires(_InputIteratorConcept<_II>)
 564:/opt/homebrew/Cellar/arm-none-eabi-gcc/10.3-2021.07/gcc/arm-none-eabi/include/c++/10.3.1/bits/stl_algobase.h ****       __glibcxx_function_requires(_OutputIteratorConcept<_OI,
 565:/opt/homebrew/Cellar/arm-none-eabi-gcc/10.3-2021.07/gcc/arm-none-eabi/include/c++/10.3.1/bits/stl_algobase.h **** 	    typename iterator_traits<_II>::value_type>)
 566:/opt/homebrew/Cellar/arm-none-eabi-gcc/10.3-2021.07/gcc/arm-none-eabi/include/c++/10.3.1/bits/stl_algobase.h ****       __glibcxx_requires_can_increment_range(__first, __last, __result);
 567:/opt/homebrew/Cellar/arm-none-eabi-gcc/10.3-2021.07/gcc/arm-none-eabi/include/c++/10.3.1/bits/stl_algobase.h **** 
 568:/opt/homebrew/Cellar/arm-none-eabi-gcc/10.3-2021.07/gcc/arm-none-eabi/include/c++/10.3.1/bits/stl_algobase.h ****       return std::__copy_move_a<__is_move_iterator<_II>::__value>
 569:/opt/homebrew/Cellar/arm-none-eabi-gcc/10.3-2021.07/gcc/arm-none-eabi/include/c++/10.3.1/bits/stl_algobase.h **** 	     (std::__miter_base(__first), std::__miter_base(__last), __result);
 570:/opt/homebrew/Cellar/arm-none-eabi-gcc/10.3-2021.07/gcc/arm-none-eabi/include/c++/10.3.1/bits/stl_algobase.h ****     }
 571:/opt/homebrew/Cellar/arm-none-eabi-gcc/10.3-2021.07/gcc/arm-none-eabi/include/c++/10.3.1/bits/stl_algobase.h **** 
 572:/opt/homebrew/Cellar/arm-none-eabi-gcc/10.3-2021.07/gcc/arm-none-eabi/include/c++/10.3.1/bits/stl_algobase.h **** #if __cplusplus >= 201103L
 573:/opt/homebrew/Cellar/arm-none-eabi-gcc/10.3-2021.07/gcc/arm-none-eabi/include/c++/10.3.1/bits/stl_algobase.h ****   /**
 574:/opt/homebrew/Cellar/arm-none-eabi-gcc/10.3-2021.07/gcc/arm-none-eabi/include/c++/10.3.1/bits/stl_algobase.h ****    *  @brief Moves the range [first,last) into result.
 575:/opt/homebrew/Cellar/arm-none-eabi-gcc/10.3-2021.07/gcc/arm-none-eabi/include/c++/10.3.1/bits/stl_algobase.h ****    *  @ingroup mutating_algorithms
 576:/opt/homebrew/Cellar/arm-none-eabi-gcc/10.3-2021.07/gcc/arm-none-eabi/include/c++/10.3.1/bits/stl_algobase.h ****    *  @param  __first  An input iterator.
 577:/opt/homebrew/Cellar/arm-none-eabi-gcc/10.3-2021.07/gcc/arm-none-eabi/include/c++/10.3.1/bits/stl_algobase.h ****    *  @param  __last   An input iterator.
 578:/opt/homebrew/Cellar/arm-none-eabi-gcc/10.3-2021.07/gcc/arm-none-eabi/include/c++/10.3.1/bits/stl_algobase.h ****    *  @param  __result An output iterator.
 579:/opt/homebrew/Cellar/arm-none-eabi-gcc/10.3-2021.07/gcc/arm-none-eabi/include/c++/10.3.1/bits/stl_algobase.h ****    *  @return   result + (last - first)
 580:/opt/homebrew/Cellar/arm-none-eabi-gcc/10.3-2021.07/gcc/arm-none-eabi/include/c++/10.3.1/bits/stl_algobase.h ****    *
 581:/opt/homebrew/Cellar/arm-none-eabi-gcc/10.3-2021.07/gcc/arm-none-eabi/include/c++/10.3.1/bits/stl_algobase.h ****    *  This inline function will boil down to a call to @c memmove whenever
 582:/opt/homebrew/Cellar/arm-none-eabi-gcc/10.3-2021.07/gcc/arm-none-eabi/include/c++/10.3.1/bits/stl_algobase.h ****    *  possible.  Failing that, if random access iterators are passed, then the
 583:/opt/homebrew/Cellar/arm-none-eabi-gcc/10.3-2021.07/gcc/arm-none-eabi/include/c++/10.3.1/bits/stl_algobase.h ****    *  loop count will be known (and therefore a candidate for compiler
 584:/opt/homebrew/Cellar/arm-none-eabi-gcc/10.3-2021.07/gcc/arm-none-eabi/include/c++/10.3.1/bits/stl_algobase.h ****    *  optimizations such as unrolling).  Result may not be contained within
 585:/opt/homebrew/Cellar/arm-none-eabi-gcc/10.3-2021.07/gcc/arm-none-eabi/include/c++/10.3.1/bits/stl_algobase.h ****    *  [first,last); the move_backward function should be used instead.
 586:/opt/homebrew/Cellar/arm-none-eabi-gcc/10.3-2021.07/gcc/arm-none-eabi/include/c++/10.3.1/bits/stl_algobase.h ****    *
ARM GAS  /var/folders/hl/qgbwny5j0fd895c2c41bk3tw0000gp/T//cc6AdWFS.s 			page 21


 587:/opt/homebrew/Cellar/arm-none-eabi-gcc/10.3-2021.07/gcc/arm-none-eabi/include/c++/10.3.1/bits/stl_algobase.h ****    *  Note that the end of the output range is permitted to be contained
 588:/opt/homebrew/Cellar/arm-none-eabi-gcc/10.3-2021.07/gcc/arm-none-eabi/include/c++/10.3.1/bits/stl_algobase.h ****    *  within [first,last).
 589:/opt/homebrew/Cellar/arm-none-eabi-gcc/10.3-2021.07/gcc/arm-none-eabi/include/c++/10.3.1/bits/stl_algobase.h ****   */
 590:/opt/homebrew/Cellar/arm-none-eabi-gcc/10.3-2021.07/gcc/arm-none-eabi/include/c++/10.3.1/bits/stl_algobase.h ****   template<typename _II, typename _OI>
 591:/opt/homebrew/Cellar/arm-none-eabi-gcc/10.3-2021.07/gcc/arm-none-eabi/include/c++/10.3.1/bits/stl_algobase.h ****     _GLIBCXX20_CONSTEXPR
 592:/opt/homebrew/Cellar/arm-none-eabi-gcc/10.3-2021.07/gcc/arm-none-eabi/include/c++/10.3.1/bits/stl_algobase.h ****     inline _OI
 593:/opt/homebrew/Cellar/arm-none-eabi-gcc/10.3-2021.07/gcc/arm-none-eabi/include/c++/10.3.1/bits/stl_algobase.h ****     move(_II __first, _II __last, _OI __result)
 594:/opt/homebrew/Cellar/arm-none-eabi-gcc/10.3-2021.07/gcc/arm-none-eabi/include/c++/10.3.1/bits/stl_algobase.h ****     {
 595:/opt/homebrew/Cellar/arm-none-eabi-gcc/10.3-2021.07/gcc/arm-none-eabi/include/c++/10.3.1/bits/stl_algobase.h ****       // concept requirements
 596:/opt/homebrew/Cellar/arm-none-eabi-gcc/10.3-2021.07/gcc/arm-none-eabi/include/c++/10.3.1/bits/stl_algobase.h ****       __glibcxx_function_requires(_InputIteratorConcept<_II>)
 597:/opt/homebrew/Cellar/arm-none-eabi-gcc/10.3-2021.07/gcc/arm-none-eabi/include/c++/10.3.1/bits/stl_algobase.h ****       __glibcxx_function_requires(_OutputIteratorConcept<_OI,
 598:/opt/homebrew/Cellar/arm-none-eabi-gcc/10.3-2021.07/gcc/arm-none-eabi/include/c++/10.3.1/bits/stl_algobase.h **** 	    typename iterator_traits<_II>::value_type>)
 599:/opt/homebrew/Cellar/arm-none-eabi-gcc/10.3-2021.07/gcc/arm-none-eabi/include/c++/10.3.1/bits/stl_algobase.h ****       __glibcxx_requires_can_increment_range(__first, __last, __result);
 600:/opt/homebrew/Cellar/arm-none-eabi-gcc/10.3-2021.07/gcc/arm-none-eabi/include/c++/10.3.1/bits/stl_algobase.h **** 
 601:/opt/homebrew/Cellar/arm-none-eabi-gcc/10.3-2021.07/gcc/arm-none-eabi/include/c++/10.3.1/bits/stl_algobase.h ****       return std::__copy_move_a<true>(std::__miter_base(__first),
 602:/opt/homebrew/Cellar/arm-none-eabi-gcc/10.3-2021.07/gcc/arm-none-eabi/include/c++/10.3.1/bits/stl_algobase.h **** 				      std::__miter_base(__last), __result);
 603:/opt/homebrew/Cellar/arm-none-eabi-gcc/10.3-2021.07/gcc/arm-none-eabi/include/c++/10.3.1/bits/stl_algobase.h ****     }
 604:/opt/homebrew/Cellar/arm-none-eabi-gcc/10.3-2021.07/gcc/arm-none-eabi/include/c++/10.3.1/bits/stl_algobase.h **** 
 605:/opt/homebrew/Cellar/arm-none-eabi-gcc/10.3-2021.07/gcc/arm-none-eabi/include/c++/10.3.1/bits/stl_algobase.h **** #define _GLIBCXX_MOVE3(_Tp, _Up, _Vp) std::move(_Tp, _Up, _Vp)
 606:/opt/homebrew/Cellar/arm-none-eabi-gcc/10.3-2021.07/gcc/arm-none-eabi/include/c++/10.3.1/bits/stl_algobase.h **** #else
 607:/opt/homebrew/Cellar/arm-none-eabi-gcc/10.3-2021.07/gcc/arm-none-eabi/include/c++/10.3.1/bits/stl_algobase.h **** #define _GLIBCXX_MOVE3(_Tp, _Up, _Vp) std::copy(_Tp, _Up, _Vp)
 608:/opt/homebrew/Cellar/arm-none-eabi-gcc/10.3-2021.07/gcc/arm-none-eabi/include/c++/10.3.1/bits/stl_algobase.h **** #endif
 609:/opt/homebrew/Cellar/arm-none-eabi-gcc/10.3-2021.07/gcc/arm-none-eabi/include/c++/10.3.1/bits/stl_algobase.h **** 
 610:/opt/homebrew/Cellar/arm-none-eabi-gcc/10.3-2021.07/gcc/arm-none-eabi/include/c++/10.3.1/bits/stl_algobase.h ****   template<bool _IsMove, bool _IsSimple, typename _Category>
 611:/opt/homebrew/Cellar/arm-none-eabi-gcc/10.3-2021.07/gcc/arm-none-eabi/include/c++/10.3.1/bits/stl_algobase.h ****     struct __copy_move_backward
 612:/opt/homebrew/Cellar/arm-none-eabi-gcc/10.3-2021.07/gcc/arm-none-eabi/include/c++/10.3.1/bits/stl_algobase.h ****     {
 613:/opt/homebrew/Cellar/arm-none-eabi-gcc/10.3-2021.07/gcc/arm-none-eabi/include/c++/10.3.1/bits/stl_algobase.h ****       template<typename _BI1, typename _BI2>
 614:/opt/homebrew/Cellar/arm-none-eabi-gcc/10.3-2021.07/gcc/arm-none-eabi/include/c++/10.3.1/bits/stl_algobase.h **** 	_GLIBCXX20_CONSTEXPR
 615:/opt/homebrew/Cellar/arm-none-eabi-gcc/10.3-2021.07/gcc/arm-none-eabi/include/c++/10.3.1/bits/stl_algobase.h **** 	static _BI2
 616:/opt/homebrew/Cellar/arm-none-eabi-gcc/10.3-2021.07/gcc/arm-none-eabi/include/c++/10.3.1/bits/stl_algobase.h **** 	__copy_move_b(_BI1 __first, _BI1 __last, _BI2 __result)
 617:/opt/homebrew/Cellar/arm-none-eabi-gcc/10.3-2021.07/gcc/arm-none-eabi/include/c++/10.3.1/bits/stl_algobase.h **** 	{
 618:/opt/homebrew/Cellar/arm-none-eabi-gcc/10.3-2021.07/gcc/arm-none-eabi/include/c++/10.3.1/bits/stl_algobase.h **** 	  while (__first != __last)
 619:/opt/homebrew/Cellar/arm-none-eabi-gcc/10.3-2021.07/gcc/arm-none-eabi/include/c++/10.3.1/bits/stl_algobase.h **** 	    *--__result = *--__last;
 620:/opt/homebrew/Cellar/arm-none-eabi-gcc/10.3-2021.07/gcc/arm-none-eabi/include/c++/10.3.1/bits/stl_algobase.h **** 	  return __result;
 621:/opt/homebrew/Cellar/arm-none-eabi-gcc/10.3-2021.07/gcc/arm-none-eabi/include/c++/10.3.1/bits/stl_algobase.h **** 	}
 622:/opt/homebrew/Cellar/arm-none-eabi-gcc/10.3-2021.07/gcc/arm-none-eabi/include/c++/10.3.1/bits/stl_algobase.h ****     };
 623:/opt/homebrew/Cellar/arm-none-eabi-gcc/10.3-2021.07/gcc/arm-none-eabi/include/c++/10.3.1/bits/stl_algobase.h **** 
 624:/opt/homebrew/Cellar/arm-none-eabi-gcc/10.3-2021.07/gcc/arm-none-eabi/include/c++/10.3.1/bits/stl_algobase.h **** #if __cplusplus >= 201103L
 625:/opt/homebrew/Cellar/arm-none-eabi-gcc/10.3-2021.07/gcc/arm-none-eabi/include/c++/10.3.1/bits/stl_algobase.h ****   template<typename _Category>
 626:/opt/homebrew/Cellar/arm-none-eabi-gcc/10.3-2021.07/gcc/arm-none-eabi/include/c++/10.3.1/bits/stl_algobase.h ****     struct __copy_move_backward<true, false, _Category>
 627:/opt/homebrew/Cellar/arm-none-eabi-gcc/10.3-2021.07/gcc/arm-none-eabi/include/c++/10.3.1/bits/stl_algobase.h ****     {
 628:/opt/homebrew/Cellar/arm-none-eabi-gcc/10.3-2021.07/gcc/arm-none-eabi/include/c++/10.3.1/bits/stl_algobase.h ****       template<typename _BI1, typename _BI2>
 629:/opt/homebrew/Cellar/arm-none-eabi-gcc/10.3-2021.07/gcc/arm-none-eabi/include/c++/10.3.1/bits/stl_algobase.h **** 	_GLIBCXX20_CONSTEXPR
 630:/opt/homebrew/Cellar/arm-none-eabi-gcc/10.3-2021.07/gcc/arm-none-eabi/include/c++/10.3.1/bits/stl_algobase.h **** 	static _BI2
 631:/opt/homebrew/Cellar/arm-none-eabi-gcc/10.3-2021.07/gcc/arm-none-eabi/include/c++/10.3.1/bits/stl_algobase.h **** 	__copy_move_b(_BI1 __first, _BI1 __last, _BI2 __result)
 632:/opt/homebrew/Cellar/arm-none-eabi-gcc/10.3-2021.07/gcc/arm-none-eabi/include/c++/10.3.1/bits/stl_algobase.h **** 	{
 633:/opt/homebrew/Cellar/arm-none-eabi-gcc/10.3-2021.07/gcc/arm-none-eabi/include/c++/10.3.1/bits/stl_algobase.h **** 	  while (__first != __last)
 634:/opt/homebrew/Cellar/arm-none-eabi-gcc/10.3-2021.07/gcc/arm-none-eabi/include/c++/10.3.1/bits/stl_algobase.h **** 	    *--__result = std::move(*--__last);
 635:/opt/homebrew/Cellar/arm-none-eabi-gcc/10.3-2021.07/gcc/arm-none-eabi/include/c++/10.3.1/bits/stl_algobase.h **** 	  return __result;
 636:/opt/homebrew/Cellar/arm-none-eabi-gcc/10.3-2021.07/gcc/arm-none-eabi/include/c++/10.3.1/bits/stl_algobase.h **** 	}
 637:/opt/homebrew/Cellar/arm-none-eabi-gcc/10.3-2021.07/gcc/arm-none-eabi/include/c++/10.3.1/bits/stl_algobase.h ****     };
 638:/opt/homebrew/Cellar/arm-none-eabi-gcc/10.3-2021.07/gcc/arm-none-eabi/include/c++/10.3.1/bits/stl_algobase.h **** #endif
 639:/opt/homebrew/Cellar/arm-none-eabi-gcc/10.3-2021.07/gcc/arm-none-eabi/include/c++/10.3.1/bits/stl_algobase.h **** 
 640:/opt/homebrew/Cellar/arm-none-eabi-gcc/10.3-2021.07/gcc/arm-none-eabi/include/c++/10.3.1/bits/stl_algobase.h ****   template<>
 641:/opt/homebrew/Cellar/arm-none-eabi-gcc/10.3-2021.07/gcc/arm-none-eabi/include/c++/10.3.1/bits/stl_algobase.h ****     struct __copy_move_backward<false, false, random_access_iterator_tag>
 642:/opt/homebrew/Cellar/arm-none-eabi-gcc/10.3-2021.07/gcc/arm-none-eabi/include/c++/10.3.1/bits/stl_algobase.h ****     {
 643:/opt/homebrew/Cellar/arm-none-eabi-gcc/10.3-2021.07/gcc/arm-none-eabi/include/c++/10.3.1/bits/stl_algobase.h ****       template<typename _BI1, typename _BI2>
ARM GAS  /var/folders/hl/qgbwny5j0fd895c2c41bk3tw0000gp/T//cc6AdWFS.s 			page 22


 644:/opt/homebrew/Cellar/arm-none-eabi-gcc/10.3-2021.07/gcc/arm-none-eabi/include/c++/10.3.1/bits/stl_algobase.h **** 	_GLIBCXX20_CONSTEXPR
 645:/opt/homebrew/Cellar/arm-none-eabi-gcc/10.3-2021.07/gcc/arm-none-eabi/include/c++/10.3.1/bits/stl_algobase.h **** 	static _BI2
 646:/opt/homebrew/Cellar/arm-none-eabi-gcc/10.3-2021.07/gcc/arm-none-eabi/include/c++/10.3.1/bits/stl_algobase.h **** 	__copy_move_b(_BI1 __first, _BI1 __last, _BI2 __result)
 647:/opt/homebrew/Cellar/arm-none-eabi-gcc/10.3-2021.07/gcc/arm-none-eabi/include/c++/10.3.1/bits/stl_algobase.h **** 	{
 648:/opt/homebrew/Cellar/arm-none-eabi-gcc/10.3-2021.07/gcc/arm-none-eabi/include/c++/10.3.1/bits/stl_algobase.h **** 	  typename iterator_traits<_BI1>::difference_type
 649:/opt/homebrew/Cellar/arm-none-eabi-gcc/10.3-2021.07/gcc/arm-none-eabi/include/c++/10.3.1/bits/stl_algobase.h **** 	    __n = __last - __first;
 650:/opt/homebrew/Cellar/arm-none-eabi-gcc/10.3-2021.07/gcc/arm-none-eabi/include/c++/10.3.1/bits/stl_algobase.h **** 	  for (; __n > 0; --__n)
 651:/opt/homebrew/Cellar/arm-none-eabi-gcc/10.3-2021.07/gcc/arm-none-eabi/include/c++/10.3.1/bits/stl_algobase.h **** 	    *--__result = *--__last;
 652:/opt/homebrew/Cellar/arm-none-eabi-gcc/10.3-2021.07/gcc/arm-none-eabi/include/c++/10.3.1/bits/stl_algobase.h **** 	  return __result;
 653:/opt/homebrew/Cellar/arm-none-eabi-gcc/10.3-2021.07/gcc/arm-none-eabi/include/c++/10.3.1/bits/stl_algobase.h **** 	}
 654:/opt/homebrew/Cellar/arm-none-eabi-gcc/10.3-2021.07/gcc/arm-none-eabi/include/c++/10.3.1/bits/stl_algobase.h ****     };
 655:/opt/homebrew/Cellar/arm-none-eabi-gcc/10.3-2021.07/gcc/arm-none-eabi/include/c++/10.3.1/bits/stl_algobase.h **** 
 656:/opt/homebrew/Cellar/arm-none-eabi-gcc/10.3-2021.07/gcc/arm-none-eabi/include/c++/10.3.1/bits/stl_algobase.h **** #if __cplusplus >= 201103L
 657:/opt/homebrew/Cellar/arm-none-eabi-gcc/10.3-2021.07/gcc/arm-none-eabi/include/c++/10.3.1/bits/stl_algobase.h ****   template<>
 658:/opt/homebrew/Cellar/arm-none-eabi-gcc/10.3-2021.07/gcc/arm-none-eabi/include/c++/10.3.1/bits/stl_algobase.h ****     struct __copy_move_backward<true, false, random_access_iterator_tag>
 659:/opt/homebrew/Cellar/arm-none-eabi-gcc/10.3-2021.07/gcc/arm-none-eabi/include/c++/10.3.1/bits/stl_algobase.h ****     {
 660:/opt/homebrew/Cellar/arm-none-eabi-gcc/10.3-2021.07/gcc/arm-none-eabi/include/c++/10.3.1/bits/stl_algobase.h ****       template<typename _BI1, typename _BI2>
 661:/opt/homebrew/Cellar/arm-none-eabi-gcc/10.3-2021.07/gcc/arm-none-eabi/include/c++/10.3.1/bits/stl_algobase.h **** 	_GLIBCXX20_CONSTEXPR
 662:/opt/homebrew/Cellar/arm-none-eabi-gcc/10.3-2021.07/gcc/arm-none-eabi/include/c++/10.3.1/bits/stl_algobase.h **** 	static _BI2
 663:/opt/homebrew/Cellar/arm-none-eabi-gcc/10.3-2021.07/gcc/arm-none-eabi/include/c++/10.3.1/bits/stl_algobase.h **** 	__copy_move_b(_BI1 __first, _BI1 __last, _BI2 __result)
 664:/opt/homebrew/Cellar/arm-none-eabi-gcc/10.3-2021.07/gcc/arm-none-eabi/include/c++/10.3.1/bits/stl_algobase.h **** 	{
 665:/opt/homebrew/Cellar/arm-none-eabi-gcc/10.3-2021.07/gcc/arm-none-eabi/include/c++/10.3.1/bits/stl_algobase.h **** 	  typename iterator_traits<_BI1>::difference_type
 666:/opt/homebrew/Cellar/arm-none-eabi-gcc/10.3-2021.07/gcc/arm-none-eabi/include/c++/10.3.1/bits/stl_algobase.h **** 	    __n = __last - __first;
 667:/opt/homebrew/Cellar/arm-none-eabi-gcc/10.3-2021.07/gcc/arm-none-eabi/include/c++/10.3.1/bits/stl_algobase.h **** 	  for (; __n > 0; --__n)
 668:/opt/homebrew/Cellar/arm-none-eabi-gcc/10.3-2021.07/gcc/arm-none-eabi/include/c++/10.3.1/bits/stl_algobase.h **** 	    *--__result = std::move(*--__last);
 669:/opt/homebrew/Cellar/arm-none-eabi-gcc/10.3-2021.07/gcc/arm-none-eabi/include/c++/10.3.1/bits/stl_algobase.h **** 	  return __result;
 670:/opt/homebrew/Cellar/arm-none-eabi-gcc/10.3-2021.07/gcc/arm-none-eabi/include/c++/10.3.1/bits/stl_algobase.h **** 	}
 671:/opt/homebrew/Cellar/arm-none-eabi-gcc/10.3-2021.07/gcc/arm-none-eabi/include/c++/10.3.1/bits/stl_algobase.h ****     };
 672:/opt/homebrew/Cellar/arm-none-eabi-gcc/10.3-2021.07/gcc/arm-none-eabi/include/c++/10.3.1/bits/stl_algobase.h **** #endif
 673:/opt/homebrew/Cellar/arm-none-eabi-gcc/10.3-2021.07/gcc/arm-none-eabi/include/c++/10.3.1/bits/stl_algobase.h **** 
 674:/opt/homebrew/Cellar/arm-none-eabi-gcc/10.3-2021.07/gcc/arm-none-eabi/include/c++/10.3.1/bits/stl_algobase.h ****   template<bool _IsMove>
 675:/opt/homebrew/Cellar/arm-none-eabi-gcc/10.3-2021.07/gcc/arm-none-eabi/include/c++/10.3.1/bits/stl_algobase.h ****     struct __copy_move_backward<_IsMove, true, random_access_iterator_tag>
 676:/opt/homebrew/Cellar/arm-none-eabi-gcc/10.3-2021.07/gcc/arm-none-eabi/include/c++/10.3.1/bits/stl_algobase.h ****     {
 677:/opt/homebrew/Cellar/arm-none-eabi-gcc/10.3-2021.07/gcc/arm-none-eabi/include/c++/10.3.1/bits/stl_algobase.h ****       template<typename _Tp>
 678:/opt/homebrew/Cellar/arm-none-eabi-gcc/10.3-2021.07/gcc/arm-none-eabi/include/c++/10.3.1/bits/stl_algobase.h **** 	_GLIBCXX20_CONSTEXPR
 679:/opt/homebrew/Cellar/arm-none-eabi-gcc/10.3-2021.07/gcc/arm-none-eabi/include/c++/10.3.1/bits/stl_algobase.h **** 	static _Tp*
 680:/opt/homebrew/Cellar/arm-none-eabi-gcc/10.3-2021.07/gcc/arm-none-eabi/include/c++/10.3.1/bits/stl_algobase.h **** 	__copy_move_b(const _Tp* __first, const _Tp* __last, _Tp* __result)
 681:/opt/homebrew/Cellar/arm-none-eabi-gcc/10.3-2021.07/gcc/arm-none-eabi/include/c++/10.3.1/bits/stl_algobase.h **** 	{
 682:/opt/homebrew/Cellar/arm-none-eabi-gcc/10.3-2021.07/gcc/arm-none-eabi/include/c++/10.3.1/bits/stl_algobase.h **** #if __cplusplus >= 201103L
 683:/opt/homebrew/Cellar/arm-none-eabi-gcc/10.3-2021.07/gcc/arm-none-eabi/include/c++/10.3.1/bits/stl_algobase.h **** 	  using __assignable = conditional<_IsMove,
 684:/opt/homebrew/Cellar/arm-none-eabi-gcc/10.3-2021.07/gcc/arm-none-eabi/include/c++/10.3.1/bits/stl_algobase.h **** 					   is_move_assignable<_Tp>,
 685:/opt/homebrew/Cellar/arm-none-eabi-gcc/10.3-2021.07/gcc/arm-none-eabi/include/c++/10.3.1/bits/stl_algobase.h **** 					   is_copy_assignable<_Tp>>;
 686:/opt/homebrew/Cellar/arm-none-eabi-gcc/10.3-2021.07/gcc/arm-none-eabi/include/c++/10.3.1/bits/stl_algobase.h **** 	  // trivial types can have deleted assignment
 687:/opt/homebrew/Cellar/arm-none-eabi-gcc/10.3-2021.07/gcc/arm-none-eabi/include/c++/10.3.1/bits/stl_algobase.h **** 	  static_assert( __assignable::type::value, "type is not assignable" );
 688:/opt/homebrew/Cellar/arm-none-eabi-gcc/10.3-2021.07/gcc/arm-none-eabi/include/c++/10.3.1/bits/stl_algobase.h **** #endif
 689:/opt/homebrew/Cellar/arm-none-eabi-gcc/10.3-2021.07/gcc/arm-none-eabi/include/c++/10.3.1/bits/stl_algobase.h **** 	  const ptrdiff_t _Num = __last - __first;
 690:/opt/homebrew/Cellar/arm-none-eabi-gcc/10.3-2021.07/gcc/arm-none-eabi/include/c++/10.3.1/bits/stl_algobase.h **** 	  if (_Num)
 691:/opt/homebrew/Cellar/arm-none-eabi-gcc/10.3-2021.07/gcc/arm-none-eabi/include/c++/10.3.1/bits/stl_algobase.h **** 	    __builtin_memmove(__result - _Num, __first, sizeof(_Tp) * _Num);
 692:/opt/homebrew/Cellar/arm-none-eabi-gcc/10.3-2021.07/gcc/arm-none-eabi/include/c++/10.3.1/bits/stl_algobase.h **** 	  return __result - _Num;
 693:/opt/homebrew/Cellar/arm-none-eabi-gcc/10.3-2021.07/gcc/arm-none-eabi/include/c++/10.3.1/bits/stl_algobase.h **** 	}
 694:/opt/homebrew/Cellar/arm-none-eabi-gcc/10.3-2021.07/gcc/arm-none-eabi/include/c++/10.3.1/bits/stl_algobase.h ****     };
 695:/opt/homebrew/Cellar/arm-none-eabi-gcc/10.3-2021.07/gcc/arm-none-eabi/include/c++/10.3.1/bits/stl_algobase.h **** 
 696:/opt/homebrew/Cellar/arm-none-eabi-gcc/10.3-2021.07/gcc/arm-none-eabi/include/c++/10.3.1/bits/stl_algobase.h ****   template<bool _IsMove, typename _BI1, typename _BI2>
 697:/opt/homebrew/Cellar/arm-none-eabi-gcc/10.3-2021.07/gcc/arm-none-eabi/include/c++/10.3.1/bits/stl_algobase.h ****     _GLIBCXX20_CONSTEXPR
 698:/opt/homebrew/Cellar/arm-none-eabi-gcc/10.3-2021.07/gcc/arm-none-eabi/include/c++/10.3.1/bits/stl_algobase.h ****     inline _BI2
 699:/opt/homebrew/Cellar/arm-none-eabi-gcc/10.3-2021.07/gcc/arm-none-eabi/include/c++/10.3.1/bits/stl_algobase.h ****     __copy_move_backward_a2(_BI1 __first, _BI1 __last, _BI2 __result)
 700:/opt/homebrew/Cellar/arm-none-eabi-gcc/10.3-2021.07/gcc/arm-none-eabi/include/c++/10.3.1/bits/stl_algobase.h ****     {
ARM GAS  /var/folders/hl/qgbwny5j0fd895c2c41bk3tw0000gp/T//cc6AdWFS.s 			page 23


 701:/opt/homebrew/Cellar/arm-none-eabi-gcc/10.3-2021.07/gcc/arm-none-eabi/include/c++/10.3.1/bits/stl_algobase.h ****       typedef typename iterator_traits<_BI1>::iterator_category _Category;
 702:/opt/homebrew/Cellar/arm-none-eabi-gcc/10.3-2021.07/gcc/arm-none-eabi/include/c++/10.3.1/bits/stl_algobase.h **** #ifdef __cpp_lib_is_constant_evaluated
 703:/opt/homebrew/Cellar/arm-none-eabi-gcc/10.3-2021.07/gcc/arm-none-eabi/include/c++/10.3.1/bits/stl_algobase.h ****       if (std::is_constant_evaluated())
 704:/opt/homebrew/Cellar/arm-none-eabi-gcc/10.3-2021.07/gcc/arm-none-eabi/include/c++/10.3.1/bits/stl_algobase.h **** 	return std::__copy_move_backward<_IsMove, false, _Category>::
 705:/opt/homebrew/Cellar/arm-none-eabi-gcc/10.3-2021.07/gcc/arm-none-eabi/include/c++/10.3.1/bits/stl_algobase.h **** 	  __copy_move_b(__first, __last, __result);
 706:/opt/homebrew/Cellar/arm-none-eabi-gcc/10.3-2021.07/gcc/arm-none-eabi/include/c++/10.3.1/bits/stl_algobase.h **** #endif
 707:/opt/homebrew/Cellar/arm-none-eabi-gcc/10.3-2021.07/gcc/arm-none-eabi/include/c++/10.3.1/bits/stl_algobase.h ****       return std::__copy_move_backward<_IsMove,
 708:/opt/homebrew/Cellar/arm-none-eabi-gcc/10.3-2021.07/gcc/arm-none-eabi/include/c++/10.3.1/bits/stl_algobase.h **** 				       __memcpyable<_BI2, _BI1>::__value,
 709:/opt/homebrew/Cellar/arm-none-eabi-gcc/10.3-2021.07/gcc/arm-none-eabi/include/c++/10.3.1/bits/stl_algobase.h **** 				       _Category>::__copy_move_b(__first,
 710:/opt/homebrew/Cellar/arm-none-eabi-gcc/10.3-2021.07/gcc/arm-none-eabi/include/c++/10.3.1/bits/stl_algobase.h **** 								 __last,
 711:/opt/homebrew/Cellar/arm-none-eabi-gcc/10.3-2021.07/gcc/arm-none-eabi/include/c++/10.3.1/bits/stl_algobase.h **** 								 __result);
 712:/opt/homebrew/Cellar/arm-none-eabi-gcc/10.3-2021.07/gcc/arm-none-eabi/include/c++/10.3.1/bits/stl_algobase.h ****     }
 713:/opt/homebrew/Cellar/arm-none-eabi-gcc/10.3-2021.07/gcc/arm-none-eabi/include/c++/10.3.1/bits/stl_algobase.h **** 
 714:/opt/homebrew/Cellar/arm-none-eabi-gcc/10.3-2021.07/gcc/arm-none-eabi/include/c++/10.3.1/bits/stl_algobase.h ****   template<bool _IsMove, typename _BI1, typename _BI2>
 715:/opt/homebrew/Cellar/arm-none-eabi-gcc/10.3-2021.07/gcc/arm-none-eabi/include/c++/10.3.1/bits/stl_algobase.h ****     _GLIBCXX20_CONSTEXPR
 716:/opt/homebrew/Cellar/arm-none-eabi-gcc/10.3-2021.07/gcc/arm-none-eabi/include/c++/10.3.1/bits/stl_algobase.h ****     inline _BI2
 717:/opt/homebrew/Cellar/arm-none-eabi-gcc/10.3-2021.07/gcc/arm-none-eabi/include/c++/10.3.1/bits/stl_algobase.h ****     __copy_move_backward_a1(_BI1 __first, _BI1 __last, _BI2 __result)
 718:/opt/homebrew/Cellar/arm-none-eabi-gcc/10.3-2021.07/gcc/arm-none-eabi/include/c++/10.3.1/bits/stl_algobase.h ****     { return std::__copy_move_backward_a2<_IsMove>(__first, __last, __result); }
 719:/opt/homebrew/Cellar/arm-none-eabi-gcc/10.3-2021.07/gcc/arm-none-eabi/include/c++/10.3.1/bits/stl_algobase.h **** 
 720:/opt/homebrew/Cellar/arm-none-eabi-gcc/10.3-2021.07/gcc/arm-none-eabi/include/c++/10.3.1/bits/stl_algobase.h ****   template<bool _IsMove,
 721:/opt/homebrew/Cellar/arm-none-eabi-gcc/10.3-2021.07/gcc/arm-none-eabi/include/c++/10.3.1/bits/stl_algobase.h **** 	   typename _Tp, typename _Ref, typename _Ptr, typename _OI>
 722:/opt/homebrew/Cellar/arm-none-eabi-gcc/10.3-2021.07/gcc/arm-none-eabi/include/c++/10.3.1/bits/stl_algobase.h ****     _OI
 723:/opt/homebrew/Cellar/arm-none-eabi-gcc/10.3-2021.07/gcc/arm-none-eabi/include/c++/10.3.1/bits/stl_algobase.h ****     __copy_move_backward_a1(_GLIBCXX_STD_C::_Deque_iterator<_Tp, _Ref, _Ptr>,
 724:/opt/homebrew/Cellar/arm-none-eabi-gcc/10.3-2021.07/gcc/arm-none-eabi/include/c++/10.3.1/bits/stl_algobase.h **** 			    _GLIBCXX_STD_C::_Deque_iterator<_Tp, _Ref, _Ptr>,
 725:/opt/homebrew/Cellar/arm-none-eabi-gcc/10.3-2021.07/gcc/arm-none-eabi/include/c++/10.3.1/bits/stl_algobase.h **** 			    _OI);
 726:/opt/homebrew/Cellar/arm-none-eabi-gcc/10.3-2021.07/gcc/arm-none-eabi/include/c++/10.3.1/bits/stl_algobase.h **** 
 727:/opt/homebrew/Cellar/arm-none-eabi-gcc/10.3-2021.07/gcc/arm-none-eabi/include/c++/10.3.1/bits/stl_algobase.h ****   template<bool _IsMove,
 728:/opt/homebrew/Cellar/arm-none-eabi-gcc/10.3-2021.07/gcc/arm-none-eabi/include/c++/10.3.1/bits/stl_algobase.h **** 	   typename _ITp, typename _IRef, typename _IPtr, typename _OTp>
 729:/opt/homebrew/Cellar/arm-none-eabi-gcc/10.3-2021.07/gcc/arm-none-eabi/include/c++/10.3.1/bits/stl_algobase.h ****     _GLIBCXX_STD_C::_Deque_iterator<_OTp, _OTp&, _OTp*>
 730:/opt/homebrew/Cellar/arm-none-eabi-gcc/10.3-2021.07/gcc/arm-none-eabi/include/c++/10.3.1/bits/stl_algobase.h ****     __copy_move_backward_a1(
 731:/opt/homebrew/Cellar/arm-none-eabi-gcc/10.3-2021.07/gcc/arm-none-eabi/include/c++/10.3.1/bits/stl_algobase.h **** 			_GLIBCXX_STD_C::_Deque_iterator<_ITp, _IRef, _IPtr>,
 732:/opt/homebrew/Cellar/arm-none-eabi-gcc/10.3-2021.07/gcc/arm-none-eabi/include/c++/10.3.1/bits/stl_algobase.h **** 			_GLIBCXX_STD_C::_Deque_iterator<_ITp, _IRef, _IPtr>,
 733:/opt/homebrew/Cellar/arm-none-eabi-gcc/10.3-2021.07/gcc/arm-none-eabi/include/c++/10.3.1/bits/stl_algobase.h **** 			_GLIBCXX_STD_C::_Deque_iterator<_OTp, _OTp&, _OTp*>);
 734:/opt/homebrew/Cellar/arm-none-eabi-gcc/10.3-2021.07/gcc/arm-none-eabi/include/c++/10.3.1/bits/stl_algobase.h **** 
 735:/opt/homebrew/Cellar/arm-none-eabi-gcc/10.3-2021.07/gcc/arm-none-eabi/include/c++/10.3.1/bits/stl_algobase.h ****   template<bool _IsMove, typename _II, typename _Tp>
 736:/opt/homebrew/Cellar/arm-none-eabi-gcc/10.3-2021.07/gcc/arm-none-eabi/include/c++/10.3.1/bits/stl_algobase.h ****     typename __gnu_cxx::__enable_if<
 737:/opt/homebrew/Cellar/arm-none-eabi-gcc/10.3-2021.07/gcc/arm-none-eabi/include/c++/10.3.1/bits/stl_algobase.h ****       __is_random_access_iter<_II>::__value,
 738:/opt/homebrew/Cellar/arm-none-eabi-gcc/10.3-2021.07/gcc/arm-none-eabi/include/c++/10.3.1/bits/stl_algobase.h ****       _GLIBCXX_STD_C::_Deque_iterator<_Tp, _Tp&, _Tp*> >::__type
 739:/opt/homebrew/Cellar/arm-none-eabi-gcc/10.3-2021.07/gcc/arm-none-eabi/include/c++/10.3.1/bits/stl_algobase.h ****     __copy_move_backward_a1(_II, _II,
 740:/opt/homebrew/Cellar/arm-none-eabi-gcc/10.3-2021.07/gcc/arm-none-eabi/include/c++/10.3.1/bits/stl_algobase.h **** 			    _GLIBCXX_STD_C::_Deque_iterator<_Tp, _Tp&, _Tp*>);
 741:/opt/homebrew/Cellar/arm-none-eabi-gcc/10.3-2021.07/gcc/arm-none-eabi/include/c++/10.3.1/bits/stl_algobase.h **** 
 742:/opt/homebrew/Cellar/arm-none-eabi-gcc/10.3-2021.07/gcc/arm-none-eabi/include/c++/10.3.1/bits/stl_algobase.h ****   template<bool _IsMove, typename _II, typename _OI>
 743:/opt/homebrew/Cellar/arm-none-eabi-gcc/10.3-2021.07/gcc/arm-none-eabi/include/c++/10.3.1/bits/stl_algobase.h ****     _GLIBCXX20_CONSTEXPR
 744:/opt/homebrew/Cellar/arm-none-eabi-gcc/10.3-2021.07/gcc/arm-none-eabi/include/c++/10.3.1/bits/stl_algobase.h ****     inline _OI
 745:/opt/homebrew/Cellar/arm-none-eabi-gcc/10.3-2021.07/gcc/arm-none-eabi/include/c++/10.3.1/bits/stl_algobase.h ****     __copy_move_backward_a(_II __first, _II __last, _OI __result)
 746:/opt/homebrew/Cellar/arm-none-eabi-gcc/10.3-2021.07/gcc/arm-none-eabi/include/c++/10.3.1/bits/stl_algobase.h ****     {
 747:/opt/homebrew/Cellar/arm-none-eabi-gcc/10.3-2021.07/gcc/arm-none-eabi/include/c++/10.3.1/bits/stl_algobase.h ****       return std::__niter_wrap(__result,
 748:/opt/homebrew/Cellar/arm-none-eabi-gcc/10.3-2021.07/gcc/arm-none-eabi/include/c++/10.3.1/bits/stl_algobase.h **** 		std::__copy_move_backward_a1<_IsMove>
 749:/opt/homebrew/Cellar/arm-none-eabi-gcc/10.3-2021.07/gcc/arm-none-eabi/include/c++/10.3.1/bits/stl_algobase.h **** 		  (std::__niter_base(__first), std::__niter_base(__last),
 750:/opt/homebrew/Cellar/arm-none-eabi-gcc/10.3-2021.07/gcc/arm-none-eabi/include/c++/10.3.1/bits/stl_algobase.h **** 		   std::__niter_base(__result)));
 751:/opt/homebrew/Cellar/arm-none-eabi-gcc/10.3-2021.07/gcc/arm-none-eabi/include/c++/10.3.1/bits/stl_algobase.h ****     }
 752:/opt/homebrew/Cellar/arm-none-eabi-gcc/10.3-2021.07/gcc/arm-none-eabi/include/c++/10.3.1/bits/stl_algobase.h **** 
 753:/opt/homebrew/Cellar/arm-none-eabi-gcc/10.3-2021.07/gcc/arm-none-eabi/include/c++/10.3.1/bits/stl_algobase.h ****   template<bool _IsMove,
 754:/opt/homebrew/Cellar/arm-none-eabi-gcc/10.3-2021.07/gcc/arm-none-eabi/include/c++/10.3.1/bits/stl_algobase.h **** 	   typename _Ite, typename _Seq, typename _Cat, typename _OI>
 755:/opt/homebrew/Cellar/arm-none-eabi-gcc/10.3-2021.07/gcc/arm-none-eabi/include/c++/10.3.1/bits/stl_algobase.h ****     _OI
 756:/opt/homebrew/Cellar/arm-none-eabi-gcc/10.3-2021.07/gcc/arm-none-eabi/include/c++/10.3.1/bits/stl_algobase.h ****     __copy_move_backward_a(
 757:/opt/homebrew/Cellar/arm-none-eabi-gcc/10.3-2021.07/gcc/arm-none-eabi/include/c++/10.3.1/bits/stl_algobase.h **** 		const ::__gnu_debug::_Safe_iterator<_Ite, _Seq, _Cat>&,
ARM GAS  /var/folders/hl/qgbwny5j0fd895c2c41bk3tw0000gp/T//cc6AdWFS.s 			page 24


 758:/opt/homebrew/Cellar/arm-none-eabi-gcc/10.3-2021.07/gcc/arm-none-eabi/include/c++/10.3.1/bits/stl_algobase.h **** 		const ::__gnu_debug::_Safe_iterator<_Ite, _Seq, _Cat>&,
 759:/opt/homebrew/Cellar/arm-none-eabi-gcc/10.3-2021.07/gcc/arm-none-eabi/include/c++/10.3.1/bits/stl_algobase.h **** 		_OI);
 760:/opt/homebrew/Cellar/arm-none-eabi-gcc/10.3-2021.07/gcc/arm-none-eabi/include/c++/10.3.1/bits/stl_algobase.h **** 
 761:/opt/homebrew/Cellar/arm-none-eabi-gcc/10.3-2021.07/gcc/arm-none-eabi/include/c++/10.3.1/bits/stl_algobase.h ****   template<bool _IsMove,
 762:/opt/homebrew/Cellar/arm-none-eabi-gcc/10.3-2021.07/gcc/arm-none-eabi/include/c++/10.3.1/bits/stl_algobase.h **** 	   typename _II, typename _Ite, typename _Seq, typename _Cat>
 763:/opt/homebrew/Cellar/arm-none-eabi-gcc/10.3-2021.07/gcc/arm-none-eabi/include/c++/10.3.1/bits/stl_algobase.h ****     __gnu_debug::_Safe_iterator<_Ite, _Seq, _Cat>
 764:/opt/homebrew/Cellar/arm-none-eabi-gcc/10.3-2021.07/gcc/arm-none-eabi/include/c++/10.3.1/bits/stl_algobase.h ****     __copy_move_backward_a(_II, _II,
 765:/opt/homebrew/Cellar/arm-none-eabi-gcc/10.3-2021.07/gcc/arm-none-eabi/include/c++/10.3.1/bits/stl_algobase.h **** 		const ::__gnu_debug::_Safe_iterator<_Ite, _Seq, _Cat>&);
 766:/opt/homebrew/Cellar/arm-none-eabi-gcc/10.3-2021.07/gcc/arm-none-eabi/include/c++/10.3.1/bits/stl_algobase.h **** 
 767:/opt/homebrew/Cellar/arm-none-eabi-gcc/10.3-2021.07/gcc/arm-none-eabi/include/c++/10.3.1/bits/stl_algobase.h ****   template<bool _IsMove,
 768:/opt/homebrew/Cellar/arm-none-eabi-gcc/10.3-2021.07/gcc/arm-none-eabi/include/c++/10.3.1/bits/stl_algobase.h **** 	   typename _IIte, typename _ISeq, typename _ICat,
 769:/opt/homebrew/Cellar/arm-none-eabi-gcc/10.3-2021.07/gcc/arm-none-eabi/include/c++/10.3.1/bits/stl_algobase.h **** 	   typename _OIte, typename _OSeq, typename _OCat>
 770:/opt/homebrew/Cellar/arm-none-eabi-gcc/10.3-2021.07/gcc/arm-none-eabi/include/c++/10.3.1/bits/stl_algobase.h ****     ::__gnu_debug::_Safe_iterator<_OIte, _OSeq, _OCat>
 771:/opt/homebrew/Cellar/arm-none-eabi-gcc/10.3-2021.07/gcc/arm-none-eabi/include/c++/10.3.1/bits/stl_algobase.h ****     __copy_move_backward_a(
 772:/opt/homebrew/Cellar/arm-none-eabi-gcc/10.3-2021.07/gcc/arm-none-eabi/include/c++/10.3.1/bits/stl_algobase.h **** 		const ::__gnu_debug::_Safe_iterator<_IIte, _ISeq, _ICat>&,
 773:/opt/homebrew/Cellar/arm-none-eabi-gcc/10.3-2021.07/gcc/arm-none-eabi/include/c++/10.3.1/bits/stl_algobase.h **** 		const ::__gnu_debug::_Safe_iterator<_IIte, _ISeq, _ICat>&,
 774:/opt/homebrew/Cellar/arm-none-eabi-gcc/10.3-2021.07/gcc/arm-none-eabi/include/c++/10.3.1/bits/stl_algobase.h **** 		const ::__gnu_debug::_Safe_iterator<_OIte, _OSeq, _OCat>&);
 775:/opt/homebrew/Cellar/arm-none-eabi-gcc/10.3-2021.07/gcc/arm-none-eabi/include/c++/10.3.1/bits/stl_algobase.h **** 
 776:/opt/homebrew/Cellar/arm-none-eabi-gcc/10.3-2021.07/gcc/arm-none-eabi/include/c++/10.3.1/bits/stl_algobase.h ****   /**
 777:/opt/homebrew/Cellar/arm-none-eabi-gcc/10.3-2021.07/gcc/arm-none-eabi/include/c++/10.3.1/bits/stl_algobase.h ****    *  @brief Copies the range [first,last) into result.
 778:/opt/homebrew/Cellar/arm-none-eabi-gcc/10.3-2021.07/gcc/arm-none-eabi/include/c++/10.3.1/bits/stl_algobase.h ****    *  @ingroup mutating_algorithms
 779:/opt/homebrew/Cellar/arm-none-eabi-gcc/10.3-2021.07/gcc/arm-none-eabi/include/c++/10.3.1/bits/stl_algobase.h ****    *  @param  __first  A bidirectional iterator.
 780:/opt/homebrew/Cellar/arm-none-eabi-gcc/10.3-2021.07/gcc/arm-none-eabi/include/c++/10.3.1/bits/stl_algobase.h ****    *  @param  __last   A bidirectional iterator.
 781:/opt/homebrew/Cellar/arm-none-eabi-gcc/10.3-2021.07/gcc/arm-none-eabi/include/c++/10.3.1/bits/stl_algobase.h ****    *  @param  __result A bidirectional iterator.
 782:/opt/homebrew/Cellar/arm-none-eabi-gcc/10.3-2021.07/gcc/arm-none-eabi/include/c++/10.3.1/bits/stl_algobase.h ****    *  @return   result - (last - first)
 783:/opt/homebrew/Cellar/arm-none-eabi-gcc/10.3-2021.07/gcc/arm-none-eabi/include/c++/10.3.1/bits/stl_algobase.h ****    *
 784:/opt/homebrew/Cellar/arm-none-eabi-gcc/10.3-2021.07/gcc/arm-none-eabi/include/c++/10.3.1/bits/stl_algobase.h ****    *  The function has the same effect as copy, but starts at the end of the
 785:/opt/homebrew/Cellar/arm-none-eabi-gcc/10.3-2021.07/gcc/arm-none-eabi/include/c++/10.3.1/bits/stl_algobase.h ****    *  range and works its way to the start, returning the start of the result.
 786:/opt/homebrew/Cellar/arm-none-eabi-gcc/10.3-2021.07/gcc/arm-none-eabi/include/c++/10.3.1/bits/stl_algobase.h ****    *  This inline function will boil down to a call to @c memmove whenever
 787:/opt/homebrew/Cellar/arm-none-eabi-gcc/10.3-2021.07/gcc/arm-none-eabi/include/c++/10.3.1/bits/stl_algobase.h ****    *  possible.  Failing that, if random access iterators are passed, then the
 788:/opt/homebrew/Cellar/arm-none-eabi-gcc/10.3-2021.07/gcc/arm-none-eabi/include/c++/10.3.1/bits/stl_algobase.h ****    *  loop count will be known (and therefore a candidate for compiler
 789:/opt/homebrew/Cellar/arm-none-eabi-gcc/10.3-2021.07/gcc/arm-none-eabi/include/c++/10.3.1/bits/stl_algobase.h ****    *  optimizations such as unrolling).
 790:/opt/homebrew/Cellar/arm-none-eabi-gcc/10.3-2021.07/gcc/arm-none-eabi/include/c++/10.3.1/bits/stl_algobase.h ****    *
 791:/opt/homebrew/Cellar/arm-none-eabi-gcc/10.3-2021.07/gcc/arm-none-eabi/include/c++/10.3.1/bits/stl_algobase.h ****    *  Result may not be in the range (first,last].  Use copy instead.  Note
 792:/opt/homebrew/Cellar/arm-none-eabi-gcc/10.3-2021.07/gcc/arm-none-eabi/include/c++/10.3.1/bits/stl_algobase.h ****    *  that the start of the output range may overlap [first,last).
 793:/opt/homebrew/Cellar/arm-none-eabi-gcc/10.3-2021.07/gcc/arm-none-eabi/include/c++/10.3.1/bits/stl_algobase.h ****   */
 794:/opt/homebrew/Cellar/arm-none-eabi-gcc/10.3-2021.07/gcc/arm-none-eabi/include/c++/10.3.1/bits/stl_algobase.h ****   template<typename _BI1, typename _BI2>
 795:/opt/homebrew/Cellar/arm-none-eabi-gcc/10.3-2021.07/gcc/arm-none-eabi/include/c++/10.3.1/bits/stl_algobase.h ****     _GLIBCXX20_CONSTEXPR
 796:/opt/homebrew/Cellar/arm-none-eabi-gcc/10.3-2021.07/gcc/arm-none-eabi/include/c++/10.3.1/bits/stl_algobase.h ****     inline _BI2
 797:/opt/homebrew/Cellar/arm-none-eabi-gcc/10.3-2021.07/gcc/arm-none-eabi/include/c++/10.3.1/bits/stl_algobase.h ****     copy_backward(_BI1 __first, _BI1 __last, _BI2 __result)
 798:/opt/homebrew/Cellar/arm-none-eabi-gcc/10.3-2021.07/gcc/arm-none-eabi/include/c++/10.3.1/bits/stl_algobase.h ****     {
 799:/opt/homebrew/Cellar/arm-none-eabi-gcc/10.3-2021.07/gcc/arm-none-eabi/include/c++/10.3.1/bits/stl_algobase.h ****       // concept requirements
 800:/opt/homebrew/Cellar/arm-none-eabi-gcc/10.3-2021.07/gcc/arm-none-eabi/include/c++/10.3.1/bits/stl_algobase.h ****       __glibcxx_function_requires(_BidirectionalIteratorConcept<_BI1>)
 801:/opt/homebrew/Cellar/arm-none-eabi-gcc/10.3-2021.07/gcc/arm-none-eabi/include/c++/10.3.1/bits/stl_algobase.h ****       __glibcxx_function_requires(_Mutable_BidirectionalIteratorConcept<_BI2>)
 802:/opt/homebrew/Cellar/arm-none-eabi-gcc/10.3-2021.07/gcc/arm-none-eabi/include/c++/10.3.1/bits/stl_algobase.h ****       __glibcxx_function_requires(_ConvertibleConcept<
 803:/opt/homebrew/Cellar/arm-none-eabi-gcc/10.3-2021.07/gcc/arm-none-eabi/include/c++/10.3.1/bits/stl_algobase.h **** 	    typename iterator_traits<_BI1>::value_type,
 804:/opt/homebrew/Cellar/arm-none-eabi-gcc/10.3-2021.07/gcc/arm-none-eabi/include/c++/10.3.1/bits/stl_algobase.h **** 	    typename iterator_traits<_BI2>::value_type>)
 805:/opt/homebrew/Cellar/arm-none-eabi-gcc/10.3-2021.07/gcc/arm-none-eabi/include/c++/10.3.1/bits/stl_algobase.h ****       __glibcxx_requires_can_decrement_range(__first, __last, __result);
 806:/opt/homebrew/Cellar/arm-none-eabi-gcc/10.3-2021.07/gcc/arm-none-eabi/include/c++/10.3.1/bits/stl_algobase.h **** 
 807:/opt/homebrew/Cellar/arm-none-eabi-gcc/10.3-2021.07/gcc/arm-none-eabi/include/c++/10.3.1/bits/stl_algobase.h ****       return std::__copy_move_backward_a<__is_move_iterator<_BI1>::__value>
 808:/opt/homebrew/Cellar/arm-none-eabi-gcc/10.3-2021.07/gcc/arm-none-eabi/include/c++/10.3.1/bits/stl_algobase.h **** 	     (std::__miter_base(__first), std::__miter_base(__last), __result);
 809:/opt/homebrew/Cellar/arm-none-eabi-gcc/10.3-2021.07/gcc/arm-none-eabi/include/c++/10.3.1/bits/stl_algobase.h ****     }
 810:/opt/homebrew/Cellar/arm-none-eabi-gcc/10.3-2021.07/gcc/arm-none-eabi/include/c++/10.3.1/bits/stl_algobase.h **** 
 811:/opt/homebrew/Cellar/arm-none-eabi-gcc/10.3-2021.07/gcc/arm-none-eabi/include/c++/10.3.1/bits/stl_algobase.h **** #if __cplusplus >= 201103L
 812:/opt/homebrew/Cellar/arm-none-eabi-gcc/10.3-2021.07/gcc/arm-none-eabi/include/c++/10.3.1/bits/stl_algobase.h ****   /**
 813:/opt/homebrew/Cellar/arm-none-eabi-gcc/10.3-2021.07/gcc/arm-none-eabi/include/c++/10.3.1/bits/stl_algobase.h ****    *  @brief Moves the range [first,last) into result.
 814:/opt/homebrew/Cellar/arm-none-eabi-gcc/10.3-2021.07/gcc/arm-none-eabi/include/c++/10.3.1/bits/stl_algobase.h ****    *  @ingroup mutating_algorithms
ARM GAS  /var/folders/hl/qgbwny5j0fd895c2c41bk3tw0000gp/T//cc6AdWFS.s 			page 25


 815:/opt/homebrew/Cellar/arm-none-eabi-gcc/10.3-2021.07/gcc/arm-none-eabi/include/c++/10.3.1/bits/stl_algobase.h ****    *  @param  __first  A bidirectional iterator.
 816:/opt/homebrew/Cellar/arm-none-eabi-gcc/10.3-2021.07/gcc/arm-none-eabi/include/c++/10.3.1/bits/stl_algobase.h ****    *  @param  __last   A bidirectional iterator.
 817:/opt/homebrew/Cellar/arm-none-eabi-gcc/10.3-2021.07/gcc/arm-none-eabi/include/c++/10.3.1/bits/stl_algobase.h ****    *  @param  __result A bidirectional iterator.
 818:/opt/homebrew/Cellar/arm-none-eabi-gcc/10.3-2021.07/gcc/arm-none-eabi/include/c++/10.3.1/bits/stl_algobase.h ****    *  @return   result - (last - first)
 819:/opt/homebrew/Cellar/arm-none-eabi-gcc/10.3-2021.07/gcc/arm-none-eabi/include/c++/10.3.1/bits/stl_algobase.h ****    *
 820:/opt/homebrew/Cellar/arm-none-eabi-gcc/10.3-2021.07/gcc/arm-none-eabi/include/c++/10.3.1/bits/stl_algobase.h ****    *  The function has the same effect as move, but starts at the end of the
 821:/opt/homebrew/Cellar/arm-none-eabi-gcc/10.3-2021.07/gcc/arm-none-eabi/include/c++/10.3.1/bits/stl_algobase.h ****    *  range and works its way to the start, returning the start of the result.
 822:/opt/homebrew/Cellar/arm-none-eabi-gcc/10.3-2021.07/gcc/arm-none-eabi/include/c++/10.3.1/bits/stl_algobase.h ****    *  This inline function will boil down to a call to @c memmove whenever
 823:/opt/homebrew/Cellar/arm-none-eabi-gcc/10.3-2021.07/gcc/arm-none-eabi/include/c++/10.3.1/bits/stl_algobase.h ****    *  possible.  Failing that, if random access iterators are passed, then the
 824:/opt/homebrew/Cellar/arm-none-eabi-gcc/10.3-2021.07/gcc/arm-none-eabi/include/c++/10.3.1/bits/stl_algobase.h ****    *  loop count will be known (and therefore a candidate for compiler
 825:/opt/homebrew/Cellar/arm-none-eabi-gcc/10.3-2021.07/gcc/arm-none-eabi/include/c++/10.3.1/bits/stl_algobase.h ****    *  optimizations such as unrolling).
 826:/opt/homebrew/Cellar/arm-none-eabi-gcc/10.3-2021.07/gcc/arm-none-eabi/include/c++/10.3.1/bits/stl_algobase.h ****    *
 827:/opt/homebrew/Cellar/arm-none-eabi-gcc/10.3-2021.07/gcc/arm-none-eabi/include/c++/10.3.1/bits/stl_algobase.h ****    *  Result may not be in the range (first,last].  Use move instead.  Note
 828:/opt/homebrew/Cellar/arm-none-eabi-gcc/10.3-2021.07/gcc/arm-none-eabi/include/c++/10.3.1/bits/stl_algobase.h ****    *  that the start of the output range may overlap [first,last).
 829:/opt/homebrew/Cellar/arm-none-eabi-gcc/10.3-2021.07/gcc/arm-none-eabi/include/c++/10.3.1/bits/stl_algobase.h ****   */
 830:/opt/homebrew/Cellar/arm-none-eabi-gcc/10.3-2021.07/gcc/arm-none-eabi/include/c++/10.3.1/bits/stl_algobase.h ****   template<typename _BI1, typename _BI2>
 831:/opt/homebrew/Cellar/arm-none-eabi-gcc/10.3-2021.07/gcc/arm-none-eabi/include/c++/10.3.1/bits/stl_algobase.h ****     _GLIBCXX20_CONSTEXPR
 832:/opt/homebrew/Cellar/arm-none-eabi-gcc/10.3-2021.07/gcc/arm-none-eabi/include/c++/10.3.1/bits/stl_algobase.h ****     inline _BI2
 833:/opt/homebrew/Cellar/arm-none-eabi-gcc/10.3-2021.07/gcc/arm-none-eabi/include/c++/10.3.1/bits/stl_algobase.h ****     move_backward(_BI1 __first, _BI1 __last, _BI2 __result)
 834:/opt/homebrew/Cellar/arm-none-eabi-gcc/10.3-2021.07/gcc/arm-none-eabi/include/c++/10.3.1/bits/stl_algobase.h ****     {
 835:/opt/homebrew/Cellar/arm-none-eabi-gcc/10.3-2021.07/gcc/arm-none-eabi/include/c++/10.3.1/bits/stl_algobase.h ****       // concept requirements
 836:/opt/homebrew/Cellar/arm-none-eabi-gcc/10.3-2021.07/gcc/arm-none-eabi/include/c++/10.3.1/bits/stl_algobase.h ****       __glibcxx_function_requires(_BidirectionalIteratorConcept<_BI1>)
 837:/opt/homebrew/Cellar/arm-none-eabi-gcc/10.3-2021.07/gcc/arm-none-eabi/include/c++/10.3.1/bits/stl_algobase.h ****       __glibcxx_function_requires(_Mutable_BidirectionalIteratorConcept<_BI2>)
 838:/opt/homebrew/Cellar/arm-none-eabi-gcc/10.3-2021.07/gcc/arm-none-eabi/include/c++/10.3.1/bits/stl_algobase.h ****       __glibcxx_function_requires(_ConvertibleConcept<
 839:/opt/homebrew/Cellar/arm-none-eabi-gcc/10.3-2021.07/gcc/arm-none-eabi/include/c++/10.3.1/bits/stl_algobase.h **** 	    typename iterator_traits<_BI1>::value_type,
 840:/opt/homebrew/Cellar/arm-none-eabi-gcc/10.3-2021.07/gcc/arm-none-eabi/include/c++/10.3.1/bits/stl_algobase.h **** 	    typename iterator_traits<_BI2>::value_type>)
 841:/opt/homebrew/Cellar/arm-none-eabi-gcc/10.3-2021.07/gcc/arm-none-eabi/include/c++/10.3.1/bits/stl_algobase.h ****       __glibcxx_requires_can_decrement_range(__first, __last, __result);
 842:/opt/homebrew/Cellar/arm-none-eabi-gcc/10.3-2021.07/gcc/arm-none-eabi/include/c++/10.3.1/bits/stl_algobase.h **** 
 843:/opt/homebrew/Cellar/arm-none-eabi-gcc/10.3-2021.07/gcc/arm-none-eabi/include/c++/10.3.1/bits/stl_algobase.h ****       return std::__copy_move_backward_a<true>(std::__miter_base(__first),
 844:/opt/homebrew/Cellar/arm-none-eabi-gcc/10.3-2021.07/gcc/arm-none-eabi/include/c++/10.3.1/bits/stl_algobase.h **** 					       std::__miter_base(__last),
 845:/opt/homebrew/Cellar/arm-none-eabi-gcc/10.3-2021.07/gcc/arm-none-eabi/include/c++/10.3.1/bits/stl_algobase.h **** 					       __result);
 846:/opt/homebrew/Cellar/arm-none-eabi-gcc/10.3-2021.07/gcc/arm-none-eabi/include/c++/10.3.1/bits/stl_algobase.h ****     }
 847:/opt/homebrew/Cellar/arm-none-eabi-gcc/10.3-2021.07/gcc/arm-none-eabi/include/c++/10.3.1/bits/stl_algobase.h **** 
 848:/opt/homebrew/Cellar/arm-none-eabi-gcc/10.3-2021.07/gcc/arm-none-eabi/include/c++/10.3.1/bits/stl_algobase.h **** #define _GLIBCXX_MOVE_BACKWARD3(_Tp, _Up, _Vp) std::move_backward(_Tp, _Up, _Vp)
 849:/opt/homebrew/Cellar/arm-none-eabi-gcc/10.3-2021.07/gcc/arm-none-eabi/include/c++/10.3.1/bits/stl_algobase.h **** #else
 850:/opt/homebrew/Cellar/arm-none-eabi-gcc/10.3-2021.07/gcc/arm-none-eabi/include/c++/10.3.1/bits/stl_algobase.h **** #define _GLIBCXX_MOVE_BACKWARD3(_Tp, _Up, _Vp) std::copy_backward(_Tp, _Up, _Vp)
 851:/opt/homebrew/Cellar/arm-none-eabi-gcc/10.3-2021.07/gcc/arm-none-eabi/include/c++/10.3.1/bits/stl_algobase.h **** #endif
 852:/opt/homebrew/Cellar/arm-none-eabi-gcc/10.3-2021.07/gcc/arm-none-eabi/include/c++/10.3.1/bits/stl_algobase.h **** 
 853:/opt/homebrew/Cellar/arm-none-eabi-gcc/10.3-2021.07/gcc/arm-none-eabi/include/c++/10.3.1/bits/stl_algobase.h ****   template<typename _ForwardIterator, typename _Tp>
 854:/opt/homebrew/Cellar/arm-none-eabi-gcc/10.3-2021.07/gcc/arm-none-eabi/include/c++/10.3.1/bits/stl_algobase.h ****     _GLIBCXX20_CONSTEXPR
 855:/opt/homebrew/Cellar/arm-none-eabi-gcc/10.3-2021.07/gcc/arm-none-eabi/include/c++/10.3.1/bits/stl_algobase.h ****     inline typename
 856:/opt/homebrew/Cellar/arm-none-eabi-gcc/10.3-2021.07/gcc/arm-none-eabi/include/c++/10.3.1/bits/stl_algobase.h ****     __gnu_cxx::__enable_if<!__is_scalar<_Tp>::__value, void>::__type
 857:/opt/homebrew/Cellar/arm-none-eabi-gcc/10.3-2021.07/gcc/arm-none-eabi/include/c++/10.3.1/bits/stl_algobase.h ****     __fill_a1(_ForwardIterator __first, _ForwardIterator __last,
 858:/opt/homebrew/Cellar/arm-none-eabi-gcc/10.3-2021.07/gcc/arm-none-eabi/include/c++/10.3.1/bits/stl_algobase.h **** 	      const _Tp& __value)
 859:/opt/homebrew/Cellar/arm-none-eabi-gcc/10.3-2021.07/gcc/arm-none-eabi/include/c++/10.3.1/bits/stl_algobase.h ****     {
 860:/opt/homebrew/Cellar/arm-none-eabi-gcc/10.3-2021.07/gcc/arm-none-eabi/include/c++/10.3.1/bits/stl_algobase.h ****       for (; __first != __last; ++__first)
 861:/opt/homebrew/Cellar/arm-none-eabi-gcc/10.3-2021.07/gcc/arm-none-eabi/include/c++/10.3.1/bits/stl_algobase.h **** 	*__first = __value;
 862:/opt/homebrew/Cellar/arm-none-eabi-gcc/10.3-2021.07/gcc/arm-none-eabi/include/c++/10.3.1/bits/stl_algobase.h ****     }
 863:/opt/homebrew/Cellar/arm-none-eabi-gcc/10.3-2021.07/gcc/arm-none-eabi/include/c++/10.3.1/bits/stl_algobase.h **** 
 864:/opt/homebrew/Cellar/arm-none-eabi-gcc/10.3-2021.07/gcc/arm-none-eabi/include/c++/10.3.1/bits/stl_algobase.h ****   template<typename _ForwardIterator, typename _Tp>
 865:/opt/homebrew/Cellar/arm-none-eabi-gcc/10.3-2021.07/gcc/arm-none-eabi/include/c++/10.3.1/bits/stl_algobase.h ****     _GLIBCXX20_CONSTEXPR
 866:/opt/homebrew/Cellar/arm-none-eabi-gcc/10.3-2021.07/gcc/arm-none-eabi/include/c++/10.3.1/bits/stl_algobase.h ****     inline typename
 867:/opt/homebrew/Cellar/arm-none-eabi-gcc/10.3-2021.07/gcc/arm-none-eabi/include/c++/10.3.1/bits/stl_algobase.h ****     __gnu_cxx::__enable_if<__is_scalar<_Tp>::__value, void>::__type
 868:/opt/homebrew/Cellar/arm-none-eabi-gcc/10.3-2021.07/gcc/arm-none-eabi/include/c++/10.3.1/bits/stl_algobase.h ****     __fill_a1(_ForwardIterator __first, _ForwardIterator __last,
 869:/opt/homebrew/Cellar/arm-none-eabi-gcc/10.3-2021.07/gcc/arm-none-eabi/include/c++/10.3.1/bits/stl_algobase.h **** 	      const _Tp& __value)
 870:/opt/homebrew/Cellar/arm-none-eabi-gcc/10.3-2021.07/gcc/arm-none-eabi/include/c++/10.3.1/bits/stl_algobase.h ****     {
 871:/opt/homebrew/Cellar/arm-none-eabi-gcc/10.3-2021.07/gcc/arm-none-eabi/include/c++/10.3.1/bits/stl_algobase.h ****       const _Tp __tmp = __value;
ARM GAS  /var/folders/hl/qgbwny5j0fd895c2c41bk3tw0000gp/T//cc6AdWFS.s 			page 26


 872:/opt/homebrew/Cellar/arm-none-eabi-gcc/10.3-2021.07/gcc/arm-none-eabi/include/c++/10.3.1/bits/stl_algobase.h ****       for (; __first != __last; ++__first)
 873:/opt/homebrew/Cellar/arm-none-eabi-gcc/10.3-2021.07/gcc/arm-none-eabi/include/c++/10.3.1/bits/stl_algobase.h **** 	*__first = __tmp;
 874:/opt/homebrew/Cellar/arm-none-eabi-gcc/10.3-2021.07/gcc/arm-none-eabi/include/c++/10.3.1/bits/stl_algobase.h ****     }
 875:/opt/homebrew/Cellar/arm-none-eabi-gcc/10.3-2021.07/gcc/arm-none-eabi/include/c++/10.3.1/bits/stl_algobase.h **** 
 876:/opt/homebrew/Cellar/arm-none-eabi-gcc/10.3-2021.07/gcc/arm-none-eabi/include/c++/10.3.1/bits/stl_algobase.h ****   // Specialization: for char types we can use memset.
 877:/opt/homebrew/Cellar/arm-none-eabi-gcc/10.3-2021.07/gcc/arm-none-eabi/include/c++/10.3.1/bits/stl_algobase.h ****   template<typename _Tp>
 878:/opt/homebrew/Cellar/arm-none-eabi-gcc/10.3-2021.07/gcc/arm-none-eabi/include/c++/10.3.1/bits/stl_algobase.h ****     _GLIBCXX20_CONSTEXPR
 879:/opt/homebrew/Cellar/arm-none-eabi-gcc/10.3-2021.07/gcc/arm-none-eabi/include/c++/10.3.1/bits/stl_algobase.h ****     inline typename
 880:/opt/homebrew/Cellar/arm-none-eabi-gcc/10.3-2021.07/gcc/arm-none-eabi/include/c++/10.3.1/bits/stl_algobase.h ****     __gnu_cxx::__enable_if<__is_byte<_Tp>::__value, void>::__type
 881:/opt/homebrew/Cellar/arm-none-eabi-gcc/10.3-2021.07/gcc/arm-none-eabi/include/c++/10.3.1/bits/stl_algobase.h ****     __fill_a1(_Tp* __first, _Tp* __last, const _Tp& __c)
 882:/opt/homebrew/Cellar/arm-none-eabi-gcc/10.3-2021.07/gcc/arm-none-eabi/include/c++/10.3.1/bits/stl_algobase.h ****     {
 883:/opt/homebrew/Cellar/arm-none-eabi-gcc/10.3-2021.07/gcc/arm-none-eabi/include/c++/10.3.1/bits/stl_algobase.h ****       const _Tp __tmp = __c;
 884:/opt/homebrew/Cellar/arm-none-eabi-gcc/10.3-2021.07/gcc/arm-none-eabi/include/c++/10.3.1/bits/stl_algobase.h **** #if __cpp_lib_is_constant_evaluated
 885:/opt/homebrew/Cellar/arm-none-eabi-gcc/10.3-2021.07/gcc/arm-none-eabi/include/c++/10.3.1/bits/stl_algobase.h ****       if (std::is_constant_evaluated())
 886:/opt/homebrew/Cellar/arm-none-eabi-gcc/10.3-2021.07/gcc/arm-none-eabi/include/c++/10.3.1/bits/stl_algobase.h **** 	{
 887:/opt/homebrew/Cellar/arm-none-eabi-gcc/10.3-2021.07/gcc/arm-none-eabi/include/c++/10.3.1/bits/stl_algobase.h **** 	  for (; __first != __last; ++__first)
 888:/opt/homebrew/Cellar/arm-none-eabi-gcc/10.3-2021.07/gcc/arm-none-eabi/include/c++/10.3.1/bits/stl_algobase.h **** 	    *__first = __tmp;
 889:/opt/homebrew/Cellar/arm-none-eabi-gcc/10.3-2021.07/gcc/arm-none-eabi/include/c++/10.3.1/bits/stl_algobase.h **** 	  return;
 890:/opt/homebrew/Cellar/arm-none-eabi-gcc/10.3-2021.07/gcc/arm-none-eabi/include/c++/10.3.1/bits/stl_algobase.h **** 	}
 891:/opt/homebrew/Cellar/arm-none-eabi-gcc/10.3-2021.07/gcc/arm-none-eabi/include/c++/10.3.1/bits/stl_algobase.h **** #endif
 892:/opt/homebrew/Cellar/arm-none-eabi-gcc/10.3-2021.07/gcc/arm-none-eabi/include/c++/10.3.1/bits/stl_algobase.h ****       if (const size_t __len = __last - __first)
 893:/opt/homebrew/Cellar/arm-none-eabi-gcc/10.3-2021.07/gcc/arm-none-eabi/include/c++/10.3.1/bits/stl_algobase.h **** 	__builtin_memset(__first, static_cast<unsigned char>(__tmp), __len);
 894:/opt/homebrew/Cellar/arm-none-eabi-gcc/10.3-2021.07/gcc/arm-none-eabi/include/c++/10.3.1/bits/stl_algobase.h ****     }
 895:/opt/homebrew/Cellar/arm-none-eabi-gcc/10.3-2021.07/gcc/arm-none-eabi/include/c++/10.3.1/bits/stl_algobase.h **** 
 896:/opt/homebrew/Cellar/arm-none-eabi-gcc/10.3-2021.07/gcc/arm-none-eabi/include/c++/10.3.1/bits/stl_algobase.h ****   template<typename _Ite, typename _Cont, typename _Tp>
 897:/opt/homebrew/Cellar/arm-none-eabi-gcc/10.3-2021.07/gcc/arm-none-eabi/include/c++/10.3.1/bits/stl_algobase.h ****     _GLIBCXX20_CONSTEXPR
 898:/opt/homebrew/Cellar/arm-none-eabi-gcc/10.3-2021.07/gcc/arm-none-eabi/include/c++/10.3.1/bits/stl_algobase.h ****     inline void
 899:/opt/homebrew/Cellar/arm-none-eabi-gcc/10.3-2021.07/gcc/arm-none-eabi/include/c++/10.3.1/bits/stl_algobase.h ****     __fill_a1(::__gnu_cxx::__normal_iterator<_Ite, _Cont> __first,
 900:/opt/homebrew/Cellar/arm-none-eabi-gcc/10.3-2021.07/gcc/arm-none-eabi/include/c++/10.3.1/bits/stl_algobase.h **** 	      ::__gnu_cxx::__normal_iterator<_Ite, _Cont> __last,
 901:/opt/homebrew/Cellar/arm-none-eabi-gcc/10.3-2021.07/gcc/arm-none-eabi/include/c++/10.3.1/bits/stl_algobase.h **** 	      const _Tp& __value)
 902:/opt/homebrew/Cellar/arm-none-eabi-gcc/10.3-2021.07/gcc/arm-none-eabi/include/c++/10.3.1/bits/stl_algobase.h ****     { std::__fill_a1(__first.base(), __last.base(), __value); }
 903:/opt/homebrew/Cellar/arm-none-eabi-gcc/10.3-2021.07/gcc/arm-none-eabi/include/c++/10.3.1/bits/stl_algobase.h **** 
 904:/opt/homebrew/Cellar/arm-none-eabi-gcc/10.3-2021.07/gcc/arm-none-eabi/include/c++/10.3.1/bits/stl_algobase.h ****   template<typename _Tp, typename _VTp>
 905:/opt/homebrew/Cellar/arm-none-eabi-gcc/10.3-2021.07/gcc/arm-none-eabi/include/c++/10.3.1/bits/stl_algobase.h ****     void
 906:/opt/homebrew/Cellar/arm-none-eabi-gcc/10.3-2021.07/gcc/arm-none-eabi/include/c++/10.3.1/bits/stl_algobase.h ****     __fill_a1(const _GLIBCXX_STD_C::_Deque_iterator<_Tp, _Tp&, _Tp*>&,
 907:/opt/homebrew/Cellar/arm-none-eabi-gcc/10.3-2021.07/gcc/arm-none-eabi/include/c++/10.3.1/bits/stl_algobase.h **** 	      const _GLIBCXX_STD_C::_Deque_iterator<_Tp, _Tp&, _Tp*>&,
 908:/opt/homebrew/Cellar/arm-none-eabi-gcc/10.3-2021.07/gcc/arm-none-eabi/include/c++/10.3.1/bits/stl_algobase.h **** 	      const _VTp&);
 909:/opt/homebrew/Cellar/arm-none-eabi-gcc/10.3-2021.07/gcc/arm-none-eabi/include/c++/10.3.1/bits/stl_algobase.h **** 
 910:/opt/homebrew/Cellar/arm-none-eabi-gcc/10.3-2021.07/gcc/arm-none-eabi/include/c++/10.3.1/bits/stl_algobase.h ****   template<typename _FIte, typename _Tp>
 911:/opt/homebrew/Cellar/arm-none-eabi-gcc/10.3-2021.07/gcc/arm-none-eabi/include/c++/10.3.1/bits/stl_algobase.h ****     _GLIBCXX20_CONSTEXPR
 912:/opt/homebrew/Cellar/arm-none-eabi-gcc/10.3-2021.07/gcc/arm-none-eabi/include/c++/10.3.1/bits/stl_algobase.h ****     inline void
 913:/opt/homebrew/Cellar/arm-none-eabi-gcc/10.3-2021.07/gcc/arm-none-eabi/include/c++/10.3.1/bits/stl_algobase.h ****     __fill_a(_FIte __first, _FIte __last, const _Tp& __value)
 914:/opt/homebrew/Cellar/arm-none-eabi-gcc/10.3-2021.07/gcc/arm-none-eabi/include/c++/10.3.1/bits/stl_algobase.h ****     { std::__fill_a1(__first, __last, __value); }
 915:/opt/homebrew/Cellar/arm-none-eabi-gcc/10.3-2021.07/gcc/arm-none-eabi/include/c++/10.3.1/bits/stl_algobase.h **** 
 916:/opt/homebrew/Cellar/arm-none-eabi-gcc/10.3-2021.07/gcc/arm-none-eabi/include/c++/10.3.1/bits/stl_algobase.h ****   template<typename _Ite, typename _Seq, typename _Cat, typename _Tp>
 917:/opt/homebrew/Cellar/arm-none-eabi-gcc/10.3-2021.07/gcc/arm-none-eabi/include/c++/10.3.1/bits/stl_algobase.h ****     void
 918:/opt/homebrew/Cellar/arm-none-eabi-gcc/10.3-2021.07/gcc/arm-none-eabi/include/c++/10.3.1/bits/stl_algobase.h ****     __fill_a(const ::__gnu_debug::_Safe_iterator<_Ite, _Seq, _Cat>&,
 919:/opt/homebrew/Cellar/arm-none-eabi-gcc/10.3-2021.07/gcc/arm-none-eabi/include/c++/10.3.1/bits/stl_algobase.h **** 	     const ::__gnu_debug::_Safe_iterator<_Ite, _Seq, _Cat>&,
 920:/opt/homebrew/Cellar/arm-none-eabi-gcc/10.3-2021.07/gcc/arm-none-eabi/include/c++/10.3.1/bits/stl_algobase.h **** 	     const _Tp&);
 921:/opt/homebrew/Cellar/arm-none-eabi-gcc/10.3-2021.07/gcc/arm-none-eabi/include/c++/10.3.1/bits/stl_algobase.h **** 
 922:/opt/homebrew/Cellar/arm-none-eabi-gcc/10.3-2021.07/gcc/arm-none-eabi/include/c++/10.3.1/bits/stl_algobase.h ****   /**
 923:/opt/homebrew/Cellar/arm-none-eabi-gcc/10.3-2021.07/gcc/arm-none-eabi/include/c++/10.3.1/bits/stl_algobase.h ****    *  @brief Fills the range [first,last) with copies of value.
 924:/opt/homebrew/Cellar/arm-none-eabi-gcc/10.3-2021.07/gcc/arm-none-eabi/include/c++/10.3.1/bits/stl_algobase.h ****    *  @ingroup mutating_algorithms
 925:/opt/homebrew/Cellar/arm-none-eabi-gcc/10.3-2021.07/gcc/arm-none-eabi/include/c++/10.3.1/bits/stl_algobase.h ****    *  @param  __first  A forward iterator.
 926:/opt/homebrew/Cellar/arm-none-eabi-gcc/10.3-2021.07/gcc/arm-none-eabi/include/c++/10.3.1/bits/stl_algobase.h ****    *  @param  __last   A forward iterator.
 927:/opt/homebrew/Cellar/arm-none-eabi-gcc/10.3-2021.07/gcc/arm-none-eabi/include/c++/10.3.1/bits/stl_algobase.h ****    *  @param  __value  A reference-to-const of arbitrary type.
 928:/opt/homebrew/Cellar/arm-none-eabi-gcc/10.3-2021.07/gcc/arm-none-eabi/include/c++/10.3.1/bits/stl_algobase.h ****    *  @return   Nothing.
ARM GAS  /var/folders/hl/qgbwny5j0fd895c2c41bk3tw0000gp/T//cc6AdWFS.s 			page 27


 929:/opt/homebrew/Cellar/arm-none-eabi-gcc/10.3-2021.07/gcc/arm-none-eabi/include/c++/10.3.1/bits/stl_algobase.h ****    *
 930:/opt/homebrew/Cellar/arm-none-eabi-gcc/10.3-2021.07/gcc/arm-none-eabi/include/c++/10.3.1/bits/stl_algobase.h ****    *  This function fills a range with copies of the same value.  For char
 931:/opt/homebrew/Cellar/arm-none-eabi-gcc/10.3-2021.07/gcc/arm-none-eabi/include/c++/10.3.1/bits/stl_algobase.h ****    *  types filling contiguous areas of memory, this becomes an inline call
 932:/opt/homebrew/Cellar/arm-none-eabi-gcc/10.3-2021.07/gcc/arm-none-eabi/include/c++/10.3.1/bits/stl_algobase.h ****    *  to @c memset or @c wmemset.
 933:/opt/homebrew/Cellar/arm-none-eabi-gcc/10.3-2021.07/gcc/arm-none-eabi/include/c++/10.3.1/bits/stl_algobase.h ****   */
 934:/opt/homebrew/Cellar/arm-none-eabi-gcc/10.3-2021.07/gcc/arm-none-eabi/include/c++/10.3.1/bits/stl_algobase.h ****   template<typename _ForwardIterator, typename _Tp>
 935:/opt/homebrew/Cellar/arm-none-eabi-gcc/10.3-2021.07/gcc/arm-none-eabi/include/c++/10.3.1/bits/stl_algobase.h ****     _GLIBCXX20_CONSTEXPR
 936:/opt/homebrew/Cellar/arm-none-eabi-gcc/10.3-2021.07/gcc/arm-none-eabi/include/c++/10.3.1/bits/stl_algobase.h ****     inline void
 937:/opt/homebrew/Cellar/arm-none-eabi-gcc/10.3-2021.07/gcc/arm-none-eabi/include/c++/10.3.1/bits/stl_algobase.h ****     fill(_ForwardIterator __first, _ForwardIterator __last, const _Tp& __value)
 254              		.loc 6 937 5 view .LVU72
 255              	.LBB183:
 256              	.LBI183:
 913:/opt/homebrew/Cellar/arm-none-eabi-gcc/10.3-2021.07/gcc/arm-none-eabi/include/c++/10.3.1/bits/stl_algobase.h ****     { std::__fill_a1(__first, __last, __value); }
 257              		.loc 6 913 5 view .LVU73
 258              	.LBB184:
 259              	.LBI184:
 868:/opt/homebrew/Cellar/arm-none-eabi-gcc/10.3-2021.07/gcc/arm-none-eabi/include/c++/10.3.1/bits/stl_algobase.h **** 	      const _Tp& __value)
 260              		.loc 6 868 5 view .LVU74
 261              	.LBB185:
 873:/opt/homebrew/Cellar/arm-none-eabi-gcc/10.3-2021.07/gcc/arm-none-eabi/include/c++/10.3.1/bits/stl_algobase.h ****     }
 262              		.loc 6 873 11 is_stmt 0 view .LVU75
 263 0008 4FF40052 		mov	r2, #8192
 264 000c 0021     		movs	r1, #0
 265              	.LVL23:
 873:/opt/homebrew/Cellar/arm-none-eabi-gcc/10.3-2021.07/gcc/arm-none-eabi/include/c++/10.3.1/bits/stl_algobase.h ****     }
 266              		.loc 6 873 11 view .LVU76
 267 000e 4C30     		adds	r0, r0, #76
 268              	.LVL24:
 873:/opt/homebrew/Cellar/arm-none-eabi-gcc/10.3-2021.07/gcc/arm-none-eabi/include/c++/10.3.1/bits/stl_algobase.h ****     }
 269              		.loc 6 873 11 view .LVU77
 270              	.LBE185:
 271              	.LBE184:
 272              	.LBE183:
 273              	.LBE182:
  50:../../stmlib/dsp/delay_line.h ****     std::fill(&line_[0], &line_[max_delay], T(0));
  51:../../stmlib/dsp/delay_line.h ****     delay_ = 1;
  52:../../stmlib/dsp/delay_line.h ****     write_ptr_ = 0;
 274              		.loc 5 52 16 view .LVU78
 275 0010 0025     		movs	r5, #0
 276              	.LBB189:
 277              	.LBB188:
 278              	.LBB187:
 279              	.LBB186:
 873:/opt/homebrew/Cellar/arm-none-eabi-gcc/10.3-2021.07/gcc/arm-none-eabi/include/c++/10.3.1/bits/stl_algobase.h ****     }
 280              		.loc 6 873 11 view .LVU79
 281 0012 FFF7FEFF 		bl	memset
 282              	.LVL25:
 873:/opt/homebrew/Cellar/arm-none-eabi-gcc/10.3-2021.07/gcc/arm-none-eabi/include/c++/10.3.1/bits/stl_algobase.h ****     }
 283              		.loc 6 873 11 view .LVU80
 284              	.LBE186:
 285              	.LBE187:
 286              	.LBE188:
 287              	.LBE189:
 288              		.loc 5 52 16 view .LVU81
 289 0016 0126     		movs	r6, #1
 290              	.LBE181:
 291              	.LBE180:
ARM GAS  /var/folders/hl/qgbwny5j0fd895c2c41bk3tw0000gp/T//cc6AdWFS.s 			page 28


 292              	.LBE179:
 293              	.LBB192:
 294              	.LBB193:
 295              	.LBB194:
 296              	.LBB195:
 297              	.LBB196:
 298              	.LBB197:
 299              	.LBB198:
 873:/opt/homebrew/Cellar/arm-none-eabi-gcc/10.3-2021.07/gcc/arm-none-eabi/include/c++/10.3.1/bits/stl_algobase.h ****     }
 300              		.loc 6 873 11 view .LVU82
 301 0018 04F50150 		add	r0, r4, #8256
 302 001c 4FF48052 		mov	r2, #4096
 303 0020 2946     		mov	r1, r5
 304 0022 1430     		adds	r0, r0, #20
 305              	.LBE198:
 306              	.LBE197:
 307              	.LBE196:
 308              	.LBE195:
 309              	.LBE194:
 310              	.LBE193:
 311              	.LBE192:
 312              	.LBB209:
 313              	.LBB191:
 314              	.LBB190:
 315              		.loc 5 52 16 view .LVU83
 316 0024 C4E91156 		strd	r5, r6, [r4, #68]
 317              	.LVL26:
 318              		.loc 5 52 16 view .LVU84
 319              	.LBE190:
 320              	.LBE191:
 321              	.LBE209:
  50:dsp/string.cpp ****     stretch_.Init();
 322              		.loc 4 50 5 is_stmt 1 view .LVU85
 323              	.LBB210:
 324              	.LBI192:
  45:../../stmlib/dsp/delay_line.h ****     Reset();
 325              		.loc 5 45 8 view .LVU86
 326              	.LBB206:
 327              	.LBI193:
  49:../../stmlib/dsp/delay_line.h ****     std::fill(&line_[0], &line_[max_delay], T(0));
 328              		.loc 5 49 8 view .LVU87
 329              	.LBB203:
 330              	.LBB202:
 331              	.LBI195:
 332              		.loc 6 937 5 view .LVU88
 333              	.LBB201:
 334              	.LBI196:
 913:/opt/homebrew/Cellar/arm-none-eabi-gcc/10.3-2021.07/gcc/arm-none-eabi/include/c++/10.3.1/bits/stl_algobase.h ****     { std::__fill_a1(__first, __last, __value); }
 335              		.loc 6 913 5 view .LVU89
 336              	.LBB200:
 337              	.LBI197:
 868:/opt/homebrew/Cellar/arm-none-eabi-gcc/10.3-2021.07/gcc/arm-none-eabi/include/c++/10.3.1/bits/stl_algobase.h **** 	      const _Tp& __value)
 338              		.loc 6 868 5 view .LVU90
 339              	.LBB199:
 873:/opt/homebrew/Cellar/arm-none-eabi-gcc/10.3-2021.07/gcc/arm-none-eabi/include/c++/10.3.1/bits/stl_algobase.h ****     }
 340              		.loc 6 873 11 is_stmt 0 view .LVU91
 341 0028 FFF7FEFF 		bl	memset
ARM GAS  /var/folders/hl/qgbwny5j0fd895c2c41bk3tw0000gp/T//cc6AdWFS.s 			page 29


 342              	.LVL27:
 873:/opt/homebrew/Cellar/arm-none-eabi-gcc/10.3-2021.07/gcc/arm-none-eabi/include/c++/10.3.1/bits/stl_algobase.h ****     }
 343              		.loc 6 873 11 view .LVU92
 344              	.LBE199:
 345              	.LBE200:
 346              	.LBE201:
 347              	.LBE202:
 348              	.LBE203:
 349              	.LBE206:
 350              	.LBE210:
 351              	.LBB211:
 352              	.LBB212:
  53:./dsp/string.h ****         x__                   = 0.0f;
 353              		.loc 2 53 31 view .LVU93
 354 002c 04F54052 		add	r2, r4, #12288
 355              	.LBE212:
 356              	.LBE211:
 357              	.LBB218:
 358              	.LBB207:
 359              	.LBB204:
  51:../../stmlib/dsp/delay_line.h ****     write_ptr_ = 0;
 360              		.loc 5 51 12 view .LVU94
 361 0030 04F50053 		add	r3, r4, #8192
 362              	.LBE204:
 363              	.LBE207:
 364              	.LBE218:
 365              	.LBB219:
 366              	.LBB220:
 367              	.LBB221:
 368              		.file 7 "../../stmlib/dsp/filter.h"
   1:../../stmlib/dsp/filter.h **** // Copyright 2014 Emilie Gillet.
   2:../../stmlib/dsp/filter.h **** //
   3:../../stmlib/dsp/filter.h **** // Author: Emilie Gillet (emilie.o.gillet@gmail.com)
   4:../../stmlib/dsp/filter.h **** //
   5:../../stmlib/dsp/filter.h **** // Permission is hereby granted, free of charge, to any person obtaining a copy
   6:../../stmlib/dsp/filter.h **** // of this software and associated documentation files (the "Software"), to deal
   7:../../stmlib/dsp/filter.h **** // in the Software without restriction, including without limitation the rights
   8:../../stmlib/dsp/filter.h **** // to use, copy, modify, merge, publish, distribute, sublicense, and/or sell
   9:../../stmlib/dsp/filter.h **** // copies of the Software, and to permit persons to whom the Software is
  10:../../stmlib/dsp/filter.h **** // furnished to do so, subject to the following conditions:
  11:../../stmlib/dsp/filter.h **** // 
  12:../../stmlib/dsp/filter.h **** // The above copyright notice and this permission notice shall be included in
  13:../../stmlib/dsp/filter.h **** // all copies or substantial portions of the Software.
  14:../../stmlib/dsp/filter.h **** // 
  15:../../stmlib/dsp/filter.h **** // THE SOFTWARE IS PROVIDED "AS IS", WITHOUT WARRANTY OF ANY KIND, EXPRESS OR
  16:../../stmlib/dsp/filter.h **** // IMPLIED, INCLUDING BUT NOT LIMITED TO THE WARRANTIES OF MERCHANTABILITY,
  17:../../stmlib/dsp/filter.h **** // FITNESS FOR A PARTICULAR PURPOSE AND NONINFRINGEMENT. IN NO EVENT SHALL THE
  18:../../stmlib/dsp/filter.h **** // AUTHORS OR COPYRIGHT HOLDERS BE LIABLE FOR ANY CLAIM, DAMAGES OR OTHER
  19:../../stmlib/dsp/filter.h **** // LIABILITY, WHETHER IN AN ACTION OF CONTRACT, TORT OR OTHERWISE, ARISING FROM,
  20:../../stmlib/dsp/filter.h **** // OUT OF OR IN CONNECTION WITH THE SOFTWARE OR THE USE OR OTHER DEALINGS IN
  21:../../stmlib/dsp/filter.h **** // THE SOFTWARE.
  22:../../stmlib/dsp/filter.h **** // 
  23:../../stmlib/dsp/filter.h **** // See http://creativecommons.org/licenses/MIT/ for more information.
  24:../../stmlib/dsp/filter.h **** //
  25:../../stmlib/dsp/filter.h **** // -----------------------------------------------------------------------------
  26:../../stmlib/dsp/filter.h **** //
  27:../../stmlib/dsp/filter.h **** // Zero-delay-feedback filters (one pole and SVF).
ARM GAS  /var/folders/hl/qgbwny5j0fd895c2c41bk3tw0000gp/T//cc6AdWFS.s 			page 30


  28:../../stmlib/dsp/filter.h **** // Naive SVF.
  29:../../stmlib/dsp/filter.h **** 
  30:../../stmlib/dsp/filter.h **** #ifndef STMLIB_DSP_FILTER_H_
  31:../../stmlib/dsp/filter.h **** #define STMLIB_DSP_FILTER_H_
  32:../../stmlib/dsp/filter.h **** 
  33:../../stmlib/dsp/filter.h **** #include "stmlib/stmlib.h"
  34:../../stmlib/dsp/filter.h **** 
  35:../../stmlib/dsp/filter.h **** #include <cmath>
  36:../../stmlib/dsp/filter.h **** #include <algorithm>
  37:../../stmlib/dsp/filter.h **** 
  38:../../stmlib/dsp/filter.h **** namespace stmlib {
  39:../../stmlib/dsp/filter.h **** 
  40:../../stmlib/dsp/filter.h **** enum FilterMode {
  41:../../stmlib/dsp/filter.h ****   FILTER_MODE_LOW_PASS,
  42:../../stmlib/dsp/filter.h ****   FILTER_MODE_BAND_PASS,
  43:../../stmlib/dsp/filter.h ****   FILTER_MODE_BAND_PASS_NORMALIZED,
  44:../../stmlib/dsp/filter.h ****   FILTER_MODE_HIGH_PASS
  45:../../stmlib/dsp/filter.h **** };
  46:../../stmlib/dsp/filter.h **** 
  47:../../stmlib/dsp/filter.h **** enum FrequencyApproximation {
  48:../../stmlib/dsp/filter.h ****   FREQUENCY_EXACT,
  49:../../stmlib/dsp/filter.h ****   FREQUENCY_ACCURATE,
  50:../../stmlib/dsp/filter.h ****   FREQUENCY_FAST,
  51:../../stmlib/dsp/filter.h ****   FREQUENCY_DIRTY
  52:../../stmlib/dsp/filter.h **** };
  53:../../stmlib/dsp/filter.h **** 
  54:../../stmlib/dsp/filter.h **** #define M_PI_F float(M_PI)
  55:../../stmlib/dsp/filter.h **** #define M_PI_POW_2 M_PI * M_PI
  56:../../stmlib/dsp/filter.h **** #define M_PI_POW_3 M_PI_POW_2 * M_PI
  57:../../stmlib/dsp/filter.h **** #define M_PI_POW_5 M_PI_POW_3 * M_PI_POW_2
  58:../../stmlib/dsp/filter.h **** #define M_PI_POW_7 M_PI_POW_5 * M_PI_POW_2
  59:../../stmlib/dsp/filter.h **** #define M_PI_POW_9 M_PI_POW_7 * M_PI_POW_2
  60:../../stmlib/dsp/filter.h **** #define M_PI_POW_11 M_PI_POW_9 * M_PI_POW_2
  61:../../stmlib/dsp/filter.h **** 
  62:../../stmlib/dsp/filter.h **** class DCBlocker {
  63:../../stmlib/dsp/filter.h ****  public:
  64:../../stmlib/dsp/filter.h ****   DCBlocker() { }
  65:../../stmlib/dsp/filter.h ****   ~DCBlocker() { }
  66:../../stmlib/dsp/filter.h ****   
  67:../../stmlib/dsp/filter.h ****   void Init(float pole) {
  68:../../stmlib/dsp/filter.h ****     x_ = 0.0f;
  69:../../stmlib/dsp/filter.h ****     y_ = 0.0f;
  70:../../stmlib/dsp/filter.h ****     pole_ = pole;
  71:../../stmlib/dsp/filter.h ****   }
  72:../../stmlib/dsp/filter.h ****   
  73:../../stmlib/dsp/filter.h ****   inline void Process(float* in_out, size_t size) {
  74:../../stmlib/dsp/filter.h ****     float x = x_;
  75:../../stmlib/dsp/filter.h ****     float y = y_;
  76:../../stmlib/dsp/filter.h ****     const float pole = pole_;
  77:../../stmlib/dsp/filter.h ****     while (size--) {
  78:../../stmlib/dsp/filter.h ****       float old_x = x;
  79:../../stmlib/dsp/filter.h ****       x = *in_out;
  80:../../stmlib/dsp/filter.h ****       *in_out++ = y = y * pole + x - old_x;
  81:../../stmlib/dsp/filter.h ****     }
  82:../../stmlib/dsp/filter.h ****     x_ = x;
  83:../../stmlib/dsp/filter.h ****     y_ = y;
  84:../../stmlib/dsp/filter.h ****   }
ARM GAS  /var/folders/hl/qgbwny5j0fd895c2c41bk3tw0000gp/T//cc6AdWFS.s 			page 31


  85:../../stmlib/dsp/filter.h ****   
  86:../../stmlib/dsp/filter.h ****  private:
  87:../../stmlib/dsp/filter.h ****   float pole_;
  88:../../stmlib/dsp/filter.h ****   float x_;
  89:../../stmlib/dsp/filter.h ****   float y_;
  90:../../stmlib/dsp/filter.h **** };
  91:../../stmlib/dsp/filter.h **** 
  92:../../stmlib/dsp/filter.h **** class OnePole {
  93:../../stmlib/dsp/filter.h ****  public:
  94:../../stmlib/dsp/filter.h ****   OnePole() { }
  95:../../stmlib/dsp/filter.h ****   ~OnePole() { }
  96:../../stmlib/dsp/filter.h ****   
  97:../../stmlib/dsp/filter.h ****   void Init() {
  98:../../stmlib/dsp/filter.h ****     set_f<FREQUENCY_DIRTY>(0.01f);
  99:../../stmlib/dsp/filter.h ****     Reset();
 100:../../stmlib/dsp/filter.h ****   }
 101:../../stmlib/dsp/filter.h ****   
 102:../../stmlib/dsp/filter.h ****   void Reset() {
 103:../../stmlib/dsp/filter.h ****     state_ = 0.0f;
 104:../../stmlib/dsp/filter.h ****   }
 105:../../stmlib/dsp/filter.h ****   
 106:../../stmlib/dsp/filter.h ****   template<FrequencyApproximation approximation>
 107:../../stmlib/dsp/filter.h ****   static inline float tan(float f) {
 108:../../stmlib/dsp/filter.h ****     if (approximation == FREQUENCY_EXACT) {
 109:../../stmlib/dsp/filter.h ****       // Clip coefficient to about 100.
 110:../../stmlib/dsp/filter.h ****       f = f < 0.497f ? f : 0.497f;
 111:../../stmlib/dsp/filter.h ****       return tanf(M_PI * f);
 112:../../stmlib/dsp/filter.h ****     } else if (approximation == FREQUENCY_DIRTY) {
 113:../../stmlib/dsp/filter.h ****       // Optimized for frequencies below 8kHz.
 114:../../stmlib/dsp/filter.h ****       const float a = 3.736e-01 * M_PI_POW_3;
 115:../../stmlib/dsp/filter.h ****       return f * (M_PI_F + a * f * f);
 116:../../stmlib/dsp/filter.h ****     } else if (approximation == FREQUENCY_FAST) {
 117:../../stmlib/dsp/filter.h ****       // The usual tangent approximation uses 3.1755e-01 and 2.033e-01, but
 118:../../stmlib/dsp/filter.h ****       // the coefficients used here are optimized to minimize error for the
 119:../../stmlib/dsp/filter.h ****       // 16Hz to 16kHz range, with a sample rate of 48kHz.
 120:../../stmlib/dsp/filter.h ****       const float a = 3.260e-01 * M_PI_POW_3;
 121:../../stmlib/dsp/filter.h ****       const float b = 1.823e-01 * M_PI_POW_5;
 122:../../stmlib/dsp/filter.h ****       float f2 = f * f;
 123:../../stmlib/dsp/filter.h ****       return f * (M_PI_F + f2 * (a + b * f2));
 124:../../stmlib/dsp/filter.h ****     } else if (approximation == FREQUENCY_ACCURATE) {
 125:../../stmlib/dsp/filter.h ****       // These coefficients don't need to be tweaked for the audio range.
 126:../../stmlib/dsp/filter.h ****       const float a = 3.333314036e-01 * M_PI_POW_3;
 127:../../stmlib/dsp/filter.h ****       const float b = 1.333923995e-01 * M_PI_POW_5;
 128:../../stmlib/dsp/filter.h ****       const float c = 5.33740603e-02 * M_PI_POW_7;
 129:../../stmlib/dsp/filter.h ****       const float d = 2.900525e-03 * M_PI_POW_9;
 130:../../stmlib/dsp/filter.h ****       const float e = 9.5168091e-03 * M_PI_POW_11;
 131:../../stmlib/dsp/filter.h ****       float f2 = f * f;
 132:../../stmlib/dsp/filter.h ****       return f * (M_PI_F + f2 * (a + f2 * (b + f2 * (c + f2 * (d + f2 * e)))));
 133:../../stmlib/dsp/filter.h ****     }
 134:../../stmlib/dsp/filter.h ****   }
 135:../../stmlib/dsp/filter.h ****   
 136:../../stmlib/dsp/filter.h ****   // Set frequency and resonance from true units. Various approximations
 137:../../stmlib/dsp/filter.h ****   // are available to avoid the cost of tanf.
 138:../../stmlib/dsp/filter.h ****   template<FrequencyApproximation approximation>
 139:../../stmlib/dsp/filter.h ****   inline void set_f(float f) {
 140:../../stmlib/dsp/filter.h ****     g_ = tan<approximation>(f);
 141:../../stmlib/dsp/filter.h ****     gi_ = 1.0f / (1.0f + g_);
ARM GAS  /var/folders/hl/qgbwny5j0fd895c2c41bk3tw0000gp/T//cc6AdWFS.s 			page 32


 142:../../stmlib/dsp/filter.h ****   }
 143:../../stmlib/dsp/filter.h ****   
 144:../../stmlib/dsp/filter.h ****   template<FilterMode mode>
 145:../../stmlib/dsp/filter.h ****   inline float Process(float in) {
 146:../../stmlib/dsp/filter.h ****     float lp;
 147:../../stmlib/dsp/filter.h ****     lp = (g_ * in + state_) * gi_;
 148:../../stmlib/dsp/filter.h ****     state_ = g_ * (in - lp) + lp;
 149:../../stmlib/dsp/filter.h **** 
 150:../../stmlib/dsp/filter.h ****     if (mode == FILTER_MODE_LOW_PASS) {
 151:../../stmlib/dsp/filter.h ****       return lp;
 152:../../stmlib/dsp/filter.h ****     } else if (mode == FILTER_MODE_HIGH_PASS) {
 153:../../stmlib/dsp/filter.h ****       return in - lp;
 154:../../stmlib/dsp/filter.h ****     } else {
 155:../../stmlib/dsp/filter.h ****       return 0.0f;
 156:../../stmlib/dsp/filter.h ****     }
 157:../../stmlib/dsp/filter.h ****   }
 158:../../stmlib/dsp/filter.h ****   
 159:../../stmlib/dsp/filter.h ****   template<FilterMode mode>
 160:../../stmlib/dsp/filter.h ****   inline void Process(float* in_out, size_t size) {
 161:../../stmlib/dsp/filter.h ****     while (size--) {
 162:../../stmlib/dsp/filter.h ****       *in_out = Process<mode>(*in_out);
 163:../../stmlib/dsp/filter.h ****       ++in_out;
 164:../../stmlib/dsp/filter.h ****     }
 165:../../stmlib/dsp/filter.h ****   }
 166:../../stmlib/dsp/filter.h ****   
 167:../../stmlib/dsp/filter.h ****  private:
 168:../../stmlib/dsp/filter.h ****   float g_;
 169:../../stmlib/dsp/filter.h ****   float gi_;
 170:../../stmlib/dsp/filter.h ****   float state_;
 171:../../stmlib/dsp/filter.h ****   
 172:../../stmlib/dsp/filter.h ****   DISALLOW_COPY_AND_ASSIGN(OnePole);
 173:../../stmlib/dsp/filter.h **** };
 174:../../stmlib/dsp/filter.h **** 
 175:../../stmlib/dsp/filter.h **** 
 176:../../stmlib/dsp/filter.h **** 
 177:../../stmlib/dsp/filter.h **** class Svf {
 178:../../stmlib/dsp/filter.h ****  public:
 179:../../stmlib/dsp/filter.h ****   Svf() { }
 180:../../stmlib/dsp/filter.h ****   ~Svf() { }
 181:../../stmlib/dsp/filter.h ****   
 182:../../stmlib/dsp/filter.h ****   void Init() {
 183:../../stmlib/dsp/filter.h ****     set_f_q<FREQUENCY_DIRTY>(0.01f, 100.0f);
 184:../../stmlib/dsp/filter.h ****     Reset();
 185:../../stmlib/dsp/filter.h ****   }
 186:../../stmlib/dsp/filter.h ****   
 187:../../stmlib/dsp/filter.h ****   void Reset() {
 188:../../stmlib/dsp/filter.h ****     state_1_ = state_2_ = 0.0f;
 189:../../stmlib/dsp/filter.h ****   }
 190:../../stmlib/dsp/filter.h ****   
 191:../../stmlib/dsp/filter.h ****   // Copy settings from another filter.
 192:../../stmlib/dsp/filter.h ****   inline void set(const Svf& f) {
 193:../../stmlib/dsp/filter.h ****     g_ = f.g();
 194:../../stmlib/dsp/filter.h ****     r_ = f.r();
 195:../../stmlib/dsp/filter.h ****     h_ = f.h();
 196:../../stmlib/dsp/filter.h ****   }
 197:../../stmlib/dsp/filter.h **** 
 198:../../stmlib/dsp/filter.h ****   // Set all parameters from LUT.
ARM GAS  /var/folders/hl/qgbwny5j0fd895c2c41bk3tw0000gp/T//cc6AdWFS.s 			page 33


 199:../../stmlib/dsp/filter.h ****   inline void set_g_r_h(float g, float r, float h) {
 200:../../stmlib/dsp/filter.h ****     g_ = g;
 201:../../stmlib/dsp/filter.h ****     r_ = r;
 202:../../stmlib/dsp/filter.h ****     h_ = h;
 203:../../stmlib/dsp/filter.h ****   }
 204:../../stmlib/dsp/filter.h ****   
 205:../../stmlib/dsp/filter.h ****   // Set frequency and resonance coefficients from LUT, adjust remaining
 206:../../stmlib/dsp/filter.h ****   // parameter.
 207:../../stmlib/dsp/filter.h ****   inline void set_g_r(float g, float r) {
 208:../../stmlib/dsp/filter.h ****     g_ = g;
 209:../../stmlib/dsp/filter.h ****     r_ = r;
 210:../../stmlib/dsp/filter.h ****     h_ = 1.0f / (1.0f + r_ * g_ + g_ * g_);
 211:../../stmlib/dsp/filter.h ****   }
 212:../../stmlib/dsp/filter.h **** 
 213:../../stmlib/dsp/filter.h ****   // Set frequency from LUT, resonance in true units, adjust the rest.
 214:../../stmlib/dsp/filter.h ****   inline void set_g_q(float g, float resonance) {
 215:../../stmlib/dsp/filter.h ****     g_ = g;
 216:../../stmlib/dsp/filter.h ****     r_ = 1.0f / resonance;
 217:../../stmlib/dsp/filter.h ****     h_ = 1.0f / (1.0f + r_ * g_ + g_ * g_);
 218:../../stmlib/dsp/filter.h ****   }
 219:../../stmlib/dsp/filter.h **** 
 220:../../stmlib/dsp/filter.h ****   // Set frequency and resonance from true units. Various approximations
 221:../../stmlib/dsp/filter.h ****   // are available to avoid the cost of tanf.
 222:../../stmlib/dsp/filter.h ****   template<FrequencyApproximation approximation>
 223:../../stmlib/dsp/filter.h ****   inline void set_f_q(float f, float resonance) {
 224:../../stmlib/dsp/filter.h ****     g_ = OnePole::tan<approximation>(f);
 369              		.loc 7 224 8 view .LVU95
 370 0034 1749     		ldr	r1, .L7
 371              	.LBE221:
 372              	.LBE220:
 373              	.LBE219:
 374              	.LBB233:
 375              	.LBB208:
 376              	.LBB205:
 377              		.loc 5 52 16 view .LVU96
 378 0036 C3E91356 		strd	r5, r6, [r3, #76]
 379              	.LVL28:
 380              		.loc 5 52 16 view .LVU97
 381              	.LBE205:
 382              	.LBE208:
 383              	.LBE233:
  51:dsp/string.cpp ****     fir_damping_filter_.Init();
 384              		.loc 4 51 5 is_stmt 1 view .LVU98
 385              	.LBB234:
 386              	.LBI211:
  51:./dsp/string.h ****     {
 387              		.loc 2 51 10 view .LVU99
 388              	.LBB213:
  53:./dsp/string.h ****         x__                   = 0.0f;
 389              		.loc 2 53 9 view .LVU100
 390              	.LBE213:
 391              	.LBE234:
 392              	.LBB235:
 393              	.LBB226:
 394              	.LBB222:
 395              		.loc 7 224 8 is_stmt 0 view .LVU101
 396 003a D166     		str	r1, [r2, #108]	@ float
ARM GAS  /var/folders/hl/qgbwny5j0fd895c2c41bk3tw0000gp/T//cc6AdWFS.s 			page 34


 397              	.LBE222:
 398              	.LBE226:
 399              	.LBE235:
 400              	.LBB236:
 401              	.LBB214:
  53:./dsp/string.h ****         x__                   = 0.0f;
 402              		.loc 2 53 31 view .LVU102
 403 003c 0023     		movs	r3, #0
 404              	.LBE214:
 405              	.LBE236:
 406              	.LBB237:
 407              	.LBB227:
 408              	.LBB223:
 225:../../stmlib/dsp/filter.h ****     r_ = 1.0f / resonance;
 409              		.loc 7 225 8 view .LVU103
 410 003e 1649     		ldr	r1, .L7+4
 411              	.LBE223:
 412              	.LBE227:
 413              	.LBE237:
 414              	.LBB238:
 415              	.LBB215:
  53:./dsp/string.h ****         x__                   = 0.0f;
 416              		.loc 2 53 31 view .LVU104
 417 0040 5365     		str	r3, [r2, #84]	@ float
  54:./dsp/string.h ****         brightness_           = 0.0f;
 418              		.loc 2 54 9 is_stmt 1 view .LVU105
 419              	.LBE215:
 420              	.LBE238:
 421              	.LBB239:
 422              	.LBB228:
 423              	.LBB224:
 424              		.loc 7 225 8 is_stmt 0 view .LVU106
 425 0042 1167     		str	r1, [r2, #112]	@ float
 226:../../stmlib/dsp/filter.h ****     h_ = 1.0f / (1.0f + r_ * g_ + g_ * g_);
 426              		.loc 7 226 8 view .LVU107
 427 0044 1549     		ldr	r1, .L7+8
 428              	.LBE224:
 429              	.LBE228:
 430              	.LBE239:
 431              	.LBB240:
 432              	.LBB216:
  54:./dsp/string.h ****         brightness_           = 0.0f;
 433              		.loc 2 54 31 view .LVU108
 434 0046 9365     		str	r3, [r2, #88]	@ float
  55:./dsp/string.h ****         brightness_increment_ = 0.0f;
 435              		.loc 2 55 9 is_stmt 1 view .LVU109
 436              	.LBE216:
 437              	.LBE240:
 438              	.LBB241:
 439              	.LBB229:
 440              	.LBB225:
 441              		.loc 7 226 8 is_stmt 0 view .LVU110
 442 0048 5167     		str	r1, [r2, #116]	@ float
 443              	.LBE225:
 444              	.LBE229:
 445              	.LBE241:
 446              	.LBB242:
ARM GAS  /var/folders/hl/qgbwny5j0fd895c2c41bk3tw0000gp/T//cc6AdWFS.s 			page 35


 447              	.LBB243:
  89:./dsp/string.h **** 
  90:./dsp/string.h ****   private:
  91:./dsp/string.h ****     float x_;
  92:./dsp/string.h ****     float x__;
  93:./dsp/string.h ****     float brightness_;
  94:./dsp/string.h ****     float brightness_increment_;
  95:./dsp/string.h ****     float damping_;
  96:./dsp/string.h ****     float damping_increment_;
  97:./dsp/string.h **** 
  98:./dsp/string.h ****     DISALLOW_COPY_AND_ASSIGN(DampingFilter);
  99:./dsp/string.h **** };
 100:./dsp/string.h **** 
 101:./dsp/string.h **** typedef stmlib::DelayLine<float, kDelayLineSize>     StringDelayLine;
 102:./dsp/string.h **** typedef stmlib::DelayLine<float, kDelayLineSize / 2> StiffnessDelayLine;
 103:./dsp/string.h **** 
 104:./dsp/string.h **** class String
 105:./dsp/string.h **** {
 106:./dsp/string.h ****   public:
 107:./dsp/string.h ****     String() {}
 108:./dsp/string.h ****     ~String() {}
 109:./dsp/string.h **** 
 110:./dsp/string.h ****     void Init(bool enable_dispersion);
 111:./dsp/string.h ****     void Process(const float* in, float* out, float* aux, size_t size);
 112:./dsp/string.h **** 
 113:./dsp/string.h ****     inline void set_frequency(float frequency) { frequency_ = frequency; }
 448              		.loc 2 113 61 view .LVU111
 449 004a 1549     		ldr	r1, .L7+12
 450              	.LBE243:
 451              	.LBE242:
 452              	.LBB245:
 453              	.LBB217:
  55:./dsp/string.h ****         brightness_increment_ = 0.0f;
 454              		.loc 2 55 31 view .LVU112
 455 004c D365     		str	r3, [r2, #92]	@ float
  56:./dsp/string.h ****         damping_              = 0.0f;
 456              		.loc 2 56 9 is_stmt 1 view .LVU113
  56:./dsp/string.h ****         damping_              = 0.0f;
 457              		.loc 2 56 31 is_stmt 0 view .LVU114
 458 004e 1366     		str	r3, [r2, #96]	@ float
  57:./dsp/string.h ****         damping_increment_    = 0.0f;
 459              		.loc 2 57 9 is_stmt 1 view .LVU115
  57:./dsp/string.h ****         damping_increment_    = 0.0f;
 460              		.loc 2 57 31 is_stmt 0 view .LVU116
 461 0050 5366     		str	r3, [r2, #100]	@ float
  58:./dsp/string.h ****     }
 462              		.loc 2 58 9 is_stmt 1 view .LVU117
  58:./dsp/string.h ****     }
 463              		.loc 2 58 31 is_stmt 0 view .LVU118
 464 0052 9366     		str	r3, [r2, #104]	@ float
 465              	.LVL29:
  58:./dsp/string.h ****     }
 466              		.loc 2 58 31 view .LVU119
 467              	.LBE217:
 468              	.LBE245:
  52:dsp/string.cpp ****     iir_damping_filter_.Init();
 469              		.loc 4 52 5 is_stmt 1 view .LVU120
ARM GAS  /var/folders/hl/qgbwny5j0fd895c2c41bk3tw0000gp/T//cc6AdWFS.s 			page 36


 470              	.LBB246:
 471              	.LBI219:
 182:../../stmlib/dsp/filter.h ****     set_f_q<FREQUENCY_DIRTY>(0.01f, 100.0f);
 472              		.loc 7 182 8 view .LVU121
 473              	.LBE246:
 183:../../stmlib/dsp/filter.h ****     Reset();
 474              		.loc 7 183 5 view .LVU122
 475              	.LBB247:
 476              	.LBB230:
 477              	.LBI220:
 223:../../stmlib/dsp/filter.h ****     g_ = OnePole::tan<approximation>(f);
 478              		.loc 7 223 15 view .LVU123
 223:../../stmlib/dsp/filter.h ****     g_ = OnePole::tan<approximation>(f);
 479              		.loc 7 223 15 is_stmt 0 view .LVU124
 480              	.LBE230:
 481              	.LBE247:
 184:../../stmlib/dsp/filter.h ****   }
 482              		.loc 7 184 5 is_stmt 1 view .LVU125
 483              	.LBB248:
 484              	.LBB231:
 485              	.LBI231:
 187:../../stmlib/dsp/filter.h ****     state_1_ = state_2_ = 0.0f;
 486              		.loc 7 187 8 view .LVU126
 487              	.LBB232:
 188:../../stmlib/dsp/filter.h ****   }
 488              		.loc 7 188 5 view .LVU127
 188:../../stmlib/dsp/filter.h ****   }
 489              		.loc 7 188 25 is_stmt 0 view .LVU128
 490 0054 D367     		str	r3, [r2, #124]	@ float
 188:../../stmlib/dsp/filter.h ****   }
 491              		.loc 7 188 14 view .LVU129
 492 0056 9367     		str	r3, [r2, #120]	@ float
 493              	.LVL30:
 188:../../stmlib/dsp/filter.h ****   }
 494              		.loc 7 188 14 view .LVU130
 495              	.LBE232:
 496              	.LBE231:
 497              	.LBE248:
  53:dsp/string.cpp **** 
  54:dsp/string.cpp ****     set_frequency(220.0f / kSampleRate);
 498              		.loc 4 54 5 is_stmt 1 view .LVU131
 499              	.LBB249:
 500              	.LBI242:
 501              		.loc 2 113 17 view .LVU132
 502              	.LBB244:
 503              		.loc 2 113 50 view .LVU133
 504              		.loc 2 113 61 is_stmt 0 view .LVU134
 505 0058 2160     		str	r1, [r4]	@ float
 506              	.LVL31:
 507              		.loc 2 113 61 view .LVU135
 508              	.LBE244:
 509              	.LBE249:
  55:dsp/string.cpp ****     set_dispersion(0.25f);
 510              		.loc 4 55 5 is_stmt 1 view .LVU136
 511              	.LBB250:
 512              	.LBI250:
 114:./dsp/string.h **** 
ARM GAS  /var/folders/hl/qgbwny5j0fd895c2c41bk3tw0000gp/T//cc6AdWFS.s 			page 37


 115:./dsp/string.h ****     inline void set_frequency(float frequency, float coefficient)
 116:./dsp/string.h ****     {
 117:./dsp/string.h ****         frequency_ += coefficient * (frequency - frequency_);
 118:./dsp/string.h ****     }
 119:./dsp/string.h **** 
 120:./dsp/string.h ****     inline void set_dispersion(float dispersion) { dispersion_ = dispersion; }
 513              		.loc 2 120 17 view .LVU137
 514              	.LBB251:
 515              		.loc 2 120 52 view .LVU138
 516              		.loc 2 120 64 is_stmt 0 view .LVU139
 517 005a 4FF07A51 		mov	r1, #1048576000
 518              	.LBE251:
 519              	.LBE250:
  56:dsp/string.cpp ****     set_brightness(0.5f);
  57:dsp/string.cpp ****     set_damping(0.3f);
  58:dsp/string.cpp ****     set_position(0.8f);
  59:dsp/string.cpp **** 
  60:dsp/string.cpp ****     delay_                         = 1.0f / frequency_;
  61:dsp/string.cpp ****     clamped_position_              = 0.0f;
 520              		.loc 4 61 36 view .LVU140
 521 005e A361     		str	r3, [r4, #24]	@ float
 522              	.LBB253:
 523              	.LBB252:
 524              		.loc 2 120 64 view .LVU141
 525 0060 6160     		str	r1, [r4, #4]	@ float
 526              	.LVL32:
 527              		.loc 2 120 64 view .LVU142
 528              	.LBE252:
 529              	.LBE253:
  56:dsp/string.cpp ****     set_brightness(0.5f);
 530              		.loc 4 56 5 is_stmt 1 view .LVU143
 531              	.LBB254:
 532              	.LBI254:
 121:./dsp/string.h **** 
 122:./dsp/string.h ****     inline void set_brightness(float brightness) { brightness_ = brightness; }
 533              		.loc 2 122 17 view .LVU144
 534              	.LBB255:
 535              		.loc 2 122 52 view .LVU145
 536              		.loc 2 122 64 is_stmt 0 view .LVU146
 537 0062 4FF07C51 		mov	r1, #1056964608
 538              	.LBE255:
 539              	.LBE254:
  62:dsp/string.cpp ****     previous_dispersion_           = 0.0f;
 540              		.loc 4 62 36 view .LVU147
 541 0066 E361     		str	r3, [r4, #28]	@ float
 542              	.LBB257:
 543              	.LBB256:
 544              		.loc 2 122 64 view .LVU148
 545 0068 A160     		str	r1, [r4, #8]	@ float
 546              	.LVL33:
 547              		.loc 2 122 64 view .LVU149
 548              	.LBE256:
 549              	.LBE257:
  57:dsp/string.cpp ****     set_position(0.8f);
 550              		.loc 4 57 5 is_stmt 1 view .LVU150
 551              	.LBB258:
 552              	.LBI258:
ARM GAS  /var/folders/hl/qgbwny5j0fd895c2c41bk3tw0000gp/T//cc6AdWFS.s 			page 38


 123:./dsp/string.h **** 
 124:./dsp/string.h ****     inline void set_damping(float damping) { damping_ = damping; }
 553              		.loc 2 124 17 view .LVU151
 554              	.LBB259:
 555              		.loc 2 124 46 view .LVU152
 556              		.loc 2 124 55 is_stmt 0 view .LVU153
 557 006a 0E49     		ldr	r1, .L7+16
 558              	.LBE259:
 559              	.LBE258:
  63:dsp/string.cpp ****     dispersion_noise_              = 0.0f;
 560              		.loc 4 63 36 view .LVU154
 561 006c A362     		str	r3, [r4, #40]	@ float
 562              	.LBB261:
 563              	.LBB260:
 564              		.loc 2 124 55 view .LVU155
 565 006e E160     		str	r1, [r4, #12]	@ float
 566              	.LVL34:
 567              		.loc 2 124 55 view .LVU156
 568              	.LBE260:
 569              	.LBE261:
  58:dsp/string.cpp **** 
 570              		.loc 4 58 5 is_stmt 1 view .LVU157
 571              	.LBB262:
 572              	.LBI262:
 125:./dsp/string.h **** 
 126:./dsp/string.h ****     inline void set_position(float position) { position_ = position; }
 573              		.loc 2 126 17 view .LVU158
 574              	.LBB263:
 575              		.loc 2 126 48 view .LVU159
 576              		.loc 2 126 58 is_stmt 0 view .LVU160
 577 0070 0D49     		ldr	r1, .L7+20
 578              	.LBE263:
 579              	.LBE262:
  64:dsp/string.cpp ****     curved_bridge_                 = 0.0f;
 580              		.loc 4 64 36 view .LVU161
 581 0072 2364     		str	r3, [r4, #64]	@ float
 582              	.LBB265:
 583              	.LBB264:
 584              		.loc 2 126 58 view .LVU162
 585 0074 2161     		str	r1, [r4, #16]	@ float
 586              	.LVL35:
 587              		.loc 2 126 58 view .LVU163
 588              	.LBE264:
 589              	.LBE265:
  60:dsp/string.cpp ****     clamped_position_              = 0.0f;
 590              		.loc 4 60 5 is_stmt 1 view .LVU164
  60:dsp/string.cpp ****     clamped_position_              = 0.0f;
 591              		.loc 4 60 36 is_stmt 0 view .LVU165
 592 0076 0D49     		ldr	r1, .L7+24
  65:dsp/string.cpp ****     previous_damping_compensation_ = 0.0f;
 593              		.loc 4 65 36 view .LVU166
 594 0078 2362     		str	r3, [r4, #32]	@ float
  66:dsp/string.cpp **** 
  67:dsp/string.cpp ****     out_sample_[0] = out_sample_[1] = 0.0f;
 595              		.loc 4 67 37 view .LVU167
 596 007a 6363     		str	r3, [r4, #52]	@ float
 597              		.loc 4 67 20 view .LVU168
ARM GAS  /var/folders/hl/qgbwny5j0fd895c2c41bk3tw0000gp/T//cc6AdWFS.s 			page 39


 598 007c 2363     		str	r3, [r4, #48]	@ float
  68:dsp/string.cpp ****     aux_sample_[0] = aux_sample_[1] = 0.0f;
 599              		.loc 4 68 37 view .LVU169
 600 007e E363     		str	r3, [r4, #60]	@ float
 601              		.loc 4 68 20 view .LVU170
 602 0080 A363     		str	r3, [r4, #56]	@ float
  60:dsp/string.cpp ****     clamped_position_              = 0.0f;
 603              		.loc 4 60 36 view .LVU171
 604 0082 6161     		str	r1, [r4, #20]	@ float
  61:dsp/string.cpp ****     previous_dispersion_           = 0.0f;
 605              		.loc 4 61 5 is_stmt 1 view .LVU172
  62:dsp/string.cpp ****     dispersion_noise_              = 0.0f;
 606              		.loc 4 62 5 view .LVU173
  63:dsp/string.cpp ****     curved_bridge_                 = 0.0f;
 607              		.loc 4 63 5 view .LVU174
  64:dsp/string.cpp ****     previous_damping_compensation_ = 0.0f;
 608              		.loc 4 64 5 view .LVU175
  65:dsp/string.cpp **** 
 609              		.loc 4 65 5 view .LVU176
  67:dsp/string.cpp ****     aux_sample_[0] = aux_sample_[1] = 0.0f;
 610              		.loc 4 67 5 view .LVU177
 611              		.loc 4 68 5 view .LVU178
  69:dsp/string.cpp **** 
  70:dsp/string.cpp ****     dc_blocker_.Init(1.0f - 20.0f / kSampleRate);
 612              		.loc 4 70 5 view .LVU179
 613              	.LVL36:
 614              	.LBB266:
 615              	.LBI266:
  67:../../stmlib/dsp/filter.h ****     x_ = 0.0f;
 616              		.loc 7 67 8 view .LVU180
 617              	.LBB267:
  68:../../stmlib/dsp/filter.h ****     y_ = 0.0f;
 618              		.loc 7 68 5 view .LVU181
  68:../../stmlib/dsp/filter.h ****     y_ = 0.0f;
 619              		.loc 7 68 8 is_stmt 0 view .LVU182
 620 0084 C2F88430 		str	r3, [r2, #132]	@ float
  69:../../stmlib/dsp/filter.h ****     pole_ = pole;
 621              		.loc 7 69 5 is_stmt 1 view .LVU183
  69:../../stmlib/dsp/filter.h ****     pole_ = pole;
 622              		.loc 7 69 8 is_stmt 0 view .LVU184
 623 0088 C2F88830 		str	r3, [r2, #136]	@ float
  70:../../stmlib/dsp/filter.h ****   }
 624              		.loc 7 70 5 is_stmt 1 view .LVU185
  70:../../stmlib/dsp/filter.h ****   }
 625              		.loc 7 70 11 is_stmt 0 view .LVU186
 626 008c 084B     		ldr	r3, .L7+28
 627 008e C2F88030 		str	r3, [r2, #128]	@ float
 628              	.LVL37:
  70:../../stmlib/dsp/filter.h ****   }
 629              		.loc 7 70 11 view .LVU187
 630              	.LBE267:
 631              	.LBE266:
  71:dsp/string.cpp **** }
 632              		.loc 4 71 1 view .LVU188
 633 0092 70BD     		pop	{r4, r5, r6, pc}
 634              	.LVL38:
 635              	.L8:
ARM GAS  /var/folders/hl/qgbwny5j0fd895c2c41bk3tw0000gp/T//cc6AdWFS.s 			page 40


 636              		.loc 4 71 1 view .LVU189
 637              		.align	2
 638              	.L7:
 639 0094 22BA003D 		.word	1023457826
 640 0098 0AD7233C 		.word	1008981770
 641 009c CAAA7F3F 		.word	1065331402
 642 00a0 C92F963B 		.word	999698377
 643 00a4 9A99993E 		.word	1050253722
 644 00a8 CDCC4C3F 		.word	1061997773
 645 00ac 8C2E5A43 		.word	1129983628
 646 00b0 B1E47F3F 		.word	1065346225
 647              		.cfi_endproc
 648              	.LFE1531:
 650              		.section	.text._ZN6stmlib3Svf7set_f_qILNS_22FrequencyApproximationE1EEEvff,"axG",%progbits,_ZN6stm
 651              		.align	1
 652              		.weak	_ZN6stmlib3Svf7set_f_qILNS_22FrequencyApproximationE1EEEvff
 653              		.syntax unified
 654              		.thumb
 655              		.thumb_func
 656              		.fpu fpv5-d16
 658              	_ZN6stmlib3Svf7set_f_qILNS_22FrequencyApproximationE1EEEvff:
 659              	.LVL39:
 660              	.LFB1556:
 223:../../stmlib/dsp/filter.h ****     g_ = OnePole::tan<approximation>(f);
 661              		.loc 7 223 15 is_stmt 1 view -0
 662              		.cfi_startproc
 663              		@ args = 0, pretend = 0, frame = 0
 664              		@ frame_needed = 0, uses_anonymous_args = 0
 665              		@ link register save eliminated.
 666              	.LBB271:
 667              	.LBI271:
 107:../../stmlib/dsp/filter.h ****     if (approximation == FREQUENCY_EXACT) {
 668              		.loc 7 107 23 view .LVU191
 669              	.LBB272:
 131:../../stmlib/dsp/filter.h ****       return f * (M_PI_F + f2 * (a + f2 * (b + f2 * (c + f2 * (d + f2 * e)))));
 670              		.loc 7 131 13 is_stmt 0 view .LVU192
 671 0000 60EE007A 		vmul.f32	s15, s0, s0
 672              	.LVL40:
 132:../../stmlib/dsp/filter.h ****     }
 673              		.loc 7 132 66 view .LVU193
 674 0004 DFED156A 		vldr.32	s13, .L10
 675 0008 9FED157A 		vldr.32	s14, .L10+4
 676 000c A7EEA67A 		vfma.f32	s14, s15, s13
 132:../../stmlib/dsp/filter.h ****     }
 677              		.loc 7 132 56 view .LVU194
 678 0010 DFED146A 		vldr.32	s13, .L10+8
 679 0014 E7EE876A 		vfma.f32	s13, s15, s14
 132:../../stmlib/dsp/filter.h ****     }
 680              		.loc 7 132 46 view .LVU195
 681 0018 9FED137A 		vldr.32	s14, .L10+12
 682 001c A7EEA67A 		vfma.f32	s14, s15, s13
 132:../../stmlib/dsp/filter.h ****     }
 683              		.loc 7 132 36 view .LVU196
 684 0020 DFED126A 		vldr.32	s13, .L10+16
 685 0024 E7EE876A 		vfma.f32	s13, s15, s14
 132:../../stmlib/dsp/filter.h ****     }
 686              		.loc 7 132 26 view .LVU197
ARM GAS  /var/folders/hl/qgbwny5j0fd895c2c41bk3tw0000gp/T//cc6AdWFS.s 			page 41


 687 0028 9FED117A 		vldr.32	s14, .L10+20
 688 002c A7EEA67A 		vfma.f32	s14, s15, s13
 132:../../stmlib/dsp/filter.h ****     }
 689              		.loc 7 132 78 view .LVU198
 690 0030 20EE070A 		vmul.f32	s0, s0, s14
 691              	.LVL41:
 132:../../stmlib/dsp/filter.h ****     }
 692              		.loc 7 132 78 view .LVU199
 693              	.LBE272:
 694              	.LBE271:
 225:../../stmlib/dsp/filter.h ****     h_ = 1.0f / (1.0f + r_ * g_ + g_ * g_);
 695              		.loc 7 225 15 view .LVU200
 696 0034 B7EE007A 		vmov.f32	s14, #1.0e+0
 224:../../stmlib/dsp/filter.h ****     r_ = 1.0f / resonance;
 697              		.loc 7 224 8 view .LVU201
 698 0038 80ED000A 		vstr.32	s0, [r0]
 225:../../stmlib/dsp/filter.h ****     h_ = 1.0f / (1.0f + r_ * g_ + g_ * g_);
 699              		.loc 7 225 15 view .LVU202
 700 003c C7EE206A 		vdiv.f32	s13, s14, s1
 701              		.loc 7 226 23 view .LVU203
 702 0040 F0EE477A 		vmov.f32	s15, s14
 703 0044 E6EE807A 		vfma.f32	s15, s13, s0
 225:../../stmlib/dsp/filter.h ****     h_ = 1.0f / (1.0f + r_ * g_ + g_ * g_);
 704              		.loc 7 225 8 view .LVU204
 705 0048 C0ED016A 		vstr.32	s13, [r0, #4]
 706              		.loc 7 226 33 view .LVU205
 707 004c E0EE007A 		vfma.f32	s15, s0, s0
 708              		.loc 7 226 15 view .LVU206
 709 0050 C7EE276A 		vdiv.f32	s13, s14, s15
 710              		.loc 7 226 8 view .LVU207
 711 0054 C0ED026A 		vstr.32	s13, [r0, #8]
 227:../../stmlib/dsp/filter.h ****   }
 712              		.loc 7 227 3 view .LVU208
 713 0058 7047     		bx	lr
 714              	.L11:
 715 005a 00BF     		.align	2
 716              	.L10:
 717 005c 23FE2E45 		.word	1160707619
 718 0060 90ECAC42 		.word	1118629008
 719 0064 8F342143 		.word	1126249615
 720 0068 66482342 		.word	1109608550
 721 006c A85D2541 		.word	1092967848
 722 0070 DB0F4940 		.word	1078530011
 723              		.cfi_endproc
 724              	.LFE1556:
 726              		.section	.text._ZNK6stmlib9DelayLineIfLj2048EE11ReadHermiteEf,"axG",%progbits,_ZNK6stmlib9DelayLin
 727              		.align	1
 728              		.weak	_ZNK6stmlib9DelayLineIfLj2048EE11ReadHermiteEf
 729              		.syntax unified
 730              		.thumb
 731              		.thumb_func
 732              		.fpu fpv5-d16
 734              	_ZNK6stmlib9DelayLineIfLj2048EE11ReadHermiteEf:
 735              	.LVL42:
 736              	.LFB1557:
  53:../../stmlib/dsp/delay_line.h ****   }
  54:../../stmlib/dsp/delay_line.h ****   
ARM GAS  /var/folders/hl/qgbwny5j0fd895c2c41bk3tw0000gp/T//cc6AdWFS.s 			page 42


  55:../../stmlib/dsp/delay_line.h ****   inline void set_delay(size_t delay) {
  56:../../stmlib/dsp/delay_line.h ****     delay_ = delay;
  57:../../stmlib/dsp/delay_line.h ****   }
  58:../../stmlib/dsp/delay_line.h **** 
  59:../../stmlib/dsp/delay_line.h ****   inline void Write(const T sample) {
  60:../../stmlib/dsp/delay_line.h ****     line_[write_ptr_] = sample;
  61:../../stmlib/dsp/delay_line.h ****     write_ptr_ = (write_ptr_ - 1 + max_delay) % max_delay;
  62:../../stmlib/dsp/delay_line.h ****   }
  63:../../stmlib/dsp/delay_line.h ****   
  64:../../stmlib/dsp/delay_line.h ****   inline const T Allpass(const T sample, size_t delay, const T coefficient) {
  65:../../stmlib/dsp/delay_line.h ****     T read = line_[(write_ptr_ + delay) % max_delay];
  66:../../stmlib/dsp/delay_line.h ****     T write = sample + coefficient * read;
  67:../../stmlib/dsp/delay_line.h ****     Write(write);
  68:../../stmlib/dsp/delay_line.h ****     return -write * coefficient + read;
  69:../../stmlib/dsp/delay_line.h ****   }
  70:../../stmlib/dsp/delay_line.h **** 
  71:../../stmlib/dsp/delay_line.h ****   inline const T WriteRead(const T sample, float delay) {
  72:../../stmlib/dsp/delay_line.h ****     Write(sample);
  73:../../stmlib/dsp/delay_line.h ****     return Read(delay);
  74:../../stmlib/dsp/delay_line.h ****   }
  75:../../stmlib/dsp/delay_line.h ****   
  76:../../stmlib/dsp/delay_line.h ****   inline const T Read() const {
  77:../../stmlib/dsp/delay_line.h ****     return line_[(write_ptr_ + delay_) % max_delay];
  78:../../stmlib/dsp/delay_line.h ****   }
  79:../../stmlib/dsp/delay_line.h ****   
  80:../../stmlib/dsp/delay_line.h ****   inline const T Read(size_t delay) const {
  81:../../stmlib/dsp/delay_line.h ****     return line_[(write_ptr_ + delay) % max_delay];
  82:../../stmlib/dsp/delay_line.h ****   }
  83:../../stmlib/dsp/delay_line.h **** 
  84:../../stmlib/dsp/delay_line.h ****   inline const T Read(float delay) const {
  85:../../stmlib/dsp/delay_line.h ****     MAKE_INTEGRAL_FRACTIONAL(delay)
  86:../../stmlib/dsp/delay_line.h ****     const T a = line_[(write_ptr_ + delay_integral) % max_delay];
  87:../../stmlib/dsp/delay_line.h ****     const T b = line_[(write_ptr_ + delay_integral + 1) % max_delay];
  88:../../stmlib/dsp/delay_line.h ****     return a + (b - a) * delay_fractional;
  89:../../stmlib/dsp/delay_line.h ****   }
  90:../../stmlib/dsp/delay_line.h ****   
  91:../../stmlib/dsp/delay_line.h ****   inline const T ReadHermite(float delay) const {
 737              		.loc 5 91 18 is_stmt 1 view -0
 738              		.cfi_startproc
 739              		@ args = 0, pretend = 0, frame = 0
 740              		@ frame_needed = 0, uses_anonymous_args = 0
 741              		@ link register save eliminated.
  92:../../stmlib/dsp/delay_line.h ****     MAKE_INTEGRAL_FRACTIONAL(delay)
 742              		.loc 5 92 5 is_stmt 0 view .LVU210
 743 0000 FDEEC07A 		vcvt.s32.f32	s15, s0
 744              	.LVL43:
  93:../../stmlib/dsp/delay_line.h ****     int32_t t = (write_ptr_ + delay_integral + max_delay);
 745              		.loc 5 93 29 view .LVU211
 746 0004 0368     		ldr	r3, [r0]
  94:../../stmlib/dsp/delay_line.h ****     const T xm1 = line_[(t - 1) % max_delay];
  95:../../stmlib/dsp/delay_line.h ****     const T x0 = line_[(t) % max_delay];
  96:../../stmlib/dsp/delay_line.h ****     const T x1 = line_[(t + 1) % max_delay];
  97:../../stmlib/dsp/delay_line.h ****     const T x2 = line_[(t + 2) % max_delay];
  98:../../stmlib/dsp/delay_line.h ****     const float c = (x1 - xm1) * 0.5f;
  99:../../stmlib/dsp/delay_line.h ****     const float v = x0 - x1;
 100:../../stmlib/dsp/delay_line.h ****     const float w = c + v;
 747              		.loc 5 100 17 view .LVU212
ARM GAS  /var/folders/hl/qgbwny5j0fd895c2c41bk3tw0000gp/T//cc6AdWFS.s 			page 43


 748 0006 F6EE005A 		vmov.f32	s11, #5.0e-1
  93:../../stmlib/dsp/delay_line.h ****     int32_t t = (write_ptr_ + delay_integral + max_delay);
 749              		.loc 5 93 29 view .LVU213
 750 000a 17EE902A 		vmov	r2, s15	@ int
  92:../../stmlib/dsp/delay_line.h ****     int32_t t = (write_ptr_ + delay_integral + max_delay);
 751              		.loc 5 92 5 view .LVU214
 752 000e F8EEE76A 		vcvt.f32.s32	s13, s15
  93:../../stmlib/dsp/delay_line.h ****     int32_t t = (write_ptr_ + delay_integral + max_delay);
 753              		.loc 5 93 29 view .LVU215
 754 0012 1A44     		add	r2, r2, r3
  92:../../stmlib/dsp/delay_line.h ****     int32_t t = (write_ptr_ + delay_integral + max_delay);
 755              		.loc 5 92 5 view .LVU216
 756 0014 70EE666A 		vsub.f32	s13, s0, s13
 757              	.LVL44:
  93:../../stmlib/dsp/delay_line.h ****     int32_t t = (write_ptr_ + delay_integral + max_delay);
 758              		.loc 5 93 29 view .LVU217
 759 0018 1346     		mov	r3, r2
 760              	.LVL45:
  95:../../stmlib/dsp/delay_line.h ****     const T x1 = line_[(t + 1) % max_delay];
 761              		.loc 5 95 13 view .LVU218
 762 001a C2F30A02 		ubfx	r2, r2, #0, #11
 763              	.LVL46:
  95:../../stmlib/dsp/delay_line.h ****     const T x1 = line_[(t + 1) % max_delay];
 764              		.loc 5 95 13 view .LVU219
 765 001e 00EB8202 		add	r2, r0, r2, lsl #2
 766 0022 92ED020A 		vldr.32	s0, [r2, #8]
 767              	.LVL47:
  96:../../stmlib/dsp/delay_line.h ****     const T x2 = line_[(t + 2) % max_delay];
 768              		.loc 5 96 32 view .LVU220
 769 0026 03F60102 		addw	r2, r3, #2049
 770 002a C2F30A02 		ubfx	r2, r2, #0, #11
  96:../../stmlib/dsp/delay_line.h ****     const T x2 = line_[(t + 2) % max_delay];
 771              		.loc 5 96 13 view .LVU221
 772 002e 00EB8202 		add	r2, r0, r2, lsl #2
 773 0032 92ED027A 		vldr.32	s14, [r2, #8]
 774              	.LVL48:
  97:../../stmlib/dsp/delay_line.h ****     const float c = (x1 - xm1) * 0.5f;
 775              		.loc 5 97 32 view .LVU222
 776 0036 03F60202 		addw	r2, r3, #2050
  94:../../stmlib/dsp/delay_line.h ****     const T x0 = line_[(t) % max_delay];
 777              		.loc 5 94 33 view .LVU223
 778 003a 03F2FF73 		addw	r3, r3, #2047
 779              	.LVL49:
  97:../../stmlib/dsp/delay_line.h ****     const float c = (x1 - xm1) * 0.5f;
 780              		.loc 5 97 32 view .LVU224
 781 003e C2F30A02 		ubfx	r2, r2, #0, #11
  94:../../stmlib/dsp/delay_line.h ****     const T x0 = line_[(t) % max_delay];
 782              		.loc 5 94 33 view .LVU225
 783 0042 C3F30A03 		ubfx	r3, r3, #0, #11
 784              	.LVL50:
  97:../../stmlib/dsp/delay_line.h ****     const float c = (x1 - xm1) * 0.5f;
 785              		.loc 5 97 13 view .LVU226
 786 0046 00EB8202 		add	r2, r0, r2, lsl #2
  94:../../stmlib/dsp/delay_line.h ****     const T x0 = line_[(t) % max_delay];
 787              		.loc 5 94 13 view .LVU227
 788 004a 00EB8300 		add	r0, r0, r3, lsl #2
 789              	.LVL51:
ARM GAS  /var/folders/hl/qgbwny5j0fd895c2c41bk3tw0000gp/T//cc6AdWFS.s 			page 44


  97:../../stmlib/dsp/delay_line.h ****     const float c = (x1 - xm1) * 0.5f;
 790              		.loc 5 97 13 view .LVU228
 791 004e 92ED025A 		vldr.32	s10, [r2, #8]
 792              	.LVL52:
  98:../../stmlib/dsp/delay_line.h ****     const float v = x0 - x1;
 793              		.loc 5 98 25 view .LVU229
 794 0052 90ED026A 		vldr.32	s12, [r0, #8]
 101:../../stmlib/dsp/delay_line.h ****     const float a = w + v + (x2 - x0) * 0.5f;
 795              		.loc 5 101 33 view .LVU230
 796 0056 35EE405A 		vsub.f32	s10, s10, s0
 797              	.LVL53:
  98:../../stmlib/dsp/delay_line.h ****     const float v = x0 - x1;
 798              		.loc 5 98 25 view .LVU231
 799 005a 37EE466A 		vsub.f32	s12, s14, s12
 800              	.LVL54:
  99:../../stmlib/dsp/delay_line.h ****     const float w = c + v;
 801              		.loc 5 99 17 view .LVU232
 802 005e 30EE477A 		vsub.f32	s14, s0, s14
 803              	.LVL55:
 100:../../stmlib/dsp/delay_line.h ****     const float a = w + v + (x2 - x0) * 0.5f;
 804              		.loc 5 100 17 view .LVU233
 805 0062 F0EE477A 		vmov.f32	s15, s14
 806              	.LVL56:
 100:../../stmlib/dsp/delay_line.h ****     const float a = w + v + (x2 - x0) * 0.5f;
 807              		.loc 5 100 17 view .LVU234
 808 0066 E6EE257A 		vfma.f32	s15, s12, s11
 809              	.LVL57:
 810              		.loc 5 101 23 view .LVU235
 811 006a 37EE277A 		vadd.f32	s14, s14, s15
 812              	.LVL58:
 813              		.loc 5 101 17 view .LVU236
 814 006e A5EE257A 		vfma.f32	s14, s10, s11
 815              	.LVL59:
 102:../../stmlib/dsp/delay_line.h ****     const float b_neg = w + a;
 816              		.loc 5 102 17 view .LVU237
 817 0072 77EE877A 		vadd.f32	s15, s15, s14
 818              	.LVL60:
 103:../../stmlib/dsp/delay_line.h ****     const float f = delay_fractional;
 104:../../stmlib/dsp/delay_line.h ****     return (((a * f) - b_neg) * f + c) * f + x0;
 819              		.loc 5 104 22 view .LVU238
 820 0076 D6EE877A 		vfnms.f32	s15, s13, s14
 821              	.LVL61:
 822              		.loc 5 104 31 view .LVU239
 823 007a 67EEA67A 		vmul.f32	s15, s15, s13
 824              		.loc 5 104 35 view .LVU240
 825 007e E6EE257A 		vfma.f32	s15, s12, s11
 105:../../stmlib/dsp/delay_line.h ****   }
 826              		.loc 5 105 3 view .LVU241
 827 0082 A7EEA60A 		vfma.f32	s0, s15, s13
 828              	.LVL62:
 829              		.loc 5 105 3 view .LVU242
 830 0086 7047     		bx	lr
 831              		.cfi_endproc
 832              	.LFE1557:
 834              		.section	.text._ZN6stmlib3Svf7ProcessILNS_10FilterModeE0EEEff,"axG",%progbits,_ZN6stmlib3Svf7Proce
 835              		.align	1
 836              		.weak	_ZN6stmlib3Svf7ProcessILNS_10FilterModeE0EEEff
ARM GAS  /var/folders/hl/qgbwny5j0fd895c2c41bk3tw0000gp/T//cc6AdWFS.s 			page 45


 837              		.syntax unified
 838              		.thumb
 839              		.thumb_func
 840              		.fpu fpv5-d16
 842              	_ZN6stmlib3Svf7ProcessILNS_10FilterModeE0EEEff:
 843              	.LVL63:
 844              	.LFB1559:
 228:../../stmlib/dsp/filter.h ****   
 229:../../stmlib/dsp/filter.h ****   template<FilterMode mode>
 230:../../stmlib/dsp/filter.h ****   inline float Process(float in) {
 845              		.loc 7 230 16 is_stmt 1 view -0
 846              		.cfi_startproc
 847              		@ args = 0, pretend = 0, frame = 0
 848              		@ frame_needed = 0, uses_anonymous_args = 0
 849              		@ link register save eliminated.
 231:../../stmlib/dsp/filter.h ****     float hp, bp, lp;
 232:../../stmlib/dsp/filter.h ****     hp = (in - r_ * state_1_ - g_ * state_1_ - state_2_) * h_;
 850              		.loc 7 232 14 is_stmt 0 view .LVU244
 851 0000 F0EE407A 		vmov.f32	s15, s0
 852              		.loc 7 232 21 view .LVU245
 853 0004 90ED037A 		vldr.32	s14, [r0, #12]
 854              		.loc 7 232 14 view .LVU246
 855 0008 D0ED016A 		vldr.32	s13, [r0, #4]
 856              		.loc 7 232 48 view .LVU247
 857 000c 90ED040A 		vldr.32	s0, [r0, #16]
 858              	.LVL64:
 859              		.loc 7 232 14 view .LVU248
 860 0010 E6EEC77A 		vfms.f32	s15, s13, s14
 861              	.LVL65:
 862              		.loc 7 232 32 view .LVU249
 863 0014 D0ED006A 		vldr.32	s13, [r0]
 864              		.loc 7 232 8 view .LVU250
 865 0018 90ED026A 		vldr.32	s12, [r0, #8]
 866              		.loc 7 232 30 view .LVU251
 867 001c E7EE667A 		vfms.f32	s15, s14, s13
 868              		.loc 7 232 46 view .LVU252
 869 0020 77EEC07A 		vsub.f32	s15, s15, s0
 870              		.loc 7 232 8 view .LVU253
 871 0024 67EE867A 		vmul.f32	s15, s15, s12
 872              	.LVL66:
 233:../../stmlib/dsp/filter.h ****     bp = g_ * hp + state_1_;
 873              		.loc 7 233 8 view .LVU254
 874 0028 A6EEA77A 		vfma.f32	s14, s13, s15
 875              	.LVL67:
 234:../../stmlib/dsp/filter.h ****     state_1_ = g_ * hp + bp;
 235:../../stmlib/dsp/filter.h ****     lp = g_ * bp + state_2_;
 876              		.loc 7 235 8 view .LVU255
 877 002c A6EE870A 		vfma.f32	s0, s13, s14
 878              	.LVL68:
 234:../../stmlib/dsp/filter.h ****     state_1_ = g_ * hp + bp;
 879              		.loc 7 234 24 view .LVU256
 880 0030 B0EE476A 		vmov.f32	s12, s14
 881 0034 A6EEA76A 		vfma.f32	s12, s13, s15
 236:../../stmlib/dsp/filter.h ****     state_2_ = g_ * bp + lp;
 882              		.loc 7 236 24 view .LVU257
 883 0038 F0EE407A 		vmov.f32	s15, s0
 884              	.LVL69:
ARM GAS  /var/folders/hl/qgbwny5j0fd895c2c41bk3tw0000gp/T//cc6AdWFS.s 			page 46


 885              		.loc 7 236 24 view .LVU258
 886 003c E6EE877A 		vfma.f32	s15, s13, s14
 234:../../stmlib/dsp/filter.h ****     state_1_ = g_ * hp + bp;
 887              		.loc 7 234 14 view .LVU259
 888 0040 80ED036A 		vstr.32	s12, [r0, #12]
 889              	.LVL70:
 890              		.loc 7 236 14 view .LVU260
 891 0044 C0ED047A 		vstr.32	s15, [r0, #16]
 237:../../stmlib/dsp/filter.h ****     
 238:../../stmlib/dsp/filter.h ****     if (mode == FILTER_MODE_LOW_PASS) {
 239:../../stmlib/dsp/filter.h ****       return lp;
 240:../../stmlib/dsp/filter.h ****     } else if (mode == FILTER_MODE_BAND_PASS) {
 241:../../stmlib/dsp/filter.h ****       return bp;
 242:../../stmlib/dsp/filter.h ****     } else if (mode == FILTER_MODE_BAND_PASS_NORMALIZED) {
 243:../../stmlib/dsp/filter.h ****       return bp * r_;
 244:../../stmlib/dsp/filter.h ****     } else if (mode == FILTER_MODE_HIGH_PASS) {
 245:../../stmlib/dsp/filter.h ****       return hp;
 246:../../stmlib/dsp/filter.h ****     }
 247:../../stmlib/dsp/filter.h ****   }
 892              		.loc 7 247 3 view .LVU261
 893 0048 7047     		bx	lr
 894              		.cfi_endproc
 895              	.LFE1559:
 897              		.section	.text._ZNK6stmlib9DelayLineIfLj2048EE4ReadEf,"axG",%progbits,_ZNK6stmlib9DelayLineIfLj204
 898              		.align	1
 899              		.weak	_ZNK6stmlib9DelayLineIfLj2048EE4ReadEf
 900              		.syntax unified
 901              		.thumb
 902              		.thumb_func
 903              		.fpu fpv5-d16
 905              	_ZNK6stmlib9DelayLineIfLj2048EE4ReadEf:
 906              	.LVL71:
 907              	.LFB1561:
  84:../../stmlib/dsp/delay_line.h ****     MAKE_INTEGRAL_FRACTIONAL(delay)
 908              		.loc 5 84 18 is_stmt 1 view -0
 909              		.cfi_startproc
 910              		@ args = 0, pretend = 0, frame = 0
 911              		@ frame_needed = 0, uses_anonymous_args = 0
 912              		@ link register save eliminated.
  85:../../stmlib/dsp/delay_line.h ****     const T a = line_[(write_ptr_ + delay_integral) % max_delay];
 913              		.loc 5 85 5 is_stmt 0 view .LVU263
 914 0000 FDEEC07A 		vcvt.s32.f32	s15, s0
 915              	.LVL72:
  86:../../stmlib/dsp/delay_line.h ****     const T b = line_[(write_ptr_ + delay_integral + 1) % max_delay];
 916              		.loc 5 86 35 view .LVU264
 917 0004 0368     		ldr	r3, [r0]
 918 0006 17EE902A 		vmov	r2, s15	@ int
  85:../../stmlib/dsp/delay_line.h ****     const T a = line_[(write_ptr_ + delay_integral) % max_delay];
 919              		.loc 5 85 5 view .LVU265
 920 000a F8EEE77A 		vcvt.f32.s32	s15, s15
 921              	.LVL73:
  86:../../stmlib/dsp/delay_line.h ****     const T b = line_[(write_ptr_ + delay_integral + 1) % max_delay];
 922              		.loc 5 86 35 view .LVU266
 923 000e 1344     		add	r3, r3, r2
  85:../../stmlib/dsp/delay_line.h ****     const T a = line_[(write_ptr_ + delay_integral) % max_delay];
 924              		.loc 5 85 5 view .LVU267
 925 0010 70EE677A 		vsub.f32	s15, s0, s15
ARM GAS  /var/folders/hl/qgbwny5j0fd895c2c41bk3tw0000gp/T//cc6AdWFS.s 			page 47


 926              	.LVL74:
  86:../../stmlib/dsp/delay_line.h ****     const T b = line_[(write_ptr_ + delay_integral + 1) % max_delay];
 927              		.loc 5 86 53 view .LVU268
 928 0014 C3F30A02 		ubfx	r2, r3, #0, #11
 929              	.LVL75:
  87:../../stmlib/dsp/delay_line.h ****     return a + (b - a) * delay_fractional;
 930              		.loc 5 87 52 view .LVU269
 931 0018 0133     		adds	r3, r3, #1
  87:../../stmlib/dsp/delay_line.h ****     return a + (b - a) * delay_fractional;
 932              		.loc 5 87 57 view .LVU270
 933 001a C3F30A03 		ubfx	r3, r3, #0, #11
  86:../../stmlib/dsp/delay_line.h ****     const T b = line_[(write_ptr_ + delay_integral + 1) % max_delay];
 934              		.loc 5 86 13 view .LVU271
 935 001e 00EB8202 		add	r2, r0, r2, lsl #2
  87:../../stmlib/dsp/delay_line.h ****     return a + (b - a) * delay_fractional;
 936              		.loc 5 87 13 view .LVU272
 937 0022 00EB8300 		add	r0, r0, r3, lsl #2
 938              	.LVL76:
  86:../../stmlib/dsp/delay_line.h ****     const T b = line_[(write_ptr_ + delay_integral + 1) % max_delay];
 939              		.loc 5 86 13 view .LVU273
 940 0026 D2ED026A 		vldr.32	s13, [r2, #8]
 941              	.LVL77:
  88:../../stmlib/dsp/delay_line.h ****   }
 942              		.loc 5 88 19 view .LVU274
 943 002a 90ED027A 		vldr.32	s14, [r0, #8]
 944 002e 37EE667A 		vsub.f32	s14, s14, s13
  89:../../stmlib/dsp/delay_line.h ****   
 945              		.loc 5 89 3 view .LVU275
 946 0032 E7EE276A 		vfma.f32	s13, s14, s15
 947              	.LVL78:
  89:../../stmlib/dsp/delay_line.h ****   
 948              		.loc 5 89 3 view .LVU276
 949 0036 B0EE660A 		vmov.f32	s0, s13
 950              	.LVL79:
  89:../../stmlib/dsp/delay_line.h ****   
 951              		.loc 5 89 3 view .LVU277
 952 003a 7047     		bx	lr
 953              		.cfi_endproc
 954              	.LFE1561:
 956              		.section	.text._ZN5torus6String15ProcessInternalILb0EEEvPKfPfS4_j,"axG",%progbits,_ZN5torus6String
 957              		.align	1
 958              		.weak	_ZN5torus6String15ProcessInternalILb0EEEvPKfPfS4_j
 959              		.syntax unified
 960              		.thumb
 961              		.thumb_func
 962              		.fpu fpv5-d16
 964              	_ZN5torus6String15ProcessInternalILb0EEEvPKfPfS4_j:
 965              	.LVL80:
 966              	.LFB1552:
  72:dsp/string.cpp **** 
  73:dsp/string.cpp **** template <bool enable_dispersion>
  74:dsp/string.cpp **** void String::ProcessInternal(const float* in,
 967              		.loc 4 74 6 is_stmt 1 view -0
 968              		.cfi_startproc
 969              		@ args = 4, pretend = 0, frame = 8
 970              		@ frame_needed = 0, uses_anonymous_args = 0
 971              		.loc 4 74 6 is_stmt 0 view .LVU279
ARM GAS  /var/folders/hl/qgbwny5j0fd895c2c41bk3tw0000gp/T//cc6AdWFS.s 			page 48


 972 0000 2DE9F04F 		push	{r4, r5, r6, r7, r8, r9, r10, fp, lr}
 973              		.cfi_def_cfa_offset 36
 974              		.cfi_offset 4, -36
 975              		.cfi_offset 5, -32
 976              		.cfi_offset 6, -28
 977              		.cfi_offset 7, -24
 978              		.cfi_offset 8, -20
 979              		.cfi_offset 9, -16
 980              		.cfi_offset 10, -12
 981              		.cfi_offset 11, -8
 982              		.cfi_offset 14, -4
 983 0004 2DED0C8B 		vpush.64	{d8, d9, d10, d11, d12, d13}
 984              		.cfi_def_cfa_offset 84
 985              		.cfi_offset 80, -84
 986              		.cfi_offset 81, -80
 987              		.cfi_offset 82, -76
 988              		.cfi_offset 83, -72
 989              		.cfi_offset 84, -68
 990              		.cfi_offset 85, -64
 991              		.cfi_offset 86, -60
 992              		.cfi_offset 87, -56
 993              		.cfi_offset 88, -52
 994              		.cfi_offset 89, -48
 995              		.cfi_offset 90, -44
 996              		.cfi_offset 91, -40
  75:dsp/string.cpp ****                              float*       out,
  76:dsp/string.cpp ****                              float*       aux,
  77:dsp/string.cpp ****                              size_t       size)
  78:dsp/string.cpp **** {
  79:dsp/string.cpp ****     float delay = 1.0f / frequency_;
 997              		.loc 4 79 11 view .LVU280
 998 0008 F7EE009A 		vmov.f32	s19, #1.0e+0
 999              		.loc 4 79 26 view .LVU281
 1000 000c D0ED00DA 		vldr.32	s27, [r0]
  80:dsp/string.cpp ****     CONSTRAIN(delay, 4.0f, kDelayLineSize - 4.0f);
 1001              		.loc 4 80 5 view .LVU282
 1002 0010 F1EE007A 		vmov.f32	s15, #4.0e+0
  74:dsp/string.cpp ****                              float*       out,
 1003              		.loc 4 74 6 view .LVU283
 1004 0014 83B0     		sub	sp, sp, #12
 1005              		.cfi_def_cfa_offset 96
  74:dsp/string.cpp ****                              float*       out,
 1006              		.loc 4 74 6 view .LVU284
 1007 0016 0446     		mov	r4, r0
 1008 0018 0E46     		mov	r6, r1
  79:dsp/string.cpp ****     CONSTRAIN(delay, 4.0f, kDelayLineSize - 4.0f);
 1009              		.loc 4 79 11 view .LVU285
 1010 001a 89EEAD8A 		vdiv.f32	s16, s19, s27
 1011              	.LVL81:
  74:dsp/string.cpp ****                              float*       out,
 1012              		.loc 4 74 6 view .LVU286
 1013 001e 9046     		mov	r8, r2
 1014 0020 1F46     		mov	r7, r3
 1015 0022 189D     		ldr	r5, [sp, #96]
 1016              		.loc 4 80 5 view .LVU287
 1017 0024 B4EEE78A 		vcmpe.f32	s16, s15
 1018 0028 F1EE10FA 		vmrs	APSR_nzcv, FPSCR
ARM GAS  /var/folders/hl/qgbwny5j0fd895c2c41bk3tw0000gp/T//cc6AdWFS.s 			page 49


 1019 002c 00F1FC80 		bmi	.L31
 1020              		.loc 4 80 5 discriminator 2 view .LVU288
 1021 0030 DFEDAB7A 		vldr.32	s15, .L38
 1022 0034 B4EE678A 		vcmp.f32	s16, s15
 1023 0038 F1EE10FA 		vmrs	APSR_nzcv, FPSCR
 1024 003c 37FE888A 		vselgt.f32	s16, s15, s16
 1025              	.LVL82:
 1026              	.L16:
  81:dsp/string.cpp **** 
  82:dsp/string.cpp ****     // If there is not enough delay time in the delay line, we play at the
  83:dsp/string.cpp ****     // lowest possible note and we upsample on the fly with a shitty linear
  84:dsp/string.cpp ****     // interpolator. We don't care because it's a corner case (f0 < 11.7Hz)
  85:dsp/string.cpp ****     float src_ratio = delay * frequency_;
 1027              		.loc 4 85 11 view .LVU289
 1028 0040 2DEE88AA 		vmul.f32	s20, s27, s16
 1029              	.LVL83:
  86:dsp/string.cpp ****     if(src_ratio >= 0.9999f)
 1030              		.loc 4 86 5 view .LVU290
 1031 0044 DFEDA77A 		vldr.32	s15, .L38+4
  87:dsp/string.cpp ****     {
  88:dsp/string.cpp ****         // When we are above 11.7 Hz, we make sure that the linear interpolator
  89:dsp/string.cpp ****         // does not get in the way.
  90:dsp/string.cpp ****         src_phase_ = 1.0f;
  91:dsp/string.cpp ****         src_ratio  = 1.0f;
  92:dsp/string.cpp ****     }
  93:dsp/string.cpp **** 
  94:dsp/string.cpp ****     float clamped_position = 0.5f - 0.98f * fabs(position_ - 0.5f);
 1032              		.loc 4 94 49 view .LVU291
 1033 0048 94ED047A 		vldr.32	s14, [r4, #16]
 1034              		.loc 4 94 11 view .LVU292
 1035 004c DFEDA66A 		vldr.32	s13, .L38+8
  86:dsp/string.cpp ****     if(src_ratio >= 0.9999f)
 1036              		.loc 4 86 5 view .LVU293
 1037 0050 B4EEE7AA 		vcmpe.f32	s20, s15
 1038              	.LBB334:
 1039              	.LBB335:
 1040              	.LBB336:
 1041              		.file 8 "../../stmlib/dsp/parameter_interpolator.h"
   1:../../stmlib/dsp/parameter_interpolator.h **** // Copyright 2015 Emilie Gillet.
   2:../../stmlib/dsp/parameter_interpolator.h **** //
   3:../../stmlib/dsp/parameter_interpolator.h **** // Author: Emilie Gillet (emilie.o.gillet@gmail.com)
   4:../../stmlib/dsp/parameter_interpolator.h **** //
   5:../../stmlib/dsp/parameter_interpolator.h **** // Permission is hereby granted, free of charge, to any person obtaining a copy
   6:../../stmlib/dsp/parameter_interpolator.h **** // of this software and associated documentation files (the "Software"), to deal
   7:../../stmlib/dsp/parameter_interpolator.h **** // in the Software without restriction, including without limitation the rights
   8:../../stmlib/dsp/parameter_interpolator.h **** // to use, copy, modify, merge, publish, distribute, sublicense, and/or sell
   9:../../stmlib/dsp/parameter_interpolator.h **** // copies of the Software, and to permit persons to whom the Software is
  10:../../stmlib/dsp/parameter_interpolator.h **** // furnished to do so, subject to the following conditions:
  11:../../stmlib/dsp/parameter_interpolator.h **** // 
  12:../../stmlib/dsp/parameter_interpolator.h **** // The above copyright notice and this permission notice shall be included in
  13:../../stmlib/dsp/parameter_interpolator.h **** // all copies or substantial portions of the Software.
  14:../../stmlib/dsp/parameter_interpolator.h **** // 
  15:../../stmlib/dsp/parameter_interpolator.h **** // THE SOFTWARE IS PROVIDED "AS IS", WITHOUT WARRANTY OF ANY KIND, EXPRESS OR
  16:../../stmlib/dsp/parameter_interpolator.h **** // IMPLIED, INCLUDING BUT NOT LIMITED TO THE WARRANTIES OF MERCHANTABILITY,
  17:../../stmlib/dsp/parameter_interpolator.h **** // FITNESS FOR A PARTICULAR PURPOSE AND NONINFRINGEMENT. IN NO EVENT SHALL THE
  18:../../stmlib/dsp/parameter_interpolator.h **** // AUTHORS OR COPYRIGHT HOLDERS BE LIABLE FOR ANY CLAIM, DAMAGES OR OTHER
  19:../../stmlib/dsp/parameter_interpolator.h **** // LIABILITY, WHETHER IN AN ACTION OF CONTRACT, TORT OR OTHERWISE, ARISING FROM,
ARM GAS  /var/folders/hl/qgbwny5j0fd895c2c41bk3tw0000gp/T//cc6AdWFS.s 			page 50


  20:../../stmlib/dsp/parameter_interpolator.h **** // OUT OF OR IN CONNECTION WITH THE SOFTWARE OR THE USE OR OTHER DEALINGS IN
  21:../../stmlib/dsp/parameter_interpolator.h **** // THE SOFTWARE.
  22:../../stmlib/dsp/parameter_interpolator.h **** // 
  23:../../stmlib/dsp/parameter_interpolator.h **** // See http://creativecommons.org/licenses/MIT/ for more information.
  24:../../stmlib/dsp/parameter_interpolator.h **** //
  25:../../stmlib/dsp/parameter_interpolator.h **** // -----------------------------------------------------------------------------
  26:../../stmlib/dsp/parameter_interpolator.h **** //
  27:../../stmlib/dsp/parameter_interpolator.h **** // Linear interpolation of parameters in rendering loops.
  28:../../stmlib/dsp/parameter_interpolator.h **** 
  29:../../stmlib/dsp/parameter_interpolator.h **** #ifndef STMLIB_DSP_PARAMETER_INTERPOLATOR_H_
  30:../../stmlib/dsp/parameter_interpolator.h **** #define STMLIB_DSP_PARAMETER_INTERPOLATOR_H_
  31:../../stmlib/dsp/parameter_interpolator.h **** 
  32:../../stmlib/dsp/parameter_interpolator.h **** #include "stmlib/stmlib.h"
  33:../../stmlib/dsp/parameter_interpolator.h **** 
  34:../../stmlib/dsp/parameter_interpolator.h **** namespace stmlib {
  35:../../stmlib/dsp/parameter_interpolator.h **** 
  36:../../stmlib/dsp/parameter_interpolator.h **** class ParameterInterpolator {
  37:../../stmlib/dsp/parameter_interpolator.h ****  public:
  38:../../stmlib/dsp/parameter_interpolator.h ****   ParameterInterpolator() { }
  39:../../stmlib/dsp/parameter_interpolator.h ****   ParameterInterpolator(float* state, float new_value, size_t size) {
  40:../../stmlib/dsp/parameter_interpolator.h ****     Init(state, new_value, size);
  41:../../stmlib/dsp/parameter_interpolator.h ****   }
  42:../../stmlib/dsp/parameter_interpolator.h **** 
  43:../../stmlib/dsp/parameter_interpolator.h ****   ParameterInterpolator(float* state, float new_value, float step) {
  44:../../stmlib/dsp/parameter_interpolator.h ****     state_ = state;
  45:../../stmlib/dsp/parameter_interpolator.h ****     value_ = *state;
  46:../../stmlib/dsp/parameter_interpolator.h ****     increment_ = (new_value - *state) * step;
  47:../../stmlib/dsp/parameter_interpolator.h ****   }
  48:../../stmlib/dsp/parameter_interpolator.h **** 
  49:../../stmlib/dsp/parameter_interpolator.h ****   ~ParameterInterpolator() {
  50:../../stmlib/dsp/parameter_interpolator.h ****     *state_ = value_;
  51:../../stmlib/dsp/parameter_interpolator.h ****   }
  52:../../stmlib/dsp/parameter_interpolator.h ****   
  53:../../stmlib/dsp/parameter_interpolator.h ****   inline void Init(float* state, float new_value, size_t size) {
  54:../../stmlib/dsp/parameter_interpolator.h ****     state_ = state;
  55:../../stmlib/dsp/parameter_interpolator.h ****     value_ = *state;
 1042              		.loc 8 55 14 view .LVU294
 1043 0054 94ED06CA 		vldr.32	s24, [r4, #24]
 1044              	.LBE336:
 1045              	.LBE335:
 1046              	.LBE334:
 1047              		.loc 4 94 49 view .LVU295
 1048 0058 F6EE007A 		vmov.f32	s15, #5.0e-1
  95:dsp/string.cpp **** 
  96:dsp/string.cpp ****     // Linearly interpolate all comb-related CV parameters for each sample.
  97:dsp/string.cpp ****     ParameterInterpolator delay_modulation(&delay_, delay, size);
  98:dsp/string.cpp ****     ParameterInterpolator position_modulation(
  99:dsp/string.cpp ****         &clamped_position_, clamped_position, size);
 100:dsp/string.cpp ****     ParameterInterpolator dispersion_modulation(
 101:dsp/string.cpp ****         &previous_dispersion_, dispersion_, size);
 102:dsp/string.cpp **** 
 103:dsp/string.cpp ****     // For damping/absorption, the interpolation is done in the filter code.
 104:dsp/string.cpp ****     float lf_damping = damping_ * (2.0f - damping_);
 1049              		.loc 4 104 24 view .LVU296
 1050 005c D4ED038A 		vldr.32	s17, [r4, #12]
 1051              	.LBB341:
 1052              	.LBB342:
ARM GAS  /var/folders/hl/qgbwny5j0fd895c2c41bk3tw0000gp/T//cc6AdWFS.s 			page 51


 1053              	.LBB343:
 1054              		.loc 8 55 14 view .LVU297
 1055 0060 D4ED05BA 		vldr.32	s23, [r4, #20]
 1056              	.LBE343:
 1057              	.LBE342:
 1058              	.LBE341:
  86:dsp/string.cpp ****     {
 1059              		.loc 4 86 5 view .LVU298
 1060 0064 F1EE10FA 		vmrs	APSR_nzcv, FPSCR
 105:dsp/string.cpp ****     float rt60 = 0.07f * SemitonesToRatio(lf_damping * 96.0f) * kSampleRate;
 1061              		.loc 4 105 42 view .LVU299
 1062 0068 9FEDA00A 		vldr.32	s0, .L38+12
  94:dsp/string.cpp **** 
 1063              		.loc 4 94 49 view .LVU300
 1064 006c 37EE677A 		vsub.f32	s14, s14, s15
 1065              	.LBB348:
 1066              	.LBB349:
 1067              	.LBB350:
 1068              		.loc 8 55 14 view .LVU301
 1069 0070 D4F81CA0 		ldr	r10, [r4, #28]	@ float
 1070              	.LBE350:
 1071              	.LBE349:
 1072              	.LBE348:
  90:dsp/string.cpp ****         src_ratio  = 1.0f;
 1073              		.loc 4 90 20 view .LVU302
 1074 0074 A4BF     		itt	ge
 1075 0076 C4ED0B9A 		vstrge.32	s19, [r4, #44]
 1076              	.LVL84:
  91:dsp/string.cpp ****     }
 1077              		.loc 4 91 20 view .LVU303
 1078 007a B7EE00AA 		vmovge.f32	s20, #1.0e+0
 1079              	.LVL85:
 1080              	.LBB353:
 1081              	.LBI353:
 1082              		.file 9 "/opt/homebrew/Cellar/arm-none-eabi-gcc/10.3-2021.07/gcc/arm-none-eabi/include/c++/10.3.1/
   1:/opt/homebrew/Cellar/arm-none-eabi-gcc/10.3-2021.07/gcc/arm-none-eabi/include/c++/10.3.1/cmath **** // -*- C++ -*- C forwarding header.
   2:/opt/homebrew/Cellar/arm-none-eabi-gcc/10.3-2021.07/gcc/arm-none-eabi/include/c++/10.3.1/cmath **** 
   3:/opt/homebrew/Cellar/arm-none-eabi-gcc/10.3-2021.07/gcc/arm-none-eabi/include/c++/10.3.1/cmath **** // Copyright (C) 1997-2020 Free Software Foundation, Inc.
   4:/opt/homebrew/Cellar/arm-none-eabi-gcc/10.3-2021.07/gcc/arm-none-eabi/include/c++/10.3.1/cmath **** //
