ARM GAS  /var/folders/hl/qgbwny5j0fd895c2c41bk3tw0000gp/T//ccTuF2qj.s 			page 1


   1              		.cpu cortex-m7
   2              		.eabi_attribute 28, 1
   3              		.eabi_attribute 20, 1
   4              		.eabi_attribute 21, 1
   5              		.eabi_attribute 23, 3
   6              		.eabi_attribute 24, 1
   7              		.eabi_attribute 25, 1
   8              		.eabi_attribute 26, 1
   9              		.eabi_attribute 30, 2
  10              		.eabi_attribute 34, 1
  11              		.eabi_attribute 18, 4
  12              		.file	"stft.cpp"
  13              		.text
  14              	.Ltext0:
  15              		.cfi_sections	.debug_frame
  16              		.section	.text._ZN4STFT5ResetEv,"ax",%progbits
  17              		.align	1
  18              		.p2align 2,,3
  19              		.global	_ZN4STFT5ResetEv
  20              		.arch armv7e-m
  21              		.syntax unified
  22              		.thumb
  23              		.thumb_func
  24              		.fpu fpv5-d16
  26              	_ZN4STFT5ResetEv:
  27              	.LVL0:
  28              	.LFB4866:
  29              		.file 1 "dsp/pvoc/stft.cpp"
   1:dsp/pvoc/stft.cpp **** // Copyright 2014 Emilie Gillet.
   2:dsp/pvoc/stft.cpp **** //
   3:dsp/pvoc/stft.cpp **** // Author: Emilie Gillet (emilie.o.gillet@gmail.com)
   4:dsp/pvoc/stft.cpp **** //
   5:dsp/pvoc/stft.cpp **** // Permission is hereby granted, free of charge, to any person obtaining a copy
   6:dsp/pvoc/stft.cpp **** // of this software and associated documentation files (the "Software"), to deal
   7:dsp/pvoc/stft.cpp **** // in the Software without restriction, including without limitation the rights
   8:dsp/pvoc/stft.cpp **** // to use, copy, modify, merge, publish, distribute, sublicense, and/or sell
   9:dsp/pvoc/stft.cpp **** // copies of the Software, and to permit persons to whom the Software is
  10:dsp/pvoc/stft.cpp **** // furnished to do so, subject to the following conditions:
  11:dsp/pvoc/stft.cpp **** //
  12:dsp/pvoc/stft.cpp **** // The above copyright notice and this permission notice shall be included in
  13:dsp/pvoc/stft.cpp **** // all copies or substantial portions of the Software.
  14:dsp/pvoc/stft.cpp **** //
  15:dsp/pvoc/stft.cpp **** // THE SOFTWARE IS PROVIDED "AS IS", WITHOUT WARRANTY OF ANY KIND, EXPRESS OR
  16:dsp/pvoc/stft.cpp **** // IMPLIED, INCLUDING BUT NOT LIMITED TO THE WARRANTIES OF MERCHANTABILITY,
  17:dsp/pvoc/stft.cpp **** // FITNESS FOR A PARTICULAR PURPOSE AND NONINFRINGEMENT. IN NO EVENT SHALL THE
  18:dsp/pvoc/stft.cpp **** // AUTHORS OR COPYRIGHT HOLDERS BE LIABLE FOR ANY CLAIM, DAMAGES OR OTHER
  19:dsp/pvoc/stft.cpp **** // LIABILITY, WHETHER IN AN ACTION OF CONTRACT, TORT OR OTHERWISE, ARISING FROM,
  20:dsp/pvoc/stft.cpp **** // OUT OF OR IN CONNECTION WITH THE SOFTWARE OR THE USE OR OTHER DEALINGS IN
  21:dsp/pvoc/stft.cpp **** // THE SOFTWARE.
  22:dsp/pvoc/stft.cpp **** //
  23:dsp/pvoc/stft.cpp **** // See http://creativecommons.org/licenses/MIT/ for more information.
  24:dsp/pvoc/stft.cpp **** //
  25:dsp/pvoc/stft.cpp **** // -----------------------------------------------------------------------------
  26:dsp/pvoc/stft.cpp **** //
  27:dsp/pvoc/stft.cpp **** // STFT with overlap-add.
  28:dsp/pvoc/stft.cpp **** 
  29:dsp/pvoc/stft.cpp **** #include "stft.h"
ARM GAS  /var/folders/hl/qgbwny5j0fd895c2c41bk3tw0000gp/T//ccTuF2qj.s 			page 2


  30:dsp/pvoc/stft.cpp **** #include "stmtemp.h"
  31:dsp/pvoc/stft.cpp **** #include <algorithm>
  32:dsp/pvoc/stft.cpp **** 
  33:dsp/pvoc/stft.cpp **** using namespace daisysp;
  34:dsp/pvoc/stft.cpp **** using namespace std;
  35:dsp/pvoc/stft.cpp **** using namespace daisy;
  36:dsp/pvoc/stft.cpp **** 
  37:dsp/pvoc/stft.cpp **** void STFT::Init(FFT*         fft,
  38:dsp/pvoc/stft.cpp ****                 size_t       fft_size,
  39:dsp/pvoc/stft.cpp ****                 size_t       hop_size,
  40:dsp/pvoc/stft.cpp ****                 float*       fft_buffer,
  41:dsp/pvoc/stft.cpp ****                 float*       ifft_buffer,
  42:dsp/pvoc/stft.cpp ****                 const float* window_lut,
  43:dsp/pvoc/stft.cpp ****                 short*       analysis_synthesis_buffer,
  44:dsp/pvoc/stft.cpp ****                 Modifier*    modifier)
  45:dsp/pvoc/stft.cpp **** {
  46:dsp/pvoc/stft.cpp ****     fft_size_       = fft_size;
  47:dsp/pvoc/stft.cpp ****     hop_size_       = hop_size;
  48:dsp/pvoc/stft.cpp ****     fft_num_passes_ = 0;
  49:dsp/pvoc/stft.cpp ****     for(size_t t = fft_size; t > 1; t >>= 1)
  50:dsp/pvoc/stft.cpp ****     {
  51:dsp/pvoc/stft.cpp ****         ++fft_num_passes_;
  52:dsp/pvoc/stft.cpp ****     }
  53:dsp/pvoc/stft.cpp ****     buffer_size_ = fft_size_ + hop_size_;
  54:dsp/pvoc/stft.cpp **** 
  55:dsp/pvoc/stft.cpp ****     fft_ = fft;
  56:dsp/pvoc/stft.cpp **** #ifdef USE_ARM_FFT
  57:dsp/pvoc/stft.cpp ****     arm_rfft_fast_init_f32(fft_, fft_size);
  58:dsp/pvoc/stft.cpp **** #else
  59:dsp/pvoc/stft.cpp ****     fft_->Init();
  60:dsp/pvoc/stft.cpp **** #endif // USE_ARM_FFT
  61:dsp/pvoc/stft.cpp **** 
  62:dsp/pvoc/stft.cpp ****     analysis_  = &analysis_synthesis_buffer[0];
  63:dsp/pvoc/stft.cpp ****     synthesis_ = &analysis_synthesis_buffer[buffer_size_];
  64:dsp/pvoc/stft.cpp **** 
  65:dsp/pvoc/stft.cpp ****     ifft_in_ = fft_in_ = fft_buffer;
  66:dsp/pvoc/stft.cpp ****     ifft_out_ = fft_out_ = ifft_buffer;
  67:dsp/pvoc/stft.cpp **** 
  68:dsp/pvoc/stft.cpp ****     window_        = window_lut;
  69:dsp/pvoc/stft.cpp ****     window_stride_ = LUT_SINE_WINDOW_4096_SIZE / fft_size;
  70:dsp/pvoc/stft.cpp ****     modifier_      = modifier;
  71:dsp/pvoc/stft.cpp **** 
  72:dsp/pvoc/stft.cpp ****     parameters_ = NULL;
  73:dsp/pvoc/stft.cpp **** 
  74:dsp/pvoc/stft.cpp ****     Reset();
  75:dsp/pvoc/stft.cpp **** }
  76:dsp/pvoc/stft.cpp **** 
  77:dsp/pvoc/stft.cpp **** void STFT::Reset()
  78:dsp/pvoc/stft.cpp **** {
  30              		.loc 1 78 1 view -0
  31              		.cfi_startproc
  32              		@ args = 0, pretend = 0, frame = 0
  33              		@ frame_needed = 0, uses_anonymous_args = 0
  79:dsp/pvoc/stft.cpp ****     buffer_ptr_  = 0;
  34              		.loc 1 79 5 view .LVU1
  78:dsp/pvoc/stft.cpp ****     buffer_ptr_  = 0;
  35              		.loc 1 78 1 is_stmt 0 view .LVU2
ARM GAS  /var/folders/hl/qgbwny5j0fd895c2c41bk3tw0000gp/T//ccTuF2qj.s 			page 3


  36 0000 38B5     		push	{r3, r4, r5, lr}
  37              		.cfi_def_cfa_offset 16
  38              		.cfi_offset 3, -16
  39              		.cfi_offset 4, -12
  40              		.cfi_offset 5, -8
  41              		.cfi_offset 14, -4
  80:dsp/pvoc/stft.cpp ****     process_ptr_ = (2 * hop_size_) % buffer_size_;
  42              		.loc 1 80 38 view .LVU3
  43 0002 D0E90335 		ldrd	r3, r5, [r0, #12]
  79:dsp/pvoc/stft.cpp ****     buffer_ptr_  = 0;
  44              		.loc 1 79 18 view .LVU4
  45 0006 0021     		movs	r1, #0
  78:dsp/pvoc/stft.cpp ****     buffer_ptr_  = 0;
  46              		.loc 1 78 1 view .LVU5
  47 0008 0446     		mov	r4, r0
  48              		.loc 1 80 23 view .LVU6
  49 000a 5B00     		lsls	r3, r3, #1
  79:dsp/pvoc/stft.cpp ****     buffer_ptr_  = 0;
  50              		.loc 1 79 18 view .LVU7
  51 000c 4163     		str	r1, [r0, #52]
  52              		.loc 1 80 5 is_stmt 1 view .LVU8
  81:dsp/pvoc/stft.cpp ****     block_size_  = 0;
  53              		.loc 1 81 18 is_stmt 0 view .LVU9
  54 000e C163     		str	r1, [r0, #60]
  80:dsp/pvoc/stft.cpp ****     process_ptr_ = (2 * hop_size_) % buffer_size_;
  55              		.loc 1 80 36 view .LVU10
  56 0010 B3FBF5F0 		udiv	r0, r3, r5
  57              	.LVL1:
  80:dsp/pvoc/stft.cpp ****     process_ptr_ = (2 * hop_size_) % buffer_size_;
  58              		.loc 1 80 36 view .LVU11
  59 0014 05FB1033 		mls	r3, r5, r0, r3
  60              	.LBB234:
  61              	.LBB235:
  62              	.LBB236:
  63              	.LBB237:
  64              		.file 2 "/opt/homebrew/Cellar/arm-none-eabi-gcc/10.3-2021.07/gcc/arm-none-eabi/include/c++/10.3.1/
   1:/opt/homebrew/Cellar/arm-none-eabi-gcc/10.3-2021.07/gcc/arm-none-eabi/include/c++/10.3.1/bits/stl_algobase.h **** // Core algorithmic facilities -*- C++ -*-
   2:/opt/homebrew/Cellar/arm-none-eabi-gcc/10.3-2021.07/gcc/arm-none-eabi/include/c++/10.3.1/bits/stl_algobase.h **** 
   3:/opt/homebrew/Cellar/arm-none-eabi-gcc/10.3-2021.07/gcc/arm-none-eabi/include/c++/10.3.1/bits/stl_algobase.h **** // Copyright (C) 2001-2020 Free Software Foundation, Inc.
   4:/opt/homebrew/Cellar/arm-none-eabi-gcc/10.3-2021.07/gcc/arm-none-eabi/include/c++/10.3.1/bits/stl_algobase.h **** //
   5:/opt/homebrew/Cellar/arm-none-eabi-gcc/10.3-2021.07/gcc/arm-none-eabi/include/c++/10.3.1/bits/stl_algobase.h **** // This file is part of the GNU ISO C++ Library.  This library is free
   6:/opt/homebrew/Cellar/arm-none-eabi-gcc/10.3-2021.07/gcc/arm-none-eabi/include/c++/10.3.1/bits/stl_algobase.h **** // software; you can redistribute it and/or modify it under the
   7:/opt/homebrew/Cellar/arm-none-eabi-gcc/10.3-2021.07/gcc/arm-none-eabi/include/c++/10.3.1/bits/stl_algobase.h **** // terms of the GNU General Public License as published by the
   8:/opt/homebrew/Cellar/arm-none-eabi-gcc/10.3-2021.07/gcc/arm-none-eabi/include/c++/10.3.1/bits/stl_algobase.h **** // Free Software Foundation; either version 3, or (at your option)
   9:/opt/homebrew/Cellar/arm-none-eabi-gcc/10.3-2021.07/gcc/arm-none-eabi/include/c++/10.3.1/bits/stl_algobase.h **** // any later version.
  10:/opt/homebrew/Cellar/arm-none-eabi-gcc/10.3-2021.07/gcc/arm-none-eabi/include/c++/10.3.1/bits/stl_algobase.h **** 
  11:/opt/homebrew/Cellar/arm-none-eabi-gcc/10.3-2021.07/gcc/arm-none-eabi/include/c++/10.3.1/bits/stl_algobase.h **** // This library is distributed in the hope that it will be useful,
  12:/opt/homebrew/Cellar/arm-none-eabi-gcc/10.3-2021.07/gcc/arm-none-eabi/include/c++/10.3.1/bits/stl_algobase.h **** // but WITHOUT ANY WARRANTY; without even the implied warranty of
  13:/opt/homebrew/Cellar/arm-none-eabi-gcc/10.3-2021.07/gcc/arm-none-eabi/include/c++/10.3.1/bits/stl_algobase.h **** // MERCHANTABILITY or FITNESS FOR A PARTICULAR PURPOSE.  See the
  14:/opt/homebrew/Cellar/arm-none-eabi-gcc/10.3-2021.07/gcc/arm-none-eabi/include/c++/10.3.1/bits/stl_algobase.h **** // GNU General Public License for more details.
  15:/opt/homebrew/Cellar/arm-none-eabi-gcc/10.3-2021.07/gcc/arm-none-eabi/include/c++/10.3.1/bits/stl_algobase.h **** 
  16:/opt/homebrew/Cellar/arm-none-eabi-gcc/10.3-2021.07/gcc/arm-none-eabi/include/c++/10.3.1/bits/stl_algobase.h **** // Under Section 7 of GPL version 3, you are granted additional
  17:/opt/homebrew/Cellar/arm-none-eabi-gcc/10.3-2021.07/gcc/arm-none-eabi/include/c++/10.3.1/bits/stl_algobase.h **** // permissions described in the GCC Runtime Library Exception, version
  18:/opt/homebrew/Cellar/arm-none-eabi-gcc/10.3-2021.07/gcc/arm-none-eabi/include/c++/10.3.1/bits/stl_algobase.h **** // 3.1, as published by the Free Software Foundation.
  19:/opt/homebrew/Cellar/arm-none-eabi-gcc/10.3-2021.07/gcc/arm-none-eabi/include/c++/10.3.1/bits/stl_algobase.h **** 
  20:/opt/homebrew/Cellar/arm-none-eabi-gcc/10.3-2021.07/gcc/arm-none-eabi/include/c++/10.3.1/bits/stl_algobase.h **** // You should have received a copy of the GNU General Public License and
  21:/opt/homebrew/Cellar/arm-none-eabi-gcc/10.3-2021.07/gcc/arm-none-eabi/include/c++/10.3.1/bits/stl_algobase.h **** // a copy of the GCC Runtime Library Exception along with this program;
ARM GAS  /var/folders/hl/qgbwny5j0fd895c2c41bk3tw0000gp/T//ccTuF2qj.s 			page 4


  22:/opt/homebrew/Cellar/arm-none-eabi-gcc/10.3-2021.07/gcc/arm-none-eabi/include/c++/10.3.1/bits/stl_algobase.h **** // see the files COPYING3 and COPYING.RUNTIME respectively.  If not, see
  23:/opt/homebrew/Cellar/arm-none-eabi-gcc/10.3-2021.07/gcc/arm-none-eabi/include/c++/10.3.1/bits/stl_algobase.h **** // <http://www.gnu.org/licenses/>.
  24:/opt/homebrew/Cellar/arm-none-eabi-gcc/10.3-2021.07/gcc/arm-none-eabi/include/c++/10.3.1/bits/stl_algobase.h **** 
  25:/opt/homebrew/Cellar/arm-none-eabi-gcc/10.3-2021.07/gcc/arm-none-eabi/include/c++/10.3.1/bits/stl_algobase.h **** /*
  26:/opt/homebrew/Cellar/arm-none-eabi-gcc/10.3-2021.07/gcc/arm-none-eabi/include/c++/10.3.1/bits/stl_algobase.h ****  *
  27:/opt/homebrew/Cellar/arm-none-eabi-gcc/10.3-2021.07/gcc/arm-none-eabi/include/c++/10.3.1/bits/stl_algobase.h ****  * Copyright (c) 1994
  28:/opt/homebrew/Cellar/arm-none-eabi-gcc/10.3-2021.07/gcc/arm-none-eabi/include/c++/10.3.1/bits/stl_algobase.h ****  * Hewlett-Packard Company
  29:/opt/homebrew/Cellar/arm-none-eabi-gcc/10.3-2021.07/gcc/arm-none-eabi/include/c++/10.3.1/bits/stl_algobase.h ****  *
  30:/opt/homebrew/Cellar/arm-none-eabi-gcc/10.3-2021.07/gcc/arm-none-eabi/include/c++/10.3.1/bits/stl_algobase.h ****  * Permission to use, copy, modify, distribute and sell this software
  31:/opt/homebrew/Cellar/arm-none-eabi-gcc/10.3-2021.07/gcc/arm-none-eabi/include/c++/10.3.1/bits/stl_algobase.h ****  * and its documentation for any purpose is hereby granted without fee,
  32:/opt/homebrew/Cellar/arm-none-eabi-gcc/10.3-2021.07/gcc/arm-none-eabi/include/c++/10.3.1/bits/stl_algobase.h ****  * provided that the above copyright notice appear in all copies and
  33:/opt/homebrew/Cellar/arm-none-eabi-gcc/10.3-2021.07/gcc/arm-none-eabi/include/c++/10.3.1/bits/stl_algobase.h ****  * that both that copyright notice and this permission notice appear
  34:/opt/homebrew/Cellar/arm-none-eabi-gcc/10.3-2021.07/gcc/arm-none-eabi/include/c++/10.3.1/bits/stl_algobase.h ****  * in supporting documentation.  Hewlett-Packard Company makes no
  35:/opt/homebrew/Cellar/arm-none-eabi-gcc/10.3-2021.07/gcc/arm-none-eabi/include/c++/10.3.1/bits/stl_algobase.h ****  * representations about the suitability of this software for any
  36:/opt/homebrew/Cellar/arm-none-eabi-gcc/10.3-2021.07/gcc/arm-none-eabi/include/c++/10.3.1/bits/stl_algobase.h ****  * purpose.  It is provided "as is" without express or implied warranty.
  37:/opt/homebrew/Cellar/arm-none-eabi-gcc/10.3-2021.07/gcc/arm-none-eabi/include/c++/10.3.1/bits/stl_algobase.h ****  *
  38:/opt/homebrew/Cellar/arm-none-eabi-gcc/10.3-2021.07/gcc/arm-none-eabi/include/c++/10.3.1/bits/stl_algobase.h ****  *
  39:/opt/homebrew/Cellar/arm-none-eabi-gcc/10.3-2021.07/gcc/arm-none-eabi/include/c++/10.3.1/bits/stl_algobase.h ****  * Copyright (c) 1996-1998
  40:/opt/homebrew/Cellar/arm-none-eabi-gcc/10.3-2021.07/gcc/arm-none-eabi/include/c++/10.3.1/bits/stl_algobase.h ****  * Silicon Graphics Computer Systems, Inc.
  41:/opt/homebrew/Cellar/arm-none-eabi-gcc/10.3-2021.07/gcc/arm-none-eabi/include/c++/10.3.1/bits/stl_algobase.h ****  *
  42:/opt/homebrew/Cellar/arm-none-eabi-gcc/10.3-2021.07/gcc/arm-none-eabi/include/c++/10.3.1/bits/stl_algobase.h ****  * Permission to use, copy, modify, distribute and sell this software
  43:/opt/homebrew/Cellar/arm-none-eabi-gcc/10.3-2021.07/gcc/arm-none-eabi/include/c++/10.3.1/bits/stl_algobase.h ****  * and its documentation for any purpose is hereby granted without fee,
  44:/opt/homebrew/Cellar/arm-none-eabi-gcc/10.3-2021.07/gcc/arm-none-eabi/include/c++/10.3.1/bits/stl_algobase.h ****  * provided that the above copyright notice appear in all copies and
  45:/opt/homebrew/Cellar/arm-none-eabi-gcc/10.3-2021.07/gcc/arm-none-eabi/include/c++/10.3.1/bits/stl_algobase.h ****  * that both that copyright notice and this permission notice appear
  46:/opt/homebrew/Cellar/arm-none-eabi-gcc/10.3-2021.07/gcc/arm-none-eabi/include/c++/10.3.1/bits/stl_algobase.h ****  * in supporting documentation.  Silicon Graphics makes no
  47:/opt/homebrew/Cellar/arm-none-eabi-gcc/10.3-2021.07/gcc/arm-none-eabi/include/c++/10.3.1/bits/stl_algobase.h ****  * representations about the suitability of this software for any
  48:/opt/homebrew/Cellar/arm-none-eabi-gcc/10.3-2021.07/gcc/arm-none-eabi/include/c++/10.3.1/bits/stl_algobase.h ****  * purpose.  It is provided "as is" without express or implied warranty.
  49:/opt/homebrew/Cellar/arm-none-eabi-gcc/10.3-2021.07/gcc/arm-none-eabi/include/c++/10.3.1/bits/stl_algobase.h ****  */
  50:/opt/homebrew/Cellar/arm-none-eabi-gcc/10.3-2021.07/gcc/arm-none-eabi/include/c++/10.3.1/bits/stl_algobase.h **** 
  51:/opt/homebrew/Cellar/arm-none-eabi-gcc/10.3-2021.07/gcc/arm-none-eabi/include/c++/10.3.1/bits/stl_algobase.h **** /** @file bits/stl_algobase.h
  52:/opt/homebrew/Cellar/arm-none-eabi-gcc/10.3-2021.07/gcc/arm-none-eabi/include/c++/10.3.1/bits/stl_algobase.h ****  *  This is an internal header file, included by other library headers.
  53:/opt/homebrew/Cellar/arm-none-eabi-gcc/10.3-2021.07/gcc/arm-none-eabi/include/c++/10.3.1/bits/stl_algobase.h ****  *  Do not attempt to use it directly. @headername{algorithm}
  54:/opt/homebrew/Cellar/arm-none-eabi-gcc/10.3-2021.07/gcc/arm-none-eabi/include/c++/10.3.1/bits/stl_algobase.h ****  */
  55:/opt/homebrew/Cellar/arm-none-eabi-gcc/10.3-2021.07/gcc/arm-none-eabi/include/c++/10.3.1/bits/stl_algobase.h **** 
  56:/opt/homebrew/Cellar/arm-none-eabi-gcc/10.3-2021.07/gcc/arm-none-eabi/include/c++/10.3.1/bits/stl_algobase.h **** #ifndef _STL_ALGOBASE_H
  57:/opt/homebrew/Cellar/arm-none-eabi-gcc/10.3-2021.07/gcc/arm-none-eabi/include/c++/10.3.1/bits/stl_algobase.h **** #define _STL_ALGOBASE_H 1
  58:/opt/homebrew/Cellar/arm-none-eabi-gcc/10.3-2021.07/gcc/arm-none-eabi/include/c++/10.3.1/bits/stl_algobase.h **** 
  59:/opt/homebrew/Cellar/arm-none-eabi-gcc/10.3-2021.07/gcc/arm-none-eabi/include/c++/10.3.1/bits/stl_algobase.h **** #include <bits/c++config.h>
  60:/opt/homebrew/Cellar/arm-none-eabi-gcc/10.3-2021.07/gcc/arm-none-eabi/include/c++/10.3.1/bits/stl_algobase.h **** #include <bits/functexcept.h>
  61:/opt/homebrew/Cellar/arm-none-eabi-gcc/10.3-2021.07/gcc/arm-none-eabi/include/c++/10.3.1/bits/stl_algobase.h **** #include <bits/cpp_type_traits.h>
  62:/opt/homebrew/Cellar/arm-none-eabi-gcc/10.3-2021.07/gcc/arm-none-eabi/include/c++/10.3.1/bits/stl_algobase.h **** #include <ext/type_traits.h>
  63:/opt/homebrew/Cellar/arm-none-eabi-gcc/10.3-2021.07/gcc/arm-none-eabi/include/c++/10.3.1/bits/stl_algobase.h **** #include <ext/numeric_traits.h>
  64:/opt/homebrew/Cellar/arm-none-eabi-gcc/10.3-2021.07/gcc/arm-none-eabi/include/c++/10.3.1/bits/stl_algobase.h **** #include <bits/stl_pair.h>
  65:/opt/homebrew/Cellar/arm-none-eabi-gcc/10.3-2021.07/gcc/arm-none-eabi/include/c++/10.3.1/bits/stl_algobase.h **** #include <bits/stl_iterator_base_types.h>
  66:/opt/homebrew/Cellar/arm-none-eabi-gcc/10.3-2021.07/gcc/arm-none-eabi/include/c++/10.3.1/bits/stl_algobase.h **** #include <bits/stl_iterator_base_funcs.h>
  67:/opt/homebrew/Cellar/arm-none-eabi-gcc/10.3-2021.07/gcc/arm-none-eabi/include/c++/10.3.1/bits/stl_algobase.h **** #include <bits/stl_iterator.h>
  68:/opt/homebrew/Cellar/arm-none-eabi-gcc/10.3-2021.07/gcc/arm-none-eabi/include/c++/10.3.1/bits/stl_algobase.h **** #include <bits/concept_check.h>
  69:/opt/homebrew/Cellar/arm-none-eabi-gcc/10.3-2021.07/gcc/arm-none-eabi/include/c++/10.3.1/bits/stl_algobase.h **** #include <debug/debug.h>
  70:/opt/homebrew/Cellar/arm-none-eabi-gcc/10.3-2021.07/gcc/arm-none-eabi/include/c++/10.3.1/bits/stl_algobase.h **** #include <bits/move.h> // For std::swap
  71:/opt/homebrew/Cellar/arm-none-eabi-gcc/10.3-2021.07/gcc/arm-none-eabi/include/c++/10.3.1/bits/stl_algobase.h **** #include <bits/predefined_ops.h>
  72:/opt/homebrew/Cellar/arm-none-eabi-gcc/10.3-2021.07/gcc/arm-none-eabi/include/c++/10.3.1/bits/stl_algobase.h **** #if __cplusplus >= 201103L
  73:/opt/homebrew/Cellar/arm-none-eabi-gcc/10.3-2021.07/gcc/arm-none-eabi/include/c++/10.3.1/bits/stl_algobase.h **** # include <type_traits>
  74:/opt/homebrew/Cellar/arm-none-eabi-gcc/10.3-2021.07/gcc/arm-none-eabi/include/c++/10.3.1/bits/stl_algobase.h **** #endif
  75:/opt/homebrew/Cellar/arm-none-eabi-gcc/10.3-2021.07/gcc/arm-none-eabi/include/c++/10.3.1/bits/stl_algobase.h **** #if __cplusplus > 201703L
  76:/opt/homebrew/Cellar/arm-none-eabi-gcc/10.3-2021.07/gcc/arm-none-eabi/include/c++/10.3.1/bits/stl_algobase.h **** # include <compare>
  77:/opt/homebrew/Cellar/arm-none-eabi-gcc/10.3-2021.07/gcc/arm-none-eabi/include/c++/10.3.1/bits/stl_algobase.h **** #endif
  78:/opt/homebrew/Cellar/arm-none-eabi-gcc/10.3-2021.07/gcc/arm-none-eabi/include/c++/10.3.1/bits/stl_algobase.h **** 
ARM GAS  /var/folders/hl/qgbwny5j0fd895c2c41bk3tw0000gp/T//ccTuF2qj.s 			page 5


  79:/opt/homebrew/Cellar/arm-none-eabi-gcc/10.3-2021.07/gcc/arm-none-eabi/include/c++/10.3.1/bits/stl_algobase.h **** namespace std _GLIBCXX_VISIBILITY(default)
  80:/opt/homebrew/Cellar/arm-none-eabi-gcc/10.3-2021.07/gcc/arm-none-eabi/include/c++/10.3.1/bits/stl_algobase.h **** {
  81:/opt/homebrew/Cellar/arm-none-eabi-gcc/10.3-2021.07/gcc/arm-none-eabi/include/c++/10.3.1/bits/stl_algobase.h **** _GLIBCXX_BEGIN_NAMESPACE_VERSION
  82:/opt/homebrew/Cellar/arm-none-eabi-gcc/10.3-2021.07/gcc/arm-none-eabi/include/c++/10.3.1/bits/stl_algobase.h **** 
  83:/opt/homebrew/Cellar/arm-none-eabi-gcc/10.3-2021.07/gcc/arm-none-eabi/include/c++/10.3.1/bits/stl_algobase.h ****   /*
  84:/opt/homebrew/Cellar/arm-none-eabi-gcc/10.3-2021.07/gcc/arm-none-eabi/include/c++/10.3.1/bits/stl_algobase.h ****    * A constexpr wrapper for __builtin_memcmp.
  85:/opt/homebrew/Cellar/arm-none-eabi-gcc/10.3-2021.07/gcc/arm-none-eabi/include/c++/10.3.1/bits/stl_algobase.h ****    * @param __num The number of elements of type _Tp (not bytes).
  86:/opt/homebrew/Cellar/arm-none-eabi-gcc/10.3-2021.07/gcc/arm-none-eabi/include/c++/10.3.1/bits/stl_algobase.h ****    */
  87:/opt/homebrew/Cellar/arm-none-eabi-gcc/10.3-2021.07/gcc/arm-none-eabi/include/c++/10.3.1/bits/stl_algobase.h ****   template<typename _Tp, typename _Up>
  88:/opt/homebrew/Cellar/arm-none-eabi-gcc/10.3-2021.07/gcc/arm-none-eabi/include/c++/10.3.1/bits/stl_algobase.h ****     _GLIBCXX14_CONSTEXPR
  89:/opt/homebrew/Cellar/arm-none-eabi-gcc/10.3-2021.07/gcc/arm-none-eabi/include/c++/10.3.1/bits/stl_algobase.h ****     inline int
  90:/opt/homebrew/Cellar/arm-none-eabi-gcc/10.3-2021.07/gcc/arm-none-eabi/include/c++/10.3.1/bits/stl_algobase.h ****     __memcmp(const _Tp* __first1, const _Up* __first2, size_t __num)
  91:/opt/homebrew/Cellar/arm-none-eabi-gcc/10.3-2021.07/gcc/arm-none-eabi/include/c++/10.3.1/bits/stl_algobase.h ****     {
  92:/opt/homebrew/Cellar/arm-none-eabi-gcc/10.3-2021.07/gcc/arm-none-eabi/include/c++/10.3.1/bits/stl_algobase.h **** #if __cplusplus >= 201103L
  93:/opt/homebrew/Cellar/arm-none-eabi-gcc/10.3-2021.07/gcc/arm-none-eabi/include/c++/10.3.1/bits/stl_algobase.h ****       static_assert(sizeof(_Tp) == sizeof(_Up), "can be compared with memcmp");
  94:/opt/homebrew/Cellar/arm-none-eabi-gcc/10.3-2021.07/gcc/arm-none-eabi/include/c++/10.3.1/bits/stl_algobase.h **** #endif
  95:/opt/homebrew/Cellar/arm-none-eabi-gcc/10.3-2021.07/gcc/arm-none-eabi/include/c++/10.3.1/bits/stl_algobase.h **** #ifdef __cpp_lib_is_constant_evaluated
  96:/opt/homebrew/Cellar/arm-none-eabi-gcc/10.3-2021.07/gcc/arm-none-eabi/include/c++/10.3.1/bits/stl_algobase.h ****       if (std::is_constant_evaluated())
  97:/opt/homebrew/Cellar/arm-none-eabi-gcc/10.3-2021.07/gcc/arm-none-eabi/include/c++/10.3.1/bits/stl_algobase.h **** 	{
  98:/opt/homebrew/Cellar/arm-none-eabi-gcc/10.3-2021.07/gcc/arm-none-eabi/include/c++/10.3.1/bits/stl_algobase.h **** 	  for(; __num > 0; ++__first1, ++__first2, --__num)
  99:/opt/homebrew/Cellar/arm-none-eabi-gcc/10.3-2021.07/gcc/arm-none-eabi/include/c++/10.3.1/bits/stl_algobase.h **** 	    if (*__first1 != *__first2)
 100:/opt/homebrew/Cellar/arm-none-eabi-gcc/10.3-2021.07/gcc/arm-none-eabi/include/c++/10.3.1/bits/stl_algobase.h **** 	      return *__first1 < *__first2 ? -1 : 1;
 101:/opt/homebrew/Cellar/arm-none-eabi-gcc/10.3-2021.07/gcc/arm-none-eabi/include/c++/10.3.1/bits/stl_algobase.h **** 	  return 0;
 102:/opt/homebrew/Cellar/arm-none-eabi-gcc/10.3-2021.07/gcc/arm-none-eabi/include/c++/10.3.1/bits/stl_algobase.h **** 	}
 103:/opt/homebrew/Cellar/arm-none-eabi-gcc/10.3-2021.07/gcc/arm-none-eabi/include/c++/10.3.1/bits/stl_algobase.h ****       else
 104:/opt/homebrew/Cellar/arm-none-eabi-gcc/10.3-2021.07/gcc/arm-none-eabi/include/c++/10.3.1/bits/stl_algobase.h **** #endif
 105:/opt/homebrew/Cellar/arm-none-eabi-gcc/10.3-2021.07/gcc/arm-none-eabi/include/c++/10.3.1/bits/stl_algobase.h **** 	return __builtin_memcmp(__first1, __first2, sizeof(_Tp) * __num);
 106:/opt/homebrew/Cellar/arm-none-eabi-gcc/10.3-2021.07/gcc/arm-none-eabi/include/c++/10.3.1/bits/stl_algobase.h ****     }
 107:/opt/homebrew/Cellar/arm-none-eabi-gcc/10.3-2021.07/gcc/arm-none-eabi/include/c++/10.3.1/bits/stl_algobase.h **** 
 108:/opt/homebrew/Cellar/arm-none-eabi-gcc/10.3-2021.07/gcc/arm-none-eabi/include/c++/10.3.1/bits/stl_algobase.h **** #if __cplusplus < 201103L
 109:/opt/homebrew/Cellar/arm-none-eabi-gcc/10.3-2021.07/gcc/arm-none-eabi/include/c++/10.3.1/bits/stl_algobase.h ****   // See http://gcc.gnu.org/ml/libstdc++/2004-08/msg00167.html: in a
 110:/opt/homebrew/Cellar/arm-none-eabi-gcc/10.3-2021.07/gcc/arm-none-eabi/include/c++/10.3.1/bits/stl_algobase.h ****   // nutshell, we are partially implementing the resolution of DR 187,
 111:/opt/homebrew/Cellar/arm-none-eabi-gcc/10.3-2021.07/gcc/arm-none-eabi/include/c++/10.3.1/bits/stl_algobase.h ****   // when it's safe, i.e., the value_types are equal.
 112:/opt/homebrew/Cellar/arm-none-eabi-gcc/10.3-2021.07/gcc/arm-none-eabi/include/c++/10.3.1/bits/stl_algobase.h ****   template<bool _BoolType>
 113:/opt/homebrew/Cellar/arm-none-eabi-gcc/10.3-2021.07/gcc/arm-none-eabi/include/c++/10.3.1/bits/stl_algobase.h ****     struct __iter_swap
 114:/opt/homebrew/Cellar/arm-none-eabi-gcc/10.3-2021.07/gcc/arm-none-eabi/include/c++/10.3.1/bits/stl_algobase.h ****     {
 115:/opt/homebrew/Cellar/arm-none-eabi-gcc/10.3-2021.07/gcc/arm-none-eabi/include/c++/10.3.1/bits/stl_algobase.h ****       template<typename _ForwardIterator1, typename _ForwardIterator2>
 116:/opt/homebrew/Cellar/arm-none-eabi-gcc/10.3-2021.07/gcc/arm-none-eabi/include/c++/10.3.1/bits/stl_algobase.h **** 	static void
 117:/opt/homebrew/Cellar/arm-none-eabi-gcc/10.3-2021.07/gcc/arm-none-eabi/include/c++/10.3.1/bits/stl_algobase.h **** 	iter_swap(_ForwardIterator1 __a, _ForwardIterator2 __b)
 118:/opt/homebrew/Cellar/arm-none-eabi-gcc/10.3-2021.07/gcc/arm-none-eabi/include/c++/10.3.1/bits/stl_algobase.h **** 	{
 119:/opt/homebrew/Cellar/arm-none-eabi-gcc/10.3-2021.07/gcc/arm-none-eabi/include/c++/10.3.1/bits/stl_algobase.h **** 	  typedef typename iterator_traits<_ForwardIterator1>::value_type
 120:/opt/homebrew/Cellar/arm-none-eabi-gcc/10.3-2021.07/gcc/arm-none-eabi/include/c++/10.3.1/bits/stl_algobase.h **** 	    _ValueType1;
 121:/opt/homebrew/Cellar/arm-none-eabi-gcc/10.3-2021.07/gcc/arm-none-eabi/include/c++/10.3.1/bits/stl_algobase.h **** 	  _ValueType1 __tmp = *__a;
 122:/opt/homebrew/Cellar/arm-none-eabi-gcc/10.3-2021.07/gcc/arm-none-eabi/include/c++/10.3.1/bits/stl_algobase.h **** 	  *__a = *__b;
 123:/opt/homebrew/Cellar/arm-none-eabi-gcc/10.3-2021.07/gcc/arm-none-eabi/include/c++/10.3.1/bits/stl_algobase.h **** 	  *__b = __tmp;
 124:/opt/homebrew/Cellar/arm-none-eabi-gcc/10.3-2021.07/gcc/arm-none-eabi/include/c++/10.3.1/bits/stl_algobase.h **** 	}
 125:/opt/homebrew/Cellar/arm-none-eabi-gcc/10.3-2021.07/gcc/arm-none-eabi/include/c++/10.3.1/bits/stl_algobase.h ****     };
 126:/opt/homebrew/Cellar/arm-none-eabi-gcc/10.3-2021.07/gcc/arm-none-eabi/include/c++/10.3.1/bits/stl_algobase.h **** 
 127:/opt/homebrew/Cellar/arm-none-eabi-gcc/10.3-2021.07/gcc/arm-none-eabi/include/c++/10.3.1/bits/stl_algobase.h ****   template<>
 128:/opt/homebrew/Cellar/arm-none-eabi-gcc/10.3-2021.07/gcc/arm-none-eabi/include/c++/10.3.1/bits/stl_algobase.h ****     struct __iter_swap<true>
 129:/opt/homebrew/Cellar/arm-none-eabi-gcc/10.3-2021.07/gcc/arm-none-eabi/include/c++/10.3.1/bits/stl_algobase.h ****     {
 130:/opt/homebrew/Cellar/arm-none-eabi-gcc/10.3-2021.07/gcc/arm-none-eabi/include/c++/10.3.1/bits/stl_algobase.h ****       template<typename _ForwardIterator1, typename _ForwardIterator2>
 131:/opt/homebrew/Cellar/arm-none-eabi-gcc/10.3-2021.07/gcc/arm-none-eabi/include/c++/10.3.1/bits/stl_algobase.h **** 	static void
 132:/opt/homebrew/Cellar/arm-none-eabi-gcc/10.3-2021.07/gcc/arm-none-eabi/include/c++/10.3.1/bits/stl_algobase.h **** 	iter_swap(_ForwardIterator1 __a, _ForwardIterator2 __b)
 133:/opt/homebrew/Cellar/arm-none-eabi-gcc/10.3-2021.07/gcc/arm-none-eabi/include/c++/10.3.1/bits/stl_algobase.h **** 	{
 134:/opt/homebrew/Cellar/arm-none-eabi-gcc/10.3-2021.07/gcc/arm-none-eabi/include/c++/10.3.1/bits/stl_algobase.h **** 	  swap(*__a, *__b);
 135:/opt/homebrew/Cellar/arm-none-eabi-gcc/10.3-2021.07/gcc/arm-none-eabi/include/c++/10.3.1/bits/stl_algobase.h **** 	}
ARM GAS  /var/folders/hl/qgbwny5j0fd895c2c41bk3tw0000gp/T//ccTuF2qj.s 			page 6


 136:/opt/homebrew/Cellar/arm-none-eabi-gcc/10.3-2021.07/gcc/arm-none-eabi/include/c++/10.3.1/bits/stl_algobase.h ****     };
 137:/opt/homebrew/Cellar/arm-none-eabi-gcc/10.3-2021.07/gcc/arm-none-eabi/include/c++/10.3.1/bits/stl_algobase.h **** #endif // C++03
 138:/opt/homebrew/Cellar/arm-none-eabi-gcc/10.3-2021.07/gcc/arm-none-eabi/include/c++/10.3.1/bits/stl_algobase.h **** 
 139:/opt/homebrew/Cellar/arm-none-eabi-gcc/10.3-2021.07/gcc/arm-none-eabi/include/c++/10.3.1/bits/stl_algobase.h ****   /**
 140:/opt/homebrew/Cellar/arm-none-eabi-gcc/10.3-2021.07/gcc/arm-none-eabi/include/c++/10.3.1/bits/stl_algobase.h ****    *  @brief Swaps the contents of two iterators.
 141:/opt/homebrew/Cellar/arm-none-eabi-gcc/10.3-2021.07/gcc/arm-none-eabi/include/c++/10.3.1/bits/stl_algobase.h ****    *  @ingroup mutating_algorithms
 142:/opt/homebrew/Cellar/arm-none-eabi-gcc/10.3-2021.07/gcc/arm-none-eabi/include/c++/10.3.1/bits/stl_algobase.h ****    *  @param  __a  An iterator.
 143:/opt/homebrew/Cellar/arm-none-eabi-gcc/10.3-2021.07/gcc/arm-none-eabi/include/c++/10.3.1/bits/stl_algobase.h ****    *  @param  __b  Another iterator.
 144:/opt/homebrew/Cellar/arm-none-eabi-gcc/10.3-2021.07/gcc/arm-none-eabi/include/c++/10.3.1/bits/stl_algobase.h ****    *  @return   Nothing.
 145:/opt/homebrew/Cellar/arm-none-eabi-gcc/10.3-2021.07/gcc/arm-none-eabi/include/c++/10.3.1/bits/stl_algobase.h ****    *
 146:/opt/homebrew/Cellar/arm-none-eabi-gcc/10.3-2021.07/gcc/arm-none-eabi/include/c++/10.3.1/bits/stl_algobase.h ****    *  This function swaps the values pointed to by two iterators, not the
 147:/opt/homebrew/Cellar/arm-none-eabi-gcc/10.3-2021.07/gcc/arm-none-eabi/include/c++/10.3.1/bits/stl_algobase.h ****    *  iterators themselves.
 148:/opt/homebrew/Cellar/arm-none-eabi-gcc/10.3-2021.07/gcc/arm-none-eabi/include/c++/10.3.1/bits/stl_algobase.h ****   */
 149:/opt/homebrew/Cellar/arm-none-eabi-gcc/10.3-2021.07/gcc/arm-none-eabi/include/c++/10.3.1/bits/stl_algobase.h ****   template<typename _ForwardIterator1, typename _ForwardIterator2>
 150:/opt/homebrew/Cellar/arm-none-eabi-gcc/10.3-2021.07/gcc/arm-none-eabi/include/c++/10.3.1/bits/stl_algobase.h ****     _GLIBCXX20_CONSTEXPR
 151:/opt/homebrew/Cellar/arm-none-eabi-gcc/10.3-2021.07/gcc/arm-none-eabi/include/c++/10.3.1/bits/stl_algobase.h ****     inline void
 152:/opt/homebrew/Cellar/arm-none-eabi-gcc/10.3-2021.07/gcc/arm-none-eabi/include/c++/10.3.1/bits/stl_algobase.h ****     iter_swap(_ForwardIterator1 __a, _ForwardIterator2 __b)
 153:/opt/homebrew/Cellar/arm-none-eabi-gcc/10.3-2021.07/gcc/arm-none-eabi/include/c++/10.3.1/bits/stl_algobase.h ****     {
 154:/opt/homebrew/Cellar/arm-none-eabi-gcc/10.3-2021.07/gcc/arm-none-eabi/include/c++/10.3.1/bits/stl_algobase.h ****       // concept requirements
 155:/opt/homebrew/Cellar/arm-none-eabi-gcc/10.3-2021.07/gcc/arm-none-eabi/include/c++/10.3.1/bits/stl_algobase.h ****       __glibcxx_function_requires(_Mutable_ForwardIteratorConcept<
 156:/opt/homebrew/Cellar/arm-none-eabi-gcc/10.3-2021.07/gcc/arm-none-eabi/include/c++/10.3.1/bits/stl_algobase.h **** 				  _ForwardIterator1>)
 157:/opt/homebrew/Cellar/arm-none-eabi-gcc/10.3-2021.07/gcc/arm-none-eabi/include/c++/10.3.1/bits/stl_algobase.h ****       __glibcxx_function_requires(_Mutable_ForwardIteratorConcept<
 158:/opt/homebrew/Cellar/arm-none-eabi-gcc/10.3-2021.07/gcc/arm-none-eabi/include/c++/10.3.1/bits/stl_algobase.h **** 				  _ForwardIterator2>)
 159:/opt/homebrew/Cellar/arm-none-eabi-gcc/10.3-2021.07/gcc/arm-none-eabi/include/c++/10.3.1/bits/stl_algobase.h **** 
 160:/opt/homebrew/Cellar/arm-none-eabi-gcc/10.3-2021.07/gcc/arm-none-eabi/include/c++/10.3.1/bits/stl_algobase.h **** #if __cplusplus < 201103L
 161:/opt/homebrew/Cellar/arm-none-eabi-gcc/10.3-2021.07/gcc/arm-none-eabi/include/c++/10.3.1/bits/stl_algobase.h ****       typedef typename iterator_traits<_ForwardIterator1>::value_type
 162:/opt/homebrew/Cellar/arm-none-eabi-gcc/10.3-2021.07/gcc/arm-none-eabi/include/c++/10.3.1/bits/stl_algobase.h **** 	_ValueType1;
 163:/opt/homebrew/Cellar/arm-none-eabi-gcc/10.3-2021.07/gcc/arm-none-eabi/include/c++/10.3.1/bits/stl_algobase.h ****       typedef typename iterator_traits<_ForwardIterator2>::value_type
 164:/opt/homebrew/Cellar/arm-none-eabi-gcc/10.3-2021.07/gcc/arm-none-eabi/include/c++/10.3.1/bits/stl_algobase.h **** 	_ValueType2;
 165:/opt/homebrew/Cellar/arm-none-eabi-gcc/10.3-2021.07/gcc/arm-none-eabi/include/c++/10.3.1/bits/stl_algobase.h **** 
 166:/opt/homebrew/Cellar/arm-none-eabi-gcc/10.3-2021.07/gcc/arm-none-eabi/include/c++/10.3.1/bits/stl_algobase.h ****       __glibcxx_function_requires(_ConvertibleConcept<_ValueType1,
 167:/opt/homebrew/Cellar/arm-none-eabi-gcc/10.3-2021.07/gcc/arm-none-eabi/include/c++/10.3.1/bits/stl_algobase.h **** 				  _ValueType2>)
 168:/opt/homebrew/Cellar/arm-none-eabi-gcc/10.3-2021.07/gcc/arm-none-eabi/include/c++/10.3.1/bits/stl_algobase.h ****       __glibcxx_function_requires(_ConvertibleConcept<_ValueType2,
 169:/opt/homebrew/Cellar/arm-none-eabi-gcc/10.3-2021.07/gcc/arm-none-eabi/include/c++/10.3.1/bits/stl_algobase.h **** 				  _ValueType1>)
 170:/opt/homebrew/Cellar/arm-none-eabi-gcc/10.3-2021.07/gcc/arm-none-eabi/include/c++/10.3.1/bits/stl_algobase.h **** 
 171:/opt/homebrew/Cellar/arm-none-eabi-gcc/10.3-2021.07/gcc/arm-none-eabi/include/c++/10.3.1/bits/stl_algobase.h ****       typedef typename iterator_traits<_ForwardIterator1>::reference
 172:/opt/homebrew/Cellar/arm-none-eabi-gcc/10.3-2021.07/gcc/arm-none-eabi/include/c++/10.3.1/bits/stl_algobase.h **** 	_ReferenceType1;
 173:/opt/homebrew/Cellar/arm-none-eabi-gcc/10.3-2021.07/gcc/arm-none-eabi/include/c++/10.3.1/bits/stl_algobase.h ****       typedef typename iterator_traits<_ForwardIterator2>::reference
 174:/opt/homebrew/Cellar/arm-none-eabi-gcc/10.3-2021.07/gcc/arm-none-eabi/include/c++/10.3.1/bits/stl_algobase.h **** 	_ReferenceType2;
 175:/opt/homebrew/Cellar/arm-none-eabi-gcc/10.3-2021.07/gcc/arm-none-eabi/include/c++/10.3.1/bits/stl_algobase.h ****       std::__iter_swap<__are_same<_ValueType1, _ValueType2>::__value
 176:/opt/homebrew/Cellar/arm-none-eabi-gcc/10.3-2021.07/gcc/arm-none-eabi/include/c++/10.3.1/bits/stl_algobase.h **** 	&& __are_same<_ValueType1&, _ReferenceType1>::__value
 177:/opt/homebrew/Cellar/arm-none-eabi-gcc/10.3-2021.07/gcc/arm-none-eabi/include/c++/10.3.1/bits/stl_algobase.h **** 	&& __are_same<_ValueType2&, _ReferenceType2>::__value>::
 178:/opt/homebrew/Cellar/arm-none-eabi-gcc/10.3-2021.07/gcc/arm-none-eabi/include/c++/10.3.1/bits/stl_algobase.h **** 	iter_swap(__a, __b);
 179:/opt/homebrew/Cellar/arm-none-eabi-gcc/10.3-2021.07/gcc/arm-none-eabi/include/c++/10.3.1/bits/stl_algobase.h **** #else
 180:/opt/homebrew/Cellar/arm-none-eabi-gcc/10.3-2021.07/gcc/arm-none-eabi/include/c++/10.3.1/bits/stl_algobase.h ****       // _GLIBCXX_RESOLVE_LIB_DEFECTS
 181:/opt/homebrew/Cellar/arm-none-eabi-gcc/10.3-2021.07/gcc/arm-none-eabi/include/c++/10.3.1/bits/stl_algobase.h ****       // 187. iter_swap underspecified
 182:/opt/homebrew/Cellar/arm-none-eabi-gcc/10.3-2021.07/gcc/arm-none-eabi/include/c++/10.3.1/bits/stl_algobase.h ****       swap(*__a, *__b);
 183:/opt/homebrew/Cellar/arm-none-eabi-gcc/10.3-2021.07/gcc/arm-none-eabi/include/c++/10.3.1/bits/stl_algobase.h **** #endif
 184:/opt/homebrew/Cellar/arm-none-eabi-gcc/10.3-2021.07/gcc/arm-none-eabi/include/c++/10.3.1/bits/stl_algobase.h ****     }
 185:/opt/homebrew/Cellar/arm-none-eabi-gcc/10.3-2021.07/gcc/arm-none-eabi/include/c++/10.3.1/bits/stl_algobase.h **** 
 186:/opt/homebrew/Cellar/arm-none-eabi-gcc/10.3-2021.07/gcc/arm-none-eabi/include/c++/10.3.1/bits/stl_algobase.h ****   /**
 187:/opt/homebrew/Cellar/arm-none-eabi-gcc/10.3-2021.07/gcc/arm-none-eabi/include/c++/10.3.1/bits/stl_algobase.h ****    *  @brief Swap the elements of two sequences.
 188:/opt/homebrew/Cellar/arm-none-eabi-gcc/10.3-2021.07/gcc/arm-none-eabi/include/c++/10.3.1/bits/stl_algobase.h ****    *  @ingroup mutating_algorithms
 189:/opt/homebrew/Cellar/arm-none-eabi-gcc/10.3-2021.07/gcc/arm-none-eabi/include/c++/10.3.1/bits/stl_algobase.h ****    *  @param  __first1  A forward iterator.
 190:/opt/homebrew/Cellar/arm-none-eabi-gcc/10.3-2021.07/gcc/arm-none-eabi/include/c++/10.3.1/bits/stl_algobase.h ****    *  @param  __last1   A forward iterator.
 191:/opt/homebrew/Cellar/arm-none-eabi-gcc/10.3-2021.07/gcc/arm-none-eabi/include/c++/10.3.1/bits/stl_algobase.h ****    *  @param  __first2  A forward iterator.
 192:/opt/homebrew/Cellar/arm-none-eabi-gcc/10.3-2021.07/gcc/arm-none-eabi/include/c++/10.3.1/bits/stl_algobase.h ****    *  @return   An iterator equal to @p first2+(last1-first1).
ARM GAS  /var/folders/hl/qgbwny5j0fd895c2c41bk3tw0000gp/T//ccTuF2qj.s 			page 7


 193:/opt/homebrew/Cellar/arm-none-eabi-gcc/10.3-2021.07/gcc/arm-none-eabi/include/c++/10.3.1/bits/stl_algobase.h ****    *
 194:/opt/homebrew/Cellar/arm-none-eabi-gcc/10.3-2021.07/gcc/arm-none-eabi/include/c++/10.3.1/bits/stl_algobase.h ****    *  Swaps each element in the range @p [first1,last1) with the
 195:/opt/homebrew/Cellar/arm-none-eabi-gcc/10.3-2021.07/gcc/arm-none-eabi/include/c++/10.3.1/bits/stl_algobase.h ****    *  corresponding element in the range @p [first2,(last1-first1)).
 196:/opt/homebrew/Cellar/arm-none-eabi-gcc/10.3-2021.07/gcc/arm-none-eabi/include/c++/10.3.1/bits/stl_algobase.h ****    *  The ranges must not overlap.
 197:/opt/homebrew/Cellar/arm-none-eabi-gcc/10.3-2021.07/gcc/arm-none-eabi/include/c++/10.3.1/bits/stl_algobase.h ****   */
 198:/opt/homebrew/Cellar/arm-none-eabi-gcc/10.3-2021.07/gcc/arm-none-eabi/include/c++/10.3.1/bits/stl_algobase.h ****   template<typename _ForwardIterator1, typename _ForwardIterator2>
 199:/opt/homebrew/Cellar/arm-none-eabi-gcc/10.3-2021.07/gcc/arm-none-eabi/include/c++/10.3.1/bits/stl_algobase.h ****     _GLIBCXX20_CONSTEXPR
 200:/opt/homebrew/Cellar/arm-none-eabi-gcc/10.3-2021.07/gcc/arm-none-eabi/include/c++/10.3.1/bits/stl_algobase.h ****     _ForwardIterator2
 201:/opt/homebrew/Cellar/arm-none-eabi-gcc/10.3-2021.07/gcc/arm-none-eabi/include/c++/10.3.1/bits/stl_algobase.h ****     swap_ranges(_ForwardIterator1 __first1, _ForwardIterator1 __last1,
 202:/opt/homebrew/Cellar/arm-none-eabi-gcc/10.3-2021.07/gcc/arm-none-eabi/include/c++/10.3.1/bits/stl_algobase.h **** 		_ForwardIterator2 __first2)
 203:/opt/homebrew/Cellar/arm-none-eabi-gcc/10.3-2021.07/gcc/arm-none-eabi/include/c++/10.3.1/bits/stl_algobase.h ****     {
 204:/opt/homebrew/Cellar/arm-none-eabi-gcc/10.3-2021.07/gcc/arm-none-eabi/include/c++/10.3.1/bits/stl_algobase.h ****       // concept requirements
 205:/opt/homebrew/Cellar/arm-none-eabi-gcc/10.3-2021.07/gcc/arm-none-eabi/include/c++/10.3.1/bits/stl_algobase.h ****       __glibcxx_function_requires(_Mutable_ForwardIteratorConcept<
 206:/opt/homebrew/Cellar/arm-none-eabi-gcc/10.3-2021.07/gcc/arm-none-eabi/include/c++/10.3.1/bits/stl_algobase.h **** 				  _ForwardIterator1>)
 207:/opt/homebrew/Cellar/arm-none-eabi-gcc/10.3-2021.07/gcc/arm-none-eabi/include/c++/10.3.1/bits/stl_algobase.h ****       __glibcxx_function_requires(_Mutable_ForwardIteratorConcept<
 208:/opt/homebrew/Cellar/arm-none-eabi-gcc/10.3-2021.07/gcc/arm-none-eabi/include/c++/10.3.1/bits/stl_algobase.h **** 				  _ForwardIterator2>)
 209:/opt/homebrew/Cellar/arm-none-eabi-gcc/10.3-2021.07/gcc/arm-none-eabi/include/c++/10.3.1/bits/stl_algobase.h ****       __glibcxx_requires_valid_range(__first1, __last1);
 210:/opt/homebrew/Cellar/arm-none-eabi-gcc/10.3-2021.07/gcc/arm-none-eabi/include/c++/10.3.1/bits/stl_algobase.h **** 
 211:/opt/homebrew/Cellar/arm-none-eabi-gcc/10.3-2021.07/gcc/arm-none-eabi/include/c++/10.3.1/bits/stl_algobase.h ****       for (; __first1 != __last1; ++__first1, (void)++__first2)
 212:/opt/homebrew/Cellar/arm-none-eabi-gcc/10.3-2021.07/gcc/arm-none-eabi/include/c++/10.3.1/bits/stl_algobase.h **** 	std::iter_swap(__first1, __first2);
 213:/opt/homebrew/Cellar/arm-none-eabi-gcc/10.3-2021.07/gcc/arm-none-eabi/include/c++/10.3.1/bits/stl_algobase.h ****       return __first2;
 214:/opt/homebrew/Cellar/arm-none-eabi-gcc/10.3-2021.07/gcc/arm-none-eabi/include/c++/10.3.1/bits/stl_algobase.h ****     }
 215:/opt/homebrew/Cellar/arm-none-eabi-gcc/10.3-2021.07/gcc/arm-none-eabi/include/c++/10.3.1/bits/stl_algobase.h **** 
 216:/opt/homebrew/Cellar/arm-none-eabi-gcc/10.3-2021.07/gcc/arm-none-eabi/include/c++/10.3.1/bits/stl_algobase.h ****   /**
 217:/opt/homebrew/Cellar/arm-none-eabi-gcc/10.3-2021.07/gcc/arm-none-eabi/include/c++/10.3.1/bits/stl_algobase.h ****    *  @brief This does what you think it does.
 218:/opt/homebrew/Cellar/arm-none-eabi-gcc/10.3-2021.07/gcc/arm-none-eabi/include/c++/10.3.1/bits/stl_algobase.h ****    *  @ingroup sorting_algorithms
 219:/opt/homebrew/Cellar/arm-none-eabi-gcc/10.3-2021.07/gcc/arm-none-eabi/include/c++/10.3.1/bits/stl_algobase.h ****    *  @param  __a  A thing of arbitrary type.
 220:/opt/homebrew/Cellar/arm-none-eabi-gcc/10.3-2021.07/gcc/arm-none-eabi/include/c++/10.3.1/bits/stl_algobase.h ****    *  @param  __b  Another thing of arbitrary type.
 221:/opt/homebrew/Cellar/arm-none-eabi-gcc/10.3-2021.07/gcc/arm-none-eabi/include/c++/10.3.1/bits/stl_algobase.h ****    *  @return   The lesser of the parameters.
 222:/opt/homebrew/Cellar/arm-none-eabi-gcc/10.3-2021.07/gcc/arm-none-eabi/include/c++/10.3.1/bits/stl_algobase.h ****    *
 223:/opt/homebrew/Cellar/arm-none-eabi-gcc/10.3-2021.07/gcc/arm-none-eabi/include/c++/10.3.1/bits/stl_algobase.h ****    *  This is the simple classic generic implementation.  It will work on
 224:/opt/homebrew/Cellar/arm-none-eabi-gcc/10.3-2021.07/gcc/arm-none-eabi/include/c++/10.3.1/bits/stl_algobase.h ****    *  temporary expressions, since they are only evaluated once, unlike a
 225:/opt/homebrew/Cellar/arm-none-eabi-gcc/10.3-2021.07/gcc/arm-none-eabi/include/c++/10.3.1/bits/stl_algobase.h ****    *  preprocessor macro.
 226:/opt/homebrew/Cellar/arm-none-eabi-gcc/10.3-2021.07/gcc/arm-none-eabi/include/c++/10.3.1/bits/stl_algobase.h ****   */
 227:/opt/homebrew/Cellar/arm-none-eabi-gcc/10.3-2021.07/gcc/arm-none-eabi/include/c++/10.3.1/bits/stl_algobase.h ****   template<typename _Tp>
 228:/opt/homebrew/Cellar/arm-none-eabi-gcc/10.3-2021.07/gcc/arm-none-eabi/include/c++/10.3.1/bits/stl_algobase.h ****     _GLIBCXX14_CONSTEXPR
 229:/opt/homebrew/Cellar/arm-none-eabi-gcc/10.3-2021.07/gcc/arm-none-eabi/include/c++/10.3.1/bits/stl_algobase.h ****     inline const _Tp&
 230:/opt/homebrew/Cellar/arm-none-eabi-gcc/10.3-2021.07/gcc/arm-none-eabi/include/c++/10.3.1/bits/stl_algobase.h ****     min(const _Tp& __a, const _Tp& __b)
 231:/opt/homebrew/Cellar/arm-none-eabi-gcc/10.3-2021.07/gcc/arm-none-eabi/include/c++/10.3.1/bits/stl_algobase.h ****     {
 232:/opt/homebrew/Cellar/arm-none-eabi-gcc/10.3-2021.07/gcc/arm-none-eabi/include/c++/10.3.1/bits/stl_algobase.h ****       // concept requirements
 233:/opt/homebrew/Cellar/arm-none-eabi-gcc/10.3-2021.07/gcc/arm-none-eabi/include/c++/10.3.1/bits/stl_algobase.h ****       __glibcxx_function_requires(_LessThanComparableConcept<_Tp>)
 234:/opt/homebrew/Cellar/arm-none-eabi-gcc/10.3-2021.07/gcc/arm-none-eabi/include/c++/10.3.1/bits/stl_algobase.h ****       //return __b < __a ? __b : __a;
 235:/opt/homebrew/Cellar/arm-none-eabi-gcc/10.3-2021.07/gcc/arm-none-eabi/include/c++/10.3.1/bits/stl_algobase.h ****       if (__b < __a)
 236:/opt/homebrew/Cellar/arm-none-eabi-gcc/10.3-2021.07/gcc/arm-none-eabi/include/c++/10.3.1/bits/stl_algobase.h **** 	return __b;
 237:/opt/homebrew/Cellar/arm-none-eabi-gcc/10.3-2021.07/gcc/arm-none-eabi/include/c++/10.3.1/bits/stl_algobase.h ****       return __a;
 238:/opt/homebrew/Cellar/arm-none-eabi-gcc/10.3-2021.07/gcc/arm-none-eabi/include/c++/10.3.1/bits/stl_algobase.h ****     }
 239:/opt/homebrew/Cellar/arm-none-eabi-gcc/10.3-2021.07/gcc/arm-none-eabi/include/c++/10.3.1/bits/stl_algobase.h **** 
 240:/opt/homebrew/Cellar/arm-none-eabi-gcc/10.3-2021.07/gcc/arm-none-eabi/include/c++/10.3.1/bits/stl_algobase.h ****   /**
 241:/opt/homebrew/Cellar/arm-none-eabi-gcc/10.3-2021.07/gcc/arm-none-eabi/include/c++/10.3.1/bits/stl_algobase.h ****    *  @brief This does what you think it does.
 242:/opt/homebrew/Cellar/arm-none-eabi-gcc/10.3-2021.07/gcc/arm-none-eabi/include/c++/10.3.1/bits/stl_algobase.h ****    *  @ingroup sorting_algorithms
 243:/opt/homebrew/Cellar/arm-none-eabi-gcc/10.3-2021.07/gcc/arm-none-eabi/include/c++/10.3.1/bits/stl_algobase.h ****    *  @param  __a  A thing of arbitrary type.
 244:/opt/homebrew/Cellar/arm-none-eabi-gcc/10.3-2021.07/gcc/arm-none-eabi/include/c++/10.3.1/bits/stl_algobase.h ****    *  @param  __b  Another thing of arbitrary type.
 245:/opt/homebrew/Cellar/arm-none-eabi-gcc/10.3-2021.07/gcc/arm-none-eabi/include/c++/10.3.1/bits/stl_algobase.h ****    *  @return   The greater of the parameters.
 246:/opt/homebrew/Cellar/arm-none-eabi-gcc/10.3-2021.07/gcc/arm-none-eabi/include/c++/10.3.1/bits/stl_algobase.h ****    *
 247:/opt/homebrew/Cellar/arm-none-eabi-gcc/10.3-2021.07/gcc/arm-none-eabi/include/c++/10.3.1/bits/stl_algobase.h ****    *  This is the simple classic generic implementation.  It will work on
 248:/opt/homebrew/Cellar/arm-none-eabi-gcc/10.3-2021.07/gcc/arm-none-eabi/include/c++/10.3.1/bits/stl_algobase.h ****    *  temporary expressions, since they are only evaluated once, unlike a
 249:/opt/homebrew/Cellar/arm-none-eabi-gcc/10.3-2021.07/gcc/arm-none-eabi/include/c++/10.3.1/bits/stl_algobase.h ****    *  preprocessor macro.
ARM GAS  /var/folders/hl/qgbwny5j0fd895c2c41bk3tw0000gp/T//ccTuF2qj.s 			page 8


 250:/opt/homebrew/Cellar/arm-none-eabi-gcc/10.3-2021.07/gcc/arm-none-eabi/include/c++/10.3.1/bits/stl_algobase.h ****   */
 251:/opt/homebrew/Cellar/arm-none-eabi-gcc/10.3-2021.07/gcc/arm-none-eabi/include/c++/10.3.1/bits/stl_algobase.h ****   template<typename _Tp>
 252:/opt/homebrew/Cellar/arm-none-eabi-gcc/10.3-2021.07/gcc/arm-none-eabi/include/c++/10.3.1/bits/stl_algobase.h ****     _GLIBCXX14_CONSTEXPR
 253:/opt/homebrew/Cellar/arm-none-eabi-gcc/10.3-2021.07/gcc/arm-none-eabi/include/c++/10.3.1/bits/stl_algobase.h ****     inline const _Tp&
 254:/opt/homebrew/Cellar/arm-none-eabi-gcc/10.3-2021.07/gcc/arm-none-eabi/include/c++/10.3.1/bits/stl_algobase.h ****     max(const _Tp& __a, const _Tp& __b)
 255:/opt/homebrew/Cellar/arm-none-eabi-gcc/10.3-2021.07/gcc/arm-none-eabi/include/c++/10.3.1/bits/stl_algobase.h ****     {
 256:/opt/homebrew/Cellar/arm-none-eabi-gcc/10.3-2021.07/gcc/arm-none-eabi/include/c++/10.3.1/bits/stl_algobase.h ****       // concept requirements
 257:/opt/homebrew/Cellar/arm-none-eabi-gcc/10.3-2021.07/gcc/arm-none-eabi/include/c++/10.3.1/bits/stl_algobase.h ****       __glibcxx_function_requires(_LessThanComparableConcept<_Tp>)
 258:/opt/homebrew/Cellar/arm-none-eabi-gcc/10.3-2021.07/gcc/arm-none-eabi/include/c++/10.3.1/bits/stl_algobase.h ****       //return  __a < __b ? __b : __a;
 259:/opt/homebrew/Cellar/arm-none-eabi-gcc/10.3-2021.07/gcc/arm-none-eabi/include/c++/10.3.1/bits/stl_algobase.h ****       if (__a < __b)
 260:/opt/homebrew/Cellar/arm-none-eabi-gcc/10.3-2021.07/gcc/arm-none-eabi/include/c++/10.3.1/bits/stl_algobase.h **** 	return __b;
 261:/opt/homebrew/Cellar/arm-none-eabi-gcc/10.3-2021.07/gcc/arm-none-eabi/include/c++/10.3.1/bits/stl_algobase.h ****       return __a;
 262:/opt/homebrew/Cellar/arm-none-eabi-gcc/10.3-2021.07/gcc/arm-none-eabi/include/c++/10.3.1/bits/stl_algobase.h ****     }
 263:/opt/homebrew/Cellar/arm-none-eabi-gcc/10.3-2021.07/gcc/arm-none-eabi/include/c++/10.3.1/bits/stl_algobase.h **** 
 264:/opt/homebrew/Cellar/arm-none-eabi-gcc/10.3-2021.07/gcc/arm-none-eabi/include/c++/10.3.1/bits/stl_algobase.h ****   /**
 265:/opt/homebrew/Cellar/arm-none-eabi-gcc/10.3-2021.07/gcc/arm-none-eabi/include/c++/10.3.1/bits/stl_algobase.h ****    *  @brief This does what you think it does.
 266:/opt/homebrew/Cellar/arm-none-eabi-gcc/10.3-2021.07/gcc/arm-none-eabi/include/c++/10.3.1/bits/stl_algobase.h ****    *  @ingroup sorting_algorithms
 267:/opt/homebrew/Cellar/arm-none-eabi-gcc/10.3-2021.07/gcc/arm-none-eabi/include/c++/10.3.1/bits/stl_algobase.h ****    *  @param  __a  A thing of arbitrary type.
 268:/opt/homebrew/Cellar/arm-none-eabi-gcc/10.3-2021.07/gcc/arm-none-eabi/include/c++/10.3.1/bits/stl_algobase.h ****    *  @param  __b  Another thing of arbitrary type.
 269:/opt/homebrew/Cellar/arm-none-eabi-gcc/10.3-2021.07/gcc/arm-none-eabi/include/c++/10.3.1/bits/stl_algobase.h ****    *  @param  __comp  A @link comparison_functors comparison functor@endlink.
 270:/opt/homebrew/Cellar/arm-none-eabi-gcc/10.3-2021.07/gcc/arm-none-eabi/include/c++/10.3.1/bits/stl_algobase.h ****    *  @return   The lesser of the parameters.
 271:/opt/homebrew/Cellar/arm-none-eabi-gcc/10.3-2021.07/gcc/arm-none-eabi/include/c++/10.3.1/bits/stl_algobase.h ****    *
 272:/opt/homebrew/Cellar/arm-none-eabi-gcc/10.3-2021.07/gcc/arm-none-eabi/include/c++/10.3.1/bits/stl_algobase.h ****    *  This will work on temporary expressions, since they are only evaluated
 273:/opt/homebrew/Cellar/arm-none-eabi-gcc/10.3-2021.07/gcc/arm-none-eabi/include/c++/10.3.1/bits/stl_algobase.h ****    *  once, unlike a preprocessor macro.
 274:/opt/homebrew/Cellar/arm-none-eabi-gcc/10.3-2021.07/gcc/arm-none-eabi/include/c++/10.3.1/bits/stl_algobase.h ****   */
 275:/opt/homebrew/Cellar/arm-none-eabi-gcc/10.3-2021.07/gcc/arm-none-eabi/include/c++/10.3.1/bits/stl_algobase.h ****   template<typename _Tp, typename _Compare>
 276:/opt/homebrew/Cellar/arm-none-eabi-gcc/10.3-2021.07/gcc/arm-none-eabi/include/c++/10.3.1/bits/stl_algobase.h ****     _GLIBCXX14_CONSTEXPR
 277:/opt/homebrew/Cellar/arm-none-eabi-gcc/10.3-2021.07/gcc/arm-none-eabi/include/c++/10.3.1/bits/stl_algobase.h ****     inline const _Tp&
 278:/opt/homebrew/Cellar/arm-none-eabi-gcc/10.3-2021.07/gcc/arm-none-eabi/include/c++/10.3.1/bits/stl_algobase.h ****     min(const _Tp& __a, const _Tp& __b, _Compare __comp)
 279:/opt/homebrew/Cellar/arm-none-eabi-gcc/10.3-2021.07/gcc/arm-none-eabi/include/c++/10.3.1/bits/stl_algobase.h ****     {
 280:/opt/homebrew/Cellar/arm-none-eabi-gcc/10.3-2021.07/gcc/arm-none-eabi/include/c++/10.3.1/bits/stl_algobase.h ****       //return __comp(__b, __a) ? __b : __a;
 281:/opt/homebrew/Cellar/arm-none-eabi-gcc/10.3-2021.07/gcc/arm-none-eabi/include/c++/10.3.1/bits/stl_algobase.h ****       if (__comp(__b, __a))
 282:/opt/homebrew/Cellar/arm-none-eabi-gcc/10.3-2021.07/gcc/arm-none-eabi/include/c++/10.3.1/bits/stl_algobase.h **** 	return __b;
 283:/opt/homebrew/Cellar/arm-none-eabi-gcc/10.3-2021.07/gcc/arm-none-eabi/include/c++/10.3.1/bits/stl_algobase.h ****       return __a;
 284:/opt/homebrew/Cellar/arm-none-eabi-gcc/10.3-2021.07/gcc/arm-none-eabi/include/c++/10.3.1/bits/stl_algobase.h ****     }
 285:/opt/homebrew/Cellar/arm-none-eabi-gcc/10.3-2021.07/gcc/arm-none-eabi/include/c++/10.3.1/bits/stl_algobase.h **** 
 286:/opt/homebrew/Cellar/arm-none-eabi-gcc/10.3-2021.07/gcc/arm-none-eabi/include/c++/10.3.1/bits/stl_algobase.h ****   /**
 287:/opt/homebrew/Cellar/arm-none-eabi-gcc/10.3-2021.07/gcc/arm-none-eabi/include/c++/10.3.1/bits/stl_algobase.h ****    *  @brief This does what you think it does.
 288:/opt/homebrew/Cellar/arm-none-eabi-gcc/10.3-2021.07/gcc/arm-none-eabi/include/c++/10.3.1/bits/stl_algobase.h ****    *  @ingroup sorting_algorithms
 289:/opt/homebrew/Cellar/arm-none-eabi-gcc/10.3-2021.07/gcc/arm-none-eabi/include/c++/10.3.1/bits/stl_algobase.h ****    *  @param  __a  A thing of arbitrary type.
 290:/opt/homebrew/Cellar/arm-none-eabi-gcc/10.3-2021.07/gcc/arm-none-eabi/include/c++/10.3.1/bits/stl_algobase.h ****    *  @param  __b  Another thing of arbitrary type.
 291:/opt/homebrew/Cellar/arm-none-eabi-gcc/10.3-2021.07/gcc/arm-none-eabi/include/c++/10.3.1/bits/stl_algobase.h ****    *  @param  __comp  A @link comparison_functors comparison functor@endlink.
 292:/opt/homebrew/Cellar/arm-none-eabi-gcc/10.3-2021.07/gcc/arm-none-eabi/include/c++/10.3.1/bits/stl_algobase.h ****    *  @return   The greater of the parameters.
 293:/opt/homebrew/Cellar/arm-none-eabi-gcc/10.3-2021.07/gcc/arm-none-eabi/include/c++/10.3.1/bits/stl_algobase.h ****    *
 294:/opt/homebrew/Cellar/arm-none-eabi-gcc/10.3-2021.07/gcc/arm-none-eabi/include/c++/10.3.1/bits/stl_algobase.h ****    *  This will work on temporary expressions, since they are only evaluated
 295:/opt/homebrew/Cellar/arm-none-eabi-gcc/10.3-2021.07/gcc/arm-none-eabi/include/c++/10.3.1/bits/stl_algobase.h ****    *  once, unlike a preprocessor macro.
 296:/opt/homebrew/Cellar/arm-none-eabi-gcc/10.3-2021.07/gcc/arm-none-eabi/include/c++/10.3.1/bits/stl_algobase.h ****   */
 297:/opt/homebrew/Cellar/arm-none-eabi-gcc/10.3-2021.07/gcc/arm-none-eabi/include/c++/10.3.1/bits/stl_algobase.h ****   template<typename _Tp, typename _Compare>
 298:/opt/homebrew/Cellar/arm-none-eabi-gcc/10.3-2021.07/gcc/arm-none-eabi/include/c++/10.3.1/bits/stl_algobase.h ****     _GLIBCXX14_CONSTEXPR
 299:/opt/homebrew/Cellar/arm-none-eabi-gcc/10.3-2021.07/gcc/arm-none-eabi/include/c++/10.3.1/bits/stl_algobase.h ****     inline const _Tp&
 300:/opt/homebrew/Cellar/arm-none-eabi-gcc/10.3-2021.07/gcc/arm-none-eabi/include/c++/10.3.1/bits/stl_algobase.h ****     max(const _Tp& __a, const _Tp& __b, _Compare __comp)
 301:/opt/homebrew/Cellar/arm-none-eabi-gcc/10.3-2021.07/gcc/arm-none-eabi/include/c++/10.3.1/bits/stl_algobase.h ****     {
 302:/opt/homebrew/Cellar/arm-none-eabi-gcc/10.3-2021.07/gcc/arm-none-eabi/include/c++/10.3.1/bits/stl_algobase.h ****       //return __comp(__a, __b) ? __b : __a;
 303:/opt/homebrew/Cellar/arm-none-eabi-gcc/10.3-2021.07/gcc/arm-none-eabi/include/c++/10.3.1/bits/stl_algobase.h ****       if (__comp(__a, __b))
 304:/opt/homebrew/Cellar/arm-none-eabi-gcc/10.3-2021.07/gcc/arm-none-eabi/include/c++/10.3.1/bits/stl_algobase.h **** 	return __b;
 305:/opt/homebrew/Cellar/arm-none-eabi-gcc/10.3-2021.07/gcc/arm-none-eabi/include/c++/10.3.1/bits/stl_algobase.h ****       return __a;
 306:/opt/homebrew/Cellar/arm-none-eabi-gcc/10.3-2021.07/gcc/arm-none-eabi/include/c++/10.3.1/bits/stl_algobase.h ****     }
ARM GAS  /var/folders/hl/qgbwny5j0fd895c2c41bk3tw0000gp/T//ccTuF2qj.s 			page 9


 307:/opt/homebrew/Cellar/arm-none-eabi-gcc/10.3-2021.07/gcc/arm-none-eabi/include/c++/10.3.1/bits/stl_algobase.h **** 
 308:/opt/homebrew/Cellar/arm-none-eabi-gcc/10.3-2021.07/gcc/arm-none-eabi/include/c++/10.3.1/bits/stl_algobase.h ****   // Fallback implementation of the function in bits/stl_iterator.h used to
 309:/opt/homebrew/Cellar/arm-none-eabi-gcc/10.3-2021.07/gcc/arm-none-eabi/include/c++/10.3.1/bits/stl_algobase.h ****   // remove the __normal_iterator wrapper. See copy, fill, ...
 310:/opt/homebrew/Cellar/arm-none-eabi-gcc/10.3-2021.07/gcc/arm-none-eabi/include/c++/10.3.1/bits/stl_algobase.h ****   template<typename _Iterator>
 311:/opt/homebrew/Cellar/arm-none-eabi-gcc/10.3-2021.07/gcc/arm-none-eabi/include/c++/10.3.1/bits/stl_algobase.h ****     _GLIBCXX20_CONSTEXPR
 312:/opt/homebrew/Cellar/arm-none-eabi-gcc/10.3-2021.07/gcc/arm-none-eabi/include/c++/10.3.1/bits/stl_algobase.h ****     inline _Iterator
 313:/opt/homebrew/Cellar/arm-none-eabi-gcc/10.3-2021.07/gcc/arm-none-eabi/include/c++/10.3.1/bits/stl_algobase.h ****     __niter_base(_Iterator __it)
 314:/opt/homebrew/Cellar/arm-none-eabi-gcc/10.3-2021.07/gcc/arm-none-eabi/include/c++/10.3.1/bits/stl_algobase.h ****     _GLIBCXX_NOEXCEPT_IF(std::is_nothrow_copy_constructible<_Iterator>::value)
 315:/opt/homebrew/Cellar/arm-none-eabi-gcc/10.3-2021.07/gcc/arm-none-eabi/include/c++/10.3.1/bits/stl_algobase.h ****     { return __it; }
 316:/opt/homebrew/Cellar/arm-none-eabi-gcc/10.3-2021.07/gcc/arm-none-eabi/include/c++/10.3.1/bits/stl_algobase.h **** 
 317:/opt/homebrew/Cellar/arm-none-eabi-gcc/10.3-2021.07/gcc/arm-none-eabi/include/c++/10.3.1/bits/stl_algobase.h ****   // Reverse the __niter_base transformation to get a
 318:/opt/homebrew/Cellar/arm-none-eabi-gcc/10.3-2021.07/gcc/arm-none-eabi/include/c++/10.3.1/bits/stl_algobase.h ****   // __normal_iterator back again (this assumes that __normal_iterator
 319:/opt/homebrew/Cellar/arm-none-eabi-gcc/10.3-2021.07/gcc/arm-none-eabi/include/c++/10.3.1/bits/stl_algobase.h ****   // is only used to wrap random access iterators, like pointers).
 320:/opt/homebrew/Cellar/arm-none-eabi-gcc/10.3-2021.07/gcc/arm-none-eabi/include/c++/10.3.1/bits/stl_algobase.h ****   template<typename _From, typename _To>
 321:/opt/homebrew/Cellar/arm-none-eabi-gcc/10.3-2021.07/gcc/arm-none-eabi/include/c++/10.3.1/bits/stl_algobase.h ****     _GLIBCXX20_CONSTEXPR
 322:/opt/homebrew/Cellar/arm-none-eabi-gcc/10.3-2021.07/gcc/arm-none-eabi/include/c++/10.3.1/bits/stl_algobase.h ****     inline _From
 323:/opt/homebrew/Cellar/arm-none-eabi-gcc/10.3-2021.07/gcc/arm-none-eabi/include/c++/10.3.1/bits/stl_algobase.h ****     __niter_wrap(_From __from, _To __res)
 324:/opt/homebrew/Cellar/arm-none-eabi-gcc/10.3-2021.07/gcc/arm-none-eabi/include/c++/10.3.1/bits/stl_algobase.h ****     { return __from + (__res - std::__niter_base(__from)); }
 325:/opt/homebrew/Cellar/arm-none-eabi-gcc/10.3-2021.07/gcc/arm-none-eabi/include/c++/10.3.1/bits/stl_algobase.h **** 
 326:/opt/homebrew/Cellar/arm-none-eabi-gcc/10.3-2021.07/gcc/arm-none-eabi/include/c++/10.3.1/bits/stl_algobase.h ****   // No need to wrap, iterator already has the right type.
 327:/opt/homebrew/Cellar/arm-none-eabi-gcc/10.3-2021.07/gcc/arm-none-eabi/include/c++/10.3.1/bits/stl_algobase.h ****   template<typename _Iterator>
 328:/opt/homebrew/Cellar/arm-none-eabi-gcc/10.3-2021.07/gcc/arm-none-eabi/include/c++/10.3.1/bits/stl_algobase.h ****     _GLIBCXX20_CONSTEXPR
 329:/opt/homebrew/Cellar/arm-none-eabi-gcc/10.3-2021.07/gcc/arm-none-eabi/include/c++/10.3.1/bits/stl_algobase.h ****     inline _Iterator
 330:/opt/homebrew/Cellar/arm-none-eabi-gcc/10.3-2021.07/gcc/arm-none-eabi/include/c++/10.3.1/bits/stl_algobase.h ****     __niter_wrap(const _Iterator&, _Iterator __res)
 331:/opt/homebrew/Cellar/arm-none-eabi-gcc/10.3-2021.07/gcc/arm-none-eabi/include/c++/10.3.1/bits/stl_algobase.h ****     { return __res; }
 332:/opt/homebrew/Cellar/arm-none-eabi-gcc/10.3-2021.07/gcc/arm-none-eabi/include/c++/10.3.1/bits/stl_algobase.h **** 
 333:/opt/homebrew/Cellar/arm-none-eabi-gcc/10.3-2021.07/gcc/arm-none-eabi/include/c++/10.3.1/bits/stl_algobase.h ****   // All of these auxiliary structs serve two purposes.  (1) Replace
 334:/opt/homebrew/Cellar/arm-none-eabi-gcc/10.3-2021.07/gcc/arm-none-eabi/include/c++/10.3.1/bits/stl_algobase.h ****   // calls to copy with memmove whenever possible.  (Memmove, not memcpy,
 335:/opt/homebrew/Cellar/arm-none-eabi-gcc/10.3-2021.07/gcc/arm-none-eabi/include/c++/10.3.1/bits/stl_algobase.h ****   // because the input and output ranges are permitted to overlap.)
 336:/opt/homebrew/Cellar/arm-none-eabi-gcc/10.3-2021.07/gcc/arm-none-eabi/include/c++/10.3.1/bits/stl_algobase.h ****   // (2) If we're using random access iterators, then write the loop as
 337:/opt/homebrew/Cellar/arm-none-eabi-gcc/10.3-2021.07/gcc/arm-none-eabi/include/c++/10.3.1/bits/stl_algobase.h ****   // a for loop with an explicit count.
 338:/opt/homebrew/Cellar/arm-none-eabi-gcc/10.3-2021.07/gcc/arm-none-eabi/include/c++/10.3.1/bits/stl_algobase.h **** 
 339:/opt/homebrew/Cellar/arm-none-eabi-gcc/10.3-2021.07/gcc/arm-none-eabi/include/c++/10.3.1/bits/stl_algobase.h ****   template<bool _IsMove, bool _IsSimple, typename _Category>
 340:/opt/homebrew/Cellar/arm-none-eabi-gcc/10.3-2021.07/gcc/arm-none-eabi/include/c++/10.3.1/bits/stl_algobase.h ****     struct __copy_move
 341:/opt/homebrew/Cellar/arm-none-eabi-gcc/10.3-2021.07/gcc/arm-none-eabi/include/c++/10.3.1/bits/stl_algobase.h ****     {
 342:/opt/homebrew/Cellar/arm-none-eabi-gcc/10.3-2021.07/gcc/arm-none-eabi/include/c++/10.3.1/bits/stl_algobase.h ****       template<typename _II, typename _OI>
 343:/opt/homebrew/Cellar/arm-none-eabi-gcc/10.3-2021.07/gcc/arm-none-eabi/include/c++/10.3.1/bits/stl_algobase.h **** 	_GLIBCXX20_CONSTEXPR
 344:/opt/homebrew/Cellar/arm-none-eabi-gcc/10.3-2021.07/gcc/arm-none-eabi/include/c++/10.3.1/bits/stl_algobase.h **** 	static _OI
 345:/opt/homebrew/Cellar/arm-none-eabi-gcc/10.3-2021.07/gcc/arm-none-eabi/include/c++/10.3.1/bits/stl_algobase.h **** 	__copy_m(_II __first, _II __last, _OI __result)
 346:/opt/homebrew/Cellar/arm-none-eabi-gcc/10.3-2021.07/gcc/arm-none-eabi/include/c++/10.3.1/bits/stl_algobase.h **** 	{
 347:/opt/homebrew/Cellar/arm-none-eabi-gcc/10.3-2021.07/gcc/arm-none-eabi/include/c++/10.3.1/bits/stl_algobase.h **** 	  for (; __first != __last; ++__result, (void)++__first)
 348:/opt/homebrew/Cellar/arm-none-eabi-gcc/10.3-2021.07/gcc/arm-none-eabi/include/c++/10.3.1/bits/stl_algobase.h **** 	    *__result = *__first;
 349:/opt/homebrew/Cellar/arm-none-eabi-gcc/10.3-2021.07/gcc/arm-none-eabi/include/c++/10.3.1/bits/stl_algobase.h **** 	  return __result;
 350:/opt/homebrew/Cellar/arm-none-eabi-gcc/10.3-2021.07/gcc/arm-none-eabi/include/c++/10.3.1/bits/stl_algobase.h **** 	}
 351:/opt/homebrew/Cellar/arm-none-eabi-gcc/10.3-2021.07/gcc/arm-none-eabi/include/c++/10.3.1/bits/stl_algobase.h ****     };
 352:/opt/homebrew/Cellar/arm-none-eabi-gcc/10.3-2021.07/gcc/arm-none-eabi/include/c++/10.3.1/bits/stl_algobase.h **** 
 353:/opt/homebrew/Cellar/arm-none-eabi-gcc/10.3-2021.07/gcc/arm-none-eabi/include/c++/10.3.1/bits/stl_algobase.h **** #if __cplusplus >= 201103L
 354:/opt/homebrew/Cellar/arm-none-eabi-gcc/10.3-2021.07/gcc/arm-none-eabi/include/c++/10.3.1/bits/stl_algobase.h ****   template<typename _Category>
 355:/opt/homebrew/Cellar/arm-none-eabi-gcc/10.3-2021.07/gcc/arm-none-eabi/include/c++/10.3.1/bits/stl_algobase.h ****     struct __copy_move<true, false, _Category>
 356:/opt/homebrew/Cellar/arm-none-eabi-gcc/10.3-2021.07/gcc/arm-none-eabi/include/c++/10.3.1/bits/stl_algobase.h ****     {
 357:/opt/homebrew/Cellar/arm-none-eabi-gcc/10.3-2021.07/gcc/arm-none-eabi/include/c++/10.3.1/bits/stl_algobase.h ****       template<typename _II, typename _OI>
 358:/opt/homebrew/Cellar/arm-none-eabi-gcc/10.3-2021.07/gcc/arm-none-eabi/include/c++/10.3.1/bits/stl_algobase.h **** 	_GLIBCXX20_CONSTEXPR
 359:/opt/homebrew/Cellar/arm-none-eabi-gcc/10.3-2021.07/gcc/arm-none-eabi/include/c++/10.3.1/bits/stl_algobase.h **** 	static _OI
 360:/opt/homebrew/Cellar/arm-none-eabi-gcc/10.3-2021.07/gcc/arm-none-eabi/include/c++/10.3.1/bits/stl_algobase.h **** 	__copy_m(_II __first, _II __last, _OI __result)
 361:/opt/homebrew/Cellar/arm-none-eabi-gcc/10.3-2021.07/gcc/arm-none-eabi/include/c++/10.3.1/bits/stl_algobase.h **** 	{
 362:/opt/homebrew/Cellar/arm-none-eabi-gcc/10.3-2021.07/gcc/arm-none-eabi/include/c++/10.3.1/bits/stl_algobase.h **** 	  for (; __first != __last; ++__result, (void)++__first)
 363:/opt/homebrew/Cellar/arm-none-eabi-gcc/10.3-2021.07/gcc/arm-none-eabi/include/c++/10.3.1/bits/stl_algobase.h **** 	    *__result = std::move(*__first);
ARM GAS  /var/folders/hl/qgbwny5j0fd895c2c41bk3tw0000gp/T//ccTuF2qj.s 			page 10


 364:/opt/homebrew/Cellar/arm-none-eabi-gcc/10.3-2021.07/gcc/arm-none-eabi/include/c++/10.3.1/bits/stl_algobase.h **** 	  return __result;
 365:/opt/homebrew/Cellar/arm-none-eabi-gcc/10.3-2021.07/gcc/arm-none-eabi/include/c++/10.3.1/bits/stl_algobase.h **** 	}
 366:/opt/homebrew/Cellar/arm-none-eabi-gcc/10.3-2021.07/gcc/arm-none-eabi/include/c++/10.3.1/bits/stl_algobase.h ****     };
 367:/opt/homebrew/Cellar/arm-none-eabi-gcc/10.3-2021.07/gcc/arm-none-eabi/include/c++/10.3.1/bits/stl_algobase.h **** #endif
 368:/opt/homebrew/Cellar/arm-none-eabi-gcc/10.3-2021.07/gcc/arm-none-eabi/include/c++/10.3.1/bits/stl_algobase.h **** 
 369:/opt/homebrew/Cellar/arm-none-eabi-gcc/10.3-2021.07/gcc/arm-none-eabi/include/c++/10.3.1/bits/stl_algobase.h ****   template<>
 370:/opt/homebrew/Cellar/arm-none-eabi-gcc/10.3-2021.07/gcc/arm-none-eabi/include/c++/10.3.1/bits/stl_algobase.h ****     struct __copy_move<false, false, random_access_iterator_tag>
 371:/opt/homebrew/Cellar/arm-none-eabi-gcc/10.3-2021.07/gcc/arm-none-eabi/include/c++/10.3.1/bits/stl_algobase.h ****     {
 372:/opt/homebrew/Cellar/arm-none-eabi-gcc/10.3-2021.07/gcc/arm-none-eabi/include/c++/10.3.1/bits/stl_algobase.h ****       template<typename _II, typename _OI>
 373:/opt/homebrew/Cellar/arm-none-eabi-gcc/10.3-2021.07/gcc/arm-none-eabi/include/c++/10.3.1/bits/stl_algobase.h **** 	_GLIBCXX20_CONSTEXPR
 374:/opt/homebrew/Cellar/arm-none-eabi-gcc/10.3-2021.07/gcc/arm-none-eabi/include/c++/10.3.1/bits/stl_algobase.h **** 	static _OI
 375:/opt/homebrew/Cellar/arm-none-eabi-gcc/10.3-2021.07/gcc/arm-none-eabi/include/c++/10.3.1/bits/stl_algobase.h **** 	__copy_m(_II __first, _II __last, _OI __result)
 376:/opt/homebrew/Cellar/arm-none-eabi-gcc/10.3-2021.07/gcc/arm-none-eabi/include/c++/10.3.1/bits/stl_algobase.h **** 	{
 377:/opt/homebrew/Cellar/arm-none-eabi-gcc/10.3-2021.07/gcc/arm-none-eabi/include/c++/10.3.1/bits/stl_algobase.h **** 	  typedef typename iterator_traits<_II>::difference_type _Distance;
 378:/opt/homebrew/Cellar/arm-none-eabi-gcc/10.3-2021.07/gcc/arm-none-eabi/include/c++/10.3.1/bits/stl_algobase.h **** 	  for(_Distance __n = __last - __first; __n > 0; --__n)
 379:/opt/homebrew/Cellar/arm-none-eabi-gcc/10.3-2021.07/gcc/arm-none-eabi/include/c++/10.3.1/bits/stl_algobase.h **** 	    {
 380:/opt/homebrew/Cellar/arm-none-eabi-gcc/10.3-2021.07/gcc/arm-none-eabi/include/c++/10.3.1/bits/stl_algobase.h **** 	      *__result = *__first;
 381:/opt/homebrew/Cellar/arm-none-eabi-gcc/10.3-2021.07/gcc/arm-none-eabi/include/c++/10.3.1/bits/stl_algobase.h **** 	      ++__first;
 382:/opt/homebrew/Cellar/arm-none-eabi-gcc/10.3-2021.07/gcc/arm-none-eabi/include/c++/10.3.1/bits/stl_algobase.h **** 	      ++__result;
 383:/opt/homebrew/Cellar/arm-none-eabi-gcc/10.3-2021.07/gcc/arm-none-eabi/include/c++/10.3.1/bits/stl_algobase.h **** 	    }
 384:/opt/homebrew/Cellar/arm-none-eabi-gcc/10.3-2021.07/gcc/arm-none-eabi/include/c++/10.3.1/bits/stl_algobase.h **** 	  return __result;
 385:/opt/homebrew/Cellar/arm-none-eabi-gcc/10.3-2021.07/gcc/arm-none-eabi/include/c++/10.3.1/bits/stl_algobase.h **** 	}
 386:/opt/homebrew/Cellar/arm-none-eabi-gcc/10.3-2021.07/gcc/arm-none-eabi/include/c++/10.3.1/bits/stl_algobase.h ****     };
 387:/opt/homebrew/Cellar/arm-none-eabi-gcc/10.3-2021.07/gcc/arm-none-eabi/include/c++/10.3.1/bits/stl_algobase.h **** 
 388:/opt/homebrew/Cellar/arm-none-eabi-gcc/10.3-2021.07/gcc/arm-none-eabi/include/c++/10.3.1/bits/stl_algobase.h **** #if __cplusplus >= 201103L
 389:/opt/homebrew/Cellar/arm-none-eabi-gcc/10.3-2021.07/gcc/arm-none-eabi/include/c++/10.3.1/bits/stl_algobase.h ****   template<>
 390:/opt/homebrew/Cellar/arm-none-eabi-gcc/10.3-2021.07/gcc/arm-none-eabi/include/c++/10.3.1/bits/stl_algobase.h ****     struct __copy_move<true, false, random_access_iterator_tag>
 391:/opt/homebrew/Cellar/arm-none-eabi-gcc/10.3-2021.07/gcc/arm-none-eabi/include/c++/10.3.1/bits/stl_algobase.h ****     {
 392:/opt/homebrew/Cellar/arm-none-eabi-gcc/10.3-2021.07/gcc/arm-none-eabi/include/c++/10.3.1/bits/stl_algobase.h ****       template<typename _II, typename _OI>
 393:/opt/homebrew/Cellar/arm-none-eabi-gcc/10.3-2021.07/gcc/arm-none-eabi/include/c++/10.3.1/bits/stl_algobase.h **** 	_GLIBCXX20_CONSTEXPR
 394:/opt/homebrew/Cellar/arm-none-eabi-gcc/10.3-2021.07/gcc/arm-none-eabi/include/c++/10.3.1/bits/stl_algobase.h **** 	static _OI
 395:/opt/homebrew/Cellar/arm-none-eabi-gcc/10.3-2021.07/gcc/arm-none-eabi/include/c++/10.3.1/bits/stl_algobase.h **** 	__copy_m(_II __first, _II __last, _OI __result)
 396:/opt/homebrew/Cellar/arm-none-eabi-gcc/10.3-2021.07/gcc/arm-none-eabi/include/c++/10.3.1/bits/stl_algobase.h **** 	{
 397:/opt/homebrew/Cellar/arm-none-eabi-gcc/10.3-2021.07/gcc/arm-none-eabi/include/c++/10.3.1/bits/stl_algobase.h **** 	  typedef typename iterator_traits<_II>::difference_type _Distance;
 398:/opt/homebrew/Cellar/arm-none-eabi-gcc/10.3-2021.07/gcc/arm-none-eabi/include/c++/10.3.1/bits/stl_algobase.h **** 	  for(_Distance __n = __last - __first; __n > 0; --__n)
 399:/opt/homebrew/Cellar/arm-none-eabi-gcc/10.3-2021.07/gcc/arm-none-eabi/include/c++/10.3.1/bits/stl_algobase.h **** 	    {
 400:/opt/homebrew/Cellar/arm-none-eabi-gcc/10.3-2021.07/gcc/arm-none-eabi/include/c++/10.3.1/bits/stl_algobase.h **** 	      *__result = std::move(*__first);
 401:/opt/homebrew/Cellar/arm-none-eabi-gcc/10.3-2021.07/gcc/arm-none-eabi/include/c++/10.3.1/bits/stl_algobase.h **** 	      ++__first;
 402:/opt/homebrew/Cellar/arm-none-eabi-gcc/10.3-2021.07/gcc/arm-none-eabi/include/c++/10.3.1/bits/stl_algobase.h **** 	      ++__result;
 403:/opt/homebrew/Cellar/arm-none-eabi-gcc/10.3-2021.07/gcc/arm-none-eabi/include/c++/10.3.1/bits/stl_algobase.h **** 	    }
 404:/opt/homebrew/Cellar/arm-none-eabi-gcc/10.3-2021.07/gcc/arm-none-eabi/include/c++/10.3.1/bits/stl_algobase.h **** 	  return __result;
 405:/opt/homebrew/Cellar/arm-none-eabi-gcc/10.3-2021.07/gcc/arm-none-eabi/include/c++/10.3.1/bits/stl_algobase.h **** 	}
 406:/opt/homebrew/Cellar/arm-none-eabi-gcc/10.3-2021.07/gcc/arm-none-eabi/include/c++/10.3.1/bits/stl_algobase.h ****     };
 407:/opt/homebrew/Cellar/arm-none-eabi-gcc/10.3-2021.07/gcc/arm-none-eabi/include/c++/10.3.1/bits/stl_algobase.h **** #endif
 408:/opt/homebrew/Cellar/arm-none-eabi-gcc/10.3-2021.07/gcc/arm-none-eabi/include/c++/10.3.1/bits/stl_algobase.h **** 
 409:/opt/homebrew/Cellar/arm-none-eabi-gcc/10.3-2021.07/gcc/arm-none-eabi/include/c++/10.3.1/bits/stl_algobase.h ****   template<bool _IsMove>
 410:/opt/homebrew/Cellar/arm-none-eabi-gcc/10.3-2021.07/gcc/arm-none-eabi/include/c++/10.3.1/bits/stl_algobase.h ****     struct __copy_move<_IsMove, true, random_access_iterator_tag>
 411:/opt/homebrew/Cellar/arm-none-eabi-gcc/10.3-2021.07/gcc/arm-none-eabi/include/c++/10.3.1/bits/stl_algobase.h ****     {
 412:/opt/homebrew/Cellar/arm-none-eabi-gcc/10.3-2021.07/gcc/arm-none-eabi/include/c++/10.3.1/bits/stl_algobase.h ****       template<typename _Tp>
 413:/opt/homebrew/Cellar/arm-none-eabi-gcc/10.3-2021.07/gcc/arm-none-eabi/include/c++/10.3.1/bits/stl_algobase.h **** 	_GLIBCXX20_CONSTEXPR
 414:/opt/homebrew/Cellar/arm-none-eabi-gcc/10.3-2021.07/gcc/arm-none-eabi/include/c++/10.3.1/bits/stl_algobase.h **** 	static _Tp*
 415:/opt/homebrew/Cellar/arm-none-eabi-gcc/10.3-2021.07/gcc/arm-none-eabi/include/c++/10.3.1/bits/stl_algobase.h **** 	__copy_m(const _Tp* __first, const _Tp* __last, _Tp* __result)
 416:/opt/homebrew/Cellar/arm-none-eabi-gcc/10.3-2021.07/gcc/arm-none-eabi/include/c++/10.3.1/bits/stl_algobase.h **** 	{
 417:/opt/homebrew/Cellar/arm-none-eabi-gcc/10.3-2021.07/gcc/arm-none-eabi/include/c++/10.3.1/bits/stl_algobase.h **** #if __cplusplus >= 201103L
 418:/opt/homebrew/Cellar/arm-none-eabi-gcc/10.3-2021.07/gcc/arm-none-eabi/include/c++/10.3.1/bits/stl_algobase.h **** 	  using __assignable = conditional<_IsMove,
 419:/opt/homebrew/Cellar/arm-none-eabi-gcc/10.3-2021.07/gcc/arm-none-eabi/include/c++/10.3.1/bits/stl_algobase.h **** 					   is_move_assignable<_Tp>,
 420:/opt/homebrew/Cellar/arm-none-eabi-gcc/10.3-2021.07/gcc/arm-none-eabi/include/c++/10.3.1/bits/stl_algobase.h **** 					   is_copy_assignable<_Tp>>;
ARM GAS  /var/folders/hl/qgbwny5j0fd895c2c41bk3tw0000gp/T//ccTuF2qj.s 			page 11


 421:/opt/homebrew/Cellar/arm-none-eabi-gcc/10.3-2021.07/gcc/arm-none-eabi/include/c++/10.3.1/bits/stl_algobase.h **** 	  // trivial types can have deleted assignment
 422:/opt/homebrew/Cellar/arm-none-eabi-gcc/10.3-2021.07/gcc/arm-none-eabi/include/c++/10.3.1/bits/stl_algobase.h **** 	  static_assert( __assignable::type::value, "type is not assignable" );
 423:/opt/homebrew/Cellar/arm-none-eabi-gcc/10.3-2021.07/gcc/arm-none-eabi/include/c++/10.3.1/bits/stl_algobase.h **** #endif
 424:/opt/homebrew/Cellar/arm-none-eabi-gcc/10.3-2021.07/gcc/arm-none-eabi/include/c++/10.3.1/bits/stl_algobase.h **** 	  const ptrdiff_t _Num = __last - __first;
 425:/opt/homebrew/Cellar/arm-none-eabi-gcc/10.3-2021.07/gcc/arm-none-eabi/include/c++/10.3.1/bits/stl_algobase.h **** 	  if (_Num)
 426:/opt/homebrew/Cellar/arm-none-eabi-gcc/10.3-2021.07/gcc/arm-none-eabi/include/c++/10.3.1/bits/stl_algobase.h **** 	    __builtin_memmove(__result, __first, sizeof(_Tp) * _Num);
 427:/opt/homebrew/Cellar/arm-none-eabi-gcc/10.3-2021.07/gcc/arm-none-eabi/include/c++/10.3.1/bits/stl_algobase.h **** 	  return __result + _Num;
 428:/opt/homebrew/Cellar/arm-none-eabi-gcc/10.3-2021.07/gcc/arm-none-eabi/include/c++/10.3.1/bits/stl_algobase.h **** 	}
 429:/opt/homebrew/Cellar/arm-none-eabi-gcc/10.3-2021.07/gcc/arm-none-eabi/include/c++/10.3.1/bits/stl_algobase.h ****     };
 430:/opt/homebrew/Cellar/arm-none-eabi-gcc/10.3-2021.07/gcc/arm-none-eabi/include/c++/10.3.1/bits/stl_algobase.h **** 
 431:/opt/homebrew/Cellar/arm-none-eabi-gcc/10.3-2021.07/gcc/arm-none-eabi/include/c++/10.3.1/bits/stl_algobase.h ****   // Helpers for streambuf iterators (either istream or ostream).
 432:/opt/homebrew/Cellar/arm-none-eabi-gcc/10.3-2021.07/gcc/arm-none-eabi/include/c++/10.3.1/bits/stl_algobase.h ****   // NB: avoid including <iosfwd>, relatively large.
 433:/opt/homebrew/Cellar/arm-none-eabi-gcc/10.3-2021.07/gcc/arm-none-eabi/include/c++/10.3.1/bits/stl_algobase.h ****   template<typename _CharT>
 434:/opt/homebrew/Cellar/arm-none-eabi-gcc/10.3-2021.07/gcc/arm-none-eabi/include/c++/10.3.1/bits/stl_algobase.h ****     struct char_traits;
 435:/opt/homebrew/Cellar/arm-none-eabi-gcc/10.3-2021.07/gcc/arm-none-eabi/include/c++/10.3.1/bits/stl_algobase.h **** 
 436:/opt/homebrew/Cellar/arm-none-eabi-gcc/10.3-2021.07/gcc/arm-none-eabi/include/c++/10.3.1/bits/stl_algobase.h ****   template<typename _CharT, typename _Traits>
 437:/opt/homebrew/Cellar/arm-none-eabi-gcc/10.3-2021.07/gcc/arm-none-eabi/include/c++/10.3.1/bits/stl_algobase.h ****     class istreambuf_iterator;
 438:/opt/homebrew/Cellar/arm-none-eabi-gcc/10.3-2021.07/gcc/arm-none-eabi/include/c++/10.3.1/bits/stl_algobase.h **** 
 439:/opt/homebrew/Cellar/arm-none-eabi-gcc/10.3-2021.07/gcc/arm-none-eabi/include/c++/10.3.1/bits/stl_algobase.h ****   template<typename _CharT, typename _Traits>
 440:/opt/homebrew/Cellar/arm-none-eabi-gcc/10.3-2021.07/gcc/arm-none-eabi/include/c++/10.3.1/bits/stl_algobase.h ****     class ostreambuf_iterator;
 441:/opt/homebrew/Cellar/arm-none-eabi-gcc/10.3-2021.07/gcc/arm-none-eabi/include/c++/10.3.1/bits/stl_algobase.h **** 
 442:/opt/homebrew/Cellar/arm-none-eabi-gcc/10.3-2021.07/gcc/arm-none-eabi/include/c++/10.3.1/bits/stl_algobase.h ****   template<bool _IsMove, typename _CharT>
 443:/opt/homebrew/Cellar/arm-none-eabi-gcc/10.3-2021.07/gcc/arm-none-eabi/include/c++/10.3.1/bits/stl_algobase.h ****     typename __gnu_cxx::__enable_if<__is_char<_CharT>::__value,
 444:/opt/homebrew/Cellar/arm-none-eabi-gcc/10.3-2021.07/gcc/arm-none-eabi/include/c++/10.3.1/bits/stl_algobase.h **** 	     ostreambuf_iterator<_CharT, char_traits<_CharT> > >::__type
 445:/opt/homebrew/Cellar/arm-none-eabi-gcc/10.3-2021.07/gcc/arm-none-eabi/include/c++/10.3.1/bits/stl_algobase.h ****     __copy_move_a2(_CharT*, _CharT*,
 446:/opt/homebrew/Cellar/arm-none-eabi-gcc/10.3-2021.07/gcc/arm-none-eabi/include/c++/10.3.1/bits/stl_algobase.h **** 		   ostreambuf_iterator<_CharT, char_traits<_CharT> >);
 447:/opt/homebrew/Cellar/arm-none-eabi-gcc/10.3-2021.07/gcc/arm-none-eabi/include/c++/10.3.1/bits/stl_algobase.h **** 
 448:/opt/homebrew/Cellar/arm-none-eabi-gcc/10.3-2021.07/gcc/arm-none-eabi/include/c++/10.3.1/bits/stl_algobase.h ****   template<bool _IsMove, typename _CharT>
 449:/opt/homebrew/Cellar/arm-none-eabi-gcc/10.3-2021.07/gcc/arm-none-eabi/include/c++/10.3.1/bits/stl_algobase.h ****     typename __gnu_cxx::__enable_if<__is_char<_CharT>::__value,
 450:/opt/homebrew/Cellar/arm-none-eabi-gcc/10.3-2021.07/gcc/arm-none-eabi/include/c++/10.3.1/bits/stl_algobase.h **** 	     ostreambuf_iterator<_CharT, char_traits<_CharT> > >::__type
 451:/opt/homebrew/Cellar/arm-none-eabi-gcc/10.3-2021.07/gcc/arm-none-eabi/include/c++/10.3.1/bits/stl_algobase.h ****     __copy_move_a2(const _CharT*, const _CharT*,
 452:/opt/homebrew/Cellar/arm-none-eabi-gcc/10.3-2021.07/gcc/arm-none-eabi/include/c++/10.3.1/bits/stl_algobase.h **** 		   ostreambuf_iterator<_CharT, char_traits<_CharT> >);
 453:/opt/homebrew/Cellar/arm-none-eabi-gcc/10.3-2021.07/gcc/arm-none-eabi/include/c++/10.3.1/bits/stl_algobase.h **** 
 454:/opt/homebrew/Cellar/arm-none-eabi-gcc/10.3-2021.07/gcc/arm-none-eabi/include/c++/10.3.1/bits/stl_algobase.h ****   template<bool _IsMove, typename _CharT>
 455:/opt/homebrew/Cellar/arm-none-eabi-gcc/10.3-2021.07/gcc/arm-none-eabi/include/c++/10.3.1/bits/stl_algobase.h ****     typename __gnu_cxx::__enable_if<__is_char<_CharT>::__value,
 456:/opt/homebrew/Cellar/arm-none-eabi-gcc/10.3-2021.07/gcc/arm-none-eabi/include/c++/10.3.1/bits/stl_algobase.h **** 				    _CharT*>::__type
 457:/opt/homebrew/Cellar/arm-none-eabi-gcc/10.3-2021.07/gcc/arm-none-eabi/include/c++/10.3.1/bits/stl_algobase.h ****     __copy_move_a2(istreambuf_iterator<_CharT, char_traits<_CharT> >,
 458:/opt/homebrew/Cellar/arm-none-eabi-gcc/10.3-2021.07/gcc/arm-none-eabi/include/c++/10.3.1/bits/stl_algobase.h **** 		   istreambuf_iterator<_CharT, char_traits<_CharT> >, _CharT*);
 459:/opt/homebrew/Cellar/arm-none-eabi-gcc/10.3-2021.07/gcc/arm-none-eabi/include/c++/10.3.1/bits/stl_algobase.h **** 
 460:/opt/homebrew/Cellar/arm-none-eabi-gcc/10.3-2021.07/gcc/arm-none-eabi/include/c++/10.3.1/bits/stl_algobase.h ****   template<bool _IsMove, typename _II, typename _OI>
 461:/opt/homebrew/Cellar/arm-none-eabi-gcc/10.3-2021.07/gcc/arm-none-eabi/include/c++/10.3.1/bits/stl_algobase.h ****     _GLIBCXX20_CONSTEXPR
 462:/opt/homebrew/Cellar/arm-none-eabi-gcc/10.3-2021.07/gcc/arm-none-eabi/include/c++/10.3.1/bits/stl_algobase.h ****     inline _OI
 463:/opt/homebrew/Cellar/arm-none-eabi-gcc/10.3-2021.07/gcc/arm-none-eabi/include/c++/10.3.1/bits/stl_algobase.h ****     __copy_move_a2(_II __first, _II __last, _OI __result)
 464:/opt/homebrew/Cellar/arm-none-eabi-gcc/10.3-2021.07/gcc/arm-none-eabi/include/c++/10.3.1/bits/stl_algobase.h ****     {
 465:/opt/homebrew/Cellar/arm-none-eabi-gcc/10.3-2021.07/gcc/arm-none-eabi/include/c++/10.3.1/bits/stl_algobase.h ****       typedef typename iterator_traits<_II>::iterator_category _Category;
 466:/opt/homebrew/Cellar/arm-none-eabi-gcc/10.3-2021.07/gcc/arm-none-eabi/include/c++/10.3.1/bits/stl_algobase.h **** #ifdef __cpp_lib_is_constant_evaluated
 467:/opt/homebrew/Cellar/arm-none-eabi-gcc/10.3-2021.07/gcc/arm-none-eabi/include/c++/10.3.1/bits/stl_algobase.h ****       if (std::is_constant_evaluated())
 468:/opt/homebrew/Cellar/arm-none-eabi-gcc/10.3-2021.07/gcc/arm-none-eabi/include/c++/10.3.1/bits/stl_algobase.h **** 	return std::__copy_move<_IsMove, false, _Category>::
 469:/opt/homebrew/Cellar/arm-none-eabi-gcc/10.3-2021.07/gcc/arm-none-eabi/include/c++/10.3.1/bits/stl_algobase.h **** 	  __copy_m(__first, __last, __result);
 470:/opt/homebrew/Cellar/arm-none-eabi-gcc/10.3-2021.07/gcc/arm-none-eabi/include/c++/10.3.1/bits/stl_algobase.h **** #endif
 471:/opt/homebrew/Cellar/arm-none-eabi-gcc/10.3-2021.07/gcc/arm-none-eabi/include/c++/10.3.1/bits/stl_algobase.h ****       return std::__copy_move<_IsMove, __memcpyable<_OI, _II>::__value,
 472:/opt/homebrew/Cellar/arm-none-eabi-gcc/10.3-2021.07/gcc/arm-none-eabi/include/c++/10.3.1/bits/stl_algobase.h **** 			      _Category>::__copy_m(__first, __last, __result);
 473:/opt/homebrew/Cellar/arm-none-eabi-gcc/10.3-2021.07/gcc/arm-none-eabi/include/c++/10.3.1/bits/stl_algobase.h ****     }
 474:/opt/homebrew/Cellar/arm-none-eabi-gcc/10.3-2021.07/gcc/arm-none-eabi/include/c++/10.3.1/bits/stl_algobase.h **** 
 475:/opt/homebrew/Cellar/arm-none-eabi-gcc/10.3-2021.07/gcc/arm-none-eabi/include/c++/10.3.1/bits/stl_algobase.h **** _GLIBCXX_BEGIN_NAMESPACE_CONTAINER
 476:/opt/homebrew/Cellar/arm-none-eabi-gcc/10.3-2021.07/gcc/arm-none-eabi/include/c++/10.3.1/bits/stl_algobase.h **** 
 477:/opt/homebrew/Cellar/arm-none-eabi-gcc/10.3-2021.07/gcc/arm-none-eabi/include/c++/10.3.1/bits/stl_algobase.h ****   template<typename _Tp, typename _Ref, typename _Ptr>
ARM GAS  /var/folders/hl/qgbwny5j0fd895c2c41bk3tw0000gp/T//ccTuF2qj.s 			page 12


 478:/opt/homebrew/Cellar/arm-none-eabi-gcc/10.3-2021.07/gcc/arm-none-eabi/include/c++/10.3.1/bits/stl_algobase.h ****     struct _Deque_iterator;
 479:/opt/homebrew/Cellar/arm-none-eabi-gcc/10.3-2021.07/gcc/arm-none-eabi/include/c++/10.3.1/bits/stl_algobase.h **** 
 480:/opt/homebrew/Cellar/arm-none-eabi-gcc/10.3-2021.07/gcc/arm-none-eabi/include/c++/10.3.1/bits/stl_algobase.h **** _GLIBCXX_END_NAMESPACE_CONTAINER
 481:/opt/homebrew/Cellar/arm-none-eabi-gcc/10.3-2021.07/gcc/arm-none-eabi/include/c++/10.3.1/bits/stl_algobase.h **** 
 482:/opt/homebrew/Cellar/arm-none-eabi-gcc/10.3-2021.07/gcc/arm-none-eabi/include/c++/10.3.1/bits/stl_algobase.h ****   template<bool _IsMove,
 483:/opt/homebrew/Cellar/arm-none-eabi-gcc/10.3-2021.07/gcc/arm-none-eabi/include/c++/10.3.1/bits/stl_algobase.h **** 	   typename _Tp, typename _Ref, typename _Ptr, typename _OI>
 484:/opt/homebrew/Cellar/arm-none-eabi-gcc/10.3-2021.07/gcc/arm-none-eabi/include/c++/10.3.1/bits/stl_algobase.h ****     _OI
 485:/opt/homebrew/Cellar/arm-none-eabi-gcc/10.3-2021.07/gcc/arm-none-eabi/include/c++/10.3.1/bits/stl_algobase.h ****     __copy_move_a1(_GLIBCXX_STD_C::_Deque_iterator<_Tp, _Ref, _Ptr>,
 486:/opt/homebrew/Cellar/arm-none-eabi-gcc/10.3-2021.07/gcc/arm-none-eabi/include/c++/10.3.1/bits/stl_algobase.h **** 		   _GLIBCXX_STD_C::_Deque_iterator<_Tp, _Ref, _Ptr>,
 487:/opt/homebrew/Cellar/arm-none-eabi-gcc/10.3-2021.07/gcc/arm-none-eabi/include/c++/10.3.1/bits/stl_algobase.h **** 		   _OI);
 488:/opt/homebrew/Cellar/arm-none-eabi-gcc/10.3-2021.07/gcc/arm-none-eabi/include/c++/10.3.1/bits/stl_algobase.h **** 
 489:/opt/homebrew/Cellar/arm-none-eabi-gcc/10.3-2021.07/gcc/arm-none-eabi/include/c++/10.3.1/bits/stl_algobase.h ****   template<bool _IsMove,
 490:/opt/homebrew/Cellar/arm-none-eabi-gcc/10.3-2021.07/gcc/arm-none-eabi/include/c++/10.3.1/bits/stl_algobase.h **** 	   typename _ITp, typename _IRef, typename _IPtr, typename _OTp>
 491:/opt/homebrew/Cellar/arm-none-eabi-gcc/10.3-2021.07/gcc/arm-none-eabi/include/c++/10.3.1/bits/stl_algobase.h ****     _GLIBCXX_STD_C::_Deque_iterator<_OTp, _OTp&, _OTp*>
 492:/opt/homebrew/Cellar/arm-none-eabi-gcc/10.3-2021.07/gcc/arm-none-eabi/include/c++/10.3.1/bits/stl_algobase.h ****     __copy_move_a1(_GLIBCXX_STD_C::_Deque_iterator<_ITp, _IRef, _IPtr>,
 493:/opt/homebrew/Cellar/arm-none-eabi-gcc/10.3-2021.07/gcc/arm-none-eabi/include/c++/10.3.1/bits/stl_algobase.h **** 		   _GLIBCXX_STD_C::_Deque_iterator<_ITp, _IRef, _IPtr>,
 494:/opt/homebrew/Cellar/arm-none-eabi-gcc/10.3-2021.07/gcc/arm-none-eabi/include/c++/10.3.1/bits/stl_algobase.h **** 		   _GLIBCXX_STD_C::_Deque_iterator<_OTp, _OTp&, _OTp*>);
 495:/opt/homebrew/Cellar/arm-none-eabi-gcc/10.3-2021.07/gcc/arm-none-eabi/include/c++/10.3.1/bits/stl_algobase.h **** 
 496:/opt/homebrew/Cellar/arm-none-eabi-gcc/10.3-2021.07/gcc/arm-none-eabi/include/c++/10.3.1/bits/stl_algobase.h ****   template<bool _IsMove, typename _II, typename _Tp>
 497:/opt/homebrew/Cellar/arm-none-eabi-gcc/10.3-2021.07/gcc/arm-none-eabi/include/c++/10.3.1/bits/stl_algobase.h ****     typename __gnu_cxx::__enable_if<
 498:/opt/homebrew/Cellar/arm-none-eabi-gcc/10.3-2021.07/gcc/arm-none-eabi/include/c++/10.3.1/bits/stl_algobase.h ****       __is_random_access_iter<_II>::__value,
 499:/opt/homebrew/Cellar/arm-none-eabi-gcc/10.3-2021.07/gcc/arm-none-eabi/include/c++/10.3.1/bits/stl_algobase.h ****       _GLIBCXX_STD_C::_Deque_iterator<_Tp, _Tp&, _Tp*> >::__type
 500:/opt/homebrew/Cellar/arm-none-eabi-gcc/10.3-2021.07/gcc/arm-none-eabi/include/c++/10.3.1/bits/stl_algobase.h ****     __copy_move_a1(_II, _II, _GLIBCXX_STD_C::_Deque_iterator<_Tp, _Tp&, _Tp*>);
 501:/opt/homebrew/Cellar/arm-none-eabi-gcc/10.3-2021.07/gcc/arm-none-eabi/include/c++/10.3.1/bits/stl_algobase.h **** 
 502:/opt/homebrew/Cellar/arm-none-eabi-gcc/10.3-2021.07/gcc/arm-none-eabi/include/c++/10.3.1/bits/stl_algobase.h ****   template<bool _IsMove, typename _II, typename _OI>
 503:/opt/homebrew/Cellar/arm-none-eabi-gcc/10.3-2021.07/gcc/arm-none-eabi/include/c++/10.3.1/bits/stl_algobase.h ****     _GLIBCXX20_CONSTEXPR
 504:/opt/homebrew/Cellar/arm-none-eabi-gcc/10.3-2021.07/gcc/arm-none-eabi/include/c++/10.3.1/bits/stl_algobase.h ****     inline _OI
 505:/opt/homebrew/Cellar/arm-none-eabi-gcc/10.3-2021.07/gcc/arm-none-eabi/include/c++/10.3.1/bits/stl_algobase.h ****     __copy_move_a1(_II __first, _II __last, _OI __result)
 506:/opt/homebrew/Cellar/arm-none-eabi-gcc/10.3-2021.07/gcc/arm-none-eabi/include/c++/10.3.1/bits/stl_algobase.h ****     { return std::__copy_move_a2<_IsMove>(__first, __last, __result); }
 507:/opt/homebrew/Cellar/arm-none-eabi-gcc/10.3-2021.07/gcc/arm-none-eabi/include/c++/10.3.1/bits/stl_algobase.h **** 
 508:/opt/homebrew/Cellar/arm-none-eabi-gcc/10.3-2021.07/gcc/arm-none-eabi/include/c++/10.3.1/bits/stl_algobase.h ****   template<bool _IsMove, typename _II, typename _OI>
 509:/opt/homebrew/Cellar/arm-none-eabi-gcc/10.3-2021.07/gcc/arm-none-eabi/include/c++/10.3.1/bits/stl_algobase.h ****     _GLIBCXX20_CONSTEXPR
 510:/opt/homebrew/Cellar/arm-none-eabi-gcc/10.3-2021.07/gcc/arm-none-eabi/include/c++/10.3.1/bits/stl_algobase.h ****     inline _OI
 511:/opt/homebrew/Cellar/arm-none-eabi-gcc/10.3-2021.07/gcc/arm-none-eabi/include/c++/10.3.1/bits/stl_algobase.h ****     __copy_move_a(_II __first, _II __last, _OI __result)
 512:/opt/homebrew/Cellar/arm-none-eabi-gcc/10.3-2021.07/gcc/arm-none-eabi/include/c++/10.3.1/bits/stl_algobase.h ****     {
 513:/opt/homebrew/Cellar/arm-none-eabi-gcc/10.3-2021.07/gcc/arm-none-eabi/include/c++/10.3.1/bits/stl_algobase.h ****       return std::__niter_wrap(__result,
 514:/opt/homebrew/Cellar/arm-none-eabi-gcc/10.3-2021.07/gcc/arm-none-eabi/include/c++/10.3.1/bits/stl_algobase.h **** 		std::__copy_move_a1<_IsMove>(std::__niter_base(__first),
 515:/opt/homebrew/Cellar/arm-none-eabi-gcc/10.3-2021.07/gcc/arm-none-eabi/include/c++/10.3.1/bits/stl_algobase.h **** 					     std::__niter_base(__last),
 516:/opt/homebrew/Cellar/arm-none-eabi-gcc/10.3-2021.07/gcc/arm-none-eabi/include/c++/10.3.1/bits/stl_algobase.h **** 					     std::__niter_base(__result)));
 517:/opt/homebrew/Cellar/arm-none-eabi-gcc/10.3-2021.07/gcc/arm-none-eabi/include/c++/10.3.1/bits/stl_algobase.h ****     }
 518:/opt/homebrew/Cellar/arm-none-eabi-gcc/10.3-2021.07/gcc/arm-none-eabi/include/c++/10.3.1/bits/stl_algobase.h **** 
 519:/opt/homebrew/Cellar/arm-none-eabi-gcc/10.3-2021.07/gcc/arm-none-eabi/include/c++/10.3.1/bits/stl_algobase.h ****   template<bool _IsMove,
 520:/opt/homebrew/Cellar/arm-none-eabi-gcc/10.3-2021.07/gcc/arm-none-eabi/include/c++/10.3.1/bits/stl_algobase.h **** 	   typename _Ite, typename _Seq, typename _Cat, typename _OI>
 521:/opt/homebrew/Cellar/arm-none-eabi-gcc/10.3-2021.07/gcc/arm-none-eabi/include/c++/10.3.1/bits/stl_algobase.h ****     _OI
 522:/opt/homebrew/Cellar/arm-none-eabi-gcc/10.3-2021.07/gcc/arm-none-eabi/include/c++/10.3.1/bits/stl_algobase.h ****     __copy_move_a(const ::__gnu_debug::_Safe_iterator<_Ite, _Seq, _Cat>&,
 523:/opt/homebrew/Cellar/arm-none-eabi-gcc/10.3-2021.07/gcc/arm-none-eabi/include/c++/10.3.1/bits/stl_algobase.h **** 		  const ::__gnu_debug::_Safe_iterator<_Ite, _Seq, _Cat>&,
 524:/opt/homebrew/Cellar/arm-none-eabi-gcc/10.3-2021.07/gcc/arm-none-eabi/include/c++/10.3.1/bits/stl_algobase.h **** 		  _OI);
 525:/opt/homebrew/Cellar/arm-none-eabi-gcc/10.3-2021.07/gcc/arm-none-eabi/include/c++/10.3.1/bits/stl_algobase.h **** 
 526:/opt/homebrew/Cellar/arm-none-eabi-gcc/10.3-2021.07/gcc/arm-none-eabi/include/c++/10.3.1/bits/stl_algobase.h ****   template<bool _IsMove,
 527:/opt/homebrew/Cellar/arm-none-eabi-gcc/10.3-2021.07/gcc/arm-none-eabi/include/c++/10.3.1/bits/stl_algobase.h **** 	   typename _II, typename _Ite, typename _Seq, typename _Cat>
 528:/opt/homebrew/Cellar/arm-none-eabi-gcc/10.3-2021.07/gcc/arm-none-eabi/include/c++/10.3.1/bits/stl_algobase.h ****     __gnu_debug::_Safe_iterator<_Ite, _Seq, _Cat>
 529:/opt/homebrew/Cellar/arm-none-eabi-gcc/10.3-2021.07/gcc/arm-none-eabi/include/c++/10.3.1/bits/stl_algobase.h ****     __copy_move_a(_II, _II,
 530:/opt/homebrew/Cellar/arm-none-eabi-gcc/10.3-2021.07/gcc/arm-none-eabi/include/c++/10.3.1/bits/stl_algobase.h **** 		  const ::__gnu_debug::_Safe_iterator<_Ite, _Seq, _Cat>&);
 531:/opt/homebrew/Cellar/arm-none-eabi-gcc/10.3-2021.07/gcc/arm-none-eabi/include/c++/10.3.1/bits/stl_algobase.h **** 
 532:/opt/homebrew/Cellar/arm-none-eabi-gcc/10.3-2021.07/gcc/arm-none-eabi/include/c++/10.3.1/bits/stl_algobase.h ****   template<bool _IsMove,
 533:/opt/homebrew/Cellar/arm-none-eabi-gcc/10.3-2021.07/gcc/arm-none-eabi/include/c++/10.3.1/bits/stl_algobase.h **** 	   typename _IIte, typename _ISeq, typename _ICat,
 534:/opt/homebrew/Cellar/arm-none-eabi-gcc/10.3-2021.07/gcc/arm-none-eabi/include/c++/10.3.1/bits/stl_algobase.h **** 	   typename _OIte, typename _OSeq, typename _OCat>
ARM GAS  /var/folders/hl/qgbwny5j0fd895c2c41bk3tw0000gp/T//ccTuF2qj.s 			page 13


 535:/opt/homebrew/Cellar/arm-none-eabi-gcc/10.3-2021.07/gcc/arm-none-eabi/include/c++/10.3.1/bits/stl_algobase.h ****     ::__gnu_debug::_Safe_iterator<_OIte, _OSeq, _OCat>
 536:/opt/homebrew/Cellar/arm-none-eabi-gcc/10.3-2021.07/gcc/arm-none-eabi/include/c++/10.3.1/bits/stl_algobase.h ****     __copy_move_a(const ::__gnu_debug::_Safe_iterator<_IIte, _ISeq, _ICat>&,
 537:/opt/homebrew/Cellar/arm-none-eabi-gcc/10.3-2021.07/gcc/arm-none-eabi/include/c++/10.3.1/bits/stl_algobase.h **** 		  const ::__gnu_debug::_Safe_iterator<_IIte, _ISeq, _ICat>&,
 538:/opt/homebrew/Cellar/arm-none-eabi-gcc/10.3-2021.07/gcc/arm-none-eabi/include/c++/10.3.1/bits/stl_algobase.h **** 		  const ::__gnu_debug::_Safe_iterator<_OIte, _OSeq, _OCat>&);
 539:/opt/homebrew/Cellar/arm-none-eabi-gcc/10.3-2021.07/gcc/arm-none-eabi/include/c++/10.3.1/bits/stl_algobase.h **** 
 540:/opt/homebrew/Cellar/arm-none-eabi-gcc/10.3-2021.07/gcc/arm-none-eabi/include/c++/10.3.1/bits/stl_algobase.h ****   /**
 541:/opt/homebrew/Cellar/arm-none-eabi-gcc/10.3-2021.07/gcc/arm-none-eabi/include/c++/10.3.1/bits/stl_algobase.h ****    *  @brief Copies the range [first,last) into result.
 542:/opt/homebrew/Cellar/arm-none-eabi-gcc/10.3-2021.07/gcc/arm-none-eabi/include/c++/10.3.1/bits/stl_algobase.h ****    *  @ingroup mutating_algorithms
 543:/opt/homebrew/Cellar/arm-none-eabi-gcc/10.3-2021.07/gcc/arm-none-eabi/include/c++/10.3.1/bits/stl_algobase.h ****    *  @param  __first  An input iterator.
 544:/opt/homebrew/Cellar/arm-none-eabi-gcc/10.3-2021.07/gcc/arm-none-eabi/include/c++/10.3.1/bits/stl_algobase.h ****    *  @param  __last   An input iterator.
 545:/opt/homebrew/Cellar/arm-none-eabi-gcc/10.3-2021.07/gcc/arm-none-eabi/include/c++/10.3.1/bits/stl_algobase.h ****    *  @param  __result An output iterator.
 546:/opt/homebrew/Cellar/arm-none-eabi-gcc/10.3-2021.07/gcc/arm-none-eabi/include/c++/10.3.1/bits/stl_algobase.h ****    *  @return   result + (last - first)
 547:/opt/homebrew/Cellar/arm-none-eabi-gcc/10.3-2021.07/gcc/arm-none-eabi/include/c++/10.3.1/bits/stl_algobase.h ****    *
 548:/opt/homebrew/Cellar/arm-none-eabi-gcc/10.3-2021.07/gcc/arm-none-eabi/include/c++/10.3.1/bits/stl_algobase.h ****    *  This inline function will boil down to a call to @c memmove whenever
 549:/opt/homebrew/Cellar/arm-none-eabi-gcc/10.3-2021.07/gcc/arm-none-eabi/include/c++/10.3.1/bits/stl_algobase.h ****    *  possible.  Failing that, if random access iterators are passed, then the
 550:/opt/homebrew/Cellar/arm-none-eabi-gcc/10.3-2021.07/gcc/arm-none-eabi/include/c++/10.3.1/bits/stl_algobase.h ****    *  loop count will be known (and therefore a candidate for compiler
 551:/opt/homebrew/Cellar/arm-none-eabi-gcc/10.3-2021.07/gcc/arm-none-eabi/include/c++/10.3.1/bits/stl_algobase.h ****    *  optimizations such as unrolling).  Result may not be contained within
 552:/opt/homebrew/Cellar/arm-none-eabi-gcc/10.3-2021.07/gcc/arm-none-eabi/include/c++/10.3.1/bits/stl_algobase.h ****    *  [first,last); the copy_backward function should be used instead.
 553:/opt/homebrew/Cellar/arm-none-eabi-gcc/10.3-2021.07/gcc/arm-none-eabi/include/c++/10.3.1/bits/stl_algobase.h ****    *
 554:/opt/homebrew/Cellar/arm-none-eabi-gcc/10.3-2021.07/gcc/arm-none-eabi/include/c++/10.3.1/bits/stl_algobase.h ****    *  Note that the end of the output range is permitted to be contained
 555:/opt/homebrew/Cellar/arm-none-eabi-gcc/10.3-2021.07/gcc/arm-none-eabi/include/c++/10.3.1/bits/stl_algobase.h ****    *  within [first,last).
 556:/opt/homebrew/Cellar/arm-none-eabi-gcc/10.3-2021.07/gcc/arm-none-eabi/include/c++/10.3.1/bits/stl_algobase.h ****   */
 557:/opt/homebrew/Cellar/arm-none-eabi-gcc/10.3-2021.07/gcc/arm-none-eabi/include/c++/10.3.1/bits/stl_algobase.h ****   template<typename _II, typename _OI>
 558:/opt/homebrew/Cellar/arm-none-eabi-gcc/10.3-2021.07/gcc/arm-none-eabi/include/c++/10.3.1/bits/stl_algobase.h ****     _GLIBCXX20_CONSTEXPR
 559:/opt/homebrew/Cellar/arm-none-eabi-gcc/10.3-2021.07/gcc/arm-none-eabi/include/c++/10.3.1/bits/stl_algobase.h ****     inline _OI
 560:/opt/homebrew/Cellar/arm-none-eabi-gcc/10.3-2021.07/gcc/arm-none-eabi/include/c++/10.3.1/bits/stl_algobase.h ****     copy(_II __first, _II __last, _OI __result)
 561:/opt/homebrew/Cellar/arm-none-eabi-gcc/10.3-2021.07/gcc/arm-none-eabi/include/c++/10.3.1/bits/stl_algobase.h ****     {
 562:/opt/homebrew/Cellar/arm-none-eabi-gcc/10.3-2021.07/gcc/arm-none-eabi/include/c++/10.3.1/bits/stl_algobase.h ****       // concept requirements
 563:/opt/homebrew/Cellar/arm-none-eabi-gcc/10.3-2021.07/gcc/arm-none-eabi/include/c++/10.3.1/bits/stl_algobase.h ****       __glibcxx_function_requires(_InputIteratorConcept<_II>)
 564:/opt/homebrew/Cellar/arm-none-eabi-gcc/10.3-2021.07/gcc/arm-none-eabi/include/c++/10.3.1/bits/stl_algobase.h ****       __glibcxx_function_requires(_OutputIteratorConcept<_OI,
 565:/opt/homebrew/Cellar/arm-none-eabi-gcc/10.3-2021.07/gcc/arm-none-eabi/include/c++/10.3.1/bits/stl_algobase.h **** 	    typename iterator_traits<_II>::value_type>)
 566:/opt/homebrew/Cellar/arm-none-eabi-gcc/10.3-2021.07/gcc/arm-none-eabi/include/c++/10.3.1/bits/stl_algobase.h ****       __glibcxx_requires_can_increment_range(__first, __last, __result);
 567:/opt/homebrew/Cellar/arm-none-eabi-gcc/10.3-2021.07/gcc/arm-none-eabi/include/c++/10.3.1/bits/stl_algobase.h **** 
 568:/opt/homebrew/Cellar/arm-none-eabi-gcc/10.3-2021.07/gcc/arm-none-eabi/include/c++/10.3.1/bits/stl_algobase.h ****       return std::__copy_move_a<__is_move_iterator<_II>::__value>
 569:/opt/homebrew/Cellar/arm-none-eabi-gcc/10.3-2021.07/gcc/arm-none-eabi/include/c++/10.3.1/bits/stl_algobase.h **** 	     (std::__miter_base(__first), std::__miter_base(__last), __result);
 570:/opt/homebrew/Cellar/arm-none-eabi-gcc/10.3-2021.07/gcc/arm-none-eabi/include/c++/10.3.1/bits/stl_algobase.h ****     }
 571:/opt/homebrew/Cellar/arm-none-eabi-gcc/10.3-2021.07/gcc/arm-none-eabi/include/c++/10.3.1/bits/stl_algobase.h **** 
 572:/opt/homebrew/Cellar/arm-none-eabi-gcc/10.3-2021.07/gcc/arm-none-eabi/include/c++/10.3.1/bits/stl_algobase.h **** #if __cplusplus >= 201103L
 573:/opt/homebrew/Cellar/arm-none-eabi-gcc/10.3-2021.07/gcc/arm-none-eabi/include/c++/10.3.1/bits/stl_algobase.h ****   /**
 574:/opt/homebrew/Cellar/arm-none-eabi-gcc/10.3-2021.07/gcc/arm-none-eabi/include/c++/10.3.1/bits/stl_algobase.h ****    *  @brief Moves the range [first,last) into result.
 575:/opt/homebrew/Cellar/arm-none-eabi-gcc/10.3-2021.07/gcc/arm-none-eabi/include/c++/10.3.1/bits/stl_algobase.h ****    *  @ingroup mutating_algorithms
 576:/opt/homebrew/Cellar/arm-none-eabi-gcc/10.3-2021.07/gcc/arm-none-eabi/include/c++/10.3.1/bits/stl_algobase.h ****    *  @param  __first  An input iterator.
 577:/opt/homebrew/Cellar/arm-none-eabi-gcc/10.3-2021.07/gcc/arm-none-eabi/include/c++/10.3.1/bits/stl_algobase.h ****    *  @param  __last   An input iterator.
 578:/opt/homebrew/Cellar/arm-none-eabi-gcc/10.3-2021.07/gcc/arm-none-eabi/include/c++/10.3.1/bits/stl_algobase.h ****    *  @param  __result An output iterator.
 579:/opt/homebrew/Cellar/arm-none-eabi-gcc/10.3-2021.07/gcc/arm-none-eabi/include/c++/10.3.1/bits/stl_algobase.h ****    *  @return   result + (last - first)
 580:/opt/homebrew/Cellar/arm-none-eabi-gcc/10.3-2021.07/gcc/arm-none-eabi/include/c++/10.3.1/bits/stl_algobase.h ****    *
 581:/opt/homebrew/Cellar/arm-none-eabi-gcc/10.3-2021.07/gcc/arm-none-eabi/include/c++/10.3.1/bits/stl_algobase.h ****    *  This inline function will boil down to a call to @c memmove whenever
 582:/opt/homebrew/Cellar/arm-none-eabi-gcc/10.3-2021.07/gcc/arm-none-eabi/include/c++/10.3.1/bits/stl_algobase.h ****    *  possible.  Failing that, if random access iterators are passed, then the
 583:/opt/homebrew/Cellar/arm-none-eabi-gcc/10.3-2021.07/gcc/arm-none-eabi/include/c++/10.3.1/bits/stl_algobase.h ****    *  loop count will be known (and therefore a candidate for compiler
 584:/opt/homebrew/Cellar/arm-none-eabi-gcc/10.3-2021.07/gcc/arm-none-eabi/include/c++/10.3.1/bits/stl_algobase.h ****    *  optimizations such as unrolling).  Result may not be contained within
 585:/opt/homebrew/Cellar/arm-none-eabi-gcc/10.3-2021.07/gcc/arm-none-eabi/include/c++/10.3.1/bits/stl_algobase.h ****    *  [first,last); the move_backward function should be used instead.
 586:/opt/homebrew/Cellar/arm-none-eabi-gcc/10.3-2021.07/gcc/arm-none-eabi/include/c++/10.3.1/bits/stl_algobase.h ****    *
 587:/opt/homebrew/Cellar/arm-none-eabi-gcc/10.3-2021.07/gcc/arm-none-eabi/include/c++/10.3.1/bits/stl_algobase.h ****    *  Note that the end of the output range is permitted to be contained
 588:/opt/homebrew/Cellar/arm-none-eabi-gcc/10.3-2021.07/gcc/arm-none-eabi/include/c++/10.3.1/bits/stl_algobase.h ****    *  within [first,last).
 589:/opt/homebrew/Cellar/arm-none-eabi-gcc/10.3-2021.07/gcc/arm-none-eabi/include/c++/10.3.1/bits/stl_algobase.h ****   */
 590:/opt/homebrew/Cellar/arm-none-eabi-gcc/10.3-2021.07/gcc/arm-none-eabi/include/c++/10.3.1/bits/stl_algobase.h ****   template<typename _II, typename _OI>
 591:/opt/homebrew/Cellar/arm-none-eabi-gcc/10.3-2021.07/gcc/arm-none-eabi/include/c++/10.3.1/bits/stl_algobase.h ****     _GLIBCXX20_CONSTEXPR
ARM GAS  /var/folders/hl/qgbwny5j0fd895c2c41bk3tw0000gp/T//ccTuF2qj.s 			page 14


 592:/opt/homebrew/Cellar/arm-none-eabi-gcc/10.3-2021.07/gcc/arm-none-eabi/include/c++/10.3.1/bits/stl_algobase.h ****     inline _OI
 593:/opt/homebrew/Cellar/arm-none-eabi-gcc/10.3-2021.07/gcc/arm-none-eabi/include/c++/10.3.1/bits/stl_algobase.h ****     move(_II __first, _II __last, _OI __result)
 594:/opt/homebrew/Cellar/arm-none-eabi-gcc/10.3-2021.07/gcc/arm-none-eabi/include/c++/10.3.1/bits/stl_algobase.h ****     {
 595:/opt/homebrew/Cellar/arm-none-eabi-gcc/10.3-2021.07/gcc/arm-none-eabi/include/c++/10.3.1/bits/stl_algobase.h ****       // concept requirements
 596:/opt/homebrew/Cellar/arm-none-eabi-gcc/10.3-2021.07/gcc/arm-none-eabi/include/c++/10.3.1/bits/stl_algobase.h ****       __glibcxx_function_requires(_InputIteratorConcept<_II>)
 597:/opt/homebrew/Cellar/arm-none-eabi-gcc/10.3-2021.07/gcc/arm-none-eabi/include/c++/10.3.1/bits/stl_algobase.h ****       __glibcxx_function_requires(_OutputIteratorConcept<_OI,
 598:/opt/homebrew/Cellar/arm-none-eabi-gcc/10.3-2021.07/gcc/arm-none-eabi/include/c++/10.3.1/bits/stl_algobase.h **** 	    typename iterator_traits<_II>::value_type>)
 599:/opt/homebrew/Cellar/arm-none-eabi-gcc/10.3-2021.07/gcc/arm-none-eabi/include/c++/10.3.1/bits/stl_algobase.h ****       __glibcxx_requires_can_increment_range(__first, __last, __result);
 600:/opt/homebrew/Cellar/arm-none-eabi-gcc/10.3-2021.07/gcc/arm-none-eabi/include/c++/10.3.1/bits/stl_algobase.h **** 
 601:/opt/homebrew/Cellar/arm-none-eabi-gcc/10.3-2021.07/gcc/arm-none-eabi/include/c++/10.3.1/bits/stl_algobase.h ****       return std::__copy_move_a<true>(std::__miter_base(__first),
 602:/opt/homebrew/Cellar/arm-none-eabi-gcc/10.3-2021.07/gcc/arm-none-eabi/include/c++/10.3.1/bits/stl_algobase.h **** 				      std::__miter_base(__last), __result);
 603:/opt/homebrew/Cellar/arm-none-eabi-gcc/10.3-2021.07/gcc/arm-none-eabi/include/c++/10.3.1/bits/stl_algobase.h ****     }
 604:/opt/homebrew/Cellar/arm-none-eabi-gcc/10.3-2021.07/gcc/arm-none-eabi/include/c++/10.3.1/bits/stl_algobase.h **** 
 605:/opt/homebrew/Cellar/arm-none-eabi-gcc/10.3-2021.07/gcc/arm-none-eabi/include/c++/10.3.1/bits/stl_algobase.h **** #define _GLIBCXX_MOVE3(_Tp, _Up, _Vp) std::move(_Tp, _Up, _Vp)
 606:/opt/homebrew/Cellar/arm-none-eabi-gcc/10.3-2021.07/gcc/arm-none-eabi/include/c++/10.3.1/bits/stl_algobase.h **** #else
 607:/opt/homebrew/Cellar/arm-none-eabi-gcc/10.3-2021.07/gcc/arm-none-eabi/include/c++/10.3.1/bits/stl_algobase.h **** #define _GLIBCXX_MOVE3(_Tp, _Up, _Vp) std::copy(_Tp, _Up, _Vp)
 608:/opt/homebrew/Cellar/arm-none-eabi-gcc/10.3-2021.07/gcc/arm-none-eabi/include/c++/10.3.1/bits/stl_algobase.h **** #endif
 609:/opt/homebrew/Cellar/arm-none-eabi-gcc/10.3-2021.07/gcc/arm-none-eabi/include/c++/10.3.1/bits/stl_algobase.h **** 
 610:/opt/homebrew/Cellar/arm-none-eabi-gcc/10.3-2021.07/gcc/arm-none-eabi/include/c++/10.3.1/bits/stl_algobase.h ****   template<bool _IsMove, bool _IsSimple, typename _Category>
 611:/opt/homebrew/Cellar/arm-none-eabi-gcc/10.3-2021.07/gcc/arm-none-eabi/include/c++/10.3.1/bits/stl_algobase.h ****     struct __copy_move_backward
 612:/opt/homebrew/Cellar/arm-none-eabi-gcc/10.3-2021.07/gcc/arm-none-eabi/include/c++/10.3.1/bits/stl_algobase.h ****     {
 613:/opt/homebrew/Cellar/arm-none-eabi-gcc/10.3-2021.07/gcc/arm-none-eabi/include/c++/10.3.1/bits/stl_algobase.h ****       template<typename _BI1, typename _BI2>
 614:/opt/homebrew/Cellar/arm-none-eabi-gcc/10.3-2021.07/gcc/arm-none-eabi/include/c++/10.3.1/bits/stl_algobase.h **** 	_GLIBCXX20_CONSTEXPR
 615:/opt/homebrew/Cellar/arm-none-eabi-gcc/10.3-2021.07/gcc/arm-none-eabi/include/c++/10.3.1/bits/stl_algobase.h **** 	static _BI2
 616:/opt/homebrew/Cellar/arm-none-eabi-gcc/10.3-2021.07/gcc/arm-none-eabi/include/c++/10.3.1/bits/stl_algobase.h **** 	__copy_move_b(_BI1 __first, _BI1 __last, _BI2 __result)
 617:/opt/homebrew/Cellar/arm-none-eabi-gcc/10.3-2021.07/gcc/arm-none-eabi/include/c++/10.3.1/bits/stl_algobase.h **** 	{
 618:/opt/homebrew/Cellar/arm-none-eabi-gcc/10.3-2021.07/gcc/arm-none-eabi/include/c++/10.3.1/bits/stl_algobase.h **** 	  while (__first != __last)
 619:/opt/homebrew/Cellar/arm-none-eabi-gcc/10.3-2021.07/gcc/arm-none-eabi/include/c++/10.3.1/bits/stl_algobase.h **** 	    *--__result = *--__last;
 620:/opt/homebrew/Cellar/arm-none-eabi-gcc/10.3-2021.07/gcc/arm-none-eabi/include/c++/10.3.1/bits/stl_algobase.h **** 	  return __result;
 621:/opt/homebrew/Cellar/arm-none-eabi-gcc/10.3-2021.07/gcc/arm-none-eabi/include/c++/10.3.1/bits/stl_algobase.h **** 	}
 622:/opt/homebrew/Cellar/arm-none-eabi-gcc/10.3-2021.07/gcc/arm-none-eabi/include/c++/10.3.1/bits/stl_algobase.h ****     };
 623:/opt/homebrew/Cellar/arm-none-eabi-gcc/10.3-2021.07/gcc/arm-none-eabi/include/c++/10.3.1/bits/stl_algobase.h **** 
 624:/opt/homebrew/Cellar/arm-none-eabi-gcc/10.3-2021.07/gcc/arm-none-eabi/include/c++/10.3.1/bits/stl_algobase.h **** #if __cplusplus >= 201103L
 625:/opt/homebrew/Cellar/arm-none-eabi-gcc/10.3-2021.07/gcc/arm-none-eabi/include/c++/10.3.1/bits/stl_algobase.h ****   template<typename _Category>
 626:/opt/homebrew/Cellar/arm-none-eabi-gcc/10.3-2021.07/gcc/arm-none-eabi/include/c++/10.3.1/bits/stl_algobase.h ****     struct __copy_move_backward<true, false, _Category>
 627:/opt/homebrew/Cellar/arm-none-eabi-gcc/10.3-2021.07/gcc/arm-none-eabi/include/c++/10.3.1/bits/stl_algobase.h ****     {
 628:/opt/homebrew/Cellar/arm-none-eabi-gcc/10.3-2021.07/gcc/arm-none-eabi/include/c++/10.3.1/bits/stl_algobase.h ****       template<typename _BI1, typename _BI2>
 629:/opt/homebrew/Cellar/arm-none-eabi-gcc/10.3-2021.07/gcc/arm-none-eabi/include/c++/10.3.1/bits/stl_algobase.h **** 	_GLIBCXX20_CONSTEXPR
 630:/opt/homebrew/Cellar/arm-none-eabi-gcc/10.3-2021.07/gcc/arm-none-eabi/include/c++/10.3.1/bits/stl_algobase.h **** 	static _BI2
 631:/opt/homebrew/Cellar/arm-none-eabi-gcc/10.3-2021.07/gcc/arm-none-eabi/include/c++/10.3.1/bits/stl_algobase.h **** 	__copy_move_b(_BI1 __first, _BI1 __last, _BI2 __result)
 632:/opt/homebrew/Cellar/arm-none-eabi-gcc/10.3-2021.07/gcc/arm-none-eabi/include/c++/10.3.1/bits/stl_algobase.h **** 	{
 633:/opt/homebrew/Cellar/arm-none-eabi-gcc/10.3-2021.07/gcc/arm-none-eabi/include/c++/10.3.1/bits/stl_algobase.h **** 	  while (__first != __last)
 634:/opt/homebrew/Cellar/arm-none-eabi-gcc/10.3-2021.07/gcc/arm-none-eabi/include/c++/10.3.1/bits/stl_algobase.h **** 	    *--__result = std::move(*--__last);
 635:/opt/homebrew/Cellar/arm-none-eabi-gcc/10.3-2021.07/gcc/arm-none-eabi/include/c++/10.3.1/bits/stl_algobase.h **** 	  return __result;
 636:/opt/homebrew/Cellar/arm-none-eabi-gcc/10.3-2021.07/gcc/arm-none-eabi/include/c++/10.3.1/bits/stl_algobase.h **** 	}
 637:/opt/homebrew/Cellar/arm-none-eabi-gcc/10.3-2021.07/gcc/arm-none-eabi/include/c++/10.3.1/bits/stl_algobase.h ****     };
 638:/opt/homebrew/Cellar/arm-none-eabi-gcc/10.3-2021.07/gcc/arm-none-eabi/include/c++/10.3.1/bits/stl_algobase.h **** #endif
 639:/opt/homebrew/Cellar/arm-none-eabi-gcc/10.3-2021.07/gcc/arm-none-eabi/include/c++/10.3.1/bits/stl_algobase.h **** 
 640:/opt/homebrew/Cellar/arm-none-eabi-gcc/10.3-2021.07/gcc/arm-none-eabi/include/c++/10.3.1/bits/stl_algobase.h ****   template<>
 641:/opt/homebrew/Cellar/arm-none-eabi-gcc/10.3-2021.07/gcc/arm-none-eabi/include/c++/10.3.1/bits/stl_algobase.h ****     struct __copy_move_backward<false, false, random_access_iterator_tag>
 642:/opt/homebrew/Cellar/arm-none-eabi-gcc/10.3-2021.07/gcc/arm-none-eabi/include/c++/10.3.1/bits/stl_algobase.h ****     {
 643:/opt/homebrew/Cellar/arm-none-eabi-gcc/10.3-2021.07/gcc/arm-none-eabi/include/c++/10.3.1/bits/stl_algobase.h ****       template<typename _BI1, typename _BI2>
 644:/opt/homebrew/Cellar/arm-none-eabi-gcc/10.3-2021.07/gcc/arm-none-eabi/include/c++/10.3.1/bits/stl_algobase.h **** 	_GLIBCXX20_CONSTEXPR
 645:/opt/homebrew/Cellar/arm-none-eabi-gcc/10.3-2021.07/gcc/arm-none-eabi/include/c++/10.3.1/bits/stl_algobase.h **** 	static _BI2
 646:/opt/homebrew/Cellar/arm-none-eabi-gcc/10.3-2021.07/gcc/arm-none-eabi/include/c++/10.3.1/bits/stl_algobase.h **** 	__copy_move_b(_BI1 __first, _BI1 __last, _BI2 __result)
 647:/opt/homebrew/Cellar/arm-none-eabi-gcc/10.3-2021.07/gcc/arm-none-eabi/include/c++/10.3.1/bits/stl_algobase.h **** 	{
 648:/opt/homebrew/Cellar/arm-none-eabi-gcc/10.3-2021.07/gcc/arm-none-eabi/include/c++/10.3.1/bits/stl_algobase.h **** 	  typename iterator_traits<_BI1>::difference_type
ARM GAS  /var/folders/hl/qgbwny5j0fd895c2c41bk3tw0000gp/T//ccTuF2qj.s 			page 15


 649:/opt/homebrew/Cellar/arm-none-eabi-gcc/10.3-2021.07/gcc/arm-none-eabi/include/c++/10.3.1/bits/stl_algobase.h **** 	    __n = __last - __first;
 650:/opt/homebrew/Cellar/arm-none-eabi-gcc/10.3-2021.07/gcc/arm-none-eabi/include/c++/10.3.1/bits/stl_algobase.h **** 	  for (; __n > 0; --__n)
 651:/opt/homebrew/Cellar/arm-none-eabi-gcc/10.3-2021.07/gcc/arm-none-eabi/include/c++/10.3.1/bits/stl_algobase.h **** 	    *--__result = *--__last;
 652:/opt/homebrew/Cellar/arm-none-eabi-gcc/10.3-2021.07/gcc/arm-none-eabi/include/c++/10.3.1/bits/stl_algobase.h **** 	  return __result;
 653:/opt/homebrew/Cellar/arm-none-eabi-gcc/10.3-2021.07/gcc/arm-none-eabi/include/c++/10.3.1/bits/stl_algobase.h **** 	}
 654:/opt/homebrew/Cellar/arm-none-eabi-gcc/10.3-2021.07/gcc/arm-none-eabi/include/c++/10.3.1/bits/stl_algobase.h ****     };
 655:/opt/homebrew/Cellar/arm-none-eabi-gcc/10.3-2021.07/gcc/arm-none-eabi/include/c++/10.3.1/bits/stl_algobase.h **** 
 656:/opt/homebrew/Cellar/arm-none-eabi-gcc/10.3-2021.07/gcc/arm-none-eabi/include/c++/10.3.1/bits/stl_algobase.h **** #if __cplusplus >= 201103L
 657:/opt/homebrew/Cellar/arm-none-eabi-gcc/10.3-2021.07/gcc/arm-none-eabi/include/c++/10.3.1/bits/stl_algobase.h ****   template<>
 658:/opt/homebrew/Cellar/arm-none-eabi-gcc/10.3-2021.07/gcc/arm-none-eabi/include/c++/10.3.1/bits/stl_algobase.h ****     struct __copy_move_backward<true, false, random_access_iterator_tag>
 659:/opt/homebrew/Cellar/arm-none-eabi-gcc/10.3-2021.07/gcc/arm-none-eabi/include/c++/10.3.1/bits/stl_algobase.h ****     {
 660:/opt/homebrew/Cellar/arm-none-eabi-gcc/10.3-2021.07/gcc/arm-none-eabi/include/c++/10.3.1/bits/stl_algobase.h ****       template<typename _BI1, typename _BI2>
 661:/opt/homebrew/Cellar/arm-none-eabi-gcc/10.3-2021.07/gcc/arm-none-eabi/include/c++/10.3.1/bits/stl_algobase.h **** 	_GLIBCXX20_CONSTEXPR
 662:/opt/homebrew/Cellar/arm-none-eabi-gcc/10.3-2021.07/gcc/arm-none-eabi/include/c++/10.3.1/bits/stl_algobase.h **** 	static _BI2
 663:/opt/homebrew/Cellar/arm-none-eabi-gcc/10.3-2021.07/gcc/arm-none-eabi/include/c++/10.3.1/bits/stl_algobase.h **** 	__copy_move_b(_BI1 __first, _BI1 __last, _BI2 __result)
 664:/opt/homebrew/Cellar/arm-none-eabi-gcc/10.3-2021.07/gcc/arm-none-eabi/include/c++/10.3.1/bits/stl_algobase.h **** 	{
 665:/opt/homebrew/Cellar/arm-none-eabi-gcc/10.3-2021.07/gcc/arm-none-eabi/include/c++/10.3.1/bits/stl_algobase.h **** 	  typename iterator_traits<_BI1>::difference_type
 666:/opt/homebrew/Cellar/arm-none-eabi-gcc/10.3-2021.07/gcc/arm-none-eabi/include/c++/10.3.1/bits/stl_algobase.h **** 	    __n = __last - __first;
 667:/opt/homebrew/Cellar/arm-none-eabi-gcc/10.3-2021.07/gcc/arm-none-eabi/include/c++/10.3.1/bits/stl_algobase.h **** 	  for (; __n > 0; --__n)
 668:/opt/homebrew/Cellar/arm-none-eabi-gcc/10.3-2021.07/gcc/arm-none-eabi/include/c++/10.3.1/bits/stl_algobase.h **** 	    *--__result = std::move(*--__last);
 669:/opt/homebrew/Cellar/arm-none-eabi-gcc/10.3-2021.07/gcc/arm-none-eabi/include/c++/10.3.1/bits/stl_algobase.h **** 	  return __result;
 670:/opt/homebrew/Cellar/arm-none-eabi-gcc/10.3-2021.07/gcc/arm-none-eabi/include/c++/10.3.1/bits/stl_algobase.h **** 	}
 671:/opt/homebrew/Cellar/arm-none-eabi-gcc/10.3-2021.07/gcc/arm-none-eabi/include/c++/10.3.1/bits/stl_algobase.h ****     };
 672:/opt/homebrew/Cellar/arm-none-eabi-gcc/10.3-2021.07/gcc/arm-none-eabi/include/c++/10.3.1/bits/stl_algobase.h **** #endif
 673:/opt/homebrew/Cellar/arm-none-eabi-gcc/10.3-2021.07/gcc/arm-none-eabi/include/c++/10.3.1/bits/stl_algobase.h **** 
 674:/opt/homebrew/Cellar/arm-none-eabi-gcc/10.3-2021.07/gcc/arm-none-eabi/include/c++/10.3.1/bits/stl_algobase.h ****   template<bool _IsMove>
 675:/opt/homebrew/Cellar/arm-none-eabi-gcc/10.3-2021.07/gcc/arm-none-eabi/include/c++/10.3.1/bits/stl_algobase.h ****     struct __copy_move_backward<_IsMove, true, random_access_iterator_tag>
 676:/opt/homebrew/Cellar/arm-none-eabi-gcc/10.3-2021.07/gcc/arm-none-eabi/include/c++/10.3.1/bits/stl_algobase.h ****     {
 677:/opt/homebrew/Cellar/arm-none-eabi-gcc/10.3-2021.07/gcc/arm-none-eabi/include/c++/10.3.1/bits/stl_algobase.h ****       template<typename _Tp>
 678:/opt/homebrew/Cellar/arm-none-eabi-gcc/10.3-2021.07/gcc/arm-none-eabi/include/c++/10.3.1/bits/stl_algobase.h **** 	_GLIBCXX20_CONSTEXPR
 679:/opt/homebrew/Cellar/arm-none-eabi-gcc/10.3-2021.07/gcc/arm-none-eabi/include/c++/10.3.1/bits/stl_algobase.h **** 	static _Tp*
 680:/opt/homebrew/Cellar/arm-none-eabi-gcc/10.3-2021.07/gcc/arm-none-eabi/include/c++/10.3.1/bits/stl_algobase.h **** 	__copy_move_b(const _Tp* __first, const _Tp* __last, _Tp* __result)
 681:/opt/homebrew/Cellar/arm-none-eabi-gcc/10.3-2021.07/gcc/arm-none-eabi/include/c++/10.3.1/bits/stl_algobase.h **** 	{
 682:/opt/homebrew/Cellar/arm-none-eabi-gcc/10.3-2021.07/gcc/arm-none-eabi/include/c++/10.3.1/bits/stl_algobase.h **** #if __cplusplus >= 201103L
 683:/opt/homebrew/Cellar/arm-none-eabi-gcc/10.3-2021.07/gcc/arm-none-eabi/include/c++/10.3.1/bits/stl_algobase.h **** 	  using __assignable = conditional<_IsMove,
 684:/opt/homebrew/Cellar/arm-none-eabi-gcc/10.3-2021.07/gcc/arm-none-eabi/include/c++/10.3.1/bits/stl_algobase.h **** 					   is_move_assignable<_Tp>,
 685:/opt/homebrew/Cellar/arm-none-eabi-gcc/10.3-2021.07/gcc/arm-none-eabi/include/c++/10.3.1/bits/stl_algobase.h **** 					   is_copy_assignable<_Tp>>;
 686:/opt/homebrew/Cellar/arm-none-eabi-gcc/10.3-2021.07/gcc/arm-none-eabi/include/c++/10.3.1/bits/stl_algobase.h **** 	  // trivial types can have deleted assignment
 687:/opt/homebrew/Cellar/arm-none-eabi-gcc/10.3-2021.07/gcc/arm-none-eabi/include/c++/10.3.1/bits/stl_algobase.h **** 	  static_assert( __assignable::type::value, "type is not assignable" );
 688:/opt/homebrew/Cellar/arm-none-eabi-gcc/10.3-2021.07/gcc/arm-none-eabi/include/c++/10.3.1/bits/stl_algobase.h **** #endif
 689:/opt/homebrew/Cellar/arm-none-eabi-gcc/10.3-2021.07/gcc/arm-none-eabi/include/c++/10.3.1/bits/stl_algobase.h **** 	  const ptrdiff_t _Num = __last - __first;
 690:/opt/homebrew/Cellar/arm-none-eabi-gcc/10.3-2021.07/gcc/arm-none-eabi/include/c++/10.3.1/bits/stl_algobase.h **** 	  if (_Num)
 691:/opt/homebrew/Cellar/arm-none-eabi-gcc/10.3-2021.07/gcc/arm-none-eabi/include/c++/10.3.1/bits/stl_algobase.h **** 	    __builtin_memmove(__result - _Num, __first, sizeof(_Tp) * _Num);
 692:/opt/homebrew/Cellar/arm-none-eabi-gcc/10.3-2021.07/gcc/arm-none-eabi/include/c++/10.3.1/bits/stl_algobase.h **** 	  return __result - _Num;
 693:/opt/homebrew/Cellar/arm-none-eabi-gcc/10.3-2021.07/gcc/arm-none-eabi/include/c++/10.3.1/bits/stl_algobase.h **** 	}
 694:/opt/homebrew/Cellar/arm-none-eabi-gcc/10.3-2021.07/gcc/arm-none-eabi/include/c++/10.3.1/bits/stl_algobase.h ****     };
 695:/opt/homebrew/Cellar/arm-none-eabi-gcc/10.3-2021.07/gcc/arm-none-eabi/include/c++/10.3.1/bits/stl_algobase.h **** 
 696:/opt/homebrew/Cellar/arm-none-eabi-gcc/10.3-2021.07/gcc/arm-none-eabi/include/c++/10.3.1/bits/stl_algobase.h ****   template<bool _IsMove, typename _BI1, typename _BI2>
 697:/opt/homebrew/Cellar/arm-none-eabi-gcc/10.3-2021.07/gcc/arm-none-eabi/include/c++/10.3.1/bits/stl_algobase.h ****     _GLIBCXX20_CONSTEXPR
 698:/opt/homebrew/Cellar/arm-none-eabi-gcc/10.3-2021.07/gcc/arm-none-eabi/include/c++/10.3.1/bits/stl_algobase.h ****     inline _BI2
 699:/opt/homebrew/Cellar/arm-none-eabi-gcc/10.3-2021.07/gcc/arm-none-eabi/include/c++/10.3.1/bits/stl_algobase.h ****     __copy_move_backward_a2(_BI1 __first, _BI1 __last, _BI2 __result)
 700:/opt/homebrew/Cellar/arm-none-eabi-gcc/10.3-2021.07/gcc/arm-none-eabi/include/c++/10.3.1/bits/stl_algobase.h ****     {
 701:/opt/homebrew/Cellar/arm-none-eabi-gcc/10.3-2021.07/gcc/arm-none-eabi/include/c++/10.3.1/bits/stl_algobase.h ****       typedef typename iterator_traits<_BI1>::iterator_category _Category;
 702:/opt/homebrew/Cellar/arm-none-eabi-gcc/10.3-2021.07/gcc/arm-none-eabi/include/c++/10.3.1/bits/stl_algobase.h **** #ifdef __cpp_lib_is_constant_evaluated
 703:/opt/homebrew/Cellar/arm-none-eabi-gcc/10.3-2021.07/gcc/arm-none-eabi/include/c++/10.3.1/bits/stl_algobase.h ****       if (std::is_constant_evaluated())
 704:/opt/homebrew/Cellar/arm-none-eabi-gcc/10.3-2021.07/gcc/arm-none-eabi/include/c++/10.3.1/bits/stl_algobase.h **** 	return std::__copy_move_backward<_IsMove, false, _Category>::
 705:/opt/homebrew/Cellar/arm-none-eabi-gcc/10.3-2021.07/gcc/arm-none-eabi/include/c++/10.3.1/bits/stl_algobase.h **** 	  __copy_move_b(__first, __last, __result);
ARM GAS  /var/folders/hl/qgbwny5j0fd895c2c41bk3tw0000gp/T//ccTuF2qj.s 			page 16


 706:/opt/homebrew/Cellar/arm-none-eabi-gcc/10.3-2021.07/gcc/arm-none-eabi/include/c++/10.3.1/bits/stl_algobase.h **** #endif
 707:/opt/homebrew/Cellar/arm-none-eabi-gcc/10.3-2021.07/gcc/arm-none-eabi/include/c++/10.3.1/bits/stl_algobase.h ****       return std::__copy_move_backward<_IsMove,
 708:/opt/homebrew/Cellar/arm-none-eabi-gcc/10.3-2021.07/gcc/arm-none-eabi/include/c++/10.3.1/bits/stl_algobase.h **** 				       __memcpyable<_BI2, _BI1>::__value,
 709:/opt/homebrew/Cellar/arm-none-eabi-gcc/10.3-2021.07/gcc/arm-none-eabi/include/c++/10.3.1/bits/stl_algobase.h **** 				       _Category>::__copy_move_b(__first,
 710:/opt/homebrew/Cellar/arm-none-eabi-gcc/10.3-2021.07/gcc/arm-none-eabi/include/c++/10.3.1/bits/stl_algobase.h **** 								 __last,
 711:/opt/homebrew/Cellar/arm-none-eabi-gcc/10.3-2021.07/gcc/arm-none-eabi/include/c++/10.3.1/bits/stl_algobase.h **** 								 __result);
 712:/opt/homebrew/Cellar/arm-none-eabi-gcc/10.3-2021.07/gcc/arm-none-eabi/include/c++/10.3.1/bits/stl_algobase.h ****     }
 713:/opt/homebrew/Cellar/arm-none-eabi-gcc/10.3-2021.07/gcc/arm-none-eabi/include/c++/10.3.1/bits/stl_algobase.h **** 
 714:/opt/homebrew/Cellar/arm-none-eabi-gcc/10.3-2021.07/gcc/arm-none-eabi/include/c++/10.3.1/bits/stl_algobase.h ****   template<bool _IsMove, typename _BI1, typename _BI2>
 715:/opt/homebrew/Cellar/arm-none-eabi-gcc/10.3-2021.07/gcc/arm-none-eabi/include/c++/10.3.1/bits/stl_algobase.h ****     _GLIBCXX20_CONSTEXPR
 716:/opt/homebrew/Cellar/arm-none-eabi-gcc/10.3-2021.07/gcc/arm-none-eabi/include/c++/10.3.1/bits/stl_algobase.h ****     inline _BI2
 717:/opt/homebrew/Cellar/arm-none-eabi-gcc/10.3-2021.07/gcc/arm-none-eabi/include/c++/10.3.1/bits/stl_algobase.h ****     __copy_move_backward_a1(_BI1 __first, _BI1 __last, _BI2 __result)
 718:/opt/homebrew/Cellar/arm-none-eabi-gcc/10.3-2021.07/gcc/arm-none-eabi/include/c++/10.3.1/bits/stl_algobase.h ****     { return std::__copy_move_backward_a2<_IsMove>(__first, __last, __result); }
 719:/opt/homebrew/Cellar/arm-none-eabi-gcc/10.3-2021.07/gcc/arm-none-eabi/include/c++/10.3.1/bits/stl_algobase.h **** 
 720:/opt/homebrew/Cellar/arm-none-eabi-gcc/10.3-2021.07/gcc/arm-none-eabi/include/c++/10.3.1/bits/stl_algobase.h ****   template<bool _IsMove,
 721:/opt/homebrew/Cellar/arm-none-eabi-gcc/10.3-2021.07/gcc/arm-none-eabi/include/c++/10.3.1/bits/stl_algobase.h **** 	   typename _Tp, typename _Ref, typename _Ptr, typename _OI>
 722:/opt/homebrew/Cellar/arm-none-eabi-gcc/10.3-2021.07/gcc/arm-none-eabi/include/c++/10.3.1/bits/stl_algobase.h ****     _OI
 723:/opt/homebrew/Cellar/arm-none-eabi-gcc/10.3-2021.07/gcc/arm-none-eabi/include/c++/10.3.1/bits/stl_algobase.h ****     __copy_move_backward_a1(_GLIBCXX_STD_C::_Deque_iterator<_Tp, _Ref, _Ptr>,
 724:/opt/homebrew/Cellar/arm-none-eabi-gcc/10.3-2021.07/gcc/arm-none-eabi/include/c++/10.3.1/bits/stl_algobase.h **** 			    _GLIBCXX_STD_C::_Deque_iterator<_Tp, _Ref, _Ptr>,
 725:/opt/homebrew/Cellar/arm-none-eabi-gcc/10.3-2021.07/gcc/arm-none-eabi/include/c++/10.3.1/bits/stl_algobase.h **** 			    _OI);
 726:/opt/homebrew/Cellar/arm-none-eabi-gcc/10.3-2021.07/gcc/arm-none-eabi/include/c++/10.3.1/bits/stl_algobase.h **** 
 727:/opt/homebrew/Cellar/arm-none-eabi-gcc/10.3-2021.07/gcc/arm-none-eabi/include/c++/10.3.1/bits/stl_algobase.h ****   template<bool _IsMove,
 728:/opt/homebrew/Cellar/arm-none-eabi-gcc/10.3-2021.07/gcc/arm-none-eabi/include/c++/10.3.1/bits/stl_algobase.h **** 	   typename _ITp, typename _IRef, typename _IPtr, typename _OTp>
 729:/opt/homebrew/Cellar/arm-none-eabi-gcc/10.3-2021.07/gcc/arm-none-eabi/include/c++/10.3.1/bits/stl_algobase.h ****     _GLIBCXX_STD_C::_Deque_iterator<_OTp, _OTp&, _OTp*>
 730:/opt/homebrew/Cellar/arm-none-eabi-gcc/10.3-2021.07/gcc/arm-none-eabi/include/c++/10.3.1/bits/stl_algobase.h ****     __copy_move_backward_a1(
 731:/opt/homebrew/Cellar/arm-none-eabi-gcc/10.3-2021.07/gcc/arm-none-eabi/include/c++/10.3.1/bits/stl_algobase.h **** 			_GLIBCXX_STD_C::_Deque_iterator<_ITp, _IRef, _IPtr>,
 732:/opt/homebrew/Cellar/arm-none-eabi-gcc/10.3-2021.07/gcc/arm-none-eabi/include/c++/10.3.1/bits/stl_algobase.h **** 			_GLIBCXX_STD_C::_Deque_iterator<_ITp, _IRef, _IPtr>,
 733:/opt/homebrew/Cellar/arm-none-eabi-gcc/10.3-2021.07/gcc/arm-none-eabi/include/c++/10.3.1/bits/stl_algobase.h **** 			_GLIBCXX_STD_C::_Deque_iterator<_OTp, _OTp&, _OTp*>);
 734:/opt/homebrew/Cellar/arm-none-eabi-gcc/10.3-2021.07/gcc/arm-none-eabi/include/c++/10.3.1/bits/stl_algobase.h **** 
 735:/opt/homebrew/Cellar/arm-none-eabi-gcc/10.3-2021.07/gcc/arm-none-eabi/include/c++/10.3.1/bits/stl_algobase.h ****   template<bool _IsMove, typename _II, typename _Tp>
 736:/opt/homebrew/Cellar/arm-none-eabi-gcc/10.3-2021.07/gcc/arm-none-eabi/include/c++/10.3.1/bits/stl_algobase.h ****     typename __gnu_cxx::__enable_if<
 737:/opt/homebrew/Cellar/arm-none-eabi-gcc/10.3-2021.07/gcc/arm-none-eabi/include/c++/10.3.1/bits/stl_algobase.h ****       __is_random_access_iter<_II>::__value,
 738:/opt/homebrew/Cellar/arm-none-eabi-gcc/10.3-2021.07/gcc/arm-none-eabi/include/c++/10.3.1/bits/stl_algobase.h ****       _GLIBCXX_STD_C::_Deque_iterator<_Tp, _Tp&, _Tp*> >::__type
 739:/opt/homebrew/Cellar/arm-none-eabi-gcc/10.3-2021.07/gcc/arm-none-eabi/include/c++/10.3.1/bits/stl_algobase.h ****     __copy_move_backward_a1(_II, _II,
 740:/opt/homebrew/Cellar/arm-none-eabi-gcc/10.3-2021.07/gcc/arm-none-eabi/include/c++/10.3.1/bits/stl_algobase.h **** 			    _GLIBCXX_STD_C::_Deque_iterator<_Tp, _Tp&, _Tp*>);
 741:/opt/homebrew/Cellar/arm-none-eabi-gcc/10.3-2021.07/gcc/arm-none-eabi/include/c++/10.3.1/bits/stl_algobase.h **** 
 742:/opt/homebrew/Cellar/arm-none-eabi-gcc/10.3-2021.07/gcc/arm-none-eabi/include/c++/10.3.1/bits/stl_algobase.h ****   template<bool _IsMove, typename _II, typename _OI>
 743:/opt/homebrew/Cellar/arm-none-eabi-gcc/10.3-2021.07/gcc/arm-none-eabi/include/c++/10.3.1/bits/stl_algobase.h ****     _GLIBCXX20_CONSTEXPR
 744:/opt/homebrew/Cellar/arm-none-eabi-gcc/10.3-2021.07/gcc/arm-none-eabi/include/c++/10.3.1/bits/stl_algobase.h ****     inline _OI
 745:/opt/homebrew/Cellar/arm-none-eabi-gcc/10.3-2021.07/gcc/arm-none-eabi/include/c++/10.3.1/bits/stl_algobase.h ****     __copy_move_backward_a(_II __first, _II __last, _OI __result)
 746:/opt/homebrew/Cellar/arm-none-eabi-gcc/10.3-2021.07/gcc/arm-none-eabi/include/c++/10.3.1/bits/stl_algobase.h ****     {
 747:/opt/homebrew/Cellar/arm-none-eabi-gcc/10.3-2021.07/gcc/arm-none-eabi/include/c++/10.3.1/bits/stl_algobase.h ****       return std::__niter_wrap(__result,
 748:/opt/homebrew/Cellar/arm-none-eabi-gcc/10.3-2021.07/gcc/arm-none-eabi/include/c++/10.3.1/bits/stl_algobase.h **** 		std::__copy_move_backward_a1<_IsMove>
 749:/opt/homebrew/Cellar/arm-none-eabi-gcc/10.3-2021.07/gcc/arm-none-eabi/include/c++/10.3.1/bits/stl_algobase.h **** 		  (std::__niter_base(__first), std::__niter_base(__last),
 750:/opt/homebrew/Cellar/arm-none-eabi-gcc/10.3-2021.07/gcc/arm-none-eabi/include/c++/10.3.1/bits/stl_algobase.h **** 		   std::__niter_base(__result)));
 751:/opt/homebrew/Cellar/arm-none-eabi-gcc/10.3-2021.07/gcc/arm-none-eabi/include/c++/10.3.1/bits/stl_algobase.h ****     }
 752:/opt/homebrew/Cellar/arm-none-eabi-gcc/10.3-2021.07/gcc/arm-none-eabi/include/c++/10.3.1/bits/stl_algobase.h **** 
 753:/opt/homebrew/Cellar/arm-none-eabi-gcc/10.3-2021.07/gcc/arm-none-eabi/include/c++/10.3.1/bits/stl_algobase.h ****   template<bool _IsMove,
 754:/opt/homebrew/Cellar/arm-none-eabi-gcc/10.3-2021.07/gcc/arm-none-eabi/include/c++/10.3.1/bits/stl_algobase.h **** 	   typename _Ite, typename _Seq, typename _Cat, typename _OI>
 755:/opt/homebrew/Cellar/arm-none-eabi-gcc/10.3-2021.07/gcc/arm-none-eabi/include/c++/10.3.1/bits/stl_algobase.h ****     _OI
 756:/opt/homebrew/Cellar/arm-none-eabi-gcc/10.3-2021.07/gcc/arm-none-eabi/include/c++/10.3.1/bits/stl_algobase.h ****     __copy_move_backward_a(
 757:/opt/homebrew/Cellar/arm-none-eabi-gcc/10.3-2021.07/gcc/arm-none-eabi/include/c++/10.3.1/bits/stl_algobase.h **** 		const ::__gnu_debug::_Safe_iterator<_Ite, _Seq, _Cat>&,
 758:/opt/homebrew/Cellar/arm-none-eabi-gcc/10.3-2021.07/gcc/arm-none-eabi/include/c++/10.3.1/bits/stl_algobase.h **** 		const ::__gnu_debug::_Safe_iterator<_Ite, _Seq, _Cat>&,
 759:/opt/homebrew/Cellar/arm-none-eabi-gcc/10.3-2021.07/gcc/arm-none-eabi/include/c++/10.3.1/bits/stl_algobase.h **** 		_OI);
 760:/opt/homebrew/Cellar/arm-none-eabi-gcc/10.3-2021.07/gcc/arm-none-eabi/include/c++/10.3.1/bits/stl_algobase.h **** 
 761:/opt/homebrew/Cellar/arm-none-eabi-gcc/10.3-2021.07/gcc/arm-none-eabi/include/c++/10.3.1/bits/stl_algobase.h ****   template<bool _IsMove,
 762:/opt/homebrew/Cellar/arm-none-eabi-gcc/10.3-2021.07/gcc/arm-none-eabi/include/c++/10.3.1/bits/stl_algobase.h **** 	   typename _II, typename _Ite, typename _Seq, typename _Cat>
ARM GAS  /var/folders/hl/qgbwny5j0fd895c2c41bk3tw0000gp/T//ccTuF2qj.s 			page 17


 763:/opt/homebrew/Cellar/arm-none-eabi-gcc/10.3-2021.07/gcc/arm-none-eabi/include/c++/10.3.1/bits/stl_algobase.h ****     __gnu_debug::_Safe_iterator<_Ite, _Seq, _Cat>
 764:/opt/homebrew/Cellar/arm-none-eabi-gcc/10.3-2021.07/gcc/arm-none-eabi/include/c++/10.3.1/bits/stl_algobase.h ****     __copy_move_backward_a(_II, _II,
 765:/opt/homebrew/Cellar/arm-none-eabi-gcc/10.3-2021.07/gcc/arm-none-eabi/include/c++/10.3.1/bits/stl_algobase.h **** 		const ::__gnu_debug::_Safe_iterator<_Ite, _Seq, _Cat>&);
 766:/opt/homebrew/Cellar/arm-none-eabi-gcc/10.3-2021.07/gcc/arm-none-eabi/include/c++/10.3.1/bits/stl_algobase.h **** 
 767:/opt/homebrew/Cellar/arm-none-eabi-gcc/10.3-2021.07/gcc/arm-none-eabi/include/c++/10.3.1/bits/stl_algobase.h ****   template<bool _IsMove,
 768:/opt/homebrew/Cellar/arm-none-eabi-gcc/10.3-2021.07/gcc/arm-none-eabi/include/c++/10.3.1/bits/stl_algobase.h **** 	   typename _IIte, typename _ISeq, typename _ICat,
 769:/opt/homebrew/Cellar/arm-none-eabi-gcc/10.3-2021.07/gcc/arm-none-eabi/include/c++/10.3.1/bits/stl_algobase.h **** 	   typename _OIte, typename _OSeq, typename _OCat>
 770:/opt/homebrew/Cellar/arm-none-eabi-gcc/10.3-2021.07/gcc/arm-none-eabi/include/c++/10.3.1/bits/stl_algobase.h ****     ::__gnu_debug::_Safe_iterator<_OIte, _OSeq, _OCat>
 771:/opt/homebrew/Cellar/arm-none-eabi-gcc/10.3-2021.07/gcc/arm-none-eabi/include/c++/10.3.1/bits/stl_algobase.h ****     __copy_move_backward_a(
 772:/opt/homebrew/Cellar/arm-none-eabi-gcc/10.3-2021.07/gcc/arm-none-eabi/include/c++/10.3.1/bits/stl_algobase.h **** 		const ::__gnu_debug::_Safe_iterator<_IIte, _ISeq, _ICat>&,
 773:/opt/homebrew/Cellar/arm-none-eabi-gcc/10.3-2021.07/gcc/arm-none-eabi/include/c++/10.3.1/bits/stl_algobase.h **** 		const ::__gnu_debug::_Safe_iterator<_IIte, _ISeq, _ICat>&,
 774:/opt/homebrew/Cellar/arm-none-eabi-gcc/10.3-2021.07/gcc/arm-none-eabi/include/c++/10.3.1/bits/stl_algobase.h **** 		const ::__gnu_debug::_Safe_iterator<_OIte, _OSeq, _OCat>&);
 775:/opt/homebrew/Cellar/arm-none-eabi-gcc/10.3-2021.07/gcc/arm-none-eabi/include/c++/10.3.1/bits/stl_algobase.h **** 
 776:/opt/homebrew/Cellar/arm-none-eabi-gcc/10.3-2021.07/gcc/arm-none-eabi/include/c++/10.3.1/bits/stl_algobase.h ****   /**
 777:/opt/homebrew/Cellar/arm-none-eabi-gcc/10.3-2021.07/gcc/arm-none-eabi/include/c++/10.3.1/bits/stl_algobase.h ****    *  @brief Copies the range [first,last) into result.
 778:/opt/homebrew/Cellar/arm-none-eabi-gcc/10.3-2021.07/gcc/arm-none-eabi/include/c++/10.3.1/bits/stl_algobase.h ****    *  @ingroup mutating_algorithms
 779:/opt/homebrew/Cellar/arm-none-eabi-gcc/10.3-2021.07/gcc/arm-none-eabi/include/c++/10.3.1/bits/stl_algobase.h ****    *  @param  __first  A bidirectional iterator.
 780:/opt/homebrew/Cellar/arm-none-eabi-gcc/10.3-2021.07/gcc/arm-none-eabi/include/c++/10.3.1/bits/stl_algobase.h ****    *  @param  __last   A bidirectional iterator.
 781:/opt/homebrew/Cellar/arm-none-eabi-gcc/10.3-2021.07/gcc/arm-none-eabi/include/c++/10.3.1/bits/stl_algobase.h ****    *  @param  __result A bidirectional iterator.
 782:/opt/homebrew/Cellar/arm-none-eabi-gcc/10.3-2021.07/gcc/arm-none-eabi/include/c++/10.3.1/bits/stl_algobase.h ****    *  @return   result - (last - first)
 783:/opt/homebrew/Cellar/arm-none-eabi-gcc/10.3-2021.07/gcc/arm-none-eabi/include/c++/10.3.1/bits/stl_algobase.h ****    *
 784:/opt/homebrew/Cellar/arm-none-eabi-gcc/10.3-2021.07/gcc/arm-none-eabi/include/c++/10.3.1/bits/stl_algobase.h ****    *  The function has the same effect as copy, but starts at the end of the
 785:/opt/homebrew/Cellar/arm-none-eabi-gcc/10.3-2021.07/gcc/arm-none-eabi/include/c++/10.3.1/bits/stl_algobase.h ****    *  range and works its way to the start, returning the start of the result.
 786:/opt/homebrew/Cellar/arm-none-eabi-gcc/10.3-2021.07/gcc/arm-none-eabi/include/c++/10.3.1/bits/stl_algobase.h ****    *  This inline function will boil down to a call to @c memmove whenever
 787:/opt/homebrew/Cellar/arm-none-eabi-gcc/10.3-2021.07/gcc/arm-none-eabi/include/c++/10.3.1/bits/stl_algobase.h ****    *  possible.  Failing that, if random access iterators are passed, then the
 788:/opt/homebrew/Cellar/arm-none-eabi-gcc/10.3-2021.07/gcc/arm-none-eabi/include/c++/10.3.1/bits/stl_algobase.h ****    *  loop count will be known (and therefore a candidate for compiler
 789:/opt/homebrew/Cellar/arm-none-eabi-gcc/10.3-2021.07/gcc/arm-none-eabi/include/c++/10.3.1/bits/stl_algobase.h ****    *  optimizations such as unrolling).
 790:/opt/homebrew/Cellar/arm-none-eabi-gcc/10.3-2021.07/gcc/arm-none-eabi/include/c++/10.3.1/bits/stl_algobase.h ****    *
 791:/opt/homebrew/Cellar/arm-none-eabi-gcc/10.3-2021.07/gcc/arm-none-eabi/include/c++/10.3.1/bits/stl_algobase.h ****    *  Result may not be in the range (first,last].  Use copy instead.  Note
 792:/opt/homebrew/Cellar/arm-none-eabi-gcc/10.3-2021.07/gcc/arm-none-eabi/include/c++/10.3.1/bits/stl_algobase.h ****    *  that the start of the output range may overlap [first,last).
 793:/opt/homebrew/Cellar/arm-none-eabi-gcc/10.3-2021.07/gcc/arm-none-eabi/include/c++/10.3.1/bits/stl_algobase.h ****   */
 794:/opt/homebrew/Cellar/arm-none-eabi-gcc/10.3-2021.07/gcc/arm-none-eabi/include/c++/10.3.1/bits/stl_algobase.h ****   template<typename _BI1, typename _BI2>
 795:/opt/homebrew/Cellar/arm-none-eabi-gcc/10.3-2021.07/gcc/arm-none-eabi/include/c++/10.3.1/bits/stl_algobase.h ****     _GLIBCXX20_CONSTEXPR
 796:/opt/homebrew/Cellar/arm-none-eabi-gcc/10.3-2021.07/gcc/arm-none-eabi/include/c++/10.3.1/bits/stl_algobase.h ****     inline _BI2
 797:/opt/homebrew/Cellar/arm-none-eabi-gcc/10.3-2021.07/gcc/arm-none-eabi/include/c++/10.3.1/bits/stl_algobase.h ****     copy_backward(_BI1 __first, _BI1 __last, _BI2 __result)
 798:/opt/homebrew/Cellar/arm-none-eabi-gcc/10.3-2021.07/gcc/arm-none-eabi/include/c++/10.3.1/bits/stl_algobase.h ****     {
 799:/opt/homebrew/Cellar/arm-none-eabi-gcc/10.3-2021.07/gcc/arm-none-eabi/include/c++/10.3.1/bits/stl_algobase.h ****       // concept requirements
 800:/opt/homebrew/Cellar/arm-none-eabi-gcc/10.3-2021.07/gcc/arm-none-eabi/include/c++/10.3.1/bits/stl_algobase.h ****       __glibcxx_function_requires(_BidirectionalIteratorConcept<_BI1>)
 801:/opt/homebrew/Cellar/arm-none-eabi-gcc/10.3-2021.07/gcc/arm-none-eabi/include/c++/10.3.1/bits/stl_algobase.h ****       __glibcxx_function_requires(_Mutable_BidirectionalIteratorConcept<_BI2>)
 802:/opt/homebrew/Cellar/arm-none-eabi-gcc/10.3-2021.07/gcc/arm-none-eabi/include/c++/10.3.1/bits/stl_algobase.h ****       __glibcxx_function_requires(_ConvertibleConcept<
 803:/opt/homebrew/Cellar/arm-none-eabi-gcc/10.3-2021.07/gcc/arm-none-eabi/include/c++/10.3.1/bits/stl_algobase.h **** 	    typename iterator_traits<_BI1>::value_type,
 804:/opt/homebrew/Cellar/arm-none-eabi-gcc/10.3-2021.07/gcc/arm-none-eabi/include/c++/10.3.1/bits/stl_algobase.h **** 	    typename iterator_traits<_BI2>::value_type>)
 805:/opt/homebrew/Cellar/arm-none-eabi-gcc/10.3-2021.07/gcc/arm-none-eabi/include/c++/10.3.1/bits/stl_algobase.h ****       __glibcxx_requires_can_decrement_range(__first, __last, __result);
 806:/opt/homebrew/Cellar/arm-none-eabi-gcc/10.3-2021.07/gcc/arm-none-eabi/include/c++/10.3.1/bits/stl_algobase.h **** 
 807:/opt/homebrew/Cellar/arm-none-eabi-gcc/10.3-2021.07/gcc/arm-none-eabi/include/c++/10.3.1/bits/stl_algobase.h ****       return std::__copy_move_backward_a<__is_move_iterator<_BI1>::__value>
 808:/opt/homebrew/Cellar/arm-none-eabi-gcc/10.3-2021.07/gcc/arm-none-eabi/include/c++/10.3.1/bits/stl_algobase.h **** 	     (std::__miter_base(__first), std::__miter_base(__last), __result);
 809:/opt/homebrew/Cellar/arm-none-eabi-gcc/10.3-2021.07/gcc/arm-none-eabi/include/c++/10.3.1/bits/stl_algobase.h ****     }
 810:/opt/homebrew/Cellar/arm-none-eabi-gcc/10.3-2021.07/gcc/arm-none-eabi/include/c++/10.3.1/bits/stl_algobase.h **** 
 811:/opt/homebrew/Cellar/arm-none-eabi-gcc/10.3-2021.07/gcc/arm-none-eabi/include/c++/10.3.1/bits/stl_algobase.h **** #if __cplusplus >= 201103L
 812:/opt/homebrew/Cellar/arm-none-eabi-gcc/10.3-2021.07/gcc/arm-none-eabi/include/c++/10.3.1/bits/stl_algobase.h ****   /**
 813:/opt/homebrew/Cellar/arm-none-eabi-gcc/10.3-2021.07/gcc/arm-none-eabi/include/c++/10.3.1/bits/stl_algobase.h ****    *  @brief Moves the range [first,last) into result.
 814:/opt/homebrew/Cellar/arm-none-eabi-gcc/10.3-2021.07/gcc/arm-none-eabi/include/c++/10.3.1/bits/stl_algobase.h ****    *  @ingroup mutating_algorithms
 815:/opt/homebrew/Cellar/arm-none-eabi-gcc/10.3-2021.07/gcc/arm-none-eabi/include/c++/10.3.1/bits/stl_algobase.h ****    *  @param  __first  A bidirectional iterator.
 816:/opt/homebrew/Cellar/arm-none-eabi-gcc/10.3-2021.07/gcc/arm-none-eabi/include/c++/10.3.1/bits/stl_algobase.h ****    *  @param  __last   A bidirectional iterator.
 817:/opt/homebrew/Cellar/arm-none-eabi-gcc/10.3-2021.07/gcc/arm-none-eabi/include/c++/10.3.1/bits/stl_algobase.h ****    *  @param  __result A bidirectional iterator.
 818:/opt/homebrew/Cellar/arm-none-eabi-gcc/10.3-2021.07/gcc/arm-none-eabi/include/c++/10.3.1/bits/stl_algobase.h ****    *  @return   result - (last - first)
 819:/opt/homebrew/Cellar/arm-none-eabi-gcc/10.3-2021.07/gcc/arm-none-eabi/include/c++/10.3.1/bits/stl_algobase.h ****    *
ARM GAS  /var/folders/hl/qgbwny5j0fd895c2c41bk3tw0000gp/T//ccTuF2qj.s 			page 18


 820:/opt/homebrew/Cellar/arm-none-eabi-gcc/10.3-2021.07/gcc/arm-none-eabi/include/c++/10.3.1/bits/stl_algobase.h ****    *  The function has the same effect as move, but starts at the end of the
 821:/opt/homebrew/Cellar/arm-none-eabi-gcc/10.3-2021.07/gcc/arm-none-eabi/include/c++/10.3.1/bits/stl_algobase.h ****    *  range and works its way to the start, returning the start of the result.
 822:/opt/homebrew/Cellar/arm-none-eabi-gcc/10.3-2021.07/gcc/arm-none-eabi/include/c++/10.3.1/bits/stl_algobase.h ****    *  This inline function will boil down to a call to @c memmove whenever
 823:/opt/homebrew/Cellar/arm-none-eabi-gcc/10.3-2021.07/gcc/arm-none-eabi/include/c++/10.3.1/bits/stl_algobase.h ****    *  possible.  Failing that, if random access iterators are passed, then the
 824:/opt/homebrew/Cellar/arm-none-eabi-gcc/10.3-2021.07/gcc/arm-none-eabi/include/c++/10.3.1/bits/stl_algobase.h ****    *  loop count will be known (and therefore a candidate for compiler
 825:/opt/homebrew/Cellar/arm-none-eabi-gcc/10.3-2021.07/gcc/arm-none-eabi/include/c++/10.3.1/bits/stl_algobase.h ****    *  optimizations such as unrolling).
 826:/opt/homebrew/Cellar/arm-none-eabi-gcc/10.3-2021.07/gcc/arm-none-eabi/include/c++/10.3.1/bits/stl_algobase.h ****    *
 827:/opt/homebrew/Cellar/arm-none-eabi-gcc/10.3-2021.07/gcc/arm-none-eabi/include/c++/10.3.1/bits/stl_algobase.h ****    *  Result may not be in the range (first,last].  Use move instead.  Note
 828:/opt/homebrew/Cellar/arm-none-eabi-gcc/10.3-2021.07/gcc/arm-none-eabi/include/c++/10.3.1/bits/stl_algobase.h ****    *  that the start of the output range may overlap [first,last).
 829:/opt/homebrew/Cellar/arm-none-eabi-gcc/10.3-2021.07/gcc/arm-none-eabi/include/c++/10.3.1/bits/stl_algobase.h ****   */
 830:/opt/homebrew/Cellar/arm-none-eabi-gcc/10.3-2021.07/gcc/arm-none-eabi/include/c++/10.3.1/bits/stl_algobase.h ****   template<typename _BI1, typename _BI2>
 831:/opt/homebrew/Cellar/arm-none-eabi-gcc/10.3-2021.07/gcc/arm-none-eabi/include/c++/10.3.1/bits/stl_algobase.h ****     _GLIBCXX20_CONSTEXPR
 832:/opt/homebrew/Cellar/arm-none-eabi-gcc/10.3-2021.07/gcc/arm-none-eabi/include/c++/10.3.1/bits/stl_algobase.h ****     inline _BI2
 833:/opt/homebrew/Cellar/arm-none-eabi-gcc/10.3-2021.07/gcc/arm-none-eabi/include/c++/10.3.1/bits/stl_algobase.h ****     move_backward(_BI1 __first, _BI1 __last, _BI2 __result)
 834:/opt/homebrew/Cellar/arm-none-eabi-gcc/10.3-2021.07/gcc/arm-none-eabi/include/c++/10.3.1/bits/stl_algobase.h ****     {
 835:/opt/homebrew/Cellar/arm-none-eabi-gcc/10.3-2021.07/gcc/arm-none-eabi/include/c++/10.3.1/bits/stl_algobase.h ****       // concept requirements
 836:/opt/homebrew/Cellar/arm-none-eabi-gcc/10.3-2021.07/gcc/arm-none-eabi/include/c++/10.3.1/bits/stl_algobase.h ****       __glibcxx_function_requires(_BidirectionalIteratorConcept<_BI1>)
 837:/opt/homebrew/Cellar/arm-none-eabi-gcc/10.3-2021.07/gcc/arm-none-eabi/include/c++/10.3.1/bits/stl_algobase.h ****       __glibcxx_function_requires(_Mutable_BidirectionalIteratorConcept<_BI2>)
 838:/opt/homebrew/Cellar/arm-none-eabi-gcc/10.3-2021.07/gcc/arm-none-eabi/include/c++/10.3.1/bits/stl_algobase.h ****       __glibcxx_function_requires(_ConvertibleConcept<
 839:/opt/homebrew/Cellar/arm-none-eabi-gcc/10.3-2021.07/gcc/arm-none-eabi/include/c++/10.3.1/bits/stl_algobase.h **** 	    typename iterator_traits<_BI1>::value_type,
 840:/opt/homebrew/Cellar/arm-none-eabi-gcc/10.3-2021.07/gcc/arm-none-eabi/include/c++/10.3.1/bits/stl_algobase.h **** 	    typename iterator_traits<_BI2>::value_type>)
 841:/opt/homebrew/Cellar/arm-none-eabi-gcc/10.3-2021.07/gcc/arm-none-eabi/include/c++/10.3.1/bits/stl_algobase.h ****       __glibcxx_requires_can_decrement_range(__first, __last, __result);
 842:/opt/homebrew/Cellar/arm-none-eabi-gcc/10.3-2021.07/gcc/arm-none-eabi/include/c++/10.3.1/bits/stl_algobase.h **** 
 843:/opt/homebrew/Cellar/arm-none-eabi-gcc/10.3-2021.07/gcc/arm-none-eabi/include/c++/10.3.1/bits/stl_algobase.h ****       return std::__copy_move_backward_a<true>(std::__miter_base(__first),
 844:/opt/homebrew/Cellar/arm-none-eabi-gcc/10.3-2021.07/gcc/arm-none-eabi/include/c++/10.3.1/bits/stl_algobase.h **** 					       std::__miter_base(__last),
 845:/opt/homebrew/Cellar/arm-none-eabi-gcc/10.3-2021.07/gcc/arm-none-eabi/include/c++/10.3.1/bits/stl_algobase.h **** 					       __result);
 846:/opt/homebrew/Cellar/arm-none-eabi-gcc/10.3-2021.07/gcc/arm-none-eabi/include/c++/10.3.1/bits/stl_algobase.h ****     }
 847:/opt/homebrew/Cellar/arm-none-eabi-gcc/10.3-2021.07/gcc/arm-none-eabi/include/c++/10.3.1/bits/stl_algobase.h **** 
 848:/opt/homebrew/Cellar/arm-none-eabi-gcc/10.3-2021.07/gcc/arm-none-eabi/include/c++/10.3.1/bits/stl_algobase.h **** #define _GLIBCXX_MOVE_BACKWARD3(_Tp, _Up, _Vp) std::move_backward(_Tp, _Up, _Vp)
 849:/opt/homebrew/Cellar/arm-none-eabi-gcc/10.3-2021.07/gcc/arm-none-eabi/include/c++/10.3.1/bits/stl_algobase.h **** #else
 850:/opt/homebrew/Cellar/arm-none-eabi-gcc/10.3-2021.07/gcc/arm-none-eabi/include/c++/10.3.1/bits/stl_algobase.h **** #define _GLIBCXX_MOVE_BACKWARD3(_Tp, _Up, _Vp) std::copy_backward(_Tp, _Up, _Vp)
 851:/opt/homebrew/Cellar/arm-none-eabi-gcc/10.3-2021.07/gcc/arm-none-eabi/include/c++/10.3.1/bits/stl_algobase.h **** #endif
 852:/opt/homebrew/Cellar/arm-none-eabi-gcc/10.3-2021.07/gcc/arm-none-eabi/include/c++/10.3.1/bits/stl_algobase.h **** 
 853:/opt/homebrew/Cellar/arm-none-eabi-gcc/10.3-2021.07/gcc/arm-none-eabi/include/c++/10.3.1/bits/stl_algobase.h ****   template<typename _ForwardIterator, typename _Tp>
 854:/opt/homebrew/Cellar/arm-none-eabi-gcc/10.3-2021.07/gcc/arm-none-eabi/include/c++/10.3.1/bits/stl_algobase.h ****     _GLIBCXX20_CONSTEXPR
 855:/opt/homebrew/Cellar/arm-none-eabi-gcc/10.3-2021.07/gcc/arm-none-eabi/include/c++/10.3.1/bits/stl_algobase.h ****     inline typename
 856:/opt/homebrew/Cellar/arm-none-eabi-gcc/10.3-2021.07/gcc/arm-none-eabi/include/c++/10.3.1/bits/stl_algobase.h ****     __gnu_cxx::__enable_if<!__is_scalar<_Tp>::__value, void>::__type
 857:/opt/homebrew/Cellar/arm-none-eabi-gcc/10.3-2021.07/gcc/arm-none-eabi/include/c++/10.3.1/bits/stl_algobase.h ****     __fill_a1(_ForwardIterator __first, _ForwardIterator __last,
 858:/opt/homebrew/Cellar/arm-none-eabi-gcc/10.3-2021.07/gcc/arm-none-eabi/include/c++/10.3.1/bits/stl_algobase.h **** 	      const _Tp& __value)
 859:/opt/homebrew/Cellar/arm-none-eabi-gcc/10.3-2021.07/gcc/arm-none-eabi/include/c++/10.3.1/bits/stl_algobase.h ****     {
 860:/opt/homebrew/Cellar/arm-none-eabi-gcc/10.3-2021.07/gcc/arm-none-eabi/include/c++/10.3.1/bits/stl_algobase.h ****       for (; __first != __last; ++__first)
 861:/opt/homebrew/Cellar/arm-none-eabi-gcc/10.3-2021.07/gcc/arm-none-eabi/include/c++/10.3.1/bits/stl_algobase.h **** 	*__first = __value;
 862:/opt/homebrew/Cellar/arm-none-eabi-gcc/10.3-2021.07/gcc/arm-none-eabi/include/c++/10.3.1/bits/stl_algobase.h ****     }
 863:/opt/homebrew/Cellar/arm-none-eabi-gcc/10.3-2021.07/gcc/arm-none-eabi/include/c++/10.3.1/bits/stl_algobase.h **** 
 864:/opt/homebrew/Cellar/arm-none-eabi-gcc/10.3-2021.07/gcc/arm-none-eabi/include/c++/10.3.1/bits/stl_algobase.h ****   template<typename _ForwardIterator, typename _Tp>
 865:/opt/homebrew/Cellar/arm-none-eabi-gcc/10.3-2021.07/gcc/arm-none-eabi/include/c++/10.3.1/bits/stl_algobase.h ****     _GLIBCXX20_CONSTEXPR
 866:/opt/homebrew/Cellar/arm-none-eabi-gcc/10.3-2021.07/gcc/arm-none-eabi/include/c++/10.3.1/bits/stl_algobase.h ****     inline typename
 867:/opt/homebrew/Cellar/arm-none-eabi-gcc/10.3-2021.07/gcc/arm-none-eabi/include/c++/10.3.1/bits/stl_algobase.h ****     __gnu_cxx::__enable_if<__is_scalar<_Tp>::__value, void>::__type
 868:/opt/homebrew/Cellar/arm-none-eabi-gcc/10.3-2021.07/gcc/arm-none-eabi/include/c++/10.3.1/bits/stl_algobase.h ****     __fill_a1(_ForwardIterator __first, _ForwardIterator __last,
 869:/opt/homebrew/Cellar/arm-none-eabi-gcc/10.3-2021.07/gcc/arm-none-eabi/include/c++/10.3.1/bits/stl_algobase.h **** 	      const _Tp& __value)
 870:/opt/homebrew/Cellar/arm-none-eabi-gcc/10.3-2021.07/gcc/arm-none-eabi/include/c++/10.3.1/bits/stl_algobase.h ****     {
 871:/opt/homebrew/Cellar/arm-none-eabi-gcc/10.3-2021.07/gcc/arm-none-eabi/include/c++/10.3.1/bits/stl_algobase.h ****       const _Tp __tmp = __value;
 872:/opt/homebrew/Cellar/arm-none-eabi-gcc/10.3-2021.07/gcc/arm-none-eabi/include/c++/10.3.1/bits/stl_algobase.h ****       for (; __first != __last; ++__first)
  65              		.loc 2 872 22 view .LVU12
  66 0018 6D00     		lsls	r5, r5, #1
  67              	.LBE237:
  68              	.LBE236:
ARM GAS  /var/folders/hl/qgbwny5j0fd895c2c41bk3tw0000gp/T//ccTuF2qj.s 			page 19


  69              	.LBE235:
  70              	.LBE234:
  82:dsp/pvoc/stft.cpp ****     fill(&analysis_[0], &analysis_[buffer_size_], 0);
  71              		.loc 1 82 11 view .LVU13
  72 001a E06A     		ldr	r0, [r4, #44]
  80:dsp/pvoc/stft.cpp ****     block_size_  = 0;
  73              		.loc 1 80 18 view .LVU14
  74 001c A363     		str	r3, [r4, #56]
  81:dsp/pvoc/stft.cpp ****     fill(&analysis_[0], &analysis_[buffer_size_], 0);
  75              		.loc 1 81 5 is_stmt 1 view .LVU15
  76              		.loc 1 82 5 view .LVU16
  77              	.LVL2:
  78              	.LBB241:
  79              	.LBI234:
 873:/opt/homebrew/Cellar/arm-none-eabi-gcc/10.3-2021.07/gcc/arm-none-eabi/include/c++/10.3.1/bits/stl_algobase.h **** 	*__first = __tmp;
 874:/opt/homebrew/Cellar/arm-none-eabi-gcc/10.3-2021.07/gcc/arm-none-eabi/include/c++/10.3.1/bits/stl_algobase.h ****     }
 875:/opt/homebrew/Cellar/arm-none-eabi-gcc/10.3-2021.07/gcc/arm-none-eabi/include/c++/10.3.1/bits/stl_algobase.h **** 
 876:/opt/homebrew/Cellar/arm-none-eabi-gcc/10.3-2021.07/gcc/arm-none-eabi/include/c++/10.3.1/bits/stl_algobase.h ****   // Specialization: for char types we can use memset.
 877:/opt/homebrew/Cellar/arm-none-eabi-gcc/10.3-2021.07/gcc/arm-none-eabi/include/c++/10.3.1/bits/stl_algobase.h ****   template<typename _Tp>
 878:/opt/homebrew/Cellar/arm-none-eabi-gcc/10.3-2021.07/gcc/arm-none-eabi/include/c++/10.3.1/bits/stl_algobase.h ****     _GLIBCXX20_CONSTEXPR
 879:/opt/homebrew/Cellar/arm-none-eabi-gcc/10.3-2021.07/gcc/arm-none-eabi/include/c++/10.3.1/bits/stl_algobase.h ****     inline typename
 880:/opt/homebrew/Cellar/arm-none-eabi-gcc/10.3-2021.07/gcc/arm-none-eabi/include/c++/10.3.1/bits/stl_algobase.h ****     __gnu_cxx::__enable_if<__is_byte<_Tp>::__value, void>::__type
 881:/opt/homebrew/Cellar/arm-none-eabi-gcc/10.3-2021.07/gcc/arm-none-eabi/include/c++/10.3.1/bits/stl_algobase.h ****     __fill_a1(_Tp* __first, _Tp* __last, const _Tp& __c)
 882:/opt/homebrew/Cellar/arm-none-eabi-gcc/10.3-2021.07/gcc/arm-none-eabi/include/c++/10.3.1/bits/stl_algobase.h ****     {
 883:/opt/homebrew/Cellar/arm-none-eabi-gcc/10.3-2021.07/gcc/arm-none-eabi/include/c++/10.3.1/bits/stl_algobase.h ****       const _Tp __tmp = __c;
 884:/opt/homebrew/Cellar/arm-none-eabi-gcc/10.3-2021.07/gcc/arm-none-eabi/include/c++/10.3.1/bits/stl_algobase.h **** #if __cpp_lib_is_constant_evaluated
 885:/opt/homebrew/Cellar/arm-none-eabi-gcc/10.3-2021.07/gcc/arm-none-eabi/include/c++/10.3.1/bits/stl_algobase.h ****       if (std::is_constant_evaluated())
 886:/opt/homebrew/Cellar/arm-none-eabi-gcc/10.3-2021.07/gcc/arm-none-eabi/include/c++/10.3.1/bits/stl_algobase.h **** 	{
 887:/opt/homebrew/Cellar/arm-none-eabi-gcc/10.3-2021.07/gcc/arm-none-eabi/include/c++/10.3.1/bits/stl_algobase.h **** 	  for (; __first != __last; ++__first)
 888:/opt/homebrew/Cellar/arm-none-eabi-gcc/10.3-2021.07/gcc/arm-none-eabi/include/c++/10.3.1/bits/stl_algobase.h **** 	    *__first = __tmp;
 889:/opt/homebrew/Cellar/arm-none-eabi-gcc/10.3-2021.07/gcc/arm-none-eabi/include/c++/10.3.1/bits/stl_algobase.h **** 	  return;
 890:/opt/homebrew/Cellar/arm-none-eabi-gcc/10.3-2021.07/gcc/arm-none-eabi/include/c++/10.3.1/bits/stl_algobase.h **** 	}
 891:/opt/homebrew/Cellar/arm-none-eabi-gcc/10.3-2021.07/gcc/arm-none-eabi/include/c++/10.3.1/bits/stl_algobase.h **** #endif
 892:/opt/homebrew/Cellar/arm-none-eabi-gcc/10.3-2021.07/gcc/arm-none-eabi/include/c++/10.3.1/bits/stl_algobase.h ****       if (const size_t __len = __last - __first)
 893:/opt/homebrew/Cellar/arm-none-eabi-gcc/10.3-2021.07/gcc/arm-none-eabi/include/c++/10.3.1/bits/stl_algobase.h **** 	__builtin_memset(__first, static_cast<unsigned char>(__tmp), __len);
 894:/opt/homebrew/Cellar/arm-none-eabi-gcc/10.3-2021.07/gcc/arm-none-eabi/include/c++/10.3.1/bits/stl_algobase.h ****     }
 895:/opt/homebrew/Cellar/arm-none-eabi-gcc/10.3-2021.07/gcc/arm-none-eabi/include/c++/10.3.1/bits/stl_algobase.h **** 
 896:/opt/homebrew/Cellar/arm-none-eabi-gcc/10.3-2021.07/gcc/arm-none-eabi/include/c++/10.3.1/bits/stl_algobase.h ****   template<typename _Ite, typename _Cont, typename _Tp>
 897:/opt/homebrew/Cellar/arm-none-eabi-gcc/10.3-2021.07/gcc/arm-none-eabi/include/c++/10.3.1/bits/stl_algobase.h ****     _GLIBCXX20_CONSTEXPR
 898:/opt/homebrew/Cellar/arm-none-eabi-gcc/10.3-2021.07/gcc/arm-none-eabi/include/c++/10.3.1/bits/stl_algobase.h ****     inline void
 899:/opt/homebrew/Cellar/arm-none-eabi-gcc/10.3-2021.07/gcc/arm-none-eabi/include/c++/10.3.1/bits/stl_algobase.h ****     __fill_a1(::__gnu_cxx::__normal_iterator<_Ite, _Cont> __first,
 900:/opt/homebrew/Cellar/arm-none-eabi-gcc/10.3-2021.07/gcc/arm-none-eabi/include/c++/10.3.1/bits/stl_algobase.h **** 	      ::__gnu_cxx::__normal_iterator<_Ite, _Cont> __last,
 901:/opt/homebrew/Cellar/arm-none-eabi-gcc/10.3-2021.07/gcc/arm-none-eabi/include/c++/10.3.1/bits/stl_algobase.h **** 	      const _Tp& __value)
 902:/opt/homebrew/Cellar/arm-none-eabi-gcc/10.3-2021.07/gcc/arm-none-eabi/include/c++/10.3.1/bits/stl_algobase.h ****     { std::__fill_a1(__first.base(), __last.base(), __value); }
 903:/opt/homebrew/Cellar/arm-none-eabi-gcc/10.3-2021.07/gcc/arm-none-eabi/include/c++/10.3.1/bits/stl_algobase.h **** 
 904:/opt/homebrew/Cellar/arm-none-eabi-gcc/10.3-2021.07/gcc/arm-none-eabi/include/c++/10.3.1/bits/stl_algobase.h ****   template<typename _Tp, typename _VTp>
 905:/opt/homebrew/Cellar/arm-none-eabi-gcc/10.3-2021.07/gcc/arm-none-eabi/include/c++/10.3.1/bits/stl_algobase.h ****     void
 906:/opt/homebrew/Cellar/arm-none-eabi-gcc/10.3-2021.07/gcc/arm-none-eabi/include/c++/10.3.1/bits/stl_algobase.h ****     __fill_a1(const _GLIBCXX_STD_C::_Deque_iterator<_Tp, _Tp&, _Tp*>&,
 907:/opt/homebrew/Cellar/arm-none-eabi-gcc/10.3-2021.07/gcc/arm-none-eabi/include/c++/10.3.1/bits/stl_algobase.h **** 	      const _GLIBCXX_STD_C::_Deque_iterator<_Tp, _Tp&, _Tp*>&,
 908:/opt/homebrew/Cellar/arm-none-eabi-gcc/10.3-2021.07/gcc/arm-none-eabi/include/c++/10.3.1/bits/stl_algobase.h **** 	      const _VTp&);
 909:/opt/homebrew/Cellar/arm-none-eabi-gcc/10.3-2021.07/gcc/arm-none-eabi/include/c++/10.3.1/bits/stl_algobase.h **** 
 910:/opt/homebrew/Cellar/arm-none-eabi-gcc/10.3-2021.07/gcc/arm-none-eabi/include/c++/10.3.1/bits/stl_algobase.h ****   template<typename _FIte, typename _Tp>
 911:/opt/homebrew/Cellar/arm-none-eabi-gcc/10.3-2021.07/gcc/arm-none-eabi/include/c++/10.3.1/bits/stl_algobase.h ****     _GLIBCXX20_CONSTEXPR
 912:/opt/homebrew/Cellar/arm-none-eabi-gcc/10.3-2021.07/gcc/arm-none-eabi/include/c++/10.3.1/bits/stl_algobase.h ****     inline void
 913:/opt/homebrew/Cellar/arm-none-eabi-gcc/10.3-2021.07/gcc/arm-none-eabi/include/c++/10.3.1/bits/stl_algobase.h ****     __fill_a(_FIte __first, _FIte __last, const _Tp& __value)
 914:/opt/homebrew/Cellar/arm-none-eabi-gcc/10.3-2021.07/gcc/arm-none-eabi/include/c++/10.3.1/bits/stl_algobase.h ****     { std::__fill_a1(__first, __last, __value); }
 915:/opt/homebrew/Cellar/arm-none-eabi-gcc/10.3-2021.07/gcc/arm-none-eabi/include/c++/10.3.1/bits/stl_algobase.h **** 
ARM GAS  /var/folders/hl/qgbwny5j0fd895c2c41bk3tw0000gp/T//ccTuF2qj.s 			page 20


 916:/opt/homebrew/Cellar/arm-none-eabi-gcc/10.3-2021.07/gcc/arm-none-eabi/include/c++/10.3.1/bits/stl_algobase.h ****   template<typename _Ite, typename _Seq, typename _Cat, typename _Tp>
 917:/opt/homebrew/Cellar/arm-none-eabi-gcc/10.3-2021.07/gcc/arm-none-eabi/include/c++/10.3.1/bits/stl_algobase.h ****     void
 918:/opt/homebrew/Cellar/arm-none-eabi-gcc/10.3-2021.07/gcc/arm-none-eabi/include/c++/10.3.1/bits/stl_algobase.h ****     __fill_a(const ::__gnu_debug::_Safe_iterator<_Ite, _Seq, _Cat>&,
 919:/opt/homebrew/Cellar/arm-none-eabi-gcc/10.3-2021.07/gcc/arm-none-eabi/include/c++/10.3.1/bits/stl_algobase.h **** 	     const ::__gnu_debug::_Safe_iterator<_Ite, _Seq, _Cat>&,
 920:/opt/homebrew/Cellar/arm-none-eabi-gcc/10.3-2021.07/gcc/arm-none-eabi/include/c++/10.3.1/bits/stl_algobase.h **** 	     const _Tp&);
 921:/opt/homebrew/Cellar/arm-none-eabi-gcc/10.3-2021.07/gcc/arm-none-eabi/include/c++/10.3.1/bits/stl_algobase.h **** 
 922:/opt/homebrew/Cellar/arm-none-eabi-gcc/10.3-2021.07/gcc/arm-none-eabi/include/c++/10.3.1/bits/stl_algobase.h ****   /**
 923:/opt/homebrew/Cellar/arm-none-eabi-gcc/10.3-2021.07/gcc/arm-none-eabi/include/c++/10.3.1/bits/stl_algobase.h ****    *  @brief Fills the range [first,last) with copies of value.
 924:/opt/homebrew/Cellar/arm-none-eabi-gcc/10.3-2021.07/gcc/arm-none-eabi/include/c++/10.3.1/bits/stl_algobase.h ****    *  @ingroup mutating_algorithms
 925:/opt/homebrew/Cellar/arm-none-eabi-gcc/10.3-2021.07/gcc/arm-none-eabi/include/c++/10.3.1/bits/stl_algobase.h ****    *  @param  __first  A forward iterator.
 926:/opt/homebrew/Cellar/arm-none-eabi-gcc/10.3-2021.07/gcc/arm-none-eabi/include/c++/10.3.1/bits/stl_algobase.h ****    *  @param  __last   A forward iterator.
 927:/opt/homebrew/Cellar/arm-none-eabi-gcc/10.3-2021.07/gcc/arm-none-eabi/include/c++/10.3.1/bits/stl_algobase.h ****    *  @param  __value  A reference-to-const of arbitrary type.
 928:/opt/homebrew/Cellar/arm-none-eabi-gcc/10.3-2021.07/gcc/arm-none-eabi/include/c++/10.3.1/bits/stl_algobase.h ****    *  @return   Nothing.
 929:/opt/homebrew/Cellar/arm-none-eabi-gcc/10.3-2021.07/gcc/arm-none-eabi/include/c++/10.3.1/bits/stl_algobase.h ****    *
 930:/opt/homebrew/Cellar/arm-none-eabi-gcc/10.3-2021.07/gcc/arm-none-eabi/include/c++/10.3.1/bits/stl_algobase.h ****    *  This function fills a range with copies of the same value.  For char
 931:/opt/homebrew/Cellar/arm-none-eabi-gcc/10.3-2021.07/gcc/arm-none-eabi/include/c++/10.3.1/bits/stl_algobase.h ****    *  types filling contiguous areas of memory, this becomes an inline call
 932:/opt/homebrew/Cellar/arm-none-eabi-gcc/10.3-2021.07/gcc/arm-none-eabi/include/c++/10.3.1/bits/stl_algobase.h ****    *  to @c memset or @c wmemset.
 933:/opt/homebrew/Cellar/arm-none-eabi-gcc/10.3-2021.07/gcc/arm-none-eabi/include/c++/10.3.1/bits/stl_algobase.h ****   */
 934:/opt/homebrew/Cellar/arm-none-eabi-gcc/10.3-2021.07/gcc/arm-none-eabi/include/c++/10.3.1/bits/stl_algobase.h ****   template<typename _ForwardIterator, typename _Tp>
 935:/opt/homebrew/Cellar/arm-none-eabi-gcc/10.3-2021.07/gcc/arm-none-eabi/include/c++/10.3.1/bits/stl_algobase.h ****     _GLIBCXX20_CONSTEXPR
 936:/opt/homebrew/Cellar/arm-none-eabi-gcc/10.3-2021.07/gcc/arm-none-eabi/include/c++/10.3.1/bits/stl_algobase.h ****     inline void
 937:/opt/homebrew/Cellar/arm-none-eabi-gcc/10.3-2021.07/gcc/arm-none-eabi/include/c++/10.3.1/bits/stl_algobase.h ****     fill(_ForwardIterator __first, _ForwardIterator __last, const _Tp& __value)
  80              		.loc 2 937 5 view .LVU17
  81              	.LBB240:
  82              	.LBI235:
 913:/opt/homebrew/Cellar/arm-none-eabi-gcc/10.3-2021.07/gcc/arm-none-eabi/include/c++/10.3.1/bits/stl_algobase.h ****     { std::__fill_a1(__first, __last, __value); }
  83              		.loc 2 913 5 view .LVU18
  84              	.LBB239:
  85              	.LBI236:
 868:/opt/homebrew/Cellar/arm-none-eabi-gcc/10.3-2021.07/gcc/arm-none-eabi/include/c++/10.3.1/bits/stl_algobase.h **** 	      const _Tp& __value)
  86              		.loc 2 868 5 view .LVU19
  87              	.LBB238:
 872:/opt/homebrew/Cellar/arm-none-eabi-gcc/10.3-2021.07/gcc/arm-none-eabi/include/c++/10.3.1/bits/stl_algobase.h **** 	*__first = __tmp;
  88              		.loc 2 872 22 view .LVU20
  89 001e 02D0     		beq	.L2
 873:/opt/homebrew/Cellar/arm-none-eabi-gcc/10.3-2021.07/gcc/arm-none-eabi/include/c++/10.3.1/bits/stl_algobase.h ****     }
  90              		.loc 2 873 11 is_stmt 0 view .LVU21
  91 0020 2A46     		mov	r2, r5
  92 0022 FFF7FEFF 		bl	memset
  93              	.LVL3:
  94              	.L2:
 873:/opt/homebrew/Cellar/arm-none-eabi-gcc/10.3-2021.07/gcc/arm-none-eabi/include/c++/10.3.1/bits/stl_algobase.h ****     }
  95              		.loc 2 873 11 view .LVU22
  96              	.LBE238:
  97              	.LBE239:
  98              	.LBE240:
  99              	.LBE241:
  83:dsp/pvoc/stft.cpp ****     fill(&synthesis_[0], &synthesis_[buffer_size_], 0);
 100              		.loc 1 83 5 is_stmt 1 view .LVU23
 101              		.loc 1 83 11 is_stmt 0 view .LVU24
 102 0026 206B     		ldr	r0, [r4, #48]
 103              	.LVL4:
 104              	.LBB242:
 105              	.LBI242:
 106              		.loc 2 937 5 is_stmt 1 view .LVU25
 107              	.LBB243:
 108              	.LBI243:
ARM GAS  /var/folders/hl/qgbwny5j0fd895c2c41bk3tw0000gp/T//ccTuF2qj.s 			page 21


 913:/opt/homebrew/Cellar/arm-none-eabi-gcc/10.3-2021.07/gcc/arm-none-eabi/include/c++/10.3.1/bits/stl_algobase.h ****     { std::__fill_a1(__first, __last, __value); }
 109              		.loc 2 913 5 view .LVU26
 110              	.LBB244:
 111              	.LBI244:
 868:/opt/homebrew/Cellar/arm-none-eabi-gcc/10.3-2021.07/gcc/arm-none-eabi/include/c++/10.3.1/bits/stl_algobase.h **** 	      const _Tp& __value)
 112              		.loc 2 868 5 view .LVU27
 113              	.LBB245:
 872:/opt/homebrew/Cellar/arm-none-eabi-gcc/10.3-2021.07/gcc/arm-none-eabi/include/c++/10.3.1/bits/stl_algobase.h **** 	*__first = __tmp;
 114              		.loc 2 872 22 view .LVU28
 115 0028 1DB1     		cbz	r5, .L3
 873:/opt/homebrew/Cellar/arm-none-eabi-gcc/10.3-2021.07/gcc/arm-none-eabi/include/c++/10.3.1/bits/stl_algobase.h ****     }
 116              		.loc 2 873 11 is_stmt 0 view .LVU29
 117 002a 2A46     		mov	r2, r5
 118 002c 0021     		movs	r1, #0
 119 002e FFF7FEFF 		bl	memset
 120              	.LVL5:
 121              	.L3:
 873:/opt/homebrew/Cellar/arm-none-eabi-gcc/10.3-2021.07/gcc/arm-none-eabi/include/c++/10.3.1/bits/stl_algobase.h ****     }
 122              		.loc 2 873 11 view .LVU30
 123              	.LBE245:
 124              	.LBE244:
 125              	.LBE243:
 126              	.LBE242:
  84:dsp/pvoc/stft.cpp ****     ready_ = 0;
 127              		.loc 1 84 5 is_stmt 1 view .LVU31
 128              		.loc 1 84 12 is_stmt 0 view .LVU32
 129 0032 0023     		movs	r3, #0
  85:dsp/pvoc/stft.cpp ****     done_  = 0;
 130              		.loc 1 85 12 view .LVU33
 131 0034 C4E91033 		strd	r3, r3, [r4, #64]
  86:dsp/pvoc/stft.cpp **** }
 132              		.loc 1 86 1 view .LVU34
 133 0038 38BD     		pop	{r3, r4, r5, pc}
 134              		.loc 1 86 1 view .LVU35
 135              		.cfi_endproc
 136              	.LFE4866:
 138 003a 00BF     		.section	.text._ZN4STFT4InitEP6ShyFFTIfLj4096E14RotationPhasorEjjPfS4_PKfPsP19FrameTransformation,
 139              		.align	1
 140              		.p2align 2,,3
 141              		.global	_ZN4STFT4InitEP6ShyFFTIfLj4096E14RotationPhasorEjjPfS4_PKfPsP19FrameTransformation
 142              		.syntax unified
 143              		.thumb
 144              		.thumb_func
 145              		.fpu fpv5-d16
 147              	_ZN4STFT4InitEP6ShyFFTIfLj4096E14RotationPhasorEjjPfS4_PKfPsP19FrameTransformation:
 148              	.LVL6:
 149              	.LFB4865:
  45:dsp/pvoc/stft.cpp ****     fft_size_       = fft_size;
 150              		.loc 1 45 1 is_stmt 1 view -0
 151              		.cfi_startproc
 152              		@ args = 20, pretend = 0, frame = 8
 153              		@ frame_needed = 0, uses_anonymous_args = 0
  46:dsp/pvoc/stft.cpp ****     hop_size_       = hop_size;
 154              		.loc 1 46 5 view .LVU37
  45:dsp/pvoc/stft.cpp ****     fft_size_       = fft_size;
 155              		.loc 1 45 1 is_stmt 0 view .LVU38
 156 0000 2DE9F04F 		push	{r4, r5, r6, r7, r8, r9, r10, fp, lr}
ARM GAS  /var/folders/hl/qgbwny5j0fd895c2c41bk3tw0000gp/T//ccTuF2qj.s 			page 22


 157              		.cfi_def_cfa_offset 36
 158              		.cfi_offset 4, -36
 159              		.cfi_offset 5, -32
 160              		.cfi_offset 6, -28
 161              		.cfi_offset 7, -24
 162              		.cfi_offset 8, -20
 163              		.cfi_offset 9, -16
 164              		.cfi_offset 10, -12
 165              		.cfi_offset 11, -8
 166              		.cfi_offset 14, -4
 167 0004 1446     		mov	r4, r2
 168 0006 8046     		mov	r8, r0
 169 0008 2DED028B 		vpush.64	{d8}
 170              		.cfi_def_cfa_offset 44
 171              		.cfi_offset 80, -44
 172              		.cfi_offset 81, -40
  46:dsp/pvoc/stft.cpp ****     hop_size_       = hop_size;
 173              		.loc 1 46 21 view .LVU39
 174 000c 4260     		str	r2, [r0, #4]
  47:dsp/pvoc/stft.cpp ****     fft_num_passes_ = 0;
 175              		.loc 1 47 5 is_stmt 1 view .LVU40
  45:dsp/pvoc/stft.cpp ****     fft_size_       = fft_size;
 176              		.loc 1 45 1 is_stmt 0 view .LVU41
 177 000e 83B0     		sub	sp, sp, #12
 178              		.cfi_def_cfa_offset 56
  48:dsp/pvoc/stft.cpp ****     for(size_t t = fft_size; t > 1; t >>= 1)
 179              		.loc 1 48 21 view .LVU42
 180 0010 0022     		movs	r2, #0
 181              	.LVL7:
 182              	.LBB257:
  49:dsp/pvoc/stft.cpp ****     {
 183              		.loc 1 49 32 view .LVU43
 184 0012 012C     		cmp	r4, #1
 185              	.LBE257:
  45:dsp/pvoc/stft.cpp ****     fft_size_       = fft_size;
 186              		.loc 1 45 1 view .LVU44
 187 0014 0E9F     		ldr	r7, [sp, #56]
  48:dsp/pvoc/stft.cpp ****     for(size_t t = fft_size; t > 1; t >>= 1)
 188              		.loc 1 48 21 view .LVU45
 189 0016 8260     		str	r2, [r0, #8]
  47:dsp/pvoc/stft.cpp ****     fft_num_passes_ = 0;
 190              		.loc 1 47 21 view .LVU46
 191 0018 C360     		str	r3, [r0, #12]
  48:dsp/pvoc/stft.cpp ****     for(size_t t = fft_size; t > 1; t >>= 1)
 192              		.loc 1 48 5 is_stmt 1 view .LVU47
  49:dsp/pvoc/stft.cpp ****     {
 193              		.loc 1 49 5 view .LVU48
 194              	.LVL8:
 195              	.LBB258:
  49:dsp/pvoc/stft.cpp ****     {
 196              		.loc 1 49 32 view .LVU49
 197              	.LBE258:
  45:dsp/pvoc/stft.cpp ****     fft_size_       = fft_size;
 198              		.loc 1 45 1 is_stmt 0 view .LVU50
 199 001a DDE91152 		ldrd	r5, r2, [sp, #68]
 200 001e DDE90F69 		ldrd	r6, r9, [sp, #60]
 201 0022 0192     		str	r2, [sp, #4]
ARM GAS  /var/folders/hl/qgbwny5j0fd895c2c41bk3tw0000gp/T//ccTuF2qj.s 			page 23


 202              	.LBB259:
  49:dsp/pvoc/stft.cpp ****     {
 203              		.loc 1 49 32 view .LVU51
 204 0024 0AD9     		bls	.L13
 205 0026 A446     		mov	ip, r4
 206 0028 0122     		movs	r2, #1
 207              	.LVL9:
 208              	.L14:
  51:dsp/pvoc/stft.cpp ****     }
 209              		.loc 1 51 9 is_stmt 1 discriminator 2 view .LVU52
  49:dsp/pvoc/stft.cpp ****     {
 210              		.loc 1 49 5 discriminator 2 view .LVU53
  49:dsp/pvoc/stft.cpp ****     {
 211              		.loc 1 49 39 is_stmt 0 discriminator 2 view .LVU54
 212 002a 4FEA5C0C 		lsr	ip, ip, #1
 213              	.LVL10:
  49:dsp/pvoc/stft.cpp ****     {
 214              		.loc 1 49 32 is_stmt 1 discriminator 2 view .LVU55
 215 002e 1046     		mov	r0, r2
 216 0030 0132     		adds	r2, r2, #1
 217 0032 BCF1010F 		cmp	ip, #1
 218 0036 F8D1     		bne	.L14
 219 0038 C8F80800 		str	r0, [r8, #8]
 220              	.LVL11:
 221              	.L13:
  49:dsp/pvoc/stft.cpp ****     {
 222              		.loc 1 49 32 is_stmt 0 discriminator 2 view .LVU56
 223              	.LBE259:
  53:dsp/pvoc/stft.cpp **** 
 224              		.loc 1 53 5 is_stmt 1 view .LVU57
  53:dsp/pvoc/stft.cpp **** 
 225              		.loc 1 53 30 is_stmt 0 view .LVU58
 226 003c 2344     		add	r3, r3, r4
 227              	.LVL12:
  55:dsp/pvoc/stft.cpp **** #ifdef USE_ARM_FFT
 228              		.loc 1 55 10 view .LVU59
 229 003e C8F80010 		str	r1, [r8]
 230              	.LBB260:
 231              	.LBB261:
 232              		.file 3 "./shy_fft.h"
   1:./shy_fft.h   **** // Copyright 2014 Emilie Gillet.
   2:./shy_fft.h   **** //
   3:./shy_fft.h   **** // Author: Emilie Gillet (emilie.o.gillet@gmail.com)
   4:./shy_fft.h   **** //
   5:./shy_fft.h   **** // Permission is hereby granted, free of charge, to any person obtaining a copy
   6:./shy_fft.h   **** // of this software and associated documentation files (the "Software"), to deal
   7:./shy_fft.h   **** // in the Software without restriction, including without limitation the rights
   8:./shy_fft.h   **** // to use, copy, modify, merge, publish, distribute, sublicense, and/or sell
   9:./shy_fft.h   **** // copies of the Software, and to permit persons to whom the Software is
  10:./shy_fft.h   **** // furnished to do so, subject to the following conditions:
  11:./shy_fft.h   **** //
  12:./shy_fft.h   **** // The above copyright notice and this permission notice shall be included in
  13:./shy_fft.h   **** // all copies or substantial portions of the Software.
  14:./shy_fft.h   **** //
  15:./shy_fft.h   **** // THE SOFTWARE IS PROVIDED "AS IS", WITHOUT WARRANTY OF ANY KIND, EXPRESS OR
  16:./shy_fft.h   **** // IMPLIED, INCLUDING BUT NOT LIMITED TO THE WARRANTIES OF MERCHANTABILITY,
  17:./shy_fft.h   **** // FITNESS FOR A PARTICULAR PURPOSE AND NONINFRINGEMENT. IN NO EVENT SHALL THE
ARM GAS  /var/folders/hl/qgbwny5j0fd895c2c41bk3tw0000gp/T//ccTuF2qj.s 			page 24


  18:./shy_fft.h   **** // AUTHORS OR COPYRIGHT HOLDERS BE LIABLE FOR ANY CLAIM, DAMAGES OR OTHER
  19:./shy_fft.h   **** // LIABILITY, WHETHER IN AN ACTION OF CONTRACT, TORT OR OTHERWISE, ARISING FROM,
  20:./shy_fft.h   **** // OUT OF OR IN CONNECTION WITH THE SOFTWARE OR THE USE OR OTHER DEALINGS IN
  21:./shy_fft.h   **** // THE SOFTWARE.
  22:./shy_fft.h   **** //
  23:./shy_fft.h   **** // See http://creativecommons.org/licenses/MIT/ for more information.
  24:./shy_fft.h   **** //
  25:./shy_fft.h   **** // -----------------------------------------------------------------------------
  26:./shy_fft.h   **** //
  27:./shy_fft.h   **** // A modest implementation of real FFT for embedded audio applications,
  28:./shy_fft.h   **** // largely based on Laurent de Soras' FFTReal.
  29:./shy_fft.h   **** //
  30:./shy_fft.h   **** // Improvements:
  31:./shy_fft.h   **** // * No dynamic allocations.
  32:./shy_fft.h   **** // * No additional buffering (can use the input buffer as a workspace).
  33:./shy_fft.h   **** // * No big bitrev lookup table.
  34:./shy_fft.h   **** // * Keep the fixed size template signature, but also provide method for
  35:./shy_fft.h   **** //   variable size (up to the fixed size).
  36:./shy_fft.h   **** 
  37:./shy_fft.h   **** #ifndef STMLIB_FFT_SHY_FFT_H_
  38:./shy_fft.h   **** #define STMLIB_FFT_SHY_FFT_H_
  39:./shy_fft.h   **** 
  40:./shy_fft.h   **** #include <algorithm>
  41:./shy_fft.h   **** #include <cmath>
  42:./shy_fft.h   **** #include <stdint.h>
  43:./shy_fft.h   **** 
  44:./shy_fft.h   **** // Compile-time log 2
  45:./shy_fft.h   **** template <size_t x>
  46:./shy_fft.h   **** struct Log2
  47:./shy_fft.h   **** {
  48:./shy_fft.h   ****     enum
  49:./shy_fft.h   ****     {
  50:./shy_fft.h   ****         value = Log2<x / 2>::value + 1
  51:./shy_fft.h   ****     };
  52:./shy_fft.h   ****     typedef char CheckPowerOf2[((x & (x - 1)) == 0 ? 1 : -1)];
  53:./shy_fft.h   **** };
  54:./shy_fft.h   **** 
  55:./shy_fft.h   **** template <>
  56:./shy_fft.h   **** struct Log2<1>
  57:./shy_fft.h   **** {
  58:./shy_fft.h   ****     enum
  59:./shy_fft.h   ****     {
  60:./shy_fft.h   ****         value = 0
  61:./shy_fft.h   ****     };
  62:./shy_fft.h   **** };
  63:./shy_fft.h   **** 
  64:./shy_fft.h   **** 
  65:./shy_fft.h   **** // Bit reversal LUT size.
  66:./shy_fft.h   **** template <size_t>
  67:./shy_fft.h   **** struct BitReversalLut
  68:./shy_fft.h   **** {
  69:./shy_fft.h   ****     enum
  70:./shy_fft.h   ****     {
  71:./shy_fft.h   ****         size = 1
  72:./shy_fft.h   ****     };
  73:./shy_fft.h   **** };
  74:./shy_fft.h   **** template <>
ARM GAS  /var/folders/hl/qgbwny5j0fd895c2c41bk3tw0000gp/T//ccTuF2qj.s 			page 25


  75:./shy_fft.h   **** struct BitReversalLut<3>
  76:./shy_fft.h   **** {
  77:./shy_fft.h   ****     enum
  78:./shy_fft.h   ****     {
  79:./shy_fft.h   ****         size = 2
  80:./shy_fft.h   ****     };
  81:./shy_fft.h   **** };
  82:./shy_fft.h   **** template <>
  83:./shy_fft.h   **** struct BitReversalLut<4>
  84:./shy_fft.h   **** {
  85:./shy_fft.h   ****     enum
  86:./shy_fft.h   ****     {
  87:./shy_fft.h   ****         size = 4
  88:./shy_fft.h   ****     };
  89:./shy_fft.h   **** };
  90:./shy_fft.h   **** template <>
  91:./shy_fft.h   **** struct BitReversalLut<5>
  92:./shy_fft.h   **** {
  93:./shy_fft.h   ****     enum
  94:./shy_fft.h   ****     {
  95:./shy_fft.h   ****         size = 8
  96:./shy_fft.h   ****     };
  97:./shy_fft.h   **** };
  98:./shy_fft.h   **** template <>
  99:./shy_fft.h   **** struct BitReversalLut<6>
 100:./shy_fft.h   **** {
 101:./shy_fft.h   ****     enum
 102:./shy_fft.h   ****     {
 103:./shy_fft.h   ****         size = 16
 104:./shy_fft.h   ****     };
 105:./shy_fft.h   **** };
 106:./shy_fft.h   **** template <>
 107:./shy_fft.h   **** struct BitReversalLut<7>
 108:./shy_fft.h   **** {
 109:./shy_fft.h   ****     enum
 110:./shy_fft.h   ****     {
 111:./shy_fft.h   ****         size = 32
 112:./shy_fft.h   ****     };
 113:./shy_fft.h   **** };
 114:./shy_fft.h   **** template <>
 115:./shy_fft.h   **** struct BitReversalLut<8>
 116:./shy_fft.h   **** {
 117:./shy_fft.h   ****     enum
 118:./shy_fft.h   ****     {
 119:./shy_fft.h   ****         size = 64
 120:./shy_fft.h   ****     };
 121:./shy_fft.h   **** };
 122:./shy_fft.h   **** 
 123:./shy_fft.h   **** 
 124:./shy_fft.h   **** // Typed math functions and constants.
 125:./shy_fft.h   **** template <typename T>
 126:./shy_fft.h   **** struct Math
 127:./shy_fft.h   **** {
 128:./shy_fft.h   ****     inline T pi() const;
 129:./shy_fft.h   ****     inline T sqrt_2_div_2() const;
 130:./shy_fft.h   ****     inline T cos(T x);
 131:./shy_fft.h   ****     inline T sin(T x);
ARM GAS  /var/folders/hl/qgbwny5j0fd895c2c41bk3tw0000gp/T//ccTuF2qj.s 			page 26


 132:./shy_fft.h   **** };
 133:./shy_fft.h   **** 
 134:./shy_fft.h   **** template <>
 135:./shy_fft.h   **** struct Math<float>
 136:./shy_fft.h   **** {
 137:./shy_fft.h   ****     inline float pi() const { return 3.141592653589793f; }
 138:./shy_fft.h   ****     inline float sqrt_2_div_2() const { return 0.7071067811865476f; }
 139:./shy_fft.h   ****     inline float cos(float x) { return cosf(x); }
 140:./shy_fft.h   ****     inline float sin(float x) { return sinf(x); }
 141:./shy_fft.h   **** };
 142:./shy_fft.h   **** 
 143:./shy_fft.h   **** template <>
 144:./shy_fft.h   **** struct Math<double>
 145:./shy_fft.h   **** {
 146:./shy_fft.h   ****     inline double pi() const { return 3.141592653589793; }
 147:./shy_fft.h   ****     inline float  sqrt_2_div_2() const { return 0.7071067811865476; }
 148:./shy_fft.h   ****     inline double cos(double x) { return cos(x); }
 149:./shy_fft.h   ****     inline double sin(double x) { return sin(x); }
 150:./shy_fft.h   **** };
 151:./shy_fft.h   **** 
 152:./shy_fft.h   **** 
 153:./shy_fft.h   **** // Look-up table for trigonometric data.
 154:./shy_fft.h   **** template <typename T, size_t num_passes>
 155:./shy_fft.h   **** class LutPhasor
 156:./shy_fft.h   **** {
 157:./shy_fft.h   ****   public:
 158:./shy_fft.h   ****     LutPhasor() {}
 159:./shy_fft.h   ****     ~LutPhasor() {}
 160:./shy_fft.h   **** 
 161:./shy_fft.h   ****     void Init()
 162:./shy_fft.h   ****     {
 163:./shy_fft.h   ****         Math<T> math;
 164:./shy_fft.h   **** 
 165:./shy_fft.h   ****         for(size_t pass = 3; pass < num_passes; ++pass)
 166:./shy_fft.h   ****         {
 167:./shy_fft.h   ****             size_t pass_size = 1L << (pass - 1);
 168:./shy_fft.h   ****             T*     pass_ptr  = &trig_lut_[(1L << (pass - 1)) - 4];
 169:./shy_fft.h   ****             T      increment = math.pi() / (pass_size << 1);
 170:./shy_fft.h   ****             T      phase     = 0.0;
 171:./shy_fft.h   ****             for(size_t i = 0; i < pass_size; ++i)
 172:./shy_fft.h   ****             {
 173:./shy_fft.h   ****                 pass_ptr[i] = math.cos(phase);
 174:./shy_fft.h   ****                 phase += increment;
 175:./shy_fft.h   ****             }
 176:./shy_fft.h   ****         }
 177:./shy_fft.h   ****     }
 178:./shy_fft.h   **** 
 179:./shy_fft.h   ****     inline void Start(size_t pass)
 180:./shy_fft.h   ****     {
 181:./shy_fft.h   ****         size_t pass_size = 1 << (pass - 1);
 182:./shy_fft.h   ****         cos_ptr_         = &trig_lut_[pass_size - 4 + 1];
 183:./shy_fft.h   ****         sin_ptr_         = &trig_lut_[pass_size + pass_size - 4 - 1];
 184:./shy_fft.h   ****     }
 185:./shy_fft.h   **** 
 186:./shy_fft.h   ****     inline void Rotate()
 187:./shy_fft.h   ****     {
 188:./shy_fft.h   ****         ++cos_ptr_;
ARM GAS  /var/folders/hl/qgbwny5j0fd895c2c41bk3tw0000gp/T//ccTuF2qj.s 			page 27


 189:./shy_fft.h   ****         --sin_ptr_;
 190:./shy_fft.h   ****     }
 191:./shy_fft.h   **** 
 192:./shy_fft.h   ****     inline T cos() const { return *cos_ptr_; }
 193:./shy_fft.h   ****     inline T sin() const { return *sin_ptr_; }
 194:./shy_fft.h   **** 
 195:./shy_fft.h   ****   private:
 196:./shy_fft.h   ****     T  trig_lut_[(1 << (num_passes - 1)) - 4];
 197:./shy_fft.h   ****     T* cos_ptr_;
 198:./shy_fft.h   ****     T* sin_ptr_;
 199:./shy_fft.h   **** };
 200:./shy_fft.h   **** 
 201:./shy_fft.h   **** template <typename T>
 202:./shy_fft.h   **** struct LutPhasor<T, 0>
 203:./shy_fft.h   **** {
 204:./shy_fft.h   ****     void Init(){};
 205:./shy_fft.h   **** };
 206:./shy_fft.h   **** template <typename T>
 207:./shy_fft.h   **** struct LutPhasor<T, 1>
 208:./shy_fft.h   **** {
 209:./shy_fft.h   ****     void Init(){};
 210:./shy_fft.h   **** };
 211:./shy_fft.h   **** template <typename T>
 212:./shy_fft.h   **** struct LutPhasor<T, 2>
 213:./shy_fft.h   **** {
 214:./shy_fft.h   ****     void Init(){};
 215:./shy_fft.h   **** };
 216:./shy_fft.h   **** 
 217:./shy_fft.h   **** template <typename T>
 218:./shy_fft.h   **** struct LutPhasor<T, 3>
 219:./shy_fft.h   **** {
 220:./shy_fft.h   ****     void     Init(){};
 221:./shy_fft.h   ****     void     Start(size_t){};
 222:./shy_fft.h   ****     void     Rotate(){};
 223:./shy_fft.h   ****     inline T cos() const { return 1.0; }
 224:./shy_fft.h   ****     inline T sin() const { return 0.0; }
 225:./shy_fft.h   **** };
 226:./shy_fft.h   **** 
 227:./shy_fft.h   **** 
 228:./shy_fft.h   **** // Another way of generating roots of unity.
 229:./shy_fft.h   **** template <typename T, size_t num_passes>
 230:./shy_fft.h   **** class RotationPhasor
 231:./shy_fft.h   **** {
 232:./shy_fft.h   ****   public:
 233:./shy_fft.h   ****     RotationPhasor() {}
 234:./shy_fft.h   ****     ~RotationPhasor() {}
 235:./shy_fft.h   **** 
 236:./shy_fft.h   ****     void Init()
 237:./shy_fft.h   ****     {
 238:./shy_fft.h   ****         Math<T> math;
 239:./shy_fft.h   ****         for(size_t pass = 3; pass < num_passes; ++pass)
 240:./shy_fft.h   ****         {
 241:./shy_fft.h   ****             size_t index            = (pass - 3) << 1;
 242:./shy_fft.h   ****             T      angle            = math.pi() / (1 << pass);
 243:./shy_fft.h   ****             sin_cos_lut_[index]     = math.cos(angle);
 244:./shy_fft.h   ****             sin_cos_lut_[index + 1] = math.sin(angle);
 245:./shy_fft.h   ****         }
ARM GAS  /var/folders/hl/qgbwny5j0fd895c2c41bk3tw0000gp/T//ccTuF2qj.s 			page 28


 246:./shy_fft.h   ****     }
 247:./shy_fft.h   **** 
 248:./shy_fft.h   ****     inline void Start(size_t pass)
 249:./shy_fft.h   ****     {
 250:./shy_fft.h   ****         size_t index = (pass - 3) << 1;
 251:./shy_fft.h   ****         cos_ = real_ = sin_cos_lut_[index];
 252:./shy_fft.h   ****         sin_ = imag_ = sin_cos_lut_[index + 1];
 253:./shy_fft.h   ****     }
 254:./shy_fft.h   **** 
 255:./shy_fft.h   ****     inline void Rotate()
 256:./shy_fft.h   ****     {
 257:./shy_fft.h   ****         T temp = cos_ * real_ - sin_ * imag_;
 258:./shy_fft.h   ****         sin_   = cos_ * imag_ + sin_ * real_;
 259:./shy_fft.h   ****         cos_   = temp;
 260:./shy_fft.h   ****     }
 261:./shy_fft.h   **** 
 262:./shy_fft.h   ****     inline T cos() const { return cos_; }
 263:./shy_fft.h   ****     inline T sin() const { return sin_; }
 264:./shy_fft.h   **** 
 265:./shy_fft.h   ****   private:
 266:./shy_fft.h   ****     T sin_cos_lut_[(num_passes - 3) << 1];
 267:./shy_fft.h   ****     T cos_;
 268:./shy_fft.h   ****     T sin_;
 269:./shy_fft.h   ****     T real_;
 270:./shy_fft.h   ****     T imag_;
 271:./shy_fft.h   **** };
 272:./shy_fft.h   **** 
 273:./shy_fft.h   **** template <typename T>
 274:./shy_fft.h   **** struct RotationPhasor<T, 0>
 275:./shy_fft.h   **** {
 276:./shy_fft.h   ****     void Init(){};
 277:./shy_fft.h   **** };
 278:./shy_fft.h   **** template <typename T>
 279:./shy_fft.h   **** struct RotationPhasor<T, 1>
 280:./shy_fft.h   **** {
 281:./shy_fft.h   ****     void Init(){};
 282:./shy_fft.h   **** };
 283:./shy_fft.h   **** template <typename T>
 284:./shy_fft.h   **** struct RotationPhasor<T, 2>
 285:./shy_fft.h   **** {
 286:./shy_fft.h   ****     void Init(){};
 287:./shy_fft.h   **** };
 288:./shy_fft.h   **** 
 289:./shy_fft.h   **** template <typename T>
 290:./shy_fft.h   **** struct RotationPhasor<T, 3>
 291:./shy_fft.h   **** {
 292:./shy_fft.h   ****     void     Init(){};
 293:./shy_fft.h   ****     void     Start(size_t){};
 294:./shy_fft.h   ****     void     Rotate(){};
 295:./shy_fft.h   ****     inline T cos() const { return 1.0; }
 296:./shy_fft.h   ****     inline T sin() const { return 0.0; }
 297:./shy_fft.h   **** };
 298:./shy_fft.h   **** 
 299:./shy_fft.h   **** // Direct transform
 300:./shy_fft.h   **** template <typename T, size_t num_passes, typename Phasor>
 301:./shy_fft.h   **** struct DirectTransform
 302:./shy_fft.h   **** {
ARM GAS  /var/folders/hl/qgbwny5j0fd895c2c41bk3tw0000gp/T//ccTuF2qj.s 			page 29


 303:./shy_fft.h   ****   private:
 304:./shy_fft.h   ****     enum
 305:./shy_fft.h   ****     {
 306:./shy_fft.h   ****         size = 1 << num_passes
 307:./shy_fft.h   ****     };
 308:./shy_fft.h   **** 
 309:./shy_fft.h   ****   public:
 310:./shy_fft.h   ****     void operator()(T* input, T* output, const uint8_t* bit_rev, Phasor* phasor)
 311:./shy_fft.h   ****     {
 312:./shy_fft.h   ****         T*      s;
 313:./shy_fft.h   ****         T*      d;
 314:./shy_fft.h   ****         Math<T> math;
 315:./shy_fft.h   **** 
 316:./shy_fft.h   ****         // First and second pass.
 317:./shy_fft.h   ****         d = output;
 318:./shy_fft.h   ****         for(size_t i = 0; i < size; i += 4)
 319:./shy_fft.h   ****         {
 320:./shy_fft.h   ****             const T* s  = input;
 321:./shy_fft.h   ****             size_t   r0 = num_passes <= 8
 322:./shy_fft.h   ****                             ? bit_rev[i >> 2]
 323:./shy_fft.h   ****                             : ((bit_rev[i & 0xff] << 8) | bit_rev[i >> 8])
 324:./shy_fft.h   ****                                   >> (16 - num_passes);
 325:./shy_fft.h   ****             size_t r1 = r0 + 2 * (size >> 2);
 326:./shy_fft.h   ****             size_t r2 = r0 + 1 * (size >> 2);
 327:./shy_fft.h   ****             size_t r3 = r0 + 3 * (size >> 2);
 328:./shy_fft.h   **** 
 329:./shy_fft.h   ****             d[1] = s[r0] - s[r1];
 330:./shy_fft.h   ****             d[3] = s[r2] - s[r3];
 331:./shy_fft.h   ****             T a  = s[r0] + s[r1];
 332:./shy_fft.h   ****             T b  = s[r2] + s[r3];
 333:./shy_fft.h   ****             d[0] = a + b;
 334:./shy_fft.h   ****             d[2] = a - b;
 335:./shy_fft.h   ****             d += 4;
 336:./shy_fft.h   ****         }
 337:./shy_fft.h   **** 
 338:./shy_fft.h   ****         // Third pass.
 339:./shy_fft.h   ****         s = output;
 340:./shy_fft.h   ****         d = input;
 341:./shy_fft.h   ****         for(size_t i = 0; i < size; i += 8)
 342:./shy_fft.h   ****         {
 343:./shy_fft.h   ****             T v;
 344:./shy_fft.h   **** 
 345:./shy_fft.h   ****             d[i]     = s[i] + s[i + 4];
 346:./shy_fft.h   ****             d[i + 4] = s[i] - s[i + 4];
 347:./shy_fft.h   ****             d[i + 2] = s[i + 2];
 348:./shy_fft.h   ****             d[i + 6] = s[i + 6];
 349:./shy_fft.h   **** 
 350:./shy_fft.h   ****             v        = (s[i + 5] - s[i + 7]) * math.sqrt_2_div_2();
 351:./shy_fft.h   ****             d[i + 1] = s[i + 1] + v;
 352:./shy_fft.h   ****             d[i + 3] = s[i + 1] - v;
 353:./shy_fft.h   **** 
 354:./shy_fft.h   ****             v        = (s[i + 5] + s[i + 7]) * math.sqrt_2_div_2();
 355:./shy_fft.h   ****             d[i + 5] = v + s[i + 3];
 356:./shy_fft.h   ****             d[i + 7] = v - s[i + 3];
 357:./shy_fft.h   ****         }
 358:./shy_fft.h   **** 
 359:./shy_fft.h   ****         // Remaining passes.
ARM GAS  /var/folders/hl/qgbwny5j0fd895c2c41bk3tw0000gp/T//ccTuF2qj.s 			page 30


 360:./shy_fft.h   ****         for(size_t pass = 3; pass < num_passes; ++pass)
 361:./shy_fft.h   ****         {
 362:./shy_fft.h   ****             // Flip source and destination pointers
 363:./shy_fft.h   ****             {
 364:./shy_fft.h   ****                 T* tmp = s;
 365:./shy_fft.h   ****                 s      = d;
 366:./shy_fft.h   ****                 d      = tmp;
 367:./shy_fft.h   ****             }
 368:./shy_fft.h   **** 
 369:./shy_fft.h   ****             size_t n   = 1 << pass;
 370:./shy_fft.h   ****             size_t n_2 = n >> 1;
 371:./shy_fft.h   **** 
 372:./shy_fft.h   ****             for(size_t i = 0; i < size; i += (n << 1))
 373:./shy_fft.h   ****             {
 374:./shy_fft.h   ****                 T* s1r = s + i;
 375:./shy_fft.h   ****                 T* s2r = s1r + n;
 376:./shy_fft.h   ****                 T* dr  = d + i;
 377:./shy_fft.h   ****                 T* di  = dr + n;
 378:./shy_fft.h   **** 
 379:./shy_fft.h   ****                 dr[0]   = s1r[0] + s2r[0];
 380:./shy_fft.h   ****                 di[0]   = s1r[0] - s2r[0];
 381:./shy_fft.h   ****                 dr[n_2] = s1r[n_2];
 382:./shy_fft.h   ****                 di[n_2] = s2r[n_2];
 383:./shy_fft.h   ****                 T* s1i  = s1r + n_2;
 384:./shy_fft.h   ****                 T* s2i  = s1i + n;
 385:./shy_fft.h   ****                 phasor->Start(pass);
 386:./shy_fft.h   ****                 for(size_t j = 1; j < n_2; ++j)
 387:./shy_fft.h   ****                 {
 388:./shy_fft.h   ****                     T c = phasor->cos();
 389:./shy_fft.h   ****                     T s = phasor->sin();
 390:./shy_fft.h   ****                     T v;
 391:./shy_fft.h   **** 
 392:./shy_fft.h   ****                     v      = s2r[j] * c - s2i[j] * s;
 393:./shy_fft.h   ****                     dr[j]  = s1r[j] + v;
 394:./shy_fft.h   ****                     di[-j] = s1r[j] - v;
 395:./shy_fft.h   **** 
 396:./shy_fft.h   ****                     v         = s2r[j] * s + s2i[j] * c;
 397:./shy_fft.h   ****                     di[j]     = v + s1i[j];
 398:./shy_fft.h   ****                     di[n - j] = v - s1i[j];
 399:./shy_fft.h   ****                     phasor->Rotate();
 400:./shy_fft.h   ****                 }
 401:./shy_fft.h   ****             }
 402:./shy_fft.h   ****         }
 403:./shy_fft.h   **** 
 404:./shy_fft.h   ****         // Annoying additional data copy step.
 405:./shy_fft.h   ****         if(d != output)
 406:./shy_fft.h   ****         {
 407:./shy_fft.h   ****             std::copy(&d[0], &d[size], &output[0]);
 408:./shy_fft.h   ****         }
 409:./shy_fft.h   ****     }
 410:./shy_fft.h   **** 
 411:./shy_fft.h   ****     // The exact same thing but with "num_passes" as a run-time argument.
 412:./shy_fft.h   ****     void operator()(T*             input,
 413:./shy_fft.h   ****                     T*             output,
 414:./shy_fft.h   ****                     const uint8_t* bit_rev,
 415:./shy_fft.h   ****                     Phasor*        phasor,
 416:./shy_fft.h   ****                     size_t         rt_num_passes)
ARM GAS  /var/folders/hl/qgbwny5j0fd895c2c41bk3tw0000gp/T//ccTuF2qj.s 			page 31


 417:./shy_fft.h   ****     {
 418:./shy_fft.h   ****         T*      s;
 419:./shy_fft.h   ****         T*      d;
 420:./shy_fft.h   ****         Math<T> math;
 421:./shy_fft.h   ****         size_t  rt_size = 1 << rt_num_passes;
 422:./shy_fft.h   ****         // First and second pass.
 423:./shy_fft.h   ****         d = output;
 424:./shy_fft.h   ****         for(size_t i = 0; i < rt_size; i += 4)
 425:./shy_fft.h   ****         {
 426:./shy_fft.h   ****             const T* s  = input;
 427:./shy_fft.h   ****             size_t   r0 = ((bit_rev[i & 0xff] << 8) | bit_rev[i >> 8])
 428:./shy_fft.h   ****                         >> (16 - rt_num_passes);
 429:./shy_fft.h   ****             size_t r1 = r0 + 2 * (rt_size >> 2);
 430:./shy_fft.h   ****             size_t r2 = r0 + 1 * (rt_size >> 2);
 431:./shy_fft.h   ****             size_t r3 = r0 + 3 * (rt_size >> 2);
 432:./shy_fft.h   **** 
 433:./shy_fft.h   ****             d[1] = s[r0] - s[r1];
 434:./shy_fft.h   ****             d[3] = s[r2] - s[r3];
 435:./shy_fft.h   ****             T a  = s[r0] + s[r1];
 436:./shy_fft.h   ****             T b  = s[r2] + s[r3];
 437:./shy_fft.h   ****             d[0] = a + b;
 438:./shy_fft.h   ****             d[2] = a - b;
 439:./shy_fft.h   ****             d += 4;
 440:./shy_fft.h   ****         }
 441:./shy_fft.h   **** 
 442:./shy_fft.h   ****         // Third pass.
 443:./shy_fft.h   ****         s = output;
 444:./shy_fft.h   ****         d = input;
 445:./shy_fft.h   ****         for(size_t i = 0; i < rt_size; i += 8)
 446:./shy_fft.h   ****         {
 447:./shy_fft.h   ****             T v;
 448:./shy_fft.h   **** 
 449:./shy_fft.h   ****             d[i]     = s[i] + s[i + 4];
 450:./shy_fft.h   ****             d[i + 4] = s[i] - s[i + 4];
 451:./shy_fft.h   ****             d[i + 2] = s[i + 2];
 452:./shy_fft.h   ****             d[i + 6] = s[i + 6];
 453:./shy_fft.h   **** 
 454:./shy_fft.h   ****             v        = (s[i + 5] - s[i + 7]) * math.sqrt_2_div_2();
 455:./shy_fft.h   ****             d[i + 1] = s[i + 1] + v;
 456:./shy_fft.h   ****             d[i + 3] = s[i + 1] - v;
 457:./shy_fft.h   **** 
 458:./shy_fft.h   ****             v        = (s[i + 5] + s[i + 7]) * math.sqrt_2_div_2();
 459:./shy_fft.h   ****             d[i + 5] = v + s[i + 3];
 460:./shy_fft.h   ****             d[i + 7] = v - s[i + 3];
 461:./shy_fft.h   ****         }
 462:./shy_fft.h   **** 
 463:./shy_fft.h   ****         // Remaining passes.
 464:./shy_fft.h   ****         for(size_t pass = 3; pass < rt_num_passes; ++pass)
 465:./shy_fft.h   ****         {
 466:./shy_fft.h   ****             // Flip source and destination pointers
 467:./shy_fft.h   ****             {
 468:./shy_fft.h   ****                 T* tmp = s;
 469:./shy_fft.h   ****                 s      = d;
 470:./shy_fft.h   ****                 d      = tmp;
 471:./shy_fft.h   ****             }
 472:./shy_fft.h   **** 
 473:./shy_fft.h   ****             size_t n   = 1 << pass;
ARM GAS  /var/folders/hl/qgbwny5j0fd895c2c41bk3tw0000gp/T//ccTuF2qj.s 			page 32


 474:./shy_fft.h   ****             size_t n_2 = n >> 1;
 475:./shy_fft.h   **** 
 476:./shy_fft.h   ****             for(size_t i = 0; i < rt_size; i += (n << 1))
 477:./shy_fft.h   ****             {
 478:./shy_fft.h   ****                 T* s1r = s + i;
 479:./shy_fft.h   ****                 T* s2r = s1r + n;
 480:./shy_fft.h   ****                 T* dr  = d + i;
 481:./shy_fft.h   ****                 T* di  = dr + n;
 482:./shy_fft.h   **** 
 483:./shy_fft.h   ****                 dr[0]   = s1r[0] + s2r[0];
 484:./shy_fft.h   ****                 di[0]   = s1r[0] - s2r[0];
 485:./shy_fft.h   ****                 dr[n_2] = s1r[n_2];
 486:./shy_fft.h   ****                 di[n_2] = s2r[n_2];
 487:./shy_fft.h   ****                 T* s1i  = s1r + n_2;
 488:./shy_fft.h   ****                 T* s2i  = s1i + n;
 489:./shy_fft.h   ****                 phasor->Start(pass);
 490:./shy_fft.h   ****                 for(size_t j = 1; j < n_2; ++j)
 491:./shy_fft.h   ****                 {
 492:./shy_fft.h   ****                     T c = phasor->cos();
 493:./shy_fft.h   ****                     T s = phasor->sin();
 494:./shy_fft.h   ****                     T v;
 495:./shy_fft.h   **** 
 496:./shy_fft.h   ****                     v      = s2r[j] * c - s2i[j] * s;
 497:./shy_fft.h   ****                     dr[j]  = s1r[j] + v;
 498:./shy_fft.h   ****                     di[-j] = s1r[j] - v;
 499:./shy_fft.h   **** 
 500:./shy_fft.h   ****                     v         = s2r[j] * s + s2i[j] * c;
 501:./shy_fft.h   ****                     di[j]     = v + s1i[j];
 502:./shy_fft.h   ****                     di[n - j] = v - s1i[j];
 503:./shy_fft.h   ****                     phasor->Rotate();
 504:./shy_fft.h   ****                 }
 505:./shy_fft.h   ****             }
 506:./shy_fft.h   ****         }
 507:./shy_fft.h   **** 
 508:./shy_fft.h   ****         // Annoying additional data copy step.
 509:./shy_fft.h   ****         if(d != output)
 510:./shy_fft.h   ****         {
 511:./shy_fft.h   ****             std::copy(&d[0], &d[rt_size], &output[0]);
 512:./shy_fft.h   ****         }
 513:./shy_fft.h   ****     }
 514:./shy_fft.h   **** };
 515:./shy_fft.h   **** 
 516:./shy_fft.h   **** template <typename T, typename Phasor>
 517:./shy_fft.h   **** struct DirectTransform<T, 0, Phasor>
 518:./shy_fft.h   **** {
 519:./shy_fft.h   ****     void operator()(const T* i, T* o, T*, const uint8_t*, Phasor*)
 520:./shy_fft.h   ****     {
 521:./shy_fft.h   ****         o[0] = i[0];
 522:./shy_fft.h   ****     }
 523:./shy_fft.h   **** };
 524:./shy_fft.h   **** 
 525:./shy_fft.h   **** template <typename T, typename Phasor>
 526:./shy_fft.h   **** struct DirectTransform<T, 1, Phasor>
 527:./shy_fft.h   **** {
 528:./shy_fft.h   ****     void operator()(const T* i, T* o, T*, const uint8_t*, Phasor*)
 529:./shy_fft.h   ****     {
 530:./shy_fft.h   ****         o[0] = i[0] + i[1];
ARM GAS  /var/folders/hl/qgbwny5j0fd895c2c41bk3tw0000gp/T//ccTuF2qj.s 			page 33


 531:./shy_fft.h   ****         o[1] = i[0] - i[1];
 532:./shy_fft.h   ****     }
 533:./shy_fft.h   **** };
 534:./shy_fft.h   **** 
 535:./shy_fft.h   **** template <typename T, typename Phasor>
 536:./shy_fft.h   **** struct DirectTransform<T, 2, Phasor>
 537:./shy_fft.h   **** {
 538:./shy_fft.h   ****     void operator()(const T* i, T* o, T*, const uint8_t*, Phasor*)
 539:./shy_fft.h   ****     {
 540:./shy_fft.h   ****         o[1] = i[0] - i[2];
 541:./shy_fft.h   ****         o[3] = i[1] - i[3];
 542:./shy_fft.h   ****         T a  = i[0] + i[2];
 543:./shy_fft.h   ****         T b  = i[1] + i[3];
 544:./shy_fft.h   ****         o[0] = a + b;
 545:./shy_fft.h   ****         o[2] = a - b;
 546:./shy_fft.h   ****     }
 547:./shy_fft.h   **** };
 548:./shy_fft.h   **** 
 549:./shy_fft.h   **** 
 550:./shy_fft.h   **** // Inverse transform
 551:./shy_fft.h   **** template <typename T, size_t num_passes, typename Phasor>
 552:./shy_fft.h   **** struct InverseTransform
 553:./shy_fft.h   **** {
 554:./shy_fft.h   ****   private:
 555:./shy_fft.h   ****     enum
 556:./shy_fft.h   ****     {
 557:./shy_fft.h   ****         size = 1 << num_passes
 558:./shy_fft.h   ****     };
 559:./shy_fft.h   **** 
 560:./shy_fft.h   ****   public:
 561:./shy_fft.h   ****     void operator()(T* input, T* output, const uint8_t* bit_rev, Phasor* phasor)
 562:./shy_fft.h   ****     {
 563:./shy_fft.h   ****         T*      s = (T*)(input);
 564:./shy_fft.h   ****         T*      d = output;
 565:./shy_fft.h   ****         Math<T> math;
 566:./shy_fft.h   **** 
 567:./shy_fft.h   ****         // Remaining passes.
 568:./shy_fft.h   ****         for(size_t pass = num_passes - 1; pass >= 3; --pass)
 569:./shy_fft.h   ****         {
 570:./shy_fft.h   ****             size_t n   = 1 << pass;
 571:./shy_fft.h   ****             size_t n_2 = n >> 1;
 572:./shy_fft.h   **** 
 573:./shy_fft.h   ****             for(size_t i = 0; i < size; i += (n << 1))
 574:./shy_fft.h   ****             {
 575:./shy_fft.h   ****                 T* sr  = s + i;
 576:./shy_fft.h   ****                 T* si  = sr + n;
 577:./shy_fft.h   ****                 T* d1r = d + i;
 578:./shy_fft.h   ****                 T* d2r = d1r + n;
 579:./shy_fft.h   **** 
 580:./shy_fft.h   ****                 d1r[0]   = sr[0] + si[0];
 581:./shy_fft.h   ****                 d2r[0]   = sr[0] - si[0];
 582:./shy_fft.h   ****                 d1r[n_2] = sr[n_2] * T(2);
 583:./shy_fft.h   ****                 d2r[n_2] = si[n_2] * T(2);
 584:./shy_fft.h   **** 
 585:./shy_fft.h   ****                 T* d1i = d1r + n_2;
 586:./shy_fft.h   ****                 T* d2i = d1i + n;
 587:./shy_fft.h   ****                 phasor->Start(pass);
ARM GAS  /var/folders/hl/qgbwny5j0fd895c2c41bk3tw0000gp/T//ccTuF2qj.s 			page 34


 588:./shy_fft.h   ****                 for(size_t j = 1; j < n_2; ++j)
 589:./shy_fft.h   ****                 {
 590:./shy_fft.h   ****                     d1r[j] = sr[j] + si[-j];
 591:./shy_fft.h   ****                     d1i[j] = si[j] - si[n - j];
 592:./shy_fft.h   **** 
 593:./shy_fft.h   ****                     T c  = phasor->cos();
 594:./shy_fft.h   ****                     T s  = phasor->sin();
 595:./shy_fft.h   ****                     T vr = sr[j] - si[-j];
 596:./shy_fft.h   ****                     T vi = si[j] + si[n - j];
 597:./shy_fft.h   **** 
 598:./shy_fft.h   ****                     d2r[j] = vr * c + vi * s;
 599:./shy_fft.h   ****                     d2i[j] = vi * c - vr * s;
 600:./shy_fft.h   ****                     phasor->Rotate();
 601:./shy_fft.h   ****                 }
 602:./shy_fft.h   ****             }
 603:./shy_fft.h   **** 
 604:./shy_fft.h   ****             // Flip source and destination pointers for the next pass.
 605:./shy_fft.h   ****             if(d == output)
 606:./shy_fft.h   ****             {
 607:./shy_fft.h   ****                 s = output;
 608:./shy_fft.h   ****                 d = input;
 609:./shy_fft.h   ****             }
 610:./shy_fft.h   ****             else
 611:./shy_fft.h   ****             {
 612:./shy_fft.h   ****                 s = input;
 613:./shy_fft.h   ****                 d = output;
 614:./shy_fft.h   ****             }
 615:./shy_fft.h   ****         }
 616:./shy_fft.h   **** 
 617:./shy_fft.h   ****         // Copy data if necessary.
 618:./shy_fft.h   ****         if(d == output)
 619:./shy_fft.h   ****         {
 620:./shy_fft.h   ****             std::copy(&s[0], &s[size], &output[0]);
 621:./shy_fft.h   ****         }
 622:./shy_fft.h   **** 
 623:./shy_fft.h   ****         s = output;
 624:./shy_fft.h   ****         d = input;
 625:./shy_fft.h   ****         for(size_t i = 0; i < size; i += 8)
 626:./shy_fft.h   ****         {
 627:./shy_fft.h   ****             T vr, vi;
 628:./shy_fft.h   ****             d[i]     = s[i] + s[i + 4];
 629:./shy_fft.h   ****             d[i + 4] = s[i] - s[i + 4];
 630:./shy_fft.h   ****             d[i + 2] = s[i + 2] * T(2);
 631:./shy_fft.h   ****             d[i + 6] = s[i + 6] * T(2);
 632:./shy_fft.h   ****             d[i + 1] = s[i + 1] + s[i + 3];
 633:./shy_fft.h   ****             d[i + 3] = s[i + 5] - s[i + 7];
 634:./shy_fft.h   ****             vr       = s[i + 1] - s[i + 3];
 635:./shy_fft.h   ****             vi       = s[i + 5] + s[i + 7];
 636:./shy_fft.h   ****             d[i + 5] = (vr + vi) * math.sqrt_2_div_2();
 637:./shy_fft.h   ****             d[i + 7] = (vi - vr) * math.sqrt_2_div_2();
 638:./shy_fft.h   ****         }
 639:./shy_fft.h   **** 
 640:./shy_fft.h   ****         // First and second pass.
 641:./shy_fft.h   ****         s = input;
 642:./shy_fft.h   ****         d = output;
 643:./shy_fft.h   ****         for(size_t i = 0; i < size; i += 4)
 644:./shy_fft.h   ****         {
ARM GAS  /var/folders/hl/qgbwny5j0fd895c2c41bk3tw0000gp/T//ccTuF2qj.s 			page 35


 645:./shy_fft.h   ****             size_t r0 = num_passes <= 8
 646:./shy_fft.h   ****                             ? bit_rev[i >> 2]
 647:./shy_fft.h   ****                             : ((bit_rev[i & 0xff] << 8) | bit_rev[i >> 8])
 648:./shy_fft.h   ****                                   >> (16 - num_passes);
 649:./shy_fft.h   ****             size_t r1 = r0 + 2 * (size >> 2);
 650:./shy_fft.h   ****             size_t r2 = r0 + 1 * (size >> 2);
 651:./shy_fft.h   ****             size_t r3 = r0 + 3 * (size >> 2);
 652:./shy_fft.h   **** 
 653:./shy_fft.h   ****             T b_0 = s[0] + s[2];
 654:./shy_fft.h   ****             T b_2 = s[0] - s[2];
 655:./shy_fft.h   ****             T b_1 = s[1] * T(2);
 656:./shy_fft.h   ****             T b_3 = s[3] * T(2);
 657:./shy_fft.h   **** 
 658:./shy_fft.h   ****             d[r0] = b_0 + b_1;
 659:./shy_fft.h   ****             d[r1] = b_0 - b_1;
 660:./shy_fft.h   ****             d[r2] = b_2 + b_3;
 661:./shy_fft.h   ****             d[r3] = b_2 - b_3;
 662:./shy_fft.h   ****             s += 4;
 663:./shy_fft.h   ****         }
 664:./shy_fft.h   ****     }
 665:./shy_fft.h   **** 
 666:./shy_fft.h   ****     void operator()(T*             input,
 667:./shy_fft.h   ****                     T*             output,
 668:./shy_fft.h   ****                     const uint8_t* bit_rev,
 669:./shy_fft.h   ****                     Phasor*        phasor,
 670:./shy_fft.h   ****                     size_t         rt_num_passes)
 671:./shy_fft.h   ****     {
 672:./shy_fft.h   ****         T*      s = (T*)(input);
 673:./shy_fft.h   ****         T*      d = output;
 674:./shy_fft.h   ****         Math<T> math;
 675:./shy_fft.h   **** 
 676:./shy_fft.h   ****         size_t rt_size = 1 << rt_num_passes;
 677:./shy_fft.h   **** 
 678:./shy_fft.h   ****         // Remaining passes.
 679:./shy_fft.h   ****         for(size_t pass = rt_num_passes - 1; pass >= 3; --pass)
 680:./shy_fft.h   ****         {
 681:./shy_fft.h   ****             size_t n   = 1 << pass;
 682:./shy_fft.h   ****             size_t n_2 = n >> 1;
 683:./shy_fft.h   **** 
 684:./shy_fft.h   ****             for(size_t i = 0; i < rt_size; i += (n << 1))
 685:./shy_fft.h   ****             {
 686:./shy_fft.h   ****                 T* sr  = s + i;
 687:./shy_fft.h   ****                 T* si  = sr + n;
 688:./shy_fft.h   ****                 T* d1r = d + i;
 689:./shy_fft.h   ****                 T* d2r = d1r + n;
 690:./shy_fft.h   **** 
 691:./shy_fft.h   ****                 d1r[0]   = sr[0] + si[0];
 692:./shy_fft.h   ****                 d2r[0]   = sr[0] - si[0];
 693:./shy_fft.h   ****                 d1r[n_2] = sr[n_2] * T(2);
 694:./shy_fft.h   ****                 d2r[n_2] = si[n_2] * T(2);
 695:./shy_fft.h   **** 
 696:./shy_fft.h   ****                 T* d1i = d1r + n_2;
 697:./shy_fft.h   ****                 T* d2i = d1i + n;
 698:./shy_fft.h   ****                 phasor->Start(pass);
 699:./shy_fft.h   ****                 for(size_t j = 1; j < n_2; ++j)
 700:./shy_fft.h   ****                 {
 701:./shy_fft.h   ****                     d1r[j] = sr[j] + si[-j];
ARM GAS  /var/folders/hl/qgbwny5j0fd895c2c41bk3tw0000gp/T//ccTuF2qj.s 			page 36


 702:./shy_fft.h   ****                     d1i[j] = si[j] - si[n - j];
 703:./shy_fft.h   **** 
 704:./shy_fft.h   ****                     T c  = phasor->cos();
 705:./shy_fft.h   ****                     T s  = phasor->sin();
 706:./shy_fft.h   ****                     T vr = sr[j] - si[-j];
 707:./shy_fft.h   ****                     T vi = si[j] + si[n - j];
 708:./shy_fft.h   **** 
 709:./shy_fft.h   ****                     d2r[j] = vr * c + vi * s;
 710:./shy_fft.h   ****                     d2i[j] = vi * c - vr * s;
 711:./shy_fft.h   ****                     phasor->Rotate();
 712:./shy_fft.h   ****                 }
 713:./shy_fft.h   ****             }
 714:./shy_fft.h   **** 
 715:./shy_fft.h   ****             // Flip source and destination pointers for the next pass.
 716:./shy_fft.h   ****             if(d == output)
 717:./shy_fft.h   ****             {
 718:./shy_fft.h   ****                 s = output;
 719:./shy_fft.h   ****                 d = input;
 720:./shy_fft.h   ****             }
 721:./shy_fft.h   ****             else
 722:./shy_fft.h   ****             {
 723:./shy_fft.h   ****                 s = input;
 724:./shy_fft.h   ****                 d = output;
 725:./shy_fft.h   ****             }
 726:./shy_fft.h   ****         }
 727:./shy_fft.h   **** 
 728:./shy_fft.h   ****         // Copy data if necessary.
 729:./shy_fft.h   ****         if(d == output)
 730:./shy_fft.h   ****         {
 731:./shy_fft.h   ****             std::copy(&s[0], &s[rt_size], &output[0]);
 732:./shy_fft.h   ****         }
 733:./shy_fft.h   **** 
 734:./shy_fft.h   ****         s = output;
 735:./shy_fft.h   ****         d = input;
 736:./shy_fft.h   ****         for(size_t i = 0; i < rt_size; i += 8)
 737:./shy_fft.h   ****         {
 738:./shy_fft.h   ****             T vr, vi;
 739:./shy_fft.h   ****             d[i]     = s[i] + s[i + 4];
 740:./shy_fft.h   ****             d[i + 4] = s[i] - s[i + 4];
 741:./shy_fft.h   ****             d[i + 2] = s[i + 2] * T(2);
 742:./shy_fft.h   ****             d[i + 6] = s[i + 6] * T(2);
 743:./shy_fft.h   ****             d[i + 1] = s[i + 1] + s[i + 3];
 744:./shy_fft.h   ****             d[i + 3] = s[i + 5] - s[i + 7];
 745:./shy_fft.h   ****             vr       = s[i + 1] - s[i + 3];
 746:./shy_fft.h   ****             vi       = s[i + 5] + s[i + 7];
 747:./shy_fft.h   ****             d[i + 5] = (vr + vi) * math.sqrt_2_div_2();
 748:./shy_fft.h   ****             d[i + 7] = (vi - vr) * math.sqrt_2_div_2();
 749:./shy_fft.h   ****         }
 750:./shy_fft.h   **** 
 751:./shy_fft.h   ****         // First and second pass.
 752:./shy_fft.h   ****         s = input;
 753:./shy_fft.h   ****         d = output;
 754:./shy_fft.h   ****         for(size_t i = 0; i < rt_size; i += 4)
 755:./shy_fft.h   ****         {
 756:./shy_fft.h   ****             size_t r0 = ((bit_rev[i & 0xff] << 8) | bit_rev[i >> 8])
 757:./shy_fft.h   ****                         >> (16 - rt_num_passes);
 758:./shy_fft.h   ****             size_t r1 = r0 + 2 * (rt_size >> 2);
ARM GAS  /var/folders/hl/qgbwny5j0fd895c2c41bk3tw0000gp/T//ccTuF2qj.s 			page 37


 759:./shy_fft.h   ****             size_t r2 = r0 + 1 * (rt_size >> 2);
 760:./shy_fft.h   ****             size_t r3 = r0 + 3 * (rt_size >> 2);
 761:./shy_fft.h   **** 
 762:./shy_fft.h   ****             T b_0 = s[0] + s[2];
 763:./shy_fft.h   ****             T b_2 = s[0] - s[2];
 764:./shy_fft.h   ****             T b_1 = s[1] * T(2);
 765:./shy_fft.h   ****             T b_3 = s[3] * T(2);
 766:./shy_fft.h   **** 
 767:./shy_fft.h   ****             d[r0] = b_0 + b_1;
 768:./shy_fft.h   ****             d[r1] = b_0 - b_1;
 769:./shy_fft.h   ****             d[r2] = b_2 + b_3;
 770:./shy_fft.h   ****             d[r3] = b_2 - b_3;
 771:./shy_fft.h   ****             s += 4;
 772:./shy_fft.h   ****         }
 773:./shy_fft.h   ****     }
 774:./shy_fft.h   **** };
 775:./shy_fft.h   **** 
 776:./shy_fft.h   **** template <typename T, typename Phasor>
 777:./shy_fft.h   **** struct InverseTransform<T, 0, Phasor>
 778:./shy_fft.h   **** {
 779:./shy_fft.h   ****     void operator()(const T* i, T* o, T*, const uint8_t*, Phasor*)
 780:./shy_fft.h   ****     {
 781:./shy_fft.h   ****         o[0] = i[0];
 782:./shy_fft.h   ****     }
 783:./shy_fft.h   **** };
 784:./shy_fft.h   **** 
 785:./shy_fft.h   **** template <typename T, typename Phasor>
 786:./shy_fft.h   **** struct InverseTransform<T, 1, Phasor>
 787:./shy_fft.h   **** {
 788:./shy_fft.h   ****     void operator()(const T* i, T* o, T*, const uint8_t*, Phasor*)
 789:./shy_fft.h   ****     {
 790:./shy_fft.h   ****         o[0] = i[0] + i[1];
 791:./shy_fft.h   ****         o[1] = i[0] - i[1];
 792:./shy_fft.h   ****     }
 793:./shy_fft.h   **** };
 794:./shy_fft.h   **** 
 795:./shy_fft.h   **** template <typename T, typename Phasor>
 796:./shy_fft.h   **** struct InverseTransform<T, 2, Phasor>
 797:./shy_fft.h   **** {
 798:./shy_fft.h   ****     void operator()(const T* i, T* o, T*, const uint8_t*, Phasor*)
 799:./shy_fft.h   ****     {
 800:./shy_fft.h   ****         T a = i[0] + i[2];
 801:./shy_fft.h   ****         T b = i[0] - i[2];
 802:./shy_fft.h   **** 
 803:./shy_fft.h   ****         o[0] = a + i[1] * T(2);
 804:./shy_fft.h   ****         o[2] = a - i[1] * T(2);
 805:./shy_fft.h   ****         o[1] = b + i[3] * T(2);
 806:./shy_fft.h   ****         o[3] = b - i[3] * T(2);
 807:./shy_fft.h   ****     }
 808:./shy_fft.h   **** };
 809:./shy_fft.h   **** 
 810:./shy_fft.h   **** 
 811:./shy_fft.h   **** template <typename T                               = float,
 812:./shy_fft.h   ****           size_t size                              = 16,
 813:./shy_fft.h   ****           template <typename, size_t> class Phasor = LutPhasor>
 814:./shy_fft.h   **** class ShyFFT
 815:./shy_fft.h   **** {
ARM GAS  /var/folders/hl/qgbwny5j0fd895c2c41bk3tw0000gp/T//ccTuF2qj.s 			page 38


 816:./shy_fft.h   ****   public:
 817:./shy_fft.h   ****     enum
 818:./shy_fft.h   ****     {
 819:./shy_fft.h   ****         num_passes = Log2<size>::value,
 820:./shy_fft.h   ****         max_size   = size
 821:./shy_fft.h   ****     };
 822:./shy_fft.h   **** 
 823:./shy_fft.h   ****   private:
 824:./shy_fft.h   ****     typedef Phasor<T, num_passes> PhasorType;
 825:./shy_fft.h   **** 
 826:./shy_fft.h   ****   public:
 827:./shy_fft.h   ****     ShyFFT() {}
 828:./shy_fft.h   ****     ~ShyFFT() {}
 829:./shy_fft.h   **** 
 830:./shy_fft.h   ****     void Init()
 831:./shy_fft.h   ****     {
 832:./shy_fft.h   ****         bit_rev_[0] = 0;
 233              		.loc 3 832 21 view .LVU60
 234 0042 9FED280A 		vldr.32	s0, .L20
 235 0046 8A46     		mov	r10, r1
 236              	.LBE261:
 237              	.LBE260:
  53:dsp/pvoc/stft.cpp **** 
 238              		.loc 1 53 18 view .LVU61
 239 0048 C8F81030 		str	r3, [r8, #16]
  55:dsp/pvoc/stft.cpp **** #ifdef USE_ARM_FFT
 240              		.loc 1 55 5 is_stmt 1 view .LVU62
  59:dsp/pvoc/stft.cpp **** #endif // USE_ARM_FFT
 241              		.loc 1 59 5 view .LVU63
 242              	.LVL13:
 243              	.LBB287:
 244              	.LBI260:
 830:./shy_fft.h   ****     {
 245              		.loc 3 830 10 view .LVU64
 246              	.LBB284:
 247              		.loc 3 832 21 is_stmt 0 view .LVU65
 248 004c 0023     		movs	r3, #0
 249 004e 9FED268A 		vldr.32	s16, .L20+4
 250              	.LBB262:
 251              	.LBB263:
 252              	.LBB264:
 239:./shy_fft.h   ****         {
 253              		.loc 3 239 20 view .LVU66
 254 0052 4FF0030B 		mov	fp, #3
 255              	.LBE264:
 256              	.LBE263:
 257              	.LBE262:
 258              		.loc 3 832 21 view .LVU67
 259 0056 81F85830 		strb	r3, [r1, #88]
 260              	.LVL14:
 261              		.loc 3 832 21 view .LVU68
 262              	.LBE284:
 263              	.LBE287:
 833:./shy_fft.h   ****         for(size_t i = 1; i < sizeof(bit_rev_); ++i)
 264              		.loc 3 833 29 is_stmt 1 view .LVU69
 265              	.LBB288:
 266              	.LBB285:
ARM GAS  /var/folders/hl/qgbwny5j0fd895c2c41bk3tw0000gp/T//ccTuF2qj.s 			page 39


 267              	.LBB282:
 268              	.LBI262:
 236:./shy_fft.h   ****     {
 269              		.loc 3 236 10 view .LVU70
 270              	.LBB280:
 271              	.LBB278:
 239:./shy_fft.h   ****         {
 272              		.loc 3 239 35 view .LVU71
 273 005a 0FE0     		b	.L16
 274              	.LVL15:
 275              	.L19:
 276              	.LBB265:
 242:./shy_fft.h   ****             sin_cos_lut_[index]     = math.cos(angle);
 277              		.loc 3 242 49 is_stmt 0 view .LVU72
 278 005c 07EE903A 		vmov	s15, r3	@ int
 279 0060 F8EEE77A 		vcvt.f32.s32	s15, s15
 242:./shy_fft.h   ****             sin_cos_lut_[index]     = math.cos(angle);
 280              		.loc 3 242 20 view .LVU73
 281 0064 C7EE278A 		vdiv.f32	s17, s14, s15
 282              	.LBB266:
 283              	.LBB267:
 139:./shy_fft.h   ****     inline float sin(float x) { return sinf(x); }
 284              		.loc 3 139 44 view .LVU74
 285 0068 B0EE680A 		vmov.f32	s0, s17
 286 006c FFF7FEFF 		bl	cosf
 287              	.LVL16:
 139:./shy_fft.h   ****     inline float sin(float x) { return sinf(x); }
 288              		.loc 3 139 44 view .LVU75
 289 0070 B0EE408A 		vmov.f32	s16, s0
 290              	.LBE267:
 291              	.LBE266:
 292              	.LBB269:
 293              	.LBB270:
 140:./shy_fft.h   **** };
 294              		.loc 3 140 44 view .LVU76
 295 0074 B0EE680A 		vmov.f32	s0, s17
 296 0078 FFF7FEFF 		bl	sinf
 297              	.LVL17:
 298              	.L16:
 140:./shy_fft.h   **** };
 299              		.loc 3 140 44 view .LVU77
 300              	.LBE270:
 301              	.LBE269:
 302              	.LBE265:
 303              	.LBE278:
 304              	.LBE280:
 305              	.LBE282:
 306              	.LBE285:
 307              	.LBE288:
 137:./shy_fft.h   ****     inline float sqrt_2_div_2() const { return 0.7071067811865476f; }
 308              		.loc 3 137 31 is_stmt 1 view .LVU78
 309              	.LBB289:
 310              	.LBB286:
 311              	.LBB283:
 312              	.LBB281:
 313              	.LBB279:
 314              	.LBB274:
ARM GAS  /var/folders/hl/qgbwny5j0fd895c2c41bk3tw0000gp/T//ccTuF2qj.s 			page 40


 315              	.LBB272:
 316              	.LBI266:
 139:./shy_fft.h   ****     inline float sin(float x) { return sinf(x); }
 317              		.loc 3 139 18 view .LVU79
 318              	.LBB268:
 139:./shy_fft.h   ****     inline float sin(float x) { return sinf(x); }
 319              		.loc 3 139 33 view .LVU80
 139:./shy_fft.h   ****     inline float sin(float x) { return sinf(x); }
 320              		.loc 3 139 33 is_stmt 0 view .LVU81
 321              	.LBE268:
 322              	.LBE272:
 242:./shy_fft.h   ****             sin_cos_lut_[index]     = math.cos(angle);
 323              		.loc 3 242 54 view .LVU82
 324 007c 0123     		movs	r3, #1
 243:./shy_fft.h   ****             sin_cos_lut_[index + 1] = math.sin(angle);
 325              		.loc 3 243 37 view .LVU83
 326 007e 8AED008A 		vstr.32	s16, [r10]
 244:./shy_fft.h   ****         }
 327              		.loc 3 244 37 view .LVU84
 328 0082 8AED010A 		vstr.32	s0, [r10, #4]
 329              	.LBE274:
 239:./shy_fft.h   ****         {
 330              		.loc 3 239 35 view .LVU85
 331 0086 0AF1080A 		add	r10, r10, #8
 239:./shy_fft.h   ****         {
 332              		.loc 3 239 9 view .LVU86
 333 008a 9B44     		add	fp, fp, r3
 334              	.LVL18:
 335              	.LBB275:
 336              	.LBB273:
 337              	.LBI269:
 140:./shy_fft.h   **** };
 338              		.loc 3 140 18 is_stmt 1 view .LVU87
 339              	.LBB271:
 140:./shy_fft.h   **** };
 340              		.loc 3 140 33 view .LVU88
 140:./shy_fft.h   **** };
 341              		.loc 3 140 33 is_stmt 0 view .LVU89
 342              	.LBE271:
 343              	.LBE273:
 344              	.LBE275:
 239:./shy_fft.h   ****         {
 345              		.loc 3 239 9 is_stmt 1 view .LVU90
 239:./shy_fft.h   ****         {
 346              		.loc 3 239 35 view .LVU91
 347              	.LBB276:
 242:./shy_fft.h   ****             sin_cos_lut_[index]     = math.cos(angle);
 348              		.loc 3 242 20 is_stmt 0 view .LVU92
 349 008c 9FED177A 		vldr.32	s14, .L20+8
 350              	.LBE276:
 239:./shy_fft.h   ****         {
 351              		.loc 3 239 35 view .LVU93
 352 0090 BBF10C0F 		cmp	fp, #12
 353              	.LBB277:
 242:./shy_fft.h   ****             sin_cos_lut_[index]     = math.cos(angle);
 354              		.loc 3 242 54 view .LVU94
 355 0094 03FA0BF3 		lsl	r3, r3, fp
ARM GAS  /var/folders/hl/qgbwny5j0fd895c2c41bk3tw0000gp/T//ccTuF2qj.s 			page 41


 356              	.LVL19:
 242:./shy_fft.h   ****             sin_cos_lut_[index]     = math.cos(angle);
 357              		.loc 3 242 54 view .LVU95
 358              	.LBE277:
 239:./shy_fft.h   ****         {
 359              		.loc 3 239 35 view .LVU96
 360 0098 E0D1     		bne	.L19
 361              	.LVL20:
 239:./shy_fft.h   ****         {
 362              		.loc 3 239 35 view .LVU97
 363              	.LBE279:
 364              	.LBE281:
 365              	.LBE283:
 366              	.LBE286:
 367              	.LBE289:
  62:dsp/pvoc/stft.cpp ****     synthesis_ = &analysis_synthesis_buffer[buffer_size_];
 368              		.loc 1 62 5 is_stmt 1 view .LVU98
  70:dsp/pvoc/stft.cpp **** 
 369              		.loc 1 70 20 is_stmt 0 view .LVU99
 370 009a 019B     		ldr	r3, [sp, #4]
  69:dsp/pvoc/stft.cpp ****     modifier_      = modifier;
 371              		.loc 1 69 48 view .LVU100
 372 009c 4FF48052 		mov	r2, #4096
  62:dsp/pvoc/stft.cpp ****     synthesis_ = &analysis_synthesis_buffer[buffer_size_];
 373              		.loc 1 62 16 view .LVU101
 374 00a0 C8F82C50 		str	r5, [r8, #44]
  63:dsp/pvoc/stft.cpp **** 
 375              		.loc 1 63 5 is_stmt 1 view .LVU102
  74:dsp/pvoc/stft.cpp **** }
 376              		.loc 1 74 10 is_stmt 0 view .LVU103
 377 00a4 4046     		mov	r0, r8
  70:dsp/pvoc/stft.cpp **** 
 378              		.loc 1 70 20 view .LVU104
 379 00a6 C8F84C30 		str	r3, [r8, #76]
  72:dsp/pvoc/stft.cpp **** 
 380              		.loc 1 72 17 view .LVU105
 381 00aa 0023     		movs	r3, #0
  68:dsp/pvoc/stft.cpp ****     window_stride_ = LUT_SINE_WINDOW_4096_SIZE / fft_size;
 382              		.loc 1 68 20 view .LVU106
 383 00ac C8F82490 		str	r9, [r8, #36]
  72:dsp/pvoc/stft.cpp **** 
 384              		.loc 1 72 17 view .LVU107
 385 00b0 C8F84830 		str	r3, [r8, #72]
  63:dsp/pvoc/stft.cpp **** 
 386              		.loc 1 63 57 view .LVU108
 387 00b4 D8F81030 		ldr	r3, [r8, #16]
  65:dsp/pvoc/stft.cpp ****     ifft_out_ = fft_out_ = ifft_buffer;
 388              		.loc 1 65 24 view .LVU109
 389 00b8 C8F81470 		str	r7, [r8, #20]
  63:dsp/pvoc/stft.cpp **** 
 390              		.loc 1 63 18 view .LVU110
 391 00bc 05EB4305 		add	r5, r5, r3, lsl #1
  65:dsp/pvoc/stft.cpp ****     ifft_out_ = fft_out_ = ifft_buffer;
 392              		.loc 1 65 14 view .LVU111
 393 00c0 C8F82070 		str	r7, [r8, #32]
  69:dsp/pvoc/stft.cpp ****     modifier_      = modifier;
 394              		.loc 1 69 48 view .LVU112
ARM GAS  /var/folders/hl/qgbwny5j0fd895c2c41bk3tw0000gp/T//ccTuF2qj.s 			page 42


 395 00c4 B2FBF4F4 		udiv	r4, r2, r4
 396              	.LVL21:
  66:dsp/pvoc/stft.cpp **** 
 397              		.loc 1 66 15 view .LVU113
 398 00c8 C8E90666 		strd	r6, r6, [r8, #24]
  69:dsp/pvoc/stft.cpp ****     modifier_      = modifier;
 399              		.loc 1 69 20 view .LVU114
 400 00cc C8F82840 		str	r4, [r8, #40]
  63:dsp/pvoc/stft.cpp **** 
 401              		.loc 1 63 16 view .LVU115
 402 00d0 C8F83050 		str	r5, [r8, #48]
  65:dsp/pvoc/stft.cpp ****     ifft_out_ = fft_out_ = ifft_buffer;
 403              		.loc 1 65 5 is_stmt 1 view .LVU116
  66:dsp/pvoc/stft.cpp **** 
 404              		.loc 1 66 5 view .LVU117
  68:dsp/pvoc/stft.cpp ****     window_stride_ = LUT_SINE_WINDOW_4096_SIZE / fft_size;
 405              		.loc 1 68 5 view .LVU118
  69:dsp/pvoc/stft.cpp ****     modifier_      = modifier;
 406              		.loc 1 69 5 view .LVU119
  70:dsp/pvoc/stft.cpp **** 
 407              		.loc 1 70 5 view .LVU120
  72:dsp/pvoc/stft.cpp **** 
 408              		.loc 1 72 5 view .LVU121
  74:dsp/pvoc/stft.cpp **** }
 409              		.loc 1 74 5 view .LVU122
  75:dsp/pvoc/stft.cpp **** 
 410              		.loc 1 75 1 is_stmt 0 view .LVU123
 411 00d4 03B0     		add	sp, sp, #12
 412              		.cfi_def_cfa_offset 44
 413              		@ sp needed
 414 00d6 BDEC028B 		vldm	sp!, {d8}
 415              		.cfi_restore 80
 416              		.cfi_restore 81
 417              		.cfi_def_cfa_offset 36
 418 00da BDE8F04F 		pop	{r4, r5, r6, r7, r8, r9, r10, fp, lr}
 419              		.cfi_restore 14
 420              		.cfi_restore 11
 421              		.cfi_restore 10
 422              		.cfi_restore 9
 423              		.cfi_restore 8
 424              		.cfi_restore 7
 425              		.cfi_restore 6
 426              		.cfi_restore 5
 427              		.cfi_restore 4
 428              		.cfi_def_cfa_offset 0
 429              	.LVL22:
  74:dsp/pvoc/stft.cpp **** }
 430              		.loc 1 74 10 view .LVU124
 431 00de FFF7FEBF 		b	_ZN4STFT5ResetEv
 432              	.LVL23:
 433              	.L21:
  74:dsp/pvoc/stft.cpp **** }
 434              		.loc 1 74 10 view .LVU125
 435 00e2 00BF     		.align	2
 436              	.L20:
 437 00e4 16EFC33E 		.word	1053028118
 438 00e8 5E836C3F 		.word	1064076126
ARM GAS  /var/folders/hl/qgbwny5j0fd895c2c41bk3tw0000gp/T//ccTuF2qj.s 			page 43


 439 00ec DB0F4940 		.word	1078530011
 440              		.cfi_endproc
 441              	.LFE4865:
 443              		.section	.text._ZN4STFT7ProcessERK10ParametersPKfPfjj,"ax",%progbits
 444              		.align	1
 445              		.p2align 2,,3
 446              		.global	_ZN4STFT7ProcessERK10ParametersPKfPfjj
 447              		.syntax unified
 448              		.thumb
 449              		.thumb_func
 450              		.fpu fpv5-d16
 452              	_ZN4STFT7ProcessERK10ParametersPKfPfjj:
 453              	.LVL24:
 454              	.LFB4867:
  87:dsp/pvoc/stft.cpp **** 
  88:dsp/pvoc/stft.cpp **** void STFT::Process(const Parameters& parameters,
  89:dsp/pvoc/stft.cpp ****                    const float*      input,
  90:dsp/pvoc/stft.cpp ****                    float*            output,
  91:dsp/pvoc/stft.cpp ****                    size_t            size,
  92:dsp/pvoc/stft.cpp ****                    size_t            stride)
  93:dsp/pvoc/stft.cpp **** {
 455              		.loc 1 93 1 is_stmt 1 view -0
 456              		.cfi_startproc
 457              		@ args = 8, pretend = 0, frame = 8
 458              		@ frame_needed = 0, uses_anonymous_args = 0
  94:dsp/pvoc/stft.cpp ****     parameters_ = &parameters;
 459              		.loc 1 94 5 view .LVU127
  93:dsp/pvoc/stft.cpp ****     parameters_ = &parameters;
 460              		.loc 1 93 1 is_stmt 0 view .LVU128
 461 0000 2DE9F04F 		push	{r4, r5, r6, r7, r8, r9, r10, fp, lr}
 462              		.cfi_def_cfa_offset 36
 463              		.cfi_offset 4, -36
 464              		.cfi_offset 5, -32
 465              		.cfi_offset 6, -28
 466              		.cfi_offset 7, -24
 467              		.cfi_offset 8, -20
 468              		.cfi_offset 9, -16
 469              		.cfi_offset 10, -12
 470              		.cfi_offset 11, -8
 471              		.cfi_offset 14, -4
 472 0004 83B0     		sub	sp, sp, #12
 473              		.cfi_def_cfa_offset 48
 474              		.loc 1 94 17 view .LVU129
 475 0006 8164     		str	r1, [r0, #72]
  93:dsp/pvoc/stft.cpp ****     parameters_ = &parameters;
 476              		.loc 1 93 1 view .LVU130
 477 0008 DDF83090 		ldr	r9, [sp, #48]
  95:dsp/pvoc/stft.cpp ****     while(size)
 478              		.loc 1 95 5 is_stmt 1 view .LVU131
 479              		.loc 1 95 11 view .LVU132
 480 000c B9F1000F 		cmp	r9, #0
 481 0010 56D0     		beq	.L22
 482 0012 9B46     		mov	fp, r3
 483              	.LBB290:
  96:dsp/pvoc/stft.cpp ****     {
  97:dsp/pvoc/stft.cpp ****         size_t processed = min(size, hop_size_ - block_size_);
 484              		.loc 1 97 38 is_stmt 0 view .LVU133
ARM GAS  /var/folders/hl/qgbwny5j0fd895c2c41bk3tw0000gp/T//ccTuF2qj.s 			page 44


 485 0014 C368     		ldr	r3, [r0, #12]
 486              	.LVL25:
 487              		.loc 1 97 38 view .LVU134
 488 0016 9246     		mov	r10, r2
 489 0018 8646     		mov	lr, r0
 490 001a 0093     		str	r3, [sp]
 491              	.LBB291:
 492              	.LBB292:
  98:dsp/pvoc/stft.cpp ****         for(size_t i = 0; i < processed; ++i)
  99:dsp/pvoc/stft.cpp ****         {
 100:dsp/pvoc/stft.cpp ****             int32_t sample             = *input * 32768.0f;
 101:dsp/pvoc/stft.cpp ****             analysis_[buffer_ptr_ + i] = Clip16(sample);
 102:dsp/pvoc/stft.cpp ****             *output
 103:dsp/pvoc/stft.cpp ****                 = static_cast<float>(synthesis_[buffer_ptr_ + i]) / 16384.0f;
 104:dsp/pvoc/stft.cpp ****             input += stride;
 493              		.loc 1 104 19 view .LVU135
 494 001c 0D9B     		ldr	r3, [sp, #52]
 495 001e 9E00     		lsls	r6, r3, #2
 496              	.LBE292:
 497              	.LBE291:
 105:dsp/pvoc/stft.cpp ****             output += stride;
 106:dsp/pvoc/stft.cpp ****         }
 107:dsp/pvoc/stft.cpp **** 
 108:dsp/pvoc/stft.cpp ****         block_size_ += processed;
 109:dsp/pvoc/stft.cpp ****         size -= processed;
 110:dsp/pvoc/stft.cpp ****         buffer_ptr_ += processed;
 111:dsp/pvoc/stft.cpp ****         if(buffer_ptr_ >= buffer_size_)
 498              		.loc 1 111 27 view .LVU136
 499 0020 0369     		ldr	r3, [r0, #16]
 500 0022 0193     		str	r3, [sp, #4]
 501              	.LVL26:
 502              	.L24:
  97:dsp/pvoc/stft.cpp ****         for(size_t i = 0; i < processed; ++i)
 503              		.loc 1 97 9 is_stmt 1 view .LVU137
  97:dsp/pvoc/stft.cpp ****         for(size_t i = 0; i < processed; ++i)
 504              		.loc 1 97 50 is_stmt 0 view .LVU138
 505 0024 DEF83CC0 		ldr	ip, [lr, #60]
 506              	.LVL27:
  97:dsp/pvoc/stft.cpp ****         for(size_t i = 0; i < processed; ++i)
 507              		.loc 1 97 48 view .LVU139
 508 0028 009B     		ldr	r3, [sp]
 509 002a A3EB0C00 		sub	r0, r3, ip
 510 002e 4845     		cmp	r0, r9
 511 0030 28BF     		it	cs
 512 0032 4846     		movcs	r0, r9
 513              	.LVL28:
  98:dsp/pvoc/stft.cpp ****         for(size_t i = 0; i < processed; ++i)
 514              		.loc 1 98 9 is_stmt 1 view .LVU140
 515              	.LBB297:
  98:dsp/pvoc/stft.cpp ****         for(size_t i = 0; i < processed; ++i)
 516              		.loc 1 98 29 view .LVU141
 517 0034 0028     		cmp	r0, #0
 518 0036 4CD0     		beq	.L25
 519              	.LBB293:
 101:dsp/pvoc/stft.cpp ****             *output
 520              		.loc 1 101 23 is_stmt 0 view .LVU142
 521 0038 DEF83420 		ldr	r2, [lr, #52]
ARM GAS  /var/folders/hl/qgbwny5j0fd895c2c41bk3tw0000gp/T//ccTuF2qj.s 			page 45


 103:dsp/pvoc/stft.cpp ****             input += stride;
 522              		.loc 1 103 38 view .LVU143
 523 003c 5C46     		mov	r4, fp
 101:dsp/pvoc/stft.cpp ****             *output
 524              		.loc 1 101 13 view .LVU144
 525 003e DEF82C70 		ldr	r7, [lr, #44]
 103:dsp/pvoc/stft.cpp ****             input += stride;
 526              		.loc 1 103 38 view .LVU145
 527 0042 5146     		mov	r1, r10
 528 0044 5500     		lsls	r5, r2, #1
 529 0046 02EB0008 		add	r8, r2, r0
 530 004a DEF83030 		ldr	r3, [lr, #48]
 531 004e 07EB4202 		add	r2, r7, r2, lsl #1
 532 0052 023D     		subs	r5, r5, #2
 533 0054 07EB4807 		add	r7, r7, r8, lsl #1
 534 0058 1D44     		add	r5, r5, r3
 535              	.LVL29:
 536              	.L26:
 100:dsp/pvoc/stft.cpp ****             analysis_[buffer_ptr_ + i] = Clip16(sample);
 537              		.loc 1 100 13 is_stmt 1 discriminator 2 view .LVU146
 101:dsp/pvoc/stft.cpp ****             *output
 538              		.loc 1 101 13 discriminator 2 view .LVU147
 101:dsp/pvoc/stft.cpp ****             *output
 539              		.loc 1 101 13 is_stmt 0 discriminator 2 view .LVU148
 540              	.LBE293:
 541              	.LBE297:
 542              	.LBE290:
 543              		.file 4 "./stmtemp.h"
   1:./stmtemp.h   **** #include "daisy.h"
   2:./stmtemp.h   **** #include "daisysp.h"
   3:./stmtemp.h   **** #include "resources.h"
   4:./stmtemp.h   **** 
   5:./stmtemp.h   **** using namespace daisy;
   6:./stmtemp.h   **** using namespace daisysp;
   7:./stmtemp.h   **** 
   8:./stmtemp.h   **** #define MAKE_INTEGRAL_FRACTIONAL(x)                   \
   9:./stmtemp.h   ****     int32_t x##_integral   = static_cast<int32_t>(x); \
  10:./stmtemp.h   ****     float   x##_fractional = x - static_cast<float>(x##_integral);
  11:./stmtemp.h   **** 
  12:./stmtemp.h   **** #define SLOPE(out, in, positive, negative)                \
  13:./stmtemp.h   ****     {                                                     \
  14:./stmtemp.h   ****         float error = (in)-out;                           \
  15:./stmtemp.h   ****         out += (error > 0 ? positive : negative) * error; \
  16:./stmtemp.h   ****     }
  17:./stmtemp.h   **** 
  18:./stmtemp.h   **** #define ONE_POLE(out, in, coefficient) out += (coefficient) * ((in)-out);
  19:./stmtemp.h   **** 
  20:./stmtemp.h   **** #define CONSTRAIN(var, min, max) \
  21:./stmtemp.h   ****     if(var < (min))              \
  22:./stmtemp.h   ****     {                            \
  23:./stmtemp.h   ****         var = (min);             \
  24:./stmtemp.h   ****     }                            \
  25:./stmtemp.h   ****     else if(var > (max))         \
  26:./stmtemp.h   ****     {                            \
  27:./stmtemp.h   ****         var = (max);             \
  28:./stmtemp.h   ****     }
  29:./stmtemp.h   **** 
ARM GAS  /var/folders/hl/qgbwny5j0fd895c2c41bk3tw0000gp/T//ccTuF2qj.s 			page 46


  30:./stmtemp.h   **** #define JOIN(lhs, rhs) JOIN_1(lhs, rhs)
  31:./stmtemp.h   **** #define JOIN_1(lhs, rhs) JOIN_2(lhs, rhs)
  32:./stmtemp.h   **** #define JOIN_2(lhs, rhs) lhs##rhs
  33:./stmtemp.h   **** 
  34:./stmtemp.h   **** #define STATIC_ASSERT(expression, message)                                  \
  35:./stmtemp.h   ****     struct JOIN(__static_assertion_at_line_, __LINE__)                      \
  36:./stmtemp.h   ****     {                                                                       \
  37:./stmtemp.h   ****         impl::StaticAssertion<static_cast<bool>((expression))>              \
  38:./stmtemp.h   ****             JOIN(JOIN(JOIN(STATIC_ASSERTION_FAILED_AT_LINE_, __LINE__), _), \
  39:./stmtemp.h   ****                  message);                                                  \
  40:./stmtemp.h   ****     };
  41:./stmtemp.h   **** 
  42:./stmtemp.h   **** namespace impl
  43:./stmtemp.h   **** {
  44:./stmtemp.h   **** template <bool>
  45:./stmtemp.h   **** struct StaticAssertion;
  46:./stmtemp.h   **** 
  47:./stmtemp.h   **** template <>
  48:./stmtemp.h   **** struct StaticAssertion<true>
  49:./stmtemp.h   **** {
  50:./stmtemp.h   **** }; // StaticAssertion<true>
  51:./stmtemp.h   **** 
  52:./stmtemp.h   **** template <int i>
  53:./stmtemp.h   **** struct StaticAssertionTest
  54:./stmtemp.h   **** {
  55:./stmtemp.h   **** }; // StaticAssertionTest<int>
  56:./stmtemp.h   **** 
  57:./stmtemp.h   **** } // namespace impl
  58:./stmtemp.h   **** 
  59:./stmtemp.h   **** template <uint32_t a, uint32_t b, uint32_t c, uint32_t d>
  60:./stmtemp.h   **** struct FourCC
  61:./stmtemp.h   **** {
  62:./stmtemp.h   ****     static const uint32_t value = (((((d << 8) | c) << 8) | b) << 8) | a;
  63:./stmtemp.h   **** };
  64:./stmtemp.h   **** 
  65:./stmtemp.h   **** class CosineOscillator
  66:./stmtemp.h   **** {
  67:./stmtemp.h   ****   public:
  68:./stmtemp.h   ****     CosineOscillator() {}
  69:./stmtemp.h   ****     ~CosineOscillator() {}
  70:./stmtemp.h   **** 
  71:./stmtemp.h   ****     void Init(float freq)
  72:./stmtemp.h   ****     {
  73:./stmtemp.h   ****         float sample_rate = 48000; //hardcoded for now
  74:./stmtemp.h   ****         phs_inc_          = freq / sample_rate;
  75:./stmtemp.h   ****     }
  76:./stmtemp.h   **** 
  77:./stmtemp.h   ****     float Next()
  78:./stmtemp.h   ****     {
  79:./stmtemp.h   ****         phs_ += phs_inc_;
  80:./stmtemp.h   **** 
  81:./stmtemp.h   ****         if(phs_ >= 1.f)
  82:./stmtemp.h   ****         {
  83:./stmtemp.h   ****             phs_ -= 1.f;
  84:./stmtemp.h   ****         }
  85:./stmtemp.h   **** 
  86:./stmtemp.h   ****         value_ = cos(phs_);
ARM GAS  /var/folders/hl/qgbwny5j0fd895c2c41bk3tw0000gp/T//ccTuF2qj.s 			page 47


  87:./stmtemp.h   **** 
  88:./stmtemp.h   ****         return value_;
  89:./stmtemp.h   ****     }
  90:./stmtemp.h   **** 
  91:./stmtemp.h   ****     float value() { return value_; }
  92:./stmtemp.h   **** 
  93:./stmtemp.h   ****   private:
  94:./stmtemp.h   ****     float value_ = 0.f;
  95:./stmtemp.h   ****     float sample_rate_;
  96:./stmtemp.h   ****     float phs_ = 0.f;
  97:./stmtemp.h   ****     float phs_inc_;
  98:./stmtemp.h   **** };
  99:./stmtemp.h   **** 
 100:./stmtemp.h   **** inline int32_t Clip16(int32_t x)
 101:./stmtemp.h   **** {
 102:./stmtemp.h   ****     if(x < -32768)
 544              		.loc 4 102 5 is_stmt 1 discriminator 2 view .LVU149
 545              	.LBB299:
 546              	.LBB298:
 547              	.LBB294:
 100:dsp/pvoc/stft.cpp ****             analysis_[buffer_ptr_ + i] = Clip16(sample);
 548              		.loc 1 100 49 is_stmt 0 discriminator 2 view .LVU150
 549 005a D1ED007A 		vldr.32	s15, [r1]
 104:dsp/pvoc/stft.cpp ****             output += stride;
 550              		.loc 1 104 19 discriminator 2 view .LVU151
 551 005e 3144     		add	r1, r1, r6
 552              	.LVL30:
 100:dsp/pvoc/stft.cpp ****             analysis_[buffer_ptr_ + i] = Clip16(sample);
 553              		.loc 1 100 21 discriminator 2 view .LVU152
 554 0060 B0EE677A 		vmov.f32	s14, s15
 555 0064 BEEEE87A 		vcvt.s32.f32	s14, s14, #15
 556 0068 17EE103A 		vmov	r3, s14	@ int
 101:dsp/pvoc/stft.cpp ****             *output
 557              		.loc 1 101 40 discriminator 2 view .LVU153
 558 006c 03F30F03 		ssat	r3, #16, r3
 559 0070 22F8023B 		strh	r3, [r2], #2	@ movhi
 102:dsp/pvoc/stft.cpp ****                 = static_cast<float>(synthesis_[buffer_ptr_ + i]) / 16384.0f;
 560              		.loc 1 102 13 is_stmt 1 discriminator 2 view .LVU154
 561              	.LBE294:
  98:dsp/pvoc/stft.cpp ****         {
 562              		.loc 1 98 29 is_stmt 0 discriminator 2 view .LVU155
 563 0074 9742     		cmp	r7, r2
 564              	.LBB295:
 103:dsp/pvoc/stft.cpp ****             input += stride;
 565              		.loc 1 103 19 discriminator 2 view .LVU156
 566 0076 35F9023F 		ldrsh	r3, [r5, #2]!
 567 007a 07EE903A 		vmov	s15, r3	@ int
 568              	.LVL31:
 103:dsp/pvoc/stft.cpp ****             input += stride;
 569              		.loc 1 103 67 discriminator 2 view .LVU157
 570 007e FAEEC97A 		vcvt.f32.s32	s15, s15, #14
 103:dsp/pvoc/stft.cpp ****             input += stride;
 571              		.loc 1 103 17 discriminator 2 view .LVU158
 572 0082 C4ED007A 		vstr.32	s15, [r4]
 104:dsp/pvoc/stft.cpp ****             output += stride;
 573              		.loc 1 104 13 is_stmt 1 discriminator 2 view .LVU159
 574              	.LVL32:
ARM GAS  /var/folders/hl/qgbwny5j0fd895c2c41bk3tw0000gp/T//ccTuF2qj.s 			page 48


 105:dsp/pvoc/stft.cpp ****         }
 575              		.loc 1 105 13 discriminator 2 view .LVU160
 105:dsp/pvoc/stft.cpp ****         }
 576              		.loc 1 105 20 is_stmt 0 discriminator 2 view .LVU161
 577 0086 3444     		add	r4, r4, r6
 578              	.LVL33:
 105:dsp/pvoc/stft.cpp ****         }
 579              		.loc 1 105 20 discriminator 2 view .LVU162
 580              	.LBE295:
  98:dsp/pvoc/stft.cpp ****         {
 581              		.loc 1 98 9 is_stmt 1 discriminator 2 view .LVU163
  98:dsp/pvoc/stft.cpp ****         {
 582              		.loc 1 98 29 discriminator 2 view .LVU164
 583 0088 E7D1     		bne	.L26
 584 008a 00FB06F3 		mul	r3, r0, r6
 585              	.LBB296:
 104:dsp/pvoc/stft.cpp ****             output += stride;
 586              		.loc 1 104 19 is_stmt 0 view .LVU165
 587 008e 9A44     		add	r10, r10, r3
 105:dsp/pvoc/stft.cpp ****         }
 588              		.loc 1 105 20 view .LVU166
 589 0090 9B44     		add	fp, fp, r3
 590              	.LVL34:
 591              	.L27:
 105:dsp/pvoc/stft.cpp ****         }
 592              		.loc 1 105 20 view .LVU167
 593              	.LBE296:
 594              	.LBE298:
 108:dsp/pvoc/stft.cpp ****         size -= processed;
 595              		.loc 1 108 9 is_stmt 1 view .LVU168
 596              		.loc 1 111 9 is_stmt 0 view .LVU169
 597 0092 019B     		ldr	r3, [sp, #4]
 108:dsp/pvoc/stft.cpp ****         size -= processed;
 598              		.loc 1 108 21 view .LVU170
 599 0094 0CEB0002 		add	r2, ip, r0
 109:dsp/pvoc/stft.cpp ****         buffer_ptr_ += processed;
 600              		.loc 1 109 14 view .LVU171
 601 0098 A9EB0009 		sub	r9, r9, r0
 602              		.loc 1 111 9 view .LVU172
 603 009c 9845     		cmp	r8, r3
 108:dsp/pvoc/stft.cpp ****         size -= processed;
 604              		.loc 1 108 21 view .LVU173
 605 009e CEF83C20 		str	r2, [lr, #60]
 109:dsp/pvoc/stft.cpp ****         buffer_ptr_ += processed;
 606              		.loc 1 109 9 is_stmt 1 view .LVU174
 607              	.LVL35:
 110:dsp/pvoc/stft.cpp ****         if(buffer_ptr_ >= buffer_size_)
 608              		.loc 1 110 9 view .LVU175
 609              		.loc 1 111 9 view .LVU176
 610 00a2 10D2     		bcs	.L28
 110:dsp/pvoc/stft.cpp ****         if(buffer_ptr_ >= buffer_size_)
 611              		.loc 1 110 21 is_stmt 0 view .LVU177
 612 00a4 CEF83480 		str	r8, [lr, #52]
 613              	.L29:
 112:dsp/pvoc/stft.cpp ****         {
 113:dsp/pvoc/stft.cpp ****             buffer_ptr_ -= buffer_size_;
 114:dsp/pvoc/stft.cpp ****         }
ARM GAS  /var/folders/hl/qgbwny5j0fd895c2c41bk3tw0000gp/T//ccTuF2qj.s 			page 49


 115:dsp/pvoc/stft.cpp ****         if(block_size_ >= hop_size_)
 614              		.loc 1 115 9 is_stmt 1 view .LVU178
 615 00a8 0099     		ldr	r1, [sp]
 616 00aa 9142     		cmp	r1, r2
 617 00ac 05D8     		bhi	.L30
 116:dsp/pvoc/stft.cpp ****         {
 117:dsp/pvoc/stft.cpp ****             block_size_ -= hop_size_;
 618              		.loc 1 117 13 view .LVU179
 118:dsp/pvoc/stft.cpp ****             ++ready_;
 619              		.loc 1 118 13 is_stmt 0 view .LVU180
 620 00ae DEF84030 		ldr	r3, [lr, #64]
 117:dsp/pvoc/stft.cpp ****             ++ready_;
 621              		.loc 1 117 25 view .LVU181
 622 00b2 521A     		subs	r2, r2, r1
 623              		.loc 1 118 13 view .LVU182
 624 00b4 0133     		adds	r3, r3, #1
 625 00b6 CEE90F23 		strd	r2, r3, [lr, #60]
 626              	.L30:
 627              	.LVL36:
 628              		.loc 1 118 13 view .LVU183
 629              	.LBE299:
  95:dsp/pvoc/stft.cpp ****     {
 630              		.loc 1 95 5 is_stmt 1 view .LVU184
  95:dsp/pvoc/stft.cpp ****     {
 631              		.loc 1 95 11 view .LVU185
 632 00ba B9F1000F 		cmp	r9, #0
 633 00be B1D1     		bne	.L24
 634              	.LVL37:
 635              	.L22:
 119:dsp/pvoc/stft.cpp ****         }
 120:dsp/pvoc/stft.cpp ****     }
 121:dsp/pvoc/stft.cpp **** }
 636              		.loc 1 121 1 is_stmt 0 view .LVU186
 637 00c0 03B0     		add	sp, sp, #12
 638              		.cfi_remember_state
 639              		.cfi_def_cfa_offset 36
 640              		@ sp needed
 641 00c2 BDE8F08F 		pop	{r4, r5, r6, r7, r8, r9, r10, fp, pc}
 642              	.LVL38:
 643              	.L28:
 644              		.cfi_restore_state
 645              	.LBB300:
 113:dsp/pvoc/stft.cpp ****         }
 646              		.loc 1 113 13 is_stmt 1 view .LVU187
 113:dsp/pvoc/stft.cpp ****         }
 647              		.loc 1 113 25 is_stmt 0 view .LVU188
 648 00c6 019B     		ldr	r3, [sp, #4]
 649 00c8 A8EB0303 		sub	r3, r8, r3
 650 00cc CEF83430 		str	r3, [lr, #52]
 651 00d0 EAE7     		b	.L29
 652              	.LVL39:
 653              	.L25:
 110:dsp/pvoc/stft.cpp ****         if(buffer_ptr_ >= buffer_size_)
 654              		.loc 1 110 21 view .LVU189
 655 00d2 DEF83480 		ldr	r8, [lr, #52]
 656 00d6 DCE7     		b	.L27
 657              	.LBE300:
ARM GAS  /var/folders/hl/qgbwny5j0fd895c2c41bk3tw0000gp/T//ccTuF2qj.s 			page 50


 658              		.cfi_endproc
 659              	.LFE4867:
 661              		.section	.text._ZN4STFT6BufferEv,"ax",%progbits
 662              		.align	1
 663              		.p2align 2,,3
 664              		.global	_ZN4STFT6BufferEv
 665              		.syntax unified
 666              		.thumb
 667              		.thumb_func
 668              		.fpu fpv5-d16
 670              	_ZN4STFT6BufferEv:
 671              	.LVL40:
 672              	.LFB4868:
 122:dsp/pvoc/stft.cpp **** 
 123:dsp/pvoc/stft.cpp **** void STFT::Buffer()
 124:dsp/pvoc/stft.cpp **** {
 673              		.loc 1 124 1 is_stmt 1 view -0
 674              		.cfi_startproc
 675              		@ args = 0, pretend = 0, frame = 72
 676              		@ frame_needed = 0, uses_anonymous_args = 0
 125:dsp/pvoc/stft.cpp ****     if(ready_ == done_)
 677              		.loc 1 125 5 view .LVU191
 678 0000 D0E91023 		ldrd	r2, r3, [r0, #64]
 124:dsp/pvoc/stft.cpp ****     if(ready_ == done_)
 679              		.loc 1 124 1 is_stmt 0 view .LVU192
 680 0004 2DE9F04F 		push	{r4, r5, r6, r7, r8, r9, r10, fp, lr}
 681              		.cfi_def_cfa_offset 36
 682              		.cfi_offset 4, -36
 683              		.cfi_offset 5, -32
 684              		.cfi_offset 6, -28
 685              		.cfi_offset 7, -24
 686              		.cfi_offset 8, -20
 687              		.cfi_offset 9, -16
 688              		.cfi_offset 10, -12
 689              		.cfi_offset 11, -8
 690              		.cfi_offset 14, -4
 691              		.loc 1 125 5 view .LVU193
 692 0008 9A42     		cmp	r2, r3
 124:dsp/pvoc/stft.cpp ****     if(ready_ == done_)
 693              		.loc 1 124 1 view .LVU194
 694 000a 93B0     		sub	sp, sp, #76
 695              		.cfi_def_cfa_offset 112
 124:dsp/pvoc/stft.cpp ****     if(ready_ == done_)
 696              		.loc 1 124 1 view .LVU195
 697 000c 0F90     		str	r0, [sp, #60]
 698              		.loc 1 125 5 view .LVU196
 699 000e 00F0C883 		beq	.L39
 126:dsp/pvoc/stft.cpp ****     {
 127:dsp/pvoc/stft.cpp ****         return;
 128:dsp/pvoc/stft.cpp ****     }
 129:dsp/pvoc/stft.cpp **** 
 130:dsp/pvoc/stft.cpp ****     // Copy block to FFT buffer and apply window.
 131:dsp/pvoc/stft.cpp ****     size_t       source_ptr = process_ptr_;
 700              		.loc 1 131 5 is_stmt 1 view .LVU197
 701              	.LBB434:
 132:dsp/pvoc/stft.cpp ****     const float* w          = window_;
 133:dsp/pvoc/stft.cpp ****     for(size_t i = 0; i < fft_size_; ++i)
ARM GAS  /var/folders/hl/qgbwny5j0fd895c2c41bk3tw0000gp/T//ccTuF2qj.s 			page 51


 702              		.loc 1 133 27 is_stmt 0 view .LVU198
 703 0012 D0F804C0 		ldr	ip, [r0, #4]
 704 0016 0146     		mov	r1, r0
 705              	.LBE434:
 131:dsp/pvoc/stft.cpp ****     const float* w          = window_;
 706              		.loc 1 131 18 view .LVU199
 707 0018 836B     		ldr	r3, [r0, #56]
 708              	.LVL41:
 132:dsp/pvoc/stft.cpp ****     const float* w          = window_;
 709              		.loc 1 132 5 is_stmt 1 view .LVU200
 132:dsp/pvoc/stft.cpp ****     const float* w          = window_;
 710              		.loc 1 132 18 is_stmt 0 view .LVU201
 711 001a 406A     		ldr	r0, [r0, #36]
 712              	.LVL42:
 713              		.loc 1 133 5 is_stmt 1 view .LVU202
 714              	.LBB435:
 715              		.loc 1 133 25 view .LVU203
 716 001c BCF1000F 		cmp	ip, #0
 717 0020 00F0D386 		beq	.L151
 134:dsp/pvoc/stft.cpp ****     {
 135:dsp/pvoc/stft.cpp ****         fft_in_[i] = w[0] * analysis_[source_ptr];
 718              		.loc 1 135 29 is_stmt 0 view .LVU204
 719 0024 0F9A     		ldr	r2, [sp, #60]
 720              		.loc 1 135 9 view .LVU205
 721 0026 5169     		ldr	r1, [r2, #20]
 722              	.LVL43:
 136:dsp/pvoc/stft.cpp ****         ++source_ptr;
 137:dsp/pvoc/stft.cpp ****         if(source_ptr >= buffer_size_)
 138:dsp/pvoc/stft.cpp ****         {
 139:dsp/pvoc/stft.cpp ****             source_ptr -= buffer_size_;
 140:dsp/pvoc/stft.cpp ****         }
 141:dsp/pvoc/stft.cpp ****         w += window_stride_;
 723              		.loc 1 141 11 view .LVU206
 724 0028 956A     		ldr	r5, [r2, #40]
 135:dsp/pvoc/stft.cpp ****         ++source_ptr;
 725              		.loc 1 135 29 view .LVU207
 726 002a D76A     		ldr	r7, [r2, #44]
 727 002c 01EB8C06 		add	r6, r1, ip, lsl #2
 137:dsp/pvoc/stft.cpp ****         {
 728              		.loc 1 137 26 view .LVU208
 729 0030 1469     		ldr	r4, [r2, #16]
 730              		.loc 1 141 11 view .LVU209
 731 0032 AD00     		lsls	r5, r5, #2
 732 0034 0A46     		mov	r2, r1
 733              	.LVL44:
 135:dsp/pvoc/stft.cpp ****         ++source_ptr;
 734              		.loc 1 135 9 view .LVU210
 735 0036 0D91     		str	r1, [sp, #52]
 736              	.LVL45:
 737              	.L45:
 135:dsp/pvoc/stft.cpp ****         ++source_ptr;
 738              		.loc 1 135 9 is_stmt 1 view .LVU211
 139:dsp/pvoc/stft.cpp ****         }
 739              		.loc 1 139 13 view .LVU212
 135:dsp/pvoc/stft.cpp ****         ++source_ptr;
 740              		.loc 1 135 27 is_stmt 0 view .LVU213
 741 0038 37F913E0 		ldrsh	lr, [r7, r3, lsl #1]
ARM GAS  /var/folders/hl/qgbwny5j0fd895c2c41bk3tw0000gp/T//ccTuF2qj.s 			page 52


 136:dsp/pvoc/stft.cpp ****         if(source_ptr >= buffer_size_)
 742              		.loc 1 136 9 view .LVU214
 743 003c 0133     		adds	r3, r3, #1
 744              	.LVL46:
 135:dsp/pvoc/stft.cpp ****         ++source_ptr;
 745              		.loc 1 135 27 view .LVU215
 746 003e 90ED007A 		vldr.32	s14, [r0]
 747              		.loc 1 141 11 view .LVU216
 748 0042 2844     		add	r0, r0, r5
 749              	.LVL47:
 135:dsp/pvoc/stft.cpp ****         ++source_ptr;
 750              		.loc 1 135 27 view .LVU217
 751 0044 07EE90EA 		vmov	s15, lr	@ int
 137:dsp/pvoc/stft.cpp ****         {
 752              		.loc 1 137 9 view .LVU218
 753 0048 9C42     		cmp	r4, r3
 135:dsp/pvoc/stft.cpp ****         ++source_ptr;
 754              		.loc 1 135 27 view .LVU219
 755 004a F8EEE77A 		vcvt.f32.s32	s15, s15
 139:dsp/pvoc/stft.cpp ****         }
 756              		.loc 1 139 24 view .LVU220
 757 004e 98BF     		it	ls
 758 0050 1B1B     		subls	r3, r3, r4
 759              	.LVL48:
 135:dsp/pvoc/stft.cpp ****         ++source_ptr;
 760              		.loc 1 135 27 view .LVU221
 761 0052 67EE877A 		vmul.f32	s15, s15, s14
 135:dsp/pvoc/stft.cpp ****         ++source_ptr;
 762              		.loc 1 135 20 view .LVU222
 763 0056 E1EC017A 		vstmia.32	r1!, {s15}
 136:dsp/pvoc/stft.cpp ****         if(source_ptr >= buffer_size_)
 764              		.loc 1 136 9 is_stmt 1 view .LVU223
 137:dsp/pvoc/stft.cpp ****         {
 765              		.loc 1 137 9 view .LVU224
 766              	.LVL49:
 767              		.loc 1 141 9 view .LVU225
 133:dsp/pvoc/stft.cpp ****     {
 768              		.loc 1 133 5 view .LVU226
 133:dsp/pvoc/stft.cpp ****     {
 769              		.loc 1 133 25 view .LVU227
 770 005a 8E42     		cmp	r6, r1
 771 005c ECD1     		bne	.L45
 772              	.LBE435:
 142:dsp/pvoc/stft.cpp ****     }
 143:dsp/pvoc/stft.cpp **** 
 144:dsp/pvoc/stft.cpp ****     // Compute FFT. fft_in is lost.
 145:dsp/pvoc/stft.cpp **** #ifdef USE_ARM_FFT
 146:dsp/pvoc/stft.cpp ****     arm_rfft_fast_f32(fft_, fft_in_, fft_out_, 0);
 147:dsp/pvoc/stft.cpp ****     copy(&fft_out_[0], &fft_out_[fft_size_], &fft_in_[0]);
 148:dsp/pvoc/stft.cpp ****     // Re-arrange data.
 149:dsp/pvoc/stft.cpp ****     for(size_t i = 0; i < fft_size_ / 2; ++i)
 150:dsp/pvoc/stft.cpp ****     {
 151:dsp/pvoc/stft.cpp ****         fft_out_[i]                 = fft_in_[2 * i];
 152:dsp/pvoc/stft.cpp ****         fft_out_[i + fft_size_ / 2] = fft_in_[2 * i + 1];
 153:dsp/pvoc/stft.cpp ****     }
 154:dsp/pvoc/stft.cpp **** #else
 155:dsp/pvoc/stft.cpp ****     if(fft_size_ != FFT::max_size)
ARM GAS  /var/folders/hl/qgbwny5j0fd895c2c41bk3tw0000gp/T//ccTuF2qj.s 			page 53


 773              		.loc 1 155 5 view .LVU228
 774 005e BCF5805F 		cmp	ip, #4096
 775 0062 00F0A183 		beq	.L46
 776              	.LVL50:
 777              	.L43:
 156:dsp/pvoc/stft.cpp ****     {
 157:dsp/pvoc/stft.cpp ****         fft_->Direct(fft_in_, fft_out_, fft_num_passes_);
 778              		.loc 1 157 9 view .LVU229
 779              		.loc 1 157 21 is_stmt 0 view .LVU230
 780 0066 0F9A     		ldr	r2, [sp, #60]
 781              	.LBB436:
 782              	.LBB437:
 783              	.LBB438:
 784              	.LBB439:
 421:./shy_fft.h   ****         // First and second pass.
 785              		.loc 3 421 29 view .LVU231
 786 0068 0123     		movs	r3, #1
 787              	.LBE439:
 788              	.LBE438:
 789              	.LBE437:
 790              	.LBE436:
 791              		.loc 1 157 21 view .LVU232
 792 006a 9168     		ldr	r1, [r2, #8]
 793 006c 9069     		ldr	r0, [r2, #24]
 794              	.LVL51:
 795              	.LBB512:
 796              	.LBB506:
 797              	.LBB500:
 798              	.LBB494:
 799              	.LBB440:
 424:./shy_fft.h   ****         {
 800              		.loc 3 424 29 view .LVU233
 801 006e 13FA01F4 		lsls	r4, r3, r1
 802              	.LBE440:
 803              	.LBE494:
 804              	.LBE500:
 805              	.LBE506:
 806              	.LBE512:
 807              		.loc 1 157 9 view .LVU234
 808 0072 D2F800A0 		ldr	r10, [r2]
 809              	.LVL52:
 810              		.loc 1 157 21 view .LVU235
 811 0076 1091     		str	r1, [sp, #64]
 812 0078 1190     		str	r0, [sp, #68]
 813              	.LVL53:
 814              	.LBB513:
 815              	.LBI436:
 834:./shy_fft.h   ****         {
 835:./shy_fft.h   ****             uint8_t byte        = 0;
 836:./shy_fft.h   ****             uint8_t source      = i << 2;
 837:./shy_fft.h   ****             uint8_t destination = static_cast<uint8_t>(size >> 1);
 838:./shy_fft.h   ****             while(source)
 839:./shy_fft.h   ****             {
 840:./shy_fft.h   ****                 if(source & 1)
 841:./shy_fft.h   ****                 {
 842:./shy_fft.h   ****                     byte |= destination;
 843:./shy_fft.h   ****                 }
ARM GAS  /var/folders/hl/qgbwny5j0fd895c2c41bk3tw0000gp/T//ccTuF2qj.s 			page 54


 844:./shy_fft.h   ****                 destination >>= 1;
 845:./shy_fft.h   ****                 source >>= 1;
 846:./shy_fft.h   ****             }
 847:./shy_fft.h   ****             bit_rev_[i] = byte;
 848:./shy_fft.h   ****         }
 849:./shy_fft.h   ****         phasor_.Init();
 850:./shy_fft.h   ****     }
 851:./shy_fft.h   **** 
 852:./shy_fft.h   ****     void Direct(T* input, T* output)
 853:./shy_fft.h   ****     {
 854:./shy_fft.h   ****         DirectTransform<T, num_passes, Phasor<T, num_passes>> d;
 855:./shy_fft.h   ****         d(input,
 856:./shy_fft.h   ****           output,
 857:./shy_fft.h   ****           num_passes <= 8 ? &bit_rev_[0] : bit_rev_256_lut_,
 858:./shy_fft.h   ****           &phasor_);
 859:./shy_fft.h   ****     }
 860:./shy_fft.h   **** 
 861:./shy_fft.h   ****     void Inverse(T* input, T* output)
 862:./shy_fft.h   ****     {
 863:./shy_fft.h   ****         InverseTransform<T, num_passes, Phasor<T, num_passes>> i;
 864:./shy_fft.h   ****         i(input,
 865:./shy_fft.h   ****           output,
 866:./shy_fft.h   ****           num_passes <= 8 ? &bit_rev_[0] : bit_rev_256_lut_,
 867:./shy_fft.h   ****           &phasor_);
 868:./shy_fft.h   ****     }
 869:./shy_fft.h   **** 
 870:./shy_fft.h   ****     void Direct(T* input, T* output, size_t n)
 816              		.loc 3 870 10 is_stmt 1 view .LVU236
 817              	.LBB507:
 818              	.LBB501:
 819              	.LBI438:
 412:./shy_fft.h   ****                     T*             output,
 820              		.loc 3 412 10 view .LVU237
 821              	.LBB495:
 822              	.LBB447:
 424:./shy_fft.h   ****         {
 823              		.loc 3 424 29 view .LVU238
 824 007a 0894     		str	r4, [sp, #32]
 825 007c 00F09F80 		beq	.L47
 826              	.LBB441:
 429:./shy_fft.h   ****             size_t r2 = r0 + 1 * (rt_size >> 2);
 827              		.loc 3 429 43 is_stmt 0 view .LVU239
 828 0080 A708     		lsrs	r7, r4, #2
 428:./shy_fft.h   ****             size_t r1 = r0 + 2 * (rt_size >> 2);
 829              		.loc 3 428 32 view .LVU240
 830 0082 0022     		movs	r2, #0
 831              	.LVL54:
 428:./shy_fft.h   ****             size_t r1 = r0 + 2 * (rt_size >> 2);
 832              		.loc 3 428 32 view .LVU241
 833 0084 C1F11008 		rsb	r8, r1, #16
 834              	.LBE441:
 424:./shy_fft.h   ****         {
 835              		.loc 3 424 20 view .LVU242
 836 0088 A346     		mov	fp, r4
 837 008a 00F11001 		add	r1, r0, #16
 838              	.LVL55:
 839              	.LBB442:
ARM GAS  /var/folders/hl/qgbwny5j0fd895c2c41bk3tw0000gp/T//ccTuF2qj.s 			page 55


 429:./shy_fft.h   ****             size_t r2 = r0 + 1 * (rt_size >> 2);
 840              		.loc 3 429 32 view .LVU243
 841 008e 07FA03F9 		lsl	r9, r7, r3
 842              	.LBE442:
 424:./shy_fft.h   ****         {
 843              		.loc 3 424 20 view .LVU244
 844 0092 1046     		mov	r0, r2
 845              	.LVL56:
 846              	.LBB443:
 428:./shy_fft.h   ****             size_t r1 = r0 + 2 * (rt_size >> 2);
 847              		.loc 3 428 32 view .LVU245
 848 0094 1346     		mov	r3, r2
 849              	.LBE443:
 424:./shy_fft.h   ****         {
 850              		.loc 3 424 20 view .LVU246
 851 0096 BC46     		mov	ip, r7
 852 0098 0D9C     		ldr	r4, [sp, #52]
 853              	.LVL57:
 424:./shy_fft.h   ****         {
 854              		.loc 3 424 20 view .LVU247
 855 009a CDF800A0 		str	r10, [sp]
 856 009e 03E0     		b	.L49
 857              	.LVL58:
 858              	.L152:
 859              	.LBB444:
 427:./shy_fft.h   ****                         >> (16 - rt_num_passes);
 860              		.loc 3 427 45 view .LVU248
 861 00a0 1AF80730 		ldrb	r3, [r10, r7]	@ zero_extendqisi2
 427:./shy_fft.h   ****                         >> (16 - rt_num_passes);
 862              		.loc 3 427 69 view .LVU249
 863 00a4 1EF80720 		ldrb	r2, [lr, r7]	@ zero_extendqisi2
 864              	.LVL59:
 865              	.L49:
 427:./shy_fft.h   ****                         >> (16 - rt_num_passes);
 866              		.loc 3 427 53 view .LVU250
 867 00a8 42EA0323 		orr	r3, r2, r3, lsl #8
 868              	.LBE444:
 424:./shy_fft.h   ****         {
 869              		.loc 3 424 42 view .LVU251
 870 00ac 0430     		adds	r0, r0, #4
 871              	.LVL60:
 424:./shy_fft.h   ****         {
 872              		.loc 3 424 29 view .LVU252
 873 00ae 1031     		adds	r1, r1, #16
 874              	.LVL61:
 875              	.LBB445:
 427:./shy_fft.h   ****                         >> (16 - rt_num_passes);
 876              		.loc 3 427 45 view .LVU253
 877 00b0 B54F     		ldr	r7, .L159
 428:./shy_fft.h   ****             size_t r1 = r0 + 2 * (rt_size >> 2);
 878              		.loc 3 428 25 view .LVU254
