ARM GAS  /var/folders/hl/qgbwny5j0fd895c2c41bk3tw0000gp/T//ccSxPsAD.s 			page 1


   1              		.cpu cortex-m7
   2              		.eabi_attribute 28, 1
   3              		.eabi_attribute 20, 1
   4              		.eabi_attribute 21, 1
   5              		.eabi_attribute 23, 3
   6              		.eabi_attribute 24, 1
   7              		.eabi_attribute 25, 1
   8              		.eabi_attribute 26, 1
   9              		.eabi_attribute 30, 2
  10              		.eabi_attribute 34, 1
  11              		.eabi_attribute 18, 4
  12              		.file	"CloudPort.cpp"
  13              		.text
  14              	.Ltext0:
  15              		.cfi_sections	.debug_frame
  16              		.section	.text._ZN5daisy6SwitchD2Ev,"axG",%progbits,_ZN5daisy6SwitchD5Ev,comdat
  17              		.align	1
  18              		.p2align 2,,3
  19              		.weak	_ZN5daisy6SwitchD2Ev
  20              		.arch armv7e-m
  21              		.syntax unified
  22              		.thumb
  23              		.thumb_func
  24              		.fpu fpv5-d16
  26              	_ZN5daisy6SwitchD2Ev:
  27              	.LVL0:
  28              	.LFB1606:
  29              		.file 1 "../../libDaisy//src/hid/switch.h"
   1:../../libDaisy//src/hid/switch.h **** #pragma once
   2:../../libDaisy//src/hid/switch.h **** #ifndef DSY_SWITCH_H
   3:../../libDaisy//src/hid/switch.h **** #define DSY_SWITCH_H
   4:../../libDaisy//src/hid/switch.h **** #include "daisy_core.h"
   5:../../libDaisy//src/hid/switch.h **** #include "per/gpio.h"
   6:../../libDaisy//src/hid/switch.h **** #include "sys/system.h"
   7:../../libDaisy//src/hid/switch.h **** 
   8:../../libDaisy//src/hid/switch.h **** namespace daisy
   9:../../libDaisy//src/hid/switch.h **** {
  10:../../libDaisy//src/hid/switch.h **** /** 
  11:../../libDaisy//src/hid/switch.h ****     Generic Class for handling momentary/latching switches \n 
  12:../../libDaisy//src/hid/switch.h ****     Inspired/influenced by Mutable Instruments (pichenettes) Switch classes
  13:../../libDaisy//src/hid/switch.h ****     @author Stephen Hensley
  14:../../libDaisy//src/hid/switch.h ****     @date December 2019
  15:../../libDaisy//src/hid/switch.h ****     @ingroup controls
  16:../../libDaisy//src/hid/switch.h **** */
  17:../../libDaisy//src/hid/switch.h **** class Switch
  18:../../libDaisy//src/hid/switch.h **** {
  19:../../libDaisy//src/hid/switch.h ****   public:
  20:../../libDaisy//src/hid/switch.h ****     /** Specifies the expected behavior of the switch */
  21:../../libDaisy//src/hid/switch.h ****     enum Type
  22:../../libDaisy//src/hid/switch.h ****     {
  23:../../libDaisy//src/hid/switch.h ****         TYPE_TOGGLE,    /**< & */
  24:../../libDaisy//src/hid/switch.h ****         TYPE_MOMENTARY, /**< & */
  25:../../libDaisy//src/hid/switch.h ****     };
  26:../../libDaisy//src/hid/switch.h ****     /** Specifies whether the pressed is HIGH or LOW. */
  27:../../libDaisy//src/hid/switch.h ****     enum Polarity
  28:../../libDaisy//src/hid/switch.h ****     {
  29:../../libDaisy//src/hid/switch.h ****         POLARITY_NORMAL,   /**< & */
ARM GAS  /var/folders/hl/qgbwny5j0fd895c2c41bk3tw0000gp/T//ccSxPsAD.s 			page 2


  30:../../libDaisy//src/hid/switch.h ****         POLARITY_INVERTED, /**< & */
  31:../../libDaisy//src/hid/switch.h ****     };
  32:../../libDaisy//src/hid/switch.h **** 
  33:../../libDaisy//src/hid/switch.h ****     /** Specifies whether to use built-in Pull Up/Down resistors to hold button at a given state wh
  34:../../libDaisy//src/hid/switch.h ****     enum Pull
  35:../../libDaisy//src/hid/switch.h ****     {
  36:../../libDaisy//src/hid/switch.h ****         PULL_UP,   /**< & */
  37:../../libDaisy//src/hid/switch.h ****         PULL_DOWN, /**< & */
  38:../../libDaisy//src/hid/switch.h ****         PULL_NONE, /**< & */
  39:../../libDaisy//src/hid/switch.h ****     };
  40:../../libDaisy//src/hid/switch.h **** 
  41:../../libDaisy//src/hid/switch.h ****     Switch() {}
  42:../../libDaisy//src/hid/switch.h ****     ~Switch() {}
  30              		.loc 1 42 5 view -0
  31              		.cfi_startproc
  32              		@ args = 0, pretend = 0, frame = 0
  33              		@ frame_needed = 0, uses_anonymous_args = 0
  34              		@ link register save eliminated.
  35              		.loc 1 42 16 is_stmt 0 view .LVU1
  36 0000 7047     		bx	lr
  37              		.cfi_endproc
  38              	.LFE1606:
  40              		.weak	_ZN5daisy6SwitchD1Ev
  41              		.thumb_set _ZN5daisy6SwitchD1Ev,_ZN5daisy6SwitchD2Ev
  42 0002 00BF     		.section	.text._ZN5daisy9ParameterD2Ev,"axG",%progbits,_ZN5daisy9ParameterD5Ev,comdat
  43              		.align	1
  44              		.p2align 2,,3
  45              		.weak	_ZN5daisy9ParameterD2Ev
  46              		.syntax unified
  47              		.thumb
  48              		.thumb_func
  49              		.fpu fpv5-d16
  51              	_ZN5daisy9ParameterD2Ev:
  52              	.LVL1:
  53              	.LFB1655:
  54              		.file 2 "../../libDaisy//src/hid/parameter.h"
   1:../../libDaisy//src/hid/parameter.h **** #pragma once
   2:../../libDaisy//src/hid/parameter.h **** #include <stdint.h>
   3:../../libDaisy//src/hid/parameter.h **** #include "hid/ctrl.h"
   4:../../libDaisy//src/hid/parameter.h **** 
   5:../../libDaisy//src/hid/parameter.h **** namespace daisy
   6:../../libDaisy//src/hid/parameter.h **** {
   7:../../libDaisy//src/hid/parameter.h **** /** @addtogroup controls
   8:../../libDaisy//src/hid/parameter.h ****     @{
   9:../../libDaisy//src/hid/parameter.h **** */
  10:../../libDaisy//src/hid/parameter.h **** 
  11:../../libDaisy//src/hid/parameter.h **** /**      Simple parameter mapping tool that takes a 0-1 input from an hid_ctrl. */
  12:../../libDaisy//src/hid/parameter.h **** class Parameter
  13:../../libDaisy//src/hid/parameter.h **** {
  14:../../libDaisy//src/hid/parameter.h ****   public:
  15:../../libDaisy//src/hid/parameter.h ****     /** Curves are applied to the output signal */
  16:../../libDaisy//src/hid/parameter.h ****     enum Curve
  17:../../libDaisy//src/hid/parameter.h ****     {
  18:../../libDaisy//src/hid/parameter.h ****         LINEAR,      /**< Linear curve */
  19:../../libDaisy//src/hid/parameter.h ****         EXPONENTIAL, /**< Exponential curve */
  20:../../libDaisy//src/hid/parameter.h ****         LOGARITHMIC, /**<  Logarithmic curve */
  21:../../libDaisy//src/hid/parameter.h ****         CUBE,        /**< Cubic curve */
ARM GAS  /var/folders/hl/qgbwny5j0fd895c2c41bk3tw0000gp/T//ccSxPsAD.s 			page 3


  22:../../libDaisy//src/hid/parameter.h ****         LAST,        /**< Final enum element. */
  23:../../libDaisy//src/hid/parameter.h ****     };
  24:../../libDaisy//src/hid/parameter.h ****     /** Constructor */
  25:../../libDaisy//src/hid/parameter.h ****     Parameter() {}
  26:../../libDaisy//src/hid/parameter.h ****     /** Destructor */
  27:../../libDaisy//src/hid/parameter.h ****     ~Parameter() {}
  55              		.loc 2 27 5 is_stmt 1 view -0
  56              		.cfi_startproc
  57              		@ args = 0, pretend = 0, frame = 0
  58              		@ frame_needed = 0, uses_anonymous_args = 0
  59              		@ link register save eliminated.
  60              	.LBB329:
  61              	.LBI329:
  62              		.file 3 "../../libDaisy//src/hid/ctrl.h"
   1:../../libDaisy//src/hid/ctrl.h **** #pragma once
   2:../../libDaisy//src/hid/ctrl.h **** #ifndef DSY_KNOB_H
   3:../../libDaisy//src/hid/ctrl.h **** #define DSY_KNOB_H /**< & */
   4:../../libDaisy//src/hid/ctrl.h **** #include <stdint.h>
   5:../../libDaisy//src/hid/ctrl.h **** 
   6:../../libDaisy//src/hid/ctrl.h **** #ifdef __cplusplus
   7:../../libDaisy//src/hid/ctrl.h **** namespace daisy
   8:../../libDaisy//src/hid/ctrl.h **** {
   9:../../libDaisy//src/hid/ctrl.h **** /**
  10:../../libDaisy//src/hid/ctrl.h ****     @brief Hardware Interface for control inputs \n 
  11:../../libDaisy//src/hid/ctrl.h ****     Primarily designed for ADC input controls such as \n 
  12:../../libDaisy//src/hid/ctrl.h ****     potentiometers, and control voltage. \n 
  13:../../libDaisy//src/hid/ctrl.h ****     @author Stephen Hensley
  14:../../libDaisy//src/hid/ctrl.h ****     @date November 2019
  15:../../libDaisy//src/hid/ctrl.h ****     @ingroup controls
  16:../../libDaisy//src/hid/ctrl.h **** */
  17:../../libDaisy//src/hid/ctrl.h **** class AnalogControl
  18:../../libDaisy//src/hid/ctrl.h **** {
  19:../../libDaisy//src/hid/ctrl.h ****   public:
  20:../../libDaisy//src/hid/ctrl.h ****     /** Constructor */
  21:../../libDaisy//src/hid/ctrl.h ****     AnalogControl() {}
  22:../../libDaisy//src/hid/ctrl.h ****     /** destructor */
  23:../../libDaisy//src/hid/ctrl.h ****     ~AnalogControl() {}
  63              		.loc 3 23 5 view .LVU3
  64              		.loc 3 23 5 is_stmt 0 view .LVU4
  65              	.LBE329:
  66              		.loc 2 27 19 view .LVU5
  67 0000 7047     		bx	lr
  68              		.cfi_endproc
  69              	.LFE1655:
  71              		.weak	_ZN5daisy9ParameterD1Ev
  72              		.thumb_set _ZN5daisy9ParameterD1Ev,_ZN5daisy9ParameterD2Ev
  73 0002 00BF     		.section	.text._ZN5daisy8patch_sm12DaisyPatchSMD2Ev,"axG",%progbits,_ZN5daisy8patch_sm12DaisyPatch
  74              		.align	1
  75              		.p2align 2,,3
  76              		.weak	_ZN5daisy8patch_sm12DaisyPatchSMD2Ev
  77              		.syntax unified
  78              		.thumb
  79              		.thumb_func
  80              		.fpu fpv5-d16
  82              	_ZN5daisy8patch_sm12DaisyPatchSMD2Ev:
  83              	.LVL2:
  84              	.LFB2529:
ARM GAS  /var/folders/hl/qgbwny5j0fd895c2c41bk3tw0000gp/T//ccSxPsAD.s 			page 4


  85              		.file 4 "../../libDaisy//src/daisy_patch_sm.h"
   1:../../libDaisy//src/daisy_patch_sm.h **** #pragma once
   2:../../libDaisy//src/daisy_patch_sm.h **** 
   3:../../libDaisy//src/daisy_patch_sm.h **** #include "daisy.h"
   4:../../libDaisy//src/daisy_patch_sm.h **** 
   5:../../libDaisy//src/daisy_patch_sm.h **** namespace daisy
   6:../../libDaisy//src/daisy_patch_sm.h **** {
   7:../../libDaisy//src/daisy_patch_sm.h **** namespace patch_sm
   8:../../libDaisy//src/daisy_patch_sm.h **** {
   9:../../libDaisy//src/daisy_patch_sm.h ****     /** Accessors for the Analog Controls. 
  10:../../libDaisy//src/daisy_patch_sm.h ****      *  These cover the 8x Bipolar CV inputs
  11:../../libDaisy//src/daisy_patch_sm.h ****      *  as well as the 4x 0-3V3 ADC inputs on
  12:../../libDaisy//src/daisy_patch_sm.h ****      *  the hardware 
  13:../../libDaisy//src/daisy_patch_sm.h ****      * 
  14:../../libDaisy//src/daisy_patch_sm.h ****      *  When reading a value with DaisyPatchSM::GetAdcValue()
  15:../../libDaisy//src/daisy_patch_sm.h ****      * 
  16:../../libDaisy//src/daisy_patch_sm.h ****      *  patch.GetAdcValue(patch_sm::CV_1);
  17:../../libDaisy//src/daisy_patch_sm.h ****      */
  18:../../libDaisy//src/daisy_patch_sm.h ****     enum
  19:../../libDaisy//src/daisy_patch_sm.h ****     {
  20:../../libDaisy//src/daisy_patch_sm.h ****         CV_1 = 0,
  21:../../libDaisy//src/daisy_patch_sm.h ****         CV_2,
  22:../../libDaisy//src/daisy_patch_sm.h ****         CV_3,
  23:../../libDaisy//src/daisy_patch_sm.h ****         CV_4,
  24:../../libDaisy//src/daisy_patch_sm.h ****         CV_5,
  25:../../libDaisy//src/daisy_patch_sm.h ****         CV_6,
  26:../../libDaisy//src/daisy_patch_sm.h ****         CV_7,
  27:../../libDaisy//src/daisy_patch_sm.h ****         CV_8,
  28:../../libDaisy//src/daisy_patch_sm.h ****         ADC_9,
  29:../../libDaisy//src/daisy_patch_sm.h ****         ADC_10,
  30:../../libDaisy//src/daisy_patch_sm.h ****         ADC_11,
  31:../../libDaisy//src/daisy_patch_sm.h ****         ADC_12,
  32:../../libDaisy//src/daisy_patch_sm.h ****         ADC_LAST,
  33:../../libDaisy//src/daisy_patch_sm.h ****     };
  34:../../libDaisy//src/daisy_patch_sm.h **** 
  35:../../libDaisy//src/daisy_patch_sm.h ****     /** Enum for addressing the CV Outputs via the WriteCvOut function. */
  36:../../libDaisy//src/daisy_patch_sm.h ****     enum
  37:../../libDaisy//src/daisy_patch_sm.h ****     {
  38:../../libDaisy//src/daisy_patch_sm.h ****         CV_OUT_BOTH = 0,
  39:../../libDaisy//src/daisy_patch_sm.h ****         CV_OUT_1,
  40:../../libDaisy//src/daisy_patch_sm.h ****         CV_OUT_2,
  41:../../libDaisy//src/daisy_patch_sm.h ****     };
  42:../../libDaisy//src/daisy_patch_sm.h **** 
  43:../../libDaisy//src/daisy_patch_sm.h **** 
  44:../../libDaisy//src/daisy_patch_sm.h ****     /** @brief Board support file for DaisyPatchSM hardware
  45:../../libDaisy//src/daisy_patch_sm.h ****      *  @author shensley
  46:../../libDaisy//src/daisy_patch_sm.h ****      *  @ingroup boards
  47:../../libDaisy//src/daisy_patch_sm.h ****      * 
  48:../../libDaisy//src/daisy_patch_sm.h ****      *  Daisy Patch SM is a complete Eurorack module DSP engine.
  49:../../libDaisy//src/daisy_patch_sm.h ****      *  Based on the Daisy Seed, with circuits added for 
  50:../../libDaisy//src/daisy_patch_sm.h ****      *  interfacing directly with eurorack modular synthesizers.
  51:../../libDaisy//src/daisy_patch_sm.h ****      */
  52:../../libDaisy//src/daisy_patch_sm.h ****     class DaisyPatchSM
  53:../../libDaisy//src/daisy_patch_sm.h ****     {
  54:../../libDaisy//src/daisy_patch_sm.h ****       public:
  55:../../libDaisy//src/daisy_patch_sm.h ****         /** Helper for mapping pins, and accessing them using the `GetPin` function */
  56:../../libDaisy//src/daisy_patch_sm.h ****         enum class PinBank
ARM GAS  /var/folders/hl/qgbwny5j0fd895c2c41bk3tw0000gp/T//ccSxPsAD.s 			page 5


  57:../../libDaisy//src/daisy_patch_sm.h ****         {
  58:../../libDaisy//src/daisy_patch_sm.h ****             A,
  59:../../libDaisy//src/daisy_patch_sm.h ****             B,
  60:../../libDaisy//src/daisy_patch_sm.h ****             C,
  61:../../libDaisy//src/daisy_patch_sm.h ****             D
  62:../../libDaisy//src/daisy_patch_sm.h ****         };
  63:../../libDaisy//src/daisy_patch_sm.h **** 
  64:../../libDaisy//src/daisy_patch_sm.h ****         DaisyPatchSM() {}
  65:../../libDaisy//src/daisy_patch_sm.h ****         ~DaisyPatchSM() {}
  86              		.loc 4 65 9 is_stmt 1 view -0
  87              		.cfi_startproc
  88              		@ args = 0, pretend = 0, frame = 0
  89              		@ frame_needed = 0, uses_anonymous_args = 0
  90              		@ link register save eliminated.
  91              	.LBB330:
  92              	.LBI330:
  93              		.file 5 "../../libDaisy//src/hid/gatein.h"
   1:../../libDaisy//src/hid/gatein.h **** #pragma once
   2:../../libDaisy//src/hid/gatein.h **** #ifndef DSY_GATEIN_H
   3:../../libDaisy//src/hid/gatein.h **** #define DSY_GATEIN_H
   4:../../libDaisy//src/hid/gatein.h **** #include "per/gpio.h"
   5:../../libDaisy//src/hid/gatein.h **** 
   6:../../libDaisy//src/hid/gatein.h **** namespace daisy
   7:../../libDaisy//src/hid/gatein.h **** {
   8:../../libDaisy//src/hid/gatein.h **** /**
   9:../../libDaisy//src/hid/gatein.h ****    @brief Generic Class for handling gate inputs through GPIO.
  10:../../libDaisy//src/hid/gatein.h ****    @author Stephen Hensley
  11:../../libDaisy//src/hid/gatein.h ****    @date    March 2020
  12:../../libDaisy//src/hid/gatein.h ****    @ingroup controls
  13:../../libDaisy//src/hid/gatein.h **** */
  14:../../libDaisy//src/hid/gatein.h **** class GateIn
  15:../../libDaisy//src/hid/gatein.h **** {
  16:../../libDaisy//src/hid/gatein.h ****   public:
  17:../../libDaisy//src/hid/gatein.h ****     /** GateIn 
  18:../../libDaisy//src/hid/gatein.h ****     Constructor 
  19:../../libDaisy//src/hid/gatein.h ****     */
  20:../../libDaisy//src/hid/gatein.h ****     GateIn() {}
  21:../../libDaisy//src/hid/gatein.h ****     /** GateIn~
  22:../../libDaisy//src/hid/gatein.h ****     Destructor 
  23:../../libDaisy//src/hid/gatein.h ****     */
  24:../../libDaisy//src/hid/gatein.h ****     ~GateIn() {}
  94              		.loc 5 24 5 view .LVU7
  95              		.loc 5 24 5 is_stmt 0 view .LVU8
  96              	.LBE330:
  97              	.LBB331:
  98              	.LBI331:
  99              		.loc 5 24 5 is_stmt 1 view .LVU9
 100              		.loc 5 24 5 is_stmt 0 view .LVU10
 101              	.LBE331:
 102              	.LBB332:
 103              	.LBI332:
 104              		.file 6 "../../libDaisy//src/dev/codec_pcm3060.h"
   1:../../libDaisy//src/dev/codec_pcm3060.h **** #pragma once
   2:../../libDaisy//src/dev/codec_pcm3060.h **** #ifndef DSY_CODEC_PCM3060_H
   3:../../libDaisy//src/dev/codec_pcm3060.h **** #define DSY_CODEC_PCM3060_H
   4:../../libDaisy//src/dev/codec_pcm3060.h **** #include "per/i2c.h"
   5:../../libDaisy//src/dev/codec_pcm3060.h **** namespace daisy
ARM GAS  /var/folders/hl/qgbwny5j0fd895c2c41bk3tw0000gp/T//ccSxPsAD.s 			page 6


   6:../../libDaisy//src/dev/codec_pcm3060.h **** {
   7:../../libDaisy//src/dev/codec_pcm3060.h **** /**
   8:../../libDaisy//src/dev/codec_pcm3060.h ****  * @brief Driver for the TI PCM3060 Audio Codec.
   9:../../libDaisy//src/dev/codec_pcm3060.h ****  * @addtogroup codec
  10:../../libDaisy//src/dev/codec_pcm3060.h ****  * 
  11:../../libDaisy//src/dev/codec_pcm3060.h ****  * For now this is a limited interface that uses I2C to communicate with the PCM3060
  12:../../libDaisy//src/dev/codec_pcm3060.h ****  * The device can also be accessed with SPI, which is not yet supported.
  13:../../libDaisy//src/dev/codec_pcm3060.h ****  * 
  14:../../libDaisy//src/dev/codec_pcm3060.h ****  * For now all registers are set to their defaults, and the Init function will 
  15:../../libDaisy//src/dev/codec_pcm3060.h ****  * perform a MRST and SRST before setting the format to 24bit LJ, and disabling 
  16:../../libDaisy//src/dev/codec_pcm3060.h ****  * power save for both the ADC and DAC.
  17:../../libDaisy//src/dev/codec_pcm3060.h ****  *
  18:../../libDaisy//src/dev/codec_pcm3060.h ****  */
  19:../../libDaisy//src/dev/codec_pcm3060.h **** class Pcm3060
  20:../../libDaisy//src/dev/codec_pcm3060.h **** {
  21:../../libDaisy//src/dev/codec_pcm3060.h ****   public:
  22:../../libDaisy//src/dev/codec_pcm3060.h ****     enum class Result
  23:../../libDaisy//src/dev/codec_pcm3060.h ****     {
  24:../../libDaisy//src/dev/codec_pcm3060.h ****         OK,
  25:../../libDaisy//src/dev/codec_pcm3060.h ****         ERR,
  26:../../libDaisy//src/dev/codec_pcm3060.h ****     };
  27:../../libDaisy//src/dev/codec_pcm3060.h **** 
  28:../../libDaisy//src/dev/codec_pcm3060.h ****     Pcm3060() {}
  29:../../libDaisy//src/dev/codec_pcm3060.h ****     ~Pcm3060() {}
 105              		.loc 6 29 5 is_stmt 1 view .LVU11
 106              		.loc 6 29 5 is_stmt 0 view .LVU12
 107              	.LBE332:
 108              	.LBB333:
 109              	.LBI333:
 110              		.file 7 "../../libDaisy//src/hid/usb.h"
   1:../../libDaisy//src/hid/usb.h **** #pragma once
   2:../../libDaisy//src/hid/usb.h **** #ifndef DSY_HID_USB_H
   3:../../libDaisy//src/hid/usb.h **** #define DSY_HID_USB_H
   4:../../libDaisy//src/hid/usb.h **** #include <stdint.h>
   5:../../libDaisy//src/hid/usb.h **** #include <stdlib.h>
   6:../../libDaisy//src/hid/usb.h **** 
   7:../../libDaisy//src/hid/usb.h **** namespace daisy
   8:../../libDaisy//src/hid/usb.h **** /** @addtogroup human_interface
   9:../../libDaisy//src/hid/usb.h ****     @{
  10:../../libDaisy//src/hid/usb.h **** */
  11:../../libDaisy//src/hid/usb.h **** 
  12:../../libDaisy//src/hid/usb.h **** {
  13:../../libDaisy//src/hid/usb.h **** /** 
  14:../../libDaisy//src/hid/usb.h ****     @brief Interface for initializing and using the USB Peripherals on the daisy
  15:../../libDaisy//src/hid/usb.h ****     @author Stephen Hensley
  16:../../libDaisy//src/hid/usb.h ****     @date December 2019
  17:../../libDaisy//src/hid/usb.h **** */
  18:../../libDaisy//src/hid/usb.h **** class UsbHandle
  19:../../libDaisy//src/hid/usb.h **** {
  20:../../libDaisy//src/hid/usb.h ****   public:
  21:../../libDaisy//src/hid/usb.h ****     /** Return values for USBHandle Functions */
  22:../../libDaisy//src/hid/usb.h ****     enum class Result
  23:../../libDaisy//src/hid/usb.h ****     {
  24:../../libDaisy//src/hid/usb.h ****         OK,
  25:../../libDaisy//src/hid/usb.h ****         ERR,
  26:../../libDaisy//src/hid/usb.h ****     };
  27:../../libDaisy//src/hid/usb.h **** 
ARM GAS  /var/folders/hl/qgbwny5j0fd895c2c41bk3tw0000gp/T//ccSxPsAD.s 			page 7


  28:../../libDaisy//src/hid/usb.h ****     /** Specified which of the two USB Peripherals to initialize. */
  29:../../libDaisy//src/hid/usb.h ****     enum UsbPeriph
  30:../../libDaisy//src/hid/usb.h ****     {
  31:../../libDaisy//src/hid/usb.h ****         FS_INTERNAL, /**< Internal pin */
  32:../../libDaisy//src/hid/usb.h ****         FS_EXTERNAL, /**< FS External D+ pin is Pin 38 (GPIO32). FS External D- pin is Pin 37 (GPIO
  33:../../libDaisy//src/hid/usb.h ****         FS_BOTH,     /**< Both */
  34:../../libDaisy//src/hid/usb.h ****     };
  35:../../libDaisy//src/hid/usb.h **** 
  36:../../libDaisy//src/hid/usb.h **** 
  37:../../libDaisy//src/hid/usb.h ****     /** Function called upon reception of a buffer */
  38:../../libDaisy//src/hid/usb.h ****     typedef void (*ReceiveCallback)(uint8_t* buff, uint32_t* len);
  39:../../libDaisy//src/hid/usb.h **** 
  40:../../libDaisy//src/hid/usb.h ****     UsbHandle() {}
  41:../../libDaisy//src/hid/usb.h **** 
  42:../../libDaisy//src/hid/usb.h ****     ~UsbHandle() {}
 111              		.loc 7 42 5 is_stmt 1 view .LVU13
 112              		.loc 7 42 5 is_stmt 0 view .LVU14
 113              	.LBE333:
 114              	.LBB334:
 115              	.LBI334:
 116              		.file 8 "../../libDaisy//src/per/adc.h"
   1:../../libDaisy//src/per/adc.h **** #pragma once
   2:../../libDaisy//src/per/adc.h **** #ifndef DSY_ADC_H
   3:../../libDaisy//src/per/adc.h **** #define DSY_ADC_H /**< Macro */
   4:../../libDaisy//src/per/adc.h **** #include <stdint.h>
   5:../../libDaisy//src/per/adc.h **** #include <stdlib.h>
   6:../../libDaisy//src/per/adc.h **** #include "daisy_core.h"
   7:../../libDaisy//src/per/adc.h **** #include "per/gpio.h"
   8:../../libDaisy//src/per/adc.h **** 
   9:../../libDaisy//src/per/adc.h **** #define DSY_ADC_MAX_CHANNELS 16 /**< Maximum number of ADC channels */
  10:../../libDaisy//src/per/adc.h **** 
  11:../../libDaisy//src/per/adc.h **** namespace daisy
  12:../../libDaisy//src/per/adc.h **** {
  13:../../libDaisy//src/per/adc.h **** /** @addtogroup per_analog
  14:../../libDaisy//src/per/adc.h ****     @{
  15:../../libDaisy//src/per/adc.h **** */
  16:../../libDaisy//src/per/adc.h **** 
  17:../../libDaisy//src/per/adc.h **** /* While there may not be many configuration options here,
  18:../../libDaisy//src/per/adc.h **** using a struct like this allows us to add more configuration
  19:../../libDaisy//src/per/adc.h **** later without breaking existing functionality.
  20:../../libDaisy//src/per/adc.h **** */
  21:../../libDaisy//src/per/adc.h **** 
  22:../../libDaisy//src/per/adc.h **** /** @brief   Configuration Structure for an ADC Channel 
  23:../../libDaisy//src/per/adc.h ****  *  @details This can be used to configure a a single input, 
  24:../../libDaisy//src/per/adc.h ****  *           or a multiplexed input, allowing up to 8 inputs on 
  25:../../libDaisy//src/per/adc.h ****  *           one channel.
  26:../../libDaisy//src/per/adc.h ****  *  @note    Sharing data lines to multiple muxes _is_ possible, but
  27:../../libDaisy//src/per/adc.h ****  *           each channel sharing data lines must be set to the maximum
  28:../../libDaisy//src/per/adc.h ****  *           number of channels, even if some multiplexers have fewer
  29:../../libDaisy//src/per/adc.h ****  *           inputs connected.
  30:../../libDaisy//src/per/adc.h **** */
  31:../../libDaisy//src/per/adc.h **** struct AdcChannelConfig
  32:../../libDaisy//src/per/adc.h **** {
  33:../../libDaisy//src/per/adc.h ****     /** Which pin to use for multiplexing */
  34:../../libDaisy//src/per/adc.h ****     enum MuxPin
  35:../../libDaisy//src/per/adc.h ****     {
  36:../../libDaisy//src/per/adc.h ****         MUX_SEL_0,    /**< & */
ARM GAS  /var/folders/hl/qgbwny5j0fd895c2c41bk3tw0000gp/T//ccSxPsAD.s 			page 8


  37:../../libDaisy//src/per/adc.h ****         MUX_SEL_1,    /**< & */
  38:../../libDaisy//src/per/adc.h ****         MUX_SEL_2,    /**< & */
  39:../../libDaisy//src/per/adc.h ****         MUX_SEL_LAST, /**< & */
  40:../../libDaisy//src/per/adc.h ****     };
  41:../../libDaisy//src/per/adc.h **** 
  42:../../libDaisy//src/per/adc.h ****     /** Initializes a single ADC pin as an ADC. 
  43:../../libDaisy//src/per/adc.h ****     \param pin Pin to init.
  44:../../libDaisy//src/per/adc.h ****      */
  45:../../libDaisy//src/per/adc.h ****     void InitSingle(dsy_gpio_pin pin);
  46:../../libDaisy//src/per/adc.h **** 
  47:../../libDaisy//src/per/adc.h ****     /** 
  48:../../libDaisy//src/per/adc.h ****     Initializes a single ADC pin as a Multiplexed ADC.
  49:../../libDaisy//src/per/adc.h ****     Requires a CD405X Multiplexer connected to the pin.
  50:../../libDaisy//src/per/adc.h ****     You only need to supply the mux pins that are required,
  51:../../libDaisy//src/per/adc.h ****     e.g. a 4052 mux would only require mux_0 and mux_1.
  52:../../libDaisy//src/per/adc.h ****     Internal Callbacks handle the pin addressing.
  53:../../libDaisy//src/per/adc.h ****     \param mux_channels must be 1-8
  54:../../libDaisy//src/per/adc.h ****     \param mux_0 First mux pin
  55:../../libDaisy//src/per/adc.h ****     \param mux_1 Second mux pin
  56:../../libDaisy//src/per/adc.h ****     \param mux_2 Third mux pin
  57:../../libDaisy//src/per/adc.h ****     \param adc_pin &
  58:../../libDaisy//src/per/adc.h ****     */
  59:../../libDaisy//src/per/adc.h ****     void InitMux(dsy_gpio_pin adc_pin,
  60:../../libDaisy//src/per/adc.h ****                  size_t       mux_channels,
  61:../../libDaisy//src/per/adc.h ****                  dsy_gpio_pin mux_0,
  62:../../libDaisy//src/per/adc.h ****                  dsy_gpio_pin mux_1 = {DSY_GPIOX, 0},
  63:../../libDaisy//src/per/adc.h ****                  dsy_gpio_pin mux_2 = {DSY_GPIOX, 0});
  64:../../libDaisy//src/per/adc.h **** 
  65:../../libDaisy//src/per/adc.h ****     dsy_gpio pin_;                   /**< & */
  66:../../libDaisy//src/per/adc.h ****     dsy_gpio mux_pin_[MUX_SEL_LAST]; /**< & */
  67:../../libDaisy//src/per/adc.h ****     uint8_t  mux_channels_;          /**< & */
  68:../../libDaisy//src/per/adc.h **** };
  69:../../libDaisy//src/per/adc.h **** 
  70:../../libDaisy//src/per/adc.h **** /**
  71:../../libDaisy//src/per/adc.h ****    @brief Handler for analog to digital conversion
  72:../../libDaisy//src/per/adc.h **** */
  73:../../libDaisy//src/per/adc.h **** class AdcHandle
  74:../../libDaisy//src/per/adc.h **** {
  75:../../libDaisy//src/per/adc.h ****   public:
  76:../../libDaisy//src/per/adc.h ****     /** Supported oversampling amounts */
  77:../../libDaisy//src/per/adc.h ****     enum OverSampling
  78:../../libDaisy//src/per/adc.h ****     {
  79:../../libDaisy//src/per/adc.h ****         OVS_NONE, /**< & */
  80:../../libDaisy//src/per/adc.h ****         OVS_4,    /**< & */
  81:../../libDaisy//src/per/adc.h ****         OVS_8,    /**< & */
  82:../../libDaisy//src/per/adc.h ****         OVS_16,   /**< & */
  83:../../libDaisy//src/per/adc.h ****         OVS_32,   /**< & */
  84:../../libDaisy//src/per/adc.h ****         OVS_64,   /**< & */
  85:../../libDaisy//src/per/adc.h ****         OVS_128,  /**< & */
  86:../../libDaisy//src/per/adc.h ****         OVS_256,  /**< & */
  87:../../libDaisy//src/per/adc.h ****         OVS_512,  /**< & */
  88:../../libDaisy//src/per/adc.h ****         OVS_1024, /**< & */
  89:../../libDaisy//src/per/adc.h ****         OVS_LAST, /**< & */
  90:../../libDaisy//src/per/adc.h ****     };
  91:../../libDaisy//src/per/adc.h **** 
  92:../../libDaisy//src/per/adc.h ****     AdcHandle() {}
  93:../../libDaisy//src/per/adc.h ****     ~AdcHandle() {}
ARM GAS  /var/folders/hl/qgbwny5j0fd895c2c41bk3tw0000gp/T//ccSxPsAD.s 			page 9


 117              		.loc 8 93 5 is_stmt 1 view .LVU15
 118              		.loc 8 93 5 is_stmt 0 view .LVU16
 119              	.LBE334:
 120              	.LBB335:
 121              	.LBI335:
 122              		.file 9 "../../libDaisy//src/hid/audio.h"
   1:../../libDaisy//src/hid/audio.h **** #ifndef DSY_AUDIO_H
   2:../../libDaisy//src/hid/audio.h **** #define DSY_AUDIO_H /**< & */
   3:../../libDaisy//src/hid/audio.h **** 
   4:../../libDaisy//src/hid/audio.h **** #include "per/sai.h"
   5:../../libDaisy//src/hid/audio.h **** 
   6:../../libDaisy//src/hid/audio.h **** namespace daisy
   7:../../libDaisy//src/hid/audio.h **** {
   8:../../libDaisy//src/hid/audio.h **** /** @brief Audio Engine Handle
   9:../../libDaisy//src/hid/audio.h ****  *  @ingroup audio 
  10:../../libDaisy//src/hid/audio.h ****  *  @details This class allows for higher level access to an audio engine.
  11:../../libDaisy//src/hid/audio.h ****  *           If you're using a SOM like the DaisySeed or DaisyPatchSM (or any 
  12:../../libDaisy//src/hid/audio.h ****  *            board that includes one of those objects) then the intialization
  13:../../libDaisy//src/hid/audio.h ****  *            is already taken  care of.
  14:../../libDaisy//src/hid/audio.h ****  *           If you're setting up your own custom hardware, or need to make changes
  15:../../libDaisy//src/hid/audio.h ****  *           you will have to take the following steps:
  16:../../libDaisy//src/hid/audio.h ****  *             1. Create and Initialize an SaiHandle or two depending on your requirements
  17:../../libDaisy//src/hid/audio.h ****  *             2. Initialize the Audio Handle with the desired settings and the Initialized SaiHand
  18:../../libDaisy//src/hid/audio.h ****  *             3. If the connected codec requires special configuration or initialization, do so
  19:../../libDaisy//src/hid/audio.h ****  *             4. Write a callback method using either the AudioCallback or the InterleavingAudioCa
  20:../../libDaisy//src/hid/audio.h ****  *             5. Start the Audio using one of the StartAudio function
  21:../../libDaisy//src/hid/audio.h ****  */
  22:../../libDaisy//src/hid/audio.h **** class AudioHandle
  23:../../libDaisy//src/hid/audio.h **** {
  24:../../libDaisy//src/hid/audio.h ****   public:
  25:../../libDaisy//src/hid/audio.h ****     /** Manually configurable details about the Audio Engine */
  26:../../libDaisy//src/hid/audio.h ****     /** TODO: Figure out how to get samplerate in here. */
  27:../../libDaisy//src/hid/audio.h ****     struct Config
  28:../../libDaisy//src/hid/audio.h ****     {
  29:../../libDaisy//src/hid/audio.h ****         /** number of samples to process per callback */
  30:../../libDaisy//src/hid/audio.h ****         size_t blocksize;
  31:../../libDaisy//src/hid/audio.h **** 
  32:../../libDaisy//src/hid/audio.h ****         /**< Sample rate of audio */
  33:../../libDaisy//src/hid/audio.h ****         SaiHandle::Config::SampleRate samplerate;
  34:../../libDaisy//src/hid/audio.h **** 
  35:../../libDaisy//src/hid/audio.h ****         /** factor for adjustment before and after callback for hardware that may have extra headro
  36:../../libDaisy//src/hid/audio.h ****         float postgain;
  37:../../libDaisy//src/hid/audio.h **** 
  38:../../libDaisy//src/hid/audio.h ****         /** factor for additional one-sided compensation to audio path for hardware that may
  39:../../libDaisy//src/hid/audio.h ****          *  have unequal input/output ranges
  40:../../libDaisy//src/hid/audio.h ****          */
  41:../../libDaisy//src/hid/audio.h ****         float output_compensation;
  42:../../libDaisy//src/hid/audio.h **** 
  43:../../libDaisy//src/hid/audio.h ****         /** Sets default values for config struct */
  44:../../libDaisy//src/hid/audio.h ****         Config()
  45:../../libDaisy//src/hid/audio.h ****         : blocksize(48),
  46:../../libDaisy//src/hid/audio.h ****           samplerate(SaiHandle::Config::SampleRate::SAI_48KHZ),
  47:../../libDaisy//src/hid/audio.h ****           postgain(1.f),
  48:../../libDaisy//src/hid/audio.h ****           output_compensation(1.f)
  49:../../libDaisy//src/hid/audio.h ****         {
  50:../../libDaisy//src/hid/audio.h ****         }
  51:../../libDaisy//src/hid/audio.h ****     };
ARM GAS  /var/folders/hl/qgbwny5j0fd895c2c41bk3tw0000gp/T//ccSxPsAD.s 			page 10


  52:../../libDaisy//src/hid/audio.h **** 
  53:../../libDaisy//src/hid/audio.h ****     enum class Result
  54:../../libDaisy//src/hid/audio.h ****     {
  55:../../libDaisy//src/hid/audio.h ****         OK,
  56:../../libDaisy//src/hid/audio.h ****         ERR,
  57:../../libDaisy//src/hid/audio.h ****     };
  58:../../libDaisy//src/hid/audio.h **** 
  59:../../libDaisy//src/hid/audio.h ****     /** Non-Interleaving input buffer
  60:../../libDaisy//src/hid/audio.h ****      * Buffer arranged by float[chn][sample] 
  61:../../libDaisy//src/hid/audio.h ****      * const so that the user can't modify the input
  62:../../libDaisy//src/hid/audio.h ****      */
  63:../../libDaisy//src/hid/audio.h ****     typedef const float* const* InputBuffer;
  64:../../libDaisy//src/hid/audio.h **** 
  65:../../libDaisy//src/hid/audio.h ****     /** Non-Interleaving output buffer
  66:../../libDaisy//src/hid/audio.h ****      * Arranged by float[chn][sample] 
  67:../../libDaisy//src/hid/audio.h ****      */
  68:../../libDaisy//src/hid/audio.h ****     typedef float** OutputBuffer;
  69:../../libDaisy//src/hid/audio.h **** 
  70:../../libDaisy//src/hid/audio.h ****     /** Type for a Non-Interleaving audio callback 
  71:../../libDaisy//src/hid/audio.h ****      * Non-Interleaving audio callbacks in daisy will be of this type
  72:../../libDaisy//src/hid/audio.h ****      */
  73:../../libDaisy//src/hid/audio.h ****     typedef void (*AudioCallback)(InputBuffer  in,
  74:../../libDaisy//src/hid/audio.h ****                                   OutputBuffer out,
  75:../../libDaisy//src/hid/audio.h ****                                   size_t       size);
  76:../../libDaisy//src/hid/audio.h **** 
  77:../../libDaisy//src/hid/audio.h ****     /** Interleaving Input buffer
  78:../../libDaisy//src/hid/audio.h ****      ** audio is prepared as { L0, R0, L1, R1, . . . LN, RN }]
  79:../../libDaisy//src/hid/audio.h ****      ** this is const, as the user shouldn't modify it
  80:../../libDaisy//src/hid/audio.h ****     */
  81:../../libDaisy//src/hid/audio.h ****     typedef const float* InterleavingInputBuffer;
  82:../../libDaisy//src/hid/audio.h **** 
  83:../../libDaisy//src/hid/audio.h ****     /** Interleaving Output buffer 
  84:../../libDaisy//src/hid/audio.h ****      ** audio is prepared as { L0, R0, L1, R1, . . . LN, RN }
  85:../../libDaisy//src/hid/audio.h ****     */
  86:../../libDaisy//src/hid/audio.h ****     typedef float* InterleavingOutputBuffer;
  87:../../libDaisy//src/hid/audio.h **** 
  88:../../libDaisy//src/hid/audio.h ****     /** Interleaving Audio Callback 
  89:../../libDaisy//src/hid/audio.h ****      * Interleaving audio callbacks in daisy must be of this type
  90:../../libDaisy//src/hid/audio.h ****      */
  91:../../libDaisy//src/hid/audio.h ****     typedef void (*InterleavingAudioCallback)(InterleavingInputBuffer  in,
  92:../../libDaisy//src/hid/audio.h ****                                               InterleavingOutputBuffer out,
  93:../../libDaisy//src/hid/audio.h ****                                               size_t                   size);
  94:../../libDaisy//src/hid/audio.h **** 
  95:../../libDaisy//src/hid/audio.h ****     AudioHandle() : pimpl_(nullptr) {}
  96:../../libDaisy//src/hid/audio.h ****     ~AudioHandle() {}
 123              		.loc 9 96 5 is_stmt 1 view .LVU17
 124              		.loc 9 96 5 is_stmt 0 view .LVU18
 125              	.LBE335:
 126              	.LBB336:
 127              	.LBI336:
 128              		.file 10 "../../libDaisy//src/sys/system.h"
   1:../../libDaisy//src/sys/system.h **** #ifndef DSY_SYSTEM_H
   2:../../libDaisy//src/sys/system.h **** #define DSY_SYSTEM_H
   3:../../libDaisy//src/sys/system.h **** 
   4:../../libDaisy//src/sys/system.h **** #ifndef UNIT_TEST // for unit tests, a dummy implementation is provided below
   5:../../libDaisy//src/sys/system.h **** 
   6:../../libDaisy//src/sys/system.h **** #include <cstdint>
ARM GAS  /var/folders/hl/qgbwny5j0fd895c2c41bk3tw0000gp/T//ccSxPsAD.s 			page 11


   7:../../libDaisy//src/sys/system.h **** #include "per/tim.h"
   8:../../libDaisy//src/sys/system.h **** 
   9:../../libDaisy//src/sys/system.h **** namespace daisy
  10:../../libDaisy//src/sys/system.h **** {
  11:../../libDaisy//src/sys/system.h **** /** A handle for interacting with the Core System. 
  12:../../libDaisy//src/sys/system.h ****  ** This includes the Clock tree, MPU, global DMA initialization,
  13:../../libDaisy//src/sys/system.h ****  ** cache handling, and any other necessary global initiailzation
  14:../../libDaisy//src/sys/system.h ****  **
  15:../../libDaisy//src/sys/system.h ****  ** @author shensley
  16:../../libDaisy//src/sys/system.h ****  ** @ingroup system
  17:../../libDaisy//src/sys/system.h ****  */
  18:../../libDaisy//src/sys/system.h **** class System
  19:../../libDaisy//src/sys/system.h **** {
  20:../../libDaisy//src/sys/system.h ****   public:
  21:../../libDaisy//src/sys/system.h ****     /** Contains settings for initializing the System */
  22:../../libDaisy//src/sys/system.h ****     struct Config
  23:../../libDaisy//src/sys/system.h ****     {
  24:../../libDaisy//src/sys/system.h ****         /** Specifies the system clock frequency that feeds APB/AHB clocks, etc. */
  25:../../libDaisy//src/sys/system.h ****         enum class SysClkFreq
  26:../../libDaisy//src/sys/system.h ****         {
  27:../../libDaisy//src/sys/system.h ****             FREQ_400MHZ,
  28:../../libDaisy//src/sys/system.h ****             FREQ_480MHZ,
  29:../../libDaisy//src/sys/system.h ****         };
  30:../../libDaisy//src/sys/system.h **** 
  31:../../libDaisy//src/sys/system.h ****         /** Method to call on the struct to set to defaults
  32:../../libDaisy//src/sys/system.h ****          ** CPU Freq set to 400MHz
  33:../../libDaisy//src/sys/system.h ****          ** Cache Enabled 
  34:../../libDaisy//src/sys/system.h ****          ** */
  35:../../libDaisy//src/sys/system.h ****         void Defaults()
  36:../../libDaisy//src/sys/system.h ****         {
  37:../../libDaisy//src/sys/system.h ****             cpu_freq    = SysClkFreq::FREQ_400MHZ;
  38:../../libDaisy//src/sys/system.h ****             use_dcache  = true;
  39:../../libDaisy//src/sys/system.h ****             use_icache  = true;
  40:../../libDaisy//src/sys/system.h ****             skip_clocks = false;
  41:../../libDaisy//src/sys/system.h ****         }
  42:../../libDaisy//src/sys/system.h **** 
  43:../../libDaisy//src/sys/system.h ****         /** Method to call on the struct to set to boost mode:
  44:../../libDaisy//src/sys/system.h ****          ** CPU Freq set to 480MHz
  45:../../libDaisy//src/sys/system.h ****          ** Cache Enabled 
  46:../../libDaisy//src/sys/system.h ****          ** */
  47:../../libDaisy//src/sys/system.h ****         void Boost()
  48:../../libDaisy//src/sys/system.h ****         {
  49:../../libDaisy//src/sys/system.h ****             cpu_freq    = SysClkFreq::FREQ_480MHZ;
  50:../../libDaisy//src/sys/system.h ****             use_dcache  = true;
  51:../../libDaisy//src/sys/system.h ****             use_icache  = true;
  52:../../libDaisy//src/sys/system.h ****             skip_clocks = false;
  53:../../libDaisy//src/sys/system.h ****         }
  54:../../libDaisy//src/sys/system.h **** 
  55:../../libDaisy//src/sys/system.h ****         SysClkFreq cpu_freq;
  56:../../libDaisy//src/sys/system.h ****         bool       use_dcache;
  57:../../libDaisy//src/sys/system.h ****         bool       use_icache;
  58:../../libDaisy//src/sys/system.h ****         bool       skip_clocks;
  59:../../libDaisy//src/sys/system.h ****     };
  60:../../libDaisy//src/sys/system.h **** 
  61:../../libDaisy//src/sys/system.h ****     /** Describes the different regions of memory available to the Daisy
  62:../../libDaisy//src/sys/system.h ****      * 
  63:../../libDaisy//src/sys/system.h ****      */
ARM GAS  /var/folders/hl/qgbwny5j0fd895c2c41bk3tw0000gp/T//ccSxPsAD.s 			page 12


  64:../../libDaisy//src/sys/system.h ****     enum MemoryRegion
  65:../../libDaisy//src/sys/system.h ****     {
  66:../../libDaisy//src/sys/system.h ****         INTERNAL_FLASH = 0,
  67:../../libDaisy//src/sys/system.h ****         ITCMRAM,
  68:../../libDaisy//src/sys/system.h ****         DTCMRAM,
  69:../../libDaisy//src/sys/system.h ****         SRAM_D1,
  70:../../libDaisy//src/sys/system.h ****         SRAM_D2,
  71:../../libDaisy//src/sys/system.h ****         SRAM_D3,
  72:../../libDaisy//src/sys/system.h ****         SDRAM,
  73:../../libDaisy//src/sys/system.h ****         QSPI,
  74:../../libDaisy//src/sys/system.h ****         INVALID_ADDRESS,
  75:../../libDaisy//src/sys/system.h ****     };
  76:../../libDaisy//src/sys/system.h **** 
  77:../../libDaisy//src/sys/system.h ****     System() {}
  78:../../libDaisy//src/sys/system.h ****     ~System() {}
 129              		.loc 10 78 5 is_stmt 1 view .LVU19
 130              		.loc 10 78 5 is_stmt 0 view .LVU20
 131              	.LBE336:
 132              		.loc 4 65 26 view .LVU21
 133 0000 7047     		bx	lr
 134              		.cfi_endproc
 135              	.LFE2529:
 137              		.weak	_ZN5daisy8patch_sm12DaisyPatchSMD1Ev
 138              		.thumb_set _ZN5daisy8patch_sm12DaisyPatchSMD1Ev,_ZN5daisy8patch_sm12DaisyPatchSMD2Ev
 139 0002 00BF     		.section	.text._ZN5daisy8patch_sm7InitBedEv,"ax",%progbits
 140              		.align	1
 141              		.p2align 2,,3
 142              		.global	_ZN5daisy8patch_sm7InitBedEv
 143              		.syntax unified
 144              		.thumb
 145              		.thumb_func
 146              		.fpu fpv5-d16
 148              	_ZN5daisy8patch_sm7InitBedEv:
 149              	.LFB4793:
 150              		.file 11 "daisy_bed.h"
   1:daisy_bed.h   **** #pragma once
   2:daisy_bed.h   **** 
   3:daisy_bed.h   **** #include "daisy.h"
   4:daisy_bed.h   **** #include "per/gpio.h"
   5:daisy_bed.h   **** #include "daisy_patch_sm.h"
   6:daisy_bed.h   **** 
   7:daisy_bed.h   **** namespace daisy
   8:daisy_bed.h   **** {
   9:daisy_bed.h   **** namespace patch_sm
  10:daisy_bed.h   **** {
  11:daisy_bed.h   ****     // simple stupid led set up
  12:daisy_bed.h   ****     GPIO    gen_led1;
  13:daisy_bed.h   ****     GPIO    gen_led2;
  14:daisy_bed.h   ****     GPIO    cv_led1;
  15:daisy_bed.h   ****     GPIO    cv_led2;
  16:daisy_bed.h   ****     GPIO    gate_in_led1;
  17:daisy_bed.h   ****     GPIO    gate_in_led2;
  18:daisy_bed.h   ****     GPIO    gate_out_led1;
  19:daisy_bed.h   ****     GPIO    gate_out_led2;
  20:daisy_bed.h   **** 
  21:daisy_bed.h   **** 
  22:daisy_bed.h   ****     // generic leds
ARM GAS  /var/folders/hl/qgbwny5j0fd895c2c41bk3tw0000gp/T//ccSxPsAD.s 			page 13


  23:daisy_bed.h   ****     dsy_gpio_pin oldPinD7 = DaisyPatchSM::D7;
  24:daisy_bed.h   ****     Pin newPinD7 = Pin(static_cast<GPIOPort>(oldPinD7.port), oldPinD7.pin);
  25:daisy_bed.h   ****     dsy_gpio_pin oldPinA9 = DaisyPatchSM::A9;
  26:daisy_bed.h   ****     Pin newPinA9 = Pin(static_cast<GPIOPort>(oldPinA9.port), oldPinA9.pin);
  27:daisy_bed.h   **** 
  28:daisy_bed.h   ****     // cv leds
  29:daisy_bed.h   ****     dsy_gpio_pin oldPinD2 = DaisyPatchSM::D2;
  30:daisy_bed.h   ****     Pin newPinD2 = Pin(static_cast<GPIOPort>(oldPinD2.port), oldPinD2.pin);
  31:daisy_bed.h   ****     dsy_gpio_pin oldPinD1 = DaisyPatchSM::D1;
  32:daisy_bed.h   ****     Pin newPinD1 = Pin(static_cast<GPIOPort>(oldPinD1.port), oldPinD1.pin);
  33:daisy_bed.h   ****     // ^^^ {DSY_GPIOB, 4},  /**< D1  - SPI2 CS */
  34:daisy_bed.h   **** 
  35:daisy_bed.h   ****     // gate leds
  36:daisy_bed.h   ****     dsy_gpio_pin oldPinD3 = DaisyPatchSM::D3;
  37:daisy_bed.h   ****     Pin newPinD3 = Pin(static_cast<GPIOPort>(oldPinD3.port), oldPinD3.pin);
  38:daisy_bed.h   ****     dsy_gpio_pin oldPinD6 = DaisyPatchSM::D6;
  39:daisy_bed.h   ****     Pin newPinD6 = Pin(static_cast<GPIOPort>(oldPinD6.port), oldPinD6.pin);
  40:daisy_bed.h   ****     dsy_gpio_pin oldPinD4 = DaisyPatchSM::D4;
  41:daisy_bed.h   ****     Pin newPinD4 = Pin(static_cast<GPIOPort>(oldPinD4.port), oldPinD4.pin);
  42:daisy_bed.h   ****     dsy_gpio_pin oldPinD5 = DaisyPatchSM::D5;
  43:daisy_bed.h   ****     Pin newPinD5 = Pin(static_cast<GPIOPort>(oldPinD5.port), oldPinD5.pin);
  44:daisy_bed.h   **** 
  45:daisy_bed.h   ****     // remap
  46:daisy_bed.h   ****      
  47:daisy_bed.h   ****     // map buttons
  48:daisy_bed.h   ****     Switch      b1,b2;
  49:daisy_bed.h   **** 
  50:daisy_bed.h   ****     void InitBed(){
 151              		.loc 11 50 19 is_stmt 1 view -0
 152              		.cfi_startproc
 153              		@ args = 0, pretend = 0, frame = 8
 154              		@ frame_needed = 0, uses_anonymous_args = 0
  51:daisy_bed.h   ****         // leds
  52:daisy_bed.h   ****         gen_led1.Init(newPinD7, GPIO::Mode::OUTPUT);
 155              		.loc 11 52 9 view .LVU23
  50:daisy_bed.h   ****         // leds
 156              		.loc 11 50 19 is_stmt 0 view .LVU24
 157 0000 10B5     		push	{r4, lr}
 158              		.cfi_def_cfa_offset 8
 159              		.cfi_offset 4, -8
 160              		.cfi_offset 14, -4
 161              		.loc 11 52 22 view .LVU25
 162 0002 2D49     		ldr	r1, .L7
  50:daisy_bed.h   ****         // leds
 163              		.loc 11 50 19 view .LVU26
 164 0004 84B0     		sub	sp, sp, #16
 165              		.cfi_def_cfa_offset 24
 166              		.loc 11 52 22 view .LVU27
 167 0006 0024     		movs	r4, #0
 168 0008 0122     		movs	r2, #1
 169 000a 0968     		ldr	r1, [r1]
 170 000c 2346     		mov	r3, r4
 171 000e 2B48     		ldr	r0, .L7+4
 172 0010 0094     		str	r4, [sp]
 173 0012 FFF7FEFF 		bl	_ZN5daisy4GPIO4InitENS_3PinENS0_4ModeENS0_4PullENS0_5SpeedE
 174              	.LVL3:
  53:daisy_bed.h   ****         gen_led2.Init(newPinA9, GPIO::Mode::OUTPUT);
ARM GAS  /var/folders/hl/qgbwny5j0fd895c2c41bk3tw0000gp/T//ccSxPsAD.s 			page 14


 175              		.loc 11 53 9 is_stmt 1 view .LVU28
 176              		.loc 11 53 22 is_stmt 0 view .LVU29
 177 0016 2A49     		ldr	r1, .L7+8
 178 0018 2346     		mov	r3, r4
 179 001a 0122     		movs	r2, #1
 180 001c 0968     		ldr	r1, [r1]
 181 001e 2948     		ldr	r0, .L7+12
 182 0020 0094     		str	r4, [sp]
 183 0022 FFF7FEFF 		bl	_ZN5daisy4GPIO4InitENS_3PinENS0_4ModeENS0_4PullENS0_5SpeedE
 184              	.LVL4:
  54:daisy_bed.h   ****         cv_led1.Init(newPinD2, GPIO::Mode::OUTPUT);
 185              		.loc 11 54 9 is_stmt 1 view .LVU30
 186              		.loc 11 54 21 is_stmt 0 view .LVU31
 187 0026 2849     		ldr	r1, .L7+16
 188 0028 2346     		mov	r3, r4
 189 002a 0122     		movs	r2, #1
 190 002c 0968     		ldr	r1, [r1]
 191 002e 2748     		ldr	r0, .L7+20
 192 0030 0094     		str	r4, [sp]
 193 0032 FFF7FEFF 		bl	_ZN5daisy4GPIO4InitENS_3PinENS0_4ModeENS0_4PullENS0_5SpeedE
 194              	.LVL5:
  55:daisy_bed.h   ****         cv_led2.Init(newPinD1, GPIO::Mode::OUTPUT);
 195              		.loc 11 55 9 is_stmt 1 view .LVU32
 196              		.loc 11 55 21 is_stmt 0 view .LVU33
 197 0036 2649     		ldr	r1, .L7+24
 198 0038 2346     		mov	r3, r4
 199 003a 0122     		movs	r2, #1
 200 003c 0968     		ldr	r1, [r1]
 201 003e 2548     		ldr	r0, .L7+28
 202 0040 0094     		str	r4, [sp]
 203 0042 FFF7FEFF 		bl	_ZN5daisy4GPIO4InitENS_3PinENS0_4ModeENS0_4PullENS0_5SpeedE
 204              	.LVL6:
  56:daisy_bed.h   ****         gate_in_led1.Init(newPinD3, GPIO::Mode::OUTPUT);
 205              		.loc 11 56 9 is_stmt 1 view .LVU34
 206              		.loc 11 56 26 is_stmt 0 view .LVU35
 207 0046 2449     		ldr	r1, .L7+32
 208 0048 2346     		mov	r3, r4
 209 004a 0122     		movs	r2, #1
 210 004c 0968     		ldr	r1, [r1]
 211 004e 2348     		ldr	r0, .L7+36
 212 0050 0094     		str	r4, [sp]
 213 0052 FFF7FEFF 		bl	_ZN5daisy4GPIO4InitENS_3PinENS0_4ModeENS0_4PullENS0_5SpeedE
 214              	.LVL7:
  57:daisy_bed.h   ****         gate_in_led2.Init(newPinD4, GPIO::Mode::OUTPUT);
 215              		.loc 11 57 9 is_stmt 1 view .LVU36
 216              		.loc 11 57 26 is_stmt 0 view .LVU37
 217 0056 2249     		ldr	r1, .L7+40
 218 0058 2346     		mov	r3, r4
 219 005a 0122     		movs	r2, #1
 220 005c 0968     		ldr	r1, [r1]
 221 005e 2148     		ldr	r0, .L7+44
 222 0060 0094     		str	r4, [sp]
 223 0062 FFF7FEFF 		bl	_ZN5daisy4GPIO4InitENS_3PinENS0_4ModeENS0_4PullENS0_5SpeedE
 224              	.LVL8:
  58:daisy_bed.h   ****         gate_out_led1.Init(newPinD6, GPIO::Mode::OUTPUT);
 225              		.loc 11 58 9 is_stmt 1 view .LVU38
 226              		.loc 11 58 27 is_stmt 0 view .LVU39
ARM GAS  /var/folders/hl/qgbwny5j0fd895c2c41bk3tw0000gp/T//ccSxPsAD.s 			page 15


 227 0066 2049     		ldr	r1, .L7+48
 228 0068 2346     		mov	r3, r4
 229 006a 0122     		movs	r2, #1
 230 006c 0968     		ldr	r1, [r1]
 231 006e 1F48     		ldr	r0, .L7+52
 232 0070 0094     		str	r4, [sp]
 233 0072 FFF7FEFF 		bl	_ZN5daisy4GPIO4InitENS_3PinENS0_4ModeENS0_4PullENS0_5SpeedE
 234              	.LVL9:
  59:daisy_bed.h   ****         gate_out_led2.Init(newPinD5, GPIO::Mode::OUTPUT);
 235              		.loc 11 59 9 is_stmt 1 view .LVU40
 236              		.loc 11 59 27 is_stmt 0 view .LVU41
 237 0076 1E49     		ldr	r1, .L7+56
 238 0078 2346     		mov	r3, r4
 239 007a 0122     		movs	r2, #1
 240 007c 0968     		ldr	r1, [r1]
 241 007e 1D48     		ldr	r0, .L7+60
 242 0080 0094     		str	r4, [sp]
 243 0082 FFF7FEFF 		bl	_ZN5daisy4GPIO4InitENS_3PinENS0_4ModeENS0_4PullENS0_5SpeedE
 244              	.LVL10:
  60:daisy_bed.h   **** 
  61:daisy_bed.h   ****         // buttons
  62:daisy_bed.h   ****         b1.Init(DaisyPatchSM::A8);
 245              		.loc 11 62 9 is_stmt 1 view .LVU42
 246              		.loc 11 62 16 is_stmt 0 view .LVU43
 247 0086 1C4B     		ldr	r3, .L7+64
 248 0088 9FED1C0A 		vldr.32	s0, .L7+68
 249 008c 1A78     		ldrb	r2, [r3]	@ zero_extendqisi2
 250 008e 5978     		ldrb	r1, [r3, #1]	@ zero_extendqisi2
 251 0090 1B48     		ldr	r0, .L7+72
 252 0092 42EA0121 		orr	r1, r2, r1, lsl #8
 253 0096 8DED030A 		vstr.32	s0, [sp, #12]	@ int
 254 009a FFF7FEFF 		bl	_ZN5daisy6Switch4InitE12dsy_gpio_pinf
 255              	.LVL11:
  63:daisy_bed.h   ****         b2.Init(DaisyPatchSM::D10);
 256              		.loc 11 63 9 is_stmt 1 view .LVU44
 257              		.loc 11 63 16 is_stmt 0 view .LVU45
 258 009e 194B     		ldr	r3, .L7+76
 259 00a0 9DED030A 		vldr.32	s0, [sp, #12]	@ int
 260 00a4 1A78     		ldrb	r2, [r3]	@ zero_extendqisi2
 261 00a6 5978     		ldrb	r1, [r3, #1]	@ zero_extendqisi2
 262 00a8 1748     		ldr	r0, .L7+80
 263 00aa 42EA0121 		orr	r1, r2, r1, lsl #8
  64:daisy_bed.h   ****     }
 264              		.loc 11 64 5 view .LVU46
 265 00ae 04B0     		add	sp, sp, #16
 266              		.cfi_def_cfa_offset 8
 267              		@ sp needed
 268 00b0 BDE81040 		pop	{r4, lr}
 269              		.cfi_restore 14
 270              		.cfi_restore 4
 271              		.cfi_def_cfa_offset 0
  63:daisy_bed.h   ****         b2.Init(DaisyPatchSM::D10);
 272              		.loc 11 63 16 view .LVU47
 273 00b4 FFF7FEBF 		b	_ZN5daisy6Switch4InitE12dsy_gpio_pinf
 274              	.LVL12:
 275              	.L8:
 276              		.align	2
ARM GAS  /var/folders/hl/qgbwny5j0fd895c2c41bk3tw0000gp/T//ccSxPsAD.s 			page 16


 277              	.L7:
 278 00b8 00000000 		.word	.LANCHOR0
 279 00bc 00000000 		.word	.LANCHOR1
 280 00c0 00000000 		.word	.LANCHOR2
 281 00c4 00000000 		.word	.LANCHOR3
 282 00c8 00000000 		.word	.LANCHOR4
 283 00cc 00000000 		.word	.LANCHOR5
 284 00d0 00000000 		.word	.LANCHOR6
 285 00d4 00000000 		.word	.LANCHOR7
 286 00d8 00000000 		.word	.LANCHOR8
 287 00dc 00000000 		.word	.LANCHOR9
 288 00e0 00000000 		.word	.LANCHOR10
 289 00e4 00000000 		.word	.LANCHOR11
 290 00e8 00000000 		.word	.LANCHOR12
 291 00ec 00000000 		.word	.LANCHOR13
 292 00f0 00000000 		.word	.LANCHOR14
 293 00f4 00000000 		.word	.LANCHOR15
 294 00f8 00000000 		.word	_ZN5daisy8patch_sm12DaisyPatchSM2A8E
 295 00fc 00000000 		.word	0
 296 0100 00000000 		.word	.LANCHOR16
 297 0104 00000000 		.word	_ZN5daisy8patch_sm12DaisyPatchSM3D10E
 298 0108 00000000 		.word	.LANCHOR17
 299              		.cfi_endproc
 300              	.LFE4793:
 302              		.section	.text._ZN5daisy8patch_sm6ledOffEv,"ax",%progbits
 303              		.align	1
 304              		.p2align 2,,3
 305              		.global	_ZN5daisy8patch_sm6ledOffEv
 306              		.syntax unified
 307              		.thumb
 308              		.thumb_func
 309              		.fpu fpv5-d16
 311              	_ZN5daisy8patch_sm6ledOffEv:
 312              	.LFB4794:
  65:daisy_bed.h   **** 
  66:daisy_bed.h   ****     void ledOff(){
 313              		.loc 11 66 18 is_stmt 1 view -0
 314              		.cfi_startproc
 315              		@ args = 0, pretend = 0, frame = 0
 316              		@ frame_needed = 0, uses_anonymous_args = 0
  67:daisy_bed.h   ****         gen_led1.Write(false);
 317              		.loc 11 67 9 view .LVU49
  66:daisy_bed.h   ****         gen_led1.Write(false);
 318              		.loc 11 66 18 is_stmt 0 view .LVU50
 319 0000 08B5     		push	{r3, lr}
 320              		.cfi_def_cfa_offset 8
 321              		.cfi_offset 3, -8
 322              		.cfi_offset 14, -4
 323              		.loc 11 67 23 view .LVU51
 324 0002 0021     		movs	r1, #0
 325 0004 0848     		ldr	r0, .L11
 326 0006 FFF7FEFF 		bl	_ZN5daisy4GPIO5WriteEb
 327              	.LVL13:
  68:daisy_bed.h   ****         gen_led2.Write(false);
 328              		.loc 11 68 9 is_stmt 1 view .LVU52
 329              		.loc 11 68 23 is_stmt 0 view .LVU53
 330 000a 0021     		movs	r1, #0
ARM GAS  /var/folders/hl/qgbwny5j0fd895c2c41bk3tw0000gp/T//ccSxPsAD.s 			page 17


 331 000c 0748     		ldr	r0, .L11+4
 332 000e FFF7FEFF 		bl	_ZN5daisy4GPIO5WriteEb
 333              	.LVL14:
  69:daisy_bed.h   ****         cv_led1.Write(false);
 334              		.loc 11 69 9 is_stmt 1 view .LVU54
 335              		.loc 11 69 22 is_stmt 0 view .LVU55
 336 0012 0021     		movs	r1, #0
 337 0014 0648     		ldr	r0, .L11+8
 338 0016 FFF7FEFF 		bl	_ZN5daisy4GPIO5WriteEb
 339              	.LVL15:
  70:daisy_bed.h   ****         cv_led2.Write(false);
 340              		.loc 11 70 9 is_stmt 1 view .LVU56
 341              		.loc 11 70 22 is_stmt 0 view .LVU57
 342 001a 0021     		movs	r1, #0
 343 001c 0548     		ldr	r0, .L11+12
  71:daisy_bed.h   ****     }
 344              		.loc 11 71 5 view .LVU58
 345 001e BDE80840 		pop	{r3, lr}
 346              		.cfi_restore 14
 347              		.cfi_restore 3
 348              		.cfi_def_cfa_offset 0
  70:daisy_bed.h   ****         cv_led2.Write(false);
 349              		.loc 11 70 22 view .LVU59
 350 0022 FFF7FEBF 		b	_ZN5daisy4GPIO5WriteEb
 351              	.LVL16:
 352              	.L12:
 353 0026 00BF     		.align	2
 354              	.L11:
 355 0028 00000000 		.word	.LANCHOR1
 356 002c 00000000 		.word	.LANCHOR3
 357 0030 00000000 		.word	.LANCHOR5
 358 0034 00000000 		.word	.LANCHOR7
 359              		.cfi_endproc
 360              	.LFE4794:
 362              		.section	.text._ZN5daisy8patch_sm13StartupCheeseEv,"ax",%progbits
 363              		.align	1
 364              		.p2align 2,,3
 365              		.global	_ZN5daisy8patch_sm13StartupCheeseEv
 366              		.syntax unified
 367              		.thumb
 368              		.thumb_func
 369              		.fpu fpv5-d16
 371              	_ZN5daisy8patch_sm13StartupCheeseEv:
 372              	.LFB4795:
  72:daisy_bed.h   **** 
  73:daisy_bed.h   ****     void StartupCheese(){
 373              		.loc 11 73 25 is_stmt 1 view -0
 374              		.cfi_startproc
 375              		@ args = 0, pretend = 0, frame = 0
 376              		@ frame_needed = 0, uses_anonymous_args = 0
  74:daisy_bed.h   **** 		gate_in_led1.Toggle();
 377              		.loc 11 74 3 view .LVU61
  73:daisy_bed.h   **** 		gate_in_led1.Toggle();
 378              		.loc 11 73 25 is_stmt 0 view .LVU62
 379 0000 F8B5     		push	{r3, r4, r5, r6, r7, lr}
 380              		.cfi_def_cfa_offset 24
 381              		.cfi_offset 3, -24
ARM GAS  /var/folders/hl/qgbwny5j0fd895c2c41bk3tw0000gp/T//ccSxPsAD.s 			page 18


 382              		.cfi_offset 4, -20
 383              		.cfi_offset 5, -16
 384              		.cfi_offset 6, -12
 385              		.cfi_offset 7, -8
 386              		.cfi_offset 14, -4
 387              		.loc 11 74 22 view .LVU63
 388 0002 2348     		ldr	r0, .L15
 389 0004 FFF7FEFF 		bl	_ZN5daisy4GPIO6ToggleEv
 390              	.LVL17:
  75:daisy_bed.h   **** 		System::Delay(100);
 391              		.loc 11 75 3 is_stmt 1 view .LVU64
 392              		.loc 11 75 16 is_stmt 0 view .LVU65
 393 0008 6420     		movs	r0, #100
 394 000a FFF7FEFF 		bl	_ZN5daisy6System5DelayEm
 395              	.LVL18:
  76:daisy_bed.h   **** 		gate_in_led2.Toggle();
 396              		.loc 11 76 3 is_stmt 1 view .LVU66
  77:daisy_bed.h   **** 		System::Delay(100);
  78:daisy_bed.h   **** 		gen_led1.Toggle();
 397              		.loc 11 78 18 is_stmt 0 view .LVU67
 398 000e 214F     		ldr	r7, .L15+4
  76:daisy_bed.h   **** 		gate_in_led2.Toggle();
 399              		.loc 11 76 22 view .LVU68
 400 0010 2148     		ldr	r0, .L15+8
 401 0012 FFF7FEFF 		bl	_ZN5daisy4GPIO6ToggleEv
 402              	.LVL19:
  77:daisy_bed.h   **** 		System::Delay(100);
 403              		.loc 11 77 3 is_stmt 1 view .LVU69
  77:daisy_bed.h   **** 		System::Delay(100);
 404              		.loc 11 77 16 is_stmt 0 view .LVU70
 405 0016 6420     		movs	r0, #100
 406 0018 FFF7FEFF 		bl	_ZN5daisy6System5DelayEm
 407              	.LVL20:
 408              		.loc 11 78 3 is_stmt 1 view .LVU71
  79:daisy_bed.h   **** 		System::Delay(100);
  80:daisy_bed.h   **** 		gen_led2.Toggle();
 409              		.loc 11 80 18 is_stmt 0 view .LVU72
 410 001c 1F4E     		ldr	r6, .L15+12
  78:daisy_bed.h   **** 		System::Delay(100);
 411              		.loc 11 78 18 view .LVU73
 412 001e 3846     		mov	r0, r7
  81:daisy_bed.h   **** 		System::Delay(100);
  82:daisy_bed.h   **** 		cv_led1.Toggle();
 413              		.loc 11 82 17 view .LVU74
 414 0020 1F4D     		ldr	r5, .L15+16
  78:daisy_bed.h   **** 		System::Delay(100);
 415              		.loc 11 78 18 view .LVU75
 416 0022 FFF7FEFF 		bl	_ZN5daisy4GPIO6ToggleEv
 417              	.LVL21:
  79:daisy_bed.h   **** 		gen_led2.Toggle();
 418              		.loc 11 79 3 is_stmt 1 view .LVU76
  79:daisy_bed.h   **** 		gen_led2.Toggle();
 419              		.loc 11 79 16 is_stmt 0 view .LVU77
 420 0026 6420     		movs	r0, #100
 421 0028 FFF7FEFF 		bl	_ZN5daisy6System5DelayEm
 422              	.LVL22:
  80:daisy_bed.h   **** 		System::Delay(100);
ARM GAS  /var/folders/hl/qgbwny5j0fd895c2c41bk3tw0000gp/T//ccSxPsAD.s 			page 19


 423              		.loc 11 80 3 is_stmt 1 view .LVU78
  80:daisy_bed.h   **** 		System::Delay(100);
 424              		.loc 11 80 18 is_stmt 0 view .LVU79
 425 002c 3046     		mov	r0, r6
 426 002e FFF7FEFF 		bl	_ZN5daisy4GPIO6ToggleEv
 427              	.LVL23:
  81:daisy_bed.h   **** 		System::Delay(100);
 428              		.loc 11 81 3 is_stmt 1 view .LVU80
  81:daisy_bed.h   **** 		System::Delay(100);
 429              		.loc 11 81 16 is_stmt 0 view .LVU81
 430 0032 6420     		movs	r0, #100
 431 0034 FFF7FEFF 		bl	_ZN5daisy6System5DelayEm
 432              	.LVL24:
 433              		.loc 11 82 3 is_stmt 1 view .LVU82
  83:daisy_bed.h   **** 		System::Delay(100);
  84:daisy_bed.h   **** 		cv_led2.Toggle();
 434              		.loc 11 84 17 is_stmt 0 view .LVU83
 435 0038 1A4C     		ldr	r4, .L15+20
  82:daisy_bed.h   **** 		System::Delay(100);
 436              		.loc 11 82 17 view .LVU84
 437 003a 2846     		mov	r0, r5
 438 003c FFF7FEFF 		bl	_ZN5daisy4GPIO6ToggleEv
 439              	.LVL25:
  83:daisy_bed.h   **** 		System::Delay(100);
 440              		.loc 11 83 3 is_stmt 1 view .LVU85
  83:daisy_bed.h   **** 		System::Delay(100);
 441              		.loc 11 83 16 is_stmt 0 view .LVU86
 442 0040 6420     		movs	r0, #100
 443 0042 FFF7FEFF 		bl	_ZN5daisy6System5DelayEm
 444              	.LVL26:
 445              		.loc 11 84 3 is_stmt 1 view .LVU87
 446              		.loc 11 84 17 is_stmt 0 view .LVU88
 447 0046 2046     		mov	r0, r4
 448 0048 FFF7FEFF 		bl	_ZN5daisy4GPIO6ToggleEv
 449              	.LVL27:
  85:daisy_bed.h   **** 		System::Delay(100);
 450              		.loc 11 85 3 is_stmt 1 view .LVU89
 451              		.loc 11 85 16 is_stmt 0 view .LVU90
 452 004c 6420     		movs	r0, #100
 453 004e FFF7FEFF 		bl	_ZN5daisy6System5DelayEm
 454              	.LVL28:
  86:daisy_bed.h   **** 		gate_out_led1.Toggle();
 455              		.loc 11 86 3 is_stmt 1 view .LVU91
 456              		.loc 11 86 23 is_stmt 0 view .LVU92
 457 0052 1548     		ldr	r0, .L15+24
 458 0054 FFF7FEFF 		bl	_ZN5daisy4GPIO6ToggleEv
 459              	.LVL29:
  87:daisy_bed.h   **** 		System::Delay(100);
 460              		.loc 11 87 3 is_stmt 1 view .LVU93
 461              		.loc 11 87 16 is_stmt 0 view .LVU94
 462 0058 6420     		movs	r0, #100
 463 005a FFF7FEFF 		bl	_ZN5daisy6System5DelayEm
 464              	.LVL30:
  88:daisy_bed.h   **** 		gate_out_led2.Toggle();
 465              		.loc 11 88 3 is_stmt 1 view .LVU95
 466              		.loc 11 88 23 is_stmt 0 view .LVU96
 467 005e 1348     		ldr	r0, .L15+28
ARM GAS  /var/folders/hl/qgbwny5j0fd895c2c41bk3tw0000gp/T//ccSxPsAD.s 			page 20


 468 0060 FFF7FEFF 		bl	_ZN5daisy4GPIO6ToggleEv
 469              	.LVL31:
  89:daisy_bed.h   **** 		System::Delay(100);
 470              		.loc 11 89 3 is_stmt 1 view .LVU97
 471              		.loc 11 89 16 is_stmt 0 view .LVU98
 472 0064 6420     		movs	r0, #100
 473 0066 FFF7FEFF 		bl	_ZN5daisy6System5DelayEm
 474              	.LVL32:
  90:daisy_bed.h   ****         ledOff();
 475              		.loc 11 90 9 is_stmt 1 view .LVU99
 476              	.LBB339:
 477              	.LBI339:
  66:daisy_bed.h   ****         gen_led1.Write(false);
 478              		.loc 11 66 10 view .LVU100
 479              	.LBB340:
  67:daisy_bed.h   ****         gen_led2.Write(false);
 480              		.loc 11 67 9 view .LVU101
  67:daisy_bed.h   ****         gen_led2.Write(false);
 481              		.loc 11 67 23 is_stmt 0 view .LVU102
 482 006a 3846     		mov	r0, r7
 483 006c 0021     		movs	r1, #0
 484 006e FFF7FEFF 		bl	_ZN5daisy4GPIO5WriteEb
 485              	.LVL33:
  68:daisy_bed.h   ****         cv_led1.Write(false);
 486              		.loc 11 68 9 is_stmt 1 view .LVU103
  68:daisy_bed.h   ****         cv_led1.Write(false);
 487              		.loc 11 68 23 is_stmt 0 view .LVU104
 488 0072 3046     		mov	r0, r6
 489 0074 0021     		movs	r1, #0
 490 0076 FFF7FEFF 		bl	_ZN5daisy4GPIO5WriteEb
 491              	.LVL34:
  69:daisy_bed.h   ****         cv_led2.Write(false);
 492              		.loc 11 69 9 is_stmt 1 view .LVU105
  69:daisy_bed.h   ****         cv_led2.Write(false);
 493              		.loc 11 69 22 is_stmt 0 view .LVU106
 494 007a 2846     		mov	r0, r5
 495 007c 0021     		movs	r1, #0
 496 007e FFF7FEFF 		bl	_ZN5daisy4GPIO5WriteEb
 497              	.LVL35:
  70:daisy_bed.h   ****     }
 498              		.loc 11 70 9 is_stmt 1 view .LVU107
  70:daisy_bed.h   ****     }
 499              		.loc 11 70 22 is_stmt 0 view .LVU108
 500 0082 2046     		mov	r0, r4
 501 0084 0021     		movs	r1, #0
 502              	.LBE340:
 503              	.LBE339:
  91:daisy_bed.h   ****     }
 504              		.loc 11 91 5 view .LVU109
 505 0086 BDE8F840 		pop	{r3, r4, r5, r6, r7, lr}
 506              		.cfi_restore 14
 507              		.cfi_restore 7
 508              		.cfi_restore 6
 509              		.cfi_restore 5
 510              		.cfi_restore 4
 511              		.cfi_restore 3
 512              		.cfi_def_cfa_offset 0
ARM GAS  /var/folders/hl/qgbwny5j0fd895c2c41bk3tw0000gp/T//ccSxPsAD.s 			page 21


 513              	.LBB342:
 514              	.LBB341:
  70:daisy_bed.h   ****     }
 515              		.loc 11 70 22 view .LVU110
 516 008a FFF7FEBF 		b	_ZN5daisy4GPIO5WriteEb
 517              	.LVL36:
 518              	.L16:
 519 008e 00BF     		.align	2
 520              	.L15:
 521 0090 00000000 		.word	.LANCHOR9
 522 0094 00000000 		.word	.LANCHOR1
 523 0098 00000000 		.word	.LANCHOR11
 524 009c 00000000 		.word	.LANCHOR3
 525 00a0 00000000 		.word	.LANCHOR5
 526 00a4 00000000 		.word	.LANCHOR7
 527 00a8 00000000 		.word	.LANCHOR13
 528 00ac 00000000 		.word	.LANCHOR15
 529              	.LBE341:
 530              	.LBE342:
 531              		.cfi_endproc
 532              	.LFE4795:
 534              		.section	.text._ZN5daisy8patch_sm8gateTestEv,"ax",%progbits
 535              		.align	1
 536              		.p2align 2,,3
 537              		.global	_ZN5daisy8patch_sm8gateTestEv
 538              		.syntax unified
 539              		.thumb
 540              		.thumb_func
 541              		.fpu fpv5-d16
 543              	_ZN5daisy8patch_sm8gateTestEv:
 544              	.LFB4796:
  92:daisy_bed.h   **** 
  93:daisy_bed.h   ****     void gateTest()
  94:daisy_bed.h   ****     {
 545              		.loc 11 94 5 is_stmt 1 view -0
 546              		.cfi_startproc
 547              		@ args = 0, pretend = 0, frame = 0
 548              		@ frame_needed = 0, uses_anonymous_args = 0
  95:daisy_bed.h   ****         gate_in_led1.Toggle();
 549              		.loc 11 95 9 view .LVU112
  94:daisy_bed.h   ****         gate_in_led1.Toggle();
 550              		.loc 11 94 5 is_stmt 0 view .LVU113
 551 0000 08B5     		push	{r3, lr}
 552              		.cfi_def_cfa_offset 8
 553              		.cfi_offset 3, -8
 554              		.cfi_offset 14, -4
 555              		.loc 11 95 28 view .LVU114
 556 0002 0F48     		ldr	r0, .L19
 557 0004 FFF7FEFF 		bl	_ZN5daisy4GPIO6ToggleEv
 558              	.LVL37:
  96:daisy_bed.h   ****         System::Delay(1000);
 559              		.loc 11 96 9 is_stmt 1 view .LVU115
 560              		.loc 11 96 22 is_stmt 0 view .LVU116
 561 0008 4FF47A70 		mov	r0, #1000
 562 000c FFF7FEFF 		bl	_ZN5daisy6System5DelayEm
 563              	.LVL38:
  97:daisy_bed.h   ****         gate_in_led2.Toggle();
ARM GAS  /var/folders/hl/qgbwny5j0fd895c2c41bk3tw0000gp/T//ccSxPsAD.s 			page 22


 564              		.loc 11 97 9 is_stmt 1 view .LVU117
 565              		.loc 11 97 28 is_stmt 0 view .LVU118
 566 0010 0C48     		ldr	r0, .L19+4
 567 0012 FFF7FEFF 		bl	_ZN5daisy4GPIO6ToggleEv
 568              	.LVL39:
  98:daisy_bed.h   ****         System::Delay(1000);
 569              		.loc 11 98 9 is_stmt 1 view .LVU119
 570              		.loc 11 98 22 is_stmt 0 view .LVU120
 571 0016 4FF47A70 		mov	r0, #1000
 572 001a FFF7FEFF 		bl	_ZN5daisy6System5DelayEm
 573              	.LVL40:
  99:daisy_bed.h   ****         gate_out_led1.Toggle();
 574              		.loc 11 99 9 is_stmt 1 view .LVU121
 575              		.loc 11 99 29 is_stmt 0 view .LVU122
 576 001e 0A48     		ldr	r0, .L19+8
 577 0020 FFF7FEFF 		bl	_ZN5daisy4GPIO6ToggleEv
 578              	.LVL41:
 100:daisy_bed.h   ****         System::Delay(1000);
 579              		.loc 11 100 9 is_stmt 1 view .LVU123
 580              		.loc 11 100 22 is_stmt 0 view .LVU124
 581 0024 4FF47A70 		mov	r0, #1000
 582 0028 FFF7FEFF 		bl	_ZN5daisy6System5DelayEm
 583              	.LVL42:
 101:daisy_bed.h   ****         gate_out_led2.Toggle();
 584              		.loc 11 101 9 is_stmt 1 view .LVU125
 585              		.loc 11 101 29 is_stmt 0 view .LVU126
 586 002c 0748     		ldr	r0, .L19+12
 587 002e FFF7FEFF 		bl	_ZN5daisy4GPIO6ToggleEv
 588              	.LVL43:
 102:daisy_bed.h   ****         System::Delay(1000);
 589              		.loc 11 102 9 is_stmt 1 view .LVU127
 590              		.loc 11 102 22 is_stmt 0 view .LVU128
 591 0032 4FF47A70 		mov	r0, #1000
 103:daisy_bed.h   ****     }
 592              		.loc 11 103 5 view .LVU129
 593 0036 BDE80840 		pop	{r3, lr}
 594              		.cfi_restore 14
 595              		.cfi_restore 3
 596              		.cfi_def_cfa_offset 0
 102:daisy_bed.h   ****         System::Delay(1000);
 597              		.loc 11 102 22 view .LVU130
 598 003a FFF7FEBF 		b	_ZN5daisy6System5DelayEm
 599              	.LVL44:
 600              	.L20:
 601 003e 00BF     		.align	2
 602              	.L19:
 603 0040 00000000 		.word	.LANCHOR9
 604 0044 00000000 		.word	.LANCHOR11
 605 0048 00000000 		.word	.LANCHOR13
 606 004c 00000000 		.word	.LANCHOR15
 607              		.cfi_endproc
 608              	.LFE4796:
 610              		.section	.text._Z20custom_pool_allocatej,"ax",%progbits
 611              		.align	1
 612              		.p2align 2,,3
 613              		.global	_Z20custom_pool_allocatej
 614              		.syntax unified
ARM GAS  /var/folders/hl/qgbwny5j0fd895c2c41bk3tw0000gp/T//ccSxPsAD.s 			page 23


 615              		.thumb
 616              		.thumb_func
 617              		.fpu fpv5-d16
 619              	_Z20custom_pool_allocatej:
 620              	.LVL45:
 621              	.LFB4797:
 622              		.file 12 "CloudPort.cpp"
   1:CloudPort.cpp **** #include "daisy_patch_sm.h"
   2:CloudPort.cpp **** #include "daisysp.h"
   3:CloudPort.cpp **** #include "daisy_bed.h"
   4:CloudPort.cpp **** #include "cloudseed_app.h"
   5:CloudPort.cpp **** 
   6:CloudPort.cpp **** using namespace daisy;
   7:CloudPort.cpp **** using namespace patch_sm;
   8:CloudPort.cpp **** using namespace daisysp;
   9:CloudPort.cpp **** 
  10:CloudPort.cpp **** DaisyPatchSM hw;
  11:CloudPort.cpp **** ::daisy::Parameter lpParam;
  12:CloudPort.cpp **** 
  13:CloudPort.cpp **** CloudSeedApp* gApp = 0;
  14:CloudPort.cpp **** CloudSeedApp reverb_app(hw);
  15:CloudPort.cpp **** 
  16:CloudPort.cpp **** bool gRisingEdge = false;
  17:CloudPort.cpp **** bool gAudioStarted = false;
  18:CloudPort.cpp **** 
  19:CloudPort.cpp **** 
  20:CloudPort.cpp **** #define CUSTOM_POOL_SIZE (48*1024*1024)
  21:CloudPort.cpp **** DSY_SDRAM_BSS char custom_pool[CUSTOM_POOL_SIZE];
  22:CloudPort.cpp **** size_t pool_index = 0;
  23:CloudPort.cpp **** int allocation_count = 0;
  24:CloudPort.cpp **** void* custom_pool_allocate(size_t size)
  25:CloudPort.cpp **** {
 623              		.loc 12 25 1 is_stmt 1 view -0
 624              		.cfi_startproc
 625              		@ args = 0, pretend = 0, frame = 0
 626              		@ frame_needed = 0, uses_anonymous_args = 0
 627              		@ link register save eliminated.
  26:CloudPort.cpp ****         if (pool_index + size >= CUSTOM_POOL_SIZE)
 628              		.loc 12 26 9 view .LVU132
 629              		.loc 12 26 24 is_stmt 0 view .LVU133
 630 0000 0549     		ldr	r1, .L24
 631 0002 0A68     		ldr	r2, [r1]
 632 0004 1318     		adds	r3, r2, r0
 633              		.loc 12 26 9 view .LVU134
 634 0006 B3F1407F 		cmp	r3, #50331648
 635 000a 03D2     		bcs	.L23
  27:CloudPort.cpp ****         {
  28:CloudPort.cpp ****                 return 0;
  29:CloudPort.cpp ****         }
  30:CloudPort.cpp ****         void* ptr = &custom_pool[pool_index];
 636              		.loc 12 30 9 is_stmt 1 view .LVU135
 637              		.loc 12 30 15 is_stmt 0 view .LVU136
 638 000c 0348     		ldr	r0, .L24+4
 639              	.LVL46:
  31:CloudPort.cpp ****         pool_index += size;
 640              		.loc 12 31 20 view .LVU137
 641 000e 0B60     		str	r3, [r1]
ARM GAS  /var/folders/hl/qgbwny5j0fd895c2c41bk3tw0000gp/T//ccSxPsAD.s 			page 24


  30:CloudPort.cpp ****         pool_index += size;
 642              		.loc 12 30 15 view .LVU138
 643 0010 1044     		add	r0, r0, r2
 644              	.LVL47:
 645              		.loc 12 31 9 is_stmt 1 view .LVU139
  32:CloudPort.cpp ****         return ptr;
 646              		.loc 12 32 9 view .LVU140
 647              		.loc 12 32 16 is_stmt 0 view .LVU141
 648 0012 7047     		bx	lr
 649              	.LVL48:
 650              	.L23:
  28:CloudPort.cpp ****         }
 651              		.loc 12 28 24 view .LVU142
 652 0014 0020     		movs	r0, #0
 653              	.LVL49:
  33:CloudPort.cpp **** }
 654              		.loc 12 33 1 view .LVU143
 655 0016 7047     		bx	lr
 656              	.L25:
 657              		.align	2
 658              	.L24:
 659 0018 00000000 		.word	.LANCHOR18
 660 001c 00000000 		.word	custom_pool
 661              		.cfi_endproc
 662              	.LFE4797:
 664              		.section	.text._Z14updateControlsv,"ax",%progbits
 665              		.align	1
 666              		.p2align 2,,3
 667              		.global	_Z14updateControlsv
 668              		.syntax unified
 669              		.thumb
 670              		.thumb_func
 671              		.fpu fpv5-d16
 673              	_Z14updateControlsv:
 674              	.LFB4798:
  34:CloudPort.cpp **** 
  35:CloudPort.cpp **** 
  36:CloudPort.cpp **** float ctrlVal[4]={1,1,1,1};
  37:CloudPort.cpp **** 
  38:CloudPort.cpp **** 
  39:CloudPort.cpp **** void updateControls()
  40:CloudPort.cpp **** {
 675              		.loc 12 40 1 is_stmt 1 view -0
 676              		.cfi_startproc
 677              		@ args = 0, pretend = 0, frame = 0
 678              		@ frame_needed = 0, uses_anonymous_args = 0
  41:CloudPort.cpp ****    hw.ProcessAnalogControls();
 679              		.loc 12 41 4 view .LVU145
 680              		.loc 12 41 28 is_stmt 0 view .LVU146
 681 0000 1F48     		ldr	r0, .L35+16
  40:CloudPort.cpp ****    hw.ProcessAnalogControls();
 682              		.loc 12 40 1 view .LVU147
 683 0002 70B5     		push	{r4, r5, r6, lr}
 684              		.cfi_def_cfa_offset 16
 685              		.cfi_offset 4, -16
 686              		.cfi_offset 5, -12
 687              		.cfi_offset 6, -8
ARM GAS  /var/folders/hl/qgbwny5j0fd895c2c41bk3tw0000gp/T//ccSxPsAD.s 			page 25


 688              		.cfi_offset 14, -4
 689 0004 00F13005 		add	r5, r0, #48
 690 0008 1E4C     		ldr	r4, .L35+20
 691              		.loc 12 41 28 view .LVU148
 692 000a FFF7FEFF 		bl	_ZN5daisy8patch_sm12DaisyPatchSM21ProcessAnalogControlsEv
 693              	.LVL50:
  42:CloudPort.cpp ****    hw.ProcessDigitalControls();
 694              		.loc 12 42 4 is_stmt 1 view .LVU149
 695              		.loc 12 42 29 is_stmt 0 view .LVU150
 696 000e A5F13000 		sub	r0, r5, #48
 697 0012 04F11006 		add	r6, r4, #16
 698 0016 FFF7FEFF 		bl	_ZN5daisy8patch_sm12DaisyPatchSM22ProcessDigitalControlsEv
 699              	.LVL51:
  43:CloudPort.cpp **** 
  44:CloudPort.cpp ****    //the encoders are not precise and stop above 0 or below 1, 
  45:CloudPort.cpp ****    // so add some deadzone around 0 and 1
  46:CloudPort.cpp ****    for (int i = 0; i < 4; i++)
 700              		.loc 12 46 4 is_stmt 1 view .LVU151
 701              	.LBB343:
 702              		.loc 12 46 22 view .LVU152
 703              	.L30:
  47:CloudPort.cpp ****    {
  48:CloudPort.cpp ****         //Get the four control values
  49:CloudPort.cpp ****         ctrlVal[i] = hw.controls[i].Process();
 704              		.loc 12 49 9 view .LVU153
 705              		.loc 12 49 44 is_stmt 0 view .LVU154
 706 001a 2846     		mov	r0, r5
 707 001c FFF7FEFF 		bl	_ZN5daisy13AnalogControl7ProcessEv
 708              	.LVL52:
  50:CloudPort.cpp ****         if (ctrlVal[i]<0.01)
 709              		.loc 12 50 9 is_stmt 1 view .LVU155
  51:CloudPort.cpp ****            ctrlVal[i] = 0;
  52:CloudPort.cpp ****         else
  53:CloudPort.cpp ****           {
  54:CloudPort.cpp ****             ctrlVal[i]-= 0.01;
 710              		.loc 12 54 13 view .LVU156
  55:CloudPort.cpp ****           }
  56:CloudPort.cpp ****         ctrlVal[i]/=0.95;
 711              		.loc 12 56 9 view .LVU157
  57:CloudPort.cpp **** 
  58:CloudPort.cpp ****         if (ctrlVal[i]>1.)
  59:CloudPort.cpp ****            ctrlVal[i]=1.;
 712              		.loc 12 59 12 view .LVU158
  56:CloudPort.cpp **** 
 713              		.loc 12 56 9 view .LVU159
  50:CloudPort.cpp ****            ctrlVal[i] = 0;
 714              		.loc 12 50 22 is_stmt 0 view .LVU160
 715 0020 B7EEC00A 		vcvt.f64.f32	d0, s0
  58:CloudPort.cpp ****            ctrlVal[i]=1.;
 716              		.loc 12 58 9 view .LVU161
 717 0024 F7EE006A 		vmov.f32	s13, #1.0e+0
  56:CloudPort.cpp **** 
 718              		.loc 12 56 19 view .LVU162
 719 0028 0023     		movs	r3, #0
  50:CloudPort.cpp ****            ctrlVal[i] = 0;
 720              		.loc 12 50 9 view .LVU163
 721 002a 9FED117B 		vldr.64	d7, .L35
ARM GAS  /var/folders/hl/qgbwny5j0fd895c2c41bk3tw0000gp/T//ccSxPsAD.s 			page 26


  56:CloudPort.cpp **** 
 722              		.loc 12 56 19 view .LVU164
 723 002e 9FED125B 		vldr.64	d5, .L35+8
  50:CloudPort.cpp ****            ctrlVal[i] = 0;
 724              		.loc 12 50 9 view .LVU165
 725 0032 B4EEC70B 		vcmpe.f64	d0, d7
 726 0036 F1EE10FA 		vmrs	APSR_nzcv, FPSCR
 727 003a 05D5     		bpl	.L34
  56:CloudPort.cpp **** 
 728              		.loc 12 56 19 view .LVU166
 729 003c 2360     		str	r3, [r4]	@ float
  58:CloudPort.cpp ****            ctrlVal[i]=1.;
 730              		.loc 12 58 9 is_stmt 1 view .LVU167
 731              	.L29:
  46:CloudPort.cpp ****    {
 732              		.loc 12 46 4 discriminator 2 view .LVU168
  46:CloudPort.cpp ****    {
 733              		.loc 12 46 22 discriminator 2 view .LVU169
 734 003e 0434     		adds	r4, r4, #4
 735 0040 2035     		adds	r5, r5, #32
 736 0042 B442     		cmp	r4, r6
 737 0044 E9D1     		bne	.L30
 738              	.LBE343:
  60:CloudPort.cpp ****     }
  61:CloudPort.cpp ****    
  62:CloudPort.cpp **** }
 739              		.loc 12 62 1 is_stmt 0 view .LVU170
 740 0046 70BD     		pop	{r4, r5, r6, pc}
 741              	.L34:
 742              	.LBB344:
  54:CloudPort.cpp ****           }
 743              		.loc 12 54 23 view .LVU171
 744 0048 30EE470B 		vsub.f64	d0, d0, d7
 745 004c B7EEC00B 		vcvt.f32.f64	s0, d0
  56:CloudPort.cpp **** 
 746              		.loc 12 56 19 view .LVU172
 747 0050 B7EEC00A 		vcvt.f64.f32	d0, s0
 748 0054 80EE057B 		vdiv.f64	d7, d0, d5
 749 0058 B7EEC77B 		vcvt.f32.f64	s14, d7
  58:CloudPort.cpp ****            ctrlVal[i]=1.;
 750              		.loc 12 58 9 is_stmt 1 view .LVU173
 751 005c B4EEE67A 		vcmpe.f32	s14, s13
 752 0060 F1EE10FA 		vmrs	APSR_nzcv, FPSCR
  56:CloudPort.cpp **** 
 753              		.loc 12 56 19 is_stmt 0 view .LVU174
 754 0064 D4BF     		ite	le
 755 0066 84ED007A 		vstrle.32	s14, [r4]
  59:CloudPort.cpp ****     }
 756              		.loc 12 59 22 view .LVU175
 757 006a C4ED006A 		vstrgt.32	s13, [r4]
 758 006e E6E7     		b	.L29
 759              	.L36:
 760              		.align	3
 761              	.L35:
 762 0070 7B14AE47 		.word	1202590843
 763 0074 E17A843F 		.word	1065646817
 764 0078 66666666 		.word	1717986918
ARM GAS  /var/folders/hl/qgbwny5j0fd895c2c41bk3tw0000gp/T//ccSxPsAD.s 			page 27


 765 007c 6666EE3F 		.word	1072588390
 766 0080 00000000 		.word	.LANCHOR19
 767 0084 00000000 		.word	.LANCHOR20
 768              	.LBE344:
 769              		.cfi_endproc
 770              	.LFE4798:
 772              		.section	.text._ZL15BouquetCallbackPKPKfPPfj,"ax",%progbits
 773              		.align	1
 774              		.p2align 2,,3
 775              		.syntax unified
 776              		.thumb
 777              		.thumb_func
 778              		.fpu fpv5-d16
 780              	_ZL15BouquetCallbackPKPKfPPfj:
 781              	.LVL53:
 782              	.LFB4799:
  63:CloudPort.cpp **** 
  64:CloudPort.cpp **** static void BouquetCallback(const float * const*in, float **out, unsigned int size)
  65:CloudPort.cpp **** {
 783              		.loc 12 65 1 is_stmt 1 view -0
 784              		.cfi_startproc
 785              		@ args = 0, pretend = 0, frame = 8
 786              		@ frame_needed = 0, uses_anonymous_args = 0
  66:CloudPort.cpp ****   
  67:CloudPort.cpp ****      // read some controls
  68:CloudPort.cpp ****     updateControls();
 787              		.loc 12 68 5 view .LVU177
  65:CloudPort.cpp ****   
 788              		.loc 12 65 1 is_stmt 0 view .LVU178
 789 0000 70B5     		push	{r4, r5, r6, lr}
 790              		.cfi_def_cfa_offset 16
 791              		.cfi_offset 4, -16
 792              		.cfi_offset 5, -12
 793              		.cfi_offset 6, -8
 794              		.cfi_offset 14, -4
 795 0002 84B0     		sub	sp, sp, #16
 796              		.cfi_def_cfa_offset 32
  65:CloudPort.cpp ****   
 797              		.loc 12 65 1 view .LVU179
 798 0004 0646     		mov	r6, r0
 799 0006 0D46     		mov	r5, r1
 800 0008 1446     		mov	r4, r2
 801              		.loc 12 68 19 view .LVU180
 802 000a FFF7FEFF 		bl	_Z14updateControlsv
 803              	.LVL54:
  69:CloudPort.cpp ****     
  70:CloudPort.cpp ****     if (gApp)
 804              		.loc 12 70 5 is_stmt 1 view .LVU181
 805              	.LBB351:
 806              		.loc 12 70 9 is_stmt 0 view .LVU182
 807 000e 194B     		ldr	r3, .L52
 808 0010 1868     		ldr	r0, [r3]
 809              		.loc 12 70 5 view .LVU183
 810 0012 38B1     		cbz	r0, .L38
  71:CloudPort.cpp ****     {
  72:CloudPort.cpp ****       gApp->AudioTickCallback(ctrlVal, in,out,size); 
 811              		.loc 12 72 7 is_stmt 1 view .LVU184
ARM GAS  /var/folders/hl/qgbwny5j0fd895c2c41bk3tw0000gp/T//ccSxPsAD.s 			page 28


 812              		.loc 12 72 30 is_stmt 0 view .LVU185
 813 0014 2B46     		mov	r3, r5
 814 0016 3246     		mov	r2, r6
 815 0018 1749     		ldr	r1, .L52+4
 816 001a 0094     		str	r4, [sp]
 817 001c FFF7FEFF 		bl	_ZN12CloudSeedApp17AudioTickCallbackEPfPKPKfPS0_j
 818              	.LVL55:
 819              	.L37:
 820              		.loc 12 72 30 view .LVU186
 821              	.LBE351:
  73:CloudPort.cpp ****     } else
  74:CloudPort.cpp ****     {
  75:CloudPort.cpp ****       for (size_t i = 0; i < size; i++)
  76:CloudPort.cpp ****       {
  77:CloudPort.cpp ****           out[0][i] = 0.;
  78:CloudPort.cpp ****           out[1][i] = 0.;
  79:CloudPort.cpp ****       }
  80:CloudPort.cpp ****     }
  81:CloudPort.cpp ****     
  82:CloudPort.cpp **** }
 822              		.loc 12 82 1 view .LVU187
 823 0020 04B0     		add	sp, sp, #16
 824              		.cfi_remember_state
 825              		.cfi_def_cfa_offset 16
 826              		@ sp needed
 827 0022 70BD     		pop	{r4, r5, r6, pc}
 828              	.LVL56:
 829              	.L38:
 830              		.cfi_restore_state
 831              	.LBB352:
 832              	.LBB353:
  75:CloudPort.cpp ****       {
 833              		.loc 12 75 28 is_stmt 1 view .LVU188
 834 0024 002C     		cmp	r4, #0
 835 0026 FBD0     		beq	.L37
 836 0028 A200     		lsls	r2, r4, #2
  78:CloudPort.cpp ****       }
 837              		.loc 12 78 16 is_stmt 0 view .LVU189
 838 002a D5E90005 		ldrd	r0, r5, [r5]
 839              	.LVL57:
  78:CloudPort.cpp ****       }
 840              		.loc 12 78 16 view .LVU190
 841 002e 00EB8404 		add	r4, r0, r4, lsl #2
 842              	.LVL58:
  78:CloudPort.cpp ****       }
 843              		.loc 12 78 16 view .LVU191
 844 0032 A542     		cmp	r5, r4
 845 0034 02D2     		bcs	.L45
 846 0036 AB18     		adds	r3, r5, r2
 847 0038 9842     		cmp	r0, r3
 848 003a 0BD3     		bcc	.L44
 849              	.L45:
  77:CloudPort.cpp ****           out[1][i] = 0.;
 850              		.loc 12 77 21 view .LVU192
 851 003c 0021     		movs	r1, #0
 852 003e 0392     		str	r2, [sp, #12]
 853 0040 FFF7FEFF 		bl	memset
ARM GAS  /var/folders/hl/qgbwny5j0fd895c2c41bk3tw0000gp/T//ccSxPsAD.s 			page 29


 854              	.LVL59:
  78:CloudPort.cpp ****       }
 855              		.loc 12 78 21 view .LVU193
 856 0044 039A     		ldr	r2, [sp, #12]
 857 0046 0021     		movs	r1, #0
 858 0048 2846     		mov	r0, r5
 859              	.LBE353:
 860              	.LBE352:
 861              		.loc 12 82 1 view .LVU194
 862 004a 04B0     		add	sp, sp, #16
 863              		.cfi_remember_state
 864              		.cfi_def_cfa_offset 16
 865              		@ sp needed
 866 004c BDE87040 		pop	{r4, r5, r6, lr}
 867              		.cfi_restore 14
 868              		.cfi_restore 6
 869              		.cfi_restore 5
 870              		.cfi_restore 4
 871              		.cfi_def_cfa_offset 0
 872              	.LVL60:
 873              	.LBB355:
 874              	.LBB354:
  78:CloudPort.cpp ****       }
 875              		.loc 12 78 21 view .LVU195
 876 0050 FFF7FEBF 		b	memset
 877              	.LVL61:
 878              	.L44:
 879              		.cfi_restore_state
  77:CloudPort.cpp ****           out[1][i] = 0.;
 880              		.loc 12 77 11 is_stmt 1 view .LVU196
  77:CloudPort.cpp ****           out[1][i] = 0.;
 881              		.loc 12 77 21 is_stmt 0 view .LVU197
 882 0054 0023     		movs	r3, #0
 883 0056 40F8043B 		str	r3, [r0], #4	@ float
  78:CloudPort.cpp ****       }
 884              		.loc 12 78 11 is_stmt 1 view .LVU198
  75:CloudPort.cpp ****       {
 885              		.loc 12 75 28 is_stmt 0 view .LVU199
 886 005a A042     		cmp	r0, r4
  78:CloudPort.cpp ****       }
 887              		.loc 12 78 21 view .LVU200
 888 005c 45F8043B 		str	r3, [r5], #4	@ float
  75:CloudPort.cpp ****       {
 889              		.loc 12 75 7 is_stmt 1 view .LVU201
  75:CloudPort.cpp ****       {
 890              		.loc 12 75 28 view .LVU202
 891 0060 DED0     		beq	.L37
  77:CloudPort.cpp ****           out[1][i] = 0.;
 892              		.loc 12 77 11 view .LVU203
  77:CloudPort.cpp ****           out[1][i] = 0.;
 893              		.loc 12 77 21 is_stmt 0 view .LVU204
 894 0062 0023     		movs	r3, #0
 895 0064 40F8043B 		str	r3, [r0], #4	@ float
  78:CloudPort.cpp ****       }
 896              		.loc 12 78 11 is_stmt 1 view .LVU205
  75:CloudPort.cpp ****       {
 897              		.loc 12 75 28 is_stmt 0 view .LVU206
ARM GAS  /var/folders/hl/qgbwny5j0fd895c2c41bk3tw0000gp/T//ccSxPsAD.s 			page 30


 898 0068 A042     		cmp	r0, r4
  78:CloudPort.cpp ****       }
 899              		.loc 12 78 21 view .LVU207
 900 006a 45F8043B 		str	r3, [r5], #4	@ float
  75:CloudPort.cpp ****       {
 901              		.loc 12 75 7 is_stmt 1 view .LVU208
  75:CloudPort.cpp ****       {
 902              		.loc 12 75 28 view .LVU209
 903 006e F1D1     		bne	.L44
 904 0070 D6E7     		b	.L37
 905              	.L53:
 906 0072 00BF     		.align	2
 907              	.L52:
 908 0074 00000000 		.word	.LANCHOR21
 909 0078 00000000 		.word	.LANCHOR20
 910              	.LBE354:
 911              	.LBE355:
 912              		.cfi_endproc
 913              	.LFE4799:
 915              		.section	.text._Z13AudioCallbackPKPKfPPfj,"ax",%progbits
 916              		.align	1
 917              		.p2align 2,,3
 918              		.global	_Z13AudioCallbackPKPKfPPfj
 919              		.syntax unified
 920              		.thumb
 921              		.thumb_func
 922              		.fpu fpv5-d16
 924              	_Z13AudioCallbackPKPKfPPfj:
 925              	.LVL62:
 926              	.LFB4800:
  83:CloudPort.cpp **** 
  84:CloudPort.cpp **** 
  85:CloudPort.cpp **** 
  86:CloudPort.cpp **** void AudioCallback(AudioHandle::InputBuffer in, AudioHandle::OutputBuffer out, size_t size)
  87:CloudPort.cpp **** {
 927              		.loc 12 87 1 view -0
 928              		.cfi_startproc
 929              		@ args = 0, pretend = 0, frame = 0
 930              		@ frame_needed = 0, uses_anonymous_args = 0
  88:CloudPort.cpp **** 	hw.ProcessAllControls();
 931              		.loc 12 88 2 view .LVU211
 932              	.LBB356:
 933              	.LBI356:
  66:../../libDaisy//src/daisy_patch_sm.h **** 
  67:../../libDaisy//src/daisy_patch_sm.h ****         /** Initializes the memories, and core peripherals for the Daisy Patch SM */
  68:../../libDaisy//src/daisy_patch_sm.h ****         void Init();
  69:../../libDaisy//src/daisy_patch_sm.h **** 
  70:../../libDaisy//src/daisy_patch_sm.h ****         /** Starts a non-interleaving audio callback */
  71:../../libDaisy//src/daisy_patch_sm.h ****         void StartAudio(AudioHandle::AudioCallback cb);
  72:../../libDaisy//src/daisy_patch_sm.h **** 
  73:../../libDaisy//src/daisy_patch_sm.h ****         /** Starts an interleaving audio callback */
  74:../../libDaisy//src/daisy_patch_sm.h ****         void StartAudio(AudioHandle::InterleavingAudioCallback cb);
  75:../../libDaisy//src/daisy_patch_sm.h **** 
  76:../../libDaisy//src/daisy_patch_sm.h ****         /** Changes the callback that is executing.
  77:../../libDaisy//src/daisy_patch_sm.h ****          *  This may cause clicks if done while audio is processing.
  78:../../libDaisy//src/daisy_patch_sm.h ****          */
  79:../../libDaisy//src/daisy_patch_sm.h ****         void ChangeAudioCallback(AudioHandle::AudioCallback cb);
ARM GAS  /var/folders/hl/qgbwny5j0fd895c2c41bk3tw0000gp/T//ccSxPsAD.s 			page 31


  80:../../libDaisy//src/daisy_patch_sm.h **** 
  81:../../libDaisy//src/daisy_patch_sm.h ****         /** Changes the callback that is executing.
  82:../../libDaisy//src/daisy_patch_sm.h ****          *  This may cause clicks if done while audio is processing.
  83:../../libDaisy//src/daisy_patch_sm.h ****          */
  84:../../libDaisy//src/daisy_patch_sm.h ****         void ChangeAudioCallback(AudioHandle::InterleavingAudioCallback cb);
  85:../../libDaisy//src/daisy_patch_sm.h **** 
  86:../../libDaisy//src/daisy_patch_sm.h ****         /** Stops the transmission of audio. */
  87:../../libDaisy//src/daisy_patch_sm.h ****         void StopAudio();
  88:../../libDaisy//src/daisy_patch_sm.h **** 
  89:../../libDaisy//src/daisy_patch_sm.h ****         /** Sets the number of samples processed in an audio callback. 
  90:../../libDaisy//src/daisy_patch_sm.h ****          *  This will only take effect on the next invocation of `StartAudio`
  91:../../libDaisy//src/daisy_patch_sm.h ****          */
  92:../../libDaisy//src/daisy_patch_sm.h ****         void SetAudioBlockSize(size_t size);
  93:../../libDaisy//src/daisy_patch_sm.h **** 
  94:../../libDaisy//src/daisy_patch_sm.h ****         /** Sets the samplerate for the audio engine 
  95:../../libDaisy//src/daisy_patch_sm.h ****          *  This will set it to the closest valid samplerate. Options being:
  96:../../libDaisy//src/daisy_patch_sm.h ****          *  8kHz, 16kHz, 32kHz, 48kHz, and 96kHz
  97:../../libDaisy//src/daisy_patch_sm.h ****          */
  98:../../libDaisy//src/daisy_patch_sm.h ****         void SetAudioSampleRate(float sr);
  99:../../libDaisy//src/daisy_patch_sm.h **** 
 100:../../libDaisy//src/daisy_patch_sm.h ****         void SetAudioSampleRate(SaiHandle::Config::SampleRate sample_rate);
 101:../../libDaisy//src/daisy_patch_sm.h **** 
 102:../../libDaisy//src/daisy_patch_sm.h ****         /** Returns the number of samples processed in an audio callback */
 103:../../libDaisy//src/daisy_patch_sm.h ****         size_t AudioBlockSize();
 104:../../libDaisy//src/daisy_patch_sm.h **** 
 105:../../libDaisy//src/daisy_patch_sm.h ****         /** Returns the audio engine's samplerate in Hz */
 106:../../libDaisy//src/daisy_patch_sm.h ****         float AudioSampleRate();
 107:../../libDaisy//src/daisy_patch_sm.h **** 
 108:../../libDaisy//src/daisy_patch_sm.h ****         /** Returns the rate at which the audio callback will be called in Hz */
 109:../../libDaisy//src/daisy_patch_sm.h ****         float AudioCallbackRate();
 110:../../libDaisy//src/daisy_patch_sm.h **** 
 111:../../libDaisy//src/daisy_patch_sm.h ****         /** Starts the Control ADCs 
 112:../../libDaisy//src/daisy_patch_sm.h ****          * 
 113:../../libDaisy//src/daisy_patch_sm.h ****          *  This is started automatically when Init() is called.
 114:../../libDaisy//src/daisy_patch_sm.h ****          */
 115:../../libDaisy//src/daisy_patch_sm.h ****         void StartAdc();
 116:../../libDaisy//src/daisy_patch_sm.h **** 
 117:../../libDaisy//src/daisy_patch_sm.h ****         /** Stops the Control ADCs */
 118:../../libDaisy//src/daisy_patch_sm.h ****         void StopAdc();
 119:../../libDaisy//src/daisy_patch_sm.h **** 
 120:../../libDaisy//src/daisy_patch_sm.h ****         /** Reads and filters all of the analog control inputs */
 121:../../libDaisy//src/daisy_patch_sm.h ****         void ProcessAnalogControls();
 122:../../libDaisy//src/daisy_patch_sm.h **** 
 123:../../libDaisy//src/daisy_patch_sm.h ****         /** Reads and debounces any of the digital control inputs 
 124:../../libDaisy//src/daisy_patch_sm.h ****          *  This does nothing on this board at this time.
 125:../../libDaisy//src/daisy_patch_sm.h ****          */
 126:../../libDaisy//src/daisy_patch_sm.h ****         void ProcessDigitalControls();
 127:../../libDaisy//src/daisy_patch_sm.h **** 
 128:../../libDaisy//src/daisy_patch_sm.h ****         /** Does both of the above */
 129:../../libDaisy//src/daisy_patch_sm.h ****         void ProcessAllControls()
 934              		.loc 4 129 14 view .LVU212
 935              	.LBB357:
 130:../../libDaisy//src/daisy_patch_sm.h ****         {
 131:../../libDaisy//src/daisy_patch_sm.h ****             ProcessAnalogControls();
 936              		.loc 4 131 13 view .LVU213
 937              	.LBE357:
 938              	.LBE356:
ARM GAS  /var/folders/hl/qgbwny5j0fd895c2c41bk3tw0000gp/T//ccSxPsAD.s 			page 32


  87:CloudPort.cpp **** 	hw.ProcessAllControls();
 939              		.loc 12 87 1 is_stmt 0 view .LVU214
 940 0000 F8B5     		push	{r3, r4, r5, r6, r7, lr}
 941              		.cfi_def_cfa_offset 24
 942              		.cfi_offset 3, -24
 943              		.cfi_offset 4, -20
 944              		.cfi_offset 5, -16
 945              		.cfi_offset 6, -12
 946              		.cfi_offset 7, -8
 947              		.cfi_offset 14, -4
  87:CloudPort.cpp **** 	hw.ProcessAllControls();
 948              		.loc 12 87 1 view .LVU215
 949 0002 1546     		mov	r5, r2
 950 0004 0746     		mov	r7, r0
 951              	.LBB360:
 952              	.LBB358:
 953              		.loc 4 131 34 view .LVU216
 954 0006 0C48     		ldr	r0, .L62
 955              	.LVL63:
 956              		.loc 4 131 34 view .LVU217
 957              	.LBE358:
 958              	.LBE360:
  87:CloudPort.cpp **** 	hw.ProcessAllControls();
 959              		.loc 12 87 1 view .LVU218
 960 0008 0E46     		mov	r6, r1
 961              	.LBB361:
 962              	.LBB359:
 963              		.loc 4 131 34 view .LVU219
 964 000a FFF7FEFF 		bl	_ZN5daisy8patch_sm12DaisyPatchSM21ProcessAnalogControlsEv
 965              	.LVL64:
 132:../../libDaisy//src/daisy_patch_sm.h ****             ProcessDigitalControls();
 966              		.loc 4 132 13 is_stmt 1 view .LVU220
 967              		.loc 4 132 35 is_stmt 0 view .LVU221
 968 000e 0A48     		ldr	r0, .L62
 969 0010 FFF7FEFF 		bl	_ZN5daisy8patch_sm12DaisyPatchSM22ProcessDigitalControlsEv
 970              	.LVL65:
 971              		.loc 4 132 35 view .LVU222
 972              	.LBE359:
 973              	.LBE361:
  89:CloudPort.cpp **** 	for (size_t i = 0; i < size; i++)
 974              		.loc 12 89 2 is_stmt 1 view .LVU223
 975              	.LBB362:
 976              		.loc 12 89 23 view .LVU224
 977 0014 7DB1     		cbz	r5, .L54
 978 0016 3B68     		ldr	r3, [r7]
 979 0018 3468     		ldr	r4, [r6]
 980 001a 7868     		ldr	r0, [r7, #4]
 981 001c 03EB850C 		add	ip, r3, r5, lsl #2
 982 0020 7168     		ldr	r1, [r6, #4]
 983              	.LVL66:
 984              	.L56:
  90:CloudPort.cpp **** 	{
  91:CloudPort.cpp **** 		OUT_L[i] = IN_L[i];
 985              		.loc 12 91 3 discriminator 2 view .LVU225
 986              		.loc 12 91 20 is_stmt 0 discriminator 2 view .LVU226
 987 0022 53F8042B 		ldr	r2, [r3], #4	@ float
 988              		.loc 12 91 12 discriminator 2 view .LVU227
ARM GAS  /var/folders/hl/qgbwny5j0fd895c2c41bk3tw0000gp/T//ccSxPsAD.s 			page 33


 989 0026 44F8042B 		str	r2, [r4], #4	@ float
  92:CloudPort.cpp **** 		OUT_R[i] = IN_R[i];
 990              		.loc 12 92 3 is_stmt 1 discriminator 2 view .LVU228
  89:CloudPort.cpp **** 	for (size_t i = 0; i < size; i++)
 991              		.loc 12 89 23 is_stmt 0 discriminator 2 view .LVU229
 992 002a 6345     		cmp	r3, ip
 993              		.loc 12 92 20 discriminator 2 view .LVU230
 994 002c 50F8042B 		ldr	r2, [r0], #4	@ float
 995              		.loc 12 92 12 discriminator 2 view .LVU231
 996 0030 41F8042B 		str	r2, [r1], #4	@ float
  89:CloudPort.cpp **** 	for (size_t i = 0; i < size; i++)
 997              		.loc 12 89 2 is_stmt 1 discriminator 2 view .LVU232
  89:CloudPort.cpp **** 	for (size_t i = 0; i < size; i++)
 998              		.loc 12 89 23 discriminator 2 view .LVU233
 999 0034 F5D1     		bne	.L56
 1000              	.L54:
 1001              	.LBE362:
  93:CloudPort.cpp **** 	}
  94:CloudPort.cpp **** }
 1002              		.loc 12 94 1 is_stmt 0 view .LVU234
 1003 0036 F8BD     		pop	{r3, r4, r5, r6, r7, pc}
 1004              	.LVL67:
 1005              	.L63:
 1006              		.loc 12 94 1 view .LVU235
 1007              		.align	2
 1008              	.L62:
 1009 0038 00000000 		.word	.LANCHOR19
 1010              		.cfi_endproc
 1011              	.LFE4800:
 1013              		.section	.text.startup.main,"ax",%progbits
 1014              		.align	1
 1015              		.p2align 2,,3
 1016              		.global	main
 1017              		.syntax unified
 1018              		.thumb
 1019              		.thumb_func
 1020              		.fpu fpv5-d16
 1022              	main:
 1023              	.LFB4801:
  95:CloudPort.cpp **** 
  96:CloudPort.cpp **** int main(void)
  97:CloudPort.cpp **** {
 1024              		.loc 12 97 1 is_stmt 1 view -0
 1025              		.cfi_startproc
 1026              		@ Volatile: function does not return.
 1027              		@ args = 0, pretend = 0, frame = 32
 1028              		@ frame_needed = 0, uses_anonymous_args = 0
  98:CloudPort.cpp **** 	
  99:CloudPort.cpp **** 	hw.Init();
 1029              		.loc 12 99 2 view .LVU237
  97:CloudPort.cpp **** 	
 1030              		.loc 12 97 1 is_stmt 0 view .LVU238
 1031 0000 80B5     		push	{r7, lr}
 1032              		.cfi_def_cfa_offset 8
 1033              		.cfi_offset 7, -8
 1034              		.cfi_offset 14, -4
 100:CloudPort.cpp ****     lpParam.Init(hw.controls[3], 20, 20000, ::daisy::Parameter::LOGARITHMIC);
ARM GAS  /var/folders/hl/qgbwny5j0fd895c2c41bk3tw0000gp/T//ccSxPsAD.s 			page 34


 1035              		.loc 12 100 31 view .LVU239
 1036 0002 274F     		ldr	r7, .L76
  97:CloudPort.cpp **** 	
 1037              		.loc 12 97 1 view .LVU240
 1038 0004 88B0     		sub	sp, sp, #32
 1039              		.cfi_def_cfa_offset 40
 101:CloudPort.cpp ****     hw.StartAdc();
 102:CloudPort.cpp ****     
 103:CloudPort.cpp ****     
 104:CloudPort.cpp ****     gAudioStarted = true;
 105:CloudPort.cpp ****     reverb_app.Init();
 1040              		.loc 12 105 20 view .LVU241
 1041 0006 DFF8B480 		ldr	r8, .L76+28
  99:CloudPort.cpp ****     lpParam.Init(hw.controls[3], 20, 20000, ::daisy::Parameter::LOGARITHMIC);
 1042              		.loc 12 99 9 view .LVU242
 1043 000a A7F19000 		sub	r0, r7, #144
 104:CloudPort.cpp ****     reverb_app.Init();
 1044              		.loc 12 104 19 view .LVU243
 1045 000e 254E     		ldr	r6, .L76+4
  99:CloudPort.cpp ****     lpParam.Init(hw.controls[3], 20, 20000, ::daisy::Parameter::LOGARITHMIC);
 1046              		.loc 12 99 9 view .LVU244
 1047 0010 FFF7FEFF 		bl	_ZN5daisy8patch_sm12DaisyPatchSM4InitEv
 1048              	.LVL68:
 100:CloudPort.cpp ****     hw.StartAdc();
 1049              		.loc 12 100 5 is_stmt 1 view .LVU245
 100:CloudPort.cpp ****     hw.StartAdc();
 1050              		.loc 12 100 31 is_stmt 0 view .LVU246
 1051 0014 EC46     		mov	ip, sp
 100:CloudPort.cpp ****     hw.StartAdc();
 1052              		.loc 12 100 17 view .LVU247
 1053 0016 B3EE040A 		vmov.f32	s0, #2.0e+1
 1054 001a DFED230A 		vldr.32	s1, .L76+8
 106:CloudPort.cpp ****     gApp = &reverb_app;
 1055              		.loc 12 106 10 view .LVU248
 1056 001e 234D     		ldr	r5, .L76+12
 1057 0020 234C     		ldr	r4, .L76+16
 100:CloudPort.cpp ****     hw.StartAdc();
 1058              		.loc 12 100 31 view .LVU249
 1059 0022 0FCF     		ldmia	r7!, {r0, r1, r2, r3}
 1060 0024 ACE80F00 		stmia	ip!, {r0, r1, r2, r3}
 1061 0028 97E80F00 		ldm	r7, {r0, r1, r2, r3}
 1062 002c 8CE80F00 		stm	ip, {r0, r1, r2, r3}
 100:CloudPort.cpp ****     hw.StartAdc();
 1063              		.loc 12 100 17 view .LVU250
 1064 0030 0222     		movs	r2, #2
 1065 0032 6946     		mov	r1, sp
 1066 0034 1F48     		ldr	r0, .L76+20
 1067 0036 FFF7FEFF 		bl	_ZN5daisy9Parameter4InitENS_13AnalogControlEffNS0_5CurveE
 1068              	.LVL69:
 1069              	.LBB363:
 1070              	.LBI363:
 1071              		.loc 3 23 5 is_stmt 1 view .LVU251
 1072              		.loc 3 23 5 is_stmt 0 view .LVU252
 1073              	.LBE363:
 101:CloudPort.cpp ****     
 1074              		.loc 12 101 5 is_stmt 1 view .LVU253
 101:CloudPort.cpp ****     
ARM GAS  /var/folders/hl/qgbwny5j0fd895c2c41bk3tw0000gp/T//ccSxPsAD.s 			page 35


 1075              		.loc 12 101 16 is_stmt 0 view .LVU254
 1076 003a A7F1A000 		sub	r0, r7, #160
 1077 003e FFF7FEFF 		bl	_ZN5daisy8patch_sm12DaisyPatchSM8StartAdcEv
 1078              	.LVL70:
 104:CloudPort.cpp ****     reverb_app.Init();
 1079              		.loc 12 104 5 is_stmt 1 view .LVU255
 104:CloudPort.cpp ****     reverb_app.Init();
 1080              		.loc 12 104 19 is_stmt 0 view .LVU256
 1081 0042 0123     		movs	r3, #1
 105:CloudPort.cpp ****     gApp = &reverb_app;
 1082              		.loc 12 105 20 view .LVU257
 1083 0044 4046     		mov	r0, r8
 104:CloudPort.cpp ****     reverb_app.Init();
 1084              		.loc 12 104 19 view .LVU258
 1085 0046 3370     		strb	r3, [r6]
 105:CloudPort.cpp ****     gApp = &reverb_app;
 1086              		.loc 12 105 5 is_stmt 1 view .LVU259
 105:CloudPort.cpp ****     gApp = &reverb_app;
 1087              		.loc 12 105 20 is_stmt 0 view .LVU260
 1088 0048 FFF7FEFF 		bl	_ZN12CloudSeedApp4InitEv
 1089              	.LVL71:
 1090              		.loc 12 106 5 is_stmt 1 view .LVU261
 107:CloudPort.cpp ****     hw.StartAudio(BouquetCallback);
 1091              		.loc 12 107 18 is_stmt 0 view .LVU262
 1092 004c 1A49     		ldr	r1, .L76+24
 1093 004e A7F1A000 		sub	r0, r7, #160
 106:CloudPort.cpp ****     hw.StartAudio(BouquetCallback);
 1094              		.loc 12 106 10 view .LVU263
 1095 0052 C5F80080 		str	r8, [r5]
 1096              		.loc 12 107 5 is_stmt 1 view .LVU264
 1097              		.loc 12 107 18 is_stmt 0 view .LVU265
 1098 0056 FFF7FEFF 		bl	_ZN5daisy8patch_sm12DaisyPatchSM10StartAudioEPFvPKPKfPPfjE
 1099              	.LVL72:
 108:CloudPort.cpp **** 
 109:CloudPort.cpp **** 	hw.SetAudioBlockSize(4); // number of samples handled per callback
 1100              		.loc 12 109 2 is_stmt 1 view .LVU266
 1101              		.loc 12 109 22 is_stmt 0 view .LVU267
 1102 005a 0421     		movs	r1, #4
 1103 005c A7F1A000 		sub	r0, r7, #160
 1104 0060 FFF7FEFF 		bl	_ZN5daisy8patch_sm12DaisyPatchSM17SetAudioBlockSizeEj
 1105              	.LVL73:
 110:CloudPort.cpp **** 
 111:CloudPort.cpp **** 	InitBed();
 1106              		.loc 12 111 2 is_stmt 1 view .LVU268
 1107              		.loc 12 111 9 is_stmt 0 view .LVU269
 1108 0064 FFF7FEFF 		bl	_ZN5daisy8patch_sm7InitBedEv
 1109              	.LVL74:
 112:CloudPort.cpp **** 
 113:CloudPort.cpp **** 	hw.SetAudioSampleRate(SaiHandle::Config::SampleRate::SAI_48KHZ);
 1110              		.loc 12 113 2 is_stmt 1 view .LVU270
 1111              		.loc 12 113 23 is_stmt 0 view .LVU271
 1112 0068 0321     		movs	r1, #3
 1113 006a A7F1A000 		sub	r0, r7, #160
 1114 006e FFF7FEFF 		bl	_ZN5daisy8patch_sm12DaisyPatchSM18SetAudioSampleRateENS_9SaiHandle6Config10SampleRateE
 1115              	.LVL75:
 1116              	.L67:
 114:CloudPort.cpp **** 	while(1) 
ARM GAS  /var/folders/hl/qgbwny5j0fd895c2c41bk3tw0000gp/T//ccSxPsAD.s 			page 36


 1117              		.loc 12 114 2 is_stmt 1 view .LVU272
 115:CloudPort.cpp **** 	{
 116:CloudPort.cpp **** 		hw.Delay(1);
 1118              		.loc 12 116 3 view .LVU273
 1119              	.LBB364:
 1120              	.LBI364:
 133:../../libDaisy//src/daisy_patch_sm.h ****         }
 134:../../libDaisy//src/daisy_patch_sm.h **** 
 135:../../libDaisy//src/daisy_patch_sm.h ****         /** Returns the current value for one of the ADCs */
 136:../../libDaisy//src/daisy_patch_sm.h ****         float GetAdcValue(int idx);
 137:../../libDaisy//src/daisy_patch_sm.h **** 
 138:../../libDaisy//src/daisy_patch_sm.h ****         /** Returns the STM32 port/pin combo for the desired pin (or an invalid pin for HW only pin
 139:../../libDaisy//src/daisy_patch_sm.h ****          *
 140:../../libDaisy//src/daisy_patch_sm.h ****          *  Macros at top of file can be used in place of separate arguments (i.e. GetPin(A4), etc.
 141:../../libDaisy//src/daisy_patch_sm.h ****          * 
 142:../../libDaisy//src/daisy_patch_sm.h ****          *  \param bank should be one of the PinBank options above
 143:../../libDaisy//src/daisy_patch_sm.h ****          *  \param idx pin number between 1 and 10 for each of the pins on each header.
 144:../../libDaisy//src/daisy_patch_sm.h ****          */
 145:../../libDaisy//src/daisy_patch_sm.h ****         dsy_gpio_pin GetPin(const PinBank bank, const int idx);
 146:../../libDaisy//src/daisy_patch_sm.h **** 
 147:../../libDaisy//src/daisy_patch_sm.h ****         /** Starts the DAC for the CV Outputs 
 148:../../libDaisy//src/daisy_patch_sm.h ****          * 
 149:../../libDaisy//src/daisy_patch_sm.h ****          *  By default this starts by running the 
 150:../../libDaisy//src/daisy_patch_sm.h ****          *  internal callback at 48kHz, which will 
 151:../../libDaisy//src/daisy_patch_sm.h ****          *  update the values based on the SetCvOut 
 152:../../libDaisy//src/daisy_patch_sm.h ****          *  function.
 153:../../libDaisy//src/daisy_patch_sm.h ****          * 
 154:../../libDaisy//src/daisy_patch_sm.h ****          *  This is started automatically when Init() is called.
 155:../../libDaisy//src/daisy_patch_sm.h ****          */
 156:../../libDaisy//src/daisy_patch_sm.h ****         void StartDac(DacHandle::DacCallback callback = nullptr);
 157:../../libDaisy//src/daisy_patch_sm.h **** 
 158:../../libDaisy//src/daisy_patch_sm.h ****         /** Stop the DAC from updating. 
 159:../../libDaisy//src/daisy_patch_sm.h ****          *  This will suspend the CV Outputs from changing 
 160:../../libDaisy//src/daisy_patch_sm.h ****          */
 161:../../libDaisy//src/daisy_patch_sm.h ****         void StopDac();
 162:../../libDaisy//src/daisy_patch_sm.h **** 
 163:../../libDaisy//src/daisy_patch_sm.h ****         /** Sets specified DAC channel to the target voltage. 
 164:../../libDaisy//src/daisy_patch_sm.h ****          *  This may not be 100% accurate without calibration. 
 165:../../libDaisy//src/daisy_patch_sm.h ****          *  
 166:../../libDaisy//src/daisy_patch_sm.h ****          *  \todo Add Calibration to CV Outputs
 167:../../libDaisy//src/daisy_patch_sm.h ****          * 
 168:../../libDaisy//src/daisy_patch_sm.h ****          *  \param channel desired channel to update. 0 is both, otherwise 1 or 2 are valid.
 169:../../libDaisy//src/daisy_patch_sm.h ****          *  \param voltage value in Volts that you'd like to write to the DAC. The valid range is 0
 170:../../libDaisy//src/daisy_patch_sm.h ****          */
 171:../../libDaisy//src/daisy_patch_sm.h ****         void WriteCvOut(const int channel, float voltage);
 172:../../libDaisy//src/daisy_patch_sm.h **** 
 173:../../libDaisy//src/daisy_patch_sm.h ****         /** Here are some wrappers around libDaisy Static functions 
 174:../../libDaisy//src/daisy_patch_sm.h ****          *  to provide simpler syntax to those who prefer it. */
 175:../../libDaisy//src/daisy_patch_sm.h **** 
 176:../../libDaisy//src/daisy_patch_sm.h ****         /** Delays for a specified number of milliseconds */
 177:../../libDaisy//src/daisy_patch_sm.h ****         inline void Delay(uint32_t milliseconds)
 1121              		.loc 4 177 21 view .LVU274
 1122              	.LBB365:
 178:../../libDaisy//src/daisy_patch_sm.h ****         {
 179:../../libDaisy//src/daisy_patch_sm.h ****             System::Delay(milliseconds);
 1123              		.loc 4 179 13 view .LVU275
 1124              		.loc 4 179 26 is_stmt 0 view .LVU276
ARM GAS  /var/folders/hl/qgbwny5j0fd895c2c41bk3tw0000gp/T//ccSxPsAD.s 			page 37


 1125 0072 0120     		movs	r0, #1
 1126 0074 FFF7FEFF 		bl	_ZN5daisy6System5DelayEm
 1127              	.LVL76:
 1128              		.loc 4 179 26 view .LVU277
 1129              	.LBE365:
 1130              	.LBE364:
 117:CloudPort.cpp **** 
 118:CloudPort.cpp **** 		if (!gAudioStarted)
 1131              		.loc 12 118 3 is_stmt 1 view .LVU278
 1132 0078 3378     		ldrb	r3, [r6]	@ zero_extendqisi2
 1133 007a 73B1     		cbz	r3, .L75
 1134              	.L65:
 119:CloudPort.cpp **** 		{
 120:CloudPort.cpp **** 			updateControls();
 121:CloudPort.cpp **** 		}
 122:CloudPort.cpp **** 	
 123:CloudPort.cpp **** 		if (gApp)
 1135              		.loc 12 123 3 view .LVU279
 124:CloudPort.cpp **** 		{
 125:CloudPort.cpp **** 			gApp->MainLoopCallback(); 
 1136              		.loc 12 125 4 view .LVU280
 123:CloudPort.cpp **** 		{
 1137              		.loc 12 123 7 is_stmt 0 view .LVU281
 1138 007c 2868     		ldr	r0, [r5]
 123:CloudPort.cpp **** 		{
 1139              		.loc 12 123 3 view .LVU282
 1140 007e 08B1     		cbz	r0, .L66
 1141              		.loc 12 125 26 view .LVU283
 1142 0080 FFF7FEFF 		bl	_ZN12CloudSeedApp16MainLoopCallbackEv
 1143              	.LVL77:
 1144              	.L66:
 126:CloudPort.cpp **** 		}
 127:CloudPort.cpp **** 	
 128:CloudPort.cpp **** 		
 129:CloudPort.cpp **** 		//turn off display after 3 seconds hold
 130:CloudPort.cpp **** 		if (gRisingEdge)
 1145              		.loc 12 130 3 is_stmt 1 view .LVU284
 131:CloudPort.cpp **** 		{
 132:CloudPort.cpp **** 			
 133:CloudPort.cpp **** 			gRisingEdge = false;
 1146              		.loc 12 133 4 view .LVU285
 130:CloudPort.cpp **** 		{
 1147              		.loc 12 130 3 is_stmt 0 view .LVU286
 1148 0084 2378     		ldrb	r3, [r4]	@ zero_extendqisi2
 1149              		.loc 12 133 16 view .LVU287
 1150 0086 0022     		movs	r2, #0
 130:CloudPort.cpp **** 		{
 1151              		.loc 12 130 3 view .LVU288
 1152 0088 002B     		cmp	r3, #0
 1153 008a F2D0     		beq	.L67
 1154              	.LBB368:
 1155              	.LBB366:
 1156              		.loc 4 179 26 view .LVU289
 1157 008c 0120     		movs	r0, #1
 1158              	.LBE366:
 1159              	.LBE368:
 1160              		.loc 12 133 16 view .LVU290
ARM GAS  /var/folders/hl/qgbwny5j0fd895c2c41bk3tw0000gp/T//ccSxPsAD.s 			page 38


 1161 008e 2270     		strb	r2, [r4]
 114:CloudPort.cpp **** 	{
 1162              		.loc 12 114 2 is_stmt 1 view .LVU291
 116:CloudPort.cpp **** 
 1163              		.loc 12 116 3 view .LVU292
 1164              	.LVL78:
 1165              	.LBB369:
 177:../../libDaisy//src/daisy_patch_sm.h ****         {
 1166              		.loc 4 177 21 view .LVU293
 1167              	.LBB367:
 1168              		.loc 4 179 13 view .LVU294
 1169              		.loc 4 179 26 is_stmt 0 view .LVU295
 1170 0090 FFF7FEFF 		bl	_ZN5daisy6System5DelayEm
 1171              	.LVL79:
 1172              		.loc 4 179 26 view .LVU296
 1173              	.LBE367:
 1174              	.LBE369:
 118:CloudPort.cpp **** 		{
 1175              		.loc 12 118 3 is_stmt 1 view .LVU297
 1176 0094 3378     		ldrb	r3, [r6]	@ zero_extendqisi2
 1177 0096 002B     		cmp	r3, #0
 1178 0098 F0D1     		bne	.L65
 1179              	.L75:
 120:CloudPort.cpp **** 		}
 1180              		.loc 12 120 4 view .LVU298
 120:CloudPort.cpp **** 		}
 1181              		.loc 12 120 18 is_stmt 0 view .LVU299
 1182 009a FFF7FEFF 		bl	_Z14updateControlsv
 1183              	.LVL80:
 1184 009e EDE7     		b	.L65
 1185              	.L77:
 1186              		.align	2
 1187              	.L76:
 1188 00a0 90000000 		.word	.LANCHOR19+144
 1189 00a4 00000000 		.word	.LANCHOR23
 1190 00a8 00409C46 		.word	1184645120
 1191 00ac 00000000 		.word	.LANCHOR21
 1192 00b0 00000000 		.word	.LANCHOR25
 1193 00b4 00000000 		.word	.LANCHOR22
 1194 00b8 00000000 		.word	_ZL15BouquetCallbackPKPKfPPfj
 1195 00bc 00000000 		.word	.LANCHOR24
 1196              		.cfi_endproc
 1197              	.LFE4801:
 1199              		.section	.text.startup._GLOBAL__sub_I__ZN5daisy8patch_sm8gen_led1E,"ax",%progbits
 1200              		.align	1
 1201              		.p2align 2,,3
 1202              		.syntax unified
 1203              		.thumb
 1204              		.thumb_func
 1205              		.fpu fpv5-d16
 1207              	_GLOBAL__sub_I__ZN5daisy8patch_sm8gen_led1E:
 1208              	.LFB5361:
 134:CloudPort.cpp **** 		}
 135:CloudPort.cpp **** 	}
 136:CloudPort.cpp **** }
 1209              		.loc 12 136 1 is_stmt 1 view -0
 1210              		.cfi_startproc
ARM GAS  /var/folders/hl/qgbwny5j0fd895c2c41bk3tw0000gp/T//ccSxPsAD.s 			page 39


 1211              		@ args = 0, pretend = 0, frame = 0
 1212              		@ frame_needed = 0, uses_anonymous_args = 0
 1213              	.LBB494:
 1214              	.LBI494:
 1215              		.loc 12 136 1 view .LVU301
 1216              	.LVL81:
 1217              	.LBB495:
 1218              	.LBB496:
 1219              	.LBI496:
 1220              		.file 13 "../../libDaisy//src/per/gpio.h"
   1:../../libDaisy//src/per/gpio.h **** #pragma once
   2:../../libDaisy//src/per/gpio.h **** #ifndef DSY_GPIO_H
   3:../../libDaisy//src/per/gpio.h **** #define DSY_GPIO_H
   4:../../libDaisy//src/per/gpio.h **** #include "daisy_core.h"
   5:../../libDaisy//src/per/gpio.h **** 
   6:../../libDaisy//src/per/gpio.h **** #ifdef __cplusplus
   7:../../libDaisy//src/per/gpio.h **** 
   8:../../libDaisy//src/per/gpio.h **** namespace daisy
   9:../../libDaisy//src/per/gpio.h **** {
  10:../../libDaisy//src/per/gpio.h **** /** @brief General Purpose I/O control 
  11:../../libDaisy//src/per/gpio.h ****  *  @details peripheral control over a single GPIO
  12:../../libDaisy//src/per/gpio.h ****  *  @ingroup peripheral
  13:../../libDaisy//src/per/gpio.h ****  *   
  14:../../libDaisy//src/per/gpio.h ****  *  Button Input (with internal Pullup resistor)
  15:../../libDaisy//src/per/gpio.h ****  *  @include GPIO_Input.cpp 
  16:../../libDaisy//src/per/gpio.h ****  * 
  17:../../libDaisy//src/per/gpio.h ****  *  Output Example (perfect for blinking an LED)
  18:../../libDaisy//src/per/gpio.h ****  *  @include GPIO_Output.cpp
  19:../../libDaisy//src/per/gpio.h ****  * 
  20:../../libDaisy//src/per/gpio.h **** */
  21:../../libDaisy//src/per/gpio.h **** class GPIO
  22:../../libDaisy//src/per/gpio.h **** {
  23:../../libDaisy//src/per/gpio.h ****   public:
  24:../../libDaisy//src/per/gpio.h ****     /** @brief Mode of operation for the specified GPIO */
  25:../../libDaisy//src/per/gpio.h ****     enum class Mode
  26:../../libDaisy//src/per/gpio.h ****     {
  27:../../libDaisy//src/per/gpio.h ****         INPUT,     /**< Input for reading state of pin */
  28:../../libDaisy//src/per/gpio.h ****         OUTPUT,    /**< Output w/ push-pull configuration */
  29:../../libDaisy//src/per/gpio.h ****         OUTPUT_OD, /**< Output w/ open-drain configuration */
  30:../../libDaisy//src/per/gpio.h ****         ANALOG,    /**< Analog for connection to ADC or DAC peripheral */
  31:../../libDaisy//src/per/gpio.h ****     };
  32:../../libDaisy//src/per/gpio.h **** 
  33:../../libDaisy//src/per/gpio.h ****     /** @brief Configures whether an internal Pull up or Pull down resistor is used. 
  34:../../libDaisy//src/per/gpio.h ****      *  
  35:../../libDaisy//src/per/gpio.h ****      * Internal Pull up/down resistors are typically 40k ohms, and will be between
  36:../../libDaisy//src/per/gpio.h ****      * 30k and 50k
  37:../../libDaisy//src/per/gpio.h ****      * 
  38:../../libDaisy//src/per/gpio.h ****      * When the Pin is configured in Analog mode, the pull up/down resistors are
  39:../../libDaisy//src/per/gpio.h ****      * disabled by hardware. 
  40:../../libDaisy//src/per/gpio.h ****      */
  41:../../libDaisy//src/per/gpio.h ****     enum class Pull
  42:../../libDaisy//src/per/gpio.h ****     {
  43:../../libDaisy//src/per/gpio.h ****         NOPULL,   /**< No pull up resistor */
  44:../../libDaisy//src/per/gpio.h ****         PULLUP,   /**< Internal pull up enabled */
  45:../../libDaisy//src/per/gpio.h ****         PULLDOWN, /**< Internal pull down enabled*/
  46:../../libDaisy//src/per/gpio.h ****     };
  47:../../libDaisy//src/per/gpio.h **** 
ARM GAS  /var/folders/hl/qgbwny5j0fd895c2c41bk3tw0000gp/T//ccSxPsAD.s 			page 40


  48:../../libDaisy//src/per/gpio.h ****     /** @brief Output speed controls the drive strength, and slew rate of the pin */
  49:../../libDaisy//src/per/gpio.h ****     enum class Speed
  50:../../libDaisy//src/per/gpio.h ****     {
  51:../../libDaisy//src/per/gpio.h ****         LOW,
  52:../../libDaisy//src/per/gpio.h ****         MEDIUM,
  53:../../libDaisy//src/per/gpio.h ****         HIGH,
  54:../../libDaisy//src/per/gpio.h ****         VERY_HIGH,
  55:../../libDaisy//src/per/gpio.h ****     };
  56:../../libDaisy//src/per/gpio.h **** 
  57:../../libDaisy//src/per/gpio.h ****     /** @brief Configuration for a given GPIO */
  58:../../libDaisy//src/per/gpio.h ****     struct Config
  59:../../libDaisy//src/per/gpio.h ****     {
  60:../../libDaisy//src/per/gpio.h ****         Pin   pin;
  61:../../libDaisy//src/per/gpio.h ****         Mode  mode;
  62:../../libDaisy//src/per/gpio.h ****         Pull  pull;
  63:../../libDaisy//src/per/gpio.h ****         Speed speed;
  64:../../libDaisy//src/per/gpio.h **** 
  65:../../libDaisy//src/per/gpio.h ****         /** Constructor with no arguments will prepare an invalid GPIO set as
  66:../../libDaisy//src/per/gpio.h ****          *  an input, with no pullup. 
  67:../../libDaisy//src/per/gpio.h ****          */
  68:../../libDaisy//src/per/gpio.h ****         Config()
  69:../../libDaisy//src/per/gpio.h ****         : pin(), mode(Mode::INPUT), pull(Pull::NOPULL), speed(Speed::LOW)
  70:../../libDaisy//src/per/gpio.h ****         {
  71:../../libDaisy//src/per/gpio.h ****         }
  72:../../libDaisy//src/per/gpio.h ****     };
  73:../../libDaisy//src/per/gpio.h **** 
  74:../../libDaisy//src/per/gpio.h ****     GPIO() {}
 1221              		.loc 13 74 5 view .LVU302
 1222              	.LBB497:
 1223              	.LBB498:
 1224              	.LBI498:
  68:../../libDaisy//src/per/gpio.h ****         : pin(), mode(Mode::INPUT), pull(Pull::NOPULL), speed(Speed::LOW)
 1225              		.loc 13 68 9 view .LVU303
 1226              	.LBB499:
 1227              	.LBB500:
 1228              	.LBB501:
 1229              	.LBI501:
 1230              		.file 14 "../../libDaisy//src/daisy_core.h"
   1:../../libDaisy//src/daisy_core.h **** #pragma once
   2:../../libDaisy//src/daisy_core.h **** #ifndef DSY_CORE_HW_H
   3:../../libDaisy//src/daisy_core.h **** #define DSY_CORE_HW_H /**< & */
   4:../../libDaisy//src/daisy_core.h **** #include <stdint.h>
   5:../../libDaisy//src/daisy_core.h **** #include <stdlib.h>
   6:../../libDaisy//src/daisy_core.h **** 
   7:../../libDaisy//src/daisy_core.h **** #if defined(_MSC_VER)
   8:../../libDaisy//src/daisy_core.h **** #define FORCE_INLINE __forceinline /**< & */
   9:../../libDaisy//src/daisy_core.h **** #elif defined(__clang__)
  10:../../libDaisy//src/daisy_core.h **** #define FORCE_INLINE inline __attribute__((always_inline)) /**< & */
  11:../../libDaisy//src/daisy_core.h **** #pragma clang diagnostic ignored "-Wduplicate-decl-specifier"
  12:../../libDaisy//src/daisy_core.h **** #elif defined(__GNUC__)
  13:../../libDaisy//src/daisy_core.h **** #define FORCE_INLINE inline __attribute__((always_inline)) /**< & */
  14:../../libDaisy//src/daisy_core.h **** #else
  15:../../libDaisy//src/daisy_core.h **** #error unknown compiler
  16:../../libDaisy//src/daisy_core.h **** #endif
  17:../../libDaisy//src/daisy_core.h **** 
  18:../../libDaisy//src/daisy_core.h **** /** @addtogroup utility
  19:../../libDaisy//src/daisy_core.h ****     @{
ARM GAS  /var/folders/hl/qgbwny5j0fd895c2c41bk3tw0000gp/T//ccSxPsAD.s 			page 41


  20:../../libDaisy//src/daisy_core.h **** */
  21:../../libDaisy//src/daisy_core.h **** 
  22:../../libDaisy//src/daisy_core.h **** /** Macro for area of memory that is configured as cacheless
  23:../../libDaisy//src/daisy_core.h **** This should be used primarily for DMA buffers, and the like.
  24:../../libDaisy//src/daisy_core.h **** */
  25:../../libDaisy//src/daisy_core.h **** #define DMA_BUFFER_MEM_SECTION __attribute__((section(".sram1_bss")))
  26:../../libDaisy//src/daisy_core.h **** /** 
  27:../../libDaisy//src/daisy_core.h **** THE DTCM RAM section is also non-cached. However, is not suitable 
  28:../../libDaisy//src/daisy_core.h **** for DMA transfers. Performance is on par with internal SRAM w/ 
  29:../../libDaisy//src/daisy_core.h **** cache enabled.
  30:../../libDaisy//src/daisy_core.h **** */
  31:../../libDaisy//src/daisy_core.h **** #define DTCM_MEM_SECTION __attribute__((section(".dtcmram_bss")))
  32:../../libDaisy//src/daisy_core.h **** 
  33:../../libDaisy//src/daisy_core.h **** #define FBIPMAX 0.999985f             /**< close to 1.0f-LSB at 16 bit */
  34:../../libDaisy//src/daisy_core.h **** #define FBIPMIN (-FBIPMAX)            /**< - (1 - LSB) */
  35:../../libDaisy//src/daisy_core.h **** #define U82F_SCALE 0.0078740f         /**< 1 / 127 */
  36:../../libDaisy//src/daisy_core.h **** #define F2U8_SCALE 127.0f             /**< 128 - 1 */
  37:../../libDaisy//src/daisy_core.h **** #define S82F_SCALE 0.0078125f         /**< 1 / (2**7) */
  38:../../libDaisy//src/daisy_core.h **** #define F2S8_SCALE 127.0f             /**< (2 ** 7) - 1 */
  39:../../libDaisy//src/daisy_core.h **** #define S162F_SCALE 3.0517578125e-05f /**< 1 / (2** 15) */
  40:../../libDaisy//src/daisy_core.h **** #define F2S16_SCALE 32767.0f          /**< (2 ** 15) - 1 */
  41:../../libDaisy//src/daisy_core.h **** #define F2S24_SCALE 8388608.0f        /**< 2 ** 23 */
  42:../../libDaisy//src/daisy_core.h **** #define S242F_SCALE 1.192092896e-07f  /**< 1 / (2 ** 23) */
  43:../../libDaisy//src/daisy_core.h **** #define S24SIGN 0x800000              /**< 2 ** 23 */
  44:../../libDaisy//src/daisy_core.h **** #define S322F_SCALE 4.6566129e-10f    /**< 1 / (2** 31) */
  45:../../libDaisy//src/daisy_core.h **** #define F2S32_SCALE 2147483647.f      /**< (2 ** 31) - 1 */
  46:../../libDaisy//src/daisy_core.h **** 
  47:../../libDaisy//src/daisy_core.h **** 
  48:../../libDaisy//src/daisy_core.h **** /** shorthand macro for simplifying the reading of the left 
  49:../../libDaisy//src/daisy_core.h ****  *  channel of a non-interleaved output buffer named out */
  50:../../libDaisy//src/daisy_core.h **** #define OUT_L out[0]
  51:../../libDaisy//src/daisy_core.h **** 
  52:../../libDaisy//src/daisy_core.h **** /** shorthand macro for simplifying the reading of the right 
  53:../../libDaisy//src/daisy_core.h ****  *  channel of a non-interleaved output buffer named out */
  54:../../libDaisy//src/daisy_core.h **** #define OUT_R out[1]
  55:../../libDaisy//src/daisy_core.h **** 
  56:../../libDaisy//src/daisy_core.h **** /** shorthand macro for simplifying the reading of the left 
  57:../../libDaisy//src/daisy_core.h ****  *  channel of a non-interleaved input buffer named in */
  58:../../libDaisy//src/daisy_core.h **** #define IN_L in[0]
  59:../../libDaisy//src/daisy_core.h **** 
  60:../../libDaisy//src/daisy_core.h **** /** shorthand macro for simplifying the reading of the right 
  61:../../libDaisy//src/daisy_core.h ****  *  channel of a non-interleaved input buffer named in */
  62:../../libDaisy//src/daisy_core.h **** #define IN_R in[1]
  63:../../libDaisy//src/daisy_core.h **** 
  64:../../libDaisy//src/daisy_core.h **** /** 
  65:../../libDaisy//src/daisy_core.h ****     Computes cube.
  66:../../libDaisy//src/daisy_core.h ****     \param x Number to be cubed
  67:../../libDaisy//src/daisy_core.h ****     \return x ^ 3
  68:../../libDaisy//src/daisy_core.h **** */
  69:../../libDaisy//src/daisy_core.h **** FORCE_INLINE float cube(float x)
  70:../../libDaisy//src/daisy_core.h **** {
  71:../../libDaisy//src/daisy_core.h ****     return (x * x) * x;
  72:../../libDaisy//src/daisy_core.h **** }
  73:../../libDaisy//src/daisy_core.h **** 
  74:../../libDaisy//src/daisy_core.h **** /** 
  75:../../libDaisy//src/daisy_core.h ****     Converts unsigned 8-bit to float
  76:../../libDaisy//src/daisy_core.h ****     \param x Number to be scaled.
ARM GAS  /var/folders/hl/qgbwny5j0fd895c2c41bk3tw0000gp/T//ccSxPsAD.s 			page 42


  77:../../libDaisy//src/daisy_core.h ****     \return Scaled number.
  78:../../libDaisy//src/daisy_core.h **** */
  79:../../libDaisy//src/daisy_core.h **** FORCE_INLINE float u82f(uint8_t x)
  80:../../libDaisy//src/daisy_core.h **** {
  81:../../libDaisy//src/daisy_core.h ****     return ((float)x - 127.f) * U82F_SCALE;
  82:../../libDaisy//src/daisy_core.h **** }
  83:../../libDaisy//src/daisy_core.h **** 
  84:../../libDaisy//src/daisy_core.h **** /**
  85:../../libDaisy//src/daisy_core.h ****     Converts float to unsigned 8-bit
  86:../../libDaisy//src/daisy_core.h **** */
  87:../../libDaisy//src/daisy_core.h **** FORCE_INLINE uint8_t f2u8(float x)
  88:../../libDaisy//src/daisy_core.h **** {
  89:../../libDaisy//src/daisy_core.h ****     x = x <= FBIPMIN ? FBIPMIN : x;
  90:../../libDaisy//src/daisy_core.h ****     x = x >= FBIPMAX ? FBIPMAX : x;
  91:../../libDaisy//src/daisy_core.h ****     return (uint8_t)((x * F2U8_SCALE) + F2U8_SCALE);
  92:../../libDaisy//src/daisy_core.h **** }
  93:../../libDaisy//src/daisy_core.h **** 
  94:../../libDaisy//src/daisy_core.h **** 
  95:../../libDaisy//src/daisy_core.h **** /** 
  96:../../libDaisy//src/daisy_core.h ****     Converts Signed 8-bit to float
  97:../../libDaisy//src/daisy_core.h ****     \param x Number to be scaled.
  98:../../libDaisy//src/daisy_core.h ****     \return Scaled number.
  99:../../libDaisy//src/daisy_core.h **** */
 100:../../libDaisy//src/daisy_core.h **** FORCE_INLINE float s82f(int8_t x)
 101:../../libDaisy//src/daisy_core.h **** {
 102:../../libDaisy//src/daisy_core.h ****     return (float)x * S82F_SCALE;
 103:../../libDaisy//src/daisy_core.h **** }
 104:../../libDaisy//src/daisy_core.h **** 
 105:../../libDaisy//src/daisy_core.h **** /**
 106:../../libDaisy//src/daisy_core.h ****     Converts float to Signed 8-bit
 107:../../libDaisy//src/daisy_core.h **** */
 108:../../libDaisy//src/daisy_core.h **** FORCE_INLINE int8_t f2s8(float x)
 109:../../libDaisy//src/daisy_core.h **** {
 110:../../libDaisy//src/daisy_core.h ****     x = x <= FBIPMIN ? FBIPMIN : x;
 111:../../libDaisy//src/daisy_core.h ****     x = x >= FBIPMAX ? FBIPMAX : x;
 112:../../libDaisy//src/daisy_core.h ****     return (int32_t)(x * F2S8_SCALE);
 113:../../libDaisy//src/daisy_core.h **** }
 114:../../libDaisy//src/daisy_core.h **** 
 115:../../libDaisy//src/daisy_core.h **** /** 
 116:../../libDaisy//src/daisy_core.h ****     Converts Signed 16-bit to float
 117:../../libDaisy//src/daisy_core.h ****     \param x Number to be scaled.
 118:../../libDaisy//src/daisy_core.h ****     \return Scaled number.
 119:../../libDaisy//src/daisy_core.h **** */
 120:../../libDaisy//src/daisy_core.h **** FORCE_INLINE float s162f(int16_t x)
 121:../../libDaisy//src/daisy_core.h **** {
 122:../../libDaisy//src/daisy_core.h ****     return (float)x * S162F_SCALE;
 123:../../libDaisy//src/daisy_core.h **** }
 124:../../libDaisy//src/daisy_core.h **** 
 125:../../libDaisy//src/daisy_core.h **** /**
 126:../../libDaisy//src/daisy_core.h ****     Converts float to Signed 16-bit
 127:../../libDaisy//src/daisy_core.h **** */
 128:../../libDaisy//src/daisy_core.h **** FORCE_INLINE int16_t f2s16(float x)
 129:../../libDaisy//src/daisy_core.h **** {
 130:../../libDaisy//src/daisy_core.h ****     x = x <= FBIPMIN ? FBIPMIN : x;
 131:../../libDaisy//src/daisy_core.h ****     x = x >= FBIPMAX ? FBIPMAX : x;
 132:../../libDaisy//src/daisy_core.h ****     return (int32_t)(x * F2S16_SCALE);
 133:../../libDaisy//src/daisy_core.h **** }
ARM GAS  /var/folders/hl/qgbwny5j0fd895c2c41bk3tw0000gp/T//ccSxPsAD.s 			page 43


 134:../../libDaisy//src/daisy_core.h **** 
 135:../../libDaisy//src/daisy_core.h **** /**
 136:../../libDaisy//src/daisy_core.h ****     Converts Signed 24-bit to float
 137:../../libDaisy//src/daisy_core.h ****  */
 138:../../libDaisy//src/daisy_core.h **** FORCE_INLINE float s242f(int32_t x)
 139:../../libDaisy//src/daisy_core.h **** {
 140:../../libDaisy//src/daisy_core.h ****     x = (x ^ S24SIGN) - S24SIGN; //sign extend aka ((x<<8)>>8)
 141:../../libDaisy//src/daisy_core.h ****     return (float)x * S242F_SCALE;
 142:../../libDaisy//src/daisy_core.h **** }
 143:../../libDaisy//src/daisy_core.h **** /**
 144:../../libDaisy//src/daisy_core.h ****     Converts float to Signed 24-bit
 145:../../libDaisy//src/daisy_core.h ****  */
 146:../../libDaisy//src/daisy_core.h **** FORCE_INLINE int32_t f2s24(float x)
 147:../../libDaisy//src/daisy_core.h **** {
 148:../../libDaisy//src/daisy_core.h ****     x = x <= FBIPMIN ? FBIPMIN : x;
 149:../../libDaisy//src/daisy_core.h ****     x = x >= FBIPMAX ? FBIPMAX : x;
 150:../../libDaisy//src/daisy_core.h ****     return (int32_t)(x * F2S24_SCALE);
 151:../../libDaisy//src/daisy_core.h **** }
 152:../../libDaisy//src/daisy_core.h **** 
 153:../../libDaisy//src/daisy_core.h **** /**
 154:../../libDaisy//src/daisy_core.h ****     Converts Signed 32-bit to float
 155:../../libDaisy//src/daisy_core.h ****  */
 156:../../libDaisy//src/daisy_core.h **** FORCE_INLINE float s322f(int32_t x)
 157:../../libDaisy//src/daisy_core.h **** {
 158:../../libDaisy//src/daisy_core.h ****     return (float)x * S322F_SCALE;
 159:../../libDaisy//src/daisy_core.h **** }
 160:../../libDaisy//src/daisy_core.h **** /**
 161:../../libDaisy//src/daisy_core.h ****     Converts float to Signed 24-bit
 162:../../libDaisy//src/daisy_core.h ****  */
 163:../../libDaisy//src/daisy_core.h **** FORCE_INLINE int32_t f2s32(float x)
 164:../../libDaisy//src/daisy_core.h **** {
 165:../../libDaisy//src/daisy_core.h ****     x = x <= FBIPMIN ? FBIPMIN : x;
 166:../../libDaisy//src/daisy_core.h ****     x = x >= FBIPMAX ? FBIPMAX : x;
 167:../../libDaisy//src/daisy_core.h ****     return (int32_t)(x * F2S32_SCALE);
 168:../../libDaisy//src/daisy_core.h **** }
 169:../../libDaisy//src/daisy_core.h **** 
 170:../../libDaisy//src/daisy_core.h **** 
 171:../../libDaisy//src/daisy_core.h **** /** Enums and a simple struct for defining a hardware pin on the MCU
 172:../../libDaisy//src/daisy_core.h ****  *  These correlate with the stm32 datasheet, and are used to configure
 173:../../libDaisy//src/daisy_core.h ****  *  the hardware.
 174:../../libDaisy//src/daisy_core.h ****  * 
 175:../../libDaisy//src/daisy_core.h ****  *  This along with the dsy_gpio_pin class should no longer be used.
 176:../../libDaisy//src/daisy_core.h ****  *  They are available for backwards compatability. 
 177:../../libDaisy//src/daisy_core.h ****  * 
 178:../../libDaisy//src/daisy_core.h ****  *  Please use GPIOPort enum and the Pin struct instead.
 179:../../libDaisy//src/daisy_core.h ****  */
 180:../../libDaisy//src/daisy_core.h **** typedef enum
 181:../../libDaisy//src/daisy_core.h **** {
 182:../../libDaisy//src/daisy_core.h ****     DSY_GPIOA, /**< & */
 183:../../libDaisy//src/daisy_core.h ****     DSY_GPIOB, /**< & */
 184:../../libDaisy//src/daisy_core.h ****     DSY_GPIOC, /**< & */
 185:../../libDaisy//src/daisy_core.h ****     DSY_GPIOD, /**< & */
 186:../../libDaisy//src/daisy_core.h ****     DSY_GPIOE, /**< & */
 187:../../libDaisy//src/daisy_core.h ****     DSY_GPIOF, /**< & */
 188:../../libDaisy//src/daisy_core.h ****     DSY_GPIOG, /**< & */
 189:../../libDaisy//src/daisy_core.h ****     DSY_GPIOH, /**< & */
 190:../../libDaisy//src/daisy_core.h ****     DSY_GPIOI, /**< & */
ARM GAS  /var/folders/hl/qgbwny5j0fd895c2c41bk3tw0000gp/T//ccSxPsAD.s 			page 44


 191:../../libDaisy//src/daisy_core.h ****     DSY_GPIOJ, /**< & */
 192:../../libDaisy//src/daisy_core.h ****     DSY_GPIOK, /**< & */
 193:../../libDaisy//src/daisy_core.h ****     DSY_GPIOX, /** This is a non-existant port for unsupported bits of hardware. */
 194:../../libDaisy//src/daisy_core.h ****     DSY_GPIO_LAST, /** Final enum member */
 195:../../libDaisy//src/daisy_core.h **** } dsy_gpio_port;
 196:../../libDaisy//src/daisy_core.h **** 
 197:../../libDaisy//src/daisy_core.h **** /** Hardware define pins 
 198:../../libDaisy//src/daisy_core.h ****  *  
 199:../../libDaisy//src/daisy_core.h ****  *  The dsy_gpio_pin struct should no longer be used, and is only available for
 200:../../libDaisy//src/daisy_core.h ****  *  backwards compatability.
 201:../../libDaisy//src/daisy_core.h ****  * 
 202:../../libDaisy//src/daisy_core.h ****  *  Please use Pin struct instead.
 203:../../libDaisy//src/daisy_core.h ****  */
 204:../../libDaisy//src/daisy_core.h **** typedef struct
 205:../../libDaisy//src/daisy_core.h **** {
 206:../../libDaisy//src/daisy_core.h ****     dsy_gpio_port port; /**< & */
 207:../../libDaisy//src/daisy_core.h ****     uint8_t       pin;  /**< number 0-15 */
 208:../../libDaisy//src/daisy_core.h **** } dsy_gpio_pin;
 209:../../libDaisy//src/daisy_core.h **** 
 210:../../libDaisy//src/daisy_core.h **** /** Helper for creating pins from port/pin combos easily
 211:../../libDaisy//src/daisy_core.h ****  * 
 212:../../libDaisy//src/daisy_core.h ****  *  The dsy_gpio_pin struct should no longer be used, and is only available for
 213:../../libDaisy//src/daisy_core.h ****  *  backwards compatability.
 214:../../libDaisy//src/daisy_core.h ****  * 
 215:../../libDaisy//src/daisy_core.h ****  *  Please use Pin struct instead.
 216:../../libDaisy//src/daisy_core.h **** */
 217:../../libDaisy//src/daisy_core.h **** FORCE_INLINE dsy_gpio_pin dsy_pin(dsy_gpio_port port, uint8_t pin)
 218:../../libDaisy//src/daisy_core.h **** {
 219:../../libDaisy//src/daisy_core.h ****     dsy_gpio_pin p;
 220:../../libDaisy//src/daisy_core.h ****     p.port = port;
 221:../../libDaisy//src/daisy_core.h ****     p.pin  = pin;
 222:../../libDaisy//src/daisy_core.h ****     return p;
 223:../../libDaisy//src/daisy_core.h **** }
 224:../../libDaisy//src/daisy_core.h **** 
 225:../../libDaisy//src/daisy_core.h **** /** Helper for testing sameness of two dsy_gpio_pins
 226:../../libDaisy//src/daisy_core.h ****  *  \return    1 if same, 0 if different
 227:../../libDaisy//src/daisy_core.h ****  * 
 228:../../libDaisy//src/daisy_core.h ****  *  The dsy_gpio_pin struct should no longer be used, and is only available for
 229:../../libDaisy//src/daisy_core.h ****  *  backwards compatability.
 230:../../libDaisy//src/daisy_core.h ****  * 
 231:../../libDaisy//src/daisy_core.h ****  *  Please use Pin struct instead.
 232:../../libDaisy//src/daisy_core.h ****  */
 233:../../libDaisy//src/daisy_core.h **** FORCE_INLINE uint8_t dsy_pin_cmp(dsy_gpio_pin *a, dsy_gpio_pin *b)
 234:../../libDaisy//src/daisy_core.h **** {
 235:../../libDaisy//src/daisy_core.h ****     return ((a->port == b->port) && (a->pin == b->pin));
 236:../../libDaisy//src/daisy_core.h **** }
 237:../../libDaisy//src/daisy_core.h **** 
 238:../../libDaisy//src/daisy_core.h **** #ifdef __cplusplus
 239:../../libDaisy//src/daisy_core.h **** 
 240:../../libDaisy//src/daisy_core.h **** namespace daisy
 241:../../libDaisy//src/daisy_core.h **** {
 242:../../libDaisy//src/daisy_core.h **** /** @brief GPIO Port names */
 243:../../libDaisy//src/daisy_core.h **** enum GPIOPort
 244:../../libDaisy//src/daisy_core.h **** {
 245:../../libDaisy//src/daisy_core.h ****     PORTA, /**< Port A */
 246:../../libDaisy//src/daisy_core.h ****     PORTB, /**< Port B */
 247:../../libDaisy//src/daisy_core.h ****     PORTC, /**< Port C */
ARM GAS  /var/folders/hl/qgbwny5j0fd895c2c41bk3tw0000gp/T//ccSxPsAD.s 			page 45


 248:../../libDaisy//src/daisy_core.h ****     PORTD, /**< Port D */
 249:../../libDaisy//src/daisy_core.h ****     PORTE, /**< Port E */
 250:../../libDaisy//src/daisy_core.h ****     PORTF, /**< Port F */
 251:../../libDaisy//src/daisy_core.h ****     PORTG, /**< Port G */
 252:../../libDaisy//src/daisy_core.h ****     PORTH, /**< Port H */
 253:../../libDaisy//src/daisy_core.h ****     PORTI, /**< Port I */
 254:../../libDaisy//src/daisy_core.h ****     PORTJ, /**< Port J */
 255:../../libDaisy//src/daisy_core.h ****     PORTK, /**< Port K */
 256:../../libDaisy//src/daisy_core.h ****     PORTX, /**< Used as a dummy port to signal an invalid pin. */
 257:../../libDaisy//src/daisy_core.h **** };
 258:../../libDaisy//src/daisy_core.h **** 
 259:../../libDaisy//src/daisy_core.h **** /** @brief representation of hardware port/pin combination */
 260:../../libDaisy//src/daisy_core.h **** struct Pin
 261:../../libDaisy//src/daisy_core.h **** {
 262:../../libDaisy//src/daisy_core.h ****     GPIOPort port;
 263:../../libDaisy//src/daisy_core.h ****     uint8_t  pin;
 264:../../libDaisy//src/daisy_core.h **** 
 265:../../libDaisy//src/daisy_core.h ****     /** @brief Constructor creates a valid pin. 
 266:../../libDaisy//src/daisy_core.h ****      *  @param pt GPIOPort between PA, and PK corresponding to STM32 Port.
 267:../../libDaisy//src/daisy_core.h ****      *  @param pn pin number in range of 0-15
 268:../../libDaisy//src/daisy_core.h ****     */
 269:../../libDaisy//src/daisy_core.h ****     constexpr Pin(const GPIOPort pt, const uint8_t pn) : port(pt), pin(pn) {}
 270:../../libDaisy//src/daisy_core.h **** 
 271:../../libDaisy//src/daisy_core.h ****     /** @brief Basic Constructor creates an invalid Pin object */
 272:../../libDaisy//src/daisy_core.h ****     constexpr Pin() : port(PORTX), pin(255) {}
 1231              		.loc 14 272 15 view .LVU304
 1232              		.loc 14 272 15 is_stmt 0 view .LVU305
 1233              	.LBE501:
 1234              	.LBE500:
 1235              	.LBE499:
 1236              	.LBE498:
 1237              	.LBE497:
 1238              	.LBE496:
 1239              	.LBE495:
 1240              	.LBE494:
 1241              		.loc 12 136 1 view .LVU306
 1242 0000 38B5     		push	{r3, r4, r5, lr}
 1243              		.cfi_def_cfa_offset 16
 1244              		.cfi_offset 3, -16
 1245              		.cfi_offset 4, -12
 1246              		.cfi_offset 5, -8
 1247              		.cfi_offset 14, -4
 1248              	.LBB704:
 1249              	.LBB701:
 1250              	.LBB514:
 1251              	.LBB515:
 1252              		.loc 13 74 12 view .LVU307
 1253 0002 444A     		ldr	r2, .L80
 1254              	.LBE515:
 1255              	.LBE514:
 1256              	.LBB525:
 1257              	.LBB511:
 1258              	.LBB508:
 1259              	.LBB505:
 1260              	.LBB502:
  69:../../libDaisy//src/per/gpio.h ****         {
 1261              		.loc 13 69 73 view .LVU308
ARM GAS  /var/folders/hl/qgbwny5j0fd895c2c41bk3tw0000gp/T//ccSxPsAD.s 			page 46


 1262 0004 0024     		movs	r4, #0
 1263              	.LBE502:
 1264              	.LBE505:
 1265              	.LBE508:
 1266              		.loc 13 74 12 view .LVU309
 1267 0006 4FF60B73 		movw	r3, #65291
 1268 000a 4348     		ldr	r0, .L80+4
 1269              	.LBE511:
 1270              	.LBE525:
 1271              	.LBB526:
 1272              	.LBB527:
 1273 000c 4349     		ldr	r1, .L80+8
 1274              	.LBE527:
 1275              	.LBE526:
 1276              	.LBB537:
 1277              	.LBB523:
 1278              	.LBB516:
 1279              	.LBB517:
 1280              	.LBB518:
  69:../../libDaisy//src/per/gpio.h ****         {
 1281              		.loc 13 69 73 view .LVU310
 1282 000e C2E90034 		strd	r3, r4, [r2]
 1283 0012 C2E90244 		strd	r4, r4, [r2, #8]
 1284              	.LBE518:
 1285              	.LBE517:
 1286              	.LBE516:
 1287              	.LBE523:
 1288              	.LBE537:
 1289              	.LBB538:
 1290              	.LBB539:
 1291              		.loc 13 74 12 view .LVU311
 1292 0016 424A     		ldr	r2, .L80+12
 1293              	.LBB540:
 1294              	.LBB541:
 1295              	.LBB542:
  69:../../libDaisy//src/per/gpio.h ****         {
 1296              		.loc 13 69 73 view .LVU312
 1297 0018 C2E90034 		strd	r3, r4, [r2]
 1298 001c C2E90244 		strd	r4, r4, [r2, #8]
 1299              	.LBE542:
 1300              	.LBE541:
 1301              	.LBE540:
 1302              	.LBE539:
 1303              	.LBE538:
 1304              	.LBB548:
 1305              	.LBB549:
 1306              		.loc 13 74 12 view .LVU313
 1307 0020 404A     		ldr	r2, .L80+16
 1308              	.LBE549:
 1309              	.LBE548:
 1310              	.LBB563:
 1311              	.LBB512:
 1312              	.LBB509:
 1313              	.LBB506:
 1314              	.LBB503:
  69:../../libDaisy//src/per/gpio.h ****         {
 1315              		.loc 13 69 73 view .LVU314
ARM GAS  /var/folders/hl/qgbwny5j0fd895c2c41bk3tw0000gp/T//ccSxPsAD.s 			page 47


 1316 0022 C0E90034 		strd	r3, r4, [r0]
 1317              	.LBE503:
 1318              	.LBE506:
 1319              	.LBE509:
 1320              	.LBE512:
 1321              	.LBE563:
 1322              	.LBB564:
 1323              	.LBB560:
 1324              	.LBB550:
 1325              	.LBB551:
 1326              	.LBB552:
 1327 0026 C2E90034 		strd	r3, r4, [r2]
 1328              	.LBE552:
 1329              	.LBE551:
 1330              	.LBE550:
 1331              	.LBE560:
 1332              	.LBE564:
 1333              	.LBB565:
 1334              	.LBB535:
 1335              	.LBB528:
 1336              	.LBB529:
 1337              	.LBB530:
 1338 002a C1E90034 		strd	r3, r4, [r1]
 1339              	.LBE530:
 1340              	.LBE529:
 1341              	.LBE528:
 1342              	.LBE535:
 1343              	.LBE565:
 1344              	.LBB566:
 1345              	.LBB513:
 1346              	.LBB510:
 1347              	.LBB507:
 1348              	.LBB504:
 1349 002e C0E90244 		strd	r4, r4, [r0, #8]
 1350              	.LVL82:
  69:../../libDaisy//src/per/gpio.h ****         {
 1351              		.loc 13 69 73 view .LVU315
 1352              	.LBE504:
 1353              	.LBE507:
 1354              	.LBE510:
 1355              	.LBE513:
 1356              	.LBE566:
 1357              	.LBB567:
 1358              	.LBI514:
 1359              		.loc 13 74 5 is_stmt 1 view .LVU316
 1360              	.LBB524:
 1361              	.LBB522:
 1362              	.LBI516:
  68:../../libDaisy//src/per/gpio.h ****         : pin(), mode(Mode::INPUT), pull(Pull::NOPULL), speed(Speed::LOW)
 1363              		.loc 13 68 9 view .LVU317
 1364              	.LBB521:
 1365              	.LBB520:
 1366              	.LBB519:
 1367              	.LBI519:
 1368              		.loc 14 272 15 view .LVU318
 1369              		.loc 14 272 15 is_stmt 0 view .LVU319
 1370              	.LBE519:
ARM GAS  /var/folders/hl/qgbwny5j0fd895c2c41bk3tw0000gp/T//ccSxPsAD.s 			page 48


 1371              	.LBE520:
 1372              	.LBE521:
 1373              	.LBE522:
 1374              	.LBE524:
 1375              	.LBE567:
 1376              	.LBB568:
 1377              	.LBI526:
 1378              		.loc 13 74 5 is_stmt 1 view .LVU320
 1379              	.LBB536:
 1380              	.LBB534:
 1381              	.LBI528:
  68:../../libDaisy//src/per/gpio.h ****         : pin(), mode(Mode::INPUT), pull(Pull::NOPULL), speed(Speed::LOW)
 1382              		.loc 13 68 9 view .LVU321
 1383              	.LBB533:
 1384              	.LBB532:
 1385              	.LBB531:
 1386              	.LBI531:
 1387              		.loc 14 272 15 view .LVU322
 1388              		.loc 14 272 15 is_stmt 0 view .LVU323
 1389              	.LBE531:
  69:../../libDaisy//src/per/gpio.h ****         {
 1390              		.loc 13 69 73 view .LVU324
 1391 0032 C1E90244 		strd	r4, r4, [r1, #8]
 1392              	.LVL83:
  69:../../libDaisy//src/per/gpio.h ****         {
 1393              		.loc 13 69 73 view .LVU325
 1394              	.LBE532:
 1395              	.LBE533:
 1396              	.LBE534:
 1397              	.LBE536:
 1398              	.LBE568:
 1399              	.LBB569:
 1400              	.LBI538:
 1401              		.loc 13 74 5 is_stmt 1 view .LVU326
 1402              	.LBB547:
 1403              	.LBB546:
 1404              	.LBI540:
  68:../../libDaisy//src/per/gpio.h ****         : pin(), mode(Mode::INPUT), pull(Pull::NOPULL), speed(Speed::LOW)
 1405              		.loc 13 68 9 view .LVU327
 1406              	.LBB545:
 1407              	.LBB544:
 1408              	.LBB543:
 1409              	.LBI543:
 1410              		.loc 14 272 15 view .LVU328
 1411              		.loc 14 272 15 is_stmt 0 view .LVU329
 1412              	.LBE543:
 1413              	.LBE544:
 1414              	.LBE545:
 1415              	.LBE546:
 1416              	.LBE547:
 1417              	.LBE569:
 1418              	.LBB570:
 1419              	.LBI570:
 1420              		.loc 13 74 5 is_stmt 1 view .LVU330
 1421              	.LBB571:
 1422              	.LBB572:
 1423              	.LBI572:
ARM GAS  /var/folders/hl/qgbwny5j0fd895c2c41bk3tw0000gp/T//ccSxPsAD.s 			page 49


  68:../../libDaisy//src/per/gpio.h ****         : pin(), mode(Mode::INPUT), pull(Pull::NOPULL), speed(Speed::LOW)
 1424              		.loc 13 68 9 view .LVU331
 1425              	.LBB573:
 1426              	.LBB574:
 1427              	.LBB575:
 1428              	.LBI575:
 1429              		.loc 14 272 15 view .LVU332
 1430              		.loc 14 272 15 is_stmt 0 view .LVU333
 1431              	.LBE575:
 1432              	.LBE574:
 1433              	.LBE573:
 1434              	.LBE572:
 1435              	.LBE571:
 1436              	.LBE570:
 1437              	.LBB585:
 1438              	.LBB561:
 1439              	.LBB558:
 1440              	.LBB556:
 1441              	.LBB554:
  69:../../libDaisy//src/per/gpio.h ****         {
 1442              		.loc 13 69 73 view .LVU334
 1443 0036 C2E90244 		strd	r4, r4, [r2, #8]
 1444              	.LBE554:
 1445              	.LBE556:
 1446              	.LBE558:
 1447              	.LBE561:
 1448              	.LBE585:
 1449              	.LBB586:
 1450              	.LBB582:
 1451              		.loc 13 74 12 view .LVU335
 1452 003a 3B48     		ldr	r0, .L80+20
 1453              	.LBE582:
 1454              	.LBE586:
 1455              	.LBB587:
 1456              	.LBB588:
 1457 003c 3B4A     		ldr	r2, .L80+24
 1458              	.LBE588:
 1459              	.LBE587:
 1460              	.LBB599:
 1461              	.LBB600:
 1462 003e 3C49     		ldr	r1, .L80+28
 1463              	.LBE600:
 1464              	.LBE599:
 1465              	.LBB610:
 1466              	.LBB596:
 1467 0040 1360     		str	r3, [r2]
 1468              	.LBE596:
 1469              	.LBE610:
 1470              	.LBB611:
 1471              	.LBB583:
 1472              	.LBB580:
 1473              	.LBB578:
 1474              	.LBB576:
  69:../../libDaisy//src/per/gpio.h ****         {
 1475              		.loc 13 69 73 view .LVU336
 1476 0042 C0E90034 		strd	r3, r4, [r0]
 1477              	.LBE576:
ARM GAS  /var/folders/hl/qgbwny5j0fd895c2c41bk3tw0000gp/T//ccSxPsAD.s 			page 50


 1478              	.LBE578:
 1479              	.LBE580:
 1480              	.LBE583:
 1481              	.LBE611:
 1482              	.LBB612:
 1483              	.LBB608:
 1484              	.LBB601:
 1485              	.LBB602:
 1486              	.LBB603:
 1487 0046 C1E90034 		strd	r3, r4, [r1]
 1488 004a C1E90244 		strd	r4, r4, [r1, #8]
 1489              	.LBE603:
 1490              	.LBE602:
 1491              	.LBE601:
 1492              	.LBE608:
 1493              	.LBE612:
  23:daisy_bed.h   ****     Pin newPinD7 = Pin(static_cast<GPIOPort>(oldPinD7.port), oldPinD7.pin);
 1494              		.loc 11 23 18 view .LVU337
 1495 004e 394B     		ldr	r3, .L80+32
  25:daisy_bed.h   ****     Pin newPinA9 = Pin(static_cast<GPIOPort>(oldPinA9.port), oldPinA9.pin);
 1496              		.loc 11 25 18 view .LVU338
 1497 0050 3949     		ldr	r1, .L80+36
 1498              	.LBB613:
 1499              	.LBB584:
 1500              	.LBB581:
 1501              	.LBB579:
 1502              	.LBB577:
  69:../../libDaisy//src/per/gpio.h ****         {
 1503              		.loc 13 69 73 view .LVU339
 1504 0052 C0E90244 		strd	r4, r4, [r0, #8]
 1505              	.LVL84:
  69:../../libDaisy//src/per/gpio.h ****         {
 1506              		.loc 13 69 73 view .LVU340
 1507              	.LBE577:
 1508              	.LBE579:
 1509              	.LBE581:
 1510              	.LBE584:
 1511              	.LBE613:
 1512              	.LBB614:
 1513              	.LBI548:
 1514              		.loc 13 74 5 is_stmt 1 view .LVU341
 1515              	.LBB562:
 1516              	.LBB559:
 1517              	.LBI550:
  68:../../libDaisy//src/per/gpio.h ****         : pin(), mode(Mode::INPUT), pull(Pull::NOPULL), speed(Speed::LOW)
 1518              		.loc 13 68 9 view .LVU342
 1519              	.LBB557:
 1520              	.LBB555:
 1521              	.LBB553:
 1522              	.LBI553:
 1523              		.loc 14 272 15 view .LVU343
 1524              		.loc 14 272 15 is_stmt 0 view .LVU344
 1525              	.LBE553:
 1526              	.LBE555:
 1527              	.LBE557:
 1528              	.LBE559:
 1529              	.LBE562:
ARM GAS  /var/folders/hl/qgbwny5j0fd895c2c41bk3tw0000gp/T//ccSxPsAD.s 			page 51


 1530              	.LBE614:
 1531              	.LBB615:
 1532              	.LBI599:
 1533              		.loc 13 74 5 is_stmt 1 view .LVU345
 1534              	.LBB609:
 1535              	.LBB607:
 1536              	.LBI601:
  68:../../libDaisy//src/per/gpio.h ****         : pin(), mode(Mode::INPUT), pull(Pull::NOPULL), speed(Speed::LOW)
 1537              		.loc 13 68 9 view .LVU346
 1538              	.LBB606:
 1539              	.LBB605:
 1540              	.LBB604:
 1541              	.LBI604:
 1542              		.loc 14 272 15 view .LVU347
 1543              		.loc 14 272 15 is_stmt 0 view .LVU348
 1544              	.LBE604:
 1545              	.LBE605:
 1546              	.LBE606:
 1547              	.LBE607:
 1548              	.LBE609:
 1549              	.LBE615:
 1550              	.LBB616:
 1551              	.LBI587:
 1552              		.loc 13 74 5 is_stmt 1 view .LVU349
 1553              	.LBB597:
 1554              	.LBB589:
 1555              	.LBI589:
  68:../../libDaisy//src/per/gpio.h ****         : pin(), mode(Mode::INPUT), pull(Pull::NOPULL), speed(Speed::LOW)
 1556              		.loc 13 68 9 view .LVU350
 1557              	.LBB590:
 1558              	.LBB591:
 1559              	.LBB592:
 1560              	.LBI592:
 1561              		.loc 14 272 15 view .LVU351
 1562              		.loc 14 272 15 is_stmt 0 view .LVU352
 1563              	.LBE592:
  69:../../libDaisy//src/per/gpio.h ****         {
 1564              		.loc 13 69 73 view .LVU353
 1565 0056 C2E90144 		strd	r4, r4, [r2, #4]
 1566              	.LBE591:
 1567              	.LBE590:
 1568              	.LBE589:
 1569              	.LBE597:
 1570              	.LBE616:
  23:daisy_bed.h   ****     Pin newPinD7 = Pin(static_cast<GPIOPort>(oldPinD7.port), oldPinD7.pin);
 1571              		.loc 11 23 18 view .LVU354
 1572 005a 3848     		ldr	r0, .L80+40
 1573              	.LBB617:
 1574              	.LBB598:
 1575              	.LBB595:
 1576              	.LBB594:
 1577              	.LBB593:
  69:../../libDaisy//src/per/gpio.h ****         {
 1578              		.loc 13 69 73 view .LVU355
 1579 005c D460     		str	r4, [r2, #12]
 1580              	.LVL85:
  69:../../libDaisy//src/per/gpio.h ****         {
ARM GAS  /var/folders/hl/qgbwny5j0fd895c2c41bk3tw0000gp/T//ccSxPsAD.s 			page 52


 1581              		.loc 13 69 73 view .LVU356
 1582              	.LBE593:
 1583              	.LBE594:
 1584              	.LBE595:
 1585              	.LBE598:
 1586              	.LBE617:
  23:daisy_bed.h   ****     Pin newPinD7 = Pin(static_cast<GPIOPort>(oldPinD7.port), oldPinD7.pin);
 1587              		.loc 11 23 18 view .LVU357
 1588 005e 1D88     		ldrh	r5, [r3]	@ unaligned
  25:daisy_bed.h   ****     Pin newPinA9 = Pin(static_cast<GPIOPort>(oldPinA9.port), oldPinA9.pin);
 1589              		.loc 11 25 18 view .LVU358
 1590 0060 0988     		ldrh	r1, [r1]	@ unaligned
 1591 0062 374B     		ldr	r3, .L80+44
  23:daisy_bed.h   ****     Pin newPinD7 = Pin(static_cast<GPIOPort>(oldPinD7.port), oldPinD7.pin);
 1592              		.loc 11 23 18 view .LVU359
 1593 0064 0580     		strh	r5, [r0]	@ unaligned
  25:daisy_bed.h   ****     Pin newPinA9 = Pin(static_cast<GPIOPort>(oldPinA9.port), oldPinA9.pin);
 1594              		.loc 11 25 18 view .LVU360
 1595 0066 1980     		strh	r1, [r3]	@ unaligned
 1596              	.LBB618:
 1597              	.LBB619:
 1598              	.LBB620:
 269:../../libDaisy//src/daisy_core.h **** 
 1599              		.loc 14 269 74 view .LVU361
 1600 0068 364A     		ldr	r2, .L80+48
 1601              	.LBE620:
 1602              	.LBE619:
 1603              	.LBE618:
  24:daisy_bed.h   ****     dsy_gpio_pin oldPinA9 = DaisyPatchSM::A9;
 1604              		.loc 11 24 55 view .LVU362
 1605 006a 0188     		ldrh	r1, [r0]
 1606              	.LVL86:
 1607              	.LBB623:
 1608              	.LBI618:
 269:../../libDaisy//src/daisy_core.h **** 
 1609              		.loc 14 269 15 is_stmt 1 view .LVU363
 1610              	.LBE623:
  31:daisy_bed.h   ****     Pin newPinD1 = Pin(static_cast<GPIOPort>(oldPinD1.port), oldPinD1.pin);
 1611              		.loc 11 31 18 is_stmt 0 view .LVU364
 1612 006c 3648     		ldr	r0, .L80+52
 1613              	.LBB624:
 1614              	.LBB622:
 1615              	.LBB621:
 269:../../libDaisy//src/daisy_core.h **** 
 1616              		.loc 14 269 74 view .LVU365
 1617 006e 1180     		strh	r1, [r2]	@ movhi
 1618              	.LVL87:
 269:../../libDaisy//src/daisy_core.h **** 
 1619              		.loc 14 269 74 view .LVU366
 1620              	.LBE621:
 1621              	.LBE622:
 1622              	.LBE624:
  29:daisy_bed.h   ****     Pin newPinD2 = Pin(static_cast<GPIOPort>(oldPinD2.port), oldPinD2.pin);
 1623              		.loc 11 29 18 view .LVU367
 1624 0070 3649     		ldr	r1, .L80+56
  31:daisy_bed.h   ****     Pin newPinD1 = Pin(static_cast<GPIOPort>(oldPinD1.port), oldPinD1.pin);
 1625              		.loc 11 31 18 view .LVU368
ARM GAS  /var/folders/hl/qgbwny5j0fd895c2c41bk3tw0000gp/T//ccSxPsAD.s 			page 53


 1626 0072 0088     		ldrh	r0, [r0]	@ unaligned
  29:daisy_bed.h   ****     Pin newPinD2 = Pin(static_cast<GPIOPort>(oldPinD2.port), oldPinD2.pin);
 1627              		.loc 11 29 18 view .LVU369
 1628 0074 0D88     		ldrh	r5, [r1]	@ unaligned
  26:daisy_bed.h   **** 
 1629              		.loc 11 26 55 view .LVU370
 1630 0076 1988     		ldrh	r1, [r3]
 1631              	.LVL88:
 1632              	.LBB625:
 1633              	.LBI625:
 269:../../libDaisy//src/daisy_core.h **** 
 1634              		.loc 14 269 15 is_stmt 1 view .LVU371
 1635              	.LBB626:
 1636              	.LBB627:
 269:../../libDaisy//src/daisy_core.h **** 
 1637              		.loc 14 269 74 is_stmt 0 view .LVU372
 1638 0078 354B     		ldr	r3, .L80+60
 1639              	.LBE627:
 1640              	.LBE626:
 1641              	.LBE625:
  29:daisy_bed.h   ****     Pin newPinD2 = Pin(static_cast<GPIOPort>(oldPinD2.port), oldPinD2.pin);
 1642              		.loc 11 29 18 view .LVU373
 1643 007a 364A     		ldr	r2, .L80+64
 1644              	.LBB630:
 1645              	.LBB629:
 1646              	.LBB628:
 269:../../libDaisy//src/daisy_core.h **** 
 1647              		.loc 14 269 74 view .LVU374
 1648 007c 1980     		strh	r1, [r3]	@ movhi
 1649              	.LVL89:
 269:../../libDaisy//src/daisy_core.h **** 
 1650              		.loc 14 269 74 view .LVU375
 1651              	.LBE628:
 1652              	.LBE629:
 1653              	.LBE630:
  31:daisy_bed.h   ****     Pin newPinD1 = Pin(static_cast<GPIOPort>(oldPinD1.port), oldPinD1.pin);
 1654              		.loc 11 31 18 view .LVU376
 1655 007e 364B     		ldr	r3, .L80+68
  29:daisy_bed.h   ****     Pin newPinD2 = Pin(static_cast<GPIOPort>(oldPinD2.port), oldPinD2.pin);
 1656              		.loc 11 29 18 view .LVU377
 1657 0080 1580     		strh	r5, [r2]	@ unaligned
  31:daisy_bed.h   ****     Pin newPinD1 = Pin(static_cast<GPIOPort>(oldPinD1.port), oldPinD1.pin);
 1658              		.loc 11 31 18 view .LVU378
 1659 0082 1880     		strh	r0, [r3]	@ unaligned
  30:daisy_bed.h   ****     dsy_gpio_pin oldPinD1 = DaisyPatchSM::D1;
 1660              		.loc 11 30 55 view .LVU379
 1661 0084 1288     		ldrh	r2, [r2]
 1662              	.LVL90:
 1663              	.LBB631:
 1664              	.LBI631:
 269:../../libDaisy//src/daisy_core.h **** 
 1665              		.loc 14 269 15 is_stmt 1 view .LVU380
 1666              	.LBE631:
  32:daisy_bed.h   ****     // ^^^ {DSY_GPIOB, 4},  /**< D1  - SPI2 CS */
 1667              		.loc 11 32 55 is_stmt 0 view .LVU381
 1668 0086 B3F800E0 		ldrh	lr, [r3]
 1669              	.LBB636:
ARM GAS  /var/folders/hl/qgbwny5j0fd895c2c41bk3tw0000gp/T//ccSxPsAD.s 			page 54


 1670              	.LBB632:
 1671              	.LBB633:
 269:../../libDaisy//src/daisy_core.h **** 
 1672              		.loc 14 269 74 view .LVU382
 1673 008a 344B     		ldr	r3, .L80+72
 1674              	.LBE633:
 1675              	.LBE632:
 1676              	.LBE636:
  36:daisy_bed.h   ****     Pin newPinD3 = Pin(static_cast<GPIOPort>(oldPinD3.port), oldPinD3.pin);
 1677              		.loc 11 36 18 view .LVU383
 1678 008c 3449     		ldr	r1, .L80+76
 1679              	.LBB637:
 1680              	.LBB635:
 1681              	.LBB634:
 269:../../libDaisy//src/daisy_core.h **** 
 1682              		.loc 14 269 74 view .LVU384
 1683 008e 1A80     		strh	r2, [r3]	@ movhi
 1684              	.LVL91:
 269:../../libDaisy//src/daisy_core.h **** 
 1685              		.loc 14 269 74 view .LVU385
 1686              	.LBE634:
 1687              	.LBE635:
 1688              	.LBE637:
 1689              	.LBB638:
 1690              	.LBI638:
 269:../../libDaisy//src/daisy_core.h **** 
 1691              		.loc 14 269 15 is_stmt 1 view .LVU386
 1692              	.LBE638:
  38:daisy_bed.h   ****     Pin newPinD6 = Pin(static_cast<GPIOPort>(oldPinD6.port), oldPinD6.pin);
 1693              		.loc 11 38 18 is_stmt 0 view .LVU387
 1694 0090 344B     		ldr	r3, .L80+80
  36:daisy_bed.h   ****     Pin newPinD3 = Pin(static_cast<GPIOPort>(oldPinD3.port), oldPinD3.pin);
 1695              		.loc 11 36 18 view .LVU388
 1696 0092 B1F800C0 		ldrh	ip, [r1]	@ unaligned
  38:daisy_bed.h   ****     Pin newPinD6 = Pin(static_cast<GPIOPort>(oldPinD6.port), oldPinD6.pin);
 1697              		.loc 11 38 18 view .LVU389
 1698 0096 1D88     		ldrh	r5, [r3]	@ unaligned
  40:daisy_bed.h   ****     Pin newPinD4 = Pin(static_cast<GPIOPort>(oldPinD4.port), oldPinD4.pin);
 1699              		.loc 11 40 18 view .LVU390
 1700 0098 334B     		ldr	r3, .L80+84
 1701              	.LBB643:
 1702              	.LBB644:
 1703              	.LBB645:
 269:../../libDaisy//src/daisy_core.h **** 
 1704              		.loc 14 269 74 view .LVU391
 1705 009a 3448     		ldr	r0, .L80+88
 1706              	.LBE645:
 1707              	.LBE644:
 1708              	.LBE643:
  40:daisy_bed.h   ****     Pin newPinD4 = Pin(static_cast<GPIOPort>(oldPinD4.port), oldPinD4.pin);
 1709              		.loc 11 40 18 view .LVU392
 1710 009c 1988     		ldrh	r1, [r3]	@ unaligned
  42:daisy_bed.h   ****     Pin newPinD5 = Pin(static_cast<GPIOPort>(oldPinD5.port), oldPinD5.pin);
 1711              		.loc 11 42 18 view .LVU393
 1712 009e 344B     		ldr	r3, .L80+92
 1713 00a0 1A88     		ldrh	r2, [r3]	@ unaligned
  36:daisy_bed.h   ****     Pin newPinD3 = Pin(static_cast<GPIOPort>(oldPinD3.port), oldPinD3.pin);
ARM GAS  /var/folders/hl/qgbwny5j0fd895c2c41bk3tw0000gp/T//ccSxPsAD.s 			page 55


 1714              		.loc 11 36 18 view .LVU394
 1715 00a2 344B     		ldr	r3, .L80+96
 1716 00a4 A3F800C0 		strh	ip, [r3]	@ unaligned
  37:daisy_bed.h   ****     dsy_gpio_pin oldPinD6 = DaisyPatchSM::D6;
 1717              		.loc 11 37 55 view .LVU395
 1718 00a8 B3F800C0 		ldrh	ip, [r3]
  38:daisy_bed.h   ****     Pin newPinD6 = Pin(static_cast<GPIOPort>(oldPinD6.port), oldPinD6.pin);
 1719              		.loc 11 38 18 view .LVU396
 1720 00ac 324B     		ldr	r3, .L80+100
 1721 00ae 1D80     		strh	r5, [r3]	@ unaligned
  39:daisy_bed.h   ****     dsy_gpio_pin oldPinD4 = DaisyPatchSM::D4;
 1722              		.loc 11 39 55 view .LVU397
 1723 00b0 1B88     		ldrh	r3, [r3]
 1724              	.LBB648:
 1725              	.LBB647:
 1726              	.LBB646:
 269:../../libDaisy//src/daisy_core.h **** 
 1727              		.loc 14 269 74 view .LVU398
 1728 00b2 0380     		strh	r3, [r0]	@ movhi
 1729              	.LBE646:
 1730              	.LBE647:
 1731              	.LBE648:
  40:daisy_bed.h   ****     Pin newPinD4 = Pin(static_cast<GPIOPort>(oldPinD4.port), oldPinD4.pin);
 1732              		.loc 11 40 18 view .LVU399
 1733 00b4 314B     		ldr	r3, .L80+104
 1734 00b6 1980     		strh	r1, [r3]	@ unaligned
  41:daisy_bed.h   ****     dsy_gpio_pin oldPinD5 = DaisyPatchSM::D5;
 1735              		.loc 11 41 55 view .LVU400
 1736 00b8 1D88     		ldrh	r5, [r3]
  42:daisy_bed.h   ****     Pin newPinD5 = Pin(static_cast<GPIOPort>(oldPinD5.port), oldPinD5.pin);
 1737              		.loc 11 42 18 view .LVU401
 1738 00ba 314B     		ldr	r3, .L80+108
  48:daisy_bed.h   **** 
 1739              		.loc 11 48 17 view .LVU402
 1740 00bc 3149     		ldr	r1, .L80+112
  42:daisy_bed.h   ****     Pin newPinD5 = Pin(static_cast<GPIOPort>(oldPinD5.port), oldPinD5.pin);
 1741              		.loc 11 42 18 view .LVU403
 1742 00be 1A80     		strh	r2, [r3]	@ unaligned
  43:daisy_bed.h   **** 
 1743              		.loc 11 43 55 view .LVU404
 1744 00c0 1888     		ldrh	r0, [r3]
 1745              	.LBB649:
 1746              	.LBB639:
 1747              	.LBB640:
 269:../../libDaisy//src/daisy_core.h **** 
 1748              		.loc 14 269 74 view .LVU405
 1749 00c2 314B     		ldr	r3, .L80+116
 1750              	.LBE640:
 1751              	.LBE639:
 1752              	.LBE649:
  48:daisy_bed.h   **** 
 1753              		.loc 11 48 17 view .LVU406
 1754 00c4 314A     		ldr	r2, .L80+120
 1755              	.LBB650:
 1756              	.LBB642:
 1757              	.LBB641:
 269:../../libDaisy//src/daisy_core.h **** 
ARM GAS  /var/folders/hl/qgbwny5j0fd895c2c41bk3tw0000gp/T//ccSxPsAD.s 			page 56


 1758              		.loc 14 269 74 view .LVU407
 1759 00c6 A3F800E0 		strh	lr, [r3]	@ movhi
 1760              	.LVL92:
 269:../../libDaisy//src/daisy_core.h **** 
 1761              		.loc 14 269 74 view .LVU408
 1762              	.LBE641:
 1763              	.LBE642:
 1764              	.LBE650:
 1765              	.LBB651:
 1766              	.LBI651:
 269:../../libDaisy//src/daisy_core.h **** 
 1767              		.loc 14 269 15 is_stmt 1 view .LVU409
 1768              	.LBB652:
 1769              	.LBB653:
 269:../../libDaisy//src/daisy_core.h **** 
 1770              		.loc 14 269 74 is_stmt 0 view .LVU410
 1771 00ca 314B     		ldr	r3, .L80+124
 1772 00cc A3F800C0 		strh	ip, [r3]	@ movhi
 1773              	.LVL93:
 269:../../libDaisy//src/daisy_core.h **** 
 1774              		.loc 14 269 74 view .LVU411
 1775              	.LBE653:
 1776              	.LBE652:
 1777              	.LBE651:
 1778              	.LBB654:
 1779              	.LBI643:
 269:../../libDaisy//src/daisy_core.h **** 
 1780              		.loc 14 269 15 is_stmt 1 view .LVU412
 269:../../libDaisy//src/daisy_core.h **** 
 1781              		.loc 14 269 15 is_stmt 0 view .LVU413
 1782              	.LBE654:
 1783              	.LBB655:
 1784              	.LBI655:
 269:../../libDaisy//src/daisy_core.h **** 
 1785              		.loc 14 269 15 is_stmt 1 view .LVU414
 1786              	.LBB656:
 1787              	.LBB657:
 269:../../libDaisy//src/daisy_core.h **** 
 1788              		.loc 14 269 74 is_stmt 0 view .LVU415
 1789 00d0 304B     		ldr	r3, .L80+128
 1790 00d2 1D80     		strh	r5, [r3]	@ movhi
 1791              	.LVL94:
 269:../../libDaisy//src/daisy_core.h **** 
 1792              		.loc 14 269 74 view .LVU416
 1793              	.LBE657:
 1794              	.LBE656:
 1795              	.LBE655:
 1796              	.LBB658:
 1797              	.LBI658:
 269:../../libDaisy//src/daisy_core.h **** 
 1798              		.loc 14 269 15 is_stmt 1 view .LVU417
 1799              	.LBB659:
 1800              	.LBB660:
 269:../../libDaisy//src/daisy_core.h **** 
 1801              		.loc 14 269 74 is_stmt 0 view .LVU418
 1802 00d4 304B     		ldr	r3, .L80+132
 1803              	.LBE660:
ARM GAS  /var/folders/hl/qgbwny5j0fd895c2c41bk3tw0000gp/T//ccSxPsAD.s 			page 57


 1804              	.LBE659:
 1805              	.LBE658:
 1806              	.LBB663:
 1807              	.LBB664:
 1808              	.LBB665:
 1809              	.LBB666:
 1810              	.LBB667:
 1811              		.file 15 "../../libDaisy//src/per/qspi.h"
   1:../../libDaisy//src/per/qspi.h **** #ifndef DSY_QSPI
   2:../../libDaisy//src/per/qspi.h **** #define DSY_QSPI /**< Macro */
   3:../../libDaisy//src/per/qspi.h **** 
   4:../../libDaisy//src/per/qspi.h **** #ifndef UNIT_TEST // for unit tests, a dummy implementation
   5:../../libDaisy//src/per/qspi.h **** 
   6:../../libDaisy//src/per/qspi.h **** #include <cstdint>
   7:../../libDaisy//src/per/qspi.h **** #include "daisy_core.h" // Added for dsy_gpio_pin typedef
   8:../../libDaisy//src/per/qspi.h **** 
   9:../../libDaisy//src/per/qspi.h **** #define DSY_QSPI_TEXT       \
  10:../../libDaisy//src/per/qspi.h ****     __attribute__((section( \
  11:../../libDaisy//src/per/qspi.h ****         ".qspiflash_text"))) /**< used for reading memory in memory_mapped mode. */
  12:../../libDaisy//src/per/qspi.h **** #define DSY_QSPI_DATA       \
  13:../../libDaisy//src/per/qspi.h ****     __attribute__((section( \
  14:../../libDaisy//src/per/qspi.h ****         ".qspiflash_data"))) /**< used for reading memory in memory_mapped mode. */
  15:../../libDaisy//src/per/qspi.h **** #define DSY_QSPI_BSS        \
  16:../../libDaisy//src/per/qspi.h ****     __attribute__((section( \
  17:../../libDaisy//src/per/qspi.h ****         ".qspiflash_bss"))) /**< used for reading memory in memory_mapped mode. */
  18:../../libDaisy//src/per/qspi.h **** 
  19:../../libDaisy//src/per/qspi.h **** namespace daisy
  20:../../libDaisy//src/per/qspi.h **** {
  21:../../libDaisy//src/per/qspi.h **** /** @addtogroup serial
  22:../../libDaisy//src/per/qspi.h **** @{
  23:../../libDaisy//src/per/qspi.h **** */
  24:../../libDaisy//src/per/qspi.h **** 
  25:../../libDaisy//src/per/qspi.h **** /** 
  26:../../libDaisy//src/per/qspi.h ****  Driver for QSPI peripheral to interface with external flash memory. \n 
  27:../../libDaisy//src/per/qspi.h ****     Currently supported QSPI Devices: \n 
  28:../../libDaisy//src/per/qspi.h ****     * IS25LP080D
  29:../../libDaisy//src/per/qspi.h **** */
  30:../../libDaisy//src/per/qspi.h **** class QSPIHandle
  31:../../libDaisy//src/per/qspi.h **** {
  32:../../libDaisy//src/per/qspi.h ****   public:
  33:../../libDaisy//src/per/qspi.h ****     enum Result
  34:../../libDaisy//src/per/qspi.h ****     {
  35:../../libDaisy//src/per/qspi.h ****         OK = 0,
  36:../../libDaisy//src/per/qspi.h ****         ERR
  37:../../libDaisy//src/per/qspi.h ****     };
  38:../../libDaisy//src/per/qspi.h **** 
  39:../../libDaisy//src/per/qspi.h ****     /** Indicates the current status of the module. 
  40:../../libDaisy//src/per/qspi.h ****          *  Warnings are indicated by a leading W.
  41:../../libDaisy//src/per/qspi.h ****          *  Errors are indicated by a leading E and cause an immediate exit.
  42:../../libDaisy//src/per/qspi.h ****          * 
  43:../../libDaisy//src/per/qspi.h ****          *  \param GOOD - No errors have been reported.
  44:../../libDaisy//src/per/qspi.h ****          *  \param E_HAL_ERROR - HAL code did not return HAL_OK.
  45:../../libDaisy//src/per/qspi.h ****          *  \param E_SWITCHING_MODES - An error was encountered while switching QSPI peripheral mod
  46:../../libDaisy//src/per/qspi.h ****          *  \param E_INVALID_MODE - QSPI should not be written to while the program is executing fr
  47:../../libDaisy//src/per/qspi.h ****          */
  48:../../libDaisy//src/per/qspi.h ****     enum Status
  49:../../libDaisy//src/per/qspi.h ****     {
ARM GAS  /var/folders/hl/qgbwny5j0fd895c2c41bk3tw0000gp/T//ccSxPsAD.s 			page 58


  50:../../libDaisy//src/per/qspi.h ****         GOOD = 0,
  51:../../libDaisy//src/per/qspi.h ****         E_HAL_ERROR,
  52:../../libDaisy//src/per/qspi.h ****         E_SWITCHING_MODES,
  53:../../libDaisy//src/per/qspi.h ****         E_INVALID_MODE,
  54:../../libDaisy//src/per/qspi.h ****     };
  55:../../libDaisy//src/per/qspi.h **** 
  56:../../libDaisy//src/per/qspi.h ****     /** Configuration structure for interfacing with QSPI Driver */
  57:../../libDaisy//src/per/qspi.h ****     struct Config
  58:../../libDaisy//src/per/qspi.h ****     {
  59:../../libDaisy//src/per/qspi.h ****         /** Flash Devices supported. (Both of these are more-or-less the same, just different sizes
  60:../../libDaisy//src/per/qspi.h ****         enum Device
  61:../../libDaisy//src/per/qspi.h ****         {
  62:../../libDaisy//src/per/qspi.h ****             IS25LP080D,  /**< & */
  63:../../libDaisy//src/per/qspi.h ****             IS25LP064A,  /**< & */
  64:../../libDaisy//src/per/qspi.h ****             DEVICE_LAST, /**< & */
  65:../../libDaisy//src/per/qspi.h ****         };
  66:../../libDaisy//src/per/qspi.h **** 
  67:../../libDaisy//src/per/qspi.h ****         /** 
  68:../../libDaisy//src/per/qspi.h ****         Modes of operation.
  69:../../libDaisy//src/per/qspi.h ****         Memory Mapped mode: QSPI configured so that the QSPI can be
  70:../../libDaisy//src/per/qspi.h ****         read from starting address 0x90000000. Writing is not
  71:../../libDaisy//src/per/qspi.h ****         possible in this mode. \n 
  72:../../libDaisy//src/per/qspi.h ****         Indirect Polling mode: Device driver enabled. 
  73:../../libDaisy//src/per/qspi.h ****         */
  74:../../libDaisy//src/per/qspi.h ****         enum Mode
  75:../../libDaisy//src/per/qspi.h ****         {
  76:../../libDaisy//src/per/qspi.h ****             MEMORY_MAPPED,    /**< & */
  77:../../libDaisy//src/per/qspi.h ****             INDIRECT_POLLING, /**< & */
  78:../../libDaisy//src/per/qspi.h ****             MODE_LAST,
  79:../../libDaisy//src/per/qspi.h ****         };
  80:../../libDaisy//src/per/qspi.h **** 
  81:../../libDaisy//src/per/qspi.h ****         //SCK,  CE# (active low)
  82:../../libDaisy//src/per/qspi.h ****         struct
  83:../../libDaisy//src/per/qspi.h ****         {
  84:../../libDaisy//src/per/qspi.h ****             dsy_gpio_pin io0; /**< & */
  85:../../libDaisy//src/per/qspi.h ****             dsy_gpio_pin io1; /**< & */
  86:../../libDaisy//src/per/qspi.h ****             dsy_gpio_pin io2; /**< & */
  87:../../libDaisy//src/per/qspi.h ****             dsy_gpio_pin io3; /**< & */
  88:../../libDaisy//src/per/qspi.h ****             dsy_gpio_pin clk; /**< & */
  89:../../libDaisy//src/per/qspi.h ****             dsy_gpio_pin ncs; /**< & */
  90:../../libDaisy//src/per/qspi.h ****         } pin_config;
  91:../../libDaisy//src/per/qspi.h **** 
  92:../../libDaisy//src/per/qspi.h ****         Device device;
  93:../../libDaisy//src/per/qspi.h ****         Mode   mode;
  94:../../libDaisy//src/per/qspi.h ****     };
  95:../../libDaisy//src/per/qspi.h **** 
  96:../../libDaisy//src/per/qspi.h ****     /** 
  97:../../libDaisy//src/per/qspi.h ****         Initializes QSPI peripheral, and Resets, and prepares memory for access.
  98:../../libDaisy//src/per/qspi.h ****         \param config should be populated with the mode, device and pin_config before calling this 
  99:../../libDaisy//src/per/qspi.h ****         \return Result::OK or Result::ERR
 100:../../libDaisy//src/per/qspi.h ****         */
 101:../../libDaisy//src/per/qspi.h ****     Result Init(const Config& config);
 102:../../libDaisy//src/per/qspi.h **** 
 103:../../libDaisy//src/per/qspi.h ****     /** Returns the current config. */
 104:../../libDaisy//src/per/qspi.h ****     const Config& GetConfig() const;
 105:../../libDaisy//src/per/qspi.h **** 
 106:../../libDaisy//src/per/qspi.h ****     // Couldn't this just be called before anything else in init? That
ARM GAS  /var/folders/hl/qgbwny5j0fd895c2c41bk3tw0000gp/T//ccSxPsAD.s 			page 59


 107:../../libDaisy//src/per/qspi.h ****     // would make manually calling it unnecessary.
 108:../../libDaisy//src/per/qspi.h ****     /** 
 109:../../libDaisy//src/per/qspi.h ****         Deinitializes the peripheral
 110:../../libDaisy//src/per/qspi.h ****         This should be called before reinitializing QSPI in a different mode.
 111:../../libDaisy//src/per/qspi.h ****         \return Result::OK or Result::ERR
 112:../../libDaisy//src/per/qspi.h ****         */
 113:../../libDaisy//src/per/qspi.h ****     Result DeInit();
 114:../../libDaisy//src/per/qspi.h **** 
 115:../../libDaisy//src/per/qspi.h ****     /** 
 116:../../libDaisy//src/per/qspi.h ****         Writes a single page to to the specified address on the QSPI chip.
 117:../../libDaisy//src/per/qspi.h ****         For IS25LP*, page size is 256 bytes.
 118:../../libDaisy//src/per/qspi.h ****         \param address Address to write to
 119:../../libDaisy//src/per/qspi.h ****         \param size Buffer size
 120:../../libDaisy//src/per/qspi.h ****         \param buffer Buffer to write
 121:../../libDaisy//src/per/qspi.h ****         \return Result::OK or Result::ERR
 122:../../libDaisy//src/per/qspi.h ****         */
 123:../../libDaisy//src/per/qspi.h ****     Result WritePage(uint32_t address, uint32_t size, uint8_t* buffer);
 124:../../libDaisy//src/per/qspi.h **** 
 125:../../libDaisy//src/per/qspi.h ****     /** 
 126:../../libDaisy//src/per/qspi.h ****         Writes data in buffer to to the QSPI. Starting at address to address+size 
 127:../../libDaisy//src/per/qspi.h ****         \param address Address to write to
 128:../../libDaisy//src/per/qspi.h ****         \param size Buffer size
 129:../../libDaisy//src/per/qspi.h ****         \param buffer Buffer to write
 130:../../libDaisy//src/per/qspi.h ****         \return Result::OK or Result::ERR
 131:../../libDaisy//src/per/qspi.h ****         */
 132:../../libDaisy//src/per/qspi.h ****     Result Write(uint32_t address, uint32_t size, uint8_t* buffer);
 133:../../libDaisy//src/per/qspi.h **** 
 134:../../libDaisy//src/per/qspi.h ****     /** 
 135:../../libDaisy//src/per/qspi.h ****         Erases the area specified on the chip.
 136:../../libDaisy//src/per/qspi.h ****         Erasures will happen by 4K, 32K or 64K increments.
 137:../../libDaisy//src/per/qspi.h ****         Smallest erase possible is 4kB at a time. (on IS25LP*)
 138:../../libDaisy//src/per/qspi.h ****         \param start_addr Address to begin erasing from
 139:../../libDaisy//src/per/qspi.h ****         \param end_addr  Address to stop erasing at
 140:../../libDaisy//src/per/qspi.h ****         \return Result::OK or Result::ERR
 141:../../libDaisy//src/per/qspi.h ****         */
 142:../../libDaisy//src/per/qspi.h ****     Result Erase(uint32_t start_addr, uint32_t end_addr);
 143:../../libDaisy//src/per/qspi.h **** 
 144:../../libDaisy//src/per/qspi.h ****     /**  
 145:../../libDaisy//src/per/qspi.h ****          Erases a single sector of the chip.  
 146:../../libDaisy//src/per/qspi.h ****         TODO: Document the size of this function. 
 147:../../libDaisy//src/per/qspi.h ****         \param address Address of sector to erase
 148:../../libDaisy//src/per/qspi.h ****         \return Result::OK or Result::ERR
 149:../../libDaisy//src/per/qspi.h ****         */
 150:../../libDaisy//src/per/qspi.h ****     Result EraseSector(uint32_t address);
 151:../../libDaisy//src/per/qspi.h **** 
 152:../../libDaisy//src/per/qspi.h ****     /** Returns the current class status. Useful for debugging.
 153:../../libDaisy//src/per/qspi.h ****      *  \returns Status
 154:../../libDaisy//src/per/qspi.h ****      */
 155:../../libDaisy//src/per/qspi.h ****     Status GetStatus();
 156:../../libDaisy//src/per/qspi.h **** 
 157:../../libDaisy//src/per/qspi.h ****     /** Returns a pointer to the actual memory used 
 158:../../libDaisy//src/per/qspi.h ****      *  The memory at this address is read-only
 159:../../libDaisy//src/per/qspi.h ****      *  to write to it use the Write function.
 160:../../libDaisy//src/per/qspi.h ****      * 
 161:../../libDaisy//src/per/qspi.h ****      *  \param offset returns the pointer starting this 
 162:../../libDaisy//src/per/qspi.h ****      *                many bytes into the memory
 163:../../libDaisy//src/per/qspi.h ****     */
ARM GAS  /var/folders/hl/qgbwny5j0fd895c2c41bk3tw0000gp/T//ccSxPsAD.s 			page 60


 164:../../libDaisy//src/per/qspi.h ****     void* GetData(uint32_t offset = 0);
 165:../../libDaisy//src/per/qspi.h **** 
 166:../../libDaisy//src/per/qspi.h ****     QSPIHandle() : pimpl_(nullptr) {}
 1812              		.loc 15 166 34 view .LVU419
 1813 00d6 314D     		ldr	r5, .L80+136
 1814              	.LBE667:
 1815              	.LBE666:
 1816              	.LBE665:
 1817              	.LBE664:
 1818              	.LBE663:
 1819              	.LBB692:
 1820              	.LBB662:
 1821              	.LBB661:
 269:../../libDaisy//src/daisy_core.h **** 
 1822              		.loc 14 269 74 view .LVU420
 1823 00d8 1880     		strh	r0, [r3]	@ movhi
 1824              	.LVL95:
 269:../../libDaisy//src/daisy_core.h **** 
 1825              		.loc 14 269 74 view .LVU421
 1826              	.LBE661:
 1827              	.LBE662:
 1828              	.LBE692:
 1829              	.LBB693:
 1830              	.LBI693:
  41:../../libDaisy//src/hid/switch.h ****     ~Switch() {}
 1831              		.loc 1 41 5 is_stmt 1 view .LVU422
  41:../../libDaisy//src/hid/switch.h ****     ~Switch() {}
 1832              		.loc 1 41 5 is_stmt 0 view .LVU423
 1833              	.LBE693:
  48:daisy_bed.h   **** 
 1834              		.loc 11 48 17 view .LVU424
 1835 00da 3148     		ldr	r0, .L80+140
 1836 00dc FFF7FEFF 		bl	__aeabi_atexit
 1837              	.LVL96:
 1838              	.LBB694:
 1839              	.LBI694:
  41:../../libDaisy//src/hid/switch.h ****     ~Switch() {}
 1840              		.loc 1 41 5 is_stmt 1 view .LVU425
  41:../../libDaisy//src/hid/switch.h ****     ~Switch() {}
 1841              		.loc 1 41 5 is_stmt 0 view .LVU426
 1842              	.LBE694:
  48:daisy_bed.h   **** 
 1843              		.loc 11 48 20 view .LVU427
 1844 00e0 2A4A     		ldr	r2, .L80+120
 1845 00e2 2849     		ldr	r1, .L80+112
 1846 00e4 2F48     		ldr	r0, .L80+144
 1847 00e6 FFF7FEFF 		bl	__aeabi_atexit
 1848              	.LVL97:
 1849              	.LBB695:
 1850              	.LBI663:
  64:../../libDaisy//src/daisy_patch_sm.h ****         ~DaisyPatchSM() {}
 1851              		.loc 4 64 9 is_stmt 1 view .LVU428
 1852              	.LBB689:
 1853              	.LBB668:
 1854              	.LBI668:
  77:../../libDaisy//src/sys/system.h ****     ~System() {}
 1855              		.loc 10 77 5 view .LVU429
ARM GAS  /var/folders/hl/qgbwny5j0fd895c2c41bk3tw0000gp/T//ccSxPsAD.s 			page 61


  77:../../libDaisy//src/sys/system.h ****     ~System() {}
 1856              		.loc 10 77 5 is_stmt 0 view .LVU430
 1857              	.LBE668:
 1858              	.LBB669:
 1859              	.LBI665:
 1860              		.loc 15 166 5 is_stmt 1 view .LVU431
 1861              	.LBE669:
 1862              	.LBE689:
 1863              	.LBE695:
  10:CloudPort.cpp **** ::daisy::Parameter lpParam;
 1864              		.loc 12 10 14 is_stmt 0 view .LVU432
 1865 00ea 2F49     		ldr	r1, .L80+148
 1866 00ec 274A     		ldr	r2, .L80+120
 1867 00ee 2846     		mov	r0, r5
 1868              	.LBB696:
 1869              	.LBB690:
 1870              	.LBB670:
 1871              	.LBB671:
 1872              	.LBB672:
 1873              	.LBB673:
 1874              	.LBB674:
 1875              		.file 16 "../../libDaisy//src/per/i2c.h"
   1:../../libDaisy//src/per/i2c.h **** #pragma once
   2:../../libDaisy//src/per/i2c.h **** #include "daisy_core.h"
   3:../../libDaisy//src/per/i2c.h **** 
   4:../../libDaisy//src/per/i2c.h **** namespace daisy
   5:../../libDaisy//src/per/i2c.h **** {
   6:../../libDaisy//src/per/i2c.h **** /** A handle for interacting with an I2C peripheral. This is a dumb
   7:../../libDaisy//src/per/i2c.h ****  *  gateway that internally points to one of the four I2C peripherals
   8:../../libDaisy//src/per/i2c.h ****  *  after it was initialised. It can then be copied and passed around.
   9:../../libDaisy//src/per/i2c.h ****  *  Use an I2CHandle like this:
  10:../../libDaisy//src/per/i2c.h ****  *  
  11:../../libDaisy//src/per/i2c.h ****  *      // setup the configuration
  12:../../libDaisy//src/per/i2c.h ****  *      I2CHandle::Config i2c_conf;
  13:../../libDaisy//src/per/i2c.h ****  *      i2c_conf.periph = I2CHandle::Config::Peripheral::I2C_1;
  14:../../libDaisy//src/per/i2c.h ****  *      i2c_conf.speed  = I2CHandle::Config::Speed::I2C_400KHZ;
  15:../../libDaisy//src/per/i2c.h ****  *      i2c_conf.mode   = I2CHandle::Config::Mode::Master;
  16:../../libDaisy//src/per/i2c.h ****  *      i2c_conf.pin_config.scl  = {DSY_GPIOB, 8};
  17:../../libDaisy//src/per/i2c.h ****  *      i2c_conf.pin_config.sda  = {DSY_GPIOB, 9};
  18:../../libDaisy//src/per/i2c.h ****  *      // initialise the peripheral
  19:../../libDaisy//src/per/i2c.h ****  *      I2CHandle i2c;
  20:../../libDaisy//src/per/i2c.h ****  *      i2c.Init(i2c_conf);
  21:../../libDaisy//src/per/i2c.h ****  *      // now i2c points to the corresponding peripheral and can be used.
  22:../../libDaisy//src/per/i2c.h ****  *      i2c.TransmitBlocking( ... );
  23:../../libDaisy//src/per/i2c.h ****  */
  24:../../libDaisy//src/per/i2c.h **** class I2CHandle
  25:../../libDaisy//src/per/i2c.h **** {
  26:../../libDaisy//src/per/i2c.h ****   public:
  27:../../libDaisy//src/per/i2c.h ****     /** Contains settings for initialising an I2C interface. */
  28:../../libDaisy//src/per/i2c.h ****     struct Config
  29:../../libDaisy//src/per/i2c.h ****     {
  30:../../libDaisy//src/per/i2c.h ****         /** Specifies whether the interface will operate in master or slave mode. */
  31:../../libDaisy//src/per/i2c.h ****         enum class Mode
  32:../../libDaisy//src/per/i2c.h ****         {
  33:../../libDaisy//src/per/i2c.h ****             I2C_MASTER,
  34:../../libDaisy//src/per/i2c.h ****             I2C_SLAVE,
  35:../../libDaisy//src/per/i2c.h ****         };
ARM GAS  /var/folders/hl/qgbwny5j0fd895c2c41bk3tw0000gp/T//ccSxPsAD.s 			page 62


  36:../../libDaisy//src/per/i2c.h **** 
  37:../../libDaisy//src/per/i2c.h ****         /** Specifices the internal peripheral to use (these are mapped to different pins on the ha
  38:../../libDaisy//src/per/i2c.h ****         enum class Peripheral
  39:../../libDaisy//src/per/i2c.h ****         {
  40:../../libDaisy//src/per/i2c.h ****             I2C_1 = 0, /**< & */
  41:../../libDaisy//src/per/i2c.h ****             I2C_2,     /**< & */
  42:../../libDaisy//src/per/i2c.h ****             I2C_3,     /**< & */
  43:../../libDaisy//src/per/i2c.h ****             I2C_4,     /**< & */
  44:../../libDaisy//src/per/i2c.h ****         };
  45:../../libDaisy//src/per/i2c.h **** 
  46:../../libDaisy//src/per/i2c.h ****         /** Rate at which the clock/data will be sent/received. The device being used will have max
  47:../../libDaisy//src/per/i2c.h ****          *  1MHZ Mode is currently 886kHz
  48:../../libDaisy//src/per/i2c.h ****          */
  49:../../libDaisy//src/per/i2c.h ****         enum class Speed
  50:../../libDaisy//src/per/i2c.h ****         {
  51:../../libDaisy//src/per/i2c.h ****             I2C_100KHZ, /**< & */
  52:../../libDaisy//src/per/i2c.h ****             I2C_400KHZ, /**< & */
  53:../../libDaisy//src/per/i2c.h ****             I2C_1MHZ,   /**< & */
  54:../../libDaisy//src/per/i2c.h ****         };
  55:../../libDaisy//src/per/i2c.h **** 
  56:../../libDaisy//src/per/i2c.h ****         Peripheral periph; /**< & */
  57:../../libDaisy//src/per/i2c.h ****         struct
  58:../../libDaisy//src/per/i2c.h ****         {
  59:../../libDaisy//src/per/i2c.h ****             dsy_gpio_pin scl; /**< & */
  60:../../libDaisy//src/per/i2c.h ****             dsy_gpio_pin sda; /**< & */
  61:../../libDaisy//src/per/i2c.h ****         } pin_config;         /**< & */
  62:../../libDaisy//src/per/i2c.h **** 
  63:../../libDaisy//src/per/i2c.h ****         Speed speed; /**< & */
  64:../../libDaisy//src/per/i2c.h ****         Mode  mode;  /**< & */
  65:../../libDaisy//src/per/i2c.h ****         // 0x10 is chosen as a default to avoid conflicts with reserved addresses
  66:../../libDaisy//src/per/i2c.h ****         uint8_t address = 0x10; /**< & */
  67:../../libDaisy//src/per/i2c.h ****     };
  68:../../libDaisy//src/per/i2c.h **** 
  69:../../libDaisy//src/per/i2c.h ****     /** Return values for I2C functions. */
  70:../../libDaisy//src/per/i2c.h ****     enum class Result
  71:../../libDaisy//src/per/i2c.h ****     {
  72:../../libDaisy//src/per/i2c.h ****         OK, /**< & */
  73:../../libDaisy//src/per/i2c.h ****         ERR /**< & */
  74:../../libDaisy//src/per/i2c.h ****     };
  75:../../libDaisy//src/per/i2c.h **** 
  76:../../libDaisy//src/per/i2c.h ****     enum class Direction
  77:../../libDaisy//src/per/i2c.h ****     {
  78:../../libDaisy//src/per/i2c.h ****         TRANSMIT, /**< & */
  79:../../libDaisy//src/per/i2c.h ****         RECEIVE,  /**< & */
  80:../../libDaisy//src/per/i2c.h ****     };
  81:../../libDaisy//src/per/i2c.h **** 
  82:../../libDaisy//src/per/i2c.h ****     I2CHandle() : pimpl_(nullptr) {}
 1876              		.loc 16 82 33 view .LVU433
 1877 00f0 2C62     		str	r4, [r5, #32]
 1878              	.LBE674:
 1879              	.LBE673:
 1880              	.LBE672:
 1881              	.LBE671:
 1882              	.LBE670:
 1883              	.LBB677:
 1884              	.LBB678:
 1885              	.LBB679:
ARM GAS  /var/folders/hl/qgbwny5j0fd895c2c41bk3tw0000gp/T//ccSxPsAD.s 			page 63


 1886              		.file 17 "../../libDaisy//src/per/dac.h"
   1:../../libDaisy//src/per/dac.h **** #pragma once
   2:../../libDaisy//src/per/dac.h **** #ifndef DSY_DAC_H
   3:../../libDaisy//src/per/dac.h **** #define DSY_DAC_H
   4:../../libDaisy//src/per/dac.h **** 
   5:../../libDaisy//src/per/dac.h **** #include "daisy_core.h"
   6:../../libDaisy//src/per/dac.h **** 
   7:../../libDaisy//src/per/dac.h **** namespace daisy
   8:../../libDaisy//src/per/dac.h **** {
   9:../../libDaisy//src/per/dac.h **** /** @brief DAC handle for Built-in DAC Peripheral 
  10:../../libDaisy//src/per/dac.h ****  *  @ingroup per_analog
  11:../../libDaisy//src/per/dac.h ****  ** 
  12:../../libDaisy//src/per/dac.h ****  ** For now only Normal Mode is supported,
  13:../../libDaisy//src/per/dac.h ****  ** Sample and hold mode provides reduced power consumption, but requires a bit more setup.
  14:../../libDaisy//src/per/dac.h ****  **
  15:../../libDaisy//src/per/dac.h ****  ** For now connecting the DAC through other internal peripherals is also not supported.
  16:../../libDaisy//src/per/dac.h ****  **
  17:../../libDaisy//src/per/dac.h ****  ** Since the DAC channels have dedicated pins we don't need to pass in a pin config like with
  18:../../libDaisy//src/per/dac.h ****  ** other modules. However, it is still important to not try to use the DAC pins for anything else.
  19:../../libDaisy//src/per/dac.h ****  ** DAC Channel 1 is on PA4, and DAC Channel 2 is on PA5
  20:../../libDaisy//src/per/dac.h ****  ***/
  21:../../libDaisy//src/per/dac.h **** class DacHandle
  22:../../libDaisy//src/per/dac.h **** {
  23:../../libDaisy//src/per/dac.h ****   public:
  24:../../libDaisy//src/per/dac.h ****     /** Return Values for the DacHandle class */
  25:../../libDaisy//src/per/dac.h ****     enum class Result
  26:../../libDaisy//src/per/dac.h ****     {
  27:../../libDaisy//src/per/dac.h ****         OK,
  28:../../libDaisy//src/per/dac.h ****         ERR,
  29:../../libDaisy//src/per/dac.h ****     };
  30:../../libDaisy//src/per/dac.h **** 
  31:../../libDaisy//src/per/dac.h ****     /** Selects which channel(s) will be configured for use. */
  32:../../libDaisy//src/per/dac.h ****     enum class Channel
  33:../../libDaisy//src/per/dac.h ****     {
  34:../../libDaisy//src/per/dac.h ****         ONE,
  35:../../libDaisy//src/per/dac.h ****         TWO,
  36:../../libDaisy//src/per/dac.h ****         BOTH,
  37:../../libDaisy//src/per/dac.h ****     };
  38:../../libDaisy//src/per/dac.h **** 
  39:../../libDaisy//src/per/dac.h ****     /** Sets the Mode for the DAC channels.
  40:../../libDaisy//src/per/dac.h ****      **
  41:../../libDaisy//src/per/dac.h ****      ** Polling mode uses the blocking mode to transmit a single value at a time.
  42:../../libDaisy//src/per/dac.h ****      **
  43:../../libDaisy//src/per/dac.h ****      ** DMA mode uses a buffer, and periodically transmits it triggering a 
  44:../../libDaisy//src/per/dac.h ****      ** callback to fill the buffer when it is ready for more samples.
  45:../../libDaisy//src/per/dac.h ****      ***/
  46:../../libDaisy//src/per/dac.h ****     enum class Mode
  47:../../libDaisy//src/per/dac.h ****     {
  48:../../libDaisy//src/per/dac.h ****         POLLING,
  49:../../libDaisy//src/per/dac.h ****         DMA,
  50:../../libDaisy//src/per/dac.h ****     };
  51:../../libDaisy//src/per/dac.h **** 
  52:../../libDaisy//src/per/dac.h ****     /** Sets the number of bits per sample transmitted out of the DAC.
  53:../../libDaisy//src/per/dac.h ****      ** The output range will be: 0V - VDDA
  54:../../libDaisy//src/per/dac.h ****      ** The resolution will be roughly: bitdepth / (VDDA - 0V) 
  55:../../libDaisy//src/per/dac.h ****      ***/
  56:../../libDaisy//src/per/dac.h ****     enum class BitDepth
ARM GAS  /var/folders/hl/qgbwny5j0fd895c2c41bk3tw0000gp/T//ccSxPsAD.s 			page 64


  57:../../libDaisy//src/per/dac.h ****     {
  58:../../libDaisy//src/per/dac.h ****         BITS_8,
  59:../../libDaisy//src/per/dac.h ****         BITS_12
  60:../../libDaisy//src/per/dac.h ****     };
  61:../../libDaisy//src/per/dac.h **** 
  62:../../libDaisy//src/per/dac.h ****     /** Sets whether the DAC output is buffered for higher drive ability. */
  63:../../libDaisy//src/per/dac.h ****     enum class BufferState
  64:../../libDaisy//src/per/dac.h ****     {
  65:../../libDaisy//src/per/dac.h ****         ENABLED,
  66:../../libDaisy//src/per/dac.h ****         DISABLED,
  67:../../libDaisy//src/per/dac.h ****     };
  68:../../libDaisy//src/per/dac.h **** 
  69:../../libDaisy//src/per/dac.h ****     /** Configuration structure for initializing the DAC structure. */
  70:../../libDaisy//src/per/dac.h ****     struct Config
  71:../../libDaisy//src/per/dac.h ****     {
  72:../../libDaisy//src/per/dac.h ****         /** Target Samplerate in Hz used to configure the internal 
  73:../../libDaisy//src/per/dac.h ****          ** timebase for DMA mode. Does nothing in POLLING mode.
  74:../../libDaisy//src/per/dac.h ****          ** If the value is 0 at Init time this will default to 48000Hz 
  75:../../libDaisy//src/per/dac.h ****          ** otherwise the driver will attempt meet the target.*/
  76:../../libDaisy//src/per/dac.h ****         uint32_t target_samplerate;
  77:../../libDaisy//src/per/dac.h **** 
  78:../../libDaisy//src/per/dac.h ****         Channel     chn;
  79:../../libDaisy//src/per/dac.h ****         Mode        mode;
  80:../../libDaisy//src/per/dac.h ****         BitDepth    bitdepth;
  81:../../libDaisy//src/per/dac.h ****         BufferState buff_state;
  82:../../libDaisy//src/per/dac.h ****     };
  83:../../libDaisy//src/per/dac.h **** 
  84:../../libDaisy//src/per/dac.h ****     DacHandle() : pimpl_(nullptr) {}
 1887              		.loc 17 84 33 view .LVU434
 1888 00f2 AC62     		str	r4, [r5, #40]
 1889              	.LBE679:
 1890              	.LBE678:
 1891              	.LBE677:
 1892              	.LBB680:
 1893              	.LBB681:
 1894              	.LBB682:
  95:../../libDaisy//src/hid/audio.h ****     ~AudioHandle() {}
 1895              		.loc 9 95 35 view .LVU435
 1896 00f4 C5E90344 		strd	r4, r4, [r5, #12]
 1897              	.LVL98:
  95:../../libDaisy//src/hid/audio.h ****     ~AudioHandle() {}
 1898              		.loc 9 95 35 view .LVU436
 1899              	.LBE682:
 1900              	.LBE681:
 1901              	.LBE680:
 1902              	.LBB683:
 1903              	.LBI683:
  92:../../libDaisy//src/per/adc.h ****     ~AdcHandle() {}
 1904              		.loc 8 92 5 is_stmt 1 view .LVU437
  92:../../libDaisy//src/per/adc.h ****     ~AdcHandle() {}
 1905              		.loc 8 92 5 is_stmt 0 view .LVU438
 1906              	.LBE683:
 1907              	.LBB684:
 1908              	.LBI684:
  40:../../libDaisy//src/hid/usb.h **** 
 1909              		.loc 7 40 5 is_stmt 1 view .LVU439
  40:../../libDaisy//src/hid/usb.h **** 
ARM GAS  /var/folders/hl/qgbwny5j0fd895c2c41bk3tw0000gp/T//ccSxPsAD.s 			page 65


 1910              		.loc 7 40 5 is_stmt 0 view .LVU440
 1911              	.LBE684:
 1912              	.LBB685:
 1913              	.LBI670:
  28:../../libDaisy//src/dev/codec_pcm3060.h ****     ~Pcm3060() {}
 1914              		.loc 6 28 5 is_stmt 1 view .LVU441
 1915              	.LBB676:
 1916              	.LBB675:
 1917              	.LBI672:
 1918              		.loc 16 82 5 view .LVU442
 1919              		.loc 16 82 5 is_stmt 0 view .LVU443
 1920              	.LBE675:
 1921              	.LBE676:
 1922              	.LBE685:
 1923              	.LBB686:
 1924              	.LBI677:
 1925              		.loc 17 84 5 is_stmt 1 view .LVU444
 1926              		.loc 17 84 5 is_stmt 0 view .LVU445
 1927              	.LBE686:
 1928              	.LBE690:
 1929              	.LBE696:
 1930              	.LBE701:
 1931              	.LBE704:
  64:../../libDaisy//src/daisy_patch_sm.h ****         ~DaisyPatchSM() {}
 1932              		.loc 4 64 24 is_stmt 1 view .LVU446
 1933              	.LBB705:
 1934              	.LBB702:
 1935              	.LBB697:
 1936              	.LBB691:
 1937              	.LBB687:
 1938              	.LBI687:
  20:../../libDaisy//src/hid/gatein.h ****     /** GateIn~
 1939              		.loc 5 20 5 view .LVU447
  20:../../libDaisy//src/hid/gatein.h ****     /** GateIn~
 1940              		.loc 5 20 5 is_stmt 0 view .LVU448
 1941              	.LBE687:
 1942              	.LBB688:
 1943              	.LBI688:
  20:../../libDaisy//src/hid/gatein.h ****     /** GateIn~
 1944              		.loc 5 20 5 is_stmt 1 view .LVU449
  20:../../libDaisy//src/hid/gatein.h ****     /** GateIn~
 1945              		.loc 5 20 5 is_stmt 0 view .LVU450
 1946              	.LBE688:
 1947              	.LBE691:
 1948              	.LBE697:
  10:CloudPort.cpp **** ::daisy::Parameter lpParam;
 1949              		.loc 12 10 14 view .LVU451
 1950 00f8 FFF7FEFF 		bl	__aeabi_atexit
 1951              	.LVL99:
 1952              	.LBB698:
 1953              	.LBI698:
  25:../../libDaisy//src/hid/parameter.h ****     /** Destructor */
 1954              		.loc 2 25 5 is_stmt 1 view .LVU452
 1955              	.LBB699:
 1956              	.LBB700:
 1957              	.LBI700:
  21:../../libDaisy//src/hid/ctrl.h ****     /** destructor */
ARM GAS  /var/folders/hl/qgbwny5j0fd895c2c41bk3tw0000gp/T//ccSxPsAD.s 			page 66


 1958              		.loc 3 21 5 view .LVU453
  21:../../libDaisy//src/hid/ctrl.h ****     /** destructor */
 1959              		.loc 3 21 5 is_stmt 0 view .LVU454
 1960              	.LBE700:
 1961              	.LBE699:
 1962              	.LBE698:
  11:CloudPort.cpp **** 
 1963              		.loc 12 11 20 view .LVU455
 1964 00fc 2B49     		ldr	r1, .L80+152
 1965 00fe 234A     		ldr	r2, .L80+120
 1966 0100 2B48     		ldr	r0, .L80+156
 1967 0102 FFF7FEFF 		bl	__aeabi_atexit
 1968              	.LVL100:
  14:CloudPort.cpp **** 
 1969              		.loc 12 14 27 view .LVU456
 1970 0106 2946     		mov	r1, r5
 1971 0108 2A48     		ldr	r0, .L80+160
 1972              	.LBE702:
 1973              	.LBE705:
 1974              		.loc 12 136 1 view .LVU457
 1975 010a BDE83840 		pop	{r3, r4, r5, lr}
 1976              		.cfi_restore 14
 1977              		.cfi_restore 5
 1978              		.cfi_restore 4
 1979              		.cfi_restore 3
 1980              		.cfi_def_cfa_offset 0
 1981              	.LBB706:
 1982              	.LBB703:
  14:CloudPort.cpp **** 
 1983              		.loc 12 14 27 view .LVU458
 1984 010e FFF7FEBF 		b	_ZN12CloudSeedAppC1ERN5daisy8patch_sm12DaisyPatchSME
 1985              	.LVL101:
 1986              	.L81:
 1987 0112 00BF     		.align	2
 1988              	.L80:
 1989 0114 00000000 		.word	.LANCHOR3
 1990 0118 00000000 		.word	.LANCHOR1
 1991 011c 00000000 		.word	.LANCHOR5
 1992 0120 00000000 		.word	.LANCHOR7
 1993 0124 00000000 		.word	.LANCHOR11
 1994 0128 00000000 		.word	.LANCHOR9
 1995 012c 00000000 		.word	.LANCHOR15
 1996 0130 00000000 		.word	.LANCHOR13
 1997 0134 00000000 		.word	_ZN5daisy8patch_sm12DaisyPatchSM2D7E
 1998 0138 00000000 		.word	_ZN5daisy8patch_sm12DaisyPatchSM2A9E
 1999 013c 00000000 		.word	.LANCHOR26
 2000 0140 00000000 		.word	.LANCHOR27
 2001 0144 00000000 		.word	.LANCHOR0
 2002 0148 00000000 		.word	_ZN5daisy8patch_sm12DaisyPatchSM2D1E
 2003 014c 00000000 		.word	_ZN5daisy8patch_sm12DaisyPatchSM2D2E
 2004 0150 00000000 		.word	.LANCHOR2
 2005 0154 00000000 		.word	.LANCHOR28
 2006 0158 00000000 		.word	.LANCHOR29
 2007 015c 00000000 		.word	.LANCHOR4
 2008 0160 00000000 		.word	_ZN5daisy8patch_sm12DaisyPatchSM2D3E
 2009 0164 00000000 		.word	_ZN5daisy8patch_sm12DaisyPatchSM2D6E
 2010 0168 00000000 		.word	_ZN5daisy8patch_sm12DaisyPatchSM2D4E
ARM GAS  /var/folders/hl/qgbwny5j0fd895c2c41bk3tw0000gp/T//ccSxPsAD.s 			page 67


 2011 016c 00000000 		.word	.LANCHOR12
 2012 0170 00000000 		.word	_ZN5daisy8patch_sm12DaisyPatchSM2D5E
 2013 0174 00000000 		.word	.LANCHOR30
 2014 0178 00000000 		.word	.LANCHOR31
 2015 017c 00000000 		.word	.LANCHOR32
 2016 0180 00000000 		.word	.LANCHOR33
 2017 0184 00000000 		.word	_ZN5daisy6SwitchD1Ev
 2018 0188 00000000 		.word	.LANCHOR6
 2019 018c 00000000 		.word	__dso_handle
 2020 0190 00000000 		.word	.LANCHOR8
 2021 0194 00000000 		.word	.LANCHOR10
 2022 0198 00000000 		.word	.LANCHOR14
 2023 019c 00000000 		.word	.LANCHOR19
 2024 01a0 00000000 		.word	.LANCHOR16
 2025 01a4 00000000 		.word	.LANCHOR17
 2026 01a8 00000000 		.word	_ZN5daisy8patch_sm12DaisyPatchSMD1Ev
 2027 01ac 00000000 		.word	_ZN5daisy9ParameterD1Ev
 2028 01b0 00000000 		.word	.LANCHOR22
 2029 01b4 00000000 		.word	.LANCHOR24
 2030              	.LBE703:
 2031              	.LBE706:
 2032              		.cfi_endproc
 2033              	.LFE5361:
 2035              		.section	.init_array,"aw",%init_array
 2036              		.align	2
 2037 0000 00000000 		.word	_GLOBAL__sub_I__ZN5daisy8patch_sm8gen_led1E(target1)
 2038              		.global	ctrlVal
 2039              		.global	allocation_count
 2040              		.global	pool_index
 2041              		.global	custom_pool
 2042              		.global	gAudioStarted
 2043              		.global	gRisingEdge
 2044              		.global	reverb_app
 2045              		.global	gApp
 2046              		.global	lpParam
 2047              		.global	hw
 2048              		.global	_ZN5daisy8patch_sm2b2E
 2049              		.global	_ZN5daisy8patch_sm2b1E
 2050              		.global	_ZN5daisy8patch_sm8newPinD5E
 2051              		.global	_ZN5daisy8patch_sm8oldPinD5E
 2052              		.global	_ZN5daisy8patch_sm8newPinD4E
 2053              		.global	_ZN5daisy8patch_sm8oldPinD4E
 2054              		.global	_ZN5daisy8patch_sm8newPinD6E
 2055              		.global	_ZN5daisy8patch_sm8oldPinD6E
 2056              		.global	_ZN5daisy8patch_sm8newPinD3E
 2057              		.global	_ZN5daisy8patch_sm8oldPinD3E
 2058              		.global	_ZN5daisy8patch_sm8newPinD1E
 2059              		.global	_ZN5daisy8patch_sm8oldPinD1E
 2060              		.global	_ZN5daisy8patch_sm8newPinD2E
 2061              		.global	_ZN5daisy8patch_sm8oldPinD2E
 2062              		.global	_ZN5daisy8patch_sm8newPinA9E
 2063              		.global	_ZN5daisy8patch_sm8oldPinA9E
 2064              		.global	_ZN5daisy8patch_sm8newPinD7E
 2065              		.global	_ZN5daisy8patch_sm8oldPinD7E
 2066              		.global	_ZN5daisy8patch_sm13gate_out_led2E
 2067              		.global	_ZN5daisy8patch_sm13gate_out_led1E
 2068              		.global	_ZN5daisy8patch_sm12gate_in_led2E
ARM GAS  /var/folders/hl/qgbwny5j0fd895c2c41bk3tw0000gp/T//ccSxPsAD.s 			page 68


 2069              		.global	_ZN5daisy8patch_sm12gate_in_led1E
 2070              		.global	_ZN5daisy8patch_sm7cv_led2E
 2071              		.global	_ZN5daisy8patch_sm7cv_led1E
 2072              		.global	_ZN5daisy8patch_sm8gen_led2E
 2073              		.global	_ZN5daisy8patch_sm8gen_led1E
 2074              		.section	.bss._ZN5daisy8patch_sm12gate_in_led1E,"aw",%nobits
 2075              		.align	2
 2076              		.set	.LANCHOR9,. + 0
 2079              	_ZN5daisy8patch_sm12gate_in_led1E:
 2080 0000 00000000 		.space	20
 2080      00000000 
 2080      00000000 
 2080      00000000 
 2080      00000000 
 2081              		.section	.bss._ZN5daisy8patch_sm12gate_in_led2E,"aw",%nobits
 2082              		.align	2
 2083              		.set	.LANCHOR11,. + 0
 2086              	_ZN5daisy8patch_sm12gate_in_led2E:
 2087 0000 00000000 		.space	20
 2087      00000000 
 2087      00000000 
 2087      00000000 
 2087      00000000 
 2088              		.section	.bss._ZN5daisy8patch_sm13gate_out_led1E,"aw",%nobits
 2089              		.align	2
 2090              		.set	.LANCHOR13,. + 0
 2093              	_ZN5daisy8patch_sm13gate_out_led1E:
 2094 0000 00000000 		.space	20
 2094      00000000 
 2094      00000000 
 2094      00000000 
 2094      00000000 
 2095              		.section	.bss._ZN5daisy8patch_sm13gate_out_led2E,"aw",%nobits
 2096              		.align	2
 2097              		.set	.LANCHOR15,. + 0
 2100              	_ZN5daisy8patch_sm13gate_out_led2E:
 2101 0000 00000000 		.space	20
 2101      00000000 
 2101      00000000 
 2101      00000000 
 2101      00000000 
 2102              		.section	.bss._ZN5daisy8patch_sm2b1E,"aw",%nobits
 2103              		.align	2
 2104              		.set	.LANCHOR16,. + 0
 2107              	_ZN5daisy8patch_sm2b1E:
 2108 0000 00000000 		.space	16
 2108      00000000 
 2108      00000000 
 2108      00000000 
 2109              		.section	.bss._ZN5daisy8patch_sm2b2E,"aw",%nobits
 2110              		.align	2
 2111              		.set	.LANCHOR17,. + 0
 2114              	_ZN5daisy8patch_sm2b2E:
 2115 0000 00000000 		.space	16
 2115      00000000 
 2115      00000000 
 2115      00000000 
ARM GAS  /var/folders/hl/qgbwny5j0fd895c2c41bk3tw0000gp/T//ccSxPsAD.s 			page 69


 2116              		.section	.bss._ZN5daisy8patch_sm7cv_led1E,"aw",%nobits
 2117              		.align	2
 2118              		.set	.LANCHOR5,. + 0
 2121              	_ZN5daisy8patch_sm7cv_led1E:
 2122 0000 00000000 		.space	20
 2122      00000000 
 2122      00000000 
 2122      00000000 
 2122      00000000 
 2123              		.section	.bss._ZN5daisy8patch_sm7cv_led2E,"aw",%nobits
 2124              		.align	2
 2125              		.set	.LANCHOR7,. + 0
 2128              	_ZN5daisy8patch_sm7cv_led2E:
 2129 0000 00000000 		.space	20
 2129      00000000 
 2129      00000000 
 2129      00000000 
 2129      00000000 
 2130              		.section	.bss._ZN5daisy8patch_sm8gen_led1E,"aw",%nobits
 2131              		.align	2
 2132              		.set	.LANCHOR1,. + 0
 2135              	_ZN5daisy8patch_sm8gen_led1E:
 2136 0000 00000000 		.space	20
 2136      00000000 
 2136      00000000 
 2136      00000000 
 2136      00000000 
 2137              		.section	.bss._ZN5daisy8patch_sm8gen_led2E,"aw",%nobits
 2138              		.align	2
 2139              		.set	.LANCHOR3,. + 0
 2142              	_ZN5daisy8patch_sm8gen_led2E:
 2143 0000 00000000 		.space	20
 2143      00000000 
 2143      00000000 
 2143      00000000 
 2143      00000000 
 2144              		.section	.bss._ZN5daisy8patch_sm8newPinA9E,"aw",%nobits
 2145              		.align	2
 2146              		.set	.LANCHOR2,. + 0
 2149              	_ZN5daisy8patch_sm8newPinA9E:
 2150 0000 0000     		.space	2
 2151              		.section	.bss._ZN5daisy8patch_sm8newPinD1E,"aw",%nobits
 2152              		.align	2
 2153              		.set	.LANCHOR6,. + 0
 2156              	_ZN5daisy8patch_sm8newPinD1E:
 2157 0000 0000     		.space	2
 2158              		.section	.bss._ZN5daisy8patch_sm8newPinD2E,"aw",%nobits
 2159              		.align	2
 2160              		.set	.LANCHOR4,. + 0
 2163              	_ZN5daisy8patch_sm8newPinD2E:
 2164 0000 0000     		.space	2
 2165              		.section	.bss._ZN5daisy8patch_sm8newPinD3E,"aw",%nobits
 2166              		.align	2
 2167              		.set	.LANCHOR8,. + 0
 2170              	_ZN5daisy8patch_sm8newPinD3E:
 2171 0000 0000     		.space	2
 2172              		.section	.bss._ZN5daisy8patch_sm8newPinD4E,"aw",%nobits
ARM GAS  /var/folders/hl/qgbwny5j0fd895c2c41bk3tw0000gp/T//ccSxPsAD.s 			page 70


 2173              		.align	2
 2174              		.set	.LANCHOR10,. + 0
 2177              	_ZN5daisy8patch_sm8newPinD4E:
 2178 0000 0000     		.space	2
 2179              		.section	.bss._ZN5daisy8patch_sm8newPinD5E,"aw",%nobits
 2180              		.align	2
 2181              		.set	.LANCHOR14,. + 0
 2184              	_ZN5daisy8patch_sm8newPinD5E:
 2185 0000 0000     		.space	2
 2186              		.section	.bss._ZN5daisy8patch_sm8newPinD6E,"aw",%nobits
 2187              		.align	2
 2188              		.set	.LANCHOR12,. + 0
 2191              	_ZN5daisy8patch_sm8newPinD6E:
 2192 0000 0000     		.space	2
 2193              		.section	.bss._ZN5daisy8patch_sm8newPinD7E,"aw",%nobits
 2194              		.align	2
 2195              		.set	.LANCHOR0,. + 0
 2198              	_ZN5daisy8patch_sm8newPinD7E:
 2199 0000 0000     		.space	2
 2200              		.section	.bss._ZN5daisy8patch_sm8oldPinA9E,"aw",%nobits
 2201              		.align	2
 2202              		.set	.LANCHOR27,. + 0
 2205              	_ZN5daisy8patch_sm8oldPinA9E:
 2206 0000 0000     		.space	2
 2207              		.section	.bss._ZN5daisy8patch_sm8oldPinD1E,"aw",%nobits
 2208              		.align	2
 2209              		.set	.LANCHOR29,. + 0
 2212              	_ZN5daisy8patch_sm8oldPinD1E:
 2213 0000 0000     		.space	2
 2214              		.section	.bss._ZN5daisy8patch_sm8oldPinD2E,"aw",%nobits
 2215              		.align	2
 2216              		.set	.LANCHOR28,. + 0
 2219              	_ZN5daisy8patch_sm8oldPinD2E:
 2220 0000 0000     		.space	2
 2221              		.section	.bss._ZN5daisy8patch_sm8oldPinD3E,"aw",%nobits
 2222              		.align	2
 2223              		.set	.LANCHOR30,. + 0
 2226              	_ZN5daisy8patch_sm8oldPinD3E:
 2227 0000 0000     		.space	2
 2228              		.section	.bss._ZN5daisy8patch_sm8oldPinD4E,"aw",%nobits
 2229              		.align	2
 2230              		.set	.LANCHOR32,. + 0
 2233              	_ZN5daisy8patch_sm8oldPinD4E:
 2234 0000 0000     		.space	2
 2235              		.section	.bss._ZN5daisy8patch_sm8oldPinD5E,"aw",%nobits
 2236              		.align	2
 2237              		.set	.LANCHOR33,. + 0
 2240              	_ZN5daisy8patch_sm8oldPinD5E:
 2241 0000 0000     		.space	2
 2242              		.section	.bss._ZN5daisy8patch_sm8oldPinD6E,"aw",%nobits
 2243              		.align	2
 2244              		.set	.LANCHOR31,. + 0
 2247              	_ZN5daisy8patch_sm8oldPinD6E:
 2248 0000 0000     		.space	2
 2249              		.section	.bss._ZN5daisy8patch_sm8oldPinD7E,"aw",%nobits
 2250              		.align	2
 2251              		.set	.LANCHOR26,. + 0
ARM GAS  /var/folders/hl/qgbwny5j0fd895c2c41bk3tw0000gp/T//ccSxPsAD.s 			page 71


 2254              	_ZN5daisy8patch_sm8oldPinD7E:
 2255 0000 0000     		.space	2
 2256              		.section	.bss.allocation_count,"aw",%nobits
 2257              		.align	2
 2260              	allocation_count:
 2261 0000 00000000 		.space	4
 2262              		.section	.bss.gApp,"aw",%nobits
 2263              		.align	2
 2264              		.set	.LANCHOR21,. + 0
 2267              	gApp:
 2268 0000 00000000 		.space	4
 2269              		.section	.bss.gAudioStarted,"aw",%nobits
 2270              		.set	.LANCHOR23,. + 0
 2273              	gAudioStarted:
 2274 0000 00       		.space	1
 2275              		.section	.bss.gRisingEdge,"aw",%nobits
 2276              		.set	.LANCHOR25,. + 0
 2279              	gRisingEdge:
 2280 0000 00       		.space	1
 2281              		.section	.bss.hw,"aw",%nobits
 2282              		.align	2
 2283              		.set	.LANCHOR19,. + 0
 2286              	hw:
 2287 0000 00000000 		.space	464
 2287      00000000 
 2287      00000000 
 2287      00000000 
 2287      00000000 
 2288              		.section	.bss.lpParam,"aw",%nobits
 2289              		.align	2
 2290              		.set	.LANCHOR22,. + 0
 2293              	lpParam:
 2294 0000 00000000 		.space	56
 2294      00000000 
 2294      00000000 
 2294      00000000 
 2294      00000000 
 2295              		.section	.bss.pool_index,"aw",%nobits
 2296              		.align	2
 2297              		.set	.LANCHOR18,. + 0
 2300              	pool_index:
 2301 0000 00000000 		.space	4
 2302              		.section	.bss.reverb_app,"aw",%nobits
 2303              		.align	2
 2304              		.set	.LANCHOR24,. + 0
 2307              	reverb_app:
 2308 0000 00000000 		.space	4
 2309              		.section	.data.ctrlVal,"aw"
 2310              		.align	2
 2311              		.set	.LANCHOR20,. + 0
 2314              	ctrlVal:
 2315 0000 0000803F 		.word	1065353216
 2316 0004 0000803F 		.word	1065353216
 2317 0008 0000803F 		.word	1065353216
 2318 000c 0000803F 		.word	1065353216
 2319              		.section	.sdram_bss,"aw"
 2320              		.align	2
ARM GAS  /var/folders/hl/qgbwny5j0fd895c2c41bk3tw0000gp/T//ccSxPsAD.s 			page 72


 2323              	custom_pool:
 2324 0000 00000000 		.space	50331648
 2324      00000000 
 2324      00000000 
 2324      00000000 
 2324      00000000 
 2325              		.text
 2326              	.Letext0:
 2327              		.file 18 "/opt/homebrew/Cellar/arm-none-eabi-gcc/10.3-2021.07/gcc/arm-none-eabi/include/machine/_d
 2328              		.file 19 "/opt/homebrew/Cellar/arm-none-eabi-gcc/10.3-2021.07/gcc/arm-none-eabi/include/sys/_stdin
 2329              		.file 20 "/opt/homebrew/Cellar/arm-none-eabi-gcc/10.3-2021.07/gcc/arm-none-eabi/include/stdint.h"
 2330              		.file 21 "/opt/homebrew/Cellar/arm-none-eabi-gcc/10.3-2021.07/gcc/lib/gcc/arm-none-eabi/10.3.1/inc
 2331              		.file 22 "/opt/homebrew/Cellar/arm-none-eabi-gcc/10.3-2021.07/gcc/arm-none-eabi/include/c++/10.3.1
 2332              		.file 23 "/opt/homebrew/Cellar/arm-none-eabi-gcc/10.3-2021.07/gcc/arm-none-eabi/include/c++/10.3.1
 2333              		.file 24 "/opt/homebrew/Cellar/arm-none-eabi-gcc/10.3-2021.07/gcc/arm-none-eabi/include/c++/10.3.1
 2334              		.file 25 "/opt/homebrew/Cellar/arm-none-eabi-gcc/10.3-2021.07/gcc/arm-none-eabi/include/c++/10.3.1
 2335              		.file 26 "/opt/homebrew/Cellar/arm-none-eabi-gcc/10.3-2021.07/gcc/arm-none-eabi/include/c++/10.3.1
 2336              		.file 27 "/opt/homebrew/Cellar/arm-none-eabi-gcc/10.3-2021.07/gcc/arm-none-eabi/include/c++/10.3.1
 2337              		.file 28 "/opt/homebrew/Cellar/arm-none-eabi-gcc/10.3-2021.07/gcc/arm-none-eabi/include/c++/10.3.1
 2338              		.file 29 "/opt/homebrew/Cellar/arm-none-eabi-gcc/10.3-2021.07/gcc/arm-none-eabi/include/c++/10.3.1
 2339              		.file 30 "/opt/homebrew/Cellar/arm-none-eabi-gcc/10.3-2021.07/gcc/arm-none-eabi/include/c++/10.3.1
 2340              		.file 31 "/opt/homebrew/Cellar/arm-none-eabi-gcc/10.3-2021.07/gcc/arm-none-eabi/include/c++/10.3.1
 2341              		.file 32 "/opt/homebrew/Cellar/arm-none-eabi-gcc/10.3-2021.07/gcc/arm-none-eabi/include/c++/10.3.1
 2342              		.file 33 "/opt/homebrew/Cellar/arm-none-eabi-gcc/10.3-2021.07/gcc/arm-none-eabi/include/c++/10.3.1
 2343              		.file 34 "/opt/homebrew/Cellar/arm-none-eabi-gcc/10.3-2021.07/gcc/arm-none-eabi/include/c++/10.3.1
 2344              		.file 35 "/opt/homebrew/Cellar/arm-none-eabi-gcc/10.3-2021.07/gcc/arm-none-eabi/include/c++/10.3.1
 2345              		.file 36 "/opt/homebrew/Cellar/arm-none-eabi-gcc/10.3-2021.07/gcc/arm-none-eabi/include/c++/10.3.1
 2346              		.file 37 "/opt/homebrew/Cellar/arm-none-eabi-gcc/10.3-2021.07/gcc/arm-none-eabi/include/c++/10.3.1
 2347              		.file 38 "/opt/homebrew/Cellar/arm-none-eabi-gcc/10.3-2021.07/gcc/arm-none-eabi/include/c++/10.3.1
 2348              		.file 39 "/opt/homebrew/Cellar/arm-none-eabi-gcc/10.3-2021.07/gcc/arm-none-eabi/include/c++/10.3.1
 2349              		.file 40 "/opt/homebrew/Cellar/arm-none-eabi-gcc/10.3-2021.07/gcc/arm-none-eabi/include/sys/_types
 2350              		.file 41 "/opt/homebrew/Cellar/arm-none-eabi-gcc/10.3-2021.07/gcc/arm-none-eabi/include/sys/reent.
 2351              		.file 42 "/opt/homebrew/Cellar/arm-none-eabi-gcc/10.3-2021.07/gcc/arm-none-eabi/include/sys/lock.h
 2352              		.file 43 "/opt/homebrew/Cellar/arm-none-eabi-gcc/10.3-2021.07/gcc/arm-none-eabi/include/math.h"
 2353              		.file 44 "/opt/homebrew/Cellar/arm-none-eabi-gcc/10.3-2021.07/gcc/arm-none-eabi/include/stdlib.h"
 2354              		.file 45 "/opt/homebrew/Cellar/arm-none-eabi-gcc/10.3-2021.07/gcc/arm-none-eabi/include/c++/10.3.1
 2355              		.file 46 "/opt/homebrew/Cellar/arm-none-eabi-gcc/10.3-2021.07/gcc/arm-none-eabi/include/c++/10.3.1
 2356              		.file 47 "../../libDaisy//src/per/tim.h"
 2357              		.file 48 "../../libDaisy//src/per/sai.h"
 2358              		.file 49 "../../libDaisy//src/util/wav_format.h"
 2359              		.file 50 "../../libDaisy//src/dev/max11300.h"
 2360              		.file 51 "../../libDaisy//src/dev/sdram.h"
 2361              		.file 52 "/opt/homebrew/Cellar/arm-none-eabi-gcc/10.3-2021.07/gcc/lib/gcc/arm-none-eabi/10.3.1/inc
 2362              		.file 53 "/opt/homebrew/Cellar/arm-none-eabi-gcc/10.3-2021.07/gcc/arm-none-eabi/include/stdio.h"
 2363              		.file 54 "/opt/homebrew/Cellar/arm-none-eabi-gcc/10.3-2021.07/gcc/arm-none-eabi/include/string.h"
 2364              		.file 55 "../../DaisySP//Source/Control/adenv.h"
 2365              		.file 56 "../../DaisySP//Source/Utility/dsp.h"
 2366              		.file 57 "/opt/homebrew/Cellar/arm-none-eabi-gcc/10.3-2021.07/gcc/arm-none-eabi/include/wchar.h"
 2367              		.file 58 "/opt/homebrew/Cellar/arm-none-eabi-gcc/10.3-2021.07/gcc/arm-none-eabi/include/locale.h"
 2368              		.file 59 "cloudseed_app.h"
 2369              		.file 60 "<built-in>"
 2370              		.file 61 "../../libDaisy//src/dev/sr_595.h"
ARM GAS  /var/folders/hl/qgbwny5j0fd895c2c41bk3tw0000gp/T//ccSxPsAD.s 			page 73

