ARM GAS  C:\Users\daniel\AppData\Local\Temp\ccsQEchw.s 			page 1


   1              		.cpu cortex-m7
   2              		.eabi_attribute 28, 1
   3              		.eabi_attribute 20, 1
   4              		.eabi_attribute 21, 1
   5              		.eabi_attribute 23, 3
   6              		.eabi_attribute 24, 1
   7              		.eabi_attribute 25, 1
   8              		.eabi_attribute 26, 1
   9              		.eabi_attribute 30, 2
  10              		.eabi_attribute 34, 1
  11              		.eabi_attribute 18, 4
  12              		.file	"mikronima.cpp"
  13              		.text
  14              	.Ltext0:
  15              		.cfi_sections	.debug_frame
  16              		.section	.text._ZN5daisy8patch_sm12DaisyPatchSMD2Ev,"axG",%progbits,_ZN5daisy8patch_sm12DaisyPatch
  17              		.align	1
  18              		.p2align 2,,3
  19              		.weak	_ZN5daisy8patch_sm12DaisyPatchSMD2Ev
  20              		.arch armv7e-m
  21              		.syntax unified
  22              		.thumb
  23              		.thumb_func
  24              		.fpu fpv5-d16
  26              	_ZN5daisy8patch_sm12DaisyPatchSMD2Ev:
  27              	.LVL0:
  28              	.LFB2528:
  29              		.file 1 "../../libDaisy//src/daisy_patch_sm.h"
   1:../../libDaisy//src/daisy_patch_sm.h **** #pragma once
   2:../../libDaisy//src/daisy_patch_sm.h **** 
   3:../../libDaisy//src/daisy_patch_sm.h **** #include "daisy.h"
   4:../../libDaisy//src/daisy_patch_sm.h **** 
   5:../../libDaisy//src/daisy_patch_sm.h **** namespace daisy
   6:../../libDaisy//src/daisy_patch_sm.h **** {
   7:../../libDaisy//src/daisy_patch_sm.h **** namespace patch_sm
   8:../../libDaisy//src/daisy_patch_sm.h **** {
   9:../../libDaisy//src/daisy_patch_sm.h ****     /** Accessors for the Analog Controls. 
  10:../../libDaisy//src/daisy_patch_sm.h ****      *  These cover the 8x Bipolar CV inputs
  11:../../libDaisy//src/daisy_patch_sm.h ****      *  as well as the 4x 0-3V3 ADC inputs on
  12:../../libDaisy//src/daisy_patch_sm.h ****      *  the hardware 
  13:../../libDaisy//src/daisy_patch_sm.h ****      * 
  14:../../libDaisy//src/daisy_patch_sm.h ****      *  When reading a value with DaisyPatchSM::GetAdcValue()
  15:../../libDaisy//src/daisy_patch_sm.h ****      * 
  16:../../libDaisy//src/daisy_patch_sm.h ****      *  patch.GetAdcValue(patch_sm::CV_1);
  17:../../libDaisy//src/daisy_patch_sm.h ****      */
  18:../../libDaisy//src/daisy_patch_sm.h ****     enum
  19:../../libDaisy//src/daisy_patch_sm.h ****     {
  20:../../libDaisy//src/daisy_patch_sm.h ****         CV_1 = 0,
  21:../../libDaisy//src/daisy_patch_sm.h ****         CV_2,
  22:../../libDaisy//src/daisy_patch_sm.h ****         CV_3,
  23:../../libDaisy//src/daisy_patch_sm.h ****         CV_4,
  24:../../libDaisy//src/daisy_patch_sm.h ****         CV_5,
  25:../../libDaisy//src/daisy_patch_sm.h ****         CV_6,
  26:../../libDaisy//src/daisy_patch_sm.h ****         CV_7,
  27:../../libDaisy//src/daisy_patch_sm.h ****         CV_8,
  28:../../libDaisy//src/daisy_patch_sm.h ****         ADC_9,
  29:../../libDaisy//src/daisy_patch_sm.h ****         ADC_10,
ARM GAS  C:\Users\daniel\AppData\Local\Temp\ccsQEchw.s 			page 2


  30:../../libDaisy//src/daisy_patch_sm.h ****         ADC_11,
  31:../../libDaisy//src/daisy_patch_sm.h ****         ADC_12,
  32:../../libDaisy//src/daisy_patch_sm.h ****         ADC_LAST,
  33:../../libDaisy//src/daisy_patch_sm.h ****     };
  34:../../libDaisy//src/daisy_patch_sm.h **** 
  35:../../libDaisy//src/daisy_patch_sm.h ****     /** Enum for addressing the CV Outputs via the WriteCvOut function. */
  36:../../libDaisy//src/daisy_patch_sm.h ****     enum
  37:../../libDaisy//src/daisy_patch_sm.h ****     {
  38:../../libDaisy//src/daisy_patch_sm.h ****         CV_OUT_BOTH = 0,
  39:../../libDaisy//src/daisy_patch_sm.h ****         CV_OUT_1,
  40:../../libDaisy//src/daisy_patch_sm.h ****         CV_OUT_2,
  41:../../libDaisy//src/daisy_patch_sm.h ****     };
  42:../../libDaisy//src/daisy_patch_sm.h **** 
  43:../../libDaisy//src/daisy_patch_sm.h **** 
  44:../../libDaisy//src/daisy_patch_sm.h ****     /** @brief Board support file for DaisyPatchSM hardware
  45:../../libDaisy//src/daisy_patch_sm.h ****      *  @author shensley
  46:../../libDaisy//src/daisy_patch_sm.h ****      *  @ingroup boards
  47:../../libDaisy//src/daisy_patch_sm.h ****      * 
  48:../../libDaisy//src/daisy_patch_sm.h ****      *  Daisy Patch SM is a complete Eurorack module DSP engine.
  49:../../libDaisy//src/daisy_patch_sm.h ****      *  Based on the Daisy Seed, with circuits added for 
  50:../../libDaisy//src/daisy_patch_sm.h ****      *  interfacing directly with eurorack modular synthesizers.
  51:../../libDaisy//src/daisy_patch_sm.h ****      */
  52:../../libDaisy//src/daisy_patch_sm.h ****     class DaisyPatchSM
  53:../../libDaisy//src/daisy_patch_sm.h ****     {
  54:../../libDaisy//src/daisy_patch_sm.h ****       public:
  55:../../libDaisy//src/daisy_patch_sm.h ****         /** Helper for mapping pins, and accessing them using the `GetPin` function */
  56:../../libDaisy//src/daisy_patch_sm.h ****         enum class PinBank
  57:../../libDaisy//src/daisy_patch_sm.h ****         {
  58:../../libDaisy//src/daisy_patch_sm.h ****             A,
  59:../../libDaisy//src/daisy_patch_sm.h ****             B,
  60:../../libDaisy//src/daisy_patch_sm.h ****             C,
  61:../../libDaisy//src/daisy_patch_sm.h ****             D
  62:../../libDaisy//src/daisy_patch_sm.h ****         };
  63:../../libDaisy//src/daisy_patch_sm.h **** 
  64:../../libDaisy//src/daisy_patch_sm.h ****         DaisyPatchSM() {}
  65:../../libDaisy//src/daisy_patch_sm.h ****         ~DaisyPatchSM() {}
  30              		.loc 1 65 9 view -0
  31              		.cfi_startproc
  32              		@ args = 0, pretend = 0, frame = 0
  33              		@ frame_needed = 0, uses_anonymous_args = 0
  34              		@ link register save eliminated.
  35              	.LBB313:
  36              	.LBI313:
  37              		.file 2 "../../libDaisy//src/hid/gatein.h"
   1:../../libDaisy//src/hid/gatein.h **** #pragma once
   2:../../libDaisy//src/hid/gatein.h **** #ifndef DSY_GATEIN_H
   3:../../libDaisy//src/hid/gatein.h **** #define DSY_GATEIN_H
   4:../../libDaisy//src/hid/gatein.h **** #include "per/gpio.h"
   5:../../libDaisy//src/hid/gatein.h **** 
   6:../../libDaisy//src/hid/gatein.h **** namespace daisy
   7:../../libDaisy//src/hid/gatein.h **** {
   8:../../libDaisy//src/hid/gatein.h **** /**
   9:../../libDaisy//src/hid/gatein.h ****    @brief Generic Class for handling gate inputs through GPIO.
  10:../../libDaisy//src/hid/gatein.h ****    @author Stephen Hensley
  11:../../libDaisy//src/hid/gatein.h ****    @date    March 2020
  12:../../libDaisy//src/hid/gatein.h ****    @ingroup controls
  13:../../libDaisy//src/hid/gatein.h **** */
ARM GAS  C:\Users\daniel\AppData\Local\Temp\ccsQEchw.s 			page 3


  14:../../libDaisy//src/hid/gatein.h **** class GateIn
  15:../../libDaisy//src/hid/gatein.h **** {
  16:../../libDaisy//src/hid/gatein.h ****   public:
  17:../../libDaisy//src/hid/gatein.h ****     /** GateIn 
  18:../../libDaisy//src/hid/gatein.h ****     Constructor 
  19:../../libDaisy//src/hid/gatein.h ****     */
  20:../../libDaisy//src/hid/gatein.h ****     GateIn() {}
  21:../../libDaisy//src/hid/gatein.h ****     /** GateIn~
  22:../../libDaisy//src/hid/gatein.h ****     Destructor 
  23:../../libDaisy//src/hid/gatein.h ****     */
  24:../../libDaisy//src/hid/gatein.h ****     ~GateIn() {}
  38              		.loc 2 24 5 view .LVU1
  39              		.loc 2 24 5 is_stmt 0 view .LVU2
  40              	.LBE313:
  41              	.LBB314:
  42              	.LBI314:
  43              		.loc 2 24 5 is_stmt 1 view .LVU3
  44              		.loc 2 24 5 is_stmt 0 view .LVU4
  45              	.LBE314:
  46              	.LBB315:
  47              	.LBI315:
  48              		.file 3 "../../libDaisy//src/dev/codec_pcm3060.h"
   1:../../libDaisy//src/dev/codec_pcm3060.h **** #pragma once
   2:../../libDaisy//src/dev/codec_pcm3060.h **** #ifndef DSY_CODEC_PCM3060_H
   3:../../libDaisy//src/dev/codec_pcm3060.h **** #define DSY_CODEC_PCM3060_H
   4:../../libDaisy//src/dev/codec_pcm3060.h **** #include "per/i2c.h"
   5:../../libDaisy//src/dev/codec_pcm3060.h **** namespace daisy
   6:../../libDaisy//src/dev/codec_pcm3060.h **** {
   7:../../libDaisy//src/dev/codec_pcm3060.h **** /**
   8:../../libDaisy//src/dev/codec_pcm3060.h ****  * @brief Driver for the TI PCM3060 Audio Codec.
   9:../../libDaisy//src/dev/codec_pcm3060.h ****  * @addtogroup codec
  10:../../libDaisy//src/dev/codec_pcm3060.h ****  * 
  11:../../libDaisy//src/dev/codec_pcm3060.h ****  * For now this is a limited interface that uses I2C to communicate with the PCM3060
  12:../../libDaisy//src/dev/codec_pcm3060.h ****  * The device can also be accessed with SPI, which is not yet supported.
  13:../../libDaisy//src/dev/codec_pcm3060.h ****  * 
  14:../../libDaisy//src/dev/codec_pcm3060.h ****  * For now all registers are set to their defaults, and the Init function will 
  15:../../libDaisy//src/dev/codec_pcm3060.h ****  * perform a MRST and SRST before setting the format to 24bit LJ, and disabling 
  16:../../libDaisy//src/dev/codec_pcm3060.h ****  * power save for both the ADC and DAC.
  17:../../libDaisy//src/dev/codec_pcm3060.h ****  *
  18:../../libDaisy//src/dev/codec_pcm3060.h ****  */
  19:../../libDaisy//src/dev/codec_pcm3060.h **** class Pcm3060
  20:../../libDaisy//src/dev/codec_pcm3060.h **** {
  21:../../libDaisy//src/dev/codec_pcm3060.h ****   public:
  22:../../libDaisy//src/dev/codec_pcm3060.h ****     enum class Result
  23:../../libDaisy//src/dev/codec_pcm3060.h ****     {
  24:../../libDaisy//src/dev/codec_pcm3060.h ****         OK,
  25:../../libDaisy//src/dev/codec_pcm3060.h ****         ERR,
  26:../../libDaisy//src/dev/codec_pcm3060.h ****     };
  27:../../libDaisy//src/dev/codec_pcm3060.h **** 
  28:../../libDaisy//src/dev/codec_pcm3060.h ****     Pcm3060() {}
  29:../../libDaisy//src/dev/codec_pcm3060.h ****     ~Pcm3060() {}
  49              		.loc 3 29 5 is_stmt 1 view .LVU5
  50              		.loc 3 29 5 is_stmt 0 view .LVU6
  51              	.LBE315:
  52              	.LBB316:
  53              	.LBI316:
  54              		.file 4 "../../libDaisy//src/hid/usb.h"
ARM GAS  C:\Users\daniel\AppData\Local\Temp\ccsQEchw.s 			page 4


   1:../../libDaisy//src/hid/usb.h **** #pragma once
   2:../../libDaisy//src/hid/usb.h **** #ifndef DSY_HID_USB_H
   3:../../libDaisy//src/hid/usb.h **** #define DSY_HID_USB_H
   4:../../libDaisy//src/hid/usb.h **** #include <stdint.h>
   5:../../libDaisy//src/hid/usb.h **** #include <stdlib.h>
   6:../../libDaisy//src/hid/usb.h **** 
   7:../../libDaisy//src/hid/usb.h **** namespace daisy
   8:../../libDaisy//src/hid/usb.h **** /** @addtogroup human_interface
   9:../../libDaisy//src/hid/usb.h ****     @{
  10:../../libDaisy//src/hid/usb.h **** */
  11:../../libDaisy//src/hid/usb.h **** 
  12:../../libDaisy//src/hid/usb.h **** {
  13:../../libDaisy//src/hid/usb.h **** /** 
  14:../../libDaisy//src/hid/usb.h ****     @brief Interface for initializing and using the USB Peripherals on the daisy
  15:../../libDaisy//src/hid/usb.h ****     @author Stephen Hensley
  16:../../libDaisy//src/hid/usb.h ****     @date December 2019
  17:../../libDaisy//src/hid/usb.h **** */
  18:../../libDaisy//src/hid/usb.h **** class UsbHandle
  19:../../libDaisy//src/hid/usb.h **** {
  20:../../libDaisy//src/hid/usb.h ****   public:
  21:../../libDaisy//src/hid/usb.h ****     /** Return values for USBHandle Functions */
  22:../../libDaisy//src/hid/usb.h ****     enum class Result
  23:../../libDaisy//src/hid/usb.h ****     {
  24:../../libDaisy//src/hid/usb.h ****         OK,
  25:../../libDaisy//src/hid/usb.h ****         ERR,
  26:../../libDaisy//src/hid/usb.h ****     };
  27:../../libDaisy//src/hid/usb.h **** 
  28:../../libDaisy//src/hid/usb.h ****     /** Specified which of the two USB Peripherals to initialize. */
  29:../../libDaisy//src/hid/usb.h ****     enum UsbPeriph
  30:../../libDaisy//src/hid/usb.h ****     {
  31:../../libDaisy//src/hid/usb.h ****         FS_INTERNAL, /**< Internal pin */
  32:../../libDaisy//src/hid/usb.h ****         FS_EXTERNAL, /**< FS External D+ pin is Pin 38 (GPIO32). FS External D- pin is Pin 37 (GPIO
  33:../../libDaisy//src/hid/usb.h ****         FS_BOTH,     /**< Both */
  34:../../libDaisy//src/hid/usb.h ****     };
  35:../../libDaisy//src/hid/usb.h **** 
  36:../../libDaisy//src/hid/usb.h **** 
  37:../../libDaisy//src/hid/usb.h ****     /** Function called upon reception of a buffer */
  38:../../libDaisy//src/hid/usb.h ****     typedef void (*ReceiveCallback)(uint8_t* buff, uint32_t* len);
  39:../../libDaisy//src/hid/usb.h **** 
  40:../../libDaisy//src/hid/usb.h ****     UsbHandle() {}
  41:../../libDaisy//src/hid/usb.h **** 
  42:../../libDaisy//src/hid/usb.h ****     ~UsbHandle() {}
  55              		.loc 4 42 5 is_stmt 1 view .LVU7
  56              		.loc 4 42 5 is_stmt 0 view .LVU8
  57              	.LBE316:
  58              	.LBB317:
  59              	.LBI317:
  60              		.file 5 "../../libDaisy//src/per/adc.h"
   1:../../libDaisy//src/per/adc.h **** #pragma once
   2:../../libDaisy//src/per/adc.h **** #ifndef DSY_ADC_H
   3:../../libDaisy//src/per/adc.h **** #define DSY_ADC_H /**< Macro */
   4:../../libDaisy//src/per/adc.h **** #include <stdint.h>
   5:../../libDaisy//src/per/adc.h **** #include <stdlib.h>
   6:../../libDaisy//src/per/adc.h **** #include "daisy_core.h"
   7:../../libDaisy//src/per/adc.h **** #include "per/gpio.h"
   8:../../libDaisy//src/per/adc.h **** 
   9:../../libDaisy//src/per/adc.h **** #define DSY_ADC_MAX_CHANNELS 16 /**< Maximum number of ADC channels */
ARM GAS  C:\Users\daniel\AppData\Local\Temp\ccsQEchw.s 			page 5


  10:../../libDaisy//src/per/adc.h **** 
  11:../../libDaisy//src/per/adc.h **** namespace daisy
  12:../../libDaisy//src/per/adc.h **** {
  13:../../libDaisy//src/per/adc.h **** /** @addtogroup per_analog
  14:../../libDaisy//src/per/adc.h ****     @{
  15:../../libDaisy//src/per/adc.h **** */
  16:../../libDaisy//src/per/adc.h **** 
  17:../../libDaisy//src/per/adc.h **** /* While there may not be many configuration options here,
  18:../../libDaisy//src/per/adc.h **** using a struct like this allows us to add more configuration
  19:../../libDaisy//src/per/adc.h **** later without breaking existing functionality.
  20:../../libDaisy//src/per/adc.h **** */
  21:../../libDaisy//src/per/adc.h **** 
  22:../../libDaisy//src/per/adc.h **** /** @brief   Configuration Structure for an ADC Channel 
  23:../../libDaisy//src/per/adc.h ****  *  @details This can be used to configure a a single input, 
  24:../../libDaisy//src/per/adc.h ****  *           or a multiplexed input, allowing up to 8 inputs on 
  25:../../libDaisy//src/per/adc.h ****  *           one channel.
  26:../../libDaisy//src/per/adc.h ****  *  @note    Sharing data lines to multiple muxes _is_ possible, but
  27:../../libDaisy//src/per/adc.h ****  *           each channel sharing data lines must be set to the maximum
  28:../../libDaisy//src/per/adc.h ****  *           number of channels, even if some multiplexers have fewer
  29:../../libDaisy//src/per/adc.h ****  *           inputs connected.
  30:../../libDaisy//src/per/adc.h **** */
  31:../../libDaisy//src/per/adc.h **** struct AdcChannelConfig
  32:../../libDaisy//src/per/adc.h **** {
  33:../../libDaisy//src/per/adc.h ****     /** Which pin to use for multiplexing */
  34:../../libDaisy//src/per/adc.h ****     enum MuxPin
  35:../../libDaisy//src/per/adc.h ****     {
  36:../../libDaisy//src/per/adc.h ****         MUX_SEL_0,    /**< & */
  37:../../libDaisy//src/per/adc.h ****         MUX_SEL_1,    /**< & */
  38:../../libDaisy//src/per/adc.h ****         MUX_SEL_2,    /**< & */
  39:../../libDaisy//src/per/adc.h ****         MUX_SEL_LAST, /**< & */
  40:../../libDaisy//src/per/adc.h ****     };
  41:../../libDaisy//src/per/adc.h **** 
  42:../../libDaisy//src/per/adc.h ****     /** Initializes a single ADC pin as an ADC. 
  43:../../libDaisy//src/per/adc.h ****     \param pin Pin to init.
  44:../../libDaisy//src/per/adc.h ****      */
  45:../../libDaisy//src/per/adc.h ****     void InitSingle(dsy_gpio_pin pin);
  46:../../libDaisy//src/per/adc.h **** 
  47:../../libDaisy//src/per/adc.h ****     /** 
  48:../../libDaisy//src/per/adc.h ****     Initializes a single ADC pin as a Multiplexed ADC.
  49:../../libDaisy//src/per/adc.h ****     Requires a CD405X Multiplexer connected to the pin.
  50:../../libDaisy//src/per/adc.h ****     You only need to supply the mux pins that are required,
  51:../../libDaisy//src/per/adc.h ****     e.g. a 4052 mux would only require mux_0 and mux_1.
  52:../../libDaisy//src/per/adc.h ****     Internal Callbacks handle the pin addressing.
  53:../../libDaisy//src/per/adc.h ****     \param mux_channels must be 1-8
  54:../../libDaisy//src/per/adc.h ****     \param mux_0 First mux pin
  55:../../libDaisy//src/per/adc.h ****     \param mux_1 Second mux pin
  56:../../libDaisy//src/per/adc.h ****     \param mux_2 Third mux pin
  57:../../libDaisy//src/per/adc.h ****     \param adc_pin &
  58:../../libDaisy//src/per/adc.h ****     */
  59:../../libDaisy//src/per/adc.h ****     void InitMux(dsy_gpio_pin adc_pin,
  60:../../libDaisy//src/per/adc.h ****                  size_t       mux_channels,
  61:../../libDaisy//src/per/adc.h ****                  dsy_gpio_pin mux_0,
  62:../../libDaisy//src/per/adc.h ****                  dsy_gpio_pin mux_1 = {DSY_GPIOX, 0},
  63:../../libDaisy//src/per/adc.h ****                  dsy_gpio_pin mux_2 = {DSY_GPIOX, 0});
  64:../../libDaisy//src/per/adc.h **** 
  65:../../libDaisy//src/per/adc.h ****     dsy_gpio pin_;                   /**< & */
  66:../../libDaisy//src/per/adc.h ****     dsy_gpio mux_pin_[MUX_SEL_LAST]; /**< & */
ARM GAS  C:\Users\daniel\AppData\Local\Temp\ccsQEchw.s 			page 6


  67:../../libDaisy//src/per/adc.h ****     uint8_t  mux_channels_;          /**< & */
  68:../../libDaisy//src/per/adc.h **** };
  69:../../libDaisy//src/per/adc.h **** 
  70:../../libDaisy//src/per/adc.h **** /**
  71:../../libDaisy//src/per/adc.h ****    @brief Handler for analog to digital conversion
  72:../../libDaisy//src/per/adc.h **** */
  73:../../libDaisy//src/per/adc.h **** class AdcHandle
  74:../../libDaisy//src/per/adc.h **** {
  75:../../libDaisy//src/per/adc.h ****   public:
  76:../../libDaisy//src/per/adc.h ****     /** Supported oversampling amounts */
  77:../../libDaisy//src/per/adc.h ****     enum OverSampling
  78:../../libDaisy//src/per/adc.h ****     {
  79:../../libDaisy//src/per/adc.h ****         OVS_NONE, /**< & */
  80:../../libDaisy//src/per/adc.h ****         OVS_4,    /**< & */
  81:../../libDaisy//src/per/adc.h ****         OVS_8,    /**< & */
  82:../../libDaisy//src/per/adc.h ****         OVS_16,   /**< & */
  83:../../libDaisy//src/per/adc.h ****         OVS_32,   /**< & */
  84:../../libDaisy//src/per/adc.h ****         OVS_64,   /**< & */
  85:../../libDaisy//src/per/adc.h ****         OVS_128,  /**< & */
  86:../../libDaisy//src/per/adc.h ****         OVS_256,  /**< & */
  87:../../libDaisy//src/per/adc.h ****         OVS_512,  /**< & */
  88:../../libDaisy//src/per/adc.h ****         OVS_1024, /**< & */
  89:../../libDaisy//src/per/adc.h ****         OVS_LAST, /**< & */
  90:../../libDaisy//src/per/adc.h ****     };
  91:../../libDaisy//src/per/adc.h **** 
  92:../../libDaisy//src/per/adc.h ****     AdcHandle() {}
  93:../../libDaisy//src/per/adc.h ****     ~AdcHandle() {}
  61              		.loc 5 93 5 is_stmt 1 view .LVU9
  62              		.loc 5 93 5 is_stmt 0 view .LVU10
  63              	.LBE317:
  64              	.LBB318:
  65              	.LBI318:
  66              		.file 6 "../../libDaisy//src/hid/audio.h"
   1:../../libDaisy//src/hid/audio.h **** #ifndef DSY_AUDIO_H
   2:../../libDaisy//src/hid/audio.h **** #define DSY_AUDIO_H /**< & */
   3:../../libDaisy//src/hid/audio.h **** 
   4:../../libDaisy//src/hid/audio.h **** #include "per/sai.h"
   5:../../libDaisy//src/hid/audio.h **** 
   6:../../libDaisy//src/hid/audio.h **** namespace daisy
   7:../../libDaisy//src/hid/audio.h **** {
   8:../../libDaisy//src/hid/audio.h **** /** @brief Audio Engine Handle
   9:../../libDaisy//src/hid/audio.h ****  *  @ingroup audio 
  10:../../libDaisy//src/hid/audio.h ****  *  @details This class allows for higher level access to an audio engine.
  11:../../libDaisy//src/hid/audio.h ****  *           If you're using a SOM like the DaisySeed or DaisyPatchSM (or any 
  12:../../libDaisy//src/hid/audio.h ****  *            board that includes one of those objects) then the intialization
  13:../../libDaisy//src/hid/audio.h ****  *            is already taken  care of.
  14:../../libDaisy//src/hid/audio.h ****  *           If you're setting up your own custom hardware, or need to make changes
  15:../../libDaisy//src/hid/audio.h ****  *           you will have to take the following steps:
  16:../../libDaisy//src/hid/audio.h ****  *             1. Create and Initialize an SaiHandle or two depending on your requirements
  17:../../libDaisy//src/hid/audio.h ****  *             2. Initialize the Audio Handle with the desired settings and the Initialized SaiHand
  18:../../libDaisy//src/hid/audio.h ****  *             3. If the connected codec requires special configuration or initialization, do so
  19:../../libDaisy//src/hid/audio.h ****  *             4. Write a callback method using either the AudioCallback or the InterleavingAudioCa
  20:../../libDaisy//src/hid/audio.h ****  *             5. Start the Audio using one of the StartAudio function
  21:../../libDaisy//src/hid/audio.h ****  */
  22:../../libDaisy//src/hid/audio.h **** class AudioHandle
  23:../../libDaisy//src/hid/audio.h **** {
  24:../../libDaisy//src/hid/audio.h ****   public:
ARM GAS  C:\Users\daniel\AppData\Local\Temp\ccsQEchw.s 			page 7


  25:../../libDaisy//src/hid/audio.h ****     /** Manually configurable details about the Audio Engine */
  26:../../libDaisy//src/hid/audio.h ****     /** TODO: Figure out how to get samplerate in here. */
  27:../../libDaisy//src/hid/audio.h ****     struct Config
  28:../../libDaisy//src/hid/audio.h ****     {
  29:../../libDaisy//src/hid/audio.h ****         /** number of samples to process per callback */
  30:../../libDaisy//src/hid/audio.h ****         size_t blocksize;
  31:../../libDaisy//src/hid/audio.h **** 
  32:../../libDaisy//src/hid/audio.h ****         /**< Sample rate of audio */
  33:../../libDaisy//src/hid/audio.h ****         SaiHandle::Config::SampleRate samplerate;
  34:../../libDaisy//src/hid/audio.h **** 
  35:../../libDaisy//src/hid/audio.h ****         /** factor for adjustment before and after callback for hardware that may have extra headro
  36:../../libDaisy//src/hid/audio.h ****         float postgain;
  37:../../libDaisy//src/hid/audio.h **** 
  38:../../libDaisy//src/hid/audio.h ****         /** factor for additional one-sided compensation to audio path for hardware that may
  39:../../libDaisy//src/hid/audio.h ****          *  have unequal input/output ranges
  40:../../libDaisy//src/hid/audio.h ****          */
  41:../../libDaisy//src/hid/audio.h ****         float output_compensation;
  42:../../libDaisy//src/hid/audio.h **** 
  43:../../libDaisy//src/hid/audio.h ****         /** Sets default values for config struct */
  44:../../libDaisy//src/hid/audio.h ****         Config()
  45:../../libDaisy//src/hid/audio.h ****         : blocksize(48),
  46:../../libDaisy//src/hid/audio.h ****           samplerate(SaiHandle::Config::SampleRate::SAI_48KHZ),
  47:../../libDaisy//src/hid/audio.h ****           postgain(1.f),
  48:../../libDaisy//src/hid/audio.h ****           output_compensation(1.f)
  49:../../libDaisy//src/hid/audio.h ****         {
  50:../../libDaisy//src/hid/audio.h ****         }
  51:../../libDaisy//src/hid/audio.h ****     };
  52:../../libDaisy//src/hid/audio.h **** 
  53:../../libDaisy//src/hid/audio.h ****     enum class Result
  54:../../libDaisy//src/hid/audio.h ****     {
  55:../../libDaisy//src/hid/audio.h ****         OK,
  56:../../libDaisy//src/hid/audio.h ****         ERR,
  57:../../libDaisy//src/hid/audio.h ****     };
  58:../../libDaisy//src/hid/audio.h **** 
  59:../../libDaisy//src/hid/audio.h ****     /** Non-Interleaving input buffer
  60:../../libDaisy//src/hid/audio.h ****      * Buffer arranged by float[chn][sample] 
  61:../../libDaisy//src/hid/audio.h ****      * const so that the user can't modify the input
  62:../../libDaisy//src/hid/audio.h ****      */
  63:../../libDaisy//src/hid/audio.h ****     typedef const float* const* InputBuffer;
  64:../../libDaisy//src/hid/audio.h **** 
  65:../../libDaisy//src/hid/audio.h ****     /** Non-Interleaving output buffer
  66:../../libDaisy//src/hid/audio.h ****      * Arranged by float[chn][sample] 
  67:../../libDaisy//src/hid/audio.h ****      */
  68:../../libDaisy//src/hid/audio.h ****     typedef float** OutputBuffer;
  69:../../libDaisy//src/hid/audio.h **** 
  70:../../libDaisy//src/hid/audio.h ****     /** Type for a Non-Interleaving audio callback 
  71:../../libDaisy//src/hid/audio.h ****      * Non-Interleaving audio callbacks in daisy will be of this type
  72:../../libDaisy//src/hid/audio.h ****      */
  73:../../libDaisy//src/hid/audio.h ****     typedef void (*AudioCallback)(InputBuffer  in,
  74:../../libDaisy//src/hid/audio.h ****                                   OutputBuffer out,
  75:../../libDaisy//src/hid/audio.h ****                                   size_t       size);
  76:../../libDaisy//src/hid/audio.h **** 
  77:../../libDaisy//src/hid/audio.h ****     /** Interleaving Input buffer
  78:../../libDaisy//src/hid/audio.h ****      ** audio is prepared as { L0, R0, L1, R1, . . . LN, RN }]
  79:../../libDaisy//src/hid/audio.h ****      ** this is const, as the user shouldn't modify it
  80:../../libDaisy//src/hid/audio.h ****     */
  81:../../libDaisy//src/hid/audio.h ****     typedef const float* InterleavingInputBuffer;
ARM GAS  C:\Users\daniel\AppData\Local\Temp\ccsQEchw.s 			page 8


  82:../../libDaisy//src/hid/audio.h **** 
  83:../../libDaisy//src/hid/audio.h ****     /** Interleaving Output buffer 
  84:../../libDaisy//src/hid/audio.h ****      ** audio is prepared as { L0, R0, L1, R1, . . . LN, RN }
  85:../../libDaisy//src/hid/audio.h ****     */
  86:../../libDaisy//src/hid/audio.h ****     typedef float* InterleavingOutputBuffer;
  87:../../libDaisy//src/hid/audio.h **** 
  88:../../libDaisy//src/hid/audio.h ****     /** Interleaving Audio Callback 
  89:../../libDaisy//src/hid/audio.h ****      * Interleaving audio callbacks in daisy must be of this type
  90:../../libDaisy//src/hid/audio.h ****      */
  91:../../libDaisy//src/hid/audio.h ****     typedef void (*InterleavingAudioCallback)(InterleavingInputBuffer  in,
  92:../../libDaisy//src/hid/audio.h ****                                               InterleavingOutputBuffer out,
  93:../../libDaisy//src/hid/audio.h ****                                               size_t                   size);
  94:../../libDaisy//src/hid/audio.h **** 
  95:../../libDaisy//src/hid/audio.h ****     AudioHandle() : pimpl_(nullptr) {}
  96:../../libDaisy//src/hid/audio.h ****     ~AudioHandle() {}
  67              		.loc 6 96 5 is_stmt 1 view .LVU11
  68              		.loc 6 96 5 is_stmt 0 view .LVU12
  69              	.LBE318:
  70              	.LBB319:
  71              	.LBI319:
  72              		.file 7 "../../libDaisy//src/sys/system.h"
   1:../../libDaisy//src/sys/system.h **** #ifndef DSY_SYSTEM_H
   2:../../libDaisy//src/sys/system.h **** #define DSY_SYSTEM_H
   3:../../libDaisy//src/sys/system.h **** 
   4:../../libDaisy//src/sys/system.h **** #ifndef UNIT_TEST // for unit tests, a dummy implementation is provided below
   5:../../libDaisy//src/sys/system.h **** 
   6:../../libDaisy//src/sys/system.h **** #include <cstdint>
   7:../../libDaisy//src/sys/system.h **** #include "per/tim.h"
   8:../../libDaisy//src/sys/system.h **** 
   9:../../libDaisy//src/sys/system.h **** namespace daisy
  10:../../libDaisy//src/sys/system.h **** {
  11:../../libDaisy//src/sys/system.h **** /** A handle for interacting with the Core System. 
  12:../../libDaisy//src/sys/system.h ****  ** This includes the Clock tree, MPU, global DMA initialization,
  13:../../libDaisy//src/sys/system.h ****  ** cache handling, and any other necessary global initiailzation
  14:../../libDaisy//src/sys/system.h ****  **
  15:../../libDaisy//src/sys/system.h ****  ** @author shensley
  16:../../libDaisy//src/sys/system.h ****  ** @ingroup system
  17:../../libDaisy//src/sys/system.h ****  */
  18:../../libDaisy//src/sys/system.h **** class System
  19:../../libDaisy//src/sys/system.h **** {
  20:../../libDaisy//src/sys/system.h ****   public:
  21:../../libDaisy//src/sys/system.h ****     /** Contains settings for initializing the System */
  22:../../libDaisy//src/sys/system.h ****     struct Config
  23:../../libDaisy//src/sys/system.h ****     {
  24:../../libDaisy//src/sys/system.h ****         /** Specifies the system clock frequency that feeds APB/AHB clocks, etc. */
  25:../../libDaisy//src/sys/system.h ****         enum class SysClkFreq
  26:../../libDaisy//src/sys/system.h ****         {
  27:../../libDaisy//src/sys/system.h ****             FREQ_400MHZ,
  28:../../libDaisy//src/sys/system.h ****             FREQ_480MHZ,
  29:../../libDaisy//src/sys/system.h ****         };
  30:../../libDaisy//src/sys/system.h **** 
  31:../../libDaisy//src/sys/system.h ****         /** Method to call on the struct to set to defaults
  32:../../libDaisy//src/sys/system.h ****          ** CPU Freq set to 400MHz
  33:../../libDaisy//src/sys/system.h ****          ** Cache Enabled 
  34:../../libDaisy//src/sys/system.h ****          ** */
  35:../../libDaisy//src/sys/system.h ****         void Defaults()
  36:../../libDaisy//src/sys/system.h ****         {
ARM GAS  C:\Users\daniel\AppData\Local\Temp\ccsQEchw.s 			page 9


  37:../../libDaisy//src/sys/system.h ****             cpu_freq    = SysClkFreq::FREQ_400MHZ;
  38:../../libDaisy//src/sys/system.h ****             use_dcache  = true;
  39:../../libDaisy//src/sys/system.h ****             use_icache  = true;
  40:../../libDaisy//src/sys/system.h ****             skip_clocks = false;
  41:../../libDaisy//src/sys/system.h ****         }
  42:../../libDaisy//src/sys/system.h **** 
  43:../../libDaisy//src/sys/system.h ****         /** Method to call on the struct to set to boost mode:
  44:../../libDaisy//src/sys/system.h ****          ** CPU Freq set to 480MHz
  45:../../libDaisy//src/sys/system.h ****          ** Cache Enabled 
  46:../../libDaisy//src/sys/system.h ****          ** */
  47:../../libDaisy//src/sys/system.h ****         void Boost()
  48:../../libDaisy//src/sys/system.h ****         {
  49:../../libDaisy//src/sys/system.h ****             cpu_freq    = SysClkFreq::FREQ_480MHZ;
  50:../../libDaisy//src/sys/system.h ****             use_dcache  = true;
  51:../../libDaisy//src/sys/system.h ****             use_icache  = true;
  52:../../libDaisy//src/sys/system.h ****             skip_clocks = false;
  53:../../libDaisy//src/sys/system.h ****         }
  54:../../libDaisy//src/sys/system.h **** 
  55:../../libDaisy//src/sys/system.h ****         SysClkFreq cpu_freq;
  56:../../libDaisy//src/sys/system.h ****         bool       use_dcache;
  57:../../libDaisy//src/sys/system.h ****         bool       use_icache;
  58:../../libDaisy//src/sys/system.h ****         bool       skip_clocks;
  59:../../libDaisy//src/sys/system.h ****     };
  60:../../libDaisy//src/sys/system.h **** 
  61:../../libDaisy//src/sys/system.h ****     /** Describes the different regions of memory available to the Daisy
  62:../../libDaisy//src/sys/system.h ****      * 
  63:../../libDaisy//src/sys/system.h ****      */
  64:../../libDaisy//src/sys/system.h ****     enum MemoryRegion
  65:../../libDaisy//src/sys/system.h ****     {
  66:../../libDaisy//src/sys/system.h ****         INTERNAL_FLASH = 0,
  67:../../libDaisy//src/sys/system.h ****         ITCMRAM,
  68:../../libDaisy//src/sys/system.h ****         DTCMRAM,
  69:../../libDaisy//src/sys/system.h ****         SRAM_D1,
  70:../../libDaisy//src/sys/system.h ****         SRAM_D2,
  71:../../libDaisy//src/sys/system.h ****         SRAM_D3,
  72:../../libDaisy//src/sys/system.h ****         SDRAM,
  73:../../libDaisy//src/sys/system.h ****         QSPI,
  74:../../libDaisy//src/sys/system.h ****         INVALID_ADDRESS,
  75:../../libDaisy//src/sys/system.h ****     };
  76:../../libDaisy//src/sys/system.h **** 
  77:../../libDaisy//src/sys/system.h ****     System() {}
  78:../../libDaisy//src/sys/system.h ****     ~System() {}
  73              		.loc 7 78 5 is_stmt 1 view .LVU13
  74              		.loc 7 78 5 is_stmt 0 view .LVU14
  75              	.LBE319:
  76              		.loc 1 65 26 view .LVU15
  77 0000 7047     		bx	lr
  78              		.cfi_endproc
  79              	.LFE2528:
  81              		.weak	_ZN5daisy8patch_sm12DaisyPatchSMD1Ev
  82              		.thumb_set _ZN5daisy8patch_sm12DaisyPatchSMD1Ev,_ZN5daisy8patch_sm12DaisyPatchSMD2Ev
  83 0002 00BF     		.section	.text._ZN7daisysp11StringVoiceD2Ev,"axG",%progbits,_ZN7daisysp11StringVoiceD5Ev,comdat
  84              		.align	1
  85              		.p2align 2,,3
  86              		.weak	_ZN7daisysp11StringVoiceD2Ev
  87              		.syntax unified
  88              		.thumb
ARM GAS  C:\Users\daniel\AppData\Local\Temp\ccsQEchw.s 			page 10


  89              		.thumb_func
  90              		.fpu fpv5-d16
  92              	_ZN7daisysp11StringVoiceD2Ev:
  93              	.LVL1:
  94              	.LFB4645:
  95              		.file 8 "../../DaisySP//Source/PhysicalModeling/stringvoice.h"
   1:../../DaisySP//Source/PhysicalModeling/stringvoice.h **** #pragma once
   2:../../DaisySP//Source/PhysicalModeling/stringvoice.h **** #ifndef DSY_STRINGVOICE_H
   3:../../DaisySP//Source/PhysicalModeling/stringvoice.h **** #define DSY_STRINGVOICE_H
   4:../../DaisySP//Source/PhysicalModeling/stringvoice.h **** 
   5:../../DaisySP//Source/PhysicalModeling/stringvoice.h **** #include "Filters/svf.h"
   6:../../DaisySP//Source/PhysicalModeling/stringvoice.h **** #include "PhysicalModeling/KarplusString.h"
   7:../../DaisySP//Source/PhysicalModeling/stringvoice.h **** #include "Noise/dust.h"
   8:../../DaisySP//Source/PhysicalModeling/stringvoice.h **** #include <stdint.h>
   9:../../DaisySP//Source/PhysicalModeling/stringvoice.h **** #ifdef __cplusplus
  10:../../DaisySP//Source/PhysicalModeling/stringvoice.h **** 
  11:../../DaisySP//Source/PhysicalModeling/stringvoice.h **** /** @file stringvoice.h */
  12:../../DaisySP//Source/PhysicalModeling/stringvoice.h **** 
  13:../../DaisySP//Source/PhysicalModeling/stringvoice.h **** namespace daisysp
  14:../../DaisySP//Source/PhysicalModeling/stringvoice.h **** {
  15:../../DaisySP//Source/PhysicalModeling/stringvoice.h **** /**  
  16:../../DaisySP//Source/PhysicalModeling/stringvoice.h ****        @brief Extended Karplus-Strong, with all the niceties from Rings 
  17:../../DaisySP//Source/PhysicalModeling/stringvoice.h ****        @author Ben Sergentanis
  18:../../DaisySP//Source/PhysicalModeling/stringvoice.h ****        @date Jan 2021
  19:../../DaisySP//Source/PhysicalModeling/stringvoice.h ****        Ported from pichenettes/eurorack/plaits/dsp/physical_modelling/string_voice.h \n
  20:../../DaisySP//Source/PhysicalModeling/stringvoice.h ****        and pichenettes/eurorack/plaits/dsp/physical_modelling/string_voice.cc \n
  21:../../DaisySP//Source/PhysicalModeling/stringvoice.h ****        to an independent module. \n
  22:../../DaisySP//Source/PhysicalModeling/stringvoice.h ****        Original code written by Emilie Gillet in 2016. \n
  23:../../DaisySP//Source/PhysicalModeling/stringvoice.h **** */
  24:../../DaisySP//Source/PhysicalModeling/stringvoice.h **** class StringVoice
  25:../../DaisySP//Source/PhysicalModeling/stringvoice.h **** {
  26:../../DaisySP//Source/PhysicalModeling/stringvoice.h ****   public:
  27:../../DaisySP//Source/PhysicalModeling/stringvoice.h ****     StringVoice() {}
  28:../../DaisySP//Source/PhysicalModeling/stringvoice.h ****     ~StringVoice() {}
  96              		.loc 8 28 5 is_stmt 1 view -0
  97              		.cfi_startproc
  98              		@ args = 0, pretend = 0, frame = 0
  99              		@ frame_needed = 0, uses_anonymous_args = 0
 100              		@ link register save eliminated.
 101              	.LBB320:
 102              	.LBI320:
 103              		.file 9 "../../DaisySP//Source/PhysicalModeling/KarplusString.h"
   1:../../DaisySP//Source/PhysicalModeling/KarplusString.h **** #pragma once
   2:../../DaisySP//Source/PhysicalModeling/KarplusString.h **** #ifndef DSY_STRING_H
   3:../../DaisySP//Source/PhysicalModeling/KarplusString.h **** #define DSY_STRING_H
   4:../../DaisySP//Source/PhysicalModeling/KarplusString.h **** 
   5:../../DaisySP//Source/PhysicalModeling/KarplusString.h **** #include <stdint.h>
   6:../../DaisySP//Source/PhysicalModeling/KarplusString.h **** 
   7:../../DaisySP//Source/PhysicalModeling/KarplusString.h **** #include "Dynamics/crossfade.h"
   8:../../DaisySP//Source/PhysicalModeling/KarplusString.h **** #include "Utility/dcblock.h"
   9:../../DaisySP//Source/PhysicalModeling/KarplusString.h **** #include "Utility/delayline.h"
  10:../../DaisySP//Source/PhysicalModeling/KarplusString.h **** #include "Filters/svf.h"
  11:../../DaisySP//Source/PhysicalModeling/KarplusString.h **** #include "Filters/tone.h"
  12:../../DaisySP//Source/PhysicalModeling/KarplusString.h **** 
  13:../../DaisySP//Source/PhysicalModeling/KarplusString.h **** #ifdef __cplusplus
  14:../../DaisySP//Source/PhysicalModeling/KarplusString.h **** 
  15:../../DaisySP//Source/PhysicalModeling/KarplusString.h **** /** @file KarplusString.h */
ARM GAS  C:\Users\daniel\AppData\Local\Temp\ccsQEchw.s 			page 11


  16:../../DaisySP//Source/PhysicalModeling/KarplusString.h **** 
  17:../../DaisySP//Source/PhysicalModeling/KarplusString.h **** namespace daisysp
  18:../../DaisySP//Source/PhysicalModeling/KarplusString.h **** {
  19:../../DaisySP//Source/PhysicalModeling/KarplusString.h **** /**  
  20:../../DaisySP//Source/PhysicalModeling/KarplusString.h ****        @brief Comb filter / KS string.
  21:../../DaisySP//Source/PhysicalModeling/KarplusString.h ****        @author Ben Sergentanis
  22:../../DaisySP//Source/PhysicalModeling/KarplusString.h ****        @date Jan 2021 
  23:../../DaisySP//Source/PhysicalModeling/KarplusString.h ****        "Lite" version of the implementation used in Rings \n \n 
  24:../../DaisySP//Source/PhysicalModeling/KarplusString.h ****        Ported from pichenettes/eurorack/plaits/dsp/oscillator/formant_oscillator.h \n
  25:../../DaisySP//Source/PhysicalModeling/KarplusString.h ****        to an independent module. \n
  26:../../DaisySP//Source/PhysicalModeling/KarplusString.h ****        Original code written by Emilie Gillet in 2016. \n
  27:../../DaisySP//Source/PhysicalModeling/KarplusString.h **** */
  28:../../DaisySP//Source/PhysicalModeling/KarplusString.h **** class String
  29:../../DaisySP//Source/PhysicalModeling/KarplusString.h **** {
  30:../../DaisySP//Source/PhysicalModeling/KarplusString.h ****   public:
  31:../../DaisySP//Source/PhysicalModeling/KarplusString.h ****     String() {}
  32:../../DaisySP//Source/PhysicalModeling/KarplusString.h ****     ~String() {}
 104              		.loc 9 32 5 view .LVU17
 105              	.LBB321:
 106              	.LBI321:
 107              		.file 10 "../../DaisySP//Source/Dynamics/crossfade.h"
   1:../../DaisySP//Source/Dynamics/crossfade.h **** #pragma once
   2:../../DaisySP//Source/Dynamics/crossfade.h **** #ifndef DSY_CROSSFADE_H
   3:../../DaisySP//Source/Dynamics/crossfade.h **** #define DSY_CROSSFADE_H
   4:../../DaisySP//Source/Dynamics/crossfade.h **** #include <stdint.h>
   5:../../DaisySP//Source/Dynamics/crossfade.h **** #ifdef __cplusplus
   6:../../DaisySP//Source/Dynamics/crossfade.h **** 
   7:../../DaisySP//Source/Dynamics/crossfade.h **** namespace daisysp
   8:../../DaisySP//Source/Dynamics/crossfade.h **** {
   9:../../DaisySP//Source/Dynamics/crossfade.h **** /** Curve applied to the CrossFade
  10:../../DaisySP//Source/Dynamics/crossfade.h **** - LIN = linear
  11:../../DaisySP//Source/Dynamics/crossfade.h **** - CPOW = constant power
  12:../../DaisySP//Source/Dynamics/crossfade.h **** - LOG = logarithmic
  13:../../DaisySP//Source/Dynamics/crossfade.h **** - EXP  exponential
  14:../../DaisySP//Source/Dynamics/crossfade.h **** - LAST = end of enum (used for array indexing)
  15:../../DaisySP//Source/Dynamics/crossfade.h **** */
  16:../../DaisySP//Source/Dynamics/crossfade.h **** enum
  17:../../DaisySP//Source/Dynamics/crossfade.h **** {
  18:../../DaisySP//Source/Dynamics/crossfade.h ****     CROSSFADE_LIN,
  19:../../DaisySP//Source/Dynamics/crossfade.h ****     CROSSFADE_CPOW,
  20:../../DaisySP//Source/Dynamics/crossfade.h ****     CROSSFADE_LOG,
  21:../../DaisySP//Source/Dynamics/crossfade.h ****     CROSSFADE_EXP,
  22:../../DaisySP//Source/Dynamics/crossfade.h ****     CROSSFADE_LAST,
  23:../../DaisySP//Source/Dynamics/crossfade.h **** };
  24:../../DaisySP//Source/Dynamics/crossfade.h **** 
  25:../../DaisySP//Source/Dynamics/crossfade.h **** /** Performs a CrossFade between two signals
  26:../../DaisySP//Source/Dynamics/crossfade.h **** 
  27:../../DaisySP//Source/Dynamics/crossfade.h ****     Original author: Paul Batchelor
  28:../../DaisySP//Source/Dynamics/crossfade.h **** 
  29:../../DaisySP//Source/Dynamics/crossfade.h ****     Ported from Soundpipe by Andrew Ikenberry
  30:../../DaisySP//Source/Dynamics/crossfade.h **** 
  31:../../DaisySP//Source/Dynamics/crossfade.h ****     added curve option for constant power, etc.
  32:../../DaisySP//Source/Dynamics/crossfade.h **** */
  33:../../DaisySP//Source/Dynamics/crossfade.h **** class CrossFade
  34:../../DaisySP//Source/Dynamics/crossfade.h **** {
  35:../../DaisySP//Source/Dynamics/crossfade.h ****   public:
  36:../../DaisySP//Source/Dynamics/crossfade.h ****     CrossFade() {}
ARM GAS  C:\Users\daniel\AppData\Local\Temp\ccsQEchw.s 			page 12


  37:../../DaisySP//Source/Dynamics/crossfade.h ****     ~CrossFade() {}
 108              		.loc 10 37 5 view .LVU18
 109              		.loc 10 37 5 is_stmt 0 view .LVU19
 110              	.LBE321:
 111              	.LBB322:
 112              	.LBI322:
 113              		.file 11 "../../DaisySP//Source/Utility/dcblock.h"
   1:../../DaisySP//Source/Utility/dcblock.h **** 
   2:../../DaisySP//Source/Utility/dcblock.h **** #pragma once
   3:../../DaisySP//Source/Utility/dcblock.h **** #ifndef DSY_DCBLOCK_H
   4:../../DaisySP//Source/Utility/dcblock.h **** #define DSY_DCBLOCK_H
   5:../../DaisySP//Source/Utility/dcblock.h **** #ifdef __cplusplus
   6:../../DaisySP//Source/Utility/dcblock.h **** 
   7:../../DaisySP//Source/Utility/dcblock.h **** namespace daisysp
   8:../../DaisySP//Source/Utility/dcblock.h **** {
   9:../../DaisySP//Source/Utility/dcblock.h **** /** Removes DC component of a signal
  10:../../DaisySP//Source/Utility/dcblock.h ****     */
  11:../../DaisySP//Source/Utility/dcblock.h **** class DcBlock
  12:../../DaisySP//Source/Utility/dcblock.h **** {
  13:../../DaisySP//Source/Utility/dcblock.h ****   public:
  14:../../DaisySP//Source/Utility/dcblock.h ****     DcBlock(){};
  15:../../DaisySP//Source/Utility/dcblock.h ****     ~DcBlock(){};
 114              		.loc 11 15 5 is_stmt 1 view .LVU20
 115              		.loc 11 15 5 is_stmt 0 view .LVU21
 116              	.LBE322:
 117              	.LBB323:
 118              	.LBI323:
 119              		.file 12 "../../DaisySP//Source/Filters/tone.h"
   1:../../DaisySP//Source/Filters/tone.h **** #pragma once
   2:../../DaisySP//Source/Filters/tone.h **** #ifndef DSY_TONE_H
   3:../../DaisySP//Source/Filters/tone.h **** #define DSY_TONE_H
   4:../../DaisySP//Source/Filters/tone.h **** 
   5:../../DaisySP//Source/Filters/tone.h **** #include <stdint.h>
   6:../../DaisySP//Source/Filters/tone.h **** #ifdef __cplusplus
   7:../../DaisySP//Source/Filters/tone.h **** 
   8:../../DaisySP//Source/Filters/tone.h **** namespace daisysp
   9:../../DaisySP//Source/Filters/tone.h **** {
  10:../../DaisySP//Source/Filters/tone.h **** /** A first-order recursive low-pass filter with variable frequency response.
  11:../../DaisySP//Source/Filters/tone.h **** */
  12:../../DaisySP//Source/Filters/tone.h **** class Tone
  13:../../DaisySP//Source/Filters/tone.h **** {
  14:../../DaisySP//Source/Filters/tone.h ****   public:
  15:../../DaisySP//Source/Filters/tone.h ****     Tone() {}
  16:../../DaisySP//Source/Filters/tone.h ****     ~Tone() {}
 120              		.loc 12 16 5 is_stmt 1 view .LVU22
 121              		.loc 12 16 5 is_stmt 0 view .LVU23
 122              	.LBE323:
 123              	.LBB324:
 124              	.LBI324:
 125              		.file 13 "../../DaisySP//Source/Utility/delayline.h"
   1:../../DaisySP//Source/Utility/delayline.h **** #pragma once
   2:../../DaisySP//Source/Utility/delayline.h **** #ifndef DSY_DELAY_H
   3:../../DaisySP//Source/Utility/delayline.h **** #define DSY_DELAY_H
   4:../../DaisySP//Source/Utility/delayline.h **** #include <stdlib.h>
   5:../../DaisySP//Source/Utility/delayline.h **** #include <stdint.h>
   6:../../DaisySP//Source/Utility/delayline.h **** namespace daisysp
   7:../../DaisySP//Source/Utility/delayline.h **** {
ARM GAS  C:\Users\daniel\AppData\Local\Temp\ccsQEchw.s 			page 13


   8:../../DaisySP//Source/Utility/delayline.h **** /** Simple Delay line.
   9:../../DaisySP//Source/Utility/delayline.h **** November 2019
  10:../../DaisySP//Source/Utility/delayline.h **** 
  11:../../DaisySP//Source/Utility/delayline.h **** Converted to Template December 2019
  12:../../DaisySP//Source/Utility/delayline.h **** 
  13:../../DaisySP//Source/Utility/delayline.h **** declaration example: (1 second of floats)
  14:../../DaisySP//Source/Utility/delayline.h **** 
  15:../../DaisySP//Source/Utility/delayline.h **** DelayLine<float, SAMPLE_RATE> del;
  16:../../DaisySP//Source/Utility/delayline.h **** 
  17:../../DaisySP//Source/Utility/delayline.h **** By: shensley
  18:../../DaisySP//Source/Utility/delayline.h **** */
  19:../../DaisySP//Source/Utility/delayline.h **** template <typename T, size_t max_size>
  20:../../DaisySP//Source/Utility/delayline.h **** class DelayLine
  21:../../DaisySP//Source/Utility/delayline.h **** {
  22:../../DaisySP//Source/Utility/delayline.h ****   public:
  23:../../DaisySP//Source/Utility/delayline.h ****     DelayLine() {}
  24:../../DaisySP//Source/Utility/delayline.h ****     ~DelayLine() {}
 126              		.loc 13 24 5 is_stmt 1 view .LVU24
 127              		.loc 13 24 5 is_stmt 0 view .LVU25
 128              	.LBE324:
 129              	.LBB325:
 130              	.LBI325:
 131              		.loc 13 24 5 is_stmt 1 view .LVU26
 132              		.loc 13 24 5 is_stmt 0 view .LVU27
 133              	.LBE325:
 134              	.LBE320:
 135              	.LBB326:
 136              	.LBI326:
 137              		.file 14 "../../DaisySP//Source/Filters/svf.h"
   1:../../DaisySP//Source/Filters/svf.h **** #pragma once
   2:../../DaisySP//Source/Filters/svf.h **** #ifndef DSY_SVF_H
   3:../../DaisySP//Source/Filters/svf.h **** #define DSY_SVF_H
   4:../../DaisySP//Source/Filters/svf.h **** 
   5:../../DaisySP//Source/Filters/svf.h **** namespace daisysp
   6:../../DaisySP//Source/Filters/svf.h **** {
   7:../../DaisySP//Source/Filters/svf.h **** /**      Double Sampled, Stable State Variable Filter
   8:../../DaisySP//Source/Filters/svf.h **** 
   9:../../DaisySP//Source/Filters/svf.h **** Credit to Andrew Simper from musicdsp.org
  10:../../DaisySP//Source/Filters/svf.h **** 
  11:../../DaisySP//Source/Filters/svf.h **** This is his "State Variable Filter (Double Sampled, Stable)"
  12:../../DaisySP//Source/Filters/svf.h **** 
  13:../../DaisySP//Source/Filters/svf.h **** Additional thanks to Laurent de Soras for stability limit, and 
  14:../../DaisySP//Source/Filters/svf.h **** Stefan Diedrichsen for the correct notch output
  15:../../DaisySP//Source/Filters/svf.h **** 
  16:../../DaisySP//Source/Filters/svf.h **** Ported by: Stephen Hensley
  17:../../DaisySP//Source/Filters/svf.h **** */
  18:../../DaisySP//Source/Filters/svf.h **** class Svf
  19:../../DaisySP//Source/Filters/svf.h **** {
  20:../../DaisySP//Source/Filters/svf.h ****   public:
  21:../../DaisySP//Source/Filters/svf.h ****     Svf() {}
  22:../../DaisySP//Source/Filters/svf.h ****     ~Svf() {}
 138              		.loc 14 22 5 is_stmt 1 view .LVU28
 139              		.loc 14 22 5 is_stmt 0 view .LVU29
 140              	.LBE326:
 141              	.LBB327:
 142              	.LBI327:
 143              		.file 15 "../../DaisySP//Source/Noise/dust.h"
ARM GAS  C:\Users\daniel\AppData\Local\Temp\ccsQEchw.s 			page 14


   1:../../DaisySP//Source/Noise/dust.h **** #pragma once
   2:../../DaisySP//Source/Noise/dust.h **** #ifndef DSY_DUST_H
   3:../../DaisySP//Source/Noise/dust.h **** #define DSY_DUST_H
   4:../../DaisySP//Source/Noise/dust.h **** #include <cstdlib>
   5:../../DaisySP//Source/Noise/dust.h **** #include <random>
   6:../../DaisySP//Source/Noise/dust.h **** #include "Utility/dsp.h"
   7:../../DaisySP//Source/Noise/dust.h **** #ifdef __cplusplus
   8:../../DaisySP//Source/Noise/dust.h **** 
   9:../../DaisySP//Source/Noise/dust.h **** /** @file dust.h */
  10:../../DaisySP//Source/Noise/dust.h **** 
  11:../../DaisySP//Source/Noise/dust.h **** namespace daisysp
  12:../../DaisySP//Source/Noise/dust.h **** {
  13:../../DaisySP//Source/Noise/dust.h **** /**  
  14:../../DaisySP//Source/Noise/dust.h ****        @brief Dust Module
  15:../../DaisySP//Source/Noise/dust.h ****        @author Ported by Ben Sergentanis 
  16:../../DaisySP//Source/Noise/dust.h ****        @date Jan 2021 
  17:../../DaisySP//Source/Noise/dust.h ****        Randomly Clocked Samples \n \n
  18:../../DaisySP//Source/Noise/dust.h ****        Ported from pichenettes/eurorack/plaits/dsp/noise/dust.h \n
  19:../../DaisySP//Source/Noise/dust.h ****        to an independent module. \n
  20:../../DaisySP//Source/Noise/dust.h ****        Original code written by Emilie Gillet in 2016. \n
  21:../../DaisySP//Source/Noise/dust.h **** 
  22:../../DaisySP//Source/Noise/dust.h **** */
  23:../../DaisySP//Source/Noise/dust.h **** class Dust
  24:../../DaisySP//Source/Noise/dust.h **** {
  25:../../DaisySP//Source/Noise/dust.h ****   public:
  26:../../DaisySP//Source/Noise/dust.h ****     Dust() {}
  27:../../DaisySP//Source/Noise/dust.h ****     ~Dust() {}
 144              		.loc 15 27 5 is_stmt 1 view .LVU30
 145              		.loc 15 27 5 is_stmt 0 view .LVU31
 146              	.LBE327:
 147              		.loc 8 28 21 view .LVU32
 148 0000 7047     		bx	lr
 149              		.cfi_endproc
 150              	.LFE4645:
 152              		.weak	_ZN7daisysp11StringVoiceD1Ev
 153              		.thumb_set _ZN7daisysp11StringVoiceD1Ev,_ZN7daisysp11StringVoiceD2Ev
 154 0002 00BF     		.section	.text._Z13AudioCallbackPKPKfPPfj,"ax",%progbits
 155              		.align	1
 156              		.p2align 2,,3
 157              		.global	_Z13AudioCallbackPKPKfPPfj
 158              		.syntax unified
 159              		.thumb
 160              		.thumb_func
 161              		.fpu fpv5-d16
 163              	_Z13AudioCallbackPKPKfPPfj:
 164              	.LVL2:
 165              	.LFB4783:
 166              		.file 16 "mikronima.cpp"
   1:mikronima.cpp **** #include "daisy_patch_sm.h"
   2:mikronima.cpp **** #include "daisysp.h"
   3:mikronima.cpp **** 
   4:mikronima.cpp **** using namespace daisy;
   5:mikronima.cpp **** using namespace patch_sm;
   6:mikronima.cpp **** using namespace daisysp;
   7:mikronima.cpp **** 
   8:mikronima.cpp **** DaisyPatchSM hw;
   9:mikronima.cpp **** StringVoice str;
ARM GAS  C:\Users\daniel\AppData\Local\Temp\ccsQEchw.s 			page 15


  10:mikronima.cpp **** 
  11:mikronima.cpp **** void AudioCallback(AudioHandle::InputBuffer in, AudioHandle::OutputBuffer out, size_t size)
  12:mikronima.cpp **** {
 167              		.loc 16 12 1 is_stmt 1 view -0
 168              		.cfi_startproc
 169              		@ args = 0, pretend = 0, frame = 0
 170              		@ frame_needed = 0, uses_anonymous_args = 0
  13:mikronima.cpp ****     // set CV inputs and Coarse knob
  14:mikronima.cpp ****     float coarse_knob = hw.GetAdcValue(CV_1);
 171              		.loc 16 14 5 view .LVU34
  12:mikronima.cpp ****     // set CV inputs and Coarse knob
 172              		.loc 16 12 1 is_stmt 0 view .LVU35
 173 0000 2DE9F041 		push	{r4, r5, r6, r7, r8, lr}
 174              		.cfi_def_cfa_offset 24
 175              		.cfi_offset 4, -24
 176              		.cfi_offset 5, -20
 177              		.cfi_offset 6, -16
 178              		.cfi_offset 7, -12
 179              		.cfi_offset 8, -8
 180              		.cfi_offset 14, -4
 181 0004 2DED048B 		vpush.64	{d8, d9}
 182              		.cfi_def_cfa_offset 40
 183              		.cfi_offset 80, -40
 184              		.cfi_offset 81, -36
 185              		.cfi_offset 82, -32
 186              		.cfi_offset 83, -28
 187              	.LBB367:
 188              	.LBB368:
 189              		.file 17 "../../DaisySP//Source/Utility/dsp.h"
   1:../../DaisySP//Source/Utility/dsp.h **** /** Helpful defines, functions, and other utilities for use in/with daisysp modules.
   2:../../DaisySP//Source/Utility/dsp.h **** */
   3:../../DaisySP//Source/Utility/dsp.h **** #pragma once
   4:../../DaisySP//Source/Utility/dsp.h **** #ifndef DSY_CORE_DSP
   5:../../DaisySP//Source/Utility/dsp.h **** #define DSY_CORE_DSP
   6:../../DaisySP//Source/Utility/dsp.h **** #include <cassert>
   7:../../DaisySP//Source/Utility/dsp.h **** #include <cstdint>
   8:../../DaisySP//Source/Utility/dsp.h **** #include <random>
   9:../../DaisySP//Source/Utility/dsp.h **** #include <cmath>
  10:../../DaisySP//Source/Utility/dsp.h **** 
  11:../../DaisySP//Source/Utility/dsp.h **** /** PIs
  12:../../DaisySP//Source/Utility/dsp.h **** */
  13:../../DaisySP//Source/Utility/dsp.h **** #define PI_F 3.1415927410125732421875f
  14:../../DaisySP//Source/Utility/dsp.h **** #define TWOPI_F (2.0f * PI_F)
  15:../../DaisySP//Source/Utility/dsp.h **** #define HALFPI_F (PI_F * 0.5f)
  16:../../DaisySP//Source/Utility/dsp.h **** #define DSY_MIN(in, mn) (in < mn ? in : mn)
  17:../../DaisySP//Source/Utility/dsp.h **** #define DSY_MAX(in, mx) (in > mx ? in : mx)
  18:../../DaisySP//Source/Utility/dsp.h **** #define DSY_CLAMP(in, mn, mx) (DSY_MIN(DSY_MAX(in, mn), mx))
  19:../../DaisySP//Source/Utility/dsp.h **** #define DSY_COUNTOF(_arr) (sizeof(_arr) / sizeof(_arr[0]))
  20:../../DaisySP//Source/Utility/dsp.h **** 
  21:../../DaisySP//Source/Utility/dsp.h **** namespace daisysp
  22:../../DaisySP//Source/Utility/dsp.h **** {
  23:../../DaisySP//Source/Utility/dsp.h **** //Avoids division for random floats. e.g. rand() * kRandFrac
  24:../../DaisySP//Source/Utility/dsp.h **** static constexpr float kRandFrac = 1.f / (float)RAND_MAX;
  25:../../DaisySP//Source/Utility/dsp.h **** 
  26:../../DaisySP//Source/Utility/dsp.h **** //Convert from semitones to other units. e.g. 2 ^ (kOneTwelfth * x)
  27:../../DaisySP//Source/Utility/dsp.h **** static constexpr float kOneTwelfth = 1.f / 12.f;
  28:../../DaisySP//Source/Utility/dsp.h **** 
ARM GAS  C:\Users\daniel\AppData\Local\Temp\ccsQEchw.s 			page 16


  29:../../DaisySP//Source/Utility/dsp.h **** /** efficient floating point min/max
  30:../../DaisySP//Source/Utility/dsp.h **** c/o stephen mccaul
  31:../../DaisySP//Source/Utility/dsp.h **** */
  32:../../DaisySP//Source/Utility/dsp.h **** inline float fmax(float a, float b)
  33:../../DaisySP//Source/Utility/dsp.h **** {
  34:../../DaisySP//Source/Utility/dsp.h ****     float r;
  35:../../DaisySP//Source/Utility/dsp.h **** #ifdef __arm__
  36:../../DaisySP//Source/Utility/dsp.h ****     asm("vmaxnm.f32 %[d], %[n], %[m]" : [d] "=t"(r) : [n] "t"(a), [m] "t"(b) :);
  37:../../DaisySP//Source/Utility/dsp.h **** #else
  38:../../DaisySP//Source/Utility/dsp.h ****     r = (a > b) ? a : b;
  39:../../DaisySP//Source/Utility/dsp.h **** #endif // __arm__
  40:../../DaisySP//Source/Utility/dsp.h ****     return r;
  41:../../DaisySP//Source/Utility/dsp.h **** }
  42:../../DaisySP//Source/Utility/dsp.h **** 
  43:../../DaisySP//Source/Utility/dsp.h **** inline float fmin(float a, float b)
  44:../../DaisySP//Source/Utility/dsp.h **** {
  45:../../DaisySP//Source/Utility/dsp.h ****     float r;
  46:../../DaisySP//Source/Utility/dsp.h **** #ifdef __arm__
  47:../../DaisySP//Source/Utility/dsp.h ****     asm("vminnm.f32 %[d], %[n], %[m]" : [d] "=t"(r) : [n] "t"(a), [m] "t"(b) :);
  48:../../DaisySP//Source/Utility/dsp.h **** #else
  49:../../DaisySP//Source/Utility/dsp.h ****     r = (a < b) ? a : b;
  50:../../DaisySP//Source/Utility/dsp.h **** #endif // __arm__
  51:../../DaisySP//Source/Utility/dsp.h ****     return r;
  52:../../DaisySP//Source/Utility/dsp.h **** }
  53:../../DaisySP//Source/Utility/dsp.h **** 
  54:../../DaisySP//Source/Utility/dsp.h **** /** quick fp clamp
  55:../../DaisySP//Source/Utility/dsp.h **** */
  56:../../DaisySP//Source/Utility/dsp.h **** inline float fclamp(float in, float min, float max)
  57:../../DaisySP//Source/Utility/dsp.h **** {
  58:../../DaisySP//Source/Utility/dsp.h ****     return fmin(fmax(in, min), max);
  59:../../DaisySP//Source/Utility/dsp.h **** }
  60:../../DaisySP//Source/Utility/dsp.h **** 
  61:../../DaisySP//Source/Utility/dsp.h **** /** From Musicdsp.org "Fast power and root estimates for 32bit floats)
  62:../../DaisySP//Source/Utility/dsp.h **** Original code by Stefan Stenzel
  63:../../DaisySP//Source/Utility/dsp.h **** These are approximations
  64:../../DaisySP//Source/Utility/dsp.h **** */
  65:../../DaisySP//Source/Utility/dsp.h **** inline float fastpower(float f, int n)
  66:../../DaisySP//Source/Utility/dsp.h **** {
  67:../../DaisySP//Source/Utility/dsp.h ****     long *lp, l;
  68:../../DaisySP//Source/Utility/dsp.h ****     lp = (long *)(&f);
  69:../../DaisySP//Source/Utility/dsp.h ****     l  = *lp;
  70:../../DaisySP//Source/Utility/dsp.h ****     l -= 0x3F800000;
  71:../../DaisySP//Source/Utility/dsp.h ****     l <<= (n - 1);
  72:../../DaisySP//Source/Utility/dsp.h ****     l += 0x3F800000;
  73:../../DaisySP//Source/Utility/dsp.h ****     *lp = l;
  74:../../DaisySP//Source/Utility/dsp.h ****     return f;
  75:../../DaisySP//Source/Utility/dsp.h **** }
  76:../../DaisySP//Source/Utility/dsp.h **** 
  77:../../DaisySP//Source/Utility/dsp.h **** inline float fastroot(float f, int n)
  78:../../DaisySP//Source/Utility/dsp.h **** {
  79:../../DaisySP//Source/Utility/dsp.h ****     long *lp, l;
  80:../../DaisySP//Source/Utility/dsp.h ****     lp = (long *)(&f);
  81:../../DaisySP//Source/Utility/dsp.h ****     l  = *lp;
  82:../../DaisySP//Source/Utility/dsp.h ****     l -= 0x3F800000;
  83:../../DaisySP//Source/Utility/dsp.h ****     l >>= (n = 1);
  84:../../DaisySP//Source/Utility/dsp.h ****     l += 0x3F800000;
  85:../../DaisySP//Source/Utility/dsp.h ****     *lp = l;
ARM GAS  C:\Users\daniel\AppData\Local\Temp\ccsQEchw.s 			page 17


  86:../../DaisySP//Source/Utility/dsp.h ****     return f;
  87:../../DaisySP//Source/Utility/dsp.h **** }
  88:../../DaisySP//Source/Utility/dsp.h **** 
  89:../../DaisySP//Source/Utility/dsp.h **** /** From http://openaudio.blogspot.com/2017/02/faster-log10-and-pow.html
  90:../../DaisySP//Source/Utility/dsp.h **** No approximation, pow10f(x) gives a 90% speed increase over powf(10.f, x)
  91:../../DaisySP//Source/Utility/dsp.h **** */
  92:../../DaisySP//Source/Utility/dsp.h **** inline float pow10f(float f)
  93:../../DaisySP//Source/Utility/dsp.h **** {
  94:../../DaisySP//Source/Utility/dsp.h ****     return expf(2.302585092994046f * f);
  95:../../DaisySP//Source/Utility/dsp.h **** }
  96:../../DaisySP//Source/Utility/dsp.h **** 
  97:../../DaisySP//Source/Utility/dsp.h **** /* Original code for fastlog2f by Dr. Paul Beckmann from the ARM community forum, adapted from the 
  98:../../DaisySP//Source/Utility/dsp.h **** About 25% performance increase over std::log10f
  99:../../DaisySP//Source/Utility/dsp.h **** */
 100:../../DaisySP//Source/Utility/dsp.h **** inline float fastlog2f(float f)
 101:../../DaisySP//Source/Utility/dsp.h **** {
 102:../../DaisySP//Source/Utility/dsp.h ****     float frac;
 103:../../DaisySP//Source/Utility/dsp.h ****     int   exp;
 104:../../DaisySP//Source/Utility/dsp.h ****     frac = frexpf(fabsf(f), &exp);
 105:../../DaisySP//Source/Utility/dsp.h ****     f    = 1.23149591368684f;
 106:../../DaisySP//Source/Utility/dsp.h ****     f *= frac;
 107:../../DaisySP//Source/Utility/dsp.h ****     f += -4.11852516267426f;
 108:../../DaisySP//Source/Utility/dsp.h ****     f *= frac;
 109:../../DaisySP//Source/Utility/dsp.h ****     f += 6.02197014179219f;
 110:../../DaisySP//Source/Utility/dsp.h ****     f *= frac;
 111:../../DaisySP//Source/Utility/dsp.h ****     f += -3.13396450166353f;
 112:../../DaisySP//Source/Utility/dsp.h ****     f += exp;
 113:../../DaisySP//Source/Utility/dsp.h ****     return (f);
 114:../../DaisySP//Source/Utility/dsp.h **** }
 115:../../DaisySP//Source/Utility/dsp.h **** 
 116:../../DaisySP//Source/Utility/dsp.h **** inline float fastlog10f(float f)
 117:../../DaisySP//Source/Utility/dsp.h **** {
 118:../../DaisySP//Source/Utility/dsp.h ****     return fastlog2f(f) * 0.3010299956639812f;
 119:../../DaisySP//Source/Utility/dsp.h **** }
 120:../../DaisySP//Source/Utility/dsp.h **** 
 121:../../DaisySP//Source/Utility/dsp.h **** /** Midi to frequency helper
 122:../../DaisySP//Source/Utility/dsp.h **** */
 123:../../DaisySP//Source/Utility/dsp.h **** inline float mtof(float m)
 124:../../DaisySP//Source/Utility/dsp.h **** {
 125:../../DaisySP//Source/Utility/dsp.h ****     return powf(2, (m - 69.0f) / 12.0f) * 440.0f;
 126:../../DaisySP//Source/Utility/dsp.h **** }
 127:../../DaisySP//Source/Utility/dsp.h **** 
 128:../../DaisySP//Source/Utility/dsp.h **** 
 129:../../DaisySP//Source/Utility/dsp.h **** /** one pole lpf
 130:../../DaisySP//Source/Utility/dsp.h **** out is passed by reference, and must be retained between
 131:../../DaisySP//Source/Utility/dsp.h **** calls to properly filter the signal
 132:../../DaisySP//Source/Utility/dsp.h **** coeff can be calculated:
 133:../../DaisySP//Source/Utility/dsp.h **** coeff = 1.0 / (time * sample_rate) ; where time is in seconds
 134:../../DaisySP//Source/Utility/dsp.h **** */
 135:../../DaisySP//Source/Utility/dsp.h **** inline void fonepole(float &out, float in, float coeff)
 136:../../DaisySP//Source/Utility/dsp.h **** {
 137:../../DaisySP//Source/Utility/dsp.h ****     out += coeff * (in - out);
 138:../../DaisySP//Source/Utility/dsp.h **** }
 139:../../DaisySP//Source/Utility/dsp.h **** 
 140:../../DaisySP//Source/Utility/dsp.h **** /** Curves to use with the fmap function */
 141:../../DaisySP//Source/Utility/dsp.h **** enum class Mapping
 142:../../DaisySP//Source/Utility/dsp.h **** {
ARM GAS  C:\Users\daniel\AppData\Local\Temp\ccsQEchw.s 			page 18


 143:../../DaisySP//Source/Utility/dsp.h ****     LINEAR,
 144:../../DaisySP//Source/Utility/dsp.h ****     EXP,
 145:../../DaisySP//Source/Utility/dsp.h ****     LOG,
 146:../../DaisySP//Source/Utility/dsp.h **** };
 147:../../DaisySP//Source/Utility/dsp.h **** 
 148:../../DaisySP//Source/Utility/dsp.h **** /** Maps a float between a specified range, using a specified curve. 
 149:../../DaisySP//Source/Utility/dsp.h ****  * 
 150:../../DaisySP//Source/Utility/dsp.h ****  *  \param in a value between 0 to 1 that will be mapped to the new range.
 151:../../DaisySP//Source/Utility/dsp.h ****  *  \param min the new minimum value
 152:../../DaisySP//Source/Utility/dsp.h ****  *  \param max the new maxmimum value
 153:../../DaisySP//Source/Utility/dsp.h ****  *  \param curve a Mapping Value to adjust the response curve of the transformation
 154:../../DaisySP//Source/Utility/dsp.h ****  *               defaults to Linear. @see Mapping
 155:../../DaisySP//Source/Utility/dsp.h ****  * 
 156:../../DaisySP//Source/Utility/dsp.h ****  *  When using the log curve min and max, must be greater than zero.
 157:../../DaisySP//Source/Utility/dsp.h ****  * 
 158:../../DaisySP//Source/Utility/dsp.h ****  *  \retval returns the transformed float within the new range.
 159:../../DaisySP//Source/Utility/dsp.h **** */
 160:../../DaisySP//Source/Utility/dsp.h **** inline float
 161:../../DaisySP//Source/Utility/dsp.h **** fmap(float in, float min, float max, Mapping curve = Mapping::LINEAR)
 162:../../DaisySP//Source/Utility/dsp.h **** {
 163:../../DaisySP//Source/Utility/dsp.h ****     switch(curve)
 164:../../DaisySP//Source/Utility/dsp.h ****     {
 165:../../DaisySP//Source/Utility/dsp.h ****         case Mapping::EXP:
 166:../../DaisySP//Source/Utility/dsp.h ****             return fclamp(min + (in * in) * (max - min), min, max);
 167:../../DaisySP//Source/Utility/dsp.h ****         case Mapping::LOG:
 168:../../DaisySP//Source/Utility/dsp.h ****         {
 169:../../DaisySP//Source/Utility/dsp.h ****             const float a = 1.f / log10f(max / min);
 170:../../DaisySP//Source/Utility/dsp.h ****             return fclamp(min * powf(10, in / a), min, max);
 171:../../DaisySP//Source/Utility/dsp.h ****         }
 172:../../DaisySP//Source/Utility/dsp.h ****         case Mapping::LINEAR:
 173:../../DaisySP//Source/Utility/dsp.h ****         default: return fclamp(min + in * (max - min), min, max);
 190              		.loc 17 173 31 view .LVU36
 191 0008 9FED4D9A 		vldr.32	s18, .L16
 192              	.LBE368:
 193              	.LBE367:
  12:mikronima.cpp ****     // set CV inputs and Coarse knob
 194              		.loc 16 12 1 view .LVU37
 195 000c 0E46     		mov	r6, r1
 196              		.loc 16 14 39 view .LVU38
 197 000e 4D48     		ldr	r0, .L16+4
 198              	.LVL3:
 199              		.loc 16 14 39 view .LVU39
 200 0010 0021     		movs	r1, #0
 201              	.LVL4:
  12:mikronima.cpp ****     // set CV inputs and Coarse knob
 202              		.loc 16 12 1 view .LVU40
 203 0012 1746     		mov	r7, r2
 204              		.loc 16 14 39 view .LVU41
 205 0014 FFF7FEFF 		bl	_ZN5daisy8patch_sm12DaisyPatchSM11GetAdcValueEi
 206              	.LVL5:
  15:mikronima.cpp ****     float coarse      = fmap(coarse_knob, 36.f, 96.f);
 207              		.loc 16 15 5 is_stmt 1 view .LVU42
 208              	.LBB383:
 209              	.LBI367:
 161:../../DaisySP//Source/Utility/dsp.h **** {
 210              		.loc 17 161 1 view .LVU43
 211              	.LBE383:
ARM GAS  C:\Users\daniel\AppData\Local\Temp\ccsQEchw.s 			page 19


 163:../../DaisySP//Source/Utility/dsp.h ****     {
 212              		.loc 17 163 5 view .LVU44
 213              	.LBB384:
 214              	.LBB379:
 172:../../DaisySP//Source/Utility/dsp.h ****         default: return fclamp(min + in * (max - min), min, max);
 215              		.loc 17 172 9 view .LVU45
 216              		.loc 17 173 9 view .LVU46
 217              		.loc 17 173 18 view .LVU47
 218              		.loc 17 173 31 is_stmt 0 view .LVU48
 219 0018 F0EE496A 		vmov.f32	s13, s18
 220              	.LBE379:
 221              	.LBE384:
 222              	.LBB385:
 223              	.LBB386:
 224 001c 9FED4A8A 		vldr.32	s16, .L16+8
 225              	.LBE386:
 226              	.LBE385:
 227              	.LBB400:
 228              	.LBB380:
 229 0020 DFED4A9A 		vldr.32	s19, .L16+12
 230              	.LBE380:
 231              	.LBE400:
  16:mikronima.cpp **** 
  17:mikronima.cpp ****     float voct_cv = hw.GetAdcValue(CV_5);
 232              		.loc 16 17 35 view .LVU49
 233 0024 0421     		movs	r1, #4
 234 0026 4748     		ldr	r0, .L16+4
 235              	.LBB401:
 236              	.LBB381:
 237              		.loc 17 173 31 view .LVU50
 238 0028 E0EE296A 		vfma.f32	s13, s0, s19
 239              	.LVL6:
 240              	.LBB369:
 241              	.LBI369:
  56:../../DaisySP//Source/Utility/dsp.h **** {
 242              		.loc 17 56 14 is_stmt 1 view .LVU51
 243              	.LBE369:
 244              	.LBE381:
 245              	.LBE401:
  58:../../DaisySP//Source/Utility/dsp.h **** }
 246              		.loc 17 58 5 view .LVU52
 247              	.LBB402:
 248              	.LBB382:
 249              	.LBB378:
 250              	.LBB370:
 251              	.LBI370:
  32:../../DaisySP//Source/Utility/dsp.h **** {
 252              		.loc 17 32 14 view .LVU53
 253              	.LBB371:
  34:../../DaisySP//Source/Utility/dsp.h **** #ifdef __arm__
 254              		.loc 17 34 5 view .LVU54
  36:../../DaisySP//Source/Utility/dsp.h **** #else
 255              		.loc 17 36 5 view .LVU55
 256              	.LBE371:
 257              	.LBE370:
 258              	.LBB373:
 259              	.LBB374:
ARM GAS  C:\Users\daniel\AppData\Local\Temp\ccsQEchw.s 			page 20


  47:../../DaisySP//Source/Utility/dsp.h **** #else
 260              		.loc 17 47 5 is_stmt 0 view .LVU56
 261 002c DFED487A 		vldr.32	s15, .L16+16
 262              	.LBE374:
 263              	.LBE373:
 264              	.LBB376:
 265              	.LBB372:
  36:../../DaisySP//Source/Utility/dsp.h **** #else
 266              		.loc 17 36 5 view .LVU57
 267              		.syntax unified
 268              	@ 36 "../../DaisySP//Source/Utility/dsp.h" 1
 269 0030 C6FE896A 		vmaxnm.f32 s13, s13, s18
 270              	@ 0 "" 2
 271              	.LVL7:
  40:../../DaisySP//Source/Utility/dsp.h **** }
 272              		.loc 17 40 5 is_stmt 1 view .LVU58
  40:../../DaisySP//Source/Utility/dsp.h **** }
 273              		.loc 17 40 5 is_stmt 0 view .LVU59
 274              		.thumb
 275              		.syntax unified
 276              	.LBE372:
 277              	.LBE376:
 278              	.LBB377:
 279              	.LBI373:
  43:../../DaisySP//Source/Utility/dsp.h **** {
 280              		.loc 17 43 14 is_stmt 1 view .LVU60
 281              	.LBB375:
  45:../../DaisySP//Source/Utility/dsp.h **** #ifdef __arm__
 282              		.loc 17 45 5 view .LVU61
  47:../../DaisySP//Source/Utility/dsp.h **** #else
 283              		.loc 17 47 5 view .LVU62
 284              		.syntax unified
 285              	@ 47 "../../DaisySP//Source/Utility/dsp.h" 1
 286 0034 86FEE79A 		vminnm.f32 s18, s13, s15
 287              	@ 0 "" 2
 288              	.LVL8:
  51:../../DaisySP//Source/Utility/dsp.h **** }
 289              		.loc 17 51 5 view .LVU63
  51:../../DaisySP//Source/Utility/dsp.h **** }
 290              		.loc 17 51 5 is_stmt 0 view .LVU64
 291              		.thumb
 292              		.syntax unified
 293              	.LBE375:
 294              	.LBE377:
 295              	.LBE378:
 296              	.LBE382:
 297              	.LBE402:
 298              		.loc 16 17 5 is_stmt 1 view .LVU65
 299              		.loc 16 17 35 is_stmt 0 view .LVU66
 300 0038 FFF7FEFF 		bl	_ZN5daisy8patch_sm12DaisyPatchSM11GetAdcValueEi
 301              	.LVL9:
  18:mikronima.cpp ****     float voct    = fmap(voct_cv, 0.f, 60.f);
 302              		.loc 16 18 5 is_stmt 1 view .LVU67
 303              	.LBB403:
 304              	.LBI385:
 161:../../DaisySP//Source/Utility/dsp.h **** {
 305              		.loc 17 161 1 view .LVU68
ARM GAS  C:\Users\daniel\AppData\Local\Temp\ccsQEchw.s 			page 21


 306              	.LBE403:
 163:../../DaisySP//Source/Utility/dsp.h ****     {
 307              		.loc 17 163 5 view .LVU69
 308              	.LBB404:
 309              	.LBB396:
 172:../../DaisySP//Source/Utility/dsp.h ****         default: return fclamp(min + in * (max - min), min, max);
 310              		.loc 17 172 9 view .LVU70
 311              		.loc 17 173 9 view .LVU71
 312              		.loc 17 173 18 view .LVU72
 313              		.loc 17 173 31 is_stmt 0 view .LVU73
 314 003c B0EE487A 		vmov.f32	s14, s16
 315              	.LBE396:
 316              	.LBE404:
 317              	.LBB405:
 318              	.LBB406:
 125:../../DaisySP//Source/Utility/dsp.h **** }
 319              		.loc 17 125 23 view .LVU74
 320 0040 DFED446A 		vldr.32	s13, .L16+20
 125:../../DaisySP//Source/Utility/dsp.h **** }
 321              		.loc 17 125 16 view .LVU75
 322 0044 F2EE080A 		vmov.f32	s1, #1.2e+1
 323              	.LBE406:
 324              	.LBE405:
 325              	.LBB410:
 326              	.LBB411:
 327              	.LBB412:
  47:../../DaisySP//Source/Utility/dsp.h **** #else
 328              		.loc 17 47 5 view .LVU76
 329 0048 9FED436A 		vldr.32	s12, .L16+24
 330              	.LBE412:
 331              	.LBE411:
 332              	.LBE410:
 333              	.LBB419:
 334              	.LBB397:
 335              		.loc 17 173 31 view .LVU77
 336 004c A0EE297A 		vfma.f32	s14, s0, s19
 337              	.LVL10:
 338              	.LBB387:
 339              	.LBI387:
  56:../../DaisySP//Source/Utility/dsp.h **** {
 340              		.loc 17 56 14 is_stmt 1 view .LVU78
 341              	.LBE387:
 342              	.LBE397:
 343              	.LBE419:
  58:../../DaisySP//Source/Utility/dsp.h **** }
 344              		.loc 17 58 5 view .LVU79
 345              	.LBB420:
 346              	.LBB398:
 347              	.LBB394:
 348              	.LBB388:
 349              	.LBI388:
  32:../../DaisySP//Source/Utility/dsp.h **** {
 350              		.loc 17 32 14 view .LVU80
 351              	.LBB389:
  34:../../DaisySP//Source/Utility/dsp.h **** #ifdef __arm__
 352              		.loc 17 34 5 view .LVU81
  36:../../DaisySP//Source/Utility/dsp.h **** #else
ARM GAS  C:\Users\daniel\AppData\Local\Temp\ccsQEchw.s 			page 22


 353              		.loc 17 36 5 view .LVU82
 354              	.LBE389:
 355              	.LBE388:
 356              	.LBE394:
 357              	.LBE398:
 358              	.LBE420:
 359              	.LBB421:
 360              	.LBB422:
 361              		.loc 17 173 31 is_stmt 0 view .LVU83
 362 0050 DFED428A 		vldr.32	s17, .L16+28
 363              	.LBE422:
 364              	.LBE421:
 365              	.LBB437:
 366              	.LBB399:
 367              	.LBB395:
 368              	.LBB391:
 369              	.LBB390:
  36:../../DaisySP//Source/Utility/dsp.h **** #else
 370              		.loc 17 36 5 view .LVU84
 371              		.syntax unified
 372              	@ 36 "../../DaisySP//Source/Utility/dsp.h" 1
 373 0054 87FE087A 		vmaxnm.f32 s14, s14, s16
 374              	@ 0 "" 2
 375              	.LVL11:
  40:../../DaisySP//Source/Utility/dsp.h **** }
 376              		.loc 17 40 5 is_stmt 1 view .LVU85
  40:../../DaisySP//Source/Utility/dsp.h **** }
 377              		.loc 17 40 5 is_stmt 0 view .LVU86
 378              		.thumb
 379              		.syntax unified
 380              	.LBE390:
 381              	.LBE391:
 382              	.LBB392:
 383              	.LBI392:
  43:../../DaisySP//Source/Utility/dsp.h **** {
 384              		.loc 17 43 14 is_stmt 1 view .LVU87
 385              	.LBB393:
  45:../../DaisySP//Source/Utility/dsp.h **** #ifdef __arm__
 386              		.loc 17 45 5 view .LVU88
  47:../../DaisySP//Source/Utility/dsp.h **** #else
 387              		.loc 17 47 5 view .LVU89
 388              		.syntax unified
 389              	@ 47 "../../DaisySP//Source/Utility/dsp.h" 1
 390 0058 C7FE697A 		vminnm.f32 s15, s14, s19
 391              	@ 0 "" 2
 392              	.LVL12:
  51:../../DaisySP//Source/Utility/dsp.h **** }
 393              		.loc 17 51 5 view .LVU90
  51:../../DaisySP//Source/Utility/dsp.h **** }
 394              		.loc 17 51 5 is_stmt 0 view .LVU91
 395              		.thumb
 396              		.syntax unified
 397              	.LBE393:
 398              	.LBE392:
 399              	.LBE395:
 400              	.LBE399:
 401              	.LBE437:
ARM GAS  C:\Users\daniel\AppData\Local\Temp\ccsQEchw.s 			page 23


  19:mikronima.cpp **** 
  20:mikronima.cpp ****     float midi_nn = fclamp(coarse + voct, 0.f, 127.f);
 402              		.loc 16 20 5 is_stmt 1 view .LVU92
 403              	.LBB438:
 404              	.LBI410:
  56:../../DaisySP//Source/Utility/dsp.h **** {
 405              		.loc 17 56 14 view .LVU93
 406              	.LBE438:
  58:../../DaisySP//Source/Utility/dsp.h **** }
 407              		.loc 17 58 5 view .LVU94
 408              	.LBB439:
 409              	.LBB414:
 410              	.LBI414:
  32:../../DaisySP//Source/Utility/dsp.h **** {
 411              		.loc 17 32 14 view .LVU95
 412              	.LBB415:
  34:../../DaisySP//Source/Utility/dsp.h **** #ifdef __arm__
 413              		.loc 17 34 5 view .LVU96
  36:../../DaisySP//Source/Utility/dsp.h **** #else
 414              		.loc 17 36 5 view .LVU97
 415              	.LBE415:
 416              	.LBE414:
 417              	.LBE439:
 418              		.loc 16 20 27 is_stmt 0 view .LVU98
 419 005c 77EE897A 		vadd.f32	s15, s15, s18
 420              	.LVL13:
 421              	.LBB440:
 422              	.LBB417:
 423              	.LBB416:
  36:../../DaisySP//Source/Utility/dsp.h **** #else
 424              		.loc 17 36 5 view .LVU99
 425              		.syntax unified
 426              	@ 36 "../../DaisySP//Source/Utility/dsp.h" 1
 427 0060 C7FE887A 		vmaxnm.f32 s15, s15, s16
 428              	@ 0 "" 2
 429              	.LVL14:
  40:../../DaisySP//Source/Utility/dsp.h **** }
 430              		.loc 17 40 5 is_stmt 1 view .LVU100
  40:../../DaisySP//Source/Utility/dsp.h **** }
 431              		.loc 17 40 5 is_stmt 0 view .LVU101
 432              		.thumb
 433              		.syntax unified
 434              	.LBE416:
 435              	.LBE417:
 436              	.LBB418:
 437              	.LBI411:
  43:../../DaisySP//Source/Utility/dsp.h **** {
 438              		.loc 17 43 14 is_stmt 1 view .LVU102
 439              	.LBB413:
  45:../../DaisySP//Source/Utility/dsp.h **** #ifdef __arm__
 440              		.loc 17 45 5 view .LVU103
  47:../../DaisySP//Source/Utility/dsp.h **** #else
 441              		.loc 17 47 5 view .LVU104
 442              		.syntax unified
 443              	@ 47 "../../DaisySP//Source/Utility/dsp.h" 1
 444 0064 C7FEC67A 		vminnm.f32 s15, s15, s12
 445              	@ 0 "" 2
ARM GAS  C:\Users\daniel\AppData\Local\Temp\ccsQEchw.s 			page 24


 446              	.LVL15:
  51:../../DaisySP//Source/Utility/dsp.h **** }
 447              		.loc 17 51 5 view .LVU105
  51:../../DaisySP//Source/Utility/dsp.h **** }
 448              		.loc 17 51 5 is_stmt 0 view .LVU106
 449              		.thumb
 450              		.syntax unified
 451              	.LBE413:
 452              	.LBE418:
 453              	.LBE440:
  21:mikronima.cpp ****     float freq    = mtof(midi_nn);
 454              		.loc 16 21 5 is_stmt 1 view .LVU107
 455              	.LBB441:
 456              	.LBI405:
 123:../../DaisySP//Source/Utility/dsp.h **** {
 457              		.loc 17 123 14 view .LVU108
 458              	.LBB407:
 125:../../DaisySP//Source/Utility/dsp.h **** }
 459              		.loc 17 125 5 view .LVU109
 125:../../DaisySP//Source/Utility/dsp.h **** }
 460              		.loc 17 125 23 is_stmt 0 view .LVU110
 461 0068 77EEE67A 		vsub.f32	s15, s15, s13
 462              	.LVL16:
 125:../../DaisySP//Source/Utility/dsp.h **** }
 463              		.loc 17 125 16 view .LVU111
 464 006c B0EE000A 		vmov.f32	s0, #2.0e+0
 465              	.LVL17:
 125:../../DaisySP//Source/Utility/dsp.h **** }
 466              		.loc 17 125 16 view .LVU112
 467              	.LBE407:
 468              	.LBE441:
 469              	.LBB442:
 470              	.LBB432:
 471              		.loc 17 173 31 view .LVU113
 472 0070 B0EE489A 		vmov.f32	s18, s16
 473              	.LVL18:
 474              		.loc 17 173 31 view .LVU114
 475              	.LBE432:
 476              	.LBE442:
 477              	.LBB443:
 478              	.LBB408:
 125:../../DaisySP//Source/Utility/dsp.h **** }
 479              		.loc 17 125 16 view .LVU115
 480 0074 C7EEA00A 		vdiv.f32	s1, s15, s1
 481 0078 FFF7FEFF 		bl	powf
 482              	.LVL19:
 125:../../DaisySP//Source/Utility/dsp.h **** }
 483              		.loc 17 125 43 view .LVU116
 484 007c DFED387A 		vldr.32	s15, .L16+32
 485              	.LBE408:
 486              	.LBE443:
  22:mikronima.cpp **** 
  23:mikronima.cpp **** 	// set dampening and brightness (testing)
  24:mikronima.cpp **** 	float damp = fmap(hw.GetAdcValue(CV_2), 0.0f, .99f);
 487              		.loc 16 24 19 view .LVU117
 488 0080 0121     		movs	r1, #1
 489 0082 3048     		ldr	r0, .L16+4
ARM GAS  C:\Users\daniel\AppData\Local\Temp\ccsQEchw.s 			page 25


 490              	.LBB444:
 491              	.LBB409:
 125:../../DaisySP//Source/Utility/dsp.h **** }
 492              		.loc 17 125 43 view .LVU118
 493 0084 60EE279A 		vmul.f32	s19, s0, s15
 494              	.LVL20:
 125:../../DaisySP//Source/Utility/dsp.h **** }
 495              		.loc 17 125 43 view .LVU119
 496              	.LBE409:
 497              	.LBE444:
 498              		.loc 16 24 2 is_stmt 1 view .LVU120
 499              		.loc 16 24 19 is_stmt 0 view .LVU121
 500 0088 FFF7FEFF 		bl	_ZN5daisy8patch_sm12DaisyPatchSM11GetAdcValueEi
 501              	.LVL21:
 502              	.LBB445:
 503              	.LBI421:
 161:../../DaisySP//Source/Utility/dsp.h **** {
 504              		.loc 17 161 1 is_stmt 1 view .LVU122
 505              	.LBE445:
 163:../../DaisySP//Source/Utility/dsp.h ****     {
 506              		.loc 17 163 5 view .LVU123
 507              	.LBB446:
 508              	.LBB433:
 172:../../DaisySP//Source/Utility/dsp.h ****         default: return fclamp(min + in * (max - min), min, max);
 509              		.loc 17 172 9 view .LVU124
 510              		.loc 17 173 9 view .LVU125
 511              		.loc 17 173 18 view .LVU126
 512              	.LBE433:
 513              	.LBE446:
  25:mikronima.cpp **** 	float brightness = fmap(hw.GetAdcValue(CV_3), 0.0f, .99f);
 514              		.loc 16 25 25 is_stmt 0 view .LVU127
 515 008c 0221     		movs	r1, #2
 516 008e 2D48     		ldr	r0, .L16+4
 517              	.LBB447:
 518              	.LBB434:
 519              		.loc 17 173 31 view .LVU128
 520 0090 A0EE289A 		vfma.f32	s18, s0, s17
 521              	.LVL22:
 522              	.LBB423:
 523              	.LBI423:
  56:../../DaisySP//Source/Utility/dsp.h **** {
 524              		.loc 17 56 14 is_stmt 1 view .LVU129
 525              	.LBE423:
 526              	.LBE434:
 527              	.LBE447:
  58:../../DaisySP//Source/Utility/dsp.h **** }
 528              		.loc 17 58 5 view .LVU130
 529              	.LBB448:
 530              	.LBB435:
 531              	.LBB430:
 532              	.LBB424:
 533              	.LBI424:
  32:../../DaisySP//Source/Utility/dsp.h **** {
 534              		.loc 17 32 14 view .LVU131
 535              	.LBB425:
  34:../../DaisySP//Source/Utility/dsp.h **** #ifdef __arm__
 536              		.loc 17 34 5 view .LVU132
ARM GAS  C:\Users\daniel\AppData\Local\Temp\ccsQEchw.s 			page 26


  36:../../DaisySP//Source/Utility/dsp.h **** #else
 537              		.loc 17 36 5 view .LVU133
 538              	.LBE425:
 539              	.LBE424:
 540              	.LBE430:
 541              	.LBE435:
 542              	.LBE448:
 543              		.loc 16 25 25 is_stmt 0 view .LVU134
 544 0094 FFF7FEFF 		bl	_ZN5daisy8patch_sm12DaisyPatchSM11GetAdcValueEi
 545              	.LVL23:
 546              	.LBB449:
 547              	.LBB450:
 548              		.loc 17 173 31 view .LVU135
 549 0098 F0EE487A 		vmov.f32	s15, s16
 550              	.LBE450:
 551              	.LBE449:
 552              	.LBB463:
 553              	.LBB464:
  66:../../libDaisy//src/daisy_patch_sm.h **** 
  67:../../libDaisy//src/daisy_patch_sm.h ****         /** Initializes the memories, and core peripherals for the Daisy Patch SM */
  68:../../libDaisy//src/daisy_patch_sm.h ****         void Init();
  69:../../libDaisy//src/daisy_patch_sm.h **** 
  70:../../libDaisy//src/daisy_patch_sm.h ****         /** Starts a non-interleaving audio callback */
  71:../../libDaisy//src/daisy_patch_sm.h ****         void StartAudio(AudioHandle::AudioCallback cb);
  72:../../libDaisy//src/daisy_patch_sm.h **** 
  73:../../libDaisy//src/daisy_patch_sm.h ****         /** Starts an interleaving audio callback */
  74:../../libDaisy//src/daisy_patch_sm.h ****         void StartAudio(AudioHandle::InterleavingAudioCallback cb);
  75:../../libDaisy//src/daisy_patch_sm.h **** 
  76:../../libDaisy//src/daisy_patch_sm.h ****         /** Changes the callback that is executing.
  77:../../libDaisy//src/daisy_patch_sm.h ****          *  This may cause clicks if done while audio is processing.
  78:../../libDaisy//src/daisy_patch_sm.h ****          */
  79:../../libDaisy//src/daisy_patch_sm.h ****         void ChangeAudioCallback(AudioHandle::AudioCallback cb);
  80:../../libDaisy//src/daisy_patch_sm.h **** 
  81:../../libDaisy//src/daisy_patch_sm.h ****         /** Changes the callback that is executing.
  82:../../libDaisy//src/daisy_patch_sm.h ****          *  This may cause clicks if done while audio is processing.
  83:../../libDaisy//src/daisy_patch_sm.h ****          */
  84:../../libDaisy//src/daisy_patch_sm.h ****         void ChangeAudioCallback(AudioHandle::InterleavingAudioCallback cb);
  85:../../libDaisy//src/daisy_patch_sm.h **** 
  86:../../libDaisy//src/daisy_patch_sm.h ****         /** Stops the transmission of audio. */
  87:../../libDaisy//src/daisy_patch_sm.h ****         void StopAudio();
  88:../../libDaisy//src/daisy_patch_sm.h **** 
  89:../../libDaisy//src/daisy_patch_sm.h ****         /** Sets the number of samples processed in an audio callback. 
  90:../../libDaisy//src/daisy_patch_sm.h ****          *  This will only take effect on the next invocation of `StartAudio`
  91:../../libDaisy//src/daisy_patch_sm.h ****          */
  92:../../libDaisy//src/daisy_patch_sm.h ****         void SetAudioBlockSize(size_t size);
  93:../../libDaisy//src/daisy_patch_sm.h **** 
  94:../../libDaisy//src/daisy_patch_sm.h ****         /** Sets the samplerate for the audio engine 
  95:../../libDaisy//src/daisy_patch_sm.h ****          *  This will set it to the closest valid samplerate. Options being:
  96:../../libDaisy//src/daisy_patch_sm.h ****          *  8kHz, 16kHz, 32kHz, 48kHz, and 96kHz
  97:../../libDaisy//src/daisy_patch_sm.h ****          */
  98:../../libDaisy//src/daisy_patch_sm.h ****         void SetAudioSampleRate(float sr);
  99:../../libDaisy//src/daisy_patch_sm.h **** 
 100:../../libDaisy//src/daisy_patch_sm.h ****         void SetAudioSampleRate(SaiHandle::Config::SampleRate sample_rate);
 101:../../libDaisy//src/daisy_patch_sm.h **** 
 102:../../libDaisy//src/daisy_patch_sm.h ****         /** Returns the number of samples processed in an audio callback */
 103:../../libDaisy//src/daisy_patch_sm.h ****         size_t AudioBlockSize();
 104:../../libDaisy//src/daisy_patch_sm.h **** 
ARM GAS  C:\Users\daniel\AppData\Local\Temp\ccsQEchw.s 			page 27


 105:../../libDaisy//src/daisy_patch_sm.h ****         /** Returns the audio engine's samplerate in Hz */
 106:../../libDaisy//src/daisy_patch_sm.h ****         float AudioSampleRate();
 107:../../libDaisy//src/daisy_patch_sm.h **** 
 108:../../libDaisy//src/daisy_patch_sm.h ****         /** Returns the rate at which the audio callback will be called in Hz */
 109:../../libDaisy//src/daisy_patch_sm.h ****         float AudioCallbackRate();
 110:../../libDaisy//src/daisy_patch_sm.h **** 
 111:../../libDaisy//src/daisy_patch_sm.h ****         /** Starts the Control ADCs 
 112:../../libDaisy//src/daisy_patch_sm.h ****          * 
 113:../../libDaisy//src/daisy_patch_sm.h ****          *  This is started automatically when Init() is called.
 114:../../libDaisy//src/daisy_patch_sm.h ****          */
 115:../../libDaisy//src/daisy_patch_sm.h ****         void StartAdc();
 116:../../libDaisy//src/daisy_patch_sm.h **** 
 117:../../libDaisy//src/daisy_patch_sm.h ****         /** Stops the Control ADCs */
 118:../../libDaisy//src/daisy_patch_sm.h ****         void StopAdc();
 119:../../libDaisy//src/daisy_patch_sm.h **** 
 120:../../libDaisy//src/daisy_patch_sm.h ****         /** Reads and filters all of the analog control inputs */
 121:../../libDaisy//src/daisy_patch_sm.h ****         void ProcessAnalogControls();
 122:../../libDaisy//src/daisy_patch_sm.h **** 
 123:../../libDaisy//src/daisy_patch_sm.h ****         /** Reads and debounces any of the digital control inputs 
 124:../../libDaisy//src/daisy_patch_sm.h ****          *  This does nothing on this board at this time.
 125:../../libDaisy//src/daisy_patch_sm.h ****          */
 126:../../libDaisy//src/daisy_patch_sm.h ****         void ProcessDigitalControls();
 127:../../libDaisy//src/daisy_patch_sm.h **** 
 128:../../libDaisy//src/daisy_patch_sm.h ****         /** Does both of the above */
 129:../../libDaisy//src/daisy_patch_sm.h ****         void ProcessAllControls()
 130:../../libDaisy//src/daisy_patch_sm.h ****         {
 131:../../libDaisy//src/daisy_patch_sm.h ****             ProcessAnalogControls();
 554              		.loc 1 131 34 view .LVU136
 555 009c 2948     		ldr	r0, .L16+4
 556              	.LBE464:
 557              	.LBE463:
 558              	.LBB467:
 559              	.LBB436:
 560              	.LBB431:
 561              	.LBB427:
 562              	.LBB426:
  36:../../DaisySP//Source/Utility/dsp.h **** #else
 563              		.loc 17 36 5 view .LVU137
 564              		.syntax unified
 565              	@ 36 "../../DaisySP//Source/Utility/dsp.h" 1
 566 009e 89FE089A 		vmaxnm.f32 s18, s18, s16
 567              	@ 0 "" 2
 568              	.LVL24:
  40:../../DaisySP//Source/Utility/dsp.h **** }
 569              		.loc 17 40 5 is_stmt 1 view .LVU138
  40:../../DaisySP//Source/Utility/dsp.h **** }
 570              		.loc 17 40 5 is_stmt 0 view .LVU139
 571              		.thumb
 572              		.syntax unified
 573              	.LBE426:
 574              	.LBE427:
 575              	.LBB428:
 576              	.LBI428:
  43:../../DaisySP//Source/Utility/dsp.h **** {
 577              		.loc 17 43 14 is_stmt 1 view .LVU140
 578              	.LBB429:
  45:../../DaisySP//Source/Utility/dsp.h **** #ifdef __arm__
ARM GAS  C:\Users\daniel\AppData\Local\Temp\ccsQEchw.s 			page 28


 579              		.loc 17 45 5 view .LVU141
  47:../../DaisySP//Source/Utility/dsp.h **** #else
 580              		.loc 17 47 5 view .LVU142
 581              		.syntax unified
 582              	@ 47 "../../DaisySP//Source/Utility/dsp.h" 1
 583 00a2 89FE689A 		vminnm.f32 s18, s18, s17
 584              	@ 0 "" 2
 585              	.LVL25:
  51:../../DaisySP//Source/Utility/dsp.h **** }
 586              		.loc 17 51 5 view .LVU143
  51:../../DaisySP//Source/Utility/dsp.h **** }
 587              		.loc 17 51 5 is_stmt 0 view .LVU144
 588              		.thumb
 589              		.syntax unified
 590              	.LBE429:
 591              	.LBE428:
 592              	.LBE431:
 593              	.LBE436:
 594              	.LBE467:
 595              		.loc 16 25 2 is_stmt 1 view .LVU145
 596              	.LBB468:
 597              	.LBI449:
 161:../../DaisySP//Source/Utility/dsp.h **** {
 598              		.loc 17 161 1 view .LVU146
 599              	.LBE468:
 163:../../DaisySP//Source/Utility/dsp.h ****     {
 600              		.loc 17 163 5 view .LVU147
 601              	.LBB469:
 602              	.LBB460:
 172:../../DaisySP//Source/Utility/dsp.h ****         default: return fclamp(min + in * (max - min), min, max);
 603              		.loc 17 172 9 view .LVU148
 604              		.loc 17 173 9 view .LVU149
 605              		.loc 17 173 18 view .LVU150
 606              		.loc 17 173 31 is_stmt 0 view .LVU151
 607 00a6 E0EE287A 		vfma.f32	s15, s0, s17
 608              	.LVL26:
 609              	.LBB451:
 610              	.LBI451:
  56:../../DaisySP//Source/Utility/dsp.h **** {
 611              		.loc 17 56 14 is_stmt 1 view .LVU152
 612              	.LBE451:
 613              	.LBE460:
 614              	.LBE469:
  58:../../DaisySP//Source/Utility/dsp.h **** }
 615              		.loc 17 58 5 view .LVU153
 616              	.LBB470:
 617              	.LBB461:
 618              	.LBB458:
 619              	.LBB452:
 620              	.LBI452:
  32:../../DaisySP//Source/Utility/dsp.h **** {
 621              		.loc 17 32 14 view .LVU154
 622              	.LBB453:
  34:../../DaisySP//Source/Utility/dsp.h **** #ifdef __arm__
 623              		.loc 17 34 5 view .LVU155
  36:../../DaisySP//Source/Utility/dsp.h **** #else
 624              		.loc 17 36 5 view .LVU156
ARM GAS  C:\Users\daniel\AppData\Local\Temp\ccsQEchw.s 			page 29


 625              		.syntax unified
 626              	@ 36 "../../DaisySP//Source/Utility/dsp.h" 1
 627 00aa 87FE888A 		vmaxnm.f32 s16, s15, s16
 628              	@ 0 "" 2
 629              	.LVL27:
  40:../../DaisySP//Source/Utility/dsp.h **** }
 630              		.loc 17 40 5 view .LVU157
  40:../../DaisySP//Source/Utility/dsp.h **** }
 631              		.loc 17 40 5 is_stmt 0 view .LVU158
 632              		.thumb
 633              		.syntax unified
 634              	.LBE453:
 635              	.LBE452:
 636              	.LBB454:
 637              	.LBI454:
  43:../../DaisySP//Source/Utility/dsp.h **** {
 638              		.loc 17 43 14 is_stmt 1 view .LVU159
 639              	.LBB455:
  45:../../DaisySP//Source/Utility/dsp.h **** #ifdef __arm__
 640              		.loc 17 45 5 view .LVU160
  47:../../DaisySP//Source/Utility/dsp.h **** #else
 641              		.loc 17 47 5 view .LVU161
 642              	.LBE455:
 643              	.LBE454:
 644              	.LBE458:
 645              	.LBE461:
 646              	.LBE470:
 647              	.LBB471:
 648              	.LBB465:
 649              		.loc 1 131 34 is_stmt 0 view .LVU162
 650 00ae FFF7FEFF 		bl	_ZN5daisy8patch_sm12DaisyPatchSM21ProcessAnalogControlsEv
 651              	.LVL28:
 132:../../libDaisy//src/daisy_patch_sm.h ****             ProcessDigitalControls();
 652              		.loc 1 132 35 view .LVU163
 653 00b2 2448     		ldr	r0, .L16+4
 654              	.LBE465:
 655              	.LBE471:
 656              	.LBB472:
 657              	.LBB462:
 658              	.LBB459:
 659              	.LBB457:
 660              	.LBB456:
  47:../../DaisySP//Source/Utility/dsp.h **** #else
 661              		.loc 17 47 5 view .LVU164
 662              		.syntax unified
 663              	@ 47 "../../DaisySP//Source/Utility/dsp.h" 1
 664 00b4 C8FE688A 		vminnm.f32 s17, s16, s17
 665              	@ 0 "" 2
 666              	.LVL29:
  51:../../DaisySP//Source/Utility/dsp.h **** }
 667              		.loc 17 51 5 is_stmt 1 view .LVU165
  51:../../DaisySP//Source/Utility/dsp.h **** }
 668              		.loc 17 51 5 is_stmt 0 view .LVU166
 669              		.thumb
 670              		.syntax unified
 671              	.LBE456:
 672              	.LBE457:
ARM GAS  C:\Users\daniel\AppData\Local\Temp\ccsQEchw.s 			page 30


 673              	.LBE459:
 674              	.LBE462:
 675              	.LBE472:
  26:mikronima.cpp **** 
  27:mikronima.cpp **** 
  28:mikronima.cpp **** 	hw.ProcessAllControls();
 676              		.loc 16 28 2 is_stmt 1 view .LVU167
 677              	.LBB473:
 678              	.LBI463:
 129:../../libDaisy//src/daisy_patch_sm.h ****         {
 679              		.loc 1 129 14 view .LVU168
 680              	.LBB466:
 131:../../libDaisy//src/daisy_patch_sm.h ****             ProcessDigitalControls();
 681              		.loc 1 131 13 view .LVU169
 682              		.loc 1 132 13 view .LVU170
 683              		.loc 1 132 35 is_stmt 0 view .LVU171
 684 00b8 FFF7FEFF 		bl	_ZN5daisy8patch_sm12DaisyPatchSM22ProcessDigitalControlsEv
 685              	.LVL30:
 686              		.loc 1 132 35 view .LVU172
 687              	.LBE466:
 688              	.LBE473:
  29:mikronima.cpp ****     for(size_t i = 0; i < size; i++)
 689              		.loc 16 29 5 is_stmt 1 view .LVU173
 690              	.LBB474:
 691              		.loc 16 29 25 view .LVU174
 692 00bc 002F     		cmp	r7, #0
 693 00be 3BD0     		beq	.L4
 694              		.loc 16 29 16 is_stmt 0 view .LVU175
 695 00c0 0024     		movs	r4, #0
 696 00c2 21E0     		b	.L7
 697              	.LVL31:
 698              	.L6:
 699              	.LBB475:
  30:mikronima.cpp ****     {
  31:mikronima.cpp ****         bool t = hw.gate_in_1.Trig();
  32:mikronima.cpp ****         if(t)
  33:mikronima.cpp ****         {
  34:mikronima.cpp ****             str.SetFreq(freq);
  35:mikronima.cpp **** 			str.SetDamping(damp);
  36:mikronima.cpp ****             str.SetBrightness(brightness);
  37:mikronima.cpp ****         }
  38:mikronima.cpp **** 
  39:mikronima.cpp **** 		float sig = hw.GetAdcValue(CV_6);
 700              		.loc 16 39 3 is_stmt 1 discriminator 2 view .LVU176
 701              		.loc 16 39 29 is_stmt 0 discriminator 2 view .LVU177
 702 00c4 0521     		movs	r1, #5
 703 00c6 1F48     		ldr	r0, .L16+4
 704 00c8 FFF7FEFF 		bl	_ZN5daisy8patch_sm12DaisyPatchSM11GetAdcValueEi
 705              	.LVL32:
  40:mikronima.cpp ****         str.SetStructure(sig);
 706              		.loc 16 40 25 discriminator 2 view .LVU178
 707 00cc 2548     		ldr	r0, .L16+36
  39:mikronima.cpp ****         str.SetStructure(sig);
 708              		.loc 16 39 29 discriminator 2 view .LVU179
 709 00ce B0EE408A 		vmov.f32	s16, s0
 710              	.LVL33:
 711              		.loc 16 40 9 is_stmt 1 discriminator 2 view .LVU180
ARM GAS  C:\Users\daniel\AppData\Local\Temp\ccsQEchw.s 			page 31


 712              		.loc 16 40 25 is_stmt 0 discriminator 2 view .LVU181
 713 00d2 FFF7FEFF 		bl	_ZN7daisysp11StringVoice12SetStructureEf
 714              	.LVL34:
  41:mikronima.cpp ****         str.SetBrightness(.1f + sig * .2f);
 715              		.loc 16 41 9 is_stmt 1 discriminator 2 view .LVU182
 716              		.loc 16 41 26 is_stmt 0 discriminator 2 view .LVU183
 717 00d6 DFED247A 		vldr.32	s15, .L16+40
 718 00da 9FED240A 		vldr.32	s0, .L16+44
 719 00de 2148     		ldr	r0, .L16+36
 720 00e0 A8EE270A 		vfma.f32	s0, s16, s15
 721 00e4 FFF7FEFF 		bl	_ZN7daisysp11StringVoice13SetBrightnessEf
 722              	.LVL35:
  42:mikronima.cpp **** 
  43:mikronima.cpp ****         out[0][i] = out[1][i] = str.Process(t);
 723              		.loc 16 43 9 is_stmt 1 discriminator 2 view .LVU184
 724              		.loc 16 43 29 is_stmt 0 discriminator 2 view .LVU185
 725 00e8 7368     		ldr	r3, [r6, #4]
 726              		.loc 16 43 44 discriminator 2 view .LVU186
 727 00ea 2946     		mov	r1, r5
 728 00ec 1D48     		ldr	r0, .L16+36
 729              		.loc 16 43 29 discriminator 2 view .LVU187
 730 00ee 03EB8405 		add	r5, r3, r4, lsl #2
 731              	.LBE475:
  29:mikronima.cpp ****     {
 732              		.loc 16 29 5 discriminator 2 view .LVU188
 733 00f2 0134     		adds	r4, r4, #1
 734              	.LVL36:
 735              	.LBB476:
 736              		.loc 16 43 44 discriminator 2 view .LVU189
 737 00f4 FFF7FEFF 		bl	_ZN7daisysp11StringVoice7ProcessEb
 738              	.LVL37:
 739              		.loc 16 43 19 discriminator 2 view .LVU190
 740 00f8 3368     		ldr	r3, [r6]
 741              	.LBE476:
  29:mikronima.cpp ****     {
 742              		.loc 16 29 25 discriminator 2 view .LVU191
 743 00fa A742     		cmp	r7, r4
 744              	.LBB477:
 745              		.loc 16 43 31 discriminator 2 view .LVU192
 746 00fc 85ED000A 		vstr.32	s0, [r5]
 747              		.loc 16 43 19 discriminator 2 view .LVU193
 748 0100 4344     		add	r3, r3, r8
 749 0102 83ED000A 		vstr.32	s0, [r3]
 750              	.LBE477:
  29:mikronima.cpp ****     {
 751              		.loc 16 29 5 is_stmt 1 discriminator 2 view .LVU194
 752              	.LVL38:
  29:mikronima.cpp ****     {
 753              		.loc 16 29 25 discriminator 2 view .LVU195
 754 0106 17D0     		beq	.L4
 755              	.LVL39:
 756              	.L7:
 757              	.LBB478:
  31:mikronima.cpp ****         if(t)
 758              		.loc 16 31 9 view .LVU196
  31:mikronima.cpp ****         if(t)
 759              		.loc 16 31 35 is_stmt 0 view .LVU197
ARM GAS  C:\Users\daniel\AppData\Local\Temp\ccsQEchw.s 			page 32


 760 0108 1948     		ldr	r0, .L16+48
 761 010a 4FEA8408 		lsl	r8, r4, #2
 762 010e FFF7FEFF 		bl	_ZN5daisy6GateIn4TrigEv
 763              	.LVL40:
  32:mikronima.cpp ****         {
 764              		.loc 16 32 9 is_stmt 1 view .LVU198
 765 0112 0546     		mov	r5, r0
 766 0114 0028     		cmp	r0, #0
 767 0116 D5D0     		beq	.L6
  34:mikronima.cpp **** 			str.SetDamping(damp);
 768              		.loc 16 34 13 view .LVU199
  34:mikronima.cpp **** 			str.SetDamping(damp);
 769              		.loc 16 34 24 is_stmt 0 view .LVU200
 770 0118 B0EE690A 		vmov.f32	s0, s19
 771 011c 1148     		ldr	r0, .L16+36
 772              	.LVL41:
  34:mikronima.cpp **** 			str.SetDamping(damp);
 773              		.loc 16 34 24 view .LVU201
 774 011e FFF7FEFF 		bl	_ZN7daisysp11StringVoice7SetFreqEf
 775              	.LVL42:
  35:mikronima.cpp ****             str.SetBrightness(brightness);
 776              		.loc 16 35 4 is_stmt 1 view .LVU202
  35:mikronima.cpp ****             str.SetBrightness(brightness);
 777              		.loc 16 35 18 is_stmt 0 view .LVU203
 778 0122 B0EE490A 		vmov.f32	s0, s18
 779 0126 0F48     		ldr	r0, .L16+36
 780 0128 FFF7FEFF 		bl	_ZN7daisysp11StringVoice10SetDampingEf
 781              	.LVL43:
  36:mikronima.cpp ****         }
 782              		.loc 16 36 13 is_stmt 1 view .LVU204
  36:mikronima.cpp ****         }
 783              		.loc 16 36 30 is_stmt 0 view .LVU205
 784 012c B0EE680A 		vmov.f32	s0, s17
 785 0130 0C48     		ldr	r0, .L16+36
 786 0132 FFF7FEFF 		bl	_ZN7daisysp11StringVoice13SetBrightnessEf
 787              	.LVL44:
 788 0136 C5E7     		b	.L6
 789              	.LVL45:
 790              	.L4:
  36:mikronima.cpp ****         }
 791              		.loc 16 36 30 view .LVU206
 792              	.LBE478:
 793              	.LBE474:
  44:mikronima.cpp ****     }
  45:mikronima.cpp **** }
 794              		.loc 16 45 1 view .LVU207
 795 0138 BDEC048B 		vldm	sp!, {d8-d9}
 796              		.cfi_restore 82
 797              		.cfi_restore 83
 798              		.cfi_restore 80
 799              		.cfi_restore 81
 800              		.cfi_def_cfa_offset 24
 801              	.LVL46:
 802              		.loc 16 45 1 view .LVU208
 803 013c BDE8F081 		pop	{r4, r5, r6, r7, r8, pc}
 804              	.LVL47:
 805              	.L17:
ARM GAS  C:\Users\daniel\AppData\Local\Temp\ccsQEchw.s 			page 33


 806              		.loc 16 45 1 view .LVU209
 807              		.align	2
 808              	.L16:
 809 0140 00001042 		.word	1108344832
 810 0144 00000000 		.word	.LANCHOR0
 811 0148 00000000 		.word	0
 812 014c 00007042 		.word	1114636288
 813 0150 0000C042 		.word	1119879168
 814 0154 00008A42 		.word	1116340224
 815 0158 0000FE42 		.word	1123942400
 816 015c A4707D3F 		.word	1065185444
 817 0160 0000DC43 		.word	1138491392
 818 0164 00000000 		.word	str
 819 0168 CDCC4C3E 		.word	1045220557
 820 016c CDCCCC3D 		.word	1036831949
 821 0170 B0010000 		.word	.LANCHOR0+432
 822              		.cfi_endproc
 823              	.LFE4783:
 825              		.section	.text.startup.main,"ax",%progbits
 826              		.align	1
 827              		.p2align 2,,3
 828              		.global	main
 829              		.syntax unified
 830              		.thumb
 831              		.thumb_func
 832              		.fpu fpv5-d16
 834              	main:
 835              	.LFB4784:
  46:mikronima.cpp **** 
  47:mikronima.cpp **** int main(void)
  48:mikronima.cpp **** {
 836              		.loc 16 48 1 is_stmt 1 view -0
 837              		.cfi_startproc
 838              		@ args = 0, pretend = 0, frame = 0
 839              		@ frame_needed = 0, uses_anonymous_args = 0
  49:mikronima.cpp **** 	hw.Init();
 840              		.loc 16 49 2 view .LVU211
  48:mikronima.cpp **** 	hw.Init();
 841              		.loc 16 48 1 is_stmt 0 view .LVU212
 842 0000 08B5     		push	{r3, lr}
 843              		.cfi_def_cfa_offset 8
 844              		.cfi_offset 3, -8
 845              		.cfi_offset 14, -4
 846              		.loc 16 49 9 view .LVU213
 847 0002 0D48     		ldr	r0, .L21
 848 0004 FFF7FEFF 		bl	_ZN5daisy8patch_sm12DaisyPatchSM4InitEv
 849              	.LVL48:
  50:mikronima.cpp **** 	hw.SetAudioBlockSize(4); // number of samples handled per callback
 850              		.loc 16 50 2 is_stmt 1 view .LVU214
 851              		.loc 16 50 22 is_stmt 0 view .LVU215
 852 0008 0421     		movs	r1, #4
 853 000a 0B48     		ldr	r0, .L21
 854 000c FFF7FEFF 		bl	_ZN5daisy8patch_sm12DaisyPatchSM17SetAudioBlockSizeEj
 855              	.LVL49:
  51:mikronima.cpp **** 	hw.SetAudioSampleRate(SaiHandle::Config::SampleRate::SAI_48KHZ);
 856              		.loc 16 51 2 is_stmt 1 view .LVU216
 857              		.loc 16 51 23 is_stmt 0 view .LVU217
ARM GAS  C:\Users\daniel\AppData\Local\Temp\ccsQEchw.s 			page 34


 858 0010 0321     		movs	r1, #3
 859 0012 0948     		ldr	r0, .L21
 860 0014 FFF7FEFF 		bl	_ZN5daisy8patch_sm12DaisyPatchSM18SetAudioSampleRateENS_9SaiHandle6Config10SampleRateE
 861              	.LVL50:
  52:mikronima.cpp **** 	hw.StartAudio(AudioCallback);
 862              		.loc 16 52 2 is_stmt 1 view .LVU218
 863              		.loc 16 52 15 is_stmt 0 view .LVU219
 864 0018 0849     		ldr	r1, .L21+4
 865 001a 0748     		ldr	r0, .L21
 866 001c FFF7FEFF 		bl	_ZN5daisy8patch_sm12DaisyPatchSM10StartAudioEPFvPKPKfPPfjE
 867              	.LVL51:
  53:mikronima.cpp **** 
  54:mikronima.cpp **** 	float sample_rate = hw.AudioSampleRate();
 868              		.loc 16 54 2 is_stmt 1 view .LVU220
 869              		.loc 16 54 40 is_stmt 0 view .LVU221
 870 0020 0548     		ldr	r0, .L21
 871 0022 FFF7FEFF 		bl	_ZN5daisy8patch_sm12DaisyPatchSM15AudioSampleRateEv
 872              	.LVL52:
  55:mikronima.cpp **** 	str.Init(sample_rate);
 873              		.loc 16 55 2 is_stmt 1 view .LVU222
 874              		.loc 16 55 10 is_stmt 0 view .LVU223
 875 0026 0648     		ldr	r0, .L21+8
 876 0028 FFF7FEFF 		bl	_ZN7daisysp11StringVoice4InitEf
 877              	.LVL53:
  56:mikronima.cpp ****     str.SetAccent(1.f);
 878              		.loc 16 56 5 is_stmt 1 view .LVU224
 879              		.loc 16 56 18 is_stmt 0 view .LVU225
 880 002c B7EE000A 		vmov.f32	s0, #1.0e+0
 881 0030 0348     		ldr	r0, .L21+8
 882 0032 FFF7FEFF 		bl	_ZN7daisysp11StringVoice9SetAccentEf
 883              	.LVL54:
 884              	.L19:
  57:mikronima.cpp **** 	
  58:mikronima.cpp **** 	while(1) {}
 885              		.loc 16 58 2 is_stmt 1 discriminator 1 view .LVU226
 886              		.loc 16 58 2 discriminator 1 view .LVU227
 887              		.loc 16 58 2 discriminator 1 view .LVU228
 888              		.loc 16 58 2 discriminator 1 view .LVU229
 889 0036 FEE7     		b	.L19
 890              	.L22:
 891              		.align	2
 892              	.L21:
 893 0038 00000000 		.word	.LANCHOR0
 894 003c 00000000 		.word	_Z13AudioCallbackPKPKfPPfj
 895 0040 00000000 		.word	str
 896              		.cfi_endproc
 897              	.LFE4784:
 899              		.section	.text.startup._GLOBAL__sub_I_hw,"ax",%progbits
 900              		.align	1
 901              		.p2align 2,,3
 902              		.syntax unified
 903              		.thumb
 904              		.thumb_func
 905              		.fpu fpv5-d16
 907              	_GLOBAL__sub_I_hw:
 908              	.LFB5344:
  59:mikronima.cpp **** }
ARM GAS  C:\Users\daniel\AppData\Local\Temp\ccsQEchw.s 			page 35


 909              		.loc 16 59 1 view -0
 910              		.cfi_startproc
 911              		@ args = 0, pretend = 0, frame = 0
 912              		@ frame_needed = 0, uses_anonymous_args = 0
 913              	.LBB525:
 914              	.LBI525:
 915              		.loc 16 59 1 view .LVU231
 916              	.LVL55:
 917              	.LBB526:
 918              	.LBB527:
 919              	.LBI527:
  64:../../libDaisy//src/daisy_patch_sm.h ****         ~DaisyPatchSM() {}
 920              		.loc 1 64 9 view .LVU232
 921              	.LBB528:
 922              	.LBB529:
 923              	.LBI529:
  77:../../libDaisy//src/sys/system.h ****     ~System() {}
 924              		.loc 7 77 5 view .LVU233
  77:../../libDaisy//src/sys/system.h ****     ~System() {}
 925              		.loc 7 77 5 is_stmt 0 view .LVU234
 926              	.LBE529:
 927              	.LBB530:
 928              	.LBI530:
 929              		.file 18 "../../libDaisy//src/per/qspi.h"
   1:../../libDaisy//src/per/qspi.h **** #ifndef DSY_QSPI
   2:../../libDaisy//src/per/qspi.h **** #define DSY_QSPI /**< Macro */
   3:../../libDaisy//src/per/qspi.h **** 
   4:../../libDaisy//src/per/qspi.h **** #ifndef UNIT_TEST // for unit tests, a dummy implementation
   5:../../libDaisy//src/per/qspi.h **** 
   6:../../libDaisy//src/per/qspi.h **** #include <cstdint>
   7:../../libDaisy//src/per/qspi.h **** #include "daisy_core.h" // Added for dsy_gpio_pin typedef
   8:../../libDaisy//src/per/qspi.h **** 
   9:../../libDaisy//src/per/qspi.h **** #define DSY_QSPI_TEXT       \
  10:../../libDaisy//src/per/qspi.h ****     __attribute__((section( \
  11:../../libDaisy//src/per/qspi.h ****         ".qspiflash_text"))) /**< used for reading memory in memory_mapped mode. */
  12:../../libDaisy//src/per/qspi.h **** #define DSY_QSPI_DATA       \
  13:../../libDaisy//src/per/qspi.h ****     __attribute__((section( \
  14:../../libDaisy//src/per/qspi.h ****         ".qspiflash_data"))) /**< used for reading memory in memory_mapped mode. */
  15:../../libDaisy//src/per/qspi.h **** #define DSY_QSPI_BSS        \
  16:../../libDaisy//src/per/qspi.h ****     __attribute__((section( \
  17:../../libDaisy//src/per/qspi.h ****         ".qspiflash_bss"))) /**< used for reading memory in memory_mapped mode. */
  18:../../libDaisy//src/per/qspi.h **** 
  19:../../libDaisy//src/per/qspi.h **** namespace daisy
  20:../../libDaisy//src/per/qspi.h **** {
  21:../../libDaisy//src/per/qspi.h **** /** @addtogroup serial
  22:../../libDaisy//src/per/qspi.h **** @{
  23:../../libDaisy//src/per/qspi.h **** */
  24:../../libDaisy//src/per/qspi.h **** 
  25:../../libDaisy//src/per/qspi.h **** /** 
  26:../../libDaisy//src/per/qspi.h ****  Driver for QSPI peripheral to interface with external flash memory. \n 
  27:../../libDaisy//src/per/qspi.h ****     Currently supported QSPI Devices: \n 
  28:../../libDaisy//src/per/qspi.h ****     * IS25LP080D
  29:../../libDaisy//src/per/qspi.h **** */
  30:../../libDaisy//src/per/qspi.h **** class QSPIHandle
  31:../../libDaisy//src/per/qspi.h **** {
  32:../../libDaisy//src/per/qspi.h ****   public:
  33:../../libDaisy//src/per/qspi.h ****     enum Result
ARM GAS  C:\Users\daniel\AppData\Local\Temp\ccsQEchw.s 			page 36


  34:../../libDaisy//src/per/qspi.h ****     {
  35:../../libDaisy//src/per/qspi.h ****         OK = 0,
  36:../../libDaisy//src/per/qspi.h ****         ERR
  37:../../libDaisy//src/per/qspi.h ****     };
  38:../../libDaisy//src/per/qspi.h **** 
  39:../../libDaisy//src/per/qspi.h ****     /** Indicates the current status of the module. 
  40:../../libDaisy//src/per/qspi.h ****          *  Warnings are indicated by a leading W.
  41:../../libDaisy//src/per/qspi.h ****          *  Errors are indicated by a leading E and cause an immediate exit.
  42:../../libDaisy//src/per/qspi.h ****          * 
  43:../../libDaisy//src/per/qspi.h ****          *  \param GOOD - No errors have been reported.
  44:../../libDaisy//src/per/qspi.h ****          *  \param E_HAL_ERROR - HAL code did not return HAL_OK.
  45:../../libDaisy//src/per/qspi.h ****          *  \param E_SWITCHING_MODES - An error was encountered while switching QSPI peripheral mod
  46:../../libDaisy//src/per/qspi.h ****          *  \param E_INVALID_MODE - QSPI should not be written to while the program is executing fr
  47:../../libDaisy//src/per/qspi.h ****          */
  48:../../libDaisy//src/per/qspi.h ****     enum Status
  49:../../libDaisy//src/per/qspi.h ****     {
  50:../../libDaisy//src/per/qspi.h ****         GOOD = 0,
  51:../../libDaisy//src/per/qspi.h ****         E_HAL_ERROR,
  52:../../libDaisy//src/per/qspi.h ****         E_SWITCHING_MODES,
  53:../../libDaisy//src/per/qspi.h ****         E_INVALID_MODE,
  54:../../libDaisy//src/per/qspi.h ****     };
  55:../../libDaisy//src/per/qspi.h **** 
  56:../../libDaisy//src/per/qspi.h ****     /** Configuration structure for interfacing with QSPI Driver */
  57:../../libDaisy//src/per/qspi.h ****     struct Config
  58:../../libDaisy//src/per/qspi.h ****     {
  59:../../libDaisy//src/per/qspi.h ****         /** Flash Devices supported. (Both of these are more-or-less the same, just different sizes
  60:../../libDaisy//src/per/qspi.h ****         enum Device
  61:../../libDaisy//src/per/qspi.h ****         {
  62:../../libDaisy//src/per/qspi.h ****             IS25LP080D,  /**< & */
  63:../../libDaisy//src/per/qspi.h ****             IS25LP064A,  /**< & */
  64:../../libDaisy//src/per/qspi.h ****             DEVICE_LAST, /**< & */
  65:../../libDaisy//src/per/qspi.h ****         };
  66:../../libDaisy//src/per/qspi.h **** 
  67:../../libDaisy//src/per/qspi.h ****         /** 
  68:../../libDaisy//src/per/qspi.h ****         Modes of operation.
  69:../../libDaisy//src/per/qspi.h ****         Memory Mapped mode: QSPI configured so that the QSPI can be
  70:../../libDaisy//src/per/qspi.h ****         read from starting address 0x90000000. Writing is not
  71:../../libDaisy//src/per/qspi.h ****         possible in this mode. \n 
  72:../../libDaisy//src/per/qspi.h ****         Indirect Polling mode: Device driver enabled. 
  73:../../libDaisy//src/per/qspi.h ****         */
  74:../../libDaisy//src/per/qspi.h ****         enum Mode
  75:../../libDaisy//src/per/qspi.h ****         {
  76:../../libDaisy//src/per/qspi.h ****             MEMORY_MAPPED,    /**< & */
  77:../../libDaisy//src/per/qspi.h ****             INDIRECT_POLLING, /**< & */
  78:../../libDaisy//src/per/qspi.h ****             MODE_LAST,
  79:../../libDaisy//src/per/qspi.h ****         };
  80:../../libDaisy//src/per/qspi.h **** 
  81:../../libDaisy//src/per/qspi.h ****         //SCK,  CE# (active low)
  82:../../libDaisy//src/per/qspi.h ****         struct
  83:../../libDaisy//src/per/qspi.h ****         {
  84:../../libDaisy//src/per/qspi.h ****             dsy_gpio_pin io0; /**< & */
  85:../../libDaisy//src/per/qspi.h ****             dsy_gpio_pin io1; /**< & */
  86:../../libDaisy//src/per/qspi.h ****             dsy_gpio_pin io2; /**< & */
  87:../../libDaisy//src/per/qspi.h ****             dsy_gpio_pin io3; /**< & */
  88:../../libDaisy//src/per/qspi.h ****             dsy_gpio_pin clk; /**< & */
  89:../../libDaisy//src/per/qspi.h ****             dsy_gpio_pin ncs; /**< & */
  90:../../libDaisy//src/per/qspi.h ****         } pin_config;
ARM GAS  C:\Users\daniel\AppData\Local\Temp\ccsQEchw.s 			page 37


  91:../../libDaisy//src/per/qspi.h **** 
  92:../../libDaisy//src/per/qspi.h ****         Device device;
  93:../../libDaisy//src/per/qspi.h ****         Mode   mode;
  94:../../libDaisy//src/per/qspi.h ****     };
  95:../../libDaisy//src/per/qspi.h **** 
  96:../../libDaisy//src/per/qspi.h ****     /** 
  97:../../libDaisy//src/per/qspi.h ****         Initializes QSPI peripheral, and Resets, and prepares memory for access.
  98:../../libDaisy//src/per/qspi.h ****         \param config should be populated with the mode, device and pin_config before calling this 
  99:../../libDaisy//src/per/qspi.h ****         \return Result::OK or Result::ERR
 100:../../libDaisy//src/per/qspi.h ****         */
 101:../../libDaisy//src/per/qspi.h ****     Result Init(const Config& config);
 102:../../libDaisy//src/per/qspi.h **** 
 103:../../libDaisy//src/per/qspi.h ****     /** Returns the current config. */
 104:../../libDaisy//src/per/qspi.h ****     const Config& GetConfig() const;
 105:../../libDaisy//src/per/qspi.h **** 
 106:../../libDaisy//src/per/qspi.h ****     // Couldn't this just be called before anything else in init? That
 107:../../libDaisy//src/per/qspi.h ****     // would make manually calling it unnecessary.
 108:../../libDaisy//src/per/qspi.h ****     /** 
 109:../../libDaisy//src/per/qspi.h ****         Deinitializes the peripheral
 110:../../libDaisy//src/per/qspi.h ****         This should be called before reinitializing QSPI in a different mode.
 111:../../libDaisy//src/per/qspi.h ****         \return Result::OK or Result::ERR
 112:../../libDaisy//src/per/qspi.h ****         */
 113:../../libDaisy//src/per/qspi.h ****     Result DeInit();
 114:../../libDaisy//src/per/qspi.h **** 
 115:../../libDaisy//src/per/qspi.h ****     /** 
 116:../../libDaisy//src/per/qspi.h ****         Writes a single page to to the specified address on the QSPI chip.
 117:../../libDaisy//src/per/qspi.h ****         For IS25LP*, page size is 256 bytes.
 118:../../libDaisy//src/per/qspi.h ****         \param address Address to write to
 119:../../libDaisy//src/per/qspi.h ****         \param size Buffer size
 120:../../libDaisy//src/per/qspi.h ****         \param buffer Buffer to write
 121:../../libDaisy//src/per/qspi.h ****         \return Result::OK or Result::ERR
 122:../../libDaisy//src/per/qspi.h ****         */
 123:../../libDaisy//src/per/qspi.h ****     Result WritePage(uint32_t address, uint32_t size, uint8_t* buffer);
 124:../../libDaisy//src/per/qspi.h **** 
 125:../../libDaisy//src/per/qspi.h ****     /** 
 126:../../libDaisy//src/per/qspi.h ****         Writes data in buffer to to the QSPI. Starting at address to address+size 
 127:../../libDaisy//src/per/qspi.h ****         \param address Address to write to
 128:../../libDaisy//src/per/qspi.h ****         \param size Buffer size
 129:../../libDaisy//src/per/qspi.h ****         \param buffer Buffer to write
 130:../../libDaisy//src/per/qspi.h ****         \return Result::OK or Result::ERR
 131:../../libDaisy//src/per/qspi.h ****         */
 132:../../libDaisy//src/per/qspi.h ****     Result Write(uint32_t address, uint32_t size, uint8_t* buffer);
 133:../../libDaisy//src/per/qspi.h **** 
 134:../../libDaisy//src/per/qspi.h ****     /** 
 135:../../libDaisy//src/per/qspi.h ****         Erases the area specified on the chip.
 136:../../libDaisy//src/per/qspi.h ****         Erasures will happen by 4K, 32K or 64K increments.
 137:../../libDaisy//src/per/qspi.h ****         Smallest erase possible is 4kB at a time. (on IS25LP*)
 138:../../libDaisy//src/per/qspi.h ****         \param start_addr Address to begin erasing from
 139:../../libDaisy//src/per/qspi.h ****         \param end_addr  Address to stop erasing at
 140:../../libDaisy//src/per/qspi.h ****         \return Result::OK or Result::ERR
 141:../../libDaisy//src/per/qspi.h ****         */
 142:../../libDaisy//src/per/qspi.h ****     Result Erase(uint32_t start_addr, uint32_t end_addr);
 143:../../libDaisy//src/per/qspi.h **** 
 144:../../libDaisy//src/per/qspi.h ****     /**  
 145:../../libDaisy//src/per/qspi.h ****          Erases a single sector of the chip.  
 146:../../libDaisy//src/per/qspi.h ****         TODO: Document the size of this function. 
 147:../../libDaisy//src/per/qspi.h ****         \param address Address of sector to erase
ARM GAS  C:\Users\daniel\AppData\Local\Temp\ccsQEchw.s 			page 38


 148:../../libDaisy//src/per/qspi.h ****         \return Result::OK or Result::ERR
 149:../../libDaisy//src/per/qspi.h ****         */
 150:../../libDaisy//src/per/qspi.h ****     Result EraseSector(uint32_t address);
 151:../../libDaisy//src/per/qspi.h **** 
 152:../../libDaisy//src/per/qspi.h ****     /** Returns the current class status. Useful for debugging.
 153:../../libDaisy//src/per/qspi.h ****      *  \returns Status
 154:../../libDaisy//src/per/qspi.h ****      */
 155:../../libDaisy//src/per/qspi.h ****     Status GetStatus();
 156:../../libDaisy//src/per/qspi.h **** 
 157:../../libDaisy//src/per/qspi.h ****     /** Returns a pointer to the actual memory used 
 158:../../libDaisy//src/per/qspi.h ****      *  The memory at this address is read-only
 159:../../libDaisy//src/per/qspi.h ****      *  to write to it use the Write function.
 160:../../libDaisy//src/per/qspi.h ****      * 
 161:../../libDaisy//src/per/qspi.h ****      *  \param offset returns the pointer starting this 
 162:../../libDaisy//src/per/qspi.h ****      *                many bytes into the memory
 163:../../libDaisy//src/per/qspi.h ****     */
 164:../../libDaisy//src/per/qspi.h ****     void* GetData(uint32_t offset = 0);
 165:../../libDaisy//src/per/qspi.h **** 
 166:../../libDaisy//src/per/qspi.h ****     QSPIHandle() : pimpl_(nullptr) {}
 930              		.loc 18 166 5 is_stmt 1 view .LVU235
 931              	.LBE530:
 932              	.LBE528:
 933              	.LBE527:
 934              	.LBE526:
 935              	.LBE525:
 936              		.loc 16 59 1 is_stmt 0 view .LVU236
 937 0000 08B5     		push	{r3, lr}
 938              		.cfi_def_cfa_offset 8
 939              		.cfi_offset 3, -8
 940              		.cfi_offset 14, -4
 941              	.LBB573:
 942              	.LBB570:
 943              	.LBB556:
 944              	.LBB553:
 945              	.LBB533:
 946              	.LBB531:
 947              	.LBB532:
 948              		.loc 18 166 34 view .LVU237
 949 0002 0848     		ldr	r0, .L25
 950 0004 0023     		movs	r3, #0
 951              	.LBE532:
 952              	.LBE531:
 953              	.LBE533:
 954              	.LBE553:
 955              	.LBE556:
   8:mikronima.cpp **** StringVoice str;
 956              		.loc 16 8 14 view .LVU238
 957 0006 084A     		ldr	r2, .L25+4
 958 0008 0849     		ldr	r1, .L25+8
 959              	.LBB557:
 960              	.LBB554:
 961              	.LBB534:
 962              	.LBB535:
 963              	.LBB536:
 964              	.LBB537:
 965              	.LBB538:
 966              		.file 19 "../../libDaisy//src/per/i2c.h"
ARM GAS  C:\Users\daniel\AppData\Local\Temp\ccsQEchw.s 			page 39


   1:../../libDaisy//src/per/i2c.h **** #pragma once
   2:../../libDaisy//src/per/i2c.h **** #include "daisy_core.h"
   3:../../libDaisy//src/per/i2c.h **** 
   4:../../libDaisy//src/per/i2c.h **** namespace daisy
   5:../../libDaisy//src/per/i2c.h **** {
   6:../../libDaisy//src/per/i2c.h **** /** A handle for interacting with an I2C peripheral. This is a dumb
   7:../../libDaisy//src/per/i2c.h ****  *  gateway that internally points to one of the four I2C peripherals
   8:../../libDaisy//src/per/i2c.h ****  *  after it was initialised. It can then be copied and passed around.
   9:../../libDaisy//src/per/i2c.h ****  *  Use an I2CHandle like this:
  10:../../libDaisy//src/per/i2c.h ****  *  
  11:../../libDaisy//src/per/i2c.h ****  *      // setup the configuration
  12:../../libDaisy//src/per/i2c.h ****  *      I2CHandle::Config i2c_conf;
  13:../../libDaisy//src/per/i2c.h ****  *      i2c_conf.periph = I2CHandle::Config::Peripheral::I2C_1;
  14:../../libDaisy//src/per/i2c.h ****  *      i2c_conf.speed  = I2CHandle::Config::Speed::I2C_400KHZ;
  15:../../libDaisy//src/per/i2c.h ****  *      i2c_conf.mode   = I2CHandle::Config::Mode::Master;
  16:../../libDaisy//src/per/i2c.h ****  *      i2c_conf.pin_config.scl  = {DSY_GPIOB, 8};
  17:../../libDaisy//src/per/i2c.h ****  *      i2c_conf.pin_config.sda  = {DSY_GPIOB, 9};
  18:../../libDaisy//src/per/i2c.h ****  *      // initialise the peripheral
  19:../../libDaisy//src/per/i2c.h ****  *      I2CHandle i2c;
  20:../../libDaisy//src/per/i2c.h ****  *      i2c.Init(i2c_conf);
  21:../../libDaisy//src/per/i2c.h ****  *      // now i2c points to the corresponding peripheral and can be used.
  22:../../libDaisy//src/per/i2c.h ****  *      i2c.TransmitBlocking( ... );
  23:../../libDaisy//src/per/i2c.h ****  */
  24:../../libDaisy//src/per/i2c.h **** class I2CHandle
  25:../../libDaisy//src/per/i2c.h **** {
  26:../../libDaisy//src/per/i2c.h ****   public:
  27:../../libDaisy//src/per/i2c.h ****     /** Contains settings for initialising an I2C interface. */
  28:../../libDaisy//src/per/i2c.h ****     struct Config
  29:../../libDaisy//src/per/i2c.h ****     {
  30:../../libDaisy//src/per/i2c.h ****         /** Specifies whether the interface will operate in master or slave mode. */
  31:../../libDaisy//src/per/i2c.h ****         enum class Mode
  32:../../libDaisy//src/per/i2c.h ****         {
  33:../../libDaisy//src/per/i2c.h ****             I2C_MASTER,
  34:../../libDaisy//src/per/i2c.h ****             I2C_SLAVE,
  35:../../libDaisy//src/per/i2c.h ****         };
  36:../../libDaisy//src/per/i2c.h **** 
  37:../../libDaisy//src/per/i2c.h ****         /** Specifices the internal peripheral to use (these are mapped to different pins on the ha
  38:../../libDaisy//src/per/i2c.h ****         enum class Peripheral
  39:../../libDaisy//src/per/i2c.h ****         {
  40:../../libDaisy//src/per/i2c.h ****             I2C_1 = 0, /**< & */
  41:../../libDaisy//src/per/i2c.h ****             I2C_2,     /**< & */
  42:../../libDaisy//src/per/i2c.h ****             I2C_3,     /**< & */
  43:../../libDaisy//src/per/i2c.h ****             I2C_4,     /**< & */
  44:../../libDaisy//src/per/i2c.h ****         };
  45:../../libDaisy//src/per/i2c.h **** 
  46:../../libDaisy//src/per/i2c.h ****         /** Rate at which the clock/data will be sent/received. The device being used will have max
  47:../../libDaisy//src/per/i2c.h ****          *  1MHZ Mode is currently 886kHz
  48:../../libDaisy//src/per/i2c.h ****          */
  49:../../libDaisy//src/per/i2c.h ****         enum class Speed
  50:../../libDaisy//src/per/i2c.h ****         {
  51:../../libDaisy//src/per/i2c.h ****             I2C_100KHZ, /**< & */
  52:../../libDaisy//src/per/i2c.h ****             I2C_400KHZ, /**< & */
  53:../../libDaisy//src/per/i2c.h ****             I2C_1MHZ,   /**< & */
  54:../../libDaisy//src/per/i2c.h ****         };
  55:../../libDaisy//src/per/i2c.h **** 
  56:../../libDaisy//src/per/i2c.h ****         Peripheral periph; /**< & */
  57:../../libDaisy//src/per/i2c.h ****         struct
ARM GAS  C:\Users\daniel\AppData\Local\Temp\ccsQEchw.s 			page 40


  58:../../libDaisy//src/per/i2c.h ****         {
  59:../../libDaisy//src/per/i2c.h ****             dsy_gpio_pin scl; /**< & */
  60:../../libDaisy//src/per/i2c.h ****             dsy_gpio_pin sda; /**< & */
  61:../../libDaisy//src/per/i2c.h ****         } pin_config;         /**< & */
  62:../../libDaisy//src/per/i2c.h **** 
  63:../../libDaisy//src/per/i2c.h ****         Speed speed; /**< & */
  64:../../libDaisy//src/per/i2c.h ****         Mode  mode;  /**< & */
  65:../../libDaisy//src/per/i2c.h ****         // 0x10 is chosen as a default to avoid conflicts with reserved addresses
  66:../../libDaisy//src/per/i2c.h ****         uint8_t address = 0x10; /**< & */
  67:../../libDaisy//src/per/i2c.h ****     };
  68:../../libDaisy//src/per/i2c.h **** 
  69:../../libDaisy//src/per/i2c.h ****     /** Return values for I2C functions. */
  70:../../libDaisy//src/per/i2c.h ****     enum class Result
  71:../../libDaisy//src/per/i2c.h ****     {
  72:../../libDaisy//src/per/i2c.h ****         OK, /**< & */
  73:../../libDaisy//src/per/i2c.h ****         ERR /**< & */
  74:../../libDaisy//src/per/i2c.h ****     };
  75:../../libDaisy//src/per/i2c.h **** 
  76:../../libDaisy//src/per/i2c.h ****     enum class Direction
  77:../../libDaisy//src/per/i2c.h ****     {
  78:../../libDaisy//src/per/i2c.h ****         TRANSMIT, /**< & */
  79:../../libDaisy//src/per/i2c.h ****         RECEIVE,  /**< & */
  80:../../libDaisy//src/per/i2c.h ****     };
  81:../../libDaisy//src/per/i2c.h **** 
  82:../../libDaisy//src/per/i2c.h ****     I2CHandle() : pimpl_(nullptr) {}
 967              		.loc 19 82 33 view .LVU239
 968 000a 0362     		str	r3, [r0, #32]
 969              	.LBE538:
 970              	.LBE537:
 971              	.LBE536:
 972              	.LBE535:
 973              	.LBE534:
 974              	.LBB541:
 975              	.LBB542:
 976              	.LBB543:
 977              		.file 20 "../../libDaisy//src/per/dac.h"
   1:../../libDaisy//src/per/dac.h **** #pragma once
   2:../../libDaisy//src/per/dac.h **** #ifndef DSY_DAC_H
   3:../../libDaisy//src/per/dac.h **** #define DSY_DAC_H
   4:../../libDaisy//src/per/dac.h **** 
   5:../../libDaisy//src/per/dac.h **** #include "daisy_core.h"
   6:../../libDaisy//src/per/dac.h **** 
   7:../../libDaisy//src/per/dac.h **** namespace daisy
   8:../../libDaisy//src/per/dac.h **** {
   9:../../libDaisy//src/per/dac.h **** /** @brief DAC handle for Built-in DAC Peripheral 
  10:../../libDaisy//src/per/dac.h ****  *  @ingroup per_analog
  11:../../libDaisy//src/per/dac.h ****  ** 
  12:../../libDaisy//src/per/dac.h ****  ** For now only Normal Mode is supported,
  13:../../libDaisy//src/per/dac.h ****  ** Sample and hold mode provides reduced power consumption, but requires a bit more setup.
  14:../../libDaisy//src/per/dac.h ****  **
  15:../../libDaisy//src/per/dac.h ****  ** For now connecting the DAC through other internal peripherals is also not supported.
  16:../../libDaisy//src/per/dac.h ****  **
  17:../../libDaisy//src/per/dac.h ****  ** Since the DAC channels have dedicated pins we don't need to pass in a pin config like with
  18:../../libDaisy//src/per/dac.h ****  ** other modules. However, it is still important to not try to use the DAC pins for anything else.
  19:../../libDaisy//src/per/dac.h ****  ** DAC Channel 1 is on PA4, and DAC Channel 2 is on PA5
  20:../../libDaisy//src/per/dac.h ****  ***/
  21:../../libDaisy//src/per/dac.h **** class DacHandle
ARM GAS  C:\Users\daniel\AppData\Local\Temp\ccsQEchw.s 			page 41


  22:../../libDaisy//src/per/dac.h **** {
  23:../../libDaisy//src/per/dac.h ****   public:
  24:../../libDaisy//src/per/dac.h ****     /** Return Values for the DacHandle class */
  25:../../libDaisy//src/per/dac.h ****     enum class Result
  26:../../libDaisy//src/per/dac.h ****     {
  27:../../libDaisy//src/per/dac.h ****         OK,
  28:../../libDaisy//src/per/dac.h ****         ERR,
  29:../../libDaisy//src/per/dac.h ****     };
  30:../../libDaisy//src/per/dac.h **** 
  31:../../libDaisy//src/per/dac.h ****     /** Selects which channel(s) will be configured for use. */
  32:../../libDaisy//src/per/dac.h ****     enum class Channel
  33:../../libDaisy//src/per/dac.h ****     {
  34:../../libDaisy//src/per/dac.h ****         ONE,
  35:../../libDaisy//src/per/dac.h ****         TWO,
  36:../../libDaisy//src/per/dac.h ****         BOTH,
  37:../../libDaisy//src/per/dac.h ****     };
  38:../../libDaisy//src/per/dac.h **** 
  39:../../libDaisy//src/per/dac.h ****     /** Sets the Mode for the DAC channels.
  40:../../libDaisy//src/per/dac.h ****      **
  41:../../libDaisy//src/per/dac.h ****      ** Polling mode uses the blocking mode to transmit a single value at a time.
  42:../../libDaisy//src/per/dac.h ****      **
  43:../../libDaisy//src/per/dac.h ****      ** DMA mode uses a buffer, and periodically transmits it triggering a 
  44:../../libDaisy//src/per/dac.h ****      ** callback to fill the buffer when it is ready for more samples.
  45:../../libDaisy//src/per/dac.h ****      ***/
  46:../../libDaisy//src/per/dac.h ****     enum class Mode
  47:../../libDaisy//src/per/dac.h ****     {
  48:../../libDaisy//src/per/dac.h ****         POLLING,
  49:../../libDaisy//src/per/dac.h ****         DMA,
  50:../../libDaisy//src/per/dac.h ****     };
  51:../../libDaisy//src/per/dac.h **** 
  52:../../libDaisy//src/per/dac.h ****     /** Sets the number of bits per sample transmitted out of the DAC.
  53:../../libDaisy//src/per/dac.h ****      ** The output range will be: 0V - VDDA
  54:../../libDaisy//src/per/dac.h ****      ** The resolution will be roughly: bitdepth / (VDDA - 0V) 
  55:../../libDaisy//src/per/dac.h ****      ***/
  56:../../libDaisy//src/per/dac.h ****     enum class BitDepth
  57:../../libDaisy//src/per/dac.h ****     {
  58:../../libDaisy//src/per/dac.h ****         BITS_8,
  59:../../libDaisy//src/per/dac.h ****         BITS_12
  60:../../libDaisy//src/per/dac.h ****     };
  61:../../libDaisy//src/per/dac.h **** 
  62:../../libDaisy//src/per/dac.h ****     /** Sets whether the DAC output is buffered for higher drive ability. */
  63:../../libDaisy//src/per/dac.h ****     enum class BufferState
  64:../../libDaisy//src/per/dac.h ****     {
  65:../../libDaisy//src/per/dac.h ****         ENABLED,
  66:../../libDaisy//src/per/dac.h ****         DISABLED,
  67:../../libDaisy//src/per/dac.h ****     };
  68:../../libDaisy//src/per/dac.h **** 
  69:../../libDaisy//src/per/dac.h ****     /** Configuration structure for initializing the DAC structure. */
  70:../../libDaisy//src/per/dac.h ****     struct Config
  71:../../libDaisy//src/per/dac.h ****     {
  72:../../libDaisy//src/per/dac.h ****         /** Target Samplerate in Hz used to configure the internal 
  73:../../libDaisy//src/per/dac.h ****          ** timebase for DMA mode. Does nothing in POLLING mode.
  74:../../libDaisy//src/per/dac.h ****          ** If the value is 0 at Init time this will default to 48000Hz 
  75:../../libDaisy//src/per/dac.h ****          ** otherwise the driver will attempt meet the target.*/
  76:../../libDaisy//src/per/dac.h ****         uint32_t target_samplerate;
  77:../../libDaisy//src/per/dac.h **** 
  78:../../libDaisy//src/per/dac.h ****         Channel     chn;
ARM GAS  C:\Users\daniel\AppData\Local\Temp\ccsQEchw.s 			page 42


  79:../../libDaisy//src/per/dac.h ****         Mode        mode;
  80:../../libDaisy//src/per/dac.h ****         BitDepth    bitdepth;
  81:../../libDaisy//src/per/dac.h ****         BufferState buff_state;
  82:../../libDaisy//src/per/dac.h ****     };
  83:../../libDaisy//src/per/dac.h **** 
  84:../../libDaisy//src/per/dac.h ****     DacHandle() : pimpl_(nullptr) {}
 978              		.loc 20 84 33 view .LVU240
 979 000c 8362     		str	r3, [r0, #40]
 980              	.LBE543:
 981              	.LBE542:
 982              	.LBE541:
 983              	.LBB544:
 984              	.LBB545:
 985              	.LBB546:
  95:../../libDaisy//src/hid/audio.h ****     ~AudioHandle() {}
 986              		.loc 6 95 35 view .LVU241
 987 000e C0E90333 		strd	r3, r3, [r0, #12]
 988              	.LVL56:
  95:../../libDaisy//src/hid/audio.h ****     ~AudioHandle() {}
 989              		.loc 6 95 35 view .LVU242
 990              	.LBE546:
 991              	.LBE545:
 992              	.LBE544:
 993              	.LBB547:
 994              	.LBI547:
  92:../../libDaisy//src/per/adc.h ****     ~AdcHandle() {}
 995              		.loc 5 92 5 is_stmt 1 view .LVU243
  92:../../libDaisy//src/per/adc.h ****     ~AdcHandle() {}
 996              		.loc 5 92 5 is_stmt 0 view .LVU244
 997              	.LBE547:
 998              	.LBB548:
 999              	.LBI548:
  40:../../libDaisy//src/hid/usb.h **** 
 1000              		.loc 4 40 5 is_stmt 1 view .LVU245
  40:../../libDaisy//src/hid/usb.h **** 
 1001              		.loc 4 40 5 is_stmt 0 view .LVU246
 1002              	.LBE548:
 1003              	.LBB549:
 1004              	.LBI534:
  28:../../libDaisy//src/dev/codec_pcm3060.h ****     ~Pcm3060() {}
 1005              		.loc 3 28 5 is_stmt 1 view .LVU247
 1006              	.LBB540:
 1007              	.LBB539:
 1008              	.LBI536:
 1009              		.loc 19 82 5 view .LVU248
 1010              		.loc 19 82 5 is_stmt 0 view .LVU249
 1011              	.LBE539:
 1012              	.LBE540:
 1013              	.LBE549:
 1014              	.LBB550:
 1015              	.LBI541:
 1016              		.loc 20 84 5 is_stmt 1 view .LVU250
 1017              		.loc 20 84 5 is_stmt 0 view .LVU251
 1018              	.LBE550:
 1019              	.LBE554:
 1020              	.LBE557:
 1021              	.LBE570:
ARM GAS  C:\Users\daniel\AppData\Local\Temp\ccsQEchw.s 			page 43


 1022              	.LBE573:
  64:../../libDaisy//src/daisy_patch_sm.h ****         ~DaisyPatchSM() {}
 1023              		.loc 1 64 24 is_stmt 1 view .LVU252
 1024              	.LBB574:
 1025              	.LBB571:
 1026              	.LBB558:
 1027              	.LBB555:
 1028              	.LBB551:
 1029              	.LBI551:
  20:../../libDaisy//src/hid/gatein.h ****     /** GateIn~
 1030              		.loc 2 20 5 view .LVU253
  20:../../libDaisy//src/hid/gatein.h ****     /** GateIn~
 1031              		.loc 2 20 5 is_stmt 0 view .LVU254
 1032              	.LBE551:
 1033              	.LBB552:
 1034              	.LBI552:
  20:../../libDaisy//src/hid/gatein.h ****     /** GateIn~
 1035              		.loc 2 20 5 is_stmt 1 view .LVU255
  20:../../libDaisy//src/hid/gatein.h ****     /** GateIn~
 1036              		.loc 2 20 5 is_stmt 0 view .LVU256
 1037              	.LBE552:
 1038              	.LBE555:
 1039              	.LBE558:
   8:mikronima.cpp **** StringVoice str;
 1040              		.loc 16 8 14 view .LVU257
 1041 0012 FFF7FEFF 		bl	__aeabi_atexit
 1042              	.LVL57:
 1043              	.LBB559:
 1044              	.LBI559:
  27:../../DaisySP//Source/PhysicalModeling/stringvoice.h ****     ~StringVoice() {}
 1045              		.loc 8 27 5 is_stmt 1 view .LVU258
 1046              	.LBB560:
 1047              	.LBB561:
 1048              	.LBI561:
  26:../../DaisySP//Source/Noise/dust.h ****     ~Dust() {}
 1049              		.loc 15 26 5 view .LVU259
  26:../../DaisySP//Source/Noise/dust.h ****     ~Dust() {}
 1050              		.loc 15 26 5 is_stmt 0 view .LVU260
 1051              	.LBE561:
 1052              	.LBB562:
 1053              	.LBI562:
  21:../../DaisySP//Source/Filters/svf.h ****     ~Svf() {}
 1054              		.loc 14 21 5 is_stmt 1 view .LVU261
  21:../../DaisySP//Source/Filters/svf.h ****     ~Svf() {}
 1055              		.loc 14 21 5 is_stmt 0 view .LVU262
 1056              	.LBE562:
 1057              	.LBB563:
 1058              	.LBI563:
  31:../../DaisySP//Source/PhysicalModeling/KarplusString.h ****     ~String() {}
 1059              		.loc 9 31 5 is_stmt 1 view .LVU263
 1060              	.LBB564:
 1061              	.LBB565:
 1062              	.LBI565:
  23:../../DaisySP//Source/Utility/delayline.h ****     ~DelayLine() {}
 1063              		.loc 13 23 5 view .LVU264
  23:../../DaisySP//Source/Utility/delayline.h ****     ~DelayLine() {}
 1064              		.loc 13 23 5 is_stmt 0 view .LVU265
ARM GAS  C:\Users\daniel\AppData\Local\Temp\ccsQEchw.s 			page 44


 1065              	.LBE565:
 1066              	.LBB566:
 1067              	.LBI566:
  23:../../DaisySP//Source/Utility/delayline.h ****     ~DelayLine() {}
 1068              		.loc 13 23 5 is_stmt 1 view .LVU266
  23:../../DaisySP//Source/Utility/delayline.h ****     ~DelayLine() {}
 1069              		.loc 13 23 5 is_stmt 0 view .LVU267
 1070              	.LBE566:
 1071              	.LBB567:
 1072              	.LBI567:
  15:../../DaisySP//Source/Filters/tone.h ****     ~Tone() {}
 1073              		.loc 12 15 5 is_stmt 1 view .LVU268
  15:../../DaisySP//Source/Filters/tone.h ****     ~Tone() {}
 1074              		.loc 12 15 5 is_stmt 0 view .LVU269
 1075              	.LBE567:
 1076              	.LBB568:
 1077              	.LBI568:
  14:../../DaisySP//Source/Utility/dcblock.h ****     ~DcBlock(){};
 1078              		.loc 11 14 5 is_stmt 1 view .LVU270
  14:../../DaisySP//Source/Utility/dcblock.h ****     ~DcBlock(){};
 1079              		.loc 11 14 5 is_stmt 0 view .LVU271
 1080              	.LBE568:
 1081              	.LBB569:
 1082              	.LBI569:
  36:../../DaisySP//Source/Dynamics/crossfade.h ****     ~CrossFade() {}
 1083              		.loc 10 36 5 is_stmt 1 view .LVU272
  36:../../DaisySP//Source/Dynamics/crossfade.h ****     ~CrossFade() {}
 1084              		.loc 10 36 5 is_stmt 0 view .LVU273
 1085              	.LBE569:
 1086              	.LBE564:
 1087              	.LBE563:
 1088              	.LBE560:
 1089              	.LBE559:
   9:mikronima.cpp **** 
 1090              		.loc 16 9 13 view .LVU274
 1091 0016 044A     		ldr	r2, .L25+4
 1092 0018 0549     		ldr	r1, .L25+12
 1093 001a 0648     		ldr	r0, .L25+16
 1094              	.LBE571:
 1095              	.LBE574:
 1096              		.loc 16 59 1 view .LVU275
 1097 001c BDE80840 		pop	{r3, lr}
 1098              		.cfi_restore 14
 1099              		.cfi_restore 3
 1100              		.cfi_def_cfa_offset 0
 1101              	.LBB575:
 1102              	.LBB572:
   9:mikronima.cpp **** 
 1103              		.loc 16 9 13 view .LVU276
 1104 0020 FFF7FEBF 		b	__aeabi_atexit
 1105              	.LVL58:
 1106              	.L26:
 1107              		.align	2
 1108              	.L25:
 1109 0024 00000000 		.word	.LANCHOR0
 1110 0028 00000000 		.word	__dso_handle
 1111 002c 00000000 		.word	_ZN5daisy8patch_sm12DaisyPatchSMD1Ev
ARM GAS  C:\Users\daniel\AppData\Local\Temp\ccsQEchw.s 			page 45


 1112 0030 00000000 		.word	_ZN7daisysp11StringVoiceD1Ev
 1113 0034 00000000 		.word	str
 1114              	.LBE572:
 1115              	.LBE575:
 1116              		.cfi_endproc
 1117              	.LFE5344:
 1119              		.section	.init_array,"aw",%init_array
 1120              		.align	2
 1121 0000 00000000 		.word	_GLOBAL__sub_I_hw(target1)
 1122              		.global	str
 1123              		.global	hw
 1124              		.section	.bss.hw,"aw",%nobits
 1125              		.align	2
 1126              		.set	.LANCHOR0,. + 0
 1129              	hw:
 1130 0000 00000000 		.space	464
 1130      00000000 
 1130      00000000 
 1130      00000000 
 1130      00000000 
 1131              		.section	.bss.str,"aw",%nobits
 1132              		.align	2
 1135              	str:
 1136 0000 00000000 		.space	5348
 1136      00000000 
 1136      00000000 
 1136      00000000 
 1136      00000000 
 1137              		.text
 1138              	.Letext0:
 1139              		.file 21 "c:\\programdata\\chocolatey\\lib\\gcc-arm-embedded\\tools\\gcc-arm-none-eabi-10-2020-q4-
 1140              		.file 22 "c:\\programdata\\chocolatey\\lib\\gcc-arm-embedded\\tools\\gcc-arm-none-eabi-10-2020-q4-
 1141              		.file 23 "c:\\programdata\\chocolatey\\lib\\gcc-arm-embedded\\tools\\gcc-arm-none-eabi-10-2020-q4-
 1142              		.file 24 "c:\\programdata\\chocolatey\\lib\\gcc-arm-embedded\\tools\\gcc-arm-none-eabi-10-2020-q4-
 1143              		.file 25 "c:\\programdata\\chocolatey\\lib\\gcc-arm-embedded\\tools\\gcc-arm-none-eabi-10-2020-q4-
 1144              		.file 26 "c:\\programdata\\chocolatey\\lib\\gcc-arm-embedded\\tools\\gcc-arm-none-eabi-10-2020-q4-
 1145              		.file 27 "c:\\programdata\\chocolatey\\lib\\gcc-arm-embedded\\tools\\gcc-arm-none-eabi-10-2020-q4-
 1146              		.file 28 "c:\\programdata\\chocolatey\\lib\\gcc-arm-embedded\\tools\\gcc-arm-none-eabi-10-2020-q4-
 1147              		.file 29 "c:\\programdata\\chocolatey\\lib\\gcc-arm-embedded\\tools\\gcc-arm-none-eabi-10-2020-q4-
 1148              		.file 30 "c:\\programdata\\chocolatey\\lib\\gcc-arm-embedded\\tools\\gcc-arm-none-eabi-10-2020-q4-
 1149              		.file 31 "c:\\programdata\\chocolatey\\lib\\gcc-arm-embedded\\tools\\gcc-arm-none-eabi-10-2020-q4-
 1150              		.file 32 "c:\\programdata\\chocolatey\\lib\\gcc-arm-embedded\\tools\\gcc-arm-none-eabi-10-2020-q4-
 1151              		.file 33 "c:\\programdata\\chocolatey\\lib\\gcc-arm-embedded\\tools\\gcc-arm-none-eabi-10-2020-q4-
 1152              		.file 34 "c:\\programdata\\chocolatey\\lib\\gcc-arm-embedded\\tools\\gcc-arm-none-eabi-10-2020-q4-
 1153              		.file 35 "c:\\programdata\\chocolatey\\lib\\gcc-arm-embedded\\tools\\gcc-arm-none-eabi-10-2020-q4-
 1154              		.file 36 "c:\\programdata\\chocolatey\\lib\\gcc-arm-embedded\\tools\\gcc-arm-none-eabi-10-2020-q4-
 1155              		.file 37 "c:\\programdata\\chocolatey\\lib\\gcc-arm-embedded\\tools\\gcc-arm-none-eabi-10-2020-q4-
 1156              		.file 38 "c:\\programdata\\chocolatey\\lib\\gcc-arm-embedded\\tools\\gcc-arm-none-eabi-10-2020-q4-
 1157              		.file 39 "c:\\programdata\\chocolatey\\lib\\gcc-arm-embedded\\tools\\gcc-arm-none-eabi-10-2020-q4-
 1158              		.file 40 "c:\\programdata\\chocolatey\\lib\\gcc-arm-embedded\\tools\\gcc-arm-none-eabi-10-2020-q4-
 1159              		.file 41 "c:\\programdata\\chocolatey\\lib\\gcc-arm-embedded\\tools\\gcc-arm-none-eabi-10-2020-q4-
 1160              		.file 42 "c:\\programdata\\chocolatey\\lib\\gcc-arm-embedded\\tools\\gcc-arm-none-eabi-10-2020-q4-
 1161              		.file 43 "c:\\programdata\\chocolatey\\lib\\gcc-arm-embedded\\tools\\gcc-arm-none-eabi-10-2020-q4-
 1162              		.file 44 "c:\\programdata\\chocolatey\\lib\\gcc-arm-embedded\\tools\\gcc-arm-none-eabi-10-2020-q4-
 1163              		.file 45 "c:\\programdata\\chocolatey\\lib\\gcc-arm-embedded\\tools\\gcc-arm-none-eabi-10-2020-q4-
 1164              		.file 46 "c:\\programdata\\chocolatey\\lib\\gcc-arm-embedded\\tools\\gcc-arm-none-eabi-10-2020-q4-
 1165              		.file 47 "c:\\programdata\\chocolatey\\lib\\gcc-arm-embedded\\tools\\gcc-arm-none-eabi-10-2020-q4-
ARM GAS  C:\Users\daniel\AppData\Local\Temp\ccsQEchw.s 			page 46


 1166              		.file 48 "c:\\programdata\\chocolatey\\lib\\gcc-arm-embedded\\tools\\gcc-arm-none-eabi-10-2020-q4-
 1167              		.file 49 "c:\\programdata\\chocolatey\\lib\\gcc-arm-embedded\\tools\\gcc-arm-none-eabi-10-2020-q4-
 1168              		.file 50 "../../libDaisy//src/daisy_core.h"
 1169              		.file 51 "../../libDaisy//src/per/tim.h"
 1170              		.file 52 "../../libDaisy//src/per/sai.h"
 1171              		.file 53 "../../libDaisy//src/hid/ctrl.h"
 1172              		.file 54 "../../libDaisy//src/util/wav_format.h"
 1173              		.file 55 "../../libDaisy//src/dev/max11300.h"
 1174              		.file 56 "../../libDaisy//src/per/gpio.h"
 1175              		.file 57 "../../libDaisy//src/dev/sdram.h"
 1176              		.file 58 "c:\\programdata\\chocolatey\\lib\\gcc-arm-embedded\\tools\\gcc-arm-none-eabi-10-2020-q4-
 1177              		.file 59 "c:\\programdata\\chocolatey\\lib\\gcc-arm-embedded\\tools\\gcc-arm-none-eabi-10-2020-q4-
 1178              		.file 60 "c:\\programdata\\chocolatey\\lib\\gcc-arm-embedded\\tools\\gcc-arm-none-eabi-10-2020-q4-
 1179              		.file 61 "../../DaisySP//Source/Control/adenv.h"
 1180              		.file 62 "c:\\programdata\\chocolatey\\lib\\gcc-arm-embedded\\tools\\gcc-arm-none-eabi-10-2020-q4-
 1181              		.file 63 "c:\\programdata\\chocolatey\\lib\\gcc-arm-embedded\\tools\\gcc-arm-none-eabi-10-2020-q4-
 1182              		.file 64 "<built-in>"
 1183              		.file 65 "../../libDaisy//src/dev/sr_595.h"
ARM GAS  C:\Users\daniel\AppData\Local\Temp\ccsQEchw.s 			page 47

