ARM GAS  C:\Users\daniel\AppData\Local\Temp\ccmf1owZ.s 			page 1


   1              		.cpu cortex-m7
   2              		.eabi_attribute 28, 1
   3              		.eabi_attribute 20, 1
   4              		.eabi_attribute 21, 1
   5              		.eabi_attribute 23, 3
   6              		.eabi_attribute 24, 1
   7              		.eabi_attribute 25, 1
   8              		.eabi_attribute 26, 1
   9              		.eabi_attribute 30, 2
  10              		.eabi_attribute 34, 1
  11              		.eabi_attribute 18, 4
  12              		.file	"effect.cpp"
  13              		.text
  14              	.Ltext0:
  15              		.cfi_sections	.debug_frame
  16              		.section	.text._ZN5daisy8patch_sm12DaisyPatchSMD2Ev,"axG",%progbits,_ZN5daisy8patch_sm12DaisyPatch
  17              		.align	1
  18              		.p2align 2,,3
  19              		.weak	_ZN5daisy8patch_sm12DaisyPatchSMD2Ev
  20              		.arch armv7e-m
  21              		.syntax unified
  22              		.thumb
  23              		.thumb_func
  24              		.fpu fpv5-d16
  26              	_ZN5daisy8patch_sm12DaisyPatchSMD2Ev:
  27              	.LVL0:
  28              	.LFB2528:
  29              		.file 1 "../../libDaisy//src/daisy_patch_sm.h"
   1:../../libDaisy//src/daisy_patch_sm.h **** #pragma once
   2:../../libDaisy//src/daisy_patch_sm.h **** 
   3:../../libDaisy//src/daisy_patch_sm.h **** #include "daisy.h"
   4:../../libDaisy//src/daisy_patch_sm.h **** 
   5:../../libDaisy//src/daisy_patch_sm.h **** namespace daisy
   6:../../libDaisy//src/daisy_patch_sm.h **** {
   7:../../libDaisy//src/daisy_patch_sm.h **** namespace patch_sm
   8:../../libDaisy//src/daisy_patch_sm.h **** {
   9:../../libDaisy//src/daisy_patch_sm.h ****     /** Accessors for the Analog Controls. 
  10:../../libDaisy//src/daisy_patch_sm.h ****      *  These cover the 8x Bipolar CV inputs
  11:../../libDaisy//src/daisy_patch_sm.h ****      *  as well as the 4x 0-3V3 ADC inputs on
  12:../../libDaisy//src/daisy_patch_sm.h ****      *  the hardware 
  13:../../libDaisy//src/daisy_patch_sm.h ****      * 
  14:../../libDaisy//src/daisy_patch_sm.h ****      *  When reading a value with DaisyPatchSM::GetAdcValue()
  15:../../libDaisy//src/daisy_patch_sm.h ****      * 
  16:../../libDaisy//src/daisy_patch_sm.h ****      *  patch.GetAdcValue(patch_sm::CV_1);
  17:../../libDaisy//src/daisy_patch_sm.h ****      */
  18:../../libDaisy//src/daisy_patch_sm.h ****     enum
  19:../../libDaisy//src/daisy_patch_sm.h ****     {
  20:../../libDaisy//src/daisy_patch_sm.h ****         CV_1 = 0,
  21:../../libDaisy//src/daisy_patch_sm.h ****         CV_2,
  22:../../libDaisy//src/daisy_patch_sm.h ****         CV_3,
  23:../../libDaisy//src/daisy_patch_sm.h ****         CV_4,
  24:../../libDaisy//src/daisy_patch_sm.h ****         CV_5,
  25:../../libDaisy//src/daisy_patch_sm.h ****         CV_6,
  26:../../libDaisy//src/daisy_patch_sm.h ****         CV_7,
  27:../../libDaisy//src/daisy_patch_sm.h ****         CV_8,
  28:../../libDaisy//src/daisy_patch_sm.h ****         ADC_9,
  29:../../libDaisy//src/daisy_patch_sm.h ****         ADC_10,
ARM GAS  C:\Users\daniel\AppData\Local\Temp\ccmf1owZ.s 			page 2


  30:../../libDaisy//src/daisy_patch_sm.h ****         ADC_11,
  31:../../libDaisy//src/daisy_patch_sm.h ****         ADC_12,
  32:../../libDaisy//src/daisy_patch_sm.h ****         ADC_LAST,
  33:../../libDaisy//src/daisy_patch_sm.h ****     };
  34:../../libDaisy//src/daisy_patch_sm.h **** 
  35:../../libDaisy//src/daisy_patch_sm.h ****     /** Enum for addressing the CV Outputs via the WriteCvOut function. */
  36:../../libDaisy//src/daisy_patch_sm.h ****     enum
  37:../../libDaisy//src/daisy_patch_sm.h ****     {
  38:../../libDaisy//src/daisy_patch_sm.h ****         CV_OUT_BOTH = 0,
  39:../../libDaisy//src/daisy_patch_sm.h ****         CV_OUT_1,
  40:../../libDaisy//src/daisy_patch_sm.h ****         CV_OUT_2,
  41:../../libDaisy//src/daisy_patch_sm.h ****     };
  42:../../libDaisy//src/daisy_patch_sm.h **** 
  43:../../libDaisy//src/daisy_patch_sm.h **** 
  44:../../libDaisy//src/daisy_patch_sm.h ****     /** @brief Board support file for DaisyPatchSM hardware
  45:../../libDaisy//src/daisy_patch_sm.h ****      *  @author shensley
  46:../../libDaisy//src/daisy_patch_sm.h ****      *  @ingroup boards
  47:../../libDaisy//src/daisy_patch_sm.h ****      * 
  48:../../libDaisy//src/daisy_patch_sm.h ****      *  Daisy Patch SM is a complete Eurorack module DSP engine.
  49:../../libDaisy//src/daisy_patch_sm.h ****      *  Based on the Daisy Seed, with circuits added for 
  50:../../libDaisy//src/daisy_patch_sm.h ****      *  interfacing directly with eurorack modular synthesizers.
  51:../../libDaisy//src/daisy_patch_sm.h ****      */
  52:../../libDaisy//src/daisy_patch_sm.h ****     class DaisyPatchSM
  53:../../libDaisy//src/daisy_patch_sm.h ****     {
  54:../../libDaisy//src/daisy_patch_sm.h ****       public:
  55:../../libDaisy//src/daisy_patch_sm.h ****         /** Helper for mapping pins, and accessing them using the `GetPin` function */
  56:../../libDaisy//src/daisy_patch_sm.h ****         enum class PinBank
  57:../../libDaisy//src/daisy_patch_sm.h ****         {
  58:../../libDaisy//src/daisy_patch_sm.h ****             A,
  59:../../libDaisy//src/daisy_patch_sm.h ****             B,
  60:../../libDaisy//src/daisy_patch_sm.h ****             C,
  61:../../libDaisy//src/daisy_patch_sm.h ****             D
  62:../../libDaisy//src/daisy_patch_sm.h ****         };
  63:../../libDaisy//src/daisy_patch_sm.h **** 
  64:../../libDaisy//src/daisy_patch_sm.h ****         DaisyPatchSM() {}
  65:../../libDaisy//src/daisy_patch_sm.h ****         ~DaisyPatchSM() {}
  30              		.loc 1 65 9 view -0
  31              		.cfi_startproc
  32              		@ args = 0, pretend = 0, frame = 0
  33              		@ frame_needed = 0, uses_anonymous_args = 0
  34              		@ link register save eliminated.
  35              	.LBB137:
  36              	.LBI137:
  37              		.file 2 "../../libDaisy//src/hid/gatein.h"
   1:../../libDaisy//src/hid/gatein.h **** #pragma once
   2:../../libDaisy//src/hid/gatein.h **** #ifndef DSY_GATEIN_H
   3:../../libDaisy//src/hid/gatein.h **** #define DSY_GATEIN_H
   4:../../libDaisy//src/hid/gatein.h **** #include "per/gpio.h"
   5:../../libDaisy//src/hid/gatein.h **** 
   6:../../libDaisy//src/hid/gatein.h **** namespace daisy
   7:../../libDaisy//src/hid/gatein.h **** {
   8:../../libDaisy//src/hid/gatein.h **** /**
   9:../../libDaisy//src/hid/gatein.h ****    @brief Generic Class for handling gate inputs through GPIO.
  10:../../libDaisy//src/hid/gatein.h ****    @author Stephen Hensley
  11:../../libDaisy//src/hid/gatein.h ****    @date    March 2020
  12:../../libDaisy//src/hid/gatein.h ****    @ingroup controls
  13:../../libDaisy//src/hid/gatein.h **** */
ARM GAS  C:\Users\daniel\AppData\Local\Temp\ccmf1owZ.s 			page 3


  14:../../libDaisy//src/hid/gatein.h **** class GateIn
  15:../../libDaisy//src/hid/gatein.h **** {
  16:../../libDaisy//src/hid/gatein.h ****   public:
  17:../../libDaisy//src/hid/gatein.h ****     /** GateIn 
  18:../../libDaisy//src/hid/gatein.h ****     Constructor 
  19:../../libDaisy//src/hid/gatein.h ****     */
  20:../../libDaisy//src/hid/gatein.h ****     GateIn() {}
  21:../../libDaisy//src/hid/gatein.h ****     /** GateIn~
  22:../../libDaisy//src/hid/gatein.h ****     Destructor 
  23:../../libDaisy//src/hid/gatein.h ****     */
  24:../../libDaisy//src/hid/gatein.h ****     ~GateIn() {}
  38              		.loc 2 24 5 view .LVU1
  39              		.loc 2 24 5 is_stmt 0 view .LVU2
  40              	.LBE137:
  41              	.LBB138:
  42              	.LBI138:
  43              		.loc 2 24 5 is_stmt 1 view .LVU3
  44              		.loc 2 24 5 is_stmt 0 view .LVU4
  45              	.LBE138:
  46              	.LBB139:
  47              	.LBI139:
  48              		.file 3 "../../libDaisy//src/dev/codec_pcm3060.h"
   1:../../libDaisy//src/dev/codec_pcm3060.h **** #pragma once
   2:../../libDaisy//src/dev/codec_pcm3060.h **** #ifndef DSY_CODEC_PCM3060_H
   3:../../libDaisy//src/dev/codec_pcm3060.h **** #define DSY_CODEC_PCM3060_H
   4:../../libDaisy//src/dev/codec_pcm3060.h **** #include "per/i2c.h"
   5:../../libDaisy//src/dev/codec_pcm3060.h **** namespace daisy
   6:../../libDaisy//src/dev/codec_pcm3060.h **** {
   7:../../libDaisy//src/dev/codec_pcm3060.h **** /**
   8:../../libDaisy//src/dev/codec_pcm3060.h ****  * @brief Driver for the TI PCM3060 Audio Codec.
   9:../../libDaisy//src/dev/codec_pcm3060.h ****  * @addtogroup codec
  10:../../libDaisy//src/dev/codec_pcm3060.h ****  * 
  11:../../libDaisy//src/dev/codec_pcm3060.h ****  * For now this is a limited interface that uses I2C to communicate with the PCM3060
  12:../../libDaisy//src/dev/codec_pcm3060.h ****  * The device can also be accessed with SPI, which is not yet supported.
  13:../../libDaisy//src/dev/codec_pcm3060.h ****  * 
  14:../../libDaisy//src/dev/codec_pcm3060.h ****  * For now all registers are set to their defaults, and the Init function will 
  15:../../libDaisy//src/dev/codec_pcm3060.h ****  * perform a MRST and SRST before setting the format to 24bit LJ, and disabling 
  16:../../libDaisy//src/dev/codec_pcm3060.h ****  * power save for both the ADC and DAC.
  17:../../libDaisy//src/dev/codec_pcm3060.h ****  *
  18:../../libDaisy//src/dev/codec_pcm3060.h ****  */
  19:../../libDaisy//src/dev/codec_pcm3060.h **** class Pcm3060
  20:../../libDaisy//src/dev/codec_pcm3060.h **** {
  21:../../libDaisy//src/dev/codec_pcm3060.h ****   public:
  22:../../libDaisy//src/dev/codec_pcm3060.h ****     enum class Result
  23:../../libDaisy//src/dev/codec_pcm3060.h ****     {
  24:../../libDaisy//src/dev/codec_pcm3060.h ****         OK,
  25:../../libDaisy//src/dev/codec_pcm3060.h ****         ERR,
  26:../../libDaisy//src/dev/codec_pcm3060.h ****     };
  27:../../libDaisy//src/dev/codec_pcm3060.h **** 
  28:../../libDaisy//src/dev/codec_pcm3060.h ****     Pcm3060() {}
  29:../../libDaisy//src/dev/codec_pcm3060.h ****     ~Pcm3060() {}
  49              		.loc 3 29 5 is_stmt 1 view .LVU5
  50              		.loc 3 29 5 is_stmt 0 view .LVU6
  51              	.LBE139:
  52              	.LBB140:
  53              	.LBI140:
  54              		.file 4 "../../libDaisy//src/hid/usb.h"
ARM GAS  C:\Users\daniel\AppData\Local\Temp\ccmf1owZ.s 			page 4


   1:../../libDaisy//src/hid/usb.h **** #pragma once
   2:../../libDaisy//src/hid/usb.h **** #ifndef DSY_HID_USB_H
   3:../../libDaisy//src/hid/usb.h **** #define DSY_HID_USB_H
   4:../../libDaisy//src/hid/usb.h **** #include <stdint.h>
   5:../../libDaisy//src/hid/usb.h **** #include <stdlib.h>
   6:../../libDaisy//src/hid/usb.h **** 
   7:../../libDaisy//src/hid/usb.h **** namespace daisy
   8:../../libDaisy//src/hid/usb.h **** /** @addtogroup human_interface
   9:../../libDaisy//src/hid/usb.h ****     @{
  10:../../libDaisy//src/hid/usb.h **** */
  11:../../libDaisy//src/hid/usb.h **** 
  12:../../libDaisy//src/hid/usb.h **** {
  13:../../libDaisy//src/hid/usb.h **** /** 
  14:../../libDaisy//src/hid/usb.h ****     @brief Interface for initializing and using the USB Peripherals on the daisy
  15:../../libDaisy//src/hid/usb.h ****     @author Stephen Hensley
  16:../../libDaisy//src/hid/usb.h ****     @date December 2019
  17:../../libDaisy//src/hid/usb.h **** */
  18:../../libDaisy//src/hid/usb.h **** class UsbHandle
  19:../../libDaisy//src/hid/usb.h **** {
  20:../../libDaisy//src/hid/usb.h ****   public:
  21:../../libDaisy//src/hid/usb.h ****     /** Return values for USBHandle Functions */
  22:../../libDaisy//src/hid/usb.h ****     enum class Result
  23:../../libDaisy//src/hid/usb.h ****     {
  24:../../libDaisy//src/hid/usb.h ****         OK,
  25:../../libDaisy//src/hid/usb.h ****         ERR,
  26:../../libDaisy//src/hid/usb.h ****     };
  27:../../libDaisy//src/hid/usb.h **** 
  28:../../libDaisy//src/hid/usb.h ****     /** Specified which of the two USB Peripherals to initialize. */
  29:../../libDaisy//src/hid/usb.h ****     enum UsbPeriph
  30:../../libDaisy//src/hid/usb.h ****     {
  31:../../libDaisy//src/hid/usb.h ****         FS_INTERNAL, /**< Internal pin */
  32:../../libDaisy//src/hid/usb.h ****         FS_EXTERNAL, /**< FS External D+ pin is Pin 38 (GPIO32). FS External D- pin is Pin 37 (GPIO
  33:../../libDaisy//src/hid/usb.h ****         FS_BOTH,     /**< Both */
  34:../../libDaisy//src/hid/usb.h ****     };
  35:../../libDaisy//src/hid/usb.h **** 
  36:../../libDaisy//src/hid/usb.h **** 
  37:../../libDaisy//src/hid/usb.h ****     /** Function called upon reception of a buffer */
  38:../../libDaisy//src/hid/usb.h ****     typedef void (*ReceiveCallback)(uint8_t* buff, uint32_t* len);
  39:../../libDaisy//src/hid/usb.h **** 
  40:../../libDaisy//src/hid/usb.h ****     UsbHandle() {}
  41:../../libDaisy//src/hid/usb.h **** 
  42:../../libDaisy//src/hid/usb.h ****     ~UsbHandle() {}
  55              		.loc 4 42 5 is_stmt 1 view .LVU7
  56              		.loc 4 42 5 is_stmt 0 view .LVU8
  57              	.LBE140:
  58              	.LBB141:
  59              	.LBI141:
  60              		.file 5 "../../libDaisy//src/per/adc.h"
   1:../../libDaisy//src/per/adc.h **** #pragma once
   2:../../libDaisy//src/per/adc.h **** #ifndef DSY_ADC_H
   3:../../libDaisy//src/per/adc.h **** #define DSY_ADC_H /**< Macro */
   4:../../libDaisy//src/per/adc.h **** #include <stdint.h>
   5:../../libDaisy//src/per/adc.h **** #include <stdlib.h>
   6:../../libDaisy//src/per/adc.h **** #include "daisy_core.h"
   7:../../libDaisy//src/per/adc.h **** #include "per/gpio.h"
   8:../../libDaisy//src/per/adc.h **** 
   9:../../libDaisy//src/per/adc.h **** #define DSY_ADC_MAX_CHANNELS 16 /**< Maximum number of ADC channels */
ARM GAS  C:\Users\daniel\AppData\Local\Temp\ccmf1owZ.s 			page 5


  10:../../libDaisy//src/per/adc.h **** 
  11:../../libDaisy//src/per/adc.h **** namespace daisy
  12:../../libDaisy//src/per/adc.h **** {
  13:../../libDaisy//src/per/adc.h **** /** @addtogroup per_analog
  14:../../libDaisy//src/per/adc.h ****     @{
  15:../../libDaisy//src/per/adc.h **** */
  16:../../libDaisy//src/per/adc.h **** 
  17:../../libDaisy//src/per/adc.h **** /* While there may not be many configuration options here,
  18:../../libDaisy//src/per/adc.h **** using a struct like this allows us to add more configuration
  19:../../libDaisy//src/per/adc.h **** later without breaking existing functionality.
  20:../../libDaisy//src/per/adc.h **** */
  21:../../libDaisy//src/per/adc.h **** 
  22:../../libDaisy//src/per/adc.h **** /** @brief   Configuration Structure for an ADC Channel 
  23:../../libDaisy//src/per/adc.h ****  *  @details This can be used to configure a a single input, 
  24:../../libDaisy//src/per/adc.h ****  *           or a multiplexed input, allowing up to 8 inputs on 
  25:../../libDaisy//src/per/adc.h ****  *           one channel.
  26:../../libDaisy//src/per/adc.h ****  *  @note    Sharing data lines to multiple muxes _is_ possible, but
  27:../../libDaisy//src/per/adc.h ****  *           each channel sharing data lines must be set to the maximum
  28:../../libDaisy//src/per/adc.h ****  *           number of channels, even if some multiplexers have fewer
  29:../../libDaisy//src/per/adc.h ****  *           inputs connected.
  30:../../libDaisy//src/per/adc.h **** */
  31:../../libDaisy//src/per/adc.h **** struct AdcChannelConfig
  32:../../libDaisy//src/per/adc.h **** {
  33:../../libDaisy//src/per/adc.h ****     /** Which pin to use for multiplexing */
  34:../../libDaisy//src/per/adc.h ****     enum MuxPin
  35:../../libDaisy//src/per/adc.h ****     {
  36:../../libDaisy//src/per/adc.h ****         MUX_SEL_0,    /**< & */
  37:../../libDaisy//src/per/adc.h ****         MUX_SEL_1,    /**< & */
  38:../../libDaisy//src/per/adc.h ****         MUX_SEL_2,    /**< & */
  39:../../libDaisy//src/per/adc.h ****         MUX_SEL_LAST, /**< & */
  40:../../libDaisy//src/per/adc.h ****     };
  41:../../libDaisy//src/per/adc.h **** 
  42:../../libDaisy//src/per/adc.h ****     /** Initializes a single ADC pin as an ADC. 
  43:../../libDaisy//src/per/adc.h ****     \param pin Pin to init.
  44:../../libDaisy//src/per/adc.h ****      */
  45:../../libDaisy//src/per/adc.h ****     void InitSingle(dsy_gpio_pin pin);
  46:../../libDaisy//src/per/adc.h **** 
  47:../../libDaisy//src/per/adc.h ****     /** 
  48:../../libDaisy//src/per/adc.h ****     Initializes a single ADC pin as a Multiplexed ADC.
  49:../../libDaisy//src/per/adc.h ****     Requires a CD405X Multiplexer connected to the pin.
  50:../../libDaisy//src/per/adc.h ****     You only need to supply the mux pins that are required,
  51:../../libDaisy//src/per/adc.h ****     e.g. a 4052 mux would only require mux_0 and mux_1.
  52:../../libDaisy//src/per/adc.h ****     Internal Callbacks handle the pin addressing.
  53:../../libDaisy//src/per/adc.h ****     \param mux_channels must be 1-8
  54:../../libDaisy//src/per/adc.h ****     \param mux_0 First mux pin
  55:../../libDaisy//src/per/adc.h ****     \param mux_1 Second mux pin
  56:../../libDaisy//src/per/adc.h ****     \param mux_2 Third mux pin
  57:../../libDaisy//src/per/adc.h ****     \param adc_pin &
  58:../../libDaisy//src/per/adc.h ****     */
  59:../../libDaisy//src/per/adc.h ****     void InitMux(dsy_gpio_pin adc_pin,
  60:../../libDaisy//src/per/adc.h ****                  size_t       mux_channels,
  61:../../libDaisy//src/per/adc.h ****                  dsy_gpio_pin mux_0,
  62:../../libDaisy//src/per/adc.h ****                  dsy_gpio_pin mux_1 = {DSY_GPIOX, 0},
  63:../../libDaisy//src/per/adc.h ****                  dsy_gpio_pin mux_2 = {DSY_GPIOX, 0});
  64:../../libDaisy//src/per/adc.h **** 
  65:../../libDaisy//src/per/adc.h ****     dsy_gpio pin_;                   /**< & */
  66:../../libDaisy//src/per/adc.h ****     dsy_gpio mux_pin_[MUX_SEL_LAST]; /**< & */
ARM GAS  C:\Users\daniel\AppData\Local\Temp\ccmf1owZ.s 			page 6


  67:../../libDaisy//src/per/adc.h ****     uint8_t  mux_channels_;          /**< & */
  68:../../libDaisy//src/per/adc.h **** };
  69:../../libDaisy//src/per/adc.h **** 
  70:../../libDaisy//src/per/adc.h **** /**
  71:../../libDaisy//src/per/adc.h ****    @brief Handler for analog to digital conversion
  72:../../libDaisy//src/per/adc.h **** */
  73:../../libDaisy//src/per/adc.h **** class AdcHandle
  74:../../libDaisy//src/per/adc.h **** {
  75:../../libDaisy//src/per/adc.h ****   public:
  76:../../libDaisy//src/per/adc.h ****     /** Supported oversampling amounts */
  77:../../libDaisy//src/per/adc.h ****     enum OverSampling
  78:../../libDaisy//src/per/adc.h ****     {
  79:../../libDaisy//src/per/adc.h ****         OVS_NONE, /**< & */
  80:../../libDaisy//src/per/adc.h ****         OVS_4,    /**< & */
  81:../../libDaisy//src/per/adc.h ****         OVS_8,    /**< & */
  82:../../libDaisy//src/per/adc.h ****         OVS_16,   /**< & */
  83:../../libDaisy//src/per/adc.h ****         OVS_32,   /**< & */
  84:../../libDaisy//src/per/adc.h ****         OVS_64,   /**< & */
  85:../../libDaisy//src/per/adc.h ****         OVS_128,  /**< & */
  86:../../libDaisy//src/per/adc.h ****         OVS_256,  /**< & */
  87:../../libDaisy//src/per/adc.h ****         OVS_512,  /**< & */
  88:../../libDaisy//src/per/adc.h ****         OVS_1024, /**< & */
  89:../../libDaisy//src/per/adc.h ****         OVS_LAST, /**< & */
  90:../../libDaisy//src/per/adc.h ****     };
  91:../../libDaisy//src/per/adc.h **** 
  92:../../libDaisy//src/per/adc.h ****     AdcHandle() {}
  93:../../libDaisy//src/per/adc.h ****     ~AdcHandle() {}
  61              		.loc 5 93 5 is_stmt 1 view .LVU9
  62              		.loc 5 93 5 is_stmt 0 view .LVU10
  63              	.LBE141:
  64              	.LBB142:
  65              	.LBI142:
  66              		.file 6 "../../libDaisy//src/hid/audio.h"
   1:../../libDaisy//src/hid/audio.h **** #ifndef DSY_AUDIO_H
   2:../../libDaisy//src/hid/audio.h **** #define DSY_AUDIO_H /**< & */
   3:../../libDaisy//src/hid/audio.h **** 
   4:../../libDaisy//src/hid/audio.h **** #include "per/sai.h"
   5:../../libDaisy//src/hid/audio.h **** 
   6:../../libDaisy//src/hid/audio.h **** namespace daisy
   7:../../libDaisy//src/hid/audio.h **** {
   8:../../libDaisy//src/hid/audio.h **** /** @brief Audio Engine Handle
   9:../../libDaisy//src/hid/audio.h ****  *  @ingroup audio 
  10:../../libDaisy//src/hid/audio.h ****  *  @details This class allows for higher level access to an audio engine.
  11:../../libDaisy//src/hid/audio.h ****  *           If you're using a SOM like the DaisySeed or DaisyPatchSM (or any 
  12:../../libDaisy//src/hid/audio.h ****  *            board that includes one of those objects) then the intialization
  13:../../libDaisy//src/hid/audio.h ****  *            is already taken  care of.
  14:../../libDaisy//src/hid/audio.h ****  *           If you're setting up your own custom hardware, or need to make changes
  15:../../libDaisy//src/hid/audio.h ****  *           you will have to take the following steps:
  16:../../libDaisy//src/hid/audio.h ****  *             1. Create and Initialize an SaiHandle or two depending on your requirements
  17:../../libDaisy//src/hid/audio.h ****  *             2. Initialize the Audio Handle with the desired settings and the Initialized SaiHand
  18:../../libDaisy//src/hid/audio.h ****  *             3. If the connected codec requires special configuration or initialization, do so
  19:../../libDaisy//src/hid/audio.h ****  *             4. Write a callback method using either the AudioCallback or the InterleavingAudioCa
  20:../../libDaisy//src/hid/audio.h ****  *             5. Start the Audio using one of the StartAudio function
  21:../../libDaisy//src/hid/audio.h ****  */
  22:../../libDaisy//src/hid/audio.h **** class AudioHandle
  23:../../libDaisy//src/hid/audio.h **** {
  24:../../libDaisy//src/hid/audio.h ****   public:
ARM GAS  C:\Users\daniel\AppData\Local\Temp\ccmf1owZ.s 			page 7


  25:../../libDaisy//src/hid/audio.h ****     /** Manually configurable details about the Audio Engine */
  26:../../libDaisy//src/hid/audio.h ****     /** TODO: Figure out how to get samplerate in here. */
  27:../../libDaisy//src/hid/audio.h ****     struct Config
  28:../../libDaisy//src/hid/audio.h ****     {
  29:../../libDaisy//src/hid/audio.h ****         /** number of samples to process per callback */
  30:../../libDaisy//src/hid/audio.h ****         size_t blocksize;
  31:../../libDaisy//src/hid/audio.h **** 
  32:../../libDaisy//src/hid/audio.h ****         /**< Sample rate of audio */
  33:../../libDaisy//src/hid/audio.h ****         SaiHandle::Config::SampleRate samplerate;
  34:../../libDaisy//src/hid/audio.h **** 
  35:../../libDaisy//src/hid/audio.h ****         /** factor for adjustment before and after callback for hardware that may have extra headro
  36:../../libDaisy//src/hid/audio.h ****         float postgain;
  37:../../libDaisy//src/hid/audio.h **** 
  38:../../libDaisy//src/hid/audio.h ****         /** factor for additional one-sided compensation to audio path for hardware that may
  39:../../libDaisy//src/hid/audio.h ****          *  have unequal input/output ranges
  40:../../libDaisy//src/hid/audio.h ****          */
  41:../../libDaisy//src/hid/audio.h ****         float output_compensation;
  42:../../libDaisy//src/hid/audio.h **** 
  43:../../libDaisy//src/hid/audio.h ****         /** Sets default values for config struct */
  44:../../libDaisy//src/hid/audio.h ****         Config()
  45:../../libDaisy//src/hid/audio.h ****         : blocksize(48),
  46:../../libDaisy//src/hid/audio.h ****           samplerate(SaiHandle::Config::SampleRate::SAI_48KHZ),
  47:../../libDaisy//src/hid/audio.h ****           postgain(1.f),
  48:../../libDaisy//src/hid/audio.h ****           output_compensation(1.f)
  49:../../libDaisy//src/hid/audio.h ****         {
  50:../../libDaisy//src/hid/audio.h ****         }
  51:../../libDaisy//src/hid/audio.h ****     };
  52:../../libDaisy//src/hid/audio.h **** 
  53:../../libDaisy//src/hid/audio.h ****     enum class Result
  54:../../libDaisy//src/hid/audio.h ****     {
  55:../../libDaisy//src/hid/audio.h ****         OK,
  56:../../libDaisy//src/hid/audio.h ****         ERR,
  57:../../libDaisy//src/hid/audio.h ****     };
  58:../../libDaisy//src/hid/audio.h **** 
  59:../../libDaisy//src/hid/audio.h ****     /** Non-Interleaving input buffer
  60:../../libDaisy//src/hid/audio.h ****      * Buffer arranged by float[chn][sample] 
  61:../../libDaisy//src/hid/audio.h ****      * const so that the user can't modify the input
  62:../../libDaisy//src/hid/audio.h ****      */
  63:../../libDaisy//src/hid/audio.h ****     typedef const float* const* InputBuffer;
  64:../../libDaisy//src/hid/audio.h **** 
  65:../../libDaisy//src/hid/audio.h ****     /** Non-Interleaving output buffer
  66:../../libDaisy//src/hid/audio.h ****      * Arranged by float[chn][sample] 
  67:../../libDaisy//src/hid/audio.h ****      */
  68:../../libDaisy//src/hid/audio.h ****     typedef float** OutputBuffer;
  69:../../libDaisy//src/hid/audio.h **** 
  70:../../libDaisy//src/hid/audio.h ****     /** Type for a Non-Interleaving audio callback 
  71:../../libDaisy//src/hid/audio.h ****      * Non-Interleaving audio callbacks in daisy will be of this type
  72:../../libDaisy//src/hid/audio.h ****      */
  73:../../libDaisy//src/hid/audio.h ****     typedef void (*AudioCallback)(InputBuffer  in,
  74:../../libDaisy//src/hid/audio.h ****                                   OutputBuffer out,
  75:../../libDaisy//src/hid/audio.h ****                                   size_t       size);
  76:../../libDaisy//src/hid/audio.h **** 
  77:../../libDaisy//src/hid/audio.h ****     /** Interleaving Input buffer
  78:../../libDaisy//src/hid/audio.h ****      ** audio is prepared as { L0, R0, L1, R1, . . . LN, RN }]
  79:../../libDaisy//src/hid/audio.h ****      ** this is const, as the user shouldn't modify it
  80:../../libDaisy//src/hid/audio.h ****     */
  81:../../libDaisy//src/hid/audio.h ****     typedef const float* InterleavingInputBuffer;
ARM GAS  C:\Users\daniel\AppData\Local\Temp\ccmf1owZ.s 			page 8


  82:../../libDaisy//src/hid/audio.h **** 
  83:../../libDaisy//src/hid/audio.h ****     /** Interleaving Output buffer 
  84:../../libDaisy//src/hid/audio.h ****      ** audio is prepared as { L0, R0, L1, R1, . . . LN, RN }
  85:../../libDaisy//src/hid/audio.h ****     */
  86:../../libDaisy//src/hid/audio.h ****     typedef float* InterleavingOutputBuffer;
  87:../../libDaisy//src/hid/audio.h **** 
  88:../../libDaisy//src/hid/audio.h ****     /** Interleaving Audio Callback 
  89:../../libDaisy//src/hid/audio.h ****      * Interleaving audio callbacks in daisy must be of this type
  90:../../libDaisy//src/hid/audio.h ****      */
  91:../../libDaisy//src/hid/audio.h ****     typedef void (*InterleavingAudioCallback)(InterleavingInputBuffer  in,
  92:../../libDaisy//src/hid/audio.h ****                                               InterleavingOutputBuffer out,
  93:../../libDaisy//src/hid/audio.h ****                                               size_t                   size);
  94:../../libDaisy//src/hid/audio.h **** 
  95:../../libDaisy//src/hid/audio.h ****     AudioHandle() : pimpl_(nullptr) {}
  96:../../libDaisy//src/hid/audio.h ****     ~AudioHandle() {}
  67              		.loc 6 96 5 is_stmt 1 view .LVU11
  68              		.loc 6 96 5 is_stmt 0 view .LVU12
  69              	.LBE142:
  70              	.LBB143:
  71              	.LBI143:
  72              		.file 7 "../../libDaisy//src/sys/system.h"
   1:../../libDaisy//src/sys/system.h **** #ifndef DSY_SYSTEM_H
   2:../../libDaisy//src/sys/system.h **** #define DSY_SYSTEM_H
   3:../../libDaisy//src/sys/system.h **** 
   4:../../libDaisy//src/sys/system.h **** #ifndef UNIT_TEST // for unit tests, a dummy implementation is provided below
   5:../../libDaisy//src/sys/system.h **** 
   6:../../libDaisy//src/sys/system.h **** #include <cstdint>
   7:../../libDaisy//src/sys/system.h **** #include "per/tim.h"
   8:../../libDaisy//src/sys/system.h **** 
   9:../../libDaisy//src/sys/system.h **** namespace daisy
  10:../../libDaisy//src/sys/system.h **** {
  11:../../libDaisy//src/sys/system.h **** /** A handle for interacting with the Core System. 
  12:../../libDaisy//src/sys/system.h ****  ** This includes the Clock tree, MPU, global DMA initialization,
  13:../../libDaisy//src/sys/system.h ****  ** cache handling, and any other necessary global initiailzation
  14:../../libDaisy//src/sys/system.h ****  **
  15:../../libDaisy//src/sys/system.h ****  ** @author shensley
  16:../../libDaisy//src/sys/system.h ****  ** @ingroup system
  17:../../libDaisy//src/sys/system.h ****  */
  18:../../libDaisy//src/sys/system.h **** class System
  19:../../libDaisy//src/sys/system.h **** {
  20:../../libDaisy//src/sys/system.h ****   public:
  21:../../libDaisy//src/sys/system.h ****     /** Contains settings for initializing the System */
  22:../../libDaisy//src/sys/system.h ****     struct Config
  23:../../libDaisy//src/sys/system.h ****     {
  24:../../libDaisy//src/sys/system.h ****         /** Specifies the system clock frequency that feeds APB/AHB clocks, etc. */
  25:../../libDaisy//src/sys/system.h ****         enum class SysClkFreq
  26:../../libDaisy//src/sys/system.h ****         {
  27:../../libDaisy//src/sys/system.h ****             FREQ_400MHZ,
  28:../../libDaisy//src/sys/system.h ****             FREQ_480MHZ,
  29:../../libDaisy//src/sys/system.h ****         };
  30:../../libDaisy//src/sys/system.h **** 
  31:../../libDaisy//src/sys/system.h ****         /** Method to call on the struct to set to defaults
  32:../../libDaisy//src/sys/system.h ****          ** CPU Freq set to 400MHz
  33:../../libDaisy//src/sys/system.h ****          ** Cache Enabled 
  34:../../libDaisy//src/sys/system.h ****          ** */
  35:../../libDaisy//src/sys/system.h ****         void Defaults()
  36:../../libDaisy//src/sys/system.h ****         {
ARM GAS  C:\Users\daniel\AppData\Local\Temp\ccmf1owZ.s 			page 9


  37:../../libDaisy//src/sys/system.h ****             cpu_freq    = SysClkFreq::FREQ_400MHZ;
  38:../../libDaisy//src/sys/system.h ****             use_dcache  = true;
  39:../../libDaisy//src/sys/system.h ****             use_icache  = true;
  40:../../libDaisy//src/sys/system.h ****             skip_clocks = false;
  41:../../libDaisy//src/sys/system.h ****         }
  42:../../libDaisy//src/sys/system.h **** 
  43:../../libDaisy//src/sys/system.h ****         /** Method to call on the struct to set to boost mode:
  44:../../libDaisy//src/sys/system.h ****          ** CPU Freq set to 480MHz
  45:../../libDaisy//src/sys/system.h ****          ** Cache Enabled 
  46:../../libDaisy//src/sys/system.h ****          ** */
  47:../../libDaisy//src/sys/system.h ****         void Boost()
  48:../../libDaisy//src/sys/system.h ****         {
  49:../../libDaisy//src/sys/system.h ****             cpu_freq    = SysClkFreq::FREQ_480MHZ;
  50:../../libDaisy//src/sys/system.h ****             use_dcache  = true;
  51:../../libDaisy//src/sys/system.h ****             use_icache  = true;
  52:../../libDaisy//src/sys/system.h ****             skip_clocks = false;
  53:../../libDaisy//src/sys/system.h ****         }
  54:../../libDaisy//src/sys/system.h **** 
  55:../../libDaisy//src/sys/system.h ****         SysClkFreq cpu_freq;
  56:../../libDaisy//src/sys/system.h ****         bool       use_dcache;
  57:../../libDaisy//src/sys/system.h ****         bool       use_icache;
  58:../../libDaisy//src/sys/system.h ****         bool       skip_clocks;
  59:../../libDaisy//src/sys/system.h ****     };
  60:../../libDaisy//src/sys/system.h **** 
  61:../../libDaisy//src/sys/system.h ****     /** Describes the different regions of memory available to the Daisy
  62:../../libDaisy//src/sys/system.h ****      * 
  63:../../libDaisy//src/sys/system.h ****      */
  64:../../libDaisy//src/sys/system.h ****     enum MemoryRegion
  65:../../libDaisy//src/sys/system.h ****     {
  66:../../libDaisy//src/sys/system.h ****         INTERNAL_FLASH = 0,
  67:../../libDaisy//src/sys/system.h ****         ITCMRAM,
  68:../../libDaisy//src/sys/system.h ****         DTCMRAM,
  69:../../libDaisy//src/sys/system.h ****         SRAM_D1,
  70:../../libDaisy//src/sys/system.h ****         SRAM_D2,
  71:../../libDaisy//src/sys/system.h ****         SRAM_D3,
  72:../../libDaisy//src/sys/system.h ****         SDRAM,
  73:../../libDaisy//src/sys/system.h ****         QSPI,
  74:../../libDaisy//src/sys/system.h ****         INVALID_ADDRESS,
  75:../../libDaisy//src/sys/system.h ****     };
  76:../../libDaisy//src/sys/system.h **** 
  77:../../libDaisy//src/sys/system.h ****     System() {}
  78:../../libDaisy//src/sys/system.h ****     ~System() {}
  73              		.loc 7 78 5 is_stmt 1 view .LVU13
  74              		.loc 7 78 5 is_stmt 0 view .LVU14
  75              	.LBE143:
  76              		.loc 1 65 26 view .LVU15
  77 0000 7047     		bx	lr
  78              		.cfi_endproc
  79              	.LFE2528:
  81              		.weak	_ZN5daisy8patch_sm12DaisyPatchSMD1Ev
  82              		.thumb_set _ZN5daisy8patch_sm12DaisyPatchSMD1Ev,_ZN5daisy8patch_sm12DaisyPatchSMD2Ev
  83 0002 00BF     		.section	.text._ZN7daisysp9OverdriveD2Ev,"axG",%progbits,_ZN7daisysp9OverdriveD5Ev,comdat
  84              		.align	1
  85              		.p2align 2,,3
  86              		.weak	_ZN7daisysp9OverdriveD2Ev
  87              		.syntax unified
  88              		.thumb
ARM GAS  C:\Users\daniel\AppData\Local\Temp\ccmf1owZ.s 			page 10


  89              		.thumb_func
  90              		.fpu fpv5-d16
  92              	_ZN7daisysp9OverdriveD2Ev:
  93              	.LVL1:
  94              	.LFB4419:
  95              		.file 8 "../../DaisySP//Source/Effects/overdrive.h"
   1:../../DaisySP//Source/Effects/overdrive.h **** #pragma once
   2:../../DaisySP//Source/Effects/overdrive.h **** #ifndef DSY_OVERDRIVE_H
   3:../../DaisySP//Source/Effects/overdrive.h **** #define DSY_OVERDRIVE_H
   4:../../DaisySP//Source/Effects/overdrive.h **** 
   5:../../DaisySP//Source/Effects/overdrive.h **** #include <stdint.h>
   6:../../DaisySP//Source/Effects/overdrive.h **** #ifdef __cplusplus
   7:../../DaisySP//Source/Effects/overdrive.h **** 
   8:../../DaisySP//Source/Effects/overdrive.h **** /** @file overdrive.h */
   9:../../DaisySP//Source/Effects/overdrive.h **** 
  10:../../DaisySP//Source/Effects/overdrive.h **** namespace daisysp
  11:../../DaisySP//Source/Effects/overdrive.h **** {
  12:../../DaisySP//Source/Effects/overdrive.h **** /**  
  13:../../DaisySP//Source/Effects/overdrive.h ****        @brief Distortion / Overdrive Module
  14:../../DaisySP//Source/Effects/overdrive.h ****        @author Ported by Ben Sergentanis 
  15:../../DaisySP//Source/Effects/overdrive.h ****        @date Jan 2021 
  16:../../DaisySP//Source/Effects/overdrive.h ****        Ported from pichenettes/eurorack/plaits/dsp/fx/overdrive.h \n
  17:../../DaisySP//Source/Effects/overdrive.h ****        to an independent module. \n
  18:../../DaisySP//Source/Effects/overdrive.h ****        Original code written by Emilie Gillet in 2014. \n
  19:../../DaisySP//Source/Effects/overdrive.h **** */
  20:../../DaisySP//Source/Effects/overdrive.h **** class Overdrive
  21:../../DaisySP//Source/Effects/overdrive.h **** {
  22:../../DaisySP//Source/Effects/overdrive.h ****   public:
  23:../../DaisySP//Source/Effects/overdrive.h ****     Overdrive() {}
  24:../../DaisySP//Source/Effects/overdrive.h ****     ~Overdrive() {}
  96              		.loc 8 24 5 is_stmt 1 view -0
  97              		.cfi_startproc
  98              		@ args = 0, pretend = 0, frame = 0
  99              		@ frame_needed = 0, uses_anonymous_args = 0
 100              		@ link register save eliminated.
 101              		.loc 8 24 19 is_stmt 0 view .LVU17
 102 0000 7047     		bx	lr
 103              		.cfi_endproc
 104              	.LFE4419:
 106              		.weak	_ZN7daisysp9OverdriveD1Ev
 107              		.thumb_set _ZN7daisysp9OverdriveD1Ev,_ZN7daisysp9OverdriveD2Ev
 108              		.section	.text._ZN7daisysp17SampleRateReducerD2Ev,"axG",%progbits,_ZN7daisysp17SampleRateReducerD5
 109              		.align	1
 110              		.p2align 2,,3
 111              		.weak	_ZN7daisysp17SampleRateReducerD2Ev
 112              		.syntax unified
 113              		.thumb
 114              		.thumb_func
 115              		.fpu fpv5-d16
 117              	_ZN7daisysp17SampleRateReducerD2Ev:
 118              	.LVL2:
 119              	.LFB4459:
 120              		.file 9 "../../DaisySP//Source/Effects/sampleratereducer.h"
   1:../../DaisySP//Source/Effects/sampleratereducer.h **** #pragma once
   2:../../DaisySP//Source/Effects/sampleratereducer.h **** #ifndef DSY_SR_REDUCER_H
   3:../../DaisySP//Source/Effects/sampleratereducer.h **** #define DSY_SR_REDUCER_H
   4:../../DaisySP//Source/Effects/sampleratereducer.h **** 
ARM GAS  C:\Users\daniel\AppData\Local\Temp\ccmf1owZ.s 			page 11


   5:../../DaisySP//Source/Effects/sampleratereducer.h **** #include <stdint.h>
   6:../../DaisySP//Source/Effects/sampleratereducer.h **** #ifdef __cplusplus
   7:../../DaisySP//Source/Effects/sampleratereducer.h **** 
   8:../../DaisySP//Source/Effects/sampleratereducer.h **** /** @file sampleratereducer.h */
   9:../../DaisySP//Source/Effects/sampleratereducer.h **** 
  10:../../DaisySP//Source/Effects/sampleratereducer.h **** namespace daisysp
  11:../../DaisySP//Source/Effects/sampleratereducer.h **** {
  12:../../DaisySP//Source/Effects/sampleratereducer.h **** /** 
  13:../../DaisySP//Source/Effects/sampleratereducer.h ****        @brief Sample rate reducer.
  14:../../DaisySP//Source/Effects/sampleratereducer.h ****        @author Ben Sergentanis
  15:../../DaisySP//Source/Effects/sampleratereducer.h ****        @date Jan 2021
  16:../../DaisySP//Source/Effects/sampleratereducer.h ****        Ported from pichenettes/eurorack/plaits/dsp/fx/sample_rate_reducer.h \n
  17:../../DaisySP//Source/Effects/sampleratereducer.h ****        to an independent module. \n
  18:../../DaisySP//Source/Effects/sampleratereducer.h ****        Original code written by Emilie Gillet in 2014. \n
  19:../../DaisySP//Source/Effects/sampleratereducer.h **** */
  20:../../DaisySP//Source/Effects/sampleratereducer.h **** class SampleRateReducer
  21:../../DaisySP//Source/Effects/sampleratereducer.h **** {
  22:../../DaisySP//Source/Effects/sampleratereducer.h ****   public:
  23:../../DaisySP//Source/Effects/sampleratereducer.h ****     SampleRateReducer() {}
  24:../../DaisySP//Source/Effects/sampleratereducer.h ****     ~SampleRateReducer() {}
 121              		.loc 9 24 5 is_stmt 1 view -0
 122              		.cfi_startproc
 123              		@ args = 0, pretend = 0, frame = 0
 124              		@ frame_needed = 0, uses_anonymous_args = 0
 125              		@ link register save eliminated.
 126              		.loc 9 24 27 is_stmt 0 view .LVU19
 127 0000 7047     		bx	lr
 128              		.cfi_endproc
 129              	.LFE4459:
 131              		.weak	_ZN7daisysp17SampleRateReducerD1Ev
 132              		.thumb_set _ZN7daisysp17SampleRateReducerD1Ev,_ZN7daisysp17SampleRateReducerD2Ev
 133              		.section	.text._Z13AudioCallbackPKPKfPPfj,"ax",%progbits
 134              		.align	1
 135              		.p2align 2,,3
 136              		.global	_Z13AudioCallbackPKPKfPPfj
 137              		.syntax unified
 138              		.thumb
 139              		.thumb_func
 140              		.fpu fpv5-d16
 142              	_Z13AudioCallbackPKPKfPPfj:
 143              	.LVL3:
 144              	.LFB4783:
 145              		.file 10 "effect.cpp"
   1:effect.cpp    **** #include "daisy_patch_sm.h"
   2:effect.cpp    **** #include "daisysp.h"
   3:effect.cpp    **** 
   4:effect.cpp    **** using namespace daisy;
   5:effect.cpp    **** using namespace patch_sm;
   6:effect.cpp    **** using namespace daisysp;
   7:effect.cpp    **** 
   8:effect.cpp    **** DaisyPatchSM hw;
   9:effect.cpp    **** Overdrive	 od;
  10:effect.cpp    **** SampleRateReducer sr;
  11:effect.cpp    **** 
  12:effect.cpp    **** void AudioCallback(AudioHandle::InputBuffer in, AudioHandle::OutputBuffer out, size_t size)
  13:effect.cpp    **** {
 146              		.loc 10 13 1 is_stmt 1 view -0
ARM GAS  C:\Users\daniel\AppData\Local\Temp\ccmf1owZ.s 			page 12


 147              		.cfi_startproc
 148              		@ args = 0, pretend = 0, frame = 0
 149              		@ frame_needed = 0, uses_anonymous_args = 0
  14:effect.cpp    **** 	hw.ProcessAllControls();
 150              		.loc 10 14 2 view .LVU21
 151              	.LBB144:
 152              	.LBI144:
  66:../../libDaisy//src/daisy_patch_sm.h **** 
  67:../../libDaisy//src/daisy_patch_sm.h ****         /** Initializes the memories, and core peripherals for the Daisy Patch SM */
  68:../../libDaisy//src/daisy_patch_sm.h ****         void Init();
  69:../../libDaisy//src/daisy_patch_sm.h **** 
  70:../../libDaisy//src/daisy_patch_sm.h ****         /** Starts a non-interleaving audio callback */
  71:../../libDaisy//src/daisy_patch_sm.h ****         void StartAudio(AudioHandle::AudioCallback cb);
  72:../../libDaisy//src/daisy_patch_sm.h **** 
  73:../../libDaisy//src/daisy_patch_sm.h ****         /** Starts an interleaving audio callback */
  74:../../libDaisy//src/daisy_patch_sm.h ****         void StartAudio(AudioHandle::InterleavingAudioCallback cb);
  75:../../libDaisy//src/daisy_patch_sm.h **** 
  76:../../libDaisy//src/daisy_patch_sm.h ****         /** Changes the callback that is executing.
  77:../../libDaisy//src/daisy_patch_sm.h ****          *  This may cause clicks if done while audio is processing.
  78:../../libDaisy//src/daisy_patch_sm.h ****          */
  79:../../libDaisy//src/daisy_patch_sm.h ****         void ChangeAudioCallback(AudioHandle::AudioCallback cb);
  80:../../libDaisy//src/daisy_patch_sm.h **** 
  81:../../libDaisy//src/daisy_patch_sm.h ****         /** Changes the callback that is executing.
  82:../../libDaisy//src/daisy_patch_sm.h ****          *  This may cause clicks if done while audio is processing.
  83:../../libDaisy//src/daisy_patch_sm.h ****          */
  84:../../libDaisy//src/daisy_patch_sm.h ****         void ChangeAudioCallback(AudioHandle::InterleavingAudioCallback cb);
  85:../../libDaisy//src/daisy_patch_sm.h **** 
  86:../../libDaisy//src/daisy_patch_sm.h ****         /** Stops the transmission of audio. */
  87:../../libDaisy//src/daisy_patch_sm.h ****         void StopAudio();
  88:../../libDaisy//src/daisy_patch_sm.h **** 
  89:../../libDaisy//src/daisy_patch_sm.h ****         /** Sets the number of samples processed in an audio callback. 
  90:../../libDaisy//src/daisy_patch_sm.h ****          *  This will only take effect on the next invocation of `StartAudio`
  91:../../libDaisy//src/daisy_patch_sm.h ****          */
  92:../../libDaisy//src/daisy_patch_sm.h ****         void SetAudioBlockSize(size_t size);
  93:../../libDaisy//src/daisy_patch_sm.h **** 
  94:../../libDaisy//src/daisy_patch_sm.h ****         /** Sets the samplerate for the audio engine 
  95:../../libDaisy//src/daisy_patch_sm.h ****          *  This will set it to the closest valid samplerate. Options being:
  96:../../libDaisy//src/daisy_patch_sm.h ****          *  8kHz, 16kHz, 32kHz, 48kHz, and 96kHz
  97:../../libDaisy//src/daisy_patch_sm.h ****          */
  98:../../libDaisy//src/daisy_patch_sm.h ****         void SetAudioSampleRate(float sr);
  99:../../libDaisy//src/daisy_patch_sm.h **** 
 100:../../libDaisy//src/daisy_patch_sm.h ****         void SetAudioSampleRate(SaiHandle::Config::SampleRate sample_rate);
 101:../../libDaisy//src/daisy_patch_sm.h **** 
 102:../../libDaisy//src/daisy_patch_sm.h ****         /** Returns the number of samples processed in an audio callback */
 103:../../libDaisy//src/daisy_patch_sm.h ****         size_t AudioBlockSize();
 104:../../libDaisy//src/daisy_patch_sm.h **** 
 105:../../libDaisy//src/daisy_patch_sm.h ****         /** Returns the audio engine's samplerate in Hz */
 106:../../libDaisy//src/daisy_patch_sm.h ****         float AudioSampleRate();
 107:../../libDaisy//src/daisy_patch_sm.h **** 
 108:../../libDaisy//src/daisy_patch_sm.h ****         /** Returns the rate at which the audio callback will be called in Hz */
 109:../../libDaisy//src/daisy_patch_sm.h ****         float AudioCallbackRate();
 110:../../libDaisy//src/daisy_patch_sm.h **** 
 111:../../libDaisy//src/daisy_patch_sm.h ****         /** Starts the Control ADCs 
 112:../../libDaisy//src/daisy_patch_sm.h ****          * 
 113:../../libDaisy//src/daisy_patch_sm.h ****          *  This is started automatically when Init() is called.
 114:../../libDaisy//src/daisy_patch_sm.h ****          */
 115:../../libDaisy//src/daisy_patch_sm.h ****         void StartAdc();
ARM GAS  C:\Users\daniel\AppData\Local\Temp\ccmf1owZ.s 			page 13


 116:../../libDaisy//src/daisy_patch_sm.h **** 
 117:../../libDaisy//src/daisy_patch_sm.h ****         /** Stops the Control ADCs */
 118:../../libDaisy//src/daisy_patch_sm.h ****         void StopAdc();
 119:../../libDaisy//src/daisy_patch_sm.h **** 
 120:../../libDaisy//src/daisy_patch_sm.h ****         /** Reads and filters all of the analog control inputs */
 121:../../libDaisy//src/daisy_patch_sm.h ****         void ProcessAnalogControls();
 122:../../libDaisy//src/daisy_patch_sm.h **** 
 123:../../libDaisy//src/daisy_patch_sm.h ****         /** Reads and debounces any of the digital control inputs 
 124:../../libDaisy//src/daisy_patch_sm.h ****          *  This does nothing on this board at this time.
 125:../../libDaisy//src/daisy_patch_sm.h ****          */
 126:../../libDaisy//src/daisy_patch_sm.h ****         void ProcessDigitalControls();
 127:../../libDaisy//src/daisy_patch_sm.h **** 
 128:../../libDaisy//src/daisy_patch_sm.h ****         /** Does both of the above */
 129:../../libDaisy//src/daisy_patch_sm.h ****         void ProcessAllControls()
 153              		.loc 1 129 14 view .LVU22
 154              	.LBB145:
 130:../../libDaisy//src/daisy_patch_sm.h ****         {
 131:../../libDaisy//src/daisy_patch_sm.h ****             ProcessAnalogControls();
 155              		.loc 1 131 13 view .LVU23
 156              	.LBE145:
 157              	.LBE144:
  13:effect.cpp    **** 	hw.ProcessAllControls();
 158              		.loc 10 13 1 is_stmt 0 view .LVU24
 159 0000 70B5     		push	{r4, r5, r6, lr}
 160              		.cfi_def_cfa_offset 16
 161              		.cfi_offset 4, -16
 162              		.cfi_offset 5, -12
 163              		.cfi_offset 6, -8
 164              		.cfi_offset 14, -4
 165 0002 0446     		mov	r4, r0
 166              	.LBB148:
 167              	.LBB146:
 168              		.loc 1 131 34 view .LVU25
 169 0004 2548     		ldr	r0, .L13
 170              	.LVL4:
 171              		.loc 1 131 34 view .LVU26
 172              	.LBE146:
 173              	.LBE148:
  13:effect.cpp    **** 	hw.ProcessAllControls();
 174              		.loc 10 13 1 view .LVU27
 175 0006 1646     		mov	r6, r2
 176 0008 0D46     		mov	r5, r1
 177 000a 2DED068B 		vpush.64	{d8, d9, d10}
 178              		.cfi_def_cfa_offset 40
 179              		.cfi_offset 80, -40
 180              		.cfi_offset 81, -36
 181              		.cfi_offset 82, -32
 182              		.cfi_offset 83, -28
 183              		.cfi_offset 84, -24
 184              		.cfi_offset 85, -20
 185              	.LBB149:
 186              	.LBB147:
 187              		.loc 1 131 34 view .LVU28
 188 000e FFF7FEFF 		bl	_ZN5daisy8patch_sm12DaisyPatchSM21ProcessAnalogControlsEv
 189              	.LVL5:
 132:../../libDaisy//src/daisy_patch_sm.h ****             ProcessDigitalControls();
 190              		.loc 1 132 13 is_stmt 1 view .LVU29
ARM GAS  C:\Users\daniel\AppData\Local\Temp\ccmf1owZ.s 			page 14


 191              		.loc 1 132 35 is_stmt 0 view .LVU30
 192 0012 2248     		ldr	r0, .L13
 193 0014 FFF7FEFF 		bl	_ZN5daisy8patch_sm12DaisyPatchSM22ProcessDigitalControlsEv
 194              	.LVL6:
 195              		.loc 1 132 35 view .LVU31
 196              	.LBE147:
 197              	.LBE149:
  15:effect.cpp    **** 	float sig = IN_L[0] + IN_R[0];
 198              		.loc 10 15 2 is_stmt 1 view .LVU32
  16:effect.cpp    **** 
  17:effect.cpp    **** 	float drive = hw.GetAdcValue(CV_1);
 199              		.loc 10 17 30 is_stmt 0 view .LVU33
 200 0018 0021     		movs	r1, #0
 201 001a 2048     		ldr	r0, .L13
 202              	.LBB150:
 203              	.LBB151:
 204              	.LBB152:
 205              		.file 11 "../../DaisySP//Source/Utility/dsp.h"
   1:../../DaisySP//Source/Utility/dsp.h **** /** Helpful defines, functions, and other utilities for use in/with daisysp modules.
   2:../../DaisySP//Source/Utility/dsp.h **** */
   3:../../DaisySP//Source/Utility/dsp.h **** #pragma once
   4:../../DaisySP//Source/Utility/dsp.h **** #ifndef DSY_CORE_DSP
   5:../../DaisySP//Source/Utility/dsp.h **** #define DSY_CORE_DSP
   6:../../DaisySP//Source/Utility/dsp.h **** #include <cassert>
   7:../../DaisySP//Source/Utility/dsp.h **** #include <cstdint>
   8:../../DaisySP//Source/Utility/dsp.h **** #include <random>
   9:../../DaisySP//Source/Utility/dsp.h **** #include <cmath>
  10:../../DaisySP//Source/Utility/dsp.h **** 
  11:../../DaisySP//Source/Utility/dsp.h **** /** PIs
  12:../../DaisySP//Source/Utility/dsp.h **** */
  13:../../DaisySP//Source/Utility/dsp.h **** #define PI_F 3.1415927410125732421875f
  14:../../DaisySP//Source/Utility/dsp.h **** #define TWOPI_F (2.0f * PI_F)
  15:../../DaisySP//Source/Utility/dsp.h **** #define HALFPI_F (PI_F * 0.5f)
  16:../../DaisySP//Source/Utility/dsp.h **** #define DSY_MIN(in, mn) (in < mn ? in : mn)
  17:../../DaisySP//Source/Utility/dsp.h **** #define DSY_MAX(in, mx) (in > mx ? in : mx)
  18:../../DaisySP//Source/Utility/dsp.h **** #define DSY_CLAMP(in, mn, mx) (DSY_MIN(DSY_MAX(in, mn), mx))
  19:../../DaisySP//Source/Utility/dsp.h **** #define DSY_COUNTOF(_arr) (sizeof(_arr) / sizeof(_arr[0]))
  20:../../DaisySP//Source/Utility/dsp.h **** 
  21:../../DaisySP//Source/Utility/dsp.h **** namespace daisysp
  22:../../DaisySP//Source/Utility/dsp.h **** {
  23:../../DaisySP//Source/Utility/dsp.h **** //Avoids division for random floats. e.g. rand() * kRandFrac
  24:../../DaisySP//Source/Utility/dsp.h **** static constexpr float kRandFrac = 1.f / (float)RAND_MAX;
  25:../../DaisySP//Source/Utility/dsp.h **** 
  26:../../DaisySP//Source/Utility/dsp.h **** //Convert from semitones to other units. e.g. 2 ^ (kOneTwelfth * x)
  27:../../DaisySP//Source/Utility/dsp.h **** static constexpr float kOneTwelfth = 1.f / 12.f;
  28:../../DaisySP//Source/Utility/dsp.h **** 
  29:../../DaisySP//Source/Utility/dsp.h **** /** efficient floating point min/max
  30:../../DaisySP//Source/Utility/dsp.h **** c/o stephen mccaul
  31:../../DaisySP//Source/Utility/dsp.h **** */
  32:../../DaisySP//Source/Utility/dsp.h **** inline float fmax(float a, float b)
  33:../../DaisySP//Source/Utility/dsp.h **** {
  34:../../DaisySP//Source/Utility/dsp.h ****     float r;
  35:../../DaisySP//Source/Utility/dsp.h **** #ifdef __arm__
  36:../../DaisySP//Source/Utility/dsp.h ****     asm("vmaxnm.f32 %[d], %[n], %[m]" : [d] "=t"(r) : [n] "t"(a), [m] "t"(b) :);
  37:../../DaisySP//Source/Utility/dsp.h **** #else
  38:../../DaisySP//Source/Utility/dsp.h ****     r = (a > b) ? a : b;
  39:../../DaisySP//Source/Utility/dsp.h **** #endif // __arm__
ARM GAS  C:\Users\daniel\AppData\Local\Temp\ccmf1owZ.s 			page 15


  40:../../DaisySP//Source/Utility/dsp.h ****     return r;
  41:../../DaisySP//Source/Utility/dsp.h **** }
  42:../../DaisySP//Source/Utility/dsp.h **** 
  43:../../DaisySP//Source/Utility/dsp.h **** inline float fmin(float a, float b)
  44:../../DaisySP//Source/Utility/dsp.h **** {
  45:../../DaisySP//Source/Utility/dsp.h ****     float r;
  46:../../DaisySP//Source/Utility/dsp.h **** #ifdef __arm__
  47:../../DaisySP//Source/Utility/dsp.h ****     asm("vminnm.f32 %[d], %[n], %[m]" : [d] "=t"(r) : [n] "t"(a), [m] "t"(b) :);
 206              		.loc 11 47 5 view .LVU34
 207 001c F7EE009A 		vmov.f32	s19, #1.0e+0
 208              	.LBE152:
 209              	.LBE151:
 210              	.LBB154:
 211              	.LBB155:
  36:../../DaisySP//Source/Utility/dsp.h **** #else
 212              		.loc 11 36 5 view .LVU35
 213 0020 9FED1FAA 		vldr.32	s20, .L13+4
 214              	.LBE155:
 215              	.LBE154:
 216              	.LBE150:
  15:effect.cpp    **** 
 217              		.loc 10 15 30 view .LVU36
 218 0024 D4E90023 		ldrd	r2, r3, [r4]
  15:effect.cpp    **** 
 219              		.loc 10 15 8 view .LVU37
 220 0028 92ED008A 		vldr.32	s16, [r2]
 221 002c D3ED007A 		vldr.32	s15, [r3]
 222 0030 38EE278A 		vadd.f32	s16, s16, s15
 223              	.LVL7:
 224              		.loc 10 17 2 is_stmt 1 view .LVU38
 225              		.loc 10 17 30 is_stmt 0 view .LVU39
 226 0034 FFF7FEFF 		bl	_ZN5daisy8patch_sm12DaisyPatchSM11GetAdcValueEi
 227              	.LVL8:
  18:effect.cpp    **** 	float driveAmt = fclamp(drive, 0, 1);
 228              		.loc 10 18 2 is_stmt 1 view .LVU40
 229              	.LBB161:
 230              	.LBI150:
  48:../../DaisySP//Source/Utility/dsp.h **** #else
  49:../../DaisySP//Source/Utility/dsp.h ****     r = (a < b) ? a : b;
  50:../../DaisySP//Source/Utility/dsp.h **** #endif // __arm__
  51:../../DaisySP//Source/Utility/dsp.h ****     return r;
  52:../../DaisySP//Source/Utility/dsp.h **** }
  53:../../DaisySP//Source/Utility/dsp.h **** 
  54:../../DaisySP//Source/Utility/dsp.h **** /** quick fp clamp
  55:../../DaisySP//Source/Utility/dsp.h **** */
  56:../../DaisySP//Source/Utility/dsp.h **** inline float fclamp(float in, float min, float max)
 231              		.loc 11 56 14 view .LVU41
 232              	.LBE161:
  57:../../DaisySP//Source/Utility/dsp.h **** {
  58:../../DaisySP//Source/Utility/dsp.h ****     return fmin(fmax(in, min), max);
 233              		.loc 11 58 5 view .LVU42
 234              	.LBB162:
 235              	.LBB158:
 236              	.LBI154:
  32:../../DaisySP//Source/Utility/dsp.h **** {
 237              		.loc 11 32 14 view .LVU43
 238              	.LBB156:
ARM GAS  C:\Users\daniel\AppData\Local\Temp\ccmf1owZ.s 			page 16


  34:../../DaisySP//Source/Utility/dsp.h **** #ifdef __arm__
 239              		.loc 11 34 5 view .LVU44
  36:../../DaisySP//Source/Utility/dsp.h **** #else
 240              		.loc 11 36 5 view .LVU45
 241              	.LBE156:
 242              	.LBE158:
 243              	.LBE162:
  19:effect.cpp    **** 
  20:effect.cpp    **** 	float reduction = hw.GetAdcValue(CV_2);
 244              		.loc 10 20 34 is_stmt 0 view .LVU46
 245 0038 0121     		movs	r1, #1
 246 003a 1848     		ldr	r0, .L13
 247              	.LBB163:
 248              	.LBB159:
 249              	.LBB157:
  36:../../DaisySP//Source/Utility/dsp.h **** #else
 250              		.loc 11 36 5 view .LVU47
 251              		.syntax unified
 252              	@ 36 "../../DaisySP//Source/Utility/dsp.h" 1
 253 003c 80FE0A0A 		vmaxnm.f32 s0, s0, s20
 254              	@ 0 "" 2
 255              	.LVL9:
  40:../../DaisySP//Source/Utility/dsp.h **** }
 256              		.loc 11 40 5 is_stmt 1 view .LVU48
  40:../../DaisySP//Source/Utility/dsp.h **** }
 257              		.loc 11 40 5 is_stmt 0 view .LVU49
 258              		.thumb
 259              		.syntax unified
 260              	.LBE157:
 261              	.LBE159:
 262              	.LBB160:
 263              	.LBI151:
  43:../../DaisySP//Source/Utility/dsp.h **** {
 264              		.loc 11 43 14 is_stmt 1 view .LVU50
 265              	.LBB153:
  45:../../DaisySP//Source/Utility/dsp.h **** #ifdef __arm__
 266              		.loc 11 45 5 view .LVU51
  47:../../DaisySP//Source/Utility/dsp.h **** #else
 267              		.loc 11 47 5 view .LVU52
 268              		.syntax unified
 269              	@ 47 "../../DaisySP//Source/Utility/dsp.h" 1
 270 0040 80FE699A 		vminnm.f32 s18, s0, s19
 271              	@ 0 "" 2
 272              	.LVL10:
  51:../../DaisySP//Source/Utility/dsp.h **** }
 273              		.loc 11 51 5 view .LVU53
  51:../../DaisySP//Source/Utility/dsp.h **** }
 274              		.loc 11 51 5 is_stmt 0 view .LVU54
 275              		.thumb
 276              		.syntax unified
 277              	.LBE153:
 278              	.LBE160:
 279              	.LBE163:
 280              		.loc 10 20 2 is_stmt 1 view .LVU55
 281              		.loc 10 20 34 is_stmt 0 view .LVU56
 282 0044 FFF7FEFF 		bl	_ZN5daisy8patch_sm12DaisyPatchSM11GetAdcValueEi
 283              	.LVL11:
ARM GAS  C:\Users\daniel\AppData\Local\Temp\ccmf1owZ.s 			page 17


  21:effect.cpp    **** 	float sampRed = fclamp(reduction, 0, 1);
  22:effect.cpp    **** 
  23:effect.cpp    **** 	od.SetDrive(driveAmt);
 284              		.loc 10 23 13 view .LVU57
 285 0048 1648     		ldr	r0, .L13+8
  20:effect.cpp    **** 	float sampRed = fclamp(reduction, 0, 1);
 286              		.loc 10 20 34 view .LVU58
 287 004a F0EE408A 		vmov.f32	s17, s0
 288              	.LVL12:
  21:effect.cpp    **** 	float sampRed = fclamp(reduction, 0, 1);
 289              		.loc 10 21 2 is_stmt 1 view .LVU59
 290              	.LBB164:
 291              	.LBI164:
  56:../../DaisySP//Source/Utility/dsp.h **** {
 292              		.loc 11 56 14 view .LVU60
 293              	.LBE164:
 294              		.loc 11 58 5 view .LVU61
 295              	.LBB171:
 296              	.LBB165:
 297              	.LBI165:
  32:../../DaisySP//Source/Utility/dsp.h **** {
 298              		.loc 11 32 14 view .LVU62
 299              	.LBB166:
  34:../../DaisySP//Source/Utility/dsp.h **** #ifdef __arm__
 300              		.loc 11 34 5 view .LVU63
  36:../../DaisySP//Source/Utility/dsp.h **** #else
 301              		.loc 11 36 5 view .LVU64
 302              	.LBE166:
 303              	.LBE165:
 304              	.LBE171:
 305              		.loc 10 23 13 is_stmt 0 view .LVU65
 306 004e B0EE490A 		vmov.f32	s0, s18
 307              	.LVL13:
 308              		.loc 10 23 13 view .LVU66
 309 0052 FFF7FEFF 		bl	_ZN7daisysp9Overdrive8SetDriveEf
 310              	.LVL14:
  24:effect.cpp    **** 	sr.SetFreq(sampRed);
 311              		.loc 10 24 12 view .LVU67
 312 0056 1448     		ldr	r0, .L13+12
 313              	.LBB172:
 314              	.LBB168:
 315              	.LBB167:
  36:../../DaisySP//Source/Utility/dsp.h **** #else
 316              		.loc 11 36 5 view .LVU68
 317              		.syntax unified
 318              	@ 36 "../../DaisySP//Source/Utility/dsp.h" 1
 319 0058 C8FE8A8A 		vmaxnm.f32 s17, s17, s20
 320              	@ 0 "" 2
 321              	.LVL15:
  40:../../DaisySP//Source/Utility/dsp.h **** }
 322              		.loc 11 40 5 is_stmt 1 view .LVU69
  40:../../DaisySP//Source/Utility/dsp.h **** }
 323              		.loc 11 40 5 is_stmt 0 view .LVU70
 324              		.thumb
 325              		.syntax unified
 326              	.LBE167:
 327              	.LBE168:
ARM GAS  C:\Users\daniel\AppData\Local\Temp\ccmf1owZ.s 			page 18


 328              	.LBB169:
 329              	.LBI169:
  43:../../DaisySP//Source/Utility/dsp.h **** {
 330              		.loc 11 43 14 is_stmt 1 view .LVU71
 331              	.LBB170:
  45:../../DaisySP//Source/Utility/dsp.h **** #ifdef __arm__
 332              		.loc 11 45 5 view .LVU72
  47:../../DaisySP//Source/Utility/dsp.h **** #else
 333              		.loc 11 47 5 view .LVU73
 334              		.syntax unified
 335              	@ 47 "../../DaisySP//Source/Utility/dsp.h" 1
 336 005c C8FEE98A 		vminnm.f32 s17, s17, s19
 337              	@ 0 "" 2
 338              	.LVL16:
  51:../../DaisySP//Source/Utility/dsp.h **** }
 339              		.loc 11 51 5 view .LVU74
  51:../../DaisySP//Source/Utility/dsp.h **** }
 340              		.loc 11 51 5 is_stmt 0 view .LVU75
 341              		.thumb
 342              		.syntax unified
 343              	.LBE170:
 344              	.LBE169:
 345              	.LBE172:
  23:effect.cpp    **** 	sr.SetFreq(sampRed);
 346              		.loc 10 23 2 is_stmt 1 view .LVU76
 347              		.loc 10 24 2 view .LVU77
 348              		.loc 10 24 12 is_stmt 0 view .LVU78
 349 0060 B0EE680A 		vmov.f32	s0, s17
 350 0064 FFF7FEFF 		bl	_ZN7daisysp17SampleRateReducer7SetFreqEf
 351              	.LVL17:
  25:effect.cpp    **** 
  26:effect.cpp    **** 	for (size_t i = 0; i < size; i++)
 352              		.loc 10 26 2 is_stmt 1 view .LVU79
 353              	.LBB173:
 354              		.loc 10 26 23 view .LVU80
 355 0068 AEB1     		cbz	r6, .L5
 356              		.loc 10 26 14 is_stmt 0 view .LVU81
 357 006a 0024     		movs	r4, #0
 358              	.LVL18:
 359              	.L7:
 360              	.LBB174:
  27:effect.cpp    **** 	{
  28:effect.cpp    **** 		float preDrive = sr.Process(sig);
 361              		.loc 10 28 3 is_stmt 1 discriminator 2 view .LVU82
 362              		.loc 10 28 30 is_stmt 0 discriminator 2 view .LVU83
 363 006c 0E48     		ldr	r0, .L13+12
 364 006e B0EE480A 		vmov.f32	s0, s16
 365 0072 FFF7FEFF 		bl	_ZN7daisysp17SampleRateReducer7ProcessEf
 366              	.LVL19:
  29:effect.cpp    **** 		float driveOut = od.Process(preDrive);
 367              		.loc 10 29 3 is_stmt 1 discriminator 2 view .LVU84
 368              		.loc 10 29 30 is_stmt 0 discriminator 2 view .LVU85
 369 0076 0B48     		ldr	r0, .L13+8
 370 0078 FFF7FEFF 		bl	_ZN7daisysp9Overdrive7ProcessEf
 371              	.LVL20:
  30:effect.cpp    **** 
  31:effect.cpp    **** 		OUT_L[i] = driveOut;
ARM GAS  C:\Users\daniel\AppData\Local\Temp\ccmf1owZ.s 			page 19


  32:effect.cpp    **** 		OUT_R[i] = driveOut;
 372              		.loc 10 32 12 discriminator 2 view .LVU86
 373 007c D5E90003 		ldrd	r0, r3, [r5]
 374              	.LVL21:
  31:effect.cpp    **** 		OUT_R[i] = driveOut;
 375              		.loc 10 31 3 is_stmt 1 discriminator 2 view .LVU87
  31:effect.cpp    **** 		OUT_R[i] = driveOut;
 376              		.loc 10 31 12 is_stmt 0 discriminator 2 view .LVU88
 377 0080 00EB8400 		add	r0, r0, r4, lsl #2
 378              		.loc 10 32 12 discriminator 2 view .LVU89
 379 0084 03EB8403 		add	r3, r3, r4, lsl #2
 380              	.LBE174:
  26:effect.cpp    **** 	{
 381              		.loc 10 26 2 discriminator 2 view .LVU90
 382 0088 0134     		adds	r4, r4, #1
 383              	.LVL22:
 384              	.LBB175:
  31:effect.cpp    **** 		OUT_R[i] = driveOut;
 385              		.loc 10 31 12 discriminator 2 view .LVU91
 386 008a 80ED000A 		vstr.32	s0, [r0]
 387              		.loc 10 32 3 is_stmt 1 discriminator 2 view .LVU92
 388              	.LBE175:
  26:effect.cpp    **** 	{
 389              		.loc 10 26 23 is_stmt 0 discriminator 2 view .LVU93
 390 008e A642     		cmp	r6, r4
 391              	.LBB176:
 392              		.loc 10 32 12 discriminator 2 view .LVU94
 393 0090 83ED000A 		vstr.32	s0, [r3]
 394              	.LBE176:
  26:effect.cpp    **** 	{
 395              		.loc 10 26 2 is_stmt 1 discriminator 2 view .LVU95
 396              	.LVL23:
  26:effect.cpp    **** 	{
 397              		.loc 10 26 23 discriminator 2 view .LVU96
 398 0094 EAD1     		bne	.L7
 399              	.LVL24:
 400              	.L5:
  26:effect.cpp    **** 	{
 401              		.loc 10 26 23 is_stmt 0 discriminator 2 view .LVU97
 402              	.LBE173:
  33:effect.cpp    **** 	}
  34:effect.cpp    **** }
 403              		.loc 10 34 1 view .LVU98
 404 0096 BDEC068B 		vldm	sp!, {d8-d10}
 405              		.cfi_restore 84
 406              		.cfi_restore 85
 407              		.cfi_restore 82
 408              		.cfi_restore 83
 409              		.cfi_restore 80
 410              		.cfi_restore 81
 411              		.cfi_def_cfa_offset 16
 412              	.LVL25:
 413              		.loc 10 34 1 view .LVU99
 414 009a 70BD     		pop	{r4, r5, r6, pc}
 415              	.LVL26:
 416              	.L14:
 417              		.loc 10 34 1 view .LVU100
ARM GAS  C:\Users\daniel\AppData\Local\Temp\ccmf1owZ.s 			page 20


 418              		.align	2
 419              	.L13:
 420 009c 00000000 		.word	.LANCHOR0
 421 00a0 00000000 		.word	0
 422 00a4 00000000 		.word	.LANCHOR1
 423 00a8 00000000 		.word	.LANCHOR2
 424              		.cfi_endproc
 425              	.LFE4783:
 427              		.section	.text.startup.main,"ax",%progbits
 428              		.align	1
 429              		.p2align 2,,3
 430              		.global	main
 431              		.syntax unified
 432              		.thumb
 433              		.thumb_func
 434              		.fpu fpv5-d16
 436              	main:
 437              	.LFB4784:
  35:effect.cpp    **** 
  36:effect.cpp    **** int main(void)
  37:effect.cpp    **** {
 438              		.loc 10 37 1 is_stmt 1 view -0
 439              		.cfi_startproc
 440              		@ Volatile: function does not return.
 441              		@ args = 0, pretend = 0, frame = 0
 442              		@ frame_needed = 0, uses_anonymous_args = 0
  38:effect.cpp    **** 	hw.Init();
 443              		.loc 10 38 2 view .LVU102
  37:effect.cpp    **** 	hw.Init();
 444              		.loc 10 37 1 is_stmt 0 view .LVU103
 445 0000 08B5     		push	{r3, lr}
 446              		.cfi_def_cfa_offset 8
 447              		.cfi_offset 3, -8
 448              		.cfi_offset 14, -4
 449              		.loc 10 38 9 view .LVU104
 450 0002 0B48     		ldr	r0, .L18
 451 0004 FFF7FEFF 		bl	_ZN5daisy8patch_sm12DaisyPatchSM4InitEv
 452              	.LVL27:
  39:effect.cpp    **** 	hw.SetAudioBlockSize(4); // number of samples handled per callback
 453              		.loc 10 39 2 is_stmt 1 view .LVU105
 454              		.loc 10 39 22 is_stmt 0 view .LVU106
 455 0008 0421     		movs	r1, #4
 456 000a 0948     		ldr	r0, .L18
 457 000c FFF7FEFF 		bl	_ZN5daisy8patch_sm12DaisyPatchSM17SetAudioBlockSizeEj
 458              	.LVL28:
  40:effect.cpp    **** 	hw.SetAudioSampleRate(SaiHandle::Config::SampleRate::SAI_48KHZ);
 459              		.loc 10 40 2 is_stmt 1 view .LVU107
 460              		.loc 10 40 23 is_stmt 0 view .LVU108
 461 0010 0321     		movs	r1, #3
 462 0012 0748     		ldr	r0, .L18
 463 0014 FFF7FEFF 		bl	_ZN5daisy8patch_sm12DaisyPatchSM18SetAudioSampleRateENS_9SaiHandle6Config10SampleRateE
 464              	.LVL29:
  41:effect.cpp    **** 
  42:effect.cpp    **** 	od.Init();
 465              		.loc 10 42 2 is_stmt 1 view .LVU109
 466              		.loc 10 42 9 is_stmt 0 view .LVU110
 467 0018 0648     		ldr	r0, .L18+4
ARM GAS  C:\Users\daniel\AppData\Local\Temp\ccmf1owZ.s 			page 21


 468 001a FFF7FEFF 		bl	_ZN7daisysp9Overdrive4InitEv
 469              	.LVL30:
  43:effect.cpp    **** 	sr.Init();
 470              		.loc 10 43 2 is_stmt 1 view .LVU111
 471              		.loc 10 43 9 is_stmt 0 view .LVU112
 472 001e 0648     		ldr	r0, .L18+8
 473 0020 FFF7FEFF 		bl	_ZN7daisysp17SampleRateReducer4InitEv
 474              	.LVL31:
  44:effect.cpp    **** 
  45:effect.cpp    **** 	hw.StartAudio(AudioCallback);
 475              		.loc 10 45 2 is_stmt 1 view .LVU113
 476              		.loc 10 45 15 is_stmt 0 view .LVU114
 477 0024 0549     		ldr	r1, .L18+12
 478 0026 0248     		ldr	r0, .L18
 479 0028 FFF7FEFF 		bl	_ZN5daisy8patch_sm12DaisyPatchSM10StartAudioEPFvPKPKfPPfjE
 480              	.LVL32:
 481              	.L16:
  46:effect.cpp    **** 	while(1) {}
 482              		.loc 10 46 2 is_stmt 1 discriminator 1 view .LVU115
 483              		.loc 10 46 2 discriminator 1 view .LVU116
 484              		.loc 10 46 2 discriminator 1 view .LVU117
 485              		.loc 10 46 2 discriminator 1 view .LVU118
 486 002c FEE7     		b	.L16
 487              	.L19:
 488 002e 00BF     		.align	2
 489              	.L18:
 490 0030 00000000 		.word	.LANCHOR0
 491 0034 00000000 		.word	.LANCHOR1
 492 0038 00000000 		.word	.LANCHOR2
 493 003c 00000000 		.word	_Z13AudioCallbackPKPKfPPfj
 494              		.cfi_endproc
 495              	.LFE4784:
 497              		.section	.text.startup._GLOBAL__sub_I_hw,"ax",%progbits
 498              		.align	1
 499              		.p2align 2,,3
 500              		.syntax unified
 501              		.thumb
 502              		.thumb_func
 503              		.fpu fpv5-d16
 505              	_GLOBAL__sub_I_hw:
 506              	.LFB5344:
  47:effect.cpp    **** }
 507              		.loc 10 47 1 view -0
 508              		.cfi_startproc
 509              		@ args = 0, pretend = 0, frame = 0
 510              		@ frame_needed = 0, uses_anonymous_args = 0
 511              	.LBB209:
 512              	.LBI209:
 513              		.loc 10 47 1 view .LVU120
 514              	.LVL33:
 515              	.LBB210:
 516              	.LBB211:
 517              	.LBI211:
  64:../../libDaisy//src/daisy_patch_sm.h ****         ~DaisyPatchSM() {}
 518              		.loc 1 64 9 view .LVU121
 519              	.LBB212:
 520              	.LBB213:
ARM GAS  C:\Users\daniel\AppData\Local\Temp\ccmf1owZ.s 			page 22


 521              	.LBI213:
  77:../../libDaisy//src/sys/system.h ****     ~System() {}
 522              		.loc 7 77 5 view .LVU122
  77:../../libDaisy//src/sys/system.h ****     ~System() {}
 523              		.loc 7 77 5 is_stmt 0 view .LVU123
 524              	.LBE213:
 525              	.LBB214:
 526              	.LBI214:
 527              		.file 12 "../../libDaisy//src/per/qspi.h"
   1:../../libDaisy//src/per/qspi.h **** #ifndef DSY_QSPI
   2:../../libDaisy//src/per/qspi.h **** #define DSY_QSPI /**< Macro */
   3:../../libDaisy//src/per/qspi.h **** 
   4:../../libDaisy//src/per/qspi.h **** #ifndef UNIT_TEST // for unit tests, a dummy implementation
   5:../../libDaisy//src/per/qspi.h **** 
   6:../../libDaisy//src/per/qspi.h **** #include <cstdint>
   7:../../libDaisy//src/per/qspi.h **** #include "daisy_core.h" // Added for dsy_gpio_pin typedef
   8:../../libDaisy//src/per/qspi.h **** 
   9:../../libDaisy//src/per/qspi.h **** #define DSY_QSPI_TEXT       \
  10:../../libDaisy//src/per/qspi.h ****     __attribute__((section( \
  11:../../libDaisy//src/per/qspi.h ****         ".qspiflash_text"))) /**< used for reading memory in memory_mapped mode. */
  12:../../libDaisy//src/per/qspi.h **** #define DSY_QSPI_DATA       \
  13:../../libDaisy//src/per/qspi.h ****     __attribute__((section( \
  14:../../libDaisy//src/per/qspi.h ****         ".qspiflash_data"))) /**< used for reading memory in memory_mapped mode. */
  15:../../libDaisy//src/per/qspi.h **** #define DSY_QSPI_BSS        \
  16:../../libDaisy//src/per/qspi.h ****     __attribute__((section( \
  17:../../libDaisy//src/per/qspi.h ****         ".qspiflash_bss"))) /**< used for reading memory in memory_mapped mode. */
  18:../../libDaisy//src/per/qspi.h **** 
  19:../../libDaisy//src/per/qspi.h **** namespace daisy
  20:../../libDaisy//src/per/qspi.h **** {
  21:../../libDaisy//src/per/qspi.h **** /** @addtogroup serial
  22:../../libDaisy//src/per/qspi.h **** @{
  23:../../libDaisy//src/per/qspi.h **** */
  24:../../libDaisy//src/per/qspi.h **** 
  25:../../libDaisy//src/per/qspi.h **** /** 
  26:../../libDaisy//src/per/qspi.h ****  Driver for QSPI peripheral to interface with external flash memory. \n 
  27:../../libDaisy//src/per/qspi.h ****     Currently supported QSPI Devices: \n 
  28:../../libDaisy//src/per/qspi.h ****     * IS25LP080D
  29:../../libDaisy//src/per/qspi.h **** */
  30:../../libDaisy//src/per/qspi.h **** class QSPIHandle
  31:../../libDaisy//src/per/qspi.h **** {
  32:../../libDaisy//src/per/qspi.h ****   public:
  33:../../libDaisy//src/per/qspi.h ****     enum Result
  34:../../libDaisy//src/per/qspi.h ****     {
  35:../../libDaisy//src/per/qspi.h ****         OK = 0,
  36:../../libDaisy//src/per/qspi.h ****         ERR
  37:../../libDaisy//src/per/qspi.h ****     };
  38:../../libDaisy//src/per/qspi.h **** 
  39:../../libDaisy//src/per/qspi.h ****     /** Indicates the current status of the module. 
  40:../../libDaisy//src/per/qspi.h ****          *  Warnings are indicated by a leading W.
  41:../../libDaisy//src/per/qspi.h ****          *  Errors are indicated by a leading E and cause an immediate exit.
  42:../../libDaisy//src/per/qspi.h ****          * 
  43:../../libDaisy//src/per/qspi.h ****          *  \param GOOD - No errors have been reported.
  44:../../libDaisy//src/per/qspi.h ****          *  \param E_HAL_ERROR - HAL code did not return HAL_OK.
  45:../../libDaisy//src/per/qspi.h ****          *  \param E_SWITCHING_MODES - An error was encountered while switching QSPI peripheral mod
  46:../../libDaisy//src/per/qspi.h ****          *  \param E_INVALID_MODE - QSPI should not be written to while the program is executing fr
  47:../../libDaisy//src/per/qspi.h ****          */
  48:../../libDaisy//src/per/qspi.h ****     enum Status
ARM GAS  C:\Users\daniel\AppData\Local\Temp\ccmf1owZ.s 			page 23


  49:../../libDaisy//src/per/qspi.h ****     {
  50:../../libDaisy//src/per/qspi.h ****         GOOD = 0,
  51:../../libDaisy//src/per/qspi.h ****         E_HAL_ERROR,
  52:../../libDaisy//src/per/qspi.h ****         E_SWITCHING_MODES,
  53:../../libDaisy//src/per/qspi.h ****         E_INVALID_MODE,
  54:../../libDaisy//src/per/qspi.h ****     };
  55:../../libDaisy//src/per/qspi.h **** 
  56:../../libDaisy//src/per/qspi.h ****     /** Configuration structure for interfacing with QSPI Driver */
  57:../../libDaisy//src/per/qspi.h ****     struct Config
  58:../../libDaisy//src/per/qspi.h ****     {
  59:../../libDaisy//src/per/qspi.h ****         /** Flash Devices supported. (Both of these are more-or-less the same, just different sizes
  60:../../libDaisy//src/per/qspi.h ****         enum Device
  61:../../libDaisy//src/per/qspi.h ****         {
  62:../../libDaisy//src/per/qspi.h ****             IS25LP080D,  /**< & */
  63:../../libDaisy//src/per/qspi.h ****             IS25LP064A,  /**< & */
  64:../../libDaisy//src/per/qspi.h ****             DEVICE_LAST, /**< & */
  65:../../libDaisy//src/per/qspi.h ****         };
  66:../../libDaisy//src/per/qspi.h **** 
  67:../../libDaisy//src/per/qspi.h ****         /** 
  68:../../libDaisy//src/per/qspi.h ****         Modes of operation.
  69:../../libDaisy//src/per/qspi.h ****         Memory Mapped mode: QSPI configured so that the QSPI can be
  70:../../libDaisy//src/per/qspi.h ****         read from starting address 0x90000000. Writing is not
  71:../../libDaisy//src/per/qspi.h ****         possible in this mode. \n 
  72:../../libDaisy//src/per/qspi.h ****         Indirect Polling mode: Device driver enabled. 
  73:../../libDaisy//src/per/qspi.h ****         */
  74:../../libDaisy//src/per/qspi.h ****         enum Mode
  75:../../libDaisy//src/per/qspi.h ****         {
  76:../../libDaisy//src/per/qspi.h ****             MEMORY_MAPPED,    /**< & */
  77:../../libDaisy//src/per/qspi.h ****             INDIRECT_POLLING, /**< & */
  78:../../libDaisy//src/per/qspi.h ****             MODE_LAST,
  79:../../libDaisy//src/per/qspi.h ****         };
  80:../../libDaisy//src/per/qspi.h **** 
  81:../../libDaisy//src/per/qspi.h ****         //SCK,  CE# (active low)
  82:../../libDaisy//src/per/qspi.h ****         struct
  83:../../libDaisy//src/per/qspi.h ****         {
  84:../../libDaisy//src/per/qspi.h ****             dsy_gpio_pin io0; /**< & */
  85:../../libDaisy//src/per/qspi.h ****             dsy_gpio_pin io1; /**< & */
  86:../../libDaisy//src/per/qspi.h ****             dsy_gpio_pin io2; /**< & */
  87:../../libDaisy//src/per/qspi.h ****             dsy_gpio_pin io3; /**< & */
  88:../../libDaisy//src/per/qspi.h ****             dsy_gpio_pin clk; /**< & */
  89:../../libDaisy//src/per/qspi.h ****             dsy_gpio_pin ncs; /**< & */
  90:../../libDaisy//src/per/qspi.h ****         } pin_config;
  91:../../libDaisy//src/per/qspi.h **** 
  92:../../libDaisy//src/per/qspi.h ****         Device device;
  93:../../libDaisy//src/per/qspi.h ****         Mode   mode;
  94:../../libDaisy//src/per/qspi.h ****     };
  95:../../libDaisy//src/per/qspi.h **** 
  96:../../libDaisy//src/per/qspi.h ****     /** 
  97:../../libDaisy//src/per/qspi.h ****         Initializes QSPI peripheral, and Resets, and prepares memory for access.
  98:../../libDaisy//src/per/qspi.h ****         \param config should be populated with the mode, device and pin_config before calling this 
  99:../../libDaisy//src/per/qspi.h ****         \return Result::OK or Result::ERR
 100:../../libDaisy//src/per/qspi.h ****         */
 101:../../libDaisy//src/per/qspi.h ****     Result Init(const Config& config);
 102:../../libDaisy//src/per/qspi.h **** 
 103:../../libDaisy//src/per/qspi.h ****     /** Returns the current config. */
 104:../../libDaisy//src/per/qspi.h ****     const Config& GetConfig() const;
 105:../../libDaisy//src/per/qspi.h **** 
ARM GAS  C:\Users\daniel\AppData\Local\Temp\ccmf1owZ.s 			page 24


 106:../../libDaisy//src/per/qspi.h ****     // Couldn't this just be called before anything else in init? That
 107:../../libDaisy//src/per/qspi.h ****     // would make manually calling it unnecessary.
 108:../../libDaisy//src/per/qspi.h ****     /** 
 109:../../libDaisy//src/per/qspi.h ****         Deinitializes the peripheral
 110:../../libDaisy//src/per/qspi.h ****         This should be called before reinitializing QSPI in a different mode.
 111:../../libDaisy//src/per/qspi.h ****         \return Result::OK or Result::ERR
 112:../../libDaisy//src/per/qspi.h ****         */
 113:../../libDaisy//src/per/qspi.h ****     Result DeInit();
 114:../../libDaisy//src/per/qspi.h **** 
 115:../../libDaisy//src/per/qspi.h ****     /** 
 116:../../libDaisy//src/per/qspi.h ****         Writes a single page to to the specified address on the QSPI chip.
 117:../../libDaisy//src/per/qspi.h ****         For IS25LP*, page size is 256 bytes.
 118:../../libDaisy//src/per/qspi.h ****         \param address Address to write to
 119:../../libDaisy//src/per/qspi.h ****         \param size Buffer size
 120:../../libDaisy//src/per/qspi.h ****         \param buffer Buffer to write
 121:../../libDaisy//src/per/qspi.h ****         \return Result::OK or Result::ERR
 122:../../libDaisy//src/per/qspi.h ****         */
 123:../../libDaisy//src/per/qspi.h ****     Result WritePage(uint32_t address, uint32_t size, uint8_t* buffer);
 124:../../libDaisy//src/per/qspi.h **** 
 125:../../libDaisy//src/per/qspi.h ****     /** 
 126:../../libDaisy//src/per/qspi.h ****         Writes data in buffer to to the QSPI. Starting at address to address+size 
 127:../../libDaisy//src/per/qspi.h ****         \param address Address to write to
 128:../../libDaisy//src/per/qspi.h ****         \param size Buffer size
 129:../../libDaisy//src/per/qspi.h ****         \param buffer Buffer to write
 130:../../libDaisy//src/per/qspi.h ****         \return Result::OK or Result::ERR
 131:../../libDaisy//src/per/qspi.h ****         */
 132:../../libDaisy//src/per/qspi.h ****     Result Write(uint32_t address, uint32_t size, uint8_t* buffer);
 133:../../libDaisy//src/per/qspi.h **** 
 134:../../libDaisy//src/per/qspi.h ****     /** 
 135:../../libDaisy//src/per/qspi.h ****         Erases the area specified on the chip.
 136:../../libDaisy//src/per/qspi.h ****         Erasures will happen by 4K, 32K or 64K increments.
 137:../../libDaisy//src/per/qspi.h ****         Smallest erase possible is 4kB at a time. (on IS25LP*)
 138:../../libDaisy//src/per/qspi.h ****         \param start_addr Address to begin erasing from
 139:../../libDaisy//src/per/qspi.h ****         \param end_addr  Address to stop erasing at
 140:../../libDaisy//src/per/qspi.h ****         \return Result::OK or Result::ERR
 141:../../libDaisy//src/per/qspi.h ****         */
 142:../../libDaisy//src/per/qspi.h ****     Result Erase(uint32_t start_addr, uint32_t end_addr);
 143:../../libDaisy//src/per/qspi.h **** 
 144:../../libDaisy//src/per/qspi.h ****     /**  
 145:../../libDaisy//src/per/qspi.h ****          Erases a single sector of the chip.  
 146:../../libDaisy//src/per/qspi.h ****         TODO: Document the size of this function. 
 147:../../libDaisy//src/per/qspi.h ****         \param address Address of sector to erase
 148:../../libDaisy//src/per/qspi.h ****         \return Result::OK or Result::ERR
 149:../../libDaisy//src/per/qspi.h ****         */
 150:../../libDaisy//src/per/qspi.h ****     Result EraseSector(uint32_t address);
 151:../../libDaisy//src/per/qspi.h **** 
 152:../../libDaisy//src/per/qspi.h ****     /** Returns the current class status. Useful for debugging.
 153:../../libDaisy//src/per/qspi.h ****      *  \returns Status
 154:../../libDaisy//src/per/qspi.h ****      */
 155:../../libDaisy//src/per/qspi.h ****     Status GetStatus();
 156:../../libDaisy//src/per/qspi.h **** 
 157:../../libDaisy//src/per/qspi.h ****     /** Returns a pointer to the actual memory used 
 158:../../libDaisy//src/per/qspi.h ****      *  The memory at this address is read-only
 159:../../libDaisy//src/per/qspi.h ****      *  to write to it use the Write function.
 160:../../libDaisy//src/per/qspi.h ****      * 
 161:../../libDaisy//src/per/qspi.h ****      *  \param offset returns the pointer starting this 
 162:../../libDaisy//src/per/qspi.h ****      *                many bytes into the memory
ARM GAS  C:\Users\daniel\AppData\Local\Temp\ccmf1owZ.s 			page 25


 163:../../libDaisy//src/per/qspi.h ****     */
 164:../../libDaisy//src/per/qspi.h ****     void* GetData(uint32_t offset = 0);
 165:../../libDaisy//src/per/qspi.h **** 
 166:../../libDaisy//src/per/qspi.h ****     QSPIHandle() : pimpl_(nullptr) {}
 528              		.loc 12 166 5 is_stmt 1 view .LVU124
 529              	.LBE214:
 530              	.LBE212:
 531              	.LBE211:
 532              	.LBE210:
 533              	.LBE209:
 534              		.loc 10 47 1 is_stmt 0 view .LVU125
 535 0000 08B5     		push	{r3, lr}
 536              		.cfi_def_cfa_offset 8
 537              		.cfi_offset 3, -8
 538              		.cfi_offset 14, -4
 539              	.LBB250:
 540              	.LBB247:
 541              	.LBB241:
 542              	.LBB237:
 543              	.LBB217:
 544              	.LBB215:
 545              	.LBB216:
 546              		.loc 12 166 34 view .LVU126
 547 0002 0B48     		ldr	r0, .L22
 548 0004 0023     		movs	r3, #0
 549              	.LBE216:
 550              	.LBE215:
 551              	.LBE217:
 552              	.LBE237:
 553              	.LBE241:
   8:effect.cpp    **** Overdrive	 od;
 554              		.loc 10 8 14 view .LVU127
 555 0006 0B4A     		ldr	r2, .L22+4
 556              	.LBB242:
 557              	.LBB238:
 558              	.LBB218:
 559              	.LBB219:
 560              	.LBB220:
 561              	.LBB221:
 562              	.LBB222:
 563              		.file 13 "../../libDaisy//src/per/i2c.h"
   1:../../libDaisy//src/per/i2c.h **** #pragma once
   2:../../libDaisy//src/per/i2c.h **** #include "daisy_core.h"
   3:../../libDaisy//src/per/i2c.h **** 
   4:../../libDaisy//src/per/i2c.h **** namespace daisy
   5:../../libDaisy//src/per/i2c.h **** {
   6:../../libDaisy//src/per/i2c.h **** /** A handle for interacting with an I2C peripheral. This is a dumb
   7:../../libDaisy//src/per/i2c.h ****  *  gateway that internally points to one of the four I2C peripherals
   8:../../libDaisy//src/per/i2c.h ****  *  after it was initialised. It can then be copied and passed around.
   9:../../libDaisy//src/per/i2c.h ****  *  Use an I2CHandle like this:
  10:../../libDaisy//src/per/i2c.h ****  *  
  11:../../libDaisy//src/per/i2c.h ****  *      // setup the configuration
  12:../../libDaisy//src/per/i2c.h ****  *      I2CHandle::Config i2c_conf;
  13:../../libDaisy//src/per/i2c.h ****  *      i2c_conf.periph = I2CHandle::Config::Peripheral::I2C_1;
  14:../../libDaisy//src/per/i2c.h ****  *      i2c_conf.speed  = I2CHandle::Config::Speed::I2C_400KHZ;
  15:../../libDaisy//src/per/i2c.h ****  *      i2c_conf.mode   = I2CHandle::Config::Mode::Master;
  16:../../libDaisy//src/per/i2c.h ****  *      i2c_conf.pin_config.scl  = {DSY_GPIOB, 8};
ARM GAS  C:\Users\daniel\AppData\Local\Temp\ccmf1owZ.s 			page 26


  17:../../libDaisy//src/per/i2c.h ****  *      i2c_conf.pin_config.sda  = {DSY_GPIOB, 9};
  18:../../libDaisy//src/per/i2c.h ****  *      // initialise the peripheral
  19:../../libDaisy//src/per/i2c.h ****  *      I2CHandle i2c;
  20:../../libDaisy//src/per/i2c.h ****  *      i2c.Init(i2c_conf);
  21:../../libDaisy//src/per/i2c.h ****  *      // now i2c points to the corresponding peripheral and can be used.
  22:../../libDaisy//src/per/i2c.h ****  *      i2c.TransmitBlocking( ... );
  23:../../libDaisy//src/per/i2c.h ****  */
  24:../../libDaisy//src/per/i2c.h **** class I2CHandle
  25:../../libDaisy//src/per/i2c.h **** {
  26:../../libDaisy//src/per/i2c.h ****   public:
  27:../../libDaisy//src/per/i2c.h ****     /** Contains settings for initialising an I2C interface. */
  28:../../libDaisy//src/per/i2c.h ****     struct Config
  29:../../libDaisy//src/per/i2c.h ****     {
  30:../../libDaisy//src/per/i2c.h ****         /** Specifies whether the interface will operate in master or slave mode. */
  31:../../libDaisy//src/per/i2c.h ****         enum class Mode
  32:../../libDaisy//src/per/i2c.h ****         {
  33:../../libDaisy//src/per/i2c.h ****             I2C_MASTER,
  34:../../libDaisy//src/per/i2c.h ****             I2C_SLAVE,
  35:../../libDaisy//src/per/i2c.h ****         };
  36:../../libDaisy//src/per/i2c.h **** 
  37:../../libDaisy//src/per/i2c.h ****         /** Specifices the internal peripheral to use (these are mapped to different pins on the ha
  38:../../libDaisy//src/per/i2c.h ****         enum class Peripheral
  39:../../libDaisy//src/per/i2c.h ****         {
  40:../../libDaisy//src/per/i2c.h ****             I2C_1 = 0, /**< & */
  41:../../libDaisy//src/per/i2c.h ****             I2C_2,     /**< & */
  42:../../libDaisy//src/per/i2c.h ****             I2C_3,     /**< & */
  43:../../libDaisy//src/per/i2c.h ****             I2C_4,     /**< & */
  44:../../libDaisy//src/per/i2c.h ****         };
  45:../../libDaisy//src/per/i2c.h **** 
  46:../../libDaisy//src/per/i2c.h ****         /** Rate at which the clock/data will be sent/received. The device being used will have max
  47:../../libDaisy//src/per/i2c.h ****          *  1MHZ Mode is currently 886kHz
  48:../../libDaisy//src/per/i2c.h ****          */
  49:../../libDaisy//src/per/i2c.h ****         enum class Speed
  50:../../libDaisy//src/per/i2c.h ****         {
  51:../../libDaisy//src/per/i2c.h ****             I2C_100KHZ, /**< & */
  52:../../libDaisy//src/per/i2c.h ****             I2C_400KHZ, /**< & */
  53:../../libDaisy//src/per/i2c.h ****             I2C_1MHZ,   /**< & */
  54:../../libDaisy//src/per/i2c.h ****         };
  55:../../libDaisy//src/per/i2c.h **** 
  56:../../libDaisy//src/per/i2c.h ****         Peripheral periph; /**< & */
  57:../../libDaisy//src/per/i2c.h ****         struct
  58:../../libDaisy//src/per/i2c.h ****         {
  59:../../libDaisy//src/per/i2c.h ****             dsy_gpio_pin scl; /**< & */
  60:../../libDaisy//src/per/i2c.h ****             dsy_gpio_pin sda; /**< & */
  61:../../libDaisy//src/per/i2c.h ****         } pin_config;         /**< & */
  62:../../libDaisy//src/per/i2c.h **** 
  63:../../libDaisy//src/per/i2c.h ****         Speed speed; /**< & */
  64:../../libDaisy//src/per/i2c.h ****         Mode  mode;  /**< & */
  65:../../libDaisy//src/per/i2c.h ****         // 0x10 is chosen as a default to avoid conflicts with reserved addresses
  66:../../libDaisy//src/per/i2c.h ****         uint8_t address = 0x10; /**< & */
  67:../../libDaisy//src/per/i2c.h ****     };
  68:../../libDaisy//src/per/i2c.h **** 
  69:../../libDaisy//src/per/i2c.h ****     /** Return values for I2C functions. */
  70:../../libDaisy//src/per/i2c.h ****     enum class Result
  71:../../libDaisy//src/per/i2c.h ****     {
  72:../../libDaisy//src/per/i2c.h ****         OK, /**< & */
  73:../../libDaisy//src/per/i2c.h ****         ERR /**< & */
ARM GAS  C:\Users\daniel\AppData\Local\Temp\ccmf1owZ.s 			page 27


  74:../../libDaisy//src/per/i2c.h ****     };
  75:../../libDaisy//src/per/i2c.h **** 
  76:../../libDaisy//src/per/i2c.h ****     enum class Direction
  77:../../libDaisy//src/per/i2c.h ****     {
  78:../../libDaisy//src/per/i2c.h ****         TRANSMIT, /**< & */
  79:../../libDaisy//src/per/i2c.h ****         RECEIVE,  /**< & */
  80:../../libDaisy//src/per/i2c.h ****     };
  81:../../libDaisy//src/per/i2c.h **** 
  82:../../libDaisy//src/per/i2c.h ****     I2CHandle() : pimpl_(nullptr) {}
 564              		.loc 13 82 33 view .LVU128
 565 0008 0362     		str	r3, [r0, #32]
 566              	.LBE222:
 567              	.LBE221:
 568              	.LBE220:
 569              	.LBE219:
 570              	.LBE218:
 571              	.LBB225:
 572              	.LBB226:
 573              	.LBB227:
 574              		.file 14 "../../libDaisy//src/per/dac.h"
   1:../../libDaisy//src/per/dac.h **** #pragma once
   2:../../libDaisy//src/per/dac.h **** #ifndef DSY_DAC_H
   3:../../libDaisy//src/per/dac.h **** #define DSY_DAC_H
   4:../../libDaisy//src/per/dac.h **** 
   5:../../libDaisy//src/per/dac.h **** #include "daisy_core.h"
   6:../../libDaisy//src/per/dac.h **** 
   7:../../libDaisy//src/per/dac.h **** namespace daisy
   8:../../libDaisy//src/per/dac.h **** {
   9:../../libDaisy//src/per/dac.h **** /** @brief DAC handle for Built-in DAC Peripheral 
  10:../../libDaisy//src/per/dac.h ****  *  @ingroup per_analog
  11:../../libDaisy//src/per/dac.h ****  ** 
  12:../../libDaisy//src/per/dac.h ****  ** For now only Normal Mode is supported,
  13:../../libDaisy//src/per/dac.h ****  ** Sample and hold mode provides reduced power consumption, but requires a bit more setup.
  14:../../libDaisy//src/per/dac.h ****  **
  15:../../libDaisy//src/per/dac.h ****  ** For now connecting the DAC through other internal peripherals is also not supported.
  16:../../libDaisy//src/per/dac.h ****  **
  17:../../libDaisy//src/per/dac.h ****  ** Since the DAC channels have dedicated pins we don't need to pass in a pin config like with
  18:../../libDaisy//src/per/dac.h ****  ** other modules. However, it is still important to not try to use the DAC pins for anything else.
  19:../../libDaisy//src/per/dac.h ****  ** DAC Channel 1 is on PA4, and DAC Channel 2 is on PA5
  20:../../libDaisy//src/per/dac.h ****  ***/
  21:../../libDaisy//src/per/dac.h **** class DacHandle
  22:../../libDaisy//src/per/dac.h **** {
  23:../../libDaisy//src/per/dac.h ****   public:
  24:../../libDaisy//src/per/dac.h ****     /** Return Values for the DacHandle class */
  25:../../libDaisy//src/per/dac.h ****     enum class Result
  26:../../libDaisy//src/per/dac.h ****     {
  27:../../libDaisy//src/per/dac.h ****         OK,
  28:../../libDaisy//src/per/dac.h ****         ERR,
  29:../../libDaisy//src/per/dac.h ****     };
  30:../../libDaisy//src/per/dac.h **** 
  31:../../libDaisy//src/per/dac.h ****     /** Selects which channel(s) will be configured for use. */
  32:../../libDaisy//src/per/dac.h ****     enum class Channel
  33:../../libDaisy//src/per/dac.h ****     {
  34:../../libDaisy//src/per/dac.h ****         ONE,
  35:../../libDaisy//src/per/dac.h ****         TWO,
  36:../../libDaisy//src/per/dac.h ****         BOTH,
  37:../../libDaisy//src/per/dac.h ****     };
ARM GAS  C:\Users\daniel\AppData\Local\Temp\ccmf1owZ.s 			page 28


  38:../../libDaisy//src/per/dac.h **** 
  39:../../libDaisy//src/per/dac.h ****     /** Sets the Mode for the DAC channels.
  40:../../libDaisy//src/per/dac.h ****      **
  41:../../libDaisy//src/per/dac.h ****      ** Polling mode uses the blocking mode to transmit a single value at a time.
  42:../../libDaisy//src/per/dac.h ****      **
  43:../../libDaisy//src/per/dac.h ****      ** DMA mode uses a buffer, and periodically transmits it triggering a 
  44:../../libDaisy//src/per/dac.h ****      ** callback to fill the buffer when it is ready for more samples.
  45:../../libDaisy//src/per/dac.h ****      ***/
  46:../../libDaisy//src/per/dac.h ****     enum class Mode
  47:../../libDaisy//src/per/dac.h ****     {
  48:../../libDaisy//src/per/dac.h ****         POLLING,
  49:../../libDaisy//src/per/dac.h ****         DMA,
  50:../../libDaisy//src/per/dac.h ****     };
  51:../../libDaisy//src/per/dac.h **** 
  52:../../libDaisy//src/per/dac.h ****     /** Sets the number of bits per sample transmitted out of the DAC.
  53:../../libDaisy//src/per/dac.h ****      ** The output range will be: 0V - VDDA
  54:../../libDaisy//src/per/dac.h ****      ** The resolution will be roughly: bitdepth / (VDDA - 0V) 
  55:../../libDaisy//src/per/dac.h ****      ***/
  56:../../libDaisy//src/per/dac.h ****     enum class BitDepth
  57:../../libDaisy//src/per/dac.h ****     {
  58:../../libDaisy//src/per/dac.h ****         BITS_8,
  59:../../libDaisy//src/per/dac.h ****         BITS_12
  60:../../libDaisy//src/per/dac.h ****     };
  61:../../libDaisy//src/per/dac.h **** 
  62:../../libDaisy//src/per/dac.h ****     /** Sets whether the DAC output is buffered for higher drive ability. */
  63:../../libDaisy//src/per/dac.h ****     enum class BufferState
  64:../../libDaisy//src/per/dac.h ****     {
  65:../../libDaisy//src/per/dac.h ****         ENABLED,
  66:../../libDaisy//src/per/dac.h ****         DISABLED,
  67:../../libDaisy//src/per/dac.h ****     };
  68:../../libDaisy//src/per/dac.h **** 
  69:../../libDaisy//src/per/dac.h ****     /** Configuration structure for initializing the DAC structure. */
  70:../../libDaisy//src/per/dac.h ****     struct Config
  71:../../libDaisy//src/per/dac.h ****     {
  72:../../libDaisy//src/per/dac.h ****         /** Target Samplerate in Hz used to configure the internal 
  73:../../libDaisy//src/per/dac.h ****          ** timebase for DMA mode. Does nothing in POLLING mode.
  74:../../libDaisy//src/per/dac.h ****          ** If the value is 0 at Init time this will default to 48000Hz 
  75:../../libDaisy//src/per/dac.h ****          ** otherwise the driver will attempt meet the target.*/
  76:../../libDaisy//src/per/dac.h ****         uint32_t target_samplerate;
  77:../../libDaisy//src/per/dac.h **** 
  78:../../libDaisy//src/per/dac.h ****         Channel     chn;
  79:../../libDaisy//src/per/dac.h ****         Mode        mode;
  80:../../libDaisy//src/per/dac.h ****         BitDepth    bitdepth;
  81:../../libDaisy//src/per/dac.h ****         BufferState buff_state;
  82:../../libDaisy//src/per/dac.h ****     };
  83:../../libDaisy//src/per/dac.h **** 
  84:../../libDaisy//src/per/dac.h ****     DacHandle() : pimpl_(nullptr) {}
 575              		.loc 14 84 33 view .LVU129
 576 000a 8362     		str	r3, [r0, #40]
 577              	.LBE227:
 578              	.LBE226:
 579              	.LBE225:
 580              	.LBE238:
 581              	.LBE242:
   8:effect.cpp    **** Overdrive	 od;
 582              		.loc 10 8 14 view .LVU130
 583 000c 0A49     		ldr	r1, .L22+8
ARM GAS  C:\Users\daniel\AppData\Local\Temp\ccmf1owZ.s 			page 29


 584              	.LBB243:
 585              	.LBB239:
 586              	.LBB228:
 587              	.LBB229:
 588              	.LBB230:
  95:../../libDaisy//src/hid/audio.h ****     ~AudioHandle() {}
 589              		.loc 6 95 35 view .LVU131
 590 000e C0E90333 		strd	r3, r3, [r0, #12]
 591              	.LVL34:
  95:../../libDaisy//src/hid/audio.h ****     ~AudioHandle() {}
 592              		.loc 6 95 35 view .LVU132
 593              	.LBE230:
 594              	.LBE229:
 595              	.LBE228:
 596              	.LBB231:
 597              	.LBI231:
  92:../../libDaisy//src/per/adc.h ****     ~AdcHandle() {}
 598              		.loc 5 92 5 is_stmt 1 view .LVU133
  92:../../libDaisy//src/per/adc.h ****     ~AdcHandle() {}
 599              		.loc 5 92 5 is_stmt 0 view .LVU134
 600              	.LBE231:
 601              	.LBB232:
 602              	.LBI232:
  40:../../libDaisy//src/hid/usb.h **** 
 603              		.loc 4 40 5 is_stmt 1 view .LVU135
  40:../../libDaisy//src/hid/usb.h **** 
 604              		.loc 4 40 5 is_stmt 0 view .LVU136
 605              	.LBE232:
 606              	.LBB233:
 607              	.LBI218:
  28:../../libDaisy//src/dev/codec_pcm3060.h ****     ~Pcm3060() {}
 608              		.loc 3 28 5 is_stmt 1 view .LVU137
 609              	.LBB224:
 610              	.LBB223:
 611              	.LBI220:
 612              		.loc 13 82 5 view .LVU138
 613              		.loc 13 82 5 is_stmt 0 view .LVU139
 614              	.LBE223:
 615              	.LBE224:
 616              	.LBE233:
 617              	.LBB234:
 618              	.LBI225:
 619              		.loc 14 84 5 is_stmt 1 view .LVU140
 620              		.loc 14 84 5 is_stmt 0 view .LVU141
 621              	.LBE234:
 622              	.LBE239:
 623              	.LBE243:
 624              	.LBE247:
 625              	.LBE250:
  64:../../libDaisy//src/daisy_patch_sm.h ****         ~DaisyPatchSM() {}
 626              		.loc 1 64 24 is_stmt 1 view .LVU142
 627              	.LBB251:
 628              	.LBB248:
 629              	.LBB244:
 630              	.LBB240:
 631              	.LBB235:
 632              	.LBI235:
ARM GAS  C:\Users\daniel\AppData\Local\Temp\ccmf1owZ.s 			page 30


  20:../../libDaisy//src/hid/gatein.h ****     /** GateIn~
 633              		.loc 2 20 5 view .LVU143
  20:../../libDaisy//src/hid/gatein.h ****     /** GateIn~
 634              		.loc 2 20 5 is_stmt 0 view .LVU144
 635              	.LBE235:
 636              	.LBB236:
 637              	.LBI236:
  20:../../libDaisy//src/hid/gatein.h ****     /** GateIn~
 638              		.loc 2 20 5 is_stmt 1 view .LVU145
  20:../../libDaisy//src/hid/gatein.h ****     /** GateIn~
 639              		.loc 2 20 5 is_stmt 0 view .LVU146
 640              	.LBE236:
 641              	.LBE240:
 642              	.LBE244:
   8:effect.cpp    **** Overdrive	 od;
 643              		.loc 10 8 14 view .LVU147
 644 0012 FFF7FEFF 		bl	__aeabi_atexit
 645              	.LVL35:
 646              	.LBB245:
 647              	.LBI245:
  23:../../DaisySP//Source/Effects/overdrive.h ****     ~Overdrive() {}
 648              		.loc 8 23 5 is_stmt 1 view .LVU148
  23:../../DaisySP//Source/Effects/overdrive.h ****     ~Overdrive() {}
 649              		.loc 8 23 5 is_stmt 0 view .LVU149
 650              	.LBE245:
   9:effect.cpp    **** SampleRateReducer sr;
 651              		.loc 10 9 12 view .LVU150
 652 0016 074A     		ldr	r2, .L22+4
 653 0018 0849     		ldr	r1, .L22+12
 654 001a 0948     		ldr	r0, .L22+16
 655 001c FFF7FEFF 		bl	__aeabi_atexit
 656              	.LVL36:
 657              	.LBB246:
 658              	.LBI246:
  23:../../DaisySP//Source/Effects/sampleratereducer.h ****     ~SampleRateReducer() {}
 659              		.loc 9 23 5 is_stmt 1 view .LVU151
  23:../../DaisySP//Source/Effects/sampleratereducer.h ****     ~SampleRateReducer() {}
 660              		.loc 9 23 5 is_stmt 0 view .LVU152
 661              	.LBE246:
  10:effect.cpp    **** 
 662              		.loc 10 10 19 view .LVU153
 663 0020 044A     		ldr	r2, .L22+4
 664 0022 0849     		ldr	r1, .L22+20
 665 0024 0848     		ldr	r0, .L22+24
 666              	.LBE248:
 667              	.LBE251:
 668              		.loc 10 47 1 view .LVU154
 669 0026 BDE80840 		pop	{r3, lr}
 670              		.cfi_restore 14
 671              		.cfi_restore 3
 672              		.cfi_def_cfa_offset 0
 673              	.LBB252:
 674              	.LBB249:
  10:effect.cpp    **** 
 675              		.loc 10 10 19 view .LVU155
 676 002a FFF7FEBF 		b	__aeabi_atexit
 677              	.LVL37:
ARM GAS  C:\Users\daniel\AppData\Local\Temp\ccmf1owZ.s 			page 31


 678              	.L23:
 679 002e 00BF     		.align	2
 680              	.L22:
 681 0030 00000000 		.word	.LANCHOR0
 682 0034 00000000 		.word	__dso_handle
 683 0038 00000000 		.word	_ZN5daisy8patch_sm12DaisyPatchSMD1Ev
 684 003c 00000000 		.word	_ZN7daisysp9OverdriveD1Ev
 685 0040 00000000 		.word	.LANCHOR1
 686 0044 00000000 		.word	_ZN7daisysp17SampleRateReducerD1Ev
 687 0048 00000000 		.word	.LANCHOR2
 688              	.LBE249:
 689              	.LBE252:
 690              		.cfi_endproc
 691              	.LFE5344:
 693              		.section	.init_array,"aw",%init_array
 694              		.align	2
 695 0000 00000000 		.word	_GLOBAL__sub_I_hw(target1)
 696              		.global	sr
 697              		.global	od
 698              		.global	hw
 699              		.section	.bss.hw,"aw",%nobits
 700              		.align	2
 701              		.set	.LANCHOR0,. + 0
 704              	hw:
 705 0000 00000000 		.space	464
 705      00000000 
 705      00000000 
 705      00000000 
 705      00000000 
 706              		.section	.bss.od,"aw",%nobits
 707              		.align	2
 708              		.set	.LANCHOR1,. + 0
 711              	od:
 712 0000 00000000 		.space	12
 712      00000000 
 712      00000000 
 713              		.section	.bss.sr,"aw",%nobits
 714              		.align	2
 715              		.set	.LANCHOR2,. + 0
 718              	sr:
 719 0000 00000000 		.space	20
 719      00000000 
 719      00000000 
 719      00000000 
 719      00000000 
 720              		.text
 721              	.Letext0:
 722              		.file 15 "c:\\programdata\\chocolatey\\lib\\gcc-arm-embedded\\tools\\gcc-arm-none-eabi-10-2020-q4-
 723              		.file 16 "c:\\programdata\\chocolatey\\lib\\gcc-arm-embedded\\tools\\gcc-arm-none-eabi-10-2020-q4-
 724              		.file 17 "c:\\programdata\\chocolatey\\lib\\gcc-arm-embedded\\tools\\gcc-arm-none-eabi-10-2020-q4-
 725              		.file 18 "c:\\programdata\\chocolatey\\lib\\gcc-arm-embedded\\tools\\gcc-arm-none-eabi-10-2020-q4-
 726              		.file 19 "c:\\programdata\\chocolatey\\lib\\gcc-arm-embedded\\tools\\gcc-arm-none-eabi-10-2020-q4-
 727              		.file 20 "c:\\programdata\\chocolatey\\lib\\gcc-arm-embedded\\tools\\gcc-arm-none-eabi-10-2020-q4-
 728              		.file 21 "c:\\programdata\\chocolatey\\lib\\gcc-arm-embedded\\tools\\gcc-arm-none-eabi-10-2020-q4-
 729              		.file 22 "c:\\programdata\\chocolatey\\lib\\gcc-arm-embedded\\tools\\gcc-arm-none-eabi-10-2020-q4-
 730              		.file 23 "c:\\programdata\\chocolatey\\lib\\gcc-arm-embedded\\tools\\gcc-arm-none-eabi-10-2020-q4-
 731              		.file 24 "c:\\programdata\\chocolatey\\lib\\gcc-arm-embedded\\tools\\gcc-arm-none-eabi-10-2020-q4-
ARM GAS  C:\Users\daniel\AppData\Local\Temp\ccmf1owZ.s 			page 32


 732              		.file 25 "c:\\programdata\\chocolatey\\lib\\gcc-arm-embedded\\tools\\gcc-arm-none-eabi-10-2020-q4-
 733              		.file 26 "c:\\programdata\\chocolatey\\lib\\gcc-arm-embedded\\tools\\gcc-arm-none-eabi-10-2020-q4-
 734              		.file 27 "c:\\programdata\\chocolatey\\lib\\gcc-arm-embedded\\tools\\gcc-arm-none-eabi-10-2020-q4-
 735              		.file 28 "c:\\programdata\\chocolatey\\lib\\gcc-arm-embedded\\tools\\gcc-arm-none-eabi-10-2020-q4-
 736              		.file 29 "c:\\programdata\\chocolatey\\lib\\gcc-arm-embedded\\tools\\gcc-arm-none-eabi-10-2020-q4-
 737              		.file 30 "c:\\programdata\\chocolatey\\lib\\gcc-arm-embedded\\tools\\gcc-arm-none-eabi-10-2020-q4-
 738              		.file 31 "c:\\programdata\\chocolatey\\lib\\gcc-arm-embedded\\tools\\gcc-arm-none-eabi-10-2020-q4-
 739              		.file 32 "c:\\programdata\\chocolatey\\lib\\gcc-arm-embedded\\tools\\gcc-arm-none-eabi-10-2020-q4-
 740              		.file 33 "c:\\programdata\\chocolatey\\lib\\gcc-arm-embedded\\tools\\gcc-arm-none-eabi-10-2020-q4-
 741              		.file 34 "c:\\programdata\\chocolatey\\lib\\gcc-arm-embedded\\tools\\gcc-arm-none-eabi-10-2020-q4-
 742              		.file 35 "c:\\programdata\\chocolatey\\lib\\gcc-arm-embedded\\tools\\gcc-arm-none-eabi-10-2020-q4-
 743              		.file 36 "c:\\programdata\\chocolatey\\lib\\gcc-arm-embedded\\tools\\gcc-arm-none-eabi-10-2020-q4-
 744              		.file 37 "c:\\programdata\\chocolatey\\lib\\gcc-arm-embedded\\tools\\gcc-arm-none-eabi-10-2020-q4-
 745              		.file 38 "c:\\programdata\\chocolatey\\lib\\gcc-arm-embedded\\tools\\gcc-arm-none-eabi-10-2020-q4-
 746              		.file 39 "c:\\programdata\\chocolatey\\lib\\gcc-arm-embedded\\tools\\gcc-arm-none-eabi-10-2020-q4-
 747              		.file 40 "c:\\programdata\\chocolatey\\lib\\gcc-arm-embedded\\tools\\gcc-arm-none-eabi-10-2020-q4-
 748              		.file 41 "c:\\programdata\\chocolatey\\lib\\gcc-arm-embedded\\tools\\gcc-arm-none-eabi-10-2020-q4-
 749              		.file 42 "c:\\programdata\\chocolatey\\lib\\gcc-arm-embedded\\tools\\gcc-arm-none-eabi-10-2020-q4-
 750              		.file 43 "c:\\programdata\\chocolatey\\lib\\gcc-arm-embedded\\tools\\gcc-arm-none-eabi-10-2020-q4-
 751              		.file 44 "../../libDaisy//src/daisy_core.h"
 752              		.file 45 "../../libDaisy//src/per/tim.h"
 753              		.file 46 "../../libDaisy//src/per/sai.h"
 754              		.file 47 "../../libDaisy//src/hid/ctrl.h"
 755              		.file 48 "../../libDaisy//src/util/wav_format.h"
 756              		.file 49 "../../libDaisy//src/dev/max11300.h"
 757              		.file 50 "../../libDaisy//src/per/gpio.h"
 758              		.file 51 "../../libDaisy//src/dev/sdram.h"
 759              		.file 52 "c:\\programdata\\chocolatey\\lib\\gcc-arm-embedded\\tools\\gcc-arm-none-eabi-10-2020-q4-
 760              		.file 53 "c:\\programdata\\chocolatey\\lib\\gcc-arm-embedded\\tools\\gcc-arm-none-eabi-10-2020-q4-
 761              		.file 54 "c:\\programdata\\chocolatey\\lib\\gcc-arm-embedded\\tools\\gcc-arm-none-eabi-10-2020-q4-
 762              		.file 55 "../../DaisySP//Source/Control/adenv.h"
 763              		.file 56 "c:\\programdata\\chocolatey\\lib\\gcc-arm-embedded\\tools\\gcc-arm-none-eabi-10-2020-q4-
 764              		.file 57 "c:\\programdata\\chocolatey\\lib\\gcc-arm-embedded\\tools\\gcc-arm-none-eabi-10-2020-q4-
 765              		.file 58 "<built-in>"
 766              		.file 59 "../../libDaisy//src/dev/sr_595.h"
ARM GAS  C:\Users\daniel\AppData\Local\Temp\ccmf1owZ.s 			page 33

