ARM GAS  /var/folders/hl/qgbwny5j0fd895c2c41bk3tw0000gp/T//ccOi8z5J.s 			page 1


   1              		.cpu cortex-m7
   2              		.eabi_attribute 28, 1
   3              		.eabi_attribute 20, 1
   4              		.eabi_attribute 21, 1
   5              		.eabi_attribute 23, 3
   6              		.eabi_attribute 24, 1
   7              		.eabi_attribute 25, 1
   8              		.eabi_attribute 26, 1
   9              		.eabi_attribute 30, 2
  10              		.eabi_attribute 34, 1
  11              		.eabi_attribute 18, 4
  12              		.file	"ClockTesting.cpp"
  13              		.text
  14              	.Ltext0:
  15              		.cfi_sections	.debug_frame
  16              		.section	.text._ZN5daisy6SwitchD2Ev,"axG",%progbits,_ZN5daisy6SwitchD5Ev,comdat
  17              		.align	1
  18              		.p2align 2,,3
  19              		.weak	_ZN5daisy6SwitchD2Ev
  20              		.arch armv7e-m
  21              		.syntax unified
  22              		.thumb
  23              		.thumb_func
  24              		.fpu fpv5-d16
  26              	_ZN5daisy6SwitchD2Ev:
  27              	.LVL0:
  28              	.LFB1606:
  29              		.file 1 "../../libDaisy//src/hid/switch.h"
   1:../../libDaisy//src/hid/switch.h **** #pragma once
   2:../../libDaisy//src/hid/switch.h **** #ifndef DSY_SWITCH_H
   3:../../libDaisy//src/hid/switch.h **** #define DSY_SWITCH_H
   4:../../libDaisy//src/hid/switch.h **** #include "daisy_core.h"
   5:../../libDaisy//src/hid/switch.h **** #include "per/gpio.h"
   6:../../libDaisy//src/hid/switch.h **** #include "sys/system.h"
   7:../../libDaisy//src/hid/switch.h **** 
   8:../../libDaisy//src/hid/switch.h **** namespace daisy
   9:../../libDaisy//src/hid/switch.h **** {
  10:../../libDaisy//src/hid/switch.h **** /** 
  11:../../libDaisy//src/hid/switch.h ****     Generic Class for handling momentary/latching switches \n 
  12:../../libDaisy//src/hid/switch.h ****     Inspired/influenced by Mutable Instruments (pichenettes) Switch classes
  13:../../libDaisy//src/hid/switch.h ****     @author Stephen Hensley
  14:../../libDaisy//src/hid/switch.h ****     @date December 2019
  15:../../libDaisy//src/hid/switch.h ****     @ingroup controls
  16:../../libDaisy//src/hid/switch.h **** */
  17:../../libDaisy//src/hid/switch.h **** class Switch
  18:../../libDaisy//src/hid/switch.h **** {
  19:../../libDaisy//src/hid/switch.h ****   public:
  20:../../libDaisy//src/hid/switch.h ****     /** Specifies the expected behavior of the switch */
  21:../../libDaisy//src/hid/switch.h ****     enum Type
  22:../../libDaisy//src/hid/switch.h ****     {
  23:../../libDaisy//src/hid/switch.h ****         TYPE_TOGGLE,    /**< & */
  24:../../libDaisy//src/hid/switch.h ****         TYPE_MOMENTARY, /**< & */
  25:../../libDaisy//src/hid/switch.h ****     };
  26:../../libDaisy//src/hid/switch.h ****     /** Specifies whether the pressed is HIGH or LOW. */
  27:../../libDaisy//src/hid/switch.h ****     enum Polarity
  28:../../libDaisy//src/hid/switch.h ****     {
  29:../../libDaisy//src/hid/switch.h ****         POLARITY_NORMAL,   /**< & */
ARM GAS  /var/folders/hl/qgbwny5j0fd895c2c41bk3tw0000gp/T//ccOi8z5J.s 			page 2


  30:../../libDaisy//src/hid/switch.h ****         POLARITY_INVERTED, /**< & */
  31:../../libDaisy//src/hid/switch.h ****     };
  32:../../libDaisy//src/hid/switch.h **** 
  33:../../libDaisy//src/hid/switch.h ****     /** Specifies whether to use built-in Pull Up/Down resistors to hold button at a given state wh
  34:../../libDaisy//src/hid/switch.h ****     enum Pull
  35:../../libDaisy//src/hid/switch.h ****     {
  36:../../libDaisy//src/hid/switch.h ****         PULL_UP,   /**< & */
  37:../../libDaisy//src/hid/switch.h ****         PULL_DOWN, /**< & */
  38:../../libDaisy//src/hid/switch.h ****         PULL_NONE, /**< & */
  39:../../libDaisy//src/hid/switch.h ****     };
  40:../../libDaisy//src/hid/switch.h **** 
  41:../../libDaisy//src/hid/switch.h ****     Switch() {}
  42:../../libDaisy//src/hid/switch.h ****     ~Switch() {}
  30              		.loc 1 42 5 view -0
  31              		.cfi_startproc
  32              		@ args = 0, pretend = 0, frame = 0
  33              		@ frame_needed = 0, uses_anonymous_args = 0
  34              		@ link register save eliminated.
  35              		.loc 1 42 16 is_stmt 0 view .LVU1
  36 0000 7047     		bx	lr
  37              		.cfi_endproc
  38              	.LFE1606:
  40              		.weak	_ZN5daisy6SwitchD1Ev
  41              		.thumb_set _ZN5daisy6SwitchD1Ev,_ZN5daisy6SwitchD2Ev
  42 0002 00BF     		.section	.text._ZN5daisy8patch_sm12DaisyPatchSMD2Ev,"axG",%progbits,_ZN5daisy8patch_sm12DaisyPatch
  43              		.align	1
  44              		.p2align 2,,3
  45              		.weak	_ZN5daisy8patch_sm12DaisyPatchSMD2Ev
  46              		.syntax unified
  47              		.thumb
  48              		.thumb_func
  49              		.fpu fpv5-d16
  51              	_ZN5daisy8patch_sm12DaisyPatchSMD2Ev:
  52              	.LVL1:
  53              	.LFB2529:
  54              		.file 2 "../../libDaisy//src/daisy_patch_sm.h"
   1:../../libDaisy//src/daisy_patch_sm.h **** #pragma once
   2:../../libDaisy//src/daisy_patch_sm.h **** 
   3:../../libDaisy//src/daisy_patch_sm.h **** #include "daisy.h"
   4:../../libDaisy//src/daisy_patch_sm.h **** 
   5:../../libDaisy//src/daisy_patch_sm.h **** namespace daisy
   6:../../libDaisy//src/daisy_patch_sm.h **** {
   7:../../libDaisy//src/daisy_patch_sm.h **** namespace patch_sm
   8:../../libDaisy//src/daisy_patch_sm.h **** {
   9:../../libDaisy//src/daisy_patch_sm.h ****     /** Accessors for the Analog Controls. 
  10:../../libDaisy//src/daisy_patch_sm.h ****      *  These cover the 8x Bipolar CV inputs
  11:../../libDaisy//src/daisy_patch_sm.h ****      *  as well as the 4x 0-3V3 ADC inputs on
  12:../../libDaisy//src/daisy_patch_sm.h ****      *  the hardware 
  13:../../libDaisy//src/daisy_patch_sm.h ****      * 
  14:../../libDaisy//src/daisy_patch_sm.h ****      *  When reading a value with DaisyPatchSM::GetAdcValue()
  15:../../libDaisy//src/daisy_patch_sm.h ****      * 
  16:../../libDaisy//src/daisy_patch_sm.h ****      *  patch.GetAdcValue(patch_sm::CV_1);
  17:../../libDaisy//src/daisy_patch_sm.h ****      */
  18:../../libDaisy//src/daisy_patch_sm.h ****     enum
  19:../../libDaisy//src/daisy_patch_sm.h ****     {
  20:../../libDaisy//src/daisy_patch_sm.h ****         CV_1 = 0,
  21:../../libDaisy//src/daisy_patch_sm.h ****         CV_2,
ARM GAS  /var/folders/hl/qgbwny5j0fd895c2c41bk3tw0000gp/T//ccOi8z5J.s 			page 3


  22:../../libDaisy//src/daisy_patch_sm.h ****         CV_3,
  23:../../libDaisy//src/daisy_patch_sm.h ****         CV_4,
  24:../../libDaisy//src/daisy_patch_sm.h ****         CV_5,
  25:../../libDaisy//src/daisy_patch_sm.h ****         CV_6,
  26:../../libDaisy//src/daisy_patch_sm.h ****         CV_7,
  27:../../libDaisy//src/daisy_patch_sm.h ****         CV_8,
  28:../../libDaisy//src/daisy_patch_sm.h ****         ADC_9,
  29:../../libDaisy//src/daisy_patch_sm.h ****         ADC_10,
  30:../../libDaisy//src/daisy_patch_sm.h ****         ADC_11,
  31:../../libDaisy//src/daisy_patch_sm.h ****         ADC_12,
  32:../../libDaisy//src/daisy_patch_sm.h ****         ADC_LAST,
  33:../../libDaisy//src/daisy_patch_sm.h ****     };
  34:../../libDaisy//src/daisy_patch_sm.h **** 
  35:../../libDaisy//src/daisy_patch_sm.h ****     /** Enum for addressing the CV Outputs via the WriteCvOut function. */
  36:../../libDaisy//src/daisy_patch_sm.h ****     enum
  37:../../libDaisy//src/daisy_patch_sm.h ****     {
  38:../../libDaisy//src/daisy_patch_sm.h ****         CV_OUT_BOTH = 0,
  39:../../libDaisy//src/daisy_patch_sm.h ****         CV_OUT_1,
  40:../../libDaisy//src/daisy_patch_sm.h ****         CV_OUT_2,
  41:../../libDaisy//src/daisy_patch_sm.h ****     };
  42:../../libDaisy//src/daisy_patch_sm.h **** 
  43:../../libDaisy//src/daisy_patch_sm.h **** 
  44:../../libDaisy//src/daisy_patch_sm.h ****     /** @brief Board support file for DaisyPatchSM hardware
  45:../../libDaisy//src/daisy_patch_sm.h ****      *  @author shensley
  46:../../libDaisy//src/daisy_patch_sm.h ****      *  @ingroup boards
  47:../../libDaisy//src/daisy_patch_sm.h ****      * 
  48:../../libDaisy//src/daisy_patch_sm.h ****      *  Daisy Patch SM is a complete Eurorack module DSP engine.
  49:../../libDaisy//src/daisy_patch_sm.h ****      *  Based on the Daisy Seed, with circuits added for 
  50:../../libDaisy//src/daisy_patch_sm.h ****      *  interfacing directly with eurorack modular synthesizers.
  51:../../libDaisy//src/daisy_patch_sm.h ****      */
  52:../../libDaisy//src/daisy_patch_sm.h ****     class DaisyPatchSM
  53:../../libDaisy//src/daisy_patch_sm.h ****     {
  54:../../libDaisy//src/daisy_patch_sm.h ****       public:
  55:../../libDaisy//src/daisy_patch_sm.h ****         /** Helper for mapping pins, and accessing them using the `GetPin` function */
  56:../../libDaisy//src/daisy_patch_sm.h ****         enum class PinBank
  57:../../libDaisy//src/daisy_patch_sm.h ****         {
  58:../../libDaisy//src/daisy_patch_sm.h ****             A,
  59:../../libDaisy//src/daisy_patch_sm.h ****             B,
  60:../../libDaisy//src/daisy_patch_sm.h ****             C,
  61:../../libDaisy//src/daisy_patch_sm.h ****             D
  62:../../libDaisy//src/daisy_patch_sm.h ****         };
  63:../../libDaisy//src/daisy_patch_sm.h **** 
  64:../../libDaisy//src/daisy_patch_sm.h ****         DaisyPatchSM() {}
  65:../../libDaisy//src/daisy_patch_sm.h ****         ~DaisyPatchSM() {}
  55              		.loc 2 65 9 is_stmt 1 view -0
  56              		.cfi_startproc
  57              		@ args = 0, pretend = 0, frame = 0
  58              		@ frame_needed = 0, uses_anonymous_args = 0
  59              		@ link register save eliminated.
  60              	.LBB313:
  61              	.LBI313:
  62              		.file 3 "../../libDaisy//src/hid/gatein.h"
   1:../../libDaisy//src/hid/gatein.h **** #pragma once
   2:../../libDaisy//src/hid/gatein.h **** #ifndef DSY_GATEIN_H
   3:../../libDaisy//src/hid/gatein.h **** #define DSY_GATEIN_H
   4:../../libDaisy//src/hid/gatein.h **** #include "per/gpio.h"
   5:../../libDaisy//src/hid/gatein.h **** 
ARM GAS  /var/folders/hl/qgbwny5j0fd895c2c41bk3tw0000gp/T//ccOi8z5J.s 			page 4


   6:../../libDaisy//src/hid/gatein.h **** namespace daisy
   7:../../libDaisy//src/hid/gatein.h **** {
   8:../../libDaisy//src/hid/gatein.h **** /**
   9:../../libDaisy//src/hid/gatein.h ****    @brief Generic Class for handling gate inputs through GPIO.
  10:../../libDaisy//src/hid/gatein.h ****    @author Stephen Hensley
  11:../../libDaisy//src/hid/gatein.h ****    @date    March 2020
  12:../../libDaisy//src/hid/gatein.h ****    @ingroup controls
  13:../../libDaisy//src/hid/gatein.h **** */
  14:../../libDaisy//src/hid/gatein.h **** class GateIn
  15:../../libDaisy//src/hid/gatein.h **** {
  16:../../libDaisy//src/hid/gatein.h ****   public:
  17:../../libDaisy//src/hid/gatein.h ****     /** GateIn 
  18:../../libDaisy//src/hid/gatein.h ****     Constructor 
  19:../../libDaisy//src/hid/gatein.h ****     */
  20:../../libDaisy//src/hid/gatein.h ****     GateIn() {}
  21:../../libDaisy//src/hid/gatein.h ****     /** GateIn~
  22:../../libDaisy//src/hid/gatein.h ****     Destructor 
  23:../../libDaisy//src/hid/gatein.h ****     */
  24:../../libDaisy//src/hid/gatein.h ****     ~GateIn() {}
  63              		.loc 3 24 5 view .LVU3
  64              		.loc 3 24 5 is_stmt 0 view .LVU4
  65              	.LBE313:
  66              	.LBB314:
  67              	.LBI314:
  68              		.loc 3 24 5 is_stmt 1 view .LVU5
  69              		.loc 3 24 5 is_stmt 0 view .LVU6
  70              	.LBE314:
  71              	.LBB315:
  72              	.LBI315:
  73              		.file 4 "../../libDaisy//src/dev/codec_pcm3060.h"
   1:../../libDaisy//src/dev/codec_pcm3060.h **** #pragma once
   2:../../libDaisy//src/dev/codec_pcm3060.h **** #ifndef DSY_CODEC_PCM3060_H
   3:../../libDaisy//src/dev/codec_pcm3060.h **** #define DSY_CODEC_PCM3060_H
   4:../../libDaisy//src/dev/codec_pcm3060.h **** #include "per/i2c.h"
   5:../../libDaisy//src/dev/codec_pcm3060.h **** namespace daisy
   6:../../libDaisy//src/dev/codec_pcm3060.h **** {
   7:../../libDaisy//src/dev/codec_pcm3060.h **** /**
   8:../../libDaisy//src/dev/codec_pcm3060.h ****  * @brief Driver for the TI PCM3060 Audio Codec.
   9:../../libDaisy//src/dev/codec_pcm3060.h ****  * @addtogroup codec
  10:../../libDaisy//src/dev/codec_pcm3060.h ****  * 
  11:../../libDaisy//src/dev/codec_pcm3060.h ****  * For now this is a limited interface that uses I2C to communicate with the PCM3060
  12:../../libDaisy//src/dev/codec_pcm3060.h ****  * The device can also be accessed with SPI, which is not yet supported.
  13:../../libDaisy//src/dev/codec_pcm3060.h ****  * 
  14:../../libDaisy//src/dev/codec_pcm3060.h ****  * For now all registers are set to their defaults, and the Init function will 
  15:../../libDaisy//src/dev/codec_pcm3060.h ****  * perform a MRST and SRST before setting the format to 24bit LJ, and disabling 
  16:../../libDaisy//src/dev/codec_pcm3060.h ****  * power save for both the ADC and DAC.
  17:../../libDaisy//src/dev/codec_pcm3060.h ****  *
  18:../../libDaisy//src/dev/codec_pcm3060.h ****  */
  19:../../libDaisy//src/dev/codec_pcm3060.h **** class Pcm3060
  20:../../libDaisy//src/dev/codec_pcm3060.h **** {
  21:../../libDaisy//src/dev/codec_pcm3060.h ****   public:
  22:../../libDaisy//src/dev/codec_pcm3060.h ****     enum class Result
  23:../../libDaisy//src/dev/codec_pcm3060.h ****     {
  24:../../libDaisy//src/dev/codec_pcm3060.h ****         OK,
  25:../../libDaisy//src/dev/codec_pcm3060.h ****         ERR,
  26:../../libDaisy//src/dev/codec_pcm3060.h ****     };
  27:../../libDaisy//src/dev/codec_pcm3060.h **** 
ARM GAS  /var/folders/hl/qgbwny5j0fd895c2c41bk3tw0000gp/T//ccOi8z5J.s 			page 5


  28:../../libDaisy//src/dev/codec_pcm3060.h ****     Pcm3060() {}
  29:../../libDaisy//src/dev/codec_pcm3060.h ****     ~Pcm3060() {}
  74              		.loc 4 29 5 is_stmt 1 view .LVU7
  75              		.loc 4 29 5 is_stmt 0 view .LVU8
  76              	.LBE315:
  77              	.LBB316:
  78              	.LBI316:
  79              		.file 5 "../../libDaisy//src/hid/usb.h"
   1:../../libDaisy//src/hid/usb.h **** #pragma once
   2:../../libDaisy//src/hid/usb.h **** #ifndef DSY_HID_USB_H
   3:../../libDaisy//src/hid/usb.h **** #define DSY_HID_USB_H
   4:../../libDaisy//src/hid/usb.h **** #include <stdint.h>
   5:../../libDaisy//src/hid/usb.h **** #include <stdlib.h>
   6:../../libDaisy//src/hid/usb.h **** 
   7:../../libDaisy//src/hid/usb.h **** namespace daisy
   8:../../libDaisy//src/hid/usb.h **** /** @addtogroup human_interface
   9:../../libDaisy//src/hid/usb.h ****     @{
  10:../../libDaisy//src/hid/usb.h **** */
  11:../../libDaisy//src/hid/usb.h **** 
  12:../../libDaisy//src/hid/usb.h **** {
  13:../../libDaisy//src/hid/usb.h **** /** 
  14:../../libDaisy//src/hid/usb.h ****     @brief Interface for initializing and using the USB Peripherals on the daisy
  15:../../libDaisy//src/hid/usb.h ****     @author Stephen Hensley
  16:../../libDaisy//src/hid/usb.h ****     @date December 2019
  17:../../libDaisy//src/hid/usb.h **** */
  18:../../libDaisy//src/hid/usb.h **** class UsbHandle
  19:../../libDaisy//src/hid/usb.h **** {
  20:../../libDaisy//src/hid/usb.h ****   public:
  21:../../libDaisy//src/hid/usb.h ****     /** Return values for USBHandle Functions */
  22:../../libDaisy//src/hid/usb.h ****     enum class Result
  23:../../libDaisy//src/hid/usb.h ****     {
  24:../../libDaisy//src/hid/usb.h ****         OK,
  25:../../libDaisy//src/hid/usb.h ****         ERR,
  26:../../libDaisy//src/hid/usb.h ****     };
  27:../../libDaisy//src/hid/usb.h **** 
  28:../../libDaisy//src/hid/usb.h ****     /** Specified which of the two USB Peripherals to initialize. */
  29:../../libDaisy//src/hid/usb.h ****     enum UsbPeriph
  30:../../libDaisy//src/hid/usb.h ****     {
  31:../../libDaisy//src/hid/usb.h ****         FS_INTERNAL, /**< Internal pin */
  32:../../libDaisy//src/hid/usb.h ****         FS_EXTERNAL, /**< FS External D+ pin is Pin 38 (GPIO32). FS External D- pin is Pin 37 (GPIO
  33:../../libDaisy//src/hid/usb.h ****         FS_BOTH,     /**< Both */
  34:../../libDaisy//src/hid/usb.h ****     };
  35:../../libDaisy//src/hid/usb.h **** 
  36:../../libDaisy//src/hid/usb.h **** 
  37:../../libDaisy//src/hid/usb.h ****     /** Function called upon reception of a buffer */
  38:../../libDaisy//src/hid/usb.h ****     typedef void (*ReceiveCallback)(uint8_t* buff, uint32_t* len);
  39:../../libDaisy//src/hid/usb.h **** 
  40:../../libDaisy//src/hid/usb.h ****     UsbHandle() {}
  41:../../libDaisy//src/hid/usb.h **** 
  42:../../libDaisy//src/hid/usb.h ****     ~UsbHandle() {}
  80              		.loc 5 42 5 is_stmt 1 view .LVU9
  81              		.loc 5 42 5 is_stmt 0 view .LVU10
  82              	.LBE316:
  83              	.LBB317:
  84              	.LBI317:
  85              		.file 6 "../../libDaisy//src/per/adc.h"
   1:../../libDaisy//src/per/adc.h **** #pragma once
ARM GAS  /var/folders/hl/qgbwny5j0fd895c2c41bk3tw0000gp/T//ccOi8z5J.s 			page 6


   2:../../libDaisy//src/per/adc.h **** #ifndef DSY_ADC_H
   3:../../libDaisy//src/per/adc.h **** #define DSY_ADC_H /**< Macro */
   4:../../libDaisy//src/per/adc.h **** #include <stdint.h>
   5:../../libDaisy//src/per/adc.h **** #include <stdlib.h>
   6:../../libDaisy//src/per/adc.h **** #include "daisy_core.h"
   7:../../libDaisy//src/per/adc.h **** #include "per/gpio.h"
   8:../../libDaisy//src/per/adc.h **** 
   9:../../libDaisy//src/per/adc.h **** #define DSY_ADC_MAX_CHANNELS 16 /**< Maximum number of ADC channels */
  10:../../libDaisy//src/per/adc.h **** 
  11:../../libDaisy//src/per/adc.h **** namespace daisy
  12:../../libDaisy//src/per/adc.h **** {
  13:../../libDaisy//src/per/adc.h **** /** @addtogroup per_analog
  14:../../libDaisy//src/per/adc.h ****     @{
  15:../../libDaisy//src/per/adc.h **** */
  16:../../libDaisy//src/per/adc.h **** 
  17:../../libDaisy//src/per/adc.h **** /* While there may not be many configuration options here,
  18:../../libDaisy//src/per/adc.h **** using a struct like this allows us to add more configuration
  19:../../libDaisy//src/per/adc.h **** later without breaking existing functionality.
  20:../../libDaisy//src/per/adc.h **** */
  21:../../libDaisy//src/per/adc.h **** 
  22:../../libDaisy//src/per/adc.h **** /** @brief   Configuration Structure for an ADC Channel 
  23:../../libDaisy//src/per/adc.h ****  *  @details This can be used to configure a a single input, 
  24:../../libDaisy//src/per/adc.h ****  *           or a multiplexed input, allowing up to 8 inputs on 
  25:../../libDaisy//src/per/adc.h ****  *           one channel.
  26:../../libDaisy//src/per/adc.h ****  *  @note    Sharing data lines to multiple muxes _is_ possible, but
  27:../../libDaisy//src/per/adc.h ****  *           each channel sharing data lines must be set to the maximum
  28:../../libDaisy//src/per/adc.h ****  *           number of channels, even if some multiplexers have fewer
  29:../../libDaisy//src/per/adc.h ****  *           inputs connected.
  30:../../libDaisy//src/per/adc.h **** */
  31:../../libDaisy//src/per/adc.h **** struct AdcChannelConfig
  32:../../libDaisy//src/per/adc.h **** {
  33:../../libDaisy//src/per/adc.h ****     /** Which pin to use for multiplexing */
  34:../../libDaisy//src/per/adc.h ****     enum MuxPin
  35:../../libDaisy//src/per/adc.h ****     {
  36:../../libDaisy//src/per/adc.h ****         MUX_SEL_0,    /**< & */
  37:../../libDaisy//src/per/adc.h ****         MUX_SEL_1,    /**< & */
  38:../../libDaisy//src/per/adc.h ****         MUX_SEL_2,    /**< & */
  39:../../libDaisy//src/per/adc.h ****         MUX_SEL_LAST, /**< & */
  40:../../libDaisy//src/per/adc.h ****     };
  41:../../libDaisy//src/per/adc.h **** 
  42:../../libDaisy//src/per/adc.h ****     /** Initializes a single ADC pin as an ADC. 
  43:../../libDaisy//src/per/adc.h ****     \param pin Pin to init.
  44:../../libDaisy//src/per/adc.h ****      */
  45:../../libDaisy//src/per/adc.h ****     void InitSingle(dsy_gpio_pin pin);
  46:../../libDaisy//src/per/adc.h **** 
  47:../../libDaisy//src/per/adc.h ****     /** 
  48:../../libDaisy//src/per/adc.h ****     Initializes a single ADC pin as a Multiplexed ADC.
  49:../../libDaisy//src/per/adc.h ****     Requires a CD405X Multiplexer connected to the pin.
  50:../../libDaisy//src/per/adc.h ****     You only need to supply the mux pins that are required,
  51:../../libDaisy//src/per/adc.h ****     e.g. a 4052 mux would only require mux_0 and mux_1.
  52:../../libDaisy//src/per/adc.h ****     Internal Callbacks handle the pin addressing.
  53:../../libDaisy//src/per/adc.h ****     \param mux_channels must be 1-8
  54:../../libDaisy//src/per/adc.h ****     \param mux_0 First mux pin
  55:../../libDaisy//src/per/adc.h ****     \param mux_1 Second mux pin
  56:../../libDaisy//src/per/adc.h ****     \param mux_2 Third mux pin
  57:../../libDaisy//src/per/adc.h ****     \param adc_pin &
  58:../../libDaisy//src/per/adc.h ****     */
ARM GAS  /var/folders/hl/qgbwny5j0fd895c2c41bk3tw0000gp/T//ccOi8z5J.s 			page 7


  59:../../libDaisy//src/per/adc.h ****     void InitMux(dsy_gpio_pin adc_pin,
  60:../../libDaisy//src/per/adc.h ****                  size_t       mux_channels,
  61:../../libDaisy//src/per/adc.h ****                  dsy_gpio_pin mux_0,
  62:../../libDaisy//src/per/adc.h ****                  dsy_gpio_pin mux_1 = {DSY_GPIOX, 0},
  63:../../libDaisy//src/per/adc.h ****                  dsy_gpio_pin mux_2 = {DSY_GPIOX, 0});
  64:../../libDaisy//src/per/adc.h **** 
  65:../../libDaisy//src/per/adc.h ****     dsy_gpio pin_;                   /**< & */
  66:../../libDaisy//src/per/adc.h ****     dsy_gpio mux_pin_[MUX_SEL_LAST]; /**< & */
  67:../../libDaisy//src/per/adc.h ****     uint8_t  mux_channels_;          /**< & */
  68:../../libDaisy//src/per/adc.h **** };
  69:../../libDaisy//src/per/adc.h **** 
  70:../../libDaisy//src/per/adc.h **** /**
  71:../../libDaisy//src/per/adc.h ****    @brief Handler for analog to digital conversion
  72:../../libDaisy//src/per/adc.h **** */
  73:../../libDaisy//src/per/adc.h **** class AdcHandle
  74:../../libDaisy//src/per/adc.h **** {
  75:../../libDaisy//src/per/adc.h ****   public:
  76:../../libDaisy//src/per/adc.h ****     /** Supported oversampling amounts */
  77:../../libDaisy//src/per/adc.h ****     enum OverSampling
  78:../../libDaisy//src/per/adc.h ****     {
  79:../../libDaisy//src/per/adc.h ****         OVS_NONE, /**< & */
  80:../../libDaisy//src/per/adc.h ****         OVS_4,    /**< & */
  81:../../libDaisy//src/per/adc.h ****         OVS_8,    /**< & */
  82:../../libDaisy//src/per/adc.h ****         OVS_16,   /**< & */
  83:../../libDaisy//src/per/adc.h ****         OVS_32,   /**< & */
  84:../../libDaisy//src/per/adc.h ****         OVS_64,   /**< & */
  85:../../libDaisy//src/per/adc.h ****         OVS_128,  /**< & */
  86:../../libDaisy//src/per/adc.h ****         OVS_256,  /**< & */
  87:../../libDaisy//src/per/adc.h ****         OVS_512,  /**< & */
  88:../../libDaisy//src/per/adc.h ****         OVS_1024, /**< & */
  89:../../libDaisy//src/per/adc.h ****         OVS_LAST, /**< & */
  90:../../libDaisy//src/per/adc.h ****     };
  91:../../libDaisy//src/per/adc.h **** 
  92:../../libDaisy//src/per/adc.h ****     AdcHandle() {}
  93:../../libDaisy//src/per/adc.h ****     ~AdcHandle() {}
  86              		.loc 6 93 5 is_stmt 1 view .LVU11
  87              		.loc 6 93 5 is_stmt 0 view .LVU12
  88              	.LBE317:
  89              	.LBB318:
  90              	.LBI318:
  91              		.file 7 "../../libDaisy//src/hid/audio.h"
   1:../../libDaisy//src/hid/audio.h **** #ifndef DSY_AUDIO_H
   2:../../libDaisy//src/hid/audio.h **** #define DSY_AUDIO_H /**< & */
   3:../../libDaisy//src/hid/audio.h **** 
   4:../../libDaisy//src/hid/audio.h **** #include "per/sai.h"
   5:../../libDaisy//src/hid/audio.h **** 
   6:../../libDaisy//src/hid/audio.h **** namespace daisy
   7:../../libDaisy//src/hid/audio.h **** {
   8:../../libDaisy//src/hid/audio.h **** /** @brief Audio Engine Handle
   9:../../libDaisy//src/hid/audio.h ****  *  @ingroup audio 
  10:../../libDaisy//src/hid/audio.h ****  *  @details This class allows for higher level access to an audio engine.
  11:../../libDaisy//src/hid/audio.h ****  *           If you're using a SOM like the DaisySeed or DaisyPatchSM (or any 
  12:../../libDaisy//src/hid/audio.h ****  *            board that includes one of those objects) then the intialization
  13:../../libDaisy//src/hid/audio.h ****  *            is already taken  care of.
  14:../../libDaisy//src/hid/audio.h ****  *           If you're setting up your own custom hardware, or need to make changes
  15:../../libDaisy//src/hid/audio.h ****  *           you will have to take the following steps:
  16:../../libDaisy//src/hid/audio.h ****  *             1. Create and Initialize an SaiHandle or two depending on your requirements
ARM GAS  /var/folders/hl/qgbwny5j0fd895c2c41bk3tw0000gp/T//ccOi8z5J.s 			page 8


  17:../../libDaisy//src/hid/audio.h ****  *             2. Initialize the Audio Handle with the desired settings and the Initialized SaiHand
  18:../../libDaisy//src/hid/audio.h ****  *             3. If the connected codec requires special configuration or initialization, do so
  19:../../libDaisy//src/hid/audio.h ****  *             4. Write a callback method using either the AudioCallback or the InterleavingAudioCa
  20:../../libDaisy//src/hid/audio.h ****  *             5. Start the Audio using one of the StartAudio function
  21:../../libDaisy//src/hid/audio.h ****  */
  22:../../libDaisy//src/hid/audio.h **** class AudioHandle
  23:../../libDaisy//src/hid/audio.h **** {
  24:../../libDaisy//src/hid/audio.h ****   public:
  25:../../libDaisy//src/hid/audio.h ****     /** Manually configurable details about the Audio Engine */
  26:../../libDaisy//src/hid/audio.h ****     /** TODO: Figure out how to get samplerate in here. */
  27:../../libDaisy//src/hid/audio.h ****     struct Config
  28:../../libDaisy//src/hid/audio.h ****     {
  29:../../libDaisy//src/hid/audio.h ****         /** number of samples to process per callback */
  30:../../libDaisy//src/hid/audio.h ****         size_t blocksize;
  31:../../libDaisy//src/hid/audio.h **** 
  32:../../libDaisy//src/hid/audio.h ****         /**< Sample rate of audio */
  33:../../libDaisy//src/hid/audio.h ****         SaiHandle::Config::SampleRate samplerate;
  34:../../libDaisy//src/hid/audio.h **** 
  35:../../libDaisy//src/hid/audio.h ****         /** factor for adjustment before and after callback for hardware that may have extra headro
  36:../../libDaisy//src/hid/audio.h ****         float postgain;
  37:../../libDaisy//src/hid/audio.h **** 
  38:../../libDaisy//src/hid/audio.h ****         /** factor for additional one-sided compensation to audio path for hardware that may
  39:../../libDaisy//src/hid/audio.h ****          *  have unequal input/output ranges
  40:../../libDaisy//src/hid/audio.h ****          */
  41:../../libDaisy//src/hid/audio.h ****         float output_compensation;
  42:../../libDaisy//src/hid/audio.h **** 
  43:../../libDaisy//src/hid/audio.h ****         /** Sets default values for config struct */
  44:../../libDaisy//src/hid/audio.h ****         Config()
  45:../../libDaisy//src/hid/audio.h ****         : blocksize(48),
  46:../../libDaisy//src/hid/audio.h ****           samplerate(SaiHandle::Config::SampleRate::SAI_48KHZ),
  47:../../libDaisy//src/hid/audio.h ****           postgain(1.f),
  48:../../libDaisy//src/hid/audio.h ****           output_compensation(1.f)
  49:../../libDaisy//src/hid/audio.h ****         {
  50:../../libDaisy//src/hid/audio.h ****         }
  51:../../libDaisy//src/hid/audio.h ****     };
  52:../../libDaisy//src/hid/audio.h **** 
  53:../../libDaisy//src/hid/audio.h ****     enum class Result
  54:../../libDaisy//src/hid/audio.h ****     {
  55:../../libDaisy//src/hid/audio.h ****         OK,
  56:../../libDaisy//src/hid/audio.h ****         ERR,
  57:../../libDaisy//src/hid/audio.h ****     };
  58:../../libDaisy//src/hid/audio.h **** 
  59:../../libDaisy//src/hid/audio.h ****     /** Non-Interleaving input buffer
  60:../../libDaisy//src/hid/audio.h ****      * Buffer arranged by float[chn][sample] 
  61:../../libDaisy//src/hid/audio.h ****      * const so that the user can't modify the input
  62:../../libDaisy//src/hid/audio.h ****      */
  63:../../libDaisy//src/hid/audio.h ****     typedef const float* const* InputBuffer;
  64:../../libDaisy//src/hid/audio.h **** 
  65:../../libDaisy//src/hid/audio.h ****     /** Non-Interleaving output buffer
  66:../../libDaisy//src/hid/audio.h ****      * Arranged by float[chn][sample] 
  67:../../libDaisy//src/hid/audio.h ****      */
  68:../../libDaisy//src/hid/audio.h ****     typedef float** OutputBuffer;
  69:../../libDaisy//src/hid/audio.h **** 
  70:../../libDaisy//src/hid/audio.h ****     /** Type for a Non-Interleaving audio callback 
  71:../../libDaisy//src/hid/audio.h ****      * Non-Interleaving audio callbacks in daisy will be of this type
  72:../../libDaisy//src/hid/audio.h ****      */
  73:../../libDaisy//src/hid/audio.h ****     typedef void (*AudioCallback)(InputBuffer  in,
ARM GAS  /var/folders/hl/qgbwny5j0fd895c2c41bk3tw0000gp/T//ccOi8z5J.s 			page 9


  74:../../libDaisy//src/hid/audio.h ****                                   OutputBuffer out,
  75:../../libDaisy//src/hid/audio.h ****                                   size_t       size);
  76:../../libDaisy//src/hid/audio.h **** 
  77:../../libDaisy//src/hid/audio.h ****     /** Interleaving Input buffer
  78:../../libDaisy//src/hid/audio.h ****      ** audio is prepared as { L0, R0, L1, R1, . . . LN, RN }]
  79:../../libDaisy//src/hid/audio.h ****      ** this is const, as the user shouldn't modify it
  80:../../libDaisy//src/hid/audio.h ****     */
  81:../../libDaisy//src/hid/audio.h ****     typedef const float* InterleavingInputBuffer;
  82:../../libDaisy//src/hid/audio.h **** 
  83:../../libDaisy//src/hid/audio.h ****     /** Interleaving Output buffer 
  84:../../libDaisy//src/hid/audio.h ****      ** audio is prepared as { L0, R0, L1, R1, . . . LN, RN }
  85:../../libDaisy//src/hid/audio.h ****     */
  86:../../libDaisy//src/hid/audio.h ****     typedef float* InterleavingOutputBuffer;
  87:../../libDaisy//src/hid/audio.h **** 
  88:../../libDaisy//src/hid/audio.h ****     /** Interleaving Audio Callback 
  89:../../libDaisy//src/hid/audio.h ****      * Interleaving audio callbacks in daisy must be of this type
  90:../../libDaisy//src/hid/audio.h ****      */
  91:../../libDaisy//src/hid/audio.h ****     typedef void (*InterleavingAudioCallback)(InterleavingInputBuffer  in,
  92:../../libDaisy//src/hid/audio.h ****                                               InterleavingOutputBuffer out,
  93:../../libDaisy//src/hid/audio.h ****                                               size_t                   size);
  94:../../libDaisy//src/hid/audio.h **** 
  95:../../libDaisy//src/hid/audio.h ****     AudioHandle() : pimpl_(nullptr) {}
  96:../../libDaisy//src/hid/audio.h ****     ~AudioHandle() {}
  92              		.loc 7 96 5 is_stmt 1 view .LVU13
  93              		.loc 7 96 5 is_stmt 0 view .LVU14
  94              	.LBE318:
  95              	.LBB319:
  96              	.LBI319:
  97              		.file 8 "../../libDaisy//src/sys/system.h"
   1:../../libDaisy//src/sys/system.h **** #ifndef DSY_SYSTEM_H
   2:../../libDaisy//src/sys/system.h **** #define DSY_SYSTEM_H
   3:../../libDaisy//src/sys/system.h **** 
   4:../../libDaisy//src/sys/system.h **** #ifndef UNIT_TEST // for unit tests, a dummy implementation is provided below
   5:../../libDaisy//src/sys/system.h **** 
   6:../../libDaisy//src/sys/system.h **** #include <cstdint>
   7:../../libDaisy//src/sys/system.h **** #include "per/tim.h"
   8:../../libDaisy//src/sys/system.h **** 
   9:../../libDaisy//src/sys/system.h **** namespace daisy
  10:../../libDaisy//src/sys/system.h **** {
  11:../../libDaisy//src/sys/system.h **** /** A handle for interacting with the Core System. 
  12:../../libDaisy//src/sys/system.h ****  ** This includes the Clock tree, MPU, global DMA initialization,
  13:../../libDaisy//src/sys/system.h ****  ** cache handling, and any other necessary global initiailzation
  14:../../libDaisy//src/sys/system.h ****  **
  15:../../libDaisy//src/sys/system.h ****  ** @author shensley
  16:../../libDaisy//src/sys/system.h ****  ** @ingroup system
  17:../../libDaisy//src/sys/system.h ****  */
  18:../../libDaisy//src/sys/system.h **** class System
  19:../../libDaisy//src/sys/system.h **** {
  20:../../libDaisy//src/sys/system.h ****   public:
  21:../../libDaisy//src/sys/system.h ****     /** Contains settings for initializing the System */
  22:../../libDaisy//src/sys/system.h ****     struct Config
  23:../../libDaisy//src/sys/system.h ****     {
  24:../../libDaisy//src/sys/system.h ****         /** Specifies the system clock frequency that feeds APB/AHB clocks, etc. */
  25:../../libDaisy//src/sys/system.h ****         enum class SysClkFreq
  26:../../libDaisy//src/sys/system.h ****         {
  27:../../libDaisy//src/sys/system.h ****             FREQ_400MHZ,
  28:../../libDaisy//src/sys/system.h ****             FREQ_480MHZ,
ARM GAS  /var/folders/hl/qgbwny5j0fd895c2c41bk3tw0000gp/T//ccOi8z5J.s 			page 10


  29:../../libDaisy//src/sys/system.h ****         };
  30:../../libDaisy//src/sys/system.h **** 
  31:../../libDaisy//src/sys/system.h ****         /** Method to call on the struct to set to defaults
  32:../../libDaisy//src/sys/system.h ****          ** CPU Freq set to 400MHz
  33:../../libDaisy//src/sys/system.h ****          ** Cache Enabled 
  34:../../libDaisy//src/sys/system.h ****          ** */
  35:../../libDaisy//src/sys/system.h ****         void Defaults()
  36:../../libDaisy//src/sys/system.h ****         {
  37:../../libDaisy//src/sys/system.h ****             cpu_freq    = SysClkFreq::FREQ_400MHZ;
  38:../../libDaisy//src/sys/system.h ****             use_dcache  = true;
  39:../../libDaisy//src/sys/system.h ****             use_icache  = true;
  40:../../libDaisy//src/sys/system.h ****             skip_clocks = false;
  41:../../libDaisy//src/sys/system.h ****         }
  42:../../libDaisy//src/sys/system.h **** 
  43:../../libDaisy//src/sys/system.h ****         /** Method to call on the struct to set to boost mode:
  44:../../libDaisy//src/sys/system.h ****          ** CPU Freq set to 480MHz
  45:../../libDaisy//src/sys/system.h ****          ** Cache Enabled 
  46:../../libDaisy//src/sys/system.h ****          ** */
  47:../../libDaisy//src/sys/system.h ****         void Boost()
  48:../../libDaisy//src/sys/system.h ****         {
  49:../../libDaisy//src/sys/system.h ****             cpu_freq    = SysClkFreq::FREQ_480MHZ;
  50:../../libDaisy//src/sys/system.h ****             use_dcache  = true;
  51:../../libDaisy//src/sys/system.h ****             use_icache  = true;
  52:../../libDaisy//src/sys/system.h ****             skip_clocks = false;
  53:../../libDaisy//src/sys/system.h ****         }
  54:../../libDaisy//src/sys/system.h **** 
  55:../../libDaisy//src/sys/system.h ****         SysClkFreq cpu_freq;
  56:../../libDaisy//src/sys/system.h ****         bool       use_dcache;
  57:../../libDaisy//src/sys/system.h ****         bool       use_icache;
  58:../../libDaisy//src/sys/system.h ****         bool       skip_clocks;
  59:../../libDaisy//src/sys/system.h ****     };
  60:../../libDaisy//src/sys/system.h **** 
  61:../../libDaisy//src/sys/system.h ****     /** Describes the different regions of memory available to the Daisy
  62:../../libDaisy//src/sys/system.h ****      * 
  63:../../libDaisy//src/sys/system.h ****      */
  64:../../libDaisy//src/sys/system.h ****     enum MemoryRegion
  65:../../libDaisy//src/sys/system.h ****     {
  66:../../libDaisy//src/sys/system.h ****         INTERNAL_FLASH = 0,
  67:../../libDaisy//src/sys/system.h ****         ITCMRAM,
  68:../../libDaisy//src/sys/system.h ****         DTCMRAM,
  69:../../libDaisy//src/sys/system.h ****         SRAM_D1,
  70:../../libDaisy//src/sys/system.h ****         SRAM_D2,
  71:../../libDaisy//src/sys/system.h ****         SRAM_D3,
  72:../../libDaisy//src/sys/system.h ****         SDRAM,
  73:../../libDaisy//src/sys/system.h ****         QSPI,
  74:../../libDaisy//src/sys/system.h ****         INVALID_ADDRESS,
  75:../../libDaisy//src/sys/system.h ****     };
  76:../../libDaisy//src/sys/system.h **** 
  77:../../libDaisy//src/sys/system.h ****     System() {}
  78:../../libDaisy//src/sys/system.h ****     ~System() {}
  98              		.loc 8 78 5 is_stmt 1 view .LVU15
  99              		.loc 8 78 5 is_stmt 0 view .LVU16
 100              	.LBE319:
 101              		.loc 2 65 26 view .LVU17
 102 0000 7047     		bx	lr
 103              		.cfi_endproc
 104              	.LFE2529:
ARM GAS  /var/folders/hl/qgbwny5j0fd895c2c41bk3tw0000gp/T//ccOi8z5J.s 			page 11


 106              		.weak	_ZN5daisy8patch_sm12DaisyPatchSMD1Ev
 107              		.thumb_set _ZN5daisy8patch_sm12DaisyPatchSMD1Ev,_ZN5daisy8patch_sm12DaisyPatchSMD2Ev
 108 0002 00BF     		.section	.text._Z13AudioCallbackPKPKfPPfj,"ax",%progbits
 109              		.align	1
 110              		.p2align 2,,3
 111              		.global	_Z13AudioCallbackPKPKfPPfj
 112              		.syntax unified
 113              		.thumb
 114              		.thumb_func
 115              		.fpu fpv5-d16
 117              	_Z13AudioCallbackPKPKfPPfj:
 118              	.LVL2:
 119              	.LFB4802:
 120              		.file 9 "ClockTesting.cpp"
   1:ClockTesting.cpp **** #include "daisy_patch_sm.h"
   2:ClockTesting.cpp **** #include "daisysp.h"
   3:ClockTesting.cpp **** #include "daisy_bed.h"
   4:ClockTesting.cpp **** #include "clock_util.h"
   5:ClockTesting.cpp **** 
   6:ClockTesting.cpp **** 
   7:ClockTesting.cpp **** using namespace daisy;
   8:ClockTesting.cpp **** using namespace patch_sm;
   9:ClockTesting.cpp **** using namespace daisysp;
  10:ClockTesting.cpp **** 
  11:ClockTesting.cpp **** DaisyPatchSM hw;
  12:ClockTesting.cpp **** ClockUtils	 util;
  13:ClockTesting.cpp **** float freq;
  14:ClockTesting.cpp **** bool tic;
  15:ClockTesting.cpp **** uint32_t period;
  16:ClockTesting.cpp **** 
  17:ClockTesting.cpp **** void AudioCallback(AudioHandle::InputBuffer in, AudioHandle::OutputBuffer out, size_t size)
  18:ClockTesting.cpp **** {
 121              		.loc 9 18 1 is_stmt 1 view -0
 122              		.cfi_startproc
 123              		@ args = 0, pretend = 0, frame = 0
 124              		@ frame_needed = 0, uses_anonymous_args = 0
  19:ClockTesting.cpp **** 	hw.ProcessAllControls();
 125              		.loc 9 19 2 view .LVU19
 126              	.LBB320:
 127              	.LBI320:
  66:../../libDaisy//src/daisy_patch_sm.h **** 
  67:../../libDaisy//src/daisy_patch_sm.h ****         /** Initializes the memories, and core peripherals for the Daisy Patch SM */
  68:../../libDaisy//src/daisy_patch_sm.h ****         void Init();
  69:../../libDaisy//src/daisy_patch_sm.h **** 
  70:../../libDaisy//src/daisy_patch_sm.h ****         /** Starts a non-interleaving audio callback */
  71:../../libDaisy//src/daisy_patch_sm.h ****         void StartAudio(AudioHandle::AudioCallback cb);
  72:../../libDaisy//src/daisy_patch_sm.h **** 
  73:../../libDaisy//src/daisy_patch_sm.h ****         /** Starts an interleaving audio callback */
  74:../../libDaisy//src/daisy_patch_sm.h ****         void StartAudio(AudioHandle::InterleavingAudioCallback cb);
  75:../../libDaisy//src/daisy_patch_sm.h **** 
  76:../../libDaisy//src/daisy_patch_sm.h ****         /** Changes the callback that is executing.
  77:../../libDaisy//src/daisy_patch_sm.h ****          *  This may cause clicks if done while audio is processing.
  78:../../libDaisy//src/daisy_patch_sm.h ****          */
  79:../../libDaisy//src/daisy_patch_sm.h ****         void ChangeAudioCallback(AudioHandle::AudioCallback cb);
  80:../../libDaisy//src/daisy_patch_sm.h **** 
  81:../../libDaisy//src/daisy_patch_sm.h ****         /** Changes the callback that is executing.
  82:../../libDaisy//src/daisy_patch_sm.h ****          *  This may cause clicks if done while audio is processing.
ARM GAS  /var/folders/hl/qgbwny5j0fd895c2c41bk3tw0000gp/T//ccOi8z5J.s 			page 12


  83:../../libDaisy//src/daisy_patch_sm.h ****          */
  84:../../libDaisy//src/daisy_patch_sm.h ****         void ChangeAudioCallback(AudioHandle::InterleavingAudioCallback cb);
  85:../../libDaisy//src/daisy_patch_sm.h **** 
  86:../../libDaisy//src/daisy_patch_sm.h ****         /** Stops the transmission of audio. */
  87:../../libDaisy//src/daisy_patch_sm.h ****         void StopAudio();
  88:../../libDaisy//src/daisy_patch_sm.h **** 
  89:../../libDaisy//src/daisy_patch_sm.h ****         /** Sets the number of samples processed in an audio callback. 
  90:../../libDaisy//src/daisy_patch_sm.h ****          *  This will only take effect on the next invocation of `StartAudio`
  91:../../libDaisy//src/daisy_patch_sm.h ****          */
  92:../../libDaisy//src/daisy_patch_sm.h ****         void SetAudioBlockSize(size_t size);
  93:../../libDaisy//src/daisy_patch_sm.h **** 
  94:../../libDaisy//src/daisy_patch_sm.h ****         /** Sets the samplerate for the audio engine 
  95:../../libDaisy//src/daisy_patch_sm.h ****          *  This will set it to the closest valid samplerate. Options being:
  96:../../libDaisy//src/daisy_patch_sm.h ****          *  8kHz, 16kHz, 32kHz, 48kHz, and 96kHz
  97:../../libDaisy//src/daisy_patch_sm.h ****          */
  98:../../libDaisy//src/daisy_patch_sm.h ****         void SetAudioSampleRate(float sr);
  99:../../libDaisy//src/daisy_patch_sm.h **** 
 100:../../libDaisy//src/daisy_patch_sm.h ****         void SetAudioSampleRate(SaiHandle::Config::SampleRate sample_rate);
 101:../../libDaisy//src/daisy_patch_sm.h **** 
 102:../../libDaisy//src/daisy_patch_sm.h ****         /** Returns the number of samples processed in an audio callback */
 103:../../libDaisy//src/daisy_patch_sm.h ****         size_t AudioBlockSize();
 104:../../libDaisy//src/daisy_patch_sm.h **** 
 105:../../libDaisy//src/daisy_patch_sm.h ****         /** Returns the audio engine's samplerate in Hz */
 106:../../libDaisy//src/daisy_patch_sm.h ****         float AudioSampleRate();
 107:../../libDaisy//src/daisy_patch_sm.h **** 
 108:../../libDaisy//src/daisy_patch_sm.h ****         /** Returns the rate at which the audio callback will be called in Hz */
 109:../../libDaisy//src/daisy_patch_sm.h ****         float AudioCallbackRate();
 110:../../libDaisy//src/daisy_patch_sm.h **** 
 111:../../libDaisy//src/daisy_patch_sm.h ****         /** Starts the Control ADCs 
 112:../../libDaisy//src/daisy_patch_sm.h ****          * 
 113:../../libDaisy//src/daisy_patch_sm.h ****          *  This is started automatically when Init() is called.
 114:../../libDaisy//src/daisy_patch_sm.h ****          */
 115:../../libDaisy//src/daisy_patch_sm.h ****         void StartAdc();
 116:../../libDaisy//src/daisy_patch_sm.h **** 
 117:../../libDaisy//src/daisy_patch_sm.h ****         /** Stops the Control ADCs */
 118:../../libDaisy//src/daisy_patch_sm.h ****         void StopAdc();
 119:../../libDaisy//src/daisy_patch_sm.h **** 
 120:../../libDaisy//src/daisy_patch_sm.h ****         /** Reads and filters all of the analog control inputs */
 121:../../libDaisy//src/daisy_patch_sm.h ****         void ProcessAnalogControls();
 122:../../libDaisy//src/daisy_patch_sm.h **** 
 123:../../libDaisy//src/daisy_patch_sm.h ****         /** Reads and debounces any of the digital control inputs 
 124:../../libDaisy//src/daisy_patch_sm.h ****          *  This does nothing on this board at this time.
 125:../../libDaisy//src/daisy_patch_sm.h ****          */
 126:../../libDaisy//src/daisy_patch_sm.h ****         void ProcessDigitalControls();
 127:../../libDaisy//src/daisy_patch_sm.h **** 
 128:../../libDaisy//src/daisy_patch_sm.h ****         /** Does both of the above */
 129:../../libDaisy//src/daisy_patch_sm.h ****         void ProcessAllControls()
 128              		.loc 2 129 14 view .LVU20
 129              	.LBB321:
 130:../../libDaisy//src/daisy_patch_sm.h ****         {
 131:../../libDaisy//src/daisy_patch_sm.h ****             ProcessAnalogControls();
 130              		.loc 2 131 13 view .LVU21
 131              	.LBE321:
 132              	.LBE320:
  18:ClockTesting.cpp **** 	hw.ProcessAllControls();
 133              		.loc 9 18 1 is_stmt 0 view .LVU22
 134 0000 F8B5     		push	{r3, r4, r5, r6, r7, lr}
ARM GAS  /var/folders/hl/qgbwny5j0fd895c2c41bk3tw0000gp/T//ccOi8z5J.s 			page 13


 135              		.cfi_def_cfa_offset 24
 136              		.cfi_offset 3, -24
 137              		.cfi_offset 4, -20
 138              		.cfi_offset 5, -16
 139              		.cfi_offset 6, -12
 140              		.cfi_offset 7, -8
 141              		.cfi_offset 14, -4
  18:ClockTesting.cpp **** 	hw.ProcessAllControls();
 142              		.loc 9 18 1 view .LVU23
 143 0002 1546     		mov	r5, r2
 144 0004 0746     		mov	r7, r0
 145              	.LBB324:
 146              	.LBB322:
 147              		.loc 2 131 34 view .LVU24
 148 0006 0C48     		ldr	r0, .L12
 149              	.LVL3:
 150              		.loc 2 131 34 view .LVU25
 151              	.LBE322:
 152              	.LBE324:
  18:ClockTesting.cpp **** 	hw.ProcessAllControls();
 153              		.loc 9 18 1 view .LVU26
 154 0008 0E46     		mov	r6, r1
 155              	.LBB325:
 156              	.LBB323:
 157              		.loc 2 131 34 view .LVU27
 158 000a FFF7FEFF 		bl	_ZN5daisy8patch_sm12DaisyPatchSM21ProcessAnalogControlsEv
 159              	.LVL4:
 132:../../libDaisy//src/daisy_patch_sm.h ****             ProcessDigitalControls();
 160              		.loc 2 132 13 is_stmt 1 view .LVU28
 161              		.loc 2 132 35 is_stmt 0 view .LVU29
 162 000e 0A48     		ldr	r0, .L12
 163 0010 FFF7FEFF 		bl	_ZN5daisy8patch_sm12DaisyPatchSM22ProcessDigitalControlsEv
 164              	.LVL5:
 165              		.loc 2 132 35 view .LVU30
 166              	.LBE323:
 167              	.LBE325:
  20:ClockTesting.cpp **** 	for (size_t i = 0; i < size; i++)
 168              		.loc 9 20 2 is_stmt 1 view .LVU31
 169              	.LBB326:
 170              		.loc 9 20 23 view .LVU32
 171 0014 7DB1     		cbz	r5, .L4
 172 0016 3B68     		ldr	r3, [r7]
 173 0018 3468     		ldr	r4, [r6]
 174 001a 7868     		ldr	r0, [r7, #4]
 175 001c 03EB850C 		add	ip, r3, r5, lsl #2
 176 0020 7168     		ldr	r1, [r6, #4]
 177              	.LVL6:
 178              	.L6:
  21:ClockTesting.cpp **** 	{
  22:ClockTesting.cpp **** 		OUT_L[i] = IN_L[i];
 179              		.loc 9 22 3 discriminator 2 view .LVU33
 180              		.loc 9 22 20 is_stmt 0 discriminator 2 view .LVU34
 181 0022 53F8042B 		ldr	r2, [r3], #4	@ float
 182              		.loc 9 22 12 discriminator 2 view .LVU35
 183 0026 44F8042B 		str	r2, [r4], #4	@ float
  23:ClockTesting.cpp **** 		OUT_R[i] = IN_R[i];
 184              		.loc 9 23 3 is_stmt 1 discriminator 2 view .LVU36
ARM GAS  /var/folders/hl/qgbwny5j0fd895c2c41bk3tw0000gp/T//ccOi8z5J.s 			page 14


  20:ClockTesting.cpp **** 	for (size_t i = 0; i < size; i++)
 185              		.loc 9 20 23 is_stmt 0 discriminator 2 view .LVU37
 186 002a 6345     		cmp	r3, ip
 187              		.loc 9 23 20 discriminator 2 view .LVU38
 188 002c 50F8042B 		ldr	r2, [r0], #4	@ float
 189              		.loc 9 23 12 discriminator 2 view .LVU39
 190 0030 41F8042B 		str	r2, [r1], #4	@ float
  20:ClockTesting.cpp **** 	for (size_t i = 0; i < size; i++)
 191              		.loc 9 20 2 is_stmt 1 discriminator 2 view .LVU40
  20:ClockTesting.cpp **** 	for (size_t i = 0; i < size; i++)
 192              		.loc 9 20 23 discriminator 2 view .LVU41
 193 0034 F5D1     		bne	.L6
 194              	.L4:
 195              	.LBE326:
  24:ClockTesting.cpp **** 	}
  25:ClockTesting.cpp **** }
 196              		.loc 9 25 1 is_stmt 0 view .LVU42
 197 0036 F8BD     		pop	{r3, r4, r5, r6, r7, pc}
 198              	.LVL7:
 199              	.L13:
 200              		.loc 9 25 1 view .LVU43
 201              		.align	2
 202              	.L12:
 203 0038 00000000 		.word	.LANCHOR0
 204              		.cfi_endproc
 205              	.LFE4802:
 207              		.section	.text._ZN5daisy8patch_sm7InitBedEv,"ax",%progbits
 208              		.align	1
 209              		.p2align 2,,3
 210              		.global	_ZN5daisy8patch_sm7InitBedEv
 211              		.syntax unified
 212              		.thumb
 213              		.thumb_func
 214              		.fpu fpv5-d16
 216              	_ZN5daisy8patch_sm7InitBedEv:
 217              	.LFB4793:
 218              		.file 10 "daisy_bed.h"
   1:daisy_bed.h   **** #pragma once
   2:daisy_bed.h   **** 
   3:daisy_bed.h   **** #include "daisy.h"
   4:daisy_bed.h   **** #include "daisysp.h"
   5:daisy_bed.h   **** #include "per/gpio.h"
   6:daisy_bed.h   **** #include "daisy_patch_sm.h"
   7:daisy_bed.h   **** 
   8:daisy_bed.h   **** namespace daisy
   9:daisy_bed.h   **** {
  10:daisy_bed.h   **** namespace patch_sm
  11:daisy_bed.h   **** {
  12:daisy_bed.h   ****     // simple stupid led set up
  13:daisy_bed.h   ****     GPIO    gen_led1;
  14:daisy_bed.h   ****     GPIO    gen_led2;
  15:daisy_bed.h   ****     GPIO    cv_led1;
  16:daisy_bed.h   ****     GPIO    cv_led2;
  17:daisy_bed.h   ****     GPIO    gate_in_led1;
  18:daisy_bed.h   ****     GPIO    gate_in_led2;
  19:daisy_bed.h   ****     GPIO    gate_out_led1;
  20:daisy_bed.h   ****     GPIO    gate_out_led2;
ARM GAS  /var/folders/hl/qgbwny5j0fd895c2c41bk3tw0000gp/T//ccOi8z5J.s 			page 15


  21:daisy_bed.h   **** 
  22:daisy_bed.h   **** 
  23:daisy_bed.h   ****     // generic leds
  24:daisy_bed.h   ****     dsy_gpio_pin oldPinD7 = DaisyPatchSM::D7;
  25:daisy_bed.h   ****     Pin newPinD7 = Pin(static_cast<GPIOPort>(oldPinD7.port), oldPinD7.pin);
  26:daisy_bed.h   ****     dsy_gpio_pin oldPinA9 = DaisyPatchSM::A9;
  27:daisy_bed.h   ****     Pin newPinA9 = Pin(static_cast<GPIOPort>(oldPinA9.port), oldPinA9.pin);
  28:daisy_bed.h   **** 
  29:daisy_bed.h   ****     // cv leds
  30:daisy_bed.h   ****     dsy_gpio_pin oldPinD2 = DaisyPatchSM::D2;
  31:daisy_bed.h   ****     Pin newPinD2 = Pin(static_cast<GPIOPort>(oldPinD2.port), oldPinD2.pin);
  32:daisy_bed.h   ****     dsy_gpio_pin oldPinD1 = DaisyPatchSM::D1;
  33:daisy_bed.h   ****     Pin newPinD1 = Pin(static_cast<GPIOPort>(oldPinD1.port), oldPinD1.pin);
  34:daisy_bed.h   ****     // ^^^ {DSY_GPIOB, 4},  /**< D1  - SPI2 CS */
  35:daisy_bed.h   **** 
  36:daisy_bed.h   ****     // gate leds
  37:daisy_bed.h   ****     dsy_gpio_pin oldPinD3 = DaisyPatchSM::D3;
  38:daisy_bed.h   ****     Pin newPinD3 = Pin(static_cast<GPIOPort>(oldPinD3.port), oldPinD3.pin);
  39:daisy_bed.h   ****     dsy_gpio_pin oldPinD6 = DaisyPatchSM::D6;
  40:daisy_bed.h   ****     Pin newPinD6 = Pin(static_cast<GPIOPort>(oldPinD6.port), oldPinD6.pin);
  41:daisy_bed.h   ****     dsy_gpio_pin oldPinD4 = DaisyPatchSM::D4;
  42:daisy_bed.h   ****     Pin newPinD4 = Pin(static_cast<GPIOPort>(oldPinD4.port), oldPinD4.pin);
  43:daisy_bed.h   ****     dsy_gpio_pin oldPinD5 = DaisyPatchSM::D5;
  44:daisy_bed.h   ****     Pin newPinD5 = Pin(static_cast<GPIOPort>(oldPinD5.port), oldPinD5.pin);
  45:daisy_bed.h   **** 
  46:daisy_bed.h   ****     // remap
  47:daisy_bed.h   ****      
  48:daisy_bed.h   ****     // map buttons
  49:daisy_bed.h   ****     Switch      b1,b2;
  50:daisy_bed.h   **** 
  51:daisy_bed.h   ****     void InitBed(){
 219              		.loc 10 51 19 is_stmt 1 view -0
 220              		.cfi_startproc
 221              		@ args = 0, pretend = 0, frame = 8
 222              		@ frame_needed = 0, uses_anonymous_args = 0
  52:daisy_bed.h   ****         // leds
  53:daisy_bed.h   ****         gen_led1.Init(newPinD7, GPIO::Mode::OUTPUT);
 223              		.loc 10 53 9 view .LVU45
  51:daisy_bed.h   ****         // leds
 224              		.loc 10 51 19 is_stmt 0 view .LVU46
 225 0000 10B5     		push	{r4, lr}
 226              		.cfi_def_cfa_offset 8
 227              		.cfi_offset 4, -8
 228              		.cfi_offset 14, -4
 229              		.loc 10 53 22 view .LVU47
 230 0002 2D49     		ldr	r1, .L16
  51:daisy_bed.h   ****         // leds
 231              		.loc 10 51 19 view .LVU48
 232 0004 84B0     		sub	sp, sp, #16
 233              		.cfi_def_cfa_offset 24
 234              		.loc 10 53 22 view .LVU49
 235 0006 0024     		movs	r4, #0
 236 0008 0122     		movs	r2, #1
 237 000a 0968     		ldr	r1, [r1]
 238 000c 2346     		mov	r3, r4
 239 000e 2B48     		ldr	r0, .L16+4
 240 0010 0094     		str	r4, [sp]
ARM GAS  /var/folders/hl/qgbwny5j0fd895c2c41bk3tw0000gp/T//ccOi8z5J.s 			page 16


 241 0012 FFF7FEFF 		bl	_ZN5daisy4GPIO4InitENS_3PinENS0_4ModeENS0_4PullENS0_5SpeedE
 242              	.LVL8:
  54:daisy_bed.h   ****         gen_led2.Init(newPinA9, GPIO::Mode::OUTPUT);
 243              		.loc 10 54 9 is_stmt 1 view .LVU50
 244              		.loc 10 54 22 is_stmt 0 view .LVU51
 245 0016 2A49     		ldr	r1, .L16+8
 246 0018 2346     		mov	r3, r4
 247 001a 0122     		movs	r2, #1
 248 001c 0968     		ldr	r1, [r1]
 249 001e 2948     		ldr	r0, .L16+12
 250 0020 0094     		str	r4, [sp]
 251 0022 FFF7FEFF 		bl	_ZN5daisy4GPIO4InitENS_3PinENS0_4ModeENS0_4PullENS0_5SpeedE
 252              	.LVL9:
  55:daisy_bed.h   ****         cv_led1.Init(newPinD2, GPIO::Mode::OUTPUT);
 253              		.loc 10 55 9 is_stmt 1 view .LVU52
 254              		.loc 10 55 21 is_stmt 0 view .LVU53
 255 0026 2849     		ldr	r1, .L16+16
 256 0028 2346     		mov	r3, r4
 257 002a 0122     		movs	r2, #1
 258 002c 0968     		ldr	r1, [r1]
 259 002e 2748     		ldr	r0, .L16+20
 260 0030 0094     		str	r4, [sp]
 261 0032 FFF7FEFF 		bl	_ZN5daisy4GPIO4InitENS_3PinENS0_4ModeENS0_4PullENS0_5SpeedE
 262              	.LVL10:
  56:daisy_bed.h   ****         cv_led2.Init(newPinD1, GPIO::Mode::OUTPUT);
 263              		.loc 10 56 9 is_stmt 1 view .LVU54
 264              		.loc 10 56 21 is_stmt 0 view .LVU55
 265 0036 2649     		ldr	r1, .L16+24
 266 0038 2346     		mov	r3, r4
 267 003a 0122     		movs	r2, #1
 268 003c 0968     		ldr	r1, [r1]
 269 003e 2548     		ldr	r0, .L16+28
 270 0040 0094     		str	r4, [sp]
 271 0042 FFF7FEFF 		bl	_ZN5daisy4GPIO4InitENS_3PinENS0_4ModeENS0_4PullENS0_5SpeedE
 272              	.LVL11:
  57:daisy_bed.h   ****         gate_in_led1.Init(newPinD3, GPIO::Mode::OUTPUT);
 273              		.loc 10 57 9 is_stmt 1 view .LVU56
 274              		.loc 10 57 26 is_stmt 0 view .LVU57
 275 0046 2449     		ldr	r1, .L16+32
 276 0048 2346     		mov	r3, r4
 277 004a 0122     		movs	r2, #1
 278 004c 0968     		ldr	r1, [r1]
 279 004e 2348     		ldr	r0, .L16+36
 280 0050 0094     		str	r4, [sp]
 281 0052 FFF7FEFF 		bl	_ZN5daisy4GPIO4InitENS_3PinENS0_4ModeENS0_4PullENS0_5SpeedE
 282              	.LVL12:
  58:daisy_bed.h   ****         gate_in_led2.Init(newPinD4, GPIO::Mode::OUTPUT);
 283              		.loc 10 58 9 is_stmt 1 view .LVU58
 284              		.loc 10 58 26 is_stmt 0 view .LVU59
 285 0056 2249     		ldr	r1, .L16+40
 286 0058 2346     		mov	r3, r4
 287 005a 0122     		movs	r2, #1
 288 005c 0968     		ldr	r1, [r1]
 289 005e 2148     		ldr	r0, .L16+44
 290 0060 0094     		str	r4, [sp]
 291 0062 FFF7FEFF 		bl	_ZN5daisy4GPIO4InitENS_3PinENS0_4ModeENS0_4PullENS0_5SpeedE
 292              	.LVL13:
ARM GAS  /var/folders/hl/qgbwny5j0fd895c2c41bk3tw0000gp/T//ccOi8z5J.s 			page 17


  59:daisy_bed.h   ****         gate_out_led1.Init(newPinD6, GPIO::Mode::OUTPUT);
 293              		.loc 10 59 9 is_stmt 1 view .LVU60
 294              		.loc 10 59 27 is_stmt 0 view .LVU61
 295 0066 2049     		ldr	r1, .L16+48
 296 0068 2346     		mov	r3, r4
 297 006a 0122     		movs	r2, #1
 298 006c 0968     		ldr	r1, [r1]
 299 006e 1F48     		ldr	r0, .L16+52
 300 0070 0094     		str	r4, [sp]
 301 0072 FFF7FEFF 		bl	_ZN5daisy4GPIO4InitENS_3PinENS0_4ModeENS0_4PullENS0_5SpeedE
 302              	.LVL14:
  60:daisy_bed.h   ****         gate_out_led2.Init(newPinD5, GPIO::Mode::OUTPUT);
 303              		.loc 10 60 9 is_stmt 1 view .LVU62
 304              		.loc 10 60 27 is_stmt 0 view .LVU63
 305 0076 1E49     		ldr	r1, .L16+56
 306 0078 2346     		mov	r3, r4
 307 007a 0122     		movs	r2, #1
 308 007c 0968     		ldr	r1, [r1]
 309 007e 1D48     		ldr	r0, .L16+60
 310 0080 0094     		str	r4, [sp]
 311 0082 FFF7FEFF 		bl	_ZN5daisy4GPIO4InitENS_3PinENS0_4ModeENS0_4PullENS0_5SpeedE
 312              	.LVL15:
  61:daisy_bed.h   **** 
  62:daisy_bed.h   ****         // buttons
  63:daisy_bed.h   ****         b1.Init(DaisyPatchSM::A8);
 313              		.loc 10 63 9 is_stmt 1 view .LVU64
 314              		.loc 10 63 16 is_stmt 0 view .LVU65
 315 0086 1C4B     		ldr	r3, .L16+64
 316 0088 9FED1C0A 		vldr.32	s0, .L16+68
 317 008c 1A78     		ldrb	r2, [r3]	@ zero_extendqisi2
 318 008e 5978     		ldrb	r1, [r3, #1]	@ zero_extendqisi2
 319 0090 1B48     		ldr	r0, .L16+72
 320 0092 42EA0121 		orr	r1, r2, r1, lsl #8
 321 0096 8DED030A 		vstr.32	s0, [sp, #12]	@ int
 322 009a FFF7FEFF 		bl	_ZN5daisy6Switch4InitE12dsy_gpio_pinf
 323              	.LVL16:
  64:daisy_bed.h   ****         b2.Init(DaisyPatchSM::D10);
 324              		.loc 10 64 9 is_stmt 1 view .LVU66
 325              		.loc 10 64 16 is_stmt 0 view .LVU67
 326 009e 194B     		ldr	r3, .L16+76
 327 00a0 9DED030A 		vldr.32	s0, [sp, #12]	@ int
 328 00a4 1A78     		ldrb	r2, [r3]	@ zero_extendqisi2
 329 00a6 5978     		ldrb	r1, [r3, #1]	@ zero_extendqisi2
 330 00a8 1748     		ldr	r0, .L16+80
 331 00aa 42EA0121 		orr	r1, r2, r1, lsl #8
  65:daisy_bed.h   ****     }
 332              		.loc 10 65 5 view .LVU68
 333 00ae 04B0     		add	sp, sp, #16
 334              		.cfi_def_cfa_offset 8
 335              		@ sp needed
 336 00b0 BDE81040 		pop	{r4, lr}
 337              		.cfi_restore 14
 338              		.cfi_restore 4
 339              		.cfi_def_cfa_offset 0
  64:daisy_bed.h   ****         b2.Init(DaisyPatchSM::D10);
 340              		.loc 10 64 16 view .LVU69
 341 00b4 FFF7FEBF 		b	_ZN5daisy6Switch4InitE12dsy_gpio_pinf
ARM GAS  /var/folders/hl/qgbwny5j0fd895c2c41bk3tw0000gp/T//ccOi8z5J.s 			page 18


 342              	.LVL17:
 343              	.L17:
 344              		.align	2
 345              	.L16:
 346 00b8 00000000 		.word	.LANCHOR1
 347 00bc 00000000 		.word	.LANCHOR2
 348 00c0 00000000 		.word	.LANCHOR3
 349 00c4 00000000 		.word	.LANCHOR4
 350 00c8 00000000 		.word	.LANCHOR5
 351 00cc 00000000 		.word	.LANCHOR6
 352 00d0 00000000 		.word	.LANCHOR7
 353 00d4 00000000 		.word	.LANCHOR8
 354 00d8 00000000 		.word	.LANCHOR9
 355 00dc 00000000 		.word	.LANCHOR10
 356 00e0 00000000 		.word	.LANCHOR11
 357 00e4 00000000 		.word	.LANCHOR12
 358 00e8 00000000 		.word	.LANCHOR13
 359 00ec 00000000 		.word	.LANCHOR14
 360 00f0 00000000 		.word	.LANCHOR15
 361 00f4 00000000 		.word	.LANCHOR16
 362 00f8 00000000 		.word	_ZN5daisy8patch_sm12DaisyPatchSM2A8E
 363 00fc 00000000 		.word	0
 364 0100 00000000 		.word	.LANCHOR17
 365 0104 00000000 		.word	_ZN5daisy8patch_sm12DaisyPatchSM3D10E
 366 0108 00000000 		.word	.LANCHOR18
 367              		.cfi_endproc
 368              	.LFE4793:
 370              		.section	.text._ZN5daisy8patch_sm6ledOffEv,"ax",%progbits
 371              		.align	1
 372              		.p2align 2,,3
 373              		.global	_ZN5daisy8patch_sm6ledOffEv
 374              		.syntax unified
 375              		.thumb
 376              		.thumb_func
 377              		.fpu fpv5-d16
 379              	_ZN5daisy8patch_sm6ledOffEv:
 380              	.LFB4794:
  66:daisy_bed.h   **** 
  67:daisy_bed.h   ****     void ledOff(){
 381              		.loc 10 67 18 is_stmt 1 view -0
 382              		.cfi_startproc
 383              		@ args = 0, pretend = 0, frame = 0
 384              		@ frame_needed = 0, uses_anonymous_args = 0
  68:daisy_bed.h   ****         gen_led1.Write(false);
 385              		.loc 10 68 9 view .LVU71
  67:daisy_bed.h   ****         gen_led1.Write(false);
 386              		.loc 10 67 18 is_stmt 0 view .LVU72
 387 0000 08B5     		push	{r3, lr}
 388              		.cfi_def_cfa_offset 8
 389              		.cfi_offset 3, -8
 390              		.cfi_offset 14, -4
 391              		.loc 10 68 23 view .LVU73
 392 0002 0021     		movs	r1, #0
 393 0004 0848     		ldr	r0, .L20
 394 0006 FFF7FEFF 		bl	_ZN5daisy4GPIO5WriteEb
 395              	.LVL18:
  69:daisy_bed.h   ****         gen_led2.Write(false);
ARM GAS  /var/folders/hl/qgbwny5j0fd895c2c41bk3tw0000gp/T//ccOi8z5J.s 			page 19


 396              		.loc 10 69 9 is_stmt 1 view .LVU74
 397              		.loc 10 69 23 is_stmt 0 view .LVU75
 398 000a 0021     		movs	r1, #0
 399 000c 0748     		ldr	r0, .L20+4
 400 000e FFF7FEFF 		bl	_ZN5daisy4GPIO5WriteEb
 401              	.LVL19:
  70:daisy_bed.h   ****         cv_led1.Write(false);
 402              		.loc 10 70 9 is_stmt 1 view .LVU76
 403              		.loc 10 70 22 is_stmt 0 view .LVU77
 404 0012 0021     		movs	r1, #0
 405 0014 0648     		ldr	r0, .L20+8
 406 0016 FFF7FEFF 		bl	_ZN5daisy4GPIO5WriteEb
 407              	.LVL20:
  71:daisy_bed.h   ****         cv_led2.Write(false);
 408              		.loc 10 71 9 is_stmt 1 view .LVU78
 409              		.loc 10 71 22 is_stmt 0 view .LVU79
 410 001a 0021     		movs	r1, #0
 411 001c 0548     		ldr	r0, .L20+12
  72:daisy_bed.h   ****     }
 412              		.loc 10 72 5 view .LVU80
 413 001e BDE80840 		pop	{r3, lr}
 414              		.cfi_restore 14
 415              		.cfi_restore 3
 416              		.cfi_def_cfa_offset 0
  71:daisy_bed.h   ****         cv_led2.Write(false);
 417              		.loc 10 71 22 view .LVU81
 418 0022 FFF7FEBF 		b	_ZN5daisy4GPIO5WriteEb
 419              	.LVL21:
 420              	.L21:
 421 0026 00BF     		.align	2
 422              	.L20:
 423 0028 00000000 		.word	.LANCHOR2
 424 002c 00000000 		.word	.LANCHOR4
 425 0030 00000000 		.word	.LANCHOR6
 426 0034 00000000 		.word	.LANCHOR8
 427              		.cfi_endproc
 428              	.LFE4794:
 430              		.section	.text._ZN5daisy8patch_sm13StartupCheeseEv,"ax",%progbits
 431              		.align	1
 432              		.p2align 2,,3
 433              		.global	_ZN5daisy8patch_sm13StartupCheeseEv
 434              		.syntax unified
 435              		.thumb
 436              		.thumb_func
 437              		.fpu fpv5-d16
 439              	_ZN5daisy8patch_sm13StartupCheeseEv:
 440              	.LFB4795:
  73:daisy_bed.h   **** 
  74:daisy_bed.h   ****     void StartupCheese(){
 441              		.loc 10 74 25 is_stmt 1 view -0
 442              		.cfi_startproc
 443              		@ args = 0, pretend = 0, frame = 0
 444              		@ frame_needed = 0, uses_anonymous_args = 0
  75:daisy_bed.h   **** 		gate_in_led1.Toggle();
 445              		.loc 10 75 3 view .LVU83
  74:daisy_bed.h   **** 		gate_in_led1.Toggle();
 446              		.loc 10 74 25 is_stmt 0 view .LVU84
ARM GAS  /var/folders/hl/qgbwny5j0fd895c2c41bk3tw0000gp/T//ccOi8z5J.s 			page 20


 447 0000 F8B5     		push	{r3, r4, r5, r6, r7, lr}
 448              		.cfi_def_cfa_offset 24
 449              		.cfi_offset 3, -24
 450              		.cfi_offset 4, -20
 451              		.cfi_offset 5, -16
 452              		.cfi_offset 6, -12
 453              		.cfi_offset 7, -8
 454              		.cfi_offset 14, -4
 455              		.loc 10 75 22 view .LVU85
 456 0002 2348     		ldr	r0, .L24
 457 0004 FFF7FEFF 		bl	_ZN5daisy4GPIO6ToggleEv
 458              	.LVL22:
  76:daisy_bed.h   **** 		System::Delay(100);
 459              		.loc 10 76 3 is_stmt 1 view .LVU86
 460              		.loc 10 76 16 is_stmt 0 view .LVU87
 461 0008 6420     		movs	r0, #100
 462 000a FFF7FEFF 		bl	_ZN5daisy6System5DelayEm
 463              	.LVL23:
  77:daisy_bed.h   **** 		gate_in_led2.Toggle();
 464              		.loc 10 77 3 is_stmt 1 view .LVU88
  78:daisy_bed.h   **** 		System::Delay(100);
  79:daisy_bed.h   **** 		gen_led1.Toggle();
 465              		.loc 10 79 18 is_stmt 0 view .LVU89
 466 000e 214F     		ldr	r7, .L24+4
  77:daisy_bed.h   **** 		gate_in_led2.Toggle();
 467              		.loc 10 77 22 view .LVU90
 468 0010 2148     		ldr	r0, .L24+8
 469 0012 FFF7FEFF 		bl	_ZN5daisy4GPIO6ToggleEv
 470              	.LVL24:
  78:daisy_bed.h   **** 		System::Delay(100);
 471              		.loc 10 78 3 is_stmt 1 view .LVU91
  78:daisy_bed.h   **** 		System::Delay(100);
 472              		.loc 10 78 16 is_stmt 0 view .LVU92
 473 0016 6420     		movs	r0, #100
 474 0018 FFF7FEFF 		bl	_ZN5daisy6System5DelayEm
 475              	.LVL25:
 476              		.loc 10 79 3 is_stmt 1 view .LVU93
  80:daisy_bed.h   **** 		System::Delay(100);
  81:daisy_bed.h   **** 		gen_led2.Toggle();
 477              		.loc 10 81 18 is_stmt 0 view .LVU94
 478 001c 1F4E     		ldr	r6, .L24+12
  79:daisy_bed.h   **** 		System::Delay(100);
 479              		.loc 10 79 18 view .LVU95
 480 001e 3846     		mov	r0, r7
  82:daisy_bed.h   **** 		System::Delay(100);
  83:daisy_bed.h   **** 		cv_led1.Toggle();
 481              		.loc 10 83 17 view .LVU96
 482 0020 1F4D     		ldr	r5, .L24+16
  79:daisy_bed.h   **** 		System::Delay(100);
 483              		.loc 10 79 18 view .LVU97
 484 0022 FFF7FEFF 		bl	_ZN5daisy4GPIO6ToggleEv
 485              	.LVL26:
  80:daisy_bed.h   **** 		gen_led2.Toggle();
 486              		.loc 10 80 3 is_stmt 1 view .LVU98
  80:daisy_bed.h   **** 		gen_led2.Toggle();
 487              		.loc 10 80 16 is_stmt 0 view .LVU99
 488 0026 6420     		movs	r0, #100
ARM GAS  /var/folders/hl/qgbwny5j0fd895c2c41bk3tw0000gp/T//ccOi8z5J.s 			page 21


 489 0028 FFF7FEFF 		bl	_ZN5daisy6System5DelayEm
 490              	.LVL27:
  81:daisy_bed.h   **** 		System::Delay(100);
 491              		.loc 10 81 3 is_stmt 1 view .LVU100
  81:daisy_bed.h   **** 		System::Delay(100);
 492              		.loc 10 81 18 is_stmt 0 view .LVU101
 493 002c 3046     		mov	r0, r6
 494 002e FFF7FEFF 		bl	_ZN5daisy4GPIO6ToggleEv
 495              	.LVL28:
  82:daisy_bed.h   **** 		System::Delay(100);
 496              		.loc 10 82 3 is_stmt 1 view .LVU102
  82:daisy_bed.h   **** 		System::Delay(100);
 497              		.loc 10 82 16 is_stmt 0 view .LVU103
 498 0032 6420     		movs	r0, #100
 499 0034 FFF7FEFF 		bl	_ZN5daisy6System5DelayEm
 500              	.LVL29:
 501              		.loc 10 83 3 is_stmt 1 view .LVU104
  84:daisy_bed.h   **** 		System::Delay(100);
  85:daisy_bed.h   **** 		cv_led2.Toggle();
 502              		.loc 10 85 17 is_stmt 0 view .LVU105
 503 0038 1A4C     		ldr	r4, .L24+20
  83:daisy_bed.h   **** 		System::Delay(100);
 504              		.loc 10 83 17 view .LVU106
 505 003a 2846     		mov	r0, r5
 506 003c FFF7FEFF 		bl	_ZN5daisy4GPIO6ToggleEv
 507              	.LVL30:
  84:daisy_bed.h   **** 		System::Delay(100);
 508              		.loc 10 84 3 is_stmt 1 view .LVU107
  84:daisy_bed.h   **** 		System::Delay(100);
 509              		.loc 10 84 16 is_stmt 0 view .LVU108
 510 0040 6420     		movs	r0, #100
 511 0042 FFF7FEFF 		bl	_ZN5daisy6System5DelayEm
 512              	.LVL31:
 513              		.loc 10 85 3 is_stmt 1 view .LVU109
 514              		.loc 10 85 17 is_stmt 0 view .LVU110
 515 0046 2046     		mov	r0, r4
 516 0048 FFF7FEFF 		bl	_ZN5daisy4GPIO6ToggleEv
 517              	.LVL32:
  86:daisy_bed.h   **** 		System::Delay(100);
 518              		.loc 10 86 3 is_stmt 1 view .LVU111
 519              		.loc 10 86 16 is_stmt 0 view .LVU112
 520 004c 6420     		movs	r0, #100
 521 004e FFF7FEFF 		bl	_ZN5daisy6System5DelayEm
 522              	.LVL33:
  87:daisy_bed.h   **** 		gate_out_led1.Toggle();
 523              		.loc 10 87 3 is_stmt 1 view .LVU113
 524              		.loc 10 87 23 is_stmt 0 view .LVU114
 525 0052 1548     		ldr	r0, .L24+24
 526 0054 FFF7FEFF 		bl	_ZN5daisy4GPIO6ToggleEv
 527              	.LVL34:
  88:daisy_bed.h   **** 		System::Delay(100);
 528              		.loc 10 88 3 is_stmt 1 view .LVU115
 529              		.loc 10 88 16 is_stmt 0 view .LVU116
 530 0058 6420     		movs	r0, #100
 531 005a FFF7FEFF 		bl	_ZN5daisy6System5DelayEm
 532              	.LVL35:
  89:daisy_bed.h   **** 		gate_out_led2.Toggle();
ARM GAS  /var/folders/hl/qgbwny5j0fd895c2c41bk3tw0000gp/T//ccOi8z5J.s 			page 22


 533              		.loc 10 89 3 is_stmt 1 view .LVU117
 534              		.loc 10 89 23 is_stmt 0 view .LVU118
 535 005e 1348     		ldr	r0, .L24+28
 536 0060 FFF7FEFF 		bl	_ZN5daisy4GPIO6ToggleEv
 537              	.LVL36:
  90:daisy_bed.h   **** 		System::Delay(100);
 538              		.loc 10 90 3 is_stmt 1 view .LVU119
 539              		.loc 10 90 16 is_stmt 0 view .LVU120
 540 0064 6420     		movs	r0, #100
 541 0066 FFF7FEFF 		bl	_ZN5daisy6System5DelayEm
 542              	.LVL37:
  91:daisy_bed.h   ****         ledOff();
 543              		.loc 10 91 9 is_stmt 1 view .LVU121
 544              	.LBB329:
 545              	.LBI329:
  67:daisy_bed.h   ****         gen_led1.Write(false);
 546              		.loc 10 67 10 view .LVU122
 547              	.LBB330:
  68:daisy_bed.h   ****         gen_led2.Write(false);
 548              		.loc 10 68 9 view .LVU123
  68:daisy_bed.h   ****         gen_led2.Write(false);
 549              		.loc 10 68 23 is_stmt 0 view .LVU124
 550 006a 3846     		mov	r0, r7
 551 006c 0021     		movs	r1, #0
 552 006e FFF7FEFF 		bl	_ZN5daisy4GPIO5WriteEb
 553              	.LVL38:
  69:daisy_bed.h   ****         cv_led1.Write(false);
 554              		.loc 10 69 9 is_stmt 1 view .LVU125
  69:daisy_bed.h   ****         cv_led1.Write(false);
 555              		.loc 10 69 23 is_stmt 0 view .LVU126
 556 0072 3046     		mov	r0, r6
 557 0074 0021     		movs	r1, #0
 558 0076 FFF7FEFF 		bl	_ZN5daisy4GPIO5WriteEb
 559              	.LVL39:
  70:daisy_bed.h   ****         cv_led2.Write(false);
 560              		.loc 10 70 9 is_stmt 1 view .LVU127
  70:daisy_bed.h   ****         cv_led2.Write(false);
 561              		.loc 10 70 22 is_stmt 0 view .LVU128
 562 007a 2846     		mov	r0, r5
 563 007c 0021     		movs	r1, #0
 564 007e FFF7FEFF 		bl	_ZN5daisy4GPIO5WriteEb
 565              	.LVL40:
  71:daisy_bed.h   ****     }
 566              		.loc 10 71 9 is_stmt 1 view .LVU129
  71:daisy_bed.h   ****     }
 567              		.loc 10 71 22 is_stmt 0 view .LVU130
 568 0082 2046     		mov	r0, r4
 569 0084 0021     		movs	r1, #0
 570              	.LBE330:
 571              	.LBE329:
  92:daisy_bed.h   ****     }
 572              		.loc 10 92 5 view .LVU131
 573 0086 BDE8F840 		pop	{r3, r4, r5, r6, r7, lr}
 574              		.cfi_restore 14
 575              		.cfi_restore 7
 576              		.cfi_restore 6
 577              		.cfi_restore 5
ARM GAS  /var/folders/hl/qgbwny5j0fd895c2c41bk3tw0000gp/T//ccOi8z5J.s 			page 23


 578              		.cfi_restore 4
 579              		.cfi_restore 3
 580              		.cfi_def_cfa_offset 0
 581              	.LBB332:
 582              	.LBB331:
  71:daisy_bed.h   ****     }
 583              		.loc 10 71 22 view .LVU132
 584 008a FFF7FEBF 		b	_ZN5daisy4GPIO5WriteEb
 585              	.LVL41:
 586              	.L25:
 587 008e 00BF     		.align	2
 588              	.L24:
 589 0090 00000000 		.word	.LANCHOR10
 590 0094 00000000 		.word	.LANCHOR2
 591 0098 00000000 		.word	.LANCHOR12
 592 009c 00000000 		.word	.LANCHOR4
 593 00a0 00000000 		.word	.LANCHOR6
 594 00a4 00000000 		.word	.LANCHOR8
 595 00a8 00000000 		.word	.LANCHOR14
 596 00ac 00000000 		.word	.LANCHOR16
 597              	.LBE331:
 598              	.LBE332:
 599              		.cfi_endproc
 600              	.LFE4795:
 602              		.section	.text._ZN5daisy8patch_sm8gateTestEv,"ax",%progbits
 603              		.align	1
 604              		.p2align 2,,3
 605              		.global	_ZN5daisy8patch_sm8gateTestEv
 606              		.syntax unified
 607              		.thumb
 608              		.thumb_func
 609              		.fpu fpv5-d16
 611              	_ZN5daisy8patch_sm8gateTestEv:
 612              	.LFB4796:
  93:daisy_bed.h   **** 
  94:daisy_bed.h   ****     void gateTest()
  95:daisy_bed.h   ****     {
 613              		.loc 10 95 5 is_stmt 1 view -0
 614              		.cfi_startproc
 615              		@ args = 0, pretend = 0, frame = 0
 616              		@ frame_needed = 0, uses_anonymous_args = 0
  96:daisy_bed.h   ****         gate_in_led1.Toggle();
 617              		.loc 10 96 9 view .LVU134
  95:daisy_bed.h   ****         gate_in_led1.Toggle();
 618              		.loc 10 95 5 is_stmt 0 view .LVU135
 619 0000 08B5     		push	{r3, lr}
 620              		.cfi_def_cfa_offset 8
 621              		.cfi_offset 3, -8
 622              		.cfi_offset 14, -4
 623              		.loc 10 96 28 view .LVU136
 624 0002 0F48     		ldr	r0, .L28
 625 0004 FFF7FEFF 		bl	_ZN5daisy4GPIO6ToggleEv
 626              	.LVL42:
  97:daisy_bed.h   ****         System::Delay(1000);
 627              		.loc 10 97 9 is_stmt 1 view .LVU137
 628              		.loc 10 97 22 is_stmt 0 view .LVU138
 629 0008 4FF47A70 		mov	r0, #1000
ARM GAS  /var/folders/hl/qgbwny5j0fd895c2c41bk3tw0000gp/T//ccOi8z5J.s 			page 24


 630 000c FFF7FEFF 		bl	_ZN5daisy6System5DelayEm
 631              	.LVL43:
  98:daisy_bed.h   ****         gate_in_led2.Toggle();
 632              		.loc 10 98 9 is_stmt 1 view .LVU139
 633              		.loc 10 98 28 is_stmt 0 view .LVU140
 634 0010 0C48     		ldr	r0, .L28+4
 635 0012 FFF7FEFF 		bl	_ZN5daisy4GPIO6ToggleEv
 636              	.LVL44:
  99:daisy_bed.h   ****         System::Delay(1000);
 637              		.loc 10 99 9 is_stmt 1 view .LVU141
 638              		.loc 10 99 22 is_stmt 0 view .LVU142
 639 0016 4FF47A70 		mov	r0, #1000
 640 001a FFF7FEFF 		bl	_ZN5daisy6System5DelayEm
 641              	.LVL45:
 100:daisy_bed.h   ****         gate_out_led1.Toggle();
 642              		.loc 10 100 9 is_stmt 1 view .LVU143
 643              		.loc 10 100 29 is_stmt 0 view .LVU144
 644 001e 0A48     		ldr	r0, .L28+8
 645 0020 FFF7FEFF 		bl	_ZN5daisy4GPIO6ToggleEv
 646              	.LVL46:
 101:daisy_bed.h   ****         System::Delay(1000);
 647              		.loc 10 101 9 is_stmt 1 view .LVU145
 648              		.loc 10 101 22 is_stmt 0 view .LVU146
 649 0024 4FF47A70 		mov	r0, #1000
 650 0028 FFF7FEFF 		bl	_ZN5daisy6System5DelayEm
 651              	.LVL47:
 102:daisy_bed.h   ****         gate_out_led2.Toggle();
 652              		.loc 10 102 9 is_stmt 1 view .LVU147
 653              		.loc 10 102 29 is_stmt 0 view .LVU148
 654 002c 0748     		ldr	r0, .L28+12
 655 002e FFF7FEFF 		bl	_ZN5daisy4GPIO6ToggleEv
 656              	.LVL48:
 103:daisy_bed.h   ****         System::Delay(1000);
 657              		.loc 10 103 9 is_stmt 1 view .LVU149
 658              		.loc 10 103 22 is_stmt 0 view .LVU150
 659 0032 4FF47A70 		mov	r0, #1000
 104:daisy_bed.h   ****     }
 660              		.loc 10 104 5 view .LVU151
 661 0036 BDE80840 		pop	{r3, lr}
 662              		.cfi_restore 14
 663              		.cfi_restore 3
 664              		.cfi_def_cfa_offset 0
 103:daisy_bed.h   ****         System::Delay(1000);
 665              		.loc 10 103 22 view .LVU152
 666 003a FFF7FEBF 		b	_ZN5daisy6System5DelayEm
 667              	.LVL49:
 668              	.L29:
 669 003e 00BF     		.align	2
 670              	.L28:
 671 0040 00000000 		.word	.LANCHOR10
 672 0044 00000000 		.word	.LANCHOR12
 673 0048 00000000 		.word	.LANCHOR14
 674 004c 00000000 		.word	.LANCHOR16
 675              		.cfi_endproc
 676              	.LFE4796:
 678              		.section	.rodata.main.str1.4,"aMS",%progbits,1
 679              		.align	2
ARM GAS  /var/folders/hl/qgbwny5j0fd895c2c41bk3tw0000gp/T//ccOi8z5J.s 			page 25


 680              	.LC0:
 681 0000 56616C75 		.ascii	"Value: %f\000"
 681      653A2025 
 681      6600
 682              		.section	.text.startup.main,"ax",%progbits
 683              		.align	1
 684              		.p2align 2,,3
 685              		.global	main
 686              		.syntax unified
 687              		.thumb
 688              		.thumb_func
 689              		.fpu fpv5-d16
 691              	main:
 692              	.LFB4803:
  26:ClockTesting.cpp **** 
  27:ClockTesting.cpp **** int main(void)
  28:ClockTesting.cpp **** {
 693              		.loc 9 28 1 is_stmt 1 view -0
 694              		.cfi_startproc
 695              		@ Volatile: function does not return.
 696              		@ args = 0, pretend = 0, frame = 0
 697              		@ frame_needed = 0, uses_anonymous_args = 0
  29:ClockTesting.cpp **** 	hw.Init();
 698              		.loc 9 29 2 view .LVU154
  28:ClockTesting.cpp **** 	hw.Init();
 699              		.loc 9 28 1 is_stmt 0 view .LVU155
 700 0000 08B5     		push	{r3, lr}
 701              		.cfi_def_cfa_offset 8
 702              		.cfi_offset 3, -8
 703              		.cfi_offset 14, -4
 704              		.loc 9 29 9 view .LVU156
 705 0002 3348     		ldr	r0, .L39+16
 706 0004 FFF7FEFF 		bl	_ZN5daisy8patch_sm12DaisyPatchSM4InitEv
 707              	.LVL50:
  30:ClockTesting.cpp **** 	hw.SetAudioBlockSize(4); // number of samples handled per callback
 708              		.loc 9 30 2 is_stmt 1 view .LVU157
 709              		.loc 9 30 22 is_stmt 0 view .LVU158
 710 0008 0421     		movs	r1, #4
 711 000a 3148     		ldr	r0, .L39+16
 712 000c FFF7FEFF 		bl	_ZN5daisy8patch_sm12DaisyPatchSM17SetAudioBlockSizeEj
 713              	.LVL51:
  31:ClockTesting.cpp **** 	hw.SetAudioSampleRate(SaiHandle::Config::SampleRate::SAI_48KHZ);
 714              		.loc 9 31 2 is_stmt 1 view .LVU159
 715              		.loc 9 31 23 is_stmt 0 view .LVU160
 716 0010 0321     		movs	r1, #3
 717 0012 2F48     		ldr	r0, .L39+16
 718 0014 FFF7FEFF 		bl	_ZN5daisy8patch_sm12DaisyPatchSM18SetAudioSampleRateENS_9SaiHandle6Config10SampleRateE
 719              	.LVL52:
  32:ClockTesting.cpp **** 
  33:ClockTesting.cpp **** 	InitBed();
 720              		.loc 9 33 2 is_stmt 1 view .LVU161
 721 0018 2E4C     		ldr	r4, .L39+20
 722              		.loc 9 33 9 is_stmt 0 view .LVU162
 723 001a FFF7FEFF 		bl	_ZN5daisy8patch_sm7InitBedEv
 724              	.LVL53:
  34:ClockTesting.cpp **** 	hw.StartLog(); // for testing 
 725              		.loc 9 34 2 is_stmt 1 view .LVU163
ARM GAS  /var/folders/hl/qgbwny5j0fd895c2c41bk3tw0000gp/T//ccOi8z5J.s 			page 26


 726              	.LBB345:
 727              	.LBI345:
 133:../../libDaisy//src/daisy_patch_sm.h ****         }
 134:../../libDaisy//src/daisy_patch_sm.h **** 
 135:../../libDaisy//src/daisy_patch_sm.h ****         /** Returns the current value for one of the ADCs */
 136:../../libDaisy//src/daisy_patch_sm.h ****         float GetAdcValue(int idx);
 137:../../libDaisy//src/daisy_patch_sm.h **** 
 138:../../libDaisy//src/daisy_patch_sm.h ****         /** Returns the STM32 port/pin combo for the desired pin (or an invalid pin for HW only pin
 139:../../libDaisy//src/daisy_patch_sm.h ****          *
 140:../../libDaisy//src/daisy_patch_sm.h ****          *  Macros at top of file can be used in place of separate arguments (i.e. GetPin(A4), etc.
 141:../../libDaisy//src/daisy_patch_sm.h ****          * 
 142:../../libDaisy//src/daisy_patch_sm.h ****          *  \param bank should be one of the PinBank options above
 143:../../libDaisy//src/daisy_patch_sm.h ****          *  \param idx pin number between 1 and 10 for each of the pins on each header.
 144:../../libDaisy//src/daisy_patch_sm.h ****          */
 145:../../libDaisy//src/daisy_patch_sm.h ****         dsy_gpio_pin GetPin(const PinBank bank, const int idx);
 146:../../libDaisy//src/daisy_patch_sm.h **** 
 147:../../libDaisy//src/daisy_patch_sm.h ****         /** Starts the DAC for the CV Outputs 
 148:../../libDaisy//src/daisy_patch_sm.h ****          * 
 149:../../libDaisy//src/daisy_patch_sm.h ****          *  By default this starts by running the 
 150:../../libDaisy//src/daisy_patch_sm.h ****          *  internal callback at 48kHz, which will 
 151:../../libDaisy//src/daisy_patch_sm.h ****          *  update the values based on the SetCvOut 
 152:../../libDaisy//src/daisy_patch_sm.h ****          *  function.
 153:../../libDaisy//src/daisy_patch_sm.h ****          * 
 154:../../libDaisy//src/daisy_patch_sm.h ****          *  This is started automatically when Init() is called.
 155:../../libDaisy//src/daisy_patch_sm.h ****          */
 156:../../libDaisy//src/daisy_patch_sm.h ****         void StartDac(DacHandle::DacCallback callback = nullptr);
 157:../../libDaisy//src/daisy_patch_sm.h **** 
 158:../../libDaisy//src/daisy_patch_sm.h ****         /** Stop the DAC from updating. 
 159:../../libDaisy//src/daisy_patch_sm.h ****          *  This will suspend the CV Outputs from changing 
 160:../../libDaisy//src/daisy_patch_sm.h ****          */
 161:../../libDaisy//src/daisy_patch_sm.h ****         void StopDac();
 162:../../libDaisy//src/daisy_patch_sm.h **** 
 163:../../libDaisy//src/daisy_patch_sm.h ****         /** Sets specified DAC channel to the target voltage. 
 164:../../libDaisy//src/daisy_patch_sm.h ****          *  This may not be 100% accurate without calibration. 
 165:../../libDaisy//src/daisy_patch_sm.h ****          *  
 166:../../libDaisy//src/daisy_patch_sm.h ****          *  \todo Add Calibration to CV Outputs
 167:../../libDaisy//src/daisy_patch_sm.h ****          * 
 168:../../libDaisy//src/daisy_patch_sm.h ****          *  \param channel desired channel to update. 0 is both, otherwise 1 or 2 are valid.
 169:../../libDaisy//src/daisy_patch_sm.h ****          *  \param voltage value in Volts that you'd like to write to the DAC. The valid range is 0
 170:../../libDaisy//src/daisy_patch_sm.h ****          */
 171:../../libDaisy//src/daisy_patch_sm.h ****         void WriteCvOut(const int channel, float voltage);
 172:../../libDaisy//src/daisy_patch_sm.h **** 
 173:../../libDaisy//src/daisy_patch_sm.h ****         /** Here are some wrappers around libDaisy Static functions 
 174:../../libDaisy//src/daisy_patch_sm.h ****          *  to provide simpler syntax to those who prefer it. */
 175:../../libDaisy//src/daisy_patch_sm.h **** 
 176:../../libDaisy//src/daisy_patch_sm.h ****         /** Delays for a specified number of milliseconds */
 177:../../libDaisy//src/daisy_patch_sm.h ****         inline void Delay(uint32_t milliseconds)
 178:../../libDaisy//src/daisy_patch_sm.h ****         {
 179:../../libDaisy//src/daisy_patch_sm.h ****             System::Delay(milliseconds);
 180:../../libDaisy//src/daisy_patch_sm.h ****         }
 181:../../libDaisy//src/daisy_patch_sm.h **** 
 182:../../libDaisy//src/daisy_patch_sm.h ****         /** Gets a random 32-bit value */
 183:../../libDaisy//src/daisy_patch_sm.h ****         inline uint32_t GetRandomValue() { return Random::GetValue(); }
 184:../../libDaisy//src/daisy_patch_sm.h **** 
 185:../../libDaisy//src/daisy_patch_sm.h ****         /** Gets a random floating point value between the specified minimum, and maxmimum */
 186:../../libDaisy//src/daisy_patch_sm.h ****         inline float GetRandomFloat(float min = 0.f, float max = 1.f)
 187:../../libDaisy//src/daisy_patch_sm.h ****         {
ARM GAS  /var/folders/hl/qgbwny5j0fd895c2c41bk3tw0000gp/T//ccOi8z5J.s 			page 27


 188:../../libDaisy//src/daisy_patch_sm.h ****             return Random::GetFloat(min, max);
 189:../../libDaisy//src/daisy_patch_sm.h ****         }
 190:../../libDaisy//src/daisy_patch_sm.h **** 
 191:../../libDaisy//src/daisy_patch_sm.h ****         void SetLed(bool state);
 192:../../libDaisy//src/daisy_patch_sm.h **** 
 193:../../libDaisy//src/daisy_patch_sm.h ****         /** Print formatted debug log message
 194:../../libDaisy//src/daisy_patch_sm.h ****          */
 195:../../libDaisy//src/daisy_patch_sm.h ****         template <typename... VA>
 196:../../libDaisy//src/daisy_patch_sm.h ****         static void Print(const char* format, VA... va)
 197:../../libDaisy//src/daisy_patch_sm.h ****         {
 198:../../libDaisy//src/daisy_patch_sm.h ****             Log::Print(format, va...);
 199:../../libDaisy//src/daisy_patch_sm.h ****         }
 200:../../libDaisy//src/daisy_patch_sm.h **** 
 201:../../libDaisy//src/daisy_patch_sm.h ****         /** Print formatted debug log message with automatic line termination
 202:../../libDaisy//src/daisy_patch_sm.h ****          */
 203:../../libDaisy//src/daisy_patch_sm.h ****         template <typename... VA>
 204:../../libDaisy//src/daisy_patch_sm.h ****         static void PrintLine(const char* format, VA... va)
 205:../../libDaisy//src/daisy_patch_sm.h ****         {
 206:../../libDaisy//src/daisy_patch_sm.h ****             Log::PrintLine(format, va...);
 207:../../libDaisy//src/daisy_patch_sm.h ****         }
 208:../../libDaisy//src/daisy_patch_sm.h **** 
 209:../../libDaisy//src/daisy_patch_sm.h ****         /** Start the logging session. Optionally wait for terminal connection before proceeding.
 210:../../libDaisy//src/daisy_patch_sm.h ****          */
 211:../../libDaisy//src/daisy_patch_sm.h ****         static void StartLog(bool wait_for_pc = false)
 728              		.loc 2 211 21 view .LVU164
 729              	.LBB346:
 212:../../libDaisy//src/daisy_patch_sm.h ****         {
 213:../../libDaisy//src/daisy_patch_sm.h ****             Log::StartLog(wait_for_pc);
 730              		.loc 2 213 13 view .LVU165
 731              		.loc 2 213 26 is_stmt 0 view .LVU166
 732 001e 0020     		movs	r0, #0
 733 0020 FFF7FEFF 		bl	_ZN5daisy6LoggerILNS_17LoggerDestinationE1EE8StartLogEb
 734              	.LVL54:
 735              		.loc 2 213 26 view .LVU167
 736              	.LBE346:
 737              	.LBE345:
  35:ClockTesting.cpp **** 
  36:ClockTesting.cpp **** 	hw.StartAudio(AudioCallback);
 738              		.loc 9 36 2 is_stmt 1 view .LVU168
 739              		.loc 9 36 15 is_stmt 0 view .LVU169
 740 0024 2C49     		ldr	r1, .L39+24
 741 0026 2A48     		ldr	r0, .L39+16
 742 0028 FFF7FEFF 		bl	_ZN5daisy8patch_sm12DaisyPatchSM10StartAudioEPFvPKPKfPPfjE
 743              	.LVL55:
 744 002c 1CE0     		b	.L33
 745              	.LVL56:
 746              	.L31:
  37:ClockTesting.cpp **** 	while(1) 
  38:ClockTesting.cpp **** 	{ 
  39:ClockTesting.cpp **** 		util.Start();
  40:ClockTesting.cpp **** 		hw.PrintLine("Value: %f", util.calculateFrequency());
 747              		.loc 9 40 3 is_stmt 1 view .LVU170
 748              	.LBB347:
 749              	.LBI347:
 750              		.file 11 "clock_util.h"
   1:clock_util.h  **** #pragma once
   2:clock_util.h  **** #ifndef CLOCK_UTIL_H
ARM GAS  /var/folders/hl/qgbwny5j0fd895c2c41bk3tw0000gp/T//ccOi8z5J.s 			page 28


   3:clock_util.h  **** #define CLOCK_UTIL_H
   4:clock_util.h  **** 
   5:clock_util.h  **** #include "daisysp.h"
   6:clock_util.h  **** #include "daisy.h"
   7:clock_util.h  **** 
   8:clock_util.h  **** using namespace daisy;
   9:clock_util.h  **** using namespace daisysp;
  10:clock_util.h  **** 
  11:clock_util.h  **** extern daisy::patch_sm::DaisyPatchSM hw;
  12:clock_util.h  **** 
  13:clock_util.h  **** class ClockUtils
  14:clock_util.h  **** {
  15:clock_util.h  **** public:
  16:clock_util.h  **** 
  17:clock_util.h  **** 
  18:clock_util.h  **** // provide a pulse (aka clock signal) to calculate the time between 2 pulses
  19:clock_util.h  **** 
  20:clock_util.h  **** /* calculate frequency from the given period samples. 
  21:clock_util.h  **** *   the formula for calculating the frequency from a given period is:
  22:clock_util.h  **** *   F = 1 / T 
  23:clock_util.h  **** *   where F is frequency and T is period  
  24:clock_util.h  **** */
  25:clock_util.h  **** 
  26:clock_util.h  **** void Start()
  27:clock_util.h  **** {
  28:clock_util.h  ****     if(hw.gate_in_1.Trig())
  29:clock_util.h  ****     {
  30:clock_util.h  ****         clockTiming();
  31:clock_util.h  ****     }
  32:clock_util.h  **** }
  33:clock_util.h  **** 
  34:clock_util.h  **** float calculateFrequency()
 751              		.loc 11 34 7 view .LVU171
 752              	.LBB348:
  35:clock_util.h  **** {
  36:clock_util.h  ****     frequency_ = 1 / (static_cast<float>(period_) / 1e6);
 753              		.loc 11 36 5 view .LVU172
 754              		.loc 11 36 23 is_stmt 0 view .LVU173
 755 002e D4ED027A 		vldr.32	s15, [r4, #8]	@ int
 756              		.loc 11 36 20 view .LVU174
 757 0032 B7EE004B 		vmov.f64	d4, #1.0e+0
  37:clock_util.h  ****     return frequency_ / 2;
 758              		.loc 11 37 25 view .LVU175
 759 0036 F6EE006A 		vmov.f32	s13, #5.0e-1
 760              	.LBE348:
 761              	.LBE347:
 762              	.LBB350:
 763              	.LBB351:
 206:../../libDaisy//src/daisy_patch_sm.h ****         }
 764              		.loc 2 206 27 view .LVU176
 765 003a 2848     		ldr	r0, .L39+28
 766              	.LBE351:
 767              	.LBE350:
 768              	.LBB353:
 769              	.LBB349:
  36:clock_util.h  ****     return frequency_ / 2;
 770              		.loc 11 36 23 view .LVU177
ARM GAS  /var/folders/hl/qgbwny5j0fd895c2c41bk3tw0000gp/T//ccOi8z5J.s 			page 29


 771 003c B8EE677A 		vcvt.f32.u32	s14, s15
  36:clock_util.h  ****     return frequency_ / 2;
 772              		.loc 11 36 51 view .LVU178
 773 0040 9FED1F3B 		vldr.64	d3, .L39
  36:clock_util.h  ****     return frequency_ / 2;
 774              		.loc 11 36 23 view .LVU179
 775 0044 B7EEC77A 		vcvt.f64.f32	d7, s14
  36:clock_util.h  ****     return frequency_ / 2;
 776              		.loc 11 36 51 view .LVU180
 777 0048 87EE035B 		vdiv.f64	d5, d7, d3
  36:clock_util.h  ****     return frequency_ / 2;
 778              		.loc 11 36 20 view .LVU181
 779 004c 84EE057B 		vdiv.f64	d7, d4, d5
 780 0050 B7EEC77B 		vcvt.f32.f64	s14, d7
 781              		.loc 11 37 25 view .LVU182
 782 0054 67EE267A 		vmul.f32	s15, s14, s13
  36:clock_util.h  ****     return frequency_ / 2;
 783              		.loc 11 36 16 view .LVU183
 784 0058 84ED007A 		vstr.32	s14, [r4]
 785              		.loc 11 37 5 is_stmt 1 view .LVU184
 786              	.LVL57:
 787              		.loc 11 37 5 is_stmt 0 view .LVU185
 788              	.LBE349:
 789              	.LBE353:
 790              	.LBB354:
 791              	.LBI350:
 204:../../libDaisy//src/daisy_patch_sm.h ****         {
 792              		.loc 2 204 21 is_stmt 1 view .LVU186
 793              	.LBB352:
 206:../../libDaisy//src/daisy_patch_sm.h ****         }
 794              		.loc 2 206 27 is_stmt 0 view .LVU187
 795 005c B7EEE77A 		vcvt.f64.f32	d7, s15
 796              	.LVL58:
 206:../../libDaisy//src/daisy_patch_sm.h ****         }
 797              		.loc 2 206 27 view .LVU188
 798 0060 53EC172B 		vmov	r2, r3, d7
 799 0064 FFF7FEFF 		bl	_ZN5daisy6LoggerILNS_17LoggerDestinationE1EE9PrintLineEPKcz
 800              	.LVL59:
 801              	.L33:
 206:../../libDaisy//src/daisy_patch_sm.h ****         }
 802              		.loc 2 206 27 view .LVU189
 803              	.LBE352:
 804              	.LBE354:
  37:ClockTesting.cpp **** 	{ 
 805              		.loc 9 37 2 is_stmt 1 discriminator 1 view .LVU190
  39:ClockTesting.cpp **** 		hw.PrintLine("Value: %f", util.calculateFrequency());
 806              		.loc 9 39 3 discriminator 1 view .LVU191
 807              	.LBB355:
 808              	.LBI355:
  26:clock_util.h  **** {
 809              		.loc 11 26 6 discriminator 1 view .LVU192
 810              	.LBB356:
  28:clock_util.h  ****     {
 811              		.loc 11 28 5 discriminator 1 view .LVU193
  28:clock_util.h  ****     {
 812              		.loc 11 28 25 is_stmt 0 discriminator 1 view .LVU194
 813 0068 1D48     		ldr	r0, .L39+32
ARM GAS  /var/folders/hl/qgbwny5j0fd895c2c41bk3tw0000gp/T//ccOi8z5J.s 			page 30


 814 006a FFF7FEFF 		bl	_ZN5daisy6GateIn4TrigEv
 815              	.LVL60:
  28:clock_util.h  ****     {
 816              		.loc 11 28 5 discriminator 1 view .LVU195
 817 006e 0028     		cmp	r0, #0
 818 0070 DDD0     		beq	.L31
  30:clock_util.h  ****     }
 819              		.loc 11 30 9 is_stmt 1 view .LVU196
 820              	.LVL61:
 821              	.LBB357:
 822              	.LBI357:
  38:clock_util.h  **** }
  39:clock_util.h  **** 
  40:clock_util.h  **** uint32_t returnPeriod()
  41:clock_util.h  **** {
  42:clock_util.h  ****     return period_;
  43:clock_util.h  **** }
  44:clock_util.h  **** 
  45:clock_util.h  **** private:
  46:clock_util.h  **** float frequency_;
  47:clock_util.h  **** uint32_t previous_clock_;
  48:clock_util.h  **** uint32_t period_;
  49:clock_util.h  **** 
  50:clock_util.h  **** 
  51:clock_util.h  **** // private functions 
  52:clock_util.h  **** uint32_t us_diff(uint32_t now, uint32_t last)
  53:clock_util.h  **** {
  54:clock_util.h  **** 	// credit nick @  https://www.infrasonicaudio.com/
  55:clock_util.h  ****     if (now < last)
  56:clock_util.h  ****     {
  57:clock_util.h  ****         // handle wraparound
  58:clock_util.h  ****         now += UINT32_MAX / (System::GetTickFreq() / 1e6);
  59:clock_util.h  ****     }
  60:clock_util.h  ****     return now - last;
  61:clock_util.h  **** }
  62:clock_util.h  **** 
  63:clock_util.h  **** void clockTiming() 
 823              		.loc 11 63 6 view .LVU197
 824              	.LBB358:
  64:clock_util.h  **** {
  65:clock_util.h  **** 	    period_ = us_diff(System::GetUs(), previous_clock_);
 825              		.loc 11 65 6 view .LVU198
 826              		.loc 11 65 23 is_stmt 0 view .LVU199
 827 0072 FFF7FEFF 		bl	_ZN5daisy6System5GetUsEv
 828              	.LVL62:
 829 0076 6668     		ldr	r6, [r4, #4]
 830 0078 0546     		mov	r5, r0
 831              	.LVL63:
 832              	.LBB359:
 833              	.LBI359:
  52:clock_util.h  **** {
 834              		.loc 11 52 10 is_stmt 1 view .LVU200
 835              	.LBB360:
  55:clock_util.h  ****     {
 836              		.loc 11 55 5 view .LVU201
 837 007a B042     		cmp	r0, r6
 838 007c 05D3     		bcc	.L38
ARM GAS  /var/folders/hl/qgbwny5j0fd895c2c41bk3tw0000gp/T//ccOi8z5J.s 			page 31


 839              	.LVL64:
 840              	.L32:
  60:clock_util.h  **** }
 841              		.loc 11 60 5 view .LVU202
  60:clock_util.h  **** }
 842              		.loc 11 60 18 is_stmt 0 view .LVU203
 843 007e AD1B     		subs	r5, r5, r6
 844              	.LBE360:
 845              	.LBE359:
 846              		.loc 11 65 14 view .LVU204
 847 0080 A560     		str	r5, [r4, #8]
  66:clock_util.h  **** 	    previous_clock_ = System::GetUs();
 848              		.loc 11 66 6 is_stmt 1 view .LVU205
 849              		.loc 11 66 37 is_stmt 0 view .LVU206
 850 0082 FFF7FEFF 		bl	_ZN5daisy6System5GetUsEv
 851              	.LVL65:
 852              		.loc 11 66 22 view .LVU207
 853 0086 6060     		str	r0, [r4, #4]
  67:clock_util.h  **** }
 854              		.loc 11 67 1 view .LVU208
 855 0088 D1E7     		b	.L31
 856              	.LVL66:
 857              	.L38:
 858              	.LBB362:
 859              	.LBB361:
  58:clock_util.h  ****     }
 860              		.loc 11 58 9 is_stmt 1 view .LVU209
  58:clock_util.h  ****     }
 861              		.loc 11 58 49 is_stmt 0 view .LVU210
 862 008a FFF7FEFF 		bl	_ZN5daisy6System11GetTickFreqEv
 863              	.LVL67:
  58:clock_util.h  ****     }
 864              		.loc 11 58 52 view .LVU211
 865 008e 07EE900A 		vmov	s15, r0	@ int
 866 0092 9FED0B3B 		vldr.64	d3, .L39
 867 0096 B8EE676B 		vcvt.f64.u32	d6, s15
  58:clock_util.h  ****     }
 868              		.loc 11 58 13 view .LVU212
 869 009a 07EE905A 		vmov	s15, r5	@ int
  58:clock_util.h  ****     }
 870              		.loc 11 58 27 view .LVU213
 871 009e 9FED0A4B 		vldr.64	d4, .L39+8
  58:clock_util.h  ****     }
 872              		.loc 11 58 52 view .LVU214
 873 00a2 86EE035B 		vdiv.f64	d5, d6, d3
  58:clock_util.h  ****     }
 874              		.loc 11 58 13 view .LVU215
 875 00a6 B8EE677B 		vcvt.f64.u32	d7, s15
  58:clock_util.h  ****     }
 876              		.loc 11 58 27 view .LVU216
 877 00aa 84EE056B 		vdiv.f64	d6, d4, d5
  58:clock_util.h  ****     }
 878              		.loc 11 58 13 view .LVU217
 879 00ae 36EE077B 		vadd.f64	d7, d6, d7
 880 00b2 FCEEC77B 		vcvt.u32.f64	s15, d7
 881 00b6 17EE905A 		vmov	r5, s15	@ int
 882              	.LVL68:
ARM GAS  /var/folders/hl/qgbwny5j0fd895c2c41bk3tw0000gp/T//ccOi8z5J.s 			page 32


  58:clock_util.h  ****     }
 883              		.loc 11 58 13 view .LVU218
 884 00ba E0E7     		b	.L32
 885              	.L40:
 886 00bc AFF30080 		.align	3
 887              	.L39:
 888 00c0 00000000 		.word	0
 889 00c4 80842E41 		.word	1093567616
 890 00c8 0000E0FF 		.word	-2097152
 891 00cc FFFFEF41 		.word	1106247679
 892 00d0 00000000 		.word	.LANCHOR0
 893 00d4 00000000 		.word	.LANCHOR19
 894 00d8 00000000 		.word	_Z13AudioCallbackPKPKfPPfj
 895 00dc 00000000 		.word	.LC0
 896 00e0 B0010000 		.word	.LANCHOR0+432
 897              	.LBE361:
 898              	.LBE362:
 899              	.LBE358:
 900              	.LBE357:
 901              	.LBE356:
 902              	.LBE355:
 903              		.cfi_endproc
 904              	.LFE4803:
 906              		.section	.text.startup._GLOBAL__sub_I__ZN5daisy8patch_sm8gen_led1E,"ax",%progbits
 907              		.align	1
 908              		.p2align 2,,3
 909              		.syntax unified
 910              		.thumb
 911              		.thumb_func
 912              		.fpu fpv5-d16
 914              	_GLOBAL__sub_I__ZN5daisy8patch_sm8gen_led1E:
 915              	.LFB5364:
  41:ClockTesting.cpp **** 	}
  42:ClockTesting.cpp **** }...
 916              		.loc 9 42 1 is_stmt 1 view -0
 917              		.cfi_startproc
 918              		@ args = 0, pretend = 0, frame = 0
 919              		@ frame_needed = 0, uses_anonymous_args = 0
 920              	.LBB483:
 921              	.LBI483:
 922              		.loc 9 42 1 view .LVU220
 923              	.LVL69:
 924              	.LBB484:
 925              	.LBB485:
 926              	.LBI485:
 927              		.file 12 "../../libDaisy//src/per/gpio.h"
   1:../../libDaisy//src/per/gpio.h **** #pragma once
   2:../../libDaisy//src/per/gpio.h **** #ifndef DSY_GPIO_H
   3:../../libDaisy//src/per/gpio.h **** #define DSY_GPIO_H
   4:../../libDaisy//src/per/gpio.h **** #include "daisy_core.h"
   5:../../libDaisy//src/per/gpio.h **** 
   6:../../libDaisy//src/per/gpio.h **** #ifdef __cplusplus
   7:../../libDaisy//src/per/gpio.h **** 
   8:../../libDaisy//src/per/gpio.h **** namespace daisy
   9:../../libDaisy//src/per/gpio.h **** {
  10:../../libDaisy//src/per/gpio.h **** /** @brief General Purpose I/O control 
  11:../../libDaisy//src/per/gpio.h ****  *  @details peripheral control over a single GPIO
ARM GAS  /var/folders/hl/qgbwny5j0fd895c2c41bk3tw0000gp/T//ccOi8z5J.s 			page 33


  12:../../libDaisy//src/per/gpio.h ****  *  @ingroup peripheral
  13:../../libDaisy//src/per/gpio.h ****  *   
  14:../../libDaisy//src/per/gpio.h ****  *  Button Input (with internal Pullup resistor)
  15:../../libDaisy//src/per/gpio.h ****  *  @include GPIO_Input.cpp 
  16:../../libDaisy//src/per/gpio.h ****  * 
  17:../../libDaisy//src/per/gpio.h ****  *  Output Example (perfect for blinking an LED)
  18:../../libDaisy//src/per/gpio.h ****  *  @include GPIO_Output.cpp
  19:../../libDaisy//src/per/gpio.h ****  * 
  20:../../libDaisy//src/per/gpio.h **** */
  21:../../libDaisy//src/per/gpio.h **** class GPIO
  22:../../libDaisy//src/per/gpio.h **** {
  23:../../libDaisy//src/per/gpio.h ****   public:
  24:../../libDaisy//src/per/gpio.h ****     /** @brief Mode of operation for the specified GPIO */
  25:../../libDaisy//src/per/gpio.h ****     enum class Mode
  26:../../libDaisy//src/per/gpio.h ****     {
  27:../../libDaisy//src/per/gpio.h ****         INPUT,     /**< Input for reading state of pin */
  28:../../libDaisy//src/per/gpio.h ****         OUTPUT,    /**< Output w/ push-pull configuration */
  29:../../libDaisy//src/per/gpio.h ****         OUTPUT_OD, /**< Output w/ open-drain configuration */
  30:../../libDaisy//src/per/gpio.h ****         ANALOG,    /**< Analog for connection to ADC or DAC peripheral */
  31:../../libDaisy//src/per/gpio.h ****     };
  32:../../libDaisy//src/per/gpio.h **** 
  33:../../libDaisy//src/per/gpio.h ****     /** @brief Configures whether an internal Pull up or Pull down resistor is used. 
  34:../../libDaisy//src/per/gpio.h ****      *  
  35:../../libDaisy//src/per/gpio.h ****      * Internal Pull up/down resistors are typically 40k ohms, and will be between
  36:../../libDaisy//src/per/gpio.h ****      * 30k and 50k
  37:../../libDaisy//src/per/gpio.h ****      * 
  38:../../libDaisy//src/per/gpio.h ****      * When the Pin is configured in Analog mode, the pull up/down resistors are
  39:../../libDaisy//src/per/gpio.h ****      * disabled by hardware. 
  40:../../libDaisy//src/per/gpio.h ****      */
  41:../../libDaisy//src/per/gpio.h ****     enum class Pull
  42:../../libDaisy//src/per/gpio.h ****     {
  43:../../libDaisy//src/per/gpio.h ****         NOPULL,   /**< No pull up resistor */
  44:../../libDaisy//src/per/gpio.h ****         PULLUP,   /**< Internal pull up enabled */
  45:../../libDaisy//src/per/gpio.h ****         PULLDOWN, /**< Internal pull down enabled*/
  46:../../libDaisy//src/per/gpio.h ****     };
  47:../../libDaisy//src/per/gpio.h **** 
  48:../../libDaisy//src/per/gpio.h ****     /** @brief Output speed controls the drive strength, and slew rate of the pin */
  49:../../libDaisy//src/per/gpio.h ****     enum class Speed
  50:../../libDaisy//src/per/gpio.h ****     {
  51:../../libDaisy//src/per/gpio.h ****         LOW,
  52:../../libDaisy//src/per/gpio.h ****         MEDIUM,
  53:../../libDaisy//src/per/gpio.h ****         HIGH,
  54:../../libDaisy//src/per/gpio.h ****         VERY_HIGH,
  55:../../libDaisy//src/per/gpio.h ****     };
  56:../../libDaisy//src/per/gpio.h **** 
  57:../../libDaisy//src/per/gpio.h ****     /** @brief Configuration for a given GPIO */
  58:../../libDaisy//src/per/gpio.h ****     struct Config
  59:../../libDaisy//src/per/gpio.h ****     {
  60:../../libDaisy//src/per/gpio.h ****         Pin   pin;
  61:../../libDaisy//src/per/gpio.h ****         Mode  mode;
  62:../../libDaisy//src/per/gpio.h ****         Pull  pull;
  63:../../libDaisy//src/per/gpio.h ****         Speed speed;
  64:../../libDaisy//src/per/gpio.h **** 
  65:../../libDaisy//src/per/gpio.h ****         /** Constructor with no arguments will prepare an invalid GPIO set as
  66:../../libDaisy//src/per/gpio.h ****          *  an input, with no pullup. 
  67:../../libDaisy//src/per/gpio.h ****          */
  68:../../libDaisy//src/per/gpio.h ****         Config()
ARM GAS  /var/folders/hl/qgbwny5j0fd895c2c41bk3tw0000gp/T//ccOi8z5J.s 			page 34


  69:../../libDaisy//src/per/gpio.h ****         : pin(), mode(Mode::INPUT), pull(Pull::NOPULL), speed(Speed::LOW)
  70:../../libDaisy//src/per/gpio.h ****         {
  71:../../libDaisy//src/per/gpio.h ****         }
  72:../../libDaisy//src/per/gpio.h ****     };
  73:../../libDaisy//src/per/gpio.h **** 
  74:../../libDaisy//src/per/gpio.h ****     GPIO() {}
 928              		.loc 12 74 5 view .LVU221
 929              	.LBB486:
 930              	.LBB487:
 931              	.LBI487:
  68:../../libDaisy//src/per/gpio.h ****         : pin(), mode(Mode::INPUT), pull(Pull::NOPULL), speed(Speed::LOW)
 932              		.loc 12 68 9 view .LVU222
 933              	.LBB488:
 934              	.LBB489:
 935              	.LBB490:
 936              	.LBI490:
 937              		.file 13 "../../libDaisy//src/daisy_core.h"
   1:../../libDaisy//src/daisy_core.h **** #pragma once
   2:../../libDaisy//src/daisy_core.h **** #ifndef DSY_CORE_HW_H
   3:../../libDaisy//src/daisy_core.h **** #define DSY_CORE_HW_H /**< & */
   4:../../libDaisy//src/daisy_core.h **** #include <stdint.h>
   5:../../libDaisy//src/daisy_core.h **** #include <stdlib.h>
   6:../../libDaisy//src/daisy_core.h **** 
   7:../../libDaisy//src/daisy_core.h **** #if defined(_MSC_VER)
   8:../../libDaisy//src/daisy_core.h **** #define FORCE_INLINE __forceinline /**< & */
   9:../../libDaisy//src/daisy_core.h **** #elif defined(__clang__)
  10:../../libDaisy//src/daisy_core.h **** #define FORCE_INLINE inline __attribute__((always_inline)) /**< & */
  11:../../libDaisy//src/daisy_core.h **** #pragma clang diagnostic ignored "-Wduplicate-decl-specifier"
  12:../../libDaisy//src/daisy_core.h **** #elif defined(__GNUC__)
  13:../../libDaisy//src/daisy_core.h **** #define FORCE_INLINE inline __attribute__((always_inline)) /**< & */
  14:../../libDaisy//src/daisy_core.h **** #else
  15:../../libDaisy//src/daisy_core.h **** #error unknown compiler
  16:../../libDaisy//src/daisy_core.h **** #endif
  17:../../libDaisy//src/daisy_core.h **** 
  18:../../libDaisy//src/daisy_core.h **** /** @addtogroup utility
  19:../../libDaisy//src/daisy_core.h ****     @{
  20:../../libDaisy//src/daisy_core.h **** */
  21:../../libDaisy//src/daisy_core.h **** 
  22:../../libDaisy//src/daisy_core.h **** /** Macro for area of memory that is configured as cacheless
  23:../../libDaisy//src/daisy_core.h **** This should be used primarily for DMA buffers, and the like.
  24:../../libDaisy//src/daisy_core.h **** */
  25:../../libDaisy//src/daisy_core.h **** #define DMA_BUFFER_MEM_SECTION __attribute__((section(".sram1_bss")))
  26:../../libDaisy//src/daisy_core.h **** /** 
  27:../../libDaisy//src/daisy_core.h **** THE DTCM RAM section is also non-cached. However, is not suitable 
  28:../../libDaisy//src/daisy_core.h **** for DMA transfers. Performance is on par with internal SRAM w/ 
  29:../../libDaisy//src/daisy_core.h **** cache enabled.
  30:../../libDaisy//src/daisy_core.h **** */
  31:../../libDaisy//src/daisy_core.h **** #define DTCM_MEM_SECTION __attribute__((section(".dtcmram_bss")))
  32:../../libDaisy//src/daisy_core.h **** 
  33:../../libDaisy//src/daisy_core.h **** #define FBIPMAX 0.999985f             /**< close to 1.0f-LSB at 16 bit */
  34:../../libDaisy//src/daisy_core.h **** #define FBIPMIN (-FBIPMAX)            /**< - (1 - LSB) */
  35:../../libDaisy//src/daisy_core.h **** #define U82F_SCALE 0.0078740f         /**< 1 / 127 */
  36:../../libDaisy//src/daisy_core.h **** #define F2U8_SCALE 127.0f             /**< 128 - 1 */
  37:../../libDaisy//src/daisy_core.h **** #define S82F_SCALE 0.0078125f         /**< 1 / (2**7) */
  38:../../libDaisy//src/daisy_core.h **** #define F2S8_SCALE 127.0f             /**< (2 ** 7) - 1 */
  39:../../libDaisy//src/daisy_core.h **** #define S162F_SCALE 3.0517578125e-05f /**< 1 / (2** 15) */
  40:../../libDaisy//src/daisy_core.h **** #define F2S16_SCALE 32767.0f          /**< (2 ** 15) - 1 */
ARM GAS  /var/folders/hl/qgbwny5j0fd895c2c41bk3tw0000gp/T//ccOi8z5J.s 			page 35


  41:../../libDaisy//src/daisy_core.h **** #define F2S24_SCALE 8388608.0f        /**< 2 ** 23 */
  42:../../libDaisy//src/daisy_core.h **** #define S242F_SCALE 1.192092896e-07f  /**< 1 / (2 ** 23) */
  43:../../libDaisy//src/daisy_core.h **** #define S24SIGN 0x800000              /**< 2 ** 23 */
  44:../../libDaisy//src/daisy_core.h **** #define S322F_SCALE 4.6566129e-10f    /**< 1 / (2** 31) */
  45:../../libDaisy//src/daisy_core.h **** #define F2S32_SCALE 2147483647.f      /**< (2 ** 31) - 1 */
  46:../../libDaisy//src/daisy_core.h **** 
  47:../../libDaisy//src/daisy_core.h **** 
  48:../../libDaisy//src/daisy_core.h **** /** shorthand macro for simplifying the reading of the left 
  49:../../libDaisy//src/daisy_core.h ****  *  channel of a non-interleaved output buffer named out */
  50:../../libDaisy//src/daisy_core.h **** #define OUT_L out[0]
  51:../../libDaisy//src/daisy_core.h **** 
  52:../../libDaisy//src/daisy_core.h **** /** shorthand macro for simplifying the reading of the right 
  53:../../libDaisy//src/daisy_core.h ****  *  channel of a non-interleaved output buffer named out */
  54:../../libDaisy//src/daisy_core.h **** #define OUT_R out[1]
  55:../../libDaisy//src/daisy_core.h **** 
  56:../../libDaisy//src/daisy_core.h **** /** shorthand macro for simplifying the reading of the left 
  57:../../libDaisy//src/daisy_core.h ****  *  channel of a non-interleaved input buffer named in */
  58:../../libDaisy//src/daisy_core.h **** #define IN_L in[0]
  59:../../libDaisy//src/daisy_core.h **** 
  60:../../libDaisy//src/daisy_core.h **** /** shorthand macro for simplifying the reading of the right 
  61:../../libDaisy//src/daisy_core.h ****  *  channel of a non-interleaved input buffer named in */
  62:../../libDaisy//src/daisy_core.h **** #define IN_R in[1]
  63:../../libDaisy//src/daisy_core.h **** 
  64:../../libDaisy//src/daisy_core.h **** /** 
  65:../../libDaisy//src/daisy_core.h ****     Computes cube.
  66:../../libDaisy//src/daisy_core.h ****     \param x Number to be cubed
  67:../../libDaisy//src/daisy_core.h ****     \return x ^ 3
  68:../../libDaisy//src/daisy_core.h **** */
  69:../../libDaisy//src/daisy_core.h **** FORCE_INLINE float cube(float x)
  70:../../libDaisy//src/daisy_core.h **** {
  71:../../libDaisy//src/daisy_core.h ****     return (x * x) * x;
  72:../../libDaisy//src/daisy_core.h **** }
  73:../../libDaisy//src/daisy_core.h **** 
  74:../../libDaisy//src/daisy_core.h **** /** 
  75:../../libDaisy//src/daisy_core.h ****     Converts unsigned 8-bit to float
  76:../../libDaisy//src/daisy_core.h ****     \param x Number to be scaled.
  77:../../libDaisy//src/daisy_core.h ****     \return Scaled number.
  78:../../libDaisy//src/daisy_core.h **** */
  79:../../libDaisy//src/daisy_core.h **** FORCE_INLINE float u82f(uint8_t x)
  80:../../libDaisy//src/daisy_core.h **** {
  81:../../libDaisy//src/daisy_core.h ****     return ((float)x - 127.f) * U82F_SCALE;
  82:../../libDaisy//src/daisy_core.h **** }
  83:../../libDaisy//src/daisy_core.h **** 
  84:../../libDaisy//src/daisy_core.h **** /**
  85:../../libDaisy//src/daisy_core.h ****     Converts float to unsigned 8-bit
  86:../../libDaisy//src/daisy_core.h **** */
  87:../../libDaisy//src/daisy_core.h **** FORCE_INLINE uint8_t f2u8(float x)
  88:../../libDaisy//src/daisy_core.h **** {
  89:../../libDaisy//src/daisy_core.h ****     x = x <= FBIPMIN ? FBIPMIN : x;
  90:../../libDaisy//src/daisy_core.h ****     x = x >= FBIPMAX ? FBIPMAX : x;
  91:../../libDaisy//src/daisy_core.h ****     return (uint8_t)((x * F2U8_SCALE) + F2U8_SCALE);
  92:../../libDaisy//src/daisy_core.h **** }
  93:../../libDaisy//src/daisy_core.h **** 
  94:../../libDaisy//src/daisy_core.h **** 
  95:../../libDaisy//src/daisy_core.h **** /** 
  96:../../libDaisy//src/daisy_core.h ****     Converts Signed 8-bit to float
  97:../../libDaisy//src/daisy_core.h ****     \param x Number to be scaled.
ARM GAS  /var/folders/hl/qgbwny5j0fd895c2c41bk3tw0000gp/T//ccOi8z5J.s 			page 36


  98:../../libDaisy//src/daisy_core.h ****     \return Scaled number.
  99:../../libDaisy//src/daisy_core.h **** */
 100:../../libDaisy//src/daisy_core.h **** FORCE_INLINE float s82f(int8_t x)
 101:../../libDaisy//src/daisy_core.h **** {
 102:../../libDaisy//src/daisy_core.h ****     return (float)x * S82F_SCALE;
 103:../../libDaisy//src/daisy_core.h **** }
 104:../../libDaisy//src/daisy_core.h **** 
 105:../../libDaisy//src/daisy_core.h **** /**
 106:../../libDaisy//src/daisy_core.h ****     Converts float to Signed 8-bit
 107:../../libDaisy//src/daisy_core.h **** */
 108:../../libDaisy//src/daisy_core.h **** FORCE_INLINE int8_t f2s8(float x)
 109:../../libDaisy//src/daisy_core.h **** {
 110:../../libDaisy//src/daisy_core.h ****     x = x <= FBIPMIN ? FBIPMIN : x;
 111:../../libDaisy//src/daisy_core.h ****     x = x >= FBIPMAX ? FBIPMAX : x;
 112:../../libDaisy//src/daisy_core.h ****     return (int32_t)(x * F2S8_SCALE);
 113:../../libDaisy//src/daisy_core.h **** }
 114:../../libDaisy//src/daisy_core.h **** 
 115:../../libDaisy//src/daisy_core.h **** /** 
 116:../../libDaisy//src/daisy_core.h ****     Converts Signed 16-bit to float
 117:../../libDaisy//src/daisy_core.h ****     \param x Number to be scaled.
 118:../../libDaisy//src/daisy_core.h ****     \return Scaled number.
 119:../../libDaisy//src/daisy_core.h **** */
 120:../../libDaisy//src/daisy_core.h **** FORCE_INLINE float s162f(int16_t x)
 121:../../libDaisy//src/daisy_core.h **** {
 122:../../libDaisy//src/daisy_core.h ****     return (float)x * S162F_SCALE;
 123:../../libDaisy//src/daisy_core.h **** }
 124:../../libDaisy//src/daisy_core.h **** 
 125:../../libDaisy//src/daisy_core.h **** /**
 126:../../libDaisy//src/daisy_core.h ****     Converts float to Signed 16-bit
 127:../../libDaisy//src/daisy_core.h **** */
 128:../../libDaisy//src/daisy_core.h **** FORCE_INLINE int16_t f2s16(float x)
 129:../../libDaisy//src/daisy_core.h **** {
 130:../../libDaisy//src/daisy_core.h ****     x = x <= FBIPMIN ? FBIPMIN : x;
 131:../../libDaisy//src/daisy_core.h ****     x = x >= FBIPMAX ? FBIPMAX : x;
 132:../../libDaisy//src/daisy_core.h ****     return (int32_t)(x * F2S16_SCALE);
 133:../../libDaisy//src/daisy_core.h **** }
 134:../../libDaisy//src/daisy_core.h **** 
 135:../../libDaisy//src/daisy_core.h **** /**
 136:../../libDaisy//src/daisy_core.h ****     Converts Signed 24-bit to float
 137:../../libDaisy//src/daisy_core.h ****  */
 138:../../libDaisy//src/daisy_core.h **** FORCE_INLINE float s242f(int32_t x)
 139:../../libDaisy//src/daisy_core.h **** {
 140:../../libDaisy//src/daisy_core.h ****     x = (x ^ S24SIGN) - S24SIGN; //sign extend aka ((x<<8)>>8)
 141:../../libDaisy//src/daisy_core.h ****     return (float)x * S242F_SCALE;
 142:../../libDaisy//src/daisy_core.h **** }
 143:../../libDaisy//src/daisy_core.h **** /**
 144:../../libDaisy//src/daisy_core.h ****     Converts float to Signed 24-bit
 145:../../libDaisy//src/daisy_core.h ****  */
 146:../../libDaisy//src/daisy_core.h **** FORCE_INLINE int32_t f2s24(float x)
 147:../../libDaisy//src/daisy_core.h **** {
 148:../../libDaisy//src/daisy_core.h ****     x = x <= FBIPMIN ? FBIPMIN : x;
 149:../../libDaisy//src/daisy_core.h ****     x = x >= FBIPMAX ? FBIPMAX : x;
 150:../../libDaisy//src/daisy_core.h ****     return (int32_t)(x * F2S24_SCALE);
 151:../../libDaisy//src/daisy_core.h **** }
 152:../../libDaisy//src/daisy_core.h **** 
 153:../../libDaisy//src/daisy_core.h **** /**
 154:../../libDaisy//src/daisy_core.h ****     Converts Signed 32-bit to float
ARM GAS  /var/folders/hl/qgbwny5j0fd895c2c41bk3tw0000gp/T//ccOi8z5J.s 			page 37


 155:../../libDaisy//src/daisy_core.h ****  */
 156:../../libDaisy//src/daisy_core.h **** FORCE_INLINE float s322f(int32_t x)
 157:../../libDaisy//src/daisy_core.h **** {
 158:../../libDaisy//src/daisy_core.h ****     return (float)x * S322F_SCALE;
 159:../../libDaisy//src/daisy_core.h **** }
 160:../../libDaisy//src/daisy_core.h **** /**
 161:../../libDaisy//src/daisy_core.h ****     Converts float to Signed 24-bit
 162:../../libDaisy//src/daisy_core.h ****  */
 163:../../libDaisy//src/daisy_core.h **** FORCE_INLINE int32_t f2s32(float x)
 164:../../libDaisy//src/daisy_core.h **** {
 165:../../libDaisy//src/daisy_core.h ****     x = x <= FBIPMIN ? FBIPMIN : x;
 166:../../libDaisy//src/daisy_core.h ****     x = x >= FBIPMAX ? FBIPMAX : x;
 167:../../libDaisy//src/daisy_core.h ****     return (int32_t)(x * F2S32_SCALE);
 168:../../libDaisy//src/daisy_core.h **** }
 169:../../libDaisy//src/daisy_core.h **** 
 170:../../libDaisy//src/daisy_core.h **** 
 171:../../libDaisy//src/daisy_core.h **** /** Enums and a simple struct for defining a hardware pin on the MCU
 172:../../libDaisy//src/daisy_core.h ****  *  These correlate with the stm32 datasheet, and are used to configure
 173:../../libDaisy//src/daisy_core.h ****  *  the hardware.
 174:../../libDaisy//src/daisy_core.h ****  * 
 175:../../libDaisy//src/daisy_core.h ****  *  This along with the dsy_gpio_pin class should no longer be used.
 176:../../libDaisy//src/daisy_core.h ****  *  They are available for backwards compatability. 
 177:../../libDaisy//src/daisy_core.h ****  * 
 178:../../libDaisy//src/daisy_core.h ****  *  Please use GPIOPort enum and the Pin struct instead.
 179:../../libDaisy//src/daisy_core.h ****  */
 180:../../libDaisy//src/daisy_core.h **** typedef enum
 181:../../libDaisy//src/daisy_core.h **** {
 182:../../libDaisy//src/daisy_core.h ****     DSY_GPIOA, /**< & */
 183:../../libDaisy//src/daisy_core.h ****     DSY_GPIOB, /**< & */
 184:../../libDaisy//src/daisy_core.h ****     DSY_GPIOC, /**< & */
 185:../../libDaisy//src/daisy_core.h ****     DSY_GPIOD, /**< & */
 186:../../libDaisy//src/daisy_core.h ****     DSY_GPIOE, /**< & */
 187:../../libDaisy//src/daisy_core.h ****     DSY_GPIOF, /**< & */
 188:../../libDaisy//src/daisy_core.h ****     DSY_GPIOG, /**< & */
 189:../../libDaisy//src/daisy_core.h ****     DSY_GPIOH, /**< & */
 190:../../libDaisy//src/daisy_core.h ****     DSY_GPIOI, /**< & */
 191:../../libDaisy//src/daisy_core.h ****     DSY_GPIOJ, /**< & */
 192:../../libDaisy//src/daisy_core.h ****     DSY_GPIOK, /**< & */
 193:../../libDaisy//src/daisy_core.h ****     DSY_GPIOX, /** This is a non-existant port for unsupported bits of hardware. */
 194:../../libDaisy//src/daisy_core.h ****     DSY_GPIO_LAST, /** Final enum member */
 195:../../libDaisy//src/daisy_core.h **** } dsy_gpio_port;
 196:../../libDaisy//src/daisy_core.h **** 
 197:../../libDaisy//src/daisy_core.h **** /** Hardware define pins 
 198:../../libDaisy//src/daisy_core.h ****  *  
 199:../../libDaisy//src/daisy_core.h ****  *  The dsy_gpio_pin struct should no longer be used, and is only available for
 200:../../libDaisy//src/daisy_core.h ****  *  backwards compatability.
 201:../../libDaisy//src/daisy_core.h ****  * 
 202:../../libDaisy//src/daisy_core.h ****  *  Please use Pin struct instead.
 203:../../libDaisy//src/daisy_core.h ****  */
 204:../../libDaisy//src/daisy_core.h **** typedef struct
 205:../../libDaisy//src/daisy_core.h **** {
 206:../../libDaisy//src/daisy_core.h ****     dsy_gpio_port port; /**< & */
 207:../../libDaisy//src/daisy_core.h ****     uint8_t       pin;  /**< number 0-15 */
 208:../../libDaisy//src/daisy_core.h **** } dsy_gpio_pin;
 209:../../libDaisy//src/daisy_core.h **** 
 210:../../libDaisy//src/daisy_core.h **** /** Helper for creating pins from port/pin combos easily
 211:../../libDaisy//src/daisy_core.h ****  * 
ARM GAS  /var/folders/hl/qgbwny5j0fd895c2c41bk3tw0000gp/T//ccOi8z5J.s 			page 38


 212:../../libDaisy//src/daisy_core.h ****  *  The dsy_gpio_pin struct should no longer be used, and is only available for
 213:../../libDaisy//src/daisy_core.h ****  *  backwards compatability.
 214:../../libDaisy//src/daisy_core.h ****  * 
 215:../../libDaisy//src/daisy_core.h ****  *  Please use Pin struct instead.
 216:../../libDaisy//src/daisy_core.h **** */
 217:../../libDaisy//src/daisy_core.h **** FORCE_INLINE dsy_gpio_pin dsy_pin(dsy_gpio_port port, uint8_t pin)
 218:../../libDaisy//src/daisy_core.h **** {
 219:../../libDaisy//src/daisy_core.h ****     dsy_gpio_pin p;
 220:../../libDaisy//src/daisy_core.h ****     p.port = port;
 221:../../libDaisy//src/daisy_core.h ****     p.pin  = pin;
 222:../../libDaisy//src/daisy_core.h ****     return p;
 223:../../libDaisy//src/daisy_core.h **** }
 224:../../libDaisy//src/daisy_core.h **** 
 225:../../libDaisy//src/daisy_core.h **** /** Helper for testing sameness of two dsy_gpio_pins
 226:../../libDaisy//src/daisy_core.h ****  *  \return    1 if same, 0 if different
 227:../../libDaisy//src/daisy_core.h ****  * 
 228:../../libDaisy//src/daisy_core.h ****  *  The dsy_gpio_pin struct should no longer be used, and is only available for
 229:../../libDaisy//src/daisy_core.h ****  *  backwards compatability.
 230:../../libDaisy//src/daisy_core.h ****  * 
 231:../../libDaisy//src/daisy_core.h ****  *  Please use Pin struct instead.
 232:../../libDaisy//src/daisy_core.h ****  */
 233:../../libDaisy//src/daisy_core.h **** FORCE_INLINE uint8_t dsy_pin_cmp(dsy_gpio_pin *a, dsy_gpio_pin *b)
 234:../../libDaisy//src/daisy_core.h **** {
 235:../../libDaisy//src/daisy_core.h ****     return ((a->port == b->port) && (a->pin == b->pin));
 236:../../libDaisy//src/daisy_core.h **** }
 237:../../libDaisy//src/daisy_core.h **** 
 238:../../libDaisy//src/daisy_core.h **** #ifdef __cplusplus
 239:../../libDaisy//src/daisy_core.h **** 
 240:../../libDaisy//src/daisy_core.h **** namespace daisy
 241:../../libDaisy//src/daisy_core.h **** {
 242:../../libDaisy//src/daisy_core.h **** /** @brief GPIO Port names */
 243:../../libDaisy//src/daisy_core.h **** enum GPIOPort
 244:../../libDaisy//src/daisy_core.h **** {
 245:../../libDaisy//src/daisy_core.h ****     PORTA, /**< Port A */
 246:../../libDaisy//src/daisy_core.h ****     PORTB, /**< Port B */
 247:../../libDaisy//src/daisy_core.h ****     PORTC, /**< Port C */
 248:../../libDaisy//src/daisy_core.h ****     PORTD, /**< Port D */
 249:../../libDaisy//src/daisy_core.h ****     PORTE, /**< Port E */
 250:../../libDaisy//src/daisy_core.h ****     PORTF, /**< Port F */
 251:../../libDaisy//src/daisy_core.h ****     PORTG, /**< Port G */
 252:../../libDaisy//src/daisy_core.h ****     PORTH, /**< Port H */
 253:../../libDaisy//src/daisy_core.h ****     PORTI, /**< Port I */
 254:../../libDaisy//src/daisy_core.h ****     PORTJ, /**< Port J */
 255:../../libDaisy//src/daisy_core.h ****     PORTK, /**< Port K */
 256:../../libDaisy//src/daisy_core.h ****     PORTX, /**< Used as a dummy port to signal an invalid pin. */
 257:../../libDaisy//src/daisy_core.h **** };
 258:../../libDaisy//src/daisy_core.h **** 
 259:../../libDaisy//src/daisy_core.h **** /** @brief representation of hardware port/pin combination */
 260:../../libDaisy//src/daisy_core.h **** struct Pin
 261:../../libDaisy//src/daisy_core.h **** {
 262:../../libDaisy//src/daisy_core.h ****     GPIOPort port;
 263:../../libDaisy//src/daisy_core.h ****     uint8_t  pin;
 264:../../libDaisy//src/daisy_core.h **** 
 265:../../libDaisy//src/daisy_core.h ****     /** @brief Constructor creates a valid pin. 
 266:../../libDaisy//src/daisy_core.h ****      *  @param pt GPIOPort between PA, and PK corresponding to STM32 Port.
 267:../../libDaisy//src/daisy_core.h ****      *  @param pn pin number in range of 0-15
 268:../../libDaisy//src/daisy_core.h ****     */
ARM GAS  /var/folders/hl/qgbwny5j0fd895c2c41bk3tw0000gp/T//ccOi8z5J.s 			page 39


 269:../../libDaisy//src/daisy_core.h ****     constexpr Pin(const GPIOPort pt, const uint8_t pn) : port(pt), pin(pn) {}
 270:../../libDaisy//src/daisy_core.h **** 
 271:../../libDaisy//src/daisy_core.h ****     /** @brief Basic Constructor creates an invalid Pin object */
 272:../../libDaisy//src/daisy_core.h ****     constexpr Pin() : port(PORTX), pin(255) {}
 938              		.loc 13 272 15 view .LVU223
 939              		.loc 13 272 15 is_stmt 0 view .LVU224
 940              	.LBE490:
 941              	.LBE489:
 942              	.LBE488:
 943              	.LBE487:
 944              	.LBE486:
 945              	.LBE485:
 946              	.LBE484:
 947              	.LBE483:
 948              		.loc 9 42 1 view .LVU225
 949 0000 38B5     		push	{r3, r4, r5, lr}
 950              		.cfi_def_cfa_offset 16
 951              		.cfi_offset 3, -16
 952              		.cfi_offset 4, -12
 953              		.cfi_offset 5, -8
 954              		.cfi_offset 14, -4
 955              	.LBB686:
 956              	.LBB683:
 957              	.LBB503:
 958              	.LBB504:
 959              		.loc 12 74 12 view .LVU226
 960 0002 404A     		ldr	r2, .L43
 961              	.LBE504:
 962              	.LBE503:
 963              	.LBB514:
 964              	.LBB500:
 965              	.LBB497:
 966              	.LBB494:
 967              	.LBB491:
  69:../../libDaisy//src/per/gpio.h ****         {
 968              		.loc 12 69 73 view .LVU227
 969 0004 0024     		movs	r4, #0
 970              	.LBE491:
 971              	.LBE494:
 972              	.LBE497:
 973              		.loc 12 74 12 view .LVU228
 974 0006 4FF60B73 		movw	r3, #65291
 975 000a 3F48     		ldr	r0, .L43+4
 976              	.LBE500:
 977              	.LBE514:
 978              	.LBB515:
 979              	.LBB516:
 980 000c 3F49     		ldr	r1, .L43+8
 981              	.LBE516:
 982              	.LBE515:
 983              	.LBB526:
 984              	.LBB512:
 985              	.LBB505:
 986              	.LBB506:
 987              	.LBB507:
  69:../../libDaisy//src/per/gpio.h ****         {
 988              		.loc 12 69 73 view .LVU229
ARM GAS  /var/folders/hl/qgbwny5j0fd895c2c41bk3tw0000gp/T//ccOi8z5J.s 			page 40


 989 000e C2E90034 		strd	r3, r4, [r2]
 990 0012 C2E90244 		strd	r4, r4, [r2, #8]
 991              	.LBE507:
 992              	.LBE506:
 993              	.LBE505:
 994              	.LBE512:
 995              	.LBE526:
 996              	.LBB527:
 997              	.LBB528:
 998              		.loc 12 74 12 view .LVU230
 999 0016 3E4A     		ldr	r2, .L43+12
 1000              	.LBB529:
 1001              	.LBB530:
 1002              	.LBB531:
  69:../../libDaisy//src/per/gpio.h ****         {
 1003              		.loc 12 69 73 view .LVU231
 1004 0018 C2E90034 		strd	r3, r4, [r2]
 1005 001c C2E90244 		strd	r4, r4, [r2, #8]
 1006              	.LBE531:
 1007              	.LBE530:
 1008              	.LBE529:
 1009              	.LBE528:
 1010              	.LBE527:
 1011              	.LBB537:
 1012              	.LBB538:
 1013              		.loc 12 74 12 view .LVU232
 1014 0020 3C4A     		ldr	r2, .L43+16
 1015              	.LBE538:
 1016              	.LBE537:
 1017              	.LBB552:
 1018              	.LBB501:
 1019              	.LBB498:
 1020              	.LBB495:
 1021              	.LBB492:
  69:../../libDaisy//src/per/gpio.h ****         {
 1022              		.loc 12 69 73 view .LVU233
 1023 0022 C0E90034 		strd	r3, r4, [r0]
 1024              	.LBE492:
 1025              	.LBE495:
 1026              	.LBE498:
 1027              	.LBE501:
 1028              	.LBE552:
 1029              	.LBB553:
 1030              	.LBB549:
 1031              	.LBB539:
 1032              	.LBB540:
 1033              	.LBB541:
 1034 0026 C2E90034 		strd	r3, r4, [r2]
 1035              	.LBE541:
 1036              	.LBE540:
 1037              	.LBE539:
 1038              	.LBE549:
 1039              	.LBE553:
 1040              	.LBB554:
 1041              	.LBB524:
 1042              	.LBB517:
 1043              	.LBB518:
ARM GAS  /var/folders/hl/qgbwny5j0fd895c2c41bk3tw0000gp/T//ccOi8z5J.s 			page 41


 1044              	.LBB519:
 1045 002a C1E90034 		strd	r3, r4, [r1]
 1046              	.LBE519:
 1047              	.LBE518:
 1048              	.LBE517:
 1049              	.LBE524:
 1050              	.LBE554:
 1051              	.LBB555:
 1052              	.LBB502:
 1053              	.LBB499:
 1054              	.LBB496:
 1055              	.LBB493:
 1056 002e C0E90244 		strd	r4, r4, [r0, #8]
 1057              	.LVL70:
  69:../../libDaisy//src/per/gpio.h ****         {
 1058              		.loc 12 69 73 view .LVU234
 1059              	.LBE493:
 1060              	.LBE496:
 1061              	.LBE499:
 1062              	.LBE502:
 1063              	.LBE555:
 1064              	.LBB556:
 1065              	.LBI503:
 1066              		.loc 12 74 5 is_stmt 1 view .LVU235
 1067              	.LBB513:
 1068              	.LBB511:
 1069              	.LBI505:
  68:../../libDaisy//src/per/gpio.h ****         : pin(), mode(Mode::INPUT), pull(Pull::NOPULL), speed(Speed::LOW)
 1070              		.loc 12 68 9 view .LVU236
 1071              	.LBB510:
 1072              	.LBB509:
 1073              	.LBB508:
 1074              	.LBI508:
 1075              		.loc 13 272 15 view .LVU237
 1076              		.loc 13 272 15 is_stmt 0 view .LVU238
 1077              	.LBE508:
 1078              	.LBE509:
 1079              	.LBE510:
 1080              	.LBE511:
 1081              	.LBE513:
 1082              	.LBE556:
 1083              	.LBB557:
 1084              	.LBI515:
 1085              		.loc 12 74 5 is_stmt 1 view .LVU239
 1086              	.LBB525:
 1087              	.LBB523:
 1088              	.LBI517:
  68:../../libDaisy//src/per/gpio.h ****         : pin(), mode(Mode::INPUT), pull(Pull::NOPULL), speed(Speed::LOW)
 1089              		.loc 12 68 9 view .LVU240
 1090              	.LBB522:
 1091              	.LBB521:
 1092              	.LBB520:
 1093              	.LBI520:
 1094              		.loc 13 272 15 view .LVU241
 1095              		.loc 13 272 15 is_stmt 0 view .LVU242
 1096              	.LBE520:
  69:../../libDaisy//src/per/gpio.h ****         {
ARM GAS  /var/folders/hl/qgbwny5j0fd895c2c41bk3tw0000gp/T//ccOi8z5J.s 			page 42


 1097              		.loc 12 69 73 view .LVU243
 1098 0032 C1E90244 		strd	r4, r4, [r1, #8]
 1099              	.LVL71:
  69:../../libDaisy//src/per/gpio.h ****         {
 1100              		.loc 12 69 73 view .LVU244
 1101              	.LBE521:
 1102              	.LBE522:
 1103              	.LBE523:
 1104              	.LBE525:
 1105              	.LBE557:
 1106              	.LBB558:
 1107              	.LBI527:
 1108              		.loc 12 74 5 is_stmt 1 view .LVU245
 1109              	.LBB536:
 1110              	.LBB535:
 1111              	.LBI529:
  68:../../libDaisy//src/per/gpio.h ****         : pin(), mode(Mode::INPUT), pull(Pull::NOPULL), speed(Speed::LOW)
 1112              		.loc 12 68 9 view .LVU246
 1113              	.LBB534:
 1114              	.LBB533:
 1115              	.LBB532:
 1116              	.LBI532:
 1117              		.loc 13 272 15 view .LVU247
 1118              		.loc 13 272 15 is_stmt 0 view .LVU248
 1119              	.LBE532:
 1120              	.LBE533:
 1121              	.LBE534:
 1122              	.LBE535:
 1123              	.LBE536:
 1124              	.LBE558:
 1125              	.LBB559:
 1126              	.LBI559:
 1127              		.loc 12 74 5 is_stmt 1 view .LVU249
 1128              	.LBB560:
 1129              	.LBB561:
 1130              	.LBI561:
  68:../../libDaisy//src/per/gpio.h ****         : pin(), mode(Mode::INPUT), pull(Pull::NOPULL), speed(Speed::LOW)
 1131              		.loc 12 68 9 view .LVU250
 1132              	.LBB562:
 1133              	.LBB563:
 1134              	.LBB564:
 1135              	.LBI564:
 1136              		.loc 13 272 15 view .LVU251
 1137              		.loc 13 272 15 is_stmt 0 view .LVU252
 1138              	.LBE564:
 1139              	.LBE563:
 1140              	.LBE562:
 1141              	.LBE561:
 1142              	.LBE560:
 1143              	.LBE559:
 1144              	.LBB574:
 1145              	.LBB550:
 1146              	.LBB547:
 1147              	.LBB545:
 1148              	.LBB543:
  69:../../libDaisy//src/per/gpio.h ****         {
 1149              		.loc 12 69 73 view .LVU253
ARM GAS  /var/folders/hl/qgbwny5j0fd895c2c41bk3tw0000gp/T//ccOi8z5J.s 			page 43


 1150 0036 C2E90244 		strd	r4, r4, [r2, #8]
 1151              	.LBE543:
 1152              	.LBE545:
 1153              	.LBE547:
 1154              	.LBE550:
 1155              	.LBE574:
 1156              	.LBB575:
 1157              	.LBB571:
 1158              		.loc 12 74 12 view .LVU254
 1159 003a 3748     		ldr	r0, .L43+20
 1160              	.LBE571:
 1161              	.LBE575:
 1162              	.LBB576:
 1163              	.LBB577:
 1164 003c 374A     		ldr	r2, .L43+24
 1165              	.LBE577:
 1166              	.LBE576:
 1167              	.LBB588:
 1168              	.LBB589:
 1169 003e 3849     		ldr	r1, .L43+28
 1170              	.LBE589:
 1171              	.LBE588:
 1172              	.LBB599:
 1173              	.LBB585:
 1174 0040 1360     		str	r3, [r2]
 1175              	.LBE585:
 1176              	.LBE599:
 1177              	.LBB600:
 1178              	.LBB572:
 1179              	.LBB569:
 1180              	.LBB567:
 1181              	.LBB565:
  69:../../libDaisy//src/per/gpio.h ****         {
 1182              		.loc 12 69 73 view .LVU255
 1183 0042 C0E90034 		strd	r3, r4, [r0]
 1184              	.LBE565:
 1185              	.LBE567:
 1186              	.LBE569:
 1187              	.LBE572:
 1188              	.LBE600:
 1189              	.LBB601:
 1190              	.LBB597:
 1191              	.LBB590:
 1192              	.LBB591:
 1193              	.LBB592:
 1194 0046 C1E90034 		strd	r3, r4, [r1]
 1195 004a C1E90244 		strd	r4, r4, [r1, #8]
 1196              	.LBE592:
 1197              	.LBE591:
 1198              	.LBE590:
 1199              	.LBE597:
 1200              	.LBE601:
  24:daisy_bed.h   ****     Pin newPinD7 = Pin(static_cast<GPIOPort>(oldPinD7.port), oldPinD7.pin);
 1201              		.loc 10 24 18 view .LVU256
 1202 004e 354B     		ldr	r3, .L43+32
  26:daisy_bed.h   ****     Pin newPinA9 = Pin(static_cast<GPIOPort>(oldPinA9.port), oldPinA9.pin);
 1203              		.loc 10 26 18 view .LVU257
ARM GAS  /var/folders/hl/qgbwny5j0fd895c2c41bk3tw0000gp/T//ccOi8z5J.s 			page 44


 1204 0050 3549     		ldr	r1, .L43+36
 1205              	.LBB602:
 1206              	.LBB573:
 1207              	.LBB570:
 1208              	.LBB568:
 1209              	.LBB566:
  69:../../libDaisy//src/per/gpio.h ****         {
 1210              		.loc 12 69 73 view .LVU258
 1211 0052 C0E90244 		strd	r4, r4, [r0, #8]
 1212              	.LVL72:
  69:../../libDaisy//src/per/gpio.h ****         {
 1213              		.loc 12 69 73 view .LVU259
 1214              	.LBE566:
 1215              	.LBE568:
 1216              	.LBE570:
 1217              	.LBE573:
 1218              	.LBE602:
 1219              	.LBB603:
 1220              	.LBI537:
 1221              		.loc 12 74 5 is_stmt 1 view .LVU260
 1222              	.LBB551:
 1223              	.LBB548:
 1224              	.LBI539:
  68:../../libDaisy//src/per/gpio.h ****         : pin(), mode(Mode::INPUT), pull(Pull::NOPULL), speed(Speed::LOW)
 1225              		.loc 12 68 9 view .LVU261
 1226              	.LBB546:
 1227              	.LBB544:
 1228              	.LBB542:
 1229              	.LBI542:
 1230              		.loc 13 272 15 view .LVU262
 1231              		.loc 13 272 15 is_stmt 0 view .LVU263
 1232              	.LBE542:
 1233              	.LBE544:
 1234              	.LBE546:
 1235              	.LBE548:
 1236              	.LBE551:
 1237              	.LBE603:
 1238              	.LBB604:
 1239              	.LBI588:
 1240              		.loc 12 74 5 is_stmt 1 view .LVU264
 1241              	.LBB598:
 1242              	.LBB596:
 1243              	.LBI590:
  68:../../libDaisy//src/per/gpio.h ****         : pin(), mode(Mode::INPUT), pull(Pull::NOPULL), speed(Speed::LOW)
 1244              		.loc 12 68 9 view .LVU265
 1245              	.LBB595:
 1246              	.LBB594:
 1247              	.LBB593:
 1248              	.LBI593:
 1249              		.loc 13 272 15 view .LVU266
 1250              		.loc 13 272 15 is_stmt 0 view .LVU267
 1251              	.LBE593:
 1252              	.LBE594:
 1253              	.LBE595:
 1254              	.LBE596:
 1255              	.LBE598:
 1256              	.LBE604:
ARM GAS  /var/folders/hl/qgbwny5j0fd895c2c41bk3tw0000gp/T//ccOi8z5J.s 			page 45


 1257              	.LBB605:
 1258              	.LBI576:
 1259              		.loc 12 74 5 is_stmt 1 view .LVU268
 1260              	.LBB586:
 1261              	.LBB578:
 1262              	.LBI578:
  68:../../libDaisy//src/per/gpio.h ****         : pin(), mode(Mode::INPUT), pull(Pull::NOPULL), speed(Speed::LOW)
 1263              		.loc 12 68 9 view .LVU269
 1264              	.LBB579:
 1265              	.LBB580:
 1266              	.LBB581:
 1267              	.LBI581:
 1268              		.loc 13 272 15 view .LVU270
 1269              		.loc 13 272 15 is_stmt 0 view .LVU271
 1270              	.LBE581:
  69:../../libDaisy//src/per/gpio.h ****         {
 1271              		.loc 12 69 73 view .LVU272
 1272 0056 C2E90144 		strd	r4, r4, [r2, #4]
 1273              	.LBE580:
 1274              	.LBE579:
 1275              	.LBE578:
 1276              	.LBE586:
 1277              	.LBE605:
  24:daisy_bed.h   ****     Pin newPinD7 = Pin(static_cast<GPIOPort>(oldPinD7.port), oldPinD7.pin);
 1278              		.loc 10 24 18 view .LVU273
 1279 005a 3448     		ldr	r0, .L43+40
 1280              	.LBB606:
 1281              	.LBB587:
 1282              	.LBB584:
 1283              	.LBB583:
 1284              	.LBB582:
  69:../../libDaisy//src/per/gpio.h ****         {
 1285              		.loc 12 69 73 view .LVU274
 1286 005c D460     		str	r4, [r2, #12]
 1287              	.LVL73:
  69:../../libDaisy//src/per/gpio.h ****         {
 1288              		.loc 12 69 73 view .LVU275
 1289              	.LBE582:
 1290              	.LBE583:
 1291              	.LBE584:
 1292              	.LBE587:
 1293              	.LBE606:
  24:daisy_bed.h   ****     Pin newPinD7 = Pin(static_cast<GPIOPort>(oldPinD7.port), oldPinD7.pin);
 1294              		.loc 10 24 18 view .LVU276
 1295 005e 1D88     		ldrh	r5, [r3]	@ unaligned
  26:daisy_bed.h   ****     Pin newPinA9 = Pin(static_cast<GPIOPort>(oldPinA9.port), oldPinA9.pin);
 1296              		.loc 10 26 18 view .LVU277
 1297 0060 0988     		ldrh	r1, [r1]	@ unaligned
 1298 0062 334B     		ldr	r3, .L43+44
  24:daisy_bed.h   ****     Pin newPinD7 = Pin(static_cast<GPIOPort>(oldPinD7.port), oldPinD7.pin);
 1299              		.loc 10 24 18 view .LVU278
 1300 0064 0580     		strh	r5, [r0]	@ unaligned
  26:daisy_bed.h   ****     Pin newPinA9 = Pin(static_cast<GPIOPort>(oldPinA9.port), oldPinA9.pin);
 1301              		.loc 10 26 18 view .LVU279
 1302 0066 1980     		strh	r1, [r3]	@ unaligned
 1303              	.LBB607:
 1304              	.LBB608:
ARM GAS  /var/folders/hl/qgbwny5j0fd895c2c41bk3tw0000gp/T//ccOi8z5J.s 			page 46


 1305              	.LBB609:
 269:../../libDaisy//src/daisy_core.h **** 
 1306              		.loc 13 269 74 view .LVU280
 1307 0068 324A     		ldr	r2, .L43+48
 1308              	.LBE609:
 1309              	.LBE608:
 1310              	.LBE607:
  25:daisy_bed.h   ****     dsy_gpio_pin oldPinA9 = DaisyPatchSM::A9;
 1311              		.loc 10 25 55 view .LVU281
 1312 006a 0188     		ldrh	r1, [r0]
 1313              	.LVL74:
 1314              	.LBB612:
 1315              	.LBI607:
 269:../../libDaisy//src/daisy_core.h **** 
 1316              		.loc 13 269 15 is_stmt 1 view .LVU282
 1317              	.LBE612:
  32:daisy_bed.h   ****     Pin newPinD1 = Pin(static_cast<GPIOPort>(oldPinD1.port), oldPinD1.pin);
 1318              		.loc 10 32 18 is_stmt 0 view .LVU283
 1319 006c 3248     		ldr	r0, .L43+52
 1320              	.LBB613:
 1321              	.LBB611:
 1322              	.LBB610:
 269:../../libDaisy//src/daisy_core.h **** 
 1323              		.loc 13 269 74 view .LVU284
 1324 006e 1180     		strh	r1, [r2]	@ movhi
 1325              	.LVL75:
 269:../../libDaisy//src/daisy_core.h **** 
 1326              		.loc 13 269 74 view .LVU285
 1327              	.LBE610:
 1328              	.LBE611:
 1329              	.LBE613:
  30:daisy_bed.h   ****     Pin newPinD2 = Pin(static_cast<GPIOPort>(oldPinD2.port), oldPinD2.pin);
 1330              		.loc 10 30 18 view .LVU286
 1331 0070 3249     		ldr	r1, .L43+56
  32:daisy_bed.h   ****     Pin newPinD1 = Pin(static_cast<GPIOPort>(oldPinD1.port), oldPinD1.pin);
 1332              		.loc 10 32 18 view .LVU287
 1333 0072 0088     		ldrh	r0, [r0]	@ unaligned
  30:daisy_bed.h   ****     Pin newPinD2 = Pin(static_cast<GPIOPort>(oldPinD2.port), oldPinD2.pin);
 1334              		.loc 10 30 18 view .LVU288
 1335 0074 0D88     		ldrh	r5, [r1]	@ unaligned
  27:daisy_bed.h   **** 
 1336              		.loc 10 27 55 view .LVU289
 1337 0076 1988     		ldrh	r1, [r3]
 1338              	.LVL76:
 1339              	.LBB614:
 1340              	.LBI614:
 269:../../libDaisy//src/daisy_core.h **** 
 1341              		.loc 13 269 15 is_stmt 1 view .LVU290
 1342              	.LBB615:
 1343              	.LBB616:
 269:../../libDaisy//src/daisy_core.h **** 
 1344              		.loc 13 269 74 is_stmt 0 view .LVU291
 1345 0078 314B     		ldr	r3, .L43+60
 1346              	.LBE616:
 1347              	.LBE615:
 1348              	.LBE614:
  30:daisy_bed.h   ****     Pin newPinD2 = Pin(static_cast<GPIOPort>(oldPinD2.port), oldPinD2.pin);
ARM GAS  /var/folders/hl/qgbwny5j0fd895c2c41bk3tw0000gp/T//ccOi8z5J.s 			page 47


 1349              		.loc 10 30 18 view .LVU292
 1350 007a 324A     		ldr	r2, .L43+64
 1351              	.LBB619:
 1352              	.LBB618:
 1353              	.LBB617:
 269:../../libDaisy//src/daisy_core.h **** 
 1354              		.loc 13 269 74 view .LVU293
 1355 007c 1980     		strh	r1, [r3]	@ movhi
 1356              	.LVL77:
 269:../../libDaisy//src/daisy_core.h **** 
 1357              		.loc 13 269 74 view .LVU294
 1358              	.LBE617:
 1359              	.LBE618:
 1360              	.LBE619:
  32:daisy_bed.h   ****     Pin newPinD1 = Pin(static_cast<GPIOPort>(oldPinD1.port), oldPinD1.pin);
 1361              		.loc 10 32 18 view .LVU295
 1362 007e 324B     		ldr	r3, .L43+68
  30:daisy_bed.h   ****     Pin newPinD2 = Pin(static_cast<GPIOPort>(oldPinD2.port), oldPinD2.pin);
 1363              		.loc 10 30 18 view .LVU296
 1364 0080 1580     		strh	r5, [r2]	@ unaligned
  32:daisy_bed.h   ****     Pin newPinD1 = Pin(static_cast<GPIOPort>(oldPinD1.port), oldPinD1.pin);
 1365              		.loc 10 32 18 view .LVU297
 1366 0082 1880     		strh	r0, [r3]	@ unaligned
  31:daisy_bed.h   ****     dsy_gpio_pin oldPinD1 = DaisyPatchSM::D1;
 1367              		.loc 10 31 55 view .LVU298
 1368 0084 1288     		ldrh	r2, [r2]
 1369              	.LVL78:
 1370              	.LBB620:
 1371              	.LBI620:
 269:../../libDaisy//src/daisy_core.h **** 
 1372              		.loc 13 269 15 is_stmt 1 view .LVU299
 1373              	.LBE620:
  33:daisy_bed.h   ****     // ^^^ {DSY_GPIOB, 4},  /**< D1  - SPI2 CS */
 1374              		.loc 10 33 55 is_stmt 0 view .LVU300
 1375 0086 1D88     		ldrh	r5, [r3]
 1376              	.LBB625:
 1377              	.LBB621:
 1378              	.LBB622:
 269:../../libDaisy//src/daisy_core.h **** 
 1379              		.loc 13 269 74 view .LVU301
 1380 0088 304B     		ldr	r3, .L43+72
 1381              	.LBE622:
 1382              	.LBE621:
 1383              	.LBE625:
  37:daisy_bed.h   ****     Pin newPinD3 = Pin(static_cast<GPIOPort>(oldPinD3.port), oldPinD3.pin);
 1384              		.loc 10 37 18 view .LVU302
 1385 008a 3149     		ldr	r1, .L43+76
 1386              	.LBB626:
 1387              	.LBB624:
 1388              	.LBB623:
 269:../../libDaisy//src/daisy_core.h **** 
 1389              		.loc 13 269 74 view .LVU303
 1390 008c 1A80     		strh	r2, [r3]	@ movhi
 1391              	.LVL79:
 269:../../libDaisy//src/daisy_core.h **** 
 1392              		.loc 13 269 74 view .LVU304
 1393              	.LBE623:
ARM GAS  /var/folders/hl/qgbwny5j0fd895c2c41bk3tw0000gp/T//ccOi8z5J.s 			page 48


 1394              	.LBE624:
 1395              	.LBE626:
 1396              	.LBB627:
 1397              	.LBI627:
 269:../../libDaisy//src/daisy_core.h **** 
 1398              		.loc 13 269 15 is_stmt 1 view .LVU305
 1399              	.LBE627:
  39:daisy_bed.h   ****     Pin newPinD6 = Pin(static_cast<GPIOPort>(oldPinD6.port), oldPinD6.pin);
 1400              		.loc 10 39 18 is_stmt 0 view .LVU306
 1401 008e 314B     		ldr	r3, .L43+80
  37:daisy_bed.h   ****     Pin newPinD3 = Pin(static_cast<GPIOPort>(oldPinD3.port), oldPinD3.pin);
 1402              		.loc 10 37 18 view .LVU307
 1403 0090 B1F800E0 		ldrh	lr, [r1]	@ unaligned
  39:daisy_bed.h   ****     Pin newPinD6 = Pin(static_cast<GPIOPort>(oldPinD6.port), oldPinD6.pin);
 1404              		.loc 10 39 18 view .LVU308
 1405 0094 B3F800C0 		ldrh	ip, [r3]	@ unaligned
  41:daisy_bed.h   ****     Pin newPinD4 = Pin(static_cast<GPIOPort>(oldPinD4.port), oldPinD4.pin);
 1406              		.loc 10 41 18 view .LVU309
 1407 0098 2F4B     		ldr	r3, .L43+84
 1408              	.LBB632:
 1409              	.LBB633:
 1410              	.LBB634:
 269:../../libDaisy//src/daisy_core.h **** 
 1411              		.loc 13 269 74 view .LVU310
 1412 009a 3048     		ldr	r0, .L43+88
 1413              	.LBE634:
 1414              	.LBE633:
 1415              	.LBE632:
  41:daisy_bed.h   ****     Pin newPinD4 = Pin(static_cast<GPIOPort>(oldPinD4.port), oldPinD4.pin);
 1416              		.loc 10 41 18 view .LVU311
 1417 009c 1988     		ldrh	r1, [r3]	@ unaligned
  43:daisy_bed.h   ****     Pin newPinD5 = Pin(static_cast<GPIOPort>(oldPinD5.port), oldPinD5.pin);
 1418              		.loc 10 43 18 view .LVU312
 1419 009e 304B     		ldr	r3, .L43+92
 1420 00a0 1A88     		ldrh	r2, [r3]	@ unaligned
  37:daisy_bed.h   ****     Pin newPinD3 = Pin(static_cast<GPIOPort>(oldPinD3.port), oldPinD3.pin);
 1421              		.loc 10 37 18 view .LVU313
 1422 00a2 304B     		ldr	r3, .L43+96
 1423 00a4 A3F800E0 		strh	lr, [r3]	@ unaligned
  38:daisy_bed.h   ****     dsy_gpio_pin oldPinD6 = DaisyPatchSM::D6;
 1424              		.loc 10 38 55 view .LVU314
 1425 00a8 B3F800E0 		ldrh	lr, [r3]
  39:daisy_bed.h   ****     Pin newPinD6 = Pin(static_cast<GPIOPort>(oldPinD6.port), oldPinD6.pin);
 1426              		.loc 10 39 18 view .LVU315
 1427 00ac 2E4B     		ldr	r3, .L43+100
 1428 00ae A3F800C0 		strh	ip, [r3]	@ unaligned
  40:daisy_bed.h   ****     dsy_gpio_pin oldPinD4 = DaisyPatchSM::D4;
 1429              		.loc 10 40 55 view .LVU316
 1430 00b2 1B88     		ldrh	r3, [r3]
 1431              	.LBB637:
 1432              	.LBB636:
 1433              	.LBB635:
 269:../../libDaisy//src/daisy_core.h **** 
 1434              		.loc 13 269 74 view .LVU317
 1435 00b4 0380     		strh	r3, [r0]	@ movhi
 1436              	.LBE635:
 1437              	.LBE636:
ARM GAS  /var/folders/hl/qgbwny5j0fd895c2c41bk3tw0000gp/T//ccOi8z5J.s 			page 49


 1438              	.LBE637:
  41:daisy_bed.h   ****     Pin newPinD4 = Pin(static_cast<GPIOPort>(oldPinD4.port), oldPinD4.pin);
 1439              		.loc 10 41 18 view .LVU318
 1440 00b6 2D4B     		ldr	r3, .L43+104
 1441 00b8 1980     		strh	r1, [r3]	@ unaligned
  42:daisy_bed.h   ****     dsy_gpio_pin oldPinD5 = DaisyPatchSM::D5;
 1442              		.loc 10 42 55 view .LVU319
 1443 00ba B3F800C0 		ldrh	ip, [r3]
  43:daisy_bed.h   ****     Pin newPinD5 = Pin(static_cast<GPIOPort>(oldPinD5.port), oldPinD5.pin);
 1444              		.loc 10 43 18 view .LVU320
 1445 00be 2C4B     		ldr	r3, .L43+108
  49:daisy_bed.h   **** 
 1446              		.loc 10 49 17 view .LVU321
 1447 00c0 2C49     		ldr	r1, .L43+112
  43:daisy_bed.h   ****     Pin newPinD5 = Pin(static_cast<GPIOPort>(oldPinD5.port), oldPinD5.pin);
 1448              		.loc 10 43 18 view .LVU322
 1449 00c2 1A80     		strh	r2, [r3]	@ unaligned
  44:daisy_bed.h   **** 
 1450              		.loc 10 44 55 view .LVU323
 1451 00c4 1888     		ldrh	r0, [r3]
 1452              	.LBB638:
 1453              	.LBB628:
 1454              	.LBB629:
 269:../../libDaisy//src/daisy_core.h **** 
 1455              		.loc 13 269 74 view .LVU324
 1456 00c6 2C4B     		ldr	r3, .L43+116
 1457              	.LBE629:
 1458              	.LBE628:
 1459              	.LBE638:
  49:daisy_bed.h   **** 
 1460              		.loc 10 49 17 view .LVU325
 1461 00c8 2C4A     		ldr	r2, .L43+120
 1462              	.LBB639:
 1463              	.LBB631:
 1464              	.LBB630:
 269:../../libDaisy//src/daisy_core.h **** 
 1465              		.loc 13 269 74 view .LVU326
 1466 00ca 1D80     		strh	r5, [r3]	@ movhi
 1467              	.LVL80:
 269:../../libDaisy//src/daisy_core.h **** 
 1468              		.loc 13 269 74 view .LVU327
 1469              	.LBE630:
 1470              	.LBE631:
 1471              	.LBE639:
 1472              	.LBB640:
 1473              	.LBI640:
 269:../../libDaisy//src/daisy_core.h **** 
 1474              		.loc 13 269 15 is_stmt 1 view .LVU328
 1475              	.LBB641:
 1476              	.LBB642:
 269:../../libDaisy//src/daisy_core.h **** 
 1477              		.loc 13 269 74 is_stmt 0 view .LVU329
 1478 00cc 2C4B     		ldr	r3, .L43+124
 1479 00ce A3F800E0 		strh	lr, [r3]	@ movhi
 1480              	.LVL81:
 269:../../libDaisy//src/daisy_core.h **** 
 1481              		.loc 13 269 74 view .LVU330
ARM GAS  /var/folders/hl/qgbwny5j0fd895c2c41bk3tw0000gp/T//ccOi8z5J.s 			page 50


 1482              	.LBE642:
 1483              	.LBE641:
 1484              	.LBE640:
 1485              	.LBB643:
 1486              	.LBI632:
 269:../../libDaisy//src/daisy_core.h **** 
 1487              		.loc 13 269 15 is_stmt 1 view .LVU331
 269:../../libDaisy//src/daisy_core.h **** 
 1488              		.loc 13 269 15 is_stmt 0 view .LVU332
 1489              	.LBE643:
 1490              	.LBB644:
 1491              	.LBI644:
 269:../../libDaisy//src/daisy_core.h **** 
 1492              		.loc 13 269 15 is_stmt 1 view .LVU333
 1493              	.LBB645:
 1494              	.LBB646:
 269:../../libDaisy//src/daisy_core.h **** 
 1495              		.loc 13 269 74 is_stmt 0 view .LVU334
 1496 00d2 2C4B     		ldr	r3, .L43+128
 1497 00d4 A3F800C0 		strh	ip, [r3]	@ movhi
 1498              	.LVL82:
 269:../../libDaisy//src/daisy_core.h **** 
 1499              		.loc 13 269 74 view .LVU335
 1500              	.LBE646:
 1501              	.LBE645:
 1502              	.LBE644:
 1503              	.LBB647:
 1504              	.LBI647:
 269:../../libDaisy//src/daisy_core.h **** 
 1505              		.loc 13 269 15 is_stmt 1 view .LVU336
 1506              	.LBB648:
 1507              	.LBB649:
 269:../../libDaisy//src/daisy_core.h **** 
 1508              		.loc 13 269 74 is_stmt 0 view .LVU337
 1509 00d8 2B4B     		ldr	r3, .L43+132
 1510 00da 1880     		strh	r0, [r3]	@ movhi
 1511              	.LVL83:
 269:../../libDaisy//src/daisy_core.h **** 
 1512              		.loc 13 269 74 view .LVU338
 1513              	.LBE649:
 1514              	.LBE648:
 1515              	.LBE647:
 1516              	.LBB650:
 1517              	.LBI650:
  41:../../libDaisy//src/hid/switch.h ****     ~Switch() {}
 1518              		.loc 1 41 5 is_stmt 1 view .LVU339
  41:../../libDaisy//src/hid/switch.h ****     ~Switch() {}
 1519              		.loc 1 41 5 is_stmt 0 view .LVU340
 1520              	.LBE650:
  49:daisy_bed.h   **** 
 1521              		.loc 10 49 17 view .LVU341
 1522 00dc 2B48     		ldr	r0, .L43+136
 1523 00de FFF7FEFF 		bl	__aeabi_atexit
 1524              	.LVL84:
 1525              	.LBB651:
 1526              	.LBI651:
  41:../../libDaisy//src/hid/switch.h ****     ~Switch() {}
ARM GAS  /var/folders/hl/qgbwny5j0fd895c2c41bk3tw0000gp/T//ccOi8z5J.s 			page 51


 1527              		.loc 1 41 5 is_stmt 1 view .LVU342
  41:../../libDaisy//src/hid/switch.h ****     ~Switch() {}
 1528              		.loc 1 41 5 is_stmt 0 view .LVU343
 1529              	.LBE651:
  49:daisy_bed.h   **** 
 1530              		.loc 10 49 20 view .LVU344
 1531 00e2 264A     		ldr	r2, .L43+120
 1532 00e4 2349     		ldr	r1, .L43+112
 1533 00e6 2A48     		ldr	r0, .L43+140
 1534 00e8 FFF7FEFF 		bl	__aeabi_atexit
 1535              	.LVL85:
 1536              	.LBB652:
 1537              	.LBI652:
  64:../../libDaisy//src/daisy_patch_sm.h ****         ~DaisyPatchSM() {}
 1538              		.loc 2 64 9 is_stmt 1 view .LVU345
 1539              	.LBB653:
 1540              	.LBB654:
 1541              	.LBI654:
  77:../../libDaisy//src/sys/system.h ****     ~System() {}
 1542              		.loc 8 77 5 view .LVU346
  77:../../libDaisy//src/sys/system.h ****     ~System() {}
 1543              		.loc 8 77 5 is_stmt 0 view .LVU347
 1544              	.LBE654:
 1545              	.LBB655:
 1546              	.LBI655:
 1547              		.file 14 "../../libDaisy//src/per/qspi.h"
   1:../../libDaisy//src/per/qspi.h **** #ifndef DSY_QSPI
   2:../../libDaisy//src/per/qspi.h **** #define DSY_QSPI /**< Macro */
   3:../../libDaisy//src/per/qspi.h **** 
   4:../../libDaisy//src/per/qspi.h **** #ifndef UNIT_TEST // for unit tests, a dummy implementation
   5:../../libDaisy//src/per/qspi.h **** 
   6:../../libDaisy//src/per/qspi.h **** #include <cstdint>
   7:../../libDaisy//src/per/qspi.h **** #include "daisy_core.h" // Added for dsy_gpio_pin typedef
   8:../../libDaisy//src/per/qspi.h **** 
   9:../../libDaisy//src/per/qspi.h **** #define DSY_QSPI_TEXT       \
  10:../../libDaisy//src/per/qspi.h ****     __attribute__((section( \
  11:../../libDaisy//src/per/qspi.h ****         ".qspiflash_text"))) /**< used for reading memory in memory_mapped mode. */
  12:../../libDaisy//src/per/qspi.h **** #define DSY_QSPI_DATA       \
  13:../../libDaisy//src/per/qspi.h ****     __attribute__((section( \
  14:../../libDaisy//src/per/qspi.h ****         ".qspiflash_data"))) /**< used for reading memory in memory_mapped mode. */
  15:../../libDaisy//src/per/qspi.h **** #define DSY_QSPI_BSS        \
  16:../../libDaisy//src/per/qspi.h ****     __attribute__((section( \
  17:../../libDaisy//src/per/qspi.h ****         ".qspiflash_bss"))) /**< used for reading memory in memory_mapped mode. */
  18:../../libDaisy//src/per/qspi.h **** 
  19:../../libDaisy//src/per/qspi.h **** namespace daisy
  20:../../libDaisy//src/per/qspi.h **** {
  21:../../libDaisy//src/per/qspi.h **** /** @addtogroup serial
  22:../../libDaisy//src/per/qspi.h **** @{
  23:../../libDaisy//src/per/qspi.h **** */
  24:../../libDaisy//src/per/qspi.h **** 
  25:../../libDaisy//src/per/qspi.h **** /** 
  26:../../libDaisy//src/per/qspi.h ****  Driver for QSPI peripheral to interface with external flash memory. \n 
  27:../../libDaisy//src/per/qspi.h ****     Currently supported QSPI Devices: \n 
  28:../../libDaisy//src/per/qspi.h ****     * IS25LP080D
  29:../../libDaisy//src/per/qspi.h **** */
  30:../../libDaisy//src/per/qspi.h **** class QSPIHandle
  31:../../libDaisy//src/per/qspi.h **** {
ARM GAS  /var/folders/hl/qgbwny5j0fd895c2c41bk3tw0000gp/T//ccOi8z5J.s 			page 52


  32:../../libDaisy//src/per/qspi.h ****   public:
  33:../../libDaisy//src/per/qspi.h ****     enum Result
  34:../../libDaisy//src/per/qspi.h ****     {
  35:../../libDaisy//src/per/qspi.h ****         OK = 0,
  36:../../libDaisy//src/per/qspi.h ****         ERR
  37:../../libDaisy//src/per/qspi.h ****     };
  38:../../libDaisy//src/per/qspi.h **** 
  39:../../libDaisy//src/per/qspi.h ****     /** Indicates the current status of the module. 
  40:../../libDaisy//src/per/qspi.h ****          *  Warnings are indicated by a leading W.
  41:../../libDaisy//src/per/qspi.h ****          *  Errors are indicated by a leading E and cause an immediate exit.
  42:../../libDaisy//src/per/qspi.h ****          * 
  43:../../libDaisy//src/per/qspi.h ****          *  \param GOOD - No errors have been reported.
  44:../../libDaisy//src/per/qspi.h ****          *  \param E_HAL_ERROR - HAL code did not return HAL_OK.
  45:../../libDaisy//src/per/qspi.h ****          *  \param E_SWITCHING_MODES - An error was encountered while switching QSPI peripheral mod
  46:../../libDaisy//src/per/qspi.h ****          *  \param E_INVALID_MODE - QSPI should not be written to while the program is executing fr
  47:../../libDaisy//src/per/qspi.h ****          */
  48:../../libDaisy//src/per/qspi.h ****     enum Status
  49:../../libDaisy//src/per/qspi.h ****     {
  50:../../libDaisy//src/per/qspi.h ****         GOOD = 0,
  51:../../libDaisy//src/per/qspi.h ****         E_HAL_ERROR,
  52:../../libDaisy//src/per/qspi.h ****         E_SWITCHING_MODES,
  53:../../libDaisy//src/per/qspi.h ****         E_INVALID_MODE,
  54:../../libDaisy//src/per/qspi.h ****     };
  55:../../libDaisy//src/per/qspi.h **** 
  56:../../libDaisy//src/per/qspi.h ****     /** Configuration structure for interfacing with QSPI Driver */
  57:../../libDaisy//src/per/qspi.h ****     struct Config
  58:../../libDaisy//src/per/qspi.h ****     {
  59:../../libDaisy//src/per/qspi.h ****         /** Flash Devices supported. (Both of these are more-or-less the same, just different sizes
  60:../../libDaisy//src/per/qspi.h ****         enum Device
  61:../../libDaisy//src/per/qspi.h ****         {
  62:../../libDaisy//src/per/qspi.h ****             IS25LP080D,  /**< & */
  63:../../libDaisy//src/per/qspi.h ****             IS25LP064A,  /**< & */
  64:../../libDaisy//src/per/qspi.h ****             DEVICE_LAST, /**< & */
  65:../../libDaisy//src/per/qspi.h ****         };
  66:../../libDaisy//src/per/qspi.h **** 
  67:../../libDaisy//src/per/qspi.h ****         /** 
  68:../../libDaisy//src/per/qspi.h ****         Modes of operation.
  69:../../libDaisy//src/per/qspi.h ****         Memory Mapped mode: QSPI configured so that the QSPI can be
  70:../../libDaisy//src/per/qspi.h ****         read from starting address 0x90000000. Writing is not
  71:../../libDaisy//src/per/qspi.h ****         possible in this mode. \n 
  72:../../libDaisy//src/per/qspi.h ****         Indirect Polling mode: Device driver enabled. 
  73:../../libDaisy//src/per/qspi.h ****         */
  74:../../libDaisy//src/per/qspi.h ****         enum Mode
  75:../../libDaisy//src/per/qspi.h ****         {
  76:../../libDaisy//src/per/qspi.h ****             MEMORY_MAPPED,    /**< & */
  77:../../libDaisy//src/per/qspi.h ****             INDIRECT_POLLING, /**< & */
  78:../../libDaisy//src/per/qspi.h ****             MODE_LAST,
  79:../../libDaisy//src/per/qspi.h ****         };
  80:../../libDaisy//src/per/qspi.h **** 
  81:../../libDaisy//src/per/qspi.h ****         //SCK,  CE# (active low)
  82:../../libDaisy//src/per/qspi.h ****         struct
  83:../../libDaisy//src/per/qspi.h ****         {
  84:../../libDaisy//src/per/qspi.h ****             dsy_gpio_pin io0; /**< & */
  85:../../libDaisy//src/per/qspi.h ****             dsy_gpio_pin io1; /**< & */
  86:../../libDaisy//src/per/qspi.h ****             dsy_gpio_pin io2; /**< & */
  87:../../libDaisy//src/per/qspi.h ****             dsy_gpio_pin io3; /**< & */
  88:../../libDaisy//src/per/qspi.h ****             dsy_gpio_pin clk; /**< & */
ARM GAS  /var/folders/hl/qgbwny5j0fd895c2c41bk3tw0000gp/T//ccOi8z5J.s 			page 53


  89:../../libDaisy//src/per/qspi.h ****             dsy_gpio_pin ncs; /**< & */
  90:../../libDaisy//src/per/qspi.h ****         } pin_config;
  91:../../libDaisy//src/per/qspi.h **** 
  92:../../libDaisy//src/per/qspi.h ****         Device device;
  93:../../libDaisy//src/per/qspi.h ****         Mode   mode;
  94:../../libDaisy//src/per/qspi.h ****     };
  95:../../libDaisy//src/per/qspi.h **** 
  96:../../libDaisy//src/per/qspi.h ****     /** 
  97:../../libDaisy//src/per/qspi.h ****         Initializes QSPI peripheral, and Resets, and prepares memory for access.
  98:../../libDaisy//src/per/qspi.h ****         \param config should be populated with the mode, device and pin_config before calling this 
  99:../../libDaisy//src/per/qspi.h ****         \return Result::OK or Result::ERR
 100:../../libDaisy//src/per/qspi.h ****         */
 101:../../libDaisy//src/per/qspi.h ****     Result Init(const Config& config);
 102:../../libDaisy//src/per/qspi.h **** 
 103:../../libDaisy//src/per/qspi.h ****     /** Returns the current config. */
 104:../../libDaisy//src/per/qspi.h ****     const Config& GetConfig() const;
 105:../../libDaisy//src/per/qspi.h **** 
 106:../../libDaisy//src/per/qspi.h ****     // Couldn't this just be called before anything else in init? That
 107:../../libDaisy//src/per/qspi.h ****     // would make manually calling it unnecessary.
 108:../../libDaisy//src/per/qspi.h ****     /** 
 109:../../libDaisy//src/per/qspi.h ****         Deinitializes the peripheral
 110:../../libDaisy//src/per/qspi.h ****         This should be called before reinitializing QSPI in a different mode.
 111:../../libDaisy//src/per/qspi.h ****         \return Result::OK or Result::ERR
 112:../../libDaisy//src/per/qspi.h ****         */
 113:../../libDaisy//src/per/qspi.h ****     Result DeInit();
 114:../../libDaisy//src/per/qspi.h **** 
 115:../../libDaisy//src/per/qspi.h ****     /** 
 116:../../libDaisy//src/per/qspi.h ****         Writes a single page to to the specified address on the QSPI chip.
 117:../../libDaisy//src/per/qspi.h ****         For IS25LP*, page size is 256 bytes.
 118:../../libDaisy//src/per/qspi.h ****         \param address Address to write to
 119:../../libDaisy//src/per/qspi.h ****         \param size Buffer size
 120:../../libDaisy//src/per/qspi.h ****         \param buffer Buffer to write
 121:../../libDaisy//src/per/qspi.h ****         \return Result::OK or Result::ERR
 122:../../libDaisy//src/per/qspi.h ****         */
 123:../../libDaisy//src/per/qspi.h ****     Result WritePage(uint32_t address, uint32_t size, uint8_t* buffer);
 124:../../libDaisy//src/per/qspi.h **** 
 125:../../libDaisy//src/per/qspi.h ****     /** 
 126:../../libDaisy//src/per/qspi.h ****         Writes data in buffer to to the QSPI. Starting at address to address+size 
 127:../../libDaisy//src/per/qspi.h ****         \param address Address to write to
 128:../../libDaisy//src/per/qspi.h ****         \param size Buffer size
 129:../../libDaisy//src/per/qspi.h ****         \param buffer Buffer to write
 130:../../libDaisy//src/per/qspi.h ****         \return Result::OK or Result::ERR
 131:../../libDaisy//src/per/qspi.h ****         */
 132:../../libDaisy//src/per/qspi.h ****     Result Write(uint32_t address, uint32_t size, uint8_t* buffer);
 133:../../libDaisy//src/per/qspi.h **** 
 134:../../libDaisy//src/per/qspi.h ****     /** 
 135:../../libDaisy//src/per/qspi.h ****         Erases the area specified on the chip.
 136:../../libDaisy//src/per/qspi.h ****         Erasures will happen by 4K, 32K or 64K increments.
 137:../../libDaisy//src/per/qspi.h ****         Smallest erase possible is 4kB at a time. (on IS25LP*)
 138:../../libDaisy//src/per/qspi.h ****         \param start_addr Address to begin erasing from
 139:../../libDaisy//src/per/qspi.h ****         \param end_addr  Address to stop erasing at
 140:../../libDaisy//src/per/qspi.h ****         \return Result::OK or Result::ERR
 141:../../libDaisy//src/per/qspi.h ****         */
 142:../../libDaisy//src/per/qspi.h ****     Result Erase(uint32_t start_addr, uint32_t end_addr);
 143:../../libDaisy//src/per/qspi.h **** 
 144:../../libDaisy//src/per/qspi.h ****     /**  
 145:../../libDaisy//src/per/qspi.h ****          Erases a single sector of the chip.  
ARM GAS  /var/folders/hl/qgbwny5j0fd895c2c41bk3tw0000gp/T//ccOi8z5J.s 			page 54


 146:../../libDaisy//src/per/qspi.h ****         TODO: Document the size of this function. 
 147:../../libDaisy//src/per/qspi.h ****         \param address Address of sector to erase
 148:../../libDaisy//src/per/qspi.h ****         \return Result::OK or Result::ERR
 149:../../libDaisy//src/per/qspi.h ****         */
 150:../../libDaisy//src/per/qspi.h ****     Result EraseSector(uint32_t address);
 151:../../libDaisy//src/per/qspi.h **** 
 152:../../libDaisy//src/per/qspi.h ****     /** Returns the current class status. Useful for debugging.
 153:../../libDaisy//src/per/qspi.h ****      *  \returns Status
 154:../../libDaisy//src/per/qspi.h ****      */
 155:../../libDaisy//src/per/qspi.h ****     Status GetStatus();
 156:../../libDaisy//src/per/qspi.h **** 
 157:../../libDaisy//src/per/qspi.h ****     /** Returns a pointer to the actual memory used 
 158:../../libDaisy//src/per/qspi.h ****      *  The memory at this address is read-only
 159:../../libDaisy//src/per/qspi.h ****      *  to write to it use the Write function.
 160:../../libDaisy//src/per/qspi.h ****      * 
 161:../../libDaisy//src/per/qspi.h ****      *  \param offset returns the pointer starting this 
 162:../../libDaisy//src/per/qspi.h ****      *                many bytes into the memory
 163:../../libDaisy//src/per/qspi.h ****     */
 164:../../libDaisy//src/per/qspi.h ****     void* GetData(uint32_t offset = 0);
 165:../../libDaisy//src/per/qspi.h **** 
 166:../../libDaisy//src/per/qspi.h ****     QSPIHandle() : pimpl_(nullptr) {}
 1548              		.loc 14 166 5 is_stmt 1 view .LVU348
 1549              	.LBB656:
 1550              	.LBB657:
 1551              		.loc 14 166 34 is_stmt 0 view .LVU349
 1552 00ec 2948     		ldr	r0, .L43+144
 1553              	.LBE657:
 1554              	.LBE656:
 1555              	.LBE655:
 1556              	.LBE653:
 1557              	.LBE652:
  11:ClockTesting.cpp **** DaisyPatchSM hw;
 1558              		.loc 9 11 14 view .LVU350
 1559 00ee 234A     		ldr	r2, .L43+120
 1560              	.LBB680:
 1561              	.LBB677:
 1562              	.LBB658:
 1563              	.LBB659:
 1564              	.LBB660:
 1565              	.LBB661:
 1566              	.LBB662:
 1567              		.file 15 "../../libDaisy//src/per/i2c.h"
   1:../../libDaisy//src/per/i2c.h **** #pragma once
   2:../../libDaisy//src/per/i2c.h **** #include "daisy_core.h"
   3:../../libDaisy//src/per/i2c.h **** 
   4:../../libDaisy//src/per/i2c.h **** namespace daisy
   5:../../libDaisy//src/per/i2c.h **** {
   6:../../libDaisy//src/per/i2c.h **** /** A handle for interacting with an I2C peripheral. This is a dumb
   7:../../libDaisy//src/per/i2c.h ****  *  gateway that internally points to one of the four I2C peripherals
   8:../../libDaisy//src/per/i2c.h ****  *  after it was initialised. It can then be copied and passed around.
   9:../../libDaisy//src/per/i2c.h ****  *  Use an I2CHandle like this:
  10:../../libDaisy//src/per/i2c.h ****  *  
  11:../../libDaisy//src/per/i2c.h ****  *      // setup the configuration
  12:../../libDaisy//src/per/i2c.h ****  *      I2CHandle::Config i2c_conf;
  13:../../libDaisy//src/per/i2c.h ****  *      i2c_conf.periph = I2CHandle::Config::Peripheral::I2C_1;
  14:../../libDaisy//src/per/i2c.h ****  *      i2c_conf.speed  = I2CHandle::Config::Speed::I2C_400KHZ;
  15:../../libDaisy//src/per/i2c.h ****  *      i2c_conf.mode   = I2CHandle::Config::Mode::Master;
ARM GAS  /var/folders/hl/qgbwny5j0fd895c2c41bk3tw0000gp/T//ccOi8z5J.s 			page 55


  16:../../libDaisy//src/per/i2c.h ****  *      i2c_conf.pin_config.scl  = {DSY_GPIOB, 8};
  17:../../libDaisy//src/per/i2c.h ****  *      i2c_conf.pin_config.sda  = {DSY_GPIOB, 9};
  18:../../libDaisy//src/per/i2c.h ****  *      // initialise the peripheral
  19:../../libDaisy//src/per/i2c.h ****  *      I2CHandle i2c;
  20:../../libDaisy//src/per/i2c.h ****  *      i2c.Init(i2c_conf);
  21:../../libDaisy//src/per/i2c.h ****  *      // now i2c points to the corresponding peripheral and can be used.
  22:../../libDaisy//src/per/i2c.h ****  *      i2c.TransmitBlocking( ... );
  23:../../libDaisy//src/per/i2c.h ****  */
  24:../../libDaisy//src/per/i2c.h **** class I2CHandle
  25:../../libDaisy//src/per/i2c.h **** {
  26:../../libDaisy//src/per/i2c.h ****   public:
  27:../../libDaisy//src/per/i2c.h ****     /** Contains settings for initialising an I2C interface. */
  28:../../libDaisy//src/per/i2c.h ****     struct Config
  29:../../libDaisy//src/per/i2c.h ****     {
  30:../../libDaisy//src/per/i2c.h ****         /** Specifies whether the interface will operate in master or slave mode. */
  31:../../libDaisy//src/per/i2c.h ****         enum class Mode
  32:../../libDaisy//src/per/i2c.h ****         {
  33:../../libDaisy//src/per/i2c.h ****             I2C_MASTER,
  34:../../libDaisy//src/per/i2c.h ****             I2C_SLAVE,
  35:../../libDaisy//src/per/i2c.h ****         };
  36:../../libDaisy//src/per/i2c.h **** 
  37:../../libDaisy//src/per/i2c.h ****         /** Specifices the internal peripheral to use (these are mapped to different pins on the ha
  38:../../libDaisy//src/per/i2c.h ****         enum class Peripheral
  39:../../libDaisy//src/per/i2c.h ****         {
  40:../../libDaisy//src/per/i2c.h ****             I2C_1 = 0, /**< & */
  41:../../libDaisy//src/per/i2c.h ****             I2C_2,     /**< & */
  42:../../libDaisy//src/per/i2c.h ****             I2C_3,     /**< & */
  43:../../libDaisy//src/per/i2c.h ****             I2C_4,     /**< & */
  44:../../libDaisy//src/per/i2c.h ****         };
  45:../../libDaisy//src/per/i2c.h **** 
  46:../../libDaisy//src/per/i2c.h ****         /** Rate at which the clock/data will be sent/received. The device being used will have max
  47:../../libDaisy//src/per/i2c.h ****          *  1MHZ Mode is currently 886kHz
  48:../../libDaisy//src/per/i2c.h ****          */
  49:../../libDaisy//src/per/i2c.h ****         enum class Speed
  50:../../libDaisy//src/per/i2c.h ****         {
  51:../../libDaisy//src/per/i2c.h ****             I2C_100KHZ, /**< & */
  52:../../libDaisy//src/per/i2c.h ****             I2C_400KHZ, /**< & */
  53:../../libDaisy//src/per/i2c.h ****             I2C_1MHZ,   /**< & */
  54:../../libDaisy//src/per/i2c.h ****         };
  55:../../libDaisy//src/per/i2c.h **** 
  56:../../libDaisy//src/per/i2c.h ****         Peripheral periph; /**< & */
  57:../../libDaisy//src/per/i2c.h ****         struct
  58:../../libDaisy//src/per/i2c.h ****         {
  59:../../libDaisy//src/per/i2c.h ****             dsy_gpio_pin scl; /**< & */
  60:../../libDaisy//src/per/i2c.h ****             dsy_gpio_pin sda; /**< & */
  61:../../libDaisy//src/per/i2c.h ****         } pin_config;         /**< & */
  62:../../libDaisy//src/per/i2c.h **** 
  63:../../libDaisy//src/per/i2c.h ****         Speed speed; /**< & */
  64:../../libDaisy//src/per/i2c.h ****         Mode  mode;  /**< & */
  65:../../libDaisy//src/per/i2c.h ****         // 0x10 is chosen as a default to avoid conflicts with reserved addresses
  66:../../libDaisy//src/per/i2c.h ****         uint8_t address = 0x10; /**< & */
  67:../../libDaisy//src/per/i2c.h ****     };
  68:../../libDaisy//src/per/i2c.h **** 
  69:../../libDaisy//src/per/i2c.h ****     /** Return values for I2C functions. */
  70:../../libDaisy//src/per/i2c.h ****     enum class Result
  71:../../libDaisy//src/per/i2c.h ****     {
  72:../../libDaisy//src/per/i2c.h ****         OK, /**< & */
ARM GAS  /var/folders/hl/qgbwny5j0fd895c2c41bk3tw0000gp/T//ccOi8z5J.s 			page 56


  73:../../libDaisy//src/per/i2c.h ****         ERR /**< & */
  74:../../libDaisy//src/per/i2c.h ****     };
  75:../../libDaisy//src/per/i2c.h **** 
  76:../../libDaisy//src/per/i2c.h ****     enum class Direction
  77:../../libDaisy//src/per/i2c.h ****     {
  78:../../libDaisy//src/per/i2c.h ****         TRANSMIT, /**< & */
  79:../../libDaisy//src/per/i2c.h ****         RECEIVE,  /**< & */
  80:../../libDaisy//src/per/i2c.h ****     };
  81:../../libDaisy//src/per/i2c.h **** 
  82:../../libDaisy//src/per/i2c.h ****     I2CHandle() : pimpl_(nullptr) {}
 1568              		.loc 15 82 33 view .LVU351
 1569 00f0 0462     		str	r4, [r0, #32]
 1570              	.LBE662:
 1571              	.LBE661:
 1572              	.LBE660:
 1573              	.LBE659:
 1574              	.LBE658:
 1575              	.LBB665:
 1576              	.LBB666:
 1577              	.LBB667:
 1578              		.file 16 "../../libDaisy//src/per/dac.h"
   1:../../libDaisy//src/per/dac.h **** #pragma once
   2:../../libDaisy//src/per/dac.h **** #ifndef DSY_DAC_H
   3:../../libDaisy//src/per/dac.h **** #define DSY_DAC_H
   4:../../libDaisy//src/per/dac.h **** 
   5:../../libDaisy//src/per/dac.h **** #include "daisy_core.h"
   6:../../libDaisy//src/per/dac.h **** 
   7:../../libDaisy//src/per/dac.h **** namespace daisy
   8:../../libDaisy//src/per/dac.h **** {
   9:../../libDaisy//src/per/dac.h **** /** @brief DAC handle for Built-in DAC Peripheral 
  10:../../libDaisy//src/per/dac.h ****  *  @ingroup per_analog
  11:../../libDaisy//src/per/dac.h ****  ** 
  12:../../libDaisy//src/per/dac.h ****  ** For now only Normal Mode is supported,
  13:../../libDaisy//src/per/dac.h ****  ** Sample and hold mode provides reduced power consumption, but requires a bit more setup.
  14:../../libDaisy//src/per/dac.h ****  **
  15:../../libDaisy//src/per/dac.h ****  ** For now connecting the DAC through other internal peripherals is also not supported.
  16:../../libDaisy//src/per/dac.h ****  **
  17:../../libDaisy//src/per/dac.h ****  ** Since the DAC channels have dedicated pins we don't need to pass in a pin config like with
  18:../../libDaisy//src/per/dac.h ****  ** other modules. However, it is still important to not try to use the DAC pins for anything else.
  19:../../libDaisy//src/per/dac.h ****  ** DAC Channel 1 is on PA4, and DAC Channel 2 is on PA5
  20:../../libDaisy//src/per/dac.h ****  ***/
  21:../../libDaisy//src/per/dac.h **** class DacHandle
  22:../../libDaisy//src/per/dac.h **** {
  23:../../libDaisy//src/per/dac.h ****   public:
  24:../../libDaisy//src/per/dac.h ****     /** Return Values for the DacHandle class */
  25:../../libDaisy//src/per/dac.h ****     enum class Result
  26:../../libDaisy//src/per/dac.h ****     {
  27:../../libDaisy//src/per/dac.h ****         OK,
  28:../../libDaisy//src/per/dac.h ****         ERR,
  29:../../libDaisy//src/per/dac.h ****     };
  30:../../libDaisy//src/per/dac.h **** 
  31:../../libDaisy//src/per/dac.h ****     /** Selects which channel(s) will be configured for use. */
  32:../../libDaisy//src/per/dac.h ****     enum class Channel
  33:../../libDaisy//src/per/dac.h ****     {
  34:../../libDaisy//src/per/dac.h ****         ONE,
  35:../../libDaisy//src/per/dac.h ****         TWO,
  36:../../libDaisy//src/per/dac.h ****         BOTH,
ARM GAS  /var/folders/hl/qgbwny5j0fd895c2c41bk3tw0000gp/T//ccOi8z5J.s 			page 57


  37:../../libDaisy//src/per/dac.h ****     };
  38:../../libDaisy//src/per/dac.h **** 
  39:../../libDaisy//src/per/dac.h ****     /** Sets the Mode for the DAC channels.
  40:../../libDaisy//src/per/dac.h ****      **
  41:../../libDaisy//src/per/dac.h ****      ** Polling mode uses the blocking mode to transmit a single value at a time.
  42:../../libDaisy//src/per/dac.h ****      **
  43:../../libDaisy//src/per/dac.h ****      ** DMA mode uses a buffer, and periodically transmits it triggering a 
  44:../../libDaisy//src/per/dac.h ****      ** callback to fill the buffer when it is ready for more samples.
  45:../../libDaisy//src/per/dac.h ****      ***/
  46:../../libDaisy//src/per/dac.h ****     enum class Mode
  47:../../libDaisy//src/per/dac.h ****     {
  48:../../libDaisy//src/per/dac.h ****         POLLING,
  49:../../libDaisy//src/per/dac.h ****         DMA,
  50:../../libDaisy//src/per/dac.h ****     };
  51:../../libDaisy//src/per/dac.h **** 
  52:../../libDaisy//src/per/dac.h ****     /** Sets the number of bits per sample transmitted out of the DAC.
  53:../../libDaisy//src/per/dac.h ****      ** The output range will be: 0V - VDDA
  54:../../libDaisy//src/per/dac.h ****      ** The resolution will be roughly: bitdepth / (VDDA - 0V) 
  55:../../libDaisy//src/per/dac.h ****      ***/
  56:../../libDaisy//src/per/dac.h ****     enum class BitDepth
  57:../../libDaisy//src/per/dac.h ****     {
  58:../../libDaisy//src/per/dac.h ****         BITS_8,
  59:../../libDaisy//src/per/dac.h ****         BITS_12
  60:../../libDaisy//src/per/dac.h ****     };
  61:../../libDaisy//src/per/dac.h **** 
  62:../../libDaisy//src/per/dac.h ****     /** Sets whether the DAC output is buffered for higher drive ability. */
  63:../../libDaisy//src/per/dac.h ****     enum class BufferState
  64:../../libDaisy//src/per/dac.h ****     {
  65:../../libDaisy//src/per/dac.h ****         ENABLED,
  66:../../libDaisy//src/per/dac.h ****         DISABLED,
  67:../../libDaisy//src/per/dac.h ****     };
  68:../../libDaisy//src/per/dac.h **** 
  69:../../libDaisy//src/per/dac.h ****     /** Configuration structure for initializing the DAC structure. */
  70:../../libDaisy//src/per/dac.h ****     struct Config
  71:../../libDaisy//src/per/dac.h ****     {
  72:../../libDaisy//src/per/dac.h ****         /** Target Samplerate in Hz used to configure the internal 
  73:../../libDaisy//src/per/dac.h ****          ** timebase for DMA mode. Does nothing in POLLING mode.
  74:../../libDaisy//src/per/dac.h ****          ** If the value is 0 at Init time this will default to 48000Hz 
  75:../../libDaisy//src/per/dac.h ****          ** otherwise the driver will attempt meet the target.*/
  76:../../libDaisy//src/per/dac.h ****         uint32_t target_samplerate;
  77:../../libDaisy//src/per/dac.h **** 
  78:../../libDaisy//src/per/dac.h ****         Channel     chn;
  79:../../libDaisy//src/per/dac.h ****         Mode        mode;
  80:../../libDaisy//src/per/dac.h ****         BitDepth    bitdepth;
  81:../../libDaisy//src/per/dac.h ****         BufferState buff_state;
  82:../../libDaisy//src/per/dac.h ****     };
  83:../../libDaisy//src/per/dac.h **** 
  84:../../libDaisy//src/per/dac.h ****     DacHandle() : pimpl_(nullptr) {}
 1579              		.loc 16 84 33 view .LVU352
 1580 00f2 8462     		str	r4, [r0, #40]
 1581              	.LBE667:
 1582              	.LBE666:
 1583              	.LBE665:
 1584              	.LBE677:
 1585              	.LBE680:
  11:ClockTesting.cpp **** DaisyPatchSM hw;
 1586              		.loc 9 11 14 view .LVU353
ARM GAS  /var/folders/hl/qgbwny5j0fd895c2c41bk3tw0000gp/T//ccOi8z5J.s 			page 58


 1587 00f4 2849     		ldr	r1, .L43+148
 1588              	.LBB681:
 1589              	.LBB678:
 1590              	.LBB668:
 1591              	.LBB669:
 1592              	.LBB670:
  95:../../libDaisy//src/hid/audio.h ****     ~AudioHandle() {}
 1593              		.loc 7 95 35 view .LVU354
 1594 00f6 C0E90344 		strd	r4, r4, [r0, #12]
 1595              	.LVL86:
  95:../../libDaisy//src/hid/audio.h ****     ~AudioHandle() {}
 1596              		.loc 7 95 35 view .LVU355
 1597              	.LBE670:
 1598              	.LBE669:
 1599              	.LBE668:
 1600              	.LBB671:
 1601              	.LBI671:
  92:../../libDaisy//src/per/adc.h ****     ~AdcHandle() {}
 1602              		.loc 6 92 5 is_stmt 1 view .LVU356
  92:../../libDaisy//src/per/adc.h ****     ~AdcHandle() {}
 1603              		.loc 6 92 5 is_stmt 0 view .LVU357
 1604              	.LBE671:
 1605              	.LBB672:
 1606              	.LBI672:
  40:../../libDaisy//src/hid/usb.h **** 
 1607              		.loc 5 40 5 is_stmt 1 view .LVU358
  40:../../libDaisy//src/hid/usb.h **** 
 1608              		.loc 5 40 5 is_stmt 0 view .LVU359
 1609              	.LBE672:
 1610              	.LBB673:
 1611              	.LBI658:
  28:../../libDaisy//src/dev/codec_pcm3060.h ****     ~Pcm3060() {}
 1612              		.loc 4 28 5 is_stmt 1 view .LVU360
 1613              	.LBB664:
 1614              	.LBB663:
 1615              	.LBI660:
 1616              		.loc 15 82 5 view .LVU361
 1617              		.loc 15 82 5 is_stmt 0 view .LVU362
 1618              	.LBE663:
 1619              	.LBE664:
 1620              	.LBE673:
 1621              	.LBB674:
 1622              	.LBI665:
 1623              		.loc 16 84 5 is_stmt 1 view .LVU363
 1624              		.loc 16 84 5 is_stmt 0 view .LVU364
 1625              	.LBE674:
 1626              	.LBE678:
 1627              	.LBE681:
 1628              	.LBE683:
 1629              	.LBE686:
  64:../../libDaisy//src/daisy_patch_sm.h ****         ~DaisyPatchSM() {}
 1630              		.loc 2 64 24 is_stmt 1 view .LVU365
 1631              	.LBB687:
 1632              	.LBB684:
 1633              	.LBB682:
 1634              	.LBB679:
 1635              	.LBB675:
ARM GAS  /var/folders/hl/qgbwny5j0fd895c2c41bk3tw0000gp/T//ccOi8z5J.s 			page 59


 1636              	.LBI675:
  20:../../libDaisy//src/hid/gatein.h ****     /** GateIn~
 1637              		.loc 3 20 5 view .LVU366
  20:../../libDaisy//src/hid/gatein.h ****     /** GateIn~
 1638              		.loc 3 20 5 is_stmt 0 view .LVU367
 1639              	.LBE675:
 1640              	.LBB676:
 1641              	.LBI676:
  20:../../libDaisy//src/hid/gatein.h ****     /** GateIn~
 1642              		.loc 3 20 5 is_stmt 1 view .LVU368
  20:../../libDaisy//src/hid/gatein.h ****     /** GateIn~
 1643              		.loc 3 20 5 is_stmt 0 view .LVU369
 1644              	.LBE676:
 1645              	.LBE679:
 1646              	.LBE682:
 1647              	.LBE684:
 1648              	.LBE687:
 1649              		.loc 9 42 1 view .LVU370
 1650 00fa BDE83840 		pop	{r3, r4, r5, lr}
 1651              		.cfi_restore 14
 1652              		.cfi_restore 5
 1653              		.cfi_restore 4
 1654              		.cfi_restore 3
 1655              		.cfi_def_cfa_offset 0
 1656              	.LBB688:
 1657              	.LBB685:
  11:ClockTesting.cpp **** DaisyPatchSM hw;
 1658              		.loc 9 11 14 view .LVU371
 1659 00fe FFF7FEBF 		b	__aeabi_atexit
 1660              	.LVL87:
 1661              	.L44:
 1662 0102 00BF     		.align	2
 1663              	.L43:
 1664 0104 00000000 		.word	.LANCHOR4
 1665 0108 00000000 		.word	.LANCHOR2
 1666 010c 00000000 		.word	.LANCHOR6
 1667 0110 00000000 		.word	.LANCHOR8
 1668 0114 00000000 		.word	.LANCHOR12
 1669 0118 00000000 		.word	.LANCHOR10
 1670 011c 00000000 		.word	.LANCHOR16
 1671 0120 00000000 		.word	.LANCHOR14
 1672 0124 00000000 		.word	_ZN5daisy8patch_sm12DaisyPatchSM2D7E
 1673 0128 00000000 		.word	_ZN5daisy8patch_sm12DaisyPatchSM2A9E
 1674 012c 00000000 		.word	.LANCHOR20
 1675 0130 00000000 		.word	.LANCHOR21
 1676 0134 00000000 		.word	.LANCHOR1
 1677 0138 00000000 		.word	_ZN5daisy8patch_sm12DaisyPatchSM2D1E
 1678 013c 00000000 		.word	_ZN5daisy8patch_sm12DaisyPatchSM2D2E
 1679 0140 00000000 		.word	.LANCHOR3
 1680 0144 00000000 		.word	.LANCHOR22
 1681 0148 00000000 		.word	.LANCHOR23
 1682 014c 00000000 		.word	.LANCHOR5
 1683 0150 00000000 		.word	_ZN5daisy8patch_sm12DaisyPatchSM2D3E
 1684 0154 00000000 		.word	_ZN5daisy8patch_sm12DaisyPatchSM2D6E
 1685 0158 00000000 		.word	_ZN5daisy8patch_sm12DaisyPatchSM2D4E
 1686 015c 00000000 		.word	.LANCHOR13
 1687 0160 00000000 		.word	_ZN5daisy8patch_sm12DaisyPatchSM2D5E
ARM GAS  /var/folders/hl/qgbwny5j0fd895c2c41bk3tw0000gp/T//ccOi8z5J.s 			page 60


 1688 0164 00000000 		.word	.LANCHOR24
 1689 0168 00000000 		.word	.LANCHOR25
 1690 016c 00000000 		.word	.LANCHOR26
 1691 0170 00000000 		.word	.LANCHOR27
 1692 0174 00000000 		.word	_ZN5daisy6SwitchD1Ev
 1693 0178 00000000 		.word	.LANCHOR7
 1694 017c 00000000 		.word	__dso_handle
 1695 0180 00000000 		.word	.LANCHOR9
 1696 0184 00000000 		.word	.LANCHOR11
 1697 0188 00000000 		.word	.LANCHOR15
 1698 018c 00000000 		.word	.LANCHOR17
 1699 0190 00000000 		.word	.LANCHOR18
 1700 0194 00000000 		.word	.LANCHOR0
 1701 0198 00000000 		.word	_ZN5daisy8patch_sm12DaisyPatchSMD1Ev
 1702              	.LBE685:
 1703              	.LBE688:
 1704              		.cfi_endproc
 1705              	.LFE5364:
 1707              		.section	.init_array,"aw",%init_array
 1708              		.align	2
 1709 0000 00000000 		.word	_GLOBAL__sub_I__ZN5daisy8patch_sm8gen_led1E(target1)
 1710              		.global	period
 1711              		.global	tic
 1712              		.global	freq
 1713              		.global	util
 1714              		.global	hw
 1715              		.global	_ZN5daisy8patch_sm2b2E
 1716              		.global	_ZN5daisy8patch_sm2b1E
 1717              		.global	_ZN5daisy8patch_sm8newPinD5E
 1718              		.global	_ZN5daisy8patch_sm8oldPinD5E
 1719              		.global	_ZN5daisy8patch_sm8newPinD4E
 1720              		.global	_ZN5daisy8patch_sm8oldPinD4E
 1721              		.global	_ZN5daisy8patch_sm8newPinD6E
 1722              		.global	_ZN5daisy8patch_sm8oldPinD6E
 1723              		.global	_ZN5daisy8patch_sm8newPinD3E
 1724              		.global	_ZN5daisy8patch_sm8oldPinD3E
 1725              		.global	_ZN5daisy8patch_sm8newPinD1E
 1726              		.global	_ZN5daisy8patch_sm8oldPinD1E
 1727              		.global	_ZN5daisy8patch_sm8newPinD2E
 1728              		.global	_ZN5daisy8patch_sm8oldPinD2E
 1729              		.global	_ZN5daisy8patch_sm8newPinA9E
 1730              		.global	_ZN5daisy8patch_sm8oldPinA9E
 1731              		.global	_ZN5daisy8patch_sm8newPinD7E
 1732              		.global	_ZN5daisy8patch_sm8oldPinD7E
 1733              		.global	_ZN5daisy8patch_sm13gate_out_led2E
 1734              		.global	_ZN5daisy8patch_sm13gate_out_led1E
 1735              		.global	_ZN5daisy8patch_sm12gate_in_led2E
 1736              		.global	_ZN5daisy8patch_sm12gate_in_led1E
 1737              		.global	_ZN5daisy8patch_sm7cv_led2E
 1738              		.global	_ZN5daisy8patch_sm7cv_led1E
 1739              		.global	_ZN5daisy8patch_sm8gen_led2E
 1740              		.global	_ZN5daisy8patch_sm8gen_led1E
 1741              		.section	.bss._ZN5daisy8patch_sm12gate_in_led1E,"aw",%nobits
 1742              		.align	2
 1743              		.set	.LANCHOR10,. + 0
 1746              	_ZN5daisy8patch_sm12gate_in_led1E:
 1747 0000 00000000 		.space	20
ARM GAS  /var/folders/hl/qgbwny5j0fd895c2c41bk3tw0000gp/T//ccOi8z5J.s 			page 61


 1747      00000000 
 1747      00000000 
 1747      00000000 
 1747      00000000 
 1748              		.section	.bss._ZN5daisy8patch_sm12gate_in_led2E,"aw",%nobits
 1749              		.align	2
 1750              		.set	.LANCHOR12,. + 0
 1753              	_ZN5daisy8patch_sm12gate_in_led2E:
 1754 0000 00000000 		.space	20
 1754      00000000 
 1754      00000000 
 1754      00000000 
 1754      00000000 
 1755              		.section	.bss._ZN5daisy8patch_sm13gate_out_led1E,"aw",%nobits
 1756              		.align	2
 1757              		.set	.LANCHOR14,. + 0
 1760              	_ZN5daisy8patch_sm13gate_out_led1E:
 1761 0000 00000000 		.space	20
 1761      00000000 
 1761      00000000 
 1761      00000000 
 1761      00000000 
 1762              		.section	.bss._ZN5daisy8patch_sm13gate_out_led2E,"aw",%nobits
 1763              		.align	2
 1764              		.set	.LANCHOR16,. + 0
 1767              	_ZN5daisy8patch_sm13gate_out_led2E:
 1768 0000 00000000 		.space	20
 1768      00000000 
 1768      00000000 
 1768      00000000 
 1768      00000000 
 1769              		.section	.bss._ZN5daisy8patch_sm2b1E,"aw",%nobits
 1770              		.align	2
 1771              		.set	.LANCHOR17,. + 0
 1774              	_ZN5daisy8patch_sm2b1E:
 1775 0000 00000000 		.space	16
 1775      00000000 
 1775      00000000 
 1775      00000000 
 1776              		.section	.bss._ZN5daisy8patch_sm2b2E,"aw",%nobits
 1777              		.align	2
 1778              		.set	.LANCHOR18,. + 0
 1781              	_ZN5daisy8patch_sm2b2E:
 1782 0000 00000000 		.space	16
 1782      00000000 
 1782      00000000 
 1782      00000000 
 1783              		.section	.bss._ZN5daisy8patch_sm7cv_led1E,"aw",%nobits
 1784              		.align	2
 1785              		.set	.LANCHOR6,. + 0
 1788              	_ZN5daisy8patch_sm7cv_led1E:
 1789 0000 00000000 		.space	20
 1789      00000000 
 1789      00000000 
 1789      00000000 
 1789      00000000 
 1790              		.section	.bss._ZN5daisy8patch_sm7cv_led2E,"aw",%nobits
ARM GAS  /var/folders/hl/qgbwny5j0fd895c2c41bk3tw0000gp/T//ccOi8z5J.s 			page 62


 1791              		.align	2
 1792              		.set	.LANCHOR8,. + 0
 1795              	_ZN5daisy8patch_sm7cv_led2E:
 1796 0000 00000000 		.space	20
 1796      00000000 
 1796      00000000 
 1796      00000000 
 1796      00000000 
 1797              		.section	.bss._ZN5daisy8patch_sm8gen_led1E,"aw",%nobits
 1798              		.align	2
 1799              		.set	.LANCHOR2,. + 0
 1802              	_ZN5daisy8patch_sm8gen_led1E:
 1803 0000 00000000 		.space	20
 1803      00000000 
 1803      00000000 
 1803      00000000 
 1803      00000000 
 1804              		.section	.bss._ZN5daisy8patch_sm8gen_led2E,"aw",%nobits
 1805              		.align	2
 1806              		.set	.LANCHOR4,. + 0
 1809              	_ZN5daisy8patch_sm8gen_led2E:
 1810 0000 00000000 		.space	20
 1810      00000000 
 1810      00000000 
 1810      00000000 
 1810      00000000 
 1811              		.section	.bss._ZN5daisy8patch_sm8newPinA9E,"aw",%nobits
 1812              		.align	2
 1813              		.set	.LANCHOR3,. + 0
 1816              	_ZN5daisy8patch_sm8newPinA9E:
 1817 0000 0000     		.space	2
 1818              		.section	.bss._ZN5daisy8patch_sm8newPinD1E,"aw",%nobits
 1819              		.align	2
 1820              		.set	.LANCHOR7,. + 0
 1823              	_ZN5daisy8patch_sm8newPinD1E:
 1824 0000 0000     		.space	2
 1825              		.section	.bss._ZN5daisy8patch_sm8newPinD2E,"aw",%nobits
 1826              		.align	2
 1827              		.set	.LANCHOR5,. + 0
 1830              	_ZN5daisy8patch_sm8newPinD2E:
 1831 0000 0000     		.space	2
 1832              		.section	.bss._ZN5daisy8patch_sm8newPinD3E,"aw",%nobits
 1833              		.align	2
 1834              		.set	.LANCHOR9,. + 0
 1837              	_ZN5daisy8patch_sm8newPinD3E:
 1838 0000 0000     		.space	2
 1839              		.section	.bss._ZN5daisy8patch_sm8newPinD4E,"aw",%nobits
 1840              		.align	2
 1841              		.set	.LANCHOR11,. + 0
 1844              	_ZN5daisy8patch_sm8newPinD4E:
 1845 0000 0000     		.space	2
 1846              		.section	.bss._ZN5daisy8patch_sm8newPinD5E,"aw",%nobits
 1847              		.align	2
 1848              		.set	.LANCHOR15,. + 0
 1851              	_ZN5daisy8patch_sm8newPinD5E:
 1852 0000 0000     		.space	2
 1853              		.section	.bss._ZN5daisy8patch_sm8newPinD6E,"aw",%nobits
ARM GAS  /var/folders/hl/qgbwny5j0fd895c2c41bk3tw0000gp/T//ccOi8z5J.s 			page 63


 1854              		.align	2
 1855              		.set	.LANCHOR13,. + 0
 1858              	_ZN5daisy8patch_sm8newPinD6E:
 1859 0000 0000     		.space	2
 1860              		.section	.bss._ZN5daisy8patch_sm8newPinD7E,"aw",%nobits
 1861              		.align	2
 1862              		.set	.LANCHOR1,. + 0
 1865              	_ZN5daisy8patch_sm8newPinD7E:
 1866 0000 0000     		.space	2
 1867              		.section	.bss._ZN5daisy8patch_sm8oldPinA9E,"aw",%nobits
 1868              		.align	2
 1869              		.set	.LANCHOR21,. + 0
 1872              	_ZN5daisy8patch_sm8oldPinA9E:
 1873 0000 0000     		.space	2
 1874              		.section	.bss._ZN5daisy8patch_sm8oldPinD1E,"aw",%nobits
 1875              		.align	2
 1876              		.set	.LANCHOR23,. + 0
 1879              	_ZN5daisy8patch_sm8oldPinD1E:
 1880 0000 0000     		.space	2
 1881              		.section	.bss._ZN5daisy8patch_sm8oldPinD2E,"aw",%nobits
 1882              		.align	2
 1883              		.set	.LANCHOR22,. + 0
 1886              	_ZN5daisy8patch_sm8oldPinD2E:
 1887 0000 0000     		.space	2
 1888              		.section	.bss._ZN5daisy8patch_sm8oldPinD3E,"aw",%nobits
 1889              		.align	2
 1890              		.set	.LANCHOR24,. + 0
 1893              	_ZN5daisy8patch_sm8oldPinD3E:
 1894 0000 0000     		.space	2
 1895              		.section	.bss._ZN5daisy8patch_sm8oldPinD4E,"aw",%nobits
 1896              		.align	2
 1897              		.set	.LANCHOR26,. + 0
 1900              	_ZN5daisy8patch_sm8oldPinD4E:
 1901 0000 0000     		.space	2
 1902              		.section	.bss._ZN5daisy8patch_sm8oldPinD5E,"aw",%nobits
 1903              		.align	2
 1904              		.set	.LANCHOR27,. + 0
 1907              	_ZN5daisy8patch_sm8oldPinD5E:
 1908 0000 0000     		.space	2
 1909              		.section	.bss._ZN5daisy8patch_sm8oldPinD6E,"aw",%nobits
 1910              		.align	2
 1911              		.set	.LANCHOR25,. + 0
 1914              	_ZN5daisy8patch_sm8oldPinD6E:
 1915 0000 0000     		.space	2
 1916              		.section	.bss._ZN5daisy8patch_sm8oldPinD7E,"aw",%nobits
 1917              		.align	2
 1918              		.set	.LANCHOR20,. + 0
 1921              	_ZN5daisy8patch_sm8oldPinD7E:
 1922 0000 0000     		.space	2
 1923              		.section	.bss.freq,"aw",%nobits
 1924              		.align	2
 1927              	freq:
 1928 0000 00000000 		.space	4
 1929              		.section	.bss.hw,"aw",%nobits
 1930              		.align	2
 1931              		.set	.LANCHOR0,. + 0
 1934              	hw:
ARM GAS  /var/folders/hl/qgbwny5j0fd895c2c41bk3tw0000gp/T//ccOi8z5J.s 			page 64


 1935 0000 00000000 		.space	464
 1935      00000000 
 1935      00000000 
 1935      00000000 
 1935      00000000 
 1936              		.section	.bss.period,"aw",%nobits
 1937              		.align	2
 1940              	period:
 1941 0000 00000000 		.space	4
 1942              		.section	.bss.tic,"aw",%nobits
 1945              	tic:
 1946 0000 00       		.space	1
 1947              		.section	.bss.util,"aw",%nobits
 1948              		.align	2
 1949              		.set	.LANCHOR19,. + 0
 1952              	util:
 1953 0000 00000000 		.space	12
 1953      00000000 
 1953      00000000 
 1954              		.text
 1955              	.Letext0:
 1956              		.file 17 "/opt/homebrew/Cellar/arm-none-eabi-gcc/10.3-2021.07/gcc/arm-none-eabi/include/machine/_d
 1957              		.file 18 "/opt/homebrew/Cellar/arm-none-eabi-gcc/10.3-2021.07/gcc/arm-none-eabi/include/sys/_stdin
 1958              		.file 19 "/opt/homebrew/Cellar/arm-none-eabi-gcc/10.3-2021.07/gcc/arm-none-eabi/include/stdint.h"
 1959              		.file 20 "/opt/homebrew/Cellar/arm-none-eabi-gcc/10.3-2021.07/gcc/lib/gcc/arm-none-eabi/10.3.1/inc
 1960              		.file 21 "/opt/homebrew/Cellar/arm-none-eabi-gcc/10.3-2021.07/gcc/arm-none-eabi/include/c++/10.3.1
 1961              		.file 22 "/opt/homebrew/Cellar/arm-none-eabi-gcc/10.3-2021.07/gcc/arm-none-eabi/include/c++/10.3.1
 1962              		.file 23 "/opt/homebrew/Cellar/arm-none-eabi-gcc/10.3-2021.07/gcc/arm-none-eabi/include/c++/10.3.1
 1963              		.file 24 "/opt/homebrew/Cellar/arm-none-eabi-gcc/10.3-2021.07/gcc/arm-none-eabi/include/c++/10.3.1
 1964              		.file 25 "/opt/homebrew/Cellar/arm-none-eabi-gcc/10.3-2021.07/gcc/arm-none-eabi/include/c++/10.3.1
 1965              		.file 26 "/opt/homebrew/Cellar/arm-none-eabi-gcc/10.3-2021.07/gcc/arm-none-eabi/include/c++/10.3.1
 1966              		.file 27 "/opt/homebrew/Cellar/arm-none-eabi-gcc/10.3-2021.07/gcc/arm-none-eabi/include/c++/10.3.1
 1967              		.file 28 "/opt/homebrew/Cellar/arm-none-eabi-gcc/10.3-2021.07/gcc/arm-none-eabi/include/c++/10.3.1
 1968              		.file 29 "/opt/homebrew/Cellar/arm-none-eabi-gcc/10.3-2021.07/gcc/arm-none-eabi/include/c++/10.3.1
 1969              		.file 30 "/opt/homebrew/Cellar/arm-none-eabi-gcc/10.3-2021.07/gcc/arm-none-eabi/include/c++/10.3.1
 1970              		.file 31 "/opt/homebrew/Cellar/arm-none-eabi-gcc/10.3-2021.07/gcc/arm-none-eabi/include/c++/10.3.1
 1971              		.file 32 "/opt/homebrew/Cellar/arm-none-eabi-gcc/10.3-2021.07/gcc/arm-none-eabi/include/c++/10.3.1
 1972              		.file 33 "/opt/homebrew/Cellar/arm-none-eabi-gcc/10.3-2021.07/gcc/arm-none-eabi/include/c++/10.3.1
 1973              		.file 34 "/opt/homebrew/Cellar/arm-none-eabi-gcc/10.3-2021.07/gcc/arm-none-eabi/include/c++/10.3.1
 1974              		.file 35 "/opt/homebrew/Cellar/arm-none-eabi-gcc/10.3-2021.07/gcc/arm-none-eabi/include/c++/10.3.1
 1975              		.file 36 "/opt/homebrew/Cellar/arm-none-eabi-gcc/10.3-2021.07/gcc/arm-none-eabi/include/c++/10.3.1
 1976              		.file 37 "/opt/homebrew/Cellar/arm-none-eabi-gcc/10.3-2021.07/gcc/arm-none-eabi/include/c++/10.3.1
 1977              		.file 38 "/opt/homebrew/Cellar/arm-none-eabi-gcc/10.3-2021.07/gcc/arm-none-eabi/include/c++/10.3.1
 1978              		.file 39 "/opt/homebrew/Cellar/arm-none-eabi-gcc/10.3-2021.07/gcc/arm-none-eabi/include/sys/_types
 1979              		.file 40 "/opt/homebrew/Cellar/arm-none-eabi-gcc/10.3-2021.07/gcc/arm-none-eabi/include/sys/reent.
 1980              		.file 41 "/opt/homebrew/Cellar/arm-none-eabi-gcc/10.3-2021.07/gcc/arm-none-eabi/include/sys/lock.h
 1981              		.file 42 "/opt/homebrew/Cellar/arm-none-eabi-gcc/10.3-2021.07/gcc/arm-none-eabi/include/math.h"
 1982              		.file 43 "/opt/homebrew/Cellar/arm-none-eabi-gcc/10.3-2021.07/gcc/arm-none-eabi/include/stdlib.h"
 1983              		.file 44 "/opt/homebrew/Cellar/arm-none-eabi-gcc/10.3-2021.07/gcc/arm-none-eabi/include/c++/10.3.1
 1984              		.file 45 "/opt/homebrew/Cellar/arm-none-eabi-gcc/10.3-2021.07/gcc/arm-none-eabi/include/c++/10.3.1
 1985              		.file 46 "../../libDaisy//src/per/tim.h"
 1986              		.file 47 "../../libDaisy//src/per/sai.h"
 1987              		.file 48 "../../libDaisy//src/hid/ctrl.h"
 1988              		.file 49 "../../libDaisy//src/hid/logger_impl.h"
 1989              		.file 50 "../../libDaisy//src/util/wav_format.h"
 1990              		.file 51 "../../libDaisy//src/dev/max11300.h"
 1991              		.file 52 "../../libDaisy//src/hid/logger.h"
ARM GAS  /var/folders/hl/qgbwny5j0fd895c2c41bk3tw0000gp/T//ccOi8z5J.s 			page 65


 1992              		.file 53 "../../libDaisy//src/dev/sdram.h"
 1993              		.file 54 "/opt/homebrew/Cellar/arm-none-eabi-gcc/10.3-2021.07/gcc/lib/gcc/arm-none-eabi/10.3.1/inc
 1994              		.file 55 "/opt/homebrew/Cellar/arm-none-eabi-gcc/10.3-2021.07/gcc/arm-none-eabi/include/stdio.h"
 1995              		.file 56 "/opt/homebrew/Cellar/arm-none-eabi-gcc/10.3-2021.07/gcc/arm-none-eabi/include/string.h"
 1996              		.file 57 "../../DaisySP//Source/Control/adenv.h"
 1997              		.file 58 "../../DaisySP//Source/Utility/dsp.h"
 1998              		.file 59 "/opt/homebrew/Cellar/arm-none-eabi-gcc/10.3-2021.07/gcc/arm-none-eabi/include/wchar.h"
 1999              		.file 60 "/opt/homebrew/Cellar/arm-none-eabi-gcc/10.3-2021.07/gcc/arm-none-eabi/include/locale.h"
 2000              		.file 61 "<built-in>"
 2001              		.file 62 "../../libDaisy//src/dev/sr_595.h"
ARM GAS  /var/folders/hl/qgbwny5j0fd895c2c41bk3tw0000gp/T//ccOi8z5J.s 			page 66

