ARM GAS  /var/folders/hl/qgbwny5j0fd895c2c41bk3tw0000gp/T//cc4ErH94.s 			page 1


   1              		.cpu cortex-m7
   2              		.eabi_attribute 28, 1
   3              		.eabi_attribute 20, 1
   4              		.eabi_attribute 21, 1
   5              		.eabi_attribute 23, 3
   6              		.eabi_attribute 24, 1
   7              		.eabi_attribute 25, 1
   8              		.eabi_attribute 26, 1
   9              		.eabi_attribute 30, 2
  10              		.eabi_attribute 34, 1
  11              		.eabi_attribute 18, 4
  12              		.file	"Plinks.cpp"
  13              		.text
  14              	.Ltext0:
  15              		.cfi_sections	.debug_frame
  16              		.section	.text._ZN5daisy6SwitchD2Ev,"axG",%progbits,_ZN5daisy6SwitchD5Ev,comdat
  17              		.align	1
  18              		.p2align 2,,3
  19              		.weak	_ZN5daisy6SwitchD2Ev
  20              		.arch armv7e-m
  21              		.syntax unified
  22              		.thumb
  23              		.thumb_func
  24              		.fpu fpv5-d16
  26              	_ZN5daisy6SwitchD2Ev:
  27              	.LVL0:
  28              	.LFB1606:
  29              		.file 1 "../../libDaisy//src/hid/switch.h"
   1:../../libDaisy//src/hid/switch.h **** #pragma once
   2:../../libDaisy//src/hid/switch.h **** #ifndef DSY_SWITCH_H
   3:../../libDaisy//src/hid/switch.h **** #define DSY_SWITCH_H
   4:../../libDaisy//src/hid/switch.h **** #include "daisy_core.h"
   5:../../libDaisy//src/hid/switch.h **** #include "per/gpio.h"
   6:../../libDaisy//src/hid/switch.h **** #include "sys/system.h"
   7:../../libDaisy//src/hid/switch.h **** 
   8:../../libDaisy//src/hid/switch.h **** namespace daisy
   9:../../libDaisy//src/hid/switch.h **** {
  10:../../libDaisy//src/hid/switch.h **** /** 
  11:../../libDaisy//src/hid/switch.h ****     Generic Class for handling momentary/latching switches \n 
  12:../../libDaisy//src/hid/switch.h ****     Inspired/influenced by Mutable Instruments (pichenettes) Switch classes
  13:../../libDaisy//src/hid/switch.h ****     @author Stephen Hensley
  14:../../libDaisy//src/hid/switch.h ****     @date December 2019
  15:../../libDaisy//src/hid/switch.h ****     @ingroup controls
  16:../../libDaisy//src/hid/switch.h **** */
  17:../../libDaisy//src/hid/switch.h **** class Switch
  18:../../libDaisy//src/hid/switch.h **** {
  19:../../libDaisy//src/hid/switch.h ****   public:
  20:../../libDaisy//src/hid/switch.h ****     /** Specifies the expected behavior of the switch */
  21:../../libDaisy//src/hid/switch.h ****     enum Type
  22:../../libDaisy//src/hid/switch.h ****     {
  23:../../libDaisy//src/hid/switch.h ****         TYPE_TOGGLE,    /**< & */
  24:../../libDaisy//src/hid/switch.h ****         TYPE_MOMENTARY, /**< & */
  25:../../libDaisy//src/hid/switch.h ****     };
  26:../../libDaisy//src/hid/switch.h ****     /** Specifies whether the pressed is HIGH or LOW. */
  27:../../libDaisy//src/hid/switch.h ****     enum Polarity
  28:../../libDaisy//src/hid/switch.h ****     {
  29:../../libDaisy//src/hid/switch.h ****         POLARITY_NORMAL,   /**< & */
ARM GAS  /var/folders/hl/qgbwny5j0fd895c2c41bk3tw0000gp/T//cc4ErH94.s 			page 2


  30:../../libDaisy//src/hid/switch.h ****         POLARITY_INVERTED, /**< & */
  31:../../libDaisy//src/hid/switch.h ****     };
  32:../../libDaisy//src/hid/switch.h **** 
  33:../../libDaisy//src/hid/switch.h ****     /** Specifies whether to use built-in Pull Up/Down resistors to hold button at a given state wh
  34:../../libDaisy//src/hid/switch.h ****     enum Pull
  35:../../libDaisy//src/hid/switch.h ****     {
  36:../../libDaisy//src/hid/switch.h ****         PULL_UP,   /**< & */
  37:../../libDaisy//src/hid/switch.h ****         PULL_DOWN, /**< & */
  38:../../libDaisy//src/hid/switch.h ****         PULL_NONE, /**< & */
  39:../../libDaisy//src/hid/switch.h ****     };
  40:../../libDaisy//src/hid/switch.h **** 
  41:../../libDaisy//src/hid/switch.h ****     Switch() {}
  42:../../libDaisy//src/hid/switch.h ****     ~Switch() {}
  30              		.loc 1 42 5 view -0
  31              		.cfi_startproc
  32              		@ args = 0, pretend = 0, frame = 0
  33              		@ frame_needed = 0, uses_anonymous_args = 0
  34              		@ link register save eliminated.
  35              		.loc 1 42 16 is_stmt 0 view .LVU1
  36 0000 7047     		bx	lr
  37              		.cfi_endproc
  38              	.LFE1606:
  40              		.weak	_ZN5daisy6SwitchD1Ev
  41              		.thumb_set _ZN5daisy6SwitchD1Ev,_ZN5daisy6SwitchD2Ev
  42 0002 00BF     		.section	.text._ZN7daisysp5AdEnvD2Ev,"axG",%progbits,_ZN7daisysp5AdEnvD5Ev,comdat
  43              		.align	1
  44              		.p2align 2,,3
  45              		.weak	_ZN7daisysp5AdEnvD2Ev
  46              		.syntax unified
  47              		.thumb
  48              		.thumb_func
  49              		.fpu fpv5-d16
  51              	_ZN7daisysp5AdEnvD2Ev:
  52              	.LVL1:
  53              	.LFB2529:
  54              		.file 2 "../../DaisySP//Source/Control/adenv.h"
   1:../../DaisySP//Source/Control/adenv.h **** #pragma once
   2:../../DaisySP//Source/Control/adenv.h **** #ifndef ADENV_H
   3:../../DaisySP//Source/Control/adenv.h **** #define ADENV_H
   4:../../DaisySP//Source/Control/adenv.h **** #include <stdint.h>
   5:../../DaisySP//Source/Control/adenv.h **** #ifdef __cplusplus
   6:../../DaisySP//Source/Control/adenv.h **** 
   7:../../DaisySP//Source/Control/adenv.h **** namespace daisysp
   8:../../DaisySP//Source/Control/adenv.h **** {
   9:../../DaisySP//Source/Control/adenv.h **** /** Distinct stages that the phase of the envelope can be located in.
  10:../../DaisySP//Source/Control/adenv.h ****     @see AdEnv
  11:../../DaisySP//Source/Control/adenv.h **** */
  12:../../DaisySP//Source/Control/adenv.h **** enum AdEnvSegment
  13:../../DaisySP//Source/Control/adenv.h **** {
  14:../../DaisySP//Source/Control/adenv.h ****     /** located at phase location 0, and not currently running */
  15:../../DaisySP//Source/Control/adenv.h ****     ADENV_SEG_IDLE,
  16:../../DaisySP//Source/Control/adenv.h ****     /** First segment of envelope where phase moves from MIN value to MAX value */
  17:../../DaisySP//Source/Control/adenv.h ****     ADENV_SEG_ATTACK,
  18:../../DaisySP//Source/Control/adenv.h ****     /** Second segment of envelope where phase moves from MAX to MIN value */
  19:../../DaisySP//Source/Control/adenv.h ****     ADENV_SEG_DECAY,
  20:../../DaisySP//Source/Control/adenv.h ****     /** The final segment of the envelope (currently decay) */
  21:../../DaisySP//Source/Control/adenv.h ****     ADENV_SEG_LAST,
ARM GAS  /var/folders/hl/qgbwny5j0fd895c2c41bk3tw0000gp/T//cc4ErH94.s 			page 3


  22:../../DaisySP//Source/Control/adenv.h **** };
  23:../../DaisySP//Source/Control/adenv.h **** 
  24:../../DaisySP//Source/Control/adenv.h **** /** Trigger-able envelope with adjustable min/max, and independent per-segment time control.
  25:../../DaisySP//Source/Control/adenv.h **** 
  26:../../DaisySP//Source/Control/adenv.h ****     \author shensley
  27:../../DaisySP//Source/Control/adenv.h ****     \todo - Add Cycling
  28:../../DaisySP//Source/Control/adenv.h ****     \todo - Implement Curve (its only linear for now).
  29:../../DaisySP//Source/Control/adenv.h ****     \todo - Maybe make this an ADsr_ that has AD/AR/Asr_ modes.
  30:../../DaisySP//Source/Control/adenv.h ****  */
  31:../../DaisySP//Source/Control/adenv.h **** class AdEnv
  32:../../DaisySP//Source/Control/adenv.h **** {
  33:../../DaisySP//Source/Control/adenv.h ****   public:
  34:../../DaisySP//Source/Control/adenv.h ****     AdEnv() {}
  35:../../DaisySP//Source/Control/adenv.h ****     ~AdEnv() {}
  55              		.loc 2 35 5 is_stmt 1 view -0
  56              		.cfi_startproc
  57              		@ args = 0, pretend = 0, frame = 0
  58              		@ frame_needed = 0, uses_anonymous_args = 0
  59              		@ link register save eliminated.
  60              		.loc 2 35 15 is_stmt 0 view .LVU3
  61 0000 7047     		bx	lr
  62              		.cfi_endproc
  63              	.LFE2529:
  65              		.weak	_ZN7daisysp5AdEnvD1Ev
  66              		.thumb_set _ZN7daisysp5AdEnvD1Ev,_ZN7daisysp5AdEnvD2Ev
  67 0002 00BF     		.section	.text._ZN7daisysp8ReverbScD2Ev,"axG",%progbits,_ZN7daisysp8ReverbScD5Ev,comdat
  68              		.align	1
  69              		.p2align 2,,3
  70              		.weak	_ZN7daisysp8ReverbScD2Ev
  71              		.syntax unified
  72              		.thumb
  73              		.thumb_func
  74              		.fpu fpv5-d16
  76              	_ZN7daisysp8ReverbScD2Ev:
  77              	.LVL2:
  78              	.LFB4414:
  79              		.file 3 "../../DaisySP//Source/Effects/reverbsc.h"
   1:../../DaisySP//Source/Effects/reverbsc.h **** #pragma once
   2:../../DaisySP//Source/Effects/reverbsc.h **** #ifndef DSYSP_REVERBSC_H
   3:../../DaisySP//Source/Effects/reverbsc.h **** #define DSYSP_REVERBSC_H
   4:../../DaisySP//Source/Effects/reverbsc.h **** 
   5:../../DaisySP//Source/Effects/reverbsc.h **** #define DSY_REVERBSC_MAX_SIZE 98936
   6:../../DaisySP//Source/Effects/reverbsc.h **** 
   7:../../DaisySP//Source/Effects/reverbsc.h **** namespace daisysp
   8:../../DaisySP//Source/Effects/reverbsc.h **** {
   9:../../DaisySP//Source/Effects/reverbsc.h **** /**Delay line for internal reverb use
  10:../../DaisySP//Source/Effects/reverbsc.h **** */
  11:../../DaisySP//Source/Effects/reverbsc.h **** typedef struct
  12:../../DaisySP//Source/Effects/reverbsc.h **** {
  13:../../DaisySP//Source/Effects/reverbsc.h ****     int    write_pos;         /**< write position */
  14:../../DaisySP//Source/Effects/reverbsc.h ****     int    buffer_size;       /**< buffer size */
  15:../../DaisySP//Source/Effects/reverbsc.h ****     int    read_pos;          /**< read position */
  16:../../DaisySP//Source/Effects/reverbsc.h ****     int    read_pos_frac;     /**< fractional component of read pos */
  17:../../DaisySP//Source/Effects/reverbsc.h ****     int    read_pos_frac_inc; /**< increment for fractional */
  18:../../DaisySP//Source/Effects/reverbsc.h ****     int    dummy;             /**<  dummy var */
  19:../../DaisySP//Source/Effects/reverbsc.h ****     int    seed_val;          /**< randseed */
  20:../../DaisySP//Source/Effects/reverbsc.h ****     int    rand_line_cnt;     /**< number of random lines */
ARM GAS  /var/folders/hl/qgbwny5j0fd895c2c41bk3tw0000gp/T//cc4ErH94.s 			page 4


  21:../../DaisySP//Source/Effects/reverbsc.h ****     float  filter_state;      /**< state of filter */
  22:../../DaisySP//Source/Effects/reverbsc.h ****     float *buf;               /**< buffer ptr */
  23:../../DaisySP//Source/Effects/reverbsc.h **** } ReverbScDl;
  24:../../DaisySP//Source/Effects/reverbsc.h **** 
  25:../../DaisySP//Source/Effects/reverbsc.h **** /** Stereo Reverb
  26:../../DaisySP//Source/Effects/reverbsc.h **** 
  27:../../DaisySP//Source/Effects/reverbsc.h **** Reverb SC:               Ported from csound/soundpipe
  28:../../DaisySP//Source/Effects/reverbsc.h **** 
  29:../../DaisySP//Source/Effects/reverbsc.h **** Original author(s):        Sean Costello, Istvan Varga
  30:../../DaisySP//Source/Effects/reverbsc.h **** 
  31:../../DaisySP//Source/Effects/reverbsc.h **** Year:                    1999, 2005
  32:../../DaisySP//Source/Effects/reverbsc.h **** 
  33:../../DaisySP//Source/Effects/reverbsc.h **** Ported to soundpipe by:  Paul Batchelor
  34:../../DaisySP//Source/Effects/reverbsc.h **** 
  35:../../DaisySP//Source/Effects/reverbsc.h **** Ported by:                Stephen Hensley
  36:../../DaisySP//Source/Effects/reverbsc.h **** */
  37:../../DaisySP//Source/Effects/reverbsc.h **** class ReverbSc
  38:../../DaisySP//Source/Effects/reverbsc.h **** {
  39:../../DaisySP//Source/Effects/reverbsc.h ****   public:
  40:../../DaisySP//Source/Effects/reverbsc.h ****     ReverbSc() {}
  41:../../DaisySP//Source/Effects/reverbsc.h ****     ~ReverbSc() {}
  80              		.loc 3 41 5 is_stmt 1 view -0
  81              		.cfi_startproc
  82              		@ args = 0, pretend = 0, frame = 0
  83              		@ frame_needed = 0, uses_anonymous_args = 0
  84              		@ link register save eliminated.
  85              		.loc 3 41 18 is_stmt 0 view .LVU5
  86 0000 7047     		bx	lr
  87              		.cfi_endproc
  88              	.LFE4414:
  90              		.weak	_ZN7daisysp8ReverbScD1Ev
  91              		.thumb_set _ZN7daisysp8ReverbScD1Ev,_ZN7daisysp8ReverbScD2Ev
  92 0002 00BF     		.section	.text._ZN7daisysp10MoogLadderD2Ev,"axG",%progbits,_ZN7daisysp10MoogLadderD5Ev,comdat
  93              		.align	1
  94              		.p2align 2,,3
  95              		.weak	_ZN7daisysp10MoogLadderD2Ev
  96              		.syntax unified
  97              		.thumb
  98              		.thumb_func
  99              		.fpu fpv5-d16
 101              	_ZN7daisysp10MoogLadderD2Ev:
 102              	.LVL3:
 103              	.LFB4513:
 104              		.file 4 "../../DaisySP//Source/Filters/moogladder.h"
   1:../../DaisySP//Source/Filters/moogladder.h **** #pragma once
   2:../../DaisySP//Source/Filters/moogladder.h **** #ifndef DSY_MOOGLADDER_H
   3:../../DaisySP//Source/Filters/moogladder.h **** #define DSY_MOOGLADDER_H
   4:../../DaisySP//Source/Filters/moogladder.h **** 
   5:../../DaisySP//Source/Filters/moogladder.h **** #include <stdint.h>
   6:../../DaisySP//Source/Filters/moogladder.h **** #ifdef __cplusplus
   7:../../DaisySP//Source/Filters/moogladder.h **** 
   8:../../DaisySP//Source/Filters/moogladder.h **** namespace daisysp
   9:../../DaisySP//Source/Filters/moogladder.h **** {
  10:../../DaisySP//Source/Filters/moogladder.h **** /** Moog ladder filter module
  11:../../DaisySP//Source/Filters/moogladder.h **** 
  12:../../DaisySP//Source/Filters/moogladder.h **** Ported from soundpipe
  13:../../DaisySP//Source/Filters/moogladder.h **** 
ARM GAS  /var/folders/hl/qgbwny5j0fd895c2c41bk3tw0000gp/T//cc4ErH94.s 			page 5


  14:../../DaisySP//Source/Filters/moogladder.h **** Original author(s) : Victor Lazzarini, John ffitch (fast tanh), Bob Moog
  15:../../DaisySP//Source/Filters/moogladder.h **** 
  16:../../DaisySP//Source/Filters/moogladder.h **** */
  17:../../DaisySP//Source/Filters/moogladder.h **** class MoogLadder
  18:../../DaisySP//Source/Filters/moogladder.h **** {
  19:../../DaisySP//Source/Filters/moogladder.h ****   public:
  20:../../DaisySP//Source/Filters/moogladder.h ****     MoogLadder() {}
  21:../../DaisySP//Source/Filters/moogladder.h ****     ~MoogLadder() {}
 105              		.loc 4 21 5 is_stmt 1 view -0
 106              		.cfi_startproc
 107              		@ args = 0, pretend = 0, frame = 0
 108              		@ frame_needed = 0, uses_anonymous_args = 0
 109              		@ link register save eliminated.
 110              		.loc 4 21 20 is_stmt 0 view .LVU7
 111 0000 7047     		bx	lr
 112              		.cfi_endproc
 113              	.LFE4513:
 115              		.weak	_ZN7daisysp10MoogLadderD1Ev
 116              		.thumb_set _ZN7daisysp10MoogLadderD1Ev,_ZN7daisysp10MoogLadderD2Ev
 117 0002 00BF     		.section	.text._ZN5daisy8patch_sm12DaisyPatchSMD2Ev,"axG",%progbits,_ZN5daisy8patch_sm12DaisyPatch
 118              		.align	1
 119              		.p2align 2,,3
 120              		.weak	_ZN5daisy8patch_sm12DaisyPatchSMD2Ev
 121              		.syntax unified
 122              		.thumb
 123              		.thumb_func
 124              		.fpu fpv5-d16
 126              	_ZN5daisy8patch_sm12DaisyPatchSMD2Ev:
 127              	.LVL4:
 128              	.LFB4784:
 129              		.file 5 "../../libDaisy//src/daisy_patch_sm.h"
   1:../../libDaisy//src/daisy_patch_sm.h **** #pragma once
   2:../../libDaisy//src/daisy_patch_sm.h **** 
   3:../../libDaisy//src/daisy_patch_sm.h **** #include "daisy.h"
   4:../../libDaisy//src/daisy_patch_sm.h **** 
   5:../../libDaisy//src/daisy_patch_sm.h **** namespace daisy
   6:../../libDaisy//src/daisy_patch_sm.h **** {
   7:../../libDaisy//src/daisy_patch_sm.h **** namespace patch_sm
   8:../../libDaisy//src/daisy_patch_sm.h **** {
   9:../../libDaisy//src/daisy_patch_sm.h ****     /** Accessors for the Analog Controls. 
  10:../../libDaisy//src/daisy_patch_sm.h ****      *  These cover the 8x Bipolar CV inputs
  11:../../libDaisy//src/daisy_patch_sm.h ****      *  as well as the 4x 0-3V3 ADC inputs on
  12:../../libDaisy//src/daisy_patch_sm.h ****      *  the hardware 
  13:../../libDaisy//src/daisy_patch_sm.h ****      * 
  14:../../libDaisy//src/daisy_patch_sm.h ****      *  When reading a value with DaisyPatchSM::GetAdcValue()
  15:../../libDaisy//src/daisy_patch_sm.h ****      * 
  16:../../libDaisy//src/daisy_patch_sm.h ****      *  patch.GetAdcValue(patch_sm::CV_1);
  17:../../libDaisy//src/daisy_patch_sm.h ****      */
  18:../../libDaisy//src/daisy_patch_sm.h ****     enum
  19:../../libDaisy//src/daisy_patch_sm.h ****     {
  20:../../libDaisy//src/daisy_patch_sm.h ****         CV_1 = 0,
  21:../../libDaisy//src/daisy_patch_sm.h ****         CV_2,
  22:../../libDaisy//src/daisy_patch_sm.h ****         CV_3,
  23:../../libDaisy//src/daisy_patch_sm.h ****         CV_4,
  24:../../libDaisy//src/daisy_patch_sm.h ****         CV_5,
  25:../../libDaisy//src/daisy_patch_sm.h ****         CV_6,
  26:../../libDaisy//src/daisy_patch_sm.h ****         CV_7,
ARM GAS  /var/folders/hl/qgbwny5j0fd895c2c41bk3tw0000gp/T//cc4ErH94.s 			page 6


  27:../../libDaisy//src/daisy_patch_sm.h ****         CV_8,
  28:../../libDaisy//src/daisy_patch_sm.h ****         ADC_9,
  29:../../libDaisy//src/daisy_patch_sm.h ****         ADC_10,
  30:../../libDaisy//src/daisy_patch_sm.h ****         ADC_11,
  31:../../libDaisy//src/daisy_patch_sm.h ****         ADC_12,
  32:../../libDaisy//src/daisy_patch_sm.h ****         ADC_LAST,
  33:../../libDaisy//src/daisy_patch_sm.h ****     };
  34:../../libDaisy//src/daisy_patch_sm.h **** 
  35:../../libDaisy//src/daisy_patch_sm.h ****     /** Enum for addressing the CV Outputs via the WriteCvOut function. */
  36:../../libDaisy//src/daisy_patch_sm.h ****     enum
  37:../../libDaisy//src/daisy_patch_sm.h ****     {
  38:../../libDaisy//src/daisy_patch_sm.h ****         CV_OUT_BOTH = 0,
  39:../../libDaisy//src/daisy_patch_sm.h ****         CV_OUT_1,
  40:../../libDaisy//src/daisy_patch_sm.h ****         CV_OUT_2,
  41:../../libDaisy//src/daisy_patch_sm.h ****     };
  42:../../libDaisy//src/daisy_patch_sm.h **** 
  43:../../libDaisy//src/daisy_patch_sm.h **** 
  44:../../libDaisy//src/daisy_patch_sm.h ****     /** @brief Board support file for DaisyPatchSM hardware
  45:../../libDaisy//src/daisy_patch_sm.h ****      *  @author shensley
  46:../../libDaisy//src/daisy_patch_sm.h ****      *  @ingroup boards
  47:../../libDaisy//src/daisy_patch_sm.h ****      * 
  48:../../libDaisy//src/daisy_patch_sm.h ****      *  Daisy Patch SM is a complete Eurorack module DSP engine.
  49:../../libDaisy//src/daisy_patch_sm.h ****      *  Based on the Daisy Seed, with circuits added for 
  50:../../libDaisy//src/daisy_patch_sm.h ****      *  interfacing directly with eurorack modular synthesizers.
  51:../../libDaisy//src/daisy_patch_sm.h ****      */
  52:../../libDaisy//src/daisy_patch_sm.h ****     class DaisyPatchSM
  53:../../libDaisy//src/daisy_patch_sm.h ****     {
  54:../../libDaisy//src/daisy_patch_sm.h ****       public:
  55:../../libDaisy//src/daisy_patch_sm.h ****         /** Helper for mapping pins, and accessing them using the `GetPin` function */
  56:../../libDaisy//src/daisy_patch_sm.h ****         enum class PinBank
  57:../../libDaisy//src/daisy_patch_sm.h ****         {
  58:../../libDaisy//src/daisy_patch_sm.h ****             A,
  59:../../libDaisy//src/daisy_patch_sm.h ****             B,
  60:../../libDaisy//src/daisy_patch_sm.h ****             C,
  61:../../libDaisy//src/daisy_patch_sm.h ****             D
  62:../../libDaisy//src/daisy_patch_sm.h ****         };
  63:../../libDaisy//src/daisy_patch_sm.h **** 
  64:../../libDaisy//src/daisy_patch_sm.h ****         DaisyPatchSM() {}
  65:../../libDaisy//src/daisy_patch_sm.h ****         ~DaisyPatchSM() {}
 130              		.loc 5 65 9 is_stmt 1 view -0
 131              		.cfi_startproc
 132              		@ args = 0, pretend = 0, frame = 0
 133              		@ frame_needed = 0, uses_anonymous_args = 0
 134              		@ link register save eliminated.
 135              	.LBB485:
 136              	.LBI485:
 137              		.file 6 "../../libDaisy//src/hid/gatein.h"
   1:../../libDaisy//src/hid/gatein.h **** #pragma once
   2:../../libDaisy//src/hid/gatein.h **** #ifndef DSY_GATEIN_H
   3:../../libDaisy//src/hid/gatein.h **** #define DSY_GATEIN_H
   4:../../libDaisy//src/hid/gatein.h **** #include "per/gpio.h"
   5:../../libDaisy//src/hid/gatein.h **** 
   6:../../libDaisy//src/hid/gatein.h **** namespace daisy
   7:../../libDaisy//src/hid/gatein.h **** {
   8:../../libDaisy//src/hid/gatein.h **** /**
   9:../../libDaisy//src/hid/gatein.h ****    @brief Generic Class for handling gate inputs through GPIO.
  10:../../libDaisy//src/hid/gatein.h ****    @author Stephen Hensley
ARM GAS  /var/folders/hl/qgbwny5j0fd895c2c41bk3tw0000gp/T//cc4ErH94.s 			page 7


  11:../../libDaisy//src/hid/gatein.h ****    @date    March 2020
  12:../../libDaisy//src/hid/gatein.h ****    @ingroup controls
  13:../../libDaisy//src/hid/gatein.h **** */
  14:../../libDaisy//src/hid/gatein.h **** class GateIn
  15:../../libDaisy//src/hid/gatein.h **** {
  16:../../libDaisy//src/hid/gatein.h ****   public:
  17:../../libDaisy//src/hid/gatein.h ****     /** GateIn 
  18:../../libDaisy//src/hid/gatein.h ****     Constructor 
  19:../../libDaisy//src/hid/gatein.h ****     */
  20:../../libDaisy//src/hid/gatein.h ****     GateIn() {}
  21:../../libDaisy//src/hid/gatein.h ****     /** GateIn~
  22:../../libDaisy//src/hid/gatein.h ****     Destructor 
  23:../../libDaisy//src/hid/gatein.h ****     */
  24:../../libDaisy//src/hid/gatein.h ****     ~GateIn() {}
 138              		.loc 6 24 5 view .LVU9
 139              		.loc 6 24 5 is_stmt 0 view .LVU10
 140              	.LBE485:
 141              	.LBB486:
 142              	.LBI486:
 143              		.loc 6 24 5 is_stmt 1 view .LVU11
 144              		.loc 6 24 5 is_stmt 0 view .LVU12
 145              	.LBE486:
 146              	.LBB487:
 147              	.LBI487:
 148              		.file 7 "../../libDaisy//src/dev/codec_pcm3060.h"
   1:../../libDaisy//src/dev/codec_pcm3060.h **** #pragma once
   2:../../libDaisy//src/dev/codec_pcm3060.h **** #ifndef DSY_CODEC_PCM3060_H
   3:../../libDaisy//src/dev/codec_pcm3060.h **** #define DSY_CODEC_PCM3060_H
   4:../../libDaisy//src/dev/codec_pcm3060.h **** #include "per/i2c.h"
   5:../../libDaisy//src/dev/codec_pcm3060.h **** namespace daisy
   6:../../libDaisy//src/dev/codec_pcm3060.h **** {
   7:../../libDaisy//src/dev/codec_pcm3060.h **** /**
   8:../../libDaisy//src/dev/codec_pcm3060.h ****  * @brief Driver for the TI PCM3060 Audio Codec.
   9:../../libDaisy//src/dev/codec_pcm3060.h ****  * @addtogroup codec
  10:../../libDaisy//src/dev/codec_pcm3060.h ****  * 
  11:../../libDaisy//src/dev/codec_pcm3060.h ****  * For now this is a limited interface that uses I2C to communicate with the PCM3060
  12:../../libDaisy//src/dev/codec_pcm3060.h ****  * The device can also be accessed with SPI, which is not yet supported.
  13:../../libDaisy//src/dev/codec_pcm3060.h ****  * 
  14:../../libDaisy//src/dev/codec_pcm3060.h ****  * For now all registers are set to their defaults, and the Init function will 
  15:../../libDaisy//src/dev/codec_pcm3060.h ****  * perform a MRST and SRST before setting the format to 24bit LJ, and disabling 
  16:../../libDaisy//src/dev/codec_pcm3060.h ****  * power save for both the ADC and DAC.
  17:../../libDaisy//src/dev/codec_pcm3060.h ****  *
  18:../../libDaisy//src/dev/codec_pcm3060.h ****  */
  19:../../libDaisy//src/dev/codec_pcm3060.h **** class Pcm3060
  20:../../libDaisy//src/dev/codec_pcm3060.h **** {
  21:../../libDaisy//src/dev/codec_pcm3060.h ****   public:
  22:../../libDaisy//src/dev/codec_pcm3060.h ****     enum class Result
  23:../../libDaisy//src/dev/codec_pcm3060.h ****     {
  24:../../libDaisy//src/dev/codec_pcm3060.h ****         OK,
  25:../../libDaisy//src/dev/codec_pcm3060.h ****         ERR,
  26:../../libDaisy//src/dev/codec_pcm3060.h ****     };
  27:../../libDaisy//src/dev/codec_pcm3060.h **** 
  28:../../libDaisy//src/dev/codec_pcm3060.h ****     Pcm3060() {}
  29:../../libDaisy//src/dev/codec_pcm3060.h ****     ~Pcm3060() {}
 149              		.loc 7 29 5 is_stmt 1 view .LVU13
 150              		.loc 7 29 5 is_stmt 0 view .LVU14
 151              	.LBE487:
ARM GAS  /var/folders/hl/qgbwny5j0fd895c2c41bk3tw0000gp/T//cc4ErH94.s 			page 8


 152              	.LBB488:
 153              	.LBI488:
 154              		.file 8 "../../libDaisy//src/hid/usb.h"
   1:../../libDaisy//src/hid/usb.h **** #pragma once
   2:../../libDaisy//src/hid/usb.h **** #ifndef DSY_HID_USB_H
   3:../../libDaisy//src/hid/usb.h **** #define DSY_HID_USB_H
   4:../../libDaisy//src/hid/usb.h **** #include <stdint.h>
   5:../../libDaisy//src/hid/usb.h **** #include <stdlib.h>
   6:../../libDaisy//src/hid/usb.h **** 
   7:../../libDaisy//src/hid/usb.h **** namespace daisy
   8:../../libDaisy//src/hid/usb.h **** /** @addtogroup human_interface
   9:../../libDaisy//src/hid/usb.h ****     @{
  10:../../libDaisy//src/hid/usb.h **** */
  11:../../libDaisy//src/hid/usb.h **** 
  12:../../libDaisy//src/hid/usb.h **** {
  13:../../libDaisy//src/hid/usb.h **** /** 
  14:../../libDaisy//src/hid/usb.h ****     @brief Interface for initializing and using the USB Peripherals on the daisy
  15:../../libDaisy//src/hid/usb.h ****     @author Stephen Hensley
  16:../../libDaisy//src/hid/usb.h ****     @date December 2019
  17:../../libDaisy//src/hid/usb.h **** */
  18:../../libDaisy//src/hid/usb.h **** class UsbHandle
  19:../../libDaisy//src/hid/usb.h **** {
  20:../../libDaisy//src/hid/usb.h ****   public:
  21:../../libDaisy//src/hid/usb.h ****     /** Return values for USBHandle Functions */
  22:../../libDaisy//src/hid/usb.h ****     enum class Result
  23:../../libDaisy//src/hid/usb.h ****     {
  24:../../libDaisy//src/hid/usb.h ****         OK,
  25:../../libDaisy//src/hid/usb.h ****         ERR,
  26:../../libDaisy//src/hid/usb.h ****     };
  27:../../libDaisy//src/hid/usb.h **** 
  28:../../libDaisy//src/hid/usb.h ****     /** Specified which of the two USB Peripherals to initialize. */
  29:../../libDaisy//src/hid/usb.h ****     enum UsbPeriph
  30:../../libDaisy//src/hid/usb.h ****     {
  31:../../libDaisy//src/hid/usb.h ****         FS_INTERNAL, /**< Internal pin */
  32:../../libDaisy//src/hid/usb.h ****         FS_EXTERNAL, /**< FS External D+ pin is Pin 38 (GPIO32). FS External D- pin is Pin 37 (GPIO
  33:../../libDaisy//src/hid/usb.h ****         FS_BOTH,     /**< Both */
  34:../../libDaisy//src/hid/usb.h ****     };
  35:../../libDaisy//src/hid/usb.h **** 
  36:../../libDaisy//src/hid/usb.h **** 
  37:../../libDaisy//src/hid/usb.h ****     /** Function called upon reception of a buffer */
  38:../../libDaisy//src/hid/usb.h ****     typedef void (*ReceiveCallback)(uint8_t* buff, uint32_t* len);
  39:../../libDaisy//src/hid/usb.h **** 
  40:../../libDaisy//src/hid/usb.h ****     UsbHandle() {}
  41:../../libDaisy//src/hid/usb.h **** 
  42:../../libDaisy//src/hid/usb.h ****     ~UsbHandle() {}
 155              		.loc 8 42 5 is_stmt 1 view .LVU15
 156              		.loc 8 42 5 is_stmt 0 view .LVU16
 157              	.LBE488:
 158              	.LBB489:
 159              	.LBI489:
 160              		.file 9 "../../libDaisy//src/per/adc.h"
   1:../../libDaisy//src/per/adc.h **** #pragma once
   2:../../libDaisy//src/per/adc.h **** #ifndef DSY_ADC_H
   3:../../libDaisy//src/per/adc.h **** #define DSY_ADC_H /**< Macro */
   4:../../libDaisy//src/per/adc.h **** #include <stdint.h>
   5:../../libDaisy//src/per/adc.h **** #include <stdlib.h>
   6:../../libDaisy//src/per/adc.h **** #include "daisy_core.h"
ARM GAS  /var/folders/hl/qgbwny5j0fd895c2c41bk3tw0000gp/T//cc4ErH94.s 			page 9


   7:../../libDaisy//src/per/adc.h **** #include "per/gpio.h"
   8:../../libDaisy//src/per/adc.h **** 
   9:../../libDaisy//src/per/adc.h **** #define DSY_ADC_MAX_CHANNELS 16 /**< Maximum number of ADC channels */
  10:../../libDaisy//src/per/adc.h **** 
  11:../../libDaisy//src/per/adc.h **** namespace daisy
  12:../../libDaisy//src/per/adc.h **** {
  13:../../libDaisy//src/per/adc.h **** /** @addtogroup per_analog
  14:../../libDaisy//src/per/adc.h ****     @{
  15:../../libDaisy//src/per/adc.h **** */
  16:../../libDaisy//src/per/adc.h **** 
  17:../../libDaisy//src/per/adc.h **** /* While there may not be many configuration options here,
  18:../../libDaisy//src/per/adc.h **** using a struct like this allows us to add more configuration
  19:../../libDaisy//src/per/adc.h **** later without breaking existing functionality.
  20:../../libDaisy//src/per/adc.h **** */
  21:../../libDaisy//src/per/adc.h **** 
  22:../../libDaisy//src/per/adc.h **** /** @brief   Configuration Structure for an ADC Channel 
  23:../../libDaisy//src/per/adc.h ****  *  @details This can be used to configure a a single input, 
  24:../../libDaisy//src/per/adc.h ****  *           or a multiplexed input, allowing up to 8 inputs on 
  25:../../libDaisy//src/per/adc.h ****  *           one channel.
  26:../../libDaisy//src/per/adc.h ****  *  @note    Sharing data lines to multiple muxes _is_ possible, but
  27:../../libDaisy//src/per/adc.h ****  *           each channel sharing data lines must be set to the maximum
  28:../../libDaisy//src/per/adc.h ****  *           number of channels, even if some multiplexers have fewer
  29:../../libDaisy//src/per/adc.h ****  *           inputs connected.
  30:../../libDaisy//src/per/adc.h **** */
  31:../../libDaisy//src/per/adc.h **** struct AdcChannelConfig
  32:../../libDaisy//src/per/adc.h **** {
  33:../../libDaisy//src/per/adc.h ****     /** Which pin to use for multiplexing */
  34:../../libDaisy//src/per/adc.h ****     enum MuxPin
  35:../../libDaisy//src/per/adc.h ****     {
  36:../../libDaisy//src/per/adc.h ****         MUX_SEL_0,    /**< & */
  37:../../libDaisy//src/per/adc.h ****         MUX_SEL_1,    /**< & */
  38:../../libDaisy//src/per/adc.h ****         MUX_SEL_2,    /**< & */
  39:../../libDaisy//src/per/adc.h ****         MUX_SEL_LAST, /**< & */
  40:../../libDaisy//src/per/adc.h ****     };
  41:../../libDaisy//src/per/adc.h **** 
  42:../../libDaisy//src/per/adc.h ****     /** Initializes a single ADC pin as an ADC. 
  43:../../libDaisy//src/per/adc.h ****     \param pin Pin to init.
  44:../../libDaisy//src/per/adc.h ****      */
  45:../../libDaisy//src/per/adc.h ****     void InitSingle(dsy_gpio_pin pin);
  46:../../libDaisy//src/per/adc.h **** 
  47:../../libDaisy//src/per/adc.h ****     /** 
  48:../../libDaisy//src/per/adc.h ****     Initializes a single ADC pin as a Multiplexed ADC.
  49:../../libDaisy//src/per/adc.h ****     Requires a CD405X Multiplexer connected to the pin.
  50:../../libDaisy//src/per/adc.h ****     You only need to supply the mux pins that are required,
  51:../../libDaisy//src/per/adc.h ****     e.g. a 4052 mux would only require mux_0 and mux_1.
  52:../../libDaisy//src/per/adc.h ****     Internal Callbacks handle the pin addressing.
  53:../../libDaisy//src/per/adc.h ****     \param mux_channels must be 1-8
  54:../../libDaisy//src/per/adc.h ****     \param mux_0 First mux pin
  55:../../libDaisy//src/per/adc.h ****     \param mux_1 Second mux pin
  56:../../libDaisy//src/per/adc.h ****     \param mux_2 Third mux pin
  57:../../libDaisy//src/per/adc.h ****     \param adc_pin &
  58:../../libDaisy//src/per/adc.h ****     */
  59:../../libDaisy//src/per/adc.h ****     void InitMux(dsy_gpio_pin adc_pin,
  60:../../libDaisy//src/per/adc.h ****                  size_t       mux_channels,
  61:../../libDaisy//src/per/adc.h ****                  dsy_gpio_pin mux_0,
  62:../../libDaisy//src/per/adc.h ****                  dsy_gpio_pin mux_1 = {DSY_GPIOX, 0},
  63:../../libDaisy//src/per/adc.h ****                  dsy_gpio_pin mux_2 = {DSY_GPIOX, 0});
ARM GAS  /var/folders/hl/qgbwny5j0fd895c2c41bk3tw0000gp/T//cc4ErH94.s 			page 10


  64:../../libDaisy//src/per/adc.h **** 
  65:../../libDaisy//src/per/adc.h ****     dsy_gpio pin_;                   /**< & */
  66:../../libDaisy//src/per/adc.h ****     dsy_gpio mux_pin_[MUX_SEL_LAST]; /**< & */
  67:../../libDaisy//src/per/adc.h ****     uint8_t  mux_channels_;          /**< & */
  68:../../libDaisy//src/per/adc.h **** };
  69:../../libDaisy//src/per/adc.h **** 
  70:../../libDaisy//src/per/adc.h **** /**
  71:../../libDaisy//src/per/adc.h ****    @brief Handler for analog to digital conversion
  72:../../libDaisy//src/per/adc.h **** */
  73:../../libDaisy//src/per/adc.h **** class AdcHandle
  74:../../libDaisy//src/per/adc.h **** {
  75:../../libDaisy//src/per/adc.h ****   public:
  76:../../libDaisy//src/per/adc.h ****     /** Supported oversampling amounts */
  77:../../libDaisy//src/per/adc.h ****     enum OverSampling
  78:../../libDaisy//src/per/adc.h ****     {
  79:../../libDaisy//src/per/adc.h ****         OVS_NONE, /**< & */
  80:../../libDaisy//src/per/adc.h ****         OVS_4,    /**< & */
  81:../../libDaisy//src/per/adc.h ****         OVS_8,    /**< & */
  82:../../libDaisy//src/per/adc.h ****         OVS_16,   /**< & */
  83:../../libDaisy//src/per/adc.h ****         OVS_32,   /**< & */
  84:../../libDaisy//src/per/adc.h ****         OVS_64,   /**< & */
  85:../../libDaisy//src/per/adc.h ****         OVS_128,  /**< & */
  86:../../libDaisy//src/per/adc.h ****         OVS_256,  /**< & */
  87:../../libDaisy//src/per/adc.h ****         OVS_512,  /**< & */
  88:../../libDaisy//src/per/adc.h ****         OVS_1024, /**< & */
  89:../../libDaisy//src/per/adc.h ****         OVS_LAST, /**< & */
  90:../../libDaisy//src/per/adc.h ****     };
  91:../../libDaisy//src/per/adc.h **** 
  92:../../libDaisy//src/per/adc.h ****     AdcHandle() {}
  93:../../libDaisy//src/per/adc.h ****     ~AdcHandle() {}
 161              		.loc 9 93 5 is_stmt 1 view .LVU17
 162              		.loc 9 93 5 is_stmt 0 view .LVU18
 163              	.LBE489:
 164              	.LBB490:
 165              	.LBI490:
 166              		.file 10 "../../libDaisy//src/hid/audio.h"
   1:../../libDaisy//src/hid/audio.h **** #ifndef DSY_AUDIO_H
   2:../../libDaisy//src/hid/audio.h **** #define DSY_AUDIO_H /**< & */
   3:../../libDaisy//src/hid/audio.h **** 
   4:../../libDaisy//src/hid/audio.h **** #include "per/sai.h"
   5:../../libDaisy//src/hid/audio.h **** 
   6:../../libDaisy//src/hid/audio.h **** namespace daisy
   7:../../libDaisy//src/hid/audio.h **** {
   8:../../libDaisy//src/hid/audio.h **** /** @brief Audio Engine Handle
   9:../../libDaisy//src/hid/audio.h ****  *  @ingroup audio 
  10:../../libDaisy//src/hid/audio.h ****  *  @details This class allows for higher level access to an audio engine.
  11:../../libDaisy//src/hid/audio.h ****  *           If you're using a SOM like the DaisySeed or DaisyPatchSM (or any 
  12:../../libDaisy//src/hid/audio.h ****  *            board that includes one of those objects) then the intialization
  13:../../libDaisy//src/hid/audio.h ****  *            is already taken  care of.
  14:../../libDaisy//src/hid/audio.h ****  *           If you're setting up your own custom hardware, or need to make changes
  15:../../libDaisy//src/hid/audio.h ****  *           you will have to take the following steps:
  16:../../libDaisy//src/hid/audio.h ****  *             1. Create and Initialize an SaiHandle or two depending on your requirements
  17:../../libDaisy//src/hid/audio.h ****  *             2. Initialize the Audio Handle with the desired settings and the Initialized SaiHand
  18:../../libDaisy//src/hid/audio.h ****  *             3. If the connected codec requires special configuration or initialization, do so
  19:../../libDaisy//src/hid/audio.h ****  *             4. Write a callback method using either the AudioCallback or the InterleavingAudioCa
  20:../../libDaisy//src/hid/audio.h ****  *             5. Start the Audio using one of the StartAudio function
  21:../../libDaisy//src/hid/audio.h ****  */
ARM GAS  /var/folders/hl/qgbwny5j0fd895c2c41bk3tw0000gp/T//cc4ErH94.s 			page 11


  22:../../libDaisy//src/hid/audio.h **** class AudioHandle
  23:../../libDaisy//src/hid/audio.h **** {
  24:../../libDaisy//src/hid/audio.h ****   public:
  25:../../libDaisy//src/hid/audio.h ****     /** Manually configurable details about the Audio Engine */
  26:../../libDaisy//src/hid/audio.h ****     /** TODO: Figure out how to get samplerate in here. */
  27:../../libDaisy//src/hid/audio.h ****     struct Config
  28:../../libDaisy//src/hid/audio.h ****     {
  29:../../libDaisy//src/hid/audio.h ****         /** number of samples to process per callback */
  30:../../libDaisy//src/hid/audio.h ****         size_t blocksize;
  31:../../libDaisy//src/hid/audio.h **** 
  32:../../libDaisy//src/hid/audio.h ****         /**< Sample rate of audio */
  33:../../libDaisy//src/hid/audio.h ****         SaiHandle::Config::SampleRate samplerate;
  34:../../libDaisy//src/hid/audio.h **** 
  35:../../libDaisy//src/hid/audio.h ****         /** factor for adjustment before and after callback for hardware that may have extra headro
  36:../../libDaisy//src/hid/audio.h ****         float postgain;
  37:../../libDaisy//src/hid/audio.h **** 
  38:../../libDaisy//src/hid/audio.h ****         /** factor for additional one-sided compensation to audio path for hardware that may
  39:../../libDaisy//src/hid/audio.h ****          *  have unequal input/output ranges
  40:../../libDaisy//src/hid/audio.h ****          */
  41:../../libDaisy//src/hid/audio.h ****         float output_compensation;
  42:../../libDaisy//src/hid/audio.h **** 
  43:../../libDaisy//src/hid/audio.h ****         /** Sets default values for config struct */
  44:../../libDaisy//src/hid/audio.h ****         Config()
  45:../../libDaisy//src/hid/audio.h ****         : blocksize(48),
  46:../../libDaisy//src/hid/audio.h ****           samplerate(SaiHandle::Config::SampleRate::SAI_48KHZ),
  47:../../libDaisy//src/hid/audio.h ****           postgain(1.f),
  48:../../libDaisy//src/hid/audio.h ****           output_compensation(1.f)
  49:../../libDaisy//src/hid/audio.h ****         {
  50:../../libDaisy//src/hid/audio.h ****         }
  51:../../libDaisy//src/hid/audio.h ****     };
  52:../../libDaisy//src/hid/audio.h **** 
  53:../../libDaisy//src/hid/audio.h ****     enum class Result
  54:../../libDaisy//src/hid/audio.h ****     {
  55:../../libDaisy//src/hid/audio.h ****         OK,
  56:../../libDaisy//src/hid/audio.h ****         ERR,
  57:../../libDaisy//src/hid/audio.h ****     };
  58:../../libDaisy//src/hid/audio.h **** 
  59:../../libDaisy//src/hid/audio.h ****     /** Non-Interleaving input buffer
  60:../../libDaisy//src/hid/audio.h ****      * Buffer arranged by float[chn][sample] 
  61:../../libDaisy//src/hid/audio.h ****      * const so that the user can't modify the input
  62:../../libDaisy//src/hid/audio.h ****      */
  63:../../libDaisy//src/hid/audio.h ****     typedef const float* const* InputBuffer;
  64:../../libDaisy//src/hid/audio.h **** 
  65:../../libDaisy//src/hid/audio.h ****     /** Non-Interleaving output buffer
  66:../../libDaisy//src/hid/audio.h ****      * Arranged by float[chn][sample] 
  67:../../libDaisy//src/hid/audio.h ****      */
  68:../../libDaisy//src/hid/audio.h ****     typedef float** OutputBuffer;
  69:../../libDaisy//src/hid/audio.h **** 
  70:../../libDaisy//src/hid/audio.h ****     /** Type for a Non-Interleaving audio callback 
  71:../../libDaisy//src/hid/audio.h ****      * Non-Interleaving audio callbacks in daisy will be of this type
  72:../../libDaisy//src/hid/audio.h ****      */
  73:../../libDaisy//src/hid/audio.h ****     typedef void (*AudioCallback)(InputBuffer  in,
  74:../../libDaisy//src/hid/audio.h ****                                   OutputBuffer out,
  75:../../libDaisy//src/hid/audio.h ****                                   size_t       size);
  76:../../libDaisy//src/hid/audio.h **** 
  77:../../libDaisy//src/hid/audio.h ****     /** Interleaving Input buffer
  78:../../libDaisy//src/hid/audio.h ****      ** audio is prepared as { L0, R0, L1, R1, . . . LN, RN }]
ARM GAS  /var/folders/hl/qgbwny5j0fd895c2c41bk3tw0000gp/T//cc4ErH94.s 			page 12


  79:../../libDaisy//src/hid/audio.h ****      ** this is const, as the user shouldn't modify it
  80:../../libDaisy//src/hid/audio.h ****     */
  81:../../libDaisy//src/hid/audio.h ****     typedef const float* InterleavingInputBuffer;
  82:../../libDaisy//src/hid/audio.h **** 
  83:../../libDaisy//src/hid/audio.h ****     /** Interleaving Output buffer 
  84:../../libDaisy//src/hid/audio.h ****      ** audio is prepared as { L0, R0, L1, R1, . . . LN, RN }
  85:../../libDaisy//src/hid/audio.h ****     */
  86:../../libDaisy//src/hid/audio.h ****     typedef float* InterleavingOutputBuffer;
  87:../../libDaisy//src/hid/audio.h **** 
  88:../../libDaisy//src/hid/audio.h ****     /** Interleaving Audio Callback 
  89:../../libDaisy//src/hid/audio.h ****      * Interleaving audio callbacks in daisy must be of this type
  90:../../libDaisy//src/hid/audio.h ****      */
  91:../../libDaisy//src/hid/audio.h ****     typedef void (*InterleavingAudioCallback)(InterleavingInputBuffer  in,
  92:../../libDaisy//src/hid/audio.h ****                                               InterleavingOutputBuffer out,
  93:../../libDaisy//src/hid/audio.h ****                                               size_t                   size);
  94:../../libDaisy//src/hid/audio.h **** 
  95:../../libDaisy//src/hid/audio.h ****     AudioHandle() : pimpl_(nullptr) {}
  96:../../libDaisy//src/hid/audio.h ****     ~AudioHandle() {}
 167              		.loc 10 96 5 is_stmt 1 view .LVU19
 168              		.loc 10 96 5 is_stmt 0 view .LVU20
 169              	.LBE490:
 170              	.LBB491:
 171              	.LBI491:
 172              		.file 11 "../../libDaisy//src/sys/system.h"
   1:../../libDaisy//src/sys/system.h **** #ifndef DSY_SYSTEM_H
   2:../../libDaisy//src/sys/system.h **** #define DSY_SYSTEM_H
   3:../../libDaisy//src/sys/system.h **** 
   4:../../libDaisy//src/sys/system.h **** #ifndef UNIT_TEST // for unit tests, a dummy implementation is provided below
   5:../../libDaisy//src/sys/system.h **** 
   6:../../libDaisy//src/sys/system.h **** #include <cstdint>
   7:../../libDaisy//src/sys/system.h **** #include "per/tim.h"
   8:../../libDaisy//src/sys/system.h **** 
   9:../../libDaisy//src/sys/system.h **** namespace daisy
  10:../../libDaisy//src/sys/system.h **** {
  11:../../libDaisy//src/sys/system.h **** /** A handle for interacting with the Core System. 
  12:../../libDaisy//src/sys/system.h ****  ** This includes the Clock tree, MPU, global DMA initialization,
  13:../../libDaisy//src/sys/system.h ****  ** cache handling, and any other necessary global initiailzation
  14:../../libDaisy//src/sys/system.h ****  **
  15:../../libDaisy//src/sys/system.h ****  ** @author shensley
  16:../../libDaisy//src/sys/system.h ****  ** @ingroup system
  17:../../libDaisy//src/sys/system.h ****  */
  18:../../libDaisy//src/sys/system.h **** class System
  19:../../libDaisy//src/sys/system.h **** {
  20:../../libDaisy//src/sys/system.h ****   public:
  21:../../libDaisy//src/sys/system.h ****     /** Contains settings for initializing the System */
  22:../../libDaisy//src/sys/system.h ****     struct Config
  23:../../libDaisy//src/sys/system.h ****     {
  24:../../libDaisy//src/sys/system.h ****         /** Specifies the system clock frequency that feeds APB/AHB clocks, etc. */
  25:../../libDaisy//src/sys/system.h ****         enum class SysClkFreq
  26:../../libDaisy//src/sys/system.h ****         {
  27:../../libDaisy//src/sys/system.h ****             FREQ_400MHZ,
  28:../../libDaisy//src/sys/system.h ****             FREQ_480MHZ,
  29:../../libDaisy//src/sys/system.h ****         };
  30:../../libDaisy//src/sys/system.h **** 
  31:../../libDaisy//src/sys/system.h ****         /** Method to call on the struct to set to defaults
  32:../../libDaisy//src/sys/system.h ****          ** CPU Freq set to 400MHz
  33:../../libDaisy//src/sys/system.h ****          ** Cache Enabled 
ARM GAS  /var/folders/hl/qgbwny5j0fd895c2c41bk3tw0000gp/T//cc4ErH94.s 			page 13


  34:../../libDaisy//src/sys/system.h ****          ** */
  35:../../libDaisy//src/sys/system.h ****         void Defaults()
  36:../../libDaisy//src/sys/system.h ****         {
  37:../../libDaisy//src/sys/system.h ****             cpu_freq    = SysClkFreq::FREQ_400MHZ;
  38:../../libDaisy//src/sys/system.h ****             use_dcache  = true;
  39:../../libDaisy//src/sys/system.h ****             use_icache  = true;
  40:../../libDaisy//src/sys/system.h ****             skip_clocks = false;
  41:../../libDaisy//src/sys/system.h ****         }
  42:../../libDaisy//src/sys/system.h **** 
  43:../../libDaisy//src/sys/system.h ****         /** Method to call on the struct to set to boost mode:
  44:../../libDaisy//src/sys/system.h ****          ** CPU Freq set to 480MHz
  45:../../libDaisy//src/sys/system.h ****          ** Cache Enabled 
  46:../../libDaisy//src/sys/system.h ****          ** */
  47:../../libDaisy//src/sys/system.h ****         void Boost()
  48:../../libDaisy//src/sys/system.h ****         {
  49:../../libDaisy//src/sys/system.h ****             cpu_freq    = SysClkFreq::FREQ_480MHZ;
  50:../../libDaisy//src/sys/system.h ****             use_dcache  = true;
  51:../../libDaisy//src/sys/system.h ****             use_icache  = true;
  52:../../libDaisy//src/sys/system.h ****             skip_clocks = false;
  53:../../libDaisy//src/sys/system.h ****         }
  54:../../libDaisy//src/sys/system.h **** 
  55:../../libDaisy//src/sys/system.h ****         SysClkFreq cpu_freq;
  56:../../libDaisy//src/sys/system.h ****         bool       use_dcache;
  57:../../libDaisy//src/sys/system.h ****         bool       use_icache;
  58:../../libDaisy//src/sys/system.h ****         bool       skip_clocks;
  59:../../libDaisy//src/sys/system.h ****     };
  60:../../libDaisy//src/sys/system.h **** 
  61:../../libDaisy//src/sys/system.h ****     /** Describes the different regions of memory available to the Daisy
  62:../../libDaisy//src/sys/system.h ****      * 
  63:../../libDaisy//src/sys/system.h ****      */
  64:../../libDaisy//src/sys/system.h ****     enum MemoryRegion
  65:../../libDaisy//src/sys/system.h ****     {
  66:../../libDaisy//src/sys/system.h ****         INTERNAL_FLASH = 0,
  67:../../libDaisy//src/sys/system.h ****         ITCMRAM,
  68:../../libDaisy//src/sys/system.h ****         DTCMRAM,
  69:../../libDaisy//src/sys/system.h ****         SRAM_D1,
  70:../../libDaisy//src/sys/system.h ****         SRAM_D2,
  71:../../libDaisy//src/sys/system.h ****         SRAM_D3,
  72:../../libDaisy//src/sys/system.h ****         SDRAM,
  73:../../libDaisy//src/sys/system.h ****         QSPI,
  74:../../libDaisy//src/sys/system.h ****         INVALID_ADDRESS,
  75:../../libDaisy//src/sys/system.h ****     };
  76:../../libDaisy//src/sys/system.h **** 
  77:../../libDaisy//src/sys/system.h ****     System() {}
  78:../../libDaisy//src/sys/system.h ****     ~System() {}
 173              		.loc 11 78 5 is_stmt 1 view .LVU21
 174              		.loc 11 78 5 is_stmt 0 view .LVU22
 175              	.LBE491:
 176              		.loc 5 65 26 view .LVU23
 177 0000 7047     		bx	lr
 178              		.cfi_endproc
 179              	.LFE4784:
 181              		.weak	_ZN5daisy8patch_sm12DaisyPatchSMD1Ev
 182              		.thumb_set _ZN5daisy8patch_sm12DaisyPatchSMD1Ev,_ZN5daisy8patch_sm12DaisyPatchSMD2Ev
 183 0002 00BF     		.section	.text._ZN7daisysp9PolyPluckILj32EED2Ev,"axG",%progbits,_ZN7daisysp9PolyPluckILj32EED5Ev,c
 184              		.align	1
 185              		.p2align 2,,3
ARM GAS  /var/folders/hl/qgbwny5j0fd895c2c41bk3tw0000gp/T//cc4ErH94.s 			page 14


 186              		.weak	_ZN7daisysp9PolyPluckILj32EED2Ev
 187              		.syntax unified
 188              		.thumb
 189              		.thumb_func
 190              		.fpu fpv5-d16
 192              	_ZN7daisysp9PolyPluckILj32EED2Ev:
 193              	.LVL5:
 194              	.LFB5364:
 195              		.file 12 "../../DaisySP//Source/PhysicalModeling/PolyPluck.h"
   1:../../DaisySP//Source/PhysicalModeling/PolyPluck.h **** #pragma once
   2:../../DaisySP//Source/PhysicalModeling/PolyPluck.h **** #ifndef DSY_POLYPLUCK_H
   3:../../DaisySP//Source/PhysicalModeling/PolyPluck.h **** #define DSY_POLYPLUCK_H
   4:../../DaisySP//Source/PhysicalModeling/PolyPluck.h **** 
   5:../../DaisySP//Source/PhysicalModeling/PolyPluck.h **** #include <stdlib.h>
   6:../../DaisySP//Source/PhysicalModeling/PolyPluck.h **** #include "Utility/dsp.h"
   7:../../DaisySP//Source/PhysicalModeling/PolyPluck.h **** #include "PhysicalModeling/pluck.h"
   8:../../DaisySP//Source/PhysicalModeling/PolyPluck.h **** #include "Utility/dcblock.h"
   9:../../DaisySP//Source/PhysicalModeling/PolyPluck.h **** 
  10:../../DaisySP//Source/PhysicalModeling/PolyPluck.h **** namespace daisysp
  11:../../DaisySP//Source/PhysicalModeling/PolyPluck.h **** {
  12:../../DaisySP//Source/PhysicalModeling/PolyPluck.h **** /** Simplified Pseudo-Polyphonic Pluck Voice
  13:../../DaisySP//Source/PhysicalModeling/PolyPluck.h **** 
  14:../../DaisySP//Source/PhysicalModeling/PolyPluck.h **** Template Based Pluck Voice, with configurable number of voices and simple pseudo-polyphony.
  15:../../DaisySP//Source/PhysicalModeling/PolyPluck.h **** 
  16:../../DaisySP//Source/PhysicalModeling/PolyPluck.h **** DC Blocking included to prevent biases from causing unwanted saturation distortion.
  17:../../DaisySP//Source/PhysicalModeling/PolyPluck.h **** 
  18:../../DaisySP//Source/PhysicalModeling/PolyPluck.h **** **Author**: shensley
  19:../../DaisySP//Source/PhysicalModeling/PolyPluck.h **** 
  20:../../DaisySP//Source/PhysicalModeling/PolyPluck.h **** **Date Added**: March 2020
  21:../../DaisySP//Source/PhysicalModeling/PolyPluck.h **** */
  22:../../DaisySP//Source/PhysicalModeling/PolyPluck.h **** template <size_t num_voices>
  23:../../DaisySP//Source/PhysicalModeling/PolyPluck.h **** class PolyPluck
 196              		.loc 12 23 7 is_stmt 1 view -0
 197              		.cfi_startproc
 198              		@ args = 0, pretend = 0, frame = 0
 199              		@ frame_needed = 0, uses_anonymous_args = 0
 200              		@ link register save eliminated.
 201              	.LBB492:
 202              	.LBI492:
 203              		.file 13 "../../DaisySP//Source/Utility/dcblock.h"
   1:../../DaisySP//Source/Utility/dcblock.h **** 
   2:../../DaisySP//Source/Utility/dcblock.h **** #pragma once
   3:../../DaisySP//Source/Utility/dcblock.h **** #ifndef DSY_DCBLOCK_H
   4:../../DaisySP//Source/Utility/dcblock.h **** #define DSY_DCBLOCK_H
   5:../../DaisySP//Source/Utility/dcblock.h **** #ifdef __cplusplus
   6:../../DaisySP//Source/Utility/dcblock.h **** 
   7:../../DaisySP//Source/Utility/dcblock.h **** namespace daisysp
   8:../../DaisySP//Source/Utility/dcblock.h **** {
   9:../../DaisySP//Source/Utility/dcblock.h **** /** Removes DC component of a signal
  10:../../DaisySP//Source/Utility/dcblock.h ****     */
  11:../../DaisySP//Source/Utility/dcblock.h **** class DcBlock
  12:../../DaisySP//Source/Utility/dcblock.h **** {
  13:../../DaisySP//Source/Utility/dcblock.h ****   public:
  14:../../DaisySP//Source/Utility/dcblock.h ****     DcBlock(){};
  15:../../DaisySP//Source/Utility/dcblock.h ****     ~DcBlock(){};
 204              		.loc 13 15 5 view .LVU25
 205              		.loc 13 15 5 is_stmt 0 view .LVU26
ARM GAS  /var/folders/hl/qgbwny5j0fd895c2c41bk3tw0000gp/T//cc4ErH94.s 			page 15


 206              	.LBE492:
 207              		.loc 12 23 7 view .LVU27
 208 0000 7047     		bx	lr
 209              		.cfi_endproc
 210              	.LFE5364:
 212              		.weak	_ZN7daisysp9PolyPluckILj32EED1Ev
 213              		.thumb_set _ZN7daisysp9PolyPluckILj32EED1Ev,_ZN7daisysp9PolyPluckILj32EED2Ev
 214 0002 00BF     		.section	.text._ZN5daisy8patch_sm7InitBedEv,"ax",%progbits
 215              		.align	1
 216              		.p2align 2,,3
 217              		.global	_ZN5daisy8patch_sm7InitBedEv
 218              		.syntax unified
 219              		.thumb
 220              		.thumb_func
 221              		.fpu fpv5-d16
 223              	_ZN5daisy8patch_sm7InitBedEv:
 224              	.LFB4793:
 225              		.file 14 "daisy_bed.h"
   1:daisy_bed.h   **** #pragma once
   2:daisy_bed.h   **** 
   3:daisy_bed.h   **** #include "daisy.h"
   4:daisy_bed.h   **** #include "daisysp.h"
   5:daisy_bed.h   **** #include "per/gpio.h"
   6:daisy_bed.h   **** #include "daisy_patch_sm.h"
   7:daisy_bed.h   **** 
   8:daisy_bed.h   **** namespace daisy
   9:daisy_bed.h   **** {
  10:daisy_bed.h   **** namespace patch_sm
  11:daisy_bed.h   **** {
  12:daisy_bed.h   ****     // simple stupid led set up
  13:daisy_bed.h   ****     GPIO    gen_led1;
  14:daisy_bed.h   ****     GPIO    gen_led2;
  15:daisy_bed.h   ****     GPIO    cv_led1;
  16:daisy_bed.h   ****     GPIO    cv_led2;
  17:daisy_bed.h   ****     GPIO    gate_in_led;
  18:daisy_bed.h   ****     GPIO    gate_out_led;
  19:daisy_bed.h   **** 
  20:daisy_bed.h   ****     // generic leds
  21:daisy_bed.h   ****     dsy_gpio_pin oldPinD7 = DaisyPatchSM::D7;
  22:daisy_bed.h   ****     Pin newPinD7 = Pin(static_cast<GPIOPort>(oldPinD7.port), oldPinD7.pin);
  23:daisy_bed.h   ****     dsy_gpio_pin oldPinA9 = DaisyPatchSM::A9;
  24:daisy_bed.h   ****     Pin newPinA9 = Pin(static_cast<GPIOPort>(oldPinA9.port), oldPinA9.pin);
  25:daisy_bed.h   **** 
  26:daisy_bed.h   ****     // cv leds
  27:daisy_bed.h   ****     dsy_gpio_pin oldPinD2 = DaisyPatchSM::D2;
  28:daisy_bed.h   ****     Pin newPinD2 = Pin(static_cast<GPIOPort>(oldPinD2.port), oldPinD2.pin);
  29:daisy_bed.h   ****     dsy_gpio_pin oldPinD1 = DaisyPatchSM::D1;
  30:daisy_bed.h   ****     Pin newPinD1 = Pin(static_cast<GPIOPort>(oldPinD1.port), oldPinD1.pin);
  31:daisy_bed.h   **** 
  32:daisy_bed.h   ****     // gate leds
  33:daisy_bed.h   ****     dsy_gpio_pin oldPinD3 = DaisyPatchSM::D3;
  34:daisy_bed.h   ****     Pin newPinD3 = Pin(static_cast<GPIOPort>(oldPinD3.port), oldPinD3.pin);
  35:daisy_bed.h   ****     dsy_gpio_pin oldPinD6 = DaisyPatchSM::D6;
  36:daisy_bed.h   ****     Pin newPinD6 = Pin(static_cast<GPIOPort>(oldPinD6.port), oldPinD6.pin);
  37:daisy_bed.h   **** 
  38:daisy_bed.h   ****     // remap
  39:daisy_bed.h   ****      
ARM GAS  /var/folders/hl/qgbwny5j0fd895c2c41bk3tw0000gp/T//cc4ErH94.s 			page 16


  40:daisy_bed.h   ****     // map buttons
  41:daisy_bed.h   ****     Switch      b1,b2;
  42:daisy_bed.h   **** 
  43:daisy_bed.h   ****     void InitBed(){
 226              		.loc 14 43 19 is_stmt 1 view -0
 227              		.cfi_startproc
 228              		@ args = 0, pretend = 0, frame = 8
 229              		@ frame_needed = 0, uses_anonymous_args = 0
  44:daisy_bed.h   ****         // leds
  45:daisy_bed.h   ****         gen_led1.Init(newPinD7, GPIO::Mode::OUTPUT);
 230              		.loc 14 45 9 view .LVU29
  43:daisy_bed.h   ****         // leds
 231              		.loc 14 43 19 is_stmt 0 view .LVU30
 232 0000 10B5     		push	{r4, lr}
 233              		.cfi_def_cfa_offset 8
 234              		.cfi_offset 4, -8
 235              		.cfi_offset 14, -4
 236              		.loc 14 45 22 view .LVU31
 237 0002 2549     		ldr	r1, .L10
  43:daisy_bed.h   ****         // leds
 238              		.loc 14 43 19 view .LVU32
 239 0004 84B0     		sub	sp, sp, #16
 240              		.cfi_def_cfa_offset 24
 241              		.loc 14 45 22 view .LVU33
 242 0006 0024     		movs	r4, #0
 243 0008 0122     		movs	r2, #1
 244 000a 0968     		ldr	r1, [r1]
 245 000c 2346     		mov	r3, r4
 246 000e 2348     		ldr	r0, .L10+4
 247 0010 0094     		str	r4, [sp]
 248 0012 FFF7FEFF 		bl	_ZN5daisy4GPIO4InitENS_3PinENS0_4ModeENS0_4PullENS0_5SpeedE
 249              	.LVL6:
  46:daisy_bed.h   ****         gen_led2.Init(newPinA9, GPIO::Mode::OUTPUT);
 250              		.loc 14 46 9 is_stmt 1 view .LVU34
 251              		.loc 14 46 22 is_stmt 0 view .LVU35
 252 0016 2249     		ldr	r1, .L10+8
 253 0018 2346     		mov	r3, r4
 254 001a 0122     		movs	r2, #1
 255 001c 0968     		ldr	r1, [r1]
 256 001e 2148     		ldr	r0, .L10+12
 257 0020 0094     		str	r4, [sp]
 258 0022 FFF7FEFF 		bl	_ZN5daisy4GPIO4InitENS_3PinENS0_4ModeENS0_4PullENS0_5SpeedE
 259              	.LVL7:
  47:daisy_bed.h   ****         cv_led1.Init(newPinD2, GPIO::Mode::OUTPUT);
 260              		.loc 14 47 9 is_stmt 1 view .LVU36
 261              		.loc 14 47 21 is_stmt 0 view .LVU37
 262 0026 2049     		ldr	r1, .L10+16
 263 0028 2346     		mov	r3, r4
 264 002a 0122     		movs	r2, #1
 265 002c 0968     		ldr	r1, [r1]
 266 002e 1F48     		ldr	r0, .L10+20
 267 0030 0094     		str	r4, [sp]
 268 0032 FFF7FEFF 		bl	_ZN5daisy4GPIO4InitENS_3PinENS0_4ModeENS0_4PullENS0_5SpeedE
 269              	.LVL8:
  48:daisy_bed.h   ****         cv_led2.Init(newPinD1, GPIO::Mode::OUTPUT);
 270              		.loc 14 48 9 is_stmt 1 view .LVU38
 271              		.loc 14 48 21 is_stmt 0 view .LVU39
ARM GAS  /var/folders/hl/qgbwny5j0fd895c2c41bk3tw0000gp/T//cc4ErH94.s 			page 17


 272 0036 1E49     		ldr	r1, .L10+24
 273 0038 2346     		mov	r3, r4
 274 003a 0122     		movs	r2, #1
 275 003c 0968     		ldr	r1, [r1]
 276 003e 1D48     		ldr	r0, .L10+28
 277 0040 0094     		str	r4, [sp]
 278 0042 FFF7FEFF 		bl	_ZN5daisy4GPIO4InitENS_3PinENS0_4ModeENS0_4PullENS0_5SpeedE
 279              	.LVL9:
  49:daisy_bed.h   ****         gate_in_led.Init(newPinD3, GPIO::Mode::OUTPUT);
 280              		.loc 14 49 9 is_stmt 1 view .LVU40
 281              		.loc 14 49 25 is_stmt 0 view .LVU41
 282 0046 1C49     		ldr	r1, .L10+32
 283 0048 2346     		mov	r3, r4
 284 004a 0122     		movs	r2, #1
 285 004c 0968     		ldr	r1, [r1]
 286 004e 1B48     		ldr	r0, .L10+36
 287 0050 0094     		str	r4, [sp]
 288 0052 FFF7FEFF 		bl	_ZN5daisy4GPIO4InitENS_3PinENS0_4ModeENS0_4PullENS0_5SpeedE
 289              	.LVL10:
  50:daisy_bed.h   ****         gate_out_led.Init(newPinD6, GPIO::Mode::OUTPUT);
 290              		.loc 14 50 9 is_stmt 1 view .LVU42
 291              		.loc 14 50 26 is_stmt 0 view .LVU43
 292 0056 1A49     		ldr	r1, .L10+40
 293 0058 2346     		mov	r3, r4
 294 005a 0122     		movs	r2, #1
 295 005c 0968     		ldr	r1, [r1]
 296 005e 1948     		ldr	r0, .L10+44
 297 0060 0094     		str	r4, [sp]
 298 0062 FFF7FEFF 		bl	_ZN5daisy4GPIO4InitENS_3PinENS0_4ModeENS0_4PullENS0_5SpeedE
 299              	.LVL11:
  51:daisy_bed.h   **** 
  52:daisy_bed.h   ****         // buttons
  53:daisy_bed.h   ****         b1.Init(DaisyPatchSM::A8);
 300              		.loc 14 53 9 is_stmt 1 view .LVU44
 301              		.loc 14 53 16 is_stmt 0 view .LVU45
 302 0066 184B     		ldr	r3, .L10+48
 303 0068 9FED180A 		vldr.32	s0, .L10+52
 304 006c 1A78     		ldrb	r2, [r3]	@ zero_extendqisi2
 305 006e 5978     		ldrb	r1, [r3, #1]	@ zero_extendqisi2
 306 0070 1748     		ldr	r0, .L10+56
 307 0072 42EA0121 		orr	r1, r2, r1, lsl #8
 308 0076 8DED030A 		vstr.32	s0, [sp, #12]	@ int
 309 007a FFF7FEFF 		bl	_ZN5daisy6Switch4InitE12dsy_gpio_pinf
 310              	.LVL12:
  54:daisy_bed.h   ****         b2.Init(DaisyPatchSM::D10);
 311              		.loc 14 54 9 is_stmt 1 view .LVU46
 312              		.loc 14 54 16 is_stmt 0 view .LVU47
 313 007e 154B     		ldr	r3, .L10+60
 314 0080 9DED030A 		vldr.32	s0, [sp, #12]	@ int
 315 0084 1A78     		ldrb	r2, [r3]	@ zero_extendqisi2
 316 0086 5978     		ldrb	r1, [r3, #1]	@ zero_extendqisi2
 317 0088 1348     		ldr	r0, .L10+64
 318 008a 42EA0121 		orr	r1, r2, r1, lsl #8
  55:daisy_bed.h   ****     }
 319              		.loc 14 55 5 view .LVU48
 320 008e 04B0     		add	sp, sp, #16
 321              		.cfi_def_cfa_offset 8
ARM GAS  /var/folders/hl/qgbwny5j0fd895c2c41bk3tw0000gp/T//cc4ErH94.s 			page 18


 322              		@ sp needed
 323 0090 BDE81040 		pop	{r4, lr}
 324              		.cfi_restore 14
 325              		.cfi_restore 4
 326              		.cfi_def_cfa_offset 0
  54:daisy_bed.h   ****         b2.Init(DaisyPatchSM::D10);
 327              		.loc 14 54 16 view .LVU49
 328 0094 FFF7FEBF 		b	_ZN5daisy6Switch4InitE12dsy_gpio_pinf
 329              	.LVL13:
 330              	.L11:
 331              		.align	2
 332              	.L10:
 333 0098 00000000 		.word	.LANCHOR0
 334 009c 00000000 		.word	.LANCHOR1
 335 00a0 00000000 		.word	.LANCHOR2
 336 00a4 00000000 		.word	.LANCHOR3
 337 00a8 00000000 		.word	.LANCHOR4
 338 00ac 00000000 		.word	.LANCHOR5
 339 00b0 00000000 		.word	.LANCHOR6
 340 00b4 00000000 		.word	.LANCHOR7
 341 00b8 00000000 		.word	.LANCHOR8
 342 00bc 00000000 		.word	.LANCHOR9
 343 00c0 00000000 		.word	.LANCHOR10
 344 00c4 00000000 		.word	.LANCHOR11
 345 00c8 00000000 		.word	_ZN5daisy8patch_sm12DaisyPatchSM2A8E
 346 00cc 00000000 		.word	0
 347 00d0 00000000 		.word	.LANCHOR12
 348 00d4 00000000 		.word	_ZN5daisy8patch_sm12DaisyPatchSM3D10E
 349 00d8 00000000 		.word	.LANCHOR13
 350              		.cfi_endproc
 351              	.LFE4793:
 353              		.section	.text._ZN5daisy8patch_sm6ledOffEv,"ax",%progbits
 354              		.align	1
 355              		.p2align 2,,3
 356              		.global	_ZN5daisy8patch_sm6ledOffEv
 357              		.syntax unified
 358              		.thumb
 359              		.thumb_func
 360              		.fpu fpv5-d16
 362              	_ZN5daisy8patch_sm6ledOffEv:
 363              	.LFB4794:
  56:daisy_bed.h   **** 
  57:daisy_bed.h   ****     void ledOff(){
 364              		.loc 14 57 18 is_stmt 1 view -0
 365              		.cfi_startproc
 366              		@ args = 0, pretend = 0, frame = 0
 367              		@ frame_needed = 0, uses_anonymous_args = 0
  58:daisy_bed.h   ****         gen_led1.Write(false);
 368              		.loc 14 58 9 view .LVU51
  57:daisy_bed.h   ****         gen_led1.Write(false);
 369              		.loc 14 57 18 is_stmt 0 view .LVU52
 370 0000 08B5     		push	{r3, lr}
 371              		.cfi_def_cfa_offset 8
 372              		.cfi_offset 3, -8
 373              		.cfi_offset 14, -4
 374              		.loc 14 58 23 view .LVU53
 375 0002 0021     		movs	r1, #0
ARM GAS  /var/folders/hl/qgbwny5j0fd895c2c41bk3tw0000gp/T//cc4ErH94.s 			page 19


 376 0004 0848     		ldr	r0, .L14
 377 0006 FFF7FEFF 		bl	_ZN5daisy4GPIO5WriteEb
 378              	.LVL14:
  59:daisy_bed.h   ****         gen_led2.Write(false);
 379              		.loc 14 59 9 is_stmt 1 view .LVU54
 380              		.loc 14 59 23 is_stmt 0 view .LVU55
 381 000a 0021     		movs	r1, #0
 382 000c 0748     		ldr	r0, .L14+4
 383 000e FFF7FEFF 		bl	_ZN5daisy4GPIO5WriteEb
 384              	.LVL15:
  60:daisy_bed.h   ****         cv_led1.Write(false);
 385              		.loc 14 60 9 is_stmt 1 view .LVU56
 386              		.loc 14 60 22 is_stmt 0 view .LVU57
 387 0012 0021     		movs	r1, #0
 388 0014 0648     		ldr	r0, .L14+8
 389 0016 FFF7FEFF 		bl	_ZN5daisy4GPIO5WriteEb
 390              	.LVL16:
  61:daisy_bed.h   ****         cv_led2.Write(false);
 391              		.loc 14 61 9 is_stmt 1 view .LVU58
 392              		.loc 14 61 22 is_stmt 0 view .LVU59
 393 001a 0021     		movs	r1, #0
 394 001c 0548     		ldr	r0, .L14+12
  62:daisy_bed.h   ****     }
 395              		.loc 14 62 5 view .LVU60
 396 001e BDE80840 		pop	{r3, lr}
 397              		.cfi_restore 14
 398              		.cfi_restore 3
 399              		.cfi_def_cfa_offset 0
  61:daisy_bed.h   ****         cv_led2.Write(false);
 400              		.loc 14 61 22 view .LVU61
 401 0022 FFF7FEBF 		b	_ZN5daisy4GPIO5WriteEb
 402              	.LVL17:
 403              	.L15:
 404 0026 00BF     		.align	2
 405              	.L14:
 406 0028 00000000 		.word	.LANCHOR1
 407 002c 00000000 		.word	.LANCHOR3
 408 0030 00000000 		.word	.LANCHOR5
 409 0034 00000000 		.word	.LANCHOR7
 410              		.cfi_endproc
 411              	.LFE4794:
 413              		.section	.text._Z11scaleSelectf,"ax",%progbits
 414              		.align	1
 415              		.p2align 2,,3
 416              		.global	_Z11scaleSelectf
 417              		.syntax unified
 418              		.thumb
 419              		.thumb_func
 420              		.fpu fpv5-d16
 422              	_Z11scaleSelectf:
 423              	.LVL18:
 424              	.LFB4798:
 425              		.file 15 "Plinks.cpp"
   1:Plinks.cpp    **** #include "daisy_bed.h"
   2:Plinks.cpp    **** #include "daisy_patch_sm.h"
   3:Plinks.cpp    **** #include "daisysp.h"
   4:Plinks.cpp    **** #include "arp_notes.h"
ARM GAS  /var/folders/hl/qgbwny5j0fd895c2c41bk3tw0000gp/T//cc4ErH94.s 			page 20


   5:Plinks.cpp    **** 
   6:Plinks.cpp    **** using namespace daisy;
   7:Plinks.cpp    **** using namespace daisysp;
   8:Plinks.cpp    **** using namespace patch_sm;
   9:Plinks.cpp    **** using namespace arps;
  10:Plinks.cpp    **** 
  11:Plinks.cpp    **** DaisyPatchSM		hw;
  12:Plinks.cpp    **** PolyPluck<32>		pp;
  13:Plinks.cpp    **** ReverbSc 			rv;
  14:Plinks.cpp    **** MoogLadder			ladder;
  15:Plinks.cpp    **** AdEnv      			env;
  16:Plinks.cpp    **** 
  17:Plinks.cpp    **** uint8_t     arp_idx;
  18:Plinks.cpp    **** uint8_t 	scale_idx;
  19:Plinks.cpp    **** 
  20:Plinks.cpp    **** // select scale, and pass midi note as nn 
  21:Plinks.cpp    **** float scaleSelect(float nn){
 426              		.loc 15 21 28 is_stmt 1 view -0
 427              		.cfi_startproc
 428              		@ args = 0, pretend = 0, frame = 8
 429              		@ frame_needed = 0, uses_anonymous_args = 0
  22:Plinks.cpp    **** 	float freq;
 430              		.loc 15 22 2 view .LVU63
  23:Plinks.cpp    **** 	b1.Debounce();
 431              		.loc 15 23 2 view .LVU64
  21:Plinks.cpp    **** 	float freq;
 432              		.loc 15 21 28 is_stmt 0 view .LVU65
 433 0000 10B5     		push	{r4, lr}
 434              		.cfi_def_cfa_offset 8
 435              		.cfi_offset 4, -8
 436              		.cfi_offset 14, -4
 437              		.loc 15 23 13 view .LVU66
 438 0002 574C     		ldr	r4, .L30
  21:Plinks.cpp    **** 	float freq;
 439              		.loc 15 21 28 view .LVU67
 440 0004 2DED028B 		vpush.64	{d8}
 441              		.cfi_def_cfa_offset 16
 442              		.cfi_offset 80, -16
 443              		.cfi_offset 81, -12
 444              		.loc 15 23 13 view .LVU68
 445 0008 2046     		mov	r0, r4
  21:Plinks.cpp    **** 	float freq;
 446              		.loc 15 21 28 view .LVU69
 447 000a 82B0     		sub	sp, sp, #8
 448              		.cfi_def_cfa_offset 24
  21:Plinks.cpp    **** 	float freq;
 449              		.loc 15 21 28 view .LVU70
 450 000c B0EE408A 		vmov.f32	s16, s0
 451              		.loc 15 23 13 view .LVU71
 452 0010 FFF7FEFF 		bl	_ZN5daisy6Switch8DebounceEv
 453              	.LVL19:
  24:Plinks.cpp    **** 	if(b1.FallingEdge()){
 454              		.loc 15 24 2 is_stmt 1 view .LVU72
 455              	.LBB505:
 456              	.LBI505:
  43:../../libDaisy//src/hid/switch.h **** 
  44:../../libDaisy//src/hid/switch.h ****     /** 
ARM GAS  /var/folders/hl/qgbwny5j0fd895c2c41bk3tw0000gp/T//cc4ErH94.s 			page 21


  45:../../libDaisy//src/hid/switch.h ****     Initializes the switch object with a given port/pin combo.
  46:../../libDaisy//src/hid/switch.h ****     \param pin port/pin object to tell the switch which hardware pin to use.
  47:../../libDaisy//src/hid/switch.h ****     \param update_rate Does nothing. Backwards compatibility until next breaking update.
  48:../../libDaisy//src/hid/switch.h ****     \param t switch type -- Default: TYPE_MOMENTARY
  49:../../libDaisy//src/hid/switch.h ****     \param pol switch polarity -- Default: POLARITY_INVERTED
  50:../../libDaisy//src/hid/switch.h ****     \param pu switch pull up/down -- Default: PULL_UP
  51:../../libDaisy//src/hid/switch.h ****     */
  52:../../libDaisy//src/hid/switch.h ****     void
  53:../../libDaisy//src/hid/switch.h ****     Init(dsy_gpio_pin pin, float update_rate, Type t, Polarity pol, Pull pu);
  54:../../libDaisy//src/hid/switch.h **** 
  55:../../libDaisy//src/hid/switch.h ****     /**
  56:../../libDaisy//src/hid/switch.h ****        Simplified Init.
  57:../../libDaisy//src/hid/switch.h ****        \param pin port/pin object to tell the switch which hardware pin to use.
  58:../../libDaisy//src/hid/switch.h ****        \param update_rate Left for backwards compatibility until next breaking change.
  59:../../libDaisy//src/hid/switch.h ****     */
  60:../../libDaisy//src/hid/switch.h ****     void Init(dsy_gpio_pin pin, float update_rate = 0.f);
  61:../../libDaisy//src/hid/switch.h **** 
  62:../../libDaisy//src/hid/switch.h ****     /** 
  63:../../libDaisy//src/hid/switch.h ****     Called at update_rate to debounce and handle timing for the switch.
  64:../../libDaisy//src/hid/switch.h ****     In order for events not to be missed, its important that the Edge/Pressed checks
  65:../../libDaisy//src/hid/switch.h ****     be made at the same rate as the debounce function is being called.
  66:../../libDaisy//src/hid/switch.h ****     */
  67:../../libDaisy//src/hid/switch.h ****     void Debounce();
  68:../../libDaisy//src/hid/switch.h **** 
  69:../../libDaisy//src/hid/switch.h ****     /** \return true if a button was just pressed. */
  70:../../libDaisy//src/hid/switch.h ****     inline bool RisingEdge() const { return updated_ ? state_ == 0x7f : false; }
  71:../../libDaisy//src/hid/switch.h **** 
  72:../../libDaisy//src/hid/switch.h ****     /** \return true if the button was just released */
  73:../../libDaisy//src/hid/switch.h ****     inline bool FallingEdge() const
 457              		.loc 1 73 17 view .LVU73
 458              	.LBB506:
  74:../../libDaisy//src/hid/switch.h ****     {
  75:../../libDaisy//src/hid/switch.h ****         return updated_ ? state_ == 0x80 : false;
 459              		.loc 1 75 9 view .LVU74
 460              		.loc 1 75 25 is_stmt 0 view .LVU75
 461 0014 2379     		ldrb	r3, [r4, #4]	@ zero_extendqisi2
 462 0016 13B1     		cbz	r3, .L19
 463              	.LVL20:
 464              		.loc 1 75 25 view .LVU76
 465              	.LBE506:
 466              	.LBE505:
 467              		.loc 15 24 2 view .LVU77
 468 0018 A37A     		ldrb	r3, [r4, #10]	@ zero_extendqisi2
 469 001a 802B     		cmp	r3, #128
 470 001c 08D0     		beq	.L29
 471              	.L19:
  25:Plinks.cpp    **** 		scale_idx = (scale_idx + 1) % 4; // advance scale +1, else wrap back to 1? 
  26:Plinks.cpp    **** 	}
  27:Plinks.cpp    **** 
  28:Plinks.cpp    **** 	switch (scale_idx)
 472              		.loc 15 28 10 view .LVU78
 473 001e 514B     		ldr	r3, .L30+4
 474 0020 1B78     		ldrb	r3, [r3]	@ zero_extendqisi2
 475              	.L18:
 476              		.loc 15 28 2 is_stmt 1 view .LVU79
 477 0022 013B     		subs	r3, r3, #1
 478 0024 032B     		cmp	r3, #3
ARM GAS  /var/folders/hl/qgbwny5j0fd895c2c41bk3tw0000gp/T//cc4ErH94.s 			page 22


 479 0026 79D8     		bhi	.L20
 480 0028 DFE803F0 		tbb	[pc, r3]
 481              	.L22:
 482 002c 54       		.byte	(.L25-.L22)/2
 483 002d 30       		.byte	(.L24-.L22)/2
 484 002e 2D       		.byte	(.L23-.L22)/2
 485 002f 09       		.byte	(.L21-.L22)/2
 486              		.p2align 1
 487              	.L29:
  25:Plinks.cpp    **** 		scale_idx = (scale_idx + 1) % 4; // advance scale +1, else wrap back to 1? 
 488              		.loc 15 25 3 view .LVU80
  25:Plinks.cpp    **** 		scale_idx = (scale_idx + 1) % 4; // advance scale +1, else wrap back to 1? 
 489              		.loc 15 25 16 is_stmt 0 view .LVU81
 490 0030 4C4A     		ldr	r2, .L30+4
 491 0032 1378     		ldrb	r3, [r2]	@ zero_extendqisi2
  25:Plinks.cpp    **** 		scale_idx = (scale_idx + 1) % 4; // advance scale +1, else wrap back to 1? 
 492              		.loc 15 25 26 view .LVU82
 493 0034 0133     		adds	r3, r3, #1
  25:Plinks.cpp    **** 		scale_idx = (scale_idx + 1) % 4; // advance scale +1, else wrap back to 1? 
 494              		.loc 15 25 13 view .LVU83
 495 0036 03F00303 		and	r3, r3, #3
 496 003a 1370     		strb	r3, [r2]
 497 003c F1E7     		b	.L18
 498              	.L21:
  29:Plinks.cpp    **** 	{
  30:Plinks.cpp    **** 	case 1:
  31:Plinks.cpp    **** 		freq = nn + noMajPen[arp_idx];
  32:Plinks.cpp    **** 		ledOff();
  33:Plinks.cpp    **** 		gen_led1.Toggle();
  34:Plinks.cpp    **** 		break;
  35:Plinks.cpp    **** 	case 2:
  36:Plinks.cpp    **** 		freq = nn + noMinPen[arp_idx];
  37:Plinks.cpp    **** 		ledOff();
  38:Plinks.cpp    **** 		gen_led2.Toggle();
  39:Plinks.cpp    **** 		break;
  40:Plinks.cpp    **** 	case 3:
  41:Plinks.cpp    **** 		freq = nn + noMajTri[arp_idx];
  42:Plinks.cpp    **** 		ledOff();
  43:Plinks.cpp    **** 		cv_led1.Toggle();
  44:Plinks.cpp    **** 		break;
  45:Plinks.cpp    **** 	case 4:
 499              		.loc 15 45 2 is_stmt 1 view .LVU84
  46:Plinks.cpp    **** 		freq = nn + noMinTri[arp_idx];
 500              		.loc 15 46 3 view .LVU85
 501              		.loc 15 46 24 is_stmt 0 view .LVU86
 502 003e 4A4A     		ldr	r2, .L30+8
 503              		.loc 15 46 31 view .LVU87
 504 0040 4A4B     		ldr	r3, .L30+12
 505              	.L28:
 506              		.loc 15 46 24 view .LVU88
 507 0042 1278     		ldrb	r2, [r2]	@ zero_extendqisi2
 508              	.LBB507:
 509              	.LBB508:
  58:daisy_bed.h   ****         gen_led2.Write(false);
 510              		.loc 14 58 23 view .LVU89
 511 0044 0021     		movs	r1, #0
 512 0046 4A48     		ldr	r0, .L30+16
ARM GAS  /var/folders/hl/qgbwny5j0fd895c2c41bk3tw0000gp/T//cc4ErH94.s 			page 23


 513              	.LBE508:
 514              	.LBE507:
 515              		.loc 15 46 31 view .LVU90
 516 0048 03EB8203 		add	r3, r3, r2, lsl #2
 517              		.loc 15 46 8 view .LVU91
 518 004c 93ED000A 		vldr.32	s0, [r3]
 519 0050 38EE000A 		vadd.f32	s0, s16, s0
 520 0054 8DED010A 		vstr.32	s0, [sp, #4]	@ int
 521              	.LVL21:
  47:Plinks.cpp    **** 		ledOff();
 522              		.loc 15 47 3 is_stmt 1 view .LVU92
 523              	.LBB510:
 524              	.LBI507:
  57:daisy_bed.h   ****         gen_led1.Write(false);
 525              		.loc 14 57 10 view .LVU93
 526              	.LBB509:
  58:daisy_bed.h   ****         gen_led2.Write(false);
 527              		.loc 14 58 9 view .LVU94
  58:daisy_bed.h   ****         gen_led2.Write(false);
 528              		.loc 14 58 23 is_stmt 0 view .LVU95
 529 0058 FFF7FEFF 		bl	_ZN5daisy4GPIO5WriteEb
 530              	.LVL22:
  59:daisy_bed.h   ****         cv_led1.Write(false);
 531              		.loc 14 59 9 is_stmt 1 view .LVU96
  59:daisy_bed.h   ****         cv_led1.Write(false);
 532              		.loc 14 59 23 is_stmt 0 view .LVU97
 533 005c 0021     		movs	r1, #0
 534 005e 4548     		ldr	r0, .L30+20
 535 0060 FFF7FEFF 		bl	_ZN5daisy4GPIO5WriteEb
 536              	.LVL23:
  60:daisy_bed.h   ****         cv_led2.Write(false);
 537              		.loc 14 60 9 is_stmt 1 view .LVU98
  60:daisy_bed.h   ****         cv_led2.Write(false);
 538              		.loc 14 60 22 is_stmt 0 view .LVU99
 539 0064 0021     		movs	r1, #0
 540 0066 4448     		ldr	r0, .L30+24
 541 0068 FFF7FEFF 		bl	_ZN5daisy4GPIO5WriteEb
 542              	.LVL24:
  61:daisy_bed.h   ****     }
 543              		.loc 14 61 9 is_stmt 1 view .LVU100
  61:daisy_bed.h   ****     }
 544              		.loc 14 61 22 is_stmt 0 view .LVU101
 545 006c 0021     		movs	r1, #0
 546 006e 4348     		ldr	r0, .L30+28
 547 0070 FFF7FEFF 		bl	_ZN5daisy4GPIO5WriteEb
 548              	.LVL25:
 549              	.LBE509:
 550              	.LBE510:
  48:Plinks.cpp    **** 		cv_led1.Toggle();
 551              		.loc 15 48 3 is_stmt 1 view .LVU102
 552              		.loc 15 48 17 is_stmt 0 view .LVU103
 553 0074 4048     		ldr	r0, .L30+24
 554 0076 FFF7FEFF 		bl	_ZN5daisy4GPIO6ToggleEv
 555              	.LVL26:
  49:Plinks.cpp    **** 		break;
 556              		.loc 15 49 3 is_stmt 1 view .LVU104
 557 007a 9DED010A 		vldr.32	s0, [sp, #4]	@ int
ARM GAS  /var/folders/hl/qgbwny5j0fd895c2c41bk3tw0000gp/T//cc4ErH94.s 			page 24


 558              	.L16:
  50:Plinks.cpp    **** 	default:
  51:Plinks.cpp    **** 		freq = nn + noMajPen[arp_idx];
  52:Plinks.cpp    **** 		ledOff();
  53:Plinks.cpp    **** 		gen_led1.Toggle();
  54:Plinks.cpp    **** 		break;
  55:Plinks.cpp    **** 	}
  56:Plinks.cpp    **** 	return freq;
  57:Plinks.cpp    **** 	}
 559              		.loc 15 57 2 is_stmt 0 view .LVU105
 560 007e 02B0     		add	sp, sp, #8
 561              		.cfi_remember_state
 562              		.cfi_def_cfa_offset 16
 563              		@ sp needed
 564 0080 BDEC028B 		vldm	sp!, {d8}
 565              		.cfi_restore 80
 566              		.cfi_restore 81
 567              		.cfi_def_cfa_offset 8
 568              	.LVL27:
 569              		.loc 15 57 2 view .LVU106
 570 0084 10BD     		pop	{r4, pc}
 571              	.LVL28:
 572              	.L23:
 573              		.cfi_restore_state
  40:Plinks.cpp    **** 		freq = nn + noMajTri[arp_idx];
 574              		.loc 15 40 2 is_stmt 1 view .LVU107
  41:Plinks.cpp    **** 		ledOff();
 575              		.loc 15 41 3 view .LVU108
  41:Plinks.cpp    **** 		ledOff();
 576              		.loc 15 41 24 is_stmt 0 view .LVU109
 577 0086 384A     		ldr	r2, .L30+8
  41:Plinks.cpp    **** 		ledOff();
 578              		.loc 15 41 31 view .LVU110
 579 0088 3D4B     		ldr	r3, .L30+32
 580 008a DAE7     		b	.L28
 581              	.L24:
  35:Plinks.cpp    **** 		freq = nn + noMinPen[arp_idx];
 582              		.loc 15 35 2 is_stmt 1 view .LVU111
  36:Plinks.cpp    **** 		ledOff();
 583              		.loc 15 36 3 view .LVU112
  36:Plinks.cpp    **** 		ledOff();
 584              		.loc 15 36 24 is_stmt 0 view .LVU113
 585 008c 364A     		ldr	r2, .L30+8
 586              	.LBB511:
 587              	.LBB512:
  58:daisy_bed.h   ****         gen_led2.Write(false);
 588              		.loc 14 58 23 view .LVU114
 589 008e 0021     		movs	r1, #0
 590              	.LBE512:
 591              	.LBE511:
  36:Plinks.cpp    **** 		ledOff();
 592              		.loc 15 36 31 view .LVU115
 593 0090 3C4B     		ldr	r3, .L30+36
  36:Plinks.cpp    **** 		ledOff();
 594              		.loc 15 36 24 view .LVU116
 595 0092 1278     		ldrb	r2, [r2]	@ zero_extendqisi2
 596              	.LBB515:
ARM GAS  /var/folders/hl/qgbwny5j0fd895c2c41bk3tw0000gp/T//cc4ErH94.s 			page 25


 597              	.LBB513:
  58:daisy_bed.h   ****         gen_led2.Write(false);
 598              		.loc 14 58 23 view .LVU117
 599 0094 3648     		ldr	r0, .L30+16
 600              	.LBE513:
 601              	.LBE515:
  36:Plinks.cpp    **** 		ledOff();
 602              		.loc 15 36 31 view .LVU118
 603 0096 03EB8203 		add	r3, r3, r2, lsl #2
  36:Plinks.cpp    **** 		ledOff();
 604              		.loc 15 36 8 view .LVU119
 605 009a 93ED000A 		vldr.32	s0, [r3]
 606 009e 38EE000A 		vadd.f32	s0, s16, s0
 607 00a2 8DED010A 		vstr.32	s0, [sp, #4]	@ int
 608              	.LVL29:
  37:Plinks.cpp    **** 		gen_led2.Toggle();
 609              		.loc 15 37 3 is_stmt 1 view .LVU120
 610              	.LBB516:
 611              	.LBI511:
  57:daisy_bed.h   ****         gen_led1.Write(false);
 612              		.loc 14 57 10 view .LVU121
 613              	.LBB514:
  58:daisy_bed.h   ****         gen_led2.Write(false);
 614              		.loc 14 58 9 view .LVU122
  58:daisy_bed.h   ****         gen_led2.Write(false);
 615              		.loc 14 58 23 is_stmt 0 view .LVU123
 616 00a6 FFF7FEFF 		bl	_ZN5daisy4GPIO5WriteEb
 617              	.LVL30:
  59:daisy_bed.h   ****         cv_led1.Write(false);
 618              		.loc 14 59 9 is_stmt 1 view .LVU124
  59:daisy_bed.h   ****         cv_led1.Write(false);
 619              		.loc 14 59 23 is_stmt 0 view .LVU125
 620 00aa 0021     		movs	r1, #0
 621 00ac 3148     		ldr	r0, .L30+20
 622 00ae FFF7FEFF 		bl	_ZN5daisy4GPIO5WriteEb
 623              	.LVL31:
  60:daisy_bed.h   ****         cv_led2.Write(false);
 624              		.loc 14 60 9 is_stmt 1 view .LVU126
  60:daisy_bed.h   ****         cv_led2.Write(false);
 625              		.loc 14 60 22 is_stmt 0 view .LVU127
 626 00b2 0021     		movs	r1, #0
 627 00b4 3048     		ldr	r0, .L30+24
 628 00b6 FFF7FEFF 		bl	_ZN5daisy4GPIO5WriteEb
 629              	.LVL32:
  61:daisy_bed.h   ****     }
 630              		.loc 14 61 9 is_stmt 1 view .LVU128
  61:daisy_bed.h   ****     }
 631              		.loc 14 61 22 is_stmt 0 view .LVU129
 632 00ba 0021     		movs	r1, #0
 633 00bc 2F48     		ldr	r0, .L30+28
 634 00be FFF7FEFF 		bl	_ZN5daisy4GPIO5WriteEb
 635              	.LVL33:
 636              	.LBE514:
 637              	.LBE516:
  38:Plinks.cpp    **** 		break;
 638              		.loc 15 38 3 is_stmt 1 view .LVU130
  38:Plinks.cpp    **** 		break;
ARM GAS  /var/folders/hl/qgbwny5j0fd895c2c41bk3tw0000gp/T//cc4ErH94.s 			page 26


 639              		.loc 15 38 18 is_stmt 0 view .LVU131
 640 00c2 2C48     		ldr	r0, .L30+20
 641 00c4 FFF7FEFF 		bl	_ZN5daisy4GPIO6ToggleEv
 642              	.LVL34:
  39:Plinks.cpp    **** 	case 3:
 643              		.loc 15 39 3 is_stmt 1 view .LVU132
 644 00c8 9DED010A 		vldr.32	s0, [sp, #4]	@ int
 645              		.loc 15 57 2 is_stmt 0 view .LVU133
 646 00cc 02B0     		add	sp, sp, #8
 647              		.cfi_remember_state
 648              		.cfi_def_cfa_offset 16
 649              		@ sp needed
 650 00ce BDEC028B 		vldm	sp!, {d8}
 651              		.cfi_restore 80
 652              		.cfi_restore 81
 653              		.cfi_def_cfa_offset 8
 654              	.LVL35:
 655              		.loc 15 57 2 view .LVU134
 656 00d2 10BD     		pop	{r4, pc}
 657              	.LVL36:
 658              	.L25:
 659              		.cfi_restore_state
  30:Plinks.cpp    **** 		freq = nn + noMajPen[arp_idx];
 660              		.loc 15 30 2 is_stmt 1 view .LVU135
  31:Plinks.cpp    **** 		ledOff();
 661              		.loc 15 31 3 view .LVU136
  31:Plinks.cpp    **** 		ledOff();
 662              		.loc 15 31 24 is_stmt 0 view .LVU137
 663 00d4 244A     		ldr	r2, .L30+8
 664              	.LBB517:
 665              	.LBB518:
  58:daisy_bed.h   ****         gen_led2.Write(false);
 666              		.loc 14 58 23 view .LVU138
 667 00d6 0021     		movs	r1, #0
 668              	.LBE518:
 669              	.LBE517:
  31:Plinks.cpp    **** 		ledOff();
 670              		.loc 15 31 31 view .LVU139
 671 00d8 2B4B     		ldr	r3, .L30+40
  31:Plinks.cpp    **** 		ledOff();
 672              		.loc 15 31 24 view .LVU140
 673 00da 1278     		ldrb	r2, [r2]	@ zero_extendqisi2
 674              	.LBB521:
 675              	.LBB519:
  58:daisy_bed.h   ****         gen_led2.Write(false);
 676              		.loc 14 58 23 view .LVU141
 677 00dc 2448     		ldr	r0, .L30+16
 678              	.LBE519:
 679              	.LBE521:
  31:Plinks.cpp    **** 		ledOff();
 680              		.loc 15 31 31 view .LVU142
 681 00de 03EB8203 		add	r3, r3, r2, lsl #2
  31:Plinks.cpp    **** 		ledOff();
 682              		.loc 15 31 8 view .LVU143
 683 00e2 93ED000A 		vldr.32	s0, [r3]
 684 00e6 38EE000A 		vadd.f32	s0, s16, s0
 685 00ea 8DED010A 		vstr.32	s0, [sp, #4]	@ int
ARM GAS  /var/folders/hl/qgbwny5j0fd895c2c41bk3tw0000gp/T//cc4ErH94.s 			page 27


 686              	.LVL37:
  32:Plinks.cpp    **** 		gen_led1.Toggle();
 687              		.loc 15 32 3 is_stmt 1 view .LVU144
 688              	.LBB522:
 689              	.LBI517:
  57:daisy_bed.h   ****         gen_led1.Write(false);
 690              		.loc 14 57 10 view .LVU145
 691              	.LBB520:
  58:daisy_bed.h   ****         gen_led2.Write(false);
 692              		.loc 14 58 9 view .LVU146
  58:daisy_bed.h   ****         gen_led2.Write(false);
 693              		.loc 14 58 23 is_stmt 0 view .LVU147
 694 00ee FFF7FEFF 		bl	_ZN5daisy4GPIO5WriteEb
 695              	.LVL38:
  59:daisy_bed.h   ****         cv_led1.Write(false);
 696              		.loc 14 59 9 is_stmt 1 view .LVU148
  59:daisy_bed.h   ****         cv_led1.Write(false);
 697              		.loc 14 59 23 is_stmt 0 view .LVU149
 698 00f2 0021     		movs	r1, #0
 699 00f4 1F48     		ldr	r0, .L30+20
 700 00f6 FFF7FEFF 		bl	_ZN5daisy4GPIO5WriteEb
 701              	.LVL39:
  60:daisy_bed.h   ****         cv_led2.Write(false);
 702              		.loc 14 60 9 is_stmt 1 view .LVU150
  60:daisy_bed.h   ****         cv_led2.Write(false);
 703              		.loc 14 60 22 is_stmt 0 view .LVU151
 704 00fa 0021     		movs	r1, #0
 705 00fc 1E48     		ldr	r0, .L30+24
 706 00fe FFF7FEFF 		bl	_ZN5daisy4GPIO5WriteEb
 707              	.LVL40:
  61:daisy_bed.h   ****     }
 708              		.loc 14 61 9 is_stmt 1 view .LVU152
  61:daisy_bed.h   ****     }
 709              		.loc 14 61 22 is_stmt 0 view .LVU153
 710 0102 0021     		movs	r1, #0
 711 0104 1D48     		ldr	r0, .L30+28
 712 0106 FFF7FEFF 		bl	_ZN5daisy4GPIO5WriteEb
 713              	.LVL41:
 714              	.LBE520:
 715              	.LBE522:
  33:Plinks.cpp    **** 		break;
 716              		.loc 15 33 3 is_stmt 1 view .LVU154
  33:Plinks.cpp    **** 		break;
 717              		.loc 15 33 18 is_stmt 0 view .LVU155
 718 010a 1948     		ldr	r0, .L30+16
 719 010c FFF7FEFF 		bl	_ZN5daisy4GPIO6ToggleEv
 720              	.LVL42:
  34:Plinks.cpp    **** 	case 2:
 721              		.loc 15 34 3 is_stmt 1 view .LVU156
 722 0110 9DED010A 		vldr.32	s0, [sp, #4]	@ int
 723              		.loc 15 57 2 is_stmt 0 view .LVU157
 724 0114 02B0     		add	sp, sp, #8
 725              		.cfi_remember_state
 726              		.cfi_def_cfa_offset 16
 727              		@ sp needed
 728 0116 BDEC028B 		vldm	sp!, {d8}
 729              		.cfi_restore 80
ARM GAS  /var/folders/hl/qgbwny5j0fd895c2c41bk3tw0000gp/T//cc4ErH94.s 			page 28


 730              		.cfi_restore 81
 731              		.cfi_def_cfa_offset 8
 732              	.LVL43:
 733              		.loc 15 57 2 view .LVU158
 734 011a 10BD     		pop	{r4, pc}
 735              	.LVL44:
 736              	.L20:
 737              		.cfi_restore_state
  50:Plinks.cpp    **** 		freq = nn + noMajPen[arp_idx];
 738              		.loc 15 50 2 is_stmt 1 view .LVU159
  51:Plinks.cpp    **** 		ledOff();
 739              		.loc 15 51 3 view .LVU160
  51:Plinks.cpp    **** 		ledOff();
 740              		.loc 15 51 24 is_stmt 0 view .LVU161
 741 011c 124A     		ldr	r2, .L30+8
 742              	.LBB523:
 743              	.LBB524:
  58:daisy_bed.h   ****         gen_led2.Write(false);
 744              		.loc 14 58 23 view .LVU162
 745 011e 0021     		movs	r1, #0
 746              	.LBE524:
 747              	.LBE523:
  51:Plinks.cpp    **** 		ledOff();
 748              		.loc 15 51 31 view .LVU163
 749 0120 194B     		ldr	r3, .L30+40
  51:Plinks.cpp    **** 		ledOff();
 750              		.loc 15 51 24 view .LVU164
 751 0122 1278     		ldrb	r2, [r2]	@ zero_extendqisi2
 752              	.LBB527:
 753              	.LBB525:
  58:daisy_bed.h   ****         gen_led2.Write(false);
 754              		.loc 14 58 23 view .LVU165
 755 0124 1248     		ldr	r0, .L30+16
 756              	.LBE525:
 757              	.LBE527:
  51:Plinks.cpp    **** 		ledOff();
 758              		.loc 15 51 31 view .LVU166
 759 0126 03EB8203 		add	r3, r3, r2, lsl #2
  51:Plinks.cpp    **** 		ledOff();
 760              		.loc 15 51 8 view .LVU167
 761 012a 93ED000A 		vldr.32	s0, [r3]
 762 012e 38EE000A 		vadd.f32	s0, s16, s0
 763 0132 8DED010A 		vstr.32	s0, [sp, #4]	@ int
 764              	.LVL45:
  52:Plinks.cpp    **** 		gen_led1.Toggle();
 765              		.loc 15 52 3 is_stmt 1 view .LVU168
 766              	.LBB528:
 767              	.LBI523:
  57:daisy_bed.h   ****         gen_led1.Write(false);
 768              		.loc 14 57 10 view .LVU169
 769              	.LBB526:
  58:daisy_bed.h   ****         gen_led2.Write(false);
 770              		.loc 14 58 9 view .LVU170
  58:daisy_bed.h   ****         gen_led2.Write(false);
 771              		.loc 14 58 23 is_stmt 0 view .LVU171
 772 0136 FFF7FEFF 		bl	_ZN5daisy4GPIO5WriteEb
 773              	.LVL46:
ARM GAS  /var/folders/hl/qgbwny5j0fd895c2c41bk3tw0000gp/T//cc4ErH94.s 			page 29


  59:daisy_bed.h   ****         cv_led1.Write(false);
 774              		.loc 14 59 9 is_stmt 1 view .LVU172
  59:daisy_bed.h   ****         cv_led1.Write(false);
 775              		.loc 14 59 23 is_stmt 0 view .LVU173
 776 013a 0021     		movs	r1, #0
 777 013c 0D48     		ldr	r0, .L30+20
 778 013e FFF7FEFF 		bl	_ZN5daisy4GPIO5WriteEb
 779              	.LVL47:
  60:daisy_bed.h   ****         cv_led2.Write(false);
 780              		.loc 14 60 9 is_stmt 1 view .LVU174
  60:daisy_bed.h   ****         cv_led2.Write(false);
 781              		.loc 14 60 22 is_stmt 0 view .LVU175
 782 0142 0021     		movs	r1, #0
 783 0144 0C48     		ldr	r0, .L30+24
 784 0146 FFF7FEFF 		bl	_ZN5daisy4GPIO5WriteEb
 785              	.LVL48:
  61:daisy_bed.h   ****     }
 786              		.loc 14 61 9 is_stmt 1 view .LVU176
  61:daisy_bed.h   ****     }
 787              		.loc 14 61 22 is_stmt 0 view .LVU177
 788 014a 0C48     		ldr	r0, .L30+28
 789 014c 0021     		movs	r1, #0
 790 014e FFF7FEFF 		bl	_ZN5daisy4GPIO5WriteEb
 791              	.LVL49:
 792              	.LBE526:
 793              	.LBE528:
  53:Plinks.cpp    **** 		break;
 794              		.loc 15 53 3 is_stmt 1 view .LVU178
  53:Plinks.cpp    **** 		break;
 795              		.loc 15 53 18 is_stmt 0 view .LVU179
 796 0152 0748     		ldr	r0, .L30+16
 797 0154 FFF7FEFF 		bl	_ZN5daisy4GPIO6ToggleEv
 798              	.LVL50:
 799 0158 9DED010A 		vldr.32	s0, [sp, #4]	@ int
  54:Plinks.cpp    **** 	}
 800              		.loc 15 54 3 is_stmt 1 view .LVU180
  56:Plinks.cpp    **** 	}
 801              		.loc 15 56 2 view .LVU181
  56:Plinks.cpp    **** 	}
 802              		.loc 15 56 9 is_stmt 0 view .LVU182
 803 015c 8FE7     		b	.L16
 804              	.L31:
 805 015e 00BF     		.align	2
 806              	.L30:
 807 0160 00000000 		.word	.LANCHOR12
 808 0164 00000000 		.word	.LANCHOR14
 809 0168 00000000 		.word	.LANCHOR16
 810 016c 00000000 		.word	.LANCHOR19
 811 0170 00000000 		.word	.LANCHOR1
 812 0174 00000000 		.word	.LANCHOR3
 813 0178 00000000 		.word	.LANCHOR5
 814 017c 00000000 		.word	.LANCHOR7
 815 0180 00000000 		.word	.LANCHOR18
 816 0184 00000000 		.word	.LANCHOR17
 817 0188 00000000 		.word	.LANCHOR15
 818              		.cfi_endproc
 819              	.LFE4798:
ARM GAS  /var/folders/hl/qgbwny5j0fd895c2c41bk3tw0000gp/T//cc4ErH94.s 			page 30


 821              		.section	.text._Z13AudioCallbackPKPKfPPfj,"ax",%progbits
 822              		.align	1
 823              		.p2align 2,,3
 824              		.global	_Z13AudioCallbackPKPKfPPfj
 825              		.syntax unified
 826              		.thumb
 827              		.thumb_func
 828              		.fpu fpv5-d16
 830              	_Z13AudioCallbackPKPKfPPfj:
 831              	.LVL51:
 832              	.LFB4799:
  58:Plinks.cpp    **** 
  59:Plinks.cpp    **** void AudioCallback(AudioHandle::InputBuffer in, AudioHandle::OutputBuffer out, size_t size)
  60:Plinks.cpp    **** {
 833              		.loc 15 60 1 is_stmt 1 view -0
 834              		.cfi_startproc
 835              		@ args = 0, pretend = 0, frame = 8
 836              		@ frame_needed = 0, uses_anonymous_args = 0
  61:Plinks.cpp    **** 	hw.ProcessAllControls();
 837              		.loc 15 61 2 view .LVU184
 838              	.LBB638:
 839              	.LBI638:
  66:../../libDaisy//src/daisy_patch_sm.h **** 
  67:../../libDaisy//src/daisy_patch_sm.h ****         /** Initializes the memories, and core peripherals for the Daisy Patch SM */
  68:../../libDaisy//src/daisy_patch_sm.h ****         void Init();
  69:../../libDaisy//src/daisy_patch_sm.h **** 
  70:../../libDaisy//src/daisy_patch_sm.h ****         /** Starts a non-interleaving audio callback */
  71:../../libDaisy//src/daisy_patch_sm.h ****         void StartAudio(AudioHandle::AudioCallback cb);
  72:../../libDaisy//src/daisy_patch_sm.h **** 
  73:../../libDaisy//src/daisy_patch_sm.h ****         /** Starts an interleaving audio callback */
  74:../../libDaisy//src/daisy_patch_sm.h ****         void StartAudio(AudioHandle::InterleavingAudioCallback cb);
  75:../../libDaisy//src/daisy_patch_sm.h **** 
  76:../../libDaisy//src/daisy_patch_sm.h ****         /** Changes the callback that is executing.
  77:../../libDaisy//src/daisy_patch_sm.h ****          *  This may cause clicks if done while audio is processing.
  78:../../libDaisy//src/daisy_patch_sm.h ****          */
  79:../../libDaisy//src/daisy_patch_sm.h ****         void ChangeAudioCallback(AudioHandle::AudioCallback cb);
  80:../../libDaisy//src/daisy_patch_sm.h **** 
  81:../../libDaisy//src/daisy_patch_sm.h ****         /** Changes the callback that is executing.
  82:../../libDaisy//src/daisy_patch_sm.h ****          *  This may cause clicks if done while audio is processing.
  83:../../libDaisy//src/daisy_patch_sm.h ****          */
  84:../../libDaisy//src/daisy_patch_sm.h ****         void ChangeAudioCallback(AudioHandle::InterleavingAudioCallback cb);
  85:../../libDaisy//src/daisy_patch_sm.h **** 
  86:../../libDaisy//src/daisy_patch_sm.h ****         /** Stops the transmission of audio. */
  87:../../libDaisy//src/daisy_patch_sm.h ****         void StopAudio();
  88:../../libDaisy//src/daisy_patch_sm.h **** 
  89:../../libDaisy//src/daisy_patch_sm.h ****         /** Sets the number of samples processed in an audio callback. 
  90:../../libDaisy//src/daisy_patch_sm.h ****          *  This will only take effect on the next invocation of `StartAudio`
  91:../../libDaisy//src/daisy_patch_sm.h ****          */
  92:../../libDaisy//src/daisy_patch_sm.h ****         void SetAudioBlockSize(size_t size);
  93:../../libDaisy//src/daisy_patch_sm.h **** 
  94:../../libDaisy//src/daisy_patch_sm.h ****         /** Sets the samplerate for the audio engine 
  95:../../libDaisy//src/daisy_patch_sm.h ****          *  This will set it to the closest valid samplerate. Options being:
  96:../../libDaisy//src/daisy_patch_sm.h ****          *  8kHz, 16kHz, 32kHz, 48kHz, and 96kHz
  97:../../libDaisy//src/daisy_patch_sm.h ****          */
  98:../../libDaisy//src/daisy_patch_sm.h ****         void SetAudioSampleRate(float sr);
  99:../../libDaisy//src/daisy_patch_sm.h **** 
 100:../../libDaisy//src/daisy_patch_sm.h ****         void SetAudioSampleRate(SaiHandle::Config::SampleRate sample_rate);
ARM GAS  /var/folders/hl/qgbwny5j0fd895c2c41bk3tw0000gp/T//cc4ErH94.s 			page 31


 101:../../libDaisy//src/daisy_patch_sm.h **** 
 102:../../libDaisy//src/daisy_patch_sm.h ****         /** Returns the number of samples processed in an audio callback */
 103:../../libDaisy//src/daisy_patch_sm.h ****         size_t AudioBlockSize();
 104:../../libDaisy//src/daisy_patch_sm.h **** 
 105:../../libDaisy//src/daisy_patch_sm.h ****         /** Returns the audio engine's samplerate in Hz */
 106:../../libDaisy//src/daisy_patch_sm.h ****         float AudioSampleRate();
 107:../../libDaisy//src/daisy_patch_sm.h **** 
 108:../../libDaisy//src/daisy_patch_sm.h ****         /** Returns the rate at which the audio callback will be called in Hz */
 109:../../libDaisy//src/daisy_patch_sm.h ****         float AudioCallbackRate();
 110:../../libDaisy//src/daisy_patch_sm.h **** 
 111:../../libDaisy//src/daisy_patch_sm.h ****         /** Starts the Control ADCs 
 112:../../libDaisy//src/daisy_patch_sm.h ****          * 
 113:../../libDaisy//src/daisy_patch_sm.h ****          *  This is started automatically when Init() is called.
 114:../../libDaisy//src/daisy_patch_sm.h ****          */
 115:../../libDaisy//src/daisy_patch_sm.h ****         void StartAdc();
 116:../../libDaisy//src/daisy_patch_sm.h **** 
 117:../../libDaisy//src/daisy_patch_sm.h ****         /** Stops the Control ADCs */
 118:../../libDaisy//src/daisy_patch_sm.h ****         void StopAdc();
 119:../../libDaisy//src/daisy_patch_sm.h **** 
 120:../../libDaisy//src/daisy_patch_sm.h ****         /** Reads and filters all of the analog control inputs */
 121:../../libDaisy//src/daisy_patch_sm.h ****         void ProcessAnalogControls();
 122:../../libDaisy//src/daisy_patch_sm.h **** 
 123:../../libDaisy//src/daisy_patch_sm.h ****         /** Reads and debounces any of the digital control inputs 
 124:../../libDaisy//src/daisy_patch_sm.h ****          *  This does nothing on this board at this time.
 125:../../libDaisy//src/daisy_patch_sm.h ****          */
 126:../../libDaisy//src/daisy_patch_sm.h ****         void ProcessDigitalControls();
 127:../../libDaisy//src/daisy_patch_sm.h **** 
 128:../../libDaisy//src/daisy_patch_sm.h ****         /** Does both of the above */
 129:../../libDaisy//src/daisy_patch_sm.h ****         void ProcessAllControls()
 840              		.loc 5 129 14 view .LVU185
 841              	.LBB639:
 130:../../libDaisy//src/daisy_patch_sm.h ****         {
 131:../../libDaisy//src/daisy_patch_sm.h ****             ProcessAnalogControls();
 842              		.loc 5 131 13 view .LVU186
 843              	.LBE639:
 844              	.LBE638:
  60:Plinks.cpp    **** 	hw.ProcessAllControls();
 845              		.loc 15 60 1 is_stmt 0 view .LVU187
 846 0000 2DE9F04F 		push	{r4, r5, r6, r7, r8, r9, r10, fp, lr}
 847              		.cfi_def_cfa_offset 36
 848              		.cfi_offset 4, -36
 849              		.cfi_offset 5, -32
 850              		.cfi_offset 6, -28
 851              		.cfi_offset 7, -24
 852              		.cfi_offset 8, -20
 853              		.cfi_offset 9, -16
 854              		.cfi_offset 10, -12
 855              		.cfi_offset 11, -8
 856              		.cfi_offset 14, -4
 857              	.LBB642:
 858              	.LBB640:
 859              		.loc 5 131 34 view .LVU188
 860 0004 C348     		ldr	r0, .L63
 861              	.LVL52:
 862              		.loc 5 131 34 view .LVU189
 863              	.LBE640:
 864              	.LBE642:
ARM GAS  /var/folders/hl/qgbwny5j0fd895c2c41bk3tw0000gp/T//cc4ErH94.s 			page 32


  60:Plinks.cpp    **** 	hw.ProcessAllControls();
 865              		.loc 15 60 1 view .LVU190
 866 0006 9246     		mov	r10, r2
 867 0008 8846     		mov	r8, r1
 868              	.LBB643:
 869              	.LBB644:
  24:../../DaisySP//Source/PhysicalModeling/PolyPluck.h **** {
  25:../../DaisySP//Source/PhysicalModeling/PolyPluck.h ****   public:
  26:../../DaisySP//Source/PhysicalModeling/PolyPluck.h ****     /** Initializes the PolyPluck instance.
  27:../../DaisySP//Source/PhysicalModeling/PolyPluck.h ****         \param sample_rate: rate in Hz that the Process() function will be called.
  28:../../DaisySP//Source/PhysicalModeling/PolyPluck.h ****     */
  29:../../DaisySP//Source/PhysicalModeling/PolyPluck.h ****     void Init(float sample_rate)
  30:../../DaisySP//Source/PhysicalModeling/PolyPluck.h ****     {
  31:../../DaisySP//Source/PhysicalModeling/PolyPluck.h ****         active_voice_ = 0;
  32:../../DaisySP//Source/PhysicalModeling/PolyPluck.h ****         p_damp_       = 0.95f;
  33:../../DaisySP//Source/PhysicalModeling/PolyPluck.h ****         p_decay_      = 0.75f;
  34:../../DaisySP//Source/PhysicalModeling/PolyPluck.h ****         for(size_t i = 0; i < num_voices; i++)
  35:../../DaisySP//Source/PhysicalModeling/PolyPluck.h ****         {
  36:../../DaisySP//Source/PhysicalModeling/PolyPluck.h ****             plk_[i].Init(sample_rate, plkbuff_[i], 256, PLUCK_MODE_RECURSIVE);
  37:../../DaisySP//Source/PhysicalModeling/PolyPluck.h ****             plk_[i].SetDamp(0.85f);
  38:../../DaisySP//Source/PhysicalModeling/PolyPluck.h ****             plk_[i].SetAmp(0.18f);
  39:../../DaisySP//Source/PhysicalModeling/PolyPluck.h ****             plk_[i].SetDecay(0.85f);
  40:../../DaisySP//Source/PhysicalModeling/PolyPluck.h ****         }
  41:../../DaisySP//Source/PhysicalModeling/PolyPluck.h ****         blk_.Init(sample_rate);
  42:../../DaisySP//Source/PhysicalModeling/PolyPluck.h ****     }
  43:../../DaisySP//Source/PhysicalModeling/PolyPluck.h **** 
  44:../../DaisySP//Source/PhysicalModeling/PolyPluck.h ****     /** Process function, synthesizes and sums the output of all voices,
  45:../../DaisySP//Source/PhysicalModeling/PolyPluck.h ****         triggering a new voice with frequency of MIDI note number when trig > 0.
  46:../../DaisySP//Source/PhysicalModeling/PolyPluck.h **** 
  47:../../DaisySP//Source/PhysicalModeling/PolyPluck.h ****         \param trig: value by reference of trig. When trig > 0 a the next voice will be triggered, 
  48:../../DaisySP//Source/PhysicalModeling/PolyPluck.h ****         \param note: MIDI note number for the active_voice.
  49:../../DaisySP//Source/PhysicalModeling/PolyPluck.h ****     */
  50:../../DaisySP//Source/PhysicalModeling/PolyPluck.h ****     float Process(float &trig, float note)
  51:../../DaisySP//Source/PhysicalModeling/PolyPluck.h ****     {
  52:../../DaisySP//Source/PhysicalModeling/PolyPluck.h ****         float sig, tval;
  53:../../DaisySP//Source/PhysicalModeling/PolyPluck.h ****         sig = 0.0f;
  54:../../DaisySP//Source/PhysicalModeling/PolyPluck.h ****         if(trig > 0.0f)
  55:../../DaisySP//Source/PhysicalModeling/PolyPluck.h ****         {
  56:../../DaisySP//Source/PhysicalModeling/PolyPluck.h ****             // increment active voice
  57:../../DaisySP//Source/PhysicalModeling/PolyPluck.h ****             active_voice_ = (active_voice_ + 1) % num_voices;
  58:../../DaisySP//Source/PhysicalModeling/PolyPluck.h ****             // set new voice to new note
  59:../../DaisySP//Source/PhysicalModeling/PolyPluck.h ****             plk_[active_voice_].SetDamp(p_damp_);
  60:../../DaisySP//Source/PhysicalModeling/PolyPluck.h ****             plk_[active_voice_].SetDecay(p_decay_);
  61:../../DaisySP//Source/PhysicalModeling/PolyPluck.h ****             plk_[active_voice_].SetAmp(0.25f);
  62:../../DaisySP//Source/PhysicalModeling/PolyPluck.h ****         }
  63:../../DaisySP//Source/PhysicalModeling/PolyPluck.h ****         plk_[active_voice_].SetFreq(mtof(note));
  64:../../DaisySP//Source/PhysicalModeling/PolyPluck.h **** 
  65:../../DaisySP//Source/PhysicalModeling/PolyPluck.h ****         for(size_t i = 0; i < num_voices; i++)
  66:../../DaisySP//Source/PhysicalModeling/PolyPluck.h ****         {
  67:../../DaisySP//Source/PhysicalModeling/PolyPluck.h ****             tval = (trig > 0.0f && i == active_voice_) ? 1.0f : 0.0f;
  68:../../DaisySP//Source/PhysicalModeling/PolyPluck.h ****             sig += plk_[i].Process(tval);
  69:../../DaisySP//Source/PhysicalModeling/PolyPluck.h ****         }
  70:../../DaisySP//Source/PhysicalModeling/PolyPluck.h ****         if(trig > 0.0f)
  71:../../DaisySP//Source/PhysicalModeling/PolyPluck.h ****             trig = 0.0f;
  72:../../DaisySP//Source/PhysicalModeling/PolyPluck.h ****         return blk_.Process(sig);
  73:../../DaisySP//Source/PhysicalModeling/PolyPluck.h ****     }
  74:../../DaisySP//Source/PhysicalModeling/PolyPluck.h **** 
ARM GAS  /var/folders/hl/qgbwny5j0fd895c2c41bk3tw0000gp/T//cc4ErH94.s 			page 33


  75:../../DaisySP//Source/PhysicalModeling/PolyPluck.h ****     /** Sets the decay coefficients of the pluck voices. 
  76:../../DaisySP//Source/PhysicalModeling/PolyPluck.h ****         \param p expects 0.0-1.0 input.
  77:../../DaisySP//Source/PhysicalModeling/PolyPluck.h ****     */
  78:../../DaisySP//Source/PhysicalModeling/PolyPluck.h ****     void SetDecay(float p) { p_damp_ = p; }
 870              		.loc 12 78 38 view .LVU191
 871 000a C34E     		ldr	r6, .L63+4
 872              	.LBE644:
 873              	.LBE643:
 874              	.LBB647:
 875              	.LBB648:
  42:../../DaisySP//Source/Effects/reverbsc.h ****     /** Initializes the reverb module, and sets the sample_rate at which the Process function will 
  43:../../DaisySP//Source/Effects/reverbsc.h ****         Returns 0 if all good, or 1 if it runs out of delay times exceed maximum allowed.
  44:../../DaisySP//Source/Effects/reverbsc.h ****     */
  45:../../DaisySP//Source/Effects/reverbsc.h ****     int Init(float sample_rate);
  46:../../DaisySP//Source/Effects/reverbsc.h **** 
  47:../../DaisySP//Source/Effects/reverbsc.h ****     /** Process the input through the reverb, and updates values of out1, and out2 with the new pro
  48:../../DaisySP//Source/Effects/reverbsc.h ****     */
  49:../../DaisySP//Source/Effects/reverbsc.h ****     int Process(const float &in1, const float &in2, float *out1, float *out2);
  50:../../DaisySP//Source/Effects/reverbsc.h **** 
  51:../../DaisySP//Source/Effects/reverbsc.h ****     /** controls the reverb time. reverb tail becomes infinite when set to 1.0
  52:../../DaisySP//Source/Effects/reverbsc.h ****         \param fb - sets reverb time. range: 0.0 to 1.0
  53:../../DaisySP//Source/Effects/reverbsc.h ****     */
  54:../../DaisySP//Source/Effects/reverbsc.h ****     inline void SetFeedback(const float &fb) { feedback_ = fb; }
 876              		.loc 3 54 58 view .LVU192
 877 000c C34C     		ldr	r4, .L63+8
 878              	.LBE648:
 879              	.LBE647:
  60:Plinks.cpp    **** 	hw.ProcessAllControls();
 880              		.loc 15 60 1 view .LVU193
 881 000e 2DED088B 		vpush.64	{d8, d9, d10, d11}
 882              		.cfi_def_cfa_offset 68
 883              		.cfi_offset 80, -68
 884              		.cfi_offset 81, -64
 885              		.cfi_offset 82, -60
 886              		.cfi_offset 83, -56
 887              		.cfi_offset 84, -52
 888              		.cfi_offset 85, -48
 889              		.cfi_offset 86, -44
 890              		.cfi_offset 87, -40
 891 0012 85B0     		sub	sp, sp, #20
 892              		.cfi_def_cfa_offset 88
 893              	.LBB650:
 894              	.LBB651:
 895              		.file 16 "../../DaisySP//Source/Utility/dsp.h"
   1:../../DaisySP//Source/Utility/dsp.h **** /** Helpful defines, functions, and other utilities for use in/with daisysp modules.
   2:../../DaisySP//Source/Utility/dsp.h **** */
   3:../../DaisySP//Source/Utility/dsp.h **** #pragma once
   4:../../DaisySP//Source/Utility/dsp.h **** #ifndef DSY_CORE_DSP
   5:../../DaisySP//Source/Utility/dsp.h **** #define DSY_CORE_DSP
   6:../../DaisySP//Source/Utility/dsp.h **** #include <cassert>
   7:../../DaisySP//Source/Utility/dsp.h **** #include <cstdint>
   8:../../DaisySP//Source/Utility/dsp.h **** #include <random>
   9:../../DaisySP//Source/Utility/dsp.h **** #include <cmath>
  10:../../DaisySP//Source/Utility/dsp.h **** 
  11:../../DaisySP//Source/Utility/dsp.h **** /** PIs
  12:../../DaisySP//Source/Utility/dsp.h **** */
  13:../../DaisySP//Source/Utility/dsp.h **** #define PI_F 3.1415927410125732421875f
ARM GAS  /var/folders/hl/qgbwny5j0fd895c2c41bk3tw0000gp/T//cc4ErH94.s 			page 34


  14:../../DaisySP//Source/Utility/dsp.h **** #define TWOPI_F (2.0f * PI_F)
  15:../../DaisySP//Source/Utility/dsp.h **** #define HALFPI_F (PI_F * 0.5f)
  16:../../DaisySP//Source/Utility/dsp.h **** #define DSY_MIN(in, mn) (in < mn ? in : mn)
  17:../../DaisySP//Source/Utility/dsp.h **** #define DSY_MAX(in, mx) (in > mx ? in : mx)
  18:../../DaisySP//Source/Utility/dsp.h **** #define DSY_CLAMP(in, mn, mx) (DSY_MIN(DSY_MAX(in, mn), mx))
  19:../../DaisySP//Source/Utility/dsp.h **** #define DSY_COUNTOF(_arr) (sizeof(_arr) / sizeof(_arr[0]))
  20:../../DaisySP//Source/Utility/dsp.h **** 
  21:../../DaisySP//Source/Utility/dsp.h **** namespace daisysp
  22:../../DaisySP//Source/Utility/dsp.h **** {
  23:../../DaisySP//Source/Utility/dsp.h **** //Avoids division for random floats. e.g. rand() * kRandFrac
  24:../../DaisySP//Source/Utility/dsp.h **** static constexpr float kRandFrac = 1.f / (float)RAND_MAX;
  25:../../DaisySP//Source/Utility/dsp.h **** 
  26:../../DaisySP//Source/Utility/dsp.h **** //Convert from semitones to other units. e.g. 2 ^ (kOneTwelfth * x)
  27:../../DaisySP//Source/Utility/dsp.h **** static constexpr float kOneTwelfth = 1.f / 12.f;
  28:../../DaisySP//Source/Utility/dsp.h **** 
  29:../../DaisySP//Source/Utility/dsp.h **** /** efficient floating point min/max
  30:../../DaisySP//Source/Utility/dsp.h **** c/o stephen mccaul
  31:../../DaisySP//Source/Utility/dsp.h **** */
  32:../../DaisySP//Source/Utility/dsp.h **** inline float fmax(float a, float b)
  33:../../DaisySP//Source/Utility/dsp.h **** {
  34:../../DaisySP//Source/Utility/dsp.h ****     float r;
  35:../../DaisySP//Source/Utility/dsp.h **** #ifdef __arm__
  36:../../DaisySP//Source/Utility/dsp.h ****     asm("vmaxnm.f32 %[d], %[n], %[m]" : [d] "=t"(r) : [n] "t"(a), [m] "t"(b) :);
  37:../../DaisySP//Source/Utility/dsp.h **** #else
  38:../../DaisySP//Source/Utility/dsp.h ****     r = (a > b) ? a : b;
  39:../../DaisySP//Source/Utility/dsp.h **** #endif // __arm__
  40:../../DaisySP//Source/Utility/dsp.h ****     return r;
  41:../../DaisySP//Source/Utility/dsp.h **** }
  42:../../DaisySP//Source/Utility/dsp.h **** 
  43:../../DaisySP//Source/Utility/dsp.h **** inline float fmin(float a, float b)
  44:../../DaisySP//Source/Utility/dsp.h **** {
  45:../../DaisySP//Source/Utility/dsp.h ****     float r;
  46:../../DaisySP//Source/Utility/dsp.h **** #ifdef __arm__
  47:../../DaisySP//Source/Utility/dsp.h ****     asm("vminnm.f32 %[d], %[n], %[m]" : [d] "=t"(r) : [n] "t"(a), [m] "t"(b) :);
  48:../../DaisySP//Source/Utility/dsp.h **** #else
  49:../../DaisySP//Source/Utility/dsp.h ****     r = (a < b) ? a : b;
  50:../../DaisySP//Source/Utility/dsp.h **** #endif // __arm__
  51:../../DaisySP//Source/Utility/dsp.h ****     return r;
  52:../../DaisySP//Source/Utility/dsp.h **** }
  53:../../DaisySP//Source/Utility/dsp.h **** 
  54:../../DaisySP//Source/Utility/dsp.h **** /** quick fp clamp
  55:../../DaisySP//Source/Utility/dsp.h **** */
  56:../../DaisySP//Source/Utility/dsp.h **** inline float fclamp(float in, float min, float max)
  57:../../DaisySP//Source/Utility/dsp.h **** {
  58:../../DaisySP//Source/Utility/dsp.h ****     return fmin(fmax(in, min), max);
  59:../../DaisySP//Source/Utility/dsp.h **** }
  60:../../DaisySP//Source/Utility/dsp.h **** 
  61:../../DaisySP//Source/Utility/dsp.h **** /** From Musicdsp.org "Fast power and root estimates for 32bit floats)
  62:../../DaisySP//Source/Utility/dsp.h **** Original code by Stefan Stenzel
  63:../../DaisySP//Source/Utility/dsp.h **** These are approximations
  64:../../DaisySP//Source/Utility/dsp.h **** */
  65:../../DaisySP//Source/Utility/dsp.h **** inline float fastpower(float f, int n)
  66:../../DaisySP//Source/Utility/dsp.h **** {
  67:../../DaisySP//Source/Utility/dsp.h ****     long *lp, l;
  68:../../DaisySP//Source/Utility/dsp.h ****     lp = (long *)(&f);
  69:../../DaisySP//Source/Utility/dsp.h ****     l  = *lp;
  70:../../DaisySP//Source/Utility/dsp.h ****     l -= 0x3F800000;
ARM GAS  /var/folders/hl/qgbwny5j0fd895c2c41bk3tw0000gp/T//cc4ErH94.s 			page 35


  71:../../DaisySP//Source/Utility/dsp.h ****     l <<= (n - 1);
  72:../../DaisySP//Source/Utility/dsp.h ****     l += 0x3F800000;
  73:../../DaisySP//Source/Utility/dsp.h ****     *lp = l;
  74:../../DaisySP//Source/Utility/dsp.h ****     return f;
  75:../../DaisySP//Source/Utility/dsp.h **** }
  76:../../DaisySP//Source/Utility/dsp.h **** 
  77:../../DaisySP//Source/Utility/dsp.h **** inline float fastroot(float f, int n)
  78:../../DaisySP//Source/Utility/dsp.h **** {
  79:../../DaisySP//Source/Utility/dsp.h ****     long *lp, l;
  80:../../DaisySP//Source/Utility/dsp.h ****     lp = (long *)(&f);
  81:../../DaisySP//Source/Utility/dsp.h ****     l  = *lp;
  82:../../DaisySP//Source/Utility/dsp.h ****     l -= 0x3F800000;
  83:../../DaisySP//Source/Utility/dsp.h ****     l >>= (n = 1);
  84:../../DaisySP//Source/Utility/dsp.h ****     l += 0x3F800000;
  85:../../DaisySP//Source/Utility/dsp.h ****     *lp = l;
  86:../../DaisySP//Source/Utility/dsp.h ****     return f;
  87:../../DaisySP//Source/Utility/dsp.h **** }
  88:../../DaisySP//Source/Utility/dsp.h **** 
  89:../../DaisySP//Source/Utility/dsp.h **** /** From http://openaudio.blogspot.com/2017/02/faster-log10-and-pow.html
  90:../../DaisySP//Source/Utility/dsp.h **** No approximation, pow10f(x) gives a 90% speed increase over powf(10.f, x)
  91:../../DaisySP//Source/Utility/dsp.h **** */
  92:../../DaisySP//Source/Utility/dsp.h **** inline float pow10f(float f)
  93:../../DaisySP//Source/Utility/dsp.h **** {
  94:../../DaisySP//Source/Utility/dsp.h ****     return expf(2.302585092994046f * f);
  95:../../DaisySP//Source/Utility/dsp.h **** }
  96:../../DaisySP//Source/Utility/dsp.h **** 
  97:../../DaisySP//Source/Utility/dsp.h **** /* Original code for fastlog2f by Dr. Paul Beckmann from the ARM community forum, adapted from the 
  98:../../DaisySP//Source/Utility/dsp.h **** About 25% performance increase over std::log10f
  99:../../DaisySP//Source/Utility/dsp.h **** */
 100:../../DaisySP//Source/Utility/dsp.h **** inline float fastlog2f(float f)
 101:../../DaisySP//Source/Utility/dsp.h **** {
 102:../../DaisySP//Source/Utility/dsp.h ****     float frac;
 103:../../DaisySP//Source/Utility/dsp.h ****     int   exp;
 104:../../DaisySP//Source/Utility/dsp.h ****     frac = frexpf(fabsf(f), &exp);
 105:../../DaisySP//Source/Utility/dsp.h ****     f    = 1.23149591368684f;
 106:../../DaisySP//Source/Utility/dsp.h ****     f *= frac;
 107:../../DaisySP//Source/Utility/dsp.h ****     f += -4.11852516267426f;
 108:../../DaisySP//Source/Utility/dsp.h ****     f *= frac;
 109:../../DaisySP//Source/Utility/dsp.h ****     f += 6.02197014179219f;
 110:../../DaisySP//Source/Utility/dsp.h ****     f *= frac;
 111:../../DaisySP//Source/Utility/dsp.h ****     f += -3.13396450166353f;
 112:../../DaisySP//Source/Utility/dsp.h ****     f += exp;
 113:../../DaisySP//Source/Utility/dsp.h ****     return (f);
 114:../../DaisySP//Source/Utility/dsp.h **** }
 115:../../DaisySP//Source/Utility/dsp.h **** 
 116:../../DaisySP//Source/Utility/dsp.h **** inline float fastlog10f(float f)
 117:../../DaisySP//Source/Utility/dsp.h **** {
 118:../../DaisySP//Source/Utility/dsp.h ****     return fastlog2f(f) * 0.3010299956639812f;
 119:../../DaisySP//Source/Utility/dsp.h **** }
 120:../../DaisySP//Source/Utility/dsp.h **** 
 121:../../DaisySP//Source/Utility/dsp.h **** /** Midi to frequency helper
 122:../../DaisySP//Source/Utility/dsp.h **** */
 123:../../DaisySP//Source/Utility/dsp.h **** inline float mtof(float m)
 124:../../DaisySP//Source/Utility/dsp.h **** {
 125:../../DaisySP//Source/Utility/dsp.h ****     return powf(2, (m - 69.0f) / 12.0f) * 440.0f;
 126:../../DaisySP//Source/Utility/dsp.h **** }
 127:../../DaisySP//Source/Utility/dsp.h **** 
ARM GAS  /var/folders/hl/qgbwny5j0fd895c2c41bk3tw0000gp/T//cc4ErH94.s 			page 36


 128:../../DaisySP//Source/Utility/dsp.h **** 
 129:../../DaisySP//Source/Utility/dsp.h **** /** one pole lpf
 130:../../DaisySP//Source/Utility/dsp.h **** out is passed by reference, and must be retained between
 131:../../DaisySP//Source/Utility/dsp.h **** calls to properly filter the signal
 132:../../DaisySP//Source/Utility/dsp.h **** coeff can be calculated:
 133:../../DaisySP//Source/Utility/dsp.h **** coeff = 1.0 / (time * sample_rate) ; where time is in seconds
 134:../../DaisySP//Source/Utility/dsp.h **** */
 135:../../DaisySP//Source/Utility/dsp.h **** inline void fonepole(float &out, float in, float coeff)
 136:../../DaisySP//Source/Utility/dsp.h **** {
 137:../../DaisySP//Source/Utility/dsp.h ****     out += coeff * (in - out);
 138:../../DaisySP//Source/Utility/dsp.h **** }
 139:../../DaisySP//Source/Utility/dsp.h **** 
 140:../../DaisySP//Source/Utility/dsp.h **** /** Curves to use with the fmap function */
 141:../../DaisySP//Source/Utility/dsp.h **** enum class Mapping
 142:../../DaisySP//Source/Utility/dsp.h **** {
 143:../../DaisySP//Source/Utility/dsp.h ****     LINEAR,
 144:../../DaisySP//Source/Utility/dsp.h ****     EXP,
 145:../../DaisySP//Source/Utility/dsp.h ****     LOG,
 146:../../DaisySP//Source/Utility/dsp.h **** };
 147:../../DaisySP//Source/Utility/dsp.h **** 
 148:../../DaisySP//Source/Utility/dsp.h **** /** Maps a float between a specified range, using a specified curve. 
 149:../../DaisySP//Source/Utility/dsp.h ****  * 
 150:../../DaisySP//Source/Utility/dsp.h ****  *  \param in a value between 0 to 1 that will be mapped to the new range.
 151:../../DaisySP//Source/Utility/dsp.h ****  *  \param min the new minimum value
 152:../../DaisySP//Source/Utility/dsp.h ****  *  \param max the new maxmimum value
 153:../../DaisySP//Source/Utility/dsp.h ****  *  \param curve a Mapping Value to adjust the response curve of the transformation
 154:../../DaisySP//Source/Utility/dsp.h ****  *               defaults to Linear. @see Mapping
 155:../../DaisySP//Source/Utility/dsp.h ****  * 
 156:../../DaisySP//Source/Utility/dsp.h ****  *  When using the log curve min and max, must be greater than zero.
 157:../../DaisySP//Source/Utility/dsp.h ****  * 
 158:../../DaisySP//Source/Utility/dsp.h ****  *  \retval returns the transformed float within the new range.
 159:../../DaisySP//Source/Utility/dsp.h **** */
 160:../../DaisySP//Source/Utility/dsp.h **** inline float
 161:../../DaisySP//Source/Utility/dsp.h **** fmap(float in, float min, float max, Mapping curve = Mapping::LINEAR)
 162:../../DaisySP//Source/Utility/dsp.h **** {
 163:../../DaisySP//Source/Utility/dsp.h ****     switch(curve)
 164:../../DaisySP//Source/Utility/dsp.h ****     {
 165:../../DaisySP//Source/Utility/dsp.h ****         case Mapping::EXP:
 166:../../DaisySP//Source/Utility/dsp.h ****             return fclamp(min + (in * in) * (max - min), min, max);
 167:../../DaisySP//Source/Utility/dsp.h ****         case Mapping::LOG:
 168:../../DaisySP//Source/Utility/dsp.h ****         {
 169:../../DaisySP//Source/Utility/dsp.h ****             const float a = 1.f / log10f(max / min);
 170:../../DaisySP//Source/Utility/dsp.h ****             return fclamp(min * powf(10, in / a), min, max);
 171:../../DaisySP//Source/Utility/dsp.h ****         }
 172:../../DaisySP//Source/Utility/dsp.h ****         case Mapping::LINEAR:
 173:../../DaisySP//Source/Utility/dsp.h ****         default: return fclamp(min + in * (max - min), min, max);
 896              		.loc 16 173 31 view .LVU194
 897 0014 DFEDC28A 		vldr.32	s17, .L63+12
 898              	.LBE651:
 899              	.LBE650:
 900              	.LBB669:
 901              	.LBB641:
 902              		.loc 5 131 34 view .LVU195
 903 0018 FFF7FEFF 		bl	_ZN5daisy8patch_sm12DaisyPatchSM21ProcessAnalogControlsEv
 904              	.LVL53:
 132:../../libDaisy//src/daisy_patch_sm.h ****             ProcessDigitalControls();
 905              		.loc 5 132 13 is_stmt 1 view .LVU196
ARM GAS  /var/folders/hl/qgbwny5j0fd895c2c41bk3tw0000gp/T//cc4ErH94.s 			page 37


 906              		.loc 5 132 35 is_stmt 0 view .LVU197
 907 001c BD48     		ldr	r0, .L63
 908 001e FFF7FEFF 		bl	_ZN5daisy8patch_sm12DaisyPatchSM22ProcessDigitalControlsEv
 909              	.LVL54:
 910              		.loc 5 132 35 view .LVU198
 911              	.LBE641:
 912              	.LBE669:
  62:Plinks.cpp    **** 	float nn, trig, sig_out;
 913              		.loc 15 62 2 is_stmt 1 view .LVU199
  63:Plinks.cpp    **** 	trig = 0.f;
 914              		.loc 15 63 2 view .LVU200
  64:Plinks.cpp    **** 
  65:Plinks.cpp    **** 	float decay = fmap(hw.GetAdcValue(CV_4), 0.f, 1.f);
 915              		.loc 15 65 2 view .LVU201
 916              		.loc 15 65 20 is_stmt 0 view .LVU202
 917 0022 0321     		movs	r1, #3
 918 0024 BB48     		ldr	r0, .L63
 919              	.LBB670:
 920              	.LBB671:
 921              	.LBB672:
 922              	.LBB673:
 923              	.LBB674:
  47:../../DaisySP//Source/Utility/dsp.h **** #else
 924              		.loc 16 47 5 view .LVU203
 925 0026 F1EE049A 		vmov.f32	s19, #5.0e+0
 926              	.LBE674:
 927              	.LBE673:
 928              	.LBE672:
 929              	.LBE671:
 930              	.LBE670:
 931              		.loc 15 65 20 view .LVU204
 932 002a FFF7FEFF 		bl	_ZN5daisy8patch_sm12DaisyPatchSM11GetAdcValueEi
 933              	.LVL55:
 934              	.LBB686:
 935              	.LBI650:
 161:../../DaisySP//Source/Utility/dsp.h **** {
 936              		.loc 16 161 1 is_stmt 1 view .LVU205
 937              	.LBE686:
 163:../../DaisySP//Source/Utility/dsp.h ****     {
 938              		.loc 16 163 5 view .LVU206
 939              	.LBB687:
 940              	.LBB664:
 172:../../DaisySP//Source/Utility/dsp.h ****         default: return fclamp(min + in * (max - min), min, max);
 941              		.loc 16 172 9 view .LVU207
 942              		.loc 16 173 9 view .LVU208
 943              		.loc 16 173 18 view .LVU209
 944              	.LBB652:
 945              	.LBI652:
  56:../../DaisySP//Source/Utility/dsp.h **** {
 946              		.loc 16 56 14 view .LVU210
 947              	.LBE652:
 948              	.LBE664:
 949              	.LBE687:
  58:../../DaisySP//Source/Utility/dsp.h **** }
 950              		.loc 16 58 5 view .LVU211
 951              	.LBB688:
 952              	.LBB665:
ARM GAS  /var/folders/hl/qgbwny5j0fd895c2c41bk3tw0000gp/T//cc4ErH94.s 			page 38


 953              	.LBB661:
 954              	.LBB653:
 955              	.LBI653:
  32:../../DaisySP//Source/Utility/dsp.h **** {
 956              		.loc 16 32 14 view .LVU212
 957              	.LBB654:
  34:../../DaisySP//Source/Utility/dsp.h **** #ifdef __arm__
 958              		.loc 16 34 5 view .LVU213
  36:../../DaisySP//Source/Utility/dsp.h **** #else
 959              		.loc 16 36 5 view .LVU214
 960              	.LBE654:
 961              	.LBE653:
 962              	.LBE661:
 963              	.LBE665:
 964              	.LBE688:
 965              	.LBB689:
 966              	.LBB645:
 967              		.loc 12 78 38 is_stmt 0 view .LVU215
 968 002e 06F28C63 		addw	r3, r6, #1676
 969              	.LBE645:
 970              	.LBE689:
  66:Plinks.cpp    **** 	pp.SetDecay(decay);
  67:Plinks.cpp    **** 	
  68:Plinks.cpp    **** 	float feedback = fmap(hw.GetAdcValue(CV_3), 0.f, 0.9f);
 971              		.loc 15 68 23 view .LVU216
 972 0032 0221     		movs	r1, #2
 973 0034 B748     		ldr	r0, .L63
 974              	.LBB690:
 975              	.LBB666:
 976              	.LBB662:
 977              	.LBB656:
 978              	.LBB657:
  47:../../DaisySP//Source/Utility/dsp.h **** #else
 979              		.loc 16 47 5 view .LVU217
 980 0036 B7EE007A 		vmov.f32	s14, #1.0e+0
 981              	.LBE657:
 982              	.LBE656:
 983              	.LBE662:
 984              	.LBE666:
 985              	.LBE690:
 986              	.LBB691:
 987              	.LBB692:
 988              	.LBB693:
 170:../../DaisySP//Source/Utility/dsp.h ****         }
 989              		.loc 16 170 37 view .LVU218
 990 003a 9FEDBABA 		vldr.32	s22, .L63+16
 991              	.LBE693:
 992              	.LBE692:
 993              	.LBE691:
 994              	.LBB719:
 995              	.LBB667:
 996              		.loc 16 173 31 view .LVU219
 997 003e 70EE287A 		vadd.f32	s15, s0, s17
 998              	.LVL56:
 999              		.loc 16 173 31 view .LVU220
 1000              	.LBE667:
 1001              	.LBE719:
ARM GAS  /var/folders/hl/qgbwny5j0fd895c2c41bk3tw0000gp/T//cc4ErH94.s 			page 39


 1002              	.LBB720:
 1003              	.LBB712:
 1004              	.LBB706:
 170:../../DaisySP//Source/Utility/dsp.h ****         }
 1005              		.loc 16 170 26 view .LVU221
 1006 0042 9FEDB98A 		vldr.32	s16, .L63+20
 1007              	.LBE706:
 1008              	.LBE712:
 1009              	.LBE720:
 1010              	.LBB721:
 1011              	.LBB668:
 1012              	.LBB663:
 1013              	.LBB659:
 1014              	.LBB655:
  36:../../DaisySP//Source/Utility/dsp.h **** #else
 1015              		.loc 16 36 5 view .LVU222
 1016              		.syntax unified
 1017              	@ 36 "../../DaisySP//Source/Utility/dsp.h" 1
 1018 0046 C7FEA87A 		vmaxnm.f32 s15, s15, s17
 1019              	@ 0 "" 2
 1020              	.LVL57:
  40:../../DaisySP//Source/Utility/dsp.h **** }
 1021              		.loc 16 40 5 is_stmt 1 view .LVU223
  40:../../DaisySP//Source/Utility/dsp.h **** }
 1022              		.loc 16 40 5 is_stmt 0 view .LVU224
 1023              		.thumb
 1024              		.syntax unified
 1025              	.LBE655:
 1026              	.LBE659:
 1027              	.LBB660:
 1028              	.LBI656:
  43:../../DaisySP//Source/Utility/dsp.h **** {
 1029              		.loc 16 43 14 is_stmt 1 view .LVU225
 1030              	.LBB658:
  45:../../DaisySP//Source/Utility/dsp.h **** #ifdef __arm__
 1031              		.loc 16 45 5 view .LVU226
  47:../../DaisySP//Source/Utility/dsp.h **** #else
 1032              		.loc 16 47 5 view .LVU227
 1033              		.syntax unified
 1034              	@ 47 "../../DaisySP//Source/Utility/dsp.h" 1
 1035 004a C7FEC77A 		vminnm.f32 s15, s15, s14
 1036              	@ 0 "" 2
 1037              	.LVL58:
  51:../../DaisySP//Source/Utility/dsp.h **** }
 1038              		.loc 16 51 5 view .LVU228
  51:../../DaisySP//Source/Utility/dsp.h **** }
 1039              		.loc 16 51 5 is_stmt 0 view .LVU229
 1040              		.thumb
 1041              		.syntax unified
 1042              	.LBE658:
 1043              	.LBE660:
 1044              	.LBE663:
 1045              	.LBE668:
 1046              	.LBE721:
  66:Plinks.cpp    **** 	
 1047              		.loc 15 66 2 is_stmt 1 view .LVU230
 1048              	.LBB722:
ARM GAS  /var/folders/hl/qgbwny5j0fd895c2c41bk3tw0000gp/T//cc4ErH94.s 			page 40


 1049              	.LBI643:
 1050              		.loc 12 78 10 view .LVU231
 1051              	.LBB646:
 1052              		.loc 12 78 38 is_stmt 0 view .LVU232
 1053 004e C3ED007A 		vstr.32	s15, [r3]
 1054              	.LVL59:
 1055              		.loc 12 78 38 view .LVU233
 1056              	.LBE646:
 1057              	.LBE722:
 1058              		.loc 15 68 2 is_stmt 1 view .LVU234
 1059              		.loc 15 68 23 is_stmt 0 view .LVU235
 1060 0052 FFF7FEFF 		bl	_ZN5daisy8patch_sm12DaisyPatchSM11GetAdcValueEi
 1061              	.LVL60:
 1062              	.LBB723:
 1063              	.LBI723:
 161:../../DaisySP//Source/Utility/dsp.h **** {
 1064              		.loc 16 161 1 is_stmt 1 view .LVU236
 1065              	.LBE723:
 163:../../DaisySP//Source/Utility/dsp.h ****     {
 1066              		.loc 16 163 5 view .LVU237
 1067              	.LBB737:
 1068              	.LBB724:
 172:../../DaisySP//Source/Utility/dsp.h ****         default: return fclamp(min + in * (max - min), min, max);
 1069              		.loc 16 172 9 view .LVU238
 1070              		.loc 16 173 9 view .LVU239
 1071              		.loc 16 173 18 view .LVU240
 1072              		.loc 16 173 31 is_stmt 0 view .LVU241
 1073 0056 F0EE687A 		vmov.f32	s15, s17
 1074 005a 9FEDB47A 		vldr.32	s14, .L63+24
 1075              	.LBE724:
 1076              	.LBE737:
  69:Plinks.cpp    **** 	rv.SetFeedback(feedback);
  70:Plinks.cpp    **** 
  71:Plinks.cpp    **** 	float lpf = fmap(hw.GetAdcValue(CV_2), 1000.f, 32000.f, Mapping::LOG);
 1077              		.loc 15 71 18 view .LVU242
 1078 005e 0121     		movs	r1, #1
 1079 0060 AC48     		ldr	r0, .L63
 1080              	.LBB738:
 1081              	.LBB713:
 1082              	.LBB707:
 1083              	.LBB694:
 1084              	.LBB695:
 1085              	.LBB696:
  47:../../DaisySP//Source/Utility/dsp.h **** #else
 1086              		.loc 16 47 5 view .LVU243
 1087 0062 DFEDB3AA 		vldr.32	s21, .L63+28
 1088              	.LBE696:
 1089              	.LBE695:
 1090              	.LBE694:
 1091              	.LBE707:
 1092              	.LBE713:
 1093              	.LBE738:
 1094              	.LBB739:
 1095              	.LBB734:
 1096              		.loc 16 173 31 view .LVU244
 1097 0066 E0EE077A 		vfma.f32	s15, s0, s14
 1098              	.LVL61:
ARM GAS  /var/folders/hl/qgbwny5j0fd895c2c41bk3tw0000gp/T//cc4ErH94.s 			page 41


 1099              	.LBB725:
 1100              	.LBI725:
  56:../../DaisySP//Source/Utility/dsp.h **** {
 1101              		.loc 16 56 14 is_stmt 1 view .LVU245
 1102              	.LBE725:
 1103              	.LBE734:
 1104              	.LBE739:
  58:../../DaisySP//Source/Utility/dsp.h **** }
 1105              		.loc 16 58 5 view .LVU246
 1106              	.LBB740:
 1107              	.LBB735:
 1108              	.LBB732:
 1109              	.LBB726:
 1110              	.LBI726:
  32:../../DaisySP//Source/Utility/dsp.h **** {
 1111              		.loc 16 32 14 view .LVU247
 1112              	.LBB727:
  34:../../DaisySP//Source/Utility/dsp.h **** #ifdef __arm__
 1113              		.loc 16 34 5 view .LVU248
  36:../../DaisySP//Source/Utility/dsp.h **** #else
 1114              		.loc 16 36 5 view .LVU249
 1115              	.LBE727:
 1116              	.LBE726:
 1117              	.LBE732:
 1118              	.LBE735:
 1119              	.LBE740:
 1120              	.LBB741:
 1121              	.LBB681:
 1122              		.loc 16 173 31 is_stmt 0 view .LVU250
 1123 006a 9FEDB29A 		vldr.32	s18, .L63+32
 1124              	.LBE681:
 1125              	.LBE741:
 1126              	.LBB742:
 1127              	.LBB736:
 1128              	.LBB733:
 1129              	.LBB729:
 1130              	.LBB728:
  36:../../DaisySP//Source/Utility/dsp.h **** #else
 1131              		.loc 16 36 5 view .LVU251
 1132              		.syntax unified
 1133              	@ 36 "../../DaisySP//Source/Utility/dsp.h" 1
 1134 006e C7FEA87A 		vmaxnm.f32 s15, s15, s17
 1135              	@ 0 "" 2
 1136              	.LVL62:
  40:../../DaisySP//Source/Utility/dsp.h **** }
 1137              		.loc 16 40 5 is_stmt 1 view .LVU252
  40:../../DaisySP//Source/Utility/dsp.h **** }
 1138              		.loc 16 40 5 is_stmt 0 view .LVU253
 1139              		.thumb
 1140              		.syntax unified
 1141              	.LBE728:
 1142              	.LBE729:
 1143              	.LBB730:
 1144              	.LBI730:
  43:../../DaisySP//Source/Utility/dsp.h **** {
 1145              		.loc 16 43 14 is_stmt 1 view .LVU254
 1146              	.LBB731:
ARM GAS  /var/folders/hl/qgbwny5j0fd895c2c41bk3tw0000gp/T//cc4ErH94.s 			page 42


  45:../../DaisySP//Source/Utility/dsp.h **** #ifdef __arm__
 1147              		.loc 16 45 5 view .LVU255
  47:../../DaisySP//Source/Utility/dsp.h **** #else
 1148              		.loc 16 47 5 view .LVU256
 1149              		.syntax unified
 1150              	@ 47 "../../DaisySP//Source/Utility/dsp.h" 1
 1151 0072 C7FEC77A 		vminnm.f32 s15, s15, s14
 1152              	@ 0 "" 2
 1153              	.LVL63:
  51:../../DaisySP//Source/Utility/dsp.h **** }
 1154              		.loc 16 51 5 view .LVU257
  51:../../DaisySP//Source/Utility/dsp.h **** }
 1155              		.loc 16 51 5 is_stmt 0 view .LVU258
 1156              		.thumb
 1157              		.syntax unified
 1158              	.LBE731:
 1159              	.LBE730:
 1160              	.LBE733:
 1161              	.LBE736:
 1162              	.LBE742:
  69:Plinks.cpp    **** 
 1163              		.loc 15 69 2 is_stmt 1 view .LVU259
 1164              	.LBB743:
 1165              	.LBI647:
 1166              		.loc 3 54 17 view .LVU260
 1167              	.LBB649:
 1168              		.loc 3 54 48 view .LVU261
 1169              		.loc 3 54 58 is_stmt 0 view .LVU262
 1170 0076 C4ED007A 		vstr.32	s15, [r4]
 1171              	.LVL64:
 1172              		.loc 3 54 58 view .LVU263
 1173              	.LBE649:
 1174              	.LBE743:
 1175              		.loc 15 71 2 is_stmt 1 view .LVU264
 1176              		.loc 15 71 18 is_stmt 0 view .LVU265
 1177 007a FFF7FEFF 		bl	_ZN5daisy8patch_sm12DaisyPatchSM11GetAdcValueEi
 1178              	.LVL65:
 1179              		.loc 15 71 18 view .LVU266
 1180 007e F0EE400A 		vmov.f32	s1, s0
 1181              	.LVL66:
 1182              	.LBB744:
 1183              	.LBI691:
 161:../../DaisySP//Source/Utility/dsp.h **** {
 1184              		.loc 16 161 1 is_stmt 1 view .LVU267
 1185              	.LBE744:
 163:../../DaisySP//Source/Utility/dsp.h ****     {
 1186              		.loc 16 163 5 view .LVU268
 1187              	.LBB745:
 1188              	.LBB714:
 1189              	.LBI692:
 161:../../DaisySP//Source/Utility/dsp.h **** {
 1190              		.loc 16 161 1 view .LVU269
 161:../../DaisySP//Source/Utility/dsp.h **** {
 1191              		.loc 16 161 1 is_stmt 0 view .LVU270
 1192              	.LBE714:
 1193              	.LBE745:
 167:../../DaisySP//Source/Utility/dsp.h ****         {
ARM GAS  /var/folders/hl/qgbwny5j0fd895c2c41bk3tw0000gp/T//cc4ErH94.s 			page 43


 1194              		.loc 16 167 9 is_stmt 1 view .LVU271
 168:../../DaisySP//Source/Utility/dsp.h ****             const float a = 1.f / log10f(max / min);
 1195              		.loc 16 168 9 view .LVU272
 1196              	.LBB746:
 1197              	.LBB715:
 1198              	.LBB708:
 169:../../DaisySP//Source/Utility/dsp.h ****             return fclamp(min * powf(10, in / a), min, max);
 1199              		.loc 16 169 13 view .LVU273
 170:../../DaisySP//Source/Utility/dsp.h ****         }
 1200              		.loc 16 170 13 view .LVU274
 1201              	.LBE708:
 1202              	.LBE715:
 1203              	.LBE746:
 1204              	.LBB747:
 1205              	.LBB682:
 1206              		.loc 16 173 31 is_stmt 0 view .LVU275
 1207 0082 9FEDADAA 		vldr.32	s20, .L63+36
 1208              	.LBE682:
 1209              	.LBE747:
 1210              	.LBB748:
 1211              	.LBB716:
 1212              	.LBB709:
 170:../../DaisySP//Source/Utility/dsp.h ****         }
 1213              		.loc 16 170 37 view .LVU276
 1214 0086 B2EE040A 		vmov.f32	s0, #1.0e+1
 1215              	.LVL67:
 170:../../DaisySP//Source/Utility/dsp.h ****         }
 1216              		.loc 16 170 37 view .LVU277
 1217 008a C0EE8B0A 		vdiv.f32	s1, s1, s22
 1218              	.LVL68:
 170:../../DaisySP//Source/Utility/dsp.h ****         }
 1219              		.loc 16 170 37 view .LVU278
 1220 008e FFF7FEFF 		bl	powf
 1221              	.LVL69:
 1222              	.LBB703:
 1223              	.LBI694:
  56:../../DaisySP//Source/Utility/dsp.h **** {
 1224              		.loc 16 56 14 is_stmt 1 view .LVU279
 1225              	.LBE703:
 1226              	.LBE709:
 1227              	.LBE716:
 1228              	.LBE748:
  58:../../DaisySP//Source/Utility/dsp.h **** }
 1229              		.loc 16 58 5 view .LVU280
 1230              	.LBB749:
 1231              	.LBB717:
 1232              	.LBB710:
 1233              	.LBB704:
 1234              	.LBB698:
 1235              	.LBI698:
  32:../../DaisySP//Source/Utility/dsp.h **** {
 1236              		.loc 16 32 14 view .LVU281
 1237              	.LBB699:
  34:../../DaisySP//Source/Utility/dsp.h **** #ifdef __arm__
 1238              		.loc 16 34 5 view .LVU282
  36:../../DaisySP//Source/Utility/dsp.h **** #else
 1239              		.loc 16 36 5 view .LVU283
ARM GAS  /var/folders/hl/qgbwny5j0fd895c2c41bk3tw0000gp/T//cc4ErH94.s 			page 44


 1240              	.LBE699:
 1241              	.LBE698:
 1242              	.LBE704:
 1243              	.LBE710:
 1244              	.LBE717:
 1245              	.LBE749:
  72:Plinks.cpp    **** 	rv.SetLpFreq(lpf);
  73:Plinks.cpp    **** 
  74:Plinks.cpp    **** 	float mlpf = fmap(hw.GetAdcValue(CV_1), 1000.f, 32000.f, Mapping::LOG);
 1246              		.loc 15 74 19 is_stmt 0 view .LVU284
 1247 0092 0021     		movs	r1, #0
 1248 0094 9F48     		ldr	r0, .L63
 1249              	.LBB750:
 1250              	.LBB718:
 1251              	.LBB711:
 170:../../DaisySP//Source/Utility/dsp.h ****         }
 1252              		.loc 16 170 26 view .LVU285
 1253 0096 60EE087A 		vmul.f32	s15, s0, s16
 1254              	.LVL70:
 1255              	.LBB705:
 1256              	.LBB701:
 1257              	.LBB700:
  36:../../DaisySP//Source/Utility/dsp.h **** #else
 1258              		.loc 16 36 5 view .LVU286
 1259              		.syntax unified
 1260              	@ 36 "../../DaisySP//Source/Utility/dsp.h" 1
 1261 009a C7FE887A 		vmaxnm.f32 s15, s15, s16
 1262              	@ 0 "" 2
 1263              	.LVL71:
  40:../../DaisySP//Source/Utility/dsp.h **** }
 1264              		.loc 16 40 5 is_stmt 1 view .LVU287
  40:../../DaisySP//Source/Utility/dsp.h **** }
 1265              		.loc 16 40 5 is_stmt 0 view .LVU288
 1266              		.thumb
 1267              		.syntax unified
 1268              	.LBE700:
 1269              	.LBE701:
 1270              	.LBB702:
 1271              	.LBI695:
  43:../../DaisySP//Source/Utility/dsp.h **** {
 1272              		.loc 16 43 14 is_stmt 1 view .LVU289
 1273              	.LBB697:
  45:../../DaisySP//Source/Utility/dsp.h **** #ifdef __arm__
 1274              		.loc 16 45 5 view .LVU290
  47:../../DaisySP//Source/Utility/dsp.h **** #else
 1275              		.loc 16 47 5 view .LVU291
 1276              		.syntax unified
 1277              	@ 47 "../../DaisySP//Source/Utility/dsp.h" 1
 1278 009e C7FEEA7A 		vminnm.f32 s15, s15, s21
 1279              	@ 0 "" 2
 1280              	.LVL72:
  51:../../DaisySP//Source/Utility/dsp.h **** }
 1281              		.loc 16 51 5 view .LVU292
  51:../../DaisySP//Source/Utility/dsp.h **** }
 1282              		.loc 16 51 5 is_stmt 0 view .LVU293
 1283              		.thumb
 1284              		.syntax unified
ARM GAS  /var/folders/hl/qgbwny5j0fd895c2c41bk3tw0000gp/T//cc4ErH94.s 			page 45


 1285              	.LBE697:
 1286              	.LBE702:
 1287              	.LBE705:
 1288              	.LBE711:
 1289              	.LBE718:
 1290              	.LBE750:
  72:Plinks.cpp    **** 
 1291              		.loc 15 72 2 is_stmt 1 view .LVU294
 1292              	.LBB751:
 1293              	.LBI751:
  55:../../DaisySP//Source/Effects/reverbsc.h ****     /** controls the internal dampening filter's cutoff frequency.
  56:../../DaisySP//Source/Effects/reverbsc.h ****         \param freq - low pass frequency. range: 0.0 to sample_rate / 2
  57:../../DaisySP//Source/Effects/reverbsc.h ****     */
  58:../../DaisySP//Source/Effects/reverbsc.h ****     inline void SetLpFreq(const float &freq) { lpfreq_ = freq; }
 1294              		.loc 3 58 17 view .LVU295
 1295              	.LBB752:
 1296              		.loc 3 58 48 view .LVU296
 1297              		.loc 3 58 56 is_stmt 0 view .LVU297
 1298 00a2 C4ED017A 		vstr.32	s15, [r4, #4]
 1299              	.LVL73:
 1300              		.loc 3 58 56 view .LVU298
 1301              	.LBE752:
 1302              	.LBE751:
 1303              		.loc 15 74 2 is_stmt 1 view .LVU299
 1304              		.loc 15 74 19 is_stmt 0 view .LVU300
 1305 00a6 FFF7FEFF 		bl	_ZN5daisy8patch_sm12DaisyPatchSM11GetAdcValueEi
 1306              	.LVL74:
 1307              		.loc 15 74 19 view .LVU301
 1308 00aa F0EE400A 		vmov.f32	s1, s0
 1309              	.LVL75:
 1310              	.LBB753:
 1311              	.LBI753:
 161:../../DaisySP//Source/Utility/dsp.h **** {
 1312              		.loc 16 161 1 is_stmt 1 view .LVU302
 1313              	.LBE753:
 163:../../DaisySP//Source/Utility/dsp.h ****     {
 1314              		.loc 16 163 5 view .LVU303
 1315              	.LBB770:
 1316              	.LBB754:
 1317              	.LBI754:
 161:../../DaisySP//Source/Utility/dsp.h **** {
 1318              		.loc 16 161 1 view .LVU304
 161:../../DaisySP//Source/Utility/dsp.h **** {
 1319              		.loc 16 161 1 is_stmt 0 view .LVU305
 1320              	.LBE754:
 1321              	.LBE770:
 167:../../DaisySP//Source/Utility/dsp.h ****         {
 1322              		.loc 16 167 9 is_stmt 1 view .LVU306
 168:../../DaisySP//Source/Utility/dsp.h ****             const float a = 1.f / log10f(max / min);
 1323              		.loc 16 168 9 view .LVU307
 1324              	.LBB771:
 1325              	.LBB767:
 1326              	.LBB755:
 169:../../DaisySP//Source/Utility/dsp.h ****             return fclamp(min * powf(10, in / a), min, max);
 1327              		.loc 16 169 13 view .LVU308
 170:../../DaisySP//Source/Utility/dsp.h ****         }
 1328              		.loc 16 170 13 view .LVU309
ARM GAS  /var/folders/hl/qgbwny5j0fd895c2c41bk3tw0000gp/T//cc4ErH94.s 			page 46


 170:../../DaisySP//Source/Utility/dsp.h ****         }
 1329              		.loc 16 170 37 is_stmt 0 view .LVU310
 1330 00ae B2EE040A 		vmov.f32	s0, #1.0e+1
 1331              	.LVL76:
 170:../../DaisySP//Source/Utility/dsp.h ****         }
 1332              		.loc 16 170 37 view .LVU311
 1333 00b2 C0EE8B0A 		vdiv.f32	s1, s1, s22
 1334              	.LVL77:
 170:../../DaisySP//Source/Utility/dsp.h ****         }
 1335              		.loc 16 170 37 view .LVU312
 1336 00b6 FFF7FEFF 		bl	powf
 1337              	.LVL78:
 1338              	.LBB756:
 1339              	.LBI756:
  56:../../DaisySP//Source/Utility/dsp.h **** {
 1340              		.loc 16 56 14 is_stmt 1 view .LVU313
 1341              	.LBE756:
 1342              	.LBE755:
 1343              	.LBE767:
 1344              	.LBE771:
  58:../../DaisySP//Source/Utility/dsp.h **** }
 1345              		.loc 16 58 5 view .LVU314
 1346              	.LBB772:
 1347              	.LBB768:
 1348              	.LBB765:
 1349              	.LBB763:
 1350              	.LBB757:
 1351              	.LBI757:
  32:../../DaisySP//Source/Utility/dsp.h **** {
 1352              		.loc 16 32 14 view .LVU315
 1353              	.LBB758:
  34:../../DaisySP//Source/Utility/dsp.h **** #ifdef __arm__
 1354              		.loc 16 34 5 view .LVU316
  36:../../DaisySP//Source/Utility/dsp.h **** #else
 1355              		.loc 16 36 5 view .LVU317
 1356              	.LBE758:
 1357              	.LBE757:
 1358              	.LBE763:
 1359              	.LBE765:
 1360              	.LBE768:
 1361              	.LBE772:
 1362              	.LBB773:
 1363              	.LBB774:
  22:../../DaisySP//Source/Filters/moogladder.h ****     /** Initializes the MoogLadder module.
  23:../../DaisySP//Source/Filters/moogladder.h ****         sample_rate - The sample rate of the audio engine being run. 
  24:../../DaisySP//Source/Filters/moogladder.h ****     */
  25:../../DaisySP//Source/Filters/moogladder.h ****     void Init(float sample_rate);
  26:../../DaisySP//Source/Filters/moogladder.h **** 
  27:../../DaisySP//Source/Filters/moogladder.h **** 
  28:../../DaisySP//Source/Filters/moogladder.h ****     /** Processes the lowpass filter
  29:../../DaisySP//Source/Filters/moogladder.h ****     */
  30:../../DaisySP//Source/Filters/moogladder.h ****     float Process(float in);
  31:../../DaisySP//Source/Filters/moogladder.h **** 
  32:../../DaisySP//Source/Filters/moogladder.h ****     /** 
  33:../../DaisySP//Source/Filters/moogladder.h ****         Sets the cutoff frequency or half-way point of the filter.
  34:../../DaisySP//Source/Filters/moogladder.h ****         Arguments
  35:../../DaisySP//Source/Filters/moogladder.h ****         - freq - frequency value in Hz. Range: Any positive value.
ARM GAS  /var/folders/hl/qgbwny5j0fd895c2c41bk3tw0000gp/T//cc4ErH94.s 			page 47


  36:../../DaisySP//Source/Filters/moogladder.h ****     */
  37:../../DaisySP//Source/Filters/moogladder.h ****     inline void SetFreq(float freq) { freq_ = freq; }
 1364              		.loc 4 37 45 is_stmt 0 view .LVU318
 1365 00ba A04B     		ldr	r3, .L63+40
 1366              	.LBE774:
 1367              	.LBE773:
  75:Plinks.cpp    **** 	ladder.SetFreq(mlpf);
  76:Plinks.cpp    **** 
  77:Plinks.cpp    **** 	float attack = fmap(hw.GetAdcValue(ADC_12), 0.1f, 5.0f);
 1368              		.loc 15 77 21 view .LVU319
 1369 00bc 0B21     		movs	r1, #11
 1370 00be 9548     		ldr	r0, .L63
 1371              	.LBB776:
 1372              	.LBB769:
 1373              	.LBB766:
 170:../../DaisySP//Source/Utility/dsp.h ****         }
 1374              		.loc 16 170 26 view .LVU320
 1375 00c0 60EE087A 		vmul.f32	s15, s0, s16
 1376              	.LVL79:
 1377              	.LBB764:
 1378              	.LBB760:
 1379              	.LBB759:
  36:../../DaisySP//Source/Utility/dsp.h **** #else
 1380              		.loc 16 36 5 view .LVU321
 1381              		.syntax unified
 1382              	@ 36 "../../DaisySP//Source/Utility/dsp.h" 1
 1383 00c4 C7FE887A 		vmaxnm.f32 s15, s15, s16
 1384              	@ 0 "" 2
 1385              	.LVL80:
  40:../../DaisySP//Source/Utility/dsp.h **** }
 1386              		.loc 16 40 5 is_stmt 1 view .LVU322
  40:../../DaisySP//Source/Utility/dsp.h **** }
 1387              		.loc 16 40 5 is_stmt 0 view .LVU323
 1388              		.thumb
 1389              		.syntax unified
 1390              	.LBE759:
 1391              	.LBE760:
 1392              	.LBB761:
 1393              	.LBI761:
  43:../../DaisySP//Source/Utility/dsp.h **** {
 1394              		.loc 16 43 14 is_stmt 1 view .LVU324
 1395              	.LBB762:
  45:../../DaisySP//Source/Utility/dsp.h **** #ifdef __arm__
 1396              		.loc 16 45 5 view .LVU325
  47:../../DaisySP//Source/Utility/dsp.h **** #else
 1397              		.loc 16 47 5 view .LVU326
 1398              		.syntax unified
 1399              	@ 47 "../../DaisySP//Source/Utility/dsp.h" 1
 1400 00c8 C7FEEA7A 		vminnm.f32 s15, s15, s21
 1401              	@ 0 "" 2
 1402              	.LVL81:
  51:../../DaisySP//Source/Utility/dsp.h **** }
 1403              		.loc 16 51 5 view .LVU327
  51:../../DaisySP//Source/Utility/dsp.h **** }
 1404              		.loc 16 51 5 is_stmt 0 view .LVU328
 1405              		.thumb
 1406              		.syntax unified
ARM GAS  /var/folders/hl/qgbwny5j0fd895c2c41bk3tw0000gp/T//cc4ErH94.s 			page 48


 1407              	.LBE762:
 1408              	.LBE761:
 1409              	.LBE764:
 1410              	.LBE766:
 1411              	.LBE769:
 1412              	.LBE776:
  75:Plinks.cpp    **** 
 1413              		.loc 15 75 2 is_stmt 1 view .LVU329
 1414              	.LBB777:
 1415              	.LBI773:
 1416              		.loc 4 37 17 view .LVU330
 1417              	.LBB775:
 1418              		.loc 4 37 39 view .LVU331
 1419              		.loc 4 37 45 is_stmt 0 view .LVU332
 1420 00cc C3ED027A 		vstr.32	s15, [r3, #8]
 1421              	.LVL82:
 1422              		.loc 4 37 45 view .LVU333
 1423              	.LBE775:
 1424              	.LBE777:
 1425              		.loc 15 77 2 is_stmt 1 view .LVU334
 1426              		.loc 15 77 21 is_stmt 0 view .LVU335
 1427 00d0 FFF7FEFF 		bl	_ZN5daisy8patch_sm12DaisyPatchSM11GetAdcValueEi
 1428              	.LVL83:
 1429              	.LBB778:
 1430              	.LBI670:
 161:../../DaisySP//Source/Utility/dsp.h **** {
 1431              		.loc 16 161 1 is_stmt 1 view .LVU336
 1432              	.LBE778:
 163:../../DaisySP//Source/Utility/dsp.h ****     {
 1433              		.loc 16 163 5 view .LVU337
 1434              	.LBB779:
 1435              	.LBB683:
 172:../../DaisySP//Source/Utility/dsp.h ****         default: return fclamp(min + in * (max - min), min, max);
 1436              		.loc 16 172 9 view .LVU338
 1437              		.loc 16 173 9 view .LVU339
 1438              		.loc 16 173 18 view .LVU340
 1439              		.loc 16 173 31 is_stmt 0 view .LVU341
 1440 00d4 F0EE497A 		vmov.f32	s15, s18
 1441              	.LBE683:
 1442              	.LBE779:
  78:Plinks.cpp    **** 	float release = fmap(hw.GetAdcValue(ADC_11), 0.1f, 5.0f);
 1443              		.loc 15 78 22 view .LVU342
 1444 00d8 0A21     		movs	r1, #10
 1445 00da 8E48     		ldr	r0, .L63
 1446              	.LBB780:
 1447              	.LBB684:
 1448              		.loc 16 173 31 view .LVU343
 1449 00dc E0EE0A7A 		vfma.f32	s15, s0, s20
 1450              	.LVL84:
 1451              	.LBB679:
 1452              	.LBI672:
  56:../../DaisySP//Source/Utility/dsp.h **** {
 1453              		.loc 16 56 14 is_stmt 1 view .LVU344
 1454              	.LBE679:
 1455              	.LBE684:
 1456              	.LBE780:
  58:../../DaisySP//Source/Utility/dsp.h **** }
ARM GAS  /var/folders/hl/qgbwny5j0fd895c2c41bk3tw0000gp/T//cc4ErH94.s 			page 49


 1457              		.loc 16 58 5 view .LVU345
 1458              	.LBB781:
 1459              	.LBB685:
 1460              	.LBB680:
 1461              	.LBB676:
 1462              	.LBI676:
  32:../../DaisySP//Source/Utility/dsp.h **** {
 1463              		.loc 16 32 14 view .LVU346
 1464              	.LBB677:
  34:../../DaisySP//Source/Utility/dsp.h **** #ifdef __arm__
 1465              		.loc 16 34 5 view .LVU347
  36:../../DaisySP//Source/Utility/dsp.h **** #else
 1466              		.loc 16 36 5 view .LVU348
 1467              		.syntax unified
 1468              	@ 36 "../../DaisySP//Source/Utility/dsp.h" 1
 1469 00e0 C7FE897A 		vmaxnm.f32 s15, s15, s18
 1470              	@ 0 "" 2
 1471              	.LVL85:
  40:../../DaisySP//Source/Utility/dsp.h **** }
 1472              		.loc 16 40 5 view .LVU349
  40:../../DaisySP//Source/Utility/dsp.h **** }
 1473              		.loc 16 40 5 is_stmt 0 view .LVU350
 1474              		.thumb
 1475              		.syntax unified
 1476              	.LBE677:
 1477              	.LBE676:
 1478              	.LBB678:
 1479              	.LBI673:
  43:../../DaisySP//Source/Utility/dsp.h **** {
 1480              		.loc 16 43 14 is_stmt 1 view .LVU351
 1481              	.LBB675:
  45:../../DaisySP//Source/Utility/dsp.h **** #ifdef __arm__
 1482              		.loc 16 45 5 view .LVU352
  47:../../DaisySP//Source/Utility/dsp.h **** #else
 1483              		.loc 16 47 5 view .LVU353
 1484              		.syntax unified
 1485              	@ 47 "../../DaisySP//Source/Utility/dsp.h" 1
 1486 00e4 87FEE98A 		vminnm.f32 s16, s15, s19
 1487              	@ 0 "" 2
 1488              	.LVL86:
  51:../../DaisySP//Source/Utility/dsp.h **** }
 1489              		.loc 16 51 5 view .LVU354
  51:../../DaisySP//Source/Utility/dsp.h **** }
 1490              		.loc 16 51 5 is_stmt 0 view .LVU355
 1491              		.thumb
 1492              		.syntax unified
 1493              	.LBE675:
 1494              	.LBE678:
 1495              	.LBE680:
 1496              	.LBE685:
 1497              	.LBE781:
 1498              		.loc 15 78 2 is_stmt 1 view .LVU356
 1499              		.loc 15 78 22 is_stmt 0 view .LVU357
 1500 00e8 FFF7FEFF 		bl	_ZN5daisy8patch_sm12DaisyPatchSM11GetAdcValueEi
 1501              	.LVL87:
 1502              	.LBB782:
 1503              	.LBI782:
ARM GAS  /var/folders/hl/qgbwny5j0fd895c2c41bk3tw0000gp/T//cc4ErH94.s 			page 50


 161:../../DaisySP//Source/Utility/dsp.h **** {
 1504              		.loc 16 161 1 is_stmt 1 view .LVU358
 1505              	.LBE782:
 163:../../DaisySP//Source/Utility/dsp.h ****     {
 1506              		.loc 16 163 5 view .LVU359
 1507              	.LBB796:
 1508              	.LBB783:
 172:../../DaisySP//Source/Utility/dsp.h ****         default: return fclamp(min + in * (max - min), min, max);
 1509              		.loc 16 172 9 view .LVU360
 1510              		.loc 16 173 9 view .LVU361
 1511              		.loc 16 173 18 view .LVU362
 1512              		.loc 16 173 31 is_stmt 0 view .LVU363
 1513 00ec F0EE497A 		vmov.f32	s15, s18
 1514              	.LBE783:
 1515              	.LBE796:
 1516              	.LBB797:
 1517              	.LBB798:
  36:../../DaisySP//Source/Control/adenv.h ****     /** Initializes the ad envelope.
  37:../../DaisySP//Source/Control/adenv.h **** 
  38:../../DaisySP//Source/Control/adenv.h ****         Defaults:
  39:../../DaisySP//Source/Control/adenv.h ****             - current segment = idle
  40:../../DaisySP//Source/Control/adenv.h ****             - curve = linear
  41:../../DaisySP//Source/Control/adenv.h ****             - phase = 0
  42:../../DaisySP//Source/Control/adenv.h ****             - min = 0
  43:../../DaisySP//Source/Control/adenv.h ****             - max = 1
  44:../../DaisySP//Source/Control/adenv.h **** 
  45:../../DaisySP//Source/Control/adenv.h ****         \param sample_rate      sample rate of the audio engine being run
  46:../../DaisySP//Source/Control/adenv.h ****     */
  47:../../DaisySP//Source/Control/adenv.h ****     void Init(float sample_rate);
  48:../../DaisySP//Source/Control/adenv.h **** 
  49:../../DaisySP//Source/Control/adenv.h ****     /** Processes the current sample of the envelope. This should be called once
  50:../../DaisySP//Source/Control/adenv.h ****         per sample period.
  51:../../DaisySP//Source/Control/adenv.h ****         \return the current envelope value.
  52:../../DaisySP//Source/Control/adenv.h ****     */
  53:../../DaisySP//Source/Control/adenv.h ****     float Process();
  54:../../DaisySP//Source/Control/adenv.h **** 
  55:../../DaisySP//Source/Control/adenv.h ****     /** Starts or retriggers the envelope.*/
  56:../../DaisySP//Source/Control/adenv.h ****     inline void Trigger() { trigger_ = 1; }
  57:../../DaisySP//Source/Control/adenv.h ****     /** Sets the length of time (in seconds) for a specific segment. */
  58:../../DaisySP//Source/Control/adenv.h ****     inline void SetTime(uint8_t seg, float time) { segment_time_[seg] = time; }
 1518              		.loc 2 58 71 view .LVU364
 1519 00f0 934B     		ldr	r3, .L63+44
 1520              	.LBE798:
 1521              	.LBE797:
  79:Plinks.cpp    **** 	env.SetTime(ADENV_SEG_ATTACK, attack);
  80:Plinks.cpp    **** 	env.SetTime(ADENV_SEG_DECAY, release);
  81:Plinks.cpp    **** 
  82:Plinks.cpp    **** 	// Set MIDI Note for new Pluck notes.
  83:Plinks.cpp    ****     nn = 24.0f + hw.GetAdcValue(CV_8) * 60.0f;
 1522              		.loc 15 83 32 view .LVU365
 1523 00f2 0721     		movs	r1, #7
 1524 00f4 8748     		ldr	r0, .L63
 1525              	.LBB801:
 1526              	.LBB793:
 1527              		.loc 16 173 31 view .LVU366
 1528 00f6 E0EE0A7A 		vfma.f32	s15, s0, s20
 1529              	.LVL88:
ARM GAS  /var/folders/hl/qgbwny5j0fd895c2c41bk3tw0000gp/T//cc4ErH94.s 			page 51


 1530              	.LBB784:
 1531              	.LBI784:
  56:../../DaisySP//Source/Utility/dsp.h **** {
 1532              		.loc 16 56 14 is_stmt 1 view .LVU367
 1533              	.LBE784:
 1534              	.LBE793:
 1535              	.LBE801:
  58:../../DaisySP//Source/Utility/dsp.h **** }
 1536              		.loc 16 58 5 view .LVU368
 1537              	.LBB802:
 1538              	.LBB794:
 1539              	.LBB791:
 1540              	.LBB785:
 1541              	.LBI785:
  32:../../DaisySP//Source/Utility/dsp.h **** {
 1542              		.loc 16 32 14 view .LVU369
 1543              	.LBB786:
  34:../../DaisySP//Source/Utility/dsp.h **** #ifdef __arm__
 1544              		.loc 16 34 5 view .LVU370
  36:../../DaisySP//Source/Utility/dsp.h **** #else
 1545              		.loc 16 36 5 view .LVU371
 1546              	.LBE786:
 1547              	.LBE785:
 1548              	.LBE791:
 1549              	.LBE794:
 1550              	.LBE802:
 1551              	.LBB803:
 1552              	.LBB799:
 1553              		.loc 2 58 71 is_stmt 0 view .LVU372
 1554 00fa 83ED028A 		vstr.32	s16, [r3, #8]
 1555              	.LBE799:
 1556              	.LBE803:
 1557              	.LBB804:
 1558              	.LBB795:
 1559              	.LBB792:
 1560              	.LBB788:
 1561              	.LBB787:
  36:../../DaisySP//Source/Utility/dsp.h **** #else
 1562              		.loc 16 36 5 view .LVU373
 1563              		.syntax unified
 1564              	@ 36 "../../DaisySP//Source/Utility/dsp.h" 1
 1565 00fe C7FE897A 		vmaxnm.f32 s15, s15, s18
 1566              	@ 0 "" 2
 1567              	.LVL89:
  40:../../DaisySP//Source/Utility/dsp.h **** }
 1568              		.loc 16 40 5 is_stmt 1 view .LVU374
  40:../../DaisySP//Source/Utility/dsp.h **** }
 1569              		.loc 16 40 5 is_stmt 0 view .LVU375
 1570              		.thumb
 1571              		.syntax unified
 1572              	.LBE787:
 1573              	.LBE788:
 1574              	.LBB789:
 1575              	.LBI789:
  43:../../DaisySP//Source/Utility/dsp.h **** {
 1576              		.loc 16 43 14 is_stmt 1 view .LVU376
 1577              	.LBB790:
ARM GAS  /var/folders/hl/qgbwny5j0fd895c2c41bk3tw0000gp/T//cc4ErH94.s 			page 52


  45:../../DaisySP//Source/Utility/dsp.h **** #ifdef __arm__
 1578              		.loc 16 45 5 view .LVU377
  47:../../DaisySP//Source/Utility/dsp.h **** #else
 1579              		.loc 16 47 5 view .LVU378
 1580              		.syntax unified
 1581              	@ 47 "../../DaisySP//Source/Utility/dsp.h" 1
 1582 0102 C7FEE97A 		vminnm.f32 s15, s15, s19
 1583              	@ 0 "" 2
 1584              	.LVL90:
  51:../../DaisySP//Source/Utility/dsp.h **** }
 1585              		.loc 16 51 5 view .LVU379
  51:../../DaisySP//Source/Utility/dsp.h **** }
 1586              		.loc 16 51 5 is_stmt 0 view .LVU380
 1587              		.thumb
 1588              		.syntax unified
 1589              	.LBE790:
 1590              	.LBE789:
 1591              	.LBE792:
 1592              	.LBE795:
 1593              	.LBE804:
  79:Plinks.cpp    **** 	env.SetTime(ADENV_SEG_DECAY, release);
 1594              		.loc 15 79 2 is_stmt 1 view .LVU381
 1595              	.LBB805:
 1596              	.LBI797:
 1597              		.loc 2 58 17 view .LVU382
 1598              	.LBB800:
 1599              		.loc 2 58 52 view .LVU383
 1600              		.loc 2 58 52 is_stmt 0 view .LVU384
 1601              	.LBE800:
 1602              	.LBE805:
  80:Plinks.cpp    **** 
 1603              		.loc 15 80 2 is_stmt 1 view .LVU385
 1604              	.LBB806:
 1605              	.LBI806:
 1606              		.loc 2 58 17 view .LVU386
 1607              	.LBB807:
 1608              		.loc 2 58 52 view .LVU387
 1609              		.loc 2 58 71 is_stmt 0 view .LVU388
 1610 0106 C3ED037A 		vstr.32	s15, [r3, #12]
 1611              	.LVL91:
 1612              		.loc 2 58 71 view .LVU389
 1613              	.LBE807:
 1614              	.LBE806:
 1615              		.loc 15 83 5 is_stmt 1 view .LVU390
 1616              		.loc 15 83 32 is_stmt 0 view .LVU391
 1617 010a FFF7FEFF 		bl	_ZN5daisy8patch_sm12DaisyPatchSM11GetAdcValueEi
 1618              	.LVL92:
 1619              		.loc 15 83 8 view .LVU392
 1620 010e F3EE087A 		vmov.f32	s15, #2.4e+1
 1621 0112 9FED8C7A 		vldr.32	s14, .L63+48
 1622 0116 E0EE077A 		vfma.f32	s15, s0, s14
 1623              	.LVL93:
  84:Plinks.cpp    ****     nn = static_cast<int32_t>(nn); // Quantize to semitones
 1624              		.loc 15 84 5 is_stmt 1 view .LVU393
  85:Plinks.cpp    **** 
  86:Plinks.cpp    **** 	for (size_t i = 0; i < size; i++)
 1625              		.loc 15 86 2 view .LVU394
ARM GAS  /var/folders/hl/qgbwny5j0fd895c2c41bk3tw0000gp/T//cc4ErH94.s 			page 53


 1626              	.LBB808:
 1627              		.loc 15 86 23 view .LVU395
 1628 011a BAF1000F 		cmp	r10, #0
 1629 011e 00F0C880 		beq	.L32
 1630 0122 FDEEE77A 		vcvt.s32.f32	s15, s15
 1631              	.LVL94:
 1632              		.loc 15 86 14 is_stmt 0 view .LVU396
 1633 0126 0027     		movs	r7, #0
 1634 0128 A6F50049 		sub	r9, r6, #32768
 1635 012c B8EEE79A 		vcvt.f32.s32	s18, s15
 1636              	.LVL95:
 1637              	.L33:
 1638              	.LBB809:
  87:Plinks.cpp    **** 	{
  88:Plinks.cpp    **** 		if(hw.gate_in_1.Trig()){
 1639              		.loc 15 88 3 is_stmt 1 view .LVU397
 1640              		.loc 15 88 23 is_stmt 0 view .LVU398
 1641 0130 8548     		ldr	r0, .L63+52
 1642 0132 FFF7FEFF 		bl	_ZN5daisy6GateIn4TrigEv
 1643              	.LVL96:
 1644              		.loc 15 88 3 view .LVU399
 1645 0136 0028     		cmp	r0, #0
 1646 0138 00F0DE80 		beq	.L34
  89:Plinks.cpp    **** 			arp_idx = (arp_idx + 1) % 5; // advance the kArpeggio, wrapping at the end.
 1647              		.loc 15 89 4 is_stmt 1 view .LVU400
 1648              		.loc 15 89 12 is_stmt 0 view .LVU401
 1649 013c 8349     		ldr	r1, .L63+56
 1650              		.loc 15 89 28 view .LVU402
 1651 013e 844A     		ldr	r2, .L63+60
 1652              		.loc 15 89 15 view .LVU403
 1653 0140 0B78     		ldrb	r3, [r1]	@ zero_extendqisi2
 1654              		.loc 15 89 23 view .LVU404
 1655 0142 0133     		adds	r3, r3, #1
 1656              		.loc 15 89 28 view .LVU405
 1657 0144 A2FB0302 		umull	r0, r2, r2, r3
  90:Plinks.cpp    **** 			trig = 1.f;
  91:Plinks.cpp    **** 		}
  92:Plinks.cpp    **** 
  93:Plinks.cpp    **** 		if(hw.gate_in_2.Trig()){
 1658              		.loc 15 93 23 view .LVU406
 1659 0148 8248     		ldr	r0, .L63+64
  89:Plinks.cpp    **** 			arp_idx = (arp_idx + 1) % 5; // advance the kArpeggio, wrapping at the end.
 1660              		.loc 15 89 28 view .LVU407
 1661 014a 02F4FE74 		and	r4, r2, #508
 1662 014e 04EB9202 		add	r2, r4, r2, lsr #2
 1663 0152 9B1A     		subs	r3, r3, r2
  89:Plinks.cpp    **** 			arp_idx = (arp_idx + 1) % 5; // advance the kArpeggio, wrapping at the end.
 1664              		.loc 15 89 12 view .LVU408
 1665 0154 0B70     		strb	r3, [r1]
  90:Plinks.cpp    **** 			trig = 1.f;
 1666              		.loc 15 90 4 is_stmt 1 view .LVU409
 1667              	.LVL97:
 1668              		.loc 15 93 3 view .LVU410
 1669              		.loc 15 93 23 is_stmt 0 view .LVU411
 1670 0156 FFF7FEFF 		bl	_ZN5daisy6GateIn4TrigEv
 1671              	.LVL98:
 1672              		.loc 15 93 3 view .LVU412
ARM GAS  /var/folders/hl/qgbwny5j0fd895c2c41bk3tw0000gp/T//cc4ErH94.s 			page 54


 1673 015a 0028     		cmp	r0, #0
 1674 015c 00F0AE80 		beq	.L62
  90:Plinks.cpp    **** 			trig = 1.f;
 1675              		.loc 15 90 9 view .LVU413
 1676 0160 F7EE008A 		vmov.f32	s17, #1.0e+0
 1677              	.LVL99:
 1678              	.L35:
  94:Plinks.cpp    **** 			env.Trigger();
 1679              		.loc 15 94 4 is_stmt 1 view .LVU414
 1680              	.LBB810:
 1681              	.LBI810:
  56:../../DaisySP//Source/Control/adenv.h ****     /** Sets the length of time (in seconds) for a specific segment. */
 1682              		.loc 2 56 17 view .LVU415
 1683              	.LBB811:
  56:../../DaisySP//Source/Control/adenv.h ****     /** Sets the length of time (in seconds) for a specific segment. */
 1684              		.loc 2 56 29 view .LVU416
  56:../../DaisySP//Source/Control/adenv.h ****     /** Sets the length of time (in seconds) for a specific segment. */
 1685              		.loc 2 56 38 is_stmt 0 view .LVU417
 1686 0164 0123     		movs	r3, #1
 1687 0166 764A     		ldr	r2, .L63+44
 1688 0168 82F83430 		strb	r3, [r2, #52]
 1689              	.LVL100:
 1690              	.L37:
  56:../../DaisySP//Source/Control/adenv.h ****     /** Sets the length of time (in seconds) for a specific segment. */
 1691              		.loc 2 56 38 view .LVU418
 1692              	.LBE811:
 1693              	.LBE810:
  95:Plinks.cpp    **** 		}
  96:Plinks.cpp    **** 
  97:Plinks.cpp    **** 		float new_freq = scaleSelect(nn);
 1694              		.loc 15 97 3 is_stmt 1 discriminator 2 view .LVU419
 1695              		.loc 15 97 31 is_stmt 0 discriminator 2 view .LVU420
 1696 016c B0EE490A 		vmov.f32	s0, s18
 1697 0170 FFF7FEFF 		bl	_Z11scaleSelectf
 1698              	.LVL101:
 1699              	.LBB812:
 1700              	.LBB813:
  54:../../DaisySP//Source/PhysicalModeling/PolyPluck.h ****         {
 1701              		.loc 12 54 9 discriminator 2 view .LVU421
 1702 0174 F5EEC08A 		vcmpe.f32	s17, #0
 1703              	.LBE813:
 1704              	.LBE812:
 1705              		.loc 15 97 31 discriminator 2 view .LVU422
 1706 0178 F0EE407A 		vmov.f32	s15, s0
 1707              	.LVL102:
  98:Plinks.cpp    **** 
  99:Plinks.cpp    **** 		sig_out = pp.Process(trig, new_freq);
 1708              		.loc 15 99 3 is_stmt 1 discriminator 2 view .LVU423
 1709              	.LBB846:
 1710              	.LBI812:
  50:../../DaisySP//Source/PhysicalModeling/PolyPluck.h ****     {
 1711              		.loc 12 50 11 discriminator 2 view .LVU424
 1712              	.LBB844:
  54:../../DaisySP//Source/PhysicalModeling/PolyPluck.h ****         {
 1713              		.loc 12 54 9 is_stmt 0 discriminator 2 view .LVU425
 1714 017c F1EE10FA 		vmrs	APSR_nzcv, FPSCR
 1715 0180 00F3A480 		bgt	.L38
ARM GAS  /var/folders/hl/qgbwny5j0fd895c2c41bk3tw0000gp/T//cc4ErH94.s 			page 55


  63:../../DaisySP//Source/PhysicalModeling/PolyPluck.h **** 
 1716              		.loc 12 63 14 view .LVU426
 1717 0184 D6F894B6 		ldr	fp, [r6, #1684]
 1718              	.L39:
 1719              	.LVL103:
 1720              	.LBB814:
 1721              	.LBI814:
 123:../../DaisySP//Source/Utility/dsp.h **** {
 1722              		.loc 16 123 14 is_stmt 1 view .LVU427
 1723              	.LBB815:
 125:../../DaisySP//Source/Utility/dsp.h **** }
 1724              		.loc 16 125 5 view .LVU428
 125:../../DaisySP//Source/Utility/dsp.h **** }
 1725              		.loc 16 125 23 is_stmt 0 view .LVU429
 1726 0188 9FED737A 		vldr.32	s14, .L63+68
 125:../../DaisySP//Source/Utility/dsp.h **** }
 1727              		.loc 16 125 16 view .LVU430
 1728 018c F2EE080A 		vmov.f32	s1, #1.2e+1
 1729 0190 B0EE000A 		vmov.f32	s0, #2.0e+0
 1730              	.LVL104:
 125:../../DaisySP//Source/Utility/dsp.h **** }
 1731              		.loc 16 125 16 view .LVU431
 1732 0194 714D     		ldr	r5, .L63+72
 125:../../DaisySP//Source/Utility/dsp.h **** }
 1733              		.loc 16 125 23 view .LVU432
 1734 0196 77EEC77A 		vsub.f32	s15, s15, s14
 1735              	.LVL105:
 125:../../DaisySP//Source/Utility/dsp.h **** }
 1736              		.loc 16 125 23 view .LVU433
 1737              	.LBE815:
 1738              	.LBE814:
  53:../../DaisySP//Source/PhysicalModeling/PolyPluck.h ****         if(trig > 0.0f)
 1739              		.loc 12 53 13 view .LVU434
 1740 019a 9FED618A 		vldr.32	s16, .L63+12
 1741              	.LBB819:
  65:../../DaisySP//Source/PhysicalModeling/PolyPluck.h ****         {
 1742              		.loc 12 65 20 view .LVU435
 1743 019e 0024     		movs	r4, #0
 1744              	.LBE819:
 1745              	.LBB820:
 1746              	.LBB816:
 125:../../DaisySP//Source/Utility/dsp.h **** }
 1747              		.loc 16 125 16 view .LVU436
 1748 01a0 C7EEA00A 		vdiv.f32	s1, s15, s1
 1749 01a4 FFF7FEFF 		bl	powf
 1750              	.LVL106:
 125:../../DaisySP//Source/Utility/dsp.h **** }
 1751              		.loc 16 125 16 view .LVU437
 1752              	.LBE816:
 1753              	.LBE820:
 1754              	.LBB821:
 1755              	.LBI821:
 1756              		.file 17 "../../DaisySP//Source/PhysicalModeling/pluck.h"
   1:../../DaisySP//Source/PhysicalModeling/pluck.h **** 
   2:../../DaisySP//Source/PhysicalModeling/pluck.h **** #pragma once
   3:../../DaisySP//Source/PhysicalModeling/pluck.h **** #ifndef DSY_PLUCK_H
   4:../../DaisySP//Source/PhysicalModeling/pluck.h **** #define DSY_PLUCK_H
ARM GAS  /var/folders/hl/qgbwny5j0fd895c2c41bk3tw0000gp/T//cc4ErH94.s 			page 56


   5:../../DaisySP//Source/PhysicalModeling/pluck.h **** 
   6:../../DaisySP//Source/PhysicalModeling/pluck.h **** #include <stdint.h>
   7:../../DaisySP//Source/PhysicalModeling/pluck.h **** #ifdef __cplusplus
   8:../../DaisySP//Source/PhysicalModeling/pluck.h **** 
   9:../../DaisySP//Source/PhysicalModeling/pluck.h **** namespace daisysp
  10:../../DaisySP//Source/PhysicalModeling/pluck.h **** {
  11:../../DaisySP//Source/PhysicalModeling/pluck.h **** /** The method of natural decay that the algorithm will use.
  12:../../DaisySP//Source/PhysicalModeling/pluck.h ****     - RECURSIVE: 1st order recursive filter, with coefs .5.
  13:../../DaisySP//Source/PhysicalModeling/pluck.h ****     - WEIGHTED_AVERAGE: weighted averaging. 
  14:../../DaisySP//Source/PhysicalModeling/pluck.h ****     */
  15:../../DaisySP//Source/PhysicalModeling/pluck.h **** enum
  16:../../DaisySP//Source/PhysicalModeling/pluck.h **** {
  17:../../DaisySP//Source/PhysicalModeling/pluck.h ****     PLUCK_MODE_RECURSIVE,
  18:../../DaisySP//Source/PhysicalModeling/pluck.h ****     PLUCK_MODE_WEIGHTED_AVERAGE,
  19:../../DaisySP//Source/PhysicalModeling/pluck.h ****     PLUCK_LAST,
  20:../../DaisySP//Source/PhysicalModeling/pluck.h **** };
  21:../../DaisySP//Source/PhysicalModeling/pluck.h **** 
  22:../../DaisySP//Source/PhysicalModeling/pluck.h **** /** Produces a naturally decaying plucked string or drum sound based on the Karplus-Strong algorith
  23:../../DaisySP//Source/PhysicalModeling/pluck.h **** 
  24:../../DaisySP//Source/PhysicalModeling/pluck.h ****     Ported from soundpipe to DaisySP
  25:../../DaisySP//Source/PhysicalModeling/pluck.h ****     
  26:../../DaisySP//Source/PhysicalModeling/pluck.h ****     This code was originally extracted from the Csound opcode "pluck"
  27:../../DaisySP//Source/PhysicalModeling/pluck.h **** 
  28:../../DaisySP//Source/PhysicalModeling/pluck.h ****     Original Author(s): Barry Vercoe, John ffitch
  29:../../DaisySP//Source/PhysicalModeling/pluck.h ****     Year: 1991
  30:../../DaisySP//Source/PhysicalModeling/pluck.h **** 
  31:../../DaisySP//Source/PhysicalModeling/pluck.h ****     Location: OOps/ugens4.c
  32:../../DaisySP//Source/PhysicalModeling/pluck.h ****     */
  33:../../DaisySP//Source/PhysicalModeling/pluck.h **** class Pluck
  34:../../DaisySP//Source/PhysicalModeling/pluck.h **** {
  35:../../DaisySP//Source/PhysicalModeling/pluck.h ****   public:
  36:../../DaisySP//Source/PhysicalModeling/pluck.h ****     Pluck() {}
  37:../../DaisySP//Source/PhysicalModeling/pluck.h ****     ~Pluck() {}
  38:../../DaisySP//Source/PhysicalModeling/pluck.h ****     /** Initializes the Pluck module.
  39:../../DaisySP//Source/PhysicalModeling/pluck.h **** 
  40:../../DaisySP//Source/PhysicalModeling/pluck.h ****             \param sample_rate: Sample rate of the audio engine being run.
  41:../../DaisySP//Source/PhysicalModeling/pluck.h ****             \param buf: buffer used as an impulse when triggering the Pluck algorithm
  42:../../DaisySP//Source/PhysicalModeling/pluck.h ****             \param npt: number of elementes in buf.
  43:../../DaisySP//Source/PhysicalModeling/pluck.h ****             \param mode: Sets the mode of the algorithm.
  44:../../DaisySP//Source/PhysicalModeling/pluck.h ****     */
  45:../../DaisySP//Source/PhysicalModeling/pluck.h ****     void Init(float sample_rate, float *buf, int32_t npt, int32_t mode);
  46:../../DaisySP//Source/PhysicalModeling/pluck.h **** 
  47:../../DaisySP//Source/PhysicalModeling/pluck.h **** 
  48:../../DaisySP//Source/PhysicalModeling/pluck.h ****     /** Processes the waveform to be generated, returning one sample. This should be called once pe
  49:../../DaisySP//Source/PhysicalModeling/pluck.h ****     */
  50:../../DaisySP//Source/PhysicalModeling/pluck.h ****     float Process(float &trig);
  51:../../DaisySP//Source/PhysicalModeling/pluck.h **** 
  52:../../DaisySP//Source/PhysicalModeling/pluck.h ****     /** 
  53:../../DaisySP//Source/PhysicalModeling/pluck.h ****         Sets the amplitude of the output signal.
  54:../../DaisySP//Source/PhysicalModeling/pluck.h ****         Input range: 0-1?
  55:../../DaisySP//Source/PhysicalModeling/pluck.h ****     */
  56:../../DaisySP//Source/PhysicalModeling/pluck.h ****     inline void SetAmp(float amp) { amp_ = amp; }
  57:../../DaisySP//Source/PhysicalModeling/pluck.h ****     /** Sets the frequency of the output signal in Hz.
  58:../../DaisySP//Source/PhysicalModeling/pluck.h ****         Input range: Any positive value
  59:../../DaisySP//Source/PhysicalModeling/pluck.h ****     */
  60:../../DaisySP//Source/PhysicalModeling/pluck.h ****     inline void SetFreq(float freq) { freq_ = freq; }
 1757              		.loc 17 60 17 is_stmt 1 view .LVU438
ARM GAS  /var/folders/hl/qgbwny5j0fd895c2c41bk3tw0000gp/T//cc4ErH94.s 			page 57


 1758              	.LBB822:
 1759              		.loc 17 60 39 view .LVU439
 1760              	.LBE822:
 1761              	.LBE821:
 1762              	.LBB825:
 1763              	.LBB817:
 125:../../DaisySP//Source/Utility/dsp.h **** }
 1764              		.loc 16 125 43 is_stmt 0 view .LVU440
 1765 01a8 DFED6D7A 		vldr.32	s15, .L63+76
 1766              	.LBE817:
 1767              	.LBE825:
 1768              	.LBB826:
 1769              	.LBB823:
 1770              		.loc 17 60 45 view .LVU441
 1771 01ac 3422     		movs	r2, #52
 1772 01ae 02FB0B93 		mla	r3, r2, fp, r9
 1773              	.LBE823:
 1774              	.LBE826:
 1775              	.LBB827:
 1776              	.LBB818:
 125:../../DaisySP//Source/Utility/dsp.h **** }
 1777              		.loc 16 125 43 view .LVU442
 1778 01b2 20EE270A 		vmul.f32	s0, s0, s15
 1779              	.LVL107:
 125:../../DaisySP//Source/Utility/dsp.h **** }
 1780              		.loc 16 125 43 view .LVU443
 1781              	.LBE818:
 1782              	.LBE827:
 1783              	.LBB828:
 1784              	.LBB824:
 1785              		.loc 17 60 45 view .LVU444
 1786 01b6 83ED040A 		vstr.32	s0, [r3, #16]
 1787              	.LVL108:
 1788              		.loc 17 60 45 view .LVU445
 1789              	.LBE824:
 1790              	.LBE828:
 1791              	.LBB829:
  65:../../DaisySP//Source/PhysicalModeling/PolyPluck.h ****         {
 1792              		.loc 12 65 29 is_stmt 1 view .LVU446
 1793              	.L42:
  67:../../DaisySP//Source/PhysicalModeling/PolyPluck.h ****             sig += plk_[i].Process(tval);
 1794              		.loc 12 67 56 is_stmt 0 view .LVU447
 1795 01ba F5EEC08A 		vcmpe.f32	s17, #0
 1796 01be 9FED587A 		vldr.32	s14, .L63+12
 1797 01c2 F7EE006A 		vmov.f32	s13, #1.0e+0
 1798 01c6 F0EE477A 		vmov.f32	s15, s14
 1799 01ca F1EE10FA 		vmrs	APSR_nzcv, FPSCR
 1800 01ce 04DD     		ble	.L40
  67:../../DaisySP//Source/PhysicalModeling/PolyPluck.h ****             sig += plk_[i].Process(tval);
 1801              		.loc 12 67 33 view .LVU448
 1802 01d0 D6F89436 		ldr	r3, [r6, #1684]
  67:../../DaisySP//Source/PhysicalModeling/PolyPluck.h ****             sig += plk_[i].Process(tval);
 1803              		.loc 12 67 56 view .LVU449
 1804 01d4 A342     		cmp	r3, r4
 1805 01d6 46FE877A 		vseleq.f32	s15, s13, s14
 1806              	.L40:
  65:../../DaisySP//Source/PhysicalModeling/PolyPluck.h ****         {
ARM GAS  /var/folders/hl/qgbwny5j0fd895c2c41bk3tw0000gp/T//cc4ErH94.s 			page 58


 1807              		.loc 12 65 9 view .LVU450
 1808 01da 0134     		adds	r4, r4, #1
 1809              	.LVL109:
  68:../../DaisySP//Source/PhysicalModeling/PolyPluck.h ****         }
 1810              		.loc 12 68 35 view .LVU451
 1811 01dc 2846     		mov	r0, r5
 1812 01de 03A9     		add	r1, sp, #12
  67:../../DaisySP//Source/PhysicalModeling/PolyPluck.h ****             sig += plk_[i].Process(tval);
 1813              		.loc 12 67 18 view .LVU452
 1814 01e0 CDED037A 		vstr.32	s15, [sp, #12]
  68:../../DaisySP//Source/PhysicalModeling/PolyPluck.h ****         }
 1815              		.loc 12 68 35 view .LVU453
 1816 01e4 FFF7FEFF 		bl	_ZN7daisysp5Pluck7ProcessERf
 1817              	.LVL110:
  65:../../DaisySP//Source/PhysicalModeling/PolyPluck.h ****         {
 1818              		.loc 12 65 29 view .LVU454
 1819 01e8 202C     		cmp	r4, #32
  68:../../DaisySP//Source/PhysicalModeling/PolyPluck.h ****         }
 1820              		.loc 12 68 17 view .LVU455
 1821 01ea 38EE008A 		vadd.f32	s16, s16, s0
 1822              	.LVL111:
  65:../../DaisySP//Source/PhysicalModeling/PolyPluck.h ****         {
 1823              		.loc 12 65 9 is_stmt 1 view .LVU456
  65:../../DaisySP//Source/PhysicalModeling/PolyPluck.h ****         {
 1824              		.loc 12 65 29 view .LVU457
 1825 01ee 05F13405 		add	r5, r5, #52
 1826 01f2 E2D1     		bne	.L42
 1827              	.LBE829:
  70:../../DaisySP//Source/PhysicalModeling/PolyPluck.h ****             trig = 0.0f;
 1828              		.loc 12 70 9 is_stmt 0 view .LVU458
 1829 01f4 F5EEC08A 		vcmpe.f32	s17, #0
  72:../../DaisySP//Source/PhysicalModeling/PolyPluck.h ****     }
 1830              		.loc 12 72 28 view .LVU459
 1831 01f8 5A48     		ldr	r0, .L63+80
 1832 01fa B0EE480A 		vmov.f32	s0, s16
  70:../../DaisySP//Source/PhysicalModeling/PolyPluck.h ****             trig = 0.0f;
 1833              		.loc 12 70 9 view .LVU460
 1834 01fe F1EE10FA 		vmrs	APSR_nzcv, FPSCR
  71:../../DaisySP//Source/PhysicalModeling/PolyPluck.h ****         return blk_.Process(sig);
 1835              		.loc 12 71 18 view .LVU461
 1836 0202 C8BF     		it	gt
 1837 0204 DFED468A 		vldrgt.32	s17, .L63+12
 1838              	.LVL112:
  72:../../DaisySP//Source/PhysicalModeling/PolyPluck.h ****     }
 1839              		.loc 12 72 28 view .LVU462
 1840 0208 FFF7FEFF 		bl	_ZN7daisysp7DcBlock7ProcessEf
 1841              	.LVL113:
  72:../../DaisySP//Source/PhysicalModeling/PolyPluck.h ****     }
 1842              		.loc 12 72 28 view .LVU463
 1843              	.LBE844:
 1844              	.LBE846:
 100:Plinks.cpp    **** 		sig_out = ladder.Process(sig_out);
 1845              		.loc 15 100 27 view .LVU464
 1846 020c 4B48     		ldr	r0, .L63+40
  99:Plinks.cpp    **** 		sig_out = ladder.Process(sig_out);
 1847              		.loc 15 99 11 view .LVU465
 1848 020e 8DED020A 		vstr.32	s0, [sp, #8]
ARM GAS  /var/folders/hl/qgbwny5j0fd895c2c41bk3tw0000gp/T//cc4ErH94.s 			page 59


 1849              		.loc 15 100 3 is_stmt 1 view .LVU466
 1850              		.loc 15 100 27 is_stmt 0 view .LVU467
 1851 0212 FFF7FEFF 		bl	_ZN7daisysp10MoogLadder7ProcessEf
 1852              	.LVL114:
 101:Plinks.cpp    **** 		float sig_out_env = sig_out * env.Process();
 1853              		.loc 15 101 44 view .LVU468
 1854 0216 4A48     		ldr	r0, .L63+44
 100:Plinks.cpp    **** 		sig_out = ladder.Process(sig_out);
 1855              		.loc 15 100 11 view .LVU469
 1856 0218 8DED020A 		vstr.32	s0, [sp, #8]
 1857              		.loc 15 101 3 is_stmt 1 view .LVU470
 1858              		.loc 15 101 44 is_stmt 0 view .LVU471
 1859 021c FFF7FEFF 		bl	_ZN7daisysp5AdEnv7ProcessEv
 1860              	.LVL115:
 102:Plinks.cpp    **** 		
 103:Plinks.cpp    **** 		float wet;
 104:Plinks.cpp    **** 		rv.Process(sig_out, sig_out, &wet, &wet);
 1861              		.loc 15 104 13 view .LVU472
 1862 0220 03AB     		add	r3, sp, #12
 1863 0222 02AA     		add	r2, sp, #8
 101:Plinks.cpp    **** 		float sig_out_env = sig_out * env.Process();
 1864              		.loc 15 101 45 view .LVU473
 1865 0224 9DED028A 		vldr.32	s16, [sp, #8]
 1866              		.loc 15 104 13 view .LVU474
 1867 0228 1146     		mov	r1, r2
 1868 022a 3C48     		ldr	r0, .L63+8
 1869 022c 0093     		str	r3, [sp]
 101:Plinks.cpp    **** 		float sig_out_env = sig_out * env.Process();
 1870              		.loc 15 101 45 view .LVU475
 1871 022e 20EE088A 		vmul.f32	s16, s0, s16
 1872              	.LVL116:
 103:Plinks.cpp    **** 		rv.Process(sig_out, sig_out, &wet, &wet);
 1873              		.loc 15 103 3 is_stmt 1 view .LVU476
 1874              		.loc 15 104 3 view .LVU477
 1875              		.loc 15 104 13 is_stmt 0 view .LVU478
 1876 0232 FFF7FEFF 		bl	_ZN7daisysp8ReverbSc7ProcessERKfS2_PfS3_
 1877              	.LVL117:
 105:Plinks.cpp    **** 		// is this wet = softclip(wet) or just softclip(wet)?
 106:Plinks.cpp    **** 		wet = SoftClip(wet);
 1878              		.loc 15 106 3 is_stmt 1 view .LVU479
 1879              	.LBB847:
 1880              	.LBB848:
 174:../../DaisySP//Source/Utility/dsp.h ****     }
 175:../../DaisySP//Source/Utility/dsp.h **** }
 176:../../DaisySP//Source/Utility/dsp.h **** 
 177:../../DaisySP//Source/Utility/dsp.h **** /** Simple 3-point median filter
 178:../../DaisySP//Source/Utility/dsp.h **** c/o stephen mccaul
 179:../../DaisySP//Source/Utility/dsp.h **** */
 180:../../DaisySP//Source/Utility/dsp.h **** template <typename T>
 181:../../DaisySP//Source/Utility/dsp.h **** T median(T a, T b, T c)
 182:../../DaisySP//Source/Utility/dsp.h **** {
 183:../../DaisySP//Source/Utility/dsp.h ****     return (b < a) ? (b < c) ? (c < a) ? c : a : b
 184:../../DaisySP//Source/Utility/dsp.h ****                    : (a < c) ? (c < b) ? c : b : a;
 185:../../DaisySP//Source/Utility/dsp.h **** }
 186:../../DaisySP//Source/Utility/dsp.h **** 
 187:../../DaisySP//Source/Utility/dsp.h **** /** Ported from pichenettes/eurorack/plaits/dsp/oscillator/oscillator.h
 188:../../DaisySP//Source/Utility/dsp.h **** */
ARM GAS  /var/folders/hl/qgbwny5j0fd895c2c41bk3tw0000gp/T//cc4ErH94.s 			page 60


 189:../../DaisySP//Source/Utility/dsp.h **** inline float ThisBlepSample(float t)
 190:../../DaisySP//Source/Utility/dsp.h **** {
 191:../../DaisySP//Source/Utility/dsp.h ****     return 0.5f * t * t;
 192:../../DaisySP//Source/Utility/dsp.h **** }
 193:../../DaisySP//Source/Utility/dsp.h **** 
 194:../../DaisySP//Source/Utility/dsp.h **** /** Ported from pichenettes/eurorack/plaits/dsp/oscillator/oscillator.h
 195:../../DaisySP//Source/Utility/dsp.h **** */
 196:../../DaisySP//Source/Utility/dsp.h **** inline float NextBlepSample(float t)
 197:../../DaisySP//Source/Utility/dsp.h **** {
 198:../../DaisySP//Source/Utility/dsp.h ****     t = 1.0f - t;
 199:../../DaisySP//Source/Utility/dsp.h ****     return -0.5f * t * t;
 200:../../DaisySP//Source/Utility/dsp.h **** }
 201:../../DaisySP//Source/Utility/dsp.h **** 
 202:../../DaisySP//Source/Utility/dsp.h **** /** Ported from pichenettes/eurorack/plaits/dsp/oscillator/oscillator.h
 203:../../DaisySP//Source/Utility/dsp.h **** */
 204:../../DaisySP//Source/Utility/dsp.h **** inline float NextIntegratedBlepSample(float t)
 205:../../DaisySP//Source/Utility/dsp.h **** {
 206:../../DaisySP//Source/Utility/dsp.h ****     const float t1 = 0.5f * t;
 207:../../DaisySP//Source/Utility/dsp.h ****     const float t2 = t1 * t1;
 208:../../DaisySP//Source/Utility/dsp.h ****     const float t4 = t2 * t2;
 209:../../DaisySP//Source/Utility/dsp.h ****     return 0.1875f - t1 + 1.5f * t2 - t4;
 210:../../DaisySP//Source/Utility/dsp.h **** }
 211:../../DaisySP//Source/Utility/dsp.h **** 
 212:../../DaisySP//Source/Utility/dsp.h **** /** Ported from pichenettes/eurorack/plaits/dsp/oscillator/oscillator.h
 213:../../DaisySP//Source/Utility/dsp.h **** */
 214:../../DaisySP//Source/Utility/dsp.h **** inline float ThisIntegratedBlepSample(float t)
 215:../../DaisySP//Source/Utility/dsp.h **** {
 216:../../DaisySP//Source/Utility/dsp.h ****     return NextIntegratedBlepSample(1.0f - t);
 217:../../DaisySP//Source/Utility/dsp.h **** }
 218:../../DaisySP//Source/Utility/dsp.h **** 
 219:../../DaisySP//Source/Utility/dsp.h **** /** Soft Limiting function ported extracted from pichenettes/stmlib */
 220:../../DaisySP//Source/Utility/dsp.h **** inline float SoftLimit(float x)
 221:../../DaisySP//Source/Utility/dsp.h **** {
 222:../../DaisySP//Source/Utility/dsp.h ****     return x * (27.f + x * x) / (27.f + 9.f * x * x);
 223:../../DaisySP//Source/Utility/dsp.h **** }
 224:../../DaisySP//Source/Utility/dsp.h **** 
 225:../../DaisySP//Source/Utility/dsp.h **** /** Soft Clipping function extracted from pichenettes/stmlib */
 226:../../DaisySP//Source/Utility/dsp.h **** inline float SoftClip(float x)
 227:../../DaisySP//Source/Utility/dsp.h **** {
 228:../../DaisySP//Source/Utility/dsp.h ****     if(x < -3.0f)
 1881              		.loc 16 228 5 is_stmt 0 view .LVU480
 1882 0236 B8EE087A 		vmov.f32	s14, #-3.0e+0
 1883              	.LBE848:
 1884              	.LBE847:
 1885              		.loc 15 106 17 view .LVU481
 1886 023a DDED037A 		vldr.32	s15, [sp, #12]
 1887              	.LVL118:
 1888              	.LBB856:
 1889              	.LBI847:
 226:../../DaisySP//Source/Utility/dsp.h **** {
 1890              		.loc 16 226 14 is_stmt 1 view .LVU482
 1891              	.LBB853:
 1892              		.loc 16 228 5 view .LVU483
 1893 023e F4EEC77A 		vcmpe.f32	s15, s14
 1894 0242 F1EE10FA 		vmrs	APSR_nzcv, FPSCR
 1895 0246 5ED4     		bmi	.L51
 229:../../DaisySP//Source/Utility/dsp.h ****         return -1.0f;
ARM GAS  /var/folders/hl/qgbwny5j0fd895c2c41bk3tw0000gp/T//cc4ErH94.s 			page 61


 230:../../DaisySP//Source/Utility/dsp.h ****     else if(x > 3.0f)
 1896              		.loc 16 230 10 view .LVU484
 1897 0248 B0EE087A 		vmov.f32	s14, #3.0e+0
 1898 024c F4EEC77A 		vcmpe.f32	s15, s14
 1899 0250 F1EE10FA 		vmrs	APSR_nzcv, FPSCR
 1900 0254 5ADC     		bgt	.L52
 1901              	.LVL119:
 1902              	.LBB849:
 1903              	.LBI849:
 226:../../DaisySP//Source/Utility/dsp.h **** {
 1904              		.loc 16 226 14 view .LVU485
 1905              	.LBE849:
 1906              	.LBE853:
 1907              	.LBE856:
 1908              	.LBE809:
 1909              	.LBE808:
 231:../../DaisySP//Source/Utility/dsp.h ****         return 1.0f;
 232:../../DaisySP//Source/Utility/dsp.h ****     else
 233:../../DaisySP//Source/Utility/dsp.h ****         return SoftLimit(x);
 1910              		.loc 16 233 9 view .LVU486
 1911              	.LBB864:
 1912              	.LBB860:
 1913              	.LBB857:
 1914              	.LBB854:
 1915              	.LBB852:
 1916              	.LBB850:
 1917              	.LBI850:
 220:../../DaisySP//Source/Utility/dsp.h **** {
 1918              		.loc 16 220 14 view .LVU487
 1919              	.LBB851:
 222:../../DaisySP//Source/Utility/dsp.h **** }
 1920              		.loc 16 222 5 view .LVU488
 222:../../DaisySP//Source/Utility/dsp.h **** }
 1921              		.loc 16 222 22 is_stmt 0 view .LVU489
 1922 0256 B3EE0B7A 		vmov.f32	s14, #2.7e+1
 222:../../DaisySP//Source/Utility/dsp.h **** }
 1923              		.loc 16 222 45 view .LVU490
 1924 025a B2EE026A 		vmov.f32	s12, #9.0e+0
 222:../../DaisySP//Source/Utility/dsp.h **** }
 1925              		.loc 16 222 22 view .LVU491
 1926 025e F0EE475A 		vmov.f32	s11, s14
 222:../../DaisySP//Source/Utility/dsp.h **** }
 1927              		.loc 16 222 45 view .LVU492
 1928 0262 27EE866A 		vmul.f32	s12, s15, s12
 222:../../DaisySP//Source/Utility/dsp.h **** }
 1929              		.loc 16 222 22 view .LVU493
 1930 0266 E7EEA75A 		vfma.f32	s11, s15, s15
 222:../../DaisySP//Source/Utility/dsp.h **** }
 1931              		.loc 16 222 39 view .LVU494
 1932 026a A7EE867A 		vfma.f32	s14, s15, s12
 222:../../DaisySP//Source/Utility/dsp.h **** }
 1933              		.loc 16 222 14 view .LVU495
 1934 026e 67EEA57A 		vmul.f32	s15, s15, s11
 1935              	.LVL120:
 222:../../DaisySP//Source/Utility/dsp.h **** }
 1936              		.loc 16 222 39 view .LVU496
 1937 0272 F0EE476A 		vmov.f32	s13, s14
ARM GAS  /var/folders/hl/qgbwny5j0fd895c2c41bk3tw0000gp/T//cc4ErH94.s 			page 62


 222:../../DaisySP//Source/Utility/dsp.h **** }
 1938              		.loc 16 222 52 view .LVU497
 1939 0276 87EEA67A 		vdiv.f32	s14, s15, s13
 1940              	.LVL121:
 1941              	.L45:
 222:../../DaisySP//Source/Utility/dsp.h **** }
 1942              		.loc 16 222 52 view .LVU498
 1943              	.LBE851:
 1944              	.LBE850:
 1945              	.LBE852:
 1946              	.LBE854:
 1947              	.LBE857:
 107:Plinks.cpp    **** 
 108:Plinks.cpp    **** 		OUT_L[i] = wet + (sig_out * .5f);
 1948              		.loc 15 108 18 view .LVU499
 1949 027a DDED027A 		vldr.32	s15, [sp, #8]
 106:Plinks.cpp    **** 
 1950              		.loc 15 106 7 view .LVU500
 1951 027e 8DED037A 		vstr.32	s14, [sp, #12]
 1952              		.loc 15 108 3 is_stmt 1 view .LVU501
 1953              		.loc 15 108 10 is_stmt 0 view .LVU502
 1954 0282 D8F80020 		ldr	r2, [r8]
 109:Plinks.cpp    **** 		OUT_R[i] = wet + (sig_out_env * .5f);
 1955              		.loc 15 109 10 view .LVU503
 1956 0286 D8F80430 		ldr	r3, [r8, #4]
 108:Plinks.cpp    **** 		OUT_R[i] = wet + (sig_out_env * .5f);
 1957              		.loc 15 108 18 view .LVU504
 1958 028a F6EE006A 		vmov.f32	s13, #5.0e-1
 108:Plinks.cpp    **** 		OUT_R[i] = wet + (sig_out_env * .5f);
 1959              		.loc 15 108 10 view .LVU505
 1960 028e 02EB8702 		add	r2, r2, r7, lsl #2
 1961              		.loc 15 109 10 view .LVU506
 1962 0292 03EB8703 		add	r3, r3, r7, lsl #2
 1963              	.LBE860:
  86:Plinks.cpp    **** 	{
 1964              		.loc 15 86 2 view .LVU507
 1965 0296 0137     		adds	r7, r7, #1
 1966              	.LVL122:
 1967              	.LBB861:
 108:Plinks.cpp    **** 		OUT_R[i] = wet + (sig_out_env * .5f);
 1968              		.loc 15 108 18 view .LVU508
 1969 0298 A7EEA67A 		vfma.f32	s14, s15, s13
 1970              	.LBE861:
  86:Plinks.cpp    **** 	{
 1971              		.loc 15 86 23 view .LVU509
 1972 029c BA45     		cmp	r10, r7
 1973              	.LBB862:
 108:Plinks.cpp    **** 		OUT_R[i] = wet + (sig_out_env * .5f);
 1974              		.loc 15 108 12 view .LVU510
 1975 029e 82ED007A 		vstr.32	s14, [r2]
 1976              		.loc 15 109 3 is_stmt 1 view .LVU511
 1977              		.loc 15 109 18 is_stmt 0 view .LVU512
 1978 02a2 DDED037A 		vldr.32	s15, [sp, #12]
 1979 02a6 E8EE267A 		vfma.f32	s15, s16, s13
 1980              		.loc 15 109 12 view .LVU513
 1981 02aa C3ED007A 		vstr.32	s15, [r3]
 1982              	.LBE862:
ARM GAS  /var/folders/hl/qgbwny5j0fd895c2c41bk3tw0000gp/T//cc4ErH94.s 			page 63


  86:Plinks.cpp    **** 	{
 1983              		.loc 15 86 2 is_stmt 1 view .LVU514
 1984              	.LVL123:
  86:Plinks.cpp    **** 	{
 1985              		.loc 15 86 23 view .LVU515
 1986 02ae 7FF43FAF 		bne	.L33
 1987              	.LVL124:
 1988              	.L32:
  86:Plinks.cpp    **** 	{
 1989              		.loc 15 86 23 is_stmt 0 view .LVU516
 1990              	.LBE864:
 110:Plinks.cpp    **** 
 111:Plinks.cpp    **** 		//testing soft clip
 112:Plinks.cpp    **** 		// also out = OUT never really made much sense anyway? 
 113:Plinks.cpp    **** 		//out[0][i] = OUT_L[i] + (sig_out * .5f);
 114:Plinks.cpp    **** 		//out[1][i] = OUT_R[i] + (sig_out_env * .5f);
 115:Plinks.cpp    **** 
 116:Plinks.cpp    **** 
 117:Plinks.cpp    **** 	}
 118:Plinks.cpp    **** }
 1991              		.loc 15 118 1 view .LVU517
 1992 02b2 05B0     		add	sp, sp, #20
 1993              		.cfi_remember_state
 1994              		.cfi_def_cfa_offset 68
 1995              		@ sp needed
 1996 02b4 BDEC088B 		vldm	sp!, {d8-d11}
 1997              		.cfi_restore 86
 1998              		.cfi_restore 87
 1999              		.cfi_restore 84
 2000              		.cfi_restore 85
 2001              		.cfi_restore 82
 2002              		.cfi_restore 83
 2003              		.cfi_restore 80
 2004              		.cfi_restore 81
 2005              		.cfi_def_cfa_offset 36
 2006 02b8 BDE8F08F 		pop	{r4, r5, r6, r7, r8, r9, r10, fp, pc}
 2007              	.LVL125:
 2008              	.L62:
 2009              		.cfi_restore_state
 2010              	.LBB865:
 2011              	.LBB863:
  97:Plinks.cpp    **** 
 2012              		.loc 15 97 3 is_stmt 1 view .LVU518
  97:Plinks.cpp    **** 
 2013              		.loc 15 97 31 is_stmt 0 view .LVU519
 2014 02bc B0EE490A 		vmov.f32	s0, s18
 2015 02c0 FFF7FEFF 		bl	_Z11scaleSelectf
 2016              	.LVL126:
  90:Plinks.cpp    **** 		}
 2017              		.loc 15 90 9 view .LVU520
 2018 02c4 F7EE008A 		vmov.f32	s17, #1.0e+0
  97:Plinks.cpp    **** 
 2019              		.loc 15 97 31 view .LVU521
 2020 02c8 F0EE407A 		vmov.f32	s15, s0
 2021              	.LVL127:
  99:Plinks.cpp    **** 		sig_out = ladder.Process(sig_out);
 2022              		.loc 15 99 3 is_stmt 1 view .LVU522
ARM GAS  /var/folders/hl/qgbwny5j0fd895c2c41bk3tw0000gp/T//cc4ErH94.s 			page 64


 2023              	.LBB858:
  50:../../DaisySP//Source/PhysicalModeling/PolyPluck.h ****     {
 2024              		.loc 12 50 11 view .LVU523
 2025              	.L38:
 2026              	.LBB845:
  57:../../DaisySP//Source/PhysicalModeling/PolyPluck.h ****             // set new voice to new note
 2027              		.loc 12 57 44 is_stmt 0 view .LVU524
 2028 02cc D6F89436 		ldr	r3, [r6, #1684]
 2029              	.LBB830:
 2030              	.LBB831:
  61:../../DaisySP//Source/PhysicalModeling/pluck.h ****     /** Sets the time it takes for a triggered note to end in seconds.
  62:../../DaisySP//Source/PhysicalModeling/pluck.h ****         Input range: 0-1
  63:../../DaisySP//Source/PhysicalModeling/pluck.h ****     */
  64:../../DaisySP//Source/PhysicalModeling/pluck.h ****     inline void SetDecay(float decay) { decay_ = decay; }
  65:../../DaisySP//Source/PhysicalModeling/pluck.h ****     /** Sets the dampening factor applied by the filter (based on PLUCK_MODE)
  66:../../DaisySP//Source/PhysicalModeling/pluck.h ****         Input range: 0-1
  67:../../DaisySP//Source/PhysicalModeling/pluck.h ****     */
  68:../../DaisySP//Source/PhysicalModeling/pluck.h ****     inline void SetDamp(float damp) { damp_ = damp; }
 2031              		.loc 17 68 45 view .LVU525
 2032 02d0 3422     		movs	r2, #52
 2033              	.LBE831:
 2034              	.LBE830:
  59:../../DaisySP//Source/PhysicalModeling/PolyPluck.h ****             plk_[active_voice_].SetDecay(p_decay_);
 2035              		.loc 12 59 40 view .LVU526
 2036 02d2 06F28C61 		addw	r1, r6, #1676
  57:../../DaisySP//Source/PhysicalModeling/PolyPluck.h ****             // set new voice to new note
 2037              		.loc 12 57 44 view .LVU527
 2038 02d6 0133     		adds	r3, r3, #1
 2039              	.LBB835:
 2040              	.LBB832:
 2041              		.loc 17 68 45 view .LVU528
 2042 02d8 0968     		ldr	r1, [r1]	@ float
 2043              	.LBE832:
 2044              	.LBE835:
  57:../../DaisySP//Source/PhysicalModeling/PolyPluck.h ****             // set new voice to new note
 2045              		.loc 12 57 49 view .LVU529
 2046 02da 03F01F0B 		and	fp, r3, #31
 2047              	.LBB836:
 2048              	.LBB833:
 2049              		.loc 17 68 45 view .LVU530
 2050 02de 02FB0B92 		mla	r2, r2, fp, r9
 2051              	.LBE833:
 2052              	.LBE836:
  57:../../DaisySP//Source/PhysicalModeling/PolyPluck.h ****             // set new voice to new note
 2053              		.loc 12 57 27 view .LVU531
 2054 02e2 C6F894B6 		str	fp, [r6, #1684]
 2055              	.LVL128:
 2056              	.LBB837:
 2057              	.LBI830:
 2058              		.loc 17 68 17 is_stmt 1 view .LVU532
 2059              	.LBB834:
 2060              		.loc 17 68 39 view .LVU533
 2061              		.loc 17 68 45 is_stmt 0 view .LVU534
 2062 02e6 9161     		str	r1, [r2, #24]	@ float
 2063              	.LVL129:
 2064              		.loc 17 68 45 view .LVU535
 2065              	.LBE834:
ARM GAS  /var/folders/hl/qgbwny5j0fd895c2c41bk3tw0000gp/T//cc4ErH94.s 			page 65


 2066              	.LBE837:
 2067              	.LBB838:
 2068              	.LBI838:
  64:../../DaisySP//Source/PhysicalModeling/pluck.h ****     /** Sets the dampening factor applied by the filter (based on PLUCK_MODE)
 2069              		.loc 17 64 17 is_stmt 1 view .LVU536
 2070              	.LBB839:
  64:../../DaisySP//Source/PhysicalModeling/pluck.h ****     /** Sets the dampening factor applied by the filter (based on PLUCK_MODE)
 2071              		.loc 17 64 41 view .LVU537
 2072              	.LBE839:
 2073              	.LBE838:
  60:../../DaisySP//Source/PhysicalModeling/PolyPluck.h ****             plk_[active_voice_].SetAmp(0.25f);
 2074              		.loc 12 60 41 is_stmt 0 view .LVU538
 2075 02e8 06F5D261 		add	r1, r6, #1680
 2076              	.LBB841:
 2077              	.LBB840:
  64:../../DaisySP//Source/PhysicalModeling/pluck.h ****     /** Sets the dampening factor applied by the filter (based on PLUCK_MODE)
 2078              		.loc 17 64 48 view .LVU539
 2079 02ec 0968     		ldr	r1, [r1]	@ float
 2080 02ee 5161     		str	r1, [r2, #20]	@ float
 2081              	.LVL130:
  64:../../DaisySP//Source/PhysicalModeling/pluck.h ****     /** Sets the dampening factor applied by the filter (based on PLUCK_MODE)
 2082              		.loc 17 64 48 view .LVU540
 2083              	.LBE840:
 2084              	.LBE841:
 2085              	.LBB842:
 2086              	.LBI842:
  56:../../DaisySP//Source/PhysicalModeling/pluck.h ****     /** Sets the frequency of the output signal in Hz.
 2087              		.loc 17 56 17 is_stmt 1 view .LVU541
 2088              	.LBB843:
  56:../../DaisySP//Source/PhysicalModeling/pluck.h ****     /** Sets the frequency of the output signal in Hz.
 2089              		.loc 17 56 37 view .LVU542
  56:../../DaisySP//Source/PhysicalModeling/pluck.h ****     /** Sets the frequency of the output signal in Hz.
 2090              		.loc 17 56 42 is_stmt 0 view .LVU543
 2091 02f0 4FF07A51 		mov	r1, #1048576000
 2092 02f4 D160     		str	r1, [r2, #12]	@ float
  56:../../DaisySP//Source/PhysicalModeling/pluck.h ****     /** Sets the frequency of the output signal in Hz.
 2093              		.loc 17 56 49 view .LVU544
 2094 02f6 47E7     		b	.L39
 2095              	.LVL131:
 2096              	.L34:
  56:../../DaisySP//Source/PhysicalModeling/pluck.h ****     /** Sets the frequency of the output signal in Hz.
 2097              		.loc 17 56 49 view .LVU545
 2098              	.LBE843:
 2099              	.LBE842:
 2100              	.LBE845:
 2101              	.LBE858:
  93:Plinks.cpp    **** 			env.Trigger();
 2102              		.loc 15 93 3 is_stmt 1 view .LVU546
  93:Plinks.cpp    **** 			env.Trigger();
 2103              		.loc 15 93 23 is_stmt 0 view .LVU547
 2104 02f8 1648     		ldr	r0, .L63+64
 2105 02fa FFF7FEFF 		bl	_ZN5daisy6GateIn4TrigEv
 2106              	.LVL132:
  93:Plinks.cpp    **** 			env.Trigger();
 2107              		.loc 15 93 3 view .LVU548
 2108 02fe 0028     		cmp	r0, #0
 2109 0300 3FF434AF 		beq	.L37
ARM GAS  /var/folders/hl/qgbwny5j0fd895c2c41bk3tw0000gp/T//cc4ErH94.s 			page 66


 2110 0304 2EE7     		b	.L35
 2111              	.LVL133:
 2112              	.L51:
 2113              	.LBB859:
 2114              	.LBB855:
 229:../../DaisySP//Source/Utility/dsp.h ****     else if(x > 3.0f)
 2115              		.loc 16 229 17 view .LVU549
 2116 0306 BFEE007A 		vmov.f32	s14, #-1.0e+0
 2117 030a B6E7     		b	.L45
 2118              	.L52:
 231:../../DaisySP//Source/Utility/dsp.h ****     else
 2119              		.loc 16 231 16 view .LVU550
 2120 030c B7EE007A 		vmov.f32	s14, #1.0e+0
 2121 0310 B3E7     		b	.L45
 2122              	.L64:
 2123 0312 00BF     		.align	2
 2124              	.L63:
 2125 0314 00000000 		.word	.LANCHOR20
 2126 0318 00800000 		.word	pp+32768
 2127 031c 00000000 		.word	rv
 2128 0320 00000000 		.word	0
 2129 0324 2D152A3F 		.word	1059722541
 2130 0328 00007A44 		.word	1148846080
 2131 032c 6666663F 		.word	1063675494
 2132 0330 0000FA46 		.word	1190789120
 2133 0334 CDCCCC3D 		.word	1036831949
 2134 0338 CDCC9C40 		.word	1084017869
 2135 033c 00000000 		.word	.LANCHOR21
 2136 0340 00000000 		.word	.LANCHOR22
 2137 0344 00007042 		.word	1114636288
 2138 0348 B0010000 		.word	.LANCHOR20+432
 2139 034c 00000000 		.word	.LANCHOR16
 2140 0350 CDCCCCCC 		.word	-858993459
 2141 0354 B7010000 		.word	.LANCHOR20+439
 2142 0358 00008A42 		.word	1116340224
 2143 035c 0C000000 		.word	pp+12
 2144 0360 0000DC43 		.word	1138491392
 2145 0364 00000000 		.word	pp
 2146              	.LBE855:
 2147              	.LBE859:
 2148              	.LBE863:
 2149              	.LBE865:
 2150              		.cfi_endproc
 2151              	.LFE4799:
 2153              		.section	.text.startup.main,"ax",%progbits
 2154              		.align	1
 2155              		.p2align 2,,3
 2156              		.global	main
 2157              		.syntax unified
 2158              		.thumb
 2159              		.thumb_func
 2160              		.fpu fpv5-d16
 2162              	main:
 2163              	.LFB4800:
 119:Plinks.cpp    **** 
 120:Plinks.cpp    **** int main(void)
 121:Plinks.cpp    **** {
ARM GAS  /var/folders/hl/qgbwny5j0fd895c2c41bk3tw0000gp/T//cc4ErH94.s 			page 67


 2164              		.loc 15 121 1 is_stmt 1 view -0
 2165              		.cfi_startproc
 2166              		@ args = 0, pretend = 0, frame = 0
 2167              		@ frame_needed = 0, uses_anonymous_args = 0
 122:Plinks.cpp    **** 	hw.Init();
 2168              		.loc 15 122 2 view .LVU552
 121:Plinks.cpp    **** 	hw.Init();
 2169              		.loc 15 121 1 is_stmt 0 view .LVU553
 2170 0000 70B5     		push	{r4, r5, r6, lr}
 2171              		.cfi_def_cfa_offset 16
 2172              		.cfi_offset 4, -16
 2173              		.cfi_offset 5, -12
 2174              		.cfi_offset 6, -8
 2175              		.cfi_offset 14, -4
 2176              		.loc 15 122 9 view .LVU554
 2177 0002 3948     		ldr	r0, .L73
 2178 0004 394D     		ldr	r5, .L73+4
 121:Plinks.cpp    **** 	hw.Init();
 2179              		.loc 15 121 1 view .LVU555
 2180 0006 2DED028B 		vpush.64	{d8}
 2181              		.cfi_def_cfa_offset 24
 2182              		.cfi_offset 80, -24
 2183              		.cfi_offset 81, -20
 2184              		.loc 15 122 9 view .LVU556
 2185 000a FFF7FEFF 		bl	_ZN5daisy8patch_sm12DaisyPatchSM4InitEv
 2186              	.LVL134:
 123:Plinks.cpp    **** 	hw.SetAudioBlockSize(4); // number of samples handled per callback
 2187              		.loc 15 123 2 is_stmt 1 view .LVU557
 2188              		.loc 15 123 22 is_stmt 0 view .LVU558
 2189 000e 0421     		movs	r1, #4
 2190 0010 3548     		ldr	r0, .L73
 2191 0012 A5F5D064 		sub	r4, r5, #1664
 2192 0016 FFF7FEFF 		bl	_ZN5daisy8patch_sm12DaisyPatchSM17SetAudioBlockSizeEj
 2193              	.LVL135:
 124:Plinks.cpp    **** 	hw.SetAudioSampleRate(SaiHandle::Config::SampleRate::SAI_48KHZ);
 2194              		.loc 15 124 2 is_stmt 1 view .LVU559
 2195              		.loc 15 124 23 is_stmt 0 view .LVU560
 2196 001a 0321     		movs	r1, #3
 2197 001c 3248     		ldr	r0, .L73
 2198 001e 2E46     		mov	r6, r5
 2199 0020 FFF7FEFF 		bl	_ZN5daisy8patch_sm12DaisyPatchSM18SetAudioSampleRateENS_9SaiHandle6Config10SampleRateE
 2200              	.LVL136:
 125:Plinks.cpp    **** 	float sample_rate = hw.AudioSampleRate();
 2201              		.loc 15 125 2 is_stmt 1 view .LVU561
 2202              		.loc 15 125 40 is_stmt 0 view .LVU562
 2203 0024 3048     		ldr	r0, .L73
 2204 0026 FFF7FEFF 		bl	_ZN5daisy8patch_sm12DaisyPatchSM15AudioSampleRateEv
 2205              	.LVL137:
 2206 002a B0EE408A 		vmov.f32	s16, s0
 2207              	.LVL138:
 126:Plinks.cpp    **** 
 127:Plinks.cpp    **** 	// init board
 128:Plinks.cpp    **** 	InitBed();
 2208              		.loc 15 128 2 is_stmt 1 view .LVU563
 2209              		.loc 15 128 9 is_stmt 0 view .LVU564
 2210 002e FFF7FEFF 		bl	_ZN5daisy8patch_sm7InitBedEv
 2211              	.LVL139:
ARM GAS  /var/folders/hl/qgbwny5j0fd895c2c41bk3tw0000gp/T//cc4ErH94.s 			page 68


 129:Plinks.cpp    **** 	
 130:Plinks.cpp    **** 	// pluck init 
 131:Plinks.cpp    **** 	pp.Init(sample_rate);
 2212              		.loc 15 131 2 is_stmt 1 view .LVU565
 2213              	.LBB884:
 2214              	.LBI884:
  29:../../DaisySP//Source/PhysicalModeling/PolyPluck.h ****     {
 2215              		.loc 12 29 10 view .LVU566
 2216              	.LBB885:
  31:../../DaisySP//Source/PhysicalModeling/PolyPluck.h ****         p_damp_       = 0.95f;
 2217              		.loc 12 31 23 is_stmt 0 view .LVU567
 2218 0032 2F4B     		ldr	r3, .L73+8
 2219 0034 0021     		movs	r1, #0
  32:../../DaisySP//Source/PhysicalModeling/PolyPluck.h ****         p_decay_      = 0.75f;
 2220              		.loc 12 32 23 view .LVU568
 2221 0036 2F48     		ldr	r0, .L73+12
 2222 0038 03F28C62 		addw	r2, r3, #1676
  31:../../DaisySP//Source/PhysicalModeling/PolyPluck.h ****         p_damp_       = 0.95f;
 2223              		.loc 12 31 23 view .LVU569
 2224 003c C3F89416 		str	r1, [r3, #1684]
  32:../../DaisySP//Source/PhysicalModeling/PolyPluck.h ****         p_decay_      = 0.75f;
 2225              		.loc 12 32 23 view .LVU570
 2226 0040 1060     		str	r0, [r2]	@ float
  33:../../DaisySP//Source/PhysicalModeling/PolyPluck.h ****         for(size_t i = 0; i < num_voices; i++)
 2227              		.loc 12 33 23 view .LVU571
 2228 0042 03F5D262 		add	r2, r3, #1680
 2229 0046 4FF07D53 		mov	r3, #1061158912
 2230 004a 1360     		str	r3, [r2]	@ float
 2231              	.LVL140:
 2232              	.LBB886:
  34:../../DaisySP//Source/PhysicalModeling/PolyPluck.h ****         {
 2233              		.loc 12 34 29 is_stmt 1 view .LVU572
 2234              	.L66:
  36:../../DaisySP//Source/PhysicalModeling/PolyPluck.h ****             plk_[i].SetDamp(0.85f);
 2235              		.loc 12 36 25 is_stmt 0 view .LVU573
 2236 004c 2046     		mov	r0, r4
  34:../../DaisySP//Source/PhysicalModeling/PolyPluck.h ****         {
 2237              		.loc 12 34 29 view .LVU574
 2238 004e 3434     		adds	r4, r4, #52
  36:../../DaisySP//Source/PhysicalModeling/PolyPluck.h ****             plk_[i].SetDamp(0.85f);
 2239              		.loc 12 36 25 view .LVU575
 2240 0050 2946     		mov	r1, r5
 2241 0052 0023     		movs	r3, #0
 2242 0054 4FF48072 		mov	r2, #256
 2243 0058 B0EE480A 		vmov.f32	s0, s16
 2244 005c FFF7FEFF 		bl	_ZN7daisysp5Pluck4InitEfPfll
 2245              	.LVL141:
 2246              	.LBB887:
 2247              	.LBI887:
 2248              		.loc 17 68 17 is_stmt 1 view .LVU576
 2249              	.LBB888:
 2250              		.loc 17 68 39 view .LVU577
 2251              		.loc 17 68 45 is_stmt 0 view .LVU578
 2252 0060 254B     		ldr	r3, .L73+16
 2253              	.LBE888:
 2254              	.LBE887:
 2255              	.LBB890:
ARM GAS  /var/folders/hl/qgbwny5j0fd895c2c41bk3tw0000gp/T//cc4ErH94.s 			page 69


 2256              	.LBB891:
  56:../../DaisySP//Source/PhysicalModeling/pluck.h ****     /** Sets the frequency of the output signal in Hz.
 2257              		.loc 17 56 42 view .LVU579
 2258 0062 264A     		ldr	r2, .L73+20
 2259              	.LBE891:
 2260              	.LBE890:
  34:../../DaisySP//Source/PhysicalModeling/PolyPluck.h ****         {
 2261              		.loc 12 34 29 view .LVU580
 2262 0064 B442     		cmp	r4, r6
 2263 0066 05F58065 		add	r5, r5, #1024
 2264              	.LBB894:
 2265              	.LBB889:
 2266              		.loc 17 68 45 view .LVU581
 2267 006a 44F8283C 		str	r3, [r4, #-40]	@ float
 2268              	.LVL142:
 2269              		.loc 17 68 45 view .LVU582
 2270              	.LBE889:
 2271              	.LBE894:
 2272              	.LBB895:
 2273              	.LBI890:
  56:../../DaisySP//Source/PhysicalModeling/pluck.h ****     /** Sets the frequency of the output signal in Hz.
 2274              		.loc 17 56 17 is_stmt 1 view .LVU583
 2275              	.LBB892:
  56:../../DaisySP//Source/PhysicalModeling/pluck.h ****     /** Sets the frequency of the output signal in Hz.
 2276              		.loc 17 56 37 view .LVU584
 2277              	.LBE892:
 2278              	.LBE895:
 2279              	.LBB896:
 2280              	.LBB897:
  64:../../DaisySP//Source/PhysicalModeling/pluck.h ****     /** Sets the dampening factor applied by the filter (based on PLUCK_MODE)
 2281              		.loc 17 64 48 is_stmt 0 view .LVU585
 2282 006e 44F82C3C 		str	r3, [r4, #-44]	@ float
 2283              	.LBE897:
 2284              	.LBE896:
 2285              	.LBB899:
 2286              	.LBB893:
  56:../../DaisySP//Source/PhysicalModeling/pluck.h ****     /** Sets the frequency of the output signal in Hz.
 2287              		.loc 17 56 42 view .LVU586
 2288 0072 44F8342C 		str	r2, [r4, #-52]	@ float
 2289              	.LVL143:
  56:../../DaisySP//Source/PhysicalModeling/pluck.h ****     /** Sets the frequency of the output signal in Hz.
 2290              		.loc 17 56 42 view .LVU587
 2291              	.LBE893:
 2292              	.LBE899:
 2293              	.LBB900:
 2294              	.LBI896:
  64:../../DaisySP//Source/PhysicalModeling/pluck.h ****     /** Sets the dampening factor applied by the filter (based on PLUCK_MODE)
 2295              		.loc 17 64 17 is_stmt 1 view .LVU588
 2296              	.LBB898:
  64:../../DaisySP//Source/PhysicalModeling/pluck.h ****     /** Sets the dampening factor applied by the filter (based on PLUCK_MODE)
 2297              		.loc 17 64 41 view .LVU589
  64:../../DaisySP//Source/PhysicalModeling/pluck.h ****     /** Sets the dampening factor applied by the filter (based on PLUCK_MODE)
 2298              		.loc 17 64 41 is_stmt 0 view .LVU590
 2299              	.LBE898:
 2300              	.LBE900:
  34:../../DaisySP//Source/PhysicalModeling/PolyPluck.h ****         {
 2301              		.loc 12 34 9 is_stmt 1 view .LVU591
ARM GAS  /var/folders/hl/qgbwny5j0fd895c2c41bk3tw0000gp/T//cc4ErH94.s 			page 70


  34:../../DaisySP//Source/PhysicalModeling/PolyPluck.h ****         {
 2302              		.loc 12 34 29 view .LVU592
 2303 0076 E9D1     		bne	.L66
 2304              	.LBE886:
  41:../../DaisySP//Source/PhysicalModeling/PolyPluck.h ****     }
 2305              		.loc 12 41 18 is_stmt 0 view .LVU593
 2306 0078 B0EE480A 		vmov.f32	s0, s16
 2307              	.LBE885:
 2308              	.LBE884:
 132:Plinks.cpp    **** 
 133:Plinks.cpp    **** 	// reverb init
 134:Plinks.cpp    **** 	rv.Init(sample_rate);
 135:Plinks.cpp    **** 
 136:Plinks.cpp    **** 	// filter 
 137:Plinks.cpp    ****     ladder.Init(sample_rate);
 2309              		.loc 15 137 16 view .LVU594
 2310 007c 204C     		ldr	r4, .L73+24
 2311              	.LBB902:
 2312              	.LBB901:
  41:../../DaisySP//Source/PhysicalModeling/PolyPluck.h ****     }
 2313              		.loc 12 41 18 view .LVU595
 2314 007e 2148     		ldr	r0, .L73+28
 2315 0080 FFF7FEFF 		bl	_ZN7daisysp7DcBlock4InitEf
 2316              	.LVL144:
  41:../../DaisySP//Source/PhysicalModeling/PolyPluck.h ****     }
 2317              		.loc 12 41 18 view .LVU596
 2318              	.LBE901:
 2319              	.LBE902:
 134:Plinks.cpp    **** 
 2320              		.loc 15 134 2 is_stmt 1 view .LVU597
 134:Plinks.cpp    **** 
 2321              		.loc 15 134 9 is_stmt 0 view .LVU598
 2322 0084 B0EE480A 		vmov.f32	s0, s16
 2323 0088 1F48     		ldr	r0, .L73+32
 2324 008a FFF7FEFF 		bl	_ZN7daisysp8ReverbSc4InitEf
 2325              	.LVL145:
 2326              		.loc 15 137 5 is_stmt 1 view .LVU599
 2327              		.loc 15 137 16 is_stmt 0 view .LVU600
 2328 008e B0EE480A 		vmov.f32	s0, s16
 2329 0092 2046     		mov	r0, r4
 138:Plinks.cpp    ****     ladder.SetRes(0.4);
 139:Plinks.cpp    **** 
 140:Plinks.cpp    **** 	// envelope
 141:Plinks.cpp    **** 	env.Init(sample_rate);
 2330              		.loc 15 141 10 view .LVU601
 2331 0094 1D4D     		ldr	r5, .L73+36
 137:Plinks.cpp    ****     ladder.SetRes(0.4);
 2332              		.loc 15 137 16 view .LVU602
 2333 0096 FFF7FEFF 		bl	_ZN7daisysp10MoogLadder4InitEf
 2334              	.LVL146:
 138:Plinks.cpp    ****     ladder.SetRes(0.4);
 2335              		.loc 15 138 5 is_stmt 1 view .LVU603
 2336              	.LBB903:
 2337              	.LBI903:
  38:../../DaisySP//Source/Filters/moogladder.h ****     /** 
  39:../../DaisySP//Source/Filters/moogladder.h ****         Sets the resonance of the filter.
  40:../../DaisySP//Source/Filters/moogladder.h ****     */
ARM GAS  /var/folders/hl/qgbwny5j0fd895c2c41bk3tw0000gp/T//cc4ErH94.s 			page 71


  41:../../DaisySP//Source/Filters/moogladder.h ****     inline void SetRes(float res) { res_ = res; }
 2338              		.loc 4 41 17 view .LVU604
 2339              	.LBB904:
 2340              		.loc 4 41 37 view .LVU605
 2341              		.loc 4 41 42 is_stmt 0 view .LVU606
 2342 009a 1D4B     		ldr	r3, .L73+40
 2343              	.LBE904:
 2344              	.LBE903:
 2345              		.loc 15 141 10 view .LVU607
 2346 009c 2846     		mov	r0, r5
 2347 009e B0EE480A 		vmov.f32	s0, s16
 2348              	.LBB906:
 2349              	.LBB905:
 2350              		.loc 4 41 42 view .LVU608
 2351 00a2 6360     		str	r3, [r4, #4]	@ float
 2352              	.LVL147:
 2353              		.loc 4 41 42 view .LVU609
 2354              	.LBE905:
 2355              	.LBE906:
 2356              		.loc 15 141 2 is_stmt 1 view .LVU610
 2357              		.loc 15 141 10 is_stmt 0 view .LVU611
 2358 00a4 FFF7FEFF 		bl	_ZN7daisysp5AdEnv4InitEf
 2359              	.LVL148:
 142:Plinks.cpp    **** 	env.SetMin(0.0);
 2360              		.loc 15 142 2 is_stmt 1 view .LVU612
 2361              	.LBB907:
 2362              	.LBI907:
  59:../../DaisySP//Source/Control/adenv.h ****     /** Sets the amount of curve applied. A positve value will create a log
  60:../../DaisySP//Source/Control/adenv.h ****         curve. Input range: -100 to 100.  (or more)
  61:../../DaisySP//Source/Control/adenv.h ****     */
  62:../../DaisySP//Source/Control/adenv.h ****     inline void SetCurve(float scalar) { curve_scalar_ = scalar; }
  63:../../DaisySP//Source/Control/adenv.h ****     /** Sets the minimum value of the envelope output.
  64:../../DaisySP//Source/Control/adenv.h ****         Input range: -FLTmax_, to FLTmax_
  65:../../DaisySP//Source/Control/adenv.h ****     */
  66:../../DaisySP//Source/Control/adenv.h ****     inline void SetMin(float min) { min_ = min; }
 2363              		.loc 2 66 17 view .LVU613
 2364              	.LBB908:
 2365              		.loc 2 66 37 view .LVU614
 2366 00a8 0F4C     		ldr	r4, .L73
 2367              	.LBE908:
 2368              	.LBE907:
 2369              	.LBB911:
 2370              	.LBB912:
  67:../../DaisySP//Source/Control/adenv.h ****     /** Sets the maximum value of the envelope output.
  68:../../DaisySP//Source/Control/adenv.h ****         Input range: -FLTmax_, to FLTmax_
  69:../../DaisySP//Source/Control/adenv.h ****     */
  70:../../DaisySP//Source/Control/adenv.h ****     inline void SetMax(float max) { max_ = max; }
 2371              		.loc 2 70 42 is_stmt 0 view .LVU615
 2372 00aa 4FF07C53 		mov	r3, #1056964608
 2373              	.LBE912:
 2374              	.LBE911:
 2375              	.LBB915:
 2376              	.LBB909:
  66:../../DaisySP//Source/Control/adenv.h ****     /** Sets the maximum value of the envelope output.
 2377              		.loc 2 66 42 view .LVU616
 2378 00ae 0022     		movs	r2, #0
 2379              	.LBE909:
ARM GAS  /var/folders/hl/qgbwny5j0fd895c2c41bk3tw0000gp/T//cc4ErH94.s 			page 72


 2380              	.LBE915:
 143:Plinks.cpp    ****     env.SetMax(0.5);
 144:Plinks.cpp    **** 
 145:Plinks.cpp    **** 	hw.StartAudio(AudioCallback);
 2381              		.loc 15 145 15 view .LVU617
 2382 00b0 1849     		ldr	r1, .L73+44
 2383 00b2 2046     		mov	r0, r4
 2384              	.LBB916:
 2385              	.LBB913:
 2386              		.loc 2 70 42 view .LVU618
 2387 00b4 AB61     		str	r3, [r5, #24]	@ float
 2388              	.LBE913:
 2389              	.LBE916:
 2390              	.LBB917:
 2391              	.LBB910:
  66:../../DaisySP//Source/Control/adenv.h ****     /** Sets the maximum value of the envelope output.
 2392              		.loc 2 66 42 view .LVU619
 2393 00b6 6A61     		str	r2, [r5, #20]	@ float
 2394              	.LVL149:
  66:../../DaisySP//Source/Control/adenv.h ****     /** Sets the maximum value of the envelope output.
 2395              		.loc 2 66 42 view .LVU620
 2396              	.LBE910:
 2397              	.LBE917:
 143:Plinks.cpp    ****     env.SetMax(0.5);
 2398              		.loc 15 143 5 is_stmt 1 view .LVU621
 2399              	.LBB918:
 2400              	.LBI911:
 2401              		.loc 2 70 17 view .LVU622
 2402              	.LBB914:
 2403              		.loc 2 70 37 view .LVU623
 2404              		.loc 2 70 37 is_stmt 0 view .LVU624
 2405              	.LBE914:
 2406              	.LBE918:
 2407              		.loc 15 145 2 is_stmt 1 view .LVU625
 2408              		.loc 15 145 15 is_stmt 0 view .LVU626
 2409 00b8 FFF7FEFF 		bl	_ZN5daisy8patch_sm12DaisyPatchSM10StartAudioEPFvPKPKfPPfjE
 2410              	.LVL150:
 2411 00bc 07E0     		b	.L69
 2412              	.LVL151:
 2413              	.L72:
 2414              	.LBB919:
 2415              	.LBB920:
 2416              	.LBB921:
  25:../../libDaisy//src/hid/gatein.h **** 
  26:../../libDaisy//src/hid/gatein.h ****     /** @brief Initializes the gate input with specified hardware pin
  27:../../libDaisy//src/hid/gatein.h ****      *
  28:../../libDaisy//src/hid/gatein.h ****      *  @param pin_cfg pointer to pin to initialize
  29:../../libDaisy//src/hid/gatein.h ****      *  @param invert True if the pin state is HIGH when 0V is present
  30:../../libDaisy//src/hid/gatein.h ****      *         at the input. False if input signal matches the pin state.
  31:../../libDaisy//src/hid/gatein.h ****      *
  32:../../libDaisy//src/hid/gatein.h ****      *  @note the default for invert is true because it is typical to use
  33:../../libDaisy//src/hid/gatein.h ****      *  an inverting input circuit (e.g. a BJT circuit) for eurorack gate inputs.
  34:../../libDaisy//src/hid/gatein.h ****      */
  35:../../libDaisy//src/hid/gatein.h ****     void Init(dsy_gpio_pin *pin_cfg, bool invert = true);
  36:../../libDaisy//src/hid/gatein.h **** 
  37:../../libDaisy//src/hid/gatein.h ****     /** Trig
  38:../../libDaisy//src/hid/gatein.h ****     Checks current state of gate input.
ARM GAS  /var/folders/hl/qgbwny5j0fd895c2c41bk3tw0000gp/T//cc4ErH94.s 			page 73


  39:../../libDaisy//src/hid/gatein.h **** 
  40:../../libDaisy//src/hid/gatein.h ****     @return True if the GPIO just transitioned.
  41:../../libDaisy//src/hid/gatein.h ****     */
  42:../../libDaisy//src/hid/gatein.h ****     bool Trig();
  43:../../libDaisy//src/hid/gatein.h **** 
  44:../../libDaisy//src/hid/gatein.h ****     /** State
  45:../../libDaisy//src/hid/gatein.h ****     Checks current state of gate input (no state required)
  46:../../libDaisy//src/hid/gatein.h **** 
  47:../../libDaisy//src/hid/gatein.h ****     read function is inverted because of suggested BJT input circuit
  48:../../libDaisy//src/hid/gatein.h ****     */
  49:../../libDaisy//src/hid/gatein.h ****     inline bool State()
  50:../../libDaisy//src/hid/gatein.h ****     {
  51:../../libDaisy//src/hid/gatein.h ****         return invert_ ? !dsy_gpio_read(&pin_) : dsy_gpio_read(&pin_);
 2417              		.loc 6 51 40 view .LVU627
 2418 00be FFF7FEFF 		bl	dsy_gpio_read
 2419              	.LVL152:
 2420              		.loc 6 51 26 view .LVU628
 2421 00c2 B0FA80F1 		clz	r1, r0
 2422 00c6 4909     		lsrs	r1, r1, #5
 2423              	.L68:
 2424              	.LVL153:
 2425              		.loc 6 51 26 view .LVU629
 2426              	.LBE921:
 2427              	.LBE920:
 146:Plinks.cpp    **** 	while(1) {
 147:Plinks.cpp    **** 		bool state = hw.gate_in_1.State();
 148:Plinks.cpp    **** 		gate_in_led.Write(state);
 2428              		.loc 15 148 3 is_stmt 1 view .LVU630
 2429              		.loc 15 148 20 is_stmt 0 view .LVU631
 2430 00c8 1348     		ldr	r0, .L73+48
 2431 00ca FFF7FEFF 		bl	_ZN5daisy4GPIO5WriteEb
 2432              	.LVL154:
 2433              	.LBE919:
 146:Plinks.cpp    **** 	while(1) {
 2434              		.loc 15 146 2 is_stmt 1 view .LVU632
 2435              	.L69:
 146:Plinks.cpp    **** 	while(1) {
 2436              		.loc 15 146 2 discriminator 1 view .LVU633
 2437              	.LBB924:
 147:Plinks.cpp    **** 		gate_in_led.Write(state);
 2438              		.loc 15 147 3 discriminator 1 view .LVU634
 2439              	.LBB923:
 2440              	.LBI920:
  49:../../libDaisy//src/hid/gatein.h ****     {
 2441              		.loc 6 49 17 discriminator 1 view .LVU635
 2442              	.LBB922:
 2443              		.loc 6 51 9 discriminator 1 view .LVU636
 2444              		.loc 6 51 24 is_stmt 0 discriminator 1 view .LVU637
 2445 00ce 94F8B631 		ldrb	r3, [r4, #438]	@ zero_extendqisi2
 2446              		.loc 6 51 40 discriminator 1 view .LVU638
 2447 00d2 1248     		ldr	r0, .L73+52
 2448              		.loc 6 51 24 discriminator 1 view .LVU639
 2449 00d4 002B     		cmp	r3, #0
 2450 00d6 F2D1     		bne	.L72
 2451              		.loc 6 51 63 view .LVU640
 2452 00d8 1048     		ldr	r0, .L73+52
 2453 00da FFF7FEFF 		bl	dsy_gpio_read
ARM GAS  /var/folders/hl/qgbwny5j0fd895c2c41bk3tw0000gp/T//cc4ErH94.s 			page 74


 2454              	.LVL155:
 2455              		.loc 6 51 69 view .LVU641
 2456 00de 011E     		subs	r1, r0, #0
 2457 00e0 18BF     		it	ne
 2458 00e2 0121     		movne	r1, #1
 2459 00e4 F0E7     		b	.L68
 2460              	.L74:
 2461 00e6 00BF     		.align	2
 2462              	.L73:
 2463 00e8 00000000 		.word	.LANCHOR20
 2464 00ec 8C060000 		.word	pp+1676
 2465 00f0 00800000 		.word	pp+32768
 2466 00f4 3333733F 		.word	1064514355
 2467 00f8 9A99593F 		.word	1062836634
 2468 00fc EC51383E 		.word	1043878380
 2469 0100 00000000 		.word	.LANCHOR21
 2470 0104 00000000 		.word	pp
 2471 0108 00000000 		.word	rv
 2472 010c 00000000 		.word	.LANCHOR22
 2473 0110 CDCCCC3E 		.word	1053609165
 2474 0114 00000000 		.word	_Z13AudioCallbackPKPKfPPfj
 2475 0118 00000000 		.word	.LANCHOR9
 2476 011c B0010000 		.word	.LANCHOR20+432
 2477              	.LBE922:
 2478              	.LBE923:
 2479              	.LBE924:
 2480              		.cfi_endproc
 2481              	.LFE4800:
 2483              		.section	.text.startup._GLOBAL__sub_I__ZN5daisy8patch_sm8gen_led1E,"ax",%progbits
 2484              		.align	1
 2485              		.p2align 2,,3
 2486              		.syntax unified
 2487              		.thumb
 2488              		.thumb_func
 2489              		.fpu fpv5-d16
 2491              	_GLOBAL__sub_I__ZN5daisy8patch_sm8gen_led1E:
 2492              	.LFB5366:
 149:Plinks.cpp    **** 	}
 150:Plinks.cpp    **** }
 2493              		.loc 15 150 1 is_stmt 1 view -0
 2494              		.cfi_startproc
 2495              		@ args = 0, pretend = 0, frame = 0
 2496              		@ frame_needed = 0, uses_anonymous_args = 0
 2497              	.LBB1033:
 2498              	.LBI1033:
 2499              		.loc 15 150 1 view .LVU643
 2500              	.LVL156:
 2501              	.LBB1034:
 2502              	.LBB1035:
 2503              	.LBI1035:
 2504              		.file 18 "../../libDaisy//src/per/gpio.h"
   1:../../libDaisy//src/per/gpio.h **** #pragma once
   2:../../libDaisy//src/per/gpio.h **** #ifndef DSY_GPIO_H
   3:../../libDaisy//src/per/gpio.h **** #define DSY_GPIO_H
   4:../../libDaisy//src/per/gpio.h **** #include "daisy_core.h"
   5:../../libDaisy//src/per/gpio.h **** 
   6:../../libDaisy//src/per/gpio.h **** #ifdef __cplusplus
ARM GAS  /var/folders/hl/qgbwny5j0fd895c2c41bk3tw0000gp/T//cc4ErH94.s 			page 75


   7:../../libDaisy//src/per/gpio.h **** 
   8:../../libDaisy//src/per/gpio.h **** namespace daisy
   9:../../libDaisy//src/per/gpio.h **** {
  10:../../libDaisy//src/per/gpio.h **** /** @brief General Purpose I/O control 
  11:../../libDaisy//src/per/gpio.h ****  *  @details peripheral control over a single GPIO
  12:../../libDaisy//src/per/gpio.h ****  *  @ingroup peripheral
  13:../../libDaisy//src/per/gpio.h ****  *   
  14:../../libDaisy//src/per/gpio.h ****  *  Button Input (with internal Pullup resistor)
  15:../../libDaisy//src/per/gpio.h ****  *  @include GPIO_Input.cpp 
  16:../../libDaisy//src/per/gpio.h ****  * 
  17:../../libDaisy//src/per/gpio.h ****  *  Output Example (perfect for blinking an LED)
  18:../../libDaisy//src/per/gpio.h ****  *  @include GPIO_Output.cpp
  19:../../libDaisy//src/per/gpio.h ****  * 
  20:../../libDaisy//src/per/gpio.h **** */
  21:../../libDaisy//src/per/gpio.h **** class GPIO
  22:../../libDaisy//src/per/gpio.h **** {
  23:../../libDaisy//src/per/gpio.h ****   public:
  24:../../libDaisy//src/per/gpio.h ****     /** @brief Mode of operation for the specified GPIO */
  25:../../libDaisy//src/per/gpio.h ****     enum class Mode
  26:../../libDaisy//src/per/gpio.h ****     {
  27:../../libDaisy//src/per/gpio.h ****         INPUT,     /**< Input for reading state of pin */
  28:../../libDaisy//src/per/gpio.h ****         OUTPUT,    /**< Output w/ push-pull configuration */
  29:../../libDaisy//src/per/gpio.h ****         OUTPUT_OD, /**< Output w/ open-drain configuration */
  30:../../libDaisy//src/per/gpio.h ****         ANALOG,    /**< Analog for connection to ADC or DAC peripheral */
  31:../../libDaisy//src/per/gpio.h ****     };
  32:../../libDaisy//src/per/gpio.h **** 
  33:../../libDaisy//src/per/gpio.h ****     /** @brief Configures whether an internal Pull up or Pull down resistor is used. 
  34:../../libDaisy//src/per/gpio.h ****      *  
  35:../../libDaisy//src/per/gpio.h ****      * Internal Pull up/down resistors are typically 40k ohms, and will be between
  36:../../libDaisy//src/per/gpio.h ****      * 30k and 50k
  37:../../libDaisy//src/per/gpio.h ****      * 
  38:../../libDaisy//src/per/gpio.h ****      * When the Pin is configured in Analog mode, the pull up/down resistors are
  39:../../libDaisy//src/per/gpio.h ****      * disabled by hardware. 
  40:../../libDaisy//src/per/gpio.h ****      */
  41:../../libDaisy//src/per/gpio.h ****     enum class Pull
  42:../../libDaisy//src/per/gpio.h ****     {
  43:../../libDaisy//src/per/gpio.h ****         NOPULL,   /**< No pull up resistor */
  44:../../libDaisy//src/per/gpio.h ****         PULLUP,   /**< Internal pull up enabled */
  45:../../libDaisy//src/per/gpio.h ****         PULLDOWN, /**< Internal pull down enabled*/
  46:../../libDaisy//src/per/gpio.h ****     };
  47:../../libDaisy//src/per/gpio.h **** 
  48:../../libDaisy//src/per/gpio.h ****     /** @brief Output speed controls the drive strength, and slew rate of the pin */
  49:../../libDaisy//src/per/gpio.h ****     enum class Speed
  50:../../libDaisy//src/per/gpio.h ****     {
  51:../../libDaisy//src/per/gpio.h ****         LOW,
  52:../../libDaisy//src/per/gpio.h ****         MEDIUM,
  53:../../libDaisy//src/per/gpio.h ****         HIGH,
  54:../../libDaisy//src/per/gpio.h ****         VERY_HIGH,
  55:../../libDaisy//src/per/gpio.h ****     };
  56:../../libDaisy//src/per/gpio.h **** 
  57:../../libDaisy//src/per/gpio.h ****     /** @brief Configuration for a given GPIO */
  58:../../libDaisy//src/per/gpio.h ****     struct Config
  59:../../libDaisy//src/per/gpio.h ****     {
  60:../../libDaisy//src/per/gpio.h ****         Pin   pin;
  61:../../libDaisy//src/per/gpio.h ****         Mode  mode;
  62:../../libDaisy//src/per/gpio.h ****         Pull  pull;
  63:../../libDaisy//src/per/gpio.h ****         Speed speed;
ARM GAS  /var/folders/hl/qgbwny5j0fd895c2c41bk3tw0000gp/T//cc4ErH94.s 			page 76


  64:../../libDaisy//src/per/gpio.h **** 
  65:../../libDaisy//src/per/gpio.h ****         /** Constructor with no arguments will prepare an invalid GPIO set as
  66:../../libDaisy//src/per/gpio.h ****          *  an input, with no pullup. 
  67:../../libDaisy//src/per/gpio.h ****          */
  68:../../libDaisy//src/per/gpio.h ****         Config()
  69:../../libDaisy//src/per/gpio.h ****         : pin(), mode(Mode::INPUT), pull(Pull::NOPULL), speed(Speed::LOW)
  70:../../libDaisy//src/per/gpio.h ****         {
  71:../../libDaisy//src/per/gpio.h ****         }
  72:../../libDaisy//src/per/gpio.h ****     };
  73:../../libDaisy//src/per/gpio.h **** 
  74:../../libDaisy//src/per/gpio.h ****     GPIO() {}
 2505              		.loc 18 74 5 view .LVU644
 2506              	.LBB1036:
 2507              	.LBB1037:
 2508              	.LBI1037:
  68:../../libDaisy//src/per/gpio.h ****         : pin(), mode(Mode::INPUT), pull(Pull::NOPULL), speed(Speed::LOW)
 2509              		.loc 18 68 9 view .LVU645
 2510              	.LBB1038:
 2511              	.LBB1039:
 2512              	.LBB1040:
 2513              	.LBI1040:
 2514              		.file 19 "../../libDaisy//src/daisy_core.h"
   1:../../libDaisy//src/daisy_core.h **** #pragma once
   2:../../libDaisy//src/daisy_core.h **** #ifndef DSY_CORE_HW_H
   3:../../libDaisy//src/daisy_core.h **** #define DSY_CORE_HW_H /**< & */
   4:../../libDaisy//src/daisy_core.h **** #include <stdint.h>
   5:../../libDaisy//src/daisy_core.h **** #include <stdlib.h>
   6:../../libDaisy//src/daisy_core.h **** 
   7:../../libDaisy//src/daisy_core.h **** #if defined(_MSC_VER)
   8:../../libDaisy//src/daisy_core.h **** #define FORCE_INLINE __forceinline /**< & */
   9:../../libDaisy//src/daisy_core.h **** #elif defined(__clang__)
  10:../../libDaisy//src/daisy_core.h **** #define FORCE_INLINE inline __attribute__((always_inline)) /**< & */
  11:../../libDaisy//src/daisy_core.h **** #pragma clang diagnostic ignored "-Wduplicate-decl-specifier"
  12:../../libDaisy//src/daisy_core.h **** #elif defined(__GNUC__)
  13:../../libDaisy//src/daisy_core.h **** #define FORCE_INLINE inline __attribute__((always_inline)) /**< & */
  14:../../libDaisy//src/daisy_core.h **** #else
  15:../../libDaisy//src/daisy_core.h **** #error unknown compiler
  16:../../libDaisy//src/daisy_core.h **** #endif
  17:../../libDaisy//src/daisy_core.h **** 
  18:../../libDaisy//src/daisy_core.h **** /** @addtogroup utility
  19:../../libDaisy//src/daisy_core.h ****     @{
  20:../../libDaisy//src/daisy_core.h **** */
  21:../../libDaisy//src/daisy_core.h **** 
  22:../../libDaisy//src/daisy_core.h **** /** Macro for area of memory that is configured as cacheless
  23:../../libDaisy//src/daisy_core.h **** This should be used primarily for DMA buffers, and the like.
  24:../../libDaisy//src/daisy_core.h **** */
  25:../../libDaisy//src/daisy_core.h **** #define DMA_BUFFER_MEM_SECTION __attribute__((section(".sram1_bss")))
  26:../../libDaisy//src/daisy_core.h **** /** 
  27:../../libDaisy//src/daisy_core.h **** THE DTCM RAM section is also non-cached. However, is not suitable 
  28:../../libDaisy//src/daisy_core.h **** for DMA transfers. Performance is on par with internal SRAM w/ 
  29:../../libDaisy//src/daisy_core.h **** cache enabled.
  30:../../libDaisy//src/daisy_core.h **** */
  31:../../libDaisy//src/daisy_core.h **** #define DTCM_MEM_SECTION __attribute__((section(".dtcmram_bss")))
  32:../../libDaisy//src/daisy_core.h **** 
  33:../../libDaisy//src/daisy_core.h **** #define FBIPMAX 0.999985f             /**< close to 1.0f-LSB at 16 bit */
  34:../../libDaisy//src/daisy_core.h **** #define FBIPMIN (-FBIPMAX)            /**< - (1 - LSB) */
  35:../../libDaisy//src/daisy_core.h **** #define U82F_SCALE 0.0078740f         /**< 1 / 127 */
ARM GAS  /var/folders/hl/qgbwny5j0fd895c2c41bk3tw0000gp/T//cc4ErH94.s 			page 77


  36:../../libDaisy//src/daisy_core.h **** #define F2U8_SCALE 127.0f             /**< 128 - 1 */
  37:../../libDaisy//src/daisy_core.h **** #define S82F_SCALE 0.0078125f         /**< 1 / (2**7) */
  38:../../libDaisy//src/daisy_core.h **** #define F2S8_SCALE 127.0f             /**< (2 ** 7) - 1 */
  39:../../libDaisy//src/daisy_core.h **** #define S162F_SCALE 3.0517578125e-05f /**< 1 / (2** 15) */
  40:../../libDaisy//src/daisy_core.h **** #define F2S16_SCALE 32767.0f          /**< (2 ** 15) - 1 */
  41:../../libDaisy//src/daisy_core.h **** #define F2S24_SCALE 8388608.0f        /**< 2 ** 23 */
  42:../../libDaisy//src/daisy_core.h **** #define S242F_SCALE 1.192092896e-07f  /**< 1 / (2 ** 23) */
  43:../../libDaisy//src/daisy_core.h **** #define S24SIGN 0x800000              /**< 2 ** 23 */
  44:../../libDaisy//src/daisy_core.h **** #define S322F_SCALE 4.6566129e-10f    /**< 1 / (2** 31) */
  45:../../libDaisy//src/daisy_core.h **** #define F2S32_SCALE 2147483647.f      /**< (2 ** 31) - 1 */
  46:../../libDaisy//src/daisy_core.h **** 
  47:../../libDaisy//src/daisy_core.h **** 
  48:../../libDaisy//src/daisy_core.h **** /** shorthand macro for simplifying the reading of the left 
  49:../../libDaisy//src/daisy_core.h ****  *  channel of a non-interleaved output buffer named out */
  50:../../libDaisy//src/daisy_core.h **** #define OUT_L out[0]
  51:../../libDaisy//src/daisy_core.h **** 
  52:../../libDaisy//src/daisy_core.h **** /** shorthand macro for simplifying the reading of the right 
  53:../../libDaisy//src/daisy_core.h ****  *  channel of a non-interleaved output buffer named out */
  54:../../libDaisy//src/daisy_core.h **** #define OUT_R out[1]
  55:../../libDaisy//src/daisy_core.h **** 
  56:../../libDaisy//src/daisy_core.h **** /** shorthand macro for simplifying the reading of the left 
  57:../../libDaisy//src/daisy_core.h ****  *  channel of a non-interleaved input buffer named in */
  58:../../libDaisy//src/daisy_core.h **** #define IN_L in[0]
  59:../../libDaisy//src/daisy_core.h **** 
  60:../../libDaisy//src/daisy_core.h **** /** shorthand macro for simplifying the reading of the right 
  61:../../libDaisy//src/daisy_core.h ****  *  channel of a non-interleaved input buffer named in */
  62:../../libDaisy//src/daisy_core.h **** #define IN_R in[1]
  63:../../libDaisy//src/daisy_core.h **** 
  64:../../libDaisy//src/daisy_core.h **** /** 
  65:../../libDaisy//src/daisy_core.h ****     Computes cube.
  66:../../libDaisy//src/daisy_core.h ****     \param x Number to be cubed
  67:../../libDaisy//src/daisy_core.h ****     \return x ^ 3
  68:../../libDaisy//src/daisy_core.h **** */
  69:../../libDaisy//src/daisy_core.h **** FORCE_INLINE float cube(float x)
  70:../../libDaisy//src/daisy_core.h **** {
  71:../../libDaisy//src/daisy_core.h ****     return (x * x) * x;
  72:../../libDaisy//src/daisy_core.h **** }
  73:../../libDaisy//src/daisy_core.h **** 
  74:../../libDaisy//src/daisy_core.h **** /** 
  75:../../libDaisy//src/daisy_core.h ****     Converts unsigned 8-bit to float
  76:../../libDaisy//src/daisy_core.h ****     \param x Number to be scaled.
  77:../../libDaisy//src/daisy_core.h ****     \return Scaled number.
  78:../../libDaisy//src/daisy_core.h **** */
  79:../../libDaisy//src/daisy_core.h **** FORCE_INLINE float u82f(uint8_t x)
  80:../../libDaisy//src/daisy_core.h **** {
  81:../../libDaisy//src/daisy_core.h ****     return ((float)x - 127.f) * U82F_SCALE;
  82:../../libDaisy//src/daisy_core.h **** }
  83:../../libDaisy//src/daisy_core.h **** 
  84:../../libDaisy//src/daisy_core.h **** /**
  85:../../libDaisy//src/daisy_core.h ****     Converts float to unsigned 8-bit
  86:../../libDaisy//src/daisy_core.h **** */
  87:../../libDaisy//src/daisy_core.h **** FORCE_INLINE uint8_t f2u8(float x)
  88:../../libDaisy//src/daisy_core.h **** {
  89:../../libDaisy//src/daisy_core.h ****     x = x <= FBIPMIN ? FBIPMIN : x;
  90:../../libDaisy//src/daisy_core.h ****     x = x >= FBIPMAX ? FBIPMAX : x;
  91:../../libDaisy//src/daisy_core.h ****     return (uint8_t)((x * F2U8_SCALE) + F2U8_SCALE);
  92:../../libDaisy//src/daisy_core.h **** }
ARM GAS  /var/folders/hl/qgbwny5j0fd895c2c41bk3tw0000gp/T//cc4ErH94.s 			page 78


  93:../../libDaisy//src/daisy_core.h **** 
  94:../../libDaisy//src/daisy_core.h **** 
  95:../../libDaisy//src/daisy_core.h **** /** 
  96:../../libDaisy//src/daisy_core.h ****     Converts Signed 8-bit to float
  97:../../libDaisy//src/daisy_core.h ****     \param x Number to be scaled.
  98:../../libDaisy//src/daisy_core.h ****     \return Scaled number.
  99:../../libDaisy//src/daisy_core.h **** */
 100:../../libDaisy//src/daisy_core.h **** FORCE_INLINE float s82f(int8_t x)
 101:../../libDaisy//src/daisy_core.h **** {
 102:../../libDaisy//src/daisy_core.h ****     return (float)x * S82F_SCALE;
 103:../../libDaisy//src/daisy_core.h **** }
 104:../../libDaisy//src/daisy_core.h **** 
 105:../../libDaisy//src/daisy_core.h **** /**
 106:../../libDaisy//src/daisy_core.h ****     Converts float to Signed 8-bit
 107:../../libDaisy//src/daisy_core.h **** */
 108:../../libDaisy//src/daisy_core.h **** FORCE_INLINE int8_t f2s8(float x)
 109:../../libDaisy//src/daisy_core.h **** {
 110:../../libDaisy//src/daisy_core.h ****     x = x <= FBIPMIN ? FBIPMIN : x;
 111:../../libDaisy//src/daisy_core.h ****     x = x >= FBIPMAX ? FBIPMAX : x;
 112:../../libDaisy//src/daisy_core.h ****     return (int32_t)(x * F2S8_SCALE);
 113:../../libDaisy//src/daisy_core.h **** }
 114:../../libDaisy//src/daisy_core.h **** 
 115:../../libDaisy//src/daisy_core.h **** /** 
 116:../../libDaisy//src/daisy_core.h ****     Converts Signed 16-bit to float
 117:../../libDaisy//src/daisy_core.h ****     \param x Number to be scaled.
 118:../../libDaisy//src/daisy_core.h ****     \return Scaled number.
 119:../../libDaisy//src/daisy_core.h **** */
 120:../../libDaisy//src/daisy_core.h **** FORCE_INLINE float s162f(int16_t x)
 121:../../libDaisy//src/daisy_core.h **** {
 122:../../libDaisy//src/daisy_core.h ****     return (float)x * S162F_SCALE;
 123:../../libDaisy//src/daisy_core.h **** }
 124:../../libDaisy//src/daisy_core.h **** 
 125:../../libDaisy//src/daisy_core.h **** /**
 126:../../libDaisy//src/daisy_core.h ****     Converts float to Signed 16-bit
 127:../../libDaisy//src/daisy_core.h **** */
 128:../../libDaisy//src/daisy_core.h **** FORCE_INLINE int16_t f2s16(float x)
 129:../../libDaisy//src/daisy_core.h **** {
 130:../../libDaisy//src/daisy_core.h ****     x = x <= FBIPMIN ? FBIPMIN : x;
 131:../../libDaisy//src/daisy_core.h ****     x = x >= FBIPMAX ? FBIPMAX : x;
 132:../../libDaisy//src/daisy_core.h ****     return (int32_t)(x * F2S16_SCALE);
 133:../../libDaisy//src/daisy_core.h **** }
 134:../../libDaisy//src/daisy_core.h **** 
 135:../../libDaisy//src/daisy_core.h **** /**
 136:../../libDaisy//src/daisy_core.h ****     Converts Signed 24-bit to float
 137:../../libDaisy//src/daisy_core.h ****  */
 138:../../libDaisy//src/daisy_core.h **** FORCE_INLINE float s242f(int32_t x)
 139:../../libDaisy//src/daisy_core.h **** {
 140:../../libDaisy//src/daisy_core.h ****     x = (x ^ S24SIGN) - S24SIGN; //sign extend aka ((x<<8)>>8)
 141:../../libDaisy//src/daisy_core.h ****     return (float)x * S242F_SCALE;
 142:../../libDaisy//src/daisy_core.h **** }
 143:../../libDaisy//src/daisy_core.h **** /**
 144:../../libDaisy//src/daisy_core.h ****     Converts float to Signed 24-bit
 145:../../libDaisy//src/daisy_core.h ****  */
 146:../../libDaisy//src/daisy_core.h **** FORCE_INLINE int32_t f2s24(float x)
 147:../../libDaisy//src/daisy_core.h **** {
 148:../../libDaisy//src/daisy_core.h ****     x = x <= FBIPMIN ? FBIPMIN : x;
 149:../../libDaisy//src/daisy_core.h ****     x = x >= FBIPMAX ? FBIPMAX : x;
ARM GAS  /var/folders/hl/qgbwny5j0fd895c2c41bk3tw0000gp/T//cc4ErH94.s 			page 79


 150:../../libDaisy//src/daisy_core.h ****     return (int32_t)(x * F2S24_SCALE);
 151:../../libDaisy//src/daisy_core.h **** }
 152:../../libDaisy//src/daisy_core.h **** 
 153:../../libDaisy//src/daisy_core.h **** /**
 154:../../libDaisy//src/daisy_core.h ****     Converts Signed 32-bit to float
 155:../../libDaisy//src/daisy_core.h ****  */
 156:../../libDaisy//src/daisy_core.h **** FORCE_INLINE float s322f(int32_t x)
 157:../../libDaisy//src/daisy_core.h **** {
 158:../../libDaisy//src/daisy_core.h ****     return (float)x * S322F_SCALE;
 159:../../libDaisy//src/daisy_core.h **** }
 160:../../libDaisy//src/daisy_core.h **** /**
 161:../../libDaisy//src/daisy_core.h ****     Converts float to Signed 24-bit
 162:../../libDaisy//src/daisy_core.h ****  */
 163:../../libDaisy//src/daisy_core.h **** FORCE_INLINE int32_t f2s32(float x)
 164:../../libDaisy//src/daisy_core.h **** {
 165:../../libDaisy//src/daisy_core.h ****     x = x <= FBIPMIN ? FBIPMIN : x;
 166:../../libDaisy//src/daisy_core.h ****     x = x >= FBIPMAX ? FBIPMAX : x;
 167:../../libDaisy//src/daisy_core.h ****     return (int32_t)(x * F2S32_SCALE);
 168:../../libDaisy//src/daisy_core.h **** }
 169:../../libDaisy//src/daisy_core.h **** 
 170:../../libDaisy//src/daisy_core.h **** 
 171:../../libDaisy//src/daisy_core.h **** /** Enums and a simple struct for defining a hardware pin on the MCU
 172:../../libDaisy//src/daisy_core.h ****  *  These correlate with the stm32 datasheet, and are used to configure
 173:../../libDaisy//src/daisy_core.h ****  *  the hardware.
 174:../../libDaisy//src/daisy_core.h ****  * 
 175:../../libDaisy//src/daisy_core.h ****  *  This along with the dsy_gpio_pin class should no longer be used.
 176:../../libDaisy//src/daisy_core.h ****  *  They are available for backwards compatability. 
 177:../../libDaisy//src/daisy_core.h ****  * 
 178:../../libDaisy//src/daisy_core.h ****  *  Please use GPIOPort enum and the Pin struct instead.
 179:../../libDaisy//src/daisy_core.h ****  */
 180:../../libDaisy//src/daisy_core.h **** typedef enum
 181:../../libDaisy//src/daisy_core.h **** {
 182:../../libDaisy//src/daisy_core.h ****     DSY_GPIOA, /**< & */
 183:../../libDaisy//src/daisy_core.h ****     DSY_GPIOB, /**< & */
 184:../../libDaisy//src/daisy_core.h ****     DSY_GPIOC, /**< & */
 185:../../libDaisy//src/daisy_core.h ****     DSY_GPIOD, /**< & */
 186:../../libDaisy//src/daisy_core.h ****     DSY_GPIOE, /**< & */
 187:../../libDaisy//src/daisy_core.h ****     DSY_GPIOF, /**< & */
 188:../../libDaisy//src/daisy_core.h ****     DSY_GPIOG, /**< & */
 189:../../libDaisy//src/daisy_core.h ****     DSY_GPIOH, /**< & */
 190:../../libDaisy//src/daisy_core.h ****     DSY_GPIOI, /**< & */
 191:../../libDaisy//src/daisy_core.h ****     DSY_GPIOJ, /**< & */
 192:../../libDaisy//src/daisy_core.h ****     DSY_GPIOK, /**< & */
 193:../../libDaisy//src/daisy_core.h ****     DSY_GPIOX, /** This is a non-existant port for unsupported bits of hardware. */
 194:../../libDaisy//src/daisy_core.h ****     DSY_GPIO_LAST, /** Final enum member */
 195:../../libDaisy//src/daisy_core.h **** } dsy_gpio_port;
 196:../../libDaisy//src/daisy_core.h **** 
 197:../../libDaisy//src/daisy_core.h **** /** Hardware define pins 
 198:../../libDaisy//src/daisy_core.h ****  *  
 199:../../libDaisy//src/daisy_core.h ****  *  The dsy_gpio_pin struct should no longer be used, and is only available for
 200:../../libDaisy//src/daisy_core.h ****  *  backwards compatability.
 201:../../libDaisy//src/daisy_core.h ****  * 
 202:../../libDaisy//src/daisy_core.h ****  *  Please use Pin struct instead.
 203:../../libDaisy//src/daisy_core.h ****  */
 204:../../libDaisy//src/daisy_core.h **** typedef struct
 205:../../libDaisy//src/daisy_core.h **** {
 206:../../libDaisy//src/daisy_core.h ****     dsy_gpio_port port; /**< & */
ARM GAS  /var/folders/hl/qgbwny5j0fd895c2c41bk3tw0000gp/T//cc4ErH94.s 			page 80


 207:../../libDaisy//src/daisy_core.h ****     uint8_t       pin;  /**< number 0-15 */
 208:../../libDaisy//src/daisy_core.h **** } dsy_gpio_pin;
 209:../../libDaisy//src/daisy_core.h **** 
 210:../../libDaisy//src/daisy_core.h **** /** Helper for creating pins from port/pin combos easily
 211:../../libDaisy//src/daisy_core.h ****  * 
 212:../../libDaisy//src/daisy_core.h ****  *  The dsy_gpio_pin struct should no longer be used, and is only available for
 213:../../libDaisy//src/daisy_core.h ****  *  backwards compatability.
 214:../../libDaisy//src/daisy_core.h ****  * 
 215:../../libDaisy//src/daisy_core.h ****  *  Please use Pin struct instead.
 216:../../libDaisy//src/daisy_core.h **** */
 217:../../libDaisy//src/daisy_core.h **** FORCE_INLINE dsy_gpio_pin dsy_pin(dsy_gpio_port port, uint8_t pin)
 218:../../libDaisy//src/daisy_core.h **** {
 219:../../libDaisy//src/daisy_core.h ****     dsy_gpio_pin p;
 220:../../libDaisy//src/daisy_core.h ****     p.port = port;
 221:../../libDaisy//src/daisy_core.h ****     p.pin  = pin;
 222:../../libDaisy//src/daisy_core.h ****     return p;
 223:../../libDaisy//src/daisy_core.h **** }
 224:../../libDaisy//src/daisy_core.h **** 
 225:../../libDaisy//src/daisy_core.h **** /** Helper for testing sameness of two dsy_gpio_pins
 226:../../libDaisy//src/daisy_core.h ****  *  \return    1 if same, 0 if different
 227:../../libDaisy//src/daisy_core.h ****  * 
 228:../../libDaisy//src/daisy_core.h ****  *  The dsy_gpio_pin struct should no longer be used, and is only available for
 229:../../libDaisy//src/daisy_core.h ****  *  backwards compatability.
 230:../../libDaisy//src/daisy_core.h ****  * 
 231:../../libDaisy//src/daisy_core.h ****  *  Please use Pin struct instead.
 232:../../libDaisy//src/daisy_core.h ****  */
 233:../../libDaisy//src/daisy_core.h **** FORCE_INLINE uint8_t dsy_pin_cmp(dsy_gpio_pin *a, dsy_gpio_pin *b)
 234:../../libDaisy//src/daisy_core.h **** {
 235:../../libDaisy//src/daisy_core.h ****     return ((a->port == b->port) && (a->pin == b->pin));
 236:../../libDaisy//src/daisy_core.h **** }
 237:../../libDaisy//src/daisy_core.h **** 
 238:../../libDaisy//src/daisy_core.h **** #ifdef __cplusplus
 239:../../libDaisy//src/daisy_core.h **** 
 240:../../libDaisy//src/daisy_core.h **** namespace daisy
 241:../../libDaisy//src/daisy_core.h **** {
 242:../../libDaisy//src/daisy_core.h **** /** @brief GPIO Port names */
 243:../../libDaisy//src/daisy_core.h **** enum GPIOPort
 244:../../libDaisy//src/daisy_core.h **** {
 245:../../libDaisy//src/daisy_core.h ****     PORTA, /**< Port A */
 246:../../libDaisy//src/daisy_core.h ****     PORTB, /**< Port B */
 247:../../libDaisy//src/daisy_core.h ****     PORTC, /**< Port C */
 248:../../libDaisy//src/daisy_core.h ****     PORTD, /**< Port D */
 249:../../libDaisy//src/daisy_core.h ****     PORTE, /**< Port E */
 250:../../libDaisy//src/daisy_core.h ****     PORTF, /**< Port F */
 251:../../libDaisy//src/daisy_core.h ****     PORTG, /**< Port G */
 252:../../libDaisy//src/daisy_core.h ****     PORTH, /**< Port H */
 253:../../libDaisy//src/daisy_core.h ****     PORTI, /**< Port I */
 254:../../libDaisy//src/daisy_core.h ****     PORTJ, /**< Port J */
 255:../../libDaisy//src/daisy_core.h ****     PORTK, /**< Port K */
 256:../../libDaisy//src/daisy_core.h ****     PORTX, /**< Used as a dummy port to signal an invalid pin. */
 257:../../libDaisy//src/daisy_core.h **** };
 258:../../libDaisy//src/daisy_core.h **** 
 259:../../libDaisy//src/daisy_core.h **** /** @brief representation of hardware port/pin combination */
 260:../../libDaisy//src/daisy_core.h **** struct Pin
 261:../../libDaisy//src/daisy_core.h **** {
 262:../../libDaisy//src/daisy_core.h ****     GPIOPort port;
 263:../../libDaisy//src/daisy_core.h ****     uint8_t  pin;
ARM GAS  /var/folders/hl/qgbwny5j0fd895c2c41bk3tw0000gp/T//cc4ErH94.s 			page 81


 264:../../libDaisy//src/daisy_core.h **** 
 265:../../libDaisy//src/daisy_core.h ****     /** @brief Constructor creates a valid pin. 
 266:../../libDaisy//src/daisy_core.h ****      *  @param pt GPIOPort between PA, and PK corresponding to STM32 Port.
 267:../../libDaisy//src/daisy_core.h ****      *  @param pn pin number in range of 0-15
 268:../../libDaisy//src/daisy_core.h ****     */
 269:../../libDaisy//src/daisy_core.h ****     constexpr Pin(const GPIOPort pt, const uint8_t pn) : port(pt), pin(pn) {}
 270:../../libDaisy//src/daisy_core.h **** 
 271:../../libDaisy//src/daisy_core.h ****     /** @brief Basic Constructor creates an invalid Pin object */
 272:../../libDaisy//src/daisy_core.h ****     constexpr Pin() : port(PORTX), pin(255) {}
 2515              		.loc 19 272 15 view .LVU646
 2516              		.loc 19 272 15 is_stmt 0 view .LVU647
 2517              	.LBE1040:
 2518              	.LBE1039:
 2519              	.LBE1038:
 2520              	.LBE1037:
 2521              	.LBE1036:
 2522              	.LBE1035:
 2523              	.LBE1034:
 2524              	.LBE1033:
 2525              		.loc 15 150 1 view .LVU648
 2526 0000 38B5     		push	{r3, r4, r5, lr}
 2527              		.cfi_def_cfa_offset 16
 2528              		.cfi_offset 3, -16
 2529              		.cfi_offset 4, -12
 2530              		.cfi_offset 5, -8
 2531              		.cfi_offset 14, -4
 2532              	.LBB1205:
 2533              	.LBB1201:
 2534              	.LBB1049:
 2535              	.LBB1050:
 2536              		.loc 18 74 12 view .LVU649
 2537 0002 3E4A     		ldr	r2, .L77
 2538              	.LBE1050:
 2539              	.LBE1049:
 2540              	.LBB1060:
 2541              	.LBB1047:
 2542              	.LBB1045:
 2543              	.LBB1043:
 2544              	.LBB1041:
  69:../../libDaisy//src/per/gpio.h ****         {
 2545              		.loc 18 69 73 view .LVU650
 2546 0004 0024     		movs	r4, #0
 2547              	.LBE1041:
 2548              	.LBE1043:
 2549              	.LBE1045:
 2550              		.loc 18 74 12 view .LVU651
 2551 0006 4FF60B73 		movw	r3, #65291
 2552 000a 3D49     		ldr	r1, .L77+4
 2553              	.LBE1047:
 2554              	.LBE1060:
 2555              	.LBB1061:
 2556              	.LBB1062:
 2557 000c 3D48     		ldr	r0, .L77+8
 2558              	.LBE1062:
 2559              	.LBE1061:
  21:daisy_bed.h   ****     Pin newPinD7 = Pin(static_cast<GPIOPort>(oldPinD7.port), oldPinD7.pin);
 2560              		.loc 14 21 18 view .LVU652
ARM GAS  /var/folders/hl/qgbwny5j0fd895c2c41bk3tw0000gp/T//cc4ErH94.s 			page 82


 2561 000e 3E4D     		ldr	r5, .L77+12
 2562              	.LBB1076:
 2563              	.LBB1058:
 2564              	.LBB1051:
 2565              	.LBB1052:
 2566              	.LBB1053:
  69:../../libDaisy//src/per/gpio.h ****         {
 2567              		.loc 18 69 73 view .LVU653
 2568 0010 C2E90034 		strd	r3, r4, [r2]
 2569 0014 C2E90244 		strd	r4, r4, [r2, #8]
 2570              	.LBE1053:
 2571              	.LBE1052:
 2572              	.LBE1051:
 2573              	.LBE1058:
 2574              	.LBE1076:
 2575              	.LBB1077:
 2576              	.LBB1078:
 2577              		.loc 18 74 12 view .LVU654
 2578 0018 3C4A     		ldr	r2, .L77+16
 2579              	.LBB1079:
 2580              	.LBB1080:
 2581              	.LBB1081:
  69:../../libDaisy//src/per/gpio.h ****         {
 2582              		.loc 18 69 73 view .LVU655
 2583 001a C2E90034 		strd	r3, r4, [r2]
 2584 001e C2E90244 		strd	r4, r4, [r2, #8]
 2585              	.LBE1081:
 2586              	.LBE1080:
 2587              	.LBE1079:
 2588              	.LBE1078:
 2589              	.LBE1077:
 2590              	.LBB1087:
 2591              	.LBB1088:
 2592              		.loc 18 74 12 view .LVU656
 2593 0022 3B4A     		ldr	r2, .L77+20
 2594              	.LBE1088:
 2595              	.LBE1087:
 2596              	.LBB1103:
 2597              	.LBB1048:
 2598              	.LBB1046:
 2599              	.LBB1044:
 2600              	.LBB1042:
  69:../../libDaisy//src/per/gpio.h ****         {
 2601              		.loc 18 69 73 view .LVU657
 2602 0024 C1E90034 		strd	r3, r4, [r1]
 2603 0028 C1E90244 		strd	r4, r4, [r1, #8]
 2604              	.LVL157:
  69:../../libDaisy//src/per/gpio.h ****         {
