ARM GAS  /var/folders/hl/qgbwny5j0fd895c2c41bk3tw0000gp/T//ccr6F3ig.s 			page 1


   1              		.cpu cortex-m7
   2              		.eabi_attribute 28, 1
   3              		.eabi_attribute 20, 1
   4              		.eabi_attribute 21, 1
   5              		.eabi_attribute 23, 3
   6              		.eabi_attribute 24, 1
   7              		.eabi_attribute 25, 1
   8              		.eabi_attribute 26, 1
   9              		.eabi_attribute 30, 2
  10              		.eabi_attribute 34, 1
  11              		.eabi_attribute 18, 4
  12              		.file	"arm_cmplx_mag_f32.c"
  13              		.text
  14              	.Ltext0:
  15              		.cfi_sections	.debug_frame
  16              		.section	.text.arm_cmplx_mag_f32,"ax",%progbits
  17              		.align	1
  18              		.p2align 2,,3
  19              		.global	arm_cmplx_mag_f32
  20              		.arch armv7e-m
  21              		.syntax unified
  22              		.thumb
  23              		.thumb_func
  24              		.fpu fpv5-d16
  26              	arm_cmplx_mag_f32:
  27              	.LVL0:
  28              	.LFB353:
  29              		.file 1 "../../libDaisy//Drivers/CMSIS/DSP/Source/ComplexMathFunctions/arm_cmplx_mag_f32.c"
   1:../../libDaisy//Drivers/CMSIS/DSP/Source/ComplexMathFunctions/arm_cmplx_mag_f32.c **** /* ----------------------------------------------------------------------
   2:../../libDaisy//Drivers/CMSIS/DSP/Source/ComplexMathFunctions/arm_cmplx_mag_f32.c ****  * Project:      CMSIS DSP Library
   3:../../libDaisy//Drivers/CMSIS/DSP/Source/ComplexMathFunctions/arm_cmplx_mag_f32.c ****  * Title:        arm_cmplx_mag_f32.c
   4:../../libDaisy//Drivers/CMSIS/DSP/Source/ComplexMathFunctions/arm_cmplx_mag_f32.c ****  * Description:  Floating-point complex magnitude
   5:../../libDaisy//Drivers/CMSIS/DSP/Source/ComplexMathFunctions/arm_cmplx_mag_f32.c ****  *
   6:../../libDaisy//Drivers/CMSIS/DSP/Source/ComplexMathFunctions/arm_cmplx_mag_f32.c ****  * $Date:        27. January 2017
   7:../../libDaisy//Drivers/CMSIS/DSP/Source/ComplexMathFunctions/arm_cmplx_mag_f32.c ****  * $Revision:    V.1.5.1
   8:../../libDaisy//Drivers/CMSIS/DSP/Source/ComplexMathFunctions/arm_cmplx_mag_f32.c ****  *
   9:../../libDaisy//Drivers/CMSIS/DSP/Source/ComplexMathFunctions/arm_cmplx_mag_f32.c ****  * Target Processor: Cortex-M cores
  10:../../libDaisy//Drivers/CMSIS/DSP/Source/ComplexMathFunctions/arm_cmplx_mag_f32.c ****  * -------------------------------------------------------------------- */
  11:../../libDaisy//Drivers/CMSIS/DSP/Source/ComplexMathFunctions/arm_cmplx_mag_f32.c **** /*
  12:../../libDaisy//Drivers/CMSIS/DSP/Source/ComplexMathFunctions/arm_cmplx_mag_f32.c ****  * Copyright (C) 2010-2017 ARM Limited or its affiliates. All rights reserved.
  13:../../libDaisy//Drivers/CMSIS/DSP/Source/ComplexMathFunctions/arm_cmplx_mag_f32.c ****  *
  14:../../libDaisy//Drivers/CMSIS/DSP/Source/ComplexMathFunctions/arm_cmplx_mag_f32.c ****  * SPDX-License-Identifier: Apache-2.0
  15:../../libDaisy//Drivers/CMSIS/DSP/Source/ComplexMathFunctions/arm_cmplx_mag_f32.c ****  *
  16:../../libDaisy//Drivers/CMSIS/DSP/Source/ComplexMathFunctions/arm_cmplx_mag_f32.c ****  * Licensed under the Apache License, Version 2.0 (the License); you may
  17:../../libDaisy//Drivers/CMSIS/DSP/Source/ComplexMathFunctions/arm_cmplx_mag_f32.c ****  * not use this file except in compliance with the License.
  18:../../libDaisy//Drivers/CMSIS/DSP/Source/ComplexMathFunctions/arm_cmplx_mag_f32.c ****  * You may obtain a copy of the License at
  19:../../libDaisy//Drivers/CMSIS/DSP/Source/ComplexMathFunctions/arm_cmplx_mag_f32.c ****  *
  20:../../libDaisy//Drivers/CMSIS/DSP/Source/ComplexMathFunctions/arm_cmplx_mag_f32.c ****  * www.apache.org/licenses/LICENSE-2.0
  21:../../libDaisy//Drivers/CMSIS/DSP/Source/ComplexMathFunctions/arm_cmplx_mag_f32.c ****  *
  22:../../libDaisy//Drivers/CMSIS/DSP/Source/ComplexMathFunctions/arm_cmplx_mag_f32.c ****  * Unless required by applicable law or agreed to in writing, software
  23:../../libDaisy//Drivers/CMSIS/DSP/Source/ComplexMathFunctions/arm_cmplx_mag_f32.c ****  * distributed under the License is distributed on an AS IS BASIS, WITHOUT
  24:../../libDaisy//Drivers/CMSIS/DSP/Source/ComplexMathFunctions/arm_cmplx_mag_f32.c ****  * WARRANTIES OR CONDITIONS OF ANY KIND, either express or implied.
  25:../../libDaisy//Drivers/CMSIS/DSP/Source/ComplexMathFunctions/arm_cmplx_mag_f32.c ****  * See the License for the specific language governing permissions and
  26:../../libDaisy//Drivers/CMSIS/DSP/Source/ComplexMathFunctions/arm_cmplx_mag_f32.c ****  * limitations under the License.
  27:../../libDaisy//Drivers/CMSIS/DSP/Source/ComplexMathFunctions/arm_cmplx_mag_f32.c ****  */
  28:../../libDaisy//Drivers/CMSIS/DSP/Source/ComplexMathFunctions/arm_cmplx_mag_f32.c **** 
  29:../../libDaisy//Drivers/CMSIS/DSP/Source/ComplexMathFunctions/arm_cmplx_mag_f32.c **** #include "arm_math.h"
ARM GAS  /var/folders/hl/qgbwny5j0fd895c2c41bk3tw0000gp/T//ccr6F3ig.s 			page 2


  30:../../libDaisy//Drivers/CMSIS/DSP/Source/ComplexMathFunctions/arm_cmplx_mag_f32.c **** 
  31:../../libDaisy//Drivers/CMSIS/DSP/Source/ComplexMathFunctions/arm_cmplx_mag_f32.c **** /**
  32:../../libDaisy//Drivers/CMSIS/DSP/Source/ComplexMathFunctions/arm_cmplx_mag_f32.c ****  * @ingroup groupCmplxMath
  33:../../libDaisy//Drivers/CMSIS/DSP/Source/ComplexMathFunctions/arm_cmplx_mag_f32.c ****  */
  34:../../libDaisy//Drivers/CMSIS/DSP/Source/ComplexMathFunctions/arm_cmplx_mag_f32.c **** 
  35:../../libDaisy//Drivers/CMSIS/DSP/Source/ComplexMathFunctions/arm_cmplx_mag_f32.c **** /**
  36:../../libDaisy//Drivers/CMSIS/DSP/Source/ComplexMathFunctions/arm_cmplx_mag_f32.c ****  * @defgroup cmplx_mag Complex Magnitude
  37:../../libDaisy//Drivers/CMSIS/DSP/Source/ComplexMathFunctions/arm_cmplx_mag_f32.c ****  *
  38:../../libDaisy//Drivers/CMSIS/DSP/Source/ComplexMathFunctions/arm_cmplx_mag_f32.c ****  * Computes the magnitude of the elements of a complex data vector.
  39:../../libDaisy//Drivers/CMSIS/DSP/Source/ComplexMathFunctions/arm_cmplx_mag_f32.c ****  *
  40:../../libDaisy//Drivers/CMSIS/DSP/Source/ComplexMathFunctions/arm_cmplx_mag_f32.c ****  * The <code>pSrc</code> points to the source data and
  41:../../libDaisy//Drivers/CMSIS/DSP/Source/ComplexMathFunctions/arm_cmplx_mag_f32.c ****  * <code>pDst</code> points to the where the result should be written.
  42:../../libDaisy//Drivers/CMSIS/DSP/Source/ComplexMathFunctions/arm_cmplx_mag_f32.c ****  * <code>numSamples</code> specifies the number of complex samples
  43:../../libDaisy//Drivers/CMSIS/DSP/Source/ComplexMathFunctions/arm_cmplx_mag_f32.c ****  * in the input array and the data is stored in an interleaved fashion
  44:../../libDaisy//Drivers/CMSIS/DSP/Source/ComplexMathFunctions/arm_cmplx_mag_f32.c ****  * (real, imag, real, imag, ...).
  45:../../libDaisy//Drivers/CMSIS/DSP/Source/ComplexMathFunctions/arm_cmplx_mag_f32.c ****  * The input array has a total of <code>2*numSamples</code> values;
  46:../../libDaisy//Drivers/CMSIS/DSP/Source/ComplexMathFunctions/arm_cmplx_mag_f32.c ****  * the output array has a total of <code>numSamples</code> values.
  47:../../libDaisy//Drivers/CMSIS/DSP/Source/ComplexMathFunctions/arm_cmplx_mag_f32.c ****  * The underlying algorithm is used:
  48:../../libDaisy//Drivers/CMSIS/DSP/Source/ComplexMathFunctions/arm_cmplx_mag_f32.c ****  *
  49:../../libDaisy//Drivers/CMSIS/DSP/Source/ComplexMathFunctions/arm_cmplx_mag_f32.c ****  * <pre>
  50:../../libDaisy//Drivers/CMSIS/DSP/Source/ComplexMathFunctions/arm_cmplx_mag_f32.c ****  * for(n=0; n<numSamples; n++) {
  51:../../libDaisy//Drivers/CMSIS/DSP/Source/ComplexMathFunctions/arm_cmplx_mag_f32.c ****  *     pDst[n] = sqrt(pSrc[(2*n)+0]^2 + pSrc[(2*n)+1]^2);
  52:../../libDaisy//Drivers/CMSIS/DSP/Source/ComplexMathFunctions/arm_cmplx_mag_f32.c ****  * }
  53:../../libDaisy//Drivers/CMSIS/DSP/Source/ComplexMathFunctions/arm_cmplx_mag_f32.c ****  * </pre>
  54:../../libDaisy//Drivers/CMSIS/DSP/Source/ComplexMathFunctions/arm_cmplx_mag_f32.c ****  *
  55:../../libDaisy//Drivers/CMSIS/DSP/Source/ComplexMathFunctions/arm_cmplx_mag_f32.c ****  * There are separate functions for floating-point, Q15, and Q31 data types.
  56:../../libDaisy//Drivers/CMSIS/DSP/Source/ComplexMathFunctions/arm_cmplx_mag_f32.c ****  */
  57:../../libDaisy//Drivers/CMSIS/DSP/Source/ComplexMathFunctions/arm_cmplx_mag_f32.c **** 
  58:../../libDaisy//Drivers/CMSIS/DSP/Source/ComplexMathFunctions/arm_cmplx_mag_f32.c **** /**
  59:../../libDaisy//Drivers/CMSIS/DSP/Source/ComplexMathFunctions/arm_cmplx_mag_f32.c ****  * @addtogroup cmplx_mag
  60:../../libDaisy//Drivers/CMSIS/DSP/Source/ComplexMathFunctions/arm_cmplx_mag_f32.c ****  * @{
  61:../../libDaisy//Drivers/CMSIS/DSP/Source/ComplexMathFunctions/arm_cmplx_mag_f32.c ****  */
  62:../../libDaisy//Drivers/CMSIS/DSP/Source/ComplexMathFunctions/arm_cmplx_mag_f32.c **** /**
  63:../../libDaisy//Drivers/CMSIS/DSP/Source/ComplexMathFunctions/arm_cmplx_mag_f32.c ****  * @brief Floating-point complex magnitude.
  64:../../libDaisy//Drivers/CMSIS/DSP/Source/ComplexMathFunctions/arm_cmplx_mag_f32.c ****  * @param[in]       *pSrc points to complex input buffer
  65:../../libDaisy//Drivers/CMSIS/DSP/Source/ComplexMathFunctions/arm_cmplx_mag_f32.c ****  * @param[out]      *pDst points to real output buffer
  66:../../libDaisy//Drivers/CMSIS/DSP/Source/ComplexMathFunctions/arm_cmplx_mag_f32.c ****  * @param[in]       numSamples number of complex samples in the input vector
  67:../../libDaisy//Drivers/CMSIS/DSP/Source/ComplexMathFunctions/arm_cmplx_mag_f32.c ****  * @return none.
  68:../../libDaisy//Drivers/CMSIS/DSP/Source/ComplexMathFunctions/arm_cmplx_mag_f32.c ****  *
  69:../../libDaisy//Drivers/CMSIS/DSP/Source/ComplexMathFunctions/arm_cmplx_mag_f32.c ****  */
  70:../../libDaisy//Drivers/CMSIS/DSP/Source/ComplexMathFunctions/arm_cmplx_mag_f32.c **** 
  71:../../libDaisy//Drivers/CMSIS/DSP/Source/ComplexMathFunctions/arm_cmplx_mag_f32.c **** 
  72:../../libDaisy//Drivers/CMSIS/DSP/Source/ComplexMathFunctions/arm_cmplx_mag_f32.c **** void arm_cmplx_mag_f32(
  73:../../libDaisy//Drivers/CMSIS/DSP/Source/ComplexMathFunctions/arm_cmplx_mag_f32.c ****   float32_t * pSrc,
  74:../../libDaisy//Drivers/CMSIS/DSP/Source/ComplexMathFunctions/arm_cmplx_mag_f32.c ****   float32_t * pDst,
  75:../../libDaisy//Drivers/CMSIS/DSP/Source/ComplexMathFunctions/arm_cmplx_mag_f32.c ****   uint32_t numSamples)
  76:../../libDaisy//Drivers/CMSIS/DSP/Source/ComplexMathFunctions/arm_cmplx_mag_f32.c **** {
  30              		.loc 1 76 1 view -0
  31              		.cfi_startproc
  32              		@ args = 0, pretend = 0, frame = 16
  33              		@ frame_needed = 0, uses_anonymous_args = 0
  77:../../libDaisy//Drivers/CMSIS/DSP/Source/ComplexMathFunctions/arm_cmplx_mag_f32.c ****   float32_t realIn, imagIn;                      /* Temporary variables to hold input values */
  34              		.loc 1 77 3 view .LVU1
  78:../../libDaisy//Drivers/CMSIS/DSP/Source/ComplexMathFunctions/arm_cmplx_mag_f32.c **** 
  79:../../libDaisy//Drivers/CMSIS/DSP/Source/ComplexMathFunctions/arm_cmplx_mag_f32.c **** #if defined (ARM_MATH_DSP)
  80:../../libDaisy//Drivers/CMSIS/DSP/Source/ComplexMathFunctions/arm_cmplx_mag_f32.c **** 
  81:../../libDaisy//Drivers/CMSIS/DSP/Source/ComplexMathFunctions/arm_cmplx_mag_f32.c ****   /* Run the below code for Cortex-M4 and Cortex-M3 */
ARM GAS  /var/folders/hl/qgbwny5j0fd895c2c41bk3tw0000gp/T//ccr6F3ig.s 			page 3


  82:../../libDaisy//Drivers/CMSIS/DSP/Source/ComplexMathFunctions/arm_cmplx_mag_f32.c ****   uint32_t blkCnt;                               /* loop counter */
  35              		.loc 1 82 3 view .LVU2
  83:../../libDaisy//Drivers/CMSIS/DSP/Source/ComplexMathFunctions/arm_cmplx_mag_f32.c **** 
  84:../../libDaisy//Drivers/CMSIS/DSP/Source/ComplexMathFunctions/arm_cmplx_mag_f32.c ****   /*loop Unrolling */
  85:../../libDaisy//Drivers/CMSIS/DSP/Source/ComplexMathFunctions/arm_cmplx_mag_f32.c ****   blkCnt = numSamples >> 2u;
  36              		.loc 1 85 3 view .LVU3
  86:../../libDaisy//Drivers/CMSIS/DSP/Source/ComplexMathFunctions/arm_cmplx_mag_f32.c **** 
  87:../../libDaisy//Drivers/CMSIS/DSP/Source/ComplexMathFunctions/arm_cmplx_mag_f32.c ****   /* First part of the processing with loop unrolling.  Compute 4 outputs at a time.
  88:../../libDaisy//Drivers/CMSIS/DSP/Source/ComplexMathFunctions/arm_cmplx_mag_f32.c ****    ** a second loop below computes the remaining 1 to 3 samples. */
  89:../../libDaisy//Drivers/CMSIS/DSP/Source/ComplexMathFunctions/arm_cmplx_mag_f32.c ****   while (blkCnt > 0u)
  37              		.loc 1 89 3 view .LVU4
  38              		.loc 1 89 9 view .LVU5
  76:../../libDaisy//Drivers/CMSIS/DSP/Source/ComplexMathFunctions/arm_cmplx_mag_f32.c ****   float32_t realIn, imagIn;                      /* Temporary variables to hold input values */
  39              		.loc 1 76 1 is_stmt 0 view .LVU6
  40 0000 2DE9F041 		push	{r4, r5, r6, r7, r8, lr}
  41              		.cfi_def_cfa_offset 24
  42              		.cfi_offset 4, -24
  43              		.cfi_offset 5, -20
  44              		.cfi_offset 6, -16
  45              		.cfi_offset 7, -12
  46              		.cfi_offset 8, -8
  47              		.cfi_offset 14, -4
  48              		.loc 1 89 9 view .LVU7
  49 0004 9708     		lsrs	r7, r2, #2
  50              	.LVL1:
  76:../../libDaisy//Drivers/CMSIS/DSP/Source/ComplexMathFunctions/arm_cmplx_mag_f32.c ****   float32_t realIn, imagIn;                      /* Temporary variables to hold input values */
  51              		.loc 1 76 1 view .LVU8
  52 0006 84B0     		sub	sp, sp, #16
  53              		.cfi_def_cfa_offset 40
  54              		.loc 1 89 9 view .LVU9
  55 0008 6AD0     		beq	.L2
  56 000a 00F12004 		add	r4, r0, #32
  57 000e 01F11005 		add	r5, r1, #16
  58 0012 3E46     		mov	r6, r7
  59              	.LBB12:
  60              	.LBB13:
  61              		.file 2 "../../libDaisy//Drivers/CMSIS/DSP/Include/arm_math.h"
   1:../../libDaisy//Drivers/CMSIS/DSP/Include/arm_math.h **** /* ----------------------------------------------------------------------
   2:../../libDaisy//Drivers/CMSIS/DSP/Include/arm_math.h ****  * Project:      CMSIS DSP Library
   3:../../libDaisy//Drivers/CMSIS/DSP/Include/arm_math.h ****  * Title:        arm_math.h
   4:../../libDaisy//Drivers/CMSIS/DSP/Include/arm_math.h ****  * Description:  Public header file for CMSIS DSP Library
   5:../../libDaisy//Drivers/CMSIS/DSP/Include/arm_math.h ****  *
   6:../../libDaisy//Drivers/CMSIS/DSP/Include/arm_math.h ****  * $Date:        27. January 2017
   7:../../libDaisy//Drivers/CMSIS/DSP/Include/arm_math.h ****  * $Revision:    V.1.5.1
   8:../../libDaisy//Drivers/CMSIS/DSP/Include/arm_math.h ****  *
   9:../../libDaisy//Drivers/CMSIS/DSP/Include/arm_math.h ****  * Target Processor: Cortex-M cores
  10:../../libDaisy//Drivers/CMSIS/DSP/Include/arm_math.h ****  * -------------------------------------------------------------------- */
  11:../../libDaisy//Drivers/CMSIS/DSP/Include/arm_math.h **** /*
  12:../../libDaisy//Drivers/CMSIS/DSP/Include/arm_math.h ****  * Copyright (C) 2010-2017 ARM Limited or its affiliates. All rights reserved.
  13:../../libDaisy//Drivers/CMSIS/DSP/Include/arm_math.h ****  *
  14:../../libDaisy//Drivers/CMSIS/DSP/Include/arm_math.h ****  * SPDX-License-Identifier: Apache-2.0
  15:../../libDaisy//Drivers/CMSIS/DSP/Include/arm_math.h ****  *
  16:../../libDaisy//Drivers/CMSIS/DSP/Include/arm_math.h ****  * Licensed under the Apache License, Version 2.0 (the License); you may
  17:../../libDaisy//Drivers/CMSIS/DSP/Include/arm_math.h ****  * not use this file except in compliance with the License.
  18:../../libDaisy//Drivers/CMSIS/DSP/Include/arm_math.h ****  * You may obtain a copy of the License at
  19:../../libDaisy//Drivers/CMSIS/DSP/Include/arm_math.h ****  *
  20:../../libDaisy//Drivers/CMSIS/DSP/Include/arm_math.h ****  * www.apache.org/licenses/LICENSE-2.0
ARM GAS  /var/folders/hl/qgbwny5j0fd895c2c41bk3tw0000gp/T//ccr6F3ig.s 			page 4


  21:../../libDaisy//Drivers/CMSIS/DSP/Include/arm_math.h ****  *
  22:../../libDaisy//Drivers/CMSIS/DSP/Include/arm_math.h ****  * Unless required by applicable law or agreed to in writing, software
  23:../../libDaisy//Drivers/CMSIS/DSP/Include/arm_math.h ****  * distributed under the License is distributed on an AS IS BASIS, WITHOUT
  24:../../libDaisy//Drivers/CMSIS/DSP/Include/arm_math.h ****  * WARRANTIES OR CONDITIONS OF ANY KIND, either express or implied.
  25:../../libDaisy//Drivers/CMSIS/DSP/Include/arm_math.h ****  * See the License for the specific language governing permissions and
  26:../../libDaisy//Drivers/CMSIS/DSP/Include/arm_math.h ****  * limitations under the License.
  27:../../libDaisy//Drivers/CMSIS/DSP/Include/arm_math.h ****  */
  28:../../libDaisy//Drivers/CMSIS/DSP/Include/arm_math.h **** 
  29:../../libDaisy//Drivers/CMSIS/DSP/Include/arm_math.h **** /**
  30:../../libDaisy//Drivers/CMSIS/DSP/Include/arm_math.h ****    \mainpage CMSIS DSP Software Library
  31:../../libDaisy//Drivers/CMSIS/DSP/Include/arm_math.h ****    *
  32:../../libDaisy//Drivers/CMSIS/DSP/Include/arm_math.h ****    * Introduction
  33:../../libDaisy//Drivers/CMSIS/DSP/Include/arm_math.h ****    * ------------
  34:../../libDaisy//Drivers/CMSIS/DSP/Include/arm_math.h ****    *
  35:../../libDaisy//Drivers/CMSIS/DSP/Include/arm_math.h ****    * This user manual describes the CMSIS DSP software library,
  36:../../libDaisy//Drivers/CMSIS/DSP/Include/arm_math.h ****    * a suite of common signal processing functions for use on Cortex-M processor based devices.
  37:../../libDaisy//Drivers/CMSIS/DSP/Include/arm_math.h ****    *
  38:../../libDaisy//Drivers/CMSIS/DSP/Include/arm_math.h ****    * The library is divided into a number of functions each covering a specific category:
  39:../../libDaisy//Drivers/CMSIS/DSP/Include/arm_math.h ****    * - Basic math functions
  40:../../libDaisy//Drivers/CMSIS/DSP/Include/arm_math.h ****    * - Fast math functions
  41:../../libDaisy//Drivers/CMSIS/DSP/Include/arm_math.h ****    * - Complex math functions
  42:../../libDaisy//Drivers/CMSIS/DSP/Include/arm_math.h ****    * - Filters
  43:../../libDaisy//Drivers/CMSIS/DSP/Include/arm_math.h ****    * - Matrix functions
  44:../../libDaisy//Drivers/CMSIS/DSP/Include/arm_math.h ****    * - Transforms
  45:../../libDaisy//Drivers/CMSIS/DSP/Include/arm_math.h ****    * - Motor control functions
  46:../../libDaisy//Drivers/CMSIS/DSP/Include/arm_math.h ****    * - Statistical functions
  47:../../libDaisy//Drivers/CMSIS/DSP/Include/arm_math.h ****    * - Support functions
  48:../../libDaisy//Drivers/CMSIS/DSP/Include/arm_math.h ****    * - Interpolation functions
  49:../../libDaisy//Drivers/CMSIS/DSP/Include/arm_math.h ****    *
  50:../../libDaisy//Drivers/CMSIS/DSP/Include/arm_math.h ****    * The library has separate functions for operating on 8-bit integers, 16-bit integers,
  51:../../libDaisy//Drivers/CMSIS/DSP/Include/arm_math.h ****    * 32-bit integer and 32-bit floating-point values.
  52:../../libDaisy//Drivers/CMSIS/DSP/Include/arm_math.h ****    *
  53:../../libDaisy//Drivers/CMSIS/DSP/Include/arm_math.h ****    * Using the Library
  54:../../libDaisy//Drivers/CMSIS/DSP/Include/arm_math.h ****    * ------------
  55:../../libDaisy//Drivers/CMSIS/DSP/Include/arm_math.h ****    *
  56:../../libDaisy//Drivers/CMSIS/DSP/Include/arm_math.h ****    * The library installer contains prebuilt versions of the libraries in the <code>Lib</code> fold
  57:../../libDaisy//Drivers/CMSIS/DSP/Include/arm_math.h ****    * - arm_cortexM7lfdp_math.lib (Cortex-M7, Little endian, Double Precision Floating Point Unit)
  58:../../libDaisy//Drivers/CMSIS/DSP/Include/arm_math.h ****    * - arm_cortexM7bfdp_math.lib (Cortex-M7, Big endian, Double Precision Floating Point Unit)
  59:../../libDaisy//Drivers/CMSIS/DSP/Include/arm_math.h ****    * - arm_cortexM7lfsp_math.lib (Cortex-M7, Little endian, Single Precision Floating Point Unit)
  60:../../libDaisy//Drivers/CMSIS/DSP/Include/arm_math.h ****    * - arm_cortexM7bfsp_math.lib (Cortex-M7, Big endian and Single Precision Floating Point Unit on
  61:../../libDaisy//Drivers/CMSIS/DSP/Include/arm_math.h ****    * - arm_cortexM7l_math.lib (Cortex-M7, Little endian)
  62:../../libDaisy//Drivers/CMSIS/DSP/Include/arm_math.h ****    * - arm_cortexM7b_math.lib (Cortex-M7, Big endian)
  63:../../libDaisy//Drivers/CMSIS/DSP/Include/arm_math.h ****    * - arm_cortexM4lf_math.lib (Cortex-M4, Little endian, Floating Point Unit)
  64:../../libDaisy//Drivers/CMSIS/DSP/Include/arm_math.h ****    * - arm_cortexM4bf_math.lib (Cortex-M4, Big endian, Floating Point Unit)
  65:../../libDaisy//Drivers/CMSIS/DSP/Include/arm_math.h ****    * - arm_cortexM4l_math.lib (Cortex-M4, Little endian)
  66:../../libDaisy//Drivers/CMSIS/DSP/Include/arm_math.h ****    * - arm_cortexM4b_math.lib (Cortex-M4, Big endian)
  67:../../libDaisy//Drivers/CMSIS/DSP/Include/arm_math.h ****    * - arm_cortexM3l_math.lib (Cortex-M3, Little endian)
  68:../../libDaisy//Drivers/CMSIS/DSP/Include/arm_math.h ****    * - arm_cortexM3b_math.lib (Cortex-M3, Big endian)
  69:../../libDaisy//Drivers/CMSIS/DSP/Include/arm_math.h ****    * - arm_cortexM0l_math.lib (Cortex-M0 / Cortex-M0+, Little endian)
  70:../../libDaisy//Drivers/CMSIS/DSP/Include/arm_math.h ****    * - arm_cortexM0b_math.lib (Cortex-M0 / Cortex-M0+, Big endian)
  71:../../libDaisy//Drivers/CMSIS/DSP/Include/arm_math.h ****    * - arm_ARMv8MBLl_math.lib (ARMv8M Baseline, Little endian)
  72:../../libDaisy//Drivers/CMSIS/DSP/Include/arm_math.h ****    * - arm_ARMv8MMLl_math.lib (ARMv8M Mainline, Little endian)
  73:../../libDaisy//Drivers/CMSIS/DSP/Include/arm_math.h ****    * - arm_ARMv8MMLlfsp_math.lib (ARMv8M Mainline, Little endian, Single Precision Floating Point U
  74:../../libDaisy//Drivers/CMSIS/DSP/Include/arm_math.h ****    * - arm_ARMv8MMLld_math.lib (ARMv8M Mainline, Little endian, DSP instructions)
  75:../../libDaisy//Drivers/CMSIS/DSP/Include/arm_math.h ****    * - arm_ARMv8MMLldfsp_math.lib (ARMv8M Mainline, Little endian, DSP instructions, Single Precisi
  76:../../libDaisy//Drivers/CMSIS/DSP/Include/arm_math.h ****    *
  77:../../libDaisy//Drivers/CMSIS/DSP/Include/arm_math.h ****    * The library functions are declared in the public file <code>arm_math.h</code> which is placed 
ARM GAS  /var/folders/hl/qgbwny5j0fd895c2c41bk3tw0000gp/T//ccr6F3ig.s 			page 5


  78:../../libDaisy//Drivers/CMSIS/DSP/Include/arm_math.h ****    * Simply include this file and link the appropriate library in the application and begin calling
  79:../../libDaisy//Drivers/CMSIS/DSP/Include/arm_math.h ****    * public header file <code> arm_math.h</code> for Cortex-M cores with little endian and big endi
  80:../../libDaisy//Drivers/CMSIS/DSP/Include/arm_math.h ****    * Define the appropriate pre processor MACRO ARM_MATH_CM7 or ARM_MATH_CM4 or  ARM_MATH_CM3 or
  81:../../libDaisy//Drivers/CMSIS/DSP/Include/arm_math.h ****    * ARM_MATH_CM0 or ARM_MATH_CM0PLUS depending on the target processor in the application.
  82:../../libDaisy//Drivers/CMSIS/DSP/Include/arm_math.h ****    * For ARMv8M cores define pre processor MACRO ARM_MATH_ARMV8MBL or ARM_MATH_ARMV8MML.
  83:../../libDaisy//Drivers/CMSIS/DSP/Include/arm_math.h ****    * Set Pre processor MACRO __DSP_PRESENT if ARMv8M Mainline core supports DSP instructions.
  84:../../libDaisy//Drivers/CMSIS/DSP/Include/arm_math.h ****    * 
  85:../../libDaisy//Drivers/CMSIS/DSP/Include/arm_math.h ****    *
  86:../../libDaisy//Drivers/CMSIS/DSP/Include/arm_math.h ****    * Examples
  87:../../libDaisy//Drivers/CMSIS/DSP/Include/arm_math.h ****    * --------
  88:../../libDaisy//Drivers/CMSIS/DSP/Include/arm_math.h ****    *
  89:../../libDaisy//Drivers/CMSIS/DSP/Include/arm_math.h ****    * The library ships with a number of examples which demonstrate how to use the library functions
  90:../../libDaisy//Drivers/CMSIS/DSP/Include/arm_math.h ****    *
  91:../../libDaisy//Drivers/CMSIS/DSP/Include/arm_math.h ****    * Toolchain Support
  92:../../libDaisy//Drivers/CMSIS/DSP/Include/arm_math.h ****    * ------------
  93:../../libDaisy//Drivers/CMSIS/DSP/Include/arm_math.h ****    *
  94:../../libDaisy//Drivers/CMSIS/DSP/Include/arm_math.h ****    * The library has been developed and tested with MDK-ARM version 5.14.0.0
  95:../../libDaisy//Drivers/CMSIS/DSP/Include/arm_math.h ****    * The library is being tested in GCC and IAR toolchains and updates on this activity will be mad
  96:../../libDaisy//Drivers/CMSIS/DSP/Include/arm_math.h ****    *
  97:../../libDaisy//Drivers/CMSIS/DSP/Include/arm_math.h ****    * Building the Library
  98:../../libDaisy//Drivers/CMSIS/DSP/Include/arm_math.h ****    * ------------
  99:../../libDaisy//Drivers/CMSIS/DSP/Include/arm_math.h ****    *
 100:../../libDaisy//Drivers/CMSIS/DSP/Include/arm_math.h ****    * The library installer contains a project file to re build libraries on MDK-ARM Tool chain in t
 101:../../libDaisy//Drivers/CMSIS/DSP/Include/arm_math.h ****    * - arm_cortexM_math.uvprojx
 102:../../libDaisy//Drivers/CMSIS/DSP/Include/arm_math.h ****    *
 103:../../libDaisy//Drivers/CMSIS/DSP/Include/arm_math.h ****    *
 104:../../libDaisy//Drivers/CMSIS/DSP/Include/arm_math.h ****    * The libraries can be built by opening the arm_cortexM_math.uvprojx project in MDK-ARM, selecti
 105:../../libDaisy//Drivers/CMSIS/DSP/Include/arm_math.h ****    *
 106:../../libDaisy//Drivers/CMSIS/DSP/Include/arm_math.h ****    * Pre-processor Macros
 107:../../libDaisy//Drivers/CMSIS/DSP/Include/arm_math.h ****    * ------------
 108:../../libDaisy//Drivers/CMSIS/DSP/Include/arm_math.h ****    *
 109:../../libDaisy//Drivers/CMSIS/DSP/Include/arm_math.h ****    * Each library project have differant pre-processor macros.
 110:../../libDaisy//Drivers/CMSIS/DSP/Include/arm_math.h ****    *
 111:../../libDaisy//Drivers/CMSIS/DSP/Include/arm_math.h ****    * - UNALIGNED_SUPPORT_DISABLE:
 112:../../libDaisy//Drivers/CMSIS/DSP/Include/arm_math.h ****    *
 113:../../libDaisy//Drivers/CMSIS/DSP/Include/arm_math.h ****    * Define macro UNALIGNED_SUPPORT_DISABLE, If the silicon does not support unaligned memory acces
 114:../../libDaisy//Drivers/CMSIS/DSP/Include/arm_math.h ****    *
 115:../../libDaisy//Drivers/CMSIS/DSP/Include/arm_math.h ****    * - ARM_MATH_BIG_ENDIAN:
 116:../../libDaisy//Drivers/CMSIS/DSP/Include/arm_math.h ****    *
 117:../../libDaisy//Drivers/CMSIS/DSP/Include/arm_math.h ****    * Define macro ARM_MATH_BIG_ENDIAN to build the library for big endian targets. By default libra
 118:../../libDaisy//Drivers/CMSIS/DSP/Include/arm_math.h ****    *
 119:../../libDaisy//Drivers/CMSIS/DSP/Include/arm_math.h ****    * - ARM_MATH_MATRIX_CHECK:
 120:../../libDaisy//Drivers/CMSIS/DSP/Include/arm_math.h ****    *
 121:../../libDaisy//Drivers/CMSIS/DSP/Include/arm_math.h ****    * Define macro ARM_MATH_MATRIX_CHECK for checking on the input and output sizes of matrices
 122:../../libDaisy//Drivers/CMSIS/DSP/Include/arm_math.h ****    *
 123:../../libDaisy//Drivers/CMSIS/DSP/Include/arm_math.h ****    * - ARM_MATH_ROUNDING:
 124:../../libDaisy//Drivers/CMSIS/DSP/Include/arm_math.h ****    *
 125:../../libDaisy//Drivers/CMSIS/DSP/Include/arm_math.h ****    * Define macro ARM_MATH_ROUNDING for rounding on support functions
 126:../../libDaisy//Drivers/CMSIS/DSP/Include/arm_math.h ****    *
 127:../../libDaisy//Drivers/CMSIS/DSP/Include/arm_math.h ****    * - ARM_MATH_CMx:
 128:../../libDaisy//Drivers/CMSIS/DSP/Include/arm_math.h ****    *
 129:../../libDaisy//Drivers/CMSIS/DSP/Include/arm_math.h ****    * Define macro ARM_MATH_CM4 for building the library on Cortex-M4 target, ARM_MATH_CM3 for build
 130:../../libDaisy//Drivers/CMSIS/DSP/Include/arm_math.h ****    * and ARM_MATH_CM0 for building library on Cortex-M0 target, ARM_MATH_CM0PLUS for building libra
 131:../../libDaisy//Drivers/CMSIS/DSP/Include/arm_math.h ****    * ARM_MATH_CM7 for building the library on cortex-M7.
 132:../../libDaisy//Drivers/CMSIS/DSP/Include/arm_math.h ****    *
 133:../../libDaisy//Drivers/CMSIS/DSP/Include/arm_math.h ****    * - ARM_MATH_ARMV8MxL:
 134:../../libDaisy//Drivers/CMSIS/DSP/Include/arm_math.h ****    *
ARM GAS  /var/folders/hl/qgbwny5j0fd895c2c41bk3tw0000gp/T//ccr6F3ig.s 			page 6


 135:../../libDaisy//Drivers/CMSIS/DSP/Include/arm_math.h ****    * Define macro ARM_MATH_ARMV8MBL for building the library on ARMv8M Baseline target, ARM_MATH_AR
 136:../../libDaisy//Drivers/CMSIS/DSP/Include/arm_math.h ****    * on ARMv8M Mainline target.
 137:../../libDaisy//Drivers/CMSIS/DSP/Include/arm_math.h ****    *
 138:../../libDaisy//Drivers/CMSIS/DSP/Include/arm_math.h ****    * - __FPU_PRESENT:
 139:../../libDaisy//Drivers/CMSIS/DSP/Include/arm_math.h ****    *
 140:../../libDaisy//Drivers/CMSIS/DSP/Include/arm_math.h ****    * Initialize macro __FPU_PRESENT = 1 when building on FPU supported Targets. Enable this macro f
 141:../../libDaisy//Drivers/CMSIS/DSP/Include/arm_math.h ****    *
 142:../../libDaisy//Drivers/CMSIS/DSP/Include/arm_math.h ****    * - __DSP_PRESENT:
 143:../../libDaisy//Drivers/CMSIS/DSP/Include/arm_math.h ****    *
 144:../../libDaisy//Drivers/CMSIS/DSP/Include/arm_math.h ****    * Initialize macro __DSP_PRESENT = 1 when ARMv8M Mainline core supports DSP instructions.
 145:../../libDaisy//Drivers/CMSIS/DSP/Include/arm_math.h ****    *
 146:../../libDaisy//Drivers/CMSIS/DSP/Include/arm_math.h ****    * <hr>
 147:../../libDaisy//Drivers/CMSIS/DSP/Include/arm_math.h ****    * CMSIS-DSP in ARM::CMSIS Pack
 148:../../libDaisy//Drivers/CMSIS/DSP/Include/arm_math.h ****    * -----------------------------
 149:../../libDaisy//Drivers/CMSIS/DSP/Include/arm_math.h ****    *
 150:../../libDaisy//Drivers/CMSIS/DSP/Include/arm_math.h ****    * The following files relevant to CMSIS-DSP are present in the <b>ARM::CMSIS</b> Pack directorie
 151:../../libDaisy//Drivers/CMSIS/DSP/Include/arm_math.h ****    * |File/Folder                   |Content                                                       
 152:../../libDaisy//Drivers/CMSIS/DSP/Include/arm_math.h ****    * |------------------------------|--------------------------------------------------------------
 153:../../libDaisy//Drivers/CMSIS/DSP/Include/arm_math.h ****    * |\b CMSIS\\Documentation\\DSP  | This documentation                                           
 154:../../libDaisy//Drivers/CMSIS/DSP/Include/arm_math.h ****    * |\b CMSIS\\DSP_Lib             | Software license agreement (license.txt)                     
 155:../../libDaisy//Drivers/CMSIS/DSP/Include/arm_math.h ****    * |\b CMSIS\\DSP_Lib\\Examples   | Example projects demonstrating the usage of the library funct
 156:../../libDaisy//Drivers/CMSIS/DSP/Include/arm_math.h ****    * |\b CMSIS\\DSP_Lib\\Source     | Source files for rebuilding the library                      
 157:../../libDaisy//Drivers/CMSIS/DSP/Include/arm_math.h ****    *
 158:../../libDaisy//Drivers/CMSIS/DSP/Include/arm_math.h ****    * <hr>
 159:../../libDaisy//Drivers/CMSIS/DSP/Include/arm_math.h ****    * Revision History of CMSIS-DSP
 160:../../libDaisy//Drivers/CMSIS/DSP/Include/arm_math.h ****    * ------------
 161:../../libDaisy//Drivers/CMSIS/DSP/Include/arm_math.h ****    * Please refer to \ref ChangeLog_pg.
 162:../../libDaisy//Drivers/CMSIS/DSP/Include/arm_math.h ****    *
 163:../../libDaisy//Drivers/CMSIS/DSP/Include/arm_math.h ****    * Copyright Notice
 164:../../libDaisy//Drivers/CMSIS/DSP/Include/arm_math.h ****    * ------------
 165:../../libDaisy//Drivers/CMSIS/DSP/Include/arm_math.h ****    *
 166:../../libDaisy//Drivers/CMSIS/DSP/Include/arm_math.h ****    * Copyright (C) 2010-2015 ARM Limited. All rights reserved.
 167:../../libDaisy//Drivers/CMSIS/DSP/Include/arm_math.h ****    */
 168:../../libDaisy//Drivers/CMSIS/DSP/Include/arm_math.h **** 
 169:../../libDaisy//Drivers/CMSIS/DSP/Include/arm_math.h **** 
 170:../../libDaisy//Drivers/CMSIS/DSP/Include/arm_math.h **** /**
 171:../../libDaisy//Drivers/CMSIS/DSP/Include/arm_math.h ****  * @defgroup groupMath Basic Math Functions
 172:../../libDaisy//Drivers/CMSIS/DSP/Include/arm_math.h ****  */
 173:../../libDaisy//Drivers/CMSIS/DSP/Include/arm_math.h **** 
 174:../../libDaisy//Drivers/CMSIS/DSP/Include/arm_math.h **** /**
 175:../../libDaisy//Drivers/CMSIS/DSP/Include/arm_math.h ****  * @defgroup groupFastMath Fast Math Functions
 176:../../libDaisy//Drivers/CMSIS/DSP/Include/arm_math.h ****  * This set of functions provides a fast approximation to sine, cosine, and square root.
 177:../../libDaisy//Drivers/CMSIS/DSP/Include/arm_math.h ****  * As compared to most of the other functions in the CMSIS math library, the fast math functions
 178:../../libDaisy//Drivers/CMSIS/DSP/Include/arm_math.h ****  * operate on individual values and not arrays.
 179:../../libDaisy//Drivers/CMSIS/DSP/Include/arm_math.h ****  * There are separate functions for Q15, Q31, and floating-point data.
 180:../../libDaisy//Drivers/CMSIS/DSP/Include/arm_math.h ****  *
 181:../../libDaisy//Drivers/CMSIS/DSP/Include/arm_math.h ****  */
 182:../../libDaisy//Drivers/CMSIS/DSP/Include/arm_math.h **** 
 183:../../libDaisy//Drivers/CMSIS/DSP/Include/arm_math.h **** /**
 184:../../libDaisy//Drivers/CMSIS/DSP/Include/arm_math.h ****  * @defgroup groupCmplxMath Complex Math Functions
 185:../../libDaisy//Drivers/CMSIS/DSP/Include/arm_math.h ****  * This set of functions operates on complex data vectors.
 186:../../libDaisy//Drivers/CMSIS/DSP/Include/arm_math.h ****  * The data in the complex arrays is stored in an interleaved fashion
 187:../../libDaisy//Drivers/CMSIS/DSP/Include/arm_math.h ****  * (real, imag, real, imag, ...).
 188:../../libDaisy//Drivers/CMSIS/DSP/Include/arm_math.h ****  * In the API functions, the number of samples in a complex array refers
 189:../../libDaisy//Drivers/CMSIS/DSP/Include/arm_math.h ****  * to the number of complex values; the array contains twice this number of
 190:../../libDaisy//Drivers/CMSIS/DSP/Include/arm_math.h ****  * real values.
 191:../../libDaisy//Drivers/CMSIS/DSP/Include/arm_math.h ****  */
ARM GAS  /var/folders/hl/qgbwny5j0fd895c2c41bk3tw0000gp/T//ccr6F3ig.s 			page 7


 192:../../libDaisy//Drivers/CMSIS/DSP/Include/arm_math.h **** 
 193:../../libDaisy//Drivers/CMSIS/DSP/Include/arm_math.h **** /**
 194:../../libDaisy//Drivers/CMSIS/DSP/Include/arm_math.h ****  * @defgroup groupFilters Filtering Functions
 195:../../libDaisy//Drivers/CMSIS/DSP/Include/arm_math.h ****  */
 196:../../libDaisy//Drivers/CMSIS/DSP/Include/arm_math.h **** 
 197:../../libDaisy//Drivers/CMSIS/DSP/Include/arm_math.h **** /**
 198:../../libDaisy//Drivers/CMSIS/DSP/Include/arm_math.h ****  * @defgroup groupMatrix Matrix Functions
 199:../../libDaisy//Drivers/CMSIS/DSP/Include/arm_math.h ****  *
 200:../../libDaisy//Drivers/CMSIS/DSP/Include/arm_math.h ****  * This set of functions provides basic matrix math operations.
 201:../../libDaisy//Drivers/CMSIS/DSP/Include/arm_math.h ****  * The functions operate on matrix data structures.  For example,
 202:../../libDaisy//Drivers/CMSIS/DSP/Include/arm_math.h ****  * the type
 203:../../libDaisy//Drivers/CMSIS/DSP/Include/arm_math.h ****  * definition for the floating-point matrix structure is shown
 204:../../libDaisy//Drivers/CMSIS/DSP/Include/arm_math.h ****  * below:
 205:../../libDaisy//Drivers/CMSIS/DSP/Include/arm_math.h ****  * <pre>
 206:../../libDaisy//Drivers/CMSIS/DSP/Include/arm_math.h ****  *     typedef struct
 207:../../libDaisy//Drivers/CMSIS/DSP/Include/arm_math.h ****  *     {
 208:../../libDaisy//Drivers/CMSIS/DSP/Include/arm_math.h ****  *       uint16_t numRows;     // number of rows of the matrix.
 209:../../libDaisy//Drivers/CMSIS/DSP/Include/arm_math.h ****  *       uint16_t numCols;     // number of columns of the matrix.
 210:../../libDaisy//Drivers/CMSIS/DSP/Include/arm_math.h ****  *       float32_t *pData;     // points to the data of the matrix.
 211:../../libDaisy//Drivers/CMSIS/DSP/Include/arm_math.h ****  *     } arm_matrix_instance_f32;
 212:../../libDaisy//Drivers/CMSIS/DSP/Include/arm_math.h ****  * </pre>
 213:../../libDaisy//Drivers/CMSIS/DSP/Include/arm_math.h ****  * There are similar definitions for Q15 and Q31 data types.
 214:../../libDaisy//Drivers/CMSIS/DSP/Include/arm_math.h ****  *
 215:../../libDaisy//Drivers/CMSIS/DSP/Include/arm_math.h ****  * The structure specifies the size of the matrix and then points to
 216:../../libDaisy//Drivers/CMSIS/DSP/Include/arm_math.h ****  * an array of data.  The array is of size <code>numRows X numCols</code>
 217:../../libDaisy//Drivers/CMSIS/DSP/Include/arm_math.h ****  * and the values are arranged in row order.  That is, the
 218:../../libDaisy//Drivers/CMSIS/DSP/Include/arm_math.h ****  * matrix element (i, j) is stored at:
 219:../../libDaisy//Drivers/CMSIS/DSP/Include/arm_math.h ****  * <pre>
 220:../../libDaisy//Drivers/CMSIS/DSP/Include/arm_math.h ****  *     pData[i*numCols + j]
 221:../../libDaisy//Drivers/CMSIS/DSP/Include/arm_math.h ****  * </pre>
 222:../../libDaisy//Drivers/CMSIS/DSP/Include/arm_math.h ****  *
 223:../../libDaisy//Drivers/CMSIS/DSP/Include/arm_math.h ****  * \par Init Functions
 224:../../libDaisy//Drivers/CMSIS/DSP/Include/arm_math.h ****  * There is an associated initialization function for each type of matrix
 225:../../libDaisy//Drivers/CMSIS/DSP/Include/arm_math.h ****  * data structure.
 226:../../libDaisy//Drivers/CMSIS/DSP/Include/arm_math.h ****  * The initialization function sets the values of the internal structure fields.
 227:../../libDaisy//Drivers/CMSIS/DSP/Include/arm_math.h ****  * Refer to the function <code>arm_mat_init_f32()</code>, <code>arm_mat_init_q31()</code>
 228:../../libDaisy//Drivers/CMSIS/DSP/Include/arm_math.h ****  * and <code>arm_mat_init_q15()</code> for floating-point, Q31 and Q15 types,  respectively.
 229:../../libDaisy//Drivers/CMSIS/DSP/Include/arm_math.h ****  *
 230:../../libDaisy//Drivers/CMSIS/DSP/Include/arm_math.h ****  * \par
 231:../../libDaisy//Drivers/CMSIS/DSP/Include/arm_math.h ****  * Use of the initialization function is optional. However, if initialization function is used
 232:../../libDaisy//Drivers/CMSIS/DSP/Include/arm_math.h ****  * then the instance structure cannot be placed into a const data section.
 233:../../libDaisy//Drivers/CMSIS/DSP/Include/arm_math.h ****  * To place the instance structure in a const data
 234:../../libDaisy//Drivers/CMSIS/DSP/Include/arm_math.h ****  * section, manually initialize the data structure.  For example:
 235:../../libDaisy//Drivers/CMSIS/DSP/Include/arm_math.h ****  * <pre>
 236:../../libDaisy//Drivers/CMSIS/DSP/Include/arm_math.h ****  * <code>arm_matrix_instance_f32 S = {nRows, nColumns, pData};</code>
 237:../../libDaisy//Drivers/CMSIS/DSP/Include/arm_math.h ****  * <code>arm_matrix_instance_q31 S = {nRows, nColumns, pData};</code>
 238:../../libDaisy//Drivers/CMSIS/DSP/Include/arm_math.h ****  * <code>arm_matrix_instance_q15 S = {nRows, nColumns, pData};</code>
 239:../../libDaisy//Drivers/CMSIS/DSP/Include/arm_math.h ****  * </pre>
 240:../../libDaisy//Drivers/CMSIS/DSP/Include/arm_math.h ****  * where <code>nRows</code> specifies the number of rows, <code>nColumns</code>
 241:../../libDaisy//Drivers/CMSIS/DSP/Include/arm_math.h ****  * specifies the number of columns, and <code>pData</code> points to the
 242:../../libDaisy//Drivers/CMSIS/DSP/Include/arm_math.h ****  * data array.
 243:../../libDaisy//Drivers/CMSIS/DSP/Include/arm_math.h ****  *
 244:../../libDaisy//Drivers/CMSIS/DSP/Include/arm_math.h ****  * \par Size Checking
 245:../../libDaisy//Drivers/CMSIS/DSP/Include/arm_math.h ****  * By default all of the matrix functions perform size checking on the input and
 246:../../libDaisy//Drivers/CMSIS/DSP/Include/arm_math.h ****  * output matrices.  For example, the matrix addition function verifies that the
 247:../../libDaisy//Drivers/CMSIS/DSP/Include/arm_math.h ****  * two input matrices and the output matrix all have the same number of rows and
 248:../../libDaisy//Drivers/CMSIS/DSP/Include/arm_math.h ****  * columns.  If the size check fails the functions return:
ARM GAS  /var/folders/hl/qgbwny5j0fd895c2c41bk3tw0000gp/T//ccr6F3ig.s 			page 8


 249:../../libDaisy//Drivers/CMSIS/DSP/Include/arm_math.h ****  * <pre>
 250:../../libDaisy//Drivers/CMSIS/DSP/Include/arm_math.h ****  *     ARM_MATH_SIZE_MISMATCH
 251:../../libDaisy//Drivers/CMSIS/DSP/Include/arm_math.h ****  * </pre>
 252:../../libDaisy//Drivers/CMSIS/DSP/Include/arm_math.h ****  * Otherwise the functions return
 253:../../libDaisy//Drivers/CMSIS/DSP/Include/arm_math.h ****  * <pre>
 254:../../libDaisy//Drivers/CMSIS/DSP/Include/arm_math.h ****  *     ARM_MATH_SUCCESS
 255:../../libDaisy//Drivers/CMSIS/DSP/Include/arm_math.h ****  * </pre>
 256:../../libDaisy//Drivers/CMSIS/DSP/Include/arm_math.h ****  * There is some overhead associated with this matrix size checking.
 257:../../libDaisy//Drivers/CMSIS/DSP/Include/arm_math.h ****  * The matrix size checking is enabled via the \#define
 258:../../libDaisy//Drivers/CMSIS/DSP/Include/arm_math.h ****  * <pre>
 259:../../libDaisy//Drivers/CMSIS/DSP/Include/arm_math.h ****  *     ARM_MATH_MATRIX_CHECK
 260:../../libDaisy//Drivers/CMSIS/DSP/Include/arm_math.h ****  * </pre>
 261:../../libDaisy//Drivers/CMSIS/DSP/Include/arm_math.h ****  * within the library project settings.  By default this macro is defined
 262:../../libDaisy//Drivers/CMSIS/DSP/Include/arm_math.h ****  * and size checking is enabled.  By changing the project settings and
 263:../../libDaisy//Drivers/CMSIS/DSP/Include/arm_math.h ****  * undefining this macro size checking is eliminated and the functions
 264:../../libDaisy//Drivers/CMSIS/DSP/Include/arm_math.h ****  * run a bit faster.  With size checking disabled the functions always
 265:../../libDaisy//Drivers/CMSIS/DSP/Include/arm_math.h ****  * return <code>ARM_MATH_SUCCESS</code>.
 266:../../libDaisy//Drivers/CMSIS/DSP/Include/arm_math.h ****  */
 267:../../libDaisy//Drivers/CMSIS/DSP/Include/arm_math.h **** 
 268:../../libDaisy//Drivers/CMSIS/DSP/Include/arm_math.h **** /**
 269:../../libDaisy//Drivers/CMSIS/DSP/Include/arm_math.h ****  * @defgroup groupTransforms Transform Functions
 270:../../libDaisy//Drivers/CMSIS/DSP/Include/arm_math.h ****  */
 271:../../libDaisy//Drivers/CMSIS/DSP/Include/arm_math.h **** 
 272:../../libDaisy//Drivers/CMSIS/DSP/Include/arm_math.h **** /**
 273:../../libDaisy//Drivers/CMSIS/DSP/Include/arm_math.h ****  * @defgroup groupController Controller Functions
 274:../../libDaisy//Drivers/CMSIS/DSP/Include/arm_math.h ****  */
 275:../../libDaisy//Drivers/CMSIS/DSP/Include/arm_math.h **** 
 276:../../libDaisy//Drivers/CMSIS/DSP/Include/arm_math.h **** /**
 277:../../libDaisy//Drivers/CMSIS/DSP/Include/arm_math.h ****  * @defgroup groupStats Statistics Functions
 278:../../libDaisy//Drivers/CMSIS/DSP/Include/arm_math.h ****  */
 279:../../libDaisy//Drivers/CMSIS/DSP/Include/arm_math.h **** /**
 280:../../libDaisy//Drivers/CMSIS/DSP/Include/arm_math.h ****  * @defgroup groupSupport Support Functions
 281:../../libDaisy//Drivers/CMSIS/DSP/Include/arm_math.h ****  */
 282:../../libDaisy//Drivers/CMSIS/DSP/Include/arm_math.h **** 
 283:../../libDaisy//Drivers/CMSIS/DSP/Include/arm_math.h **** /**
 284:../../libDaisy//Drivers/CMSIS/DSP/Include/arm_math.h ****  * @defgroup groupInterpolation Interpolation Functions
 285:../../libDaisy//Drivers/CMSIS/DSP/Include/arm_math.h ****  * These functions perform 1- and 2-dimensional interpolation of data.
 286:../../libDaisy//Drivers/CMSIS/DSP/Include/arm_math.h ****  * Linear interpolation is used for 1-dimensional data and
 287:../../libDaisy//Drivers/CMSIS/DSP/Include/arm_math.h ****  * bilinear interpolation is used for 2-dimensional data.
 288:../../libDaisy//Drivers/CMSIS/DSP/Include/arm_math.h ****  */
 289:../../libDaisy//Drivers/CMSIS/DSP/Include/arm_math.h **** 
 290:../../libDaisy//Drivers/CMSIS/DSP/Include/arm_math.h **** /**
 291:../../libDaisy//Drivers/CMSIS/DSP/Include/arm_math.h ****  * @defgroup groupExamples Examples
 292:../../libDaisy//Drivers/CMSIS/DSP/Include/arm_math.h ****  */
 293:../../libDaisy//Drivers/CMSIS/DSP/Include/arm_math.h **** #ifndef _ARM_MATH_H
 294:../../libDaisy//Drivers/CMSIS/DSP/Include/arm_math.h **** #define _ARM_MATH_H
 295:../../libDaisy//Drivers/CMSIS/DSP/Include/arm_math.h **** 
 296:../../libDaisy//Drivers/CMSIS/DSP/Include/arm_math.h **** /* ignore some GCC warnings */
 297:../../libDaisy//Drivers/CMSIS/DSP/Include/arm_math.h **** #if defined ( __GNUC__ )
 298:../../libDaisy//Drivers/CMSIS/DSP/Include/arm_math.h **** #pragma GCC diagnostic push
 299:../../libDaisy//Drivers/CMSIS/DSP/Include/arm_math.h **** #pragma GCC diagnostic ignored "-Wsign-conversion"
 300:../../libDaisy//Drivers/CMSIS/DSP/Include/arm_math.h **** #pragma GCC diagnostic ignored "-Wconversion"
 301:../../libDaisy//Drivers/CMSIS/DSP/Include/arm_math.h **** #pragma GCC diagnostic ignored "-Wunused-parameter"
 302:../../libDaisy//Drivers/CMSIS/DSP/Include/arm_math.h **** #endif
 303:../../libDaisy//Drivers/CMSIS/DSP/Include/arm_math.h **** 
 304:../../libDaisy//Drivers/CMSIS/DSP/Include/arm_math.h **** #define __CMSIS_GENERIC         /* disable NVIC and Systick functions */
 305:../../libDaisy//Drivers/CMSIS/DSP/Include/arm_math.h **** 
ARM GAS  /var/folders/hl/qgbwny5j0fd895c2c41bk3tw0000gp/T//ccr6F3ig.s 			page 9


 306:../../libDaisy//Drivers/CMSIS/DSP/Include/arm_math.h **** #if defined(ARM_MATH_CM7)
 307:../../libDaisy//Drivers/CMSIS/DSP/Include/arm_math.h ****   #include "core_cm7.h"
 308:../../libDaisy//Drivers/CMSIS/DSP/Include/arm_math.h ****   #define ARM_MATH_DSP
 309:../../libDaisy//Drivers/CMSIS/DSP/Include/arm_math.h **** #elif defined (ARM_MATH_CM4)
 310:../../libDaisy//Drivers/CMSIS/DSP/Include/arm_math.h ****   #include "core_cm4.h"
 311:../../libDaisy//Drivers/CMSIS/DSP/Include/arm_math.h ****   #define ARM_MATH_DSP
 312:../../libDaisy//Drivers/CMSIS/DSP/Include/arm_math.h **** #elif defined (ARM_MATH_CM3)
 313:../../libDaisy//Drivers/CMSIS/DSP/Include/arm_math.h ****   #include "core_cm3.h"
 314:../../libDaisy//Drivers/CMSIS/DSP/Include/arm_math.h **** #elif defined (ARM_MATH_CM0)
 315:../../libDaisy//Drivers/CMSIS/DSP/Include/arm_math.h ****   #include "core_cm0.h"
 316:../../libDaisy//Drivers/CMSIS/DSP/Include/arm_math.h ****   #define ARM_MATH_CM0_FAMILY
 317:../../libDaisy//Drivers/CMSIS/DSP/Include/arm_math.h **** #elif defined (ARM_MATH_CM0PLUS)
 318:../../libDaisy//Drivers/CMSIS/DSP/Include/arm_math.h ****   #include "core_cm0plus.h"
 319:../../libDaisy//Drivers/CMSIS/DSP/Include/arm_math.h ****   #define ARM_MATH_CM0_FAMILY
 320:../../libDaisy//Drivers/CMSIS/DSP/Include/arm_math.h **** #elif defined (ARM_MATH_ARMV8MBL)
 321:../../libDaisy//Drivers/CMSIS/DSP/Include/arm_math.h ****   #include "core_armv8mbl.h"
 322:../../libDaisy//Drivers/CMSIS/DSP/Include/arm_math.h ****   #define ARM_MATH_CM0_FAMILY
 323:../../libDaisy//Drivers/CMSIS/DSP/Include/arm_math.h **** #elif defined (ARM_MATH_ARMV8MML)
 324:../../libDaisy//Drivers/CMSIS/DSP/Include/arm_math.h ****   #include "core_armv8mml.h"
 325:../../libDaisy//Drivers/CMSIS/DSP/Include/arm_math.h ****   #if (defined (__DSP_PRESENT) && (__DSP_PRESENT == 1))
 326:../../libDaisy//Drivers/CMSIS/DSP/Include/arm_math.h ****     #define ARM_MATH_DSP
 327:../../libDaisy//Drivers/CMSIS/DSP/Include/arm_math.h ****   #endif
 328:../../libDaisy//Drivers/CMSIS/DSP/Include/arm_math.h **** #else
 329:../../libDaisy//Drivers/CMSIS/DSP/Include/arm_math.h ****   #error "Define according the used Cortex core ARM_MATH_CM7, ARM_MATH_CM4, ARM_MATH_CM3, ARM_MATH_
 330:../../libDaisy//Drivers/CMSIS/DSP/Include/arm_math.h **** #endif
 331:../../libDaisy//Drivers/CMSIS/DSP/Include/arm_math.h **** 
 332:../../libDaisy//Drivers/CMSIS/DSP/Include/arm_math.h **** #undef  __CMSIS_GENERIC         /* enable NVIC and Systick functions */
 333:../../libDaisy//Drivers/CMSIS/DSP/Include/arm_math.h **** #include "string.h"
 334:../../libDaisy//Drivers/CMSIS/DSP/Include/arm_math.h **** #include "math.h"
 335:../../libDaisy//Drivers/CMSIS/DSP/Include/arm_math.h **** #ifdef   __cplusplus
 336:../../libDaisy//Drivers/CMSIS/DSP/Include/arm_math.h **** extern "C"
 337:../../libDaisy//Drivers/CMSIS/DSP/Include/arm_math.h **** {
 338:../../libDaisy//Drivers/CMSIS/DSP/Include/arm_math.h **** #endif
 339:../../libDaisy//Drivers/CMSIS/DSP/Include/arm_math.h **** 
 340:../../libDaisy//Drivers/CMSIS/DSP/Include/arm_math.h **** 
 341:../../libDaisy//Drivers/CMSIS/DSP/Include/arm_math.h ****   /**
 342:../../libDaisy//Drivers/CMSIS/DSP/Include/arm_math.h ****    * @brief Macros required for reciprocal calculation in Normalized LMS
 343:../../libDaisy//Drivers/CMSIS/DSP/Include/arm_math.h ****    */
 344:../../libDaisy//Drivers/CMSIS/DSP/Include/arm_math.h **** 
 345:../../libDaisy//Drivers/CMSIS/DSP/Include/arm_math.h **** #define DELTA_Q31          (0x100)
 346:../../libDaisy//Drivers/CMSIS/DSP/Include/arm_math.h **** #define DELTA_Q15          0x5
 347:../../libDaisy//Drivers/CMSIS/DSP/Include/arm_math.h **** #define INDEX_MASK         0x0000003F
 348:../../libDaisy//Drivers/CMSIS/DSP/Include/arm_math.h **** #ifndef PI
 349:../../libDaisy//Drivers/CMSIS/DSP/Include/arm_math.h ****   #define PI               3.14159265358979f
 350:../../libDaisy//Drivers/CMSIS/DSP/Include/arm_math.h **** #endif
 351:../../libDaisy//Drivers/CMSIS/DSP/Include/arm_math.h **** 
 352:../../libDaisy//Drivers/CMSIS/DSP/Include/arm_math.h ****   /**
 353:../../libDaisy//Drivers/CMSIS/DSP/Include/arm_math.h ****    * @brief Macros required for SINE and COSINE Fast math approximations
 354:../../libDaisy//Drivers/CMSIS/DSP/Include/arm_math.h ****    */
 355:../../libDaisy//Drivers/CMSIS/DSP/Include/arm_math.h **** 
 356:../../libDaisy//Drivers/CMSIS/DSP/Include/arm_math.h **** #define FAST_MATH_TABLE_SIZE  512
 357:../../libDaisy//Drivers/CMSIS/DSP/Include/arm_math.h **** #define FAST_MATH_Q31_SHIFT   (32 - 10)
 358:../../libDaisy//Drivers/CMSIS/DSP/Include/arm_math.h **** #define FAST_MATH_Q15_SHIFT   (16 - 10)
 359:../../libDaisy//Drivers/CMSIS/DSP/Include/arm_math.h **** #define CONTROLLER_Q31_SHIFT  (32 - 9)
 360:../../libDaisy//Drivers/CMSIS/DSP/Include/arm_math.h **** #define TABLE_SPACING_Q31     0x400000
 361:../../libDaisy//Drivers/CMSIS/DSP/Include/arm_math.h **** #define TABLE_SPACING_Q15     0x80
 362:../../libDaisy//Drivers/CMSIS/DSP/Include/arm_math.h **** 
ARM GAS  /var/folders/hl/qgbwny5j0fd895c2c41bk3tw0000gp/T//ccr6F3ig.s 			page 10


 363:../../libDaisy//Drivers/CMSIS/DSP/Include/arm_math.h ****   /**
 364:../../libDaisy//Drivers/CMSIS/DSP/Include/arm_math.h ****    * @brief Macros required for SINE and COSINE Controller functions
 365:../../libDaisy//Drivers/CMSIS/DSP/Include/arm_math.h ****    */
 366:../../libDaisy//Drivers/CMSIS/DSP/Include/arm_math.h ****   /* 1.31(q31) Fixed value of 2/360 */
 367:../../libDaisy//Drivers/CMSIS/DSP/Include/arm_math.h ****   /* -1 to +1 is divided into 360 values so total spacing is (2/360) */
 368:../../libDaisy//Drivers/CMSIS/DSP/Include/arm_math.h **** #define INPUT_SPACING         0xB60B61
 369:../../libDaisy//Drivers/CMSIS/DSP/Include/arm_math.h **** 
 370:../../libDaisy//Drivers/CMSIS/DSP/Include/arm_math.h ****   /**
 371:../../libDaisy//Drivers/CMSIS/DSP/Include/arm_math.h ****    * @brief Macro for Unaligned Support
 372:../../libDaisy//Drivers/CMSIS/DSP/Include/arm_math.h ****    */
 373:../../libDaisy//Drivers/CMSIS/DSP/Include/arm_math.h **** #ifndef UNALIGNED_SUPPORT_DISABLE
 374:../../libDaisy//Drivers/CMSIS/DSP/Include/arm_math.h ****     #define ALIGN4
 375:../../libDaisy//Drivers/CMSIS/DSP/Include/arm_math.h **** #else
 376:../../libDaisy//Drivers/CMSIS/DSP/Include/arm_math.h ****   #if defined  (__GNUC__)
 377:../../libDaisy//Drivers/CMSIS/DSP/Include/arm_math.h ****     #define ALIGN4 __attribute__((aligned(4)))
 378:../../libDaisy//Drivers/CMSIS/DSP/Include/arm_math.h ****   #else
 379:../../libDaisy//Drivers/CMSIS/DSP/Include/arm_math.h ****     #define ALIGN4 __align(4)
 380:../../libDaisy//Drivers/CMSIS/DSP/Include/arm_math.h ****   #endif
 381:../../libDaisy//Drivers/CMSIS/DSP/Include/arm_math.h **** #endif   /* #ifndef UNALIGNED_SUPPORT_DISABLE */
 382:../../libDaisy//Drivers/CMSIS/DSP/Include/arm_math.h **** 
 383:../../libDaisy//Drivers/CMSIS/DSP/Include/arm_math.h ****   /**
 384:../../libDaisy//Drivers/CMSIS/DSP/Include/arm_math.h ****    * @brief Error status returned by some functions in the library.
 385:../../libDaisy//Drivers/CMSIS/DSP/Include/arm_math.h ****    */
 386:../../libDaisy//Drivers/CMSIS/DSP/Include/arm_math.h **** 
 387:../../libDaisy//Drivers/CMSIS/DSP/Include/arm_math.h ****   typedef enum
 388:../../libDaisy//Drivers/CMSIS/DSP/Include/arm_math.h ****   {
 389:../../libDaisy//Drivers/CMSIS/DSP/Include/arm_math.h ****     ARM_MATH_SUCCESS = 0,                /**< No error */
 390:../../libDaisy//Drivers/CMSIS/DSP/Include/arm_math.h ****     ARM_MATH_ARGUMENT_ERROR = -1,        /**< One or more arguments are incorrect */
 391:../../libDaisy//Drivers/CMSIS/DSP/Include/arm_math.h ****     ARM_MATH_LENGTH_ERROR = -2,          /**< Length of data buffer is incorrect */
 392:../../libDaisy//Drivers/CMSIS/DSP/Include/arm_math.h ****     ARM_MATH_SIZE_MISMATCH = -3,         /**< Size of matrices is not compatible with the operation
 393:../../libDaisy//Drivers/CMSIS/DSP/Include/arm_math.h ****     ARM_MATH_NANINF = -4,                /**< Not-a-number (NaN) or infinity is generated */
 394:../../libDaisy//Drivers/CMSIS/DSP/Include/arm_math.h ****     ARM_MATH_SINGULAR = -5,              /**< Generated by matrix inversion if the input matrix is 
 395:../../libDaisy//Drivers/CMSIS/DSP/Include/arm_math.h ****     ARM_MATH_TEST_FAILURE = -6           /**< Test Failed  */
 396:../../libDaisy//Drivers/CMSIS/DSP/Include/arm_math.h ****   } arm_status;
 397:../../libDaisy//Drivers/CMSIS/DSP/Include/arm_math.h **** 
 398:../../libDaisy//Drivers/CMSIS/DSP/Include/arm_math.h ****   /**
 399:../../libDaisy//Drivers/CMSIS/DSP/Include/arm_math.h ****    * @brief 8-bit fractional data type in 1.7 format.
 400:../../libDaisy//Drivers/CMSIS/DSP/Include/arm_math.h ****    */
 401:../../libDaisy//Drivers/CMSIS/DSP/Include/arm_math.h ****   typedef int8_t q7_t;
 402:../../libDaisy//Drivers/CMSIS/DSP/Include/arm_math.h **** 
 403:../../libDaisy//Drivers/CMSIS/DSP/Include/arm_math.h ****   /**
 404:../../libDaisy//Drivers/CMSIS/DSP/Include/arm_math.h ****    * @brief 16-bit fractional data type in 1.15 format.
 405:../../libDaisy//Drivers/CMSIS/DSP/Include/arm_math.h ****    */
 406:../../libDaisy//Drivers/CMSIS/DSP/Include/arm_math.h ****   typedef int16_t q15_t;
 407:../../libDaisy//Drivers/CMSIS/DSP/Include/arm_math.h **** 
 408:../../libDaisy//Drivers/CMSIS/DSP/Include/arm_math.h ****   /**
 409:../../libDaisy//Drivers/CMSIS/DSP/Include/arm_math.h ****    * @brief 32-bit fractional data type in 1.31 format.
 410:../../libDaisy//Drivers/CMSIS/DSP/Include/arm_math.h ****    */
 411:../../libDaisy//Drivers/CMSIS/DSP/Include/arm_math.h ****   typedef int32_t q31_t;
 412:../../libDaisy//Drivers/CMSIS/DSP/Include/arm_math.h **** 
 413:../../libDaisy//Drivers/CMSIS/DSP/Include/arm_math.h ****   /**
 414:../../libDaisy//Drivers/CMSIS/DSP/Include/arm_math.h ****    * @brief 64-bit fractional data type in 1.63 format.
 415:../../libDaisy//Drivers/CMSIS/DSP/Include/arm_math.h ****    */
 416:../../libDaisy//Drivers/CMSIS/DSP/Include/arm_math.h ****   typedef int64_t q63_t;
 417:../../libDaisy//Drivers/CMSIS/DSP/Include/arm_math.h **** 
 418:../../libDaisy//Drivers/CMSIS/DSP/Include/arm_math.h ****   /**
 419:../../libDaisy//Drivers/CMSIS/DSP/Include/arm_math.h ****    * @brief 32-bit floating-point type definition.
ARM GAS  /var/folders/hl/qgbwny5j0fd895c2c41bk3tw0000gp/T//ccr6F3ig.s 			page 11


 420:../../libDaisy//Drivers/CMSIS/DSP/Include/arm_math.h ****    */
 421:../../libDaisy//Drivers/CMSIS/DSP/Include/arm_math.h ****   typedef float float32_t;
 422:../../libDaisy//Drivers/CMSIS/DSP/Include/arm_math.h **** 
 423:../../libDaisy//Drivers/CMSIS/DSP/Include/arm_math.h ****   /**
 424:../../libDaisy//Drivers/CMSIS/DSP/Include/arm_math.h ****    * @brief 64-bit floating-point type definition.
 425:../../libDaisy//Drivers/CMSIS/DSP/Include/arm_math.h ****    */
 426:../../libDaisy//Drivers/CMSIS/DSP/Include/arm_math.h ****   typedef double float64_t;
 427:../../libDaisy//Drivers/CMSIS/DSP/Include/arm_math.h **** 
 428:../../libDaisy//Drivers/CMSIS/DSP/Include/arm_math.h ****   /**
 429:../../libDaisy//Drivers/CMSIS/DSP/Include/arm_math.h ****    * @brief definition to read/write two 16 bit values.
 430:../../libDaisy//Drivers/CMSIS/DSP/Include/arm_math.h ****    */
 431:../../libDaisy//Drivers/CMSIS/DSP/Include/arm_math.h **** #if   defined ( __CC_ARM )
 432:../../libDaisy//Drivers/CMSIS/DSP/Include/arm_math.h ****   #define __SIMD32_TYPE int32_t __packed
 433:../../libDaisy//Drivers/CMSIS/DSP/Include/arm_math.h ****   #define CMSIS_UNUSED __attribute__((unused))
 434:../../libDaisy//Drivers/CMSIS/DSP/Include/arm_math.h ****   #define CMSIS_INLINE __attribute__((always_inline))
 435:../../libDaisy//Drivers/CMSIS/DSP/Include/arm_math.h **** 
 436:../../libDaisy//Drivers/CMSIS/DSP/Include/arm_math.h **** #elif defined ( __ARMCC_VERSION ) && ( __ARMCC_VERSION >= 6010050 )
 437:../../libDaisy//Drivers/CMSIS/DSP/Include/arm_math.h ****   #define __SIMD32_TYPE int32_t
 438:../../libDaisy//Drivers/CMSIS/DSP/Include/arm_math.h ****   #define CMSIS_UNUSED __attribute__((unused))
 439:../../libDaisy//Drivers/CMSIS/DSP/Include/arm_math.h ****   #define CMSIS_INLINE __attribute__((always_inline))
 440:../../libDaisy//Drivers/CMSIS/DSP/Include/arm_math.h **** 
 441:../../libDaisy//Drivers/CMSIS/DSP/Include/arm_math.h **** #elif defined ( __GNUC__ )
 442:../../libDaisy//Drivers/CMSIS/DSP/Include/arm_math.h ****   #define __SIMD32_TYPE int32_t
 443:../../libDaisy//Drivers/CMSIS/DSP/Include/arm_math.h ****   #define CMSIS_UNUSED __attribute__((unused))
 444:../../libDaisy//Drivers/CMSIS/DSP/Include/arm_math.h ****   #define CMSIS_INLINE __attribute__((always_inline))
 445:../../libDaisy//Drivers/CMSIS/DSP/Include/arm_math.h **** 
 446:../../libDaisy//Drivers/CMSIS/DSP/Include/arm_math.h **** #elif defined ( __ICCARM__ )
 447:../../libDaisy//Drivers/CMSIS/DSP/Include/arm_math.h ****   #define __SIMD32_TYPE int32_t __packed
 448:../../libDaisy//Drivers/CMSIS/DSP/Include/arm_math.h ****   #define CMSIS_UNUSED
 449:../../libDaisy//Drivers/CMSIS/DSP/Include/arm_math.h ****   #define CMSIS_INLINE
 450:../../libDaisy//Drivers/CMSIS/DSP/Include/arm_math.h **** 
 451:../../libDaisy//Drivers/CMSIS/DSP/Include/arm_math.h **** #elif defined ( __TI_ARM__ )
 452:../../libDaisy//Drivers/CMSIS/DSP/Include/arm_math.h ****   #define __SIMD32_TYPE int32_t
 453:../../libDaisy//Drivers/CMSIS/DSP/Include/arm_math.h ****   #define CMSIS_UNUSED __attribute__((unused))
 454:../../libDaisy//Drivers/CMSIS/DSP/Include/arm_math.h ****   #define CMSIS_INLINE
 455:../../libDaisy//Drivers/CMSIS/DSP/Include/arm_math.h **** 
 456:../../libDaisy//Drivers/CMSIS/DSP/Include/arm_math.h **** #elif defined ( __CSMC__ )
 457:../../libDaisy//Drivers/CMSIS/DSP/Include/arm_math.h ****   #define __SIMD32_TYPE int32_t
 458:../../libDaisy//Drivers/CMSIS/DSP/Include/arm_math.h ****   #define CMSIS_UNUSED
 459:../../libDaisy//Drivers/CMSIS/DSP/Include/arm_math.h ****   #define CMSIS_INLINE
 460:../../libDaisy//Drivers/CMSIS/DSP/Include/arm_math.h **** 
 461:../../libDaisy//Drivers/CMSIS/DSP/Include/arm_math.h **** #elif defined ( __TASKING__ )
 462:../../libDaisy//Drivers/CMSIS/DSP/Include/arm_math.h ****   #define __SIMD32_TYPE __unaligned int32_t
 463:../../libDaisy//Drivers/CMSIS/DSP/Include/arm_math.h ****   #define CMSIS_UNUSED
 464:../../libDaisy//Drivers/CMSIS/DSP/Include/arm_math.h ****   #define CMSIS_INLINE
 465:../../libDaisy//Drivers/CMSIS/DSP/Include/arm_math.h **** 
 466:../../libDaisy//Drivers/CMSIS/DSP/Include/arm_math.h **** #else
 467:../../libDaisy//Drivers/CMSIS/DSP/Include/arm_math.h ****   #error Unknown compiler
 468:../../libDaisy//Drivers/CMSIS/DSP/Include/arm_math.h **** #endif
 469:../../libDaisy//Drivers/CMSIS/DSP/Include/arm_math.h **** 
 470:../../libDaisy//Drivers/CMSIS/DSP/Include/arm_math.h **** #define __SIMD32(addr)        (*(__SIMD32_TYPE **) & (addr))
 471:../../libDaisy//Drivers/CMSIS/DSP/Include/arm_math.h **** #define __SIMD32_CONST(addr)  ((__SIMD32_TYPE *)(addr))
 472:../../libDaisy//Drivers/CMSIS/DSP/Include/arm_math.h **** #define _SIMD32_OFFSET(addr)  (*(__SIMD32_TYPE *)  (addr))
 473:../../libDaisy//Drivers/CMSIS/DSP/Include/arm_math.h **** #define __SIMD64(addr)        (*(int64_t **) & (addr))
 474:../../libDaisy//Drivers/CMSIS/DSP/Include/arm_math.h **** 
 475:../../libDaisy//Drivers/CMSIS/DSP/Include/arm_math.h **** /* #if defined (ARM_MATH_CM3) || defined (ARM_MATH_CM0_FAMILY) */
 476:../../libDaisy//Drivers/CMSIS/DSP/Include/arm_math.h **** #if !defined (ARM_MATH_DSP)
ARM GAS  /var/folders/hl/qgbwny5j0fd895c2c41bk3tw0000gp/T//ccr6F3ig.s 			page 12


 477:../../libDaisy//Drivers/CMSIS/DSP/Include/arm_math.h ****   /**
 478:../../libDaisy//Drivers/CMSIS/DSP/Include/arm_math.h ****    * @brief definition to pack two 16 bit values.
 479:../../libDaisy//Drivers/CMSIS/DSP/Include/arm_math.h ****    */
 480:../../libDaisy//Drivers/CMSIS/DSP/Include/arm_math.h **** #define __PKHBT(ARG1, ARG2, ARG3) ( (((int32_t)(ARG1) <<    0) & (int32_t)0x0000FFFF) | \
 481:../../libDaisy//Drivers/CMSIS/DSP/Include/arm_math.h ****                                     (((int32_t)(ARG2) << ARG3) & (int32_t)0xFFFF0000)  )
 482:../../libDaisy//Drivers/CMSIS/DSP/Include/arm_math.h **** #define __PKHTB(ARG1, ARG2, ARG3) ( (((int32_t)(ARG1) <<    0) & (int32_t)0xFFFF0000) | \
 483:../../libDaisy//Drivers/CMSIS/DSP/Include/arm_math.h ****                                     (((int32_t)(ARG2) >> ARG3) & (int32_t)0x0000FFFF)  )
 484:../../libDaisy//Drivers/CMSIS/DSP/Include/arm_math.h **** 
 485:../../libDaisy//Drivers/CMSIS/DSP/Include/arm_math.h **** /* #endif // defined (ARM_MATH_CM3) || defined (ARM_MATH_CM0_FAMILY) */
 486:../../libDaisy//Drivers/CMSIS/DSP/Include/arm_math.h **** #endif /* !defined (ARM_MATH_DSP) */
 487:../../libDaisy//Drivers/CMSIS/DSP/Include/arm_math.h **** 
 488:../../libDaisy//Drivers/CMSIS/DSP/Include/arm_math.h ****    /**
 489:../../libDaisy//Drivers/CMSIS/DSP/Include/arm_math.h ****    * @brief definition to pack four 8 bit values.
 490:../../libDaisy//Drivers/CMSIS/DSP/Include/arm_math.h ****    */
 491:../../libDaisy//Drivers/CMSIS/DSP/Include/arm_math.h **** #ifndef ARM_MATH_BIG_ENDIAN
 492:../../libDaisy//Drivers/CMSIS/DSP/Include/arm_math.h **** 
 493:../../libDaisy//Drivers/CMSIS/DSP/Include/arm_math.h **** #define __PACKq7(v0,v1,v2,v3) ( (((int32_t)(v0) <<  0) & (int32_t)0x000000FF) | \
 494:../../libDaisy//Drivers/CMSIS/DSP/Include/arm_math.h ****                                 (((int32_t)(v1) <<  8) & (int32_t)0x0000FF00) | \
 495:../../libDaisy//Drivers/CMSIS/DSP/Include/arm_math.h ****                                 (((int32_t)(v2) << 16) & (int32_t)0x00FF0000) | \
 496:../../libDaisy//Drivers/CMSIS/DSP/Include/arm_math.h ****                                 (((int32_t)(v3) << 24) & (int32_t)0xFF000000)  )
 497:../../libDaisy//Drivers/CMSIS/DSP/Include/arm_math.h **** #else
 498:../../libDaisy//Drivers/CMSIS/DSP/Include/arm_math.h **** 
 499:../../libDaisy//Drivers/CMSIS/DSP/Include/arm_math.h **** #define __PACKq7(v0,v1,v2,v3) ( (((int32_t)(v3) <<  0) & (int32_t)0x000000FF) | \
 500:../../libDaisy//Drivers/CMSIS/DSP/Include/arm_math.h ****                                 (((int32_t)(v2) <<  8) & (int32_t)0x0000FF00) | \
 501:../../libDaisy//Drivers/CMSIS/DSP/Include/arm_math.h ****                                 (((int32_t)(v1) << 16) & (int32_t)0x00FF0000) | \
 502:../../libDaisy//Drivers/CMSIS/DSP/Include/arm_math.h ****                                 (((int32_t)(v0) << 24) & (int32_t)0xFF000000)  )
 503:../../libDaisy//Drivers/CMSIS/DSP/Include/arm_math.h **** 
 504:../../libDaisy//Drivers/CMSIS/DSP/Include/arm_math.h **** #endif
 505:../../libDaisy//Drivers/CMSIS/DSP/Include/arm_math.h **** 
 506:../../libDaisy//Drivers/CMSIS/DSP/Include/arm_math.h **** 
 507:../../libDaisy//Drivers/CMSIS/DSP/Include/arm_math.h ****   /**
 508:../../libDaisy//Drivers/CMSIS/DSP/Include/arm_math.h ****    * @brief Clips Q63 to Q31 values.
 509:../../libDaisy//Drivers/CMSIS/DSP/Include/arm_math.h ****    */
 510:../../libDaisy//Drivers/CMSIS/DSP/Include/arm_math.h ****   CMSIS_INLINE __STATIC_INLINE q31_t clip_q63_to_q31(
 511:../../libDaisy//Drivers/CMSIS/DSP/Include/arm_math.h ****   q63_t x)
 512:../../libDaisy//Drivers/CMSIS/DSP/Include/arm_math.h ****   {
 513:../../libDaisy//Drivers/CMSIS/DSP/Include/arm_math.h ****     return ((q31_t) (x >> 32) != ((q31_t) x >> 31)) ?
 514:../../libDaisy//Drivers/CMSIS/DSP/Include/arm_math.h ****       ((0x7FFFFFFF ^ ((q31_t) (x >> 63)))) : (q31_t) x;
 515:../../libDaisy//Drivers/CMSIS/DSP/Include/arm_math.h ****   }
 516:../../libDaisy//Drivers/CMSIS/DSP/Include/arm_math.h **** 
 517:../../libDaisy//Drivers/CMSIS/DSP/Include/arm_math.h ****   /**
 518:../../libDaisy//Drivers/CMSIS/DSP/Include/arm_math.h ****    * @brief Clips Q63 to Q15 values.
 519:../../libDaisy//Drivers/CMSIS/DSP/Include/arm_math.h ****    */
 520:../../libDaisy//Drivers/CMSIS/DSP/Include/arm_math.h ****   CMSIS_INLINE __STATIC_INLINE q15_t clip_q63_to_q15(
 521:../../libDaisy//Drivers/CMSIS/DSP/Include/arm_math.h ****   q63_t x)
 522:../../libDaisy//Drivers/CMSIS/DSP/Include/arm_math.h ****   {
 523:../../libDaisy//Drivers/CMSIS/DSP/Include/arm_math.h ****     return ((q31_t) (x >> 32) != ((q31_t) x >> 31)) ?
 524:../../libDaisy//Drivers/CMSIS/DSP/Include/arm_math.h ****       ((0x7FFF ^ ((q15_t) (x >> 63)))) : (q15_t) (x >> 15);
 525:../../libDaisy//Drivers/CMSIS/DSP/Include/arm_math.h ****   }
 526:../../libDaisy//Drivers/CMSIS/DSP/Include/arm_math.h **** 
 527:../../libDaisy//Drivers/CMSIS/DSP/Include/arm_math.h ****   /**
 528:../../libDaisy//Drivers/CMSIS/DSP/Include/arm_math.h ****    * @brief Clips Q31 to Q7 values.
 529:../../libDaisy//Drivers/CMSIS/DSP/Include/arm_math.h ****    */
 530:../../libDaisy//Drivers/CMSIS/DSP/Include/arm_math.h ****   CMSIS_INLINE __STATIC_INLINE q7_t clip_q31_to_q7(
 531:../../libDaisy//Drivers/CMSIS/DSP/Include/arm_math.h ****   q31_t x)
 532:../../libDaisy//Drivers/CMSIS/DSP/Include/arm_math.h ****   {
 533:../../libDaisy//Drivers/CMSIS/DSP/Include/arm_math.h ****     return ((q31_t) (x >> 24) != ((q31_t) x >> 23)) ?
ARM GAS  /var/folders/hl/qgbwny5j0fd895c2c41bk3tw0000gp/T//ccr6F3ig.s 			page 13


 534:../../libDaisy//Drivers/CMSIS/DSP/Include/arm_math.h ****       ((0x7F ^ ((q7_t) (x >> 31)))) : (q7_t) x;
 535:../../libDaisy//Drivers/CMSIS/DSP/Include/arm_math.h ****   }
 536:../../libDaisy//Drivers/CMSIS/DSP/Include/arm_math.h **** 
 537:../../libDaisy//Drivers/CMSIS/DSP/Include/arm_math.h ****   /**
 538:../../libDaisy//Drivers/CMSIS/DSP/Include/arm_math.h ****    * @brief Clips Q31 to Q15 values.
 539:../../libDaisy//Drivers/CMSIS/DSP/Include/arm_math.h ****    */
 540:../../libDaisy//Drivers/CMSIS/DSP/Include/arm_math.h ****   CMSIS_INLINE __STATIC_INLINE q15_t clip_q31_to_q15(
 541:../../libDaisy//Drivers/CMSIS/DSP/Include/arm_math.h ****   q31_t x)
 542:../../libDaisy//Drivers/CMSIS/DSP/Include/arm_math.h ****   {
 543:../../libDaisy//Drivers/CMSIS/DSP/Include/arm_math.h ****     return ((q31_t) (x >> 16) != ((q31_t) x >> 15)) ?
 544:../../libDaisy//Drivers/CMSIS/DSP/Include/arm_math.h ****       ((0x7FFF ^ ((q15_t) (x >> 31)))) : (q15_t) x;
 545:../../libDaisy//Drivers/CMSIS/DSP/Include/arm_math.h ****   }
 546:../../libDaisy//Drivers/CMSIS/DSP/Include/arm_math.h **** 
 547:../../libDaisy//Drivers/CMSIS/DSP/Include/arm_math.h ****   /**
 548:../../libDaisy//Drivers/CMSIS/DSP/Include/arm_math.h ****    * @brief Multiplies 32 X 64 and returns 32 bit result in 2.30 format.
 549:../../libDaisy//Drivers/CMSIS/DSP/Include/arm_math.h ****    */
 550:../../libDaisy//Drivers/CMSIS/DSP/Include/arm_math.h **** 
 551:../../libDaisy//Drivers/CMSIS/DSP/Include/arm_math.h ****   CMSIS_INLINE __STATIC_INLINE q63_t mult32x64(
 552:../../libDaisy//Drivers/CMSIS/DSP/Include/arm_math.h ****   q63_t x,
 553:../../libDaisy//Drivers/CMSIS/DSP/Include/arm_math.h ****   q31_t y)
 554:../../libDaisy//Drivers/CMSIS/DSP/Include/arm_math.h ****   {
 555:../../libDaisy//Drivers/CMSIS/DSP/Include/arm_math.h ****     return ((((q63_t) (x & 0x00000000FFFFFFFF) * y) >> 32) +
 556:../../libDaisy//Drivers/CMSIS/DSP/Include/arm_math.h ****             (((q63_t) (x >> 32) * y)));
 557:../../libDaisy//Drivers/CMSIS/DSP/Include/arm_math.h ****   }
 558:../../libDaisy//Drivers/CMSIS/DSP/Include/arm_math.h **** 
 559:../../libDaisy//Drivers/CMSIS/DSP/Include/arm_math.h **** /*
 560:../../libDaisy//Drivers/CMSIS/DSP/Include/arm_math.h ****   #if defined (ARM_MATH_CM0_FAMILY) && defined ( __CC_ARM   )
 561:../../libDaisy//Drivers/CMSIS/DSP/Include/arm_math.h ****   #define __CLZ __clz
 562:../../libDaisy//Drivers/CMSIS/DSP/Include/arm_math.h ****   #endif
 563:../../libDaisy//Drivers/CMSIS/DSP/Include/arm_math.h ****  */
 564:../../libDaisy//Drivers/CMSIS/DSP/Include/arm_math.h **** /* note: function can be removed when all toolchain support __CLZ for Cortex-M0 */
 565:../../libDaisy//Drivers/CMSIS/DSP/Include/arm_math.h **** #if defined (ARM_MATH_CM0_FAMILY) && ((defined (__ICCARM__))  )
 566:../../libDaisy//Drivers/CMSIS/DSP/Include/arm_math.h ****   CMSIS_INLINE __STATIC_INLINE uint32_t __CLZ(
 567:../../libDaisy//Drivers/CMSIS/DSP/Include/arm_math.h ****   q31_t data);
 568:../../libDaisy//Drivers/CMSIS/DSP/Include/arm_math.h **** 
 569:../../libDaisy//Drivers/CMSIS/DSP/Include/arm_math.h ****   CMSIS_INLINE __STATIC_INLINE uint32_t __CLZ(
 570:../../libDaisy//Drivers/CMSIS/DSP/Include/arm_math.h ****   q31_t data)
 571:../../libDaisy//Drivers/CMSIS/DSP/Include/arm_math.h ****   {
 572:../../libDaisy//Drivers/CMSIS/DSP/Include/arm_math.h ****     uint32_t count = 0;
 573:../../libDaisy//Drivers/CMSIS/DSP/Include/arm_math.h ****     uint32_t mask = 0x80000000;
 574:../../libDaisy//Drivers/CMSIS/DSP/Include/arm_math.h **** 
 575:../../libDaisy//Drivers/CMSIS/DSP/Include/arm_math.h ****     while ((data & mask) == 0)
 576:../../libDaisy//Drivers/CMSIS/DSP/Include/arm_math.h ****     {
 577:../../libDaisy//Drivers/CMSIS/DSP/Include/arm_math.h ****       count += 1u;
 578:../../libDaisy//Drivers/CMSIS/DSP/Include/arm_math.h ****       mask = mask >> 1u;
 579:../../libDaisy//Drivers/CMSIS/DSP/Include/arm_math.h ****     }
 580:../../libDaisy//Drivers/CMSIS/DSP/Include/arm_math.h **** 
 581:../../libDaisy//Drivers/CMSIS/DSP/Include/arm_math.h ****     return (count);
 582:../../libDaisy//Drivers/CMSIS/DSP/Include/arm_math.h ****   }
 583:../../libDaisy//Drivers/CMSIS/DSP/Include/arm_math.h **** #endif
 584:../../libDaisy//Drivers/CMSIS/DSP/Include/arm_math.h **** 
 585:../../libDaisy//Drivers/CMSIS/DSP/Include/arm_math.h ****   /**
 586:../../libDaisy//Drivers/CMSIS/DSP/Include/arm_math.h ****    * @brief Function to Calculates 1/in (reciprocal) value of Q31 Data type.
 587:../../libDaisy//Drivers/CMSIS/DSP/Include/arm_math.h ****    */
 588:../../libDaisy//Drivers/CMSIS/DSP/Include/arm_math.h **** 
 589:../../libDaisy//Drivers/CMSIS/DSP/Include/arm_math.h ****   CMSIS_INLINE __STATIC_INLINE uint32_t arm_recip_q31(
 590:../../libDaisy//Drivers/CMSIS/DSP/Include/arm_math.h ****   q31_t in,
ARM GAS  /var/folders/hl/qgbwny5j0fd895c2c41bk3tw0000gp/T//ccr6F3ig.s 			page 14


 591:../../libDaisy//Drivers/CMSIS/DSP/Include/arm_math.h ****   q31_t * dst,
 592:../../libDaisy//Drivers/CMSIS/DSP/Include/arm_math.h ****   q31_t * pRecipTable)
 593:../../libDaisy//Drivers/CMSIS/DSP/Include/arm_math.h ****   {
 594:../../libDaisy//Drivers/CMSIS/DSP/Include/arm_math.h ****     q31_t out;
 595:../../libDaisy//Drivers/CMSIS/DSP/Include/arm_math.h ****     uint32_t tempVal;
 596:../../libDaisy//Drivers/CMSIS/DSP/Include/arm_math.h ****     uint32_t index, i;
 597:../../libDaisy//Drivers/CMSIS/DSP/Include/arm_math.h ****     uint32_t signBits;
 598:../../libDaisy//Drivers/CMSIS/DSP/Include/arm_math.h **** 
 599:../../libDaisy//Drivers/CMSIS/DSP/Include/arm_math.h ****     if (in > 0)
 600:../../libDaisy//Drivers/CMSIS/DSP/Include/arm_math.h ****     {
 601:../../libDaisy//Drivers/CMSIS/DSP/Include/arm_math.h ****       signBits = ((uint32_t) (__CLZ( in) - 1));
 602:../../libDaisy//Drivers/CMSIS/DSP/Include/arm_math.h ****     }
 603:../../libDaisy//Drivers/CMSIS/DSP/Include/arm_math.h ****     else
 604:../../libDaisy//Drivers/CMSIS/DSP/Include/arm_math.h ****     {
 605:../../libDaisy//Drivers/CMSIS/DSP/Include/arm_math.h ****       signBits = ((uint32_t) (__CLZ(-in) - 1));
 606:../../libDaisy//Drivers/CMSIS/DSP/Include/arm_math.h ****     }
 607:../../libDaisy//Drivers/CMSIS/DSP/Include/arm_math.h **** 
 608:../../libDaisy//Drivers/CMSIS/DSP/Include/arm_math.h ****     /* Convert input sample to 1.31 format */
 609:../../libDaisy//Drivers/CMSIS/DSP/Include/arm_math.h ****     in = (in << signBits);
 610:../../libDaisy//Drivers/CMSIS/DSP/Include/arm_math.h **** 
 611:../../libDaisy//Drivers/CMSIS/DSP/Include/arm_math.h ****     /* calculation of index for initial approximated Val */
 612:../../libDaisy//Drivers/CMSIS/DSP/Include/arm_math.h ****     index = (uint32_t)(in >> 24);
 613:../../libDaisy//Drivers/CMSIS/DSP/Include/arm_math.h ****     index = (index & INDEX_MASK);
 614:../../libDaisy//Drivers/CMSIS/DSP/Include/arm_math.h **** 
 615:../../libDaisy//Drivers/CMSIS/DSP/Include/arm_math.h ****     /* 1.31 with exp 1 */
 616:../../libDaisy//Drivers/CMSIS/DSP/Include/arm_math.h ****     out = pRecipTable[index];
 617:../../libDaisy//Drivers/CMSIS/DSP/Include/arm_math.h **** 
 618:../../libDaisy//Drivers/CMSIS/DSP/Include/arm_math.h ****     /* calculation of reciprocal value */
 619:../../libDaisy//Drivers/CMSIS/DSP/Include/arm_math.h ****     /* running approximation for two iterations */
 620:../../libDaisy//Drivers/CMSIS/DSP/Include/arm_math.h ****     for (i = 0u; i < 2u; i++)
 621:../../libDaisy//Drivers/CMSIS/DSP/Include/arm_math.h ****     {
 622:../../libDaisy//Drivers/CMSIS/DSP/Include/arm_math.h ****       tempVal = (uint32_t) (((q63_t) in * out) >> 31);
 623:../../libDaisy//Drivers/CMSIS/DSP/Include/arm_math.h ****       tempVal = 0x7FFFFFFFu - tempVal;
 624:../../libDaisy//Drivers/CMSIS/DSP/Include/arm_math.h ****       /*      1.31 with exp 1 */
 625:../../libDaisy//Drivers/CMSIS/DSP/Include/arm_math.h ****       /* out = (q31_t) (((q63_t) out * tempVal) >> 30); */
 626:../../libDaisy//Drivers/CMSIS/DSP/Include/arm_math.h ****       out = clip_q63_to_q31(((q63_t) out * tempVal) >> 30);
 627:../../libDaisy//Drivers/CMSIS/DSP/Include/arm_math.h ****     }
 628:../../libDaisy//Drivers/CMSIS/DSP/Include/arm_math.h **** 
 629:../../libDaisy//Drivers/CMSIS/DSP/Include/arm_math.h ****     /* write output */
 630:../../libDaisy//Drivers/CMSIS/DSP/Include/arm_math.h ****     *dst = out;
 631:../../libDaisy//Drivers/CMSIS/DSP/Include/arm_math.h **** 
 632:../../libDaisy//Drivers/CMSIS/DSP/Include/arm_math.h ****     /* return num of signbits of out = 1/in value */
 633:../../libDaisy//Drivers/CMSIS/DSP/Include/arm_math.h ****     return (signBits + 1u);
 634:../../libDaisy//Drivers/CMSIS/DSP/Include/arm_math.h ****   }
 635:../../libDaisy//Drivers/CMSIS/DSP/Include/arm_math.h **** 
 636:../../libDaisy//Drivers/CMSIS/DSP/Include/arm_math.h **** 
 637:../../libDaisy//Drivers/CMSIS/DSP/Include/arm_math.h ****   /**
 638:../../libDaisy//Drivers/CMSIS/DSP/Include/arm_math.h ****    * @brief Function to Calculates 1/in (reciprocal) value of Q15 Data type.
 639:../../libDaisy//Drivers/CMSIS/DSP/Include/arm_math.h ****    */
 640:../../libDaisy//Drivers/CMSIS/DSP/Include/arm_math.h ****   CMSIS_INLINE __STATIC_INLINE uint32_t arm_recip_q15(
 641:../../libDaisy//Drivers/CMSIS/DSP/Include/arm_math.h ****   q15_t in,
 642:../../libDaisy//Drivers/CMSIS/DSP/Include/arm_math.h ****   q15_t * dst,
 643:../../libDaisy//Drivers/CMSIS/DSP/Include/arm_math.h ****   q15_t * pRecipTable)
 644:../../libDaisy//Drivers/CMSIS/DSP/Include/arm_math.h ****   {
 645:../../libDaisy//Drivers/CMSIS/DSP/Include/arm_math.h ****     q15_t out = 0;
 646:../../libDaisy//Drivers/CMSIS/DSP/Include/arm_math.h ****     uint32_t tempVal = 0;
 647:../../libDaisy//Drivers/CMSIS/DSP/Include/arm_math.h ****     uint32_t index = 0, i = 0;
ARM GAS  /var/folders/hl/qgbwny5j0fd895c2c41bk3tw0000gp/T//ccr6F3ig.s 			page 15


 648:../../libDaisy//Drivers/CMSIS/DSP/Include/arm_math.h ****     uint32_t signBits = 0;
 649:../../libDaisy//Drivers/CMSIS/DSP/Include/arm_math.h **** 
 650:../../libDaisy//Drivers/CMSIS/DSP/Include/arm_math.h ****     if (in > 0)
 651:../../libDaisy//Drivers/CMSIS/DSP/Include/arm_math.h ****     {
 652:../../libDaisy//Drivers/CMSIS/DSP/Include/arm_math.h ****       signBits = ((uint32_t)(__CLZ( in) - 17));
 653:../../libDaisy//Drivers/CMSIS/DSP/Include/arm_math.h ****     }
 654:../../libDaisy//Drivers/CMSIS/DSP/Include/arm_math.h ****     else
 655:../../libDaisy//Drivers/CMSIS/DSP/Include/arm_math.h ****     {
 656:../../libDaisy//Drivers/CMSIS/DSP/Include/arm_math.h ****       signBits = ((uint32_t)(__CLZ(-in) - 17));
 657:../../libDaisy//Drivers/CMSIS/DSP/Include/arm_math.h ****     }
 658:../../libDaisy//Drivers/CMSIS/DSP/Include/arm_math.h **** 
 659:../../libDaisy//Drivers/CMSIS/DSP/Include/arm_math.h ****     /* Convert input sample to 1.15 format */
 660:../../libDaisy//Drivers/CMSIS/DSP/Include/arm_math.h ****     in = (in << signBits);
 661:../../libDaisy//Drivers/CMSIS/DSP/Include/arm_math.h **** 
 662:../../libDaisy//Drivers/CMSIS/DSP/Include/arm_math.h ****     /* calculation of index for initial approximated Val */
 663:../../libDaisy//Drivers/CMSIS/DSP/Include/arm_math.h ****     index = (uint32_t)(in >>  8);
 664:../../libDaisy//Drivers/CMSIS/DSP/Include/arm_math.h ****     index = (index & INDEX_MASK);
 665:../../libDaisy//Drivers/CMSIS/DSP/Include/arm_math.h **** 
 666:../../libDaisy//Drivers/CMSIS/DSP/Include/arm_math.h ****     /*      1.15 with exp 1  */
 667:../../libDaisy//Drivers/CMSIS/DSP/Include/arm_math.h ****     out = pRecipTable[index];
 668:../../libDaisy//Drivers/CMSIS/DSP/Include/arm_math.h **** 
 669:../../libDaisy//Drivers/CMSIS/DSP/Include/arm_math.h ****     /* calculation of reciprocal value */
 670:../../libDaisy//Drivers/CMSIS/DSP/Include/arm_math.h ****     /* running approximation for two iterations */
 671:../../libDaisy//Drivers/CMSIS/DSP/Include/arm_math.h ****     for (i = 0u; i < 2u; i++)
 672:../../libDaisy//Drivers/CMSIS/DSP/Include/arm_math.h ****     {
 673:../../libDaisy//Drivers/CMSIS/DSP/Include/arm_math.h ****       tempVal = (uint32_t) (((q31_t) in * out) >> 15);
 674:../../libDaisy//Drivers/CMSIS/DSP/Include/arm_math.h ****       tempVal = 0x7FFFu - tempVal;
 675:../../libDaisy//Drivers/CMSIS/DSP/Include/arm_math.h ****       /*      1.15 with exp 1 */
 676:../../libDaisy//Drivers/CMSIS/DSP/Include/arm_math.h ****       out = (q15_t) (((q31_t) out * tempVal) >> 14);
 677:../../libDaisy//Drivers/CMSIS/DSP/Include/arm_math.h ****       /* out = clip_q31_to_q15(((q31_t) out * tempVal) >> 14); */
 678:../../libDaisy//Drivers/CMSIS/DSP/Include/arm_math.h ****     }
 679:../../libDaisy//Drivers/CMSIS/DSP/Include/arm_math.h **** 
 680:../../libDaisy//Drivers/CMSIS/DSP/Include/arm_math.h ****     /* write output */
 681:../../libDaisy//Drivers/CMSIS/DSP/Include/arm_math.h ****     *dst = out;
 682:../../libDaisy//Drivers/CMSIS/DSP/Include/arm_math.h **** 
 683:../../libDaisy//Drivers/CMSIS/DSP/Include/arm_math.h ****     /* return num of signbits of out = 1/in value */
 684:../../libDaisy//Drivers/CMSIS/DSP/Include/arm_math.h ****     return (signBits + 1);
 685:../../libDaisy//Drivers/CMSIS/DSP/Include/arm_math.h ****   }
 686:../../libDaisy//Drivers/CMSIS/DSP/Include/arm_math.h **** 
 687:../../libDaisy//Drivers/CMSIS/DSP/Include/arm_math.h **** 
 688:../../libDaisy//Drivers/CMSIS/DSP/Include/arm_math.h ****   /*
 689:../../libDaisy//Drivers/CMSIS/DSP/Include/arm_math.h ****    * @brief C custom defined intrinisic function for only M0 processors
 690:../../libDaisy//Drivers/CMSIS/DSP/Include/arm_math.h ****    */
 691:../../libDaisy//Drivers/CMSIS/DSP/Include/arm_math.h **** #if defined(ARM_MATH_CM0_FAMILY)
 692:../../libDaisy//Drivers/CMSIS/DSP/Include/arm_math.h ****   CMSIS_INLINE __STATIC_INLINE q31_t __SSAT(
 693:../../libDaisy//Drivers/CMSIS/DSP/Include/arm_math.h ****   q31_t x,
 694:../../libDaisy//Drivers/CMSIS/DSP/Include/arm_math.h ****   uint32_t y)
 695:../../libDaisy//Drivers/CMSIS/DSP/Include/arm_math.h ****   {
 696:../../libDaisy//Drivers/CMSIS/DSP/Include/arm_math.h ****     int32_t posMax, negMin;
 697:../../libDaisy//Drivers/CMSIS/DSP/Include/arm_math.h ****     uint32_t i;
 698:../../libDaisy//Drivers/CMSIS/DSP/Include/arm_math.h **** 
 699:../../libDaisy//Drivers/CMSIS/DSP/Include/arm_math.h ****     posMax = 1;
 700:../../libDaisy//Drivers/CMSIS/DSP/Include/arm_math.h ****     for (i = 0; i < (y - 1); i++)
 701:../../libDaisy//Drivers/CMSIS/DSP/Include/arm_math.h ****     {
 702:../../libDaisy//Drivers/CMSIS/DSP/Include/arm_math.h ****       posMax = posMax * 2;
 703:../../libDaisy//Drivers/CMSIS/DSP/Include/arm_math.h ****     }
 704:../../libDaisy//Drivers/CMSIS/DSP/Include/arm_math.h **** 
ARM GAS  /var/folders/hl/qgbwny5j0fd895c2c41bk3tw0000gp/T//ccr6F3ig.s 			page 16


 705:../../libDaisy//Drivers/CMSIS/DSP/Include/arm_math.h ****     if (x > 0)
 706:../../libDaisy//Drivers/CMSIS/DSP/Include/arm_math.h ****     {
 707:../../libDaisy//Drivers/CMSIS/DSP/Include/arm_math.h ****       posMax = (posMax - 1);
 708:../../libDaisy//Drivers/CMSIS/DSP/Include/arm_math.h **** 
 709:../../libDaisy//Drivers/CMSIS/DSP/Include/arm_math.h ****       if (x > posMax)
 710:../../libDaisy//Drivers/CMSIS/DSP/Include/arm_math.h ****       {
 711:../../libDaisy//Drivers/CMSIS/DSP/Include/arm_math.h ****         x = posMax;
 712:../../libDaisy//Drivers/CMSIS/DSP/Include/arm_math.h ****       }
 713:../../libDaisy//Drivers/CMSIS/DSP/Include/arm_math.h ****     }
 714:../../libDaisy//Drivers/CMSIS/DSP/Include/arm_math.h ****     else
 715:../../libDaisy//Drivers/CMSIS/DSP/Include/arm_math.h ****     {
 716:../../libDaisy//Drivers/CMSIS/DSP/Include/arm_math.h ****       negMin = -posMax;
 717:../../libDaisy//Drivers/CMSIS/DSP/Include/arm_math.h **** 
 718:../../libDaisy//Drivers/CMSIS/DSP/Include/arm_math.h ****       if (x < negMin)
 719:../../libDaisy//Drivers/CMSIS/DSP/Include/arm_math.h ****       {
 720:../../libDaisy//Drivers/CMSIS/DSP/Include/arm_math.h ****         x = negMin;
 721:../../libDaisy//Drivers/CMSIS/DSP/Include/arm_math.h ****       }
 722:../../libDaisy//Drivers/CMSIS/DSP/Include/arm_math.h ****     }
 723:../../libDaisy//Drivers/CMSIS/DSP/Include/arm_math.h ****     return (x);
 724:../../libDaisy//Drivers/CMSIS/DSP/Include/arm_math.h ****   }
 725:../../libDaisy//Drivers/CMSIS/DSP/Include/arm_math.h **** #endif /* end of ARM_MATH_CM0_FAMILY */
 726:../../libDaisy//Drivers/CMSIS/DSP/Include/arm_math.h **** 
 727:../../libDaisy//Drivers/CMSIS/DSP/Include/arm_math.h **** 
 728:../../libDaisy//Drivers/CMSIS/DSP/Include/arm_math.h ****   /*
 729:../../libDaisy//Drivers/CMSIS/DSP/Include/arm_math.h ****    * @brief C custom defined intrinsic function for M3 and M0 processors
 730:../../libDaisy//Drivers/CMSIS/DSP/Include/arm_math.h ****    */
 731:../../libDaisy//Drivers/CMSIS/DSP/Include/arm_math.h **** /* #if defined (ARM_MATH_CM3) || defined (ARM_MATH_CM0_FAMILY) */
 732:../../libDaisy//Drivers/CMSIS/DSP/Include/arm_math.h **** #if !defined (ARM_MATH_DSP)
 733:../../libDaisy//Drivers/CMSIS/DSP/Include/arm_math.h **** 
 734:../../libDaisy//Drivers/CMSIS/DSP/Include/arm_math.h ****   /*
 735:../../libDaisy//Drivers/CMSIS/DSP/Include/arm_math.h ****    * @brief C custom defined QADD8 for M3 and M0 processors
 736:../../libDaisy//Drivers/CMSIS/DSP/Include/arm_math.h ****    */
 737:../../libDaisy//Drivers/CMSIS/DSP/Include/arm_math.h ****   CMSIS_INLINE __STATIC_INLINE uint32_t __QADD8(
 738:../../libDaisy//Drivers/CMSIS/DSP/Include/arm_math.h ****   uint32_t x,
 739:../../libDaisy//Drivers/CMSIS/DSP/Include/arm_math.h ****   uint32_t y)
 740:../../libDaisy//Drivers/CMSIS/DSP/Include/arm_math.h ****   {
 741:../../libDaisy//Drivers/CMSIS/DSP/Include/arm_math.h ****     q31_t r, s, t, u;
 742:../../libDaisy//Drivers/CMSIS/DSP/Include/arm_math.h **** 
 743:../../libDaisy//Drivers/CMSIS/DSP/Include/arm_math.h ****     r = __SSAT(((((q31_t)x << 24) >> 24) + (((q31_t)y << 24) >> 24)), 8) & (int32_t)0x000000FF;
 744:../../libDaisy//Drivers/CMSIS/DSP/Include/arm_math.h ****     s = __SSAT(((((q31_t)x << 16) >> 24) + (((q31_t)y << 16) >> 24)), 8) & (int32_t)0x000000FF;
 745:../../libDaisy//Drivers/CMSIS/DSP/Include/arm_math.h ****     t = __SSAT(((((q31_t)x <<  8) >> 24) + (((q31_t)y <<  8) >> 24)), 8) & (int32_t)0x000000FF;
 746:../../libDaisy//Drivers/CMSIS/DSP/Include/arm_math.h ****     u = __SSAT(((((q31_t)x      ) >> 24) + (((q31_t)y      ) >> 24)), 8) & (int32_t)0x000000FF;
 747:../../libDaisy//Drivers/CMSIS/DSP/Include/arm_math.h **** 
 748:../../libDaisy//Drivers/CMSIS/DSP/Include/arm_math.h ****     return ((uint32_t)((u << 24) | (t << 16) | (s <<  8) | (r      )));
 749:../../libDaisy//Drivers/CMSIS/DSP/Include/arm_math.h ****   }
 750:../../libDaisy//Drivers/CMSIS/DSP/Include/arm_math.h **** 
 751:../../libDaisy//Drivers/CMSIS/DSP/Include/arm_math.h **** 
 752:../../libDaisy//Drivers/CMSIS/DSP/Include/arm_math.h ****   /*
 753:../../libDaisy//Drivers/CMSIS/DSP/Include/arm_math.h ****    * @brief C custom defined QSUB8 for M3 and M0 processors
 754:../../libDaisy//Drivers/CMSIS/DSP/Include/arm_math.h ****    */
 755:../../libDaisy//Drivers/CMSIS/DSP/Include/arm_math.h ****   CMSIS_INLINE __STATIC_INLINE uint32_t __QSUB8(
 756:../../libDaisy//Drivers/CMSIS/DSP/Include/arm_math.h ****   uint32_t x,
 757:../../libDaisy//Drivers/CMSIS/DSP/Include/arm_math.h ****   uint32_t y)
 758:../../libDaisy//Drivers/CMSIS/DSP/Include/arm_math.h ****   {
 759:../../libDaisy//Drivers/CMSIS/DSP/Include/arm_math.h ****     q31_t r, s, t, u;
 760:../../libDaisy//Drivers/CMSIS/DSP/Include/arm_math.h **** 
 761:../../libDaisy//Drivers/CMSIS/DSP/Include/arm_math.h ****     r = __SSAT(((((q31_t)x << 24) >> 24) - (((q31_t)y << 24) >> 24)), 8) & (int32_t)0x000000FF;
ARM GAS  /var/folders/hl/qgbwny5j0fd895c2c41bk3tw0000gp/T//ccr6F3ig.s 			page 17


 762:../../libDaisy//Drivers/CMSIS/DSP/Include/arm_math.h ****     s = __SSAT(((((q31_t)x << 16) >> 24) - (((q31_t)y << 16) >> 24)), 8) & (int32_t)0x000000FF;
 763:../../libDaisy//Drivers/CMSIS/DSP/Include/arm_math.h ****     t = __SSAT(((((q31_t)x <<  8) >> 24) - (((q31_t)y <<  8) >> 24)), 8) & (int32_t)0x000000FF;
 764:../../libDaisy//Drivers/CMSIS/DSP/Include/arm_math.h ****     u = __SSAT(((((q31_t)x      ) >> 24) - (((q31_t)y      ) >> 24)), 8) & (int32_t)0x000000FF;
 765:../../libDaisy//Drivers/CMSIS/DSP/Include/arm_math.h **** 
 766:../../libDaisy//Drivers/CMSIS/DSP/Include/arm_math.h ****     return ((uint32_t)((u << 24) | (t << 16) | (s <<  8) | (r      )));
 767:../../libDaisy//Drivers/CMSIS/DSP/Include/arm_math.h ****   }
 768:../../libDaisy//Drivers/CMSIS/DSP/Include/arm_math.h **** 
 769:../../libDaisy//Drivers/CMSIS/DSP/Include/arm_math.h **** 
 770:../../libDaisy//Drivers/CMSIS/DSP/Include/arm_math.h ****   /*
 771:../../libDaisy//Drivers/CMSIS/DSP/Include/arm_math.h ****    * @brief C custom defined QADD16 for M3 and M0 processors
 772:../../libDaisy//Drivers/CMSIS/DSP/Include/arm_math.h ****    */
 773:../../libDaisy//Drivers/CMSIS/DSP/Include/arm_math.h ****   CMSIS_INLINE __STATIC_INLINE uint32_t __QADD16(
 774:../../libDaisy//Drivers/CMSIS/DSP/Include/arm_math.h ****   uint32_t x,
 775:../../libDaisy//Drivers/CMSIS/DSP/Include/arm_math.h ****   uint32_t y)
 776:../../libDaisy//Drivers/CMSIS/DSP/Include/arm_math.h ****   {
 777:../../libDaisy//Drivers/CMSIS/DSP/Include/arm_math.h **** /*  q31_t r,     s;  without initialisation 'arm_offset_q15 test' fails  but 'intrinsic' tests pass
 778:../../libDaisy//Drivers/CMSIS/DSP/Include/arm_math.h ****     q31_t r = 0, s = 0;
 779:../../libDaisy//Drivers/CMSIS/DSP/Include/arm_math.h **** 
 780:../../libDaisy//Drivers/CMSIS/DSP/Include/arm_math.h ****     r = __SSAT(((((q31_t)x << 16) >> 16) + (((q31_t)y << 16) >> 16)), 16) & (int32_t)0x0000FFFF;
 781:../../libDaisy//Drivers/CMSIS/DSP/Include/arm_math.h ****     s = __SSAT(((((q31_t)x      ) >> 16) + (((q31_t)y      ) >> 16)), 16) & (int32_t)0x0000FFFF;
 782:../../libDaisy//Drivers/CMSIS/DSP/Include/arm_math.h **** 
 783:../../libDaisy//Drivers/CMSIS/DSP/Include/arm_math.h ****     return ((uint32_t)((s << 16) | (r      )));
 784:../../libDaisy//Drivers/CMSIS/DSP/Include/arm_math.h ****   }
 785:../../libDaisy//Drivers/CMSIS/DSP/Include/arm_math.h **** 
 786:../../libDaisy//Drivers/CMSIS/DSP/Include/arm_math.h **** 
 787:../../libDaisy//Drivers/CMSIS/DSP/Include/arm_math.h ****   /*
 788:../../libDaisy//Drivers/CMSIS/DSP/Include/arm_math.h ****    * @brief C custom defined SHADD16 for M3 and M0 processors
 789:../../libDaisy//Drivers/CMSIS/DSP/Include/arm_math.h ****    */
 790:../../libDaisy//Drivers/CMSIS/DSP/Include/arm_math.h ****   CMSIS_INLINE __STATIC_INLINE uint32_t __SHADD16(
 791:../../libDaisy//Drivers/CMSIS/DSP/Include/arm_math.h ****   uint32_t x,
 792:../../libDaisy//Drivers/CMSIS/DSP/Include/arm_math.h ****   uint32_t y)
 793:../../libDaisy//Drivers/CMSIS/DSP/Include/arm_math.h ****   {
 794:../../libDaisy//Drivers/CMSIS/DSP/Include/arm_math.h ****     q31_t r, s;
 795:../../libDaisy//Drivers/CMSIS/DSP/Include/arm_math.h **** 
 796:../../libDaisy//Drivers/CMSIS/DSP/Include/arm_math.h ****     r = (((((q31_t)x << 16) >> 16) + (((q31_t)y << 16) >> 16)) >> 1) & (int32_t)0x0000FFFF;
 797:../../libDaisy//Drivers/CMSIS/DSP/Include/arm_math.h ****     s = (((((q31_t)x      ) >> 16) + (((q31_t)y      ) >> 16)) >> 1) & (int32_t)0x0000FFFF;
 798:../../libDaisy//Drivers/CMSIS/DSP/Include/arm_math.h **** 
 799:../../libDaisy//Drivers/CMSIS/DSP/Include/arm_math.h ****     return ((uint32_t)((s << 16) | (r      )));
 800:../../libDaisy//Drivers/CMSIS/DSP/Include/arm_math.h ****   }
 801:../../libDaisy//Drivers/CMSIS/DSP/Include/arm_math.h **** 
 802:../../libDaisy//Drivers/CMSIS/DSP/Include/arm_math.h **** 
 803:../../libDaisy//Drivers/CMSIS/DSP/Include/arm_math.h ****   /*
 804:../../libDaisy//Drivers/CMSIS/DSP/Include/arm_math.h ****    * @brief C custom defined QSUB16 for M3 and M0 processors
 805:../../libDaisy//Drivers/CMSIS/DSP/Include/arm_math.h ****    */
 806:../../libDaisy//Drivers/CMSIS/DSP/Include/arm_math.h ****   CMSIS_INLINE __STATIC_INLINE uint32_t __QSUB16(
 807:../../libDaisy//Drivers/CMSIS/DSP/Include/arm_math.h ****   uint32_t x,
 808:../../libDaisy//Drivers/CMSIS/DSP/Include/arm_math.h ****   uint32_t y)
 809:../../libDaisy//Drivers/CMSIS/DSP/Include/arm_math.h ****   {
 810:../../libDaisy//Drivers/CMSIS/DSP/Include/arm_math.h ****     q31_t r, s;
 811:../../libDaisy//Drivers/CMSIS/DSP/Include/arm_math.h **** 
 812:../../libDaisy//Drivers/CMSIS/DSP/Include/arm_math.h ****     r = __SSAT(((((q31_t)x << 16) >> 16) - (((q31_t)y << 16) >> 16)), 16) & (int32_t)0x0000FFFF;
 813:../../libDaisy//Drivers/CMSIS/DSP/Include/arm_math.h ****     s = __SSAT(((((q31_t)x      ) >> 16) - (((q31_t)y      ) >> 16)), 16) & (int32_t)0x0000FFFF;
 814:../../libDaisy//Drivers/CMSIS/DSP/Include/arm_math.h **** 
 815:../../libDaisy//Drivers/CMSIS/DSP/Include/arm_math.h ****     return ((uint32_t)((s << 16) | (r      )));
 816:../../libDaisy//Drivers/CMSIS/DSP/Include/arm_math.h ****   }
 817:../../libDaisy//Drivers/CMSIS/DSP/Include/arm_math.h **** 
 818:../../libDaisy//Drivers/CMSIS/DSP/Include/arm_math.h **** 
ARM GAS  /var/folders/hl/qgbwny5j0fd895c2c41bk3tw0000gp/T//ccr6F3ig.s 			page 18


 819:../../libDaisy//Drivers/CMSIS/DSP/Include/arm_math.h ****   /*
 820:../../libDaisy//Drivers/CMSIS/DSP/Include/arm_math.h ****    * @brief C custom defined SHSUB16 for M3 and M0 processors
 821:../../libDaisy//Drivers/CMSIS/DSP/Include/arm_math.h ****    */
 822:../../libDaisy//Drivers/CMSIS/DSP/Include/arm_math.h ****   CMSIS_INLINE __STATIC_INLINE uint32_t __SHSUB16(
 823:../../libDaisy//Drivers/CMSIS/DSP/Include/arm_math.h ****   uint32_t x,
 824:../../libDaisy//Drivers/CMSIS/DSP/Include/arm_math.h ****   uint32_t y)
 825:../../libDaisy//Drivers/CMSIS/DSP/Include/arm_math.h ****   {
 826:../../libDaisy//Drivers/CMSIS/DSP/Include/arm_math.h ****     q31_t r, s;
 827:../../libDaisy//Drivers/CMSIS/DSP/Include/arm_math.h **** 
 828:../../libDaisy//Drivers/CMSIS/DSP/Include/arm_math.h ****     r = (((((q31_t)x << 16) >> 16) - (((q31_t)y << 16) >> 16)) >> 1) & (int32_t)0x0000FFFF;
 829:../../libDaisy//Drivers/CMSIS/DSP/Include/arm_math.h ****     s = (((((q31_t)x      ) >> 16) - (((q31_t)y      ) >> 16)) >> 1) & (int32_t)0x0000FFFF;
 830:../../libDaisy//Drivers/CMSIS/DSP/Include/arm_math.h **** 
 831:../../libDaisy//Drivers/CMSIS/DSP/Include/arm_math.h ****     return ((uint32_t)((s << 16) | (r      )));
 832:../../libDaisy//Drivers/CMSIS/DSP/Include/arm_math.h ****   }
 833:../../libDaisy//Drivers/CMSIS/DSP/Include/arm_math.h **** 
 834:../../libDaisy//Drivers/CMSIS/DSP/Include/arm_math.h **** 
 835:../../libDaisy//Drivers/CMSIS/DSP/Include/arm_math.h ****   /*
 836:../../libDaisy//Drivers/CMSIS/DSP/Include/arm_math.h ****    * @brief C custom defined QASX for M3 and M0 processors
 837:../../libDaisy//Drivers/CMSIS/DSP/Include/arm_math.h ****    */
 838:../../libDaisy//Drivers/CMSIS/DSP/Include/arm_math.h ****   CMSIS_INLINE __STATIC_INLINE uint32_t __QASX(
 839:../../libDaisy//Drivers/CMSIS/DSP/Include/arm_math.h ****   uint32_t x,
 840:../../libDaisy//Drivers/CMSIS/DSP/Include/arm_math.h ****   uint32_t y)
 841:../../libDaisy//Drivers/CMSIS/DSP/Include/arm_math.h ****   {
 842:../../libDaisy//Drivers/CMSIS/DSP/Include/arm_math.h ****     q31_t r, s;
 843:../../libDaisy//Drivers/CMSIS/DSP/Include/arm_math.h **** 
 844:../../libDaisy//Drivers/CMSIS/DSP/Include/arm_math.h ****     r = __SSAT(((((q31_t)x << 16) >> 16) - (((q31_t)y      ) >> 16)), 16) & (int32_t)0x0000FFFF;
 845:../../libDaisy//Drivers/CMSIS/DSP/Include/arm_math.h ****     s = __SSAT(((((q31_t)x      ) >> 16) + (((q31_t)y << 16) >> 16)), 16) & (int32_t)0x0000FFFF;
 846:../../libDaisy//Drivers/CMSIS/DSP/Include/arm_math.h **** 
 847:../../libDaisy//Drivers/CMSIS/DSP/Include/arm_math.h ****     return ((uint32_t)((s << 16) | (r      )));
 848:../../libDaisy//Drivers/CMSIS/DSP/Include/arm_math.h ****   }
 849:../../libDaisy//Drivers/CMSIS/DSP/Include/arm_math.h **** 
 850:../../libDaisy//Drivers/CMSIS/DSP/Include/arm_math.h **** 
 851:../../libDaisy//Drivers/CMSIS/DSP/Include/arm_math.h ****   /*
 852:../../libDaisy//Drivers/CMSIS/DSP/Include/arm_math.h ****    * @brief C custom defined SHASX for M3 and M0 processors
 853:../../libDaisy//Drivers/CMSIS/DSP/Include/arm_math.h ****    */
 854:../../libDaisy//Drivers/CMSIS/DSP/Include/arm_math.h ****   CMSIS_INLINE __STATIC_INLINE uint32_t __SHASX(
 855:../../libDaisy//Drivers/CMSIS/DSP/Include/arm_math.h ****   uint32_t x,
 856:../../libDaisy//Drivers/CMSIS/DSP/Include/arm_math.h ****   uint32_t y)
 857:../../libDaisy//Drivers/CMSIS/DSP/Include/arm_math.h ****   {
 858:../../libDaisy//Drivers/CMSIS/DSP/Include/arm_math.h ****     q31_t r, s;
 859:../../libDaisy//Drivers/CMSIS/DSP/Include/arm_math.h **** 
 860:../../libDaisy//Drivers/CMSIS/DSP/Include/arm_math.h ****     r = (((((q31_t)x << 16) >> 16) - (((q31_t)y      ) >> 16)) >> 1) & (int32_t)0x0000FFFF;
 861:../../libDaisy//Drivers/CMSIS/DSP/Include/arm_math.h ****     s = (((((q31_t)x      ) >> 16) + (((q31_t)y << 16) >> 16)) >> 1) & (int32_t)0x0000FFFF;
 862:../../libDaisy//Drivers/CMSIS/DSP/Include/arm_math.h **** 
 863:../../libDaisy//Drivers/CMSIS/DSP/Include/arm_math.h ****     return ((uint32_t)((s << 16) | (r      )));
 864:../../libDaisy//Drivers/CMSIS/DSP/Include/arm_math.h ****   }
 865:../../libDaisy//Drivers/CMSIS/DSP/Include/arm_math.h **** 
 866:../../libDaisy//Drivers/CMSIS/DSP/Include/arm_math.h **** 
 867:../../libDaisy//Drivers/CMSIS/DSP/Include/arm_math.h ****   /*
 868:../../libDaisy//Drivers/CMSIS/DSP/Include/arm_math.h ****    * @brief C custom defined QSAX for M3 and M0 processors
 869:../../libDaisy//Drivers/CMSIS/DSP/Include/arm_math.h ****    */
 870:../../libDaisy//Drivers/CMSIS/DSP/Include/arm_math.h ****   CMSIS_INLINE __STATIC_INLINE uint32_t __QSAX(
 871:../../libDaisy//Drivers/CMSIS/DSP/Include/arm_math.h ****   uint32_t x,
 872:../../libDaisy//Drivers/CMSIS/DSP/Include/arm_math.h ****   uint32_t y)
 873:../../libDaisy//Drivers/CMSIS/DSP/Include/arm_math.h ****   {
 874:../../libDaisy//Drivers/CMSIS/DSP/Include/arm_math.h ****     q31_t r, s;
 875:../../libDaisy//Drivers/CMSIS/DSP/Include/arm_math.h **** 
ARM GAS  /var/folders/hl/qgbwny5j0fd895c2c41bk3tw0000gp/T//ccr6F3ig.s 			page 19


 876:../../libDaisy//Drivers/CMSIS/DSP/Include/arm_math.h ****     r = __SSAT(((((q31_t)x << 16) >> 16) + (((q31_t)y      ) >> 16)), 16) & (int32_t)0x0000FFFF;
 877:../../libDaisy//Drivers/CMSIS/DSP/Include/arm_math.h ****     s = __SSAT(((((q31_t)x      ) >> 16) - (((q31_t)y << 16) >> 16)), 16) & (int32_t)0x0000FFFF;
 878:../../libDaisy//Drivers/CMSIS/DSP/Include/arm_math.h **** 
 879:../../libDaisy//Drivers/CMSIS/DSP/Include/arm_math.h ****     return ((uint32_t)((s << 16) | (r      )));
 880:../../libDaisy//Drivers/CMSIS/DSP/Include/arm_math.h ****   }
 881:../../libDaisy//Drivers/CMSIS/DSP/Include/arm_math.h **** 
 882:../../libDaisy//Drivers/CMSIS/DSP/Include/arm_math.h **** 
 883:../../libDaisy//Drivers/CMSIS/DSP/Include/arm_math.h ****   /*
 884:../../libDaisy//Drivers/CMSIS/DSP/Include/arm_math.h ****    * @brief C custom defined SHSAX for M3 and M0 processors
 885:../../libDaisy//Drivers/CMSIS/DSP/Include/arm_math.h ****    */
 886:../../libDaisy//Drivers/CMSIS/DSP/Include/arm_math.h ****   CMSIS_INLINE __STATIC_INLINE uint32_t __SHSAX(
 887:../../libDaisy//Drivers/CMSIS/DSP/Include/arm_math.h ****   uint32_t x,
 888:../../libDaisy//Drivers/CMSIS/DSP/Include/arm_math.h ****   uint32_t y)
 889:../../libDaisy//Drivers/CMSIS/DSP/Include/arm_math.h ****   {
 890:../../libDaisy//Drivers/CMSIS/DSP/Include/arm_math.h ****     q31_t r, s;
 891:../../libDaisy//Drivers/CMSIS/DSP/Include/arm_math.h **** 
 892:../../libDaisy//Drivers/CMSIS/DSP/Include/arm_math.h ****     r = (((((q31_t)x << 16) >> 16) + (((q31_t)y      ) >> 16)) >> 1) & (int32_t)0x0000FFFF;
 893:../../libDaisy//Drivers/CMSIS/DSP/Include/arm_math.h ****     s = (((((q31_t)x      ) >> 16) - (((q31_t)y << 16) >> 16)) >> 1) & (int32_t)0x0000FFFF;
 894:../../libDaisy//Drivers/CMSIS/DSP/Include/arm_math.h **** 
 895:../../libDaisy//Drivers/CMSIS/DSP/Include/arm_math.h ****     return ((uint32_t)((s << 16) | (r      )));
 896:../../libDaisy//Drivers/CMSIS/DSP/Include/arm_math.h ****   }
 897:../../libDaisy//Drivers/CMSIS/DSP/Include/arm_math.h **** 
 898:../../libDaisy//Drivers/CMSIS/DSP/Include/arm_math.h **** 
 899:../../libDaisy//Drivers/CMSIS/DSP/Include/arm_math.h ****   /*
 900:../../libDaisy//Drivers/CMSIS/DSP/Include/arm_math.h ****    * @brief C custom defined SMUSDX for M3 and M0 processors
 901:../../libDaisy//Drivers/CMSIS/DSP/Include/arm_math.h ****    */
 902:../../libDaisy//Drivers/CMSIS/DSP/Include/arm_math.h ****   CMSIS_INLINE __STATIC_INLINE uint32_t __SMUSDX(
 903:../../libDaisy//Drivers/CMSIS/DSP/Include/arm_math.h ****   uint32_t x,
 904:../../libDaisy//Drivers/CMSIS/DSP/Include/arm_math.h ****   uint32_t y)
 905:../../libDaisy//Drivers/CMSIS/DSP/Include/arm_math.h ****   {
 906:../../libDaisy//Drivers/CMSIS/DSP/Include/arm_math.h ****     return ((uint32_t)(((((q31_t)x << 16) >> 16) * (((q31_t)y      ) >> 16)) -
 907:../../libDaisy//Drivers/CMSIS/DSP/Include/arm_math.h ****                        ((((q31_t)x      ) >> 16) * (((q31_t)y << 16) >> 16))   ));
 908:../../libDaisy//Drivers/CMSIS/DSP/Include/arm_math.h ****   }
 909:../../libDaisy//Drivers/CMSIS/DSP/Include/arm_math.h **** 
 910:../../libDaisy//Drivers/CMSIS/DSP/Include/arm_math.h ****   /*
 911:../../libDaisy//Drivers/CMSIS/DSP/Include/arm_math.h ****    * @brief C custom defined SMUADX for M3 and M0 processors
 912:../../libDaisy//Drivers/CMSIS/DSP/Include/arm_math.h ****    */
 913:../../libDaisy//Drivers/CMSIS/DSP/Include/arm_math.h ****   CMSIS_INLINE __STATIC_INLINE uint32_t __SMUADX(
 914:../../libDaisy//Drivers/CMSIS/DSP/Include/arm_math.h ****   uint32_t x,
 915:../../libDaisy//Drivers/CMSIS/DSP/Include/arm_math.h ****   uint32_t y)
 916:../../libDaisy//Drivers/CMSIS/DSP/Include/arm_math.h ****   {
 917:../../libDaisy//Drivers/CMSIS/DSP/Include/arm_math.h ****     return ((uint32_t)(((((q31_t)x << 16) >> 16) * (((q31_t)y      ) >> 16)) +
 918:../../libDaisy//Drivers/CMSIS/DSP/Include/arm_math.h ****                        ((((q31_t)x      ) >> 16) * (((q31_t)y << 16) >> 16))   ));
 919:../../libDaisy//Drivers/CMSIS/DSP/Include/arm_math.h ****   }
 920:../../libDaisy//Drivers/CMSIS/DSP/Include/arm_math.h **** 
 921:../../libDaisy//Drivers/CMSIS/DSP/Include/arm_math.h **** 
 922:../../libDaisy//Drivers/CMSIS/DSP/Include/arm_math.h ****   /*
 923:../../libDaisy//Drivers/CMSIS/DSP/Include/arm_math.h ****    * @brief C custom defined QADD for M3 and M0 processors
 924:../../libDaisy//Drivers/CMSIS/DSP/Include/arm_math.h ****    */
 925:../../libDaisy//Drivers/CMSIS/DSP/Include/arm_math.h ****   CMSIS_INLINE __STATIC_INLINE int32_t __QADD(
 926:../../libDaisy//Drivers/CMSIS/DSP/Include/arm_math.h ****   int32_t x,
 927:../../libDaisy//Drivers/CMSIS/DSP/Include/arm_math.h ****   int32_t y)
 928:../../libDaisy//Drivers/CMSIS/DSP/Include/arm_math.h ****   {
 929:../../libDaisy//Drivers/CMSIS/DSP/Include/arm_math.h ****     return ((int32_t)(clip_q63_to_q31((q63_t)x + (q31_t)y)));
 930:../../libDaisy//Drivers/CMSIS/DSP/Include/arm_math.h ****   }
 931:../../libDaisy//Drivers/CMSIS/DSP/Include/arm_math.h **** 
 932:../../libDaisy//Drivers/CMSIS/DSP/Include/arm_math.h **** 
ARM GAS  /var/folders/hl/qgbwny5j0fd895c2c41bk3tw0000gp/T//ccr6F3ig.s 			page 20


 933:../../libDaisy//Drivers/CMSIS/DSP/Include/arm_math.h ****   /*
 934:../../libDaisy//Drivers/CMSIS/DSP/Include/arm_math.h ****    * @brief C custom defined QSUB for M3 and M0 processors
 935:../../libDaisy//Drivers/CMSIS/DSP/Include/arm_math.h ****    */
 936:../../libDaisy//Drivers/CMSIS/DSP/Include/arm_math.h ****   CMSIS_INLINE __STATIC_INLINE int32_t __QSUB(
 937:../../libDaisy//Drivers/CMSIS/DSP/Include/arm_math.h ****   int32_t x,
 938:../../libDaisy//Drivers/CMSIS/DSP/Include/arm_math.h ****   int32_t y)
 939:../../libDaisy//Drivers/CMSIS/DSP/Include/arm_math.h ****   {
 940:../../libDaisy//Drivers/CMSIS/DSP/Include/arm_math.h ****     return ((int32_t)(clip_q63_to_q31((q63_t)x - (q31_t)y)));
 941:../../libDaisy//Drivers/CMSIS/DSP/Include/arm_math.h ****   }
 942:../../libDaisy//Drivers/CMSIS/DSP/Include/arm_math.h **** 
 943:../../libDaisy//Drivers/CMSIS/DSP/Include/arm_math.h **** 
 944:../../libDaisy//Drivers/CMSIS/DSP/Include/arm_math.h ****   /*
 945:../../libDaisy//Drivers/CMSIS/DSP/Include/arm_math.h ****    * @brief C custom defined SMLAD for M3 and M0 processors
 946:../../libDaisy//Drivers/CMSIS/DSP/Include/arm_math.h ****    */
 947:../../libDaisy//Drivers/CMSIS/DSP/Include/arm_math.h ****   CMSIS_INLINE __STATIC_INLINE uint32_t __SMLAD(
 948:../../libDaisy//Drivers/CMSIS/DSP/Include/arm_math.h ****   uint32_t x,
 949:../../libDaisy//Drivers/CMSIS/DSP/Include/arm_math.h ****   uint32_t y,
 950:../../libDaisy//Drivers/CMSIS/DSP/Include/arm_math.h ****   uint32_t sum)
 951:../../libDaisy//Drivers/CMSIS/DSP/Include/arm_math.h ****   {
 952:../../libDaisy//Drivers/CMSIS/DSP/Include/arm_math.h ****     return ((uint32_t)(((((q31_t)x << 16) >> 16) * (((q31_t)y << 16) >> 16)) +
 953:../../libDaisy//Drivers/CMSIS/DSP/Include/arm_math.h ****                        ((((q31_t)x      ) >> 16) * (((q31_t)y      ) >> 16)) +
 954:../../libDaisy//Drivers/CMSIS/DSP/Include/arm_math.h ****                        ( ((q31_t)sum    )                                  )   ));
 955:../../libDaisy//Drivers/CMSIS/DSP/Include/arm_math.h ****   }
 956:../../libDaisy//Drivers/CMSIS/DSP/Include/arm_math.h **** 
 957:../../libDaisy//Drivers/CMSIS/DSP/Include/arm_math.h **** 
 958:../../libDaisy//Drivers/CMSIS/DSP/Include/arm_math.h ****   /*
 959:../../libDaisy//Drivers/CMSIS/DSP/Include/arm_math.h ****    * @brief C custom defined SMLADX for M3 and M0 processors
 960:../../libDaisy//Drivers/CMSIS/DSP/Include/arm_math.h ****    */
 961:../../libDaisy//Drivers/CMSIS/DSP/Include/arm_math.h ****   CMSIS_INLINE __STATIC_INLINE uint32_t __SMLADX(
 962:../../libDaisy//Drivers/CMSIS/DSP/Include/arm_math.h ****   uint32_t x,
 963:../../libDaisy//Drivers/CMSIS/DSP/Include/arm_math.h ****   uint32_t y,
 964:../../libDaisy//Drivers/CMSIS/DSP/Include/arm_math.h ****   uint32_t sum)
 965:../../libDaisy//Drivers/CMSIS/DSP/Include/arm_math.h ****   {
 966:../../libDaisy//Drivers/CMSIS/DSP/Include/arm_math.h ****     return ((uint32_t)(((((q31_t)x << 16) >> 16) * (((q31_t)y      ) >> 16)) +
 967:../../libDaisy//Drivers/CMSIS/DSP/Include/arm_math.h ****                        ((((q31_t)x      ) >> 16) * (((q31_t)y << 16) >> 16)) +
 968:../../libDaisy//Drivers/CMSIS/DSP/Include/arm_math.h ****                        ( ((q31_t)sum    )                                  )   ));
 969:../../libDaisy//Drivers/CMSIS/DSP/Include/arm_math.h ****   }
 970:../../libDaisy//Drivers/CMSIS/DSP/Include/arm_math.h **** 
 971:../../libDaisy//Drivers/CMSIS/DSP/Include/arm_math.h **** 
 972:../../libDaisy//Drivers/CMSIS/DSP/Include/arm_math.h ****   /*
 973:../../libDaisy//Drivers/CMSIS/DSP/Include/arm_math.h ****    * @brief C custom defined SMLSDX for M3 and M0 processors
 974:../../libDaisy//Drivers/CMSIS/DSP/Include/arm_math.h ****    */
 975:../../libDaisy//Drivers/CMSIS/DSP/Include/arm_math.h ****   CMSIS_INLINE __STATIC_INLINE uint32_t __SMLSDX(
 976:../../libDaisy//Drivers/CMSIS/DSP/Include/arm_math.h ****   uint32_t x,
 977:../../libDaisy//Drivers/CMSIS/DSP/Include/arm_math.h ****   uint32_t y,
 978:../../libDaisy//Drivers/CMSIS/DSP/Include/arm_math.h ****   uint32_t sum)
 979:../../libDaisy//Drivers/CMSIS/DSP/Include/arm_math.h ****   {
 980:../../libDaisy//Drivers/CMSIS/DSP/Include/arm_math.h ****     return ((uint32_t)(((((q31_t)x << 16) >> 16) * (((q31_t)y      ) >> 16)) -
 981:../../libDaisy//Drivers/CMSIS/DSP/Include/arm_math.h ****                        ((((q31_t)x      ) >> 16) * (((q31_t)y << 16) >> 16)) +
 982:../../libDaisy//Drivers/CMSIS/DSP/Include/arm_math.h ****                        ( ((q31_t)sum    )                                  )   ));
 983:../../libDaisy//Drivers/CMSIS/DSP/Include/arm_math.h ****   }
 984:../../libDaisy//Drivers/CMSIS/DSP/Include/arm_math.h **** 
 985:../../libDaisy//Drivers/CMSIS/DSP/Include/arm_math.h **** 
 986:../../libDaisy//Drivers/CMSIS/DSP/Include/arm_math.h ****   /*
 987:../../libDaisy//Drivers/CMSIS/DSP/Include/arm_math.h ****    * @brief C custom defined SMLALD for M3 and M0 processors
 988:../../libDaisy//Drivers/CMSIS/DSP/Include/arm_math.h ****    */
 989:../../libDaisy//Drivers/CMSIS/DSP/Include/arm_math.h ****   CMSIS_INLINE __STATIC_INLINE uint64_t __SMLALD(
ARM GAS  /var/folders/hl/qgbwny5j0fd895c2c41bk3tw0000gp/T//ccr6F3ig.s 			page 21


 990:../../libDaisy//Drivers/CMSIS/DSP/Include/arm_math.h ****   uint32_t x,
 991:../../libDaisy//Drivers/CMSIS/DSP/Include/arm_math.h ****   uint32_t y,
 992:../../libDaisy//Drivers/CMSIS/DSP/Include/arm_math.h ****   uint64_t sum)
 993:../../libDaisy//Drivers/CMSIS/DSP/Include/arm_math.h ****   {
 994:../../libDaisy//Drivers/CMSIS/DSP/Include/arm_math.h **** /*  return (sum + ((q15_t) (x >> 16) * (q15_t) (y >> 16)) + ((q15_t) x * (q15_t) y)); */
 995:../../libDaisy//Drivers/CMSIS/DSP/Include/arm_math.h ****     return ((uint64_t)(((((q31_t)x << 16) >> 16) * (((q31_t)y << 16) >> 16)) +
 996:../../libDaisy//Drivers/CMSIS/DSP/Include/arm_math.h ****                        ((((q31_t)x      ) >> 16) * (((q31_t)y      ) >> 16)) +
 997:../../libDaisy//Drivers/CMSIS/DSP/Include/arm_math.h ****                        ( ((q63_t)sum    )                                  )   ));
 998:../../libDaisy//Drivers/CMSIS/DSP/Include/arm_math.h ****   }
 999:../../libDaisy//Drivers/CMSIS/DSP/Include/arm_math.h **** 
1000:../../libDaisy//Drivers/CMSIS/DSP/Include/arm_math.h **** 
1001:../../libDaisy//Drivers/CMSIS/DSP/Include/arm_math.h ****   /*
1002:../../libDaisy//Drivers/CMSIS/DSP/Include/arm_math.h ****    * @brief C custom defined SMLALDX for M3 and M0 processors
1003:../../libDaisy//Drivers/CMSIS/DSP/Include/arm_math.h ****    */
1004:../../libDaisy//Drivers/CMSIS/DSP/Include/arm_math.h ****   CMSIS_INLINE __STATIC_INLINE uint64_t __SMLALDX(
1005:../../libDaisy//Drivers/CMSIS/DSP/Include/arm_math.h ****   uint32_t x,
1006:../../libDaisy//Drivers/CMSIS/DSP/Include/arm_math.h ****   uint32_t y,
1007:../../libDaisy//Drivers/CMSIS/DSP/Include/arm_math.h ****   uint64_t sum)
1008:../../libDaisy//Drivers/CMSIS/DSP/Include/arm_math.h ****   {
1009:../../libDaisy//Drivers/CMSIS/DSP/Include/arm_math.h **** /*  return (sum + ((q15_t) (x >> 16) * (q15_t) y)) + ((q15_t) x * (q15_t) (y >> 16)); */
1010:../../libDaisy//Drivers/CMSIS/DSP/Include/arm_math.h ****     return ((uint64_t)(((((q31_t)x << 16) >> 16) * (((q31_t)y      ) >> 16)) +
1011:../../libDaisy//Drivers/CMSIS/DSP/Include/arm_math.h ****                        ((((q31_t)x      ) >> 16) * (((q31_t)y << 16) >> 16)) +
1012:../../libDaisy//Drivers/CMSIS/DSP/Include/arm_math.h ****                        ( ((q63_t)sum    )                                  )   ));
1013:../../libDaisy//Drivers/CMSIS/DSP/Include/arm_math.h ****   }
1014:../../libDaisy//Drivers/CMSIS/DSP/Include/arm_math.h **** 
1015:../../libDaisy//Drivers/CMSIS/DSP/Include/arm_math.h **** 
1016:../../libDaisy//Drivers/CMSIS/DSP/Include/arm_math.h ****   /*
1017:../../libDaisy//Drivers/CMSIS/DSP/Include/arm_math.h ****    * @brief C custom defined SMUAD for M3 and M0 processors
1018:../../libDaisy//Drivers/CMSIS/DSP/Include/arm_math.h ****    */
1019:../../libDaisy//Drivers/CMSIS/DSP/Include/arm_math.h ****   CMSIS_INLINE __STATIC_INLINE uint32_t __SMUAD(
1020:../../libDaisy//Drivers/CMSIS/DSP/Include/arm_math.h ****   uint32_t x,
1021:../../libDaisy//Drivers/CMSIS/DSP/Include/arm_math.h ****   uint32_t y)
1022:../../libDaisy//Drivers/CMSIS/DSP/Include/arm_math.h ****   {
1023:../../libDaisy//Drivers/CMSIS/DSP/Include/arm_math.h ****     return ((uint32_t)(((((q31_t)x << 16) >> 16) * (((q31_t)y << 16) >> 16)) +
1024:../../libDaisy//Drivers/CMSIS/DSP/Include/arm_math.h ****                        ((((q31_t)x      ) >> 16) * (((q31_t)y      ) >> 16))   ));
1025:../../libDaisy//Drivers/CMSIS/DSP/Include/arm_math.h ****   }
1026:../../libDaisy//Drivers/CMSIS/DSP/Include/arm_math.h **** 
1027:../../libDaisy//Drivers/CMSIS/DSP/Include/arm_math.h **** 
1028:../../libDaisy//Drivers/CMSIS/DSP/Include/arm_math.h ****   /*
1029:../../libDaisy//Drivers/CMSIS/DSP/Include/arm_math.h ****    * @brief C custom defined SMUSD for M3 and M0 processors
1030:../../libDaisy//Drivers/CMSIS/DSP/Include/arm_math.h ****    */
1031:../../libDaisy//Drivers/CMSIS/DSP/Include/arm_math.h ****   CMSIS_INLINE __STATIC_INLINE uint32_t __SMUSD(
1032:../../libDaisy//Drivers/CMSIS/DSP/Include/arm_math.h ****   uint32_t x,
1033:../../libDaisy//Drivers/CMSIS/DSP/Include/arm_math.h ****   uint32_t y)
1034:../../libDaisy//Drivers/CMSIS/DSP/Include/arm_math.h ****   {
1035:../../libDaisy//Drivers/CMSIS/DSP/Include/arm_math.h ****     return ((uint32_t)(((((q31_t)x << 16) >> 16) * (((q31_t)y << 16) >> 16)) -
1036:../../libDaisy//Drivers/CMSIS/DSP/Include/arm_math.h ****                        ((((q31_t)x      ) >> 16) * (((q31_t)y      ) >> 16))   ));
1037:../../libDaisy//Drivers/CMSIS/DSP/Include/arm_math.h ****   }
1038:../../libDaisy//Drivers/CMSIS/DSP/Include/arm_math.h **** 
1039:../../libDaisy//Drivers/CMSIS/DSP/Include/arm_math.h **** 
1040:../../libDaisy//Drivers/CMSIS/DSP/Include/arm_math.h ****   /*
1041:../../libDaisy//Drivers/CMSIS/DSP/Include/arm_math.h ****    * @brief C custom defined SXTB16 for M3 and M0 processors
1042:../../libDaisy//Drivers/CMSIS/DSP/Include/arm_math.h ****    */
1043:../../libDaisy//Drivers/CMSIS/DSP/Include/arm_math.h ****   CMSIS_INLINE __STATIC_INLINE uint32_t __SXTB16(
1044:../../libDaisy//Drivers/CMSIS/DSP/Include/arm_math.h ****   uint32_t x)
1045:../../libDaisy//Drivers/CMSIS/DSP/Include/arm_math.h ****   {
1046:../../libDaisy//Drivers/CMSIS/DSP/Include/arm_math.h ****     return ((uint32_t)(((((q31_t)x << 24) >> 24) & (q31_t)0x0000FFFF) |
ARM GAS  /var/folders/hl/qgbwny5j0fd895c2c41bk3tw0000gp/T//ccr6F3ig.s 			page 22


1047:../../libDaisy//Drivers/CMSIS/DSP/Include/arm_math.h ****                        ((((q31_t)x <<  8) >>  8) & (q31_t)0xFFFF0000)  ));
1048:../../libDaisy//Drivers/CMSIS/DSP/Include/arm_math.h ****   }
1049:../../libDaisy//Drivers/CMSIS/DSP/Include/arm_math.h **** 
1050:../../libDaisy//Drivers/CMSIS/DSP/Include/arm_math.h ****   /*
1051:../../libDaisy//Drivers/CMSIS/DSP/Include/arm_math.h ****    * @brief C custom defined SMMLA for M3 and M0 processors
1052:../../libDaisy//Drivers/CMSIS/DSP/Include/arm_math.h ****    */
1053:../../libDaisy//Drivers/CMSIS/DSP/Include/arm_math.h ****   CMSIS_INLINE __STATIC_INLINE int32_t __SMMLA(
1054:../../libDaisy//Drivers/CMSIS/DSP/Include/arm_math.h ****   int32_t x,
1055:../../libDaisy//Drivers/CMSIS/DSP/Include/arm_math.h ****   int32_t y,
1056:../../libDaisy//Drivers/CMSIS/DSP/Include/arm_math.h ****   int32_t sum)
1057:../../libDaisy//Drivers/CMSIS/DSP/Include/arm_math.h ****   {
1058:../../libDaisy//Drivers/CMSIS/DSP/Include/arm_math.h ****     return (sum + (int32_t) (((int64_t) x * y) >> 32));
1059:../../libDaisy//Drivers/CMSIS/DSP/Include/arm_math.h ****   }
1060:../../libDaisy//Drivers/CMSIS/DSP/Include/arm_math.h **** 
1061:../../libDaisy//Drivers/CMSIS/DSP/Include/arm_math.h **** #if 0
1062:../../libDaisy//Drivers/CMSIS/DSP/Include/arm_math.h ****   /*
1063:../../libDaisy//Drivers/CMSIS/DSP/Include/arm_math.h ****    * @brief C custom defined PKHBT for unavailable DSP extension
1064:../../libDaisy//Drivers/CMSIS/DSP/Include/arm_math.h ****    */
1065:../../libDaisy//Drivers/CMSIS/DSP/Include/arm_math.h ****   CMSIS_INLINE __STATIC_INLINE uint32_t __PKHBT(
1066:../../libDaisy//Drivers/CMSIS/DSP/Include/arm_math.h ****   uint32_t x,
1067:../../libDaisy//Drivers/CMSIS/DSP/Include/arm_math.h ****   uint32_t y,
1068:../../libDaisy//Drivers/CMSIS/DSP/Include/arm_math.h ****   uint32_t leftshift)
1069:../../libDaisy//Drivers/CMSIS/DSP/Include/arm_math.h ****   {
1070:../../libDaisy//Drivers/CMSIS/DSP/Include/arm_math.h ****     return ( ((x             ) & 0x0000FFFFUL) |
1071:../../libDaisy//Drivers/CMSIS/DSP/Include/arm_math.h ****              ((y << leftshift) & 0xFFFF0000UL)  );
1072:../../libDaisy//Drivers/CMSIS/DSP/Include/arm_math.h ****   }
1073:../../libDaisy//Drivers/CMSIS/DSP/Include/arm_math.h **** 
1074:../../libDaisy//Drivers/CMSIS/DSP/Include/arm_math.h ****   /*
1075:../../libDaisy//Drivers/CMSIS/DSP/Include/arm_math.h ****    * @brief C custom defined PKHTB for unavailable DSP extension
1076:../../libDaisy//Drivers/CMSIS/DSP/Include/arm_math.h ****    */
1077:../../libDaisy//Drivers/CMSIS/DSP/Include/arm_math.h ****   CMSIS_INLINE __STATIC_INLINE uint32_t __PKHTB(
1078:../../libDaisy//Drivers/CMSIS/DSP/Include/arm_math.h ****   uint32_t x,
1079:../../libDaisy//Drivers/CMSIS/DSP/Include/arm_math.h ****   uint32_t y,
1080:../../libDaisy//Drivers/CMSIS/DSP/Include/arm_math.h ****   uint32_t rightshift)
1081:../../libDaisy//Drivers/CMSIS/DSP/Include/arm_math.h ****   {
1082:../../libDaisy//Drivers/CMSIS/DSP/Include/arm_math.h ****     return ( ((x              ) & 0xFFFF0000UL) |
1083:../../libDaisy//Drivers/CMSIS/DSP/Include/arm_math.h ****              ((y >> rightshift) & 0x0000FFFFUL)  );
1084:../../libDaisy//Drivers/CMSIS/DSP/Include/arm_math.h ****   }
1085:../../libDaisy//Drivers/CMSIS/DSP/Include/arm_math.h **** #endif
1086:../../libDaisy//Drivers/CMSIS/DSP/Include/arm_math.h **** 
1087:../../libDaisy//Drivers/CMSIS/DSP/Include/arm_math.h **** /* #endif // defined (ARM_MATH_CM3) || defined (ARM_MATH_CM0_FAMILY) */
1088:../../libDaisy//Drivers/CMSIS/DSP/Include/arm_math.h **** #endif /* !defined (ARM_MATH_DSP) */
1089:../../libDaisy//Drivers/CMSIS/DSP/Include/arm_math.h **** 
1090:../../libDaisy//Drivers/CMSIS/DSP/Include/arm_math.h **** 
1091:../../libDaisy//Drivers/CMSIS/DSP/Include/arm_math.h ****   /**
1092:../../libDaisy//Drivers/CMSIS/DSP/Include/arm_math.h ****    * @brief Instance structure for the Q7 FIR filter.
1093:../../libDaisy//Drivers/CMSIS/DSP/Include/arm_math.h ****    */
1094:../../libDaisy//Drivers/CMSIS/DSP/Include/arm_math.h ****   typedef struct
1095:../../libDaisy//Drivers/CMSIS/DSP/Include/arm_math.h ****   {
1096:../../libDaisy//Drivers/CMSIS/DSP/Include/arm_math.h ****     uint16_t numTaps;        /**< number of filter coefficients in the filter. */
1097:../../libDaisy//Drivers/CMSIS/DSP/Include/arm_math.h ****     q7_t *pState;            /**< points to the state variable array. The array is of length numTap
1098:../../libDaisy//Drivers/CMSIS/DSP/Include/arm_math.h ****     q7_t *pCoeffs;           /**< points to the coefficient array. The array is of length numTaps.*
1099:../../libDaisy//Drivers/CMSIS/DSP/Include/arm_math.h ****   } arm_fir_instance_q7;
1100:../../libDaisy//Drivers/CMSIS/DSP/Include/arm_math.h **** 
1101:../../libDaisy//Drivers/CMSIS/DSP/Include/arm_math.h ****   /**
1102:../../libDaisy//Drivers/CMSIS/DSP/Include/arm_math.h ****    * @brief Instance structure for the Q15 FIR filter.
1103:../../libDaisy//Drivers/CMSIS/DSP/Include/arm_math.h ****    */
ARM GAS  /var/folders/hl/qgbwny5j0fd895c2c41bk3tw0000gp/T//ccr6F3ig.s 			page 23


1104:../../libDaisy//Drivers/CMSIS/DSP/Include/arm_math.h ****   typedef struct
1105:../../libDaisy//Drivers/CMSIS/DSP/Include/arm_math.h ****   {
1106:../../libDaisy//Drivers/CMSIS/DSP/Include/arm_math.h ****     uint16_t numTaps;         /**< number of filter coefficients in the filter. */
1107:../../libDaisy//Drivers/CMSIS/DSP/Include/arm_math.h ****     q15_t *pState;            /**< points to the state variable array. The array is of length numTa
1108:../../libDaisy//Drivers/CMSIS/DSP/Include/arm_math.h ****     q15_t *pCoeffs;           /**< points to the coefficient array. The array is of length numTaps.
1109:../../libDaisy//Drivers/CMSIS/DSP/Include/arm_math.h ****   } arm_fir_instance_q15;
1110:../../libDaisy//Drivers/CMSIS/DSP/Include/arm_math.h **** 
1111:../../libDaisy//Drivers/CMSIS/DSP/Include/arm_math.h ****   /**
1112:../../libDaisy//Drivers/CMSIS/DSP/Include/arm_math.h ****    * @brief Instance structure for the Q31 FIR filter.
1113:../../libDaisy//Drivers/CMSIS/DSP/Include/arm_math.h ****    */
1114:../../libDaisy//Drivers/CMSIS/DSP/Include/arm_math.h ****   typedef struct
1115:../../libDaisy//Drivers/CMSIS/DSP/Include/arm_math.h ****   {
1116:../../libDaisy//Drivers/CMSIS/DSP/Include/arm_math.h ****     uint16_t numTaps;         /**< number of filter coefficients in the filter. */
1117:../../libDaisy//Drivers/CMSIS/DSP/Include/arm_math.h ****     q31_t *pState;            /**< points to the state variable array. The array is of length numTa
1118:../../libDaisy//Drivers/CMSIS/DSP/Include/arm_math.h ****     q31_t *pCoeffs;           /**< points to the coefficient array. The array is of length numTaps.
1119:../../libDaisy//Drivers/CMSIS/DSP/Include/arm_math.h ****   } arm_fir_instance_q31;
1120:../../libDaisy//Drivers/CMSIS/DSP/Include/arm_math.h **** 
1121:../../libDaisy//Drivers/CMSIS/DSP/Include/arm_math.h ****   /**
1122:../../libDaisy//Drivers/CMSIS/DSP/Include/arm_math.h ****    * @brief Instance structure for the floating-point FIR filter.
1123:../../libDaisy//Drivers/CMSIS/DSP/Include/arm_math.h ****    */
1124:../../libDaisy//Drivers/CMSIS/DSP/Include/arm_math.h ****   typedef struct
1125:../../libDaisy//Drivers/CMSIS/DSP/Include/arm_math.h ****   {
1126:../../libDaisy//Drivers/CMSIS/DSP/Include/arm_math.h ****     uint16_t numTaps;     /**< number of filter coefficients in the filter. */
1127:../../libDaisy//Drivers/CMSIS/DSP/Include/arm_math.h ****     float32_t *pState;    /**< points to the state variable array. The array is of length numTaps+b
1128:../../libDaisy//Drivers/CMSIS/DSP/Include/arm_math.h ****     float32_t *pCoeffs;   /**< points to the coefficient array. The array is of length numTaps. */
1129:../../libDaisy//Drivers/CMSIS/DSP/Include/arm_math.h ****   } arm_fir_instance_f32;
1130:../../libDaisy//Drivers/CMSIS/DSP/Include/arm_math.h **** 
1131:../../libDaisy//Drivers/CMSIS/DSP/Include/arm_math.h **** 
1132:../../libDaisy//Drivers/CMSIS/DSP/Include/arm_math.h ****   /**
1133:../../libDaisy//Drivers/CMSIS/DSP/Include/arm_math.h ****    * @brief Processing function for the Q7 FIR filter.
1134:../../libDaisy//Drivers/CMSIS/DSP/Include/arm_math.h ****    * @param[in]  S          points to an instance of the Q7 FIR filter structure.
1135:../../libDaisy//Drivers/CMSIS/DSP/Include/arm_math.h ****    * @param[in]  pSrc       points to the block of input data.
1136:../../libDaisy//Drivers/CMSIS/DSP/Include/arm_math.h ****    * @param[out] pDst       points to the block of output data.
1137:../../libDaisy//Drivers/CMSIS/DSP/Include/arm_math.h ****    * @param[in]  blockSize  number of samples to process.
1138:../../libDaisy//Drivers/CMSIS/DSP/Include/arm_math.h ****    */
1139:../../libDaisy//Drivers/CMSIS/DSP/Include/arm_math.h ****   void arm_fir_q7(
1140:../../libDaisy//Drivers/CMSIS/DSP/Include/arm_math.h ****   const arm_fir_instance_q7 * S,
1141:../../libDaisy//Drivers/CMSIS/DSP/Include/arm_math.h ****   q7_t * pSrc,
1142:../../libDaisy//Drivers/CMSIS/DSP/Include/arm_math.h ****   q7_t * pDst,
1143:../../libDaisy//Drivers/CMSIS/DSP/Include/arm_math.h ****   uint32_t blockSize);
1144:../../libDaisy//Drivers/CMSIS/DSP/Include/arm_math.h **** 
1145:../../libDaisy//Drivers/CMSIS/DSP/Include/arm_math.h **** 
1146:../../libDaisy//Drivers/CMSIS/DSP/Include/arm_math.h ****   /**
1147:../../libDaisy//Drivers/CMSIS/DSP/Include/arm_math.h ****    * @brief  Initialization function for the Q7 FIR filter.
1148:../../libDaisy//Drivers/CMSIS/DSP/Include/arm_math.h ****    * @param[in,out] S          points to an instance of the Q7 FIR structure.
1149:../../libDaisy//Drivers/CMSIS/DSP/Include/arm_math.h ****    * @param[in]     numTaps    Number of filter coefficients in the filter.
1150:../../libDaisy//Drivers/CMSIS/DSP/Include/arm_math.h ****    * @param[in]     pCoeffs    points to the filter coefficients.
1151:../../libDaisy//Drivers/CMSIS/DSP/Include/arm_math.h ****    * @param[in]     pState     points to the state buffer.
1152:../../libDaisy//Drivers/CMSIS/DSP/Include/arm_math.h ****    * @param[in]     blockSize  number of samples that are processed.
1153:../../libDaisy//Drivers/CMSIS/DSP/Include/arm_math.h ****    */
1154:../../libDaisy//Drivers/CMSIS/DSP/Include/arm_math.h ****   void arm_fir_init_q7(
1155:../../libDaisy//Drivers/CMSIS/DSP/Include/arm_math.h ****   arm_fir_instance_q7 * S,
1156:../../libDaisy//Drivers/CMSIS/DSP/Include/arm_math.h ****   uint16_t numTaps,
1157:../../libDaisy//Drivers/CMSIS/DSP/Include/arm_math.h ****   q7_t * pCoeffs,
1158:../../libDaisy//Drivers/CMSIS/DSP/Include/arm_math.h ****   q7_t * pState,
1159:../../libDaisy//Drivers/CMSIS/DSP/Include/arm_math.h ****   uint32_t blockSize);
1160:../../libDaisy//Drivers/CMSIS/DSP/Include/arm_math.h **** 
ARM GAS  /var/folders/hl/qgbwny5j0fd895c2c41bk3tw0000gp/T//ccr6F3ig.s 			page 24


1161:../../libDaisy//Drivers/CMSIS/DSP/Include/arm_math.h **** 
1162:../../libDaisy//Drivers/CMSIS/DSP/Include/arm_math.h ****   /**
1163:../../libDaisy//Drivers/CMSIS/DSP/Include/arm_math.h ****    * @brief Processing function for the Q15 FIR filter.
1164:../../libDaisy//Drivers/CMSIS/DSP/Include/arm_math.h ****    * @param[in]  S          points to an instance of the Q15 FIR structure.
1165:../../libDaisy//Drivers/CMSIS/DSP/Include/arm_math.h ****    * @param[in]  pSrc       points to the block of input data.
1166:../../libDaisy//Drivers/CMSIS/DSP/Include/arm_math.h ****    * @param[out] pDst       points to the block of output data.
1167:../../libDaisy//Drivers/CMSIS/DSP/Include/arm_math.h ****    * @param[in]  blockSize  number of samples to process.
1168:../../libDaisy//Drivers/CMSIS/DSP/Include/arm_math.h ****    */
1169:../../libDaisy//Drivers/CMSIS/DSP/Include/arm_math.h ****   void arm_fir_q15(
1170:../../libDaisy//Drivers/CMSIS/DSP/Include/arm_math.h ****   const arm_fir_instance_q15 * S,
1171:../../libDaisy//Drivers/CMSIS/DSP/Include/arm_math.h ****   q15_t * pSrc,
1172:../../libDaisy//Drivers/CMSIS/DSP/Include/arm_math.h ****   q15_t * pDst,
1173:../../libDaisy//Drivers/CMSIS/DSP/Include/arm_math.h ****   uint32_t blockSize);
1174:../../libDaisy//Drivers/CMSIS/DSP/Include/arm_math.h **** 
1175:../../libDaisy//Drivers/CMSIS/DSP/Include/arm_math.h **** 
1176:../../libDaisy//Drivers/CMSIS/DSP/Include/arm_math.h ****   /**
1177:../../libDaisy//Drivers/CMSIS/DSP/Include/arm_math.h ****    * @brief Processing function for the fast Q15 FIR filter for Cortex-M3 and Cortex-M4.
1178:../../libDaisy//Drivers/CMSIS/DSP/Include/arm_math.h ****    * @param[in]  S          points to an instance of the Q15 FIR filter structure.
1179:../../libDaisy//Drivers/CMSIS/DSP/Include/arm_math.h ****    * @param[in]  pSrc       points to the block of input data.
1180:../../libDaisy//Drivers/CMSIS/DSP/Include/arm_math.h ****    * @param[out] pDst       points to the block of output data.
1181:../../libDaisy//Drivers/CMSIS/DSP/Include/arm_math.h ****    * @param[in]  blockSize  number of samples to process.
1182:../../libDaisy//Drivers/CMSIS/DSP/Include/arm_math.h ****    */
1183:../../libDaisy//Drivers/CMSIS/DSP/Include/arm_math.h ****   void arm_fir_fast_q15(
1184:../../libDaisy//Drivers/CMSIS/DSP/Include/arm_math.h ****   const arm_fir_instance_q15 * S,
1185:../../libDaisy//Drivers/CMSIS/DSP/Include/arm_math.h ****   q15_t * pSrc,
1186:../../libDaisy//Drivers/CMSIS/DSP/Include/arm_math.h ****   q15_t * pDst,
1187:../../libDaisy//Drivers/CMSIS/DSP/Include/arm_math.h ****   uint32_t blockSize);
1188:../../libDaisy//Drivers/CMSIS/DSP/Include/arm_math.h **** 
1189:../../libDaisy//Drivers/CMSIS/DSP/Include/arm_math.h **** 
1190:../../libDaisy//Drivers/CMSIS/DSP/Include/arm_math.h ****   /**
1191:../../libDaisy//Drivers/CMSIS/DSP/Include/arm_math.h ****    * @brief  Initialization function for the Q15 FIR filter.
1192:../../libDaisy//Drivers/CMSIS/DSP/Include/arm_math.h ****    * @param[in,out] S          points to an instance of the Q15 FIR filter structure.
1193:../../libDaisy//Drivers/CMSIS/DSP/Include/arm_math.h ****    * @param[in]     numTaps    Number of filter coefficients in the filter. Must be even and greate
1194:../../libDaisy//Drivers/CMSIS/DSP/Include/arm_math.h ****    * @param[in]     pCoeffs    points to the filter coefficients.
1195:../../libDaisy//Drivers/CMSIS/DSP/Include/arm_math.h ****    * @param[in]     pState     points to the state buffer.
1196:../../libDaisy//Drivers/CMSIS/DSP/Include/arm_math.h ****    * @param[in]     blockSize  number of samples that are processed at a time.
1197:../../libDaisy//Drivers/CMSIS/DSP/Include/arm_math.h ****    * @return The function returns ARM_MATH_SUCCESS if initialization was successful or ARM_MATH_ARG
1198:../../libDaisy//Drivers/CMSIS/DSP/Include/arm_math.h ****    * <code>numTaps</code> is not a supported value.
1199:../../libDaisy//Drivers/CMSIS/DSP/Include/arm_math.h ****    */
1200:../../libDaisy//Drivers/CMSIS/DSP/Include/arm_math.h ****   arm_status arm_fir_init_q15(
1201:../../libDaisy//Drivers/CMSIS/DSP/Include/arm_math.h ****   arm_fir_instance_q15 * S,
1202:../../libDaisy//Drivers/CMSIS/DSP/Include/arm_math.h ****   uint16_t numTaps,
1203:../../libDaisy//Drivers/CMSIS/DSP/Include/arm_math.h ****   q15_t * pCoeffs,
1204:../../libDaisy//Drivers/CMSIS/DSP/Include/arm_math.h ****   q15_t * pState,
1205:../../libDaisy//Drivers/CMSIS/DSP/Include/arm_math.h ****   uint32_t blockSize);
1206:../../libDaisy//Drivers/CMSIS/DSP/Include/arm_math.h **** 
1207:../../libDaisy//Drivers/CMSIS/DSP/Include/arm_math.h **** 
1208:../../libDaisy//Drivers/CMSIS/DSP/Include/arm_math.h ****   /**
1209:../../libDaisy//Drivers/CMSIS/DSP/Include/arm_math.h ****    * @brief Processing function for the Q31 FIR filter.
1210:../../libDaisy//Drivers/CMSIS/DSP/Include/arm_math.h ****    * @param[in]  S          points to an instance of the Q31 FIR filter structure.
1211:../../libDaisy//Drivers/CMSIS/DSP/Include/arm_math.h ****    * @param[in]  pSrc       points to the block of input data.
1212:../../libDaisy//Drivers/CMSIS/DSP/Include/arm_math.h ****    * @param[out] pDst       points to the block of output data.
1213:../../libDaisy//Drivers/CMSIS/DSP/Include/arm_math.h ****    * @param[in]  blockSize  number of samples to process.
1214:../../libDaisy//Drivers/CMSIS/DSP/Include/arm_math.h ****    */
1215:../../libDaisy//Drivers/CMSIS/DSP/Include/arm_math.h ****   void arm_fir_q31(
1216:../../libDaisy//Drivers/CMSIS/DSP/Include/arm_math.h ****   const arm_fir_instance_q31 * S,
1217:../../libDaisy//Drivers/CMSIS/DSP/Include/arm_math.h ****   q31_t * pSrc,
ARM GAS  /var/folders/hl/qgbwny5j0fd895c2c41bk3tw0000gp/T//ccr6F3ig.s 			page 25


1218:../../libDaisy//Drivers/CMSIS/DSP/Include/arm_math.h ****   q31_t * pDst,
1219:../../libDaisy//Drivers/CMSIS/DSP/Include/arm_math.h ****   uint32_t blockSize);
1220:../../libDaisy//Drivers/CMSIS/DSP/Include/arm_math.h **** 
1221:../../libDaisy//Drivers/CMSIS/DSP/Include/arm_math.h **** 
1222:../../libDaisy//Drivers/CMSIS/DSP/Include/arm_math.h ****   /**
1223:../../libDaisy//Drivers/CMSIS/DSP/Include/arm_math.h ****    * @brief Processing function for the fast Q31 FIR filter for Cortex-M3 and Cortex-M4.
1224:../../libDaisy//Drivers/CMSIS/DSP/Include/arm_math.h ****    * @param[in]  S          points to an instance of the Q31 FIR structure.
1225:../../libDaisy//Drivers/CMSIS/DSP/Include/arm_math.h ****    * @param[in]  pSrc       points to the block of input data.
1226:../../libDaisy//Drivers/CMSIS/DSP/Include/arm_math.h ****    * @param[out] pDst       points to the block of output data.
1227:../../libDaisy//Drivers/CMSIS/DSP/Include/arm_math.h ****    * @param[in]  blockSize  number of samples to process.
1228:../../libDaisy//Drivers/CMSIS/DSP/Include/arm_math.h ****    */
1229:../../libDaisy//Drivers/CMSIS/DSP/Include/arm_math.h ****   void arm_fir_fast_q31(
1230:../../libDaisy//Drivers/CMSIS/DSP/Include/arm_math.h ****   const arm_fir_instance_q31 * S,
1231:../../libDaisy//Drivers/CMSIS/DSP/Include/arm_math.h ****   q31_t * pSrc,
1232:../../libDaisy//Drivers/CMSIS/DSP/Include/arm_math.h ****   q31_t * pDst,
1233:../../libDaisy//Drivers/CMSIS/DSP/Include/arm_math.h ****   uint32_t blockSize);
1234:../../libDaisy//Drivers/CMSIS/DSP/Include/arm_math.h **** 
1235:../../libDaisy//Drivers/CMSIS/DSP/Include/arm_math.h **** 
1236:../../libDaisy//Drivers/CMSIS/DSP/Include/arm_math.h ****   /**
1237:../../libDaisy//Drivers/CMSIS/DSP/Include/arm_math.h ****    * @brief  Initialization function for the Q31 FIR filter.
1238:../../libDaisy//Drivers/CMSIS/DSP/Include/arm_math.h ****    * @param[in,out] S          points to an instance of the Q31 FIR structure.
1239:../../libDaisy//Drivers/CMSIS/DSP/Include/arm_math.h ****    * @param[in]     numTaps    Number of filter coefficients in the filter.
1240:../../libDaisy//Drivers/CMSIS/DSP/Include/arm_math.h ****    * @param[in]     pCoeffs    points to the filter coefficients.
1241:../../libDaisy//Drivers/CMSIS/DSP/Include/arm_math.h ****    * @param[in]     pState     points to the state buffer.
1242:../../libDaisy//Drivers/CMSIS/DSP/Include/arm_math.h ****    * @param[in]     blockSize  number of samples that are processed at a time.
1243:../../libDaisy//Drivers/CMSIS/DSP/Include/arm_math.h ****    */
1244:../../libDaisy//Drivers/CMSIS/DSP/Include/arm_math.h ****   void arm_fir_init_q31(
1245:../../libDaisy//Drivers/CMSIS/DSP/Include/arm_math.h ****   arm_fir_instance_q31 * S,
1246:../../libDaisy//Drivers/CMSIS/DSP/Include/arm_math.h ****   uint16_t numTaps,
1247:../../libDaisy//Drivers/CMSIS/DSP/Include/arm_math.h ****   q31_t * pCoeffs,
1248:../../libDaisy//Drivers/CMSIS/DSP/Include/arm_math.h ****   q31_t * pState,
1249:../../libDaisy//Drivers/CMSIS/DSP/Include/arm_math.h ****   uint32_t blockSize);
1250:../../libDaisy//Drivers/CMSIS/DSP/Include/arm_math.h **** 
1251:../../libDaisy//Drivers/CMSIS/DSP/Include/arm_math.h **** 
1252:../../libDaisy//Drivers/CMSIS/DSP/Include/arm_math.h ****   /**
1253:../../libDaisy//Drivers/CMSIS/DSP/Include/arm_math.h ****    * @brief Processing function for the floating-point FIR filter.
1254:../../libDaisy//Drivers/CMSIS/DSP/Include/arm_math.h ****    * @param[in]  S          points to an instance of the floating-point FIR structure.
1255:../../libDaisy//Drivers/CMSIS/DSP/Include/arm_math.h ****    * @param[in]  pSrc       points to the block of input data.
1256:../../libDaisy//Drivers/CMSIS/DSP/Include/arm_math.h ****    * @param[out] pDst       points to the block of output data.
1257:../../libDaisy//Drivers/CMSIS/DSP/Include/arm_math.h ****    * @param[in]  blockSize  number of samples to process.
1258:../../libDaisy//Drivers/CMSIS/DSP/Include/arm_math.h ****    */
1259:../../libDaisy//Drivers/CMSIS/DSP/Include/arm_math.h ****   void arm_fir_f32(
1260:../../libDaisy//Drivers/CMSIS/DSP/Include/arm_math.h ****   const arm_fir_instance_f32 * S,
1261:../../libDaisy//Drivers/CMSIS/DSP/Include/arm_math.h ****   float32_t * pSrc,
1262:../../libDaisy//Drivers/CMSIS/DSP/Include/arm_math.h ****   float32_t * pDst,
1263:../../libDaisy//Drivers/CMSIS/DSP/Include/arm_math.h ****   uint32_t blockSize);
1264:../../libDaisy//Drivers/CMSIS/DSP/Include/arm_math.h **** 
1265:../../libDaisy//Drivers/CMSIS/DSP/Include/arm_math.h **** 
1266:../../libDaisy//Drivers/CMSIS/DSP/Include/arm_math.h ****   /**
1267:../../libDaisy//Drivers/CMSIS/DSP/Include/arm_math.h ****    * @brief  Initialization function for the floating-point FIR filter.
1268:../../libDaisy//Drivers/CMSIS/DSP/Include/arm_math.h ****    * @param[in,out] S          points to an instance of the floating-point FIR filter structure.
1269:../../libDaisy//Drivers/CMSIS/DSP/Include/arm_math.h ****    * @param[in]     numTaps    Number of filter coefficients in the filter.
1270:../../libDaisy//Drivers/CMSIS/DSP/Include/arm_math.h ****    * @param[in]     pCoeffs    points to the filter coefficients.
1271:../../libDaisy//Drivers/CMSIS/DSP/Include/arm_math.h ****    * @param[in]     pState     points to the state buffer.
1272:../../libDaisy//Drivers/CMSIS/DSP/Include/arm_math.h ****    * @param[in]     blockSize  number of samples that are processed at a time.
1273:../../libDaisy//Drivers/CMSIS/DSP/Include/arm_math.h ****    */
1274:../../libDaisy//Drivers/CMSIS/DSP/Include/arm_math.h ****   void arm_fir_init_f32(
ARM GAS  /var/folders/hl/qgbwny5j0fd895c2c41bk3tw0000gp/T//ccr6F3ig.s 			page 26


1275:../../libDaisy//Drivers/CMSIS/DSP/Include/arm_math.h ****   arm_fir_instance_f32 * S,
1276:../../libDaisy//Drivers/CMSIS/DSP/Include/arm_math.h ****   uint16_t numTaps,
1277:../../libDaisy//Drivers/CMSIS/DSP/Include/arm_math.h ****   float32_t * pCoeffs,
1278:../../libDaisy//Drivers/CMSIS/DSP/Include/arm_math.h ****   float32_t * pState,
1279:../../libDaisy//Drivers/CMSIS/DSP/Include/arm_math.h ****   uint32_t blockSize);
1280:../../libDaisy//Drivers/CMSIS/DSP/Include/arm_math.h **** 
1281:../../libDaisy//Drivers/CMSIS/DSP/Include/arm_math.h **** 
1282:../../libDaisy//Drivers/CMSIS/DSP/Include/arm_math.h ****   /**
1283:../../libDaisy//Drivers/CMSIS/DSP/Include/arm_math.h ****    * @brief Instance structure for the Q15 Biquad cascade filter.
1284:../../libDaisy//Drivers/CMSIS/DSP/Include/arm_math.h ****    */
1285:../../libDaisy//Drivers/CMSIS/DSP/Include/arm_math.h ****   typedef struct
1286:../../libDaisy//Drivers/CMSIS/DSP/Include/arm_math.h ****   {
1287:../../libDaisy//Drivers/CMSIS/DSP/Include/arm_math.h ****     int8_t numStages;        /**< number of 2nd order stages in the filter.  Overall order is 2*num
1288:../../libDaisy//Drivers/CMSIS/DSP/Include/arm_math.h ****     q15_t *pState;           /**< Points to the array of state coefficients.  The array is of lengt
1289:../../libDaisy//Drivers/CMSIS/DSP/Include/arm_math.h ****     q15_t *pCoeffs;          /**< Points to the array of coefficients.  The array is of length 5*nu
1290:../../libDaisy//Drivers/CMSIS/DSP/Include/arm_math.h ****     int8_t postShift;        /**< Additional shift, in bits, applied to each output sample. */
1291:../../libDaisy//Drivers/CMSIS/DSP/Include/arm_math.h ****   } arm_biquad_casd_df1_inst_q15;
1292:../../libDaisy//Drivers/CMSIS/DSP/Include/arm_math.h **** 
1293:../../libDaisy//Drivers/CMSIS/DSP/Include/arm_math.h ****   /**
1294:../../libDaisy//Drivers/CMSIS/DSP/Include/arm_math.h ****    * @brief Instance structure for the Q31 Biquad cascade filter.
1295:../../libDaisy//Drivers/CMSIS/DSP/Include/arm_math.h ****    */
1296:../../libDaisy//Drivers/CMSIS/DSP/Include/arm_math.h ****   typedef struct
1297:../../libDaisy//Drivers/CMSIS/DSP/Include/arm_math.h ****   {
1298:../../libDaisy//Drivers/CMSIS/DSP/Include/arm_math.h ****     uint32_t numStages;      /**< number of 2nd order stages in the filter.  Overall order is 2*num
1299:../../libDaisy//Drivers/CMSIS/DSP/Include/arm_math.h ****     q31_t *pState;           /**< Points to the array of state coefficients.  The array is of lengt
1300:../../libDaisy//Drivers/CMSIS/DSP/Include/arm_math.h ****     q31_t *pCoeffs;          /**< Points to the array of coefficients.  The array is of length 5*nu
1301:../../libDaisy//Drivers/CMSIS/DSP/Include/arm_math.h ****     uint8_t postShift;       /**< Additional shift, in bits, applied to each output sample. */
1302:../../libDaisy//Drivers/CMSIS/DSP/Include/arm_math.h ****   } arm_biquad_casd_df1_inst_q31;
1303:../../libDaisy//Drivers/CMSIS/DSP/Include/arm_math.h **** 
1304:../../libDaisy//Drivers/CMSIS/DSP/Include/arm_math.h ****   /**
1305:../../libDaisy//Drivers/CMSIS/DSP/Include/arm_math.h ****    * @brief Instance structure for the floating-point Biquad cascade filter.
1306:../../libDaisy//Drivers/CMSIS/DSP/Include/arm_math.h ****    */
1307:../../libDaisy//Drivers/CMSIS/DSP/Include/arm_math.h ****   typedef struct
1308:../../libDaisy//Drivers/CMSIS/DSP/Include/arm_math.h ****   {
1309:../../libDaisy//Drivers/CMSIS/DSP/Include/arm_math.h ****     uint32_t numStages;      /**< number of 2nd order stages in the filter.  Overall order is 2*num
1310:../../libDaisy//Drivers/CMSIS/DSP/Include/arm_math.h ****     float32_t *pState;       /**< Points to the array of state coefficients.  The array is of lengt
1311:../../libDaisy//Drivers/CMSIS/DSP/Include/arm_math.h ****     float32_t *pCoeffs;      /**< Points to the array of coefficients.  The array is of length 5*nu
1312:../../libDaisy//Drivers/CMSIS/DSP/Include/arm_math.h ****   } arm_biquad_casd_df1_inst_f32;
1313:../../libDaisy//Drivers/CMSIS/DSP/Include/arm_math.h **** 
1314:../../libDaisy//Drivers/CMSIS/DSP/Include/arm_math.h **** 
1315:../../libDaisy//Drivers/CMSIS/DSP/Include/arm_math.h ****   /**
1316:../../libDaisy//Drivers/CMSIS/DSP/Include/arm_math.h ****    * @brief Processing function for the Q15 Biquad cascade filter.
1317:../../libDaisy//Drivers/CMSIS/DSP/Include/arm_math.h ****    * @param[in]  S          points to an instance of the Q15 Biquad cascade structure.
1318:../../libDaisy//Drivers/CMSIS/DSP/Include/arm_math.h ****    * @param[in]  pSrc       points to the block of input data.
1319:../../libDaisy//Drivers/CMSIS/DSP/Include/arm_math.h ****    * @param[out] pDst       points to the block of output data.
1320:../../libDaisy//Drivers/CMSIS/DSP/Include/arm_math.h ****    * @param[in]  blockSize  number of samples to process.
1321:../../libDaisy//Drivers/CMSIS/DSP/Include/arm_math.h ****    */
1322:../../libDaisy//Drivers/CMSIS/DSP/Include/arm_math.h ****   void arm_biquad_cascade_df1_q15(
1323:../../libDaisy//Drivers/CMSIS/DSP/Include/arm_math.h ****   const arm_biquad_casd_df1_inst_q15 * S,
1324:../../libDaisy//Drivers/CMSIS/DSP/Include/arm_math.h ****   q15_t * pSrc,
1325:../../libDaisy//Drivers/CMSIS/DSP/Include/arm_math.h ****   q15_t * pDst,
1326:../../libDaisy//Drivers/CMSIS/DSP/Include/arm_math.h ****   uint32_t blockSize);
1327:../../libDaisy//Drivers/CMSIS/DSP/Include/arm_math.h **** 
1328:../../libDaisy//Drivers/CMSIS/DSP/Include/arm_math.h **** 
1329:../../libDaisy//Drivers/CMSIS/DSP/Include/arm_math.h ****   /**
1330:../../libDaisy//Drivers/CMSIS/DSP/Include/arm_math.h ****    * @brief  Initialization function for the Q15 Biquad cascade filter.
1331:../../libDaisy//Drivers/CMSIS/DSP/Include/arm_math.h ****    * @param[in,out] S          points to an instance of the Q15 Biquad cascade structure.
ARM GAS  /var/folders/hl/qgbwny5j0fd895c2c41bk3tw0000gp/T//ccr6F3ig.s 			page 27


1332:../../libDaisy//Drivers/CMSIS/DSP/Include/arm_math.h ****    * @param[in]     numStages  number of 2nd order stages in the filter.
1333:../../libDaisy//Drivers/CMSIS/DSP/Include/arm_math.h ****    * @param[in]     pCoeffs    points to the filter coefficients.
1334:../../libDaisy//Drivers/CMSIS/DSP/Include/arm_math.h ****    * @param[in]     pState     points to the state buffer.
1335:../../libDaisy//Drivers/CMSIS/DSP/Include/arm_math.h ****    * @param[in]     postShift  Shift to be applied to the output. Varies according to the coefficie
1336:../../libDaisy//Drivers/CMSIS/DSP/Include/arm_math.h ****    */
1337:../../libDaisy//Drivers/CMSIS/DSP/Include/arm_math.h ****   void arm_biquad_cascade_df1_init_q15(
1338:../../libDaisy//Drivers/CMSIS/DSP/Include/arm_math.h ****   arm_biquad_casd_df1_inst_q15 * S,
1339:../../libDaisy//Drivers/CMSIS/DSP/Include/arm_math.h ****   uint8_t numStages,
1340:../../libDaisy//Drivers/CMSIS/DSP/Include/arm_math.h ****   q15_t * pCoeffs,
1341:../../libDaisy//Drivers/CMSIS/DSP/Include/arm_math.h ****   q15_t * pState,
1342:../../libDaisy//Drivers/CMSIS/DSP/Include/arm_math.h ****   int8_t postShift);
1343:../../libDaisy//Drivers/CMSIS/DSP/Include/arm_math.h **** 
1344:../../libDaisy//Drivers/CMSIS/DSP/Include/arm_math.h **** 
1345:../../libDaisy//Drivers/CMSIS/DSP/Include/arm_math.h ****   /**
1346:../../libDaisy//Drivers/CMSIS/DSP/Include/arm_math.h ****    * @brief Fast but less precise processing function for the Q15 Biquad cascade filter for Cortex-
1347:../../libDaisy//Drivers/CMSIS/DSP/Include/arm_math.h ****    * @param[in]  S          points to an instance of the Q15 Biquad cascade structure.
1348:../../libDaisy//Drivers/CMSIS/DSP/Include/arm_math.h ****    * @param[in]  pSrc       points to the block of input data.
1349:../../libDaisy//Drivers/CMSIS/DSP/Include/arm_math.h ****    * @param[out] pDst       points to the block of output data.
1350:../../libDaisy//Drivers/CMSIS/DSP/Include/arm_math.h ****    * @param[in]  blockSize  number of samples to process.
1351:../../libDaisy//Drivers/CMSIS/DSP/Include/arm_math.h ****    */
1352:../../libDaisy//Drivers/CMSIS/DSP/Include/arm_math.h ****   void arm_biquad_cascade_df1_fast_q15(
1353:../../libDaisy//Drivers/CMSIS/DSP/Include/arm_math.h ****   const arm_biquad_casd_df1_inst_q15 * S,
1354:../../libDaisy//Drivers/CMSIS/DSP/Include/arm_math.h ****   q15_t * pSrc,
1355:../../libDaisy//Drivers/CMSIS/DSP/Include/arm_math.h ****   q15_t * pDst,
1356:../../libDaisy//Drivers/CMSIS/DSP/Include/arm_math.h ****   uint32_t blockSize);
1357:../../libDaisy//Drivers/CMSIS/DSP/Include/arm_math.h **** 
1358:../../libDaisy//Drivers/CMSIS/DSP/Include/arm_math.h **** 
1359:../../libDaisy//Drivers/CMSIS/DSP/Include/arm_math.h ****   /**
1360:../../libDaisy//Drivers/CMSIS/DSP/Include/arm_math.h ****    * @brief Processing function for the Q31 Biquad cascade filter
1361:../../libDaisy//Drivers/CMSIS/DSP/Include/arm_math.h ****    * @param[in]  S          points to an instance of the Q31 Biquad cascade structure.
1362:../../libDaisy//Drivers/CMSIS/DSP/Include/arm_math.h ****    * @param[in]  pSrc       points to the block of input data.
1363:../../libDaisy//Drivers/CMSIS/DSP/Include/arm_math.h ****    * @param[out] pDst       points to the block of output data.
1364:../../libDaisy//Drivers/CMSIS/DSP/Include/arm_math.h ****    * @param[in]  blockSize  number of samples to process.
1365:../../libDaisy//Drivers/CMSIS/DSP/Include/arm_math.h ****    */
1366:../../libDaisy//Drivers/CMSIS/DSP/Include/arm_math.h ****   void arm_biquad_cascade_df1_q31(
1367:../../libDaisy//Drivers/CMSIS/DSP/Include/arm_math.h ****   const arm_biquad_casd_df1_inst_q31 * S,
1368:../../libDaisy//Drivers/CMSIS/DSP/Include/arm_math.h ****   q31_t * pSrc,
1369:../../libDaisy//Drivers/CMSIS/DSP/Include/arm_math.h ****   q31_t * pDst,
1370:../../libDaisy//Drivers/CMSIS/DSP/Include/arm_math.h ****   uint32_t blockSize);
1371:../../libDaisy//Drivers/CMSIS/DSP/Include/arm_math.h **** 
1372:../../libDaisy//Drivers/CMSIS/DSP/Include/arm_math.h **** 
1373:../../libDaisy//Drivers/CMSIS/DSP/Include/arm_math.h ****   /**
1374:../../libDaisy//Drivers/CMSIS/DSP/Include/arm_math.h ****    * @brief Fast but less precise processing function for the Q31 Biquad cascade filter for Cortex-
1375:../../libDaisy//Drivers/CMSIS/DSP/Include/arm_math.h ****    * @param[in]  S          points to an instance of the Q31 Biquad cascade structure.
1376:../../libDaisy//Drivers/CMSIS/DSP/Include/arm_math.h ****    * @param[in]  pSrc       points to the block of input data.
1377:../../libDaisy//Drivers/CMSIS/DSP/Include/arm_math.h ****    * @param[out] pDst       points to the block of output data.
1378:../../libDaisy//Drivers/CMSIS/DSP/Include/arm_math.h ****    * @param[in]  blockSize  number of samples to process.
1379:../../libDaisy//Drivers/CMSIS/DSP/Include/arm_math.h ****    */
1380:../../libDaisy//Drivers/CMSIS/DSP/Include/arm_math.h ****   void arm_biquad_cascade_df1_fast_q31(
1381:../../libDaisy//Drivers/CMSIS/DSP/Include/arm_math.h ****   const arm_biquad_casd_df1_inst_q31 * S,
1382:../../libDaisy//Drivers/CMSIS/DSP/Include/arm_math.h ****   q31_t * pSrc,
1383:../../libDaisy//Drivers/CMSIS/DSP/Include/arm_math.h ****   q31_t * pDst,
1384:../../libDaisy//Drivers/CMSIS/DSP/Include/arm_math.h ****   uint32_t blockSize);
1385:../../libDaisy//Drivers/CMSIS/DSP/Include/arm_math.h **** 
1386:../../libDaisy//Drivers/CMSIS/DSP/Include/arm_math.h **** 
1387:../../libDaisy//Drivers/CMSIS/DSP/Include/arm_math.h ****   /**
1388:../../libDaisy//Drivers/CMSIS/DSP/Include/arm_math.h ****    * @brief  Initialization function for the Q31 Biquad cascade filter.
ARM GAS  /var/folders/hl/qgbwny5j0fd895c2c41bk3tw0000gp/T//ccr6F3ig.s 			page 28


1389:../../libDaisy//Drivers/CMSIS/DSP/Include/arm_math.h ****    * @param[in,out] S          points to an instance of the Q31 Biquad cascade structure.
1390:../../libDaisy//Drivers/CMSIS/DSP/Include/arm_math.h ****    * @param[in]     numStages  number of 2nd order stages in the filter.
1391:../../libDaisy//Drivers/CMSIS/DSP/Include/arm_math.h ****    * @param[in]     pCoeffs    points to the filter coefficients.
1392:../../libDaisy//Drivers/CMSIS/DSP/Include/arm_math.h ****    * @param[in]     pState     points to the state buffer.
1393:../../libDaisy//Drivers/CMSIS/DSP/Include/arm_math.h ****    * @param[in]     postShift  Shift to be applied to the output. Varies according to the coefficie
1394:../../libDaisy//Drivers/CMSIS/DSP/Include/arm_math.h ****    */
1395:../../libDaisy//Drivers/CMSIS/DSP/Include/arm_math.h ****   void arm_biquad_cascade_df1_init_q31(
1396:../../libDaisy//Drivers/CMSIS/DSP/Include/arm_math.h ****   arm_biquad_casd_df1_inst_q31 * S,
1397:../../libDaisy//Drivers/CMSIS/DSP/Include/arm_math.h ****   uint8_t numStages,
1398:../../libDaisy//Drivers/CMSIS/DSP/Include/arm_math.h ****   q31_t * pCoeffs,
1399:../../libDaisy//Drivers/CMSIS/DSP/Include/arm_math.h ****   q31_t * pState,
1400:../../libDaisy//Drivers/CMSIS/DSP/Include/arm_math.h ****   int8_t postShift);
1401:../../libDaisy//Drivers/CMSIS/DSP/Include/arm_math.h **** 
1402:../../libDaisy//Drivers/CMSIS/DSP/Include/arm_math.h **** 
1403:../../libDaisy//Drivers/CMSIS/DSP/Include/arm_math.h ****   /**
1404:../../libDaisy//Drivers/CMSIS/DSP/Include/arm_math.h ****    * @brief Processing function for the floating-point Biquad cascade filter.
1405:../../libDaisy//Drivers/CMSIS/DSP/Include/arm_math.h ****    * @param[in]  S          points to an instance of the floating-point Biquad cascade structure.
1406:../../libDaisy//Drivers/CMSIS/DSP/Include/arm_math.h ****    * @param[in]  pSrc       points to the block of input data.
1407:../../libDaisy//Drivers/CMSIS/DSP/Include/arm_math.h ****    * @param[out] pDst       points to the block of output data.
1408:../../libDaisy//Drivers/CMSIS/DSP/Include/arm_math.h ****    * @param[in]  blockSize  number of samples to process.
1409:../../libDaisy//Drivers/CMSIS/DSP/Include/arm_math.h ****    */
1410:../../libDaisy//Drivers/CMSIS/DSP/Include/arm_math.h ****   void arm_biquad_cascade_df1_f32(
1411:../../libDaisy//Drivers/CMSIS/DSP/Include/arm_math.h ****   const arm_biquad_casd_df1_inst_f32 * S,
1412:../../libDaisy//Drivers/CMSIS/DSP/Include/arm_math.h ****   float32_t * pSrc,
1413:../../libDaisy//Drivers/CMSIS/DSP/Include/arm_math.h ****   float32_t * pDst,
1414:../../libDaisy//Drivers/CMSIS/DSP/Include/arm_math.h ****   uint32_t blockSize);
1415:../../libDaisy//Drivers/CMSIS/DSP/Include/arm_math.h **** 
1416:../../libDaisy//Drivers/CMSIS/DSP/Include/arm_math.h **** 
1417:../../libDaisy//Drivers/CMSIS/DSP/Include/arm_math.h ****   /**
1418:../../libDaisy//Drivers/CMSIS/DSP/Include/arm_math.h ****    * @brief  Initialization function for the floating-point Biquad cascade filter.
1419:../../libDaisy//Drivers/CMSIS/DSP/Include/arm_math.h ****    * @param[in,out] S          points to an instance of the floating-point Biquad cascade structure
1420:../../libDaisy//Drivers/CMSIS/DSP/Include/arm_math.h ****    * @param[in]     numStages  number of 2nd order stages in the filter.
1421:../../libDaisy//Drivers/CMSIS/DSP/Include/arm_math.h ****    * @param[in]     pCoeffs    points to the filter coefficients.
1422:../../libDaisy//Drivers/CMSIS/DSP/Include/arm_math.h ****    * @param[in]     pState     points to the state buffer.
1423:../../libDaisy//Drivers/CMSIS/DSP/Include/arm_math.h ****    */
1424:../../libDaisy//Drivers/CMSIS/DSP/Include/arm_math.h ****   void arm_biquad_cascade_df1_init_f32(
1425:../../libDaisy//Drivers/CMSIS/DSP/Include/arm_math.h ****   arm_biquad_casd_df1_inst_f32 * S,
1426:../../libDaisy//Drivers/CMSIS/DSP/Include/arm_math.h ****   uint8_t numStages,
1427:../../libDaisy//Drivers/CMSIS/DSP/Include/arm_math.h ****   float32_t * pCoeffs,
1428:../../libDaisy//Drivers/CMSIS/DSP/Include/arm_math.h ****   float32_t * pState);
1429:../../libDaisy//Drivers/CMSIS/DSP/Include/arm_math.h **** 
1430:../../libDaisy//Drivers/CMSIS/DSP/Include/arm_math.h **** 
1431:../../libDaisy//Drivers/CMSIS/DSP/Include/arm_math.h ****   /**
1432:../../libDaisy//Drivers/CMSIS/DSP/Include/arm_math.h ****    * @brief Instance structure for the floating-point matrix structure.
1433:../../libDaisy//Drivers/CMSIS/DSP/Include/arm_math.h ****    */
1434:../../libDaisy//Drivers/CMSIS/DSP/Include/arm_math.h ****   typedef struct
1435:../../libDaisy//Drivers/CMSIS/DSP/Include/arm_math.h ****   {
1436:../../libDaisy//Drivers/CMSIS/DSP/Include/arm_math.h ****     uint16_t numRows;     /**< number of rows of the matrix.     */
1437:../../libDaisy//Drivers/CMSIS/DSP/Include/arm_math.h ****     uint16_t numCols;     /**< number of columns of the matrix.  */
1438:../../libDaisy//Drivers/CMSIS/DSP/Include/arm_math.h ****     float32_t *pData;     /**< points to the data of the matrix. */
1439:../../libDaisy//Drivers/CMSIS/DSP/Include/arm_math.h ****   } arm_matrix_instance_f32;
1440:../../libDaisy//Drivers/CMSIS/DSP/Include/arm_math.h **** 
1441:../../libDaisy//Drivers/CMSIS/DSP/Include/arm_math.h **** 
1442:../../libDaisy//Drivers/CMSIS/DSP/Include/arm_math.h ****   /**
1443:../../libDaisy//Drivers/CMSIS/DSP/Include/arm_math.h ****    * @brief Instance structure for the floating-point matrix structure.
1444:../../libDaisy//Drivers/CMSIS/DSP/Include/arm_math.h ****    */
1445:../../libDaisy//Drivers/CMSIS/DSP/Include/arm_math.h ****   typedef struct
ARM GAS  /var/folders/hl/qgbwny5j0fd895c2c41bk3tw0000gp/T//ccr6F3ig.s 			page 29


1446:../../libDaisy//Drivers/CMSIS/DSP/Include/arm_math.h ****   {
1447:../../libDaisy//Drivers/CMSIS/DSP/Include/arm_math.h ****     uint16_t numRows;     /**< number of rows of the matrix.     */
1448:../../libDaisy//Drivers/CMSIS/DSP/Include/arm_math.h ****     uint16_t numCols;     /**< number of columns of the matrix.  */
1449:../../libDaisy//Drivers/CMSIS/DSP/Include/arm_math.h ****     float64_t *pData;     /**< points to the data of the matrix. */
1450:../../libDaisy//Drivers/CMSIS/DSP/Include/arm_math.h ****   } arm_matrix_instance_f64;
1451:../../libDaisy//Drivers/CMSIS/DSP/Include/arm_math.h **** 
1452:../../libDaisy//Drivers/CMSIS/DSP/Include/arm_math.h ****   /**
1453:../../libDaisy//Drivers/CMSIS/DSP/Include/arm_math.h ****    * @brief Instance structure for the Q15 matrix structure.
1454:../../libDaisy//Drivers/CMSIS/DSP/Include/arm_math.h ****    */
1455:../../libDaisy//Drivers/CMSIS/DSP/Include/arm_math.h ****   typedef struct
1456:../../libDaisy//Drivers/CMSIS/DSP/Include/arm_math.h ****   {
1457:../../libDaisy//Drivers/CMSIS/DSP/Include/arm_math.h ****     uint16_t numRows;     /**< number of rows of the matrix.     */
1458:../../libDaisy//Drivers/CMSIS/DSP/Include/arm_math.h ****     uint16_t numCols;     /**< number of columns of the matrix.  */
1459:../../libDaisy//Drivers/CMSIS/DSP/Include/arm_math.h ****     q15_t *pData;         /**< points to the data of the matrix. */
1460:../../libDaisy//Drivers/CMSIS/DSP/Include/arm_math.h ****   } arm_matrix_instance_q15;
1461:../../libDaisy//Drivers/CMSIS/DSP/Include/arm_math.h **** 
1462:../../libDaisy//Drivers/CMSIS/DSP/Include/arm_math.h ****   /**
1463:../../libDaisy//Drivers/CMSIS/DSP/Include/arm_math.h ****    * @brief Instance structure for the Q31 matrix structure.
1464:../../libDaisy//Drivers/CMSIS/DSP/Include/arm_math.h ****    */
1465:../../libDaisy//Drivers/CMSIS/DSP/Include/arm_math.h ****   typedef struct
1466:../../libDaisy//Drivers/CMSIS/DSP/Include/arm_math.h ****   {
1467:../../libDaisy//Drivers/CMSIS/DSP/Include/arm_math.h ****     uint16_t numRows;     /**< number of rows of the matrix.     */
1468:../../libDaisy//Drivers/CMSIS/DSP/Include/arm_math.h ****     uint16_t numCols;     /**< number of columns of the matrix.  */
1469:../../libDaisy//Drivers/CMSIS/DSP/Include/arm_math.h ****     q31_t *pData;         /**< points to the data of the matrix. */
1470:../../libDaisy//Drivers/CMSIS/DSP/Include/arm_math.h ****   } arm_matrix_instance_q31;
1471:../../libDaisy//Drivers/CMSIS/DSP/Include/arm_math.h **** 
1472:../../libDaisy//Drivers/CMSIS/DSP/Include/arm_math.h **** 
1473:../../libDaisy//Drivers/CMSIS/DSP/Include/arm_math.h ****   /**
1474:../../libDaisy//Drivers/CMSIS/DSP/Include/arm_math.h ****    * @brief Floating-point matrix addition.
1475:../../libDaisy//Drivers/CMSIS/DSP/Include/arm_math.h ****    * @param[in]  pSrcA  points to the first input matrix structure
1476:../../libDaisy//Drivers/CMSIS/DSP/Include/arm_math.h ****    * @param[in]  pSrcB  points to the second input matrix structure
1477:../../libDaisy//Drivers/CMSIS/DSP/Include/arm_math.h ****    * @param[out] pDst   points to output matrix structure
1478:../../libDaisy//Drivers/CMSIS/DSP/Include/arm_math.h ****    * @return     The function returns either
1479:../../libDaisy//Drivers/CMSIS/DSP/Include/arm_math.h ****    * <code>ARM_MATH_SIZE_MISMATCH</code> or <code>ARM_MATH_SUCCESS</code> based on the outcome of s
1480:../../libDaisy//Drivers/CMSIS/DSP/Include/arm_math.h ****    */
1481:../../libDaisy//Drivers/CMSIS/DSP/Include/arm_math.h ****   arm_status arm_mat_add_f32(
1482:../../libDaisy//Drivers/CMSIS/DSP/Include/arm_math.h ****   const arm_matrix_instance_f32 * pSrcA,
1483:../../libDaisy//Drivers/CMSIS/DSP/Include/arm_math.h ****   const arm_matrix_instance_f32 * pSrcB,
1484:../../libDaisy//Drivers/CMSIS/DSP/Include/arm_math.h ****   arm_matrix_instance_f32 * pDst);
1485:../../libDaisy//Drivers/CMSIS/DSP/Include/arm_math.h **** 
1486:../../libDaisy//Drivers/CMSIS/DSP/Include/arm_math.h **** 
1487:../../libDaisy//Drivers/CMSIS/DSP/Include/arm_math.h ****   /**
1488:../../libDaisy//Drivers/CMSIS/DSP/Include/arm_math.h ****    * @brief Q15 matrix addition.
1489:../../libDaisy//Drivers/CMSIS/DSP/Include/arm_math.h ****    * @param[in]   pSrcA  points to the first input matrix structure
1490:../../libDaisy//Drivers/CMSIS/DSP/Include/arm_math.h ****    * @param[in]   pSrcB  points to the second input matrix structure
1491:../../libDaisy//Drivers/CMSIS/DSP/Include/arm_math.h ****    * @param[out]  pDst   points to output matrix structure
1492:../../libDaisy//Drivers/CMSIS/DSP/Include/arm_math.h ****    * @return     The function returns either
1493:../../libDaisy//Drivers/CMSIS/DSP/Include/arm_math.h ****    * <code>ARM_MATH_SIZE_MISMATCH</code> or <code>ARM_MATH_SUCCESS</code> based on the outcome of s
1494:../../libDaisy//Drivers/CMSIS/DSP/Include/arm_math.h ****    */
1495:../../libDaisy//Drivers/CMSIS/DSP/Include/arm_math.h ****   arm_status arm_mat_add_q15(
1496:../../libDaisy//Drivers/CMSIS/DSP/Include/arm_math.h ****   const arm_matrix_instance_q15 * pSrcA,
1497:../../libDaisy//Drivers/CMSIS/DSP/Include/arm_math.h ****   const arm_matrix_instance_q15 * pSrcB,
1498:../../libDaisy//Drivers/CMSIS/DSP/Include/arm_math.h ****   arm_matrix_instance_q15 * pDst);
1499:../../libDaisy//Drivers/CMSIS/DSP/Include/arm_math.h **** 
1500:../../libDaisy//Drivers/CMSIS/DSP/Include/arm_math.h **** 
1501:../../libDaisy//Drivers/CMSIS/DSP/Include/arm_math.h ****   /**
1502:../../libDaisy//Drivers/CMSIS/DSP/Include/arm_math.h ****    * @brief Q31 matrix addition.
ARM GAS  /var/folders/hl/qgbwny5j0fd895c2c41bk3tw0000gp/T//ccr6F3ig.s 			page 30


1503:../../libDaisy//Drivers/CMSIS/DSP/Include/arm_math.h ****    * @param[in]  pSrcA  points to the first input matrix structure
1504:../../libDaisy//Drivers/CMSIS/DSP/Include/arm_math.h ****    * @param[in]  pSrcB  points to the second input matrix structure
1505:../../libDaisy//Drivers/CMSIS/DSP/Include/arm_math.h ****    * @param[out] pDst   points to output matrix structure
1506:../../libDaisy//Drivers/CMSIS/DSP/Include/arm_math.h ****    * @return     The function returns either
1507:../../libDaisy//Drivers/CMSIS/DSP/Include/arm_math.h ****    * <code>ARM_MATH_SIZE_MISMATCH</code> or <code>ARM_MATH_SUCCESS</code> based on the outcome of s
1508:../../libDaisy//Drivers/CMSIS/DSP/Include/arm_math.h ****    */
1509:../../libDaisy//Drivers/CMSIS/DSP/Include/arm_math.h ****   arm_status arm_mat_add_q31(
1510:../../libDaisy//Drivers/CMSIS/DSP/Include/arm_math.h ****   const arm_matrix_instance_q31 * pSrcA,
1511:../../libDaisy//Drivers/CMSIS/DSP/Include/arm_math.h ****   const arm_matrix_instance_q31 * pSrcB,
1512:../../libDaisy//Drivers/CMSIS/DSP/Include/arm_math.h ****   arm_matrix_instance_q31 * pDst);
1513:../../libDaisy//Drivers/CMSIS/DSP/Include/arm_math.h **** 
1514:../../libDaisy//Drivers/CMSIS/DSP/Include/arm_math.h **** 
1515:../../libDaisy//Drivers/CMSIS/DSP/Include/arm_math.h ****   /**
1516:../../libDaisy//Drivers/CMSIS/DSP/Include/arm_math.h ****    * @brief Floating-point, complex, matrix multiplication.
1517:../../libDaisy//Drivers/CMSIS/DSP/Include/arm_math.h ****    * @param[in]  pSrcA  points to the first input matrix structure
1518:../../libDaisy//Drivers/CMSIS/DSP/Include/arm_math.h ****    * @param[in]  pSrcB  points to the second input matrix structure
1519:../../libDaisy//Drivers/CMSIS/DSP/Include/arm_math.h ****    * @param[out] pDst   points to output matrix structure
1520:../../libDaisy//Drivers/CMSIS/DSP/Include/arm_math.h ****    * @return     The function returns either
1521:../../libDaisy//Drivers/CMSIS/DSP/Include/arm_math.h ****    * <code>ARM_MATH_SIZE_MISMATCH</code> or <code>ARM_MATH_SUCCESS</code> based on the outcome of s
1522:../../libDaisy//Drivers/CMSIS/DSP/Include/arm_math.h ****    */
1523:../../libDaisy//Drivers/CMSIS/DSP/Include/arm_math.h ****   arm_status arm_mat_cmplx_mult_f32(
1524:../../libDaisy//Drivers/CMSIS/DSP/Include/arm_math.h ****   const arm_matrix_instance_f32 * pSrcA,
1525:../../libDaisy//Drivers/CMSIS/DSP/Include/arm_math.h ****   const arm_matrix_instance_f32 * pSrcB,
1526:../../libDaisy//Drivers/CMSIS/DSP/Include/arm_math.h ****   arm_matrix_instance_f32 * pDst);
1527:../../libDaisy//Drivers/CMSIS/DSP/Include/arm_math.h **** 
1528:../../libDaisy//Drivers/CMSIS/DSP/Include/arm_math.h **** 
1529:../../libDaisy//Drivers/CMSIS/DSP/Include/arm_math.h ****   /**
1530:../../libDaisy//Drivers/CMSIS/DSP/Include/arm_math.h ****    * @brief Q15, complex,  matrix multiplication.
1531:../../libDaisy//Drivers/CMSIS/DSP/Include/arm_math.h ****    * @param[in]  pSrcA  points to the first input matrix structure
1532:../../libDaisy//Drivers/CMSIS/DSP/Include/arm_math.h ****    * @param[in]  pSrcB  points to the second input matrix structure
1533:../../libDaisy//Drivers/CMSIS/DSP/Include/arm_math.h ****    * @param[out] pDst   points to output matrix structure
1534:../../libDaisy//Drivers/CMSIS/DSP/Include/arm_math.h ****    * @return     The function returns either
1535:../../libDaisy//Drivers/CMSIS/DSP/Include/arm_math.h ****    * <code>ARM_MATH_SIZE_MISMATCH</code> or <code>ARM_MATH_SUCCESS</code> based on the outcome of s
1536:../../libDaisy//Drivers/CMSIS/DSP/Include/arm_math.h ****    */
1537:../../libDaisy//Drivers/CMSIS/DSP/Include/arm_math.h ****   arm_status arm_mat_cmplx_mult_q15(
1538:../../libDaisy//Drivers/CMSIS/DSP/Include/arm_math.h ****   const arm_matrix_instance_q15 * pSrcA,
1539:../../libDaisy//Drivers/CMSIS/DSP/Include/arm_math.h ****   const arm_matrix_instance_q15 * pSrcB,
1540:../../libDaisy//Drivers/CMSIS/DSP/Include/arm_math.h ****   arm_matrix_instance_q15 * pDst,
1541:../../libDaisy//Drivers/CMSIS/DSP/Include/arm_math.h ****   q15_t * pScratch);
1542:../../libDaisy//Drivers/CMSIS/DSP/Include/arm_math.h **** 
1543:../../libDaisy//Drivers/CMSIS/DSP/Include/arm_math.h **** 
1544:../../libDaisy//Drivers/CMSIS/DSP/Include/arm_math.h ****   /**
1545:../../libDaisy//Drivers/CMSIS/DSP/Include/arm_math.h ****    * @brief Q31, complex, matrix multiplication.
1546:../../libDaisy//Drivers/CMSIS/DSP/Include/arm_math.h ****    * @param[in]  pSrcA  points to the first input matrix structure
1547:../../libDaisy//Drivers/CMSIS/DSP/Include/arm_math.h ****    * @param[in]  pSrcB  points to the second input matrix structure
1548:../../libDaisy//Drivers/CMSIS/DSP/Include/arm_math.h ****    * @param[out] pDst   points to output matrix structure
1549:../../libDaisy//Drivers/CMSIS/DSP/Include/arm_math.h ****    * @return     The function returns either
1550:../../libDaisy//Drivers/CMSIS/DSP/Include/arm_math.h ****    * <code>ARM_MATH_SIZE_MISMATCH</code> or <code>ARM_MATH_SUCCESS</code> based on the outcome of s
1551:../../libDaisy//Drivers/CMSIS/DSP/Include/arm_math.h ****    */
1552:../../libDaisy//Drivers/CMSIS/DSP/Include/arm_math.h ****   arm_status arm_mat_cmplx_mult_q31(
1553:../../libDaisy//Drivers/CMSIS/DSP/Include/arm_math.h ****   const arm_matrix_instance_q31 * pSrcA,
1554:../../libDaisy//Drivers/CMSIS/DSP/Include/arm_math.h ****   const arm_matrix_instance_q31 * pSrcB,
1555:../../libDaisy//Drivers/CMSIS/DSP/Include/arm_math.h ****   arm_matrix_instance_q31 * pDst);
1556:../../libDaisy//Drivers/CMSIS/DSP/Include/arm_math.h **** 
1557:../../libDaisy//Drivers/CMSIS/DSP/Include/arm_math.h **** 
1558:../../libDaisy//Drivers/CMSIS/DSP/Include/arm_math.h ****   /**
1559:../../libDaisy//Drivers/CMSIS/DSP/Include/arm_math.h ****    * @brief Floating-point matrix transpose.
ARM GAS  /var/folders/hl/qgbwny5j0fd895c2c41bk3tw0000gp/T//ccr6F3ig.s 			page 31


1560:../../libDaisy//Drivers/CMSIS/DSP/Include/arm_math.h ****    * @param[in]  pSrc  points to the input matrix
1561:../../libDaisy//Drivers/CMSIS/DSP/Include/arm_math.h ****    * @param[out] pDst  points to the output matrix
1562:../../libDaisy//Drivers/CMSIS/DSP/Include/arm_math.h ****    * @return    The function returns either  <code>ARM_MATH_SIZE_MISMATCH</code>
1563:../../libDaisy//Drivers/CMSIS/DSP/Include/arm_math.h ****    * or <code>ARM_MATH_SUCCESS</code> based on the outcome of size checking.
1564:../../libDaisy//Drivers/CMSIS/DSP/Include/arm_math.h ****    */
1565:../../libDaisy//Drivers/CMSIS/DSP/Include/arm_math.h ****   arm_status arm_mat_trans_f32(
1566:../../libDaisy//Drivers/CMSIS/DSP/Include/arm_math.h ****   const arm_matrix_instance_f32 * pSrc,
1567:../../libDaisy//Drivers/CMSIS/DSP/Include/arm_math.h ****   arm_matrix_instance_f32 * pDst);
1568:../../libDaisy//Drivers/CMSIS/DSP/Include/arm_math.h **** 
1569:../../libDaisy//Drivers/CMSIS/DSP/Include/arm_math.h **** 
1570:../../libDaisy//Drivers/CMSIS/DSP/Include/arm_math.h ****   /**
1571:../../libDaisy//Drivers/CMSIS/DSP/Include/arm_math.h ****    * @brief Q15 matrix transpose.
1572:../../libDaisy//Drivers/CMSIS/DSP/Include/arm_math.h ****    * @param[in]  pSrc  points to the input matrix
1573:../../libDaisy//Drivers/CMSIS/DSP/Include/arm_math.h ****    * @param[out] pDst  points to the output matrix
1574:../../libDaisy//Drivers/CMSIS/DSP/Include/arm_math.h ****    * @return    The function returns either  <code>ARM_MATH_SIZE_MISMATCH</code>
1575:../../libDaisy//Drivers/CMSIS/DSP/Include/arm_math.h ****    * or <code>ARM_MATH_SUCCESS</code> based on the outcome of size checking.
1576:../../libDaisy//Drivers/CMSIS/DSP/Include/arm_math.h ****    */
1577:../../libDaisy//Drivers/CMSIS/DSP/Include/arm_math.h ****   arm_status arm_mat_trans_q15(
1578:../../libDaisy//Drivers/CMSIS/DSP/Include/arm_math.h ****   const arm_matrix_instance_q15 * pSrc,
1579:../../libDaisy//Drivers/CMSIS/DSP/Include/arm_math.h ****   arm_matrix_instance_q15 * pDst);
1580:../../libDaisy//Drivers/CMSIS/DSP/Include/arm_math.h **** 
1581:../../libDaisy//Drivers/CMSIS/DSP/Include/arm_math.h **** 
1582:../../libDaisy//Drivers/CMSIS/DSP/Include/arm_math.h ****   /**
1583:../../libDaisy//Drivers/CMSIS/DSP/Include/arm_math.h ****    * @brief Q31 matrix transpose.
1584:../../libDaisy//Drivers/CMSIS/DSP/Include/arm_math.h ****    * @param[in]  pSrc  points to the input matrix
1585:../../libDaisy//Drivers/CMSIS/DSP/Include/arm_math.h ****    * @param[out] pDst  points to the output matrix
1586:../../libDaisy//Drivers/CMSIS/DSP/Include/arm_math.h ****    * @return    The function returns either  <code>ARM_MATH_SIZE_MISMATCH</code>
1587:../../libDaisy//Drivers/CMSIS/DSP/Include/arm_math.h ****    * or <code>ARM_MATH_SUCCESS</code> based on the outcome of size checking.
1588:../../libDaisy//Drivers/CMSIS/DSP/Include/arm_math.h ****    */
1589:../../libDaisy//Drivers/CMSIS/DSP/Include/arm_math.h ****   arm_status arm_mat_trans_q31(
1590:../../libDaisy//Drivers/CMSIS/DSP/Include/arm_math.h ****   const arm_matrix_instance_q31 * pSrc,
1591:../../libDaisy//Drivers/CMSIS/DSP/Include/arm_math.h ****   arm_matrix_instance_q31 * pDst);
1592:../../libDaisy//Drivers/CMSIS/DSP/Include/arm_math.h **** 
1593:../../libDaisy//Drivers/CMSIS/DSP/Include/arm_math.h **** 
1594:../../libDaisy//Drivers/CMSIS/DSP/Include/arm_math.h ****   /**
1595:../../libDaisy//Drivers/CMSIS/DSP/Include/arm_math.h ****    * @brief Floating-point matrix multiplication
1596:../../libDaisy//Drivers/CMSIS/DSP/Include/arm_math.h ****    * @param[in]  pSrcA  points to the first input matrix structure
1597:../../libDaisy//Drivers/CMSIS/DSP/Include/arm_math.h ****    * @param[in]  pSrcB  points to the second input matrix structure
1598:../../libDaisy//Drivers/CMSIS/DSP/Include/arm_math.h ****    * @param[out] pDst   points to output matrix structure
1599:../../libDaisy//Drivers/CMSIS/DSP/Include/arm_math.h ****    * @return     The function returns either
1600:../../libDaisy//Drivers/CMSIS/DSP/Include/arm_math.h ****    * <code>ARM_MATH_SIZE_MISMATCH</code> or <code>ARM_MATH_SUCCESS</code> based on the outcome of s
1601:../../libDaisy//Drivers/CMSIS/DSP/Include/arm_math.h ****    */
1602:../../libDaisy//Drivers/CMSIS/DSP/Include/arm_math.h ****   arm_status arm_mat_mult_f32(
1603:../../libDaisy//Drivers/CMSIS/DSP/Include/arm_math.h ****   const arm_matrix_instance_f32 * pSrcA,
1604:../../libDaisy//Drivers/CMSIS/DSP/Include/arm_math.h ****   const arm_matrix_instance_f32 * pSrcB,
1605:../../libDaisy//Drivers/CMSIS/DSP/Include/arm_math.h ****   arm_matrix_instance_f32 * pDst);
1606:../../libDaisy//Drivers/CMSIS/DSP/Include/arm_math.h **** 
1607:../../libDaisy//Drivers/CMSIS/DSP/Include/arm_math.h **** 
1608:../../libDaisy//Drivers/CMSIS/DSP/Include/arm_math.h ****   /**
1609:../../libDaisy//Drivers/CMSIS/DSP/Include/arm_math.h ****    * @brief Q15 matrix multiplication
1610:../../libDaisy//Drivers/CMSIS/DSP/Include/arm_math.h ****    * @param[in]  pSrcA   points to the first input matrix structure
1611:../../libDaisy//Drivers/CMSIS/DSP/Include/arm_math.h ****    * @param[in]  pSrcB   points to the second input matrix structure
1612:../../libDaisy//Drivers/CMSIS/DSP/Include/arm_math.h ****    * @param[out] pDst    points to output matrix structure
1613:../../libDaisy//Drivers/CMSIS/DSP/Include/arm_math.h ****    * @param[in]  pState  points to the array for storing intermediate results
1614:../../libDaisy//Drivers/CMSIS/DSP/Include/arm_math.h ****    * @return     The function returns either
1615:../../libDaisy//Drivers/CMSIS/DSP/Include/arm_math.h ****    * <code>ARM_MATH_SIZE_MISMATCH</code> or <code>ARM_MATH_SUCCESS</code> based on the outcome of s
1616:../../libDaisy//Drivers/CMSIS/DSP/Include/arm_math.h ****    */
ARM GAS  /var/folders/hl/qgbwny5j0fd895c2c41bk3tw0000gp/T//ccr6F3ig.s 			page 32


1617:../../libDaisy//Drivers/CMSIS/DSP/Include/arm_math.h ****   arm_status arm_mat_mult_q15(
1618:../../libDaisy//Drivers/CMSIS/DSP/Include/arm_math.h ****   const arm_matrix_instance_q15 * pSrcA,
1619:../../libDaisy//Drivers/CMSIS/DSP/Include/arm_math.h ****   const arm_matrix_instance_q15 * pSrcB,
1620:../../libDaisy//Drivers/CMSIS/DSP/Include/arm_math.h ****   arm_matrix_instance_q15 * pDst,
1621:../../libDaisy//Drivers/CMSIS/DSP/Include/arm_math.h ****   q15_t * pState);
1622:../../libDaisy//Drivers/CMSIS/DSP/Include/arm_math.h **** 
1623:../../libDaisy//Drivers/CMSIS/DSP/Include/arm_math.h **** 
1624:../../libDaisy//Drivers/CMSIS/DSP/Include/arm_math.h ****   /**
1625:../../libDaisy//Drivers/CMSIS/DSP/Include/arm_math.h ****    * @brief Q15 matrix multiplication (fast variant) for Cortex-M3 and Cortex-M4
1626:../../libDaisy//Drivers/CMSIS/DSP/Include/arm_math.h ****    * @param[in]  pSrcA   points to the first input matrix structure
1627:../../libDaisy//Drivers/CMSIS/DSP/Include/arm_math.h ****    * @param[in]  pSrcB   points to the second input matrix structure
1628:../../libDaisy//Drivers/CMSIS/DSP/Include/arm_math.h ****    * @param[out] pDst    points to output matrix structure
1629:../../libDaisy//Drivers/CMSIS/DSP/Include/arm_math.h ****    * @param[in]  pState  points to the array for storing intermediate results
1630:../../libDaisy//Drivers/CMSIS/DSP/Include/arm_math.h ****    * @return     The function returns either
1631:../../libDaisy//Drivers/CMSIS/DSP/Include/arm_math.h ****    * <code>ARM_MATH_SIZE_MISMATCH</code> or <code>ARM_MATH_SUCCESS</code> based on the outcome of s
1632:../../libDaisy//Drivers/CMSIS/DSP/Include/arm_math.h ****    */
1633:../../libDaisy//Drivers/CMSIS/DSP/Include/arm_math.h ****   arm_status arm_mat_mult_fast_q15(
1634:../../libDaisy//Drivers/CMSIS/DSP/Include/arm_math.h ****   const arm_matrix_instance_q15 * pSrcA,
1635:../../libDaisy//Drivers/CMSIS/DSP/Include/arm_math.h ****   const arm_matrix_instance_q15 * pSrcB,
1636:../../libDaisy//Drivers/CMSIS/DSP/Include/arm_math.h ****   arm_matrix_instance_q15 * pDst,
1637:../../libDaisy//Drivers/CMSIS/DSP/Include/arm_math.h ****   q15_t * pState);
1638:../../libDaisy//Drivers/CMSIS/DSP/Include/arm_math.h **** 
1639:../../libDaisy//Drivers/CMSIS/DSP/Include/arm_math.h **** 
1640:../../libDaisy//Drivers/CMSIS/DSP/Include/arm_math.h ****   /**
1641:../../libDaisy//Drivers/CMSIS/DSP/Include/arm_math.h ****    * @brief Q31 matrix multiplication
1642:../../libDaisy//Drivers/CMSIS/DSP/Include/arm_math.h ****    * @param[in]  pSrcA  points to the first input matrix structure
1643:../../libDaisy//Drivers/CMSIS/DSP/Include/arm_math.h ****    * @param[in]  pSrcB  points to the second input matrix structure
1644:../../libDaisy//Drivers/CMSIS/DSP/Include/arm_math.h ****    * @param[out] pDst   points to output matrix structure
1645:../../libDaisy//Drivers/CMSIS/DSP/Include/arm_math.h ****    * @return     The function returns either
1646:../../libDaisy//Drivers/CMSIS/DSP/Include/arm_math.h ****    * <code>ARM_MATH_SIZE_MISMATCH</code> or <code>ARM_MATH_SUCCESS</code> based on the outcome of s
1647:../../libDaisy//Drivers/CMSIS/DSP/Include/arm_math.h ****    */
1648:../../libDaisy//Drivers/CMSIS/DSP/Include/arm_math.h ****   arm_status arm_mat_mult_q31(
1649:../../libDaisy//Drivers/CMSIS/DSP/Include/arm_math.h ****   const arm_matrix_instance_q31 * pSrcA,
1650:../../libDaisy//Drivers/CMSIS/DSP/Include/arm_math.h ****   const arm_matrix_instance_q31 * pSrcB,
1651:../../libDaisy//Drivers/CMSIS/DSP/Include/arm_math.h ****   arm_matrix_instance_q31 * pDst);
1652:../../libDaisy//Drivers/CMSIS/DSP/Include/arm_math.h **** 
1653:../../libDaisy//Drivers/CMSIS/DSP/Include/arm_math.h **** 
1654:../../libDaisy//Drivers/CMSIS/DSP/Include/arm_math.h ****   /**
1655:../../libDaisy//Drivers/CMSIS/DSP/Include/arm_math.h ****    * @brief Q31 matrix multiplication (fast variant) for Cortex-M3 and Cortex-M4
1656:../../libDaisy//Drivers/CMSIS/DSP/Include/arm_math.h ****    * @param[in]  pSrcA  points to the first input matrix structure
1657:../../libDaisy//Drivers/CMSIS/DSP/Include/arm_math.h ****    * @param[in]  pSrcB  points to the second input matrix structure
1658:../../libDaisy//Drivers/CMSIS/DSP/Include/arm_math.h ****    * @param[out] pDst   points to output matrix structure
1659:../../libDaisy//Drivers/CMSIS/DSP/Include/arm_math.h ****    * @return     The function returns either
1660:../../libDaisy//Drivers/CMSIS/DSP/Include/arm_math.h ****    * <code>ARM_MATH_SIZE_MISMATCH</code> or <code>ARM_MATH_SUCCESS</code> based on the outcome of s
1661:../../libDaisy//Drivers/CMSIS/DSP/Include/arm_math.h ****    */
1662:../../libDaisy//Drivers/CMSIS/DSP/Include/arm_math.h ****   arm_status arm_mat_mult_fast_q31(
1663:../../libDaisy//Drivers/CMSIS/DSP/Include/arm_math.h ****   const arm_matrix_instance_q31 * pSrcA,
1664:../../libDaisy//Drivers/CMSIS/DSP/Include/arm_math.h ****   const arm_matrix_instance_q31 * pSrcB,
1665:../../libDaisy//Drivers/CMSIS/DSP/Include/arm_math.h ****   arm_matrix_instance_q31 * pDst);
1666:../../libDaisy//Drivers/CMSIS/DSP/Include/arm_math.h **** 
1667:../../libDaisy//Drivers/CMSIS/DSP/Include/arm_math.h **** 
1668:../../libDaisy//Drivers/CMSIS/DSP/Include/arm_math.h ****   /**
1669:../../libDaisy//Drivers/CMSIS/DSP/Include/arm_math.h ****    * @brief Floating-point matrix subtraction
1670:../../libDaisy//Drivers/CMSIS/DSP/Include/arm_math.h ****    * @param[in]  pSrcA  points to the first input matrix structure
1671:../../libDaisy//Drivers/CMSIS/DSP/Include/arm_math.h ****    * @param[in]  pSrcB  points to the second input matrix structure
1672:../../libDaisy//Drivers/CMSIS/DSP/Include/arm_math.h ****    * @param[out] pDst   points to output matrix structure
1673:../../libDaisy//Drivers/CMSIS/DSP/Include/arm_math.h ****    * @return     The function returns either
ARM GAS  /var/folders/hl/qgbwny5j0fd895c2c41bk3tw0000gp/T//ccr6F3ig.s 			page 33


1674:../../libDaisy//Drivers/CMSIS/DSP/Include/arm_math.h ****    * <code>ARM_MATH_SIZE_MISMATCH</code> or <code>ARM_MATH_SUCCESS</code> based on the outcome of s
1675:../../libDaisy//Drivers/CMSIS/DSP/Include/arm_math.h ****    */
1676:../../libDaisy//Drivers/CMSIS/DSP/Include/arm_math.h ****   arm_status arm_mat_sub_f32(
1677:../../libDaisy//Drivers/CMSIS/DSP/Include/arm_math.h ****   const arm_matrix_instance_f32 * pSrcA,
1678:../../libDaisy//Drivers/CMSIS/DSP/Include/arm_math.h ****   const arm_matrix_instance_f32 * pSrcB,
1679:../../libDaisy//Drivers/CMSIS/DSP/Include/arm_math.h ****   arm_matrix_instance_f32 * pDst);
1680:../../libDaisy//Drivers/CMSIS/DSP/Include/arm_math.h **** 
1681:../../libDaisy//Drivers/CMSIS/DSP/Include/arm_math.h **** 
1682:../../libDaisy//Drivers/CMSIS/DSP/Include/arm_math.h ****   /**
1683:../../libDaisy//Drivers/CMSIS/DSP/Include/arm_math.h ****    * @brief Q15 matrix subtraction
1684:../../libDaisy//Drivers/CMSIS/DSP/Include/arm_math.h ****    * @param[in]  pSrcA  points to the first input matrix structure
1685:../../libDaisy//Drivers/CMSIS/DSP/Include/arm_math.h ****    * @param[in]  pSrcB  points to the second input matrix structure
1686:../../libDaisy//Drivers/CMSIS/DSP/Include/arm_math.h ****    * @param[out] pDst   points to output matrix structure
1687:../../libDaisy//Drivers/CMSIS/DSP/Include/arm_math.h ****    * @return     The function returns either
1688:../../libDaisy//Drivers/CMSIS/DSP/Include/arm_math.h ****    * <code>ARM_MATH_SIZE_MISMATCH</code> or <code>ARM_MATH_SUCCESS</code> based on the outcome of s
1689:../../libDaisy//Drivers/CMSIS/DSP/Include/arm_math.h ****    */
1690:../../libDaisy//Drivers/CMSIS/DSP/Include/arm_math.h ****   arm_status arm_mat_sub_q15(
1691:../../libDaisy//Drivers/CMSIS/DSP/Include/arm_math.h ****   const arm_matrix_instance_q15 * pSrcA,
1692:../../libDaisy//Drivers/CMSIS/DSP/Include/arm_math.h ****   const arm_matrix_instance_q15 * pSrcB,
1693:../../libDaisy//Drivers/CMSIS/DSP/Include/arm_math.h ****   arm_matrix_instance_q15 * pDst);
1694:../../libDaisy//Drivers/CMSIS/DSP/Include/arm_math.h **** 
1695:../../libDaisy//Drivers/CMSIS/DSP/Include/arm_math.h **** 
1696:../../libDaisy//Drivers/CMSIS/DSP/Include/arm_math.h ****   /**
1697:../../libDaisy//Drivers/CMSIS/DSP/Include/arm_math.h ****    * @brief Q31 matrix subtraction
1698:../../libDaisy//Drivers/CMSIS/DSP/Include/arm_math.h ****    * @param[in]  pSrcA  points to the first input matrix structure
1699:../../libDaisy//Drivers/CMSIS/DSP/Include/arm_math.h ****    * @param[in]  pSrcB  points to the second input matrix structure
1700:../../libDaisy//Drivers/CMSIS/DSP/Include/arm_math.h ****    * @param[out] pDst   points to output matrix structure
1701:../../libDaisy//Drivers/CMSIS/DSP/Include/arm_math.h ****    * @return     The function returns either
1702:../../libDaisy//Drivers/CMSIS/DSP/Include/arm_math.h ****    * <code>ARM_MATH_SIZE_MISMATCH</code> or <code>ARM_MATH_SUCCESS</code> based on the outcome of s
1703:../../libDaisy//Drivers/CMSIS/DSP/Include/arm_math.h ****    */
1704:../../libDaisy//Drivers/CMSIS/DSP/Include/arm_math.h ****   arm_status arm_mat_sub_q31(
1705:../../libDaisy//Drivers/CMSIS/DSP/Include/arm_math.h ****   const arm_matrix_instance_q31 * pSrcA,
1706:../../libDaisy//Drivers/CMSIS/DSP/Include/arm_math.h ****   const arm_matrix_instance_q31 * pSrcB,
1707:../../libDaisy//Drivers/CMSIS/DSP/Include/arm_math.h ****   arm_matrix_instance_q31 * pDst);
1708:../../libDaisy//Drivers/CMSIS/DSP/Include/arm_math.h **** 
1709:../../libDaisy//Drivers/CMSIS/DSP/Include/arm_math.h **** 
1710:../../libDaisy//Drivers/CMSIS/DSP/Include/arm_math.h ****   /**
1711:../../libDaisy//Drivers/CMSIS/DSP/Include/arm_math.h ****    * @brief Floating-point matrix scaling.
1712:../../libDaisy//Drivers/CMSIS/DSP/Include/arm_math.h ****    * @param[in]  pSrc   points to the input matrix
1713:../../libDaisy//Drivers/CMSIS/DSP/Include/arm_math.h ****    * @param[in]  scale  scale factor
1714:../../libDaisy//Drivers/CMSIS/DSP/Include/arm_math.h ****    * @param[out] pDst   points to the output matrix
1715:../../libDaisy//Drivers/CMSIS/DSP/Include/arm_math.h ****    * @return     The function returns either
1716:../../libDaisy//Drivers/CMSIS/DSP/Include/arm_math.h ****    * <code>ARM_MATH_SIZE_MISMATCH</code> or <code>ARM_MATH_SUCCESS</code> based on the outcome of s
1717:../../libDaisy//Drivers/CMSIS/DSP/Include/arm_math.h ****    */
1718:../../libDaisy//Drivers/CMSIS/DSP/Include/arm_math.h ****   arm_status arm_mat_scale_f32(
1719:../../libDaisy//Drivers/CMSIS/DSP/Include/arm_math.h ****   const arm_matrix_instance_f32 * pSrc,
1720:../../libDaisy//Drivers/CMSIS/DSP/Include/arm_math.h ****   float32_t scale,
1721:../../libDaisy//Drivers/CMSIS/DSP/Include/arm_math.h ****   arm_matrix_instance_f32 * pDst);
1722:../../libDaisy//Drivers/CMSIS/DSP/Include/arm_math.h **** 
1723:../../libDaisy//Drivers/CMSIS/DSP/Include/arm_math.h **** 
1724:../../libDaisy//Drivers/CMSIS/DSP/Include/arm_math.h ****   /**
1725:../../libDaisy//Drivers/CMSIS/DSP/Include/arm_math.h ****    * @brief Q15 matrix scaling.
1726:../../libDaisy//Drivers/CMSIS/DSP/Include/arm_math.h ****    * @param[in]  pSrc        points to input matrix
1727:../../libDaisy//Drivers/CMSIS/DSP/Include/arm_math.h ****    * @param[in]  scaleFract  fractional portion of the scale factor
1728:../../libDaisy//Drivers/CMSIS/DSP/Include/arm_math.h ****    * @param[in]  shift       number of bits to shift the result by
1729:../../libDaisy//Drivers/CMSIS/DSP/Include/arm_math.h ****    * @param[out] pDst        points to output matrix
1730:../../libDaisy//Drivers/CMSIS/DSP/Include/arm_math.h ****    * @return     The function returns either
ARM GAS  /var/folders/hl/qgbwny5j0fd895c2c41bk3tw0000gp/T//ccr6F3ig.s 			page 34


1731:../../libDaisy//Drivers/CMSIS/DSP/Include/arm_math.h ****    * <code>ARM_MATH_SIZE_MISMATCH</code> or <code>ARM_MATH_SUCCESS</code> based on the outcome of s
1732:../../libDaisy//Drivers/CMSIS/DSP/Include/arm_math.h ****    */
1733:../../libDaisy//Drivers/CMSIS/DSP/Include/arm_math.h ****   arm_status arm_mat_scale_q15(
1734:../../libDaisy//Drivers/CMSIS/DSP/Include/arm_math.h ****   const arm_matrix_instance_q15 * pSrc,
1735:../../libDaisy//Drivers/CMSIS/DSP/Include/arm_math.h ****   q15_t scaleFract,
1736:../../libDaisy//Drivers/CMSIS/DSP/Include/arm_math.h ****   int32_t shift,
1737:../../libDaisy//Drivers/CMSIS/DSP/Include/arm_math.h ****   arm_matrix_instance_q15 * pDst);
1738:../../libDaisy//Drivers/CMSIS/DSP/Include/arm_math.h **** 
1739:../../libDaisy//Drivers/CMSIS/DSP/Include/arm_math.h **** 
1740:../../libDaisy//Drivers/CMSIS/DSP/Include/arm_math.h ****   /**
1741:../../libDaisy//Drivers/CMSIS/DSP/Include/arm_math.h ****    * @brief Q31 matrix scaling.
1742:../../libDaisy//Drivers/CMSIS/DSP/Include/arm_math.h ****    * @param[in]  pSrc        points to input matrix
1743:../../libDaisy//Drivers/CMSIS/DSP/Include/arm_math.h ****    * @param[in]  scaleFract  fractional portion of the scale factor
1744:../../libDaisy//Drivers/CMSIS/DSP/Include/arm_math.h ****    * @param[in]  shift       number of bits to shift the result by
1745:../../libDaisy//Drivers/CMSIS/DSP/Include/arm_math.h ****    * @param[out] pDst        points to output matrix structure
1746:../../libDaisy//Drivers/CMSIS/DSP/Include/arm_math.h ****    * @return     The function returns either
1747:../../libDaisy//Drivers/CMSIS/DSP/Include/arm_math.h ****    * <code>ARM_MATH_SIZE_MISMATCH</code> or <code>ARM_MATH_SUCCESS</code> based on the outcome of s
1748:../../libDaisy//Drivers/CMSIS/DSP/Include/arm_math.h ****    */
1749:../../libDaisy//Drivers/CMSIS/DSP/Include/arm_math.h ****   arm_status arm_mat_scale_q31(
1750:../../libDaisy//Drivers/CMSIS/DSP/Include/arm_math.h ****   const arm_matrix_instance_q31 * pSrc,
1751:../../libDaisy//Drivers/CMSIS/DSP/Include/arm_math.h ****   q31_t scaleFract,
1752:../../libDaisy//Drivers/CMSIS/DSP/Include/arm_math.h ****   int32_t shift,
1753:../../libDaisy//Drivers/CMSIS/DSP/Include/arm_math.h ****   arm_matrix_instance_q31 * pDst);
1754:../../libDaisy//Drivers/CMSIS/DSP/Include/arm_math.h **** 
1755:../../libDaisy//Drivers/CMSIS/DSP/Include/arm_math.h **** 
1756:../../libDaisy//Drivers/CMSIS/DSP/Include/arm_math.h ****   /**
1757:../../libDaisy//Drivers/CMSIS/DSP/Include/arm_math.h ****    * @brief  Q31 matrix initialization.
1758:../../libDaisy//Drivers/CMSIS/DSP/Include/arm_math.h ****    * @param[in,out] S         points to an instance of the floating-point matrix structure.
1759:../../libDaisy//Drivers/CMSIS/DSP/Include/arm_math.h ****    * @param[in]     nRows     number of rows in the matrix.
1760:../../libDaisy//Drivers/CMSIS/DSP/Include/arm_math.h ****    * @param[in]     nColumns  number of columns in the matrix.
1761:../../libDaisy//Drivers/CMSIS/DSP/Include/arm_math.h ****    * @param[in]     pData     points to the matrix data array.
1762:../../libDaisy//Drivers/CMSIS/DSP/Include/arm_math.h ****    */
1763:../../libDaisy//Drivers/CMSIS/DSP/Include/arm_math.h ****   void arm_mat_init_q31(
1764:../../libDaisy//Drivers/CMSIS/DSP/Include/arm_math.h ****   arm_matrix_instance_q31 * S,
1765:../../libDaisy//Drivers/CMSIS/DSP/Include/arm_math.h ****   uint16_t nRows,
1766:../../libDaisy//Drivers/CMSIS/DSP/Include/arm_math.h ****   uint16_t nColumns,
1767:../../libDaisy//Drivers/CMSIS/DSP/Include/arm_math.h ****   q31_t * pData);
1768:../../libDaisy//Drivers/CMSIS/DSP/Include/arm_math.h **** 
1769:../../libDaisy//Drivers/CMSIS/DSP/Include/arm_math.h **** 
1770:../../libDaisy//Drivers/CMSIS/DSP/Include/arm_math.h ****   /**
1771:../../libDaisy//Drivers/CMSIS/DSP/Include/arm_math.h ****    * @brief  Q15 matrix initialization.
1772:../../libDaisy//Drivers/CMSIS/DSP/Include/arm_math.h ****    * @param[in,out] S         points to an instance of the floating-point matrix structure.
1773:../../libDaisy//Drivers/CMSIS/DSP/Include/arm_math.h ****    * @param[in]     nRows     number of rows in the matrix.
1774:../../libDaisy//Drivers/CMSIS/DSP/Include/arm_math.h ****    * @param[in]     nColumns  number of columns in the matrix.
1775:../../libDaisy//Drivers/CMSIS/DSP/Include/arm_math.h ****    * @param[in]     pData     points to the matrix data array.
1776:../../libDaisy//Drivers/CMSIS/DSP/Include/arm_math.h ****    */
1777:../../libDaisy//Drivers/CMSIS/DSP/Include/arm_math.h ****   void arm_mat_init_q15(
1778:../../libDaisy//Drivers/CMSIS/DSP/Include/arm_math.h ****   arm_matrix_instance_q15 * S,
1779:../../libDaisy//Drivers/CMSIS/DSP/Include/arm_math.h ****   uint16_t nRows,
1780:../../libDaisy//Drivers/CMSIS/DSP/Include/arm_math.h ****   uint16_t nColumns,
1781:../../libDaisy//Drivers/CMSIS/DSP/Include/arm_math.h ****   q15_t * pData);
1782:../../libDaisy//Drivers/CMSIS/DSP/Include/arm_math.h **** 
1783:../../libDaisy//Drivers/CMSIS/DSP/Include/arm_math.h **** 
1784:../../libDaisy//Drivers/CMSIS/DSP/Include/arm_math.h ****   /**
1785:../../libDaisy//Drivers/CMSIS/DSP/Include/arm_math.h ****    * @brief  Floating-point matrix initialization.
1786:../../libDaisy//Drivers/CMSIS/DSP/Include/arm_math.h ****    * @param[in,out] S         points to an instance of the floating-point matrix structure.
1787:../../libDaisy//Drivers/CMSIS/DSP/Include/arm_math.h ****    * @param[in]     nRows     number of rows in the matrix.
ARM GAS  /var/folders/hl/qgbwny5j0fd895c2c41bk3tw0000gp/T//ccr6F3ig.s 			page 35


1788:../../libDaisy//Drivers/CMSIS/DSP/Include/arm_math.h ****    * @param[in]     nColumns  number of columns in the matrix.
1789:../../libDaisy//Drivers/CMSIS/DSP/Include/arm_math.h ****    * @param[in]     pData     points to the matrix data array.
1790:../../libDaisy//Drivers/CMSIS/DSP/Include/arm_math.h ****    */
1791:../../libDaisy//Drivers/CMSIS/DSP/Include/arm_math.h ****   void arm_mat_init_f32(
1792:../../libDaisy//Drivers/CMSIS/DSP/Include/arm_math.h ****   arm_matrix_instance_f32 * S,
1793:../../libDaisy//Drivers/CMSIS/DSP/Include/arm_math.h ****   uint16_t nRows,
1794:../../libDaisy//Drivers/CMSIS/DSP/Include/arm_math.h ****   uint16_t nColumns,
1795:../../libDaisy//Drivers/CMSIS/DSP/Include/arm_math.h ****   float32_t * pData);
1796:../../libDaisy//Drivers/CMSIS/DSP/Include/arm_math.h **** 
1797:../../libDaisy//Drivers/CMSIS/DSP/Include/arm_math.h **** 
1798:../../libDaisy//Drivers/CMSIS/DSP/Include/arm_math.h **** 
1799:../../libDaisy//Drivers/CMSIS/DSP/Include/arm_math.h ****   /**
1800:../../libDaisy//Drivers/CMSIS/DSP/Include/arm_math.h ****    * @brief Instance structure for the Q15 PID Control.
1801:../../libDaisy//Drivers/CMSIS/DSP/Include/arm_math.h ****    */
1802:../../libDaisy//Drivers/CMSIS/DSP/Include/arm_math.h ****   typedef struct
1803:../../libDaisy//Drivers/CMSIS/DSP/Include/arm_math.h ****   {
1804:../../libDaisy//Drivers/CMSIS/DSP/Include/arm_math.h ****     q15_t A0;           /**< The derived gain, A0 = Kp + Ki + Kd . */
1805:../../libDaisy//Drivers/CMSIS/DSP/Include/arm_math.h **** #if !defined (ARM_MATH_DSP)
1806:../../libDaisy//Drivers/CMSIS/DSP/Include/arm_math.h ****     q15_t A1;
1807:../../libDaisy//Drivers/CMSIS/DSP/Include/arm_math.h ****     q15_t A2;
1808:../../libDaisy//Drivers/CMSIS/DSP/Include/arm_math.h **** #else
1809:../../libDaisy//Drivers/CMSIS/DSP/Include/arm_math.h ****     q31_t A1;           /**< The derived gain A1 = -Kp - 2Kd | Kd.*/
1810:../../libDaisy//Drivers/CMSIS/DSP/Include/arm_math.h **** #endif
1811:../../libDaisy//Drivers/CMSIS/DSP/Include/arm_math.h ****     q15_t state[3];     /**< The state array of length 3. */
1812:../../libDaisy//Drivers/CMSIS/DSP/Include/arm_math.h ****     q15_t Kp;           /**< The proportional gain. */
1813:../../libDaisy//Drivers/CMSIS/DSP/Include/arm_math.h ****     q15_t Ki;           /**< The integral gain. */
1814:../../libDaisy//Drivers/CMSIS/DSP/Include/arm_math.h ****     q15_t Kd;           /**< The derivative gain. */
1815:../../libDaisy//Drivers/CMSIS/DSP/Include/arm_math.h ****   } arm_pid_instance_q15;
1816:../../libDaisy//Drivers/CMSIS/DSP/Include/arm_math.h **** 
1817:../../libDaisy//Drivers/CMSIS/DSP/Include/arm_math.h ****   /**
1818:../../libDaisy//Drivers/CMSIS/DSP/Include/arm_math.h ****    * @brief Instance structure for the Q31 PID Control.
1819:../../libDaisy//Drivers/CMSIS/DSP/Include/arm_math.h ****    */
1820:../../libDaisy//Drivers/CMSIS/DSP/Include/arm_math.h ****   typedef struct
1821:../../libDaisy//Drivers/CMSIS/DSP/Include/arm_math.h ****   {
1822:../../libDaisy//Drivers/CMSIS/DSP/Include/arm_math.h ****     q31_t A0;            /**< The derived gain, A0 = Kp + Ki + Kd . */
1823:../../libDaisy//Drivers/CMSIS/DSP/Include/arm_math.h ****     q31_t A1;            /**< The derived gain, A1 = -Kp - 2Kd. */
1824:../../libDaisy//Drivers/CMSIS/DSP/Include/arm_math.h ****     q31_t A2;            /**< The derived gain, A2 = Kd . */
1825:../../libDaisy//Drivers/CMSIS/DSP/Include/arm_math.h ****     q31_t state[3];      /**< The state array of length 3. */
1826:../../libDaisy//Drivers/CMSIS/DSP/Include/arm_math.h ****     q31_t Kp;            /**< The proportional gain. */
1827:../../libDaisy//Drivers/CMSIS/DSP/Include/arm_math.h ****     q31_t Ki;            /**< The integral gain. */
1828:../../libDaisy//Drivers/CMSIS/DSP/Include/arm_math.h ****     q31_t Kd;            /**< The derivative gain. */
1829:../../libDaisy//Drivers/CMSIS/DSP/Include/arm_math.h ****   } arm_pid_instance_q31;
1830:../../libDaisy//Drivers/CMSIS/DSP/Include/arm_math.h **** 
1831:../../libDaisy//Drivers/CMSIS/DSP/Include/arm_math.h ****   /**
1832:../../libDaisy//Drivers/CMSIS/DSP/Include/arm_math.h ****    * @brief Instance structure for the floating-point PID Control.
1833:../../libDaisy//Drivers/CMSIS/DSP/Include/arm_math.h ****    */
1834:../../libDaisy//Drivers/CMSIS/DSP/Include/arm_math.h ****   typedef struct
1835:../../libDaisy//Drivers/CMSIS/DSP/Include/arm_math.h ****   {
1836:../../libDaisy//Drivers/CMSIS/DSP/Include/arm_math.h ****     float32_t A0;          /**< The derived gain, A0 = Kp + Ki + Kd . */
1837:../../libDaisy//Drivers/CMSIS/DSP/Include/arm_math.h ****     float32_t A1;          /**< The derived gain, A1 = -Kp - 2Kd. */
1838:../../libDaisy//Drivers/CMSIS/DSP/Include/arm_math.h ****     float32_t A2;          /**< The derived gain, A2 = Kd . */
1839:../../libDaisy//Drivers/CMSIS/DSP/Include/arm_math.h ****     float32_t state[3];    /**< The state array of length 3. */
1840:../../libDaisy//Drivers/CMSIS/DSP/Include/arm_math.h ****     float32_t Kp;          /**< The proportional gain. */
1841:../../libDaisy//Drivers/CMSIS/DSP/Include/arm_math.h ****     float32_t Ki;          /**< The integral gain. */
1842:../../libDaisy//Drivers/CMSIS/DSP/Include/arm_math.h ****     float32_t Kd;          /**< The derivative gain. */
1843:../../libDaisy//Drivers/CMSIS/DSP/Include/arm_math.h ****   } arm_pid_instance_f32;
1844:../../libDaisy//Drivers/CMSIS/DSP/Include/arm_math.h **** 
ARM GAS  /var/folders/hl/qgbwny5j0fd895c2c41bk3tw0000gp/T//ccr6F3ig.s 			page 36


1845:../../libDaisy//Drivers/CMSIS/DSP/Include/arm_math.h **** 
1846:../../libDaisy//Drivers/CMSIS/DSP/Include/arm_math.h **** 
1847:../../libDaisy//Drivers/CMSIS/DSP/Include/arm_math.h ****   /**
1848:../../libDaisy//Drivers/CMSIS/DSP/Include/arm_math.h ****    * @brief  Initialization function for the floating-point PID Control.
1849:../../libDaisy//Drivers/CMSIS/DSP/Include/arm_math.h ****    * @param[in,out] S               points to an instance of the PID structure.
1850:../../libDaisy//Drivers/CMSIS/DSP/Include/arm_math.h ****    * @param[in]     resetStateFlag  flag to reset the state. 0 = no change in state 1 = reset the s
1851:../../libDaisy//Drivers/CMSIS/DSP/Include/arm_math.h ****    */
1852:../../libDaisy//Drivers/CMSIS/DSP/Include/arm_math.h ****   void arm_pid_init_f32(
1853:../../libDaisy//Drivers/CMSIS/DSP/Include/arm_math.h ****   arm_pid_instance_f32 * S,
1854:../../libDaisy//Drivers/CMSIS/DSP/Include/arm_math.h ****   int32_t resetStateFlag);
1855:../../libDaisy//Drivers/CMSIS/DSP/Include/arm_math.h **** 
1856:../../libDaisy//Drivers/CMSIS/DSP/Include/arm_math.h **** 
1857:../../libDaisy//Drivers/CMSIS/DSP/Include/arm_math.h ****   /**
1858:../../libDaisy//Drivers/CMSIS/DSP/Include/arm_math.h ****    * @brief  Reset function for the floating-point PID Control.
1859:../../libDaisy//Drivers/CMSIS/DSP/Include/arm_math.h ****    * @param[in,out] S  is an instance of the floating-point PID Control structure
1860:../../libDaisy//Drivers/CMSIS/DSP/Include/arm_math.h ****    */
1861:../../libDaisy//Drivers/CMSIS/DSP/Include/arm_math.h ****   void arm_pid_reset_f32(
1862:../../libDaisy//Drivers/CMSIS/DSP/Include/arm_math.h ****   arm_pid_instance_f32 * S);
1863:../../libDaisy//Drivers/CMSIS/DSP/Include/arm_math.h **** 
1864:../../libDaisy//Drivers/CMSIS/DSP/Include/arm_math.h **** 
1865:../../libDaisy//Drivers/CMSIS/DSP/Include/arm_math.h ****   /**
1866:../../libDaisy//Drivers/CMSIS/DSP/Include/arm_math.h ****    * @brief  Initialization function for the Q31 PID Control.
1867:../../libDaisy//Drivers/CMSIS/DSP/Include/arm_math.h ****    * @param[in,out] S               points to an instance of the Q15 PID structure.
1868:../../libDaisy//Drivers/CMSIS/DSP/Include/arm_math.h ****    * @param[in]     resetStateFlag  flag to reset the state. 0 = no change in state 1 = reset the s
1869:../../libDaisy//Drivers/CMSIS/DSP/Include/arm_math.h ****    */
1870:../../libDaisy//Drivers/CMSIS/DSP/Include/arm_math.h ****   void arm_pid_init_q31(
1871:../../libDaisy//Drivers/CMSIS/DSP/Include/arm_math.h ****   arm_pid_instance_q31 * S,
1872:../../libDaisy//Drivers/CMSIS/DSP/Include/arm_math.h ****   int32_t resetStateFlag);
1873:../../libDaisy//Drivers/CMSIS/DSP/Include/arm_math.h **** 
1874:../../libDaisy//Drivers/CMSIS/DSP/Include/arm_math.h **** 
1875:../../libDaisy//Drivers/CMSIS/DSP/Include/arm_math.h ****   /**
1876:../../libDaisy//Drivers/CMSIS/DSP/Include/arm_math.h ****    * @brief  Reset function for the Q31 PID Control.
1877:../../libDaisy//Drivers/CMSIS/DSP/Include/arm_math.h ****    * @param[in,out] S   points to an instance of the Q31 PID Control structure
1878:../../libDaisy//Drivers/CMSIS/DSP/Include/arm_math.h ****    */
1879:../../libDaisy//Drivers/CMSIS/DSP/Include/arm_math.h **** 
1880:../../libDaisy//Drivers/CMSIS/DSP/Include/arm_math.h ****   void arm_pid_reset_q31(
1881:../../libDaisy//Drivers/CMSIS/DSP/Include/arm_math.h ****   arm_pid_instance_q31 * S);
1882:../../libDaisy//Drivers/CMSIS/DSP/Include/arm_math.h **** 
1883:../../libDaisy//Drivers/CMSIS/DSP/Include/arm_math.h **** 
1884:../../libDaisy//Drivers/CMSIS/DSP/Include/arm_math.h ****   /**
1885:../../libDaisy//Drivers/CMSIS/DSP/Include/arm_math.h ****    * @brief  Initialization function for the Q15 PID Control.
1886:../../libDaisy//Drivers/CMSIS/DSP/Include/arm_math.h ****    * @param[in,out] S               points to an instance of the Q15 PID structure.
1887:../../libDaisy//Drivers/CMSIS/DSP/Include/arm_math.h ****    * @param[in]     resetStateFlag  flag to reset the state. 0 = no change in state 1 = reset the s
1888:../../libDaisy//Drivers/CMSIS/DSP/Include/arm_math.h ****    */
1889:../../libDaisy//Drivers/CMSIS/DSP/Include/arm_math.h ****   void arm_pid_init_q15(
1890:../../libDaisy//Drivers/CMSIS/DSP/Include/arm_math.h ****   arm_pid_instance_q15 * S,
1891:../../libDaisy//Drivers/CMSIS/DSP/Include/arm_math.h ****   int32_t resetStateFlag);
1892:../../libDaisy//Drivers/CMSIS/DSP/Include/arm_math.h **** 
1893:../../libDaisy//Drivers/CMSIS/DSP/Include/arm_math.h **** 
1894:../../libDaisy//Drivers/CMSIS/DSP/Include/arm_math.h ****   /**
1895:../../libDaisy//Drivers/CMSIS/DSP/Include/arm_math.h ****    * @brief  Reset function for the Q15 PID Control.
1896:../../libDaisy//Drivers/CMSIS/DSP/Include/arm_math.h ****    * @param[in,out] S  points to an instance of the q15 PID Control structure
1897:../../libDaisy//Drivers/CMSIS/DSP/Include/arm_math.h ****    */
1898:../../libDaisy//Drivers/CMSIS/DSP/Include/arm_math.h ****   void arm_pid_reset_q15(
1899:../../libDaisy//Drivers/CMSIS/DSP/Include/arm_math.h ****   arm_pid_instance_q15 * S);
1900:../../libDaisy//Drivers/CMSIS/DSP/Include/arm_math.h **** 
1901:../../libDaisy//Drivers/CMSIS/DSP/Include/arm_math.h **** 
ARM GAS  /var/folders/hl/qgbwny5j0fd895c2c41bk3tw0000gp/T//ccr6F3ig.s 			page 37


1902:../../libDaisy//Drivers/CMSIS/DSP/Include/arm_math.h ****   /**
1903:../../libDaisy//Drivers/CMSIS/DSP/Include/arm_math.h ****    * @brief Instance structure for the floating-point Linear Interpolate function.
1904:../../libDaisy//Drivers/CMSIS/DSP/Include/arm_math.h ****    */
1905:../../libDaisy//Drivers/CMSIS/DSP/Include/arm_math.h ****   typedef struct
1906:../../libDaisy//Drivers/CMSIS/DSP/Include/arm_math.h ****   {
1907:../../libDaisy//Drivers/CMSIS/DSP/Include/arm_math.h ****     uint32_t nValues;           /**< nValues */
1908:../../libDaisy//Drivers/CMSIS/DSP/Include/arm_math.h ****     float32_t x1;               /**< x1 */
1909:../../libDaisy//Drivers/CMSIS/DSP/Include/arm_math.h ****     float32_t xSpacing;         /**< xSpacing */
1910:../../libDaisy//Drivers/CMSIS/DSP/Include/arm_math.h ****     float32_t *pYData;          /**< pointer to the table of Y values */
1911:../../libDaisy//Drivers/CMSIS/DSP/Include/arm_math.h ****   } arm_linear_interp_instance_f32;
1912:../../libDaisy//Drivers/CMSIS/DSP/Include/arm_math.h **** 
1913:../../libDaisy//Drivers/CMSIS/DSP/Include/arm_math.h ****   /**
1914:../../libDaisy//Drivers/CMSIS/DSP/Include/arm_math.h ****    * @brief Instance structure for the floating-point bilinear interpolation function.
1915:../../libDaisy//Drivers/CMSIS/DSP/Include/arm_math.h ****    */
1916:../../libDaisy//Drivers/CMSIS/DSP/Include/arm_math.h ****   typedef struct
1917:../../libDaisy//Drivers/CMSIS/DSP/Include/arm_math.h ****   {
1918:../../libDaisy//Drivers/CMSIS/DSP/Include/arm_math.h ****     uint16_t numRows;   /**< number of rows in the data table. */
1919:../../libDaisy//Drivers/CMSIS/DSP/Include/arm_math.h ****     uint16_t numCols;   /**< number of columns in the data table. */
1920:../../libDaisy//Drivers/CMSIS/DSP/Include/arm_math.h ****     float32_t *pData;   /**< points to the data table. */
1921:../../libDaisy//Drivers/CMSIS/DSP/Include/arm_math.h ****   } arm_bilinear_interp_instance_f32;
1922:../../libDaisy//Drivers/CMSIS/DSP/Include/arm_math.h **** 
1923:../../libDaisy//Drivers/CMSIS/DSP/Include/arm_math.h ****    /**
1924:../../libDaisy//Drivers/CMSIS/DSP/Include/arm_math.h ****    * @brief Instance structure for the Q31 bilinear interpolation function.
1925:../../libDaisy//Drivers/CMSIS/DSP/Include/arm_math.h ****    */
1926:../../libDaisy//Drivers/CMSIS/DSP/Include/arm_math.h ****   typedef struct
1927:../../libDaisy//Drivers/CMSIS/DSP/Include/arm_math.h ****   {
1928:../../libDaisy//Drivers/CMSIS/DSP/Include/arm_math.h ****     uint16_t numRows;   /**< number of rows in the data table. */
1929:../../libDaisy//Drivers/CMSIS/DSP/Include/arm_math.h ****     uint16_t numCols;   /**< number of columns in the data table. */
1930:../../libDaisy//Drivers/CMSIS/DSP/Include/arm_math.h ****     q31_t *pData;       /**< points to the data table. */
1931:../../libDaisy//Drivers/CMSIS/DSP/Include/arm_math.h ****   } arm_bilinear_interp_instance_q31;
1932:../../libDaisy//Drivers/CMSIS/DSP/Include/arm_math.h **** 
1933:../../libDaisy//Drivers/CMSIS/DSP/Include/arm_math.h ****    /**
1934:../../libDaisy//Drivers/CMSIS/DSP/Include/arm_math.h ****    * @brief Instance structure for the Q15 bilinear interpolation function.
1935:../../libDaisy//Drivers/CMSIS/DSP/Include/arm_math.h ****    */
1936:../../libDaisy//Drivers/CMSIS/DSP/Include/arm_math.h ****   typedef struct
1937:../../libDaisy//Drivers/CMSIS/DSP/Include/arm_math.h ****   {
1938:../../libDaisy//Drivers/CMSIS/DSP/Include/arm_math.h ****     uint16_t numRows;   /**< number of rows in the data table. */
1939:../../libDaisy//Drivers/CMSIS/DSP/Include/arm_math.h ****     uint16_t numCols;   /**< number of columns in the data table. */
1940:../../libDaisy//Drivers/CMSIS/DSP/Include/arm_math.h ****     q15_t *pData;       /**< points to the data table. */
1941:../../libDaisy//Drivers/CMSIS/DSP/Include/arm_math.h ****   } arm_bilinear_interp_instance_q15;
1942:../../libDaisy//Drivers/CMSIS/DSP/Include/arm_math.h **** 
1943:../../libDaisy//Drivers/CMSIS/DSP/Include/arm_math.h ****    /**
1944:../../libDaisy//Drivers/CMSIS/DSP/Include/arm_math.h ****    * @brief Instance structure for the Q15 bilinear interpolation function.
1945:../../libDaisy//Drivers/CMSIS/DSP/Include/arm_math.h ****    */
1946:../../libDaisy//Drivers/CMSIS/DSP/Include/arm_math.h ****   typedef struct
1947:../../libDaisy//Drivers/CMSIS/DSP/Include/arm_math.h ****   {
1948:../../libDaisy//Drivers/CMSIS/DSP/Include/arm_math.h ****     uint16_t numRows;   /**< number of rows in the data table. */
1949:../../libDaisy//Drivers/CMSIS/DSP/Include/arm_math.h ****     uint16_t numCols;   /**< number of columns in the data table. */
1950:../../libDaisy//Drivers/CMSIS/DSP/Include/arm_math.h ****     q7_t *pData;        /**< points to the data table. */
1951:../../libDaisy//Drivers/CMSIS/DSP/Include/arm_math.h ****   } arm_bilinear_interp_instance_q7;
1952:../../libDaisy//Drivers/CMSIS/DSP/Include/arm_math.h **** 
1953:../../libDaisy//Drivers/CMSIS/DSP/Include/arm_math.h **** 
1954:../../libDaisy//Drivers/CMSIS/DSP/Include/arm_math.h ****   /**
1955:../../libDaisy//Drivers/CMSIS/DSP/Include/arm_math.h ****    * @brief Q7 vector multiplication.
1956:../../libDaisy//Drivers/CMSIS/DSP/Include/arm_math.h ****    * @param[in]  pSrcA      points to the first input vector
1957:../../libDaisy//Drivers/CMSIS/DSP/Include/arm_math.h ****    * @param[in]  pSrcB      points to the second input vector
1958:../../libDaisy//Drivers/CMSIS/DSP/Include/arm_math.h ****    * @param[out] pDst       points to the output vector
ARM GAS  /var/folders/hl/qgbwny5j0fd895c2c41bk3tw0000gp/T//ccr6F3ig.s 			page 38


1959:../../libDaisy//Drivers/CMSIS/DSP/Include/arm_math.h ****    * @param[in]  blockSize  number of samples in each vector
1960:../../libDaisy//Drivers/CMSIS/DSP/Include/arm_math.h ****    */
1961:../../libDaisy//Drivers/CMSIS/DSP/Include/arm_math.h ****   void arm_mult_q7(
1962:../../libDaisy//Drivers/CMSIS/DSP/Include/arm_math.h ****   q7_t * pSrcA,
1963:../../libDaisy//Drivers/CMSIS/DSP/Include/arm_math.h ****   q7_t * pSrcB,
1964:../../libDaisy//Drivers/CMSIS/DSP/Include/arm_math.h ****   q7_t * pDst,
1965:../../libDaisy//Drivers/CMSIS/DSP/Include/arm_math.h ****   uint32_t blockSize);
1966:../../libDaisy//Drivers/CMSIS/DSP/Include/arm_math.h **** 
1967:../../libDaisy//Drivers/CMSIS/DSP/Include/arm_math.h **** 
1968:../../libDaisy//Drivers/CMSIS/DSP/Include/arm_math.h ****   /**
1969:../../libDaisy//Drivers/CMSIS/DSP/Include/arm_math.h ****    * @brief Q15 vector multiplication.
1970:../../libDaisy//Drivers/CMSIS/DSP/Include/arm_math.h ****    * @param[in]  pSrcA      points to the first input vector
1971:../../libDaisy//Drivers/CMSIS/DSP/Include/arm_math.h ****    * @param[in]  pSrcB      points to the second input vector
1972:../../libDaisy//Drivers/CMSIS/DSP/Include/arm_math.h ****    * @param[out] pDst       points to the output vector
1973:../../libDaisy//Drivers/CMSIS/DSP/Include/arm_math.h ****    * @param[in]  blockSize  number of samples in each vector
1974:../../libDaisy//Drivers/CMSIS/DSP/Include/arm_math.h ****    */
1975:../../libDaisy//Drivers/CMSIS/DSP/Include/arm_math.h ****   void arm_mult_q15(
1976:../../libDaisy//Drivers/CMSIS/DSP/Include/arm_math.h ****   q15_t * pSrcA,
1977:../../libDaisy//Drivers/CMSIS/DSP/Include/arm_math.h ****   q15_t * pSrcB,
1978:../../libDaisy//Drivers/CMSIS/DSP/Include/arm_math.h ****   q15_t * pDst,
1979:../../libDaisy//Drivers/CMSIS/DSP/Include/arm_math.h ****   uint32_t blockSize);
1980:../../libDaisy//Drivers/CMSIS/DSP/Include/arm_math.h **** 
1981:../../libDaisy//Drivers/CMSIS/DSP/Include/arm_math.h **** 
1982:../../libDaisy//Drivers/CMSIS/DSP/Include/arm_math.h ****   /**
1983:../../libDaisy//Drivers/CMSIS/DSP/Include/arm_math.h ****    * @brief Q31 vector multiplication.
1984:../../libDaisy//Drivers/CMSIS/DSP/Include/arm_math.h ****    * @param[in]  pSrcA      points to the first input vector
1985:../../libDaisy//Drivers/CMSIS/DSP/Include/arm_math.h ****    * @param[in]  pSrcB      points to the second input vector
1986:../../libDaisy//Drivers/CMSIS/DSP/Include/arm_math.h ****    * @param[out] pDst       points to the output vector
1987:../../libDaisy//Drivers/CMSIS/DSP/Include/arm_math.h ****    * @param[in]  blockSize  number of samples in each vector
1988:../../libDaisy//Drivers/CMSIS/DSP/Include/arm_math.h ****    */
1989:../../libDaisy//Drivers/CMSIS/DSP/Include/arm_math.h ****   void arm_mult_q31(
1990:../../libDaisy//Drivers/CMSIS/DSP/Include/arm_math.h ****   q31_t * pSrcA,
1991:../../libDaisy//Drivers/CMSIS/DSP/Include/arm_math.h ****   q31_t * pSrcB,
1992:../../libDaisy//Drivers/CMSIS/DSP/Include/arm_math.h ****   q31_t * pDst,
1993:../../libDaisy//Drivers/CMSIS/DSP/Include/arm_math.h ****   uint32_t blockSize);
1994:../../libDaisy//Drivers/CMSIS/DSP/Include/arm_math.h **** 
1995:../../libDaisy//Drivers/CMSIS/DSP/Include/arm_math.h **** 
1996:../../libDaisy//Drivers/CMSIS/DSP/Include/arm_math.h ****   /**
1997:../../libDaisy//Drivers/CMSIS/DSP/Include/arm_math.h ****    * @brief Floating-point vector multiplication.
1998:../../libDaisy//Drivers/CMSIS/DSP/Include/arm_math.h ****    * @param[in]  pSrcA      points to the first input vector
1999:../../libDaisy//Drivers/CMSIS/DSP/Include/arm_math.h ****    * @param[in]  pSrcB      points to the second input vector
2000:../../libDaisy//Drivers/CMSIS/DSP/Include/arm_math.h ****    * @param[out] pDst       points to the output vector
2001:../../libDaisy//Drivers/CMSIS/DSP/Include/arm_math.h ****    * @param[in]  blockSize  number of samples in each vector
2002:../../libDaisy//Drivers/CMSIS/DSP/Include/arm_math.h ****    */
2003:../../libDaisy//Drivers/CMSIS/DSP/Include/arm_math.h ****   void arm_mult_f32(
2004:../../libDaisy//Drivers/CMSIS/DSP/Include/arm_math.h ****   float32_t * pSrcA,
2005:../../libDaisy//Drivers/CMSIS/DSP/Include/arm_math.h ****   float32_t * pSrcB,
2006:../../libDaisy//Drivers/CMSIS/DSP/Include/arm_math.h ****   float32_t * pDst,
2007:../../libDaisy//Drivers/CMSIS/DSP/Include/arm_math.h ****   uint32_t blockSize);
2008:../../libDaisy//Drivers/CMSIS/DSP/Include/arm_math.h **** 
2009:../../libDaisy//Drivers/CMSIS/DSP/Include/arm_math.h **** 
2010:../../libDaisy//Drivers/CMSIS/DSP/Include/arm_math.h ****   /**
2011:../../libDaisy//Drivers/CMSIS/DSP/Include/arm_math.h ****    * @brief Instance structure for the Q15 CFFT/CIFFT function.
2012:../../libDaisy//Drivers/CMSIS/DSP/Include/arm_math.h ****    */
2013:../../libDaisy//Drivers/CMSIS/DSP/Include/arm_math.h ****   typedef struct
2014:../../libDaisy//Drivers/CMSIS/DSP/Include/arm_math.h ****   {
2015:../../libDaisy//Drivers/CMSIS/DSP/Include/arm_math.h ****     uint16_t fftLen;                 /**< length of the FFT. */
ARM GAS  /var/folders/hl/qgbwny5j0fd895c2c41bk3tw0000gp/T//ccr6F3ig.s 			page 39


2016:../../libDaisy//Drivers/CMSIS/DSP/Include/arm_math.h ****     uint8_t ifftFlag;                /**< flag that selects forward (ifftFlag=0) or inverse (ifftFl
2017:../../libDaisy//Drivers/CMSIS/DSP/Include/arm_math.h ****     uint8_t bitReverseFlag;          /**< flag that enables (bitReverseFlag=1) or disables (bitReve
2018:../../libDaisy//Drivers/CMSIS/DSP/Include/arm_math.h ****     q15_t *pTwiddle;                 /**< points to the Sin twiddle factor table. */
2019:../../libDaisy//Drivers/CMSIS/DSP/Include/arm_math.h ****     uint16_t *pBitRevTable;          /**< points to the bit reversal table. */
2020:../../libDaisy//Drivers/CMSIS/DSP/Include/arm_math.h ****     uint16_t twidCoefModifier;       /**< twiddle coefficient modifier that supports different size
2021:../../libDaisy//Drivers/CMSIS/DSP/Include/arm_math.h ****     uint16_t bitRevFactor;           /**< bit reversal modifier that supports different size FFTs w
2022:../../libDaisy//Drivers/CMSIS/DSP/Include/arm_math.h ****   } arm_cfft_radix2_instance_q15;
2023:../../libDaisy//Drivers/CMSIS/DSP/Include/arm_math.h **** 
2024:../../libDaisy//Drivers/CMSIS/DSP/Include/arm_math.h **** /* Deprecated */
2025:../../libDaisy//Drivers/CMSIS/DSP/Include/arm_math.h ****   arm_status arm_cfft_radix2_init_q15(
2026:../../libDaisy//Drivers/CMSIS/DSP/Include/arm_math.h ****   arm_cfft_radix2_instance_q15 * S,
2027:../../libDaisy//Drivers/CMSIS/DSP/Include/arm_math.h ****   uint16_t fftLen,
2028:../../libDaisy//Drivers/CMSIS/DSP/Include/arm_math.h ****   uint8_t ifftFlag,
2029:../../libDaisy//Drivers/CMSIS/DSP/Include/arm_math.h ****   uint8_t bitReverseFlag);
2030:../../libDaisy//Drivers/CMSIS/DSP/Include/arm_math.h **** 
2031:../../libDaisy//Drivers/CMSIS/DSP/Include/arm_math.h **** /* Deprecated */
2032:../../libDaisy//Drivers/CMSIS/DSP/Include/arm_math.h ****   void arm_cfft_radix2_q15(
2033:../../libDaisy//Drivers/CMSIS/DSP/Include/arm_math.h ****   const arm_cfft_radix2_instance_q15 * S,
2034:../../libDaisy//Drivers/CMSIS/DSP/Include/arm_math.h ****   q15_t * pSrc);
2035:../../libDaisy//Drivers/CMSIS/DSP/Include/arm_math.h **** 
2036:../../libDaisy//Drivers/CMSIS/DSP/Include/arm_math.h **** 
2037:../../libDaisy//Drivers/CMSIS/DSP/Include/arm_math.h ****   /**
2038:../../libDaisy//Drivers/CMSIS/DSP/Include/arm_math.h ****    * @brief Instance structure for the Q15 CFFT/CIFFT function.
2039:../../libDaisy//Drivers/CMSIS/DSP/Include/arm_math.h ****    */
2040:../../libDaisy//Drivers/CMSIS/DSP/Include/arm_math.h ****   typedef struct
2041:../../libDaisy//Drivers/CMSIS/DSP/Include/arm_math.h ****   {
2042:../../libDaisy//Drivers/CMSIS/DSP/Include/arm_math.h ****     uint16_t fftLen;                 /**< length of the FFT. */
2043:../../libDaisy//Drivers/CMSIS/DSP/Include/arm_math.h ****     uint8_t ifftFlag;                /**< flag that selects forward (ifftFlag=0) or inverse (ifftFl
2044:../../libDaisy//Drivers/CMSIS/DSP/Include/arm_math.h ****     uint8_t bitReverseFlag;          /**< flag that enables (bitReverseFlag=1) or disables (bitReve
2045:../../libDaisy//Drivers/CMSIS/DSP/Include/arm_math.h ****     q15_t *pTwiddle;                 /**< points to the twiddle factor table. */
2046:../../libDaisy//Drivers/CMSIS/DSP/Include/arm_math.h ****     uint16_t *pBitRevTable;          /**< points to the bit reversal table. */
2047:../../libDaisy//Drivers/CMSIS/DSP/Include/arm_math.h ****     uint16_t twidCoefModifier;       /**< twiddle coefficient modifier that supports different size
2048:../../libDaisy//Drivers/CMSIS/DSP/Include/arm_math.h ****     uint16_t bitRevFactor;           /**< bit reversal modifier that supports different size FFTs w
2049:../../libDaisy//Drivers/CMSIS/DSP/Include/arm_math.h ****   } arm_cfft_radix4_instance_q15;
2050:../../libDaisy//Drivers/CMSIS/DSP/Include/arm_math.h **** 
2051:../../libDaisy//Drivers/CMSIS/DSP/Include/arm_math.h **** /* Deprecated */
2052:../../libDaisy//Drivers/CMSIS/DSP/Include/arm_math.h ****   arm_status arm_cfft_radix4_init_q15(
2053:../../libDaisy//Drivers/CMSIS/DSP/Include/arm_math.h ****   arm_cfft_radix4_instance_q15 * S,
2054:../../libDaisy//Drivers/CMSIS/DSP/Include/arm_math.h ****   uint16_t fftLen,
2055:../../libDaisy//Drivers/CMSIS/DSP/Include/arm_math.h ****   uint8_t ifftFlag,
2056:../../libDaisy//Drivers/CMSIS/DSP/Include/arm_math.h ****   uint8_t bitReverseFlag);
2057:../../libDaisy//Drivers/CMSIS/DSP/Include/arm_math.h **** 
2058:../../libDaisy//Drivers/CMSIS/DSP/Include/arm_math.h **** /* Deprecated */
2059:../../libDaisy//Drivers/CMSIS/DSP/Include/arm_math.h ****   void arm_cfft_radix4_q15(
2060:../../libDaisy//Drivers/CMSIS/DSP/Include/arm_math.h ****   const arm_cfft_radix4_instance_q15 * S,
2061:../../libDaisy//Drivers/CMSIS/DSP/Include/arm_math.h ****   q15_t * pSrc);
2062:../../libDaisy//Drivers/CMSIS/DSP/Include/arm_math.h **** 
2063:../../libDaisy//Drivers/CMSIS/DSP/Include/arm_math.h ****   /**
2064:../../libDaisy//Drivers/CMSIS/DSP/Include/arm_math.h ****    * @brief Instance structure for the Radix-2 Q31 CFFT/CIFFT function.
2065:../../libDaisy//Drivers/CMSIS/DSP/Include/arm_math.h ****    */
2066:../../libDaisy//Drivers/CMSIS/DSP/Include/arm_math.h ****   typedef struct
2067:../../libDaisy//Drivers/CMSIS/DSP/Include/arm_math.h ****   {
2068:../../libDaisy//Drivers/CMSIS/DSP/Include/arm_math.h ****     uint16_t fftLen;                 /**< length of the FFT. */
2069:../../libDaisy//Drivers/CMSIS/DSP/Include/arm_math.h ****     uint8_t ifftFlag;                /**< flag that selects forward (ifftFlag=0) or inverse (ifftFl
2070:../../libDaisy//Drivers/CMSIS/DSP/Include/arm_math.h ****     uint8_t bitReverseFlag;          /**< flag that enables (bitReverseFlag=1) or disables (bitReve
2071:../../libDaisy//Drivers/CMSIS/DSP/Include/arm_math.h ****     q31_t *pTwiddle;                 /**< points to the Twiddle factor table. */
2072:../../libDaisy//Drivers/CMSIS/DSP/Include/arm_math.h ****     uint16_t *pBitRevTable;          /**< points to the bit reversal table. */
ARM GAS  /var/folders/hl/qgbwny5j0fd895c2c41bk3tw0000gp/T//ccr6F3ig.s 			page 40


2073:../../libDaisy//Drivers/CMSIS/DSP/Include/arm_math.h ****     uint16_t twidCoefModifier;       /**< twiddle coefficient modifier that supports different size
2074:../../libDaisy//Drivers/CMSIS/DSP/Include/arm_math.h ****     uint16_t bitRevFactor;           /**< bit reversal modifier that supports different size FFTs w
2075:../../libDaisy//Drivers/CMSIS/DSP/Include/arm_math.h ****   } arm_cfft_radix2_instance_q31;
2076:../../libDaisy//Drivers/CMSIS/DSP/Include/arm_math.h **** 
2077:../../libDaisy//Drivers/CMSIS/DSP/Include/arm_math.h **** /* Deprecated */
2078:../../libDaisy//Drivers/CMSIS/DSP/Include/arm_math.h ****   arm_status arm_cfft_radix2_init_q31(
2079:../../libDaisy//Drivers/CMSIS/DSP/Include/arm_math.h ****   arm_cfft_radix2_instance_q31 * S,
2080:../../libDaisy//Drivers/CMSIS/DSP/Include/arm_math.h ****   uint16_t fftLen,
2081:../../libDaisy//Drivers/CMSIS/DSP/Include/arm_math.h ****   uint8_t ifftFlag,
2082:../../libDaisy//Drivers/CMSIS/DSP/Include/arm_math.h ****   uint8_t bitReverseFlag);
2083:../../libDaisy//Drivers/CMSIS/DSP/Include/arm_math.h **** 
2084:../../libDaisy//Drivers/CMSIS/DSP/Include/arm_math.h **** /* Deprecated */
2085:../../libDaisy//Drivers/CMSIS/DSP/Include/arm_math.h ****   void arm_cfft_radix2_q31(
2086:../../libDaisy//Drivers/CMSIS/DSP/Include/arm_math.h ****   const arm_cfft_radix2_instance_q31 * S,
2087:../../libDaisy//Drivers/CMSIS/DSP/Include/arm_math.h ****   q31_t * pSrc);
2088:../../libDaisy//Drivers/CMSIS/DSP/Include/arm_math.h **** 
2089:../../libDaisy//Drivers/CMSIS/DSP/Include/arm_math.h ****   /**
2090:../../libDaisy//Drivers/CMSIS/DSP/Include/arm_math.h ****    * @brief Instance structure for the Q31 CFFT/CIFFT function.
2091:../../libDaisy//Drivers/CMSIS/DSP/Include/arm_math.h ****    */
2092:../../libDaisy//Drivers/CMSIS/DSP/Include/arm_math.h ****   typedef struct
2093:../../libDaisy//Drivers/CMSIS/DSP/Include/arm_math.h ****   {
2094:../../libDaisy//Drivers/CMSIS/DSP/Include/arm_math.h ****     uint16_t fftLen;                 /**< length of the FFT. */
2095:../../libDaisy//Drivers/CMSIS/DSP/Include/arm_math.h ****     uint8_t ifftFlag;                /**< flag that selects forward (ifftFlag=0) or inverse (ifftFl
2096:../../libDaisy//Drivers/CMSIS/DSP/Include/arm_math.h ****     uint8_t bitReverseFlag;          /**< flag that enables (bitReverseFlag=1) or disables (bitReve
2097:../../libDaisy//Drivers/CMSIS/DSP/Include/arm_math.h ****     q31_t *pTwiddle;                 /**< points to the twiddle factor table. */
2098:../../libDaisy//Drivers/CMSIS/DSP/Include/arm_math.h ****     uint16_t *pBitRevTable;          /**< points to the bit reversal table. */
2099:../../libDaisy//Drivers/CMSIS/DSP/Include/arm_math.h ****     uint16_t twidCoefModifier;       /**< twiddle coefficient modifier that supports different size
2100:../../libDaisy//Drivers/CMSIS/DSP/Include/arm_math.h ****     uint16_t bitRevFactor;           /**< bit reversal modifier that supports different size FFTs w
2101:../../libDaisy//Drivers/CMSIS/DSP/Include/arm_math.h ****   } arm_cfft_radix4_instance_q31;
2102:../../libDaisy//Drivers/CMSIS/DSP/Include/arm_math.h **** 
2103:../../libDaisy//Drivers/CMSIS/DSP/Include/arm_math.h **** /* Deprecated */
2104:../../libDaisy//Drivers/CMSIS/DSP/Include/arm_math.h ****   void arm_cfft_radix4_q31(
2105:../../libDaisy//Drivers/CMSIS/DSP/Include/arm_math.h ****   const arm_cfft_radix4_instance_q31 * S,
2106:../../libDaisy//Drivers/CMSIS/DSP/Include/arm_math.h ****   q31_t * pSrc);
2107:../../libDaisy//Drivers/CMSIS/DSP/Include/arm_math.h **** 
2108:../../libDaisy//Drivers/CMSIS/DSP/Include/arm_math.h **** /* Deprecated */
2109:../../libDaisy//Drivers/CMSIS/DSP/Include/arm_math.h ****   arm_status arm_cfft_radix4_init_q31(
2110:../../libDaisy//Drivers/CMSIS/DSP/Include/arm_math.h ****   arm_cfft_radix4_instance_q31 * S,
2111:../../libDaisy//Drivers/CMSIS/DSP/Include/arm_math.h ****   uint16_t fftLen,
2112:../../libDaisy//Drivers/CMSIS/DSP/Include/arm_math.h ****   uint8_t ifftFlag,
2113:../../libDaisy//Drivers/CMSIS/DSP/Include/arm_math.h ****   uint8_t bitReverseFlag);
2114:../../libDaisy//Drivers/CMSIS/DSP/Include/arm_math.h **** 
2115:../../libDaisy//Drivers/CMSIS/DSP/Include/arm_math.h ****   /**
2116:../../libDaisy//Drivers/CMSIS/DSP/Include/arm_math.h ****    * @brief Instance structure for the floating-point CFFT/CIFFT function.
2117:../../libDaisy//Drivers/CMSIS/DSP/Include/arm_math.h ****    */
2118:../../libDaisy//Drivers/CMSIS/DSP/Include/arm_math.h ****   typedef struct
2119:../../libDaisy//Drivers/CMSIS/DSP/Include/arm_math.h ****   {
2120:../../libDaisy//Drivers/CMSIS/DSP/Include/arm_math.h ****     uint16_t fftLen;                   /**< length of the FFT. */
2121:../../libDaisy//Drivers/CMSIS/DSP/Include/arm_math.h ****     uint8_t ifftFlag;                  /**< flag that selects forward (ifftFlag=0) or inverse (ifft
2122:../../libDaisy//Drivers/CMSIS/DSP/Include/arm_math.h ****     uint8_t bitReverseFlag;            /**< flag that enables (bitReverseFlag=1) or disables (bitRe
2123:../../libDaisy//Drivers/CMSIS/DSP/Include/arm_math.h ****     float32_t *pTwiddle;               /**< points to the Twiddle factor table. */
2124:../../libDaisy//Drivers/CMSIS/DSP/Include/arm_math.h ****     uint16_t *pBitRevTable;            /**< points to the bit reversal table. */
2125:../../libDaisy//Drivers/CMSIS/DSP/Include/arm_math.h ****     uint16_t twidCoefModifier;         /**< twiddle coefficient modifier that supports different si
2126:../../libDaisy//Drivers/CMSIS/DSP/Include/arm_math.h ****     uint16_t bitRevFactor;             /**< bit reversal modifier that supports different size FFTs
2127:../../libDaisy//Drivers/CMSIS/DSP/Include/arm_math.h ****     float32_t onebyfftLen;             /**< value of 1/fftLen. */
2128:../../libDaisy//Drivers/CMSIS/DSP/Include/arm_math.h ****   } arm_cfft_radix2_instance_f32;
2129:../../libDaisy//Drivers/CMSIS/DSP/Include/arm_math.h **** 
ARM GAS  /var/folders/hl/qgbwny5j0fd895c2c41bk3tw0000gp/T//ccr6F3ig.s 			page 41


2130:../../libDaisy//Drivers/CMSIS/DSP/Include/arm_math.h **** /* Deprecated */
2131:../../libDaisy//Drivers/CMSIS/DSP/Include/arm_math.h ****   arm_status arm_cfft_radix2_init_f32(
2132:../../libDaisy//Drivers/CMSIS/DSP/Include/arm_math.h ****   arm_cfft_radix2_instance_f32 * S,
2133:../../libDaisy//Drivers/CMSIS/DSP/Include/arm_math.h ****   uint16_t fftLen,
2134:../../libDaisy//Drivers/CMSIS/DSP/Include/arm_math.h ****   uint8_t ifftFlag,
2135:../../libDaisy//Drivers/CMSIS/DSP/Include/arm_math.h ****   uint8_t bitReverseFlag);
2136:../../libDaisy//Drivers/CMSIS/DSP/Include/arm_math.h **** 
2137:../../libDaisy//Drivers/CMSIS/DSP/Include/arm_math.h **** /* Deprecated */
2138:../../libDaisy//Drivers/CMSIS/DSP/Include/arm_math.h ****   void arm_cfft_radix2_f32(
2139:../../libDaisy//Drivers/CMSIS/DSP/Include/arm_math.h ****   const arm_cfft_radix2_instance_f32 * S,
2140:../../libDaisy//Drivers/CMSIS/DSP/Include/arm_math.h ****   float32_t * pSrc);
2141:../../libDaisy//Drivers/CMSIS/DSP/Include/arm_math.h **** 
2142:../../libDaisy//Drivers/CMSIS/DSP/Include/arm_math.h ****   /**
2143:../../libDaisy//Drivers/CMSIS/DSP/Include/arm_math.h ****    * @brief Instance structure for the floating-point CFFT/CIFFT function.
2144:../../libDaisy//Drivers/CMSIS/DSP/Include/arm_math.h ****    */
2145:../../libDaisy//Drivers/CMSIS/DSP/Include/arm_math.h ****   typedef struct
2146:../../libDaisy//Drivers/CMSIS/DSP/Include/arm_math.h ****   {
2147:../../libDaisy//Drivers/CMSIS/DSP/Include/arm_math.h ****     uint16_t fftLen;                   /**< length of the FFT. */
2148:../../libDaisy//Drivers/CMSIS/DSP/Include/arm_math.h ****     uint8_t ifftFlag;                  /**< flag that selects forward (ifftFlag=0) or inverse (ifft
2149:../../libDaisy//Drivers/CMSIS/DSP/Include/arm_math.h ****     uint8_t bitReverseFlag;            /**< flag that enables (bitReverseFlag=1) or disables (bitRe
2150:../../libDaisy//Drivers/CMSIS/DSP/Include/arm_math.h ****     float32_t *pTwiddle;               /**< points to the Twiddle factor table. */
2151:../../libDaisy//Drivers/CMSIS/DSP/Include/arm_math.h ****     uint16_t *pBitRevTable;            /**< points to the bit reversal table. */
2152:../../libDaisy//Drivers/CMSIS/DSP/Include/arm_math.h ****     uint16_t twidCoefModifier;         /**< twiddle coefficient modifier that supports different si
2153:../../libDaisy//Drivers/CMSIS/DSP/Include/arm_math.h ****     uint16_t bitRevFactor;             /**< bit reversal modifier that supports different size FFTs
2154:../../libDaisy//Drivers/CMSIS/DSP/Include/arm_math.h ****     float32_t onebyfftLen;             /**< value of 1/fftLen. */
2155:../../libDaisy//Drivers/CMSIS/DSP/Include/arm_math.h ****   } arm_cfft_radix4_instance_f32;
2156:../../libDaisy//Drivers/CMSIS/DSP/Include/arm_math.h **** 
2157:../../libDaisy//Drivers/CMSIS/DSP/Include/arm_math.h **** /* Deprecated */
2158:../../libDaisy//Drivers/CMSIS/DSP/Include/arm_math.h ****   arm_status arm_cfft_radix4_init_f32(
2159:../../libDaisy//Drivers/CMSIS/DSP/Include/arm_math.h ****   arm_cfft_radix4_instance_f32 * S,
2160:../../libDaisy//Drivers/CMSIS/DSP/Include/arm_math.h ****   uint16_t fftLen,
2161:../../libDaisy//Drivers/CMSIS/DSP/Include/arm_math.h ****   uint8_t ifftFlag,
2162:../../libDaisy//Drivers/CMSIS/DSP/Include/arm_math.h ****   uint8_t bitReverseFlag);
2163:../../libDaisy//Drivers/CMSIS/DSP/Include/arm_math.h **** 
2164:../../libDaisy//Drivers/CMSIS/DSP/Include/arm_math.h **** /* Deprecated */
2165:../../libDaisy//Drivers/CMSIS/DSP/Include/arm_math.h ****   void arm_cfft_radix4_f32(
2166:../../libDaisy//Drivers/CMSIS/DSP/Include/arm_math.h ****   const arm_cfft_radix4_instance_f32 * S,
2167:../../libDaisy//Drivers/CMSIS/DSP/Include/arm_math.h ****   float32_t * pSrc);
2168:../../libDaisy//Drivers/CMSIS/DSP/Include/arm_math.h **** 
2169:../../libDaisy//Drivers/CMSIS/DSP/Include/arm_math.h ****   /**
2170:../../libDaisy//Drivers/CMSIS/DSP/Include/arm_math.h ****    * @brief Instance structure for the fixed-point CFFT/CIFFT function.
2171:../../libDaisy//Drivers/CMSIS/DSP/Include/arm_math.h ****    */
2172:../../libDaisy//Drivers/CMSIS/DSP/Include/arm_math.h ****   typedef struct
2173:../../libDaisy//Drivers/CMSIS/DSP/Include/arm_math.h ****   {
2174:../../libDaisy//Drivers/CMSIS/DSP/Include/arm_math.h ****     uint16_t fftLen;                   /**< length of the FFT. */
2175:../../libDaisy//Drivers/CMSIS/DSP/Include/arm_math.h ****     const q15_t *pTwiddle;             /**< points to the Twiddle factor table. */
2176:../../libDaisy//Drivers/CMSIS/DSP/Include/arm_math.h ****     const uint16_t *pBitRevTable;      /**< points to the bit reversal table. */
2177:../../libDaisy//Drivers/CMSIS/DSP/Include/arm_math.h ****     uint16_t bitRevLength;             /**< bit reversal table length. */
2178:../../libDaisy//Drivers/CMSIS/DSP/Include/arm_math.h ****   } arm_cfft_instance_q15;
2179:../../libDaisy//Drivers/CMSIS/DSP/Include/arm_math.h **** 
2180:../../libDaisy//Drivers/CMSIS/DSP/Include/arm_math.h **** void arm_cfft_q15(
2181:../../libDaisy//Drivers/CMSIS/DSP/Include/arm_math.h ****     const arm_cfft_instance_q15 * S,
2182:../../libDaisy//Drivers/CMSIS/DSP/Include/arm_math.h ****     q15_t * p1,
2183:../../libDaisy//Drivers/CMSIS/DSP/Include/arm_math.h ****     uint8_t ifftFlag,
2184:../../libDaisy//Drivers/CMSIS/DSP/Include/arm_math.h ****     uint8_t bitReverseFlag);
2185:../../libDaisy//Drivers/CMSIS/DSP/Include/arm_math.h **** 
2186:../../libDaisy//Drivers/CMSIS/DSP/Include/arm_math.h ****   /**
ARM GAS  /var/folders/hl/qgbwny5j0fd895c2c41bk3tw0000gp/T//ccr6F3ig.s 			page 42


2187:../../libDaisy//Drivers/CMSIS/DSP/Include/arm_math.h ****    * @brief Instance structure for the fixed-point CFFT/CIFFT function.
2188:../../libDaisy//Drivers/CMSIS/DSP/Include/arm_math.h ****    */
2189:../../libDaisy//Drivers/CMSIS/DSP/Include/arm_math.h ****   typedef struct
2190:../../libDaisy//Drivers/CMSIS/DSP/Include/arm_math.h ****   {
2191:../../libDaisy//Drivers/CMSIS/DSP/Include/arm_math.h ****     uint16_t fftLen;                   /**< length of the FFT. */
2192:../../libDaisy//Drivers/CMSIS/DSP/Include/arm_math.h ****     const q31_t *pTwiddle;             /**< points to the Twiddle factor table. */
2193:../../libDaisy//Drivers/CMSIS/DSP/Include/arm_math.h ****     const uint16_t *pBitRevTable;      /**< points to the bit reversal table. */
2194:../../libDaisy//Drivers/CMSIS/DSP/Include/arm_math.h ****     uint16_t bitRevLength;             /**< bit reversal table length. */
2195:../../libDaisy//Drivers/CMSIS/DSP/Include/arm_math.h ****   } arm_cfft_instance_q31;
2196:../../libDaisy//Drivers/CMSIS/DSP/Include/arm_math.h **** 
2197:../../libDaisy//Drivers/CMSIS/DSP/Include/arm_math.h **** void arm_cfft_q31(
2198:../../libDaisy//Drivers/CMSIS/DSP/Include/arm_math.h ****     const arm_cfft_instance_q31 * S,
2199:../../libDaisy//Drivers/CMSIS/DSP/Include/arm_math.h ****     q31_t * p1,
2200:../../libDaisy//Drivers/CMSIS/DSP/Include/arm_math.h ****     uint8_t ifftFlag,
2201:../../libDaisy//Drivers/CMSIS/DSP/Include/arm_math.h ****     uint8_t bitReverseFlag);
2202:../../libDaisy//Drivers/CMSIS/DSP/Include/arm_math.h **** 
2203:../../libDaisy//Drivers/CMSIS/DSP/Include/arm_math.h ****   /**
2204:../../libDaisy//Drivers/CMSIS/DSP/Include/arm_math.h ****    * @brief Instance structure for the floating-point CFFT/CIFFT function.
2205:../../libDaisy//Drivers/CMSIS/DSP/Include/arm_math.h ****    */
2206:../../libDaisy//Drivers/CMSIS/DSP/Include/arm_math.h ****   typedef struct
2207:../../libDaisy//Drivers/CMSIS/DSP/Include/arm_math.h ****   {
2208:../../libDaisy//Drivers/CMSIS/DSP/Include/arm_math.h ****     uint16_t fftLen;                   /**< length of the FFT. */
2209:../../libDaisy//Drivers/CMSIS/DSP/Include/arm_math.h ****     const float32_t *pTwiddle;         /**< points to the Twiddle factor table. */
2210:../../libDaisy//Drivers/CMSIS/DSP/Include/arm_math.h ****     const uint16_t *pBitRevTable;      /**< points to the bit reversal table. */
2211:../../libDaisy//Drivers/CMSIS/DSP/Include/arm_math.h ****     uint16_t bitRevLength;             /**< bit reversal table length. */
2212:../../libDaisy//Drivers/CMSIS/DSP/Include/arm_math.h ****   } arm_cfft_instance_f32;
2213:../../libDaisy//Drivers/CMSIS/DSP/Include/arm_math.h **** 
2214:../../libDaisy//Drivers/CMSIS/DSP/Include/arm_math.h ****   void arm_cfft_f32(
2215:../../libDaisy//Drivers/CMSIS/DSP/Include/arm_math.h ****   const arm_cfft_instance_f32 * S,
2216:../../libDaisy//Drivers/CMSIS/DSP/Include/arm_math.h ****   float32_t * p1,
2217:../../libDaisy//Drivers/CMSIS/DSP/Include/arm_math.h ****   uint8_t ifftFlag,
2218:../../libDaisy//Drivers/CMSIS/DSP/Include/arm_math.h ****   uint8_t bitReverseFlag);
2219:../../libDaisy//Drivers/CMSIS/DSP/Include/arm_math.h **** 
2220:../../libDaisy//Drivers/CMSIS/DSP/Include/arm_math.h ****   /**
2221:../../libDaisy//Drivers/CMSIS/DSP/Include/arm_math.h ****    * @brief Instance structure for the Q15 RFFT/RIFFT function.
2222:../../libDaisy//Drivers/CMSIS/DSP/Include/arm_math.h ****    */
2223:../../libDaisy//Drivers/CMSIS/DSP/Include/arm_math.h ****   typedef struct
2224:../../libDaisy//Drivers/CMSIS/DSP/Include/arm_math.h ****   {
2225:../../libDaisy//Drivers/CMSIS/DSP/Include/arm_math.h ****     uint32_t fftLenReal;                      /**< length of the real FFT. */
2226:../../libDaisy//Drivers/CMSIS/DSP/Include/arm_math.h ****     uint8_t ifftFlagR;                        /**< flag that selects forward (ifftFlagR=0) or inver
2227:../../libDaisy//Drivers/CMSIS/DSP/Include/arm_math.h ****     uint8_t bitReverseFlagR;                  /**< flag that enables (bitReverseFlagR=1) or disable
2228:../../libDaisy//Drivers/CMSIS/DSP/Include/arm_math.h ****     uint32_t twidCoefRModifier;               /**< twiddle coefficient modifier that supports diffe
2229:../../libDaisy//Drivers/CMSIS/DSP/Include/arm_math.h ****     q15_t *pTwiddleAReal;                     /**< points to the real twiddle factor table. */
2230:../../libDaisy//Drivers/CMSIS/DSP/Include/arm_math.h ****     q15_t *pTwiddleBReal;                     /**< points to the imag twiddle factor table. */
2231:../../libDaisy//Drivers/CMSIS/DSP/Include/arm_math.h ****     const arm_cfft_instance_q15 *pCfft;       /**< points to the complex FFT instance. */
2232:../../libDaisy//Drivers/CMSIS/DSP/Include/arm_math.h ****   } arm_rfft_instance_q15;
2233:../../libDaisy//Drivers/CMSIS/DSP/Include/arm_math.h **** 
2234:../../libDaisy//Drivers/CMSIS/DSP/Include/arm_math.h ****   arm_status arm_rfft_init_q15(
2235:../../libDaisy//Drivers/CMSIS/DSP/Include/arm_math.h ****   arm_rfft_instance_q15 * S,
2236:../../libDaisy//Drivers/CMSIS/DSP/Include/arm_math.h ****   uint32_t fftLenReal,
2237:../../libDaisy//Drivers/CMSIS/DSP/Include/arm_math.h ****   uint32_t ifftFlagR,
2238:../../libDaisy//Drivers/CMSIS/DSP/Include/arm_math.h ****   uint32_t bitReverseFlag);
2239:../../libDaisy//Drivers/CMSIS/DSP/Include/arm_math.h **** 
2240:../../libDaisy//Drivers/CMSIS/DSP/Include/arm_math.h ****   void arm_rfft_q15(
2241:../../libDaisy//Drivers/CMSIS/DSP/Include/arm_math.h ****   const arm_rfft_instance_q15 * S,
2242:../../libDaisy//Drivers/CMSIS/DSP/Include/arm_math.h ****   q15_t * pSrc,
2243:../../libDaisy//Drivers/CMSIS/DSP/Include/arm_math.h ****   q15_t * pDst);
ARM GAS  /var/folders/hl/qgbwny5j0fd895c2c41bk3tw0000gp/T//ccr6F3ig.s 			page 43


2244:../../libDaisy//Drivers/CMSIS/DSP/Include/arm_math.h **** 
2245:../../libDaisy//Drivers/CMSIS/DSP/Include/arm_math.h ****   /**
2246:../../libDaisy//Drivers/CMSIS/DSP/Include/arm_math.h ****    * @brief Instance structure for the Q31 RFFT/RIFFT function.
2247:../../libDaisy//Drivers/CMSIS/DSP/Include/arm_math.h ****    */
2248:../../libDaisy//Drivers/CMSIS/DSP/Include/arm_math.h ****   typedef struct
2249:../../libDaisy//Drivers/CMSIS/DSP/Include/arm_math.h ****   {
2250:../../libDaisy//Drivers/CMSIS/DSP/Include/arm_math.h ****     uint32_t fftLenReal;                        /**< length of the real FFT. */
2251:../../libDaisy//Drivers/CMSIS/DSP/Include/arm_math.h ****     uint8_t ifftFlagR;                          /**< flag that selects forward (ifftFlagR=0) or inv
2252:../../libDaisy//Drivers/CMSIS/DSP/Include/arm_math.h ****     uint8_t bitReverseFlagR;                    /**< flag that enables (bitReverseFlagR=1) or disab
2253:../../libDaisy//Drivers/CMSIS/DSP/Include/arm_math.h ****     uint32_t twidCoefRModifier;                 /**< twiddle coefficient modifier that supports dif
2254:../../libDaisy//Drivers/CMSIS/DSP/Include/arm_math.h ****     q31_t *pTwiddleAReal;                       /**< points to the real twiddle factor table. */
2255:../../libDaisy//Drivers/CMSIS/DSP/Include/arm_math.h ****     q31_t *pTwiddleBReal;                       /**< points to the imag twiddle factor table. */
2256:../../libDaisy//Drivers/CMSIS/DSP/Include/arm_math.h ****     const arm_cfft_instance_q31 *pCfft;         /**< points to the complex FFT instance. */
2257:../../libDaisy//Drivers/CMSIS/DSP/Include/arm_math.h ****   } arm_rfft_instance_q31;
2258:../../libDaisy//Drivers/CMSIS/DSP/Include/arm_math.h **** 
2259:../../libDaisy//Drivers/CMSIS/DSP/Include/arm_math.h ****   arm_status arm_rfft_init_q31(
2260:../../libDaisy//Drivers/CMSIS/DSP/Include/arm_math.h ****   arm_rfft_instance_q31 * S,
2261:../../libDaisy//Drivers/CMSIS/DSP/Include/arm_math.h ****   uint32_t fftLenReal,
2262:../../libDaisy//Drivers/CMSIS/DSP/Include/arm_math.h ****   uint32_t ifftFlagR,
2263:../../libDaisy//Drivers/CMSIS/DSP/Include/arm_math.h ****   uint32_t bitReverseFlag);
2264:../../libDaisy//Drivers/CMSIS/DSP/Include/arm_math.h **** 
2265:../../libDaisy//Drivers/CMSIS/DSP/Include/arm_math.h ****   void arm_rfft_q31(
2266:../../libDaisy//Drivers/CMSIS/DSP/Include/arm_math.h ****   const arm_rfft_instance_q31 * S,
2267:../../libDaisy//Drivers/CMSIS/DSP/Include/arm_math.h ****   q31_t * pSrc,
2268:../../libDaisy//Drivers/CMSIS/DSP/Include/arm_math.h ****   q31_t * pDst);
2269:../../libDaisy//Drivers/CMSIS/DSP/Include/arm_math.h **** 
2270:../../libDaisy//Drivers/CMSIS/DSP/Include/arm_math.h ****   /**
2271:../../libDaisy//Drivers/CMSIS/DSP/Include/arm_math.h ****    * @brief Instance structure for the floating-point RFFT/RIFFT function.
2272:../../libDaisy//Drivers/CMSIS/DSP/Include/arm_math.h ****    */
2273:../../libDaisy//Drivers/CMSIS/DSP/Include/arm_math.h ****   typedef struct
2274:../../libDaisy//Drivers/CMSIS/DSP/Include/arm_math.h ****   {
2275:../../libDaisy//Drivers/CMSIS/DSP/Include/arm_math.h ****     uint32_t fftLenReal;                        /**< length of the real FFT. */
2276:../../libDaisy//Drivers/CMSIS/DSP/Include/arm_math.h ****     uint16_t fftLenBy2;                         /**< length of the complex FFT. */
2277:../../libDaisy//Drivers/CMSIS/DSP/Include/arm_math.h ****     uint8_t ifftFlagR;                          /**< flag that selects forward (ifftFlagR=0) or inv
2278:../../libDaisy//Drivers/CMSIS/DSP/Include/arm_math.h ****     uint8_t bitReverseFlagR;                    /**< flag that enables (bitReverseFlagR=1) or disab
2279:../../libDaisy//Drivers/CMSIS/DSP/Include/arm_math.h ****     uint32_t twidCoefRModifier;                     /**< twiddle coefficient modifier that supports
2280:../../libDaisy//Drivers/CMSIS/DSP/Include/arm_math.h ****     float32_t *pTwiddleAReal;                   /**< points to the real twiddle factor table. */
2281:../../libDaisy//Drivers/CMSIS/DSP/Include/arm_math.h ****     float32_t *pTwiddleBReal;                   /**< points to the imag twiddle factor table. */
2282:../../libDaisy//Drivers/CMSIS/DSP/Include/arm_math.h ****     arm_cfft_radix4_instance_f32 *pCfft;        /**< points to the complex FFT instance. */
2283:../../libDaisy//Drivers/CMSIS/DSP/Include/arm_math.h ****   } arm_rfft_instance_f32;
2284:../../libDaisy//Drivers/CMSIS/DSP/Include/arm_math.h **** 
2285:../../libDaisy//Drivers/CMSIS/DSP/Include/arm_math.h ****   arm_status arm_rfft_init_f32(
2286:../../libDaisy//Drivers/CMSIS/DSP/Include/arm_math.h ****   arm_rfft_instance_f32 * S,
2287:../../libDaisy//Drivers/CMSIS/DSP/Include/arm_math.h ****   arm_cfft_radix4_instance_f32 * S_CFFT,
2288:../../libDaisy//Drivers/CMSIS/DSP/Include/arm_math.h ****   uint32_t fftLenReal,
2289:../../libDaisy//Drivers/CMSIS/DSP/Include/arm_math.h ****   uint32_t ifftFlagR,
2290:../../libDaisy//Drivers/CMSIS/DSP/Include/arm_math.h ****   uint32_t bitReverseFlag);
2291:../../libDaisy//Drivers/CMSIS/DSP/Include/arm_math.h **** 
2292:../../libDaisy//Drivers/CMSIS/DSP/Include/arm_math.h ****   void arm_rfft_f32(
2293:../../libDaisy//Drivers/CMSIS/DSP/Include/arm_math.h ****   const arm_rfft_instance_f32 * S,
2294:../../libDaisy//Drivers/CMSIS/DSP/Include/arm_math.h ****   float32_t * pSrc,
2295:../../libDaisy//Drivers/CMSIS/DSP/Include/arm_math.h ****   float32_t * pDst);
2296:../../libDaisy//Drivers/CMSIS/DSP/Include/arm_math.h **** 
2297:../../libDaisy//Drivers/CMSIS/DSP/Include/arm_math.h ****   /**
2298:../../libDaisy//Drivers/CMSIS/DSP/Include/arm_math.h ****    * @brief Instance structure for the floating-point RFFT/RIFFT function.
2299:../../libDaisy//Drivers/CMSIS/DSP/Include/arm_math.h ****    */
2300:../../libDaisy//Drivers/CMSIS/DSP/Include/arm_math.h **** typedef struct
ARM GAS  /var/folders/hl/qgbwny5j0fd895c2c41bk3tw0000gp/T//ccr6F3ig.s 			page 44


2301:../../libDaisy//Drivers/CMSIS/DSP/Include/arm_math.h ****   {
2302:../../libDaisy//Drivers/CMSIS/DSP/Include/arm_math.h ****     arm_cfft_instance_f32 Sint;      /**< Internal CFFT structure. */
2303:../../libDaisy//Drivers/CMSIS/DSP/Include/arm_math.h ****     uint16_t fftLenRFFT;             /**< length of the real sequence */
2304:../../libDaisy//Drivers/CMSIS/DSP/Include/arm_math.h ****     float32_t * pTwiddleRFFT;        /**< Twiddle factors real stage  */
2305:../../libDaisy//Drivers/CMSIS/DSP/Include/arm_math.h ****   } arm_rfft_fast_instance_f32 ;
2306:../../libDaisy//Drivers/CMSIS/DSP/Include/arm_math.h **** 
2307:../../libDaisy//Drivers/CMSIS/DSP/Include/arm_math.h **** arm_status arm_rfft_fast_init_f32 (
2308:../../libDaisy//Drivers/CMSIS/DSP/Include/arm_math.h ****    arm_rfft_fast_instance_f32 * S,
2309:../../libDaisy//Drivers/CMSIS/DSP/Include/arm_math.h ****    uint16_t fftLen);
2310:../../libDaisy//Drivers/CMSIS/DSP/Include/arm_math.h **** 
2311:../../libDaisy//Drivers/CMSIS/DSP/Include/arm_math.h **** void arm_rfft_fast_f32(
2312:../../libDaisy//Drivers/CMSIS/DSP/Include/arm_math.h ****   arm_rfft_fast_instance_f32 * S,
2313:../../libDaisy//Drivers/CMSIS/DSP/Include/arm_math.h ****   float32_t * p, float32_t * pOut,
2314:../../libDaisy//Drivers/CMSIS/DSP/Include/arm_math.h ****   uint8_t ifftFlag);
2315:../../libDaisy//Drivers/CMSIS/DSP/Include/arm_math.h **** 
2316:../../libDaisy//Drivers/CMSIS/DSP/Include/arm_math.h ****   /**
2317:../../libDaisy//Drivers/CMSIS/DSP/Include/arm_math.h ****    * @brief Instance structure for the floating-point DCT4/IDCT4 function.
2318:../../libDaisy//Drivers/CMSIS/DSP/Include/arm_math.h ****    */
2319:../../libDaisy//Drivers/CMSIS/DSP/Include/arm_math.h ****   typedef struct
2320:../../libDaisy//Drivers/CMSIS/DSP/Include/arm_math.h ****   {
2321:../../libDaisy//Drivers/CMSIS/DSP/Include/arm_math.h ****     uint16_t N;                          /**< length of the DCT4. */
2322:../../libDaisy//Drivers/CMSIS/DSP/Include/arm_math.h ****     uint16_t Nby2;                       /**< half of the length of the DCT4. */
2323:../../libDaisy//Drivers/CMSIS/DSP/Include/arm_math.h ****     float32_t normalize;                 /**< normalizing factor. */
2324:../../libDaisy//Drivers/CMSIS/DSP/Include/arm_math.h ****     float32_t *pTwiddle;                 /**< points to the twiddle factor table. */
2325:../../libDaisy//Drivers/CMSIS/DSP/Include/arm_math.h ****     float32_t *pCosFactor;               /**< points to the cosFactor table. */
2326:../../libDaisy//Drivers/CMSIS/DSP/Include/arm_math.h ****     arm_rfft_instance_f32 *pRfft;        /**< points to the real FFT instance. */
2327:../../libDaisy//Drivers/CMSIS/DSP/Include/arm_math.h ****     arm_cfft_radix4_instance_f32 *pCfft; /**< points to the complex FFT instance. */
2328:../../libDaisy//Drivers/CMSIS/DSP/Include/arm_math.h ****   } arm_dct4_instance_f32;
2329:../../libDaisy//Drivers/CMSIS/DSP/Include/arm_math.h **** 
2330:../../libDaisy//Drivers/CMSIS/DSP/Include/arm_math.h **** 
2331:../../libDaisy//Drivers/CMSIS/DSP/Include/arm_math.h ****   /**
2332:../../libDaisy//Drivers/CMSIS/DSP/Include/arm_math.h ****    * @brief  Initialization function for the floating-point DCT4/IDCT4.
2333:../../libDaisy//Drivers/CMSIS/DSP/Include/arm_math.h ****    * @param[in,out] S          points to an instance of floating-point DCT4/IDCT4 structure.
2334:../../libDaisy//Drivers/CMSIS/DSP/Include/arm_math.h ****    * @param[in]     S_RFFT     points to an instance of floating-point RFFT/RIFFT structure.
2335:../../libDaisy//Drivers/CMSIS/DSP/Include/arm_math.h ****    * @param[in]     S_CFFT     points to an instance of floating-point CFFT/CIFFT structure.
2336:../../libDaisy//Drivers/CMSIS/DSP/Include/arm_math.h ****    * @param[in]     N          length of the DCT4.
2337:../../libDaisy//Drivers/CMSIS/DSP/Include/arm_math.h ****    * @param[in]     Nby2       half of the length of the DCT4.
2338:../../libDaisy//Drivers/CMSIS/DSP/Include/arm_math.h ****    * @param[in]     normalize  normalizing factor.
2339:../../libDaisy//Drivers/CMSIS/DSP/Include/arm_math.h ****    * @return      arm_status function returns ARM_MATH_SUCCESS if initialization is successful or A
2340:../../libDaisy//Drivers/CMSIS/DSP/Include/arm_math.h ****    */
2341:../../libDaisy//Drivers/CMSIS/DSP/Include/arm_math.h ****   arm_status arm_dct4_init_f32(
2342:../../libDaisy//Drivers/CMSIS/DSP/Include/arm_math.h ****   arm_dct4_instance_f32 * S,
2343:../../libDaisy//Drivers/CMSIS/DSP/Include/arm_math.h ****   arm_rfft_instance_f32 * S_RFFT,
2344:../../libDaisy//Drivers/CMSIS/DSP/Include/arm_math.h ****   arm_cfft_radix4_instance_f32 * S_CFFT,
2345:../../libDaisy//Drivers/CMSIS/DSP/Include/arm_math.h ****   uint16_t N,
2346:../../libDaisy//Drivers/CMSIS/DSP/Include/arm_math.h ****   uint16_t Nby2,
2347:../../libDaisy//Drivers/CMSIS/DSP/Include/arm_math.h ****   float32_t normalize);
2348:../../libDaisy//Drivers/CMSIS/DSP/Include/arm_math.h **** 
2349:../../libDaisy//Drivers/CMSIS/DSP/Include/arm_math.h **** 
2350:../../libDaisy//Drivers/CMSIS/DSP/Include/arm_math.h ****   /**
2351:../../libDaisy//Drivers/CMSIS/DSP/Include/arm_math.h ****    * @brief Processing function for the floating-point DCT4/IDCT4.
2352:../../libDaisy//Drivers/CMSIS/DSP/Include/arm_math.h ****    * @param[in]     S              points to an instance of the floating-point DCT4/IDCT4 structure
2353:../../libDaisy//Drivers/CMSIS/DSP/Include/arm_math.h ****    * @param[in]     pState         points to state buffer.
2354:../../libDaisy//Drivers/CMSIS/DSP/Include/arm_math.h ****    * @param[in,out] pInlineBuffer  points to the in-place input and output buffer.
2355:../../libDaisy//Drivers/CMSIS/DSP/Include/arm_math.h ****    */
2356:../../libDaisy//Drivers/CMSIS/DSP/Include/arm_math.h ****   void arm_dct4_f32(
2357:../../libDaisy//Drivers/CMSIS/DSP/Include/arm_math.h ****   const arm_dct4_instance_f32 * S,
ARM GAS  /var/folders/hl/qgbwny5j0fd895c2c41bk3tw0000gp/T//ccr6F3ig.s 			page 45


2358:../../libDaisy//Drivers/CMSIS/DSP/Include/arm_math.h ****   float32_t * pState,
2359:../../libDaisy//Drivers/CMSIS/DSP/Include/arm_math.h ****   float32_t * pInlineBuffer);
2360:../../libDaisy//Drivers/CMSIS/DSP/Include/arm_math.h **** 
2361:../../libDaisy//Drivers/CMSIS/DSP/Include/arm_math.h **** 
2362:../../libDaisy//Drivers/CMSIS/DSP/Include/arm_math.h ****   /**
2363:../../libDaisy//Drivers/CMSIS/DSP/Include/arm_math.h ****    * @brief Instance structure for the Q31 DCT4/IDCT4 function.
2364:../../libDaisy//Drivers/CMSIS/DSP/Include/arm_math.h ****    */
2365:../../libDaisy//Drivers/CMSIS/DSP/Include/arm_math.h ****   typedef struct
2366:../../libDaisy//Drivers/CMSIS/DSP/Include/arm_math.h ****   {
2367:../../libDaisy//Drivers/CMSIS/DSP/Include/arm_math.h ****     uint16_t N;                          /**< length of the DCT4. */
2368:../../libDaisy//Drivers/CMSIS/DSP/Include/arm_math.h ****     uint16_t Nby2;                       /**< half of the length of the DCT4. */
2369:../../libDaisy//Drivers/CMSIS/DSP/Include/arm_math.h ****     q31_t normalize;                     /**< normalizing factor. */
2370:../../libDaisy//Drivers/CMSIS/DSP/Include/arm_math.h ****     q31_t *pTwiddle;                     /**< points to the twiddle factor table. */
2371:../../libDaisy//Drivers/CMSIS/DSP/Include/arm_math.h ****     q31_t *pCosFactor;                   /**< points to the cosFactor table. */
2372:../../libDaisy//Drivers/CMSIS/DSP/Include/arm_math.h ****     arm_rfft_instance_q31 *pRfft;        /**< points to the real FFT instance. */
2373:../../libDaisy//Drivers/CMSIS/DSP/Include/arm_math.h ****     arm_cfft_radix4_instance_q31 *pCfft; /**< points to the complex FFT instance. */
2374:../../libDaisy//Drivers/CMSIS/DSP/Include/arm_math.h ****   } arm_dct4_instance_q31;
2375:../../libDaisy//Drivers/CMSIS/DSP/Include/arm_math.h **** 
2376:../../libDaisy//Drivers/CMSIS/DSP/Include/arm_math.h **** 
2377:../../libDaisy//Drivers/CMSIS/DSP/Include/arm_math.h ****   /**
2378:../../libDaisy//Drivers/CMSIS/DSP/Include/arm_math.h ****    * @brief  Initialization function for the Q31 DCT4/IDCT4.
2379:../../libDaisy//Drivers/CMSIS/DSP/Include/arm_math.h ****    * @param[in,out] S          points to an instance of Q31 DCT4/IDCT4 structure.
2380:../../libDaisy//Drivers/CMSIS/DSP/Include/arm_math.h ****    * @param[in]     S_RFFT     points to an instance of Q31 RFFT/RIFFT structure
2381:../../libDaisy//Drivers/CMSIS/DSP/Include/arm_math.h ****    * @param[in]     S_CFFT     points to an instance of Q31 CFFT/CIFFT structure
2382:../../libDaisy//Drivers/CMSIS/DSP/Include/arm_math.h ****    * @param[in]     N          length of the DCT4.
2383:../../libDaisy//Drivers/CMSIS/DSP/Include/arm_math.h ****    * @param[in]     Nby2       half of the length of the DCT4.
2384:../../libDaisy//Drivers/CMSIS/DSP/Include/arm_math.h ****    * @param[in]     normalize  normalizing factor.
2385:../../libDaisy//Drivers/CMSIS/DSP/Include/arm_math.h ****    * @return      arm_status function returns ARM_MATH_SUCCESS if initialization is successful or A
2386:../../libDaisy//Drivers/CMSIS/DSP/Include/arm_math.h ****    */
2387:../../libDaisy//Drivers/CMSIS/DSP/Include/arm_math.h ****   arm_status arm_dct4_init_q31(
2388:../../libDaisy//Drivers/CMSIS/DSP/Include/arm_math.h ****   arm_dct4_instance_q31 * S,
2389:../../libDaisy//Drivers/CMSIS/DSP/Include/arm_math.h ****   arm_rfft_instance_q31 * S_RFFT,
2390:../../libDaisy//Drivers/CMSIS/DSP/Include/arm_math.h ****   arm_cfft_radix4_instance_q31 * S_CFFT,
2391:../../libDaisy//Drivers/CMSIS/DSP/Include/arm_math.h ****   uint16_t N,
2392:../../libDaisy//Drivers/CMSIS/DSP/Include/arm_math.h ****   uint16_t Nby2,
2393:../../libDaisy//Drivers/CMSIS/DSP/Include/arm_math.h ****   q31_t normalize);
2394:../../libDaisy//Drivers/CMSIS/DSP/Include/arm_math.h **** 
2395:../../libDaisy//Drivers/CMSIS/DSP/Include/arm_math.h **** 
2396:../../libDaisy//Drivers/CMSIS/DSP/Include/arm_math.h ****   /**
2397:../../libDaisy//Drivers/CMSIS/DSP/Include/arm_math.h ****    * @brief Processing function for the Q31 DCT4/IDCT4.
2398:../../libDaisy//Drivers/CMSIS/DSP/Include/arm_math.h ****    * @param[in]     S              points to an instance of the Q31 DCT4 structure.
2399:../../libDaisy//Drivers/CMSIS/DSP/Include/arm_math.h ****    * @param[in]     pState         points to state buffer.
2400:../../libDaisy//Drivers/CMSIS/DSP/Include/arm_math.h ****    * @param[in,out] pInlineBuffer  points to the in-place input and output buffer.
2401:../../libDaisy//Drivers/CMSIS/DSP/Include/arm_math.h ****    */
2402:../../libDaisy//Drivers/CMSIS/DSP/Include/arm_math.h ****   void arm_dct4_q31(
2403:../../libDaisy//Drivers/CMSIS/DSP/Include/arm_math.h ****   const arm_dct4_instance_q31 * S,
2404:../../libDaisy//Drivers/CMSIS/DSP/Include/arm_math.h ****   q31_t * pState,
2405:../../libDaisy//Drivers/CMSIS/DSP/Include/arm_math.h ****   q31_t * pInlineBuffer);
2406:../../libDaisy//Drivers/CMSIS/DSP/Include/arm_math.h **** 
