ARM GAS  /var/folders/hl/qgbwny5j0fd895c2c41bk3tw0000gp/T//ccphgPNq.s 			page 1


   1              		.cpu cortex-m7
   2              		.eabi_attribute 28, 1
   3              		.eabi_attribute 20, 1
   4              		.eabi_attribute 21, 1
   5              		.eabi_attribute 23, 3
   6              		.eabi_attribute 24, 1
   7              		.eabi_attribute 25, 1
   8              		.eabi_attribute 26, 1
   9              		.eabi_attribute 30, 2
  10              		.eabi_attribute 34, 1
  11              		.eabi_attribute 18, 4
  12              		.file	"arm_cfft_f32.c"
  13              		.text
  14              	.Ltext0:
  15              		.cfi_sections	.debug_frame
  16              		.section	.text.arm_cfft_radix8by2_f32,"ax",%progbits
  17              		.align	1
  18              		.p2align 2,,3
  19              		.global	arm_cfft_radix8by2_f32
  20              		.arch armv7e-m
  21              		.syntax unified
  22              		.thumb
  23              		.thumb_func
  24              		.fpu fpv5-d16
  26              	arm_cfft_radix8by2_f32:
  27              	.LVL0:
  28              	.LFB353:
  29              		.file 1 "../../libDaisy//Drivers/CMSIS/DSP/Source/TransformFunctions/arm_cfft_f32.c"
   1:../../libDaisy//Drivers/CMSIS/DSP/Source/TransformFunctions/arm_cfft_f32.c **** /* ----------------------------------------------------------------------
   2:../../libDaisy//Drivers/CMSIS/DSP/Source/TransformFunctions/arm_cfft_f32.c ****  * Project:      CMSIS DSP Library
   3:../../libDaisy//Drivers/CMSIS/DSP/Source/TransformFunctions/arm_cfft_f32.c ****  * Title:        arm_cfft_f32.c
   4:../../libDaisy//Drivers/CMSIS/DSP/Source/TransformFunctions/arm_cfft_f32.c ****  * Description:  Combined Radix Decimation in Frequency CFFT Floating point processing function
   5:../../libDaisy//Drivers/CMSIS/DSP/Source/TransformFunctions/arm_cfft_f32.c ****  *
   6:../../libDaisy//Drivers/CMSIS/DSP/Source/TransformFunctions/arm_cfft_f32.c ****  * $Date:        27. January 2017
   7:../../libDaisy//Drivers/CMSIS/DSP/Source/TransformFunctions/arm_cfft_f32.c ****  * $Revision:    V.1.5.1
   8:../../libDaisy//Drivers/CMSIS/DSP/Source/TransformFunctions/arm_cfft_f32.c ****  *
   9:../../libDaisy//Drivers/CMSIS/DSP/Source/TransformFunctions/arm_cfft_f32.c ****  * Target Processor: Cortex-M cores
  10:../../libDaisy//Drivers/CMSIS/DSP/Source/TransformFunctions/arm_cfft_f32.c ****  * -------------------------------------------------------------------- */
  11:../../libDaisy//Drivers/CMSIS/DSP/Source/TransformFunctions/arm_cfft_f32.c **** /*
  12:../../libDaisy//Drivers/CMSIS/DSP/Source/TransformFunctions/arm_cfft_f32.c ****  * Copyright (C) 2010-2017 ARM Limited or its affiliates. All rights reserved.
  13:../../libDaisy//Drivers/CMSIS/DSP/Source/TransformFunctions/arm_cfft_f32.c ****  *
  14:../../libDaisy//Drivers/CMSIS/DSP/Source/TransformFunctions/arm_cfft_f32.c ****  * SPDX-License-Identifier: Apache-2.0
  15:../../libDaisy//Drivers/CMSIS/DSP/Source/TransformFunctions/arm_cfft_f32.c ****  *
  16:../../libDaisy//Drivers/CMSIS/DSP/Source/TransformFunctions/arm_cfft_f32.c ****  * Licensed under the Apache License, Version 2.0 (the License); you may
  17:../../libDaisy//Drivers/CMSIS/DSP/Source/TransformFunctions/arm_cfft_f32.c ****  * not use this file except in compliance with the License.
  18:../../libDaisy//Drivers/CMSIS/DSP/Source/TransformFunctions/arm_cfft_f32.c ****  * You may obtain a copy of the License at
  19:../../libDaisy//Drivers/CMSIS/DSP/Source/TransformFunctions/arm_cfft_f32.c ****  *
  20:../../libDaisy//Drivers/CMSIS/DSP/Source/TransformFunctions/arm_cfft_f32.c ****  * www.apache.org/licenses/LICENSE-2.0
  21:../../libDaisy//Drivers/CMSIS/DSP/Source/TransformFunctions/arm_cfft_f32.c ****  *
  22:../../libDaisy//Drivers/CMSIS/DSP/Source/TransformFunctions/arm_cfft_f32.c ****  * Unless required by applicable law or agreed to in writing, software
  23:../../libDaisy//Drivers/CMSIS/DSP/Source/TransformFunctions/arm_cfft_f32.c ****  * distributed under the License is distributed on an AS IS BASIS, WITHOUT
  24:../../libDaisy//Drivers/CMSIS/DSP/Source/TransformFunctions/arm_cfft_f32.c ****  * WARRANTIES OR CONDITIONS OF ANY KIND, either express or implied.
  25:../../libDaisy//Drivers/CMSIS/DSP/Source/TransformFunctions/arm_cfft_f32.c ****  * See the License for the specific language governing permissions and
  26:../../libDaisy//Drivers/CMSIS/DSP/Source/TransformFunctions/arm_cfft_f32.c ****  * limitations under the License.
  27:../../libDaisy//Drivers/CMSIS/DSP/Source/TransformFunctions/arm_cfft_f32.c ****  */
  28:../../libDaisy//Drivers/CMSIS/DSP/Source/TransformFunctions/arm_cfft_f32.c **** 
  29:../../libDaisy//Drivers/CMSIS/DSP/Source/TransformFunctions/arm_cfft_f32.c **** #include "arm_math.h"
ARM GAS  /var/folders/hl/qgbwny5j0fd895c2c41bk3tw0000gp/T//ccphgPNq.s 			page 2


  30:../../libDaisy//Drivers/CMSIS/DSP/Source/TransformFunctions/arm_cfft_f32.c **** #include "arm_common_tables.h"
  31:../../libDaisy//Drivers/CMSIS/DSP/Source/TransformFunctions/arm_cfft_f32.c **** 
  32:../../libDaisy//Drivers/CMSIS/DSP/Source/TransformFunctions/arm_cfft_f32.c **** extern void arm_radix8_butterfly_f32(
  33:../../libDaisy//Drivers/CMSIS/DSP/Source/TransformFunctions/arm_cfft_f32.c ****     float32_t * pSrc,
  34:../../libDaisy//Drivers/CMSIS/DSP/Source/TransformFunctions/arm_cfft_f32.c ****     uint16_t fftLen,
  35:../../libDaisy//Drivers/CMSIS/DSP/Source/TransformFunctions/arm_cfft_f32.c ****     const float32_t * pCoef,
  36:../../libDaisy//Drivers/CMSIS/DSP/Source/TransformFunctions/arm_cfft_f32.c ****     uint16_t twidCoefModifier);
  37:../../libDaisy//Drivers/CMSIS/DSP/Source/TransformFunctions/arm_cfft_f32.c **** 
  38:../../libDaisy//Drivers/CMSIS/DSP/Source/TransformFunctions/arm_cfft_f32.c **** extern void arm_bitreversal_32(
  39:../../libDaisy//Drivers/CMSIS/DSP/Source/TransformFunctions/arm_cfft_f32.c ****     uint32_t * pSrc,
  40:../../libDaisy//Drivers/CMSIS/DSP/Source/TransformFunctions/arm_cfft_f32.c ****     const uint16_t bitRevLen,
  41:../../libDaisy//Drivers/CMSIS/DSP/Source/TransformFunctions/arm_cfft_f32.c ****     const uint16_t * pBitRevTable);
  42:../../libDaisy//Drivers/CMSIS/DSP/Source/TransformFunctions/arm_cfft_f32.c **** 
  43:../../libDaisy//Drivers/CMSIS/DSP/Source/TransformFunctions/arm_cfft_f32.c **** /**
  44:../../libDaisy//Drivers/CMSIS/DSP/Source/TransformFunctions/arm_cfft_f32.c **** * @ingroup groupTransforms
  45:../../libDaisy//Drivers/CMSIS/DSP/Source/TransformFunctions/arm_cfft_f32.c **** */
  46:../../libDaisy//Drivers/CMSIS/DSP/Source/TransformFunctions/arm_cfft_f32.c **** 
  47:../../libDaisy//Drivers/CMSIS/DSP/Source/TransformFunctions/arm_cfft_f32.c **** /**
  48:../../libDaisy//Drivers/CMSIS/DSP/Source/TransformFunctions/arm_cfft_f32.c **** * @defgroup ComplexFFT Complex FFT Functions
  49:../../libDaisy//Drivers/CMSIS/DSP/Source/TransformFunctions/arm_cfft_f32.c **** *
  50:../../libDaisy//Drivers/CMSIS/DSP/Source/TransformFunctions/arm_cfft_f32.c **** * \par
  51:../../libDaisy//Drivers/CMSIS/DSP/Source/TransformFunctions/arm_cfft_f32.c **** * The Fast Fourier Transform (FFT) is an efficient algorithm for computing the
  52:../../libDaisy//Drivers/CMSIS/DSP/Source/TransformFunctions/arm_cfft_f32.c **** * Discrete Fourier Transform (DFT).  The FFT can be orders of magnitude faster
  53:../../libDaisy//Drivers/CMSIS/DSP/Source/TransformFunctions/arm_cfft_f32.c **** * than the DFT, especially for long lengths.
  54:../../libDaisy//Drivers/CMSIS/DSP/Source/TransformFunctions/arm_cfft_f32.c **** * The algorithms described in this section
  55:../../libDaisy//Drivers/CMSIS/DSP/Source/TransformFunctions/arm_cfft_f32.c **** * operate on complex data.  A separate set of functions is devoted to handling
  56:../../libDaisy//Drivers/CMSIS/DSP/Source/TransformFunctions/arm_cfft_f32.c **** * of real sequences.
  57:../../libDaisy//Drivers/CMSIS/DSP/Source/TransformFunctions/arm_cfft_f32.c **** * \par
  58:../../libDaisy//Drivers/CMSIS/DSP/Source/TransformFunctions/arm_cfft_f32.c **** * There are separate algorithms for handling floating-point, Q15, and Q31 data
  59:../../libDaisy//Drivers/CMSIS/DSP/Source/TransformFunctions/arm_cfft_f32.c **** * types.  The algorithms available for each data type are described next.
  60:../../libDaisy//Drivers/CMSIS/DSP/Source/TransformFunctions/arm_cfft_f32.c **** * \par
  61:../../libDaisy//Drivers/CMSIS/DSP/Source/TransformFunctions/arm_cfft_f32.c **** * The FFT functions operate in-place.  That is, the array holding the input data
  62:../../libDaisy//Drivers/CMSIS/DSP/Source/TransformFunctions/arm_cfft_f32.c **** * will also be used to hold the corresponding result.  The input data is complex
  63:../../libDaisy//Drivers/CMSIS/DSP/Source/TransformFunctions/arm_cfft_f32.c **** * and contains <code>2*fftLen</code> interleaved values as shown below.
  64:../../libDaisy//Drivers/CMSIS/DSP/Source/TransformFunctions/arm_cfft_f32.c **** * <pre> {real[0], imag[0], real[1], imag[1],..} </pre>
  65:../../libDaisy//Drivers/CMSIS/DSP/Source/TransformFunctions/arm_cfft_f32.c **** * The FFT result will be contained in the same array and the frequency domain
  66:../../libDaisy//Drivers/CMSIS/DSP/Source/TransformFunctions/arm_cfft_f32.c **** * values will have the same interleaving.
  67:../../libDaisy//Drivers/CMSIS/DSP/Source/TransformFunctions/arm_cfft_f32.c **** *
  68:../../libDaisy//Drivers/CMSIS/DSP/Source/TransformFunctions/arm_cfft_f32.c **** * \par Floating-point
  69:../../libDaisy//Drivers/CMSIS/DSP/Source/TransformFunctions/arm_cfft_f32.c **** * The floating-point complex FFT uses a mixed-radix algorithm.  Multiple radix-8
  70:../../libDaisy//Drivers/CMSIS/DSP/Source/TransformFunctions/arm_cfft_f32.c **** * stages are performed along with a single radix-2 or radix-4 stage, as needed.
  71:../../libDaisy//Drivers/CMSIS/DSP/Source/TransformFunctions/arm_cfft_f32.c **** * The algorithm supports lengths of [16, 32, 64, ..., 4096] and each length uses
  72:../../libDaisy//Drivers/CMSIS/DSP/Source/TransformFunctions/arm_cfft_f32.c **** * a different twiddle factor table.
  73:../../libDaisy//Drivers/CMSIS/DSP/Source/TransformFunctions/arm_cfft_f32.c **** * \par
  74:../../libDaisy//Drivers/CMSIS/DSP/Source/TransformFunctions/arm_cfft_f32.c **** * The function uses the standard FFT definition and output values may grow by a
  75:../../libDaisy//Drivers/CMSIS/DSP/Source/TransformFunctions/arm_cfft_f32.c **** * factor of <code>fftLen</code> when computing the forward transform.  The
  76:../../libDaisy//Drivers/CMSIS/DSP/Source/TransformFunctions/arm_cfft_f32.c **** * inverse transform includes a scale of <code>1/fftLen</code> as part of the
  77:../../libDaisy//Drivers/CMSIS/DSP/Source/TransformFunctions/arm_cfft_f32.c **** * calculation and this matches the textbook definition of the inverse FFT.
  78:../../libDaisy//Drivers/CMSIS/DSP/Source/TransformFunctions/arm_cfft_f32.c **** * \par
  79:../../libDaisy//Drivers/CMSIS/DSP/Source/TransformFunctions/arm_cfft_f32.c **** * Pre-initialized data structures containing twiddle factors and bit reversal
  80:../../libDaisy//Drivers/CMSIS/DSP/Source/TransformFunctions/arm_cfft_f32.c **** * tables are provided and defined in <code>arm_const_structs.h</code>.  Include
  81:../../libDaisy//Drivers/CMSIS/DSP/Source/TransformFunctions/arm_cfft_f32.c **** * this header in your function and then pass one of the constant structures as
  82:../../libDaisy//Drivers/CMSIS/DSP/Source/TransformFunctions/arm_cfft_f32.c **** * an argument to arm_cfft_f32.  For example:
  83:../../libDaisy//Drivers/CMSIS/DSP/Source/TransformFunctions/arm_cfft_f32.c **** * \par
  84:../../libDaisy//Drivers/CMSIS/DSP/Source/TransformFunctions/arm_cfft_f32.c **** * <code>arm_cfft_f32(arm_cfft_sR_f32_len64, pSrc, 1, 1)</code>
  85:../../libDaisy//Drivers/CMSIS/DSP/Source/TransformFunctions/arm_cfft_f32.c **** * \par
  86:../../libDaisy//Drivers/CMSIS/DSP/Source/TransformFunctions/arm_cfft_f32.c **** * computes a 64-point inverse complex FFT including bit reversal.
ARM GAS  /var/folders/hl/qgbwny5j0fd895c2c41bk3tw0000gp/T//ccphgPNq.s 			page 3


  87:../../libDaisy//Drivers/CMSIS/DSP/Source/TransformFunctions/arm_cfft_f32.c **** * The data structures are treated as constant data and not modified during the
  88:../../libDaisy//Drivers/CMSIS/DSP/Source/TransformFunctions/arm_cfft_f32.c **** * calculation.  The same data structure can be reused for multiple transforms
  89:../../libDaisy//Drivers/CMSIS/DSP/Source/TransformFunctions/arm_cfft_f32.c **** * including mixing forward and inverse transforms.
  90:../../libDaisy//Drivers/CMSIS/DSP/Source/TransformFunctions/arm_cfft_f32.c **** * \par
  91:../../libDaisy//Drivers/CMSIS/DSP/Source/TransformFunctions/arm_cfft_f32.c **** * Earlier releases of the library provided separate radix-2 and radix-4
  92:../../libDaisy//Drivers/CMSIS/DSP/Source/TransformFunctions/arm_cfft_f32.c **** * algorithms that operated on floating-point data.  These functions are still
  93:../../libDaisy//Drivers/CMSIS/DSP/Source/TransformFunctions/arm_cfft_f32.c **** * provided but are deprecated.  The older functions are slower and less general
  94:../../libDaisy//Drivers/CMSIS/DSP/Source/TransformFunctions/arm_cfft_f32.c **** * than the new functions.
  95:../../libDaisy//Drivers/CMSIS/DSP/Source/TransformFunctions/arm_cfft_f32.c **** * \par
  96:../../libDaisy//Drivers/CMSIS/DSP/Source/TransformFunctions/arm_cfft_f32.c **** * An example of initialization of the constants for the arm_cfft_f32 function follows:
  97:../../libDaisy//Drivers/CMSIS/DSP/Source/TransformFunctions/arm_cfft_f32.c **** * \code
  98:../../libDaisy//Drivers/CMSIS/DSP/Source/TransformFunctions/arm_cfft_f32.c **** * const static arm_cfft_instance_f32 *S;
  99:../../libDaisy//Drivers/CMSIS/DSP/Source/TransformFunctions/arm_cfft_f32.c **** * ...
 100:../../libDaisy//Drivers/CMSIS/DSP/Source/TransformFunctions/arm_cfft_f32.c **** *   switch (length) {
 101:../../libDaisy//Drivers/CMSIS/DSP/Source/TransformFunctions/arm_cfft_f32.c **** *     case 16:
 102:../../libDaisy//Drivers/CMSIS/DSP/Source/TransformFunctions/arm_cfft_f32.c **** *       S = &arm_cfft_sR_f32_len16;
 103:../../libDaisy//Drivers/CMSIS/DSP/Source/TransformFunctions/arm_cfft_f32.c **** *       break;
 104:../../libDaisy//Drivers/CMSIS/DSP/Source/TransformFunctions/arm_cfft_f32.c **** *     case 32:
 105:../../libDaisy//Drivers/CMSIS/DSP/Source/TransformFunctions/arm_cfft_f32.c **** *       S = &arm_cfft_sR_f32_len32;
 106:../../libDaisy//Drivers/CMSIS/DSP/Source/TransformFunctions/arm_cfft_f32.c **** *       break;
 107:../../libDaisy//Drivers/CMSIS/DSP/Source/TransformFunctions/arm_cfft_f32.c **** *     case 64:
 108:../../libDaisy//Drivers/CMSIS/DSP/Source/TransformFunctions/arm_cfft_f32.c **** *       S = &arm_cfft_sR_f32_len64;
 109:../../libDaisy//Drivers/CMSIS/DSP/Source/TransformFunctions/arm_cfft_f32.c **** *       break;
 110:../../libDaisy//Drivers/CMSIS/DSP/Source/TransformFunctions/arm_cfft_f32.c **** *     case 128:
 111:../../libDaisy//Drivers/CMSIS/DSP/Source/TransformFunctions/arm_cfft_f32.c **** *       S = &arm_cfft_sR_f32_len128;
 112:../../libDaisy//Drivers/CMSIS/DSP/Source/TransformFunctions/arm_cfft_f32.c **** *       break;
 113:../../libDaisy//Drivers/CMSIS/DSP/Source/TransformFunctions/arm_cfft_f32.c **** *     case 256:
 114:../../libDaisy//Drivers/CMSIS/DSP/Source/TransformFunctions/arm_cfft_f32.c **** *       S = &arm_cfft_sR_f32_len256;
 115:../../libDaisy//Drivers/CMSIS/DSP/Source/TransformFunctions/arm_cfft_f32.c **** *       break;
 116:../../libDaisy//Drivers/CMSIS/DSP/Source/TransformFunctions/arm_cfft_f32.c **** *     case 512:
 117:../../libDaisy//Drivers/CMSIS/DSP/Source/TransformFunctions/arm_cfft_f32.c **** *       S = &arm_cfft_sR_f32_len512;
 118:../../libDaisy//Drivers/CMSIS/DSP/Source/TransformFunctions/arm_cfft_f32.c **** *       break;
 119:../../libDaisy//Drivers/CMSIS/DSP/Source/TransformFunctions/arm_cfft_f32.c **** *     case 1024:
 120:../../libDaisy//Drivers/CMSIS/DSP/Source/TransformFunctions/arm_cfft_f32.c **** *       S = &arm_cfft_sR_f32_len1024;
 121:../../libDaisy//Drivers/CMSIS/DSP/Source/TransformFunctions/arm_cfft_f32.c **** *       break;
 122:../../libDaisy//Drivers/CMSIS/DSP/Source/TransformFunctions/arm_cfft_f32.c **** *     case 2048:
 123:../../libDaisy//Drivers/CMSIS/DSP/Source/TransformFunctions/arm_cfft_f32.c **** *       S = &arm_cfft_sR_f32_len2048;
 124:../../libDaisy//Drivers/CMSIS/DSP/Source/TransformFunctions/arm_cfft_f32.c **** *       break;
 125:../../libDaisy//Drivers/CMSIS/DSP/Source/TransformFunctions/arm_cfft_f32.c **** *     case 4096:
 126:../../libDaisy//Drivers/CMSIS/DSP/Source/TransformFunctions/arm_cfft_f32.c **** *       S = &arm_cfft_sR_f32_len4096;
 127:../../libDaisy//Drivers/CMSIS/DSP/Source/TransformFunctions/arm_cfft_f32.c **** *       break;
 128:../../libDaisy//Drivers/CMSIS/DSP/Source/TransformFunctions/arm_cfft_f32.c **** *   }
 129:../../libDaisy//Drivers/CMSIS/DSP/Source/TransformFunctions/arm_cfft_f32.c **** * \endcode
 130:../../libDaisy//Drivers/CMSIS/DSP/Source/TransformFunctions/arm_cfft_f32.c **** * \par Q15 and Q31
 131:../../libDaisy//Drivers/CMSIS/DSP/Source/TransformFunctions/arm_cfft_f32.c **** * The floating-point complex FFT uses a mixed-radix algorithm.  Multiple radix-4
 132:../../libDaisy//Drivers/CMSIS/DSP/Source/TransformFunctions/arm_cfft_f32.c **** * stages are performed along with a single radix-2 stage, as needed.
 133:../../libDaisy//Drivers/CMSIS/DSP/Source/TransformFunctions/arm_cfft_f32.c **** * The algorithm supports lengths of [16, 32, 64, ..., 4096] and each length uses
 134:../../libDaisy//Drivers/CMSIS/DSP/Source/TransformFunctions/arm_cfft_f32.c **** * a different twiddle factor table.
 135:../../libDaisy//Drivers/CMSIS/DSP/Source/TransformFunctions/arm_cfft_f32.c **** * \par
 136:../../libDaisy//Drivers/CMSIS/DSP/Source/TransformFunctions/arm_cfft_f32.c **** * The function uses the standard FFT definition and output values may grow by a
 137:../../libDaisy//Drivers/CMSIS/DSP/Source/TransformFunctions/arm_cfft_f32.c **** * factor of <code>fftLen</code> when computing the forward transform.  The
 138:../../libDaisy//Drivers/CMSIS/DSP/Source/TransformFunctions/arm_cfft_f32.c **** * inverse transform includes a scale of <code>1/fftLen</code> as part of the
 139:../../libDaisy//Drivers/CMSIS/DSP/Source/TransformFunctions/arm_cfft_f32.c **** * calculation and this matches the textbook definition of the inverse FFT.
 140:../../libDaisy//Drivers/CMSIS/DSP/Source/TransformFunctions/arm_cfft_f32.c **** * \par
 141:../../libDaisy//Drivers/CMSIS/DSP/Source/TransformFunctions/arm_cfft_f32.c **** * Pre-initialized data structures containing twiddle factors and bit reversal
 142:../../libDaisy//Drivers/CMSIS/DSP/Source/TransformFunctions/arm_cfft_f32.c **** * tables are provided and defined in <code>arm_const_structs.h</code>.  Include
 143:../../libDaisy//Drivers/CMSIS/DSP/Source/TransformFunctions/arm_cfft_f32.c **** * this header in your function and then pass one of the constant structures as
ARM GAS  /var/folders/hl/qgbwny5j0fd895c2c41bk3tw0000gp/T//ccphgPNq.s 			page 4


 144:../../libDaisy//Drivers/CMSIS/DSP/Source/TransformFunctions/arm_cfft_f32.c **** * an argument to arm_cfft_q31.  For example:
 145:../../libDaisy//Drivers/CMSIS/DSP/Source/TransformFunctions/arm_cfft_f32.c **** * \par
 146:../../libDaisy//Drivers/CMSIS/DSP/Source/TransformFunctions/arm_cfft_f32.c **** * <code>arm_cfft_q31(arm_cfft_sR_q31_len64, pSrc, 1, 1)</code>
 147:../../libDaisy//Drivers/CMSIS/DSP/Source/TransformFunctions/arm_cfft_f32.c **** * \par
 148:../../libDaisy//Drivers/CMSIS/DSP/Source/TransformFunctions/arm_cfft_f32.c **** * computes a 64-point inverse complex FFT including bit reversal.
 149:../../libDaisy//Drivers/CMSIS/DSP/Source/TransformFunctions/arm_cfft_f32.c **** * The data structures are treated as constant data and not modified during the
 150:../../libDaisy//Drivers/CMSIS/DSP/Source/TransformFunctions/arm_cfft_f32.c **** * calculation.  The same data structure can be reused for multiple transforms
 151:../../libDaisy//Drivers/CMSIS/DSP/Source/TransformFunctions/arm_cfft_f32.c **** * including mixing forward and inverse transforms.
 152:../../libDaisy//Drivers/CMSIS/DSP/Source/TransformFunctions/arm_cfft_f32.c **** * \par
 153:../../libDaisy//Drivers/CMSIS/DSP/Source/TransformFunctions/arm_cfft_f32.c **** * Earlier releases of the library provided separate radix-2 and radix-4
 154:../../libDaisy//Drivers/CMSIS/DSP/Source/TransformFunctions/arm_cfft_f32.c **** * algorithms that operated on floating-point data.  These functions are still
 155:../../libDaisy//Drivers/CMSIS/DSP/Source/TransformFunctions/arm_cfft_f32.c **** * provided but are deprecated.  The older functions are slower and less general
 156:../../libDaisy//Drivers/CMSIS/DSP/Source/TransformFunctions/arm_cfft_f32.c **** * than the new functions.
 157:../../libDaisy//Drivers/CMSIS/DSP/Source/TransformFunctions/arm_cfft_f32.c **** * \par
 158:../../libDaisy//Drivers/CMSIS/DSP/Source/TransformFunctions/arm_cfft_f32.c **** * An example of initialization of the constants for the arm_cfft_q31 function follows:
 159:../../libDaisy//Drivers/CMSIS/DSP/Source/TransformFunctions/arm_cfft_f32.c **** * \code
 160:../../libDaisy//Drivers/CMSIS/DSP/Source/TransformFunctions/arm_cfft_f32.c **** * const static arm_cfft_instance_q31 *S;
 161:../../libDaisy//Drivers/CMSIS/DSP/Source/TransformFunctions/arm_cfft_f32.c **** * ...
 162:../../libDaisy//Drivers/CMSIS/DSP/Source/TransformFunctions/arm_cfft_f32.c **** *   switch (length) {
 163:../../libDaisy//Drivers/CMSIS/DSP/Source/TransformFunctions/arm_cfft_f32.c **** *     case 16:
 164:../../libDaisy//Drivers/CMSIS/DSP/Source/TransformFunctions/arm_cfft_f32.c **** *       S = &arm_cfft_sR_q31_len16;
 165:../../libDaisy//Drivers/CMSIS/DSP/Source/TransformFunctions/arm_cfft_f32.c **** *       break;
 166:../../libDaisy//Drivers/CMSIS/DSP/Source/TransformFunctions/arm_cfft_f32.c **** *     case 32:
 167:../../libDaisy//Drivers/CMSIS/DSP/Source/TransformFunctions/arm_cfft_f32.c **** *       S = &arm_cfft_sR_q31_len32;
 168:../../libDaisy//Drivers/CMSIS/DSP/Source/TransformFunctions/arm_cfft_f32.c **** *       break;
 169:../../libDaisy//Drivers/CMSIS/DSP/Source/TransformFunctions/arm_cfft_f32.c **** *     case 64:
 170:../../libDaisy//Drivers/CMSIS/DSP/Source/TransformFunctions/arm_cfft_f32.c **** *       S = &arm_cfft_sR_q31_len64;
 171:../../libDaisy//Drivers/CMSIS/DSP/Source/TransformFunctions/arm_cfft_f32.c **** *       break;
 172:../../libDaisy//Drivers/CMSIS/DSP/Source/TransformFunctions/arm_cfft_f32.c **** *     case 128:
 173:../../libDaisy//Drivers/CMSIS/DSP/Source/TransformFunctions/arm_cfft_f32.c **** *       S = &arm_cfft_sR_q31_len128;
 174:../../libDaisy//Drivers/CMSIS/DSP/Source/TransformFunctions/arm_cfft_f32.c **** *       break;
 175:../../libDaisy//Drivers/CMSIS/DSP/Source/TransformFunctions/arm_cfft_f32.c **** *     case 256:
 176:../../libDaisy//Drivers/CMSIS/DSP/Source/TransformFunctions/arm_cfft_f32.c **** *       S = &arm_cfft_sR_q31_len256;
 177:../../libDaisy//Drivers/CMSIS/DSP/Source/TransformFunctions/arm_cfft_f32.c **** *       break;
 178:../../libDaisy//Drivers/CMSIS/DSP/Source/TransformFunctions/arm_cfft_f32.c **** *     case 512:
 179:../../libDaisy//Drivers/CMSIS/DSP/Source/TransformFunctions/arm_cfft_f32.c **** *       S = &arm_cfft_sR_q31_len512;
 180:../../libDaisy//Drivers/CMSIS/DSP/Source/TransformFunctions/arm_cfft_f32.c **** *       break;
 181:../../libDaisy//Drivers/CMSIS/DSP/Source/TransformFunctions/arm_cfft_f32.c **** *     case 1024:
 182:../../libDaisy//Drivers/CMSIS/DSP/Source/TransformFunctions/arm_cfft_f32.c **** *       S = &arm_cfft_sR_q31_len1024;
 183:../../libDaisy//Drivers/CMSIS/DSP/Source/TransformFunctions/arm_cfft_f32.c **** *       break;
 184:../../libDaisy//Drivers/CMSIS/DSP/Source/TransformFunctions/arm_cfft_f32.c **** *     case 2048:
 185:../../libDaisy//Drivers/CMSIS/DSP/Source/TransformFunctions/arm_cfft_f32.c **** *       S = &arm_cfft_sR_q31_len2048;
 186:../../libDaisy//Drivers/CMSIS/DSP/Source/TransformFunctions/arm_cfft_f32.c **** *       break;
 187:../../libDaisy//Drivers/CMSIS/DSP/Source/TransformFunctions/arm_cfft_f32.c **** *     case 4096:
 188:../../libDaisy//Drivers/CMSIS/DSP/Source/TransformFunctions/arm_cfft_f32.c **** *       S = &arm_cfft_sR_q31_len4096;
 189:../../libDaisy//Drivers/CMSIS/DSP/Source/TransformFunctions/arm_cfft_f32.c **** *       break;
 190:../../libDaisy//Drivers/CMSIS/DSP/Source/TransformFunctions/arm_cfft_f32.c **** *   }
 191:../../libDaisy//Drivers/CMSIS/DSP/Source/TransformFunctions/arm_cfft_f32.c **** * \endcode
 192:../../libDaisy//Drivers/CMSIS/DSP/Source/TransformFunctions/arm_cfft_f32.c **** *
 193:../../libDaisy//Drivers/CMSIS/DSP/Source/TransformFunctions/arm_cfft_f32.c **** */
 194:../../libDaisy//Drivers/CMSIS/DSP/Source/TransformFunctions/arm_cfft_f32.c **** 
 195:../../libDaisy//Drivers/CMSIS/DSP/Source/TransformFunctions/arm_cfft_f32.c **** void arm_cfft_radix8by2_f32( arm_cfft_instance_f32 * S, float32_t * p1)
 196:../../libDaisy//Drivers/CMSIS/DSP/Source/TransformFunctions/arm_cfft_f32.c **** {
  30              		.loc 1 196 1 view -0
  31              		.cfi_startproc
  32              		@ args = 0, pretend = 0, frame = 8
  33              		@ frame_needed = 0, uses_anonymous_args = 0
ARM GAS  /var/folders/hl/qgbwny5j0fd895c2c41bk3tw0000gp/T//ccphgPNq.s 			page 5


 197:../../libDaisy//Drivers/CMSIS/DSP/Source/TransformFunctions/arm_cfft_f32.c ****     uint32_t    L  = S->fftLen;
  34              		.loc 1 197 5 view .LVU1
 196:../../libDaisy//Drivers/CMSIS/DSP/Source/TransformFunctions/arm_cfft_f32.c ****     uint32_t    L  = S->fftLen;
  35              		.loc 1 196 1 is_stmt 0 view .LVU2
  36 0000 2DE9F041 		push	{r4, r5, r6, r7, r8, lr}
  37              		.cfi_def_cfa_offset 24
  38              		.cfi_offset 4, -24
  39              		.cfi_offset 5, -20
  40              		.cfi_offset 6, -16
  41              		.cfi_offset 7, -12
  42              		.cfi_offset 8, -8
  43              		.cfi_offset 14, -4
  44 0004 0546     		mov	r5, r0
  45 0006 0846     		mov	r0, r1
  46              	.LVL1:
  47              		.loc 1 197 17 view .LVU3
  48 0008 B5F80080 		ldrh	r8, [r5]
  49              	.LVL2:
 198:../../libDaisy//Drivers/CMSIS/DSP/Source/TransformFunctions/arm_cfft_f32.c ****     float32_t * pCol1, * pCol2, * pMid1, * pMid2;
  50              		.loc 1 198 5 is_stmt 1 view .LVU4
 199:../../libDaisy//Drivers/CMSIS/DSP/Source/TransformFunctions/arm_cfft_f32.c ****     float32_t * p2 = p1 + L;
  51              		.loc 1 199 5 view .LVU5
 200:../../libDaisy//Drivers/CMSIS/DSP/Source/TransformFunctions/arm_cfft_f32.c ****     const float32_t * tw = (float32_t *) S->pTwiddle;
  52              		.loc 1 200 23 is_stmt 0 view .LVU6
  53 000c 6A68     		ldr	r2, [r5, #4]
 201:../../libDaisy//Drivers/CMSIS/DSP/Source/TransformFunctions/arm_cfft_f32.c ****     float32_t t1[4], t2[4], t3[4], t4[4], twR, twI;
 202:../../libDaisy//Drivers/CMSIS/DSP/Source/TransformFunctions/arm_cfft_f32.c ****     float32_t m0, m1, m2, m3;
 203:../../libDaisy//Drivers/CMSIS/DSP/Source/TransformFunctions/arm_cfft_f32.c ****     uint32_t l;
 204:../../libDaisy//Drivers/CMSIS/DSP/Source/TransformFunctions/arm_cfft_f32.c **** 
 205:../../libDaisy//Drivers/CMSIS/DSP/Source/TransformFunctions/arm_cfft_f32.c ****     pCol1 = p1;
 206:../../libDaisy//Drivers/CMSIS/DSP/Source/TransformFunctions/arm_cfft_f32.c ****     pCol2 = p2;
 207:../../libDaisy//Drivers/CMSIS/DSP/Source/TransformFunctions/arm_cfft_f32.c **** 
 208:../../libDaisy//Drivers/CMSIS/DSP/Source/TransformFunctions/arm_cfft_f32.c ****     //    Define new length
 209:../../libDaisy//Drivers/CMSIS/DSP/Source/TransformFunctions/arm_cfft_f32.c ****     L >>= 1;
  54              		.loc 1 209 7 view .LVU7
  55 000e 4FEA5801 		lsr	r1, r8, #1
  56              	.LVL3:
 199:../../libDaisy//Drivers/CMSIS/DSP/Source/TransformFunctions/arm_cfft_f32.c ****     const float32_t * tw = (float32_t *) S->pTwiddle;
  57              		.loc 1 199 17 view .LVU8
  58 0012 00EB8806 		add	r6, r0, r8, lsl #2
  59              	.LVL4:
 200:../../libDaisy//Drivers/CMSIS/DSP/Source/TransformFunctions/arm_cfft_f32.c ****     const float32_t * tw = (float32_t *) S->pTwiddle;
  60              		.loc 1 200 5 is_stmt 1 view .LVU9
 201:../../libDaisy//Drivers/CMSIS/DSP/Source/TransformFunctions/arm_cfft_f32.c ****     float32_t t1[4], t2[4], t3[4], t4[4], twR, twI;
  61              		.loc 1 201 5 view .LVU10
 202:../../libDaisy//Drivers/CMSIS/DSP/Source/TransformFunctions/arm_cfft_f32.c ****     uint32_t l;
  62              		.loc 1 202 5 view .LVU11
 203:../../libDaisy//Drivers/CMSIS/DSP/Source/TransformFunctions/arm_cfft_f32.c **** 
  63              		.loc 1 203 5 view .LVU12
 205:../../libDaisy//Drivers/CMSIS/DSP/Source/TransformFunctions/arm_cfft_f32.c ****     pCol2 = p2;
  64              		.loc 1 205 5 view .LVU13
 206:../../libDaisy//Drivers/CMSIS/DSP/Source/TransformFunctions/arm_cfft_f32.c **** 
  65              		.loc 1 206 5 view .LVU14
  66              		.loc 1 209 5 view .LVU15
 210:../../libDaisy//Drivers/CMSIS/DSP/Source/TransformFunctions/arm_cfft_f32.c ****     //    Initialize mid pointers
 211:../../libDaisy//Drivers/CMSIS/DSP/Source/TransformFunctions/arm_cfft_f32.c ****     pMid1 = p1 + L;
  67              		.loc 1 211 5 view .LVU16
ARM GAS  /var/folders/hl/qgbwny5j0fd895c2c41bk3tw0000gp/T//ccphgPNq.s 			page 6


 212:../../libDaisy//Drivers/CMSIS/DSP/Source/TransformFunctions/arm_cfft_f32.c ****     pMid2 = p2 + L;
  68              		.loc 1 212 5 view .LVU17
 213:../../libDaisy//Drivers/CMSIS/DSP/Source/TransformFunctions/arm_cfft_f32.c **** 
 214:../../libDaisy//Drivers/CMSIS/DSP/Source/TransformFunctions/arm_cfft_f32.c ****     // do two dot Fourier transform
 215:../../libDaisy//Drivers/CMSIS/DSP/Source/TransformFunctions/arm_cfft_f32.c ****     for ( l = L >> 2; l > 0; l-- )
  69              		.loc 1 215 5 view .LVU18
  70              		.loc 1 215 23 view .LVU19
  71              		.loc 1 215 5 is_stmt 0 view .LVU20
  72 0016 5FEAD808 		lsrs	r8, r8, #3
  73              	.LVL5:
 196:../../libDaisy//Drivers/CMSIS/DSP/Source/TransformFunctions/arm_cfft_f32.c ****     uint32_t    L  = S->fftLen;
  74              		.loc 1 196 1 view .LVU21
  75 001a 2DED088B 		vpush.64	{d8, d9, d10, d11}
  76              		.cfi_def_cfa_offset 56
  77              		.cfi_offset 80, -56
  78              		.cfi_offset 81, -52
  79              		.cfi_offset 82, -48
  80              		.cfi_offset 83, -44
  81              		.cfi_offset 84, -40
  82              		.cfi_offset 85, -36
  83              		.cfi_offset 86, -32
  84              		.cfi_offset 87, -28
  85 001e 82B0     		sub	sp, sp, #8
  86              		.cfi_def_cfa_offset 64
  87              		.loc 1 215 5 view .LVU22
  88 0020 00F0A980 		beq	.L2
  89 0024 4FEA810C 		lsl	ip, r1, #2
  90              	.LVL6:
  91              		.loc 1 215 5 view .LVU23
  92 0028 00F11003 		add	r3, r0, #16
  93 002c 02F11007 		add	r7, r2, #16
  94 0030 06F1100E 		add	lr, r6, #16
  95 0034 0CF1100C 		add	ip, ip, #16
  96              	.LVL7:
  97              		.loc 1 215 5 view .LVU24
  98 0038 03EB0818 		add	r8, r3, r8, lsl #4
  99              	.LVL8:
 100              		.loc 1 215 5 view .LVU25
 101 003c 00EB0C04 		add	r4, r0, ip
 102 0040 B444     		add	ip, ip, r6
 103              	.LVL9:
 104              	.L3:
 216:../../libDaisy//Drivers/CMSIS/DSP/Source/TransformFunctions/arm_cfft_f32.c ****     {
 217:../../libDaisy//Drivers/CMSIS/DSP/Source/TransformFunctions/arm_cfft_f32.c ****         t1[0] = p1[0];
 105              		.loc 1 217 9 is_stmt 1 discriminator 3 view .LVU26
 218:../../libDaisy//Drivers/CMSIS/DSP/Source/TransformFunctions/arm_cfft_f32.c ****         t1[1] = p1[1];
 219:../../libDaisy//Drivers/CMSIS/DSP/Source/TransformFunctions/arm_cfft_f32.c ****         t1[2] = p1[2];
 220:../../libDaisy//Drivers/CMSIS/DSP/Source/TransformFunctions/arm_cfft_f32.c ****         t1[3] = p1[3];
 221:../../libDaisy//Drivers/CMSIS/DSP/Source/TransformFunctions/arm_cfft_f32.c **** 
 222:../../libDaisy//Drivers/CMSIS/DSP/Source/TransformFunctions/arm_cfft_f32.c ****         t2[0] = p2[0];
 223:../../libDaisy//Drivers/CMSIS/DSP/Source/TransformFunctions/arm_cfft_f32.c ****         t2[1] = p2[1];
 224:../../libDaisy//Drivers/CMSIS/DSP/Source/TransformFunctions/arm_cfft_f32.c ****         t2[2] = p2[2];
 225:../../libDaisy//Drivers/CMSIS/DSP/Source/TransformFunctions/arm_cfft_f32.c ****         t2[3] = p2[3];
 226:../../libDaisy//Drivers/CMSIS/DSP/Source/TransformFunctions/arm_cfft_f32.c **** 
 227:../../libDaisy//Drivers/CMSIS/DSP/Source/TransformFunctions/arm_cfft_f32.c ****         t3[0] = pMid1[0];
 228:../../libDaisy//Drivers/CMSIS/DSP/Source/TransformFunctions/arm_cfft_f32.c ****         t3[1] = pMid1[1];
 229:../../libDaisy//Drivers/CMSIS/DSP/Source/TransformFunctions/arm_cfft_f32.c ****         t3[2] = pMid1[2];
ARM GAS  /var/folders/hl/qgbwny5j0fd895c2c41bk3tw0000gp/T//ccphgPNq.s 			page 7


 230:../../libDaisy//Drivers/CMSIS/DSP/Source/TransformFunctions/arm_cfft_f32.c ****         t3[3] = pMid1[3];
 231:../../libDaisy//Drivers/CMSIS/DSP/Source/TransformFunctions/arm_cfft_f32.c **** 
 232:../../libDaisy//Drivers/CMSIS/DSP/Source/TransformFunctions/arm_cfft_f32.c ****         t4[0] = pMid2[0];
 233:../../libDaisy//Drivers/CMSIS/DSP/Source/TransformFunctions/arm_cfft_f32.c ****         t4[1] = pMid2[1];
 106              		.loc 1 233 15 is_stmt 0 discriminator 3 view .LVU27
 107 0042 1CED035A 		vldr.32	s10, [ip, #-12]
 215:../../libDaisy//Drivers/CMSIS/DSP/Source/TransformFunctions/arm_cfft_f32.c ****     {
 108              		.loc 1 215 5 discriminator 3 view .LVU28
 109 0046 0EF1100E 		add	lr, lr, #16
 232:../../libDaisy//Drivers/CMSIS/DSP/Source/TransformFunctions/arm_cfft_f32.c ****         t4[1] = pMid2[1];
 110              		.loc 1 232 22 discriminator 3 view .LVU29
 111 004a 1CED042A 		vldr.32	s4, [ip, #-16]
 215:../../libDaisy//Drivers/CMSIS/DSP/Source/TransformFunctions/arm_cfft_f32.c ****     {
 112              		.loc 1 215 5 discriminator 3 view .LVU30
 113 004e 0CF1100C 		add	ip, ip, #16
 222:../../libDaisy//Drivers/CMSIS/DSP/Source/TransformFunctions/arm_cfft_f32.c ****         t2[1] = p2[1];
 114              		.loc 1 222 19 discriminator 3 view .LVU31
 115 0052 5EED082A 		vldr.32	s5, [lr, #-32]
 215:../../libDaisy//Drivers/CMSIS/DSP/Source/TransformFunctions/arm_cfft_f32.c ****     {
 116              		.loc 1 215 5 discriminator 3 view .LVU32
 117 0056 1037     		adds	r7, r7, #16
 223:../../libDaisy//Drivers/CMSIS/DSP/Source/TransformFunctions/arm_cfft_f32.c ****         t2[2] = p2[2];
 118              		.loc 1 223 15 discriminator 3 view .LVU33
 119 0058 1EED073A 		vldr.32	s6, [lr, #-28]
 215:../../libDaisy//Drivers/CMSIS/DSP/Source/TransformFunctions/arm_cfft_f32.c ****     {
 120              		.loc 1 215 5 discriminator 3 view .LVU34
 121 005c 1033     		adds	r3, r3, #16
 122              	.LVL10:
 224:../../libDaisy//Drivers/CMSIS/DSP/Source/TransformFunctions/arm_cfft_f32.c ****         t2[3] = p2[3];
 123              		.loc 1 224 15 discriminator 3 view .LVU35
 124 005e 5EED063A 		vldr.32	s7, [lr, #-24]
 215:../../libDaisy//Drivers/CMSIS/DSP/Source/TransformFunctions/arm_cfft_f32.c ****     {
 125              		.loc 1 215 5 discriminator 3 view .LVU36
 126 0062 1034     		adds	r4, r4, #16
 225:../../libDaisy//Drivers/CMSIS/DSP/Source/TransformFunctions/arm_cfft_f32.c **** 
 127              		.loc 1 225 15 discriminator 3 view .LVU37
 128 0064 1EED054A 		vldr.32	s8, [lr, #-20]
 234:../../libDaisy//Drivers/CMSIS/DSP/Source/TransformFunctions/arm_cfft_f32.c ****         t4[2] = pMid2[2];
 129              		.loc 1 234 15 discriminator 3 view .LVU38
 130 0068 5CED067A 		vldr.32	s15, [ip, #-24]
 235:../../libDaisy//Drivers/CMSIS/DSP/Source/TransformFunctions/arm_cfft_f32.c ****         t4[3] = pMid2[3];
 131              		.loc 1 235 15 discriminator 3 view .LVU39
 132 006c 5CED056A 		vldr.32	s13, [ip, #-20]
 217:../../libDaisy//Drivers/CMSIS/DSP/Source/TransformFunctions/arm_cfft_f32.c ****         t1[1] = p1[1];
 133              		.loc 1 217 19 discriminator 3 view .LVU40
 134 0070 13ED081A 		vldr.32	s2, [r3, #-32]
 135              	.LVL11:
 218:../../libDaisy//Drivers/CMSIS/DSP/Source/TransformFunctions/arm_cfft_f32.c ****         t1[2] = p1[2];
 136              		.loc 1 218 9 is_stmt 1 discriminator 3 view .LVU41
 218:../../libDaisy//Drivers/CMSIS/DSP/Source/TransformFunctions/arm_cfft_f32.c ****         t1[2] = p1[2];
 137              		.loc 1 218 15 is_stmt 0 discriminator 3 view .LVU42
 138 0074 53ED071A 		vldr.32	s3, [r3, #-28]
 139              	.LVL12:
 219:../../libDaisy//Drivers/CMSIS/DSP/Source/TransformFunctions/arm_cfft_f32.c ****         t1[3] = p1[3];
 140              		.loc 1 219 9 is_stmt 1 discriminator 3 view .LVU43
 219:../../libDaisy//Drivers/CMSIS/DSP/Source/TransformFunctions/arm_cfft_f32.c ****         t1[3] = p1[3];
 141              		.loc 1 219 15 is_stmt 0 discriminator 3 view .LVU44
ARM GAS  /var/folders/hl/qgbwny5j0fd895c2c41bk3tw0000gp/T//ccphgPNq.s 			page 8


 142 0078 13ED066A 		vldr.32	s12, [r3, #-24]
 143              	.LVL13:
 220:../../libDaisy//Drivers/CMSIS/DSP/Source/TransformFunctions/arm_cfft_f32.c **** 
 144              		.loc 1 220 9 is_stmt 1 discriminator 3 view .LVU45
 236:../../libDaisy//Drivers/CMSIS/DSP/Source/TransformFunctions/arm_cfft_f32.c **** 
 237:../../libDaisy//Drivers/CMSIS/DSP/Source/TransformFunctions/arm_cfft_f32.c ****         *p1++ = t1[0] + t2[0];
 145              		.loc 1 237 23 is_stmt 0 discriminator 3 view .LVU46
 146 007c 71EE22BA 		vadd.f32	s23, s2, s5
 220:../../libDaisy//Drivers/CMSIS/DSP/Source/TransformFunctions/arm_cfft_f32.c **** 
 147              		.loc 1 220 15 discriminator 3 view .LVU47
 148 0080 13ED057A 		vldr.32	s14, [r3, #-20]
 149              	.LVL14:
 222:../../libDaisy//Drivers/CMSIS/DSP/Source/TransformFunctions/arm_cfft_f32.c ****         t2[1] = p2[1];
 150              		.loc 1 222 9 is_stmt 1 discriminator 3 view .LVU48
 223:../../libDaisy//Drivers/CMSIS/DSP/Source/TransformFunctions/arm_cfft_f32.c ****         t2[2] = p2[2];
 151              		.loc 1 223 9 discriminator 3 view .LVU49
 224:../../libDaisy//Drivers/CMSIS/DSP/Source/TransformFunctions/arm_cfft_f32.c ****         t2[3] = p2[3];
 152              		.loc 1 224 9 discriminator 3 view .LVU50
 225:../../libDaisy//Drivers/CMSIS/DSP/Source/TransformFunctions/arm_cfft_f32.c **** 
 153              		.loc 1 225 9 discriminator 3 view .LVU51
 227:../../libDaisy//Drivers/CMSIS/DSP/Source/TransformFunctions/arm_cfft_f32.c ****         t3[1] = pMid1[1];
 154              		.loc 1 227 9 discriminator 3 view .LVU52
 238:../../libDaisy//Drivers/CMSIS/DSP/Source/TransformFunctions/arm_cfft_f32.c ****         *p1++ = t1[1] + t2[1];
 155              		.loc 1 238 23 is_stmt 0 discriminator 3 view .LVU53
 156 0084 31EE83BA 		vadd.f32	s22, s3, s6
 227:../../libDaisy//Drivers/CMSIS/DSP/Source/TransformFunctions/arm_cfft_f32.c ****         t3[1] = pMid1[1];
 157              		.loc 1 227 22 discriminator 3 view .LVU54
 158 0088 54ED084A 		vldr.32	s9, [r4, #-32]
 159              	.LVL15:
 228:../../libDaisy//Drivers/CMSIS/DSP/Source/TransformFunctions/arm_cfft_f32.c ****         t3[2] = pMid1[2];
 160              		.loc 1 228 9 is_stmt 1 discriminator 3 view .LVU55
 239:../../libDaisy//Drivers/CMSIS/DSP/Source/TransformFunctions/arm_cfft_f32.c ****         *p1++ = t1[2] + t2[2];
 161              		.loc 1 239 23 is_stmt 0 discriminator 3 view .LVU56
 162 008c 76EE23AA 		vadd.f32	s21, s12, s7
 228:../../libDaisy//Drivers/CMSIS/DSP/Source/TransformFunctions/arm_cfft_f32.c ****         t3[2] = pMid1[2];
 163              		.loc 1 228 15 discriminator 3 view .LVU57
 164 0090 54ED075A 		vldr.32	s11, [r4, #-28]
 165              	.LVL16:
 229:../../libDaisy//Drivers/CMSIS/DSP/Source/TransformFunctions/arm_cfft_f32.c ****         t3[3] = pMid1[3];
 166              		.loc 1 229 9 is_stmt 1 discriminator 3 view .LVU58
 240:../../libDaisy//Drivers/CMSIS/DSP/Source/TransformFunctions/arm_cfft_f32.c ****         *p1++ = t1[3] + t2[3];    // col 1
 167              		.loc 1 240 23 is_stmt 0 discriminator 3 view .LVU59
 168 0094 37EE04AA 		vadd.f32	s20, s14, s8
 229:../../libDaisy//Drivers/CMSIS/DSP/Source/TransformFunctions/arm_cfft_f32.c ****         t3[3] = pMid1[3];
 169              		.loc 1 229 15 discriminator 3 view .LVU60
 170 0098 54ED060A 		vldr.32	s1, [r4, #-24]
 171              	.LVL17:
 230:../../libDaisy//Drivers/CMSIS/DSP/Source/TransformFunctions/arm_cfft_f32.c **** 
 172              		.loc 1 230 9 is_stmt 1 discriminator 3 view .LVU61
 241:../../libDaisy//Drivers/CMSIS/DSP/Source/TransformFunctions/arm_cfft_f32.c **** 
 242:../../libDaisy//Drivers/CMSIS/DSP/Source/TransformFunctions/arm_cfft_f32.c ****         t2[0] = t1[0] - t2[0];
 243:../../libDaisy//Drivers/CMSIS/DSP/Source/TransformFunctions/arm_cfft_f32.c ****         t2[1] = t1[1] - t2[1];
 244:../../libDaisy//Drivers/CMSIS/DSP/Source/TransformFunctions/arm_cfft_f32.c ****         t2[2] = t1[2] - t2[2];
 245:../../libDaisy//Drivers/CMSIS/DSP/Source/TransformFunctions/arm_cfft_f32.c ****         t2[3] = t1[3] - t2[3];    // for col 2
 246:../../libDaisy//Drivers/CMSIS/DSP/Source/TransformFunctions/arm_cfft_f32.c **** 
 247:../../libDaisy//Drivers/CMSIS/DSP/Source/TransformFunctions/arm_cfft_f32.c ****         *pMid1++ = t3[0] + t4[0];
 173              		.loc 1 247 26 is_stmt 0 discriminator 3 view .LVU62
ARM GAS  /var/folders/hl/qgbwny5j0fd895c2c41bk3tw0000gp/T//ccphgPNq.s 			page 9


 174 009c 74EE829A 		vadd.f32	s19, s9, s4
 230:../../libDaisy//Drivers/CMSIS/DSP/Source/TransformFunctions/arm_cfft_f32.c **** 
 175              		.loc 1 230 15 discriminator 3 view .LVU63
 176 00a0 14ED050A 		vldr.32	s0, [r4, #-20]
 177              	.LVL18:
 232:../../libDaisy//Drivers/CMSIS/DSP/Source/TransformFunctions/arm_cfft_f32.c ****         t4[1] = pMid2[1];
 178              		.loc 1 232 9 is_stmt 1 discriminator 3 view .LVU64
 233:../../libDaisy//Drivers/CMSIS/DSP/Source/TransformFunctions/arm_cfft_f32.c ****         t4[2] = pMid2[2];
 179              		.loc 1 233 9 discriminator 3 view .LVU65
 234:../../libDaisy//Drivers/CMSIS/DSP/Source/TransformFunctions/arm_cfft_f32.c ****         t4[3] = pMid2[3];
 180              		.loc 1 234 9 discriminator 3 view .LVU66
 235:../../libDaisy//Drivers/CMSIS/DSP/Source/TransformFunctions/arm_cfft_f32.c **** 
 181              		.loc 1 235 9 discriminator 3 view .LVU67
 237:../../libDaisy//Drivers/CMSIS/DSP/Source/TransformFunctions/arm_cfft_f32.c ****         *p1++ = t1[1] + t2[1];
 182              		.loc 1 237 9 discriminator 3 view .LVU68
 248:../../libDaisy//Drivers/CMSIS/DSP/Source/TransformFunctions/arm_cfft_f32.c ****         *pMid1++ = t3[1] + t4[1];
 183              		.loc 1 248 26 is_stmt 0 discriminator 3 view .LVU69
 184 00a4 35EE859A 		vadd.f32	s18, s11, s10
 249:../../libDaisy//Drivers/CMSIS/DSP/Source/TransformFunctions/arm_cfft_f32.c ****         *pMid1++ = t3[2] + t4[2];
 185              		.loc 1 249 26 discriminator 3 view .LVU70
 186 00a8 70EEA78A 		vadd.f32	s17, s1, s15
 237:../../libDaisy//Drivers/CMSIS/DSP/Source/TransformFunctions/arm_cfft_f32.c ****         *p1++ = t1[1] + t2[1];
 187              		.loc 1 237 15 discriminator 3 view .LVU71
 188 00ac 43ED08BA 		vstr.32	s23, [r3, #-32]
 238:../../libDaisy//Drivers/CMSIS/DSP/Source/TransformFunctions/arm_cfft_f32.c ****         *p1++ = t1[2] + t2[2];
 189              		.loc 1 238 9 is_stmt 1 discriminator 3 view .LVU72
 190              	.LVL19:
 250:../../libDaisy//Drivers/CMSIS/DSP/Source/TransformFunctions/arm_cfft_f32.c ****         *pMid1++ = t3[3] + t4[3]; // col 1
 191              		.loc 1 250 26 is_stmt 0 discriminator 3 view .LVU73
 192 00b0 30EE268A 		vadd.f32	s16, s0, s13
 238:../../libDaisy//Drivers/CMSIS/DSP/Source/TransformFunctions/arm_cfft_f32.c ****         *p1++ = t1[2] + t2[2];
 193              		.loc 1 238 15 discriminator 3 view .LVU74
 194 00b4 03ED07BA 		vstr.32	s22, [r3, #-28]
 239:../../libDaisy//Drivers/CMSIS/DSP/Source/TransformFunctions/arm_cfft_f32.c ****         *p1++ = t1[3] + t2[3];    // col 1
 195              		.loc 1 239 9 is_stmt 1 discriminator 3 view .LVU75
 196              	.LVL20:
 239:../../libDaisy//Drivers/CMSIS/DSP/Source/TransformFunctions/arm_cfft_f32.c ****         *p1++ = t1[3] + t2[3];    // col 1
 197              		.loc 1 239 15 is_stmt 0 discriminator 3 view .LVU76
 198 00b8 43ED06AA 		vstr.32	s21, [r3, #-24]
 240:../../libDaisy//Drivers/CMSIS/DSP/Source/TransformFunctions/arm_cfft_f32.c **** 
 199              		.loc 1 240 9 is_stmt 1 discriminator 3 view .LVU77
 200              	.LVL21:
 242:../../libDaisy//Drivers/CMSIS/DSP/Source/TransformFunctions/arm_cfft_f32.c ****         t2[1] = t1[1] - t2[1];
 201              		.loc 1 242 23 is_stmt 0 discriminator 3 view .LVU78
 202 00bc 31EE621A 		vsub.f32	s2, s2, s5
 203              	.LVL22:
 240:../../libDaisy//Drivers/CMSIS/DSP/Source/TransformFunctions/arm_cfft_f32.c **** 
 204              		.loc 1 240 15 discriminator 3 view .LVU79
 205 00c0 03ED05AA 		vstr.32	s20, [r3, #-20]
 242:../../libDaisy//Drivers/CMSIS/DSP/Source/TransformFunctions/arm_cfft_f32.c ****         t2[1] = t1[1] - t2[1];
 206              		.loc 1 242 9 is_stmt 1 discriminator 3 view .LVU80
 207              	.LVL23:
 243:../../libDaisy//Drivers/CMSIS/DSP/Source/TransformFunctions/arm_cfft_f32.c ****         t2[2] = t1[2] - t2[2];
 208              		.loc 1 243 9 discriminator 3 view .LVU81
 243:../../libDaisy//Drivers/CMSIS/DSP/Source/TransformFunctions/arm_cfft_f32.c ****         t2[2] = t1[2] - t2[2];
 209              		.loc 1 243 23 is_stmt 0 discriminator 3 view .LVU82
 210 00c4 71EEC31A 		vsub.f32	s3, s3, s6
ARM GAS  /var/folders/hl/qgbwny5j0fd895c2c41bk3tw0000gp/T//ccphgPNq.s 			page 10


 211              	.LVL24:
 244:../../libDaisy//Drivers/CMSIS/DSP/Source/TransformFunctions/arm_cfft_f32.c ****         t2[3] = t1[3] - t2[3];    // for col 2
 212              		.loc 1 244 9 is_stmt 1 discriminator 3 view .LVU83
 247:../../libDaisy//Drivers/CMSIS/DSP/Source/TransformFunctions/arm_cfft_f32.c ****         *pMid1++ = t3[1] + t4[1];
 213              		.loc 1 247 18 is_stmt 0 discriminator 3 view .LVU84
 214 00c8 44ED089A 		vstr.32	s19, [r4, #-32]
 251:../../libDaisy//Drivers/CMSIS/DSP/Source/TransformFunctions/arm_cfft_f32.c **** 
 252:../../libDaisy//Drivers/CMSIS/DSP/Source/TransformFunctions/arm_cfft_f32.c ****         t4[0] = t4[0] - t3[0];
 215              		.loc 1 252 23 discriminator 3 view .LVU85
 216 00cc 32EE642A 		vsub.f32	s4, s4, s9
 217              	.LVL25:
 248:../../libDaisy//Drivers/CMSIS/DSP/Source/TransformFunctions/arm_cfft_f32.c ****         *pMid1++ = t3[2] + t4[2];
 218              		.loc 1 248 18 discriminator 3 view .LVU86
 219 00d0 04ED079A 		vstr.32	s18, [r4, #-28]
 253:../../libDaisy//Drivers/CMSIS/DSP/Source/TransformFunctions/arm_cfft_f32.c ****         t4[1] = t4[1] - t3[1];
 220              		.loc 1 253 23 discriminator 3 view .LVU87
 221 00d4 75EE655A 		vsub.f32	s11, s10, s11
 222              	.LVL26:
 249:../../libDaisy//Drivers/CMSIS/DSP/Source/TransformFunctions/arm_cfft_f32.c ****         *pMid1++ = t3[3] + t4[3]; // col 1
 223              		.loc 1 249 18 discriminator 3 view .LVU88
 224 00d8 44ED068A 		vstr.32	s17, [r4, #-24]
 245:../../libDaisy//Drivers/CMSIS/DSP/Source/TransformFunctions/arm_cfft_f32.c **** 
 225              		.loc 1 245 23 discriminator 3 view .LVU89
 226 00dc 37EE447A 		vsub.f32	s14, s14, s8
 227              	.LVL27:
 250:../../libDaisy//Drivers/CMSIS/DSP/Source/TransformFunctions/arm_cfft_f32.c **** 
 228              		.loc 1 250 18 discriminator 3 view .LVU90
 229 00e0 04ED058A 		vstr.32	s16, [r4, #-20]
 244:../../libDaisy//Drivers/CMSIS/DSP/Source/TransformFunctions/arm_cfft_f32.c ****         t2[3] = t1[3] - t2[3];    // for col 2
 230              		.loc 1 244 23 discriminator 3 view .LVU91
 231 00e4 36EE636A 		vsub.f32	s12, s12, s7
 232              	.LVL28:
 245:../../libDaisy//Drivers/CMSIS/DSP/Source/TransformFunctions/arm_cfft_f32.c **** 
 233              		.loc 1 245 9 is_stmt 1 discriminator 3 view .LVU92
 247:../../libDaisy//Drivers/CMSIS/DSP/Source/TransformFunctions/arm_cfft_f32.c ****         *pMid1++ = t3[1] + t4[1];
 234              		.loc 1 247 9 discriminator 3 view .LVU93
 248:../../libDaisy//Drivers/CMSIS/DSP/Source/TransformFunctions/arm_cfft_f32.c ****         *pMid1++ = t3[2] + t4[2];
 235              		.loc 1 248 9 discriminator 3 view .LVU94
 249:../../libDaisy//Drivers/CMSIS/DSP/Source/TransformFunctions/arm_cfft_f32.c ****         *pMid1++ = t3[3] + t4[3]; // col 1
 236              		.loc 1 249 9 discriminator 3 view .LVU95
 250:../../libDaisy//Drivers/CMSIS/DSP/Source/TransformFunctions/arm_cfft_f32.c **** 
 237              		.loc 1 250 9 discriminator 3 view .LVU96
 252:../../libDaisy//Drivers/CMSIS/DSP/Source/TransformFunctions/arm_cfft_f32.c ****         t4[1] = t4[1] - t3[1];
 238              		.loc 1 252 9 discriminator 3 view .LVU97
 239              		.loc 1 253 9 discriminator 3 view .LVU98
 254:../../libDaisy//Drivers/CMSIS/DSP/Source/TransformFunctions/arm_cfft_f32.c ****         t4[2] = t4[2] - t3[2];
 240              		.loc 1 254 9 discriminator 3 view .LVU99
 255:../../libDaisy//Drivers/CMSIS/DSP/Source/TransformFunctions/arm_cfft_f32.c ****         t4[3] = t4[3] - t3[3];    // for col 2
 256:../../libDaisy//Drivers/CMSIS/DSP/Source/TransformFunctions/arm_cfft_f32.c **** 
 257:../../libDaisy//Drivers/CMSIS/DSP/Source/TransformFunctions/arm_cfft_f32.c ****         twR = *tw++;
 241              		.loc 1 257 13 is_stmt 0 discriminator 3 view .LVU100
 242 00e8 57ED084A 		vldr.32	s9, [r7, #-32]
 243              	.LVL29:
 254:../../libDaisy//Drivers/CMSIS/DSP/Source/TransformFunctions/arm_cfft_f32.c ****         t4[2] = t4[2] - t3[2];
 244              		.loc 1 254 23 discriminator 3 view .LVU101
 245 00ec 77EEE07A 		vsub.f32	s15, s15, s1
 246              	.LVL30:
ARM GAS  /var/folders/hl/qgbwny5j0fd895c2c41bk3tw0000gp/T//ccphgPNq.s 			page 11


 255:../../libDaisy//Drivers/CMSIS/DSP/Source/TransformFunctions/arm_cfft_f32.c ****         t4[3] = t4[3] - t3[3];    // for col 2
 247              		.loc 1 255 9 is_stmt 1 discriminator 3 view .LVU102
 258:../../libDaisy//Drivers/CMSIS/DSP/Source/TransformFunctions/arm_cfft_f32.c ****         twI = *tw++;
 248              		.loc 1 258 13 is_stmt 0 discriminator 3 view .LVU103
 249 00f0 17ED075A 		vldr.32	s10, [r7, #-28]
 255:../../libDaisy//Drivers/CMSIS/DSP/Source/TransformFunctions/arm_cfft_f32.c ****         t4[3] = t4[3] - t3[3];    // for col 2
 250              		.loc 1 255 23 discriminator 3 view .LVU104
 251 00f4 76EEC06A 		vsub.f32	s13, s13, s0
 252              	.LVL31:
 257:../../libDaisy//Drivers/CMSIS/DSP/Source/TransformFunctions/arm_cfft_f32.c ****         twI = *tw++;
 253              		.loc 1 257 9 is_stmt 1 discriminator 3 view .LVU105
 254              		.loc 1 258 9 discriminator 3 view .LVU106
 259:../../libDaisy//Drivers/CMSIS/DSP/Source/TransformFunctions/arm_cfft_f32.c **** 
 260:../../libDaisy//Drivers/CMSIS/DSP/Source/TransformFunctions/arm_cfft_f32.c ****         // multiply by twiddle factors
 261:../../libDaisy//Drivers/CMSIS/DSP/Source/TransformFunctions/arm_cfft_f32.c ****         m0 = t2[0] * twR;
 255              		.loc 1 261 9 discriminator 3 view .LVU107
 262:../../libDaisy//Drivers/CMSIS/DSP/Source/TransformFunctions/arm_cfft_f32.c ****         m1 = t2[1] * twI;
 256              		.loc 1 262 9 discriminator 3 view .LVU108
 263:../../libDaisy//Drivers/CMSIS/DSP/Source/TransformFunctions/arm_cfft_f32.c ****         m2 = t2[1] * twR;
 257              		.loc 1 263 9 discriminator 3 view .LVU109
 264:../../libDaisy//Drivers/CMSIS/DSP/Source/TransformFunctions/arm_cfft_f32.c ****         m3 = t2[0] * twI;
 258              		.loc 1 264 9 discriminator 3 view .LVU110
 265:../../libDaisy//Drivers/CMSIS/DSP/Source/TransformFunctions/arm_cfft_f32.c **** 
 266:../../libDaisy//Drivers/CMSIS/DSP/Source/TransformFunctions/arm_cfft_f32.c ****         // R  =  R  *  Tr - I * Ti
 267:../../libDaisy//Drivers/CMSIS/DSP/Source/TransformFunctions/arm_cfft_f32.c ****         *p2++ = m0 + m1;
 259              		.loc 1 267 9 discriminator 3 view .LVU111
 268:../../libDaisy//Drivers/CMSIS/DSP/Source/TransformFunctions/arm_cfft_f32.c ****         // I  =  I  *  Tr + R * Ti
 269:../../libDaisy//Drivers/CMSIS/DSP/Source/TransformFunctions/arm_cfft_f32.c ****         *p2++ = m2 - m3;
 270:../../libDaisy//Drivers/CMSIS/DSP/Source/TransformFunctions/arm_cfft_f32.c **** 
 271:../../libDaisy//Drivers/CMSIS/DSP/Source/TransformFunctions/arm_cfft_f32.c ****         // use vertical symmetry
 272:../../libDaisy//Drivers/CMSIS/DSP/Source/TransformFunctions/arm_cfft_f32.c ****         //  0.9988 - 0.0491i <==> -0.0491 - 0.9988i
 273:../../libDaisy//Drivers/CMSIS/DSP/Source/TransformFunctions/arm_cfft_f32.c ****         m0 = t4[0] * twI;
 274:../../libDaisy//Drivers/CMSIS/DSP/Source/TransformFunctions/arm_cfft_f32.c ****         m1 = t4[1] * twR;
 275:../../libDaisy//Drivers/CMSIS/DSP/Source/TransformFunctions/arm_cfft_f32.c ****         m2 = t4[1] * twI;
 276:../../libDaisy//Drivers/CMSIS/DSP/Source/TransformFunctions/arm_cfft_f32.c ****         m3 = t4[0] * twR;
 260              		.loc 1 276 12 is_stmt 0 discriminator 3 view .LVU112
 261 00f8 22EE244A 		vmul.f32	s8, s4, s9
 215:../../libDaisy//Drivers/CMSIS/DSP/Source/TransformFunctions/arm_cfft_f32.c ****     {
 262              		.loc 1 215 5 discriminator 3 view .LVU113
 263 00fc 4345     		cmp	r3, r8
 262:../../libDaisy//Drivers/CMSIS/DSP/Source/TransformFunctions/arm_cfft_f32.c ****         m2 = t2[1] * twR;
 264              		.loc 1 262 12 discriminator 3 view .LVU114
 265 00fe 61EE852A 		vmul.f32	s5, s3, s10
 266              	.LVL32:
 269:../../libDaisy//Drivers/CMSIS/DSP/Source/TransformFunctions/arm_cfft_f32.c **** 
 267              		.loc 1 269 20 discriminator 3 view .LVU115
 268 0102 25EE413A 		vnmul.f32	s6, s10, s2
 277:../../libDaisy//Drivers/CMSIS/DSP/Source/TransformFunctions/arm_cfft_f32.c **** 
 278:../../libDaisy//Drivers/CMSIS/DSP/Source/TransformFunctions/arm_cfft_f32.c ****         *pMid2++ = m0 - m1;
 269              		.loc 1 278 23 discriminator 3 view .LVU116
 270 0106 64EEE53A 		vnmul.f32	s7, s9, s11
 267:../../libDaisy//Drivers/CMSIS/DSP/Source/TransformFunctions/arm_cfft_f32.c ****         // I  =  I  *  Tr + R * Ti
 271              		.loc 1 267 20 discriminator 3 view .LVU117
 272 010a E1EE242A 		vfma.f32	s5, s2, s9
 273              	.LVL33:
 269:../../libDaisy//Drivers/CMSIS/DSP/Source/TransformFunctions/arm_cfft_f32.c **** 
 274              		.loc 1 269 20 discriminator 3 view .LVU118
ARM GAS  /var/folders/hl/qgbwny5j0fd895c2c41bk3tw0000gp/T//ccphgPNq.s 			page 12


 275 010e A1EEA43A 		vfma.f32	s6, s3, s9
 279:../../libDaisy//Drivers/CMSIS/DSP/Source/TransformFunctions/arm_cfft_f32.c ****         *pMid2++ = m2 + m3;
 276              		.loc 1 279 23 discriminator 3 view .LVU119
 277 0112 F0EE444A 		vmov.f32	s9, s8
 278              	.LVL34:
 278:../../libDaisy//Drivers/CMSIS/DSP/Source/TransformFunctions/arm_cfft_f32.c ****         *pMid2++ = m2 + m3;
 279              		.loc 1 278 23 discriminator 3 view .LVU120
 280 0116 E2EE053A 		vfma.f32	s7, s4, s10
 281              		.loc 1 279 23 discriminator 3 view .LVU121
 282 011a E5EE854A 		vfma.f32	s9, s11, s10
 267:../../libDaisy//Drivers/CMSIS/DSP/Source/TransformFunctions/arm_cfft_f32.c ****         // I  =  I  *  Tr + R * Ti
 283              		.loc 1 267 15 discriminator 3 view .LVU122
 284 011e 4EED082A 		vstr.32	s5, [lr, #-32]
 285              	.LVL35:
 269:../../libDaisy//Drivers/CMSIS/DSP/Source/TransformFunctions/arm_cfft_f32.c **** 
 286              		.loc 1 269 9 is_stmt 1 discriminator 3 view .LVU123
 269:../../libDaisy//Drivers/CMSIS/DSP/Source/TransformFunctions/arm_cfft_f32.c **** 
 287              		.loc 1 269 15 is_stmt 0 discriminator 3 view .LVU124
 288 0122 0EED073A 		vstr.32	s6, [lr, #-28]
 273:../../libDaisy//Drivers/CMSIS/DSP/Source/TransformFunctions/arm_cfft_f32.c ****         m1 = t4[1] * twR;
 289              		.loc 1 273 9 is_stmt 1 discriminator 3 view .LVU125
 290              	.LVL36:
 274:../../libDaisy//Drivers/CMSIS/DSP/Source/TransformFunctions/arm_cfft_f32.c ****         m2 = t4[1] * twI;
 291              		.loc 1 274 9 discriminator 3 view .LVU126
 275:../../libDaisy//Drivers/CMSIS/DSP/Source/TransformFunctions/arm_cfft_f32.c ****         m3 = t4[0] * twR;
 292              		.loc 1 275 9 discriminator 3 view .LVU127
 276:../../libDaisy//Drivers/CMSIS/DSP/Source/TransformFunctions/arm_cfft_f32.c **** 
 293              		.loc 1 276 9 discriminator 3 view .LVU128
 278:../../libDaisy//Drivers/CMSIS/DSP/Source/TransformFunctions/arm_cfft_f32.c ****         *pMid2++ = m2 + m3;
 294              		.loc 1 278 9 discriminator 3 view .LVU129
 278:../../libDaisy//Drivers/CMSIS/DSP/Source/TransformFunctions/arm_cfft_f32.c ****         *pMid2++ = m2 + m3;
 295              		.loc 1 278 18 is_stmt 0 discriminator 3 view .LVU130
 296 0126 4CED083A 		vstr.32	s7, [ip, #-32]
 297              		.loc 1 279 9 is_stmt 1 discriminator 3 view .LVU131
 298              		.loc 1 279 18 is_stmt 0 discriminator 3 view .LVU132
 299 012a 4CED074A 		vstr.32	s9, [ip, #-28]
 280:../../libDaisy//Drivers/CMSIS/DSP/Source/TransformFunctions/arm_cfft_f32.c **** 
 281:../../libDaisy//Drivers/CMSIS/DSP/Source/TransformFunctions/arm_cfft_f32.c ****         twR = *tw++;
 300              		.loc 1 281 9 is_stmt 1 discriminator 3 view .LVU133
 301              		.loc 1 281 13 is_stmt 0 discriminator 3 view .LVU134
 302 012e 17ED065A 		vldr.32	s10, [r7, #-24]
 303              	.LVL37:
 282:../../libDaisy//Drivers/CMSIS/DSP/Source/TransformFunctions/arm_cfft_f32.c ****         twI = *tw++;
 304              		.loc 1 282 9 is_stmt 1 discriminator 3 view .LVU135
 305              		.loc 1 282 13 is_stmt 0 discriminator 3 view .LVU136
 306 0132 57ED055A 		vldr.32	s11, [r7, #-20]
 307              	.LVL38:
 283:../../libDaisy//Drivers/CMSIS/DSP/Source/TransformFunctions/arm_cfft_f32.c **** 
 284:../../libDaisy//Drivers/CMSIS/DSP/Source/TransformFunctions/arm_cfft_f32.c ****         m0 = t2[2] * twR;
 308              		.loc 1 284 9 is_stmt 1 discriminator 3 view .LVU137
 285:../../libDaisy//Drivers/CMSIS/DSP/Source/TransformFunctions/arm_cfft_f32.c ****         m1 = t2[3] * twI;
 309              		.loc 1 285 9 discriminator 3 view .LVU138
 286:../../libDaisy//Drivers/CMSIS/DSP/Source/TransformFunctions/arm_cfft_f32.c ****         m2 = t2[3] * twR;
 310              		.loc 1 286 9 discriminator 3 view .LVU139
 287:../../libDaisy//Drivers/CMSIS/DSP/Source/TransformFunctions/arm_cfft_f32.c ****         m3 = t2[2] * twI;
 311              		.loc 1 287 9 discriminator 3 view .LVU140
 288:../../libDaisy//Drivers/CMSIS/DSP/Source/TransformFunctions/arm_cfft_f32.c **** 
ARM GAS  /var/folders/hl/qgbwny5j0fd895c2c41bk3tw0000gp/T//ccphgPNq.s 			page 13


 289:../../libDaisy//Drivers/CMSIS/DSP/Source/TransformFunctions/arm_cfft_f32.c ****         *p2++ = m0 + m1;
 312              		.loc 1 289 9 discriminator 3 view .LVU141
 290:../../libDaisy//Drivers/CMSIS/DSP/Source/TransformFunctions/arm_cfft_f32.c ****         *p2++ = m2 - m3;
 291:../../libDaisy//Drivers/CMSIS/DSP/Source/TransformFunctions/arm_cfft_f32.c **** 
 292:../../libDaisy//Drivers/CMSIS/DSP/Source/TransformFunctions/arm_cfft_f32.c ****         m0 = t4[2] * twI;
 293:../../libDaisy//Drivers/CMSIS/DSP/Source/TransformFunctions/arm_cfft_f32.c ****         m1 = t4[3] * twR;
 294:../../libDaisy//Drivers/CMSIS/DSP/Source/TransformFunctions/arm_cfft_f32.c ****         m2 = t4[3] * twI;
 295:../../libDaisy//Drivers/CMSIS/DSP/Source/TransformFunctions/arm_cfft_f32.c ****         m3 = t4[2] * twR;
 313              		.loc 1 295 12 is_stmt 0 discriminator 3 view .LVU142
 314 0136 67EE854A 		vmul.f32	s9, s15, s10
 285:../../libDaisy//Drivers/CMSIS/DSP/Source/TransformFunctions/arm_cfft_f32.c ****         m2 = t2[3] * twR;
 315              		.loc 1 285 12 discriminator 3 view .LVU143
 316 013a 27EE253A 		vmul.f32	s6, s14, s11
 317              	.LVL39:
 290:../../libDaisy//Drivers/CMSIS/DSP/Source/TransformFunctions/arm_cfft_f32.c ****         *p2++ = m2 - m3;
 318              		.loc 1 290 20 discriminator 3 view .LVU144
 319 013e 65EEC63A 		vnmul.f32	s7, s11, s12
 296:../../libDaisy//Drivers/CMSIS/DSP/Source/TransformFunctions/arm_cfft_f32.c **** 
 297:../../libDaisy//Drivers/CMSIS/DSP/Source/TransformFunctions/arm_cfft_f32.c ****         *pMid2++ = m0 - m1;
 320              		.loc 1 297 23 discriminator 3 view .LVU145
 321 0142 25EE664A 		vnmul.f32	s8, s10, s13
 289:../../libDaisy//Drivers/CMSIS/DSP/Source/TransformFunctions/arm_cfft_f32.c ****         *p2++ = m2 - m3;
 322              		.loc 1 289 20 discriminator 3 view .LVU146
 323 0146 A6EE053A 		vfma.f32	s6, s12, s10
 324              	.LVL40:
 298:../../libDaisy//Drivers/CMSIS/DSP/Source/TransformFunctions/arm_cfft_f32.c ****         *pMid2++ = m2 + m3;
 325              		.loc 1 298 23 discriminator 3 view .LVU147
 326 014a B0EE646A 		vmov.f32	s12, s9
 327              	.LVL41:
 328              		.loc 1 298 23 discriminator 3 view .LVU148
 329 014e A6EEA56A 		vfma.f32	s12, s13, s11
 290:../../libDaisy//Drivers/CMSIS/DSP/Source/TransformFunctions/arm_cfft_f32.c **** 
 330              		.loc 1 290 20 discriminator 3 view .LVU149
 331 0152 F0EE636A 		vmov.f32	s13, s7
 332              	.LVL42:
 289:../../libDaisy//Drivers/CMSIS/DSP/Source/TransformFunctions/arm_cfft_f32.c ****         *p2++ = m2 - m3;
 333              		.loc 1 289 15 discriminator 3 view .LVU150
 334 0156 0EED063A 		vstr.32	s6, [lr, #-24]
 290:../../libDaisy//Drivers/CMSIS/DSP/Source/TransformFunctions/arm_cfft_f32.c **** 
 335              		.loc 1 290 20 discriminator 3 view .LVU151
 336 015a E7EE056A 		vfma.f32	s13, s14, s10
 290:../../libDaisy//Drivers/CMSIS/DSP/Source/TransformFunctions/arm_cfft_f32.c **** 
 337              		.loc 1 290 9 is_stmt 1 discriminator 3 view .LVU152
 297:../../libDaisy//Drivers/CMSIS/DSP/Source/TransformFunctions/arm_cfft_f32.c ****         *pMid2++ = m2 + m3;
 338              		.loc 1 297 23 is_stmt 0 discriminator 3 view .LVU153
 339 015e B0EE447A 		vmov.f32	s14, s8
 340              	.LVL43:
 297:../../libDaisy//Drivers/CMSIS/DSP/Source/TransformFunctions/arm_cfft_f32.c ****         *pMid2++ = m2 + m3;
 341              		.loc 1 297 23 discriminator 3 view .LVU154
 342 0162 A7EEA57A 		vfma.f32	s14, s15, s11
 290:../../libDaisy//Drivers/CMSIS/DSP/Source/TransformFunctions/arm_cfft_f32.c **** 
 343              		.loc 1 290 15 discriminator 3 view .LVU155
 344 0166 4EED056A 		vstr.32	s13, [lr, #-20]
 292:../../libDaisy//Drivers/CMSIS/DSP/Source/TransformFunctions/arm_cfft_f32.c ****         m1 = t4[3] * twR;
 345              		.loc 1 292 9 is_stmt 1 discriminator 3 view .LVU156
 346              	.LVL44:
 293:../../libDaisy//Drivers/CMSIS/DSP/Source/TransformFunctions/arm_cfft_f32.c ****         m2 = t4[3] * twI;
ARM GAS  /var/folders/hl/qgbwny5j0fd895c2c41bk3tw0000gp/T//ccphgPNq.s 			page 14


 347              		.loc 1 293 9 discriminator 3 view .LVU157
 294:../../libDaisy//Drivers/CMSIS/DSP/Source/TransformFunctions/arm_cfft_f32.c ****         m3 = t4[2] * twR;
 348              		.loc 1 294 9 discriminator 3 view .LVU158
 295:../../libDaisy//Drivers/CMSIS/DSP/Source/TransformFunctions/arm_cfft_f32.c **** 
 349              		.loc 1 295 9 discriminator 3 view .LVU159
 297:../../libDaisy//Drivers/CMSIS/DSP/Source/TransformFunctions/arm_cfft_f32.c ****         *pMid2++ = m2 + m3;
 350              		.loc 1 297 9 discriminator 3 view .LVU160
 351              		.loc 1 298 18 is_stmt 0 discriminator 3 view .LVU161
 352 016a 0CED056A 		vstr.32	s12, [ip, #-20]
 297:../../libDaisy//Drivers/CMSIS/DSP/Source/TransformFunctions/arm_cfft_f32.c ****         *pMid2++ = m2 + m3;
 353              		.loc 1 297 18 discriminator 3 view .LVU162
 354 016e 0CED067A 		vstr.32	s14, [ip, #-24]
 355              		.loc 1 298 9 is_stmt 1 discriminator 3 view .LVU163
 215:../../libDaisy//Drivers/CMSIS/DSP/Source/TransformFunctions/arm_cfft_f32.c ****     {
 356              		.loc 1 215 30 discriminator 3 view .LVU164
 215:../../libDaisy//Drivers/CMSIS/DSP/Source/TransformFunctions/arm_cfft_f32.c ****     {
 357              		.loc 1 215 23 discriminator 3 view .LVU165
 215:../../libDaisy//Drivers/CMSIS/DSP/Source/TransformFunctions/arm_cfft_f32.c ****     {
 358              		.loc 1 215 5 is_stmt 0 discriminator 3 view .LVU166
 359 0172 7FF466AF 		bne	.L3
 360              	.LVL45:
 361              	.L2:
 299:../../libDaisy//Drivers/CMSIS/DSP/Source/TransformFunctions/arm_cfft_f32.c ****     }
 300:../../libDaisy//Drivers/CMSIS/DSP/Source/TransformFunctions/arm_cfft_f32.c **** 
 301:../../libDaisy//Drivers/CMSIS/DSP/Source/TransformFunctions/arm_cfft_f32.c ****     // first col
 302:../../libDaisy//Drivers/CMSIS/DSP/Source/TransformFunctions/arm_cfft_f32.c ****     arm_radix8_butterfly_f32( pCol1, L, (float32_t *) S->pTwiddle, 2u);
 362              		.loc 1 302 5 is_stmt 1 view .LVU167
 363 0176 89B2     		uxth	r1, r1
 364              	.LVL46:
 365              		.loc 1 302 5 is_stmt 0 view .LVU168
 366 0178 0223     		movs	r3, #2
 367 017a 0191     		str	r1, [sp, #4]
 368 017c FFF7FEFF 		bl	arm_radix8_butterfly_f32
 369              	.LVL47:
 303:../../libDaisy//Drivers/CMSIS/DSP/Source/TransformFunctions/arm_cfft_f32.c ****     // second col
 304:../../libDaisy//Drivers/CMSIS/DSP/Source/TransformFunctions/arm_cfft_f32.c ****     arm_radix8_butterfly_f32( pCol2, L, (float32_t *) S->pTwiddle, 2u);
 370              		.loc 1 304 5 is_stmt 1 view .LVU169
 371 0180 0223     		movs	r3, #2
 372 0182 6A68     		ldr	r2, [r5, #4]
 373 0184 0199     		ldr	r1, [sp, #4]
 374 0186 3046     		mov	r0, r6
 305:../../libDaisy//Drivers/CMSIS/DSP/Source/TransformFunctions/arm_cfft_f32.c **** }
 375              		.loc 1 305 1 is_stmt 0 view .LVU170
 376 0188 02B0     		add	sp, sp, #8
 377              		.cfi_def_cfa_offset 56
 378              		@ sp needed
 379 018a BDEC088B 		vldm	sp!, {d8-d11}
 380              		.cfi_restore 86
 381              		.cfi_restore 87
 382              		.cfi_restore 84
 383              		.cfi_restore 85
 384              		.cfi_restore 82
 385              		.cfi_restore 83
 386              		.cfi_restore 80
 387              		.cfi_restore 81
 388              		.cfi_def_cfa_offset 24
 389 018e BDE8F041 		pop	{r4, r5, r6, r7, r8, lr}
ARM GAS  /var/folders/hl/qgbwny5j0fd895c2c41bk3tw0000gp/T//ccphgPNq.s 			page 15


 390              		.cfi_restore 14
 391              		.cfi_restore 8
 392              		.cfi_restore 7
 393              		.cfi_restore 6
 394              		.cfi_restore 5
 395              		.cfi_restore 4
 396              		.cfi_def_cfa_offset 0
 397              	.LVL48:
 304:../../libDaisy//Drivers/CMSIS/DSP/Source/TransformFunctions/arm_cfft_f32.c **** }
 398              		.loc 1 304 5 view .LVU171
 399 0192 FFF7FEBF 		b	arm_radix8_butterfly_f32
 400              	.LVL49:
 304:../../libDaisy//Drivers/CMSIS/DSP/Source/TransformFunctions/arm_cfft_f32.c **** }
 401              		.loc 1 304 5 view .LVU172
 402              		.cfi_endproc
 403              	.LFE353:
 405 0196 00BF     		.section	.text.arm_cfft_radix8by4_f32,"ax",%progbits
 406              		.align	1
 407              		.p2align 2,,3
 408              		.global	arm_cfft_radix8by4_f32
 409              		.syntax unified
 410              		.thumb
 411              		.thumb_func
 412              		.fpu fpv5-d16
 414              	arm_cfft_radix8by4_f32:
 415              	.LVL50:
 416              	.LFB354:
 306:../../libDaisy//Drivers/CMSIS/DSP/Source/TransformFunctions/arm_cfft_f32.c **** 
 307:../../libDaisy//Drivers/CMSIS/DSP/Source/TransformFunctions/arm_cfft_f32.c **** void arm_cfft_radix8by4_f32( arm_cfft_instance_f32 * S, float32_t * p1)
 308:../../libDaisy//Drivers/CMSIS/DSP/Source/TransformFunctions/arm_cfft_f32.c **** {
 417              		.loc 1 308 1 is_stmt 1 view -0
 418              		.cfi_startproc
 419              		@ args = 0, pretend = 0, frame = 56
 420              		@ frame_needed = 0, uses_anonymous_args = 0
 309:../../libDaisy//Drivers/CMSIS/DSP/Source/TransformFunctions/arm_cfft_f32.c ****     uint32_t    L  = S->fftLen >> 1;
 421              		.loc 1 309 5 view .LVU174
 308:../../libDaisy//Drivers/CMSIS/DSP/Source/TransformFunctions/arm_cfft_f32.c ****     uint32_t    L  = S->fftLen >> 1;
 422              		.loc 1 308 1 is_stmt 0 view .LVU175
 423 0000 2DE9F04F 		push	{r4, r5, r6, r7, r8, r9, r10, fp, lr}
 424              		.cfi_def_cfa_offset 36
 425              		.cfi_offset 4, -36
 426              		.cfi_offset 5, -32
 427              		.cfi_offset 6, -28
 428              		.cfi_offset 7, -24
 429              		.cfi_offset 8, -20
 430              		.cfi_offset 9, -16
 431              		.cfi_offset 10, -12
 432              		.cfi_offset 11, -8
 433              		.cfi_offset 14, -4
 434 0004 2DED028B 		vpush.64	{d8}
 435              		.cfi_def_cfa_offset 44
 436              		.cfi_offset 80, -44
 437              		.cfi_offset 81, -40
 438 0008 8FB0     		sub	sp, sp, #60
 439              		.cfi_def_cfa_offset 104
 308:../../libDaisy//Drivers/CMSIS/DSP/Source/TransformFunctions/arm_cfft_f32.c ****     uint32_t    L  = S->fftLen >> 1;
 440              		.loc 1 308 1 view .LVU176
ARM GAS  /var/folders/hl/qgbwny5j0fd895c2c41bk3tw0000gp/T//ccphgPNq.s 			page 16


 441 000a 0D46     		mov	r5, r1
 442 000c 0646     		mov	r6, r0
 443 000e 0C91     		str	r1, [sp, #48]
 444              		.loc 1 309 32 view .LVU177
 445 0010 0188     		ldrh	r1, [r0]
 446              	.LVL51:
 310:../../libDaisy//Drivers/CMSIS/DSP/Source/TransformFunctions/arm_cfft_f32.c ****     float32_t * pCol1, *pCol2, *pCol3, *pCol4, *pEnd1, *pEnd2, *pEnd3, *pEnd4;
 311:../../libDaisy//Drivers/CMSIS/DSP/Source/TransformFunctions/arm_cfft_f32.c ****     const float32_t *tw2, *tw3, *tw4;
 312:../../libDaisy//Drivers/CMSIS/DSP/Source/TransformFunctions/arm_cfft_f32.c ****     float32_t * p2 = p1 + L;
 313:../../libDaisy//Drivers/CMSIS/DSP/Source/TransformFunctions/arm_cfft_f32.c ****     float32_t * p3 = p2 + L;
 314:../../libDaisy//Drivers/CMSIS/DSP/Source/TransformFunctions/arm_cfft_f32.c ****     float32_t * p4 = p3 + L;
 315:../../libDaisy//Drivers/CMSIS/DSP/Source/TransformFunctions/arm_cfft_f32.c ****     float32_t t2[4], t3[4], t4[4], twR, twI;
 316:../../libDaisy//Drivers/CMSIS/DSP/Source/TransformFunctions/arm_cfft_f32.c ****     float32_t p1ap3_0, p1sp3_0, p1ap3_1, p1sp3_1;
 317:../../libDaisy//Drivers/CMSIS/DSP/Source/TransformFunctions/arm_cfft_f32.c ****     float32_t m0, m1, m2, m3;
 318:../../libDaisy//Drivers/CMSIS/DSP/Source/TransformFunctions/arm_cfft_f32.c ****     uint32_t l, twMod2, twMod3, twMod4;
 319:../../libDaisy//Drivers/CMSIS/DSP/Source/TransformFunctions/arm_cfft_f32.c **** 
 320:../../libDaisy//Drivers/CMSIS/DSP/Source/TransformFunctions/arm_cfft_f32.c ****     pCol1 = p1;         // points to real values by default
 321:../../libDaisy//Drivers/CMSIS/DSP/Source/TransformFunctions/arm_cfft_f32.c ****     pCol2 = p2;
 322:../../libDaisy//Drivers/CMSIS/DSP/Source/TransformFunctions/arm_cfft_f32.c ****     pCol3 = p3;
 323:../../libDaisy//Drivers/CMSIS/DSP/Source/TransformFunctions/arm_cfft_f32.c ****     pCol4 = p4;
 324:../../libDaisy//Drivers/CMSIS/DSP/Source/TransformFunctions/arm_cfft_f32.c ****     pEnd1 = p2 - 1;     // points to imaginary values by default
 325:../../libDaisy//Drivers/CMSIS/DSP/Source/TransformFunctions/arm_cfft_f32.c ****     pEnd2 = p3 - 1;
 326:../../libDaisy//Drivers/CMSIS/DSP/Source/TransformFunctions/arm_cfft_f32.c ****     pEnd3 = p4 - 1;
 327:../../libDaisy//Drivers/CMSIS/DSP/Source/TransformFunctions/arm_cfft_f32.c ****     pEnd4 = pEnd3 + L;
 328:../../libDaisy//Drivers/CMSIS/DSP/Source/TransformFunctions/arm_cfft_f32.c **** 
 329:../../libDaisy//Drivers/CMSIS/DSP/Source/TransformFunctions/arm_cfft_f32.c ****     tw2 = tw3 = tw4 = (float32_t *) S->pTwiddle;
 330:../../libDaisy//Drivers/CMSIS/DSP/Source/TransformFunctions/arm_cfft_f32.c **** 
 331:../../libDaisy//Drivers/CMSIS/DSP/Source/TransformFunctions/arm_cfft_f32.c ****     L >>= 1;
 332:../../libDaisy//Drivers/CMSIS/DSP/Source/TransformFunctions/arm_cfft_f32.c **** 
 333:../../libDaisy//Drivers/CMSIS/DSP/Source/TransformFunctions/arm_cfft_f32.c ****     // do four dot Fourier transform
 334:../../libDaisy//Drivers/CMSIS/DSP/Source/TransformFunctions/arm_cfft_f32.c **** 
 335:../../libDaisy//Drivers/CMSIS/DSP/Source/TransformFunctions/arm_cfft_f32.c ****     twMod2 = 2;
 336:../../libDaisy//Drivers/CMSIS/DSP/Source/TransformFunctions/arm_cfft_f32.c ****     twMod3 = 4;
 337:../../libDaisy//Drivers/CMSIS/DSP/Source/TransformFunctions/arm_cfft_f32.c ****     twMod4 = 6;
 338:../../libDaisy//Drivers/CMSIS/DSP/Source/TransformFunctions/arm_cfft_f32.c **** 
 339:../../libDaisy//Drivers/CMSIS/DSP/Source/TransformFunctions/arm_cfft_f32.c ****     // TOP
 340:../../libDaisy//Drivers/CMSIS/DSP/Source/TransformFunctions/arm_cfft_f32.c ****     p1ap3_0 = p1[0] + p3[0];
 447              		.loc 1 340 17 view .LVU178
 448 0012 D5ED007A 		vldr.32	s15, [r5]
 309:../../libDaisy//Drivers/CMSIS/DSP/Source/TransformFunctions/arm_cfft_f32.c ****     float32_t * pCol1, *pCol2, *pCol3, *pCol4, *pEnd1, *pEnd2, *pEnd3, *pEnd4;
 449              		.loc 1 309 17 view .LVU179
 450 0016 4908     		lsrs	r1, r1, #1
 451              	.LVL52:
 310:../../libDaisy//Drivers/CMSIS/DSP/Source/TransformFunctions/arm_cfft_f32.c ****     float32_t * pCol1, *pCol2, *pCol3, *pCol4, *pEnd1, *pEnd2, *pEnd3, *pEnd4;
 452              		.loc 1 310 5 is_stmt 1 view .LVU180
 311:../../libDaisy//Drivers/CMSIS/DSP/Source/TransformFunctions/arm_cfft_f32.c ****     float32_t * p2 = p1 + L;
 453              		.loc 1 311 5 view .LVU181
 312:../../libDaisy//Drivers/CMSIS/DSP/Source/TransformFunctions/arm_cfft_f32.c ****     float32_t * p3 = p2 + L;
 454              		.loc 1 312 5 view .LVU182
 341:../../libDaisy//Drivers/CMSIS/DSP/Source/TransformFunctions/arm_cfft_f32.c ****     p1sp3_0 = p1[0] - p3[0];
 342:../../libDaisy//Drivers/CMSIS/DSP/Source/TransformFunctions/arm_cfft_f32.c ****     p1ap3_1 = p1[1] + p3[1];
 455              		.loc 1 342 17 is_stmt 0 view .LVU183
 456 0018 D5ED015A 		vldr.32	s11, [r5, #4]
 329:../../libDaisy//Drivers/CMSIS/DSP/Source/TransformFunctions/arm_cfft_f32.c **** 
 457              		.loc 1 329 21 view .LVU184
 458 001c 7668     		ldr	r6, [r6, #4]
 313:../../libDaisy//Drivers/CMSIS/DSP/Source/TransformFunctions/arm_cfft_f32.c ****     float32_t * p4 = p3 + L;
ARM GAS  /var/folders/hl/qgbwny5j0fd895c2c41bk3tw0000gp/T//ccphgPNq.s 			page 17


 459              		.loc 1 313 17 view .LVU185
 460 001e 05EBC102 		add	r2, r5, r1, lsl #3
 308:../../libDaisy//Drivers/CMSIS/DSP/Source/TransformFunctions/arm_cfft_f32.c ****     uint32_t    L  = S->fftLen >> 1;
 461              		.loc 1 308 1 view .LVU186
 462 0022 0B90     		str	r0, [sp, #44]
 312:../../libDaisy//Drivers/CMSIS/DSP/Source/TransformFunctions/arm_cfft_f32.c ****     float32_t * p3 = p2 + L;
 463              		.loc 1 312 17 view .LVU187
 464 0024 05EB8107 		add	r7, r5, r1, lsl #2
 465              	.LVL53:
 313:../../libDaisy//Drivers/CMSIS/DSP/Source/TransformFunctions/arm_cfft_f32.c ****     float32_t * p4 = p3 + L;
 466              		.loc 1 313 5 is_stmt 1 view .LVU188
 343:../../libDaisy//Drivers/CMSIS/DSP/Source/TransformFunctions/arm_cfft_f32.c ****     p1sp3_1 = p1[1] - p3[1];
 344:../../libDaisy//Drivers/CMSIS/DSP/Source/TransformFunctions/arm_cfft_f32.c **** 
 345:../../libDaisy//Drivers/CMSIS/DSP/Source/TransformFunctions/arm_cfft_f32.c ****     // col 2
 346:../../libDaisy//Drivers/CMSIS/DSP/Source/TransformFunctions/arm_cfft_f32.c ****     t2[0] = p1sp3_0 + p2[1] - p4[1];
 347:../../libDaisy//Drivers/CMSIS/DSP/Source/TransformFunctions/arm_cfft_f32.c ****     t2[1] = p1sp3_1 - p2[0] + p4[0];
 348:../../libDaisy//Drivers/CMSIS/DSP/Source/TransformFunctions/arm_cfft_f32.c ****     // col 3
 349:../../libDaisy//Drivers/CMSIS/DSP/Source/TransformFunctions/arm_cfft_f32.c ****     t3[0] = p1ap3_0 - p2[0] - p4[0];
 350:../../libDaisy//Drivers/CMSIS/DSP/Source/TransformFunctions/arm_cfft_f32.c ****     t3[1] = p1ap3_1 - p2[1] - p4[1];
 351:../../libDaisy//Drivers/CMSIS/DSP/Source/TransformFunctions/arm_cfft_f32.c ****     // col 4
 352:../../libDaisy//Drivers/CMSIS/DSP/Source/TransformFunctions/arm_cfft_f32.c ****     t4[0] = p1sp3_0 - p2[1] + p4[1];
 353:../../libDaisy//Drivers/CMSIS/DSP/Source/TransformFunctions/arm_cfft_f32.c ****     t4[1] = p1sp3_1 + p2[0] - p4[0];
 354:../../libDaisy//Drivers/CMSIS/DSP/Source/TransformFunctions/arm_cfft_f32.c ****     // col 1
 355:../../libDaisy//Drivers/CMSIS/DSP/Source/TransformFunctions/arm_cfft_f32.c ****     *p1++ = p1ap3_0 + p2[0] + p4[0];
 467              		.loc 1 355 11 is_stmt 0 view .LVU189
 468 0028 2846     		mov	r0, r5
 469              	.LVL54:
 340:../../libDaisy//Drivers/CMSIS/DSP/Source/TransformFunctions/arm_cfft_f32.c ****     p1sp3_0 = p1[0] - p3[0];
 470              		.loc 1 340 25 view .LVU190
 471 002a 92ED006A 		vldr.32	s12, [r2]
 314:../../libDaisy//Drivers/CMSIS/DSP/Source/TransformFunctions/arm_cfft_f32.c ****     float32_t t2[4], t3[4], t4[4], twR, twI;
 472              		.loc 1 314 17 view .LVU191
 473 002e 02EB8104 		add	r4, r2, r1, lsl #2
 342:../../libDaisy//Drivers/CMSIS/DSP/Source/TransformFunctions/arm_cfft_f32.c ****     p1sp3_1 = p1[1] - p3[1];
 474              		.loc 1 342 25 view .LVU192
 475 0032 92ED015A 		vldr.32	s10, [r2, #4]
 312:../../libDaisy//Drivers/CMSIS/DSP/Source/TransformFunctions/arm_cfft_f32.c ****     float32_t * p3 = p2 + L;
 476              		.loc 1 312 25 view .LVU193
 477 0036 8B00     		lsls	r3, r1, #2
 340:../../libDaisy//Drivers/CMSIS/DSP/Source/TransformFunctions/arm_cfft_f32.c ****     p1sp3_0 = p1[0] - p3[0];
 478              		.loc 1 340 13 view .LVU194
 479 0038 77EE866A 		vadd.f32	s13, s15, s12
 347:../../libDaisy//Drivers/CMSIS/DSP/Source/TransformFunctions/arm_cfft_f32.c ****     // col 3
 480              		.loc 1 347 25 view .LVU195
 481 003c 97ED007A 		vldr.32	s14, [r7]
 341:../../libDaisy//Drivers/CMSIS/DSP/Source/TransformFunctions/arm_cfft_f32.c ****     p1ap3_1 = p1[1] + p3[1];
 482              		.loc 1 341 13 view .LVU196
 483 0040 77EEC67A 		vsub.f32	s15, s15, s12
 346:../../libDaisy//Drivers/CMSIS/DSP/Source/TransformFunctions/arm_cfft_f32.c ****     t2[1] = p1sp3_1 - p2[0] + p4[0];
 484              		.loc 1 346 25 view .LVU197
 485 0044 97ED013A 		vldr.32	s6, [r7, #4]
 342:../../libDaisy//Drivers/CMSIS/DSP/Source/TransformFunctions/arm_cfft_f32.c ****     p1sp3_1 = p1[1] - p3[1];
 486              		.loc 1 342 13 view .LVU198
 487 0048 35EE856A 		vadd.f32	s12, s11, s10
 331:../../libDaisy//Drivers/CMSIS/DSP/Source/TransformFunctions/arm_cfft_f32.c **** 
 488              		.loc 1 331 7 view .LVU199
 489 004c 4908     		lsrs	r1, r1, #1
ARM GAS  /var/folders/hl/qgbwny5j0fd895c2c41bk3tw0000gp/T//ccphgPNq.s 			page 18


 490              	.LVL55:
 343:../../libDaisy//Drivers/CMSIS/DSP/Source/TransformFunctions/arm_cfft_f32.c **** 
 491              		.loc 1 343 13 view .LVU200
 492 004e 75EEC55A 		vsub.f32	s11, s11, s10
 313:../../libDaisy//Drivers/CMSIS/DSP/Source/TransformFunctions/arm_cfft_f32.c ****     float32_t * p4 = p3 + L;
 493              		.loc 1 313 17 view .LVU201
 494 0052 0992     		str	r2, [sp, #36]
 495              	.LVL56:
 314:../../libDaisy//Drivers/CMSIS/DSP/Source/TransformFunctions/arm_cfft_f32.c ****     float32_t t2[4], t3[4], t4[4], twR, twI;
 496              		.loc 1 314 5 is_stmt 1 view .LVU202
 497              		.loc 1 355 21 is_stmt 0 view .LVU203
 498 0054 77EE263A 		vadd.f32	s7, s14, s13
 331:../../libDaisy//Drivers/CMSIS/DSP/Source/TransformFunctions/arm_cfft_f32.c **** 
 499              		.loc 1 331 7 view .LVU204
 500 0058 0691     		str	r1, [sp, #24]
 349:../../libDaisy//Drivers/CMSIS/DSP/Source/TransformFunctions/arm_cfft_f32.c ****     t3[1] = p1ap3_1 - p2[1] - p4[1];
 501              		.loc 1 349 21 view .LVU205
 502 005a 76EEC76A 		vsub.f32	s13, s13, s14
 356:../../libDaisy//Drivers/CMSIS/DSP/Source/TransformFunctions/arm_cfft_f32.c ****     *p1++ = p1ap3_1 + p2[1] + p4[1];
 357:../../libDaisy//Drivers/CMSIS/DSP/Source/TransformFunctions/arm_cfft_f32.c **** 
 358:../../libDaisy//Drivers/CMSIS/DSP/Source/TransformFunctions/arm_cfft_f32.c ****     // Twiddle factors are ones
 359:../../libDaisy//Drivers/CMSIS/DSP/Source/TransformFunctions/arm_cfft_f32.c ****     *p2++ = t2[0];
 360:../../libDaisy//Drivers/CMSIS/DSP/Source/TransformFunctions/arm_cfft_f32.c ****     *p2++ = t2[1];
 361:../../libDaisy//Drivers/CMSIS/DSP/Source/TransformFunctions/arm_cfft_f32.c ****     *p3++ = t3[0];
 503              		.loc 1 361 11 view .LVU206
 504 005e 1146     		mov	r1, r2
 347:../../libDaisy//Drivers/CMSIS/DSP/Source/TransformFunctions/arm_cfft_f32.c ****     // col 3
 505              		.loc 1 347 21 view .LVU207
 506 0060 75EEC74A 		vsub.f32	s9, s11, s14
 355:../../libDaisy//Drivers/CMSIS/DSP/Source/TransformFunctions/arm_cfft_f32.c ****     *p1++ = p1ap3_1 + p2[1] + p4[1];
 507              		.loc 1 355 11 view .LVU208
 508 0064 0830     		adds	r0, r0, #8
 353:../../libDaisy//Drivers/CMSIS/DSP/Source/TransformFunctions/arm_cfft_f32.c ****     // col 1
 509              		.loc 1 353 21 view .LVU209
 510 0066 37EE257A 		vadd.f32	s14, s14, s11
 347:../../libDaisy//Drivers/CMSIS/DSP/Source/TransformFunctions/arm_cfft_f32.c ****     // col 3
 511              		.loc 1 347 33 view .LVU210
 512 006a D4ED005A 		vldr.32	s11, [r4]
 346:../../libDaisy//Drivers/CMSIS/DSP/Source/TransformFunctions/arm_cfft_f32.c ****     t2[1] = p1sp3_1 - p2[0] + p4[0];
 513              		.loc 1 346 21 view .LVU211
 514 006e 33EE274A 		vadd.f32	s8, s6, s15
 515              		.loc 1 361 11 view .LVU212
 516 0072 0831     		adds	r1, r1, #8
 355:../../libDaisy//Drivers/CMSIS/DSP/Source/TransformFunctions/arm_cfft_f32.c ****     *p1++ = p1ap3_1 + p2[1] + p4[1];
 517              		.loc 1 355 29 view .LVU213
 518 0074 73EEA53A 		vadd.f32	s7, s7, s11
 362:../../libDaisy//Drivers/CMSIS/DSP/Source/TransformFunctions/arm_cfft_f32.c ****     *p3++ = t3[1];
 363:../../libDaisy//Drivers/CMSIS/DSP/Source/TransformFunctions/arm_cfft_f32.c ****     *p4++ = t4[0];
 364:../../libDaisy//Drivers/CMSIS/DSP/Source/TransformFunctions/arm_cfft_f32.c ****     *p4++ = t4[1];
 365:../../libDaisy//Drivers/CMSIS/DSP/Source/TransformFunctions/arm_cfft_f32.c **** 
 366:../../libDaisy//Drivers/CMSIS/DSP/Source/TransformFunctions/arm_cfft_f32.c ****     tw2 += twMod2;
 519              		.loc 1 366 9 view .LVU214
 520 0078 06F1080C 		add	ip, r6, #8
 350:../../libDaisy//Drivers/CMSIS/DSP/Source/TransformFunctions/arm_cfft_f32.c ****     // col 4
 521              		.loc 1 350 21 view .LVU215
 522 007c 36EE435A 		vsub.f32	s10, s12, s6
 361:../../libDaisy//Drivers/CMSIS/DSP/Source/TransformFunctions/arm_cfft_f32.c ****     *p3++ = t3[1];
ARM GAS  /var/folders/hl/qgbwny5j0fd895c2c41bk3tw0000gp/T//ccphgPNq.s 			page 19


 523              		.loc 1 361 11 view .LVU216
 524 0080 0591     		str	r1, [sp, #20]
 352:../../libDaisy//Drivers/CMSIS/DSP/Source/TransformFunctions/arm_cfft_f32.c ****     t4[1] = p1sp3_1 + p2[0] - p4[0];
 525              		.loc 1 352 21 view .LVU217
 526 0082 77EEC37A 		vsub.f32	s15, s15, s6
 527              	.LVL57:
 315:../../libDaisy//Drivers/CMSIS/DSP/Source/TransformFunctions/arm_cfft_f32.c ****     float32_t p1ap3_0, p1sp3_0, p1ap3_1, p1sp3_1;
 528              		.loc 1 315 5 is_stmt 1 view .LVU218
 316:../../libDaisy//Drivers/CMSIS/DSP/Source/TransformFunctions/arm_cfft_f32.c ****     float32_t m0, m1, m2, m3;
 529              		.loc 1 316 5 view .LVU219
 317:../../libDaisy//Drivers/CMSIS/DSP/Source/TransformFunctions/arm_cfft_f32.c ****     uint32_t l, twMod2, twMod3, twMod4;
 530              		.loc 1 317 5 view .LVU220
 318:../../libDaisy//Drivers/CMSIS/DSP/Source/TransformFunctions/arm_cfft_f32.c **** 
 531              		.loc 1 318 5 view .LVU221
 320:../../libDaisy//Drivers/CMSIS/DSP/Source/TransformFunctions/arm_cfft_f32.c ****     pCol2 = p2;
 532              		.loc 1 320 5 view .LVU222
 321:../../libDaisy//Drivers/CMSIS/DSP/Source/TransformFunctions/arm_cfft_f32.c ****     pCol3 = p3;
 533              		.loc 1 321 5 view .LVU223
 322:../../libDaisy//Drivers/CMSIS/DSP/Source/TransformFunctions/arm_cfft_f32.c ****     pCol4 = p4;
 534              		.loc 1 322 5 view .LVU224
 323:../../libDaisy//Drivers/CMSIS/DSP/Source/TransformFunctions/arm_cfft_f32.c ****     pEnd1 = p2 - 1;     // points to imaginary values by default
 535              		.loc 1 323 5 view .LVU225
 324:../../libDaisy//Drivers/CMSIS/DSP/Source/TransformFunctions/arm_cfft_f32.c ****     pEnd2 = p3 - 1;
 536              		.loc 1 324 5 view .LVU226
 325:../../libDaisy//Drivers/CMSIS/DSP/Source/TransformFunctions/arm_cfft_f32.c ****     pEnd3 = p4 - 1;
 537              		.loc 1 325 5 view .LVU227
 326:../../libDaisy//Drivers/CMSIS/DSP/Source/TransformFunctions/arm_cfft_f32.c ****     pEnd4 = pEnd3 + L;
 538              		.loc 1 326 5 view .LVU228
 327:../../libDaisy//Drivers/CMSIS/DSP/Source/TransformFunctions/arm_cfft_f32.c **** 
 539              		.loc 1 327 5 view .LVU229
 329:../../libDaisy//Drivers/CMSIS/DSP/Source/TransformFunctions/arm_cfft_f32.c **** 
 540              		.loc 1 329 5 view .LVU230
 346:../../libDaisy//Drivers/CMSIS/DSP/Source/TransformFunctions/arm_cfft_f32.c ****     t2[1] = p1sp3_1 - p2[0] + p4[0];
 541              		.loc 1 346 33 is_stmt 0 view .LVU231
 542 0086 94ED013A 		vldr.32	s6, [r4, #4]
 355:../../libDaisy//Drivers/CMSIS/DSP/Source/TransformFunctions/arm_cfft_f32.c ****     *p1++ = p1ap3_1 + p2[1] + p4[1];
 543              		.loc 1 355 11 view .LVU232
 544 008a C5ED003A 		vstr.32	s7, [r5]
 347:../../libDaisy//Drivers/CMSIS/DSP/Source/TransformFunctions/arm_cfft_f32.c ****     // col 3
 545              		.loc 1 347 29 view .LVU233
 546 008e 74EEA54A 		vadd.f32	s9, s9, s11
 356:../../libDaisy//Drivers/CMSIS/DSP/Source/TransformFunctions/arm_cfft_f32.c **** 
 547              		.loc 1 356 21 view .LVU234
 548 0092 D7ED013A 		vldr.32	s7, [r7, #4]
 349:../../libDaisy//Drivers/CMSIS/DSP/Source/TransformFunctions/arm_cfft_f32.c ****     t3[1] = p1ap3_1 - p2[1] - p4[1];
 549              		.loc 1 349 29 view .LVU235
 550 0096 76EEE56A 		vsub.f32	s13, s13, s11
 353:../../libDaisy//Drivers/CMSIS/DSP/Source/TransformFunctions/arm_cfft_f32.c ****     // col 1
 551              		.loc 1 353 29 view .LVU236
 552 009a 37EE657A 		vsub.f32	s14, s14, s11
 356:../../libDaisy//Drivers/CMSIS/DSP/Source/TransformFunctions/arm_cfft_f32.c **** 
 553              		.loc 1 356 29 view .LVU237
 554 009e D4ED015A 		vldr.32	s11, [r4, #4]
 356:../../libDaisy//Drivers/CMSIS/DSP/Source/TransformFunctions/arm_cfft_f32.c **** 
 555              		.loc 1 356 21 view .LVU238
 556 00a2 36EE236A 		vadd.f32	s12, s12, s7
 362:../../libDaisy//Drivers/CMSIS/DSP/Source/TransformFunctions/arm_cfft_f32.c ****     *p4++ = t4[0];
ARM GAS  /var/folders/hl/qgbwny5j0fd895c2c41bk3tw0000gp/T//ccphgPNq.s 			page 20


 557              		.loc 1 362 11 view .LVU239
 558 00a6 1146     		mov	r1, r2
 346:../../libDaisy//Drivers/CMSIS/DSP/Source/TransformFunctions/arm_cfft_f32.c ****     t2[1] = p1sp3_1 - p2[0] + p4[0];
 559              		.loc 1 346 29 view .LVU240
 560 00a8 34EE434A 		vsub.f32	s8, s8, s6
 355:../../libDaisy//Drivers/CMSIS/DSP/Source/TransformFunctions/arm_cfft_f32.c ****     *p1++ = p1ap3_1 + p2[1] + p4[1];
 561              		.loc 1 355 11 view .LVU241
 562 00ac 0390     		str	r0, [sp, #12]
 350:../../libDaisy//Drivers/CMSIS/DSP/Source/TransformFunctions/arm_cfft_f32.c ****     // col 4
 563              		.loc 1 350 29 view .LVU242
 564 00ae 35EE435A 		vsub.f32	s10, s10, s6
 329:../../libDaisy//Drivers/CMSIS/DSP/Source/TransformFunctions/arm_cfft_f32.c **** 
 565              		.loc 1 329 21 view .LVU243
 566 00b2 0A96     		str	r6, [sp, #40]
 356:../../libDaisy//Drivers/CMSIS/DSP/Source/TransformFunctions/arm_cfft_f32.c **** 
 567              		.loc 1 356 29 view .LVU244
 568 00b4 36EE256A 		vadd.f32	s12, s12, s11
 360:../../libDaisy//Drivers/CMSIS/DSP/Source/TransformFunctions/arm_cfft_f32.c ****     *p3++ = t3[0];
 569              		.loc 1 360 11 view .LVU245
 570 00b8 0897     		str	r7, [sp, #32]
 352:../../libDaisy//Drivers/CMSIS/DSP/Source/TransformFunctions/arm_cfft_f32.c ****     t4[1] = p1sp3_1 + p2[0] - p4[0];
 571              		.loc 1 352 29 view .LVU246
 572 00ba 77EE837A 		vadd.f32	s15, s15, s6
 573              	.LVL58:
 331:../../libDaisy//Drivers/CMSIS/DSP/Source/TransformFunctions/arm_cfft_f32.c **** 
 574              		.loc 1 331 5 is_stmt 1 view .LVU247
 335:../../libDaisy//Drivers/CMSIS/DSP/Source/TransformFunctions/arm_cfft_f32.c ****     twMod3 = 4;
 575              		.loc 1 335 5 view .LVU248
 336:../../libDaisy//Drivers/CMSIS/DSP/Source/TransformFunctions/arm_cfft_f32.c ****     twMod4 = 6;
 576              		.loc 1 336 5 view .LVU249
 337:../../libDaisy//Drivers/CMSIS/DSP/Source/TransformFunctions/arm_cfft_f32.c **** 
 577              		.loc 1 337 5 view .LVU250
 340:../../libDaisy//Drivers/CMSIS/DSP/Source/TransformFunctions/arm_cfft_f32.c ****     p1sp3_0 = p1[0] - p3[0];
 578              		.loc 1 340 5 view .LVU251
 341:../../libDaisy//Drivers/CMSIS/DSP/Source/TransformFunctions/arm_cfft_f32.c ****     p1ap3_1 = p1[1] + p3[1];
 579              		.loc 1 341 5 view .LVU252
 342:../../libDaisy//Drivers/CMSIS/DSP/Source/TransformFunctions/arm_cfft_f32.c ****     p1sp3_1 = p1[1] - p3[1];
 580              		.loc 1 342 5 view .LVU253
 343:../../libDaisy//Drivers/CMSIS/DSP/Source/TransformFunctions/arm_cfft_f32.c **** 
 581              		.loc 1 343 5 view .LVU254
 346:../../libDaisy//Drivers/CMSIS/DSP/Source/TransformFunctions/arm_cfft_f32.c ****     t2[1] = p1sp3_1 - p2[0] + p4[0];
 582              		.loc 1 346 5 view .LVU255
 347:../../libDaisy//Drivers/CMSIS/DSP/Source/TransformFunctions/arm_cfft_f32.c ****     // col 3
 583              		.loc 1 347 5 view .LVU256
 349:../../libDaisy//Drivers/CMSIS/DSP/Source/TransformFunctions/arm_cfft_f32.c ****     t3[1] = p1ap3_1 - p2[1] - p4[1];
 584              		.loc 1 349 5 view .LVU257
 350:../../libDaisy//Drivers/CMSIS/DSP/Source/TransformFunctions/arm_cfft_f32.c ****     // col 4
 585              		.loc 1 350 5 view .LVU258
 352:../../libDaisy//Drivers/CMSIS/DSP/Source/TransformFunctions/arm_cfft_f32.c ****     t4[1] = p1sp3_1 + p2[0] - p4[0];
 586              		.loc 1 352 5 view .LVU259
 353:../../libDaisy//Drivers/CMSIS/DSP/Source/TransformFunctions/arm_cfft_f32.c ****     // col 1
 587              		.loc 1 353 5 view .LVU260
 355:../../libDaisy//Drivers/CMSIS/DSP/Source/TransformFunctions/arm_cfft_f32.c ****     *p1++ = p1ap3_1 + p2[1] + p4[1];
 588              		.loc 1 355 5 view .LVU261
 356:../../libDaisy//Drivers/CMSIS/DSP/Source/TransformFunctions/arm_cfft_f32.c **** 
 589              		.loc 1 356 5 view .LVU262
 356:../../libDaisy//Drivers/CMSIS/DSP/Source/TransformFunctions/arm_cfft_f32.c **** 
ARM GAS  /var/folders/hl/qgbwny5j0fd895c2c41bk3tw0000gp/T//ccphgPNq.s 			page 21


 590              		.loc 1 356 11 is_stmt 0 view .LVU263
 591 00be 2846     		mov	r0, r5
 592              	.LVL59:
 359:../../libDaisy//Drivers/CMSIS/DSP/Source/TransformFunctions/arm_cfft_f32.c ****     *p2++ = t2[1];
 593              		.loc 1 359 11 view .LVU264
 594 00c0 BE46     		mov	lr, r7
 356:../../libDaisy//Drivers/CMSIS/DSP/Source/TransformFunctions/arm_cfft_f32.c **** 
 595              		.loc 1 356 11 view .LVU265
 596 00c2 85ED016A 		vstr.32	s12, [r5, #4]
 359:../../libDaisy//Drivers/CMSIS/DSP/Source/TransformFunctions/arm_cfft_f32.c ****     *p2++ = t2[1];
 597              		.loc 1 359 5 is_stmt 1 view .LVU266
 598              	.LVL60:
 359:../../libDaisy//Drivers/CMSIS/DSP/Source/TransformFunctions/arm_cfft_f32.c ****     *p2++ = t2[1];
 599              		.loc 1 359 11 is_stmt 0 view .LVU267
 600 00c6 3D46     		mov	r5, r7
 601              	.LVL61:
 359:../../libDaisy//Drivers/CMSIS/DSP/Source/TransformFunctions/arm_cfft_f32.c ****     *p2++ = t2[1];
 602              		.loc 1 359 11 view .LVU268
 603 00c8 87ED004A 		vstr.32	s8, [r7]
 360:../../libDaisy//Drivers/CMSIS/DSP/Source/TransformFunctions/arm_cfft_f32.c ****     *p3++ = t3[0];
 604              		.loc 1 360 5 is_stmt 1 view .LVU269
 360:../../libDaisy//Drivers/CMSIS/DSP/Source/TransformFunctions/arm_cfft_f32.c ****     *p3++ = t3[0];
 605              		.loc 1 360 11 is_stmt 0 view .LVU270
 606 00cc C7ED014A 		vstr.32	s9, [r7, #4]
 359:../../libDaisy//Drivers/CMSIS/DSP/Source/TransformFunctions/arm_cfft_f32.c ****     *p2++ = t2[1];
 607              		.loc 1 359 11 view .LVU271
 608 00d0 0835     		adds	r5, r5, #8
 609              	.LVL62:
 361:../../libDaisy//Drivers/CMSIS/DSP/Source/TransformFunctions/arm_cfft_f32.c ****     *p3++ = t3[1];
 610              		.loc 1 361 5 is_stmt 1 view .LVU272
 362:../../libDaisy//Drivers/CMSIS/DSP/Source/TransformFunctions/arm_cfft_f32.c ****     *p4++ = t4[0];
 611              		.loc 1 362 5 view .LVU273
 361:../../libDaisy//Drivers/CMSIS/DSP/Source/TransformFunctions/arm_cfft_f32.c ****     *p3++ = t3[1];
 612              		.loc 1 361 11 is_stmt 0 view .LVU274
 613 00d2 C2ED006A 		vstr.32	s13, [r2]
 362:../../libDaisy//Drivers/CMSIS/DSP/Source/TransformFunctions/arm_cfft_f32.c ****     *p4++ = t4[0];
 614              		.loc 1 362 11 view .LVU275
 615 00d6 82ED015A 		vstr.32	s10, [r2, #4]
 363:../../libDaisy//Drivers/CMSIS/DSP/Source/TransformFunctions/arm_cfft_f32.c ****     *p4++ = t4[1];
 616              		.loc 1 363 5 is_stmt 1 view .LVU276
 617              	.LVL63:
 363:../../libDaisy//Drivers/CMSIS/DSP/Source/TransformFunctions/arm_cfft_f32.c ****     *p4++ = t4[1];
 618              		.loc 1 363 11 is_stmt 0 view .LVU277
 619 00da 2246     		mov	r2, r4
 620              	.LVL64:
 363:../../libDaisy//Drivers/CMSIS/DSP/Source/TransformFunctions/arm_cfft_f32.c ****     *p4++ = t4[1];
 621              		.loc 1 363 11 view .LVU278
 622 00dc C4ED007A 		vstr.32	s15, [r4]
 623 00e0 0832     		adds	r2, r2, #8
 364:../../libDaisy//Drivers/CMSIS/DSP/Source/TransformFunctions/arm_cfft_f32.c **** 
 624              		.loc 1 364 11 view .LVU279
 625 00e2 84ED017A 		vstr.32	s14, [r4, #4]
 363:../../libDaisy//Drivers/CMSIS/DSP/Source/TransformFunctions/arm_cfft_f32.c ****     *p4++ = t4[1];
 626              		.loc 1 363 11 view .LVU280
 627 00e6 0492     		str	r2, [sp, #16]
 364:../../libDaisy//Drivers/CMSIS/DSP/Source/TransformFunctions/arm_cfft_f32.c **** 
 628              		.loc 1 364 5 is_stmt 1 view .LVU281
ARM GAS  /var/folders/hl/qgbwny5j0fd895c2c41bk3tw0000gp/T//ccphgPNq.s 			page 22


 629              	.LVL65:
 630              		.loc 1 366 5 view .LVU282
 367:../../libDaisy//Drivers/CMSIS/DSP/Source/TransformFunctions/arm_cfft_f32.c ****     tw3 += twMod3;
 368:../../libDaisy//Drivers/CMSIS/DSP/Source/TransformFunctions/arm_cfft_f32.c ****     tw4 += twMod4;
 369:../../libDaisy//Drivers/CMSIS/DSP/Source/TransformFunctions/arm_cfft_f32.c **** 
 370:../../libDaisy//Drivers/CMSIS/DSP/Source/TransformFunctions/arm_cfft_f32.c ****     for (l = (L - 2) >> 1; l > 0; l-- )
 631              		.loc 1 370 17 is_stmt 0 view .LVU283
 632 00e8 069A     		ldr	r2, [sp, #24]
 633              	.LVL66:
 366:../../libDaisy//Drivers/CMSIS/DSP/Source/TransformFunctions/arm_cfft_f32.c ****     tw3 += twMod3;
 634              		.loc 1 366 9 view .LVU284
 635 00ea CDF808C0 		str	ip, [sp, #8]
 636              	.LVL67:
 367:../../libDaisy//Drivers/CMSIS/DSP/Source/TransformFunctions/arm_cfft_f32.c ****     tw3 += twMod3;
 637              		.loc 1 367 5 is_stmt 1 view .LVU285
 368:../../libDaisy//Drivers/CMSIS/DSP/Source/TransformFunctions/arm_cfft_f32.c **** 
 638              		.loc 1 368 5 view .LVU286
 367:../../libDaisy//Drivers/CMSIS/DSP/Source/TransformFunctions/arm_cfft_f32.c ****     tw3 += twMod3;
 639              		.loc 1 367 9 is_stmt 0 view .LVU287
 640 00ee 06F1100C 		add	ip, r6, #16
 641              	.LVL68:
 642              		.loc 1 370 17 view .LVU288
 643 00f2 023A     		subs	r2, r2, #2
 367:../../libDaisy//Drivers/CMSIS/DSP/Source/TransformFunctions/arm_cfft_f32.c ****     tw3 += twMod3;
 644              		.loc 1 367 9 view .LVU289
 645 00f4 CDF800C0 		str	ip, [sp]
 646              	.LVL69:
 368:../../libDaisy//Drivers/CMSIS/DSP/Source/TransformFunctions/arm_cfft_f32.c **** 
 647              		.loc 1 368 9 view .LVU290
 648 00f8 06F1180C 		add	ip, r6, #24
 649              		.loc 1 370 5 view .LVU291
 650 00fc 5208     		lsrs	r2, r2, #1
 368:../../libDaisy//Drivers/CMSIS/DSP/Source/TransformFunctions/arm_cfft_f32.c **** 
 651              		.loc 1 368 9 view .LVU292
 652 00fe CDF804C0 		str	ip, [sp, #4]
 653              	.LVL70:
 654              		.loc 1 370 5 is_stmt 1 view .LVU293
 655              		.loc 1 370 28 view .LVU294
 656              		.loc 1 370 5 is_stmt 0 view .LVU295
 657 0102 0792     		str	r2, [sp, #28]
 658 0104 00F03181 		beq	.L11
 659 0108 00F11007 		add	r7, r0, #16
 660              	.LVL71:
 661              		.loc 1 370 5 view .LVU296
 662 010c AEF10C00 		sub	r0, lr, #12
 663              	.LVL72:
 664              		.loc 1 370 5 view .LVU297
 665 0110 0A46     		mov	r2, r1
 666 0112 0C3B     		subs	r3, r3, #12
 667              	.LVL73:
 668              		.loc 1 370 5 view .LVU298
 669 0114 0D90     		str	r0, [sp, #52]
 670 0116 06F12009 		add	r9, r6, #32
 671 011a 0EF11000 		add	r0, lr, #16
 672 011e 06F13008 		add	r8, r6, #48
 673 0122 02F1100E 		add	lr, r2, #16
 674              	.LVL74:
ARM GAS  /var/folders/hl/qgbwny5j0fd895c2c41bk3tw0000gp/T//ccphgPNq.s 			page 23


 675              		.loc 1 370 5 view .LVU299
 676 0126 2344     		add	r3, r3, r4
 677              	.LVL75:
 678              		.loc 1 370 5 view .LVU300
 679 0128 DDF800A0 		ldr	r10, [sp]
 680 012c 0C39     		subs	r1, r1, #12
 681              	.LVL76:
 682              		.loc 1 370 5 view .LVU301
 683 012e A4F10C0C 		sub	ip, r4, #12
 684              	.LVL77:
 685              		.loc 1 370 5 view .LVU302
 686 0132 04F11002 		add	r2, r4, #16
 687              	.LVL78:
 688              		.loc 1 370 5 view .LVU303
 689 0136 DDF81CB0 		ldr	fp, [sp, #28]
 690 013a 0D9E     		ldr	r6, [sp, #52]
 691              	.LVL79:
 692              	.L12:
 371:../../libDaisy//Drivers/CMSIS/DSP/Source/TransformFunctions/arm_cfft_f32.c ****     {
 372:../../libDaisy//Drivers/CMSIS/DSP/Source/TransformFunctions/arm_cfft_f32.c ****         // TOP
 373:../../libDaisy//Drivers/CMSIS/DSP/Source/TransformFunctions/arm_cfft_f32.c ****         p1ap3_0 = p1[0] + p3[0];
 693              		.loc 1 373 9 is_stmt 1 discriminator 3 view .LVU304
 694              		.loc 1 373 29 is_stmt 0 discriminator 3 view .LVU305
 695 013c 1EED027A 		vldr.32	s14, [lr, #-8]
 370:../../libDaisy//Drivers/CMSIS/DSP/Source/TransformFunctions/arm_cfft_f32.c ****     {
 696              		.loc 1 370 5 discriminator 3 view .LVU306
 697 0140 BBF1010B 		subs	fp, fp, #1
 698              	.LVL80:
 699              		.loc 1 373 21 discriminator 3 view .LVU307
 700 0144 57ED027A 		vldr.32	s15, [r7, #-8]
 370:../../libDaisy//Drivers/CMSIS/DSP/Source/TransformFunctions/arm_cfft_f32.c ****     {
 701              		.loc 1 370 5 discriminator 3 view .LVU308
 702 0148 A6F10806 		sub	r6, r6, #8
 703              	.LVL81:
 374:../../libDaisy//Drivers/CMSIS/DSP/Source/TransformFunctions/arm_cfft_f32.c ****         p1sp3_0 = p1[0] - p3[0];
 375:../../libDaisy//Drivers/CMSIS/DSP/Source/TransformFunctions/arm_cfft_f32.c ****         p1ap3_1 = p1[1] + p3[1];
 376:../../libDaisy//Drivers/CMSIS/DSP/Source/TransformFunctions/arm_cfft_f32.c ****         p1sp3_1 = p1[1] - p3[1];
 377:../../libDaisy//Drivers/CMSIS/DSP/Source/TransformFunctions/arm_cfft_f32.c ****         // col 2
 378:../../libDaisy//Drivers/CMSIS/DSP/Source/TransformFunctions/arm_cfft_f32.c ****         t2[0] = p1sp3_0 + p2[1] - p4[1];
 379:../../libDaisy//Drivers/CMSIS/DSP/Source/TransformFunctions/arm_cfft_f32.c ****         t2[1] = p1sp3_1 - p2[0] + p4[0];
 704              		.loc 1 379 29 discriminator 3 view .LVU309
 705 014c 50ED026A 		vldr.32	s13, [r0, #-8]
 370:../../libDaisy//Drivers/CMSIS/DSP/Source/TransformFunctions/arm_cfft_f32.c ****     {
 706              		.loc 1 370 5 discriminator 3 view .LVU310
 707 0150 07F10807 		add	r7, r7, #8
 708              	.LVL82:
 373:../../libDaisy//Drivers/CMSIS/DSP/Source/TransformFunctions/arm_cfft_f32.c ****         p1sp3_0 = p1[0] - p3[0];
 709              		.loc 1 373 17 discriminator 3 view .LVU311
 710 0154 77EE872A 		vadd.f32	s5, s15, s14
 711              	.LVL83:
 374:../../libDaisy//Drivers/CMSIS/DSP/Source/TransformFunctions/arm_cfft_f32.c ****         p1sp3_0 = p1[0] - p3[0];
 712              		.loc 1 374 9 is_stmt 1 discriminator 3 view .LVU312
 713              		.loc 1 379 37 is_stmt 0 discriminator 3 view .LVU313
 714 0158 12ED025A 		vldr.32	s10, [r2, #-8]
 375:../../libDaisy//Drivers/CMSIS/DSP/Source/TransformFunctions/arm_cfft_f32.c ****         p1sp3_1 = p1[1] - p3[1];
 715              		.loc 1 375 29 discriminator 3 view .LVU314
 716 015c 5EED013A 		vldr.32	s7, [lr, #-4]
ARM GAS  /var/folders/hl/qgbwny5j0fd895c2c41bk3tw0000gp/T//ccphgPNq.s 			page 24


 374:../../libDaisy//Drivers/CMSIS/DSP/Source/TransformFunctions/arm_cfft_f32.c ****         p1sp3_0 = p1[0] - p3[0];
 717              		.loc 1 374 17 discriminator 3 view .LVU315
 718 0160 77EEC77A 		vsub.f32	s15, s15, s14
 719              	.LVL84:
 375:../../libDaisy//Drivers/CMSIS/DSP/Source/TransformFunctions/arm_cfft_f32.c ****         p1sp3_1 = p1[1] - p3[1];
 720              		.loc 1 375 9 is_stmt 1 discriminator 3 view .LVU316
 375:../../libDaisy//Drivers/CMSIS/DSP/Source/TransformFunctions/arm_cfft_f32.c ****         p1sp3_1 = p1[1] - p3[1];
 721              		.loc 1 375 21 is_stmt 0 discriminator 3 view .LVU317
 722 0164 17ED036A 		vldr.32	s12, [r7, #-12]
 370:../../libDaisy//Drivers/CMSIS/DSP/Source/TransformFunctions/arm_cfft_f32.c ****     {
 723              		.loc 1 370 5 discriminator 3 view .LVU318
 724 0168 0AF1080A 		add	r10, r10, #8
 380:../../libDaisy//Drivers/CMSIS/DSP/Source/TransformFunctions/arm_cfft_f32.c ****         // col 3
 381:../../libDaisy//Drivers/CMSIS/DSP/Source/TransformFunctions/arm_cfft_f32.c ****         t3[0] = p1ap3_0 - p2[0] - p4[0];
 382:../../libDaisy//Drivers/CMSIS/DSP/Source/TransformFunctions/arm_cfft_f32.c ****         t3[1] = p1ap3_1 - p2[1] - p4[1];
 383:../../libDaisy//Drivers/CMSIS/DSP/Source/TransformFunctions/arm_cfft_f32.c ****         // col 4
 384:../../libDaisy//Drivers/CMSIS/DSP/Source/TransformFunctions/arm_cfft_f32.c ****         t4[0] = p1sp3_0 - p2[1] + p4[1];
 385:../../libDaisy//Drivers/CMSIS/DSP/Source/TransformFunctions/arm_cfft_f32.c ****         t4[1] = p1sp3_1 + p2[0] - p4[0];
 386:../../libDaisy//Drivers/CMSIS/DSP/Source/TransformFunctions/arm_cfft_f32.c ****         // col 1 - top
 387:../../libDaisy//Drivers/CMSIS/DSP/Source/TransformFunctions/arm_cfft_f32.c ****         *p1++ = p1ap3_0 + p2[0] + p4[0];
 725              		.loc 1 387 25 discriminator 3 view .LVU319
 726 016c 36EEA24A 		vadd.f32	s8, s13, s5
 378:../../libDaisy//Drivers/CMSIS/DSP/Source/TransformFunctions/arm_cfft_f32.c ****         t2[1] = p1sp3_1 - p2[0] + p4[0];
 727              		.loc 1 378 37 discriminator 3 view .LVU320
 728 0170 52ED014A 		vldr.32	s9, [r2, #-4]
 375:../../libDaisy//Drivers/CMSIS/DSP/Source/TransformFunctions/arm_cfft_f32.c ****         p1sp3_1 = p1[1] - p3[1];
 729              		.loc 1 375 17 discriminator 3 view .LVU321
 730 0174 36EE237A 		vadd.f32	s14, s12, s7
 731              	.LVL85:
 376:../../libDaisy//Drivers/CMSIS/DSP/Source/TransformFunctions/arm_cfft_f32.c ****         // col 2
 732              		.loc 1 376 9 is_stmt 1 discriminator 3 view .LVU322
 378:../../libDaisy//Drivers/CMSIS/DSP/Source/TransformFunctions/arm_cfft_f32.c ****         t2[1] = p1sp3_1 - p2[0] + p4[0];
 733              		.loc 1 378 29 is_stmt 0 discriminator 3 view .LVU323
 734 0178 50ED015A 		vldr.32	s11, [r0, #-4]
 376:../../libDaisy//Drivers/CMSIS/DSP/Source/TransformFunctions/arm_cfft_f32.c ****         // col 2
 735              		.loc 1 376 17 discriminator 3 view .LVU324
 736 017c 36EE636A 		vsub.f32	s12, s12, s7
 737              	.LVL86:
 378:../../libDaisy//Drivers/CMSIS/DSP/Source/TransformFunctions/arm_cfft_f32.c ****         t2[1] = p1sp3_1 - p2[0] + p4[0];
 738              		.loc 1 378 9 is_stmt 1 discriminator 3 view .LVU325
 370:../../libDaisy//Drivers/CMSIS/DSP/Source/TransformFunctions/arm_cfft_f32.c ****     {
 739              		.loc 1 370 5 is_stmt 0 discriminator 3 view .LVU326
 740 0180 00F10800 		add	r0, r0, #8
 741              		.loc 1 387 33 discriminator 3 view .LVU327
 742 0184 34EE054A 		vadd.f32	s8, s8, s10
 370:../../libDaisy//Drivers/CMSIS/DSP/Source/TransformFunctions/arm_cfft_f32.c ****     {
 743              		.loc 1 370 5 discriminator 3 view .LVU328
 744 0188 A1F10801 		sub	r1, r1, #8
 381:../../libDaisy//Drivers/CMSIS/DSP/Source/TransformFunctions/arm_cfft_f32.c ****         t3[1] = p1ap3_1 - p2[1] - p4[1];
 745              		.loc 1 381 25 discriminator 3 view .LVU329
 746 018c 72EEE62A 		vsub.f32	s5, s5, s13
 747              	.LVL87:
 370:../../libDaisy//Drivers/CMSIS/DSP/Source/TransformFunctions/arm_cfft_f32.c ****     {
 748              		.loc 1 370 5 discriminator 3 view .LVU330
 749 0190 09F11009 		add	r9, r9, #16
 750              	.LVL88:
 379:../../libDaisy//Drivers/CMSIS/DSP/Source/TransformFunctions/arm_cfft_f32.c ****         // col 3
ARM GAS  /var/folders/hl/qgbwny5j0fd895c2c41bk3tw0000gp/T//ccphgPNq.s 			page 25


 751              		.loc 1 379 25 discriminator 3 view .LVU331
 752 0194 76EE661A 		vsub.f32	s3, s12, s13
 370:../../libDaisy//Drivers/CMSIS/DSP/Source/TransformFunctions/arm_cfft_f32.c ****     {
 753              		.loc 1 370 5 discriminator 3 view .LVU332
 754 0198 0EF1080E 		add	lr, lr, #8
 755              	.LVL89:
 756              		.loc 1 387 15 discriminator 3 view .LVU333
 757 019c 07ED044A 		vstr.32	s8, [r7, #-16]
 758              	.LVL90:
 385:../../libDaisy//Drivers/CMSIS/DSP/Source/TransformFunctions/arm_cfft_f32.c ****         // col 1 - top
 759              		.loc 1 385 25 discriminator 3 view .LVU334
 760 01a0 76EE866A 		vadd.f32	s13, s13, s12
 388:../../libDaisy//Drivers/CMSIS/DSP/Source/TransformFunctions/arm_cfft_f32.c ****         *p1++ = p1ap3_1 + p2[1] + p4[1];
 761              		.loc 1 388 25 discriminator 3 view .LVU335
 762 01a4 10ED036A 		vldr.32	s12, [r0, #-12]
 763              	.LVL91:
 378:../../libDaisy//Drivers/CMSIS/DSP/Source/TransformFunctions/arm_cfft_f32.c ****         t2[1] = p1sp3_1 - p2[0] + p4[0];
 764              		.loc 1 378 25 discriminator 3 view .LVU336
 765 01a8 35EEA72A 		vadd.f32	s4, s11, s15
 384:../../libDaisy//Drivers/CMSIS/DSP/Source/TransformFunctions/arm_cfft_f32.c ****         t4[1] = p1sp3_1 + p2[0] - p4[0];
 766              		.loc 1 384 25 discriminator 3 view .LVU337
 767 01ac 77EEE57A 		vsub.f32	s15, s15, s11
 768              	.LVL92:
 769              		.loc 1 388 33 discriminator 3 view .LVU338
 770 01b0 52ED013A 		vldr.32	s7, [r2, #-4]
 771              	.LVL93:
 382:../../libDaisy//Drivers/CMSIS/DSP/Source/TransformFunctions/arm_cfft_f32.c ****         // col 4
 772              		.loc 1 382 25 discriminator 3 view .LVU339
 773 01b4 77EE655A 		vsub.f32	s11, s14, s11
 370:../../libDaisy//Drivers/CMSIS/DSP/Source/TransformFunctions/arm_cfft_f32.c ****     {
 774              		.loc 1 370 5 discriminator 3 view .LVU340
 775 01b8 ACF1080C 		sub	ip, ip, #8
 776              		.loc 1 388 25 discriminator 3 view .LVU341
 777 01bc 37EE067A 		vadd.f32	s14, s14, s12
 778              	.LVL94:
 370:../../libDaisy//Drivers/CMSIS/DSP/Source/TransformFunctions/arm_cfft_f32.c ****     {
 779              		.loc 1 370 5 discriminator 3 view .LVU342
 780 01c0 08F11808 		add	r8, r8, #24
 781              	.LVL95:
 385:../../libDaisy//Drivers/CMSIS/DSP/Source/TransformFunctions/arm_cfft_f32.c ****         // col 1 - top
 782              		.loc 1 385 33 discriminator 3 view .LVU343
 783 01c4 36EEC56A 		vsub.f32	s12, s13, s10
 370:../../libDaisy//Drivers/CMSIS/DSP/Source/TransformFunctions/arm_cfft_f32.c ****     {
 784              		.loc 1 370 5 discriminator 3 view .LVU344
 785 01c8 02F10802 		add	r2, r2, #8
 382:../../libDaisy//Drivers/CMSIS/DSP/Source/TransformFunctions/arm_cfft_f32.c ****         // col 4
 786              		.loc 1 382 33 discriminator 3 view .LVU345
 787 01cc 35EEE44A 		vsub.f32	s8, s11, s9
 370:../../libDaisy//Drivers/CMSIS/DSP/Source/TransformFunctions/arm_cfft_f32.c ****     {
 788              		.loc 1 370 5 discriminator 3 view .LVU346
 789 01d0 A3F10803 		sub	r3, r3, #8
 790              		.loc 1 388 33 discriminator 3 view .LVU347
 791 01d4 37EE237A 		vadd.f32	s14, s14, s7
 378:../../libDaisy//Drivers/CMSIS/DSP/Source/TransformFunctions/arm_cfft_f32.c ****         t2[1] = p1sp3_1 - p2[0] + p4[0];
 792              		.loc 1 378 33 discriminator 3 view .LVU348
 793 01d8 32EE642A 		vsub.f32	s4, s4, s9
 794              	.LVL96:
ARM GAS  /var/folders/hl/qgbwny5j0fd895c2c41bk3tw0000gp/T//ccphgPNq.s 			page 26


 379:../../libDaisy//Drivers/CMSIS/DSP/Source/TransformFunctions/arm_cfft_f32.c ****         // col 3
 795              		.loc 1 379 9 is_stmt 1 discriminator 3 view .LVU349
 384:../../libDaisy//Drivers/CMSIS/DSP/Source/TransformFunctions/arm_cfft_f32.c ****         t4[1] = p1sp3_1 + p2[0] - p4[0];
 796              		.loc 1 384 33 is_stmt 0 discriminator 3 view .LVU350
 797 01dc 77EEA47A 		vadd.f32	s15, s15, s9
 798              		.loc 1 388 15 discriminator 3 view .LVU351
 799 01e0 07ED037A 		vstr.32	s14, [r7, #-12]
 381:../../libDaisy//Drivers/CMSIS/DSP/Source/TransformFunctions/arm_cfft_f32.c ****         t3[1] = p1ap3_1 - p2[1] - p4[1];
 800              		.loc 1 381 33 discriminator 3 view .LVU352
 801 01e4 72EEC52A 		vsub.f32	s5, s5, s10
 389:../../libDaisy//Drivers/CMSIS/DSP/Source/TransformFunctions/arm_cfft_f32.c **** 
 390:../../libDaisy//Drivers/CMSIS/DSP/Source/TransformFunctions/arm_cfft_f32.c ****         // BOTTOM
 391:../../libDaisy//Drivers/CMSIS/DSP/Source/TransformFunctions/arm_cfft_f32.c ****         p1ap3_1 = pEnd1[-1] + pEnd3[-1];
 392:../../libDaisy//Drivers/CMSIS/DSP/Source/TransformFunctions/arm_cfft_f32.c ****         p1sp3_1 = pEnd1[-1] - pEnd3[-1];
 393:../../libDaisy//Drivers/CMSIS/DSP/Source/TransformFunctions/arm_cfft_f32.c ****         p1ap3_0 = pEnd1[0] + pEnd3[0];
 802              		.loc 1 393 35 discriminator 3 view .LVU353
 803 01e8 9CED041A 		vldr.32	s2, [ip, #16]
 379:../../libDaisy//Drivers/CMSIS/DSP/Source/TransformFunctions/arm_cfft_f32.c ****         // col 3
 804              		.loc 1 379 33 discriminator 3 view .LVU354
 805 01ec 71EE851A 		vadd.f32	s3, s3, s10
 806              	.LVL97:
 381:../../libDaisy//Drivers/CMSIS/DSP/Source/TransformFunctions/arm_cfft_f32.c ****         t3[1] = p1ap3_1 - p2[1] - p4[1];
 807              		.loc 1 381 9 is_stmt 1 discriminator 3 view .LVU355
 382:../../libDaisy//Drivers/CMSIS/DSP/Source/TransformFunctions/arm_cfft_f32.c ****         // col 4
 808              		.loc 1 382 9 discriminator 3 view .LVU356
 384:../../libDaisy//Drivers/CMSIS/DSP/Source/TransformFunctions/arm_cfft_f32.c ****         t4[1] = p1sp3_1 + p2[0] - p4[0];
 809              		.loc 1 384 9 discriminator 3 view .LVU357
 385:../../libDaisy//Drivers/CMSIS/DSP/Source/TransformFunctions/arm_cfft_f32.c ****         // col 1 - top
 810              		.loc 1 385 9 discriminator 3 view .LVU358
 387:../../libDaisy//Drivers/CMSIS/DSP/Source/TransformFunctions/arm_cfft_f32.c ****         *p1++ = p1ap3_1 + p2[1] + p4[1];
 811              		.loc 1 387 9 discriminator 3 view .LVU359
 388:../../libDaisy//Drivers/CMSIS/DSP/Source/TransformFunctions/arm_cfft_f32.c **** 
 812              		.loc 1 388 9 discriminator 3 view .LVU360
 391:../../libDaisy//Drivers/CMSIS/DSP/Source/TransformFunctions/arm_cfft_f32.c ****         p1sp3_1 = pEnd1[-1] - pEnd3[-1];
 813              		.loc 1 391 9 discriminator 3 view .LVU361
 814              		.loc 1 393 24 is_stmt 0 discriminator 3 view .LVU362
 815 01f0 D6ED045A 		vldr.32	s11, [r6, #16]
 394:../../libDaisy//Drivers/CMSIS/DSP/Source/TransformFunctions/arm_cfft_f32.c ****         p1sp3_0 = pEnd1[0] - pEnd3[0];
 395:../../libDaisy//Drivers/CMSIS/DSP/Source/TransformFunctions/arm_cfft_f32.c ****         // col 2
 396:../../libDaisy//Drivers/CMSIS/DSP/Source/TransformFunctions/arm_cfft_f32.c ****         t2[2] = pEnd2[0]  - pEnd4[0] + p1sp3_1;
 816              		.loc 1 396 22 discriminator 3 view .LVU363
 817 01f4 D1ED046A 		vldr.32	s13, [r1, #16]
 393:../../libDaisy//Drivers/CMSIS/DSP/Source/TransformFunctions/arm_cfft_f32.c ****         p1sp3_0 = pEnd1[0] - pEnd3[0];
 818              		.loc 1 393 17 discriminator 3 view .LVU364
 819 01f8 35EE813A 		vadd.f32	s6, s11, s2
 820              		.loc 1 396 34 discriminator 3 view .LVU365
 821 01fc D3ED040A 		vldr.32	s1, [r3, #16]
 394:../../libDaisy//Drivers/CMSIS/DSP/Source/TransformFunctions/arm_cfft_f32.c ****         p1sp3_0 = pEnd1[0] - pEnd3[0];
 822              		.loc 1 394 17 discriminator 3 view .LVU366
 823 0200 75EEC15A 		vsub.f32	s11, s11, s2
 391:../../libDaisy//Drivers/CMSIS/DSP/Source/TransformFunctions/arm_cfft_f32.c ****         p1sp3_1 = pEnd1[-1] - pEnd3[-1];
 824              		.loc 1 391 36 discriminator 3 view .LVU367
 825 0204 9CED030A 		vldr.32	s0, [ip, #12]
 391:../../libDaisy//Drivers/CMSIS/DSP/Source/TransformFunctions/arm_cfft_f32.c ****         p1sp3_1 = pEnd1[-1] - pEnd3[-1];
 826              		.loc 1 391 24 discriminator 3 view .LVU368
 827 0208 D6ED034A 		vldr.32	s9, [r6, #12]
 397:../../libDaisy//Drivers/CMSIS/DSP/Source/TransformFunctions/arm_cfft_f32.c ****         t2[3] = pEnd1[0] - pEnd3[0] - pEnd2[-1] + pEnd4[-1];
ARM GAS  /var/folders/hl/qgbwny5j0fd895c2c41bk3tw0000gp/T//ccphgPNq.s 			page 27


 398:../../libDaisy//Drivers/CMSIS/DSP/Source/TransformFunctions/arm_cfft_f32.c ****         // col 3
 399:../../libDaisy//Drivers/CMSIS/DSP/Source/TransformFunctions/arm_cfft_f32.c ****         t3[2] = p1ap3_1 - pEnd2[-1] - pEnd4[-1];
 400:../../libDaisy//Drivers/CMSIS/DSP/Source/TransformFunctions/arm_cfft_f32.c ****         t3[3] = p1ap3_0 - pEnd2[0]  - pEnd4[0];
 401:../../libDaisy//Drivers/CMSIS/DSP/Source/TransformFunctions/arm_cfft_f32.c ****         // col 4
 402:../../libDaisy//Drivers/CMSIS/DSP/Source/TransformFunctions/arm_cfft_f32.c ****         t4[2] = pEnd2[0]  - pEnd4[0]  - p1sp3_1;
 403:../../libDaisy//Drivers/CMSIS/DSP/Source/TransformFunctions/arm_cfft_f32.c ****         t4[3] = pEnd4[-1] - pEnd2[-1] - p1sp3_0;
 404:../../libDaisy//Drivers/CMSIS/DSP/Source/TransformFunctions/arm_cfft_f32.c ****         // col 1 - Bottom
 405:../../libDaisy//Drivers/CMSIS/DSP/Source/TransformFunctions/arm_cfft_f32.c ****         *pEnd1-- = p1ap3_0 + pEnd2[0] + pEnd4[0];
 828              		.loc 1 405 28 discriminator 3 view .LVU369
 829 020c 36EE831A 		vadd.f32	s2, s13, s6
 397:../../libDaisy//Drivers/CMSIS/DSP/Source/TransformFunctions/arm_cfft_f32.c ****         t2[3] = pEnd1[0] - pEnd3[0] - pEnd2[-1] + pEnd4[-1];
 830              		.loc 1 397 56 discriminator 3 view .LVU370
 831 0210 D3ED033A 		vldr.32	s7, [r3, #12]
 391:../../libDaisy//Drivers/CMSIS/DSP/Source/TransformFunctions/arm_cfft_f32.c ****         p1sp3_1 = pEnd1[-1] - pEnd3[-1];
 832              		.loc 1 391 17 discriminator 3 view .LVU371
 833 0214 34EE807A 		vadd.f32	s14, s9, s0
 834              	.LVL98:
 392:../../libDaisy//Drivers/CMSIS/DSP/Source/TransformFunctions/arm_cfft_f32.c ****         p1ap3_0 = pEnd1[0] + pEnd3[0];
 835              		.loc 1 392 9 is_stmt 1 discriminator 3 view .LVU372
 397:../../libDaisy//Drivers/CMSIS/DSP/Source/TransformFunctions/arm_cfft_f32.c ****         t2[3] = pEnd1[0] - pEnd3[0] - pEnd2[-1] + pEnd4[-1];
 836              		.loc 1 397 44 is_stmt 0 discriminator 3 view .LVU373
 837 0218 91ED035A 		vldr.32	s10, [r1, #12]
 392:../../libDaisy//Drivers/CMSIS/DSP/Source/TransformFunctions/arm_cfft_f32.c ****         p1ap3_0 = pEnd1[0] + pEnd3[0];
 838              		.loc 1 392 17 discriminator 3 view .LVU374
 839 021c 74EEC04A 		vsub.f32	s9, s9, s0
 840              	.LVL99:
 393:../../libDaisy//Drivers/CMSIS/DSP/Source/TransformFunctions/arm_cfft_f32.c ****         p1sp3_0 = pEnd1[0] - pEnd3[0];
 841              		.loc 1 393 9 is_stmt 1 discriminator 3 view .LVU375
 394:../../libDaisy//Drivers/CMSIS/DSP/Source/TransformFunctions/arm_cfft_f32.c ****         // col 2
 842              		.loc 1 394 9 discriminator 3 view .LVU376
 396:../../libDaisy//Drivers/CMSIS/DSP/Source/TransformFunctions/arm_cfft_f32.c ****         t2[3] = pEnd1[0] - pEnd3[0] - pEnd2[-1] + pEnd4[-1];
 843              		.loc 1 396 9 discriminator 3 view .LVU377
 844              		.loc 1 405 39 is_stmt 0 discriminator 3 view .LVU378
 845 0220 31EE201A 		vadd.f32	s2, s2, s1
 396:../../libDaisy//Drivers/CMSIS/DSP/Source/TransformFunctions/arm_cfft_f32.c ****         t2[3] = pEnd1[0] - pEnd3[0] - pEnd2[-1] + pEnd4[-1];
 846              		.loc 1 396 27 discriminator 3 view .LVU379
 847 0224 36EEE00A 		vsub.f32	s0, s13, s1
 400:../../libDaisy//Drivers/CMSIS/DSP/Source/TransformFunctions/arm_cfft_f32.c ****         // col 4
 848              		.loc 1 400 25 discriminator 3 view .LVU380
 849 0228 73EE666A 		vsub.f32	s13, s6, s13
 850              		.loc 1 405 18 discriminator 3 view .LVU381
 851 022c 86ED041A 		vstr.32	s2, [r6, #16]
 399:../../libDaisy//Drivers/CMSIS/DSP/Source/TransformFunctions/arm_cfft_f32.c ****         t3[3] = p1ap3_0 - pEnd2[0]  - pEnd4[0];
 852              		.loc 1 399 25 discriminator 3 view .LVU382
 853 0230 37EE458A 		vsub.f32	s16, s14, s10
 406:../../libDaisy//Drivers/CMSIS/DSP/Source/TransformFunctions/arm_cfft_f32.c ****         *pEnd1-- = p1ap3_1 + pEnd2[-1] + pEnd4[-1];
 854              		.loc 1 406 40 discriminator 3 view .LVU383
 855 0234 93ED031A 		vldr.32	s2, [r3, #12]
 397:../../libDaisy//Drivers/CMSIS/DSP/Source/TransformFunctions/arm_cfft_f32.c ****         // col 3
 856              		.loc 1 397 37 discriminator 3 view .LVU384
 857 0238 35EEC53A 		vsub.f32	s6, s11, s10
 858              	.LVL100:
 400:../../libDaisy//Drivers/CMSIS/DSP/Source/TransformFunctions/arm_cfft_f32.c ****         // col 4
 859              		.loc 1 400 37 discriminator 3 view .LVU385
 860 023c 76EEE06A 		vsub.f32	s13, s13, s1
 861              		.loc 1 406 28 discriminator 3 view .LVU386
 862 0240 D1ED030A 		vldr.32	s1, [r1, #12]
ARM GAS  /var/folders/hl/qgbwny5j0fd895c2c41bk3tw0000gp/T//ccphgPNq.s 			page 28


 396:../../libDaisy//Drivers/CMSIS/DSP/Source/TransformFunctions/arm_cfft_f32.c ****         t2[3] = pEnd1[0] - pEnd3[0] - pEnd2[-1] + pEnd4[-1];
 863              		.loc 1 396 38 discriminator 3 view .LVU387
 864 0244 70EE248A 		vadd.f32	s17, s0, s9
 865              	.LVL101:
 397:../../libDaisy//Drivers/CMSIS/DSP/Source/TransformFunctions/arm_cfft_f32.c ****         // col 3
 866              		.loc 1 397 9 is_stmt 1 discriminator 3 view .LVU388
 867              		.loc 1 406 28 is_stmt 0 discriminator 3 view .LVU389
 868 0248 37EE207A 		vadd.f32	s14, s14, s1
 869              	.LVL102:
 397:../../libDaisy//Drivers/CMSIS/DSP/Source/TransformFunctions/arm_cfft_f32.c ****         // col 3
 870              		.loc 1 397 49 discriminator 3 view .LVU390
 871 024c 33EE233A 		vadd.f32	s6, s6, s7
 872              	.LVL103:
 399:../../libDaisy//Drivers/CMSIS/DSP/Source/TransformFunctions/arm_cfft_f32.c ****         t3[3] = p1ap3_0 - pEnd2[0]  - pEnd4[0];
 873              		.loc 1 399 9 is_stmt 1 discriminator 3 view .LVU391
 403:../../libDaisy//Drivers/CMSIS/DSP/Source/TransformFunctions/arm_cfft_f32.c ****         // col 1 - Bottom
 874              		.loc 1 403 27 is_stmt 0 discriminator 3 view .LVU392
 875 0250 33EEC55A 		vsub.f32	s10, s7, s10
 876              		.loc 1 406 40 discriminator 3 view .LVU393
 877 0254 37EE017A 		vadd.f32	s14, s14, s2
 399:../../libDaisy//Drivers/CMSIS/DSP/Source/TransformFunctions/arm_cfft_f32.c ****         t3[3] = p1ap3_0 - pEnd2[0]  - pEnd4[0];
 878              		.loc 1 399 37 discriminator 3 view .LVU394
 879 0258 78EE633A 		vsub.f32	s7, s16, s7
 880              	.LVL104:
 400:../../libDaisy//Drivers/CMSIS/DSP/Source/TransformFunctions/arm_cfft_f32.c ****         // col 4
 881              		.loc 1 400 9 is_stmt 1 discriminator 3 view .LVU395
 402:../../libDaisy//Drivers/CMSIS/DSP/Source/TransformFunctions/arm_cfft_f32.c ****         t4[3] = pEnd4[-1] - pEnd2[-1] - p1sp3_0;
 882              		.loc 1 402 9 discriminator 3 view .LVU396
 403:../../libDaisy//Drivers/CMSIS/DSP/Source/TransformFunctions/arm_cfft_f32.c ****         // col 1 - Bottom
 883              		.loc 1 403 39 is_stmt 0 discriminator 3 view .LVU397
 884 025c 75EE655A 		vsub.f32	s11, s10, s11
 885              	.LVL105:
 886              		.loc 1 406 18 discriminator 3 view .LVU398
 887 0260 86ED037A 		vstr.32	s14, [r6, #12]
 402:../../libDaisy//Drivers/CMSIS/DSP/Source/TransformFunctions/arm_cfft_f32.c ****         t4[3] = pEnd4[-1] - pEnd2[-1] - p1sp3_0;
 888              		.loc 1 402 39 discriminator 3 view .LVU399
 889 0264 70EE644A 		vsub.f32	s9, s0, s9
 890              	.LVL106:
 403:../../libDaisy//Drivers/CMSIS/DSP/Source/TransformFunctions/arm_cfft_f32.c ****         // col 1 - Bottom
 891              		.loc 1 403 9 is_stmt 1 discriminator 3 view .LVU400
 405:../../libDaisy//Drivers/CMSIS/DSP/Source/TransformFunctions/arm_cfft_f32.c ****         *pEnd1-- = p1ap3_1 + pEnd2[-1] + pEnd4[-1];
 892              		.loc 1 405 9 discriminator 3 view .LVU401
 893              		.loc 1 406 9 discriminator 3 view .LVU402
 407:../../libDaisy//Drivers/CMSIS/DSP/Source/TransformFunctions/arm_cfft_f32.c **** 
 408:../../libDaisy//Drivers/CMSIS/DSP/Source/TransformFunctions/arm_cfft_f32.c ****         // COL 2
 409:../../libDaisy//Drivers/CMSIS/DSP/Source/TransformFunctions/arm_cfft_f32.c ****         // read twiddle factors
 410:../../libDaisy//Drivers/CMSIS/DSP/Source/TransformFunctions/arm_cfft_f32.c ****         twR = *tw2++;
 894              		.loc 1 410 9 discriminator 3 view .LVU403
 895              		.loc 1 410 13 is_stmt 0 discriminator 3 view .LVU404
 896 0268 1AED047A 		vldr.32	s14, [r10, #-16]
 897              	.LVL107:
 411:../../libDaisy//Drivers/CMSIS/DSP/Source/TransformFunctions/arm_cfft_f32.c ****         twI = *tw2++;
 898              		.loc 1 411 9 is_stmt 1 discriminator 3 view .LVU405
 899              		.loc 1 411 13 is_stmt 0 discriminator 3 view .LVU406
 900 026c 1AED035A 		vldr.32	s10, [r10, #-12]
 901              	.LVL108:
 412:../../libDaisy//Drivers/CMSIS/DSP/Source/TransformFunctions/arm_cfft_f32.c ****         // multiply by twiddle factors
ARM GAS  /var/folders/hl/qgbwny5j0fd895c2c41bk3tw0000gp/T//ccphgPNq.s 			page 29


 413:../../libDaisy//Drivers/CMSIS/DSP/Source/TransformFunctions/arm_cfft_f32.c ****         //  let    Z1 = a + i(b),   Z2 = c + i(d)
 414:../../libDaisy//Drivers/CMSIS/DSP/Source/TransformFunctions/arm_cfft_f32.c ****         //   =>  Z1 * Z2  =  (a*c - b*d) + i(b*c + a*d)
 415:../../libDaisy//Drivers/CMSIS/DSP/Source/TransformFunctions/arm_cfft_f32.c **** 
 416:../../libDaisy//Drivers/CMSIS/DSP/Source/TransformFunctions/arm_cfft_f32.c ****         // Top
 417:../../libDaisy//Drivers/CMSIS/DSP/Source/TransformFunctions/arm_cfft_f32.c ****         m0 = t2[0] * twR;
 902              		.loc 1 417 9 is_stmt 1 discriminator 3 view .LVU407
 418:../../libDaisy//Drivers/CMSIS/DSP/Source/TransformFunctions/arm_cfft_f32.c ****         m1 = t2[1] * twI;
 903              		.loc 1 418 9 discriminator 3 view .LVU408
 419:../../libDaisy//Drivers/CMSIS/DSP/Source/TransformFunctions/arm_cfft_f32.c ****         m2 = t2[1] * twR;
 904              		.loc 1 419 9 discriminator 3 view .LVU409
 420:../../libDaisy//Drivers/CMSIS/DSP/Source/TransformFunctions/arm_cfft_f32.c ****         m3 = t2[0] * twI;
 905              		.loc 1 420 9 discriminator 3 view .LVU410
 421:../../libDaisy//Drivers/CMSIS/DSP/Source/TransformFunctions/arm_cfft_f32.c **** 
 422:../../libDaisy//Drivers/CMSIS/DSP/Source/TransformFunctions/arm_cfft_f32.c ****         *p2++ = m0 + m1;
 906              		.loc 1 422 9 discriminator 3 view .LVU411
 423:../../libDaisy//Drivers/CMSIS/DSP/Source/TransformFunctions/arm_cfft_f32.c ****         *p2++ = m2 - m3;
 424:../../libDaisy//Drivers/CMSIS/DSP/Source/TransformFunctions/arm_cfft_f32.c ****         // use vertical symmetry col 2
 425:../../libDaisy//Drivers/CMSIS/DSP/Source/TransformFunctions/arm_cfft_f32.c ****         // 0.9997 - 0.0245i  <==>  0.0245 - 0.9997i
 426:../../libDaisy//Drivers/CMSIS/DSP/Source/TransformFunctions/arm_cfft_f32.c ****         // Bottom
 427:../../libDaisy//Drivers/CMSIS/DSP/Source/TransformFunctions/arm_cfft_f32.c ****         m0 = t2[3] * twI;
 428:../../libDaisy//Drivers/CMSIS/DSP/Source/TransformFunctions/arm_cfft_f32.c ****         m1 = t2[2] * twR;
 429:../../libDaisy//Drivers/CMSIS/DSP/Source/TransformFunctions/arm_cfft_f32.c ****         m2 = t2[2] * twI;
 430:../../libDaisy//Drivers/CMSIS/DSP/Source/TransformFunctions/arm_cfft_f32.c ****         m3 = t2[3] * twR;
 907              		.loc 1 430 12 is_stmt 0 discriminator 3 view .LVU412
 908 0270 23EE071A 		vmul.f32	s2, s6, s14
 431:../../libDaisy//Drivers/CMSIS/DSP/Source/TransformFunctions/arm_cfft_f32.c **** 
 432:../../libDaisy//Drivers/CMSIS/DSP/Source/TransformFunctions/arm_cfft_f32.c ****         *pEnd2-- = m0 - m1;
 909              		.loc 1 432 23 discriminator 3 view .LVU413
 910 0274 67EE680A 		vnmul.f32	s1, s14, s17
 418:../../libDaisy//Drivers/CMSIS/DSP/Source/TransformFunctions/arm_cfft_f32.c ****         m2 = t2[1] * twR;
 911              		.loc 1 418 12 discriminator 3 view .LVU414
 912 0278 21EE858A 		vmul.f32	s16, s3, s10
 913              	.LVL109:
 423:../../libDaisy//Drivers/CMSIS/DSP/Source/TransformFunctions/arm_cfft_f32.c ****         *p2++ = m2 - m3;
 914              		.loc 1 423 20 discriminator 3 view .LVU415
 915 027c 25EE420A 		vnmul.f32	s0, s10, s4
 916              		.loc 1 432 23 discriminator 3 view .LVU416
 917 0280 E3EE050A 		vfma.f32	s1, s6, s10
 433:../../libDaisy//Drivers/CMSIS/DSP/Source/TransformFunctions/arm_cfft_f32.c ****         *pEnd2-- = m2 + m3;
 918              		.loc 1 433 23 discriminator 3 view .LVU417
 919 0284 B0EE413A 		vmov.f32	s6, s2
 920              	.LVL110:
 422:../../libDaisy//Drivers/CMSIS/DSP/Source/TransformFunctions/arm_cfft_f32.c ****         *p2++ = m2 - m3;
 921              		.loc 1 422 20 discriminator 3 view .LVU418
 922 0288 B0EE481A 		vmov.f32	s2, s16
 923              		.loc 1 433 23 discriminator 3 view .LVU419
 924 028c A8EE853A 		vfma.f32	s6, s17, s10
 423:../../libDaisy//Drivers/CMSIS/DSP/Source/TransformFunctions/arm_cfft_f32.c ****         // use vertical symmetry col 2
 925              		.loc 1 423 20 discriminator 3 view .LVU420
 926 0290 B0EE405A 		vmov.f32	s10, s0
 927              	.LVL111:
 422:../../libDaisy//Drivers/CMSIS/DSP/Source/TransformFunctions/arm_cfft_f32.c ****         *p2++ = m2 - m3;
 928              		.loc 1 422 20 discriminator 3 view .LVU421
 929 0294 A2EE071A 		vfma.f32	s2, s4, s14
 423:../../libDaisy//Drivers/CMSIS/DSP/Source/TransformFunctions/arm_cfft_f32.c ****         // use vertical symmetry col 2
 930              		.loc 1 423 20 discriminator 3 view .LVU422
 931 0298 A1EE875A 		vfma.f32	s10, s3, s14
ARM GAS  /var/folders/hl/qgbwny5j0fd895c2c41bk3tw0000gp/T//ccphgPNq.s 			page 30


 422:../../libDaisy//Drivers/CMSIS/DSP/Source/TransformFunctions/arm_cfft_f32.c ****         *p2++ = m2 - m3;
 932              		.loc 1 422 15 discriminator 3 view .LVU423
 933 029c 00ED041A 		vstr.32	s2, [r0, #-16]
 934              	.LVL112:
 423:../../libDaisy//Drivers/CMSIS/DSP/Source/TransformFunctions/arm_cfft_f32.c ****         // use vertical symmetry col 2
 935              		.loc 1 423 9 is_stmt 1 discriminator 3 view .LVU424
 423:../../libDaisy//Drivers/CMSIS/DSP/Source/TransformFunctions/arm_cfft_f32.c ****         // use vertical symmetry col 2
 936              		.loc 1 423 15 is_stmt 0 discriminator 3 view .LVU425
 937 02a0 00ED035A 		vstr.32	s10, [r0, #-12]
 427:../../libDaisy//Drivers/CMSIS/DSP/Source/TransformFunctions/arm_cfft_f32.c ****         m1 = t2[2] * twR;
 938              		.loc 1 427 9 is_stmt 1 discriminator 3 view .LVU426
 939              	.LVL113:
 428:../../libDaisy//Drivers/CMSIS/DSP/Source/TransformFunctions/arm_cfft_f32.c ****         m2 = t2[2] * twI;
 940              		.loc 1 428 9 discriminator 3 view .LVU427
 429:../../libDaisy//Drivers/CMSIS/DSP/Source/TransformFunctions/arm_cfft_f32.c ****         m3 = t2[3] * twR;
 941              		.loc 1 429 9 discriminator 3 view .LVU428
 430:../../libDaisy//Drivers/CMSIS/DSP/Source/TransformFunctions/arm_cfft_f32.c **** 
 942              		.loc 1 430 9 discriminator 3 view .LVU429
 432:../../libDaisy//Drivers/CMSIS/DSP/Source/TransformFunctions/arm_cfft_f32.c ****         *pEnd2-- = m2 + m3;
 943              		.loc 1 432 9 discriminator 3 view .LVU430
 944              		.loc 1 433 18 is_stmt 0 discriminator 3 view .LVU431
 945 02a4 81ED033A 		vstr.32	s6, [r1, #12]
 432:../../libDaisy//Drivers/CMSIS/DSP/Source/TransformFunctions/arm_cfft_f32.c ****         *pEnd2-- = m2 + m3;
 946              		.loc 1 432 18 discriminator 3 view .LVU432
 947 02a8 C1ED040A 		vstr.32	s1, [r1, #16]
 948              		.loc 1 433 9 is_stmt 1 discriminator 3 view .LVU433
 434:../../libDaisy//Drivers/CMSIS/DSP/Source/TransformFunctions/arm_cfft_f32.c **** 
 435:../../libDaisy//Drivers/CMSIS/DSP/Source/TransformFunctions/arm_cfft_f32.c ****         // COL 3
 436:../../libDaisy//Drivers/CMSIS/DSP/Source/TransformFunctions/arm_cfft_f32.c ****         twR = tw3[0];
 949              		.loc 1 436 9 discriminator 3 view .LVU434
 437:../../libDaisy//Drivers/CMSIS/DSP/Source/TransformFunctions/arm_cfft_f32.c ****         twI = tw3[1];
 950              		.loc 1 437 13 is_stmt 0 discriminator 3 view .LVU435
 951 02ac 19ED077A 		vldr.32	s14, [r9, #-28]
 952              	.LVL114:
 436:../../libDaisy//Drivers/CMSIS/DSP/Source/TransformFunctions/arm_cfft_f32.c ****         twI = tw3[1];
 953              		.loc 1 436 13 discriminator 3 view .LVU436
 954 02b0 19ED085A 		vldr.32	s10, [r9, #-32]
 955              	.LVL115:
 956              		.loc 1 437 9 is_stmt 1 discriminator 3 view .LVU437
 438:../../libDaisy//Drivers/CMSIS/DSP/Source/TransformFunctions/arm_cfft_f32.c ****         tw3 += twMod3;
 957              		.loc 1 438 9 discriminator 3 view .LVU438
 439:../../libDaisy//Drivers/CMSIS/DSP/Source/TransformFunctions/arm_cfft_f32.c ****         // Top
 440:../../libDaisy//Drivers/CMSIS/DSP/Source/TransformFunctions/arm_cfft_f32.c ****         m0 = t3[0] * twR;
 958              		.loc 1 440 9 discriminator 3 view .LVU439
 441:../../libDaisy//Drivers/CMSIS/DSP/Source/TransformFunctions/arm_cfft_f32.c ****         m1 = t3[1] * twI;
 959              		.loc 1 441 9 discriminator 3 view .LVU440
 442:../../libDaisy//Drivers/CMSIS/DSP/Source/TransformFunctions/arm_cfft_f32.c ****         m2 = t3[1] * twR;
 960              		.loc 1 442 9 discriminator 3 view .LVU441
 443:../../libDaisy//Drivers/CMSIS/DSP/Source/TransformFunctions/arm_cfft_f32.c ****         m3 = t3[0] * twI;
 961              		.loc 1 443 9 discriminator 3 view .LVU442
 444:../../libDaisy//Drivers/CMSIS/DSP/Source/TransformFunctions/arm_cfft_f32.c **** 
 445:../../libDaisy//Drivers/CMSIS/DSP/Source/TransformFunctions/arm_cfft_f32.c ****         *p3++ = m0 + m1;
 962              		.loc 1 445 9 discriminator 3 view .LVU443
 441:../../libDaisy//Drivers/CMSIS/DSP/Source/TransformFunctions/arm_cfft_f32.c ****         m2 = t3[1] * twR;
 963              		.loc 1 441 12 is_stmt 0 discriminator 3 view .LVU444
 964 02b4 64EE071A 		vmul.f32	s3, s8, s14
 965              	.LVL116:
ARM GAS  /var/folders/hl/qgbwny5j0fd895c2c41bk3tw0000gp/T//ccphgPNq.s 			page 31


 446:../../libDaisy//Drivers/CMSIS/DSP/Source/TransformFunctions/arm_cfft_f32.c ****         *p3++ = m2 - m3;
 447:../../libDaisy//Drivers/CMSIS/DSP/Source/TransformFunctions/arm_cfft_f32.c ****         // use vertical symmetry col 3
 448:../../libDaisy//Drivers/CMSIS/DSP/Source/TransformFunctions/arm_cfft_f32.c ****         // 0.9988 - 0.0491i  <==>  -0.9988 - 0.0491i
 449:../../libDaisy//Drivers/CMSIS/DSP/Source/TransformFunctions/arm_cfft_f32.c ****         // Bottom
 450:../../libDaisy//Drivers/CMSIS/DSP/Source/TransformFunctions/arm_cfft_f32.c ****         m0 = -t3[3] * twR;
 451:../../libDaisy//Drivers/CMSIS/DSP/Source/TransformFunctions/arm_cfft_f32.c ****         m1 = t3[2] * twI;
 452:../../libDaisy//Drivers/CMSIS/DSP/Source/TransformFunctions/arm_cfft_f32.c ****         m2 = t3[2] * twR;
 453:../../libDaisy//Drivers/CMSIS/DSP/Source/TransformFunctions/arm_cfft_f32.c ****         m3 = t3[3] * twI;
 966              		.loc 1 453 12 discriminator 3 view .LVU445
 967 02b8 26EE873A 		vmul.f32	s6, s13, s14
 446:../../libDaisy//Drivers/CMSIS/DSP/Source/TransformFunctions/arm_cfft_f32.c ****         *p3++ = m2 - m3;
 968              		.loc 1 446 20 discriminator 3 view .LVU446
 969 02bc 27EE622A 		vnmul.f32	s4, s14, s5
 970              	.LVL117:
 454:../../libDaisy//Drivers/CMSIS/DSP/Source/TransformFunctions/arm_cfft_f32.c **** 
 455:../../libDaisy//Drivers/CMSIS/DSP/Source/TransformFunctions/arm_cfft_f32.c ****         *pEnd3-- = m0 - m1;
 971              		.loc 1 455 23 discriminator 3 view .LVU447
 972 02c0 27EE637A 		vnmul.f32	s14, s14, s7
 973              	.LVL118:
 445:../../libDaisy//Drivers/CMSIS/DSP/Source/TransformFunctions/arm_cfft_f32.c ****         *p3++ = m2 - m3;
 974              		.loc 1 445 20 discriminator 3 view .LVU448
 975 02c4 E2EE851A 		vfma.f32	s3, s5, s10
 976              	.LVL119:
 446:../../libDaisy//Drivers/CMSIS/DSP/Source/TransformFunctions/arm_cfft_f32.c ****         *p3++ = m2 - m3;
 977              		.loc 1 446 20 discriminator 3 view .LVU449
 978 02c8 F0EE422A 		vmov.f32	s5, s4
 979              	.LVL120:
 980              		.loc 1 455 23 discriminator 3 view .LVU450
 981 02cc A6EEC57A 		vfms.f32	s14, s13, s10
 456:../../libDaisy//Drivers/CMSIS/DSP/Source/TransformFunctions/arm_cfft_f32.c ****         *pEnd3-- = m3 - m2;
 982              		.loc 1 456 23 discriminator 3 view .LVU451
 983 02d0 F0EE436A 		vmov.f32	s13, s6
 984              	.LVL121:
 446:../../libDaisy//Drivers/CMSIS/DSP/Source/TransformFunctions/arm_cfft_f32.c ****         // use vertical symmetry col 3
 985              		.loc 1 446 20 discriminator 3 view .LVU452
 986 02d4 E4EE052A 		vfma.f32	s5, s8, s10
 987              		.loc 1 456 23 discriminator 3 view .LVU453
 988 02d8 E3EEC56A 		vfms.f32	s13, s7, s10
 445:../../libDaisy//Drivers/CMSIS/DSP/Source/TransformFunctions/arm_cfft_f32.c ****         *p3++ = m2 - m3;
 989              		.loc 1 445 15 discriminator 3 view .LVU454
 990 02dc 4EED041A 		vstr.32	s3, [lr, #-16]
 991              	.LVL122:
 446:../../libDaisy//Drivers/CMSIS/DSP/Source/TransformFunctions/arm_cfft_f32.c ****         // use vertical symmetry col 3
 992              		.loc 1 446 9 is_stmt 1 discriminator 3 view .LVU455
 446:../../libDaisy//Drivers/CMSIS/DSP/Source/TransformFunctions/arm_cfft_f32.c ****         // use vertical symmetry col 3
 993              		.loc 1 446 15 is_stmt 0 discriminator 3 view .LVU456
 994 02e0 4EED032A 		vstr.32	s5, [lr, #-12]
 450:../../libDaisy//Drivers/CMSIS/DSP/Source/TransformFunctions/arm_cfft_f32.c ****         m1 = t3[2] * twI;
 995              		.loc 1 450 9 is_stmt 1 discriminator 3 view .LVU457
 451:../../libDaisy//Drivers/CMSIS/DSP/Source/TransformFunctions/arm_cfft_f32.c ****         m2 = t3[2] * twR;
 996              		.loc 1 451 9 discriminator 3 view .LVU458
 452:../../libDaisy//Drivers/CMSIS/DSP/Source/TransformFunctions/arm_cfft_f32.c ****         m3 = t3[3] * twI;
 997              		.loc 1 452 9 discriminator 3 view .LVU459
 998              	.LVL123:
 453:../../libDaisy//Drivers/CMSIS/DSP/Source/TransformFunctions/arm_cfft_f32.c **** 
 999              		.loc 1 453 9 discriminator 3 view .LVU460
 455:../../libDaisy//Drivers/CMSIS/DSP/Source/TransformFunctions/arm_cfft_f32.c ****         *pEnd3-- = m3 - m2;
ARM GAS  /var/folders/hl/qgbwny5j0fd895c2c41bk3tw0000gp/T//ccphgPNq.s 			page 32


 1000              		.loc 1 455 9 discriminator 3 view .LVU461
 455:../../libDaisy//Drivers/CMSIS/DSP/Source/TransformFunctions/arm_cfft_f32.c ****         *pEnd3-- = m3 - m2;
 1001              		.loc 1 455 18 is_stmt 0 discriminator 3 view .LVU462
 1002 02e4 8CED047A 		vstr.32	s14, [ip, #16]
 1003              		.loc 1 456 9 is_stmt 1 discriminator 3 view .LVU463
 1004              		.loc 1 456 18 is_stmt 0 discriminator 3 view .LVU464
 1005 02e8 CCED036A 		vstr.32	s13, [ip, #12]
 457:../../libDaisy//Drivers/CMSIS/DSP/Source/TransformFunctions/arm_cfft_f32.c **** 
 458:../../libDaisy//Drivers/CMSIS/DSP/Source/TransformFunctions/arm_cfft_f32.c ****         // COL 4
 459:../../libDaisy//Drivers/CMSIS/DSP/Source/TransformFunctions/arm_cfft_f32.c ****         twR = tw4[0];
 1006              		.loc 1 459 9 is_stmt 1 discriminator 3 view .LVU465
 1007              		.loc 1 459 13 is_stmt 0 discriminator 3 view .LVU466
 1008 02ec 58ED0C6A 		vldr.32	s13, [r8, #-48]
 1009              	.LVL124:
 460:../../libDaisy//Drivers/CMSIS/DSP/Source/TransformFunctions/arm_cfft_f32.c ****         twI = tw4[1];
 1010              		.loc 1 460 9 is_stmt 1 discriminator 3 view .LVU467
 1011              		.loc 1 460 13 is_stmt 0 discriminator 3 view .LVU468
 1012 02f0 18ED0B7A 		vldr.32	s14, [r8, #-44]
 1013              	.LVL125:
 461:../../libDaisy//Drivers/CMSIS/DSP/Source/TransformFunctions/arm_cfft_f32.c ****         tw4 += twMod4;
 1014              		.loc 1 461 9 is_stmt 1 discriminator 3 view .LVU469
 462:../../libDaisy//Drivers/CMSIS/DSP/Source/TransformFunctions/arm_cfft_f32.c ****         // Top
 463:../../libDaisy//Drivers/CMSIS/DSP/Source/TransformFunctions/arm_cfft_f32.c ****         m0 = t4[0] * twR;
 1015              		.loc 1 463 9 discriminator 3 view .LVU470
 464:../../libDaisy//Drivers/CMSIS/DSP/Source/TransformFunctions/arm_cfft_f32.c ****         m1 = t4[1] * twI;
 1016              		.loc 1 464 9 discriminator 3 view .LVU471
 465:../../libDaisy//Drivers/CMSIS/DSP/Source/TransformFunctions/arm_cfft_f32.c ****         m2 = t4[1] * twR;
 1017              		.loc 1 465 9 discriminator 3 view .LVU472
 466:../../libDaisy//Drivers/CMSIS/DSP/Source/TransformFunctions/arm_cfft_f32.c ****         m3 = t4[0] * twI;
 1018              		.loc 1 466 9 discriminator 3 view .LVU473
 467:../../libDaisy//Drivers/CMSIS/DSP/Source/TransformFunctions/arm_cfft_f32.c **** 
 468:../../libDaisy//Drivers/CMSIS/DSP/Source/TransformFunctions/arm_cfft_f32.c ****         *p4++ = m0 + m1;
 1019              		.loc 1 468 9 discriminator 3 view .LVU474
 469:../../libDaisy//Drivers/CMSIS/DSP/Source/TransformFunctions/arm_cfft_f32.c ****         *p4++ = m2 - m3;
 470:../../libDaisy//Drivers/CMSIS/DSP/Source/TransformFunctions/arm_cfft_f32.c ****         // use vertical symmetry col 4
 471:../../libDaisy//Drivers/CMSIS/DSP/Source/TransformFunctions/arm_cfft_f32.c ****         // 0.9973 - 0.0736i  <==>  -0.0736 + 0.9973i
 472:../../libDaisy//Drivers/CMSIS/DSP/Source/TransformFunctions/arm_cfft_f32.c ****         // Bottom
 473:../../libDaisy//Drivers/CMSIS/DSP/Source/TransformFunctions/arm_cfft_f32.c ****         m0 = t4[3] * twI;
 474:../../libDaisy//Drivers/CMSIS/DSP/Source/TransformFunctions/arm_cfft_f32.c ****         m1 = t4[2] * twR;
 475:../../libDaisy//Drivers/CMSIS/DSP/Source/TransformFunctions/arm_cfft_f32.c ****         m2 = t4[2] * twI;
 476:../../libDaisy//Drivers/CMSIS/DSP/Source/TransformFunctions/arm_cfft_f32.c ****         m3 = t4[3] * twR;
 1020              		.loc 1 476 12 is_stmt 0 discriminator 3 view .LVU475
 1021 02f4 25EEA65A 		vmul.f32	s10, s11, s13
 469:../../libDaisy//Drivers/CMSIS/DSP/Source/TransformFunctions/arm_cfft_f32.c ****         *p4++ = m2 - m3;
 1022              		.loc 1 469 20 discriminator 3 view .LVU476
 1023 02f8 67EE673A 		vnmul.f32	s7, s14, s15
 1024              	.LVL126:
 464:../../libDaisy//Drivers/CMSIS/DSP/Source/TransformFunctions/arm_cfft_f32.c ****         m2 = t4[1] * twR;
 1025              		.loc 1 464 12 discriminator 3 view .LVU477
 1026 02fc 26EE073A 		vmul.f32	s6, s12, s14
 1027              	.LVL127:
 477:../../libDaisy//Drivers/CMSIS/DSP/Source/TransformFunctions/arm_cfft_f32.c **** 
 478:../../libDaisy//Drivers/CMSIS/DSP/Source/TransformFunctions/arm_cfft_f32.c ****         *pEnd4-- = m0 - m1;
 1028              		.loc 1 478 23 discriminator 3 view .LVU478
 1029 0300 26EEE44A 		vnmul.f32	s8, s13, s9
 1030              	.LVL128:
 469:../../libDaisy//Drivers/CMSIS/DSP/Source/TransformFunctions/arm_cfft_f32.c ****         // use vertical symmetry col 4
ARM GAS  /var/folders/hl/qgbwny5j0fd895c2c41bk3tw0000gp/T//ccphgPNq.s 			page 33


 1031              		.loc 1 469 20 discriminator 3 view .LVU479
 1032 0304 E6EE263A 		vfma.f32	s7, s12, s13
 468:../../libDaisy//Drivers/CMSIS/DSP/Source/TransformFunctions/arm_cfft_f32.c ****         *p4++ = m2 - m3;
 1033              		.loc 1 468 20 discriminator 3 view .LVU480
 1034 0308 A7EEA63A 		vfma.f32	s6, s15, s13
 1035              	.LVL129:
 1036              		.loc 1 478 23 discriminator 3 view .LVU481
 1037 030c F0EE446A 		vmov.f32	s13, s8
 1038              	.LVL130:
 479:../../libDaisy//Drivers/CMSIS/DSP/Source/TransformFunctions/arm_cfft_f32.c ****         *pEnd4-- = m2 + m3;
 1039              		.loc 1 479 23 discriminator 3 view .LVU482
 1040 0310 F0EE457A 		vmov.f32	s15, s10
 1041              	.LVL131:
 478:../../libDaisy//Drivers/CMSIS/DSP/Source/TransformFunctions/arm_cfft_f32.c ****         *pEnd4-- = m2 + m3;
 1042              		.loc 1 478 23 discriminator 3 view .LVU483
 1043 0314 E5EE876A 		vfma.f32	s13, s11, s14
 1044              		.loc 1 479 23 discriminator 3 view .LVU484
 1045 0318 E4EE877A 		vfma.f32	s15, s9, s14
 469:../../libDaisy//Drivers/CMSIS/DSP/Source/TransformFunctions/arm_cfft_f32.c ****         // use vertical symmetry col 4
 1046              		.loc 1 469 15 discriminator 3 view .LVU485
 1047 031c 42ED033A 		vstr.32	s7, [r2, #-12]
 1048              	.LVL132:
 468:../../libDaisy//Drivers/CMSIS/DSP/Source/TransformFunctions/arm_cfft_f32.c ****         *p4++ = m2 - m3;
 1049              		.loc 1 468 15 discriminator 3 view .LVU486
 1050 0320 02ED043A 		vstr.32	s6, [r2, #-16]
 469:../../libDaisy//Drivers/CMSIS/DSP/Source/TransformFunctions/arm_cfft_f32.c ****         // use vertical symmetry col 4
 1051              		.loc 1 469 9 is_stmt 1 discriminator 3 view .LVU487
 473:../../libDaisy//Drivers/CMSIS/DSP/Source/TransformFunctions/arm_cfft_f32.c ****         m1 = t4[2] * twR;
 1052              		.loc 1 473 9 discriminator 3 view .LVU488
 1053              	.LVL133:
 474:../../libDaisy//Drivers/CMSIS/DSP/Source/TransformFunctions/arm_cfft_f32.c ****         m2 = t4[2] * twI;
 1054              		.loc 1 474 9 discriminator 3 view .LVU489
 475:../../libDaisy//Drivers/CMSIS/DSP/Source/TransformFunctions/arm_cfft_f32.c ****         m3 = t4[3] * twR;
 1055              		.loc 1 475 9 discriminator 3 view .LVU490
 476:../../libDaisy//Drivers/CMSIS/DSP/Source/TransformFunctions/arm_cfft_f32.c **** 
 1056              		.loc 1 476 9 discriminator 3 view .LVU491
 478:../../libDaisy//Drivers/CMSIS/DSP/Source/TransformFunctions/arm_cfft_f32.c ****         *pEnd4-- = m2 + m3;
 1057              		.loc 1 478 9 discriminator 3 view .LVU492
 478:../../libDaisy//Drivers/CMSIS/DSP/Source/TransformFunctions/arm_cfft_f32.c ****         *pEnd4-- = m2 + m3;
 1058              		.loc 1 478 18 is_stmt 0 discriminator 3 view .LVU493
 1059 0324 C3ED046A 		vstr.32	s13, [r3, #16]
 1060              		.loc 1 479 9 is_stmt 1 discriminator 3 view .LVU494
 1061              		.loc 1 479 18 is_stmt 0 discriminator 3 view .LVU495
 1062 0328 C3ED037A 		vstr.32	s15, [r3, #12]
 370:../../libDaisy//Drivers/CMSIS/DSP/Source/TransformFunctions/arm_cfft_f32.c ****     {
 1063              		.loc 1 370 35 is_stmt 1 discriminator 3 view .LVU496
 1064              	.LVL134:
 370:../../libDaisy//Drivers/CMSIS/DSP/Source/TransformFunctions/arm_cfft_f32.c ****     {
 1065              		.loc 1 370 28 discriminator 3 view .LVU497
 370:../../libDaisy//Drivers/CMSIS/DSP/Source/TransformFunctions/arm_cfft_f32.c ****     {
 1066              		.loc 1 370 5 is_stmt 0 discriminator 3 view .LVU498
 1067 032c 7FF406AF 		bne	.L12
 388:../../libDaisy//Drivers/CMSIS/DSP/Source/TransformFunctions/arm_cfft_f32.c **** 
 1068              		.loc 1 388 12 view .LVU499
 1069 0330 079B     		ldr	r3, [sp, #28]
 1070 0332 039A     		ldr	r2, [sp, #12]
 423:../../libDaisy//Drivers/CMSIS/DSP/Source/TransformFunctions/arm_cfft_f32.c ****         // use vertical symmetry col 2
ARM GAS  /var/folders/hl/qgbwny5j0fd895c2c41bk3tw0000gp/T//ccphgPNq.s 			page 34


 1071              		.loc 1 423 12 view .LVU500
 1072 0334 05EBC305 		add	r5, r5, r3, lsl #3
 388:../../libDaisy//Drivers/CMSIS/DSP/Source/TransformFunctions/arm_cfft_f32.c **** 
 1073              		.loc 1 388 12 view .LVU501
 1074 0338 02EBC302 		add	r2, r2, r3, lsl #3
 1075 033c 0392     		str	r2, [sp, #12]
 411:../../libDaisy//Drivers/CMSIS/DSP/Source/TransformFunctions/arm_cfft_f32.c ****         // multiply by twiddle factors
 1076              		.loc 1 411 19 view .LVU502
 1077 033e 029A     		ldr	r2, [sp, #8]
 1078 0340 02EBC302 		add	r2, r2, r3, lsl #3
 1079 0344 0292     		str	r2, [sp, #8]
 438:../../libDaisy//Drivers/CMSIS/DSP/Source/TransformFunctions/arm_cfft_f32.c ****         // Top
 1080              		.loc 1 438 13 view .LVU503
 1081 0346 009A     		ldr	r2, [sp]
 1082 0348 02EB0312 		add	r2, r2, r3, lsl #4
 1083 034c 0092     		str	r2, [sp]
 446:../../libDaisy//Drivers/CMSIS/DSP/Source/TransformFunctions/arm_cfft_f32.c ****         // use vertical symmetry col 3
 1084              		.loc 1 446 12 view .LVU504
 1085 034e 059A     		ldr	r2, [sp, #20]
 1086 0350 02EBC302 		add	r2, r2, r3, lsl #3
 1087 0354 0592     		str	r2, [sp, #20]
 469:../../libDaisy//Drivers/CMSIS/DSP/Source/TransformFunctions/arm_cfft_f32.c ****         // use vertical symmetry col 4
 1088              		.loc 1 469 12 view .LVU505
 1089 0356 049A     		ldr	r2, [sp, #16]
 1090 0358 02EBC302 		add	r2, r2, r3, lsl #3
 461:../../libDaisy//Drivers/CMSIS/DSP/Source/TransformFunctions/arm_cfft_f32.c ****         // Top
 1091              		.loc 1 461 13 view .LVU506
 1092 035c 03EB4303 		add	r3, r3, r3, lsl #1
 469:../../libDaisy//Drivers/CMSIS/DSP/Source/TransformFunctions/arm_cfft_f32.c ****         // use vertical symmetry col 4
 1093              		.loc 1 469 12 view .LVU507
 1094 0360 0492     		str	r2, [sp, #16]
 461:../../libDaisy//Drivers/CMSIS/DSP/Source/TransformFunctions/arm_cfft_f32.c ****         // Top
 1095              		.loc 1 461 13 view .LVU508
 1096 0362 019A     		ldr	r2, [sp, #4]
 1097 0364 02EBC303 		add	r3, r2, r3, lsl #3
 1098 0368 0193     		str	r3, [sp, #4]
 1099              	.LVL135:
 1100              	.L11:
 480:../../libDaisy//Drivers/CMSIS/DSP/Source/TransformFunctions/arm_cfft_f32.c ****     }
 481:../../libDaisy//Drivers/CMSIS/DSP/Source/TransformFunctions/arm_cfft_f32.c **** 
 482:../../libDaisy//Drivers/CMSIS/DSP/Source/TransformFunctions/arm_cfft_f32.c ****     //MIDDLE
 483:../../libDaisy//Drivers/CMSIS/DSP/Source/TransformFunctions/arm_cfft_f32.c ****     // Twiddle factors are
 484:../../libDaisy//Drivers/CMSIS/DSP/Source/TransformFunctions/arm_cfft_f32.c ****     //  1.0000  0.7071-0.7071i  -1.0000i  -0.7071-0.7071i
 485:../../libDaisy//Drivers/CMSIS/DSP/Source/TransformFunctions/arm_cfft_f32.c ****     p1ap3_0 = p1[0] + p3[0];
 1101              		.loc 1 485 5 is_stmt 1 view .LVU509
 1102              		.loc 1 485 17 is_stmt 0 view .LVU510
 1103 036a 039E     		ldr	r6, [sp, #12]
 1104              		.loc 1 485 25 view .LVU511
 1105 036c 059F     		ldr	r7, [sp, #20]
 1106              		.loc 1 485 17 view .LVU512
 1107 036e D6ED007A 		vldr.32	s15, [r6]
 1108              		.loc 1 485 25 view .LVU513
 1109 0372 D7ED005A 		vldr.32	s11, [r7]
 486:../../libDaisy//Drivers/CMSIS/DSP/Source/TransformFunctions/arm_cfft_f32.c ****     p1sp3_0 = p1[0] - p3[0];
 487:../../libDaisy//Drivers/CMSIS/DSP/Source/TransformFunctions/arm_cfft_f32.c ****     p1ap3_1 = p1[1] + p3[1];
 488:../../libDaisy//Drivers/CMSIS/DSP/Source/TransformFunctions/arm_cfft_f32.c ****     p1sp3_1 = p1[1] - p3[1];
 489:../../libDaisy//Drivers/CMSIS/DSP/Source/TransformFunctions/arm_cfft_f32.c **** 
ARM GAS  /var/folders/hl/qgbwny5j0fd895c2c41bk3tw0000gp/T//ccphgPNq.s 			page 35


 490:../../libDaisy//Drivers/CMSIS/DSP/Source/TransformFunctions/arm_cfft_f32.c ****     // col 2
 491:../../libDaisy//Drivers/CMSIS/DSP/Source/TransformFunctions/arm_cfft_f32.c ****     t2[0] = p1sp3_0 + p2[1] - p4[1];
 492:../../libDaisy//Drivers/CMSIS/DSP/Source/TransformFunctions/arm_cfft_f32.c ****     t2[1] = p1sp3_1 - p2[0] + p4[0];
 1110              		.loc 1 492 25 view .LVU514
 1111 0376 95ED007A 		vldr.32	s14, [r5]
 485:../../libDaisy//Drivers/CMSIS/DSP/Source/TransformFunctions/arm_cfft_f32.c ****     p1sp3_0 = p1[0] - p3[0];
 1112              		.loc 1 485 13 view .LVU515
 1113 037a 37EEA56A 		vadd.f32	s12, s15, s11
 1114              	.LVL136:
 486:../../libDaisy//Drivers/CMSIS/DSP/Source/TransformFunctions/arm_cfft_f32.c ****     p1sp3_0 = p1[0] - p3[0];
 1115              		.loc 1 486 5 is_stmt 1 view .LVU516
 1116              		.loc 1 492 33 is_stmt 0 view .LVU517
 1117 037e 049B     		ldr	r3, [sp, #16]
 487:../../libDaisy//Drivers/CMSIS/DSP/Source/TransformFunctions/arm_cfft_f32.c ****     p1sp3_1 = p1[1] - p3[1];
 1118              		.loc 1 487 25 view .LVU518
 1119 0380 D7ED014A 		vldr.32	s9, [r7, #4]
 486:../../libDaisy//Drivers/CMSIS/DSP/Source/TransformFunctions/arm_cfft_f32.c ****     p1sp3_0 = p1[0] - p3[0];
 1120              		.loc 1 486 13 view .LVU519
 1121 0384 77EEE57A 		vsub.f32	s15, s15, s11
 1122              	.LVL137:
 487:../../libDaisy//Drivers/CMSIS/DSP/Source/TransformFunctions/arm_cfft_f32.c ****     p1sp3_1 = p1[1] - p3[1];
 1123              		.loc 1 487 5 is_stmt 1 view .LVU520
 1124              		.loc 1 492 33 is_stmt 0 view .LVU521
 1125 0388 D3ED003A 		vldr.32	s7, [r3]
 493:../../libDaisy//Drivers/CMSIS/DSP/Source/TransformFunctions/arm_cfft_f32.c ****     // col 3
 494:../../libDaisy//Drivers/CMSIS/DSP/Source/TransformFunctions/arm_cfft_f32.c ****     t3[0] = p1ap3_0 - p2[0] - p4[0];
 495:../../libDaisy//Drivers/CMSIS/DSP/Source/TransformFunctions/arm_cfft_f32.c ****     t3[1] = p1ap3_1 - p2[1] - p4[1];
 496:../../libDaisy//Drivers/CMSIS/DSP/Source/TransformFunctions/arm_cfft_f32.c ****     // col 4
 497:../../libDaisy//Drivers/CMSIS/DSP/Source/TransformFunctions/arm_cfft_f32.c ****     t4[0] = p1sp3_0 - p2[1] + p4[1];
 498:../../libDaisy//Drivers/CMSIS/DSP/Source/TransformFunctions/arm_cfft_f32.c ****     t4[1] = p1sp3_1 + p2[0] - p4[0];
 499:../../libDaisy//Drivers/CMSIS/DSP/Source/TransformFunctions/arm_cfft_f32.c ****     // col 1 - Top
 500:../../libDaisy//Drivers/CMSIS/DSP/Source/TransformFunctions/arm_cfft_f32.c ****     *p1++ = p1ap3_0 + p2[0] + p4[0];
 1126              		.loc 1 500 21 view .LVU522
 1127 038c 77EE062A 		vadd.f32	s5, s14, s12
 487:../../libDaisy//Drivers/CMSIS/DSP/Source/TransformFunctions/arm_cfft_f32.c ****     p1sp3_1 = p1[1] - p3[1];
 1128              		.loc 1 487 17 view .LVU523
 1129 0390 96ED015A 		vldr.32	s10, [r6, #4]
 491:../../libDaisy//Drivers/CMSIS/DSP/Source/TransformFunctions/arm_cfft_f32.c ****     t2[1] = p1sp3_1 - p2[0] + p4[0];
 1130              		.loc 1 491 33 view .LVU524
 1131 0394 93ED013A 		vldr.32	s6, [r3, #4]
 494:../../libDaisy//Drivers/CMSIS/DSP/Source/TransformFunctions/arm_cfft_f32.c ****     t3[1] = p1ap3_1 - p2[1] - p4[1];
 1132              		.loc 1 494 21 view .LVU525
 1133 0398 36EE476A 		vsub.f32	s12, s12, s14
 1134              	.LVL138:
 487:../../libDaisy//Drivers/CMSIS/DSP/Source/TransformFunctions/arm_cfft_f32.c ****     p1sp3_1 = p1[1] - p3[1];
 1135              		.loc 1 487 13 view .LVU526
 1136 039c 75EE245A 		vadd.f32	s11, s10, s9
 1137              	.LVL139:
 488:../../libDaisy//Drivers/CMSIS/DSP/Source/TransformFunctions/arm_cfft_f32.c **** 
 1138              		.loc 1 488 5 is_stmt 1 view .LVU527
 491:../../libDaisy//Drivers/CMSIS/DSP/Source/TransformFunctions/arm_cfft_f32.c ****     t2[1] = p1sp3_1 - p2[0] + p4[0];
 1139              		.loc 1 491 25 is_stmt 0 view .LVU528
 1140 03a0 D5ED016A 		vldr.32	s13, [r5, #4]
 488:../../libDaisy//Drivers/CMSIS/DSP/Source/TransformFunctions/arm_cfft_f32.c **** 
 1141              		.loc 1 488 13 view .LVU529
 1142 03a4 35EE645A 		vsub.f32	s10, s10, s9
 1143              	.LVL140:
ARM GAS  /var/folders/hl/qgbwny5j0fd895c2c41bk3tw0000gp/T//ccphgPNq.s 			page 36


 491:../../libDaisy//Drivers/CMSIS/DSP/Source/TransformFunctions/arm_cfft_f32.c ****     t2[1] = p1sp3_1 - p2[0] + p4[0];
 1144              		.loc 1 491 5 is_stmt 1 view .LVU530
 501:../../libDaisy//Drivers/CMSIS/DSP/Source/TransformFunctions/arm_cfft_f32.c ****     *p1++ = p1ap3_1 + p2[1] + p4[1];
 502:../../libDaisy//Drivers/CMSIS/DSP/Source/TransformFunctions/arm_cfft_f32.c **** 
 503:../../libDaisy//Drivers/CMSIS/DSP/Source/TransformFunctions/arm_cfft_f32.c ****     // COL 2
 504:../../libDaisy//Drivers/CMSIS/DSP/Source/TransformFunctions/arm_cfft_f32.c ****     twR = tw2[0];
 505:../../libDaisy//Drivers/CMSIS/DSP/Source/TransformFunctions/arm_cfft_f32.c ****     twI = tw2[1];
 506:../../libDaisy//Drivers/CMSIS/DSP/Source/TransformFunctions/arm_cfft_f32.c **** 
 507:../../libDaisy//Drivers/CMSIS/DSP/Source/TransformFunctions/arm_cfft_f32.c ****     m0 = t2[0] * twR;
 508:../../libDaisy//Drivers/CMSIS/DSP/Source/TransformFunctions/arm_cfft_f32.c ****     m1 = t2[1] * twI;
 509:../../libDaisy//Drivers/CMSIS/DSP/Source/TransformFunctions/arm_cfft_f32.c ****     m2 = t2[1] * twR;
 510:../../libDaisy//Drivers/CMSIS/DSP/Source/TransformFunctions/arm_cfft_f32.c ****     m3 = t2[0] * twI;
 511:../../libDaisy//Drivers/CMSIS/DSP/Source/TransformFunctions/arm_cfft_f32.c **** 
 512:../../libDaisy//Drivers/CMSIS/DSP/Source/TransformFunctions/arm_cfft_f32.c ****     *p2++ = m0 + m1;
 513:../../libDaisy//Drivers/CMSIS/DSP/Source/TransformFunctions/arm_cfft_f32.c ****     *p2++ = m2 - m3;
 514:../../libDaisy//Drivers/CMSIS/DSP/Source/TransformFunctions/arm_cfft_f32.c ****     // COL 3
 515:../../libDaisy//Drivers/CMSIS/DSP/Source/TransformFunctions/arm_cfft_f32.c ****     twR = tw3[0];
 516:../../libDaisy//Drivers/CMSIS/DSP/Source/TransformFunctions/arm_cfft_f32.c ****     twI = tw3[1];
 517:../../libDaisy//Drivers/CMSIS/DSP/Source/TransformFunctions/arm_cfft_f32.c **** 
 518:../../libDaisy//Drivers/CMSIS/DSP/Source/TransformFunctions/arm_cfft_f32.c ****     m0 = t3[0] * twR;
 519:../../libDaisy//Drivers/CMSIS/DSP/Source/TransformFunctions/arm_cfft_f32.c ****     m1 = t3[1] * twI;
 520:../../libDaisy//Drivers/CMSIS/DSP/Source/TransformFunctions/arm_cfft_f32.c ****     m2 = t3[1] * twR;
 521:../../libDaisy//Drivers/CMSIS/DSP/Source/TransformFunctions/arm_cfft_f32.c ****     m3 = t3[0] * twI;
 522:../../libDaisy//Drivers/CMSIS/DSP/Source/TransformFunctions/arm_cfft_f32.c **** 
 523:../../libDaisy//Drivers/CMSIS/DSP/Source/TransformFunctions/arm_cfft_f32.c ****     *p3++ = m0 + m1;
 524:../../libDaisy//Drivers/CMSIS/DSP/Source/TransformFunctions/arm_cfft_f32.c ****     *p3++ = m2 - m3;
 525:../../libDaisy//Drivers/CMSIS/DSP/Source/TransformFunctions/arm_cfft_f32.c ****     // COL 4
 526:../../libDaisy//Drivers/CMSIS/DSP/Source/TransformFunctions/arm_cfft_f32.c ****     twR = tw4[0];
 527:../../libDaisy//Drivers/CMSIS/DSP/Source/TransformFunctions/arm_cfft_f32.c ****     twI = tw4[1];
 528:../../libDaisy//Drivers/CMSIS/DSP/Source/TransformFunctions/arm_cfft_f32.c **** 
 529:../../libDaisy//Drivers/CMSIS/DSP/Source/TransformFunctions/arm_cfft_f32.c ****     m0 = t4[0] * twR;
 530:../../libDaisy//Drivers/CMSIS/DSP/Source/TransformFunctions/arm_cfft_f32.c ****     m1 = t4[1] * twI;
 531:../../libDaisy//Drivers/CMSIS/DSP/Source/TransformFunctions/arm_cfft_f32.c ****     m2 = t4[1] * twR;
 532:../../libDaisy//Drivers/CMSIS/DSP/Source/TransformFunctions/arm_cfft_f32.c ****     m3 = t4[0] * twI;
 533:../../libDaisy//Drivers/CMSIS/DSP/Source/TransformFunctions/arm_cfft_f32.c **** 
 534:../../libDaisy//Drivers/CMSIS/DSP/Source/TransformFunctions/arm_cfft_f32.c ****     *p4++ = m0 + m1;
 535:../../libDaisy//Drivers/CMSIS/DSP/Source/TransformFunctions/arm_cfft_f32.c ****     *p4++ = m2 - m3;
 536:../../libDaisy//Drivers/CMSIS/DSP/Source/TransformFunctions/arm_cfft_f32.c **** 
 537:../../libDaisy//Drivers/CMSIS/DSP/Source/TransformFunctions/arm_cfft_f32.c ****     // first col
 538:../../libDaisy//Drivers/CMSIS/DSP/Source/TransformFunctions/arm_cfft_f32.c ****     arm_radix8_butterfly_f32( pCol1, L, (float32_t *) S->pTwiddle, 4u);
 1145              		.loc 1 538 5 is_stmt 0 view .LVU531
 1146 03a8 BDF81810 		ldrh	r1, [sp, #24]
 500:../../libDaisy//Drivers/CMSIS/DSP/Source/TransformFunctions/arm_cfft_f32.c ****     *p1++ = p1ap3_1 + p2[1] + p4[1];
 1147              		.loc 1 500 29 view .LVU532
 1148 03ac 72EEA32A 		vadd.f32	s5, s5, s7
 1149              		.loc 1 538 5 view .LVU533
 1150 03b0 0A9A     		ldr	r2, [sp, #40]
 491:../../libDaisy//Drivers/CMSIS/DSP/Source/TransformFunctions/arm_cfft_f32.c ****     t2[1] = p1sp3_1 - p2[0] + p4[0];
 1151              		.loc 1 491 21 view .LVU534
 1152 03b2 36EEA74A 		vadd.f32	s8, s13, s15
 1153              		.loc 1 538 5 view .LVU535
 1154 03b6 0C98     		ldr	r0, [sp, #48]
 492:../../libDaisy//Drivers/CMSIS/DSP/Source/TransformFunctions/arm_cfft_f32.c ****     // col 3
 1155              		.loc 1 492 21 view .LVU536
 1156 03b8 75EE474A 		vsub.f32	s9, s10, s14
 500:../../libDaisy//Drivers/CMSIS/DSP/Source/TransformFunctions/arm_cfft_f32.c ****     *p1++ = p1ap3_1 + p2[1] + p4[1];
 1157              		.loc 1 500 11 view .LVU537
ARM GAS  /var/folders/hl/qgbwny5j0fd895c2c41bk3tw0000gp/T//ccphgPNq.s 			page 37


 1158 03bc C6ED002A 		vstr.32	s5, [r6]
 1159              	.LVL141:
 497:../../libDaisy//Drivers/CMSIS/DSP/Source/TransformFunctions/arm_cfft_f32.c ****     t4[1] = p1sp3_1 + p2[0] - p4[0];
 1160              		.loc 1 497 21 view .LVU538
 1161 03c0 77EEE67A 		vsub.f32	s15, s15, s13
 1162              	.LVL142:
 501:../../libDaisy//Drivers/CMSIS/DSP/Source/TransformFunctions/arm_cfft_f32.c **** 
 1163              		.loc 1 501 21 view .LVU539
 1164 03c4 D5ED012A 		vldr.32	s5, [r5, #4]
 495:../../libDaisy//Drivers/CMSIS/DSP/Source/TransformFunctions/arm_cfft_f32.c ****     // col 4
 1165              		.loc 1 495 21 view .LVU540
 1166 03c8 75EEE66A 		vsub.f32	s13, s11, s13
 498:../../libDaisy//Drivers/CMSIS/DSP/Source/TransformFunctions/arm_cfft_f32.c ****     // col 1 - Top
 1167              		.loc 1 498 21 view .LVU541
 1168 03cc 37EE057A 		vadd.f32	s14, s14, s10
 501:../../libDaisy//Drivers/CMSIS/DSP/Source/TransformFunctions/arm_cfft_f32.c **** 
 1169              		.loc 1 501 21 view .LVU542
 1170 03d0 75EEA25A 		vadd.f32	s11, s11, s5
 1171              	.LVL143:
 492:../../libDaisy//Drivers/CMSIS/DSP/Source/TransformFunctions/arm_cfft_f32.c ****     // col 3
 1172              		.loc 1 492 29 view .LVU543
 1173 03d4 34EEA35A 		vadd.f32	s10, s9, s7
 1174              	.LVL144:
 501:../../libDaisy//Drivers/CMSIS/DSP/Source/TransformFunctions/arm_cfft_f32.c **** 
 1175              		.loc 1 501 29 view .LVU544
 1176 03d8 D3ED014A 		vldr.32	s9, [r3, #4]
 491:../../libDaisy//Drivers/CMSIS/DSP/Source/TransformFunctions/arm_cfft_f32.c ****     t2[1] = p1sp3_1 - p2[0] + p4[0];
 1177              		.loc 1 491 29 view .LVU545
 1178 03dc 34EE434A 		vsub.f32	s8, s8, s6
 1179              	.LVL145:
 492:../../libDaisy//Drivers/CMSIS/DSP/Source/TransformFunctions/arm_cfft_f32.c ****     // col 3
 1180              		.loc 1 492 5 is_stmt 1 view .LVU546
 494:../../libDaisy//Drivers/CMSIS/DSP/Source/TransformFunctions/arm_cfft_f32.c ****     t3[1] = p1ap3_1 - p2[1] - p4[1];
 1181              		.loc 1 494 5 view .LVU547
 501:../../libDaisy//Drivers/CMSIS/DSP/Source/TransformFunctions/arm_cfft_f32.c **** 
 1182              		.loc 1 501 29 is_stmt 0 view .LVU548
 1183 03e0 75EEA45A 		vadd.f32	s11, s11, s9
 498:../../libDaisy//Drivers/CMSIS/DSP/Source/TransformFunctions/arm_cfft_f32.c ****     // col 1 - Top
 1184              		.loc 1 498 29 view .LVU549
 1185 03e4 37EE637A 		vsub.f32	s14, s14, s7
 494:../../libDaisy//Drivers/CMSIS/DSP/Source/TransformFunctions/arm_cfft_f32.c ****     t3[1] = p1ap3_1 - p2[1] - p4[1];
 1186              		.loc 1 494 29 view .LVU550
 1187 03e8 36EE636A 		vsub.f32	s12, s12, s7
 1188              	.LVL146:
 495:../../libDaisy//Drivers/CMSIS/DSP/Source/TransformFunctions/arm_cfft_f32.c ****     // col 4
 1189              		.loc 1 495 5 is_stmt 1 view .LVU551
 501:../../libDaisy//Drivers/CMSIS/DSP/Source/TransformFunctions/arm_cfft_f32.c **** 
 1190              		.loc 1 501 11 is_stmt 0 view .LVU552
 1191 03ec C6ED015A 		vstr.32	s11, [r6, #4]
 495:../../libDaisy//Drivers/CMSIS/DSP/Source/TransformFunctions/arm_cfft_f32.c ****     // col 4
 1192              		.loc 1 495 29 view .LVU553
 1193 03f0 76EEC36A 		vsub.f32	s13, s13, s6
 1194              	.LVL147:
 497:../../libDaisy//Drivers/CMSIS/DSP/Source/TransformFunctions/arm_cfft_f32.c ****     t4[1] = p1sp3_1 + p2[0] - p4[0];
 1195              		.loc 1 497 5 is_stmt 1 view .LVU554
 505:../../libDaisy//Drivers/CMSIS/DSP/Source/TransformFunctions/arm_cfft_f32.c **** 
 1196              		.loc 1 505 9 is_stmt 0 view .LVU555
ARM GAS  /var/folders/hl/qgbwny5j0fd895c2c41bk3tw0000gp/T//ccphgPNq.s 			page 38


 1197 03f4 029E     		ldr	r6, [sp, #8]
 497:../../libDaisy//Drivers/CMSIS/DSP/Source/TransformFunctions/arm_cfft_f32.c ****     t4[1] = p1sp3_1 + p2[0] - p4[0];
 1198              		.loc 1 497 29 view .LVU556
 1199 03f6 77EE837A 		vadd.f32	s15, s15, s6
 1200              	.LVL148:
 498:../../libDaisy//Drivers/CMSIS/DSP/Source/TransformFunctions/arm_cfft_f32.c ****     // col 1 - Top
 1201              		.loc 1 498 5 is_stmt 1 view .LVU557
 500:../../libDaisy//Drivers/CMSIS/DSP/Source/TransformFunctions/arm_cfft_f32.c ****     *p1++ = p1ap3_1 + p2[1] + p4[1];
 1202              		.loc 1 500 5 view .LVU558
 501:../../libDaisy//Drivers/CMSIS/DSP/Source/TransformFunctions/arm_cfft_f32.c **** 
 1203              		.loc 1 501 5 view .LVU559
 504:../../libDaisy//Drivers/CMSIS/DSP/Source/TransformFunctions/arm_cfft_f32.c ****     twI = tw2[1];
 1204              		.loc 1 504 5 view .LVU560
 505:../../libDaisy//Drivers/CMSIS/DSP/Source/TransformFunctions/arm_cfft_f32.c **** 
 1205              		.loc 1 505 9 is_stmt 0 view .LVU561
 1206 03fa D6ED015A 		vldr.32	s11, [r6, #4]
 504:../../libDaisy//Drivers/CMSIS/DSP/Source/TransformFunctions/arm_cfft_f32.c ****     twI = tw2[1];
 1207              		.loc 1 504 9 view .LVU562
 1208 03fe D6ED003A 		vldr.32	s7, [r6]
 1209              	.LVL149:
 505:../../libDaisy//Drivers/CMSIS/DSP/Source/TransformFunctions/arm_cfft_f32.c **** 
 1210              		.loc 1 505 5 is_stmt 1 view .LVU563
 507:../../libDaisy//Drivers/CMSIS/DSP/Source/TransformFunctions/arm_cfft_f32.c ****     m1 = t2[1] * twI;
 1211              		.loc 1 507 5 view .LVU564
 508:../../libDaisy//Drivers/CMSIS/DSP/Source/TransformFunctions/arm_cfft_f32.c ****     m2 = t2[1] * twR;
 1212              		.loc 1 508 5 view .LVU565
 509:../../libDaisy//Drivers/CMSIS/DSP/Source/TransformFunctions/arm_cfft_f32.c ****     m3 = t2[0] * twI;
 1213              		.loc 1 509 5 view .LVU566
 510:../../libDaisy//Drivers/CMSIS/DSP/Source/TransformFunctions/arm_cfft_f32.c **** 
 1214              		.loc 1 510 5 view .LVU567
 512:../../libDaisy//Drivers/CMSIS/DSP/Source/TransformFunctions/arm_cfft_f32.c ****     *p2++ = m2 - m3;
 1215              		.loc 1 512 5 view .LVU568
 508:../../libDaisy//Drivers/CMSIS/DSP/Source/TransformFunctions/arm_cfft_f32.c ****     m2 = t2[1] * twR;
 1216              		.loc 1 508 8 is_stmt 0 view .LVU569
 1217 0402 65EE254A 		vmul.f32	s9, s10, s11
 1218              	.LVL150:
 513:../../libDaisy//Drivers/CMSIS/DSP/Source/TransformFunctions/arm_cfft_f32.c ****     // COL 3
 1219              		.loc 1 513 16 view .LVU570
 1220 0406 65EEC45A 		vnmul.f32	s11, s11, s8
 1221              	.LVL151:
 512:../../libDaisy//Drivers/CMSIS/DSP/Source/TransformFunctions/arm_cfft_f32.c ****     *p2++ = m2 - m3;
 1222              		.loc 1 512 16 view .LVU571
 1223 040a E4EE234A 		vfma.f32	s9, s8, s7
 1224              	.LVL152:
 513:../../libDaisy//Drivers/CMSIS/DSP/Source/TransformFunctions/arm_cfft_f32.c ****     // COL 3
 1225              		.loc 1 513 16 view .LVU572
 1226 040e E5EE235A 		vfma.f32	s11, s10, s7
 512:../../libDaisy//Drivers/CMSIS/DSP/Source/TransformFunctions/arm_cfft_f32.c ****     *p2++ = m2 - m3;
 1227              		.loc 1 512 11 view .LVU573
 1228 0412 C5ED004A 		vstr.32	s9, [r5]
 1229              	.LVL153:
 513:../../libDaisy//Drivers/CMSIS/DSP/Source/TransformFunctions/arm_cfft_f32.c ****     // COL 3
 1230              		.loc 1 513 5 is_stmt 1 view .LVU574
 513:../../libDaisy//Drivers/CMSIS/DSP/Source/TransformFunctions/arm_cfft_f32.c ****     // COL 3
 1231              		.loc 1 513 11 is_stmt 0 view .LVU575
 1232 0416 C5ED015A 		vstr.32	s11, [r5, #4]
 515:../../libDaisy//Drivers/CMSIS/DSP/Source/TransformFunctions/arm_cfft_f32.c ****     twI = tw3[1];
ARM GAS  /var/folders/hl/qgbwny5j0fd895c2c41bk3tw0000gp/T//ccphgPNq.s 			page 39


 1233              		.loc 1 515 5 is_stmt 1 view .LVU576
 516:../../libDaisy//Drivers/CMSIS/DSP/Source/TransformFunctions/arm_cfft_f32.c **** 
 1234              		.loc 1 516 9 is_stmt 0 view .LVU577
 1235 041a 009D     		ldr	r5, [sp]
 1236              	.LVL154:
 516:../../libDaisy//Drivers/CMSIS/DSP/Source/TransformFunctions/arm_cfft_f32.c **** 
 1237              		.loc 1 516 9 view .LVU578
 1238 041c D5ED015A 		vldr.32	s11, [r5, #4]
 515:../../libDaisy//Drivers/CMSIS/DSP/Source/TransformFunctions/arm_cfft_f32.c ****     twI = tw3[1];
 1239              		.loc 1 515 9 view .LVU579
 1240 0420 D5ED004A 		vldr.32	s9, [r5]
 1241              	.LVL155:
 516:../../libDaisy//Drivers/CMSIS/DSP/Source/TransformFunctions/arm_cfft_f32.c **** 
 1242              		.loc 1 516 5 is_stmt 1 view .LVU580
 518:../../libDaisy//Drivers/CMSIS/DSP/Source/TransformFunctions/arm_cfft_f32.c ****     m1 = t3[1] * twI;
 1243              		.loc 1 518 5 view .LVU581
 519:../../libDaisy//Drivers/CMSIS/DSP/Source/TransformFunctions/arm_cfft_f32.c ****     m2 = t3[1] * twR;
 1244              		.loc 1 519 5 view .LVU582
 520:../../libDaisy//Drivers/CMSIS/DSP/Source/TransformFunctions/arm_cfft_f32.c ****     m3 = t3[0] * twI;
 1245              		.loc 1 520 5 view .LVU583
 521:../../libDaisy//Drivers/CMSIS/DSP/Source/TransformFunctions/arm_cfft_f32.c **** 
 1246              		.loc 1 521 5 view .LVU584
 523:../../libDaisy//Drivers/CMSIS/DSP/Source/TransformFunctions/arm_cfft_f32.c ****     *p3++ = m2 - m3;
 1247              		.loc 1 523 5 view .LVU585
 519:../../libDaisy//Drivers/CMSIS/DSP/Source/TransformFunctions/arm_cfft_f32.c ****     m2 = t3[1] * twR;
 1248              		.loc 1 519 8 is_stmt 0 view .LVU586
 1249 0424 26EEA55A 		vmul.f32	s10, s13, s11
 1250              	.LVL156:
 527:../../libDaisy//Drivers/CMSIS/DSP/Source/TransformFunctions/arm_cfft_f32.c **** 
 1251              		.loc 1 527 9 view .LVU587
 1252 0428 019D     		ldr	r5, [sp, #4]
 524:../../libDaisy//Drivers/CMSIS/DSP/Source/TransformFunctions/arm_cfft_f32.c ****     // COL 4
 1253              		.loc 1 524 16 view .LVU588
 1254 042a 65EEC65A 		vnmul.f32	s11, s11, s12
 1255              	.LVL157:
 523:../../libDaisy//Drivers/CMSIS/DSP/Source/TransformFunctions/arm_cfft_f32.c ****     *p3++ = m2 - m3;
 1256              		.loc 1 523 16 view .LVU589
 1257 042e A6EE245A 		vfma.f32	s10, s12, s9
 1258              	.LVL158:
 524:../../libDaisy//Drivers/CMSIS/DSP/Source/TransformFunctions/arm_cfft_f32.c ****     // COL 4
 1259              		.loc 1 524 16 view .LVU590
 1260 0432 E6EEA45A 		vfma.f32	s11, s13, s9
 523:../../libDaisy//Drivers/CMSIS/DSP/Source/TransformFunctions/arm_cfft_f32.c ****     *p3++ = m2 - m3;
 1261              		.loc 1 523 11 view .LVU591
 1262 0436 87ED005A 		vstr.32	s10, [r7]
 1263              	.LVL159:
 524:../../libDaisy//Drivers/CMSIS/DSP/Source/TransformFunctions/arm_cfft_f32.c ****     // COL 4
 1264              		.loc 1 524 5 is_stmt 1 view .LVU592
 524:../../libDaisy//Drivers/CMSIS/DSP/Source/TransformFunctions/arm_cfft_f32.c ****     // COL 4
 1265              		.loc 1 524 11 is_stmt 0 view .LVU593
 1266 043a C7ED015A 		vstr.32	s11, [r7, #4]
 526:../../libDaisy//Drivers/CMSIS/DSP/Source/TransformFunctions/arm_cfft_f32.c ****     twI = tw4[1];
 1267              		.loc 1 526 5 is_stmt 1 view .LVU594
 527:../../libDaisy//Drivers/CMSIS/DSP/Source/TransformFunctions/arm_cfft_f32.c **** 
 1268              		.loc 1 527 9 is_stmt 0 view .LVU595
 1269 043e D5ED016A 		vldr.32	s13, [r5, #4]
 1270              	.LVL160:
ARM GAS  /var/folders/hl/qgbwny5j0fd895c2c41bk3tw0000gp/T//ccphgPNq.s 			page 40


 526:../../libDaisy//Drivers/CMSIS/DSP/Source/TransformFunctions/arm_cfft_f32.c ****     twI = tw4[1];
 1271              		.loc 1 526 9 view .LVU596
 1272 0442 D5ED005A 		vldr.32	s11, [r5]
 1273              	.LVL161:
 527:../../libDaisy//Drivers/CMSIS/DSP/Source/TransformFunctions/arm_cfft_f32.c **** 
 1274              		.loc 1 527 5 is_stmt 1 view .LVU597
 529:../../libDaisy//Drivers/CMSIS/DSP/Source/TransformFunctions/arm_cfft_f32.c ****     m1 = t4[1] * twI;
 1275              		.loc 1 529 5 view .LVU598
 530:../../libDaisy//Drivers/CMSIS/DSP/Source/TransformFunctions/arm_cfft_f32.c ****     m2 = t4[1] * twR;
 1276              		.loc 1 530 5 view .LVU599
 531:../../libDaisy//Drivers/CMSIS/DSP/Source/TransformFunctions/arm_cfft_f32.c ****     m3 = t4[0] * twI;
 1277              		.loc 1 531 5 view .LVU600
 532:../../libDaisy//Drivers/CMSIS/DSP/Source/TransformFunctions/arm_cfft_f32.c **** 
 1278              		.loc 1 532 5 view .LVU601
 534:../../libDaisy//Drivers/CMSIS/DSP/Source/TransformFunctions/arm_cfft_f32.c ****     *p4++ = m2 - m3;
 1279              		.loc 1 534 5 view .LVU602
 530:../../libDaisy//Drivers/CMSIS/DSP/Source/TransformFunctions/arm_cfft_f32.c ****     m2 = t4[1] * twR;
 1280              		.loc 1 530 8 is_stmt 0 view .LVU603
 1281 0446 27EE266A 		vmul.f32	s12, s14, s13
 1282              	.LVL162:
 535:../../libDaisy//Drivers/CMSIS/DSP/Source/TransformFunctions/arm_cfft_f32.c **** 
 1283              		.loc 1 535 16 view .LVU604
 1284 044a 66EEE76A 		vnmul.f32	s13, s13, s15
 1285              	.LVL163:
 534:../../libDaisy//Drivers/CMSIS/DSP/Source/TransformFunctions/arm_cfft_f32.c ****     *p4++ = m2 - m3;
 1286              		.loc 1 534 16 view .LVU605
 1287 044e A7EEA56A 		vfma.f32	s12, s15, s11
 1288              	.LVL164:
 535:../../libDaisy//Drivers/CMSIS/DSP/Source/TransformFunctions/arm_cfft_f32.c **** 
 1289              		.loc 1 535 16 view .LVU606
 1290 0452 E7EE256A 		vfma.f32	s13, s14, s11
 534:../../libDaisy//Drivers/CMSIS/DSP/Source/TransformFunctions/arm_cfft_f32.c ****     *p4++ = m2 - m3;
 1291              		.loc 1 534 11 view .LVU607
 1292 0456 83ED006A 		vstr.32	s12, [r3]
 1293              	.LVL165:
 535:../../libDaisy//Drivers/CMSIS/DSP/Source/TransformFunctions/arm_cfft_f32.c **** 
 1294              		.loc 1 535 5 is_stmt 1 view .LVU608
 535:../../libDaisy//Drivers/CMSIS/DSP/Source/TransformFunctions/arm_cfft_f32.c **** 
 1295              		.loc 1 535 11 is_stmt 0 view .LVU609
 1296 045a C3ED016A 		vstr.32	s13, [r3, #4]
 1297              		.loc 1 538 5 is_stmt 1 view .LVU610
 1298 045e 0423     		movs	r3, #4
 1299              	.LVL166:
 1300              		.loc 1 538 5 is_stmt 0 view .LVU611
 1301 0460 0091     		str	r1, [sp]
 1302 0462 FFF7FEFF 		bl	arm_radix8_butterfly_f32
 1303              	.LVL167:
 539:../../libDaisy//Drivers/CMSIS/DSP/Source/TransformFunctions/arm_cfft_f32.c ****     // second col
 540:../../libDaisy//Drivers/CMSIS/DSP/Source/TransformFunctions/arm_cfft_f32.c ****     arm_radix8_butterfly_f32( pCol2, L, (float32_t *) S->pTwiddle, 4u);
 1304              		.loc 1 540 5 is_stmt 1 view .LVU612
 1305 0466 0B9D     		ldr	r5, [sp, #44]
 1306 0468 0423     		movs	r3, #4
 1307 046a 0898     		ldr	r0, [sp, #32]
 1308 046c 6A68     		ldr	r2, [r5, #4]
 1309 046e 0099     		ldr	r1, [sp]
 1310 0470 FFF7FEFF 		bl	arm_radix8_butterfly_f32
 1311              	.LVL168:
ARM GAS  /var/folders/hl/qgbwny5j0fd895c2c41bk3tw0000gp/T//ccphgPNq.s 			page 41


 541:../../libDaisy//Drivers/CMSIS/DSP/Source/TransformFunctions/arm_cfft_f32.c ****     // third col
 542:../../libDaisy//Drivers/CMSIS/DSP/Source/TransformFunctions/arm_cfft_f32.c ****     arm_radix8_butterfly_f32( pCol3, L, (float32_t *) S->pTwiddle, 4u);
 1312              		.loc 1 542 5 view .LVU613
 1313 0474 0998     		ldr	r0, [sp, #36]
 1314 0476 6A68     		ldr	r2, [r5, #4]
 1315 0478 0423     		movs	r3, #4
 1316 047a 0099     		ldr	r1, [sp]
 1317 047c FFF7FEFF 		bl	arm_radix8_butterfly_f32
 1318              	.LVL169:
 543:../../libDaisy//Drivers/CMSIS/DSP/Source/TransformFunctions/arm_cfft_f32.c ****     // fourth col
 544:../../libDaisy//Drivers/CMSIS/DSP/Source/TransformFunctions/arm_cfft_f32.c ****     arm_radix8_butterfly_f32( pCol4, L, (float32_t *) S->pTwiddle, 4u);
 1319              		.loc 1 544 5 view .LVU614
 1320 0480 0423     		movs	r3, #4
 1321 0482 6A68     		ldr	r2, [r5, #4]
 1322 0484 2046     		mov	r0, r4
 1323 0486 0099     		ldr	r1, [sp]
 545:../../libDaisy//Drivers/CMSIS/DSP/Source/TransformFunctions/arm_cfft_f32.c **** }
 1324              		.loc 1 545 1 is_stmt 0 view .LVU615
 1325 0488 0FB0     		add	sp, sp, #60
 1326              		.cfi_def_cfa_offset 44
 1327              		@ sp needed
 1328 048a BDEC028B 		vldm	sp!, {d8}
 1329              		.cfi_restore 80
 1330              		.cfi_restore 81
 1331              		.cfi_def_cfa_offset 36
 1332 048e BDE8F04F 		pop	{r4, r5, r6, r7, r8, r9, r10, fp, lr}
 1333              		.cfi_restore 14
 1334              		.cfi_restore 11
 1335              		.cfi_restore 10
 1336              		.cfi_restore 9
 1337              		.cfi_restore 8
 1338              		.cfi_restore 7
 1339              		.cfi_restore 6
 1340              		.cfi_restore 5
 1341              		.cfi_restore 4
 1342              		.cfi_def_cfa_offset 0
 1343              	.LVL170:
 544:../../libDaisy//Drivers/CMSIS/DSP/Source/TransformFunctions/arm_cfft_f32.c **** }
 1344              		.loc 1 544 5 view .LVU616
 1345 0492 FFF7FEBF 		b	arm_radix8_butterfly_f32
 1346              	.LVL171:
 544:../../libDaisy//Drivers/CMSIS/DSP/Source/TransformFunctions/arm_cfft_f32.c **** }
 1347              		.loc 1 544 5 view .LVU617
 1348              		.cfi_endproc
 1349              	.LFE354:
 1351 0496 00BF     		.section	.text.arm_cfft_f32,"ax",%progbits
 1352              		.align	1
 1353              		.p2align 2,,3
 1354              		.global	arm_cfft_f32
 1355              		.syntax unified
 1356              		.thumb
 1357              		.thumb_func
 1358              		.fpu fpv5-d16
 1360              	arm_cfft_f32:
 1361              	.LVL172:
 1362              	.LFB355:
 546:../../libDaisy//Drivers/CMSIS/DSP/Source/TransformFunctions/arm_cfft_f32.c **** 
ARM GAS  /var/folders/hl/qgbwny5j0fd895c2c41bk3tw0000gp/T//ccphgPNq.s 			page 42


 547:../../libDaisy//Drivers/CMSIS/DSP/Source/TransformFunctions/arm_cfft_f32.c **** /**
 548:../../libDaisy//Drivers/CMSIS/DSP/Source/TransformFunctions/arm_cfft_f32.c **** * @addtogroup ComplexFFT
 549:../../libDaisy//Drivers/CMSIS/DSP/Source/TransformFunctions/arm_cfft_f32.c **** * @{
 550:../../libDaisy//Drivers/CMSIS/DSP/Source/TransformFunctions/arm_cfft_f32.c **** */
 551:../../libDaisy//Drivers/CMSIS/DSP/Source/TransformFunctions/arm_cfft_f32.c **** 
 552:../../libDaisy//Drivers/CMSIS/DSP/Source/TransformFunctions/arm_cfft_f32.c **** /**
 553:../../libDaisy//Drivers/CMSIS/DSP/Source/TransformFunctions/arm_cfft_f32.c **** * @details
 554:../../libDaisy//Drivers/CMSIS/DSP/Source/TransformFunctions/arm_cfft_f32.c **** * @brief       Processing function for the floating-point complex FFT.
 555:../../libDaisy//Drivers/CMSIS/DSP/Source/TransformFunctions/arm_cfft_f32.c **** * @param[in]      *S    points to an instance of the floating-point CFFT structure.
 556:../../libDaisy//Drivers/CMSIS/DSP/Source/TransformFunctions/arm_cfft_f32.c **** * @param[in, out] *p1   points to the complex data buffer of size <code>2*fftLen</code>. Processing
 557:../../libDaisy//Drivers/CMSIS/DSP/Source/TransformFunctions/arm_cfft_f32.c **** * @param[in]     ifftFlag       flag that selects forward (ifftFlag=0) or inverse (ifftFlag=1) tran
 558:../../libDaisy//Drivers/CMSIS/DSP/Source/TransformFunctions/arm_cfft_f32.c **** * @param[in]     bitReverseFlag flag that enables (bitReverseFlag=1) or disables (bitReverseFlag=0)
 559:../../libDaisy//Drivers/CMSIS/DSP/Source/TransformFunctions/arm_cfft_f32.c **** * @return none.
 560:../../libDaisy//Drivers/CMSIS/DSP/Source/TransformFunctions/arm_cfft_f32.c **** */
 561:../../libDaisy//Drivers/CMSIS/DSP/Source/TransformFunctions/arm_cfft_f32.c **** 
 562:../../libDaisy//Drivers/CMSIS/DSP/Source/TransformFunctions/arm_cfft_f32.c **** void arm_cfft_f32(
 563:../../libDaisy//Drivers/CMSIS/DSP/Source/TransformFunctions/arm_cfft_f32.c ****     const arm_cfft_instance_f32 * S,
 564:../../libDaisy//Drivers/CMSIS/DSP/Source/TransformFunctions/arm_cfft_f32.c ****     float32_t * p1,
 565:../../libDaisy//Drivers/CMSIS/DSP/Source/TransformFunctions/arm_cfft_f32.c ****     uint8_t ifftFlag,
 566:../../libDaisy//Drivers/CMSIS/DSP/Source/TransformFunctions/arm_cfft_f32.c ****     uint8_t bitReverseFlag)
 567:../../libDaisy//Drivers/CMSIS/DSP/Source/TransformFunctions/arm_cfft_f32.c **** {
 1363              		.loc 1 567 1 is_stmt 1 view -0
 1364              		.cfi_startproc
 1365              		@ args = 0, pretend = 0, frame = 0
 1366              		@ frame_needed = 0, uses_anonymous_args = 0
 568:../../libDaisy//Drivers/CMSIS/DSP/Source/TransformFunctions/arm_cfft_f32.c ****     uint32_t  L = S->fftLen, l;
 1367              		.loc 1 568 5 view .LVU619
 569:../../libDaisy//Drivers/CMSIS/DSP/Source/TransformFunctions/arm_cfft_f32.c ****     float32_t invL, * pSrc;
 570:../../libDaisy//Drivers/CMSIS/DSP/Source/TransformFunctions/arm_cfft_f32.c **** 
 571:../../libDaisy//Drivers/CMSIS/DSP/Source/TransformFunctions/arm_cfft_f32.c ****     if (ifftFlag == 1u)
 1368              		.loc 1 571 8 is_stmt 0 view .LVU620
 1369 0000 012A     		cmp	r2, #1
 567:../../libDaisy//Drivers/CMSIS/DSP/Source/TransformFunctions/arm_cfft_f32.c ****     uint32_t  L = S->fftLen, l;
 1370              		.loc 1 567 1 view .LVU621
 1371 0002 2DE9F041 		push	{r4, r5, r6, r7, r8, lr}
 1372              		.cfi_def_cfa_offset 24
 1373              		.cfi_offset 4, -24
 1374              		.cfi_offset 5, -20
 1375              		.cfi_offset 6, -16
 1376              		.cfi_offset 7, -12
 1377              		.cfi_offset 8, -8
 1378              		.cfi_offset 14, -4
 567:../../libDaisy//Drivers/CMSIS/DSP/Source/TransformFunctions/arm_cfft_f32.c ****     uint32_t  L = S->fftLen, l;
 1379              		.loc 1 567 1 view .LVU622
 1380 0006 0646     		mov	r6, r0
 1381 0008 1746     		mov	r7, r2
 1382 000a 0C46     		mov	r4, r1
 1383 000c 9846     		mov	r8, r3
 568:../../libDaisy//Drivers/CMSIS/DSP/Source/TransformFunctions/arm_cfft_f32.c ****     uint32_t  L = S->fftLen, l;
 1384              		.loc 1 568 20 view .LVU623
 1385 000e 0588     		ldrh	r5, [r0]
 1386              	.LVL173:
 569:../../libDaisy//Drivers/CMSIS/DSP/Source/TransformFunctions/arm_cfft_f32.c ****     float32_t invL, * pSrc;
 1387              		.loc 1 569 5 is_stmt 1 view .LVU624
 1388              		.loc 1 571 5 view .LVU625
 1389              		.loc 1 571 8 is_stmt 0 view .LVU626
 1390 0010 59D0     		beq	.L69
ARM GAS  /var/folders/hl/qgbwny5j0fd895c2c41bk3tw0000gp/T//ccphgPNq.s 			page 43


 1391              	.LVL174:
 1392              	.L19:
 572:../../libDaisy//Drivers/CMSIS/DSP/Source/TransformFunctions/arm_cfft_f32.c ****     {
 573:../../libDaisy//Drivers/CMSIS/DSP/Source/TransformFunctions/arm_cfft_f32.c ****         /*  Conjugate input data  */
 574:../../libDaisy//Drivers/CMSIS/DSP/Source/TransformFunctions/arm_cfft_f32.c ****         pSrc = p1 + 1;
 575:../../libDaisy//Drivers/CMSIS/DSP/Source/TransformFunctions/arm_cfft_f32.c ****         for(l=0; l<L; l++)
 576:../../libDaisy//Drivers/CMSIS/DSP/Source/TransformFunctions/arm_cfft_f32.c ****         {
 577:../../libDaisy//Drivers/CMSIS/DSP/Source/TransformFunctions/arm_cfft_f32.c ****             *pSrc = -*pSrc;
 578:../../libDaisy//Drivers/CMSIS/DSP/Source/TransformFunctions/arm_cfft_f32.c ****             pSrc += 2;
 579:../../libDaisy//Drivers/CMSIS/DSP/Source/TransformFunctions/arm_cfft_f32.c ****         }
 580:../../libDaisy//Drivers/CMSIS/DSP/Source/TransformFunctions/arm_cfft_f32.c ****     }
 581:../../libDaisy//Drivers/CMSIS/DSP/Source/TransformFunctions/arm_cfft_f32.c **** 
 582:../../libDaisy//Drivers/CMSIS/DSP/Source/TransformFunctions/arm_cfft_f32.c ****     switch (L)
 1393              		.loc 1 582 5 is_stmt 1 view .LVU627
 1394 0012 B5F5807F 		cmp	r5, #256
 1395 0016 51D0     		beq	.L22
 1396 0018 0FD8     		bhi	.L23
 1397 001a 402D     		cmp	r5, #64
 1398 001c 14D0     		beq	.L24
 1399 001e 49D9     		bls	.L70
 1400 0020 802D     		cmp	r5, #128
 1401 0022 03D1     		bne	.L27
 1402              	.L26:
 583:../../libDaisy//Drivers/CMSIS/DSP/Source/TransformFunctions/arm_cfft_f32.c ****     {
 584:../../libDaisy//Drivers/CMSIS/DSP/Source/TransformFunctions/arm_cfft_f32.c ****     case 16:
 585:../../libDaisy//Drivers/CMSIS/DSP/Source/TransformFunctions/arm_cfft_f32.c ****     case 128:
 586:../../libDaisy//Drivers/CMSIS/DSP/Source/TransformFunctions/arm_cfft_f32.c ****     case 1024:
 587:../../libDaisy//Drivers/CMSIS/DSP/Source/TransformFunctions/arm_cfft_f32.c ****         arm_cfft_radix8by2_f32  ( (arm_cfft_instance_f32 *) S, p1);
 1403              		.loc 1 587 9 view .LVU628
 1404 0024 2146     		mov	r1, r4
 1405 0026 3046     		mov	r0, r6
 1406              	.LVL175:
 1407              		.loc 1 587 9 is_stmt 0 view .LVU629
 1408 0028 FFF7FEFF 		bl	arm_cfft_radix8by2_f32
 1409              	.LVL176:
 588:../../libDaisy//Drivers/CMSIS/DSP/Source/TransformFunctions/arm_cfft_f32.c ****         break;
 1410              		.loc 1 588 9 is_stmt 1 view .LVU630
 1411              	.L27:
 589:../../libDaisy//Drivers/CMSIS/DSP/Source/TransformFunctions/arm_cfft_f32.c ****     case 32:
 590:../../libDaisy//Drivers/CMSIS/DSP/Source/TransformFunctions/arm_cfft_f32.c ****     case 256:
 591:../../libDaisy//Drivers/CMSIS/DSP/Source/TransformFunctions/arm_cfft_f32.c ****     case 2048:
 592:../../libDaisy//Drivers/CMSIS/DSP/Source/TransformFunctions/arm_cfft_f32.c ****         arm_cfft_radix8by4_f32  ( (arm_cfft_instance_f32 *) S, p1);
 593:../../libDaisy//Drivers/CMSIS/DSP/Source/TransformFunctions/arm_cfft_f32.c ****         break;
 594:../../libDaisy//Drivers/CMSIS/DSP/Source/TransformFunctions/arm_cfft_f32.c ****     case 64:
 595:../../libDaisy//Drivers/CMSIS/DSP/Source/TransformFunctions/arm_cfft_f32.c ****     case 512:
 596:../../libDaisy//Drivers/CMSIS/DSP/Source/TransformFunctions/arm_cfft_f32.c ****     case 4096:
 597:../../libDaisy//Drivers/CMSIS/DSP/Source/TransformFunctions/arm_cfft_f32.c ****         arm_radix8_butterfly_f32( p1, L, (float32_t *) S->pTwiddle, 1);
 598:../../libDaisy//Drivers/CMSIS/DSP/Source/TransformFunctions/arm_cfft_f32.c ****         break;
 599:../../libDaisy//Drivers/CMSIS/DSP/Source/TransformFunctions/arm_cfft_f32.c ****     }
 600:../../libDaisy//Drivers/CMSIS/DSP/Source/TransformFunctions/arm_cfft_f32.c **** 
 601:../../libDaisy//Drivers/CMSIS/DSP/Source/TransformFunctions/arm_cfft_f32.c ****     if ( bitReverseFlag )
 1412              		.loc 1 601 5 view .LVU631
 1413              		.loc 1 601 8 is_stmt 0 view .LVU632
 1414 002c B8F1000F 		cmp	r8, #0
 1415 0030 13D1     		bne	.L32
 1416              	.L29:
 602:../../libDaisy//Drivers/CMSIS/DSP/Source/TransformFunctions/arm_cfft_f32.c ****         arm_bitreversal_32((uint32_t*)p1,S->bitRevLength,S->pBitRevTable);
ARM GAS  /var/folders/hl/qgbwny5j0fd895c2c41bk3tw0000gp/T//ccphgPNq.s 			page 44


 603:../../libDaisy//Drivers/CMSIS/DSP/Source/TransformFunctions/arm_cfft_f32.c **** 
 604:../../libDaisy//Drivers/CMSIS/DSP/Source/TransformFunctions/arm_cfft_f32.c ****     if (ifftFlag == 1u)
 1417              		.loc 1 604 5 is_stmt 1 view .LVU633
 1418              		.loc 1 604 8 is_stmt 0 view .LVU634
 1419 0032 012F     		cmp	r7, #1
 1420 0034 18D0     		beq	.L71
 1421              	.L18:
 605:../../libDaisy//Drivers/CMSIS/DSP/Source/TransformFunctions/arm_cfft_f32.c ****     {
 606:../../libDaisy//Drivers/CMSIS/DSP/Source/TransformFunctions/arm_cfft_f32.c ****         invL = 1.0f/(float32_t)L;
 607:../../libDaisy//Drivers/CMSIS/DSP/Source/TransformFunctions/arm_cfft_f32.c ****         /*  Conjugate and scale output data */
 608:../../libDaisy//Drivers/CMSIS/DSP/Source/TransformFunctions/arm_cfft_f32.c ****         pSrc = p1;
 609:../../libDaisy//Drivers/CMSIS/DSP/Source/TransformFunctions/arm_cfft_f32.c ****         for(l=0; l<L; l++)
 610:../../libDaisy//Drivers/CMSIS/DSP/Source/TransformFunctions/arm_cfft_f32.c ****         {
 611:../../libDaisy//Drivers/CMSIS/DSP/Source/TransformFunctions/arm_cfft_f32.c ****             *pSrc++ *=   invL ;
 612:../../libDaisy//Drivers/CMSIS/DSP/Source/TransformFunctions/arm_cfft_f32.c ****             *pSrc  = -(*pSrc) * invL;
 613:../../libDaisy//Drivers/CMSIS/DSP/Source/TransformFunctions/arm_cfft_f32.c ****             pSrc++;
 614:../../libDaisy//Drivers/CMSIS/DSP/Source/TransformFunctions/arm_cfft_f32.c ****         }
 615:../../libDaisy//Drivers/CMSIS/DSP/Source/TransformFunctions/arm_cfft_f32.c ****     }
 616:../../libDaisy//Drivers/CMSIS/DSP/Source/TransformFunctions/arm_cfft_f32.c **** }
 1422              		.loc 1 616 1 view .LVU635
 1423 0036 BDE8F081 		pop	{r4, r5, r6, r7, r8, pc}
 1424              	.LVL177:
 1425              	.L23:
 582:../../libDaisy//Drivers/CMSIS/DSP/Source/TransformFunctions/arm_cfft_f32.c ****     {
 1426              		.loc 1 582 5 view .LVU636
 1427 003a B5F5006F 		cmp	r5, #2048
 1428 003e 3DD0     		beq	.L22
 1429 0040 31D9     		bls	.L72
 1430 0042 B5F5805F 		cmp	r5, #4096
 1431 0046 F1D1     		bne	.L27
 1432              	.L24:
 597:../../libDaisy//Drivers/CMSIS/DSP/Source/TransformFunctions/arm_cfft_f32.c ****         break;
 1433              		.loc 1 597 9 is_stmt 1 view .LVU637
 1434 0048 0123     		movs	r3, #1
 1435              	.LVL178:
 597:../../libDaisy//Drivers/CMSIS/DSP/Source/TransformFunctions/arm_cfft_f32.c ****         break;
 1436              		.loc 1 597 9 is_stmt 0 view .LVU638
 1437 004a 7268     		ldr	r2, [r6, #4]
 1438              	.LVL179:
 597:../../libDaisy//Drivers/CMSIS/DSP/Source/TransformFunctions/arm_cfft_f32.c ****         break;
 1439              		.loc 1 597 9 view .LVU639
 1440 004c 2946     		mov	r1, r5
 1441 004e 2046     		mov	r0, r4
 1442              	.LVL180:
 597:../../libDaisy//Drivers/CMSIS/DSP/Source/TransformFunctions/arm_cfft_f32.c ****         break;
 1443              		.loc 1 597 9 view .LVU640
 1444 0050 FFF7FEFF 		bl	arm_radix8_butterfly_f32
 1445              	.LVL181:
 598:../../libDaisy//Drivers/CMSIS/DSP/Source/TransformFunctions/arm_cfft_f32.c ****     }
 1446              		.loc 1 598 9 is_stmt 1 view .LVU641
 601:../../libDaisy//Drivers/CMSIS/DSP/Source/TransformFunctions/arm_cfft_f32.c ****         arm_bitreversal_32((uint32_t*)p1,S->bitRevLength,S->pBitRevTable);
 1447              		.loc 1 601 5 view .LVU642
 601:../../libDaisy//Drivers/CMSIS/DSP/Source/TransformFunctions/arm_cfft_f32.c ****         arm_bitreversal_32((uint32_t*)p1,S->bitRevLength,S->pBitRevTable);
 1448              		.loc 1 601 8 is_stmt 0 view .LVU643
 1449 0054 B8F1000F 		cmp	r8, #0
 1450 0058 EBD0     		beq	.L29
 1451              	.L32:
ARM GAS  /var/folders/hl/qgbwny5j0fd895c2c41bk3tw0000gp/T//ccphgPNq.s 			page 45


 602:../../libDaisy//Drivers/CMSIS/DSP/Source/TransformFunctions/arm_cfft_f32.c **** 
 1452              		.loc 1 602 9 is_stmt 1 view .LVU644
 1453 005a B268     		ldr	r2, [r6, #8]
 1454 005c 2046     		mov	r0, r4
 1455 005e B189     		ldrh	r1, [r6, #12]
 1456 0060 FFF7FEFF 		bl	arm_bitreversal_32
 1457              	.LVL182:
 604:../../libDaisy//Drivers/CMSIS/DSP/Source/TransformFunctions/arm_cfft_f32.c ****     {
 1458              		.loc 1 604 5 view .LVU645
 604:../../libDaisy//Drivers/CMSIS/DSP/Source/TransformFunctions/arm_cfft_f32.c ****     {
 1459              		.loc 1 604 8 is_stmt 0 view .LVU646
 1460 0064 012F     		cmp	r7, #1
 1461 0066 E6D1     		bne	.L18
 1462              	.L71:
 606:../../libDaisy//Drivers/CMSIS/DSP/Source/TransformFunctions/arm_cfft_f32.c ****         /*  Conjugate and scale output data */
 1463              		.loc 1 606 9 is_stmt 1 view .LVU647
 606:../../libDaisy//Drivers/CMSIS/DSP/Source/TransformFunctions/arm_cfft_f32.c ****         /*  Conjugate and scale output data */
 1464              		.loc 1 606 21 is_stmt 0 view .LVU648
 1465 0068 07EE905A 		vmov	s15, r5	@ int
 606:../../libDaisy//Drivers/CMSIS/DSP/Source/TransformFunctions/arm_cfft_f32.c ****         /*  Conjugate and scale output data */
 1466              		.loc 1 606 14 view .LVU649
 1467 006c B7EE007A 		vmov.f32	s14, #1.0e+0
 606:../../libDaisy//Drivers/CMSIS/DSP/Source/TransformFunctions/arm_cfft_f32.c ****         /*  Conjugate and scale output data */
 1468              		.loc 1 606 21 view .LVU650
 1469 0070 F8EE677A 		vcvt.f32.u32	s15, s15
 606:../../libDaisy//Drivers/CMSIS/DSP/Source/TransformFunctions/arm_cfft_f32.c ****         /*  Conjugate and scale output data */
 1470              		.loc 1 606 14 view .LVU651
 1471 0074 C7EE276A 		vdiv.f32	s13, s14, s15
 1472              	.LVL183:
 608:../../libDaisy//Drivers/CMSIS/DSP/Source/TransformFunctions/arm_cfft_f32.c ****         for(l=0; l<L; l++)
 1473              		.loc 1 608 9 is_stmt 1 view .LVU652
 609:../../libDaisy//Drivers/CMSIS/DSP/Source/TransformFunctions/arm_cfft_f32.c ****         {
 1474              		.loc 1 609 9 view .LVU653
 609:../../libDaisy//Drivers/CMSIS/DSP/Source/TransformFunctions/arm_cfft_f32.c ****         {
 1475              		.loc 1 609 18 view .LVU654
 609:../../libDaisy//Drivers/CMSIS/DSP/Source/TransformFunctions/arm_cfft_f32.c ****         {
 1476              		.loc 1 609 9 is_stmt 0 view .LVU655
 1477 0078 002D     		cmp	r5, #0
 1478 007a DCD0     		beq	.L18
 1479 007c 04F10801 		add	r1, r4, #8
 609:../../libDaisy//Drivers/CMSIS/DSP/Source/TransformFunctions/arm_cfft_f32.c ****         {
 1480              		.loc 1 609 14 view .LVU656
 1481 0080 0023     		movs	r3, #0
 1482              	.LVL184:
 1483              	.L31:
 611:../../libDaisy//Drivers/CMSIS/DSP/Source/TransformFunctions/arm_cfft_f32.c ****             *pSrc  = -(*pSrc) * invL;
 1484              		.loc 1 611 13 is_stmt 1 discriminator 3 view .LVU657
 611:../../libDaisy//Drivers/CMSIS/DSP/Source/TransformFunctions/arm_cfft_f32.c ****             *pSrc  = -(*pSrc) * invL;
 1485              		.loc 1 611 21 is_stmt 0 discriminator 3 view .LVU658
 1486 0082 11ED027A 		vldr.32	s14, [r1, #-8]
 609:../../libDaisy//Drivers/CMSIS/DSP/Source/TransformFunctions/arm_cfft_f32.c ****         {
 1487              		.loc 1 609 24 discriminator 3 view .LVU659
 1488 0086 0133     		adds	r3, r3, #1
 1489              	.LVL185:
 612:../../libDaisy//Drivers/CMSIS/DSP/Source/TransformFunctions/arm_cfft_f32.c ****             pSrc++;
 1490              		.loc 1 612 22 discriminator 3 view .LVU660
 1491 0088 51ED017A 		vldr.32	s15, [r1, #-4]
ARM GAS  /var/folders/hl/qgbwny5j0fd895c2c41bk3tw0000gp/T//ccphgPNq.s 			page 46


 609:../../libDaisy//Drivers/CMSIS/DSP/Source/TransformFunctions/arm_cfft_f32.c ****         {
 1492              		.loc 1 609 9 discriminator 3 view .LVU661
 1493 008c 0831     		adds	r1, r1, #8
 1494              	.LVL186:
 609:../../libDaisy//Drivers/CMSIS/DSP/Source/TransformFunctions/arm_cfft_f32.c ****         {
 1495              		.loc 1 609 9 discriminator 3 view .LVU662
 1496 008e 9D42     		cmp	r5, r3
 611:../../libDaisy//Drivers/CMSIS/DSP/Source/TransformFunctions/arm_cfft_f32.c ****             *pSrc  = -(*pSrc) * invL;
 1497              		.loc 1 611 21 discriminator 3 view .LVU663
 1498 0090 27EE267A 		vmul.f32	s14, s14, s13
 612:../../libDaisy//Drivers/CMSIS/DSP/Source/TransformFunctions/arm_cfft_f32.c ****             pSrc++;
 1499              		.loc 1 612 31 discriminator 3 view .LVU664
 1500 0094 67EEE67A 		vnmul.f32	s15, s15, s13
 611:../../libDaisy//Drivers/CMSIS/DSP/Source/TransformFunctions/arm_cfft_f32.c ****             *pSrc  = -(*pSrc) * invL;
 1501              		.loc 1 611 21 discriminator 3 view .LVU665
 1502 0098 01ED047A 		vstr.32	s14, [r1, #-16]
 612:../../libDaisy//Drivers/CMSIS/DSP/Source/TransformFunctions/arm_cfft_f32.c ****             pSrc++;
 1503              		.loc 1 612 13 is_stmt 1 discriminator 3 view .LVU666
 612:../../libDaisy//Drivers/CMSIS/DSP/Source/TransformFunctions/arm_cfft_f32.c ****             pSrc++;
 1504              		.loc 1 612 20 is_stmt 0 discriminator 3 view .LVU667
 1505 009c 41ED037A 		vstr.32	s15, [r1, #-12]
 613:../../libDaisy//Drivers/CMSIS/DSP/Source/TransformFunctions/arm_cfft_f32.c ****         }
 1506              		.loc 1 613 13 is_stmt 1 discriminator 3 view .LVU668
 1507              	.LVL187:
 609:../../libDaisy//Drivers/CMSIS/DSP/Source/TransformFunctions/arm_cfft_f32.c ****         {
 1508              		.loc 1 609 23 discriminator 3 view .LVU669
 609:../../libDaisy//Drivers/CMSIS/DSP/Source/TransformFunctions/arm_cfft_f32.c ****         {
 1509              		.loc 1 609 18 discriminator 3 view .LVU670
 609:../../libDaisy//Drivers/CMSIS/DSP/Source/TransformFunctions/arm_cfft_f32.c ****         {
 1510              		.loc 1 609 9 is_stmt 0 discriminator 3 view .LVU671
 1511 00a0 EFD1     		bne	.L31
 1512              		.loc 1 616 1 view .LVU672
 1513 00a2 BDE8F081 		pop	{r4, r5, r6, r7, r8, pc}
 1514              	.LVL188:
 1515              	.L72:
 582:../../libDaisy//Drivers/CMSIS/DSP/Source/TransformFunctions/arm_cfft_f32.c ****     {
 1516              		.loc 1 582 5 view .LVU673
 1517 00a6 B5F5007F 		cmp	r5, #512
 1518 00aa CDD0     		beq	.L24
 1519 00ac B5F5806F 		cmp	r5, #1024
 1520 00b0 B8D0     		beq	.L26
 1521 00b2 BBE7     		b	.L27
 1522              	.L70:
 582:../../libDaisy//Drivers/CMSIS/DSP/Source/TransformFunctions/arm_cfft_f32.c ****     {
 1523              		.loc 1 582 5 view .LVU674
 1524 00b4 102D     		cmp	r5, #16
 1525 00b6 B5D0     		beq	.L26
 1526 00b8 202D     		cmp	r5, #32
 1527 00ba B7D1     		bne	.L27
 1528              	.L22:
 592:../../libDaisy//Drivers/CMSIS/DSP/Source/TransformFunctions/arm_cfft_f32.c ****         break;
 1529              		.loc 1 592 9 is_stmt 1 view .LVU675
 1530 00bc 2146     		mov	r1, r4
 1531 00be 3046     		mov	r0, r6
 1532              	.LVL189:
 592:../../libDaisy//Drivers/CMSIS/DSP/Source/TransformFunctions/arm_cfft_f32.c ****         break;
 1533              		.loc 1 592 9 is_stmt 0 view .LVU676
ARM GAS  /var/folders/hl/qgbwny5j0fd895c2c41bk3tw0000gp/T//ccphgPNq.s 			page 47


 1534 00c0 FFF7FEFF 		bl	arm_cfft_radix8by4_f32
 1535              	.LVL190:
 593:../../libDaisy//Drivers/CMSIS/DSP/Source/TransformFunctions/arm_cfft_f32.c ****     case 64:
 1536              		.loc 1 593 9 is_stmt 1 view .LVU677
 1537 00c4 B2E7     		b	.L27
 1538              	.LVL191:
 1539              	.L69:
 574:../../libDaisy//Drivers/CMSIS/DSP/Source/TransformFunctions/arm_cfft_f32.c ****         for(l=0; l<L; l++)
 1540              		.loc 1 574 9 view .LVU678
 575:../../libDaisy//Drivers/CMSIS/DSP/Source/TransformFunctions/arm_cfft_f32.c ****         {
 1541              		.loc 1 575 9 view .LVU679
 575:../../libDaisy//Drivers/CMSIS/DSP/Source/TransformFunctions/arm_cfft_f32.c ****         {
 1542              		.loc 1 575 18 view .LVU680
 575:../../libDaisy//Drivers/CMSIS/DSP/Source/TransformFunctions/arm_cfft_f32.c ****         {
 1543              		.loc 1 575 9 is_stmt 0 view .LVU681
 1544 00c6 75B1     		cbz	r5, .L20
 1545 00c8 0C31     		adds	r1, r1, #12
 1546              	.LVL192:
 575:../../libDaisy//Drivers/CMSIS/DSP/Source/TransformFunctions/arm_cfft_f32.c ****         {
 1547              		.loc 1 575 14 view .LVU682
 1548 00ca 4FF0000C 		mov	ip, #0
 1549              	.LVL193:
 1550              	.L21:
 577:../../libDaisy//Drivers/CMSIS/DSP/Source/TransformFunctions/arm_cfft_f32.c ****             pSrc += 2;
 1551              		.loc 1 577 13 is_stmt 1 discriminator 3 view .LVU683
 577:../../libDaisy//Drivers/CMSIS/DSP/Source/TransformFunctions/arm_cfft_f32.c ****             pSrc += 2;
 1552              		.loc 1 577 21 is_stmt 0 discriminator 3 view .LVU684
 1553 00ce 51ED027A 		vldr.32	s15, [r1, #-8]
 575:../../libDaisy//Drivers/CMSIS/DSP/Source/TransformFunctions/arm_cfft_f32.c ****         {
 1554              		.loc 1 575 24 discriminator 3 view .LVU685
 1555 00d2 0CF1010C 		add	ip, ip, #1
 1556              	.LVL194:
 575:../../libDaisy//Drivers/CMSIS/DSP/Source/TransformFunctions/arm_cfft_f32.c ****         {
 1557              		.loc 1 575 9 discriminator 3 view .LVU686
 1558 00d6 0831     		adds	r1, r1, #8
 1559              	.LVL195:
 577:../../libDaisy//Drivers/CMSIS/DSP/Source/TransformFunctions/arm_cfft_f32.c ****             pSrc += 2;
 1560              		.loc 1 577 21 discriminator 3 view .LVU687
 1561 00d8 F1EE677A 		vneg.f32	s15, s15
 575:../../libDaisy//Drivers/CMSIS/DSP/Source/TransformFunctions/arm_cfft_f32.c ****         {
 1562              		.loc 1 575 9 discriminator 3 view .LVU688
 1563 00dc 6545     		cmp	r5, ip
 577:../../libDaisy//Drivers/CMSIS/DSP/Source/TransformFunctions/arm_cfft_f32.c ****             pSrc += 2;
 1564              		.loc 1 577 19 discriminator 3 view .LVU689
 1565 00de 41ED047A 		vstr.32	s15, [r1, #-16]
 578:../../libDaisy//Drivers/CMSIS/DSP/Source/TransformFunctions/arm_cfft_f32.c ****         }
 1566              		.loc 1 578 13 is_stmt 1 discriminator 3 view .LVU690
 1567              	.LVL196:
 575:../../libDaisy//Drivers/CMSIS/DSP/Source/TransformFunctions/arm_cfft_f32.c ****         {
 1568              		.loc 1 575 23 discriminator 3 view .LVU691
 575:../../libDaisy//Drivers/CMSIS/DSP/Source/TransformFunctions/arm_cfft_f32.c ****         {
 1569              		.loc 1 575 18 discriminator 3 view .LVU692
 575:../../libDaisy//Drivers/CMSIS/DSP/Source/TransformFunctions/arm_cfft_f32.c ****         {
 1570              		.loc 1 575 9 is_stmt 0 discriminator 3 view .LVU693
 1571 00e2 F4D1     		bne	.L21
 1572 00e4 95E7     		b	.L19
 1573              	.LVL197:
ARM GAS  /var/folders/hl/qgbwny5j0fd895c2c41bk3tw0000gp/T//ccphgPNq.s 			page 48


 1574              	.L20:
 601:../../libDaisy//Drivers/CMSIS/DSP/Source/TransformFunctions/arm_cfft_f32.c ****         arm_bitreversal_32((uint32_t*)p1,S->bitRevLength,S->pBitRevTable);
 1575              		.loc 1 601 5 is_stmt 1 view .LVU694
 601:../../libDaisy//Drivers/CMSIS/DSP/Source/TransformFunctions/arm_cfft_f32.c ****         arm_bitreversal_32((uint32_t*)p1,S->bitRevLength,S->pBitRevTable);
 1576              		.loc 1 601 8 is_stmt 0 view .LVU695
 1577 00e6 002B     		cmp	r3, #0
 1578 00e8 A5D0     		beq	.L18
 1579 00ea B6E7     		b	.L32
 1580              		.cfi_endproc
 1581              	.LFE355:
 1583              		.text
 1584              	.Letext0:
 1585              		.file 2 "/opt/homebrew/Cellar/arm-none-eabi-gcc/10.3-2021.07/gcc/arm-none-eabi/include/machine/_de
 1586              		.file 3 "/opt/homebrew/Cellar/arm-none-eabi-gcc/10.3-2021.07/gcc/arm-none-eabi/include/sys/_stdint
 1587              		.file 4 "../../libDaisy//Drivers/CMSIS/DSP/Include/arm_math.h"
ARM GAS  /var/folders/hl/qgbwny5j0fd895c2c41bk3tw0000gp/T//ccphgPNq.s 			page 49

