ARM GAS  /var/folders/hl/qgbwny5j0fd895c2c41bk3tw0000gp/T//ccE84ZOm.s 			page 1


   1              		.cpu cortex-m7
   2              		.eabi_attribute 28, 1
   3              		.eabi_attribute 20, 1
   4              		.eabi_attribute 21, 1
   5              		.eabi_attribute 23, 3
   6              		.eabi_attribute 24, 1
   7              		.eabi_attribute 25, 1
   8              		.eabi_attribute 26, 1
   9              		.eabi_attribute 30, 2
  10              		.eabi_attribute 34, 1
  11              		.eabi_attribute 18, 4
  12              		.file	"arm_cfft_radix4_f32.c"
  13              		.text
  14              	.Ltext0:
  15              		.cfi_sections	.debug_frame
  16              		.section	.text.arm_radix4_butterfly_f32,"ax",%progbits
  17              		.align	1
  18              		.p2align 2,,3
  19              		.global	arm_radix4_butterfly_f32
  20              		.arch armv7e-m
  21              		.syntax unified
  22              		.thumb
  23              		.thumb_func
  24              		.fpu fpv5-d16
  26              	arm_radix4_butterfly_f32:
  27              	.LVL0:
  28              	.LFB354:
  29              		.file 1 "../../libDaisy//Drivers/CMSIS/DSP/Source/TransformFunctions/arm_cfft_radix4_f32.c"
   1:../../libDaisy//Drivers/CMSIS/DSP/Source/TransformFunctions/arm_cfft_radix4_f32.c **** /* ----------------------------------------------------------------------
   2:../../libDaisy//Drivers/CMSIS/DSP/Source/TransformFunctions/arm_cfft_radix4_f32.c ****  * Project:      CMSIS DSP Library
   3:../../libDaisy//Drivers/CMSIS/DSP/Source/TransformFunctions/arm_cfft_radix4_f32.c ****  * Title:        arm_cfft_radix4_f32.c
   4:../../libDaisy//Drivers/CMSIS/DSP/Source/TransformFunctions/arm_cfft_radix4_f32.c ****  * Description:  Radix-4 Decimation in Frequency CFFT & CIFFT Floating point processing function
   5:../../libDaisy//Drivers/CMSIS/DSP/Source/TransformFunctions/arm_cfft_radix4_f32.c ****  *
   6:../../libDaisy//Drivers/CMSIS/DSP/Source/TransformFunctions/arm_cfft_radix4_f32.c ****  * $Date:        27. January 2017
   7:../../libDaisy//Drivers/CMSIS/DSP/Source/TransformFunctions/arm_cfft_radix4_f32.c ****  * $Revision:    V.1.5.1
   8:../../libDaisy//Drivers/CMSIS/DSP/Source/TransformFunctions/arm_cfft_radix4_f32.c ****  *
   9:../../libDaisy//Drivers/CMSIS/DSP/Source/TransformFunctions/arm_cfft_radix4_f32.c ****  * Target Processor: Cortex-M cores
  10:../../libDaisy//Drivers/CMSIS/DSP/Source/TransformFunctions/arm_cfft_radix4_f32.c ****  * -------------------------------------------------------------------- */
  11:../../libDaisy//Drivers/CMSIS/DSP/Source/TransformFunctions/arm_cfft_radix4_f32.c **** /*
  12:../../libDaisy//Drivers/CMSIS/DSP/Source/TransformFunctions/arm_cfft_radix4_f32.c ****  * Copyright (C) 2010-2017 ARM Limited or its affiliates. All rights reserved.
  13:../../libDaisy//Drivers/CMSIS/DSP/Source/TransformFunctions/arm_cfft_radix4_f32.c ****  *
  14:../../libDaisy//Drivers/CMSIS/DSP/Source/TransformFunctions/arm_cfft_radix4_f32.c ****  * SPDX-License-Identifier: Apache-2.0
  15:../../libDaisy//Drivers/CMSIS/DSP/Source/TransformFunctions/arm_cfft_radix4_f32.c ****  *
  16:../../libDaisy//Drivers/CMSIS/DSP/Source/TransformFunctions/arm_cfft_radix4_f32.c ****  * Licensed under the Apache License, Version 2.0 (the License); you may
  17:../../libDaisy//Drivers/CMSIS/DSP/Source/TransformFunctions/arm_cfft_radix4_f32.c ****  * not use this file except in compliance with the License.
  18:../../libDaisy//Drivers/CMSIS/DSP/Source/TransformFunctions/arm_cfft_radix4_f32.c ****  * You may obtain a copy of the License at
  19:../../libDaisy//Drivers/CMSIS/DSP/Source/TransformFunctions/arm_cfft_radix4_f32.c ****  *
  20:../../libDaisy//Drivers/CMSIS/DSP/Source/TransformFunctions/arm_cfft_radix4_f32.c ****  * www.apache.org/licenses/LICENSE-2.0
  21:../../libDaisy//Drivers/CMSIS/DSP/Source/TransformFunctions/arm_cfft_radix4_f32.c ****  *
  22:../../libDaisy//Drivers/CMSIS/DSP/Source/TransformFunctions/arm_cfft_radix4_f32.c ****  * Unless required by applicable law or agreed to in writing, software
  23:../../libDaisy//Drivers/CMSIS/DSP/Source/TransformFunctions/arm_cfft_radix4_f32.c ****  * distributed under the License is distributed on an AS IS BASIS, WITHOUT
  24:../../libDaisy//Drivers/CMSIS/DSP/Source/TransformFunctions/arm_cfft_radix4_f32.c ****  * WARRANTIES OR CONDITIONS OF ANY KIND, either express or implied.
  25:../../libDaisy//Drivers/CMSIS/DSP/Source/TransformFunctions/arm_cfft_radix4_f32.c ****  * See the License for the specific language governing permissions and
  26:../../libDaisy//Drivers/CMSIS/DSP/Source/TransformFunctions/arm_cfft_radix4_f32.c ****  * limitations under the License.
  27:../../libDaisy//Drivers/CMSIS/DSP/Source/TransformFunctions/arm_cfft_radix4_f32.c ****  */
  28:../../libDaisy//Drivers/CMSIS/DSP/Source/TransformFunctions/arm_cfft_radix4_f32.c **** 
  29:../../libDaisy//Drivers/CMSIS/DSP/Source/TransformFunctions/arm_cfft_radix4_f32.c **** #include "arm_math.h"
ARM GAS  /var/folders/hl/qgbwny5j0fd895c2c41bk3tw0000gp/T//ccE84ZOm.s 			page 2


  30:../../libDaisy//Drivers/CMSIS/DSP/Source/TransformFunctions/arm_cfft_radix4_f32.c **** 
  31:../../libDaisy//Drivers/CMSIS/DSP/Source/TransformFunctions/arm_cfft_radix4_f32.c **** extern void arm_bitreversal_f32(
  32:../../libDaisy//Drivers/CMSIS/DSP/Source/TransformFunctions/arm_cfft_radix4_f32.c **** float32_t * pSrc,
  33:../../libDaisy//Drivers/CMSIS/DSP/Source/TransformFunctions/arm_cfft_radix4_f32.c **** uint16_t fftSize,
  34:../../libDaisy//Drivers/CMSIS/DSP/Source/TransformFunctions/arm_cfft_radix4_f32.c **** uint16_t bitRevFactor,
  35:../../libDaisy//Drivers/CMSIS/DSP/Source/TransformFunctions/arm_cfft_radix4_f32.c **** uint16_t * pBitRevTab);
  36:../../libDaisy//Drivers/CMSIS/DSP/Source/TransformFunctions/arm_cfft_radix4_f32.c **** 
  37:../../libDaisy//Drivers/CMSIS/DSP/Source/TransformFunctions/arm_cfft_radix4_f32.c **** void arm_radix4_butterfly_f32(
  38:../../libDaisy//Drivers/CMSIS/DSP/Source/TransformFunctions/arm_cfft_radix4_f32.c **** float32_t * pSrc,
  39:../../libDaisy//Drivers/CMSIS/DSP/Source/TransformFunctions/arm_cfft_radix4_f32.c **** uint16_t fftLen,
  40:../../libDaisy//Drivers/CMSIS/DSP/Source/TransformFunctions/arm_cfft_radix4_f32.c **** float32_t * pCoef,
  41:../../libDaisy//Drivers/CMSIS/DSP/Source/TransformFunctions/arm_cfft_radix4_f32.c **** uint16_t twidCoefModifier);
  42:../../libDaisy//Drivers/CMSIS/DSP/Source/TransformFunctions/arm_cfft_radix4_f32.c **** 
  43:../../libDaisy//Drivers/CMSIS/DSP/Source/TransformFunctions/arm_cfft_radix4_f32.c **** void arm_radix4_butterfly_inverse_f32(
  44:../../libDaisy//Drivers/CMSIS/DSP/Source/TransformFunctions/arm_cfft_radix4_f32.c **** float32_t * pSrc,
  45:../../libDaisy//Drivers/CMSIS/DSP/Source/TransformFunctions/arm_cfft_radix4_f32.c **** uint16_t fftLen,
  46:../../libDaisy//Drivers/CMSIS/DSP/Source/TransformFunctions/arm_cfft_radix4_f32.c **** float32_t * pCoef,
  47:../../libDaisy//Drivers/CMSIS/DSP/Source/TransformFunctions/arm_cfft_radix4_f32.c **** uint16_t twidCoefModifier,
  48:../../libDaisy//Drivers/CMSIS/DSP/Source/TransformFunctions/arm_cfft_radix4_f32.c **** float32_t onebyfftLen);
  49:../../libDaisy//Drivers/CMSIS/DSP/Source/TransformFunctions/arm_cfft_radix4_f32.c **** 
  50:../../libDaisy//Drivers/CMSIS/DSP/Source/TransformFunctions/arm_cfft_radix4_f32.c **** 
  51:../../libDaisy//Drivers/CMSIS/DSP/Source/TransformFunctions/arm_cfft_radix4_f32.c **** /**
  52:../../libDaisy//Drivers/CMSIS/DSP/Source/TransformFunctions/arm_cfft_radix4_f32.c **** * @ingroup groupTransforms
  53:../../libDaisy//Drivers/CMSIS/DSP/Source/TransformFunctions/arm_cfft_radix4_f32.c **** */
  54:../../libDaisy//Drivers/CMSIS/DSP/Source/TransformFunctions/arm_cfft_radix4_f32.c **** 
  55:../../libDaisy//Drivers/CMSIS/DSP/Source/TransformFunctions/arm_cfft_radix4_f32.c **** /**
  56:../../libDaisy//Drivers/CMSIS/DSP/Source/TransformFunctions/arm_cfft_radix4_f32.c **** * @addtogroup ComplexFFT
  57:../../libDaisy//Drivers/CMSIS/DSP/Source/TransformFunctions/arm_cfft_radix4_f32.c **** * @{
  58:../../libDaisy//Drivers/CMSIS/DSP/Source/TransformFunctions/arm_cfft_radix4_f32.c **** */
  59:../../libDaisy//Drivers/CMSIS/DSP/Source/TransformFunctions/arm_cfft_radix4_f32.c **** 
  60:../../libDaisy//Drivers/CMSIS/DSP/Source/TransformFunctions/arm_cfft_radix4_f32.c **** /**
  61:../../libDaisy//Drivers/CMSIS/DSP/Source/TransformFunctions/arm_cfft_radix4_f32.c **** * @details
  62:../../libDaisy//Drivers/CMSIS/DSP/Source/TransformFunctions/arm_cfft_radix4_f32.c **** * @brief Processing function for the floating-point Radix-4 CFFT/CIFFT.
  63:../../libDaisy//Drivers/CMSIS/DSP/Source/TransformFunctions/arm_cfft_radix4_f32.c **** * @deprecated Do not use this function.  It has been superseded by \ref arm_cfft_f32 and will be re
  64:../../libDaisy//Drivers/CMSIS/DSP/Source/TransformFunctions/arm_cfft_radix4_f32.c **** * in the future.
  65:../../libDaisy//Drivers/CMSIS/DSP/Source/TransformFunctions/arm_cfft_radix4_f32.c **** * @param[in]      *S    points to an instance of the floating-point Radix-4 CFFT/CIFFT structure.
  66:../../libDaisy//Drivers/CMSIS/DSP/Source/TransformFunctions/arm_cfft_radix4_f32.c **** * @param[in, out] *pSrc points to the complex data buffer of size <code>2*fftLen</code>. Processing
  67:../../libDaisy//Drivers/CMSIS/DSP/Source/TransformFunctions/arm_cfft_radix4_f32.c **** * @return none.
  68:../../libDaisy//Drivers/CMSIS/DSP/Source/TransformFunctions/arm_cfft_radix4_f32.c **** */
  69:../../libDaisy//Drivers/CMSIS/DSP/Source/TransformFunctions/arm_cfft_radix4_f32.c **** 
  70:../../libDaisy//Drivers/CMSIS/DSP/Source/TransformFunctions/arm_cfft_radix4_f32.c **** void arm_cfft_radix4_f32(
  71:../../libDaisy//Drivers/CMSIS/DSP/Source/TransformFunctions/arm_cfft_radix4_f32.c ****   const arm_cfft_radix4_instance_f32 * S,
  72:../../libDaisy//Drivers/CMSIS/DSP/Source/TransformFunctions/arm_cfft_radix4_f32.c ****   float32_t * pSrc)
  73:../../libDaisy//Drivers/CMSIS/DSP/Source/TransformFunctions/arm_cfft_radix4_f32.c **** {
  74:../../libDaisy//Drivers/CMSIS/DSP/Source/TransformFunctions/arm_cfft_radix4_f32.c ****    if (S->ifftFlag == 1u)
  75:../../libDaisy//Drivers/CMSIS/DSP/Source/TransformFunctions/arm_cfft_radix4_f32.c ****    {
  76:../../libDaisy//Drivers/CMSIS/DSP/Source/TransformFunctions/arm_cfft_radix4_f32.c ****       /*  Complex IFFT radix-4  */
  77:../../libDaisy//Drivers/CMSIS/DSP/Source/TransformFunctions/arm_cfft_radix4_f32.c ****       arm_radix4_butterfly_inverse_f32(pSrc, S->fftLen, S->pTwiddle, S->twidCoefModifier, S->onebyf
  78:../../libDaisy//Drivers/CMSIS/DSP/Source/TransformFunctions/arm_cfft_radix4_f32.c ****    }
  79:../../libDaisy//Drivers/CMSIS/DSP/Source/TransformFunctions/arm_cfft_radix4_f32.c ****    else
  80:../../libDaisy//Drivers/CMSIS/DSP/Source/TransformFunctions/arm_cfft_radix4_f32.c ****    {
  81:../../libDaisy//Drivers/CMSIS/DSP/Source/TransformFunctions/arm_cfft_radix4_f32.c ****       /*  Complex FFT radix-4  */
  82:../../libDaisy//Drivers/CMSIS/DSP/Source/TransformFunctions/arm_cfft_radix4_f32.c ****       arm_radix4_butterfly_f32(pSrc, S->fftLen, S->pTwiddle, S->twidCoefModifier);
  83:../../libDaisy//Drivers/CMSIS/DSP/Source/TransformFunctions/arm_cfft_radix4_f32.c ****    }
  84:../../libDaisy//Drivers/CMSIS/DSP/Source/TransformFunctions/arm_cfft_radix4_f32.c **** 
  85:../../libDaisy//Drivers/CMSIS/DSP/Source/TransformFunctions/arm_cfft_radix4_f32.c ****    if (S->bitReverseFlag == 1u)
  86:../../libDaisy//Drivers/CMSIS/DSP/Source/TransformFunctions/arm_cfft_radix4_f32.c ****    {
ARM GAS  /var/folders/hl/qgbwny5j0fd895c2c41bk3tw0000gp/T//ccE84ZOm.s 			page 3


  87:../../libDaisy//Drivers/CMSIS/DSP/Source/TransformFunctions/arm_cfft_radix4_f32.c ****       /*  Bit Reversal */
  88:../../libDaisy//Drivers/CMSIS/DSP/Source/TransformFunctions/arm_cfft_radix4_f32.c ****       arm_bitreversal_f32(pSrc, S->fftLen, S->bitRevFactor, S->pBitRevTable);
  89:../../libDaisy//Drivers/CMSIS/DSP/Source/TransformFunctions/arm_cfft_radix4_f32.c ****    }
  90:../../libDaisy//Drivers/CMSIS/DSP/Source/TransformFunctions/arm_cfft_radix4_f32.c **** 
  91:../../libDaisy//Drivers/CMSIS/DSP/Source/TransformFunctions/arm_cfft_radix4_f32.c **** }
  92:../../libDaisy//Drivers/CMSIS/DSP/Source/TransformFunctions/arm_cfft_radix4_f32.c **** 
  93:../../libDaisy//Drivers/CMSIS/DSP/Source/TransformFunctions/arm_cfft_radix4_f32.c **** /**
  94:../../libDaisy//Drivers/CMSIS/DSP/Source/TransformFunctions/arm_cfft_radix4_f32.c **** * @} end of ComplexFFT group
  95:../../libDaisy//Drivers/CMSIS/DSP/Source/TransformFunctions/arm_cfft_radix4_f32.c **** */
  96:../../libDaisy//Drivers/CMSIS/DSP/Source/TransformFunctions/arm_cfft_radix4_f32.c **** 
  97:../../libDaisy//Drivers/CMSIS/DSP/Source/TransformFunctions/arm_cfft_radix4_f32.c **** /* ----------------------------------------------------------------------
  98:../../libDaisy//Drivers/CMSIS/DSP/Source/TransformFunctions/arm_cfft_radix4_f32.c ****  * Internal helper function used by the FFTs
  99:../../libDaisy//Drivers/CMSIS/DSP/Source/TransformFunctions/arm_cfft_radix4_f32.c ****  * ---------------------------------------------------------------------- */
 100:../../libDaisy//Drivers/CMSIS/DSP/Source/TransformFunctions/arm_cfft_radix4_f32.c **** 
 101:../../libDaisy//Drivers/CMSIS/DSP/Source/TransformFunctions/arm_cfft_radix4_f32.c **** /*
 102:../../libDaisy//Drivers/CMSIS/DSP/Source/TransformFunctions/arm_cfft_radix4_f32.c **** * @brief  Core function for the floating-point CFFT butterfly process.
 103:../../libDaisy//Drivers/CMSIS/DSP/Source/TransformFunctions/arm_cfft_radix4_f32.c **** * @param[in, out] *pSrc            points to the in-place buffer of floating-point data type.
 104:../../libDaisy//Drivers/CMSIS/DSP/Source/TransformFunctions/arm_cfft_radix4_f32.c **** * @param[in]      fftLen           length of the FFT.
 105:../../libDaisy//Drivers/CMSIS/DSP/Source/TransformFunctions/arm_cfft_radix4_f32.c **** * @param[in]      *pCoef           points to the twiddle coefficient buffer.
 106:../../libDaisy//Drivers/CMSIS/DSP/Source/TransformFunctions/arm_cfft_radix4_f32.c **** * @param[in]      twidCoefModifier twiddle coefficient modifier that supports different size FFTs w
 107:../../libDaisy//Drivers/CMSIS/DSP/Source/TransformFunctions/arm_cfft_radix4_f32.c **** * @return none.
 108:../../libDaisy//Drivers/CMSIS/DSP/Source/TransformFunctions/arm_cfft_radix4_f32.c **** */
 109:../../libDaisy//Drivers/CMSIS/DSP/Source/TransformFunctions/arm_cfft_radix4_f32.c **** 
 110:../../libDaisy//Drivers/CMSIS/DSP/Source/TransformFunctions/arm_cfft_radix4_f32.c **** void arm_radix4_butterfly_f32(
 111:../../libDaisy//Drivers/CMSIS/DSP/Source/TransformFunctions/arm_cfft_radix4_f32.c **** float32_t * pSrc,
 112:../../libDaisy//Drivers/CMSIS/DSP/Source/TransformFunctions/arm_cfft_radix4_f32.c **** uint16_t fftLen,
 113:../../libDaisy//Drivers/CMSIS/DSP/Source/TransformFunctions/arm_cfft_radix4_f32.c **** float32_t * pCoef,
 114:../../libDaisy//Drivers/CMSIS/DSP/Source/TransformFunctions/arm_cfft_radix4_f32.c **** uint16_t twidCoefModifier)
 115:../../libDaisy//Drivers/CMSIS/DSP/Source/TransformFunctions/arm_cfft_radix4_f32.c **** {
  30              		.loc 1 115 1 view -0
  31              		.cfi_startproc
  32              		@ args = 0, pretend = 0, frame = 48
  33              		@ frame_needed = 0, uses_anonymous_args = 0
 116:../../libDaisy//Drivers/CMSIS/DSP/Source/TransformFunctions/arm_cfft_radix4_f32.c **** 
 117:../../libDaisy//Drivers/CMSIS/DSP/Source/TransformFunctions/arm_cfft_radix4_f32.c ****    float32_t co1, co2, co3, si1, si2, si3;
  34              		.loc 1 117 4 view .LVU1
 118:../../libDaisy//Drivers/CMSIS/DSP/Source/TransformFunctions/arm_cfft_radix4_f32.c ****    uint32_t ia1, ia2, ia3;
  35              		.loc 1 118 4 view .LVU2
 119:../../libDaisy//Drivers/CMSIS/DSP/Source/TransformFunctions/arm_cfft_radix4_f32.c ****    uint32_t i0, i1, i2, i3;
  36              		.loc 1 119 4 view .LVU3
 120:../../libDaisy//Drivers/CMSIS/DSP/Source/TransformFunctions/arm_cfft_radix4_f32.c ****    uint32_t n1, n2, j, k;
  37              		.loc 1 120 4 view .LVU4
 121:../../libDaisy//Drivers/CMSIS/DSP/Source/TransformFunctions/arm_cfft_radix4_f32.c **** 
 122:../../libDaisy//Drivers/CMSIS/DSP/Source/TransformFunctions/arm_cfft_radix4_f32.c **** #if defined (ARM_MATH_DSP)
 123:../../libDaisy//Drivers/CMSIS/DSP/Source/TransformFunctions/arm_cfft_radix4_f32.c **** 
 124:../../libDaisy//Drivers/CMSIS/DSP/Source/TransformFunctions/arm_cfft_radix4_f32.c ****    /* Run the below code for Cortex-M4 and Cortex-M3 */
 125:../../libDaisy//Drivers/CMSIS/DSP/Source/TransformFunctions/arm_cfft_radix4_f32.c **** 
 126:../../libDaisy//Drivers/CMSIS/DSP/Source/TransformFunctions/arm_cfft_radix4_f32.c ****    float32_t xaIn, yaIn, xbIn, ybIn, xcIn, ycIn, xdIn, ydIn;
  38              		.loc 1 126 4 view .LVU5
 127:../../libDaisy//Drivers/CMSIS/DSP/Source/TransformFunctions/arm_cfft_radix4_f32.c ****    float32_t Xaplusc, Xbplusd, Yaplusc, Ybplusd, Xaminusc, Xbminusd, Yaminusc,
  39              		.loc 1 127 4 view .LVU6
 128:../../libDaisy//Drivers/CMSIS/DSP/Source/TransformFunctions/arm_cfft_radix4_f32.c ****    Ybminusd;
 129:../../libDaisy//Drivers/CMSIS/DSP/Source/TransformFunctions/arm_cfft_radix4_f32.c ****    float32_t Xb12C_out, Yb12C_out, Xc12C_out, Yc12C_out, Xd12C_out, Yd12C_out;
  40              		.loc 1 129 4 view .LVU7
 130:../../libDaisy//Drivers/CMSIS/DSP/Source/TransformFunctions/arm_cfft_radix4_f32.c ****    float32_t Xb12_out, Yb12_out, Xc12_out, Yc12_out, Xd12_out, Yd12_out;
  41              		.loc 1 130 4 view .LVU8
 131:../../libDaisy//Drivers/CMSIS/DSP/Source/TransformFunctions/arm_cfft_radix4_f32.c ****    float32_t *ptr1;
ARM GAS  /var/folders/hl/qgbwny5j0fd895c2c41bk3tw0000gp/T//ccE84ZOm.s 			page 4


  42              		.loc 1 131 4 view .LVU9
 132:../../libDaisy//Drivers/CMSIS/DSP/Source/TransformFunctions/arm_cfft_radix4_f32.c ****    float32_t p0,p1,p2,p3,p4,p5;
  43              		.loc 1 132 4 view .LVU10
 133:../../libDaisy//Drivers/CMSIS/DSP/Source/TransformFunctions/arm_cfft_radix4_f32.c ****    float32_t a0,a1,a2,a3,a4,a5,a6,a7;
  44              		.loc 1 133 4 view .LVU11
 134:../../libDaisy//Drivers/CMSIS/DSP/Source/TransformFunctions/arm_cfft_radix4_f32.c **** 
 135:../../libDaisy//Drivers/CMSIS/DSP/Source/TransformFunctions/arm_cfft_radix4_f32.c ****    /*  Initializations for the first stage */
 136:../../libDaisy//Drivers/CMSIS/DSP/Source/TransformFunctions/arm_cfft_radix4_f32.c ****    n2 = fftLen;
  45              		.loc 1 136 4 view .LVU12
 115:../../libDaisy//Drivers/CMSIS/DSP/Source/TransformFunctions/arm_cfft_radix4_f32.c **** 
  46              		.loc 1 115 1 is_stmt 0 view .LVU13
  47 0000 2DE9F04F 		push	{r4, r5, r6, r7, r8, r9, r10, fp, lr}
  48              		.cfi_def_cfa_offset 36
  49              		.cfi_offset 4, -36
  50              		.cfi_offset 5, -32
  51              		.cfi_offset 6, -28
  52              		.cfi_offset 7, -24
  53              		.cfi_offset 8, -20
  54              		.cfi_offset 9, -16
  55              		.cfi_offset 10, -12
  56              		.cfi_offset 11, -8
  57              		.cfi_offset 14, -4
  58 0004 9A46     		mov	r10, r3
 137:../../libDaisy//Drivers/CMSIS/DSP/Source/TransformFunctions/arm_cfft_radix4_f32.c ****    n1 = n2;
 138:../../libDaisy//Drivers/CMSIS/DSP/Source/TransformFunctions/arm_cfft_radix4_f32.c **** 
 139:../../libDaisy//Drivers/CMSIS/DSP/Source/TransformFunctions/arm_cfft_radix4_f32.c ****    /* n2 = fftLen/4 */
 140:../../libDaisy//Drivers/CMSIS/DSP/Source/TransformFunctions/arm_cfft_radix4_f32.c ****    n2 >>= 2u;
  59              		.loc 1 140 7 view .LVU14
  60 0006 4FEA9109 		lsr	r9, r1, #2
  61 000a 141D     		adds	r4, r2, #4
 115:../../libDaisy//Drivers/CMSIS/DSP/Source/TransformFunctions/arm_cfft_radix4_f32.c **** 
  62              		.loc 1 115 1 view .LVU15
  63 000c 8B46     		mov	fp, r1
  64              	.LVL1:
 137:../../libDaisy//Drivers/CMSIS/DSP/Source/TransformFunctions/arm_cfft_radix4_f32.c ****    n1 = n2;
  65              		.loc 1 137 4 is_stmt 1 view .LVU16
  66              		.loc 1 140 4 view .LVU17
  67 000e 00EBC902 		add	r2, r0, r9, lsl #3
  68              	.LVL2:
 141:../../libDaisy//Drivers/CMSIS/DSP/Source/TransformFunctions/arm_cfft_radix4_f32.c ****    i0 = 0u;
 142:../../libDaisy//Drivers/CMSIS/DSP/Source/TransformFunctions/arm_cfft_radix4_f32.c ****    ia1 = 0u;
 143:../../libDaisy//Drivers/CMSIS/DSP/Source/TransformFunctions/arm_cfft_radix4_f32.c **** 
 144:../../libDaisy//Drivers/CMSIS/DSP/Source/TransformFunctions/arm_cfft_radix4_f32.c ****    j = n2;
 145:../../libDaisy//Drivers/CMSIS/DSP/Source/TransformFunctions/arm_cfft_radix4_f32.c **** 
 146:../../libDaisy//Drivers/CMSIS/DSP/Source/TransformFunctions/arm_cfft_radix4_f32.c ****    /*  Calculation of first stage */
 147:../../libDaisy//Drivers/CMSIS/DSP/Source/TransformFunctions/arm_cfft_radix4_f32.c ****    do
 148:../../libDaisy//Drivers/CMSIS/DSP/Source/TransformFunctions/arm_cfft_radix4_f32.c ****    {
 149:../../libDaisy//Drivers/CMSIS/DSP/Source/TransformFunctions/arm_cfft_radix4_f32.c ****       /*  index calculation for the input as, */
 150:../../libDaisy//Drivers/CMSIS/DSP/Source/TransformFunctions/arm_cfft_radix4_f32.c ****       /*  pSrc[i0 + 0], pSrc[i0 + fftLen/4], pSrc[i0 + fftLen/2], pSrc[i0 + 3fftLen/4] */
 151:../../libDaisy//Drivers/CMSIS/DSP/Source/TransformFunctions/arm_cfft_radix4_f32.c ****       i1 = i0 + n2;
 152:../../libDaisy//Drivers/CMSIS/DSP/Source/TransformFunctions/arm_cfft_radix4_f32.c ****       i2 = i1 + n2;
 153:../../libDaisy//Drivers/CMSIS/DSP/Source/TransformFunctions/arm_cfft_radix4_f32.c ****       i3 = i2 + n2;
 154:../../libDaisy//Drivers/CMSIS/DSP/Source/TransformFunctions/arm_cfft_radix4_f32.c **** 
 155:../../libDaisy//Drivers/CMSIS/DSP/Source/TransformFunctions/arm_cfft_radix4_f32.c ****       xaIn = pSrc[(2u * i0)];
 156:../../libDaisy//Drivers/CMSIS/DSP/Source/TransformFunctions/arm_cfft_radix4_f32.c ****       yaIn = pSrc[(2u * i0) + 1u];
 157:../../libDaisy//Drivers/CMSIS/DSP/Source/TransformFunctions/arm_cfft_radix4_f32.c **** 
 158:../../libDaisy//Drivers/CMSIS/DSP/Source/TransformFunctions/arm_cfft_radix4_f32.c ****       xbIn = pSrc[(2u * i1)];
ARM GAS  /var/folders/hl/qgbwny5j0fd895c2c41bk3tw0000gp/T//ccE84ZOm.s 			page 5


 159:../../libDaisy//Drivers/CMSIS/DSP/Source/TransformFunctions/arm_cfft_radix4_f32.c ****       ybIn = pSrc[(2u * i1) + 1u];
 160:../../libDaisy//Drivers/CMSIS/DSP/Source/TransformFunctions/arm_cfft_radix4_f32.c **** 
 161:../../libDaisy//Drivers/CMSIS/DSP/Source/TransformFunctions/arm_cfft_radix4_f32.c ****       xcIn = pSrc[(2u * i2)];
 162:../../libDaisy//Drivers/CMSIS/DSP/Source/TransformFunctions/arm_cfft_radix4_f32.c ****       ycIn = pSrc[(2u * i2) + 1u];
 163:../../libDaisy//Drivers/CMSIS/DSP/Source/TransformFunctions/arm_cfft_radix4_f32.c **** 
 164:../../libDaisy//Drivers/CMSIS/DSP/Source/TransformFunctions/arm_cfft_radix4_f32.c ****       xdIn = pSrc[(2u * i3)];
 165:../../libDaisy//Drivers/CMSIS/DSP/Source/TransformFunctions/arm_cfft_radix4_f32.c ****       ydIn = pSrc[(2u * i3) + 1u];
 166:../../libDaisy//Drivers/CMSIS/DSP/Source/TransformFunctions/arm_cfft_radix4_f32.c **** 
 167:../../libDaisy//Drivers/CMSIS/DSP/Source/TransformFunctions/arm_cfft_radix4_f32.c ****       /* xa + xc */
 168:../../libDaisy//Drivers/CMSIS/DSP/Source/TransformFunctions/arm_cfft_radix4_f32.c ****       Xaplusc = xaIn + xcIn;
 169:../../libDaisy//Drivers/CMSIS/DSP/Source/TransformFunctions/arm_cfft_radix4_f32.c ****       /* xb + xd */
 170:../../libDaisy//Drivers/CMSIS/DSP/Source/TransformFunctions/arm_cfft_radix4_f32.c ****       Xbplusd = xbIn + xdIn;
 171:../../libDaisy//Drivers/CMSIS/DSP/Source/TransformFunctions/arm_cfft_radix4_f32.c ****       /* ya + yc */
 172:../../libDaisy//Drivers/CMSIS/DSP/Source/TransformFunctions/arm_cfft_radix4_f32.c ****       Yaplusc = yaIn + ycIn;
 173:../../libDaisy//Drivers/CMSIS/DSP/Source/TransformFunctions/arm_cfft_radix4_f32.c ****       /* yb + yd */
 174:../../libDaisy//Drivers/CMSIS/DSP/Source/TransformFunctions/arm_cfft_radix4_f32.c ****       Ybplusd = ybIn + ydIn;
 175:../../libDaisy//Drivers/CMSIS/DSP/Source/TransformFunctions/arm_cfft_radix4_f32.c **** 
 176:../../libDaisy//Drivers/CMSIS/DSP/Source/TransformFunctions/arm_cfft_radix4_f32.c ****       /*  index calculation for the coefficients */
 177:../../libDaisy//Drivers/CMSIS/DSP/Source/TransformFunctions/arm_cfft_radix4_f32.c ****       ia2 = ia1 + ia1;
 178:../../libDaisy//Drivers/CMSIS/DSP/Source/TransformFunctions/arm_cfft_radix4_f32.c ****       co2 = pCoef[ia2 * 2u];
 179:../../libDaisy//Drivers/CMSIS/DSP/Source/TransformFunctions/arm_cfft_radix4_f32.c ****       si2 = pCoef[(ia2 * 2u) + 1u];
 180:../../libDaisy//Drivers/CMSIS/DSP/Source/TransformFunctions/arm_cfft_radix4_f32.c **** 
 181:../../libDaisy//Drivers/CMSIS/DSP/Source/TransformFunctions/arm_cfft_radix4_f32.c ****       /* xa - xc */
 182:../../libDaisy//Drivers/CMSIS/DSP/Source/TransformFunctions/arm_cfft_radix4_f32.c ****       Xaminusc = xaIn - xcIn;
 183:../../libDaisy//Drivers/CMSIS/DSP/Source/TransformFunctions/arm_cfft_radix4_f32.c ****       /* xb - xd */
 184:../../libDaisy//Drivers/CMSIS/DSP/Source/TransformFunctions/arm_cfft_radix4_f32.c ****       Xbminusd = xbIn - xdIn;
 185:../../libDaisy//Drivers/CMSIS/DSP/Source/TransformFunctions/arm_cfft_radix4_f32.c ****       /* ya - yc */
 186:../../libDaisy//Drivers/CMSIS/DSP/Source/TransformFunctions/arm_cfft_radix4_f32.c ****       Yaminusc = yaIn - ycIn;
 187:../../libDaisy//Drivers/CMSIS/DSP/Source/TransformFunctions/arm_cfft_radix4_f32.c ****       /* yb - yd */
 188:../../libDaisy//Drivers/CMSIS/DSP/Source/TransformFunctions/arm_cfft_radix4_f32.c ****       Ybminusd = ybIn - ydIn;
 189:../../libDaisy//Drivers/CMSIS/DSP/Source/TransformFunctions/arm_cfft_radix4_f32.c **** 
 190:../../libDaisy//Drivers/CMSIS/DSP/Source/TransformFunctions/arm_cfft_radix4_f32.c ****       /* xa' = xa + xb + xc + xd */
 191:../../libDaisy//Drivers/CMSIS/DSP/Source/TransformFunctions/arm_cfft_radix4_f32.c ****       pSrc[(2u * i0)] = Xaplusc + Xbplusd;
 192:../../libDaisy//Drivers/CMSIS/DSP/Source/TransformFunctions/arm_cfft_radix4_f32.c ****       /* ya' = ya + yb + yc + yd */
 193:../../libDaisy//Drivers/CMSIS/DSP/Source/TransformFunctions/arm_cfft_radix4_f32.c ****       pSrc[(2u * i0) + 1u] = Yaplusc + Ybplusd;
 194:../../libDaisy//Drivers/CMSIS/DSP/Source/TransformFunctions/arm_cfft_radix4_f32.c **** 
 195:../../libDaisy//Drivers/CMSIS/DSP/Source/TransformFunctions/arm_cfft_radix4_f32.c ****       /* (xa - xc) + (yb - yd) */
 196:../../libDaisy//Drivers/CMSIS/DSP/Source/TransformFunctions/arm_cfft_radix4_f32.c ****       Xb12C_out = (Xaminusc + Ybminusd);
 197:../../libDaisy//Drivers/CMSIS/DSP/Source/TransformFunctions/arm_cfft_radix4_f32.c ****       /* (ya - yc) + (xb - xd) */
 198:../../libDaisy//Drivers/CMSIS/DSP/Source/TransformFunctions/arm_cfft_radix4_f32.c ****       Yb12C_out = (Yaminusc - Xbminusd);
 199:../../libDaisy//Drivers/CMSIS/DSP/Source/TransformFunctions/arm_cfft_radix4_f32.c ****       /* (xa + xc) - (xb + xd) */
 200:../../libDaisy//Drivers/CMSIS/DSP/Source/TransformFunctions/arm_cfft_radix4_f32.c ****       Xc12C_out = (Xaplusc - Xbplusd);
 201:../../libDaisy//Drivers/CMSIS/DSP/Source/TransformFunctions/arm_cfft_radix4_f32.c ****       /* (ya + yc) - (yb + yd) */
 202:../../libDaisy//Drivers/CMSIS/DSP/Source/TransformFunctions/arm_cfft_radix4_f32.c ****       Yc12C_out = (Yaplusc - Ybplusd);
 203:../../libDaisy//Drivers/CMSIS/DSP/Source/TransformFunctions/arm_cfft_radix4_f32.c ****       /* (xa - xc) - (yb - yd) */
 204:../../libDaisy//Drivers/CMSIS/DSP/Source/TransformFunctions/arm_cfft_radix4_f32.c ****       Xd12C_out = (Xaminusc - Ybminusd);
 205:../../libDaisy//Drivers/CMSIS/DSP/Source/TransformFunctions/arm_cfft_radix4_f32.c ****       /* (ya - yc) + (xb - xd) */
 206:../../libDaisy//Drivers/CMSIS/DSP/Source/TransformFunctions/arm_cfft_radix4_f32.c ****       Yd12C_out = (Xbminusd + Yaminusc);
 207:../../libDaisy//Drivers/CMSIS/DSP/Source/TransformFunctions/arm_cfft_radix4_f32.c **** 
 208:../../libDaisy//Drivers/CMSIS/DSP/Source/TransformFunctions/arm_cfft_radix4_f32.c ****       co1 = pCoef[ia1 * 2u];
 209:../../libDaisy//Drivers/CMSIS/DSP/Source/TransformFunctions/arm_cfft_radix4_f32.c ****       si1 = pCoef[(ia1 * 2u) + 1u];
 210:../../libDaisy//Drivers/CMSIS/DSP/Source/TransformFunctions/arm_cfft_radix4_f32.c **** 
 211:../../libDaisy//Drivers/CMSIS/DSP/Source/TransformFunctions/arm_cfft_radix4_f32.c ****       /*  index calculation for the coefficients */
 212:../../libDaisy//Drivers/CMSIS/DSP/Source/TransformFunctions/arm_cfft_radix4_f32.c ****       ia3 = ia2 + ia1;
 213:../../libDaisy//Drivers/CMSIS/DSP/Source/TransformFunctions/arm_cfft_radix4_f32.c ****       co3 = pCoef[ia3 * 2u];
 214:../../libDaisy//Drivers/CMSIS/DSP/Source/TransformFunctions/arm_cfft_radix4_f32.c ****       si3 = pCoef[(ia3 * 2u) + 1u];
 215:../../libDaisy//Drivers/CMSIS/DSP/Source/TransformFunctions/arm_cfft_radix4_f32.c **** 
ARM GAS  /var/folders/hl/qgbwny5j0fd895c2c41bk3tw0000gp/T//ccE84ZOm.s 			page 6


 216:../../libDaisy//Drivers/CMSIS/DSP/Source/TransformFunctions/arm_cfft_radix4_f32.c ****       Xb12_out = Xb12C_out * co1;
 217:../../libDaisy//Drivers/CMSIS/DSP/Source/TransformFunctions/arm_cfft_radix4_f32.c ****       Yb12_out = Yb12C_out * co1;
 218:../../libDaisy//Drivers/CMSIS/DSP/Source/TransformFunctions/arm_cfft_radix4_f32.c ****       Xc12_out = Xc12C_out * co2;
 219:../../libDaisy//Drivers/CMSIS/DSP/Source/TransformFunctions/arm_cfft_radix4_f32.c ****       Yc12_out = Yc12C_out * co2;
 220:../../libDaisy//Drivers/CMSIS/DSP/Source/TransformFunctions/arm_cfft_radix4_f32.c ****       Xd12_out = Xd12C_out * co3;
 221:../../libDaisy//Drivers/CMSIS/DSP/Source/TransformFunctions/arm_cfft_radix4_f32.c ****       Yd12_out = Yd12C_out * co3;
 222:../../libDaisy//Drivers/CMSIS/DSP/Source/TransformFunctions/arm_cfft_radix4_f32.c **** 
 223:../../libDaisy//Drivers/CMSIS/DSP/Source/TransformFunctions/arm_cfft_radix4_f32.c ****       /* xb' = (xa+yb-xc-yd)co1 - (ya-xb-yc+xd)(si1) */
 224:../../libDaisy//Drivers/CMSIS/DSP/Source/TransformFunctions/arm_cfft_radix4_f32.c ****       //Xb12_out -= Yb12C_out * si1;
 225:../../libDaisy//Drivers/CMSIS/DSP/Source/TransformFunctions/arm_cfft_radix4_f32.c ****       p0 = Yb12C_out * si1;
 226:../../libDaisy//Drivers/CMSIS/DSP/Source/TransformFunctions/arm_cfft_radix4_f32.c ****       /* yb' = (ya-xb-yc+xd)co1 + (xa+yb-xc-yd)(si1) */
 227:../../libDaisy//Drivers/CMSIS/DSP/Source/TransformFunctions/arm_cfft_radix4_f32.c ****       //Yb12_out += Xb12C_out * si1;
 228:../../libDaisy//Drivers/CMSIS/DSP/Source/TransformFunctions/arm_cfft_radix4_f32.c ****       p1 = Xb12C_out * si1;
 229:../../libDaisy//Drivers/CMSIS/DSP/Source/TransformFunctions/arm_cfft_radix4_f32.c ****       /* xc' = (xa-xb+xc-xd)co2 - (ya-yb+yc-yd)(si2) */
 230:../../libDaisy//Drivers/CMSIS/DSP/Source/TransformFunctions/arm_cfft_radix4_f32.c ****       //Xc12_out -= Yc12C_out * si2;
 231:../../libDaisy//Drivers/CMSIS/DSP/Source/TransformFunctions/arm_cfft_radix4_f32.c ****       p2 = Yc12C_out * si2;
 232:../../libDaisy//Drivers/CMSIS/DSP/Source/TransformFunctions/arm_cfft_radix4_f32.c ****       /* yc' = (ya-yb+yc-yd)co2 + (xa-xb+xc-xd)(si2) */
 233:../../libDaisy//Drivers/CMSIS/DSP/Source/TransformFunctions/arm_cfft_radix4_f32.c ****       //Yc12_out += Xc12C_out * si2;
 234:../../libDaisy//Drivers/CMSIS/DSP/Source/TransformFunctions/arm_cfft_radix4_f32.c ****       p3 = Xc12C_out * si2;
 235:../../libDaisy//Drivers/CMSIS/DSP/Source/TransformFunctions/arm_cfft_radix4_f32.c ****       /* xd' = (xa-yb-xc+yd)co3 - (ya+xb-yc-xd)(si3) */
 236:../../libDaisy//Drivers/CMSIS/DSP/Source/TransformFunctions/arm_cfft_radix4_f32.c ****       //Xd12_out -= Yd12C_out * si3;
 237:../../libDaisy//Drivers/CMSIS/DSP/Source/TransformFunctions/arm_cfft_radix4_f32.c ****       p4 = Yd12C_out * si3;
 238:../../libDaisy//Drivers/CMSIS/DSP/Source/TransformFunctions/arm_cfft_radix4_f32.c ****       /* yd' = (ya+xb-yc-xd)co3 + (xa-yb-xc+yd)(si3) */
 239:../../libDaisy//Drivers/CMSIS/DSP/Source/TransformFunctions/arm_cfft_radix4_f32.c ****       //Yd12_out += Xd12C_out * si3;
 240:../../libDaisy//Drivers/CMSIS/DSP/Source/TransformFunctions/arm_cfft_radix4_f32.c ****       p5 = Xd12C_out * si3;
 241:../../libDaisy//Drivers/CMSIS/DSP/Source/TransformFunctions/arm_cfft_radix4_f32.c **** 
 242:../../libDaisy//Drivers/CMSIS/DSP/Source/TransformFunctions/arm_cfft_radix4_f32.c ****       Xb12_out += p0;
 243:../../libDaisy//Drivers/CMSIS/DSP/Source/TransformFunctions/arm_cfft_radix4_f32.c ****       Yb12_out -= p1;
 244:../../libDaisy//Drivers/CMSIS/DSP/Source/TransformFunctions/arm_cfft_radix4_f32.c ****       Xc12_out += p2;
 245:../../libDaisy//Drivers/CMSIS/DSP/Source/TransformFunctions/arm_cfft_radix4_f32.c ****       Yc12_out -= p3;
 246:../../libDaisy//Drivers/CMSIS/DSP/Source/TransformFunctions/arm_cfft_radix4_f32.c ****       Xd12_out += p4;
 247:../../libDaisy//Drivers/CMSIS/DSP/Source/TransformFunctions/arm_cfft_radix4_f32.c ****       Yd12_out -= p5;
 248:../../libDaisy//Drivers/CMSIS/DSP/Source/TransformFunctions/arm_cfft_radix4_f32.c **** 
 249:../../libDaisy//Drivers/CMSIS/DSP/Source/TransformFunctions/arm_cfft_radix4_f32.c ****       /* xc' = (xa-xb+xc-xd)co2 + (ya-yb+yc-yd)(si2) */
 250:../../libDaisy//Drivers/CMSIS/DSP/Source/TransformFunctions/arm_cfft_radix4_f32.c ****       pSrc[2u * i1] = Xc12_out;
 251:../../libDaisy//Drivers/CMSIS/DSP/Source/TransformFunctions/arm_cfft_radix4_f32.c **** 
 252:../../libDaisy//Drivers/CMSIS/DSP/Source/TransformFunctions/arm_cfft_radix4_f32.c ****       /* yc' = (ya-yb+yc-yd)co2 - (xa-xb+xc-xd)(si2) */
 253:../../libDaisy//Drivers/CMSIS/DSP/Source/TransformFunctions/arm_cfft_radix4_f32.c ****       pSrc[(2u * i1) + 1u] = Yc12_out;
 254:../../libDaisy//Drivers/CMSIS/DSP/Source/TransformFunctions/arm_cfft_radix4_f32.c **** 
 255:../../libDaisy//Drivers/CMSIS/DSP/Source/TransformFunctions/arm_cfft_radix4_f32.c ****       /* xb' = (xa+yb-xc-yd)co1 + (ya-xb-yc+xd)(si1) */
 256:../../libDaisy//Drivers/CMSIS/DSP/Source/TransformFunctions/arm_cfft_radix4_f32.c ****       pSrc[2u * i2] = Xb12_out;
 257:../../libDaisy//Drivers/CMSIS/DSP/Source/TransformFunctions/arm_cfft_radix4_f32.c **** 
 258:../../libDaisy//Drivers/CMSIS/DSP/Source/TransformFunctions/arm_cfft_radix4_f32.c ****       /* yb' = (ya-xb-yc+xd)co1 - (xa+yb-xc-yd)(si1) */
 259:../../libDaisy//Drivers/CMSIS/DSP/Source/TransformFunctions/arm_cfft_radix4_f32.c ****       pSrc[(2u * i2) + 1u] = Yb12_out;
 260:../../libDaisy//Drivers/CMSIS/DSP/Source/TransformFunctions/arm_cfft_radix4_f32.c **** 
 261:../../libDaisy//Drivers/CMSIS/DSP/Source/TransformFunctions/arm_cfft_radix4_f32.c ****       /* xd' = (xa-yb-xc+yd)co3 + (ya+xb-yc-xd)(si3) */
 262:../../libDaisy//Drivers/CMSIS/DSP/Source/TransformFunctions/arm_cfft_radix4_f32.c ****       pSrc[2u * i3] = Xd12_out;
 263:../../libDaisy//Drivers/CMSIS/DSP/Source/TransformFunctions/arm_cfft_radix4_f32.c **** 
 264:../../libDaisy//Drivers/CMSIS/DSP/Source/TransformFunctions/arm_cfft_radix4_f32.c ****       /* yd' = (ya+xb-yc-xd)co3 - (xa-yb-xc+yd)(si3) */
 265:../../libDaisy//Drivers/CMSIS/DSP/Source/TransformFunctions/arm_cfft_radix4_f32.c ****       pSrc[(2u * i3) + 1u] = Yd12_out;
 266:../../libDaisy//Drivers/CMSIS/DSP/Source/TransformFunctions/arm_cfft_radix4_f32.c **** 
 267:../../libDaisy//Drivers/CMSIS/DSP/Source/TransformFunctions/arm_cfft_radix4_f32.c ****       /*  Twiddle coefficients index modifier */
 268:../../libDaisy//Drivers/CMSIS/DSP/Source/TransformFunctions/arm_cfft_radix4_f32.c ****       ia1 += twidCoefModifier;
  69              		.loc 1 268 11 is_stmt 0 view .LVU18
  70 0012 0346     		mov	r3, r0
  71              	.LVL3:
  72              		.loc 1 268 11 view .LVU19
ARM GAS  /var/folders/hl/qgbwny5j0fd895c2c41bk3tw0000gp/T//ccE84ZOm.s 			page 7


  73 0014 0AEB4A07 		add	r7, r10, r10, lsl #1
  74 0018 2646     		mov	r6, r4
  75 001a 00EB0911 		add	r1, r0, r9, lsl #4
  76              	.LVL4:
  77              		.loc 1 268 11 view .LVU20
  78 001e 9446     		mov	ip, r2
  79 0020 FF00     		lsls	r7, r7, #3
  80 0022 2546     		mov	r5, r4
  81 0024 4FEA0A18 		lsl	r8, r10, #4
  82 0028 4FEACA0E 		lsl	lr, r10, #3
 115:../../libDaisy//Drivers/CMSIS/DSP/Source/TransformFunctions/arm_cfft_radix4_f32.c **** 
  83              		.loc 1 115 1 view .LVU21
  84 002c 2DED068B 		vpush.64	{d8, d9, d10}
  85              		.cfi_def_cfa_offset 60
  86              		.cfi_offset 80, -60
  87              		.cfi_offset 81, -56
  88              		.cfi_offset 82, -52
  89              		.cfi_offset 83, -48
  90              		.cfi_offset 84, -44
  91              		.cfi_offset 85, -40
  92 0030 8DB0     		sub	sp, sp, #52
  93              		.cfi_def_cfa_offset 112
 115:../../libDaisy//Drivers/CMSIS/DSP/Source/TransformFunctions/arm_cfft_radix4_f32.c **** 
  94              		.loc 1 115 1 view .LVU22
  95 0032 0990     		str	r0, [sp, #36]
  96 0034 01EBC900 		add	r0, r1, r9, lsl #3
  97              	.LVL5:
 115:../../libDaisy//Drivers/CMSIS/DSP/Source/TransformFunctions/arm_cfft_radix4_f32.c **** 
  98              		.loc 1 115 1 view .LVU23
  99 0038 0A94     		str	r4, [sp, #40]
 140:../../libDaisy//Drivers/CMSIS/DSP/Source/TransformFunctions/arm_cfft_radix4_f32.c ****    i0 = 0u;
 100              		.loc 1 140 7 view .LVU24
 101 003a CDF80890 		str	r9, [sp, #8]
 102              	.LVL6:
 141:../../libDaisy//Drivers/CMSIS/DSP/Source/TransformFunctions/arm_cfft_radix4_f32.c ****    i0 = 0u;
 103              		.loc 1 141 4 is_stmt 1 view .LVU25
 142:../../libDaisy//Drivers/CMSIS/DSP/Source/TransformFunctions/arm_cfft_radix4_f32.c **** 
 104              		.loc 1 142 4 view .LVU26
 144:../../libDaisy//Drivers/CMSIS/DSP/Source/TransformFunctions/arm_cfft_radix4_f32.c **** 
 105              		.loc 1 144 4 view .LVU27
 106              	.L2:
 147:../../libDaisy//Drivers/CMSIS/DSP/Source/TransformFunctions/arm_cfft_radix4_f32.c ****    {
 107              		.loc 1 147 4 discriminator 1 view .LVU28
 151:../../libDaisy//Drivers/CMSIS/DSP/Source/TransformFunctions/arm_cfft_radix4_f32.c ****       i2 = i1 + n2;
 108              		.loc 1 151 7 discriminator 1 view .LVU29
 152:../../libDaisy//Drivers/CMSIS/DSP/Source/TransformFunctions/arm_cfft_radix4_f32.c ****       i3 = i2 + n2;
 109              		.loc 1 152 7 discriminator 1 view .LVU30
 153:../../libDaisy//Drivers/CMSIS/DSP/Source/TransformFunctions/arm_cfft_radix4_f32.c **** 
 110              		.loc 1 153 7 discriminator 1 view .LVU31
 155:../../libDaisy//Drivers/CMSIS/DSP/Source/TransformFunctions/arm_cfft_radix4_f32.c ****       yaIn = pSrc[(2u * i0) + 1u];
 111              		.loc 1 155 7 discriminator 1 view .LVU32
 155:../../libDaisy//Drivers/CMSIS/DSP/Source/TransformFunctions/arm_cfft_radix4_f32.c ****       yaIn = pSrc[(2u * i0) + 1u];
 112              		.loc 1 155 12 is_stmt 0 discriminator 1 view .LVU33
 113 003e 93ED007A 		vldr.32	s14, [r3]
 114              	.LVL7:
 156:../../libDaisy//Drivers/CMSIS/DSP/Source/TransformFunctions/arm_cfft_radix4_f32.c **** 
 115              		.loc 1 156 7 is_stmt 1 discriminator 1 view .LVU34
ARM GAS  /var/folders/hl/qgbwny5j0fd895c2c41bk3tw0000gp/T//ccE84ZOm.s 			page 8


 269:../../libDaisy//Drivers/CMSIS/DSP/Source/TransformFunctions/arm_cfft_radix4_f32.c **** 
 270:../../libDaisy//Drivers/CMSIS/DSP/Source/TransformFunctions/arm_cfft_radix4_f32.c ****       /*  Updating input index */
 271:../../libDaisy//Drivers/CMSIS/DSP/Source/TransformFunctions/arm_cfft_radix4_f32.c ****       i0++;
 272:../../libDaisy//Drivers/CMSIS/DSP/Source/TransformFunctions/arm_cfft_radix4_f32.c **** 
 273:../../libDaisy//Drivers/CMSIS/DSP/Source/TransformFunctions/arm_cfft_radix4_f32.c ****    }
 274:../../libDaisy//Drivers/CMSIS/DSP/Source/TransformFunctions/arm_cfft_radix4_f32.c ****    while (--j);
 116              		.loc 1 274 4 is_stmt 0 discriminator 1 view .LVU35
 117 0042 0833     		adds	r3, r3, #8
 161:../../libDaisy//Drivers/CMSIS/DSP/Source/TransformFunctions/arm_cfft_radix4_f32.c ****       ycIn = pSrc[(2u * i2) + 1u];
 118              		.loc 1 161 12 discriminator 1 view .LVU36
 119 0044 91ED002A 		vldr.32	s4, [r1]
 120              		.loc 1 274 4 discriminator 1 view .LVU37
 121 0048 0832     		adds	r2, r2, #8
 162:../../libDaisy//Drivers/CMSIS/DSP/Source/TransformFunctions/arm_cfft_radix4_f32.c **** 
 122              		.loc 1 162 12 discriminator 1 view .LVU38
 123 004a 91ED013A 		vldr.32	s6, [r1, #4]
 124              		.loc 1 274 4 discriminator 1 view .LVU39
 125 004e 0830     		adds	r0, r0, #8
 156:../../libDaisy//Drivers/CMSIS/DSP/Source/TransformFunctions/arm_cfft_radix4_f32.c **** 
 126              		.loc 1 156 12 discriminator 1 view .LVU40
 127 0050 53ED016A 		vldr.32	s13, [r3, #-4]
 128              	.LVL8:
 158:../../libDaisy//Drivers/CMSIS/DSP/Source/TransformFunctions/arm_cfft_radix4_f32.c ****       ybIn = pSrc[(2u * i1) + 1u];
 129              		.loc 1 158 7 is_stmt 1 discriminator 1 view .LVU41
 168:../../libDaisy//Drivers/CMSIS/DSP/Source/TransformFunctions/arm_cfft_radix4_f32.c ****       /* xb + xd */
 130              		.loc 1 168 15 is_stmt 0 discriminator 1 view .LVU42
 131 0054 77EE024A 		vadd.f32	s9, s14, s4
 164:../../libDaisy//Drivers/CMSIS/DSP/Source/TransformFunctions/arm_cfft_radix4_f32.c ****       ydIn = pSrc[(2u * i3) + 1u];
 132              		.loc 1 164 12 discriminator 1 view .LVU43
 133 0058 50ED022A 		vldr.32	s5, [r0, #-8]
 182:../../libDaisy//Drivers/CMSIS/DSP/Source/TransformFunctions/arm_cfft_radix4_f32.c ****       /* xb - xd */
 134              		.loc 1 182 16 discriminator 1 view .LVU44
 135 005c 37EE427A 		vsub.f32	s14, s14, s4
 136              	.LVL9:
 165:../../libDaisy//Drivers/CMSIS/DSP/Source/TransformFunctions/arm_cfft_radix4_f32.c **** 
 137              		.loc 1 165 12 discriminator 1 view .LVU45
 138 0060 50ED013A 		vldr.32	s7, [r0, #-4]
 172:../../libDaisy//Drivers/CMSIS/DSP/Source/TransformFunctions/arm_cfft_radix4_f32.c ****       /* yb + yd */
 139              		.loc 1 172 15 discriminator 1 view .LVU46
 140 0064 36EE835A 		vadd.f32	s10, s13, s6
 158:../../libDaisy//Drivers/CMSIS/DSP/Source/TransformFunctions/arm_cfft_radix4_f32.c ****       ybIn = pSrc[(2u * i1) + 1u];
 141              		.loc 1 158 12 discriminator 1 view .LVU47
 142 0068 52ED027A 		vldr.32	s15, [r2, #-8]
 143              	.LVL10:
 159:../../libDaisy//Drivers/CMSIS/DSP/Source/TransformFunctions/arm_cfft_radix4_f32.c **** 
 144              		.loc 1 159 7 is_stmt 1 discriminator 1 view .LVU48
 186:../../libDaisy//Drivers/CMSIS/DSP/Source/TransformFunctions/arm_cfft_radix4_f32.c ****       /* yb - yd */
 145              		.loc 1 186 16 is_stmt 0 discriminator 1 view .LVU49
 146 006c 76EEC36A 		vsub.f32	s13, s13, s6
 147              	.LVL11:
 159:../../libDaisy//Drivers/CMSIS/DSP/Source/TransformFunctions/arm_cfft_radix4_f32.c **** 
 148              		.loc 1 159 12 discriminator 1 view .LVU50
 149 0070 12ED016A 		vldr.32	s12, [r2, #-4]
 150              	.LVL12:
 161:../../libDaisy//Drivers/CMSIS/DSP/Source/TransformFunctions/arm_cfft_radix4_f32.c ****       ycIn = pSrc[(2u * i2) + 1u];
 151              		.loc 1 161 7 is_stmt 1 discriminator 1 view .LVU51
 162:../../libDaisy//Drivers/CMSIS/DSP/Source/TransformFunctions/arm_cfft_radix4_f32.c **** 
ARM GAS  /var/folders/hl/qgbwny5j0fd895c2c41bk3tw0000gp/T//ccE84ZOm.s 			page 9


 152              		.loc 1 162 7 discriminator 1 view .LVU52
 164:../../libDaisy//Drivers/CMSIS/DSP/Source/TransformFunctions/arm_cfft_radix4_f32.c ****       ydIn = pSrc[(2u * i3) + 1u];
 153              		.loc 1 164 7 discriminator 1 view .LVU53
 165:../../libDaisy//Drivers/CMSIS/DSP/Source/TransformFunctions/arm_cfft_radix4_f32.c **** 
 154              		.loc 1 165 7 discriminator 1 view .LVU54
 168:../../libDaisy//Drivers/CMSIS/DSP/Source/TransformFunctions/arm_cfft_radix4_f32.c ****       /* xb + xd */
 155              		.loc 1 168 7 discriminator 1 view .LVU55
 170:../../libDaisy//Drivers/CMSIS/DSP/Source/TransformFunctions/arm_cfft_radix4_f32.c ****       /* ya + yc */
 156              		.loc 1 170 7 discriminator 1 view .LVU56
 157              		.loc 1 274 4 is_stmt 0 discriminator 1 view .LVU57
 158 0074 0831     		adds	r1, r1, #8
 170:../../libDaisy//Drivers/CMSIS/DSP/Source/TransformFunctions/arm_cfft_radix4_f32.c ****       /* ya + yc */
 159              		.loc 1 170 15 discriminator 1 view .LVU58
 160 0076 37EEA24A 		vadd.f32	s8, s15, s5
 161              	.LVL13:
 172:../../libDaisy//Drivers/CMSIS/DSP/Source/TransformFunctions/arm_cfft_radix4_f32.c ****       /* yb + yd */
 162              		.loc 1 172 7 is_stmt 1 discriminator 1 view .LVU59
 174:../../libDaisy//Drivers/CMSIS/DSP/Source/TransformFunctions/arm_cfft_radix4_f32.c **** 
 163              		.loc 1 174 7 discriminator 1 view .LVU60
 178:../../libDaisy//Drivers/CMSIS/DSP/Source/TransformFunctions/arm_cfft_radix4_f32.c ****       si2 = pCoef[(ia2 * 2u) + 1u];
 164              		.loc 1 178 11 is_stmt 0 discriminator 1 view .LVU61
 165 007a 54ED010A 		vldr.32	s1, [r4, #-4]
 174:../../libDaisy//Drivers/CMSIS/DSP/Source/TransformFunctions/arm_cfft_radix4_f32.c **** 
 166              		.loc 1 174 15 discriminator 1 view .LVU62
 167 007e 76EE235A 		vadd.f32	s11, s12, s7
 168              	.LVL14:
 177:../../libDaisy//Drivers/CMSIS/DSP/Source/TransformFunctions/arm_cfft_radix4_f32.c ****       co2 = pCoef[ia2 * 2u];
 169              		.loc 1 177 7 is_stmt 1 discriminator 1 view .LVU63
 178:../../libDaisy//Drivers/CMSIS/DSP/Source/TransformFunctions/arm_cfft_radix4_f32.c ****       si2 = pCoef[(ia2 * 2u) + 1u];
 170              		.loc 1 178 7 discriminator 1 view .LVU64
 184:../../libDaisy//Drivers/CMSIS/DSP/Source/TransformFunctions/arm_cfft_radix4_f32.c ****       /* ya - yc */
 171              		.loc 1 184 16 is_stmt 0 discriminator 1 view .LVU65
 172 0082 77EEE27A 		vsub.f32	s15, s15, s5
 173              	.LVL15:
 188:../../libDaisy//Drivers/CMSIS/DSP/Source/TransformFunctions/arm_cfft_radix4_f32.c **** 
 174              		.loc 1 188 16 discriminator 1 view .LVU66
 175 0086 36EE636A 		vsub.f32	s12, s12, s7
 176              	.LVL16:
 191:../../libDaisy//Drivers/CMSIS/DSP/Source/TransformFunctions/arm_cfft_radix4_f32.c ****       /* ya' = ya + yb + yc + yd */
 177              		.loc 1 191 33 discriminator 1 view .LVU67
 178 008a 34EE843A 		vadd.f32	s6, s9, s8
 179              	.LVL17:
 193:../../libDaisy//Drivers/CMSIS/DSP/Source/TransformFunctions/arm_cfft_radix4_f32.c **** 
 180              		.loc 1 193 38 discriminator 1 view .LVU68
 181 008e 75EE253A 		vadd.f32	s7, s10, s11
 182              	.LVL18:
 200:../../libDaisy//Drivers/CMSIS/DSP/Source/TransformFunctions/arm_cfft_radix4_f32.c ****       /* (ya + yc) - (yb + yd) */
 183              		.loc 1 200 17 discriminator 1 view .LVU69
 184 0092 74EEC44A 		vsub.f32	s9, s9, s8
 185              	.LVL19:
 202:../../libDaisy//Drivers/CMSIS/DSP/Source/TransformFunctions/arm_cfft_radix4_f32.c ****       /* (xa - xc) - (yb - yd) */
 186              		.loc 1 202 17 discriminator 1 view .LVU70
 187 0096 35EE655A 		vsub.f32	s10, s10, s11
 188              	.LVL20:
 179:../../libDaisy//Drivers/CMSIS/DSP/Source/TransformFunctions/arm_cfft_radix4_f32.c **** 
 189              		.loc 1 179 11 discriminator 1 view .LVU71
 190 009a D4ED005A 		vldr.32	s11, [r4]
ARM GAS  /var/folders/hl/qgbwny5j0fd895c2c41bk3tw0000gp/T//ccE84ZOm.s 			page 10


 191              	.LVL21:
 198:../../libDaisy//Drivers/CMSIS/DSP/Source/TransformFunctions/arm_cfft_radix4_f32.c ****       /* (xa + xc) - (xb + xd) */
 192              		.loc 1 198 17 discriminator 1 view .LVU72
 193 009e 76EEE71A 		vsub.f32	s3, s13, s15
 191:../../libDaisy//Drivers/CMSIS/DSP/Source/TransformFunctions/arm_cfft_radix4_f32.c ****       /* ya' = ya + yb + yc + yd */
 194              		.loc 1 191 23 discriminator 1 view .LVU73
 195 00a2 03ED023A 		vstr.32	s6, [r3, #-8]
 196              	.LVL22:
 206:../../libDaisy//Drivers/CMSIS/DSP/Source/TransformFunctions/arm_cfft_radix4_f32.c **** 
 197              		.loc 1 206 17 discriminator 1 view .LVU74
 198 00a6 77EEA67A 		vadd.f32	s15, s15, s13
 193:../../libDaisy//Drivers/CMSIS/DSP/Source/TransformFunctions/arm_cfft_radix4_f32.c **** 
 199              		.loc 1 193 28 discriminator 1 view .LVU75
 200 00aa 43ED013A 		vstr.32	s7, [r3, #-4]
 201              	.LVL23:
 196:../../libDaisy//Drivers/CMSIS/DSP/Source/TransformFunctions/arm_cfft_radix4_f32.c ****       /* (ya - yc) + (xb - xd) */
 202              		.loc 1 196 17 discriminator 1 view .LVU76
 203 00ae 37EE061A 		vadd.f32	s2, s14, s12
 214:../../libDaisy//Drivers/CMSIS/DSP/Source/TransformFunctions/arm_cfft_radix4_f32.c **** 
 204              		.loc 1 214 11 discriminator 1 view .LVU77
 205 00b2 D6ED006A 		vldr.32	s13, [r6]
 204:../../libDaisy//Drivers/CMSIS/DSP/Source/TransformFunctions/arm_cfft_radix4_f32.c ****       /* (ya - yc) + (xb - xd) */
 206              		.loc 1 204 17 discriminator 1 view .LVU78
 207 00b6 37EE467A 		vsub.f32	s14, s14, s12
 208              	.LVL24:
 179:../../libDaisy//Drivers/CMSIS/DSP/Source/TransformFunctions/arm_cfft_radix4_f32.c **** 
 209              		.loc 1 179 7 is_stmt 1 discriminator 1 view .LVU79
 182:../../libDaisy//Drivers/CMSIS/DSP/Source/TransformFunctions/arm_cfft_radix4_f32.c ****       /* xb - xd */
 210              		.loc 1 182 7 discriminator 1 view .LVU80
 184:../../libDaisy//Drivers/CMSIS/DSP/Source/TransformFunctions/arm_cfft_radix4_f32.c ****       /* ya - yc */
 211              		.loc 1 184 7 discriminator 1 view .LVU81
 186:../../libDaisy//Drivers/CMSIS/DSP/Source/TransformFunctions/arm_cfft_radix4_f32.c ****       /* yb - yd */
 212              		.loc 1 186 7 discriminator 1 view .LVU82
 188:../../libDaisy//Drivers/CMSIS/DSP/Source/TransformFunctions/arm_cfft_radix4_f32.c **** 
 213              		.loc 1 188 7 discriminator 1 view .LVU83
 191:../../libDaisy//Drivers/CMSIS/DSP/Source/TransformFunctions/arm_cfft_radix4_f32.c ****       /* ya' = ya + yb + yc + yd */
 214              		.loc 1 191 7 discriminator 1 view .LVU84
 193:../../libDaisy//Drivers/CMSIS/DSP/Source/TransformFunctions/arm_cfft_radix4_f32.c **** 
 215              		.loc 1 193 7 discriminator 1 view .LVU85
 196:../../libDaisy//Drivers/CMSIS/DSP/Source/TransformFunctions/arm_cfft_radix4_f32.c ****       /* (ya - yc) + (xb - xd) */
 216              		.loc 1 196 7 discriminator 1 view .LVU86
 198:../../libDaisy//Drivers/CMSIS/DSP/Source/TransformFunctions/arm_cfft_radix4_f32.c ****       /* (xa + xc) - (xb + xd) */
 217              		.loc 1 198 7 discriminator 1 view .LVU87
 200:../../libDaisy//Drivers/CMSIS/DSP/Source/TransformFunctions/arm_cfft_radix4_f32.c ****       /* (ya + yc) - (yb + yd) */
 218              		.loc 1 200 7 discriminator 1 view .LVU88
 202:../../libDaisy//Drivers/CMSIS/DSP/Source/TransformFunctions/arm_cfft_radix4_f32.c ****       /* (xa - xc) - (yb - yd) */
 219              		.loc 1 202 7 discriminator 1 view .LVU89
 204:../../libDaisy//Drivers/CMSIS/DSP/Source/TransformFunctions/arm_cfft_radix4_f32.c ****       /* (ya - yc) + (xb - xd) */
 220              		.loc 1 204 7 discriminator 1 view .LVU90
 206:../../libDaisy//Drivers/CMSIS/DSP/Source/TransformFunctions/arm_cfft_radix4_f32.c **** 
 221              		.loc 1 206 7 discriminator 1 view .LVU91
 208:../../libDaisy//Drivers/CMSIS/DSP/Source/TransformFunctions/arm_cfft_radix4_f32.c ****       si1 = pCoef[(ia1 * 2u) + 1u];
 222              		.loc 1 208 7 discriminator 1 view .LVU92
 209:../../libDaisy//Drivers/CMSIS/DSP/Source/TransformFunctions/arm_cfft_radix4_f32.c **** 
 223              		.loc 1 209 11 is_stmt 0 discriminator 1 view .LVU93
 224 00ba 95ED006A 		vldr.32	s12, [r5]
 225              	.LVL25:
ARM GAS  /var/folders/hl/qgbwny5j0fd895c2c41bk3tw0000gp/T//ccE84ZOm.s 			page 11


 231:../../libDaisy//Drivers/CMSIS/DSP/Source/TransformFunctions/arm_cfft_radix4_f32.c ****       /* yc' = (ya-yb+yc-yd)co2 + (xa-xb+xc-xd)(si2) */
 226              		.loc 1 231 10 discriminator 1 view .LVU94
 227 00be 25EE853A 		vmul.f32	s6, s11, s10
 208:../../libDaisy//Drivers/CMSIS/DSP/Source/TransformFunctions/arm_cfft_radix4_f32.c ****       si1 = pCoef[(ia1 * 2u) + 1u];
 228              		.loc 1 208 11 discriminator 1 view .LVU95
 229 00c2 15ED012A 		vldr.32	s4, [r5, #-4]
 230              	.LVL26:
 245:../../libDaisy//Drivers/CMSIS/DSP/Source/TransformFunctions/arm_cfft_radix4_f32.c ****       Xd12_out += p4;
 231              		.loc 1 245 16 discriminator 1 view .LVU96
 232 00c6 64EEE55A 		vnmul.f32	s11, s9, s11
 233              	.LVL27:
 213:../../libDaisy//Drivers/CMSIS/DSP/Source/TransformFunctions/arm_cfft_radix4_f32.c ****       si3 = pCoef[(ia3 * 2u) + 1u];
 234              		.loc 1 213 11 discriminator 1 view .LVU97
 235 00ca 56ED012A 		vldr.32	s5, [r6, #-4]
 236              	.LVL28:
 237:../../libDaisy//Drivers/CMSIS/DSP/Source/TransformFunctions/arm_cfft_radix4_f32.c ****       /* yd' = (ya+xb-yc-xd)co3 + (xa-yb-xc+yd)(si3) */
 237              		.loc 1 237 10 discriminator 1 view .LVU98
 238 00ce 27EEA64A 		vmul.f32	s8, s15, s13
 239              	.LVL29:
 240              		.loc 1 274 4 discriminator 1 view .LVU99
 241 00d2 9C45     		cmp	ip, r3
 225:../../libDaisy//Drivers/CMSIS/DSP/Source/TransformFunctions/arm_cfft_radix4_f32.c ****       /* yb' = (ya-xb-yc+xd)co1 + (xa+yb-xc-yd)(si1) */
 242              		.loc 1 225 10 discriminator 1 view .LVU100
 243 00d4 61EE863A 		vmul.f32	s7, s3, s12
 244              		.loc 1 274 4 discriminator 1 view .LVU101
 245 00d8 4444     		add	r4, r4, r8
 244:../../libDaisy//Drivers/CMSIS/DSP/Source/TransformFunctions/arm_cfft_radix4_f32.c ****       Yc12_out -= p3;
 246              		.loc 1 244 16 discriminator 1 view .LVU102
 247 00da A0EEA43A 		vfma.f32	s6, s1, s9
 248              		.loc 1 274 4 discriminator 1 view .LVU103
 249 00de 7544     		add	r5, r5, lr
 245:../../libDaisy//Drivers/CMSIS/DSP/Source/TransformFunctions/arm_cfft_radix4_f32.c ****       Xd12_out += p4;
 250              		.loc 1 245 16 discriminator 1 view .LVU104
 251 00e0 E0EE855A 		vfma.f32	s11, s1, s10
 252              		.loc 1 274 4 discriminator 1 view .LVU105
 253 00e4 3E44     		add	r6, r6, r7
 243:../../libDaisy//Drivers/CMSIS/DSP/Source/TransformFunctions/arm_cfft_radix4_f32.c ****       Xc12_out += p2;
 254              		.loc 1 243 16 discriminator 1 view .LVU106
 255 00e6 26EE416A 		vnmul.f32	s12, s12, s2
 256              	.LVL30:
 209:../../libDaisy//Drivers/CMSIS/DSP/Source/TransformFunctions/arm_cfft_radix4_f32.c **** 
 257              		.loc 1 209 7 is_stmt 1 discriminator 1 view .LVU107
 212:../../libDaisy//Drivers/CMSIS/DSP/Source/TransformFunctions/arm_cfft_radix4_f32.c ****       co3 = pCoef[ia3 * 2u];
 258              		.loc 1 212 7 discriminator 1 view .LVU108
 213:../../libDaisy//Drivers/CMSIS/DSP/Source/TransformFunctions/arm_cfft_radix4_f32.c ****       si3 = pCoef[(ia3 * 2u) + 1u];
 259              		.loc 1 213 7 discriminator 1 view .LVU109
 214:../../libDaisy//Drivers/CMSIS/DSP/Source/TransformFunctions/arm_cfft_radix4_f32.c **** 
 260              		.loc 1 214 7 discriminator 1 view .LVU110
 216:../../libDaisy//Drivers/CMSIS/DSP/Source/TransformFunctions/arm_cfft_radix4_f32.c ****       Yb12_out = Yb12C_out * co1;
 261              		.loc 1 216 7 discriminator 1 view .LVU111
 217:../../libDaisy//Drivers/CMSIS/DSP/Source/TransformFunctions/arm_cfft_radix4_f32.c ****       Xc12_out = Xc12C_out * co2;
 262              		.loc 1 217 7 discriminator 1 view .LVU112
 218:../../libDaisy//Drivers/CMSIS/DSP/Source/TransformFunctions/arm_cfft_radix4_f32.c ****       Yc12_out = Yc12C_out * co2;
 263              		.loc 1 218 7 discriminator 1 view .LVU113
 219:../../libDaisy//Drivers/CMSIS/DSP/Source/TransformFunctions/arm_cfft_radix4_f32.c ****       Xd12_out = Xd12C_out * co3;
 264              		.loc 1 219 7 discriminator 1 view .LVU114
 220:../../libDaisy//Drivers/CMSIS/DSP/Source/TransformFunctions/arm_cfft_radix4_f32.c ****       Yd12_out = Yd12C_out * co3;
ARM GAS  /var/folders/hl/qgbwny5j0fd895c2c41bk3tw0000gp/T//ccE84ZOm.s 			page 12


 265              		.loc 1 220 7 discriminator 1 view .LVU115
 221:../../libDaisy//Drivers/CMSIS/DSP/Source/TransformFunctions/arm_cfft_radix4_f32.c **** 
 266              		.loc 1 221 7 discriminator 1 view .LVU116
 225:../../libDaisy//Drivers/CMSIS/DSP/Source/TransformFunctions/arm_cfft_radix4_f32.c ****       /* yb' = (ya-xb-yc+xd)co1 + (xa+yb-xc-yd)(si1) */
 267              		.loc 1 225 7 discriminator 1 view .LVU117
 228:../../libDaisy//Drivers/CMSIS/DSP/Source/TransformFunctions/arm_cfft_radix4_f32.c ****       /* xc' = (xa-xb+xc-xd)co2 - (ya-yb+yc-yd)(si2) */
 268              		.loc 1 228 7 discriminator 1 view .LVU118
 231:../../libDaisy//Drivers/CMSIS/DSP/Source/TransformFunctions/arm_cfft_radix4_f32.c ****       /* yc' = (ya-yb+yc-yd)co2 + (xa-xb+xc-xd)(si2) */
 269              		.loc 1 231 7 discriminator 1 view .LVU119
 234:../../libDaisy//Drivers/CMSIS/DSP/Source/TransformFunctions/arm_cfft_radix4_f32.c ****       /* xd' = (xa-yb-xc+yd)co3 - (ya+xb-yc-xd)(si3) */
 270              		.loc 1 234 7 discriminator 1 view .LVU120
 237:../../libDaisy//Drivers/CMSIS/DSP/Source/TransformFunctions/arm_cfft_radix4_f32.c ****       /* yd' = (ya+xb-yc-xd)co3 + (xa-yb-xc+yd)(si3) */
 271              		.loc 1 237 7 discriminator 1 view .LVU121
 240:../../libDaisy//Drivers/CMSIS/DSP/Source/TransformFunctions/arm_cfft_radix4_f32.c **** 
 272              		.loc 1 240 7 discriminator 1 view .LVU122
 242:../../libDaisy//Drivers/CMSIS/DSP/Source/TransformFunctions/arm_cfft_radix4_f32.c ****       Yb12_out -= p1;
 273              		.loc 1 242 7 discriminator 1 view .LVU123
 247:../../libDaisy//Drivers/CMSIS/DSP/Source/TransformFunctions/arm_cfft_radix4_f32.c **** 
 274              		.loc 1 247 16 is_stmt 0 discriminator 1 view .LVU124
 275 00ea 66EEC76A 		vnmul.f32	s13, s13, s14
 276              	.LVL31:
 242:../../libDaisy//Drivers/CMSIS/DSP/Source/TransformFunctions/arm_cfft_radix4_f32.c ****       Yb12_out -= p1;
 277              		.loc 1 242 16 discriminator 1 view .LVU125
 278 00ee F0EE634A 		vmov.f32	s9, s7
 279              	.LVL32:
 246:../../libDaisy//Drivers/CMSIS/DSP/Source/TransformFunctions/arm_cfft_radix4_f32.c ****       Yd12_out -= p5;
 280              		.loc 1 246 16 discriminator 1 view .LVU126
 281 00f2 B0EE445A 		vmov.f32	s10, s8
 282              	.LVL33:
 243:../../libDaisy//Drivers/CMSIS/DSP/Source/TransformFunctions/arm_cfft_radix4_f32.c ****       Xc12_out += p2;
 283              		.loc 1 243 16 discriminator 1 view .LVU127
 284 00f6 A1EE826A 		vfma.f32	s12, s3, s4
 250:../../libDaisy//Drivers/CMSIS/DSP/Source/TransformFunctions/arm_cfft_radix4_f32.c **** 
 285              		.loc 1 250 21 discriminator 1 view .LVU128
 286 00fa 02ED023A 		vstr.32	s6, [r2, #-8]
 242:../../libDaisy//Drivers/CMSIS/DSP/Source/TransformFunctions/arm_cfft_radix4_f32.c ****       Yb12_out -= p1;
 287              		.loc 1 242 16 discriminator 1 view .LVU129
 288 00fe E1EE024A 		vfma.f32	s9, s2, s4
 289              	.LVL34:
 243:../../libDaisy//Drivers/CMSIS/DSP/Source/TransformFunctions/arm_cfft_radix4_f32.c ****       Xc12_out += p2;
 290              		.loc 1 243 7 is_stmt 1 discriminator 1 view .LVU130
 244:../../libDaisy//Drivers/CMSIS/DSP/Source/TransformFunctions/arm_cfft_radix4_f32.c ****       Yc12_out -= p3;
 291              		.loc 1 244 7 discriminator 1 view .LVU131
 245:../../libDaisy//Drivers/CMSIS/DSP/Source/TransformFunctions/arm_cfft_radix4_f32.c ****       Xd12_out += p4;
 292              		.loc 1 245 7 discriminator 1 view .LVU132
 246:../../libDaisy//Drivers/CMSIS/DSP/Source/TransformFunctions/arm_cfft_radix4_f32.c ****       Yd12_out -= p5;
 293              		.loc 1 246 7 discriminator 1 view .LVU133
 253:../../libDaisy//Drivers/CMSIS/DSP/Source/TransformFunctions/arm_cfft_radix4_f32.c **** 
 294              		.loc 1 253 28 is_stmt 0 discriminator 1 view .LVU134
 295 0102 42ED015A 		vstr.32	s11, [r2, #-4]
 246:../../libDaisy//Drivers/CMSIS/DSP/Source/TransformFunctions/arm_cfft_radix4_f32.c ****       Yd12_out -= p5;
 296              		.loc 1 246 16 discriminator 1 view .LVU135
 297 0106 A7EE225A 		vfma.f32	s10, s14, s5
 298              	.LVL35:
 247:../../libDaisy//Drivers/CMSIS/DSP/Source/TransformFunctions/arm_cfft_radix4_f32.c **** 
 299              		.loc 1 247 7 is_stmt 1 discriminator 1 view .LVU136
 247:../../libDaisy//Drivers/CMSIS/DSP/Source/TransformFunctions/arm_cfft_radix4_f32.c **** 
ARM GAS  /var/folders/hl/qgbwny5j0fd895c2c41bk3tw0000gp/T//ccE84ZOm.s 			page 13


 300              		.loc 1 247 16 is_stmt 0 discriminator 1 view .LVU137
 301 010a E7EEA26A 		vfma.f32	s13, s15, s5
 302              	.LVL36:
 250:../../libDaisy//Drivers/CMSIS/DSP/Source/TransformFunctions/arm_cfft_radix4_f32.c **** 
 303              		.loc 1 250 7 is_stmt 1 discriminator 1 view .LVU138
 253:../../libDaisy//Drivers/CMSIS/DSP/Source/TransformFunctions/arm_cfft_radix4_f32.c **** 
 304              		.loc 1 253 7 discriminator 1 view .LVU139
 256:../../libDaisy//Drivers/CMSIS/DSP/Source/TransformFunctions/arm_cfft_radix4_f32.c **** 
 305              		.loc 1 256 7 discriminator 1 view .LVU140
 259:../../libDaisy//Drivers/CMSIS/DSP/Source/TransformFunctions/arm_cfft_radix4_f32.c **** 
 306              		.loc 1 259 28 is_stmt 0 discriminator 1 view .LVU141
 307 010e 01ED016A 		vstr.32	s12, [r1, #-4]
 256:../../libDaisy//Drivers/CMSIS/DSP/Source/TransformFunctions/arm_cfft_radix4_f32.c **** 
 308              		.loc 1 256 21 discriminator 1 view .LVU142
 309 0112 41ED024A 		vstr.32	s9, [r1, #-8]
 259:../../libDaisy//Drivers/CMSIS/DSP/Source/TransformFunctions/arm_cfft_radix4_f32.c **** 
 310              		.loc 1 259 7 is_stmt 1 discriminator 1 view .LVU143
 262:../../libDaisy//Drivers/CMSIS/DSP/Source/TransformFunctions/arm_cfft_radix4_f32.c **** 
 311              		.loc 1 262 7 discriminator 1 view .LVU144
 262:../../libDaisy//Drivers/CMSIS/DSP/Source/TransformFunctions/arm_cfft_radix4_f32.c **** 
 312              		.loc 1 262 21 is_stmt 0 discriminator 1 view .LVU145
 313 0116 00ED025A 		vstr.32	s10, [r0, #-8]
 265:../../libDaisy//Drivers/CMSIS/DSP/Source/TransformFunctions/arm_cfft_radix4_f32.c **** 
 314              		.loc 1 265 7 is_stmt 1 discriminator 1 view .LVU146
 265:../../libDaisy//Drivers/CMSIS/DSP/Source/TransformFunctions/arm_cfft_radix4_f32.c **** 
 315              		.loc 1 265 28 is_stmt 0 discriminator 1 view .LVU147
 316 011a 40ED016A 		vstr.32	s13, [r0, #-4]
 268:../../libDaisy//Drivers/CMSIS/DSP/Source/TransformFunctions/arm_cfft_radix4_f32.c **** 
 317              		.loc 1 268 7 is_stmt 1 discriminator 1 view .LVU148
 271:../../libDaisy//Drivers/CMSIS/DSP/Source/TransformFunctions/arm_cfft_radix4_f32.c **** 
 318              		.loc 1 271 7 discriminator 1 view .LVU149
 319              		.loc 1 274 10 discriminator 1 view .LVU150
 320              		.loc 1 274 4 is_stmt 0 discriminator 1 view .LVU151
 321 011e 8ED1     		bne	.L2
 275:../../libDaisy//Drivers/CMSIS/DSP/Source/TransformFunctions/arm_cfft_radix4_f32.c **** 
 276:../../libDaisy//Drivers/CMSIS/DSP/Source/TransformFunctions/arm_cfft_radix4_f32.c ****    twidCoefModifier <<= 2u;
 322              		.loc 1 276 4 is_stmt 1 view .LVU152
 323              		.loc 1 276 21 is_stmt 0 view .LVU153
 324 0120 4FEA8A0A 		lsl	r10, r10, #2
 277:../../libDaisy//Drivers/CMSIS/DSP/Source/TransformFunctions/arm_cfft_radix4_f32.c **** 
 278:../../libDaisy//Drivers/CMSIS/DSP/Source/TransformFunctions/arm_cfft_radix4_f32.c ****    /*  Calculation of second stage to excluding last stage */
 279:../../libDaisy//Drivers/CMSIS/DSP/Source/TransformFunctions/arm_cfft_radix4_f32.c ****    for (k = fftLen >> 2u; k > 4u; k >>= 2u)
 325              		.loc 1 279 4 view .LVU154
 326 0124 B9F1040F 		cmp	r9, #4
 276:../../libDaisy//Drivers/CMSIS/DSP/Source/TransformFunctions/arm_cfft_radix4_f32.c **** 
 327              		.loc 1 276 21 view .LVU155
 328 0128 1FFA8AF3 		uxth	r3, r10
 329 012c 0793     		str	r3, [sp, #28]
 330              	.LVL37:
 331              		.loc 1 279 4 is_stmt 1 view .LVU156
 332              		.loc 1 279 20 is_stmt 0 view .LVU157
 333 012e 1FFA89F3 		uxth	r3, r9
 334 0132 0B93     		str	r3, [sp, #44]
 335              	.LVL38:
 336              		.loc 1 279 27 is_stmt 1 view .LVU158
 337              		.loc 1 279 4 is_stmt 0 view .LVU159
 338 0134 40F2B080 		bls	.L7
ARM GAS  /var/folders/hl/qgbwny5j0fd895c2c41bk3tw0000gp/T//ccE84ZOm.s 			page 14


 339 0138 0B9B     		ldr	r3, [sp, #44]
 340              		.loc 1 279 4 view .LVU160
 341 013a 0893     		str	r3, [sp, #32]
 342              	.LVL39:
 343              	.L3:
 280:../../libDaisy//Drivers/CMSIS/DSP/Source/TransformFunctions/arm_cfft_radix4_f32.c ****    {
 281:../../libDaisy//Drivers/CMSIS/DSP/Source/TransformFunctions/arm_cfft_radix4_f32.c ****       /*  Initializations for the first stage */
 282:../../libDaisy//Drivers/CMSIS/DSP/Source/TransformFunctions/arm_cfft_radix4_f32.c ****       n1 = n2;
 344              		.loc 1 282 7 is_stmt 1 view .LVU161
 283:../../libDaisy//Drivers/CMSIS/DSP/Source/TransformFunctions/arm_cfft_radix4_f32.c ****       n2 >>= 2u;
 345              		.loc 1 283 7 view .LVU162
 346 013c 079A     		ldr	r2, [sp, #28]
 284:../../libDaisy//Drivers/CMSIS/DSP/Source/TransformFunctions/arm_cfft_radix4_f32.c ****       ia1 = 0u;
 285:../../libDaisy//Drivers/CMSIS/DSP/Source/TransformFunctions/arm_cfft_radix4_f32.c **** 
 286:../../libDaisy//Drivers/CMSIS/DSP/Source/TransformFunctions/arm_cfft_radix4_f32.c ****       /*  Calculation of first stage */
 287:../../libDaisy//Drivers/CMSIS/DSP/Source/TransformFunctions/arm_cfft_radix4_f32.c ****       j = 0;
 347              		.loc 1 287 9 is_stmt 0 view .LVU163
 348 013e 4FF0000E 		mov	lr, #0
 349 0142 0299     		ldr	r1, [sp, #8]
 350 0144 02EB4203 		add	r3, r2, r2, lsl #1
 288:../../libDaisy//Drivers/CMSIS/DSP/Source/TransformFunctions/arm_cfft_radix4_f32.c ****       do
 289:../../libDaisy//Drivers/CMSIS/DSP/Source/TransformFunctions/arm_cfft_radix4_f32.c ****       {
 290:../../libDaisy//Drivers/CMSIS/DSP/Source/TransformFunctions/arm_cfft_radix4_f32.c ****          /*  index calculation for the coefficients */
 291:../../libDaisy//Drivers/CMSIS/DSP/Source/TransformFunctions/arm_cfft_radix4_f32.c ****          ia2 = ia1 + ia1;
 292:../../libDaisy//Drivers/CMSIS/DSP/Source/TransformFunctions/arm_cfft_radix4_f32.c ****          ia3 = ia2 + ia1;
 293:../../libDaisy//Drivers/CMSIS/DSP/Source/TransformFunctions/arm_cfft_radix4_f32.c ****          co1 = pCoef[ia1 * 2u];
 294:../../libDaisy//Drivers/CMSIS/DSP/Source/TransformFunctions/arm_cfft_radix4_f32.c ****          si1 = pCoef[(ia1 * 2u) + 1u];
 295:../../libDaisy//Drivers/CMSIS/DSP/Source/TransformFunctions/arm_cfft_radix4_f32.c ****          co2 = pCoef[ia2 * 2u];
 296:../../libDaisy//Drivers/CMSIS/DSP/Source/TransformFunctions/arm_cfft_radix4_f32.c ****          si2 = pCoef[(ia2 * 2u) + 1u];
 297:../../libDaisy//Drivers/CMSIS/DSP/Source/TransformFunctions/arm_cfft_radix4_f32.c ****          co3 = pCoef[ia3 * 2u];
 298:../../libDaisy//Drivers/CMSIS/DSP/Source/TransformFunctions/arm_cfft_radix4_f32.c ****          si3 = pCoef[(ia3 * 2u) + 1u];
 299:../../libDaisy//Drivers/CMSIS/DSP/Source/TransformFunctions/arm_cfft_radix4_f32.c **** 
 300:../../libDaisy//Drivers/CMSIS/DSP/Source/TransformFunctions/arm_cfft_radix4_f32.c ****          /*  Twiddle coefficients index modifier */
 301:../../libDaisy//Drivers/CMSIS/DSP/Source/TransformFunctions/arm_cfft_radix4_f32.c ****          ia1 += twidCoefModifier;
 351              		.loc 1 301 14 view .LVU164
 352 0148 DDF82880 		ldr	r8, [sp, #40]
 353 014c D000     		lsls	r0, r2, #3
 354 014e 0F46     		mov	r7, r1
 355 0150 DB00     		lsls	r3, r3, #3
 356 0152 C246     		mov	r10, r8
 283:../../libDaisy//Drivers/CMSIS/DSP/Source/TransformFunctions/arm_cfft_radix4_f32.c ****       ia1 = 0u;
 357              		.loc 1 283 10 view .LVU165
 358 0154 8908     		lsrs	r1, r1, #2
 359 0156 0590     		str	r0, [sp, #20]
 360 0158 1201     		lsls	r2, r2, #4
 361 015a 0693     		str	r3, [sp, #24]
 362 015c 099B     		ldr	r3, [sp, #36]
 363 015e F800     		lsls	r0, r7, #3
 364 0160 0492     		str	r2, [sp, #16]
 365              		.loc 1 301 14 view .LVU166
 366 0162 C146     		mov	r9, r8
 367 0164 03EB0112 		add	r2, r3, r1, lsl #4
 368 0168 9C46     		mov	ip, r3
 283:../../libDaisy//Drivers/CMSIS/DSP/Source/TransformFunctions/arm_cfft_radix4_f32.c ****       ia1 = 0u;
 369              		.loc 1 283 10 view .LVU167
 370 016a 0291     		str	r1, [sp, #8]
 371              	.LVL40:
ARM GAS  /var/folders/hl/qgbwny5j0fd895c2c41bk3tw0000gp/T//ccE84ZOm.s 			page 15


 284:../../libDaisy//Drivers/CMSIS/DSP/Source/TransformFunctions/arm_cfft_radix4_f32.c ****       ia1 = 0u;
 372              		.loc 1 284 7 is_stmt 1 view .LVU168
 287:../../libDaisy//Drivers/CMSIS/DSP/Source/TransformFunctions/arm_cfft_radix4_f32.c ****       do
 373              		.loc 1 287 7 view .LVU169
 287:../../libDaisy//Drivers/CMSIS/DSP/Source/TransformFunctions/arm_cfft_radix4_f32.c ****       do
 374              		.loc 1 287 7 is_stmt 0 view .LVU170
 375 016c 0192     		str	r2, [sp, #4]
 376 016e CA00     		lsls	r2, r1, #3
 377 0170 0392     		str	r2, [sp, #12]
 378              	.LVL41:
 379              	.L6:
 288:../../libDaisy//Drivers/CMSIS/DSP/Source/TransformFunctions/arm_cfft_radix4_f32.c ****       do
 380              		.loc 1 288 7 is_stmt 1 view .LVU171
 291:../../libDaisy//Drivers/CMSIS/DSP/Source/TransformFunctions/arm_cfft_radix4_f32.c ****          ia3 = ia2 + ia1;
 381              		.loc 1 291 10 view .LVU172
 292:../../libDaisy//Drivers/CMSIS/DSP/Source/TransformFunctions/arm_cfft_radix4_f32.c ****          co1 = pCoef[ia1 * 2u];
 382              		.loc 1 292 10 view .LVU173
 293:../../libDaisy//Drivers/CMSIS/DSP/Source/TransformFunctions/arm_cfft_radix4_f32.c ****          si1 = pCoef[(ia1 * 2u) + 1u];
 383              		.loc 1 293 10 view .LVU174
 384 0172 039B     		ldr	r3, [sp, #12]
 385 0174 0CF10405 		add	r5, ip, #4
 386 0178 019C     		ldr	r4, [sp, #4]
 302:../../libDaisy//Drivers/CMSIS/DSP/Source/TransformFunctions/arm_cfft_radix4_f32.c **** 
 303:../../libDaisy//Drivers/CMSIS/DSP/Source/TransformFunctions/arm_cfft_radix4_f32.c ****          i0 = j;
 387              		.loc 1 303 13 is_stmt 0 view .LVU175
 388 017a 7646     		mov	r6, lr
 389 017c 03EB0C01 		add	r1, r3, ip
 293:../../libDaisy//Drivers/CMSIS/DSP/Source/TransformFunctions/arm_cfft_radix4_f32.c ****          si1 = pCoef[(ia1 * 2u) + 1u];
 390              		.loc 1 293 14 view .LVU176
 391 0180 58ED01AA 		vldr.32	s21, [r8, #-4]
 392              	.LVL42:
 294:../../libDaisy//Drivers/CMSIS/DSP/Source/TransformFunctions/arm_cfft_radix4_f32.c ****          co2 = pCoef[ia2 * 2u];
 393              		.loc 1 294 10 is_stmt 1 view .LVU177
 394 0184 1A19     		adds	r2, r3, r4
 294:../../libDaisy//Drivers/CMSIS/DSP/Source/TransformFunctions/arm_cfft_radix4_f32.c ****          co2 = pCoef[ia2 * 2u];
 395              		.loc 1 294 14 is_stmt 0 view .LVU178
 396 0186 98ED00AA 		vldr.32	s20, [r8]
 397              	.LVL43:
 295:../../libDaisy//Drivers/CMSIS/DSP/Source/TransformFunctions/arm_cfft_radix4_f32.c ****          si2 = pCoef[(ia2 * 2u) + 1u];
 398              		.loc 1 295 10 is_stmt 1 view .LVU179
 298:../../libDaisy//Drivers/CMSIS/DSP/Source/TransformFunctions/arm_cfft_radix4_f32.c **** 
 399              		.loc 1 298 14 is_stmt 0 view .LVU180
 400 018a 2346     		mov	r3, r4
 295:../../libDaisy//Drivers/CMSIS/DSP/Source/TransformFunctions/arm_cfft_radix4_f32.c ****          si2 = pCoef[(ia2 * 2u) + 1u];
 401              		.loc 1 295 14 view .LVU181
 402 018c 59ED019A 		vldr.32	s19, [r9, #-4]
 403              	.LVL44:
 296:../../libDaisy//Drivers/CMSIS/DSP/Source/TransformFunctions/arm_cfft_radix4_f32.c ****          co3 = pCoef[ia3 * 2u];
 404              		.loc 1 296 10 is_stmt 1 view .LVU182
 296:../../libDaisy//Drivers/CMSIS/DSP/Source/TransformFunctions/arm_cfft_radix4_f32.c ****          co3 = pCoef[ia3 * 2u];
 405              		.loc 1 296 14 is_stmt 0 view .LVU183
 406 0190 99ED009A 		vldr.32	s18, [r9]
 407              	.LVL45:
 297:../../libDaisy//Drivers/CMSIS/DSP/Source/TransformFunctions/arm_cfft_radix4_f32.c ****          si3 = pCoef[(ia3 * 2u) + 1u];
 408              		.loc 1 297 10 is_stmt 1 view .LVU184
 298:../../libDaisy//Drivers/CMSIS/DSP/Source/TransformFunctions/arm_cfft_radix4_f32.c **** 
 409              		.loc 1 298 14 is_stmt 0 view .LVU185
ARM GAS  /var/folders/hl/qgbwny5j0fd895c2c41bk3tw0000gp/T//ccE84ZOm.s 			page 16


 410 0194 6446     		mov	r4, ip
 297:../../libDaisy//Drivers/CMSIS/DSP/Source/TransformFunctions/arm_cfft_radix4_f32.c ****          si3 = pCoef[(ia3 * 2u) + 1u];
 411              		.loc 1 297 14 view .LVU186
 412 0196 5AED018A 		vldr.32	s17, [r10, #-4]
 413              	.LVL46:
 298:../../libDaisy//Drivers/CMSIS/DSP/Source/TransformFunctions/arm_cfft_radix4_f32.c **** 
 414              		.loc 1 298 10 is_stmt 1 view .LVU187
 298:../../libDaisy//Drivers/CMSIS/DSP/Source/TransformFunctions/arm_cfft_radix4_f32.c **** 
 415              		.loc 1 298 14 is_stmt 0 view .LVU188
 416 019a 9AED008A 		vldr.32	s16, [r10]
 417              	.LVL47:
 301:../../libDaisy//Drivers/CMSIS/DSP/Source/TransformFunctions/arm_cfft_radix4_f32.c **** 
 418              		.loc 1 301 10 is_stmt 1 view .LVU189
 419              		.loc 1 303 10 view .LVU190
 420              	.L5:
 304:../../libDaisy//Drivers/CMSIS/DSP/Source/TransformFunctions/arm_cfft_radix4_f32.c ****          do
 421              		.loc 1 304 10 discriminator 1 view .LVU191
 305:../../libDaisy//Drivers/CMSIS/DSP/Source/TransformFunctions/arm_cfft_radix4_f32.c ****          {
 306:../../libDaisy//Drivers/CMSIS/DSP/Source/TransformFunctions/arm_cfft_radix4_f32.c ****             /*  index calculation for the input as, */
 307:../../libDaisy//Drivers/CMSIS/DSP/Source/TransformFunctions/arm_cfft_radix4_f32.c ****             /*  pSrc[i0 + 0], pSrc[i0 + fftLen/4], pSrc[i0 + fftLen/2], pSrc[i0 + 3fftLen/4] */
 308:../../libDaisy//Drivers/CMSIS/DSP/Source/TransformFunctions/arm_cfft_radix4_f32.c ****             i1 = i0 + n2;
 422              		.loc 1 308 13 discriminator 1 view .LVU192
 309:../../libDaisy//Drivers/CMSIS/DSP/Source/TransformFunctions/arm_cfft_radix4_f32.c ****             i2 = i1 + n2;
 423              		.loc 1 309 13 discriminator 1 view .LVU193
 310:../../libDaisy//Drivers/CMSIS/DSP/Source/TransformFunctions/arm_cfft_radix4_f32.c ****             i3 = i2 + n2;
 424              		.loc 1 310 13 discriminator 1 view .LVU194
 311:../../libDaisy//Drivers/CMSIS/DSP/Source/TransformFunctions/arm_cfft_radix4_f32.c **** 
 312:../../libDaisy//Drivers/CMSIS/DSP/Source/TransformFunctions/arm_cfft_radix4_f32.c ****             xaIn = pSrc[(2u * i0)];
 425              		.loc 1 312 13 discriminator 1 view .LVU195
 426              		.loc 1 312 18 is_stmt 0 discriminator 1 view .LVU196
 427 019e 15ED012A 		vldr.32	s4, [r5, #-4]
 428              	.LVL48:
 313:../../libDaisy//Drivers/CMSIS/DSP/Source/TransformFunctions/arm_cfft_radix4_f32.c ****             yaIn = pSrc[(2u * i0) + 1u];
 429              		.loc 1 313 13 is_stmt 1 discriminator 1 view .LVU197
 314:../../libDaisy//Drivers/CMSIS/DSP/Source/TransformFunctions/arm_cfft_radix4_f32.c **** 
 315:../../libDaisy//Drivers/CMSIS/DSP/Source/TransformFunctions/arm_cfft_radix4_f32.c ****             xbIn = pSrc[(2u * i1)];
 316:../../libDaisy//Drivers/CMSIS/DSP/Source/TransformFunctions/arm_cfft_radix4_f32.c ****             ybIn = pSrc[(2u * i1) + 1u];
 317:../../libDaisy//Drivers/CMSIS/DSP/Source/TransformFunctions/arm_cfft_radix4_f32.c **** 
 318:../../libDaisy//Drivers/CMSIS/DSP/Source/TransformFunctions/arm_cfft_radix4_f32.c ****             xcIn = pSrc[(2u * i2)];
 319:../../libDaisy//Drivers/CMSIS/DSP/Source/TransformFunctions/arm_cfft_radix4_f32.c ****             ycIn = pSrc[(2u * i2) + 1u];
 320:../../libDaisy//Drivers/CMSIS/DSP/Source/TransformFunctions/arm_cfft_radix4_f32.c **** 
 321:../../libDaisy//Drivers/CMSIS/DSP/Source/TransformFunctions/arm_cfft_radix4_f32.c ****             xdIn = pSrc[(2u * i3)];
 322:../../libDaisy//Drivers/CMSIS/DSP/Source/TransformFunctions/arm_cfft_radix4_f32.c ****             ydIn = pSrc[(2u * i3) + 1u];
 323:../../libDaisy//Drivers/CMSIS/DSP/Source/TransformFunctions/arm_cfft_radix4_f32.c **** 
 324:../../libDaisy//Drivers/CMSIS/DSP/Source/TransformFunctions/arm_cfft_radix4_f32.c ****             /* xa - xc */
 325:../../libDaisy//Drivers/CMSIS/DSP/Source/TransformFunctions/arm_cfft_radix4_f32.c ****             Xaminusc = xaIn - xcIn;
 326:../../libDaisy//Drivers/CMSIS/DSP/Source/TransformFunctions/arm_cfft_radix4_f32.c ****             /* (xb - xd) */
 327:../../libDaisy//Drivers/CMSIS/DSP/Source/TransformFunctions/arm_cfft_radix4_f32.c ****             Xbminusd = xbIn - xdIn;
 328:../../libDaisy//Drivers/CMSIS/DSP/Source/TransformFunctions/arm_cfft_radix4_f32.c ****             /* ya - yc */
 329:../../libDaisy//Drivers/CMSIS/DSP/Source/TransformFunctions/arm_cfft_radix4_f32.c ****             Yaminusc = yaIn - ycIn;
 330:../../libDaisy//Drivers/CMSIS/DSP/Source/TransformFunctions/arm_cfft_radix4_f32.c ****             /* (yb - yd) */
 331:../../libDaisy//Drivers/CMSIS/DSP/Source/TransformFunctions/arm_cfft_radix4_f32.c ****             Ybminusd = ybIn - ydIn;
 332:../../libDaisy//Drivers/CMSIS/DSP/Source/TransformFunctions/arm_cfft_radix4_f32.c **** 
 333:../../libDaisy//Drivers/CMSIS/DSP/Source/TransformFunctions/arm_cfft_radix4_f32.c ****             /* xa + xc */
 334:../../libDaisy//Drivers/CMSIS/DSP/Source/TransformFunctions/arm_cfft_radix4_f32.c ****             Xaplusc = xaIn + xcIn;
 335:../../libDaisy//Drivers/CMSIS/DSP/Source/TransformFunctions/arm_cfft_radix4_f32.c ****             /* xb + xd */
 336:../../libDaisy//Drivers/CMSIS/DSP/Source/TransformFunctions/arm_cfft_radix4_f32.c ****             Xbplusd = xbIn + xdIn;
ARM GAS  /var/folders/hl/qgbwny5j0fd895c2c41bk3tw0000gp/T//ccE84ZOm.s 			page 17


 337:../../libDaisy//Drivers/CMSIS/DSP/Source/TransformFunctions/arm_cfft_radix4_f32.c ****             /* ya + yc */
 338:../../libDaisy//Drivers/CMSIS/DSP/Source/TransformFunctions/arm_cfft_radix4_f32.c ****             Yaplusc = yaIn + ycIn;
 339:../../libDaisy//Drivers/CMSIS/DSP/Source/TransformFunctions/arm_cfft_radix4_f32.c ****             /* yb + yd */
 340:../../libDaisy//Drivers/CMSIS/DSP/Source/TransformFunctions/arm_cfft_radix4_f32.c ****             Ybplusd = ybIn + ydIn;
 341:../../libDaisy//Drivers/CMSIS/DSP/Source/TransformFunctions/arm_cfft_radix4_f32.c **** 
 342:../../libDaisy//Drivers/CMSIS/DSP/Source/TransformFunctions/arm_cfft_radix4_f32.c ****             /* (xa - xc) + (yb - yd) */
 343:../../libDaisy//Drivers/CMSIS/DSP/Source/TransformFunctions/arm_cfft_radix4_f32.c ****             Xb12C_out = (Xaminusc + Ybminusd);
 344:../../libDaisy//Drivers/CMSIS/DSP/Source/TransformFunctions/arm_cfft_radix4_f32.c ****             /* (ya - yc) -  (xb - xd) */
 345:../../libDaisy//Drivers/CMSIS/DSP/Source/TransformFunctions/arm_cfft_radix4_f32.c ****             Yb12C_out = (Yaminusc - Xbminusd);
 346:../../libDaisy//Drivers/CMSIS/DSP/Source/TransformFunctions/arm_cfft_radix4_f32.c ****             /* xa + xc -(xb + xd) */
 347:../../libDaisy//Drivers/CMSIS/DSP/Source/TransformFunctions/arm_cfft_radix4_f32.c ****             Xc12C_out = (Xaplusc - Xbplusd);
 348:../../libDaisy//Drivers/CMSIS/DSP/Source/TransformFunctions/arm_cfft_radix4_f32.c ****             /* (ya + yc) - (yb + yd) */
 349:../../libDaisy//Drivers/CMSIS/DSP/Source/TransformFunctions/arm_cfft_radix4_f32.c ****             Yc12C_out = (Yaplusc - Ybplusd);
 350:../../libDaisy//Drivers/CMSIS/DSP/Source/TransformFunctions/arm_cfft_radix4_f32.c ****             /* (xa - xc) - (yb - yd) */
 351:../../libDaisy//Drivers/CMSIS/DSP/Source/TransformFunctions/arm_cfft_radix4_f32.c ****             Xd12C_out = (Xaminusc - Ybminusd);
 352:../../libDaisy//Drivers/CMSIS/DSP/Source/TransformFunctions/arm_cfft_radix4_f32.c ****             /* (ya - yc) +  (xb - xd) */
 353:../../libDaisy//Drivers/CMSIS/DSP/Source/TransformFunctions/arm_cfft_radix4_f32.c ****             Yd12C_out = (Xbminusd + Yaminusc);
 354:../../libDaisy//Drivers/CMSIS/DSP/Source/TransformFunctions/arm_cfft_radix4_f32.c **** 
 355:../../libDaisy//Drivers/CMSIS/DSP/Source/TransformFunctions/arm_cfft_radix4_f32.c ****             pSrc[(2u * i0)] = Xaplusc + Xbplusd;
 356:../../libDaisy//Drivers/CMSIS/DSP/Source/TransformFunctions/arm_cfft_radix4_f32.c ****             pSrc[(2u * i0) + 1u] = Yaplusc + Ybplusd;
 357:../../libDaisy//Drivers/CMSIS/DSP/Source/TransformFunctions/arm_cfft_radix4_f32.c **** 
 358:../../libDaisy//Drivers/CMSIS/DSP/Source/TransformFunctions/arm_cfft_radix4_f32.c ****             Xb12_out = Xb12C_out * co1;
 359:../../libDaisy//Drivers/CMSIS/DSP/Source/TransformFunctions/arm_cfft_radix4_f32.c ****             Yb12_out = Yb12C_out * co1;
 360:../../libDaisy//Drivers/CMSIS/DSP/Source/TransformFunctions/arm_cfft_radix4_f32.c ****             Xc12_out = Xc12C_out * co2;
 361:../../libDaisy//Drivers/CMSIS/DSP/Source/TransformFunctions/arm_cfft_radix4_f32.c ****             Yc12_out = Yc12C_out * co2;
 362:../../libDaisy//Drivers/CMSIS/DSP/Source/TransformFunctions/arm_cfft_radix4_f32.c ****             Xd12_out = Xd12C_out * co3;
 363:../../libDaisy//Drivers/CMSIS/DSP/Source/TransformFunctions/arm_cfft_radix4_f32.c ****             Yd12_out = Yd12C_out * co3;
 364:../../libDaisy//Drivers/CMSIS/DSP/Source/TransformFunctions/arm_cfft_radix4_f32.c **** 
 365:../../libDaisy//Drivers/CMSIS/DSP/Source/TransformFunctions/arm_cfft_radix4_f32.c ****             /* xb' = (xa+yb-xc-yd)co1 - (ya-xb-yc+xd)(si1) */
 366:../../libDaisy//Drivers/CMSIS/DSP/Source/TransformFunctions/arm_cfft_radix4_f32.c ****             //Xb12_out -= Yb12C_out * si1;
 367:../../libDaisy//Drivers/CMSIS/DSP/Source/TransformFunctions/arm_cfft_radix4_f32.c ****             p0 = Yb12C_out * si1;
 368:../../libDaisy//Drivers/CMSIS/DSP/Source/TransformFunctions/arm_cfft_radix4_f32.c ****             /* yb' = (ya-xb-yc+xd)co1 + (xa+yb-xc-yd)(si1) */
 369:../../libDaisy//Drivers/CMSIS/DSP/Source/TransformFunctions/arm_cfft_radix4_f32.c ****             //Yb12_out += Xb12C_out * si1;
 370:../../libDaisy//Drivers/CMSIS/DSP/Source/TransformFunctions/arm_cfft_radix4_f32.c ****             p1 = Xb12C_out * si1;
 371:../../libDaisy//Drivers/CMSIS/DSP/Source/TransformFunctions/arm_cfft_radix4_f32.c ****             /* xc' = (xa-xb+xc-xd)co2 - (ya-yb+yc-yd)(si2) */
 372:../../libDaisy//Drivers/CMSIS/DSP/Source/TransformFunctions/arm_cfft_radix4_f32.c ****             //Xc12_out -= Yc12C_out * si2;
 373:../../libDaisy//Drivers/CMSIS/DSP/Source/TransformFunctions/arm_cfft_radix4_f32.c ****             p2 = Yc12C_out * si2;
 374:../../libDaisy//Drivers/CMSIS/DSP/Source/TransformFunctions/arm_cfft_radix4_f32.c ****             /* yc' = (ya-yb+yc-yd)co2 + (xa-xb+xc-xd)(si2) */
 375:../../libDaisy//Drivers/CMSIS/DSP/Source/TransformFunctions/arm_cfft_radix4_f32.c ****             //Yc12_out += Xc12C_out * si2;
 376:../../libDaisy//Drivers/CMSIS/DSP/Source/TransformFunctions/arm_cfft_radix4_f32.c ****             p3 = Xc12C_out * si2;
 377:../../libDaisy//Drivers/CMSIS/DSP/Source/TransformFunctions/arm_cfft_radix4_f32.c ****             /* xd' = (xa-yb-xc+yd)co3 - (ya+xb-yc-xd)(si3) */
 378:../../libDaisy//Drivers/CMSIS/DSP/Source/TransformFunctions/arm_cfft_radix4_f32.c ****             //Xd12_out -= Yd12C_out * si3;
 379:../../libDaisy//Drivers/CMSIS/DSP/Source/TransformFunctions/arm_cfft_radix4_f32.c ****             p4 = Yd12C_out * si3;
 380:../../libDaisy//Drivers/CMSIS/DSP/Source/TransformFunctions/arm_cfft_radix4_f32.c ****             /* yd' = (ya+xb-yc-xd)co3 + (xa-yb-xc+yd)(si3) */
 381:../../libDaisy//Drivers/CMSIS/DSP/Source/TransformFunctions/arm_cfft_radix4_f32.c ****             //Yd12_out += Xd12C_out * si3;
 382:../../libDaisy//Drivers/CMSIS/DSP/Source/TransformFunctions/arm_cfft_radix4_f32.c ****             p5 = Xd12C_out * si3;
 383:../../libDaisy//Drivers/CMSIS/DSP/Source/TransformFunctions/arm_cfft_radix4_f32.c **** 
 384:../../libDaisy//Drivers/CMSIS/DSP/Source/TransformFunctions/arm_cfft_radix4_f32.c ****             Xb12_out += p0;
 385:../../libDaisy//Drivers/CMSIS/DSP/Source/TransformFunctions/arm_cfft_radix4_f32.c ****             Yb12_out -= p1;
 386:../../libDaisy//Drivers/CMSIS/DSP/Source/TransformFunctions/arm_cfft_radix4_f32.c ****             Xc12_out += p2;
 387:../../libDaisy//Drivers/CMSIS/DSP/Source/TransformFunctions/arm_cfft_radix4_f32.c ****             Yc12_out -= p3;
 388:../../libDaisy//Drivers/CMSIS/DSP/Source/TransformFunctions/arm_cfft_radix4_f32.c ****             Xd12_out += p4;
 389:../../libDaisy//Drivers/CMSIS/DSP/Source/TransformFunctions/arm_cfft_radix4_f32.c ****             Yd12_out -= p5;
 390:../../libDaisy//Drivers/CMSIS/DSP/Source/TransformFunctions/arm_cfft_radix4_f32.c **** 
 391:../../libDaisy//Drivers/CMSIS/DSP/Source/TransformFunctions/arm_cfft_radix4_f32.c ****             /* xc' = (xa-xb+xc-xd)co2 + (ya-yb+yc-yd)(si2) */
 392:../../libDaisy//Drivers/CMSIS/DSP/Source/TransformFunctions/arm_cfft_radix4_f32.c ****             pSrc[2u * i1] = Xc12_out;
 393:../../libDaisy//Drivers/CMSIS/DSP/Source/TransformFunctions/arm_cfft_radix4_f32.c **** 
ARM GAS  /var/folders/hl/qgbwny5j0fd895c2c41bk3tw0000gp/T//ccE84ZOm.s 			page 18


 394:../../libDaisy//Drivers/CMSIS/DSP/Source/TransformFunctions/arm_cfft_radix4_f32.c ****             /* yc' = (ya-yb+yc-yd)co2 - (xa-xb+xc-xd)(si2) */
 395:../../libDaisy//Drivers/CMSIS/DSP/Source/TransformFunctions/arm_cfft_radix4_f32.c ****             pSrc[(2u * i1) + 1u] = Yc12_out;
 396:../../libDaisy//Drivers/CMSIS/DSP/Source/TransformFunctions/arm_cfft_radix4_f32.c **** 
 397:../../libDaisy//Drivers/CMSIS/DSP/Source/TransformFunctions/arm_cfft_radix4_f32.c ****             /* xb' = (xa+yb-xc-yd)co1 + (ya-xb-yc+xd)(si1) */
 398:../../libDaisy//Drivers/CMSIS/DSP/Source/TransformFunctions/arm_cfft_radix4_f32.c ****             pSrc[2u * i2] = Xb12_out;
 399:../../libDaisy//Drivers/CMSIS/DSP/Source/TransformFunctions/arm_cfft_radix4_f32.c **** 
 400:../../libDaisy//Drivers/CMSIS/DSP/Source/TransformFunctions/arm_cfft_radix4_f32.c ****             /* yb' = (ya-xb-yc+xd)co1 - (xa+yb-xc-yd)(si1) */
 401:../../libDaisy//Drivers/CMSIS/DSP/Source/TransformFunctions/arm_cfft_radix4_f32.c ****             pSrc[(2u * i2) + 1u] = Yb12_out;
 402:../../libDaisy//Drivers/CMSIS/DSP/Source/TransformFunctions/arm_cfft_radix4_f32.c **** 
 403:../../libDaisy//Drivers/CMSIS/DSP/Source/TransformFunctions/arm_cfft_radix4_f32.c ****             /* xd' = (xa-yb-xc+yd)co3 + (ya+xb-yc-xd)(si3) */
 404:../../libDaisy//Drivers/CMSIS/DSP/Source/TransformFunctions/arm_cfft_radix4_f32.c ****             pSrc[2u * i3] = Xd12_out;
 405:../../libDaisy//Drivers/CMSIS/DSP/Source/TransformFunctions/arm_cfft_radix4_f32.c **** 
 406:../../libDaisy//Drivers/CMSIS/DSP/Source/TransformFunctions/arm_cfft_radix4_f32.c ****             /* yd' = (ya+xb-yc-xd)co3 - (xa-yb-xc+yd)(si3) */
 407:../../libDaisy//Drivers/CMSIS/DSP/Source/TransformFunctions/arm_cfft_radix4_f32.c ****             pSrc[(2u * i3) + 1u] = Yd12_out;
 408:../../libDaisy//Drivers/CMSIS/DSP/Source/TransformFunctions/arm_cfft_radix4_f32.c **** 
 409:../../libDaisy//Drivers/CMSIS/DSP/Source/TransformFunctions/arm_cfft_radix4_f32.c ****             i0 += n1;
 430              		.loc 1 409 16 is_stmt 0 discriminator 1 view .LVU198
 431 01a2 3E44     		add	r6, r6, r7
 432              	.LVL49:
 313:../../libDaisy//Drivers/CMSIS/DSP/Source/TransformFunctions/arm_cfft_radix4_f32.c ****             yaIn = pSrc[(2u * i0) + 1u];
 433              		.loc 1 313 18 discriminator 1 view .LVU199
 434 01a4 94ED013A 		vldr.32	s6, [r4, #4]
 435              	.LVL50:
 315:../../libDaisy//Drivers/CMSIS/DSP/Source/TransformFunctions/arm_cfft_radix4_f32.c ****             ybIn = pSrc[(2u * i1) + 1u];
 436              		.loc 1 315 13 is_stmt 1 discriminator 1 view .LVU200
 315:../../libDaisy//Drivers/CMSIS/DSP/Source/TransformFunctions/arm_cfft_radix4_f32.c ****             ybIn = pSrc[(2u * i1) + 1u];
 437              		.loc 1 315 18 is_stmt 0 discriminator 1 view .LVU201
 438 01a8 D1ED002A 		vldr.32	s5, [r1]
 439              	.LVL51:
 316:../../libDaisy//Drivers/CMSIS/DSP/Source/TransformFunctions/arm_cfft_radix4_f32.c **** 
 440              		.loc 1 316 13 is_stmt 1 discriminator 1 view .LVU202
 410:../../libDaisy//Drivers/CMSIS/DSP/Source/TransformFunctions/arm_cfft_radix4_f32.c ****          } while (i0 < fftLen);
 441              		.loc 1 410 10 is_stmt 0 discriminator 1 view .LVU203
 442 01ac B345     		cmp	fp, r6
 316:../../libDaisy//Drivers/CMSIS/DSP/Source/TransformFunctions/arm_cfft_radix4_f32.c **** 
 443              		.loc 1 316 18 discriminator 1 view .LVU204
 444 01ae D1ED013A 		vldr.32	s7, [r1, #4]
 445              	.LVL52:
 318:../../libDaisy//Drivers/CMSIS/DSP/Source/TransformFunctions/arm_cfft_radix4_f32.c ****             ycIn = pSrc[(2u * i2) + 1u];
 446              		.loc 1 318 13 is_stmt 1 discriminator 1 view .LVU205
 318:../../libDaisy//Drivers/CMSIS/DSP/Source/TransformFunctions/arm_cfft_radix4_f32.c ****             ycIn = pSrc[(2u * i2) + 1u];
 447              		.loc 1 318 18 is_stmt 0 discriminator 1 view .LVU206
 448 01b2 93ED007A 		vldr.32	s14, [r3]
 449              	.LVL53:
 319:../../libDaisy//Drivers/CMSIS/DSP/Source/TransformFunctions/arm_cfft_radix4_f32.c **** 
 450              		.loc 1 319 13 is_stmt 1 discriminator 1 view .LVU207
 319:../../libDaisy//Drivers/CMSIS/DSP/Source/TransformFunctions/arm_cfft_radix4_f32.c **** 
 451              		.loc 1 319 18 is_stmt 0 discriminator 1 view .LVU208
 452 01b6 D3ED017A 		vldr.32	s15, [r3, #4]
 453              	.LVL54:
 321:../../libDaisy//Drivers/CMSIS/DSP/Source/TransformFunctions/arm_cfft_radix4_f32.c ****             ydIn = pSrc[(2u * i3) + 1u];
 454              		.loc 1 321 13 is_stmt 1 discriminator 1 view .LVU209
 321:../../libDaisy//Drivers/CMSIS/DSP/Source/TransformFunctions/arm_cfft_radix4_f32.c ****             ydIn = pSrc[(2u * i3) + 1u];
 455              		.loc 1 321 18 is_stmt 0 discriminator 1 view .LVU210
 456 01ba D2ED006A 		vldr.32	s13, [r2]
 457              	.LVL55:
 322:../../libDaisy//Drivers/CMSIS/DSP/Source/TransformFunctions/arm_cfft_radix4_f32.c **** 
ARM GAS  /var/folders/hl/qgbwny5j0fd895c2c41bk3tw0000gp/T//ccE84ZOm.s 			page 19


 458              		.loc 1 322 13 is_stmt 1 discriminator 1 view .LVU211
 325:../../libDaisy//Drivers/CMSIS/DSP/Source/TransformFunctions/arm_cfft_radix4_f32.c ****             /* (xb - xd) */
 459              		.loc 1 325 22 is_stmt 0 discriminator 1 view .LVU212
 460 01be 32EE476A 		vsub.f32	s12, s4, s14
 322:../../libDaisy//Drivers/CMSIS/DSP/Source/TransformFunctions/arm_cfft_radix4_f32.c **** 
 461              		.loc 1 322 18 discriminator 1 view .LVU213
 462 01c2 92ED015A 		vldr.32	s10, [r2, #4]
 463              	.LVL56:
 325:../../libDaisy//Drivers/CMSIS/DSP/Source/TransformFunctions/arm_cfft_radix4_f32.c ****             /* (xb - xd) */
 464              		.loc 1 325 13 is_stmt 1 discriminator 1 view .LVU214
 327:../../libDaisy//Drivers/CMSIS/DSP/Source/TransformFunctions/arm_cfft_radix4_f32.c ****             /* ya - yc */
 465              		.loc 1 327 13 discriminator 1 view .LVU215
 329:../../libDaisy//Drivers/CMSIS/DSP/Source/TransformFunctions/arm_cfft_radix4_f32.c ****             /* (yb - yd) */
 466              		.loc 1 329 22 is_stmt 0 discriminator 1 view .LVU216
 467 01c6 73EE674A 		vsub.f32	s9, s6, s15
 327:../../libDaisy//Drivers/CMSIS/DSP/Source/TransformFunctions/arm_cfft_radix4_f32.c ****             /* ya - yc */
 468              		.loc 1 327 22 discriminator 1 view .LVU217
 469 01ca 72EEE65A 		vsub.f32	s11, s5, s13
 470              	.LVL57:
 329:../../libDaisy//Drivers/CMSIS/DSP/Source/TransformFunctions/arm_cfft_radix4_f32.c ****             /* (yb - yd) */
 471              		.loc 1 329 13 is_stmt 1 discriminator 1 view .LVU218
 331:../../libDaisy//Drivers/CMSIS/DSP/Source/TransformFunctions/arm_cfft_radix4_f32.c **** 
 472              		.loc 1 331 13 discriminator 1 view .LVU219
 331:../../libDaisy//Drivers/CMSIS/DSP/Source/TransformFunctions/arm_cfft_radix4_f32.c **** 
 473              		.loc 1 331 22 is_stmt 0 discriminator 1 view .LVU220
 474 01ce 33EEC54A 		vsub.f32	s8, s7, s10
 475              	.LVL58:
 334:../../libDaisy//Drivers/CMSIS/DSP/Source/TransformFunctions/arm_cfft_radix4_f32.c ****             /* xb + xd */
 476              		.loc 1 334 13 is_stmt 1 discriminator 1 view .LVU221
 334:../../libDaisy//Drivers/CMSIS/DSP/Source/TransformFunctions/arm_cfft_radix4_f32.c ****             /* xb + xd */
 477              		.loc 1 334 21 is_stmt 0 discriminator 1 view .LVU222
 478 01d2 32EE077A 		vadd.f32	s14, s4, s14
 479              	.LVL59:
 336:../../libDaisy//Drivers/CMSIS/DSP/Source/TransformFunctions/arm_cfft_radix4_f32.c ****             /* ya + yc */
 480              		.loc 1 336 13 is_stmt 1 discriminator 1 view .LVU223
 345:../../libDaisy//Drivers/CMSIS/DSP/Source/TransformFunctions/arm_cfft_radix4_f32.c ****             /* xa + xc -(xb + xd) */
 481              		.loc 1 345 23 is_stmt 0 discriminator 1 view .LVU224
 482 01d6 74EEE50A 		vsub.f32	s1, s9, s11
 343:../../libDaisy//Drivers/CMSIS/DSP/Source/TransformFunctions/arm_cfft_radix4_f32.c ****             /* (ya - yc) -  (xb - xd) */
 483              		.loc 1 343 23 discriminator 1 view .LVU225
 484 01da 36EE040A 		vadd.f32	s0, s12, s8
 353:../../libDaisy//Drivers/CMSIS/DSP/Source/TransformFunctions/arm_cfft_radix4_f32.c **** 
 485              		.loc 1 353 23 discriminator 1 view .LVU226
 486 01de 75EEA45A 		vadd.f32	s11, s11, s9
 487              	.LVL60:
 336:../../libDaisy//Drivers/CMSIS/DSP/Source/TransformFunctions/arm_cfft_radix4_f32.c ****             /* ya + yc */
 488              		.loc 1 336 21 discriminator 1 view .LVU227
 489 01e2 72EEA66A 		vadd.f32	s13, s5, s13
 490              	.LVL61:
 338:../../libDaisy//Drivers/CMSIS/DSP/Source/TransformFunctions/arm_cfft_radix4_f32.c ****             /* yb + yd */
 491              		.loc 1 338 13 is_stmt 1 discriminator 1 view .LVU228
 338:../../libDaisy//Drivers/CMSIS/DSP/Source/TransformFunctions/arm_cfft_radix4_f32.c ****             /* yb + yd */
 492              		.loc 1 338 21 is_stmt 0 discriminator 1 view .LVU229
 493 01e6 73EE277A 		vadd.f32	s15, s6, s15
 494              	.LVL62:
 340:../../libDaisy//Drivers/CMSIS/DSP/Source/TransformFunctions/arm_cfft_radix4_f32.c **** 
 495              		.loc 1 340 13 is_stmt 1 discriminator 1 view .LVU230
ARM GAS  /var/folders/hl/qgbwny5j0fd895c2c41bk3tw0000gp/T//ccE84ZOm.s 			page 20


 340:../../libDaisy//Drivers/CMSIS/DSP/Source/TransformFunctions/arm_cfft_radix4_f32.c **** 
 496              		.loc 1 340 21 is_stmt 0 discriminator 1 view .LVU231
 497 01ea 33EE855A 		vadd.f32	s10, s7, s10
 498              	.LVL63:
 343:../../libDaisy//Drivers/CMSIS/DSP/Source/TransformFunctions/arm_cfft_radix4_f32.c ****             /* (ya - yc) -  (xb - xd) */
 499              		.loc 1 343 13 is_stmt 1 discriminator 1 view .LVU232
 345:../../libDaisy//Drivers/CMSIS/DSP/Source/TransformFunctions/arm_cfft_radix4_f32.c ****             /* xa + xc -(xb + xd) */
 500              		.loc 1 345 13 discriminator 1 view .LVU233
 347:../../libDaisy//Drivers/CMSIS/DSP/Source/TransformFunctions/arm_cfft_radix4_f32.c ****             /* (ya + yc) - (yb + yd) */
 501              		.loc 1 347 13 discriminator 1 view .LVU234
 351:../../libDaisy//Drivers/CMSIS/DSP/Source/TransformFunctions/arm_cfft_radix4_f32.c ****             /* (ya - yc) +  (xb - xd) */
 502              		.loc 1 351 23 is_stmt 0 discriminator 1 view .LVU235
 503 01ee 36EE446A 		vsub.f32	s12, s12, s8
 504              	.LVL64:
 347:../../libDaisy//Drivers/CMSIS/DSP/Source/TransformFunctions/arm_cfft_radix4_f32.c ****             /* (ya + yc) - (yb + yd) */
 505              		.loc 1 347 23 discriminator 1 view .LVU236
 506 01f2 77EE661A 		vsub.f32	s3, s14, s13
 507              	.LVL65:
 349:../../libDaisy//Drivers/CMSIS/DSP/Source/TransformFunctions/arm_cfft_radix4_f32.c ****             /* (xa - xc) - (yb - yd) */
 508              		.loc 1 349 13 is_stmt 1 discriminator 1 view .LVU237
 349:../../libDaisy//Drivers/CMSIS/DSP/Source/TransformFunctions/arm_cfft_radix4_f32.c ****             /* (xa - xc) - (yb - yd) */
 509              		.loc 1 349 23 is_stmt 0 discriminator 1 view .LVU238
 510 01f6 37EEC51A 		vsub.f32	s2, s15, s10
 511              	.LVL66:
 351:../../libDaisy//Drivers/CMSIS/DSP/Source/TransformFunctions/arm_cfft_radix4_f32.c ****             /* (ya - yc) +  (xb - xd) */
 512              		.loc 1 351 13 is_stmt 1 discriminator 1 view .LVU239
 353:../../libDaisy//Drivers/CMSIS/DSP/Source/TransformFunctions/arm_cfft_radix4_f32.c **** 
 513              		.loc 1 353 13 discriminator 1 view .LVU240
 355:../../libDaisy//Drivers/CMSIS/DSP/Source/TransformFunctions/arm_cfft_radix4_f32.c ****             pSrc[(2u * i0) + 1u] = Yaplusc + Ybplusd;
 514              		.loc 1 355 13 discriminator 1 view .LVU241
 389:../../libDaisy//Drivers/CMSIS/DSP/Source/TransformFunctions/arm_cfft_radix4_f32.c **** 
 515              		.loc 1 389 22 is_stmt 0 discriminator 1 view .LVU242
 516 01fa 66EE484A 		vnmul.f32	s9, s12, s16
 517              	.LVL67:
 379:../../libDaisy//Drivers/CMSIS/DSP/Source/TransformFunctions/arm_cfft_radix4_f32.c ****             /* yd' = (ya+xb-yc-xd)co3 + (xa-yb-xc+yd)(si3) */
 518              		.loc 1 379 16 discriminator 1 view .LVU243
 519 01fe 28EE254A 		vmul.f32	s8, s16, s11
 520              	.LVL68:
 367:../../libDaisy//Drivers/CMSIS/DSP/Source/TransformFunctions/arm_cfft_radix4_f32.c ****             /* yb' = (ya-xb-yc+xd)co1 + (xa+yb-xc-yd)(si1) */
 521              		.loc 1 367 16 discriminator 1 view .LVU244
 522 0202 2AEE203A 		vmul.f32	s6, s20, s1
 523              	.LVL69:
 389:../../libDaisy//Drivers/CMSIS/DSP/Source/TransformFunctions/arm_cfft_radix4_f32.c **** 
 524              		.loc 1 389 22 discriminator 1 view .LVU245
 525 0206 E8EEA54A 		vfma.f32	s9, s17, s11
 385:../../libDaisy//Drivers/CMSIS/DSP/Source/TransformFunctions/arm_cfft_radix4_f32.c ****             Xc12_out += p2;
 526              		.loc 1 385 22 discriminator 1 view .LVU246
 527 020a 60EE4A3A 		vnmul.f32	s7, s0, s20
 528              	.LVL70:
 387:../../libDaisy//Drivers/CMSIS/DSP/Source/TransformFunctions/arm_cfft_radix4_f32.c ****             Xd12_out += p4;
 529              		.loc 1 387 22 discriminator 1 view .LVU247
 530 020e 21EEC92A 		vnmul.f32	s4, s3, s18
 531              	.LVL71:
 373:../../libDaisy//Drivers/CMSIS/DSP/Source/TransformFunctions/arm_cfft_radix4_f32.c ****             /* yc' = (ya-yb+yc-yd)co2 + (xa-xb+xc-xd)(si2) */
 532              		.loc 1 373 16 discriminator 1 view .LVU248
 533 0212 69EE012A 		vmul.f32	s5, s18, s2
 534              	.LVL72:
ARM GAS  /var/folders/hl/qgbwny5j0fd895c2c41bk3tw0000gp/T//ccE84ZOm.s 			page 21


 388:../../libDaisy//Drivers/CMSIS/DSP/Source/TransformFunctions/arm_cfft_radix4_f32.c ****             Yd12_out -= p5;
 535              		.loc 1 388 22 discriminator 1 view .LVU249
 536 0216 F0EE445A 		vmov.f32	s11, s8
 537              	.LVL73:
 384:../../libDaisy//Drivers/CMSIS/DSP/Source/TransformFunctions/arm_cfft_radix4_f32.c ****             Yb12_out -= p1;
 538              		.loc 1 384 22 discriminator 1 view .LVU250
 539 021a AAEE803A 		vfma.f32	s6, s21, s0
 385:../../libDaisy//Drivers/CMSIS/DSP/Source/TransformFunctions/arm_cfft_radix4_f32.c ****             Xc12_out += p2;
 540              		.loc 1 385 22 discriminator 1 view .LVU251
 541 021e EAEEA03A 		vfma.f32	s7, s21, s1
 387:../../libDaisy//Drivers/CMSIS/DSP/Source/TransformFunctions/arm_cfft_radix4_f32.c ****             Xd12_out += p4;
 542              		.loc 1 387 22 discriminator 1 view .LVU252
 543 0222 A9EE812A 		vfma.f32	s4, s19, s2
 386:../../libDaisy//Drivers/CMSIS/DSP/Source/TransformFunctions/arm_cfft_radix4_f32.c ****             Yc12_out -= p3;
 544              		.loc 1 386 22 discriminator 1 view .LVU253
 545 0226 E9EEA12A 		vfma.f32	s5, s19, s3
 388:../../libDaisy//Drivers/CMSIS/DSP/Source/TransformFunctions/arm_cfft_radix4_f32.c ****             Yd12_out -= p5;
 546              		.loc 1 388 22 discriminator 1 view .LVU254
 547 022a E8EE865A 		vfma.f32	s11, s17, s12
 355:../../libDaisy//Drivers/CMSIS/DSP/Source/TransformFunctions/arm_cfft_radix4_f32.c ****             pSrc[(2u * i0) + 1u] = Yaplusc + Ybplusd;
 548              		.loc 1 355 39 discriminator 1 view .LVU255
 549 022e 37EE267A 		vadd.f32	s14, s14, s13
 550              	.LVL74:
 356:../../libDaisy//Drivers/CMSIS/DSP/Source/TransformFunctions/arm_cfft_radix4_f32.c **** 
 551              		.loc 1 356 44 discriminator 1 view .LVU256
 552 0232 77EE857A 		vadd.f32	s15, s15, s10
 553              	.LVL75:
 355:../../libDaisy//Drivers/CMSIS/DSP/Source/TransformFunctions/arm_cfft_radix4_f32.c ****             pSrc[(2u * i0) + 1u] = Yaplusc + Ybplusd;
 554              		.loc 1 355 29 discriminator 1 view .LVU257
 555 0236 05ED017A 		vstr.32	s14, [r5, #-4]
 556              	.LVL76:
 356:../../libDaisy//Drivers/CMSIS/DSP/Source/TransformFunctions/arm_cfft_radix4_f32.c **** 
 557              		.loc 1 356 13 is_stmt 1 discriminator 1 view .LVU258
 558              		.loc 1 410 10 is_stmt 0 discriminator 1 view .LVU259
 559 023a 0544     		add	r5, r5, r0
 356:../../libDaisy//Drivers/CMSIS/DSP/Source/TransformFunctions/arm_cfft_radix4_f32.c **** 
 560              		.loc 1 356 34 discriminator 1 view .LVU260
 561 023c C4ED017A 		vstr.32	s15, [r4, #4]
 358:../../libDaisy//Drivers/CMSIS/DSP/Source/TransformFunctions/arm_cfft_radix4_f32.c ****             Yb12_out = Yb12C_out * co1;
 562              		.loc 1 358 13 is_stmt 1 discriminator 1 view .LVU261
 563              	.LVL77:
 359:../../libDaisy//Drivers/CMSIS/DSP/Source/TransformFunctions/arm_cfft_radix4_f32.c ****             Xc12_out = Xc12C_out * co2;
 564              		.loc 1 359 13 discriminator 1 view .LVU262
 360:../../libDaisy//Drivers/CMSIS/DSP/Source/TransformFunctions/arm_cfft_radix4_f32.c ****             Yc12_out = Yc12C_out * co2;
 565              		.loc 1 360 13 discriminator 1 view .LVU263
 361:../../libDaisy//Drivers/CMSIS/DSP/Source/TransformFunctions/arm_cfft_radix4_f32.c ****             Xd12_out = Xd12C_out * co3;
 566              		.loc 1 361 13 discriminator 1 view .LVU264
 362:../../libDaisy//Drivers/CMSIS/DSP/Source/TransformFunctions/arm_cfft_radix4_f32.c ****             Yd12_out = Yd12C_out * co3;
 567              		.loc 1 362 13 discriminator 1 view .LVU265
 363:../../libDaisy//Drivers/CMSIS/DSP/Source/TransformFunctions/arm_cfft_radix4_f32.c **** 
 568              		.loc 1 363 13 discriminator 1 view .LVU266
 367:../../libDaisy//Drivers/CMSIS/DSP/Source/TransformFunctions/arm_cfft_radix4_f32.c ****             /* yb' = (ya-xb-yc+xd)co1 + (xa+yb-xc-yd)(si1) */
 569              		.loc 1 367 13 discriminator 1 view .LVU267
 370:../../libDaisy//Drivers/CMSIS/DSP/Source/TransformFunctions/arm_cfft_radix4_f32.c ****             /* xc' = (xa-xb+xc-xd)co2 - (ya-yb+yc-yd)(si2) */
 570              		.loc 1 370 13 discriminator 1 view .LVU268
 373:../../libDaisy//Drivers/CMSIS/DSP/Source/TransformFunctions/arm_cfft_radix4_f32.c ****             /* yc' = (ya-yb+yc-yd)co2 + (xa-xb+xc-xd)(si2) */
 571              		.loc 1 373 13 discriminator 1 view .LVU269
ARM GAS  /var/folders/hl/qgbwny5j0fd895c2c41bk3tw0000gp/T//ccE84ZOm.s 			page 22


 376:../../libDaisy//Drivers/CMSIS/DSP/Source/TransformFunctions/arm_cfft_radix4_f32.c ****             /* xd' = (xa-yb-xc+yd)co3 - (ya+xb-yc-xd)(si3) */
 572              		.loc 1 376 13 discriminator 1 view .LVU270
 379:../../libDaisy//Drivers/CMSIS/DSP/Source/TransformFunctions/arm_cfft_radix4_f32.c ****             /* yd' = (ya+xb-yc-xd)co3 + (xa-yb-xc+yd)(si3) */
 573              		.loc 1 379 13 discriminator 1 view .LVU271
 382:../../libDaisy//Drivers/CMSIS/DSP/Source/TransformFunctions/arm_cfft_radix4_f32.c **** 
 574              		.loc 1 382 13 discriminator 1 view .LVU272
 384:../../libDaisy//Drivers/CMSIS/DSP/Source/TransformFunctions/arm_cfft_radix4_f32.c ****             Yb12_out -= p1;
 575              		.loc 1 384 13 discriminator 1 view .LVU273
 385:../../libDaisy//Drivers/CMSIS/DSP/Source/TransformFunctions/arm_cfft_radix4_f32.c ****             Xc12_out += p2;
 576              		.loc 1 385 13 discriminator 1 view .LVU274
 386:../../libDaisy//Drivers/CMSIS/DSP/Source/TransformFunctions/arm_cfft_radix4_f32.c ****             Yc12_out -= p3;
 577              		.loc 1 386 13 discriminator 1 view .LVU275
 387:../../libDaisy//Drivers/CMSIS/DSP/Source/TransformFunctions/arm_cfft_radix4_f32.c ****             Xd12_out += p4;
 578              		.loc 1 387 13 discriminator 1 view .LVU276
 388:../../libDaisy//Drivers/CMSIS/DSP/Source/TransformFunctions/arm_cfft_radix4_f32.c ****             Yd12_out -= p5;
 579              		.loc 1 388 13 discriminator 1 view .LVU277
 389:../../libDaisy//Drivers/CMSIS/DSP/Source/TransformFunctions/arm_cfft_radix4_f32.c **** 
 580              		.loc 1 389 13 discriminator 1 view .LVU278
 392:../../libDaisy//Drivers/CMSIS/DSP/Source/TransformFunctions/arm_cfft_radix4_f32.c **** 
 581              		.loc 1 392 13 discriminator 1 view .LVU279
 582              		.loc 1 410 10 is_stmt 0 discriminator 1 view .LVU280
 583 0240 0444     		add	r4, r4, r0
 395:../../libDaisy//Drivers/CMSIS/DSP/Source/TransformFunctions/arm_cfft_radix4_f32.c **** 
 584              		.loc 1 395 34 discriminator 1 view .LVU281
 585 0242 81ED012A 		vstr.32	s4, [r1, #4]
 392:../../libDaisy//Drivers/CMSIS/DSP/Source/TransformFunctions/arm_cfft_radix4_f32.c **** 
 586              		.loc 1 392 27 discriminator 1 view .LVU282
 587 0246 C1ED002A 		vstr.32	s5, [r1]
 395:../../libDaisy//Drivers/CMSIS/DSP/Source/TransformFunctions/arm_cfft_radix4_f32.c **** 
 588              		.loc 1 395 13 is_stmt 1 discriminator 1 view .LVU283
 398:../../libDaisy//Drivers/CMSIS/DSP/Source/TransformFunctions/arm_cfft_radix4_f32.c **** 
 589              		.loc 1 398 13 discriminator 1 view .LVU284
 590              		.loc 1 410 10 is_stmt 0 discriminator 1 view .LVU285
 591 024a 0144     		add	r1, r1, r0
 398:../../libDaisy//Drivers/CMSIS/DSP/Source/TransformFunctions/arm_cfft_radix4_f32.c **** 
 592              		.loc 1 398 27 discriminator 1 view .LVU286
 593 024c 83ED003A 		vstr.32	s6, [r3]
 401:../../libDaisy//Drivers/CMSIS/DSP/Source/TransformFunctions/arm_cfft_radix4_f32.c **** 
 594              		.loc 1 401 13 is_stmt 1 discriminator 1 view .LVU287
 401:../../libDaisy//Drivers/CMSIS/DSP/Source/TransformFunctions/arm_cfft_radix4_f32.c **** 
 595              		.loc 1 401 34 is_stmt 0 discriminator 1 view .LVU288
 596 0250 C3ED013A 		vstr.32	s7, [r3, #4]
 404:../../libDaisy//Drivers/CMSIS/DSP/Source/TransformFunctions/arm_cfft_radix4_f32.c **** 
 597              		.loc 1 404 13 is_stmt 1 discriminator 1 view .LVU289
 598              		.loc 1 410 10 is_stmt 0 discriminator 1 view .LVU290
 599 0254 0344     		add	r3, r3, r0
 404:../../libDaisy//Drivers/CMSIS/DSP/Source/TransformFunctions/arm_cfft_radix4_f32.c **** 
 600              		.loc 1 404 27 discriminator 1 view .LVU291
 601 0256 C2ED005A 		vstr.32	s11, [r2]
 407:../../libDaisy//Drivers/CMSIS/DSP/Source/TransformFunctions/arm_cfft_radix4_f32.c **** 
 602              		.loc 1 407 13 is_stmt 1 discriminator 1 view .LVU292
 407:../../libDaisy//Drivers/CMSIS/DSP/Source/TransformFunctions/arm_cfft_radix4_f32.c **** 
 603              		.loc 1 407 34 is_stmt 0 discriminator 1 view .LVU293
 604 025a C2ED014A 		vstr.32	s9, [r2, #4]
 409:../../libDaisy//Drivers/CMSIS/DSP/Source/TransformFunctions/arm_cfft_radix4_f32.c ****          } while (i0 < fftLen);
 605              		.loc 1 409 13 is_stmt 1 discriminator 1 view .LVU294
 606              	.LVL78:
ARM GAS  /var/folders/hl/qgbwny5j0fd895c2c41bk3tw0000gp/T//ccE84ZOm.s 			page 23


 607              		.loc 1 410 18 discriminator 1 view .LVU295
 608              		.loc 1 410 10 is_stmt 0 discriminator 1 view .LVU296
 609 025e 0244     		add	r2, r2, r0
 610 0260 9DD8     		bhi	.L5
 411:../../libDaisy//Drivers/CMSIS/DSP/Source/TransformFunctions/arm_cfft_radix4_f32.c ****          j++;
 611              		.loc 1 411 10 is_stmt 1 view .LVU297
 412:../../libDaisy//Drivers/CMSIS/DSP/Source/TransformFunctions/arm_cfft_radix4_f32.c ****       } while (j <= (n2 - 1u));
 612              		.loc 1 412 7 is_stmt 0 view .LVU298
 613 0262 019B     		ldr	r3, [sp, #4]
 411:../../libDaisy//Drivers/CMSIS/DSP/Source/TransformFunctions/arm_cfft_radix4_f32.c ****          j++;
 614              		.loc 1 411 11 view .LVU299
 615 0264 0EF1010E 		add	lr, lr, #1
 616              	.LVL79:
 617              		.loc 1 412 15 is_stmt 1 view .LVU300
 618              		.loc 1 412 7 is_stmt 0 view .LVU301
 619 0268 0CF1080C 		add	ip, ip, #8
 620 026c 0833     		adds	r3, r3, #8
 621 026e 0193     		str	r3, [sp, #4]
 622 0270 059B     		ldr	r3, [sp, #20]
 623 0272 9844     		add	r8, r8, r3
 624 0274 049B     		ldr	r3, [sp, #16]
 625 0276 9944     		add	r9, r9, r3
 626 0278 069B     		ldr	r3, [sp, #24]
 627 027a 9A44     		add	r10, r10, r3
 628 027c 029B     		ldr	r3, [sp, #8]
 629 027e 7345     		cmp	r3, lr
 630 0280 7FF477AF 		bne	.L6
 413:../../libDaisy//Drivers/CMSIS/DSP/Source/TransformFunctions/arm_cfft_radix4_f32.c ****       twidCoefModifier <<= 2u;
 631              		.loc 1 413 7 is_stmt 1 discriminator 2 view .LVU302
 632              		.loc 1 413 24 is_stmt 0 discriminator 2 view .LVU303
 633 0284 079B     		ldr	r3, [sp, #28]
 279:../../libDaisy//Drivers/CMSIS/DSP/Source/TransformFunctions/arm_cfft_radix4_f32.c ****    {
 634              		.loc 1 279 37 discriminator 2 view .LVU304
 635 0286 089A     		ldr	r2, [sp, #32]
 636              		.loc 1 413 24 discriminator 2 view .LVU305
 637 0288 9B00     		lsls	r3, r3, #2
 279:../../libDaisy//Drivers/CMSIS/DSP/Source/TransformFunctions/arm_cfft_radix4_f32.c ****    {
 638              		.loc 1 279 37 discriminator 2 view .LVU306
 639 028a 9208     		lsrs	r2, r2, #2
 640              		.loc 1 413 24 discriminator 2 view .LVU307
 641 028c 9BB2     		uxth	r3, r3
 279:../../libDaisy//Drivers/CMSIS/DSP/Source/TransformFunctions/arm_cfft_radix4_f32.c ****    {
 642              		.loc 1 279 4 discriminator 2 view .LVU308
 643 028e 042A     		cmp	r2, #4
 279:../../libDaisy//Drivers/CMSIS/DSP/Source/TransformFunctions/arm_cfft_radix4_f32.c ****    {
 644              		.loc 1 279 37 discriminator 2 view .LVU309
 645 0290 0892     		str	r2, [sp, #32]
 646              	.LVL80:
 647              		.loc 1 413 24 discriminator 2 view .LVU310
 648 0292 0793     		str	r3, [sp, #28]
 649              	.LVL81:
 279:../../libDaisy//Drivers/CMSIS/DSP/Source/TransformFunctions/arm_cfft_radix4_f32.c ****    {
 650              		.loc 1 279 35 is_stmt 1 discriminator 2 view .LVU311
 279:../../libDaisy//Drivers/CMSIS/DSP/Source/TransformFunctions/arm_cfft_radix4_f32.c ****    {
 651              		.loc 1 279 27 discriminator 2 view .LVU312
 279:../../libDaisy//Drivers/CMSIS/DSP/Source/TransformFunctions/arm_cfft_radix4_f32.c ****    {
 652              		.loc 1 279 4 is_stmt 0 discriminator 2 view .LVU313
ARM GAS  /var/folders/hl/qgbwny5j0fd895c2c41bk3tw0000gp/T//ccE84ZOm.s 			page 24


 653 0294 3FF652AF 		bhi	.L3
 654              	.LVL82:
 655              	.L7:
 279:../../libDaisy//Drivers/CMSIS/DSP/Source/TransformFunctions/arm_cfft_radix4_f32.c ****    {
 656              		.loc 1 279 4 discriminator 2 view .LVU314
 657 0298 099B     		ldr	r3, [sp, #36]
 658 029a 0B9A     		ldr	r2, [sp, #44]
 659 029c 2033     		adds	r3, r3, #32
 660              	.L4:
 661              	.LVL83:
 414:../../libDaisy//Drivers/CMSIS/DSP/Source/TransformFunctions/arm_cfft_radix4_f32.c ****    }
 415:../../libDaisy//Drivers/CMSIS/DSP/Source/TransformFunctions/arm_cfft_radix4_f32.c **** 
 416:../../libDaisy//Drivers/CMSIS/DSP/Source/TransformFunctions/arm_cfft_radix4_f32.c ****    j = fftLen >> 2;
 417:../../libDaisy//Drivers/CMSIS/DSP/Source/TransformFunctions/arm_cfft_radix4_f32.c ****    ptr1 = &pSrc[0];
 418:../../libDaisy//Drivers/CMSIS/DSP/Source/TransformFunctions/arm_cfft_radix4_f32.c **** 
 419:../../libDaisy//Drivers/CMSIS/DSP/Source/TransformFunctions/arm_cfft_radix4_f32.c ****    /*  Calculations of last stage */
 420:../../libDaisy//Drivers/CMSIS/DSP/Source/TransformFunctions/arm_cfft_radix4_f32.c ****    do
 662              		.loc 1 420 4 is_stmt 1 discriminator 1 view .LVU315
 421:../../libDaisy//Drivers/CMSIS/DSP/Source/TransformFunctions/arm_cfft_radix4_f32.c ****    {
 422:../../libDaisy//Drivers/CMSIS/DSP/Source/TransformFunctions/arm_cfft_radix4_f32.c ****       xaIn = ptr1[0];
 663              		.loc 1 422 7 discriminator 1 view .LVU316
 423:../../libDaisy//Drivers/CMSIS/DSP/Source/TransformFunctions/arm_cfft_radix4_f32.c ****       yaIn = ptr1[1];
 424:../../libDaisy//Drivers/CMSIS/DSP/Source/TransformFunctions/arm_cfft_radix4_f32.c ****       xbIn = ptr1[2];
 425:../../libDaisy//Drivers/CMSIS/DSP/Source/TransformFunctions/arm_cfft_radix4_f32.c ****       ybIn = ptr1[3];
 426:../../libDaisy//Drivers/CMSIS/DSP/Source/TransformFunctions/arm_cfft_radix4_f32.c ****       xcIn = ptr1[4];
 664              		.loc 1 426 12 is_stmt 0 discriminator 1 view .LVU317
 665 029e 53ED045A 		vldr.32	s11, [r3, #-16]
 427:../../libDaisy//Drivers/CMSIS/DSP/Source/TransformFunctions/arm_cfft_radix4_f32.c ****       ycIn = ptr1[5];
 428:../../libDaisy//Drivers/CMSIS/DSP/Source/TransformFunctions/arm_cfft_radix4_f32.c ****       xdIn = ptr1[6];
 429:../../libDaisy//Drivers/CMSIS/DSP/Source/TransformFunctions/arm_cfft_radix4_f32.c ****       ydIn = ptr1[7];
 430:../../libDaisy//Drivers/CMSIS/DSP/Source/TransformFunctions/arm_cfft_radix4_f32.c **** 
 431:../../libDaisy//Drivers/CMSIS/DSP/Source/TransformFunctions/arm_cfft_radix4_f32.c ****       /* xa + xc */
 432:../../libDaisy//Drivers/CMSIS/DSP/Source/TransformFunctions/arm_cfft_radix4_f32.c ****       Xaplusc = xaIn + xcIn;
 433:../../libDaisy//Drivers/CMSIS/DSP/Source/TransformFunctions/arm_cfft_radix4_f32.c **** 
 434:../../libDaisy//Drivers/CMSIS/DSP/Source/TransformFunctions/arm_cfft_radix4_f32.c ****       /* xa - xc */
 435:../../libDaisy//Drivers/CMSIS/DSP/Source/TransformFunctions/arm_cfft_radix4_f32.c ****       Xaminusc = xaIn - xcIn;
 436:../../libDaisy//Drivers/CMSIS/DSP/Source/TransformFunctions/arm_cfft_radix4_f32.c **** 
 437:../../libDaisy//Drivers/CMSIS/DSP/Source/TransformFunctions/arm_cfft_radix4_f32.c ****       /* ya + yc */
 438:../../libDaisy//Drivers/CMSIS/DSP/Source/TransformFunctions/arm_cfft_radix4_f32.c ****       Yaplusc = yaIn + ycIn;
 439:../../libDaisy//Drivers/CMSIS/DSP/Source/TransformFunctions/arm_cfft_radix4_f32.c **** 
 440:../../libDaisy//Drivers/CMSIS/DSP/Source/TransformFunctions/arm_cfft_radix4_f32.c ****       /* ya - yc */
 441:../../libDaisy//Drivers/CMSIS/DSP/Source/TransformFunctions/arm_cfft_radix4_f32.c ****       Yaminusc = yaIn - ycIn;
 442:../../libDaisy//Drivers/CMSIS/DSP/Source/TransformFunctions/arm_cfft_radix4_f32.c **** 
 443:../../libDaisy//Drivers/CMSIS/DSP/Source/TransformFunctions/arm_cfft_radix4_f32.c ****       /* xb + xd */
 444:../../libDaisy//Drivers/CMSIS/DSP/Source/TransformFunctions/arm_cfft_radix4_f32.c ****       Xbplusd = xbIn + xdIn;
 445:../../libDaisy//Drivers/CMSIS/DSP/Source/TransformFunctions/arm_cfft_radix4_f32.c **** 
 446:../../libDaisy//Drivers/CMSIS/DSP/Source/TransformFunctions/arm_cfft_radix4_f32.c ****       /* yb + yd */
 447:../../libDaisy//Drivers/CMSIS/DSP/Source/TransformFunctions/arm_cfft_radix4_f32.c ****       Ybplusd = ybIn + ydIn;
 448:../../libDaisy//Drivers/CMSIS/DSP/Source/TransformFunctions/arm_cfft_radix4_f32.c **** 
 449:../../libDaisy//Drivers/CMSIS/DSP/Source/TransformFunctions/arm_cfft_radix4_f32.c ****       /* (xb-xd) */
 450:../../libDaisy//Drivers/CMSIS/DSP/Source/TransformFunctions/arm_cfft_radix4_f32.c ****       Xbminusd = xbIn - xdIn;
 451:../../libDaisy//Drivers/CMSIS/DSP/Source/TransformFunctions/arm_cfft_radix4_f32.c **** 
 452:../../libDaisy//Drivers/CMSIS/DSP/Source/TransformFunctions/arm_cfft_radix4_f32.c ****       /* (yb-yd) */
 453:../../libDaisy//Drivers/CMSIS/DSP/Source/TransformFunctions/arm_cfft_radix4_f32.c ****       Ybminusd = ybIn - ydIn;
 454:../../libDaisy//Drivers/CMSIS/DSP/Source/TransformFunctions/arm_cfft_radix4_f32.c **** 
 455:../../libDaisy//Drivers/CMSIS/DSP/Source/TransformFunctions/arm_cfft_radix4_f32.c ****       /* xa' = xa + xb + xc + xd */
 456:../../libDaisy//Drivers/CMSIS/DSP/Source/TransformFunctions/arm_cfft_radix4_f32.c ****       a0 = (Xaplusc + Xbplusd);
ARM GAS  /var/folders/hl/qgbwny5j0fd895c2c41bk3tw0000gp/T//ccE84ZOm.s 			page 25


 457:../../libDaisy//Drivers/CMSIS/DSP/Source/TransformFunctions/arm_cfft_radix4_f32.c ****       /* ya' = ya + yb + yc + yd */
 458:../../libDaisy//Drivers/CMSIS/DSP/Source/TransformFunctions/arm_cfft_radix4_f32.c ****       a1 = (Yaplusc + Ybplusd);
 459:../../libDaisy//Drivers/CMSIS/DSP/Source/TransformFunctions/arm_cfft_radix4_f32.c ****       /* xc' = (xa-xb+xc-xd) */
 460:../../libDaisy//Drivers/CMSIS/DSP/Source/TransformFunctions/arm_cfft_radix4_f32.c ****       a2 = (Xaplusc - Xbplusd);
 461:../../libDaisy//Drivers/CMSIS/DSP/Source/TransformFunctions/arm_cfft_radix4_f32.c ****       /* yc' = (ya-yb+yc-yd) */
 462:../../libDaisy//Drivers/CMSIS/DSP/Source/TransformFunctions/arm_cfft_radix4_f32.c ****       a3 = (Yaplusc - Ybplusd);
 463:../../libDaisy//Drivers/CMSIS/DSP/Source/TransformFunctions/arm_cfft_radix4_f32.c ****       /* xb' = (xa+yb-xc-yd) */
 464:../../libDaisy//Drivers/CMSIS/DSP/Source/TransformFunctions/arm_cfft_radix4_f32.c ****       a4 = (Xaminusc + Ybminusd);
 465:../../libDaisy//Drivers/CMSIS/DSP/Source/TransformFunctions/arm_cfft_radix4_f32.c ****       /* yb' = (ya-xb-yc+xd) */
 466:../../libDaisy//Drivers/CMSIS/DSP/Source/TransformFunctions/arm_cfft_radix4_f32.c ****       a5 = (Yaminusc - Xbminusd);
 467:../../libDaisy//Drivers/CMSIS/DSP/Source/TransformFunctions/arm_cfft_radix4_f32.c ****       /* xd' = (xa-yb-xc+yd)) */
 468:../../libDaisy//Drivers/CMSIS/DSP/Source/TransformFunctions/arm_cfft_radix4_f32.c ****       a6 = (Xaminusc - Ybminusd);
 469:../../libDaisy//Drivers/CMSIS/DSP/Source/TransformFunctions/arm_cfft_radix4_f32.c ****       /* yd' = (ya+xb-yc-xd) */
 470:../../libDaisy//Drivers/CMSIS/DSP/Source/TransformFunctions/arm_cfft_radix4_f32.c ****       a7 = (Xbminusd + Yaminusc);
 471:../../libDaisy//Drivers/CMSIS/DSP/Source/TransformFunctions/arm_cfft_radix4_f32.c **** 
 472:../../libDaisy//Drivers/CMSIS/DSP/Source/TransformFunctions/arm_cfft_radix4_f32.c ****       ptr1[0] = a0;
 473:../../libDaisy//Drivers/CMSIS/DSP/Source/TransformFunctions/arm_cfft_radix4_f32.c ****       ptr1[1] = a1;
 474:../../libDaisy//Drivers/CMSIS/DSP/Source/TransformFunctions/arm_cfft_radix4_f32.c ****       ptr1[2] = a2;
 475:../../libDaisy//Drivers/CMSIS/DSP/Source/TransformFunctions/arm_cfft_radix4_f32.c ****       ptr1[3] = a3;
 476:../../libDaisy//Drivers/CMSIS/DSP/Source/TransformFunctions/arm_cfft_radix4_f32.c ****       ptr1[4] = a4;
 477:../../libDaisy//Drivers/CMSIS/DSP/Source/TransformFunctions/arm_cfft_radix4_f32.c ****       ptr1[5] = a5;
 478:../../libDaisy//Drivers/CMSIS/DSP/Source/TransformFunctions/arm_cfft_radix4_f32.c ****       ptr1[6] = a6;
 479:../../libDaisy//Drivers/CMSIS/DSP/Source/TransformFunctions/arm_cfft_radix4_f32.c ****       ptr1[7] = a7;
 480:../../libDaisy//Drivers/CMSIS/DSP/Source/TransformFunctions/arm_cfft_radix4_f32.c **** 
 481:../../libDaisy//Drivers/CMSIS/DSP/Source/TransformFunctions/arm_cfft_radix4_f32.c ****       /* increment pointer by 8 */
 482:../../libDaisy//Drivers/CMSIS/DSP/Source/TransformFunctions/arm_cfft_radix4_f32.c ****       ptr1 += 8u;
 483:../../libDaisy//Drivers/CMSIS/DSP/Source/TransformFunctions/arm_cfft_radix4_f32.c ****    } while (--j);
 666              		.loc 1 483 4 discriminator 1 view .LVU318
 667 02a2 013A     		subs	r2, r2, #1
 668              	.LVL84:
 427:../../libDaisy//Drivers/CMSIS/DSP/Source/TransformFunctions/arm_cfft_radix4_f32.c ****       ycIn = ptr1[5];
 669              		.loc 1 427 12 discriminator 1 view .LVU319
 670 02a4 53ED034A 		vldr.32	s9, [r3, #-12]
 671              		.loc 1 483 4 discriminator 1 view .LVU320
 672 02a8 03F12003 		add	r3, r3, #32
 673              	.LVL85:
 428:../../libDaisy//Drivers/CMSIS/DSP/Source/TransformFunctions/arm_cfft_radix4_f32.c ****       ydIn = ptr1[7];
 674              		.loc 1 428 12 discriminator 1 view .LVU321
 675 02ac 13ED0A3A 		vldr.32	s6, [r3, #-40]
 429:../../libDaisy//Drivers/CMSIS/DSP/Source/TransformFunctions/arm_cfft_radix4_f32.c **** 
 676              		.loc 1 429 12 discriminator 1 view .LVU322
 677 02b0 53ED093A 		vldr.32	s7, [r3, #-36]
 422:../../libDaisy//Drivers/CMSIS/DSP/Source/TransformFunctions/arm_cfft_radix4_f32.c ****       yaIn = ptr1[1];
 678              		.loc 1 422 12 discriminator 1 view .LVU323
 679 02b4 13ED107A 		vldr.32	s14, [r3, #-64]
 680              	.LVL86:
 423:../../libDaisy//Drivers/CMSIS/DSP/Source/TransformFunctions/arm_cfft_radix4_f32.c ****       xbIn = ptr1[2];
 681              		.loc 1 423 7 is_stmt 1 discriminator 1 view .LVU324
 423:../../libDaisy//Drivers/CMSIS/DSP/Source/TransformFunctions/arm_cfft_radix4_f32.c ****       xbIn = ptr1[2];
 682              		.loc 1 423 12 is_stmt 0 discriminator 1 view .LVU325
 683 02b8 53ED0F7A 		vldr.32	s15, [r3, #-60]
 684              	.LVL87:
 424:../../libDaisy//Drivers/CMSIS/DSP/Source/TransformFunctions/arm_cfft_radix4_f32.c ****       ybIn = ptr1[3];
 685              		.loc 1 424 7 is_stmt 1 discriminator 1 view .LVU326
 424:../../libDaisy//Drivers/CMSIS/DSP/Source/TransformFunctions/arm_cfft_radix4_f32.c ****       ybIn = ptr1[3];
 686              		.loc 1 424 12 is_stmt 0 discriminator 1 view .LVU327
 687 02bc 53ED0E6A 		vldr.32	s13, [r3, #-56]
ARM GAS  /var/folders/hl/qgbwny5j0fd895c2c41bk3tw0000gp/T//ccE84ZOm.s 			page 26


 688              	.LVL88:
 425:../../libDaisy//Drivers/CMSIS/DSP/Source/TransformFunctions/arm_cfft_radix4_f32.c ****       xcIn = ptr1[4];
 689              		.loc 1 425 7 is_stmt 1 discriminator 1 view .LVU328
 432:../../libDaisy//Drivers/CMSIS/DSP/Source/TransformFunctions/arm_cfft_radix4_f32.c **** 
 690              		.loc 1 432 15 is_stmt 0 discriminator 1 view .LVU329
 691 02c0 37EE255A 		vadd.f32	s10, s14, s11
 425:../../libDaisy//Drivers/CMSIS/DSP/Source/TransformFunctions/arm_cfft_radix4_f32.c ****       xcIn = ptr1[4];
 692              		.loc 1 425 12 discriminator 1 view .LVU330
 693 02c4 13ED0D6A 		vldr.32	s12, [r3, #-52]
 694              	.LVL89:
 426:../../libDaisy//Drivers/CMSIS/DSP/Source/TransformFunctions/arm_cfft_radix4_f32.c ****       ycIn = ptr1[5];
 695              		.loc 1 426 7 is_stmt 1 discriminator 1 view .LVU331
 427:../../libDaisy//Drivers/CMSIS/DSP/Source/TransformFunctions/arm_cfft_radix4_f32.c ****       xdIn = ptr1[6];
 696              		.loc 1 427 7 discriminator 1 view .LVU332
 428:../../libDaisy//Drivers/CMSIS/DSP/Source/TransformFunctions/arm_cfft_radix4_f32.c ****       ydIn = ptr1[7];
 697              		.loc 1 428 7 discriminator 1 view .LVU333
 429:../../libDaisy//Drivers/CMSIS/DSP/Source/TransformFunctions/arm_cfft_radix4_f32.c **** 
 698              		.loc 1 429 7 discriminator 1 view .LVU334
 432:../../libDaisy//Drivers/CMSIS/DSP/Source/TransformFunctions/arm_cfft_radix4_f32.c **** 
 699              		.loc 1 432 7 discriminator 1 view .LVU335
 435:../../libDaisy//Drivers/CMSIS/DSP/Source/TransformFunctions/arm_cfft_radix4_f32.c **** 
 700              		.loc 1 435 7 discriminator 1 view .LVU336
 435:../../libDaisy//Drivers/CMSIS/DSP/Source/TransformFunctions/arm_cfft_radix4_f32.c **** 
 701              		.loc 1 435 16 is_stmt 0 discriminator 1 view .LVU337
 702 02c8 37EE657A 		vsub.f32	s14, s14, s11
 703              	.LVL90:
 438:../../libDaisy//Drivers/CMSIS/DSP/Source/TransformFunctions/arm_cfft_radix4_f32.c **** 
 704              		.loc 1 438 7 is_stmt 1 discriminator 1 view .LVU338
 444:../../libDaisy//Drivers/CMSIS/DSP/Source/TransformFunctions/arm_cfft_radix4_f32.c **** 
 705              		.loc 1 444 15 is_stmt 0 discriminator 1 view .LVU339
 706 02cc 36EE834A 		vadd.f32	s8, s13, s6
 438:../../libDaisy//Drivers/CMSIS/DSP/Source/TransformFunctions/arm_cfft_radix4_f32.c **** 
 707              		.loc 1 438 15 discriminator 1 view .LVU340
 708 02d0 77EEA45A 		vadd.f32	s11, s15, s9
 709              	.LVL91:
 441:../../libDaisy//Drivers/CMSIS/DSP/Source/TransformFunctions/arm_cfft_radix4_f32.c **** 
 710              		.loc 1 441 7 is_stmt 1 discriminator 1 view .LVU341
 450:../../libDaisy//Drivers/CMSIS/DSP/Source/TransformFunctions/arm_cfft_radix4_f32.c **** 
 711              		.loc 1 450 16 is_stmt 0 discriminator 1 view .LVU342
 712 02d4 76EEC36A 		vsub.f32	s13, s13, s6
 713              	.LVL92:
 441:../../libDaisy//Drivers/CMSIS/DSP/Source/TransformFunctions/arm_cfft_radix4_f32.c **** 
 714              		.loc 1 441 16 discriminator 1 view .LVU343
 715 02d8 77EEE47A 		vsub.f32	s15, s15, s9
 716              	.LVL93:
 444:../../libDaisy//Drivers/CMSIS/DSP/Source/TransformFunctions/arm_cfft_radix4_f32.c **** 
 717              		.loc 1 444 7 is_stmt 1 discriminator 1 view .LVU344
 447:../../libDaisy//Drivers/CMSIS/DSP/Source/TransformFunctions/arm_cfft_radix4_f32.c **** 
 718              		.loc 1 447 7 discriminator 1 view .LVU345
 447:../../libDaisy//Drivers/CMSIS/DSP/Source/TransformFunctions/arm_cfft_radix4_f32.c **** 
 719              		.loc 1 447 15 is_stmt 0 discriminator 1 view .LVU346
 720 02dc 76EE234A 		vadd.f32	s9, s12, s7
 721              	.LVL94:
 450:../../libDaisy//Drivers/CMSIS/DSP/Source/TransformFunctions/arm_cfft_radix4_f32.c **** 
 722              		.loc 1 450 7 is_stmt 1 discriminator 1 view .LVU347
 453:../../libDaisy//Drivers/CMSIS/DSP/Source/TransformFunctions/arm_cfft_radix4_f32.c **** 
 723              		.loc 1 453 7 discriminator 1 view .LVU348
ARM GAS  /var/folders/hl/qgbwny5j0fd895c2c41bk3tw0000gp/T//ccE84ZOm.s 			page 27


 453:../../libDaisy//Drivers/CMSIS/DSP/Source/TransformFunctions/arm_cfft_radix4_f32.c **** 
 724              		.loc 1 453 16 is_stmt 0 discriminator 1 view .LVU349
 725 02e0 36EE636A 		vsub.f32	s12, s12, s7
 726              	.LVL95:
 456:../../libDaisy//Drivers/CMSIS/DSP/Source/TransformFunctions/arm_cfft_radix4_f32.c ****       /* ya' = ya + yb + yc + yd */
 727              		.loc 1 456 7 is_stmt 1 discriminator 1 view .LVU350
 458:../../libDaisy//Drivers/CMSIS/DSP/Source/TransformFunctions/arm_cfft_radix4_f32.c ****       /* xc' = (xa-xb+xc-xd) */
 728              		.loc 1 458 7 discriminator 1 view .LVU351
 460:../../libDaisy//Drivers/CMSIS/DSP/Source/TransformFunctions/arm_cfft_radix4_f32.c ****       /* yc' = (ya-yb+yc-yd) */
 729              		.loc 1 460 7 discriminator 1 view .LVU352
 462:../../libDaisy//Drivers/CMSIS/DSP/Source/TransformFunctions/arm_cfft_radix4_f32.c ****       /* xb' = (xa+yb-xc-yd) */
 730              		.loc 1 462 7 discriminator 1 view .LVU353
 464:../../libDaisy//Drivers/CMSIS/DSP/Source/TransformFunctions/arm_cfft_radix4_f32.c ****       /* yb' = (ya-xb-yc+xd) */
 731              		.loc 1 464 7 discriminator 1 view .LVU354
 466:../../libDaisy//Drivers/CMSIS/DSP/Source/TransformFunctions/arm_cfft_radix4_f32.c ****       /* xd' = (xa-yb-xc+yd)) */
 732              		.loc 1 466 7 discriminator 1 view .LVU355
 468:../../libDaisy//Drivers/CMSIS/DSP/Source/TransformFunctions/arm_cfft_radix4_f32.c ****       /* yd' = (ya+xb-yc-xd) */
 733              		.loc 1 468 7 discriminator 1 view .LVU356
 470:../../libDaisy//Drivers/CMSIS/DSP/Source/TransformFunctions/arm_cfft_radix4_f32.c **** 
 734              		.loc 1 470 7 discriminator 1 view .LVU357
 472:../../libDaisy//Drivers/CMSIS/DSP/Source/TransformFunctions/arm_cfft_radix4_f32.c ****       ptr1[1] = a1;
 735              		.loc 1 472 7 discriminator 1 view .LVU358
 456:../../libDaisy//Drivers/CMSIS/DSP/Source/TransformFunctions/arm_cfft_radix4_f32.c ****       /* ya' = ya + yb + yc + yd */
 736              		.loc 1 456 10 is_stmt 0 discriminator 1 view .LVU359
 737 02e4 35EE043A 		vadd.f32	s6, s10, s8
 738              	.LVL96:
 458:../../libDaisy//Drivers/CMSIS/DSP/Source/TransformFunctions/arm_cfft_radix4_f32.c ****       /* xc' = (xa-xb+xc-xd) */
 739              		.loc 1 458 10 discriminator 1 view .LVU360
 740 02e8 75EEA43A 		vadd.f32	s7, s11, s9
 741              	.LVL97:
 460:../../libDaisy//Drivers/CMSIS/DSP/Source/TransformFunctions/arm_cfft_radix4_f32.c ****       /* yc' = (ya-yb+yc-yd) */
 742              		.loc 1 460 10 discriminator 1 view .LVU361
 743 02ec 35EE445A 		vsub.f32	s10, s10, s8
 744              	.LVL98:
 462:../../libDaisy//Drivers/CMSIS/DSP/Source/TransformFunctions/arm_cfft_radix4_f32.c ****       /* xb' = (xa+yb-xc-yd) */
 745              		.loc 1 462 10 discriminator 1 view .LVU362
 746 02f0 75EEE45A 		vsub.f32	s11, s11, s9
 747              	.LVL99:
 472:../../libDaisy//Drivers/CMSIS/DSP/Source/TransformFunctions/arm_cfft_radix4_f32.c ****       ptr1[1] = a1;
 748              		.loc 1 472 15 discriminator 1 view .LVU363
 749 02f4 03ED103A 		vstr.32	s6, [r3, #-64]
 750              	.LVL100:
 473:../../libDaisy//Drivers/CMSIS/DSP/Source/TransformFunctions/arm_cfft_radix4_f32.c ****       ptr1[2] = a2;
 751              		.loc 1 473 7 is_stmt 1 discriminator 1 view .LVU364
 464:../../libDaisy//Drivers/CMSIS/DSP/Source/TransformFunctions/arm_cfft_radix4_f32.c ****       /* yb' = (ya-xb-yc+xd) */
 752              		.loc 1 464 10 is_stmt 0 discriminator 1 view .LVU365
 753 02f8 37EE064A 		vadd.f32	s8, s14, s12
 754              	.LVL101:
 473:../../libDaisy//Drivers/CMSIS/DSP/Source/TransformFunctions/arm_cfft_radix4_f32.c ****       ptr1[2] = a2;
 755              		.loc 1 473 15 discriminator 1 view .LVU366
 756 02fc 43ED0F3A 		vstr.32	s7, [r3, #-60]
 757              	.LVL102:
 474:../../libDaisy//Drivers/CMSIS/DSP/Source/TransformFunctions/arm_cfft_radix4_f32.c ****       ptr1[3] = a3;
 758              		.loc 1 474 7 is_stmt 1 discriminator 1 view .LVU367
 466:../../libDaisy//Drivers/CMSIS/DSP/Source/TransformFunctions/arm_cfft_radix4_f32.c ****       /* xd' = (xa-yb-xc+yd)) */
 759              		.loc 1 466 10 is_stmt 0 discriminator 1 view .LVU368
 760 0300 77EEE64A 		vsub.f32	s9, s15, s13
ARM GAS  /var/folders/hl/qgbwny5j0fd895c2c41bk3tw0000gp/T//ccE84ZOm.s 			page 28


 761              	.LVL103:
 474:../../libDaisy//Drivers/CMSIS/DSP/Source/TransformFunctions/arm_cfft_radix4_f32.c ****       ptr1[3] = a3;
 762              		.loc 1 474 15 discriminator 1 view .LVU369
 763 0304 03ED0E5A 		vstr.32	s10, [r3, #-56]
 764              	.LVL104:
 475:../../libDaisy//Drivers/CMSIS/DSP/Source/TransformFunctions/arm_cfft_radix4_f32.c ****       ptr1[4] = a4;
 765              		.loc 1 475 7 is_stmt 1 discriminator 1 view .LVU370
 468:../../libDaisy//Drivers/CMSIS/DSP/Source/TransformFunctions/arm_cfft_radix4_f32.c ****       /* yd' = (ya+xb-yc-xd) */
 766              		.loc 1 468 10 is_stmt 0 discriminator 1 view .LVU371
 767 0308 37EE467A 		vsub.f32	s14, s14, s12
 768              	.LVL105:
 475:../../libDaisy//Drivers/CMSIS/DSP/Source/TransformFunctions/arm_cfft_radix4_f32.c ****       ptr1[4] = a4;
 769              		.loc 1 475 15 discriminator 1 view .LVU372
 770 030c 43ED0D5A 		vstr.32	s11, [r3, #-52]
 771              	.LVL106:
 476:../../libDaisy//Drivers/CMSIS/DSP/Source/TransformFunctions/arm_cfft_radix4_f32.c ****       ptr1[5] = a5;
 772              		.loc 1 476 7 is_stmt 1 discriminator 1 view .LVU373
 470:../../libDaisy//Drivers/CMSIS/DSP/Source/TransformFunctions/arm_cfft_radix4_f32.c **** 
 773              		.loc 1 470 10 is_stmt 0 discriminator 1 view .LVU374
 774 0310 77EEA67A 		vadd.f32	s15, s15, s13
 775              	.LVL107:
 476:../../libDaisy//Drivers/CMSIS/DSP/Source/TransformFunctions/arm_cfft_radix4_f32.c ****       ptr1[5] = a5;
 776              		.loc 1 476 15 discriminator 1 view .LVU375
 777 0314 03ED0C4A 		vstr.32	s8, [r3, #-48]
 778              	.LVL108:
 477:../../libDaisy//Drivers/CMSIS/DSP/Source/TransformFunctions/arm_cfft_radix4_f32.c ****       ptr1[6] = a6;
 779              		.loc 1 477 7 is_stmt 1 discriminator 1 view .LVU376
 477:../../libDaisy//Drivers/CMSIS/DSP/Source/TransformFunctions/arm_cfft_radix4_f32.c ****       ptr1[6] = a6;
 780              		.loc 1 477 15 is_stmt 0 discriminator 1 view .LVU377
 781 0318 43ED0B4A 		vstr.32	s9, [r3, #-44]
 782              	.LVL109:
 478:../../libDaisy//Drivers/CMSIS/DSP/Source/TransformFunctions/arm_cfft_radix4_f32.c ****       ptr1[7] = a7;
 783              		.loc 1 478 7 is_stmt 1 discriminator 1 view .LVU378
 478:../../libDaisy//Drivers/CMSIS/DSP/Source/TransformFunctions/arm_cfft_radix4_f32.c ****       ptr1[7] = a7;
 784              		.loc 1 478 15 is_stmt 0 discriminator 1 view .LVU379
 785 031c 03ED0A7A 		vstr.32	s14, [r3, #-40]
 786              	.LVL110:
 479:../../libDaisy//Drivers/CMSIS/DSP/Source/TransformFunctions/arm_cfft_radix4_f32.c **** 
 787              		.loc 1 479 7 is_stmt 1 discriminator 1 view .LVU380
 479:../../libDaisy//Drivers/CMSIS/DSP/Source/TransformFunctions/arm_cfft_radix4_f32.c **** 
 788              		.loc 1 479 15 is_stmt 0 discriminator 1 view .LVU381
 789 0320 43ED097A 		vstr.32	s15, [r3, #-36]
 790              	.LVL111:
 482:../../libDaisy//Drivers/CMSIS/DSP/Source/TransformFunctions/arm_cfft_radix4_f32.c ****    } while (--j);
 791              		.loc 1 482 7 is_stmt 1 discriminator 1 view .LVU382
 792              		.loc 1 483 12 discriminator 1 view .LVU383
 793              		.loc 1 483 4 is_stmt 0 discriminator 1 view .LVU384
 794 0324 BBD1     		bne	.L4
 484:../../libDaisy//Drivers/CMSIS/DSP/Source/TransformFunctions/arm_cfft_radix4_f32.c **** 
 485:../../libDaisy//Drivers/CMSIS/DSP/Source/TransformFunctions/arm_cfft_radix4_f32.c **** #else
 486:../../libDaisy//Drivers/CMSIS/DSP/Source/TransformFunctions/arm_cfft_radix4_f32.c **** 
 487:../../libDaisy//Drivers/CMSIS/DSP/Source/TransformFunctions/arm_cfft_radix4_f32.c ****    float32_t t1, t2, r1, r2, s1, s2;
 488:../../libDaisy//Drivers/CMSIS/DSP/Source/TransformFunctions/arm_cfft_radix4_f32.c **** 
 489:../../libDaisy//Drivers/CMSIS/DSP/Source/TransformFunctions/arm_cfft_radix4_f32.c ****    /* Run the below code for Cortex-M0 */
 490:../../libDaisy//Drivers/CMSIS/DSP/Source/TransformFunctions/arm_cfft_radix4_f32.c **** 
 491:../../libDaisy//Drivers/CMSIS/DSP/Source/TransformFunctions/arm_cfft_radix4_f32.c ****    /*  Initializations for the fft calculation */
 492:../../libDaisy//Drivers/CMSIS/DSP/Source/TransformFunctions/arm_cfft_radix4_f32.c ****    n2 = fftLen;
ARM GAS  /var/folders/hl/qgbwny5j0fd895c2c41bk3tw0000gp/T//ccE84ZOm.s 			page 29


 493:../../libDaisy//Drivers/CMSIS/DSP/Source/TransformFunctions/arm_cfft_radix4_f32.c ****    n1 = n2;
 494:../../libDaisy//Drivers/CMSIS/DSP/Source/TransformFunctions/arm_cfft_radix4_f32.c ****    for (k = fftLen; k > 1u; k >>= 2u)
 495:../../libDaisy//Drivers/CMSIS/DSP/Source/TransformFunctions/arm_cfft_radix4_f32.c ****    {
 496:../../libDaisy//Drivers/CMSIS/DSP/Source/TransformFunctions/arm_cfft_radix4_f32.c ****       /*  Initializations for the fft calculation */
 497:../../libDaisy//Drivers/CMSIS/DSP/Source/TransformFunctions/arm_cfft_radix4_f32.c ****       n1 = n2;
 498:../../libDaisy//Drivers/CMSIS/DSP/Source/TransformFunctions/arm_cfft_radix4_f32.c ****       n2 >>= 2u;
 499:../../libDaisy//Drivers/CMSIS/DSP/Source/TransformFunctions/arm_cfft_radix4_f32.c ****       ia1 = 0u;
 500:../../libDaisy//Drivers/CMSIS/DSP/Source/TransformFunctions/arm_cfft_radix4_f32.c **** 
 501:../../libDaisy//Drivers/CMSIS/DSP/Source/TransformFunctions/arm_cfft_radix4_f32.c ****       /*  FFT Calculation */
 502:../../libDaisy//Drivers/CMSIS/DSP/Source/TransformFunctions/arm_cfft_radix4_f32.c ****       j = 0;
 503:../../libDaisy//Drivers/CMSIS/DSP/Source/TransformFunctions/arm_cfft_radix4_f32.c ****       do
 504:../../libDaisy//Drivers/CMSIS/DSP/Source/TransformFunctions/arm_cfft_radix4_f32.c ****       {
 505:../../libDaisy//Drivers/CMSIS/DSP/Source/TransformFunctions/arm_cfft_radix4_f32.c ****          /*  index calculation for the coefficients */
 506:../../libDaisy//Drivers/CMSIS/DSP/Source/TransformFunctions/arm_cfft_radix4_f32.c ****          ia2 = ia1 + ia1;
 507:../../libDaisy//Drivers/CMSIS/DSP/Source/TransformFunctions/arm_cfft_radix4_f32.c ****          ia3 = ia2 + ia1;
 508:../../libDaisy//Drivers/CMSIS/DSP/Source/TransformFunctions/arm_cfft_radix4_f32.c ****          co1 = pCoef[ia1 * 2u];
 509:../../libDaisy//Drivers/CMSIS/DSP/Source/TransformFunctions/arm_cfft_radix4_f32.c ****          si1 = pCoef[(ia1 * 2u) + 1u];
 510:../../libDaisy//Drivers/CMSIS/DSP/Source/TransformFunctions/arm_cfft_radix4_f32.c ****          co2 = pCoef[ia2 * 2u];
 511:../../libDaisy//Drivers/CMSIS/DSP/Source/TransformFunctions/arm_cfft_radix4_f32.c ****          si2 = pCoef[(ia2 * 2u) + 1u];
 512:../../libDaisy//Drivers/CMSIS/DSP/Source/TransformFunctions/arm_cfft_radix4_f32.c ****          co3 = pCoef[ia3 * 2u];
 513:../../libDaisy//Drivers/CMSIS/DSP/Source/TransformFunctions/arm_cfft_radix4_f32.c ****          si3 = pCoef[(ia3 * 2u) + 1u];
 514:../../libDaisy//Drivers/CMSIS/DSP/Source/TransformFunctions/arm_cfft_radix4_f32.c **** 
 515:../../libDaisy//Drivers/CMSIS/DSP/Source/TransformFunctions/arm_cfft_radix4_f32.c ****          /*  Twiddle coefficients index modifier */
 516:../../libDaisy//Drivers/CMSIS/DSP/Source/TransformFunctions/arm_cfft_radix4_f32.c ****          ia1 = ia1 + twidCoefModifier;
 517:../../libDaisy//Drivers/CMSIS/DSP/Source/TransformFunctions/arm_cfft_radix4_f32.c **** 
 518:../../libDaisy//Drivers/CMSIS/DSP/Source/TransformFunctions/arm_cfft_radix4_f32.c ****          i0 = j;
 519:../../libDaisy//Drivers/CMSIS/DSP/Source/TransformFunctions/arm_cfft_radix4_f32.c ****          do
 520:../../libDaisy//Drivers/CMSIS/DSP/Source/TransformFunctions/arm_cfft_radix4_f32.c ****          {
 521:../../libDaisy//Drivers/CMSIS/DSP/Source/TransformFunctions/arm_cfft_radix4_f32.c ****             /*  index calculation for the input as, */
 522:../../libDaisy//Drivers/CMSIS/DSP/Source/TransformFunctions/arm_cfft_radix4_f32.c ****             /*  pSrc[i0 + 0], pSrc[i0 + fftLen/4], pSrc[i0 + fftLen/2], pSrc[i0 + 3fftLen/4] */
 523:../../libDaisy//Drivers/CMSIS/DSP/Source/TransformFunctions/arm_cfft_radix4_f32.c ****             i1 = i0 + n2;
 524:../../libDaisy//Drivers/CMSIS/DSP/Source/TransformFunctions/arm_cfft_radix4_f32.c ****             i2 = i1 + n2;
 525:../../libDaisy//Drivers/CMSIS/DSP/Source/TransformFunctions/arm_cfft_radix4_f32.c ****             i3 = i2 + n2;
 526:../../libDaisy//Drivers/CMSIS/DSP/Source/TransformFunctions/arm_cfft_radix4_f32.c **** 
 527:../../libDaisy//Drivers/CMSIS/DSP/Source/TransformFunctions/arm_cfft_radix4_f32.c ****             /* xa + xc */
 528:../../libDaisy//Drivers/CMSIS/DSP/Source/TransformFunctions/arm_cfft_radix4_f32.c ****             r1 = pSrc[(2u * i0)] + pSrc[(2u * i2)];
 529:../../libDaisy//Drivers/CMSIS/DSP/Source/TransformFunctions/arm_cfft_radix4_f32.c **** 
 530:../../libDaisy//Drivers/CMSIS/DSP/Source/TransformFunctions/arm_cfft_radix4_f32.c ****             /* xa - xc */
 531:../../libDaisy//Drivers/CMSIS/DSP/Source/TransformFunctions/arm_cfft_radix4_f32.c ****             r2 = pSrc[(2u * i0)] - pSrc[(2u * i2)];
 532:../../libDaisy//Drivers/CMSIS/DSP/Source/TransformFunctions/arm_cfft_radix4_f32.c **** 
 533:../../libDaisy//Drivers/CMSIS/DSP/Source/TransformFunctions/arm_cfft_radix4_f32.c ****             /* ya + yc */
 534:../../libDaisy//Drivers/CMSIS/DSP/Source/TransformFunctions/arm_cfft_radix4_f32.c ****             s1 = pSrc[(2u * i0) + 1u] + pSrc[(2u * i2) + 1u];
 535:../../libDaisy//Drivers/CMSIS/DSP/Source/TransformFunctions/arm_cfft_radix4_f32.c **** 
 536:../../libDaisy//Drivers/CMSIS/DSP/Source/TransformFunctions/arm_cfft_radix4_f32.c ****             /* ya - yc */
 537:../../libDaisy//Drivers/CMSIS/DSP/Source/TransformFunctions/arm_cfft_radix4_f32.c ****             s2 = pSrc[(2u * i0) + 1u] - pSrc[(2u * i2) + 1u];
 538:../../libDaisy//Drivers/CMSIS/DSP/Source/TransformFunctions/arm_cfft_radix4_f32.c **** 
 539:../../libDaisy//Drivers/CMSIS/DSP/Source/TransformFunctions/arm_cfft_radix4_f32.c ****             /* xb + xd */
 540:../../libDaisy//Drivers/CMSIS/DSP/Source/TransformFunctions/arm_cfft_radix4_f32.c ****             t1 = pSrc[2u * i1] + pSrc[2u * i3];
 541:../../libDaisy//Drivers/CMSIS/DSP/Source/TransformFunctions/arm_cfft_radix4_f32.c **** 
 542:../../libDaisy//Drivers/CMSIS/DSP/Source/TransformFunctions/arm_cfft_radix4_f32.c ****             /* xa' = xa + xb + xc + xd */
 543:../../libDaisy//Drivers/CMSIS/DSP/Source/TransformFunctions/arm_cfft_radix4_f32.c ****             pSrc[2u * i0] = r1 + t1;
 544:../../libDaisy//Drivers/CMSIS/DSP/Source/TransformFunctions/arm_cfft_radix4_f32.c **** 
 545:../../libDaisy//Drivers/CMSIS/DSP/Source/TransformFunctions/arm_cfft_radix4_f32.c ****             /* xa + xc -(xb + xd) */
 546:../../libDaisy//Drivers/CMSIS/DSP/Source/TransformFunctions/arm_cfft_radix4_f32.c ****             r1 = r1 - t1;
 547:../../libDaisy//Drivers/CMSIS/DSP/Source/TransformFunctions/arm_cfft_radix4_f32.c **** 
 548:../../libDaisy//Drivers/CMSIS/DSP/Source/TransformFunctions/arm_cfft_radix4_f32.c ****             /* yb + yd */
 549:../../libDaisy//Drivers/CMSIS/DSP/Source/TransformFunctions/arm_cfft_radix4_f32.c ****             t2 = pSrc[(2u * i1) + 1u] + pSrc[(2u * i3) + 1u];
ARM GAS  /var/folders/hl/qgbwny5j0fd895c2c41bk3tw0000gp/T//ccE84ZOm.s 			page 30


 550:../../libDaisy//Drivers/CMSIS/DSP/Source/TransformFunctions/arm_cfft_radix4_f32.c **** 
 551:../../libDaisy//Drivers/CMSIS/DSP/Source/TransformFunctions/arm_cfft_radix4_f32.c ****             /* ya' = ya + yb + yc + yd */
 552:../../libDaisy//Drivers/CMSIS/DSP/Source/TransformFunctions/arm_cfft_radix4_f32.c ****             pSrc[(2u * i0) + 1u] = s1 + t2;
 553:../../libDaisy//Drivers/CMSIS/DSP/Source/TransformFunctions/arm_cfft_radix4_f32.c **** 
 554:../../libDaisy//Drivers/CMSIS/DSP/Source/TransformFunctions/arm_cfft_radix4_f32.c ****             /* (ya + yc) - (yb + yd) */
 555:../../libDaisy//Drivers/CMSIS/DSP/Source/TransformFunctions/arm_cfft_radix4_f32.c ****             s1 = s1 - t2;
 556:../../libDaisy//Drivers/CMSIS/DSP/Source/TransformFunctions/arm_cfft_radix4_f32.c **** 
 557:../../libDaisy//Drivers/CMSIS/DSP/Source/TransformFunctions/arm_cfft_radix4_f32.c ****             /* (yb - yd) */
 558:../../libDaisy//Drivers/CMSIS/DSP/Source/TransformFunctions/arm_cfft_radix4_f32.c ****             t1 = pSrc[(2u * i1) + 1u] - pSrc[(2u * i3) + 1u];
 559:../../libDaisy//Drivers/CMSIS/DSP/Source/TransformFunctions/arm_cfft_radix4_f32.c **** 
 560:../../libDaisy//Drivers/CMSIS/DSP/Source/TransformFunctions/arm_cfft_radix4_f32.c ****             /* (xb - xd) */
 561:../../libDaisy//Drivers/CMSIS/DSP/Source/TransformFunctions/arm_cfft_radix4_f32.c ****             t2 = pSrc[2u * i1] - pSrc[2u * i3];
 562:../../libDaisy//Drivers/CMSIS/DSP/Source/TransformFunctions/arm_cfft_radix4_f32.c **** 
 563:../../libDaisy//Drivers/CMSIS/DSP/Source/TransformFunctions/arm_cfft_radix4_f32.c ****             /* xc' = (xa-xb+xc-xd)co2 + (ya-yb+yc-yd)(si2) */
 564:../../libDaisy//Drivers/CMSIS/DSP/Source/TransformFunctions/arm_cfft_radix4_f32.c ****             pSrc[2u * i1] = (r1 * co2) + (s1 * si2);
 565:../../libDaisy//Drivers/CMSIS/DSP/Source/TransformFunctions/arm_cfft_radix4_f32.c **** 
 566:../../libDaisy//Drivers/CMSIS/DSP/Source/TransformFunctions/arm_cfft_radix4_f32.c ****             /* yc' = (ya-yb+yc-yd)co2 - (xa-xb+xc-xd)(si2) */
 567:../../libDaisy//Drivers/CMSIS/DSP/Source/TransformFunctions/arm_cfft_radix4_f32.c ****             pSrc[(2u * i1) + 1u] = (s1 * co2) - (r1 * si2);
 568:../../libDaisy//Drivers/CMSIS/DSP/Source/TransformFunctions/arm_cfft_radix4_f32.c **** 
 569:../../libDaisy//Drivers/CMSIS/DSP/Source/TransformFunctions/arm_cfft_radix4_f32.c ****             /* (xa - xc) + (yb - yd) */
 570:../../libDaisy//Drivers/CMSIS/DSP/Source/TransformFunctions/arm_cfft_radix4_f32.c ****             r1 = r2 + t1;
 571:../../libDaisy//Drivers/CMSIS/DSP/Source/TransformFunctions/arm_cfft_radix4_f32.c **** 
 572:../../libDaisy//Drivers/CMSIS/DSP/Source/TransformFunctions/arm_cfft_radix4_f32.c ****             /* (xa - xc) - (yb - yd) */
 573:../../libDaisy//Drivers/CMSIS/DSP/Source/TransformFunctions/arm_cfft_radix4_f32.c ****             r2 = r2 - t1;
 574:../../libDaisy//Drivers/CMSIS/DSP/Source/TransformFunctions/arm_cfft_radix4_f32.c **** 
 575:../../libDaisy//Drivers/CMSIS/DSP/Source/TransformFunctions/arm_cfft_radix4_f32.c ****             /* (ya - yc) -  (xb - xd) */
 576:../../libDaisy//Drivers/CMSIS/DSP/Source/TransformFunctions/arm_cfft_radix4_f32.c ****             s1 = s2 - t2;
 577:../../libDaisy//Drivers/CMSIS/DSP/Source/TransformFunctions/arm_cfft_radix4_f32.c **** 
 578:../../libDaisy//Drivers/CMSIS/DSP/Source/TransformFunctions/arm_cfft_radix4_f32.c ****             /* (ya - yc) +  (xb - xd) */
 579:../../libDaisy//Drivers/CMSIS/DSP/Source/TransformFunctions/arm_cfft_radix4_f32.c ****             s2 = s2 + t2;
 580:../../libDaisy//Drivers/CMSIS/DSP/Source/TransformFunctions/arm_cfft_radix4_f32.c **** 
 581:../../libDaisy//Drivers/CMSIS/DSP/Source/TransformFunctions/arm_cfft_radix4_f32.c ****             /* xb' = (xa+yb-xc-yd)co1 + (ya-xb-yc+xd)(si1) */
 582:../../libDaisy//Drivers/CMSIS/DSP/Source/TransformFunctions/arm_cfft_radix4_f32.c ****             pSrc[2u * i2] = (r1 * co1) + (s1 * si1);
 583:../../libDaisy//Drivers/CMSIS/DSP/Source/TransformFunctions/arm_cfft_radix4_f32.c **** 
 584:../../libDaisy//Drivers/CMSIS/DSP/Source/TransformFunctions/arm_cfft_radix4_f32.c ****             /* yb' = (ya-xb-yc+xd)co1 - (xa+yb-xc-yd)(si1) */
 585:../../libDaisy//Drivers/CMSIS/DSP/Source/TransformFunctions/arm_cfft_radix4_f32.c ****             pSrc[(2u * i2) + 1u] = (s1 * co1) - (r1 * si1);
 586:../../libDaisy//Drivers/CMSIS/DSP/Source/TransformFunctions/arm_cfft_radix4_f32.c **** 
 587:../../libDaisy//Drivers/CMSIS/DSP/Source/TransformFunctions/arm_cfft_radix4_f32.c ****             /* xd' = (xa-yb-xc+yd)co3 + (ya+xb-yc-xd)(si3) */
 588:../../libDaisy//Drivers/CMSIS/DSP/Source/TransformFunctions/arm_cfft_radix4_f32.c ****             pSrc[2u * i3] = (r2 * co3) + (s2 * si3);
 589:../../libDaisy//Drivers/CMSIS/DSP/Source/TransformFunctions/arm_cfft_radix4_f32.c **** 
 590:../../libDaisy//Drivers/CMSIS/DSP/Source/TransformFunctions/arm_cfft_radix4_f32.c ****             /* yd' = (ya+xb-yc-xd)co3 - (xa-yb-xc+yd)(si3) */
 591:../../libDaisy//Drivers/CMSIS/DSP/Source/TransformFunctions/arm_cfft_radix4_f32.c ****             pSrc[(2u * i3) + 1u] = (s2 * co3) - (r2 * si3);
 592:../../libDaisy//Drivers/CMSIS/DSP/Source/TransformFunctions/arm_cfft_radix4_f32.c **** 
 593:../../libDaisy//Drivers/CMSIS/DSP/Source/TransformFunctions/arm_cfft_radix4_f32.c ****             i0 += n1;
 594:../../libDaisy//Drivers/CMSIS/DSP/Source/TransformFunctions/arm_cfft_radix4_f32.c ****          } while ( i0 < fftLen);
 595:../../libDaisy//Drivers/CMSIS/DSP/Source/TransformFunctions/arm_cfft_radix4_f32.c ****          j++;
 596:../../libDaisy//Drivers/CMSIS/DSP/Source/TransformFunctions/arm_cfft_radix4_f32.c ****       } while (j <= (n2 - 1u));
 597:../../libDaisy//Drivers/CMSIS/DSP/Source/TransformFunctions/arm_cfft_radix4_f32.c ****       twidCoefModifier <<= 2u;
 598:../../libDaisy//Drivers/CMSIS/DSP/Source/TransformFunctions/arm_cfft_radix4_f32.c ****    }
 599:../../libDaisy//Drivers/CMSIS/DSP/Source/TransformFunctions/arm_cfft_radix4_f32.c **** 
 600:../../libDaisy//Drivers/CMSIS/DSP/Source/TransformFunctions/arm_cfft_radix4_f32.c **** #endif /* #if defined (ARM_MATH_DSP) */
 601:../../libDaisy//Drivers/CMSIS/DSP/Source/TransformFunctions/arm_cfft_radix4_f32.c **** 
 602:../../libDaisy//Drivers/CMSIS/DSP/Source/TransformFunctions/arm_cfft_radix4_f32.c **** }
 795              		.loc 1 602 1 view .LVU385
 796 0326 0DB0     		add	sp, sp, #52
 797              		.cfi_def_cfa_offset 60
 798              		@ sp needed
ARM GAS  /var/folders/hl/qgbwny5j0fd895c2c41bk3tw0000gp/T//ccE84ZOm.s 			page 31


 799 0328 BDEC068B 		vldm	sp!, {d8-d10}
 800              		.cfi_restore 84
 801              		.cfi_restore 85
 802              		.cfi_restore 82
 803              		.cfi_restore 83
 804              		.cfi_restore 80
 805              		.cfi_restore 81
 806              		.cfi_def_cfa_offset 36
 807 032c BDE8F08F 		pop	{r4, r5, r6, r7, r8, r9, r10, fp, pc}
 808              		.loc 1 602 1 view .LVU386
 809              		.cfi_endproc
 810              	.LFE354:
 812              		.section	.text.arm_radix4_butterfly_inverse_f32,"ax",%progbits
 813              		.align	1
 814              		.p2align 2,,3
 815              		.global	arm_radix4_butterfly_inverse_f32
 816              		.syntax unified
 817              		.thumb
 818              		.thumb_func
 819              		.fpu fpv5-d16
 821              	arm_radix4_butterfly_inverse_f32:
 822              	.LVL112:
 823              	.LFB355:
 603:../../libDaisy//Drivers/CMSIS/DSP/Source/TransformFunctions/arm_cfft_radix4_f32.c **** 
 604:../../libDaisy//Drivers/CMSIS/DSP/Source/TransformFunctions/arm_cfft_radix4_f32.c **** /*
 605:../../libDaisy//Drivers/CMSIS/DSP/Source/TransformFunctions/arm_cfft_radix4_f32.c **** * @brief  Core function for the floating-point CIFFT butterfly process.
 606:../../libDaisy//Drivers/CMSIS/DSP/Source/TransformFunctions/arm_cfft_radix4_f32.c **** * @param[in, out] *pSrc            points to the in-place buffer of floating-point data type.
 607:../../libDaisy//Drivers/CMSIS/DSP/Source/TransformFunctions/arm_cfft_radix4_f32.c **** * @param[in]      fftLen           length of the FFT.
 608:../../libDaisy//Drivers/CMSIS/DSP/Source/TransformFunctions/arm_cfft_radix4_f32.c **** * @param[in]      *pCoef           points to twiddle coefficient buffer.
 609:../../libDaisy//Drivers/CMSIS/DSP/Source/TransformFunctions/arm_cfft_radix4_f32.c **** * @param[in]      twidCoefModifier twiddle coefficient modifier that supports different size FFTs w
 610:../../libDaisy//Drivers/CMSIS/DSP/Source/TransformFunctions/arm_cfft_radix4_f32.c **** * @param[in]      onebyfftLen      value of 1/fftLen.
 611:../../libDaisy//Drivers/CMSIS/DSP/Source/TransformFunctions/arm_cfft_radix4_f32.c **** * @return none.
 612:../../libDaisy//Drivers/CMSIS/DSP/Source/TransformFunctions/arm_cfft_radix4_f32.c **** */
 613:../../libDaisy//Drivers/CMSIS/DSP/Source/TransformFunctions/arm_cfft_radix4_f32.c **** 
 614:../../libDaisy//Drivers/CMSIS/DSP/Source/TransformFunctions/arm_cfft_radix4_f32.c **** void arm_radix4_butterfly_inverse_f32(
 615:../../libDaisy//Drivers/CMSIS/DSP/Source/TransformFunctions/arm_cfft_radix4_f32.c **** float32_t * pSrc,
 616:../../libDaisy//Drivers/CMSIS/DSP/Source/TransformFunctions/arm_cfft_radix4_f32.c **** uint16_t fftLen,
 617:../../libDaisy//Drivers/CMSIS/DSP/Source/TransformFunctions/arm_cfft_radix4_f32.c **** float32_t * pCoef,
 618:../../libDaisy//Drivers/CMSIS/DSP/Source/TransformFunctions/arm_cfft_radix4_f32.c **** uint16_t twidCoefModifier,
 619:../../libDaisy//Drivers/CMSIS/DSP/Source/TransformFunctions/arm_cfft_radix4_f32.c **** float32_t onebyfftLen)
 620:../../libDaisy//Drivers/CMSIS/DSP/Source/TransformFunctions/arm_cfft_radix4_f32.c **** {
 824              		.loc 1 620 1 is_stmt 1 view -0
 825              		.cfi_startproc
 826              		@ args = 0, pretend = 0, frame = 48
 827              		@ frame_needed = 0, uses_anonymous_args = 0
 621:../../libDaisy//Drivers/CMSIS/DSP/Source/TransformFunctions/arm_cfft_radix4_f32.c ****    float32_t co1, co2, co3, si1, si2, si3;
 828              		.loc 1 621 4 view .LVU388
 622:../../libDaisy//Drivers/CMSIS/DSP/Source/TransformFunctions/arm_cfft_radix4_f32.c ****    uint32_t ia1, ia2, ia3;
 829              		.loc 1 622 4 view .LVU389
 623:../../libDaisy//Drivers/CMSIS/DSP/Source/TransformFunctions/arm_cfft_radix4_f32.c ****    uint32_t i0, i1, i2, i3;
 830              		.loc 1 623 4 view .LVU390
 624:../../libDaisy//Drivers/CMSIS/DSP/Source/TransformFunctions/arm_cfft_radix4_f32.c ****    uint32_t n1, n2, j, k;
 831              		.loc 1 624 4 view .LVU391
 625:../../libDaisy//Drivers/CMSIS/DSP/Source/TransformFunctions/arm_cfft_radix4_f32.c **** 
 626:../../libDaisy//Drivers/CMSIS/DSP/Source/TransformFunctions/arm_cfft_radix4_f32.c **** #if defined (ARM_MATH_DSP)
 627:../../libDaisy//Drivers/CMSIS/DSP/Source/TransformFunctions/arm_cfft_radix4_f32.c **** 
 628:../../libDaisy//Drivers/CMSIS/DSP/Source/TransformFunctions/arm_cfft_radix4_f32.c ****    float32_t xaIn, yaIn, xbIn, ybIn, xcIn, ycIn, xdIn, ydIn;
ARM GAS  /var/folders/hl/qgbwny5j0fd895c2c41bk3tw0000gp/T//ccE84ZOm.s 			page 32


 832              		.loc 1 628 4 view .LVU392
 629:../../libDaisy//Drivers/CMSIS/DSP/Source/TransformFunctions/arm_cfft_radix4_f32.c ****    float32_t Xaplusc, Xbplusd, Yaplusc, Ybplusd, Xaminusc, Xbminusd, Yaminusc,
 833              		.loc 1 629 4 view .LVU393
 630:../../libDaisy//Drivers/CMSIS/DSP/Source/TransformFunctions/arm_cfft_radix4_f32.c ****    Ybminusd;
 631:../../libDaisy//Drivers/CMSIS/DSP/Source/TransformFunctions/arm_cfft_radix4_f32.c ****    float32_t Xb12C_out, Yb12C_out, Xc12C_out, Yc12C_out, Xd12C_out, Yd12C_out;
 834              		.loc 1 631 4 view .LVU394
 632:../../libDaisy//Drivers/CMSIS/DSP/Source/TransformFunctions/arm_cfft_radix4_f32.c ****    float32_t Xb12_out, Yb12_out, Xc12_out, Yc12_out, Xd12_out, Yd12_out;
 835              		.loc 1 632 4 view .LVU395
 633:../../libDaisy//Drivers/CMSIS/DSP/Source/TransformFunctions/arm_cfft_radix4_f32.c ****    float32_t *ptr1;
 836              		.loc 1 633 4 view .LVU396
 634:../../libDaisy//Drivers/CMSIS/DSP/Source/TransformFunctions/arm_cfft_radix4_f32.c ****    float32_t p0,p1,p2,p3,p4,p5,p6,p7;
 837              		.loc 1 634 4 view .LVU397
 635:../../libDaisy//Drivers/CMSIS/DSP/Source/TransformFunctions/arm_cfft_radix4_f32.c ****    float32_t a0,a1,a2,a3,a4,a5,a6,a7;
 838              		.loc 1 635 4 view .LVU398
 636:../../libDaisy//Drivers/CMSIS/DSP/Source/TransformFunctions/arm_cfft_radix4_f32.c **** 
 637:../../libDaisy//Drivers/CMSIS/DSP/Source/TransformFunctions/arm_cfft_radix4_f32.c **** 
 638:../../libDaisy//Drivers/CMSIS/DSP/Source/TransformFunctions/arm_cfft_radix4_f32.c ****    /*  Initializations for the first stage */
 639:../../libDaisy//Drivers/CMSIS/DSP/Source/TransformFunctions/arm_cfft_radix4_f32.c ****    n2 = fftLen;
 839              		.loc 1 639 4 view .LVU399
 620:../../libDaisy//Drivers/CMSIS/DSP/Source/TransformFunctions/arm_cfft_radix4_f32.c ****    float32_t co1, co2, co3, si1, si2, si3;
 840              		.loc 1 620 1 is_stmt 0 view .LVU400
 841 0000 2DE9F04F 		push	{r4, r5, r6, r7, r8, r9, r10, fp, lr}
 842              		.cfi_def_cfa_offset 36
 843              		.cfi_offset 4, -36
 844              		.cfi_offset 5, -32
 845              		.cfi_offset 6, -28
 846              		.cfi_offset 7, -24
 847              		.cfi_offset 8, -20
 848              		.cfi_offset 9, -16
 849              		.cfi_offset 10, -12
 850              		.cfi_offset 11, -8
 851              		.cfi_offset 14, -4
 640:../../libDaisy//Drivers/CMSIS/DSP/Source/TransformFunctions/arm_cfft_radix4_f32.c ****    n1 = n2;
 641:../../libDaisy//Drivers/CMSIS/DSP/Source/TransformFunctions/arm_cfft_radix4_f32.c **** 
 642:../../libDaisy//Drivers/CMSIS/DSP/Source/TransformFunctions/arm_cfft_radix4_f32.c ****    /* n2 = fftLen/4 */
 643:../../libDaisy//Drivers/CMSIS/DSP/Source/TransformFunctions/arm_cfft_radix4_f32.c ****    n2 >>= 2u;
 852              		.loc 1 643 7 view .LVU401
 853 0004 4FEA9109 		lsr	r9, r1, #2
 854 0008 141D     		adds	r4, r2, #4
 620:../../libDaisy//Drivers/CMSIS/DSP/Source/TransformFunctions/arm_cfft_radix4_f32.c ****    float32_t co1, co2, co3, si1, si2, si3;
 855              		.loc 1 620 1 view .LVU402
 856 000a 9A46     		mov	r10, r3
 857 000c 03EB4307 		add	r7, r3, r3, lsl #1
 858 0010 00EBC902 		add	r2, r0, r9, lsl #3
 859              	.LVL113:
 620:../../libDaisy//Drivers/CMSIS/DSP/Source/TransformFunctions/arm_cfft_radix4_f32.c ****    float32_t co1, co2, co3, si1, si2, si3;
 860              		.loc 1 620 1 view .LVU403
 861 0014 8B46     		mov	fp, r1
 862              	.LVL114:
 640:../../libDaisy//Drivers/CMSIS/DSP/Source/TransformFunctions/arm_cfft_radix4_f32.c ****    n1 = n2;
 863              		.loc 1 640 4 is_stmt 1 view .LVU404
 864              		.loc 1 643 4 view .LVU405
 865 0016 0346     		mov	r3, r0
 866              	.LVL115:
 867              		.loc 1 643 4 is_stmt 0 view .LVU406
 868 0018 FF00     		lsls	r7, r7, #3
 869 001a 02EB0911 		add	r1, r2, r9, lsl #4
ARM GAS  /var/folders/hl/qgbwny5j0fd895c2c41bk3tw0000gp/T//ccE84ZOm.s 			page 33


 870              	.LVL116:
 871              		.loc 1 643 4 view .LVU407
 872 001e 9446     		mov	ip, r2
 873 0020 4FEA0A18 		lsl	r8, r10, #4
 644:../../libDaisy//Drivers/CMSIS/DSP/Source/TransformFunctions/arm_cfft_radix4_f32.c ****    i0 = 0u;
 645:../../libDaisy//Drivers/CMSIS/DSP/Source/TransformFunctions/arm_cfft_radix4_f32.c ****    ia1 = 0u;
 646:../../libDaisy//Drivers/CMSIS/DSP/Source/TransformFunctions/arm_cfft_radix4_f32.c **** 
 647:../../libDaisy//Drivers/CMSIS/DSP/Source/TransformFunctions/arm_cfft_radix4_f32.c ****    j = n2;
 648:../../libDaisy//Drivers/CMSIS/DSP/Source/TransformFunctions/arm_cfft_radix4_f32.c **** 
 649:../../libDaisy//Drivers/CMSIS/DSP/Source/TransformFunctions/arm_cfft_radix4_f32.c ****    /*  Calculation of first stage */
 650:../../libDaisy//Drivers/CMSIS/DSP/Source/TransformFunctions/arm_cfft_radix4_f32.c ****    do
 651:../../libDaisy//Drivers/CMSIS/DSP/Source/TransformFunctions/arm_cfft_radix4_f32.c ****    {
 652:../../libDaisy//Drivers/CMSIS/DSP/Source/TransformFunctions/arm_cfft_radix4_f32.c ****       /*  index calculation for the input as, */
 653:../../libDaisy//Drivers/CMSIS/DSP/Source/TransformFunctions/arm_cfft_radix4_f32.c ****       /*  pSrc[i0 + 0], pSrc[i0 + fftLen/4], pSrc[i0 + fftLen/2], pSrc[i0 + 3fftLen/4] */
 654:../../libDaisy//Drivers/CMSIS/DSP/Source/TransformFunctions/arm_cfft_radix4_f32.c ****       i1 = i0 + n2;
 655:../../libDaisy//Drivers/CMSIS/DSP/Source/TransformFunctions/arm_cfft_radix4_f32.c ****       i2 = i1 + n2;
 656:../../libDaisy//Drivers/CMSIS/DSP/Source/TransformFunctions/arm_cfft_radix4_f32.c ****       i3 = i2 + n2;
 657:../../libDaisy//Drivers/CMSIS/DSP/Source/TransformFunctions/arm_cfft_radix4_f32.c **** 
 658:../../libDaisy//Drivers/CMSIS/DSP/Source/TransformFunctions/arm_cfft_radix4_f32.c ****       /*  Butterfly implementation */
 659:../../libDaisy//Drivers/CMSIS/DSP/Source/TransformFunctions/arm_cfft_radix4_f32.c ****       xaIn = pSrc[(2u * i0)];
 660:../../libDaisy//Drivers/CMSIS/DSP/Source/TransformFunctions/arm_cfft_radix4_f32.c ****       yaIn = pSrc[(2u * i0) + 1u];
 661:../../libDaisy//Drivers/CMSIS/DSP/Source/TransformFunctions/arm_cfft_radix4_f32.c **** 
 662:../../libDaisy//Drivers/CMSIS/DSP/Source/TransformFunctions/arm_cfft_radix4_f32.c ****       xcIn = pSrc[(2u * i2)];
 663:../../libDaisy//Drivers/CMSIS/DSP/Source/TransformFunctions/arm_cfft_radix4_f32.c ****       ycIn = pSrc[(2u * i2) + 1u];
 664:../../libDaisy//Drivers/CMSIS/DSP/Source/TransformFunctions/arm_cfft_radix4_f32.c **** 
 665:../../libDaisy//Drivers/CMSIS/DSP/Source/TransformFunctions/arm_cfft_radix4_f32.c ****       xbIn = pSrc[(2u * i1)];
 666:../../libDaisy//Drivers/CMSIS/DSP/Source/TransformFunctions/arm_cfft_radix4_f32.c ****       ybIn = pSrc[(2u * i1) + 1u];
 667:../../libDaisy//Drivers/CMSIS/DSP/Source/TransformFunctions/arm_cfft_radix4_f32.c **** 
 668:../../libDaisy//Drivers/CMSIS/DSP/Source/TransformFunctions/arm_cfft_radix4_f32.c ****       xdIn = pSrc[(2u * i3)];
 669:../../libDaisy//Drivers/CMSIS/DSP/Source/TransformFunctions/arm_cfft_radix4_f32.c ****       ydIn = pSrc[(2u * i3) + 1u];
 670:../../libDaisy//Drivers/CMSIS/DSP/Source/TransformFunctions/arm_cfft_radix4_f32.c **** 
 671:../../libDaisy//Drivers/CMSIS/DSP/Source/TransformFunctions/arm_cfft_radix4_f32.c ****       /* xa + xc */
 672:../../libDaisy//Drivers/CMSIS/DSP/Source/TransformFunctions/arm_cfft_radix4_f32.c ****       Xaplusc = xaIn + xcIn;
 673:../../libDaisy//Drivers/CMSIS/DSP/Source/TransformFunctions/arm_cfft_radix4_f32.c ****       /* xb + xd */
 674:../../libDaisy//Drivers/CMSIS/DSP/Source/TransformFunctions/arm_cfft_radix4_f32.c ****       Xbplusd = xbIn + xdIn;
 675:../../libDaisy//Drivers/CMSIS/DSP/Source/TransformFunctions/arm_cfft_radix4_f32.c ****       /* ya + yc */
 676:../../libDaisy//Drivers/CMSIS/DSP/Source/TransformFunctions/arm_cfft_radix4_f32.c ****       Yaplusc = yaIn + ycIn;
 677:../../libDaisy//Drivers/CMSIS/DSP/Source/TransformFunctions/arm_cfft_radix4_f32.c ****       /* yb + yd */
 678:../../libDaisy//Drivers/CMSIS/DSP/Source/TransformFunctions/arm_cfft_radix4_f32.c ****       Ybplusd = ybIn + ydIn;
 679:../../libDaisy//Drivers/CMSIS/DSP/Source/TransformFunctions/arm_cfft_radix4_f32.c **** 
 680:../../libDaisy//Drivers/CMSIS/DSP/Source/TransformFunctions/arm_cfft_radix4_f32.c ****       /*  index calculation for the coefficients */
 681:../../libDaisy//Drivers/CMSIS/DSP/Source/TransformFunctions/arm_cfft_radix4_f32.c ****       ia2 = ia1 + ia1;
 682:../../libDaisy//Drivers/CMSIS/DSP/Source/TransformFunctions/arm_cfft_radix4_f32.c ****       co2 = pCoef[ia2 * 2u];
 683:../../libDaisy//Drivers/CMSIS/DSP/Source/TransformFunctions/arm_cfft_radix4_f32.c ****       si2 = pCoef[(ia2 * 2u) + 1u];
 684:../../libDaisy//Drivers/CMSIS/DSP/Source/TransformFunctions/arm_cfft_radix4_f32.c **** 
 685:../../libDaisy//Drivers/CMSIS/DSP/Source/TransformFunctions/arm_cfft_radix4_f32.c ****       /* xa - xc */
 686:../../libDaisy//Drivers/CMSIS/DSP/Source/TransformFunctions/arm_cfft_radix4_f32.c ****       Xaminusc = xaIn - xcIn;
 687:../../libDaisy//Drivers/CMSIS/DSP/Source/TransformFunctions/arm_cfft_radix4_f32.c ****       /* xb - xd */
 688:../../libDaisy//Drivers/CMSIS/DSP/Source/TransformFunctions/arm_cfft_radix4_f32.c ****       Xbminusd = xbIn - xdIn;
 689:../../libDaisy//Drivers/CMSIS/DSP/Source/TransformFunctions/arm_cfft_radix4_f32.c ****       /* ya - yc */
 690:../../libDaisy//Drivers/CMSIS/DSP/Source/TransformFunctions/arm_cfft_radix4_f32.c ****       Yaminusc = yaIn - ycIn;
 691:../../libDaisy//Drivers/CMSIS/DSP/Source/TransformFunctions/arm_cfft_radix4_f32.c ****       /* yb - yd */
 692:../../libDaisy//Drivers/CMSIS/DSP/Source/TransformFunctions/arm_cfft_radix4_f32.c ****       Ybminusd = ybIn - ydIn;
 693:../../libDaisy//Drivers/CMSIS/DSP/Source/TransformFunctions/arm_cfft_radix4_f32.c **** 
 694:../../libDaisy//Drivers/CMSIS/DSP/Source/TransformFunctions/arm_cfft_radix4_f32.c ****       /* xa' = xa + xb + xc + xd */
 695:../../libDaisy//Drivers/CMSIS/DSP/Source/TransformFunctions/arm_cfft_radix4_f32.c ****       pSrc[(2u * i0)] = Xaplusc + Xbplusd;
 696:../../libDaisy//Drivers/CMSIS/DSP/Source/TransformFunctions/arm_cfft_radix4_f32.c **** 
ARM GAS  /var/folders/hl/qgbwny5j0fd895c2c41bk3tw0000gp/T//ccE84ZOm.s 			page 34


 697:../../libDaisy//Drivers/CMSIS/DSP/Source/TransformFunctions/arm_cfft_radix4_f32.c ****       /* ya' = ya + yb + yc + yd */
 698:../../libDaisy//Drivers/CMSIS/DSP/Source/TransformFunctions/arm_cfft_radix4_f32.c ****       pSrc[(2u * i0) + 1u] = Yaplusc + Ybplusd;
 699:../../libDaisy//Drivers/CMSIS/DSP/Source/TransformFunctions/arm_cfft_radix4_f32.c **** 
 700:../../libDaisy//Drivers/CMSIS/DSP/Source/TransformFunctions/arm_cfft_radix4_f32.c ****       /* (xa - xc) - (yb - yd) */
 701:../../libDaisy//Drivers/CMSIS/DSP/Source/TransformFunctions/arm_cfft_radix4_f32.c ****       Xb12C_out = (Xaminusc - Ybminusd);
 702:../../libDaisy//Drivers/CMSIS/DSP/Source/TransformFunctions/arm_cfft_radix4_f32.c ****       /* (ya - yc) + (xb - xd) */
 703:../../libDaisy//Drivers/CMSIS/DSP/Source/TransformFunctions/arm_cfft_radix4_f32.c ****       Yb12C_out = (Yaminusc + Xbminusd);
 704:../../libDaisy//Drivers/CMSIS/DSP/Source/TransformFunctions/arm_cfft_radix4_f32.c ****       /* (xa + xc) - (xb + xd) */
 705:../../libDaisy//Drivers/CMSIS/DSP/Source/TransformFunctions/arm_cfft_radix4_f32.c ****       Xc12C_out = (Xaplusc - Xbplusd);
 706:../../libDaisy//Drivers/CMSIS/DSP/Source/TransformFunctions/arm_cfft_radix4_f32.c ****       /* (ya + yc) - (yb + yd) */
 707:../../libDaisy//Drivers/CMSIS/DSP/Source/TransformFunctions/arm_cfft_radix4_f32.c ****       Yc12C_out = (Yaplusc - Ybplusd);
 708:../../libDaisy//Drivers/CMSIS/DSP/Source/TransformFunctions/arm_cfft_radix4_f32.c ****       /* (xa - xc) + (yb - yd) */
 709:../../libDaisy//Drivers/CMSIS/DSP/Source/TransformFunctions/arm_cfft_radix4_f32.c ****       Xd12C_out = (Xaminusc + Ybminusd);
 710:../../libDaisy//Drivers/CMSIS/DSP/Source/TransformFunctions/arm_cfft_radix4_f32.c ****       /* (ya - yc) - (xb - xd) */
 711:../../libDaisy//Drivers/CMSIS/DSP/Source/TransformFunctions/arm_cfft_radix4_f32.c ****       Yd12C_out = (Yaminusc - Xbminusd);
 712:../../libDaisy//Drivers/CMSIS/DSP/Source/TransformFunctions/arm_cfft_radix4_f32.c **** 
 713:../../libDaisy//Drivers/CMSIS/DSP/Source/TransformFunctions/arm_cfft_radix4_f32.c ****       co1 = pCoef[ia1 * 2u];
 714:../../libDaisy//Drivers/CMSIS/DSP/Source/TransformFunctions/arm_cfft_radix4_f32.c ****       si1 = pCoef[(ia1 * 2u) + 1u];
 715:../../libDaisy//Drivers/CMSIS/DSP/Source/TransformFunctions/arm_cfft_radix4_f32.c **** 
 716:../../libDaisy//Drivers/CMSIS/DSP/Source/TransformFunctions/arm_cfft_radix4_f32.c ****       /*  index calculation for the coefficients */
 717:../../libDaisy//Drivers/CMSIS/DSP/Source/TransformFunctions/arm_cfft_radix4_f32.c ****       ia3 = ia2 + ia1;
 718:../../libDaisy//Drivers/CMSIS/DSP/Source/TransformFunctions/arm_cfft_radix4_f32.c ****       co3 = pCoef[ia3 * 2u];
 719:../../libDaisy//Drivers/CMSIS/DSP/Source/TransformFunctions/arm_cfft_radix4_f32.c ****       si3 = pCoef[(ia3 * 2u) + 1u];
 720:../../libDaisy//Drivers/CMSIS/DSP/Source/TransformFunctions/arm_cfft_radix4_f32.c **** 
 721:../../libDaisy//Drivers/CMSIS/DSP/Source/TransformFunctions/arm_cfft_radix4_f32.c ****       Xb12_out = Xb12C_out * co1;
 722:../../libDaisy//Drivers/CMSIS/DSP/Source/TransformFunctions/arm_cfft_radix4_f32.c ****       Yb12_out = Yb12C_out * co1;
 723:../../libDaisy//Drivers/CMSIS/DSP/Source/TransformFunctions/arm_cfft_radix4_f32.c ****       Xc12_out = Xc12C_out * co2;
 724:../../libDaisy//Drivers/CMSIS/DSP/Source/TransformFunctions/arm_cfft_radix4_f32.c ****       Yc12_out = Yc12C_out * co2;
 725:../../libDaisy//Drivers/CMSIS/DSP/Source/TransformFunctions/arm_cfft_radix4_f32.c ****       Xd12_out = Xd12C_out * co3;
 726:../../libDaisy//Drivers/CMSIS/DSP/Source/TransformFunctions/arm_cfft_radix4_f32.c ****       Yd12_out = Yd12C_out * co3;
 727:../../libDaisy//Drivers/CMSIS/DSP/Source/TransformFunctions/arm_cfft_radix4_f32.c **** 
 728:../../libDaisy//Drivers/CMSIS/DSP/Source/TransformFunctions/arm_cfft_radix4_f32.c ****       /* xb' = (xa+yb-xc-yd)co1 - (ya-xb-yc+xd)(si1) */
 729:../../libDaisy//Drivers/CMSIS/DSP/Source/TransformFunctions/arm_cfft_radix4_f32.c ****       //Xb12_out -= Yb12C_out * si1;
 730:../../libDaisy//Drivers/CMSIS/DSP/Source/TransformFunctions/arm_cfft_radix4_f32.c ****       p0 = Yb12C_out * si1;
 731:../../libDaisy//Drivers/CMSIS/DSP/Source/TransformFunctions/arm_cfft_radix4_f32.c ****       /* yb' = (ya-xb-yc+xd)co1 + (xa+yb-xc-yd)(si1) */
 732:../../libDaisy//Drivers/CMSIS/DSP/Source/TransformFunctions/arm_cfft_radix4_f32.c ****       //Yb12_out += Xb12C_out * si1;
 733:../../libDaisy//Drivers/CMSIS/DSP/Source/TransformFunctions/arm_cfft_radix4_f32.c ****       p1 = Xb12C_out * si1;
 734:../../libDaisy//Drivers/CMSIS/DSP/Source/TransformFunctions/arm_cfft_radix4_f32.c ****       /* xc' = (xa-xb+xc-xd)co2 - (ya-yb+yc-yd)(si2) */
 735:../../libDaisy//Drivers/CMSIS/DSP/Source/TransformFunctions/arm_cfft_radix4_f32.c ****       //Xc12_out -= Yc12C_out * si2;
 736:../../libDaisy//Drivers/CMSIS/DSP/Source/TransformFunctions/arm_cfft_radix4_f32.c ****       p2 = Yc12C_out * si2;
 737:../../libDaisy//Drivers/CMSIS/DSP/Source/TransformFunctions/arm_cfft_radix4_f32.c ****       /* yc' = (ya-yb+yc-yd)co2 + (xa-xb+xc-xd)(si2) */
 738:../../libDaisy//Drivers/CMSIS/DSP/Source/TransformFunctions/arm_cfft_radix4_f32.c ****       //Yc12_out += Xc12C_out * si2;
 739:../../libDaisy//Drivers/CMSIS/DSP/Source/TransformFunctions/arm_cfft_radix4_f32.c ****       p3 = Xc12C_out * si2;
 740:../../libDaisy//Drivers/CMSIS/DSP/Source/TransformFunctions/arm_cfft_radix4_f32.c ****       /* xd' = (xa-yb-xc+yd)co3 - (ya+xb-yc-xd)(si3) */
 741:../../libDaisy//Drivers/CMSIS/DSP/Source/TransformFunctions/arm_cfft_radix4_f32.c ****       //Xd12_out -= Yd12C_out * si3;
 742:../../libDaisy//Drivers/CMSIS/DSP/Source/TransformFunctions/arm_cfft_radix4_f32.c ****       p4 = Yd12C_out * si3;
 743:../../libDaisy//Drivers/CMSIS/DSP/Source/TransformFunctions/arm_cfft_radix4_f32.c ****       /* yd' = (ya+xb-yc-xd)co3 + (xa-yb-xc+yd)(si3) */
 744:../../libDaisy//Drivers/CMSIS/DSP/Source/TransformFunctions/arm_cfft_radix4_f32.c ****       //Yd12_out += Xd12C_out * si3;
 745:../../libDaisy//Drivers/CMSIS/DSP/Source/TransformFunctions/arm_cfft_radix4_f32.c ****       p5 = Xd12C_out * si3;
 746:../../libDaisy//Drivers/CMSIS/DSP/Source/TransformFunctions/arm_cfft_radix4_f32.c **** 
 747:../../libDaisy//Drivers/CMSIS/DSP/Source/TransformFunctions/arm_cfft_radix4_f32.c ****       Xb12_out -= p0;
 748:../../libDaisy//Drivers/CMSIS/DSP/Source/TransformFunctions/arm_cfft_radix4_f32.c ****       Yb12_out += p1;
 749:../../libDaisy//Drivers/CMSIS/DSP/Source/TransformFunctions/arm_cfft_radix4_f32.c ****       Xc12_out -= p2;
 750:../../libDaisy//Drivers/CMSIS/DSP/Source/TransformFunctions/arm_cfft_radix4_f32.c ****       Yc12_out += p3;
 751:../../libDaisy//Drivers/CMSIS/DSP/Source/TransformFunctions/arm_cfft_radix4_f32.c ****       Xd12_out -= p4;
 752:../../libDaisy//Drivers/CMSIS/DSP/Source/TransformFunctions/arm_cfft_radix4_f32.c ****       Yd12_out += p5;
 753:../../libDaisy//Drivers/CMSIS/DSP/Source/TransformFunctions/arm_cfft_radix4_f32.c **** 
ARM GAS  /var/folders/hl/qgbwny5j0fd895c2c41bk3tw0000gp/T//ccE84ZOm.s 			page 35


 754:../../libDaisy//Drivers/CMSIS/DSP/Source/TransformFunctions/arm_cfft_radix4_f32.c ****       /* xc' = (xa-xb+xc-xd)co2 - (ya-yb+yc-yd)(si2) */
 755:../../libDaisy//Drivers/CMSIS/DSP/Source/TransformFunctions/arm_cfft_radix4_f32.c ****       pSrc[2u * i1] = Xc12_out;
 756:../../libDaisy//Drivers/CMSIS/DSP/Source/TransformFunctions/arm_cfft_radix4_f32.c **** 
 757:../../libDaisy//Drivers/CMSIS/DSP/Source/TransformFunctions/arm_cfft_radix4_f32.c ****       /* yc' = (ya-yb+yc-yd)co2 + (xa-xb+xc-xd)(si2) */
 758:../../libDaisy//Drivers/CMSIS/DSP/Source/TransformFunctions/arm_cfft_radix4_f32.c ****       pSrc[(2u * i1) + 1u] = Yc12_out;
 759:../../libDaisy//Drivers/CMSIS/DSP/Source/TransformFunctions/arm_cfft_radix4_f32.c **** 
 760:../../libDaisy//Drivers/CMSIS/DSP/Source/TransformFunctions/arm_cfft_radix4_f32.c ****       /* xb' = (xa+yb-xc-yd)co1 - (ya-xb-yc+xd)(si1) */
 761:../../libDaisy//Drivers/CMSIS/DSP/Source/TransformFunctions/arm_cfft_radix4_f32.c ****       pSrc[2u * i2] = Xb12_out;
 762:../../libDaisy//Drivers/CMSIS/DSP/Source/TransformFunctions/arm_cfft_radix4_f32.c **** 
 763:../../libDaisy//Drivers/CMSIS/DSP/Source/TransformFunctions/arm_cfft_radix4_f32.c ****       /* yb' = (ya-xb-yc+xd)co1 + (xa+yb-xc-yd)(si1) */
 764:../../libDaisy//Drivers/CMSIS/DSP/Source/TransformFunctions/arm_cfft_radix4_f32.c ****       pSrc[(2u * i2) + 1u] = Yb12_out;
 765:../../libDaisy//Drivers/CMSIS/DSP/Source/TransformFunctions/arm_cfft_radix4_f32.c **** 
 766:../../libDaisy//Drivers/CMSIS/DSP/Source/TransformFunctions/arm_cfft_radix4_f32.c ****       /* xd' = (xa-yb-xc+yd)co3 - (ya+xb-yc-xd)(si3) */
 767:../../libDaisy//Drivers/CMSIS/DSP/Source/TransformFunctions/arm_cfft_radix4_f32.c ****       pSrc[2u * i3] = Xd12_out;
 768:../../libDaisy//Drivers/CMSIS/DSP/Source/TransformFunctions/arm_cfft_radix4_f32.c **** 
 769:../../libDaisy//Drivers/CMSIS/DSP/Source/TransformFunctions/arm_cfft_radix4_f32.c ****       /* yd' = (ya+xb-yc-xd)co3 + (xa-yb-xc+yd)(si3) */
 770:../../libDaisy//Drivers/CMSIS/DSP/Source/TransformFunctions/arm_cfft_radix4_f32.c ****       pSrc[(2u * i3) + 1u] = Yd12_out;
 771:../../libDaisy//Drivers/CMSIS/DSP/Source/TransformFunctions/arm_cfft_radix4_f32.c **** 
 772:../../libDaisy//Drivers/CMSIS/DSP/Source/TransformFunctions/arm_cfft_radix4_f32.c ****       /*  Twiddle coefficients index modifier */
 773:../../libDaisy//Drivers/CMSIS/DSP/Source/TransformFunctions/arm_cfft_radix4_f32.c ****       ia1 = ia1 + twidCoefModifier;
 874              		.loc 1 773 17 view .LVU408
 875 0024 2646     		mov	r6, r4
 876 0026 4FEACA0E 		lsl	lr, r10, #3
 877 002a 2546     		mov	r5, r4
 620:../../libDaisy//Drivers/CMSIS/DSP/Source/TransformFunctions/arm_cfft_radix4_f32.c ****    float32_t co1, co2, co3, si1, si2, si3;
 878              		.loc 1 620 1 view .LVU409
 879 002c 2DED088B 		vpush.64	{d8, d9, d10, d11}
 880              		.cfi_def_cfa_offset 68
 881              		.cfi_offset 80, -68
 882              		.cfi_offset 81, -64
 883              		.cfi_offset 82, -60
 884              		.cfi_offset 83, -56
 885              		.cfi_offset 84, -52
 886              		.cfi_offset 85, -48
 887              		.cfi_offset 86, -44
 888              		.cfi_offset 87, -40
 889 0030 8DB0     		sub	sp, sp, #52
 890              		.cfi_def_cfa_offset 120
 620:../../libDaisy//Drivers/CMSIS/DSP/Source/TransformFunctions/arm_cfft_radix4_f32.c ****    float32_t co1, co2, co3, si1, si2, si3;
 891              		.loc 1 620 1 view .LVU410
 892 0032 F0EE40AA 		vmov.f32	s21, s0
 893 0036 0990     		str	r0, [sp, #36]
 894 0038 00EB0910 		add	r0, r0, r9, lsl #4
 895              	.LVL117:
 620:../../libDaisy//Drivers/CMSIS/DSP/Source/TransformFunctions/arm_cfft_radix4_f32.c ****    float32_t co1, co2, co3, si1, si2, si3;
 896              		.loc 1 620 1 view .LVU411
 897 003c 0A94     		str	r4, [sp, #40]
 643:../../libDaisy//Drivers/CMSIS/DSP/Source/TransformFunctions/arm_cfft_radix4_f32.c ****    i0 = 0u;
 898              		.loc 1 643 7 view .LVU412
 899 003e CDF80890 		str	r9, [sp, #8]
 900              	.LVL118:
 644:../../libDaisy//Drivers/CMSIS/DSP/Source/TransformFunctions/arm_cfft_radix4_f32.c ****    i0 = 0u;
 901              		.loc 1 644 4 is_stmt 1 view .LVU413
 645:../../libDaisy//Drivers/CMSIS/DSP/Source/TransformFunctions/arm_cfft_radix4_f32.c **** 
 902              		.loc 1 645 4 view .LVU414
 647:../../libDaisy//Drivers/CMSIS/DSP/Source/TransformFunctions/arm_cfft_radix4_f32.c **** 
 903              		.loc 1 647 4 view .LVU415
ARM GAS  /var/folders/hl/qgbwny5j0fd895c2c41bk3tw0000gp/T//ccE84ZOm.s 			page 36


 904              	.L17:
 650:../../libDaisy//Drivers/CMSIS/DSP/Source/TransformFunctions/arm_cfft_radix4_f32.c ****    {
 905              		.loc 1 650 4 discriminator 1 view .LVU416
 654:../../libDaisy//Drivers/CMSIS/DSP/Source/TransformFunctions/arm_cfft_radix4_f32.c ****       i2 = i1 + n2;
 906              		.loc 1 654 7 discriminator 1 view .LVU417
 655:../../libDaisy//Drivers/CMSIS/DSP/Source/TransformFunctions/arm_cfft_radix4_f32.c ****       i3 = i2 + n2;
 907              		.loc 1 655 7 discriminator 1 view .LVU418
 656:../../libDaisy//Drivers/CMSIS/DSP/Source/TransformFunctions/arm_cfft_radix4_f32.c **** 
 908              		.loc 1 656 7 discriminator 1 view .LVU419
 659:../../libDaisy//Drivers/CMSIS/DSP/Source/TransformFunctions/arm_cfft_radix4_f32.c ****       yaIn = pSrc[(2u * i0) + 1u];
 909              		.loc 1 659 7 discriminator 1 view .LVU420
 659:../../libDaisy//Drivers/CMSIS/DSP/Source/TransformFunctions/arm_cfft_radix4_f32.c ****       yaIn = pSrc[(2u * i0) + 1u];
 910              		.loc 1 659 12 is_stmt 0 discriminator 1 view .LVU421
 911 0042 93ED007A 		vldr.32	s14, [r3]
 912              	.LVL119:
 660:../../libDaisy//Drivers/CMSIS/DSP/Source/TransformFunctions/arm_cfft_radix4_f32.c **** 
 913              		.loc 1 660 7 is_stmt 1 discriminator 1 view .LVU422
 774:../../libDaisy//Drivers/CMSIS/DSP/Source/TransformFunctions/arm_cfft_radix4_f32.c **** 
 775:../../libDaisy//Drivers/CMSIS/DSP/Source/TransformFunctions/arm_cfft_radix4_f32.c ****       /*  Updating input index */
 776:../../libDaisy//Drivers/CMSIS/DSP/Source/TransformFunctions/arm_cfft_radix4_f32.c ****       i0 = i0 + 1u;
 777:../../libDaisy//Drivers/CMSIS/DSP/Source/TransformFunctions/arm_cfft_radix4_f32.c **** 
 778:../../libDaisy//Drivers/CMSIS/DSP/Source/TransformFunctions/arm_cfft_radix4_f32.c ****    } while (--j);
 914              		.loc 1 778 4 is_stmt 0 discriminator 1 view .LVU423
 915 0046 0833     		adds	r3, r3, #8
 662:../../libDaisy//Drivers/CMSIS/DSP/Source/TransformFunctions/arm_cfft_radix4_f32.c ****       ycIn = pSrc[(2u * i2) + 1u];
 916              		.loc 1 662 12 discriminator 1 view .LVU424
 917 0048 90ED002A 		vldr.32	s4, [r0]
 918              		.loc 1 778 4 discriminator 1 view .LVU425
 919 004c 0832     		adds	r2, r2, #8
 663:../../libDaisy//Drivers/CMSIS/DSP/Source/TransformFunctions/arm_cfft_radix4_f32.c **** 
 920              		.loc 1 663 12 discriminator 1 view .LVU426
 921 004e 90ED013A 		vldr.32	s6, [r0, #4]
 922              		.loc 1 778 4 discriminator 1 view .LVU427
 923 0052 0831     		adds	r1, r1, #8
 660:../../libDaisy//Drivers/CMSIS/DSP/Source/TransformFunctions/arm_cfft_radix4_f32.c **** 
 924              		.loc 1 660 12 discriminator 1 view .LVU428
 925 0054 53ED017A 		vldr.32	s15, [r3, #-4]
 926              	.LVL120:
 662:../../libDaisy//Drivers/CMSIS/DSP/Source/TransformFunctions/arm_cfft_radix4_f32.c ****       ycIn = pSrc[(2u * i2) + 1u];
 927              		.loc 1 662 7 is_stmt 1 discriminator 1 view .LVU429
 663:../../libDaisy//Drivers/CMSIS/DSP/Source/TransformFunctions/arm_cfft_radix4_f32.c **** 
 928              		.loc 1 663 7 discriminator 1 view .LVU430
 665:../../libDaisy//Drivers/CMSIS/DSP/Source/TransformFunctions/arm_cfft_radix4_f32.c ****       ybIn = pSrc[(2u * i1) + 1u];
 929              		.loc 1 665 7 discriminator 1 view .LVU431
 672:../../libDaisy//Drivers/CMSIS/DSP/Source/TransformFunctions/arm_cfft_radix4_f32.c ****       /* xb + xd */
 930              		.loc 1 672 15 is_stmt 0 discriminator 1 view .LVU432
 931 0058 77EE024A 		vadd.f32	s9, s14, s4
 668:../../libDaisy//Drivers/CMSIS/DSP/Source/TransformFunctions/arm_cfft_radix4_f32.c ****       ydIn = pSrc[(2u * i3) + 1u];
 932              		.loc 1 668 12 discriminator 1 view .LVU433
 933 005c 51ED022A 		vldr.32	s5, [r1, #-8]
 686:../../libDaisy//Drivers/CMSIS/DSP/Source/TransformFunctions/arm_cfft_radix4_f32.c ****       /* xb - xd */
 934              		.loc 1 686 16 discriminator 1 view .LVU434
 935 0060 37EE427A 		vsub.f32	s14, s14, s4
 936              	.LVL121:
 669:../../libDaisy//Drivers/CMSIS/DSP/Source/TransformFunctions/arm_cfft_radix4_f32.c **** 
 937              		.loc 1 669 12 discriminator 1 view .LVU435
 938 0064 51ED013A 		vldr.32	s7, [r1, #-4]
ARM GAS  /var/folders/hl/qgbwny5j0fd895c2c41bk3tw0000gp/T//ccE84ZOm.s 			page 37


 676:../../libDaisy//Drivers/CMSIS/DSP/Source/TransformFunctions/arm_cfft_radix4_f32.c ****       /* yb + yd */
 939              		.loc 1 676 15 discriminator 1 view .LVU436
 940 0068 37EE835A 		vadd.f32	s10, s15, s6
 665:../../libDaisy//Drivers/CMSIS/DSP/Source/TransformFunctions/arm_cfft_radix4_f32.c ****       ybIn = pSrc[(2u * i1) + 1u];
 941              		.loc 1 665 12 discriminator 1 view .LVU437
 942 006c 52ED026A 		vldr.32	s13, [r2, #-8]
 943              	.LVL122:
 666:../../libDaisy//Drivers/CMSIS/DSP/Source/TransformFunctions/arm_cfft_radix4_f32.c **** 
 944              		.loc 1 666 7 is_stmt 1 discriminator 1 view .LVU438
 690:../../libDaisy//Drivers/CMSIS/DSP/Source/TransformFunctions/arm_cfft_radix4_f32.c ****       /* yb - yd */
 945              		.loc 1 690 16 is_stmt 0 discriminator 1 view .LVU439
 946 0070 77EEC37A 		vsub.f32	s15, s15, s6
 947              	.LVL123:
 666:../../libDaisy//Drivers/CMSIS/DSP/Source/TransformFunctions/arm_cfft_radix4_f32.c **** 
 948              		.loc 1 666 12 discriminator 1 view .LVU440
 949 0074 12ED016A 		vldr.32	s12, [r2, #-4]
 950              	.LVL124:
 668:../../libDaisy//Drivers/CMSIS/DSP/Source/TransformFunctions/arm_cfft_radix4_f32.c ****       ydIn = pSrc[(2u * i3) + 1u];
 951              		.loc 1 668 7 is_stmt 1 discriminator 1 view .LVU441
 669:../../libDaisy//Drivers/CMSIS/DSP/Source/TransformFunctions/arm_cfft_radix4_f32.c **** 
 952              		.loc 1 669 7 discriminator 1 view .LVU442
 672:../../libDaisy//Drivers/CMSIS/DSP/Source/TransformFunctions/arm_cfft_radix4_f32.c ****       /* xb + xd */
 953              		.loc 1 672 7 discriminator 1 view .LVU443
 674:../../libDaisy//Drivers/CMSIS/DSP/Source/TransformFunctions/arm_cfft_radix4_f32.c ****       /* ya + yc */
 954              		.loc 1 674 7 discriminator 1 view .LVU444
 955              		.loc 1 778 4 is_stmt 0 discriminator 1 view .LVU445
 956 0078 0830     		adds	r0, r0, #8
 674:../../libDaisy//Drivers/CMSIS/DSP/Source/TransformFunctions/arm_cfft_radix4_f32.c ****       /* ya + yc */
 957              		.loc 1 674 15 discriminator 1 view .LVU446
 958 007a 36EEA24A 		vadd.f32	s8, s13, s5
 959              	.LVL125:
 676:../../libDaisy//Drivers/CMSIS/DSP/Source/TransformFunctions/arm_cfft_radix4_f32.c ****       /* yb + yd */
 960              		.loc 1 676 7 is_stmt 1 discriminator 1 view .LVU447
 678:../../libDaisy//Drivers/CMSIS/DSP/Source/TransformFunctions/arm_cfft_radix4_f32.c **** 
 961              		.loc 1 678 7 discriminator 1 view .LVU448
 682:../../libDaisy//Drivers/CMSIS/DSP/Source/TransformFunctions/arm_cfft_radix4_f32.c ****       si2 = pCoef[(ia2 * 2u) + 1u];
 962              		.loc 1 682 11 is_stmt 0 discriminator 1 view .LVU449
 963 007e 54ED010A 		vldr.32	s1, [r4, #-4]
 678:../../libDaisy//Drivers/CMSIS/DSP/Source/TransformFunctions/arm_cfft_radix4_f32.c **** 
 964              		.loc 1 678 15 discriminator 1 view .LVU450
 965 0082 76EE235A 		vadd.f32	s11, s12, s7
 966              	.LVL126:
 681:../../libDaisy//Drivers/CMSIS/DSP/Source/TransformFunctions/arm_cfft_radix4_f32.c ****       co2 = pCoef[ia2 * 2u];
 967              		.loc 1 681 7 is_stmt 1 discriminator 1 view .LVU451
 682:../../libDaisy//Drivers/CMSIS/DSP/Source/TransformFunctions/arm_cfft_radix4_f32.c ****       si2 = pCoef[(ia2 * 2u) + 1u];
 968              		.loc 1 682 7 discriminator 1 view .LVU452
 688:../../libDaisy//Drivers/CMSIS/DSP/Source/TransformFunctions/arm_cfft_radix4_f32.c ****       /* ya - yc */
 969              		.loc 1 688 16 is_stmt 0 discriminator 1 view .LVU453
 970 0086 76EEE26A 		vsub.f32	s13, s13, s5
 971              	.LVL127:
 692:../../libDaisy//Drivers/CMSIS/DSP/Source/TransformFunctions/arm_cfft_radix4_f32.c **** 
 972              		.loc 1 692 16 discriminator 1 view .LVU454
 973 008a 36EE636A 		vsub.f32	s12, s12, s7
 974              	.LVL128:
 695:../../libDaisy//Drivers/CMSIS/DSP/Source/TransformFunctions/arm_cfft_radix4_f32.c **** 
 975              		.loc 1 695 33 discriminator 1 view .LVU455
 976 008e 34EE843A 		vadd.f32	s6, s9, s8
ARM GAS  /var/folders/hl/qgbwny5j0fd895c2c41bk3tw0000gp/T//ccE84ZOm.s 			page 38


 977              	.LVL129:
 698:../../libDaisy//Drivers/CMSIS/DSP/Source/TransformFunctions/arm_cfft_radix4_f32.c **** 
 978              		.loc 1 698 38 discriminator 1 view .LVU456
 979 0092 75EE253A 		vadd.f32	s7, s10, s11
 980              	.LVL130:
 705:../../libDaisy//Drivers/CMSIS/DSP/Source/TransformFunctions/arm_cfft_radix4_f32.c ****       /* (ya + yc) - (yb + yd) */
 981              		.loc 1 705 17 discriminator 1 view .LVU457
 982 0096 74EEC44A 		vsub.f32	s9, s9, s8
 983              	.LVL131:
 707:../../libDaisy//Drivers/CMSIS/DSP/Source/TransformFunctions/arm_cfft_radix4_f32.c ****       /* (xa - xc) + (yb - yd) */
 984              		.loc 1 707 17 discriminator 1 view .LVU458
 985 009a 35EE655A 		vsub.f32	s10, s10, s11
 986              	.LVL132:
 683:../../libDaisy//Drivers/CMSIS/DSP/Source/TransformFunctions/arm_cfft_radix4_f32.c **** 
 987              		.loc 1 683 11 discriminator 1 view .LVU459
 988 009e D4ED005A 		vldr.32	s11, [r4]
 989              	.LVL133:
 701:../../libDaisy//Drivers/CMSIS/DSP/Source/TransformFunctions/arm_cfft_radix4_f32.c ****       /* (ya - yc) + (xb - xd) */
 990              		.loc 1 701 17 discriminator 1 view .LVU460
 991 00a2 37EE461A 		vsub.f32	s2, s14, s12
 695:../../libDaisy//Drivers/CMSIS/DSP/Source/TransformFunctions/arm_cfft_radix4_f32.c **** 
 992              		.loc 1 695 23 discriminator 1 view .LVU461
 993 00a6 03ED023A 		vstr.32	s6, [r3, #-8]
 994              	.LVL134:
 703:../../libDaisy//Drivers/CMSIS/DSP/Source/TransformFunctions/arm_cfft_radix4_f32.c ****       /* (xa + xc) - (xb + xd) */
 995              		.loc 1 703 17 discriminator 1 view .LVU462
 996 00aa 76EEA71A 		vadd.f32	s3, s13, s15
 698:../../libDaisy//Drivers/CMSIS/DSP/Source/TransformFunctions/arm_cfft_radix4_f32.c **** 
 997              		.loc 1 698 28 discriminator 1 view .LVU463
 998 00ae 43ED013A 		vstr.32	s7, [r3, #-4]
 999              	.LVL135:
 709:../../libDaisy//Drivers/CMSIS/DSP/Source/TransformFunctions/arm_cfft_radix4_f32.c ****       /* (ya - yc) - (xb - xd) */
 1000              		.loc 1 709 17 discriminator 1 view .LVU464
 1001 00b2 37EE067A 		vadd.f32	s14, s14, s12
 1002              	.LVL136:
 683:../../libDaisy//Drivers/CMSIS/DSP/Source/TransformFunctions/arm_cfft_radix4_f32.c **** 
 1003              		.loc 1 683 7 is_stmt 1 discriminator 1 view .LVU465
 686:../../libDaisy//Drivers/CMSIS/DSP/Source/TransformFunctions/arm_cfft_radix4_f32.c ****       /* xb - xd */
 1004              		.loc 1 686 7 discriminator 1 view .LVU466
 688:../../libDaisy//Drivers/CMSIS/DSP/Source/TransformFunctions/arm_cfft_radix4_f32.c ****       /* ya - yc */
 1005              		.loc 1 688 7 discriminator 1 view .LVU467
 690:../../libDaisy//Drivers/CMSIS/DSP/Source/TransformFunctions/arm_cfft_radix4_f32.c ****       /* yb - yd */
 1006              		.loc 1 690 7 discriminator 1 view .LVU468
 692:../../libDaisy//Drivers/CMSIS/DSP/Source/TransformFunctions/arm_cfft_radix4_f32.c **** 
 1007              		.loc 1 692 7 discriminator 1 view .LVU469
 695:../../libDaisy//Drivers/CMSIS/DSP/Source/TransformFunctions/arm_cfft_radix4_f32.c **** 
 1008              		.loc 1 695 7 discriminator 1 view .LVU470
 698:../../libDaisy//Drivers/CMSIS/DSP/Source/TransformFunctions/arm_cfft_radix4_f32.c **** 
 1009              		.loc 1 698 7 discriminator 1 view .LVU471
 701:../../libDaisy//Drivers/CMSIS/DSP/Source/TransformFunctions/arm_cfft_radix4_f32.c ****       /* (ya - yc) + (xb - xd) */
 1010              		.loc 1 701 7 discriminator 1 view .LVU472
 703:../../libDaisy//Drivers/CMSIS/DSP/Source/TransformFunctions/arm_cfft_radix4_f32.c ****       /* (xa + xc) - (xb + xd) */
 1011              		.loc 1 703 7 discriminator 1 view .LVU473
 705:../../libDaisy//Drivers/CMSIS/DSP/Source/TransformFunctions/arm_cfft_radix4_f32.c ****       /* (ya + yc) - (yb + yd) */
 1012              		.loc 1 705 7 discriminator 1 view .LVU474
 707:../../libDaisy//Drivers/CMSIS/DSP/Source/TransformFunctions/arm_cfft_radix4_f32.c ****       /* (xa - xc) + (yb - yd) */
 1013              		.loc 1 707 7 discriminator 1 view .LVU475
ARM GAS  /var/folders/hl/qgbwny5j0fd895c2c41bk3tw0000gp/T//ccE84ZOm.s 			page 39


 709:../../libDaisy//Drivers/CMSIS/DSP/Source/TransformFunctions/arm_cfft_radix4_f32.c ****       /* (ya - yc) - (xb - xd) */
 1014              		.loc 1 709 7 discriminator 1 view .LVU476
 711:../../libDaisy//Drivers/CMSIS/DSP/Source/TransformFunctions/arm_cfft_radix4_f32.c **** 
 1015              		.loc 1 711 7 discriminator 1 view .LVU477
 714:../../libDaisy//Drivers/CMSIS/DSP/Source/TransformFunctions/arm_cfft_radix4_f32.c **** 
 1016              		.loc 1 714 11 is_stmt 0 discriminator 1 view .LVU478
 1017 00b6 95ED006A 		vldr.32	s12, [r5]
 1018              	.LVL137:
 711:../../libDaisy//Drivers/CMSIS/DSP/Source/TransformFunctions/arm_cfft_radix4_f32.c **** 
 1019              		.loc 1 711 17 discriminator 1 view .LVU479
 1020 00ba 77EEE67A 		vsub.f32	s15, s15, s13
 1021              	.LVL138:
 713:../../libDaisy//Drivers/CMSIS/DSP/Source/TransformFunctions/arm_cfft_radix4_f32.c ****       si1 = pCoef[(ia1 * 2u) + 1u];
 1022              		.loc 1 713 7 is_stmt 1 discriminator 1 view .LVU480
 719:../../libDaisy//Drivers/CMSIS/DSP/Source/TransformFunctions/arm_cfft_radix4_f32.c **** 
 1023              		.loc 1 719 11 is_stmt 0 discriminator 1 view .LVU481
 1024 00be D6ED006A 		vldr.32	s13, [r6]
 1025              	.LVL139:
 739:../../libDaisy//Drivers/CMSIS/DSP/Source/TransformFunctions/arm_cfft_radix4_f32.c ****       /* xd' = (xa-yb-xc+yd)co3 - (ya+xb-yc-xd)(si3) */
 1026              		.loc 1 739 10 discriminator 1 view .LVU482
 1027 00c2 25EEA43A 		vmul.f32	s6, s11, s9
 718:../../libDaisy//Drivers/CMSIS/DSP/Source/TransformFunctions/arm_cfft_radix4_f32.c ****       si3 = pCoef[(ia3 * 2u) + 1u];
 1028              		.loc 1 718 11 discriminator 1 view .LVU483
 1029 00c6 56ED012A 		vldr.32	s5, [r6, #-4]
 1030              	.LVL140:
 749:../../libDaisy//Drivers/CMSIS/DSP/Source/TransformFunctions/arm_cfft_radix4_f32.c ****       Yc12_out += p3;
 1031              		.loc 1 749 16 discriminator 1 view .LVU484
 1032 00ca 65EE655A 		vnmul.f32	s11, s10, s11
 1033              	.LVL141:
 713:../../libDaisy//Drivers/CMSIS/DSP/Source/TransformFunctions/arm_cfft_radix4_f32.c ****       si1 = pCoef[(ia1 * 2u) + 1u];
 1034              		.loc 1 713 11 discriminator 1 view .LVU485
 1035 00ce 15ED012A 		vldr.32	s4, [r5, #-4]
 1036              	.LVL142:
 733:../../libDaisy//Drivers/CMSIS/DSP/Source/TransformFunctions/arm_cfft_radix4_f32.c ****       /* xc' = (xa-xb+xc-xd)co2 - (ya-yb+yc-yd)(si2) */
 1037              		.loc 1 733 10 discriminator 1 view .LVU486
 1038 00d2 61EE063A 		vmul.f32	s7, s2, s12
 1039              		.loc 1 778 4 discriminator 1 view .LVU487
 1040 00d6 9C45     		cmp	ip, r3
 745:../../libDaisy//Drivers/CMSIS/DSP/Source/TransformFunctions/arm_cfft_radix4_f32.c **** 
 1041              		.loc 1 745 10 discriminator 1 view .LVU488
 1042 00d8 27EE264A 		vmul.f32	s8, s14, s13
 1043              	.LVL143:
 1044              		.loc 1 778 4 discriminator 1 view .LVU489
 1045 00dc 4444     		add	r4, r4, r8
 749:../../libDaisy//Drivers/CMSIS/DSP/Source/TransformFunctions/arm_cfft_radix4_f32.c ****       Yc12_out += p3;
 1046              		.loc 1 749 16 discriminator 1 view .LVU490
 1047 00de E0EEA45A 		vfma.f32	s11, s1, s9
 1048              		.loc 1 778 4 discriminator 1 view .LVU491
 1049 00e2 7544     		add	r5, r5, lr
 751:../../libDaisy//Drivers/CMSIS/DSP/Source/TransformFunctions/arm_cfft_radix4_f32.c ****       Yd12_out += p5;
 1050              		.loc 1 751 16 discriminator 1 view .LVU492
 1051 00e4 66EEE76A 		vnmul.f32	s13, s13, s15
 1052              		.loc 1 778 4 discriminator 1 view .LVU493
 1053 00e8 3E44     		add	r6, r6, r7
 750:../../libDaisy//Drivers/CMSIS/DSP/Source/TransformFunctions/arm_cfft_radix4_f32.c ****       Xd12_out -= p4;
 1054              		.loc 1 750 16 discriminator 1 view .LVU494
 1055 00ea F0EE434A 		vmov.f32	s9, s6
ARM GAS  /var/folders/hl/qgbwny5j0fd895c2c41bk3tw0000gp/T//ccE84ZOm.s 			page 40


 1056              	.LVL144:
 747:../../libDaisy//Drivers/CMSIS/DSP/Source/TransformFunctions/arm_cfft_radix4_f32.c ****       Yb12_out += p1;
 1057              		.loc 1 747 16 discriminator 1 view .LVU495
 1058 00ee 26EE616A 		vnmul.f32	s12, s12, s3
 1059              	.LVL145:
 714:../../libDaisy//Drivers/CMSIS/DSP/Source/TransformFunctions/arm_cfft_radix4_f32.c **** 
 1060              		.loc 1 714 7 is_stmt 1 discriminator 1 view .LVU496
 717:../../libDaisy//Drivers/CMSIS/DSP/Source/TransformFunctions/arm_cfft_radix4_f32.c ****       co3 = pCoef[ia3 * 2u];
 1061              		.loc 1 717 7 discriminator 1 view .LVU497
 718:../../libDaisy//Drivers/CMSIS/DSP/Source/TransformFunctions/arm_cfft_radix4_f32.c ****       si3 = pCoef[(ia3 * 2u) + 1u];
 1062              		.loc 1 718 7 discriminator 1 view .LVU498
 719:../../libDaisy//Drivers/CMSIS/DSP/Source/TransformFunctions/arm_cfft_radix4_f32.c **** 
 1063              		.loc 1 719 7 discriminator 1 view .LVU499
 721:../../libDaisy//Drivers/CMSIS/DSP/Source/TransformFunctions/arm_cfft_radix4_f32.c ****       Yb12_out = Yb12C_out * co1;
 1064              		.loc 1 721 7 discriminator 1 view .LVU500
 722:../../libDaisy//Drivers/CMSIS/DSP/Source/TransformFunctions/arm_cfft_radix4_f32.c ****       Xc12_out = Xc12C_out * co2;
 1065              		.loc 1 722 7 discriminator 1 view .LVU501
 723:../../libDaisy//Drivers/CMSIS/DSP/Source/TransformFunctions/arm_cfft_radix4_f32.c ****       Yc12_out = Yc12C_out * co2;
 1066              		.loc 1 723 7 discriminator 1 view .LVU502
 724:../../libDaisy//Drivers/CMSIS/DSP/Source/TransformFunctions/arm_cfft_radix4_f32.c ****       Xd12_out = Xd12C_out * co3;
 1067              		.loc 1 724 7 discriminator 1 view .LVU503
 725:../../libDaisy//Drivers/CMSIS/DSP/Source/TransformFunctions/arm_cfft_radix4_f32.c ****       Yd12_out = Yd12C_out * co3;
 1068              		.loc 1 725 7 discriminator 1 view .LVU504
 726:../../libDaisy//Drivers/CMSIS/DSP/Source/TransformFunctions/arm_cfft_radix4_f32.c **** 
 1069              		.loc 1 726 7 discriminator 1 view .LVU505
 730:../../libDaisy//Drivers/CMSIS/DSP/Source/TransformFunctions/arm_cfft_radix4_f32.c ****       /* yb' = (ya-xb-yc+xd)co1 + (xa+yb-xc-yd)(si1) */
 1070              		.loc 1 730 7 discriminator 1 view .LVU506
 733:../../libDaisy//Drivers/CMSIS/DSP/Source/TransformFunctions/arm_cfft_radix4_f32.c ****       /* xc' = (xa-xb+xc-xd)co2 - (ya-yb+yc-yd)(si2) */
 1071              		.loc 1 733 7 discriminator 1 view .LVU507
 736:../../libDaisy//Drivers/CMSIS/DSP/Source/TransformFunctions/arm_cfft_radix4_f32.c ****       /* yc' = (ya-yb+yc-yd)co2 + (xa-xb+xc-xd)(si2) */
 1072              		.loc 1 736 7 discriminator 1 view .LVU508
 739:../../libDaisy//Drivers/CMSIS/DSP/Source/TransformFunctions/arm_cfft_radix4_f32.c ****       /* xd' = (xa-yb-xc+yd)co3 - (ya+xb-yc-xd)(si3) */
 1073              		.loc 1 739 7 discriminator 1 view .LVU509
 742:../../libDaisy//Drivers/CMSIS/DSP/Source/TransformFunctions/arm_cfft_radix4_f32.c ****       /* yd' = (ya+xb-yc-xd)co3 + (xa-yb-xc+yd)(si3) */
 1074              		.loc 1 742 7 discriminator 1 view .LVU510
 745:../../libDaisy//Drivers/CMSIS/DSP/Source/TransformFunctions/arm_cfft_radix4_f32.c **** 
 1075              		.loc 1 745 7 discriminator 1 view .LVU511
 747:../../libDaisy//Drivers/CMSIS/DSP/Source/TransformFunctions/arm_cfft_radix4_f32.c ****       Yb12_out += p1;
 1076              		.loc 1 747 7 discriminator 1 view .LVU512
 751:../../libDaisy//Drivers/CMSIS/DSP/Source/TransformFunctions/arm_cfft_radix4_f32.c ****       Yd12_out += p5;
 1077              		.loc 1 751 16 is_stmt 0 discriminator 1 view .LVU513
 1078 00f2 E7EE226A 		vfma.f32	s13, s14, s5
 750:../../libDaisy//Drivers/CMSIS/DSP/Source/TransformFunctions/arm_cfft_radix4_f32.c ****       Xd12_out -= p4;
 1079              		.loc 1 750 16 discriminator 1 view .LVU514
 1080 00f6 E0EE854A 		vfma.f32	s9, s1, s10
 752:../../libDaisy//Drivers/CMSIS/DSP/Source/TransformFunctions/arm_cfft_radix4_f32.c **** 
 1081              		.loc 1 752 16 discriminator 1 view .LVU515
 1082 00fa B0EE447A 		vmov.f32	s14, s8
 1083              	.LVL146:
 755:../../libDaisy//Drivers/CMSIS/DSP/Source/TransformFunctions/arm_cfft_radix4_f32.c **** 
 1084              		.loc 1 755 21 discriminator 1 view .LVU516
 1085 00fe 42ED025A 		vstr.32	s11, [r2, #-8]
 748:../../libDaisy//Drivers/CMSIS/DSP/Source/TransformFunctions/arm_cfft_radix4_f32.c ****       Xc12_out -= p2;
 1086              		.loc 1 748 16 discriminator 1 view .LVU517
 1087 0102 B0EE635A 		vmov.f32	s10, s7
 1088              	.LVL147:
 747:../../libDaisy//Drivers/CMSIS/DSP/Source/TransformFunctions/arm_cfft_radix4_f32.c ****       Yb12_out += p1;
ARM GAS  /var/folders/hl/qgbwny5j0fd895c2c41bk3tw0000gp/T//ccE84ZOm.s 			page 41


 1089              		.loc 1 747 16 discriminator 1 view .LVU518
 1090 0106 A1EE026A 		vfma.f32	s12, s2, s4
 1091              	.LVL148:
 748:../../libDaisy//Drivers/CMSIS/DSP/Source/TransformFunctions/arm_cfft_radix4_f32.c ****       Xc12_out -= p2;
 1092              		.loc 1 748 7 is_stmt 1 discriminator 1 view .LVU519
 752:../../libDaisy//Drivers/CMSIS/DSP/Source/TransformFunctions/arm_cfft_radix4_f32.c **** 
 1093              		.loc 1 752 16 is_stmt 0 discriminator 1 view .LVU520
 1094 010a A7EEA27A 		vfma.f32	s14, s15, s5
 748:../../libDaisy//Drivers/CMSIS/DSP/Source/TransformFunctions/arm_cfft_radix4_f32.c ****       Xc12_out -= p2;
 1095              		.loc 1 748 16 discriminator 1 view .LVU521
 1096 010e A1EE825A 		vfma.f32	s10, s3, s4
 1097              	.LVL149:
 749:../../libDaisy//Drivers/CMSIS/DSP/Source/TransformFunctions/arm_cfft_radix4_f32.c ****       Yc12_out += p3;
 1098              		.loc 1 749 7 is_stmt 1 discriminator 1 view .LVU522
 750:../../libDaisy//Drivers/CMSIS/DSP/Source/TransformFunctions/arm_cfft_radix4_f32.c ****       Xd12_out -= p4;
 1099              		.loc 1 750 7 discriminator 1 view .LVU523
 751:../../libDaisy//Drivers/CMSIS/DSP/Source/TransformFunctions/arm_cfft_radix4_f32.c ****       Yd12_out += p5;
 1100              		.loc 1 751 7 discriminator 1 view .LVU524
 752:../../libDaisy//Drivers/CMSIS/DSP/Source/TransformFunctions/arm_cfft_radix4_f32.c **** 
 1101              		.loc 1 752 7 discriminator 1 view .LVU525
 755:../../libDaisy//Drivers/CMSIS/DSP/Source/TransformFunctions/arm_cfft_radix4_f32.c **** 
 1102              		.loc 1 755 7 discriminator 1 view .LVU526
 758:../../libDaisy//Drivers/CMSIS/DSP/Source/TransformFunctions/arm_cfft_radix4_f32.c **** 
 1103              		.loc 1 758 7 discriminator 1 view .LVU527
 758:../../libDaisy//Drivers/CMSIS/DSP/Source/TransformFunctions/arm_cfft_radix4_f32.c **** 
 1104              		.loc 1 758 28 is_stmt 0 discriminator 1 view .LVU528
 1105 0112 42ED014A 		vstr.32	s9, [r2, #-4]
 761:../../libDaisy//Drivers/CMSIS/DSP/Source/TransformFunctions/arm_cfft_radix4_f32.c **** 
 1106              		.loc 1 761 7 is_stmt 1 discriminator 1 view .LVU529
 761:../../libDaisy//Drivers/CMSIS/DSP/Source/TransformFunctions/arm_cfft_radix4_f32.c **** 
 1107              		.loc 1 761 21 is_stmt 0 discriminator 1 view .LVU530
 1108 0116 00ED026A 		vstr.32	s12, [r0, #-8]
 764:../../libDaisy//Drivers/CMSIS/DSP/Source/TransformFunctions/arm_cfft_radix4_f32.c **** 
 1109              		.loc 1 764 7 is_stmt 1 discriminator 1 view .LVU531
 764:../../libDaisy//Drivers/CMSIS/DSP/Source/TransformFunctions/arm_cfft_radix4_f32.c **** 
 1110              		.loc 1 764 28 is_stmt 0 discriminator 1 view .LVU532
 1111 011a 00ED015A 		vstr.32	s10, [r0, #-4]
 767:../../libDaisy//Drivers/CMSIS/DSP/Source/TransformFunctions/arm_cfft_radix4_f32.c **** 
 1112              		.loc 1 767 7 is_stmt 1 discriminator 1 view .LVU533
 767:../../libDaisy//Drivers/CMSIS/DSP/Source/TransformFunctions/arm_cfft_radix4_f32.c **** 
 1113              		.loc 1 767 21 is_stmt 0 discriminator 1 view .LVU534
 1114 011e 41ED026A 		vstr.32	s13, [r1, #-8]
 770:../../libDaisy//Drivers/CMSIS/DSP/Source/TransformFunctions/arm_cfft_radix4_f32.c **** 
 1115              		.loc 1 770 7 is_stmt 1 discriminator 1 view .LVU535
 770:../../libDaisy//Drivers/CMSIS/DSP/Source/TransformFunctions/arm_cfft_radix4_f32.c **** 
 1116              		.loc 1 770 28 is_stmt 0 discriminator 1 view .LVU536
 1117 0122 01ED017A 		vstr.32	s14, [r1, #-4]
 773:../../libDaisy//Drivers/CMSIS/DSP/Source/TransformFunctions/arm_cfft_radix4_f32.c **** 
 1118              		.loc 1 773 7 is_stmt 1 discriminator 1 view .LVU537
 776:../../libDaisy//Drivers/CMSIS/DSP/Source/TransformFunctions/arm_cfft_radix4_f32.c **** 
 1119              		.loc 1 776 7 discriminator 1 view .LVU538
 1120              		.loc 1 778 12 discriminator 1 view .LVU539
 1121              		.loc 1 778 4 is_stmt 0 discriminator 1 view .LVU540
 1122 0126 8CD1     		bne	.L17
 779:../../libDaisy//Drivers/CMSIS/DSP/Source/TransformFunctions/arm_cfft_radix4_f32.c **** 
 780:../../libDaisy//Drivers/CMSIS/DSP/Source/TransformFunctions/arm_cfft_radix4_f32.c ****    twidCoefModifier <<= 2u;
 1123              		.loc 1 780 4 is_stmt 1 view .LVU541
ARM GAS  /var/folders/hl/qgbwny5j0fd895c2c41bk3tw0000gp/T//ccE84ZOm.s 			page 42


 1124              		.loc 1 780 21 is_stmt 0 view .LVU542
 1125 0128 4FEA8A0A 		lsl	r10, r10, #2
 781:../../libDaisy//Drivers/CMSIS/DSP/Source/TransformFunctions/arm_cfft_radix4_f32.c **** 
 782:../../libDaisy//Drivers/CMSIS/DSP/Source/TransformFunctions/arm_cfft_radix4_f32.c ****    /*  Calculation of second stage to excluding last stage */
 783:../../libDaisy//Drivers/CMSIS/DSP/Source/TransformFunctions/arm_cfft_radix4_f32.c ****    for (k = fftLen >> 2u; k > 4u; k >>= 2u)
 1126              		.loc 1 783 4 view .LVU543
 1127 012c B9F1040F 		cmp	r9, #4
 780:../../libDaisy//Drivers/CMSIS/DSP/Source/TransformFunctions/arm_cfft_radix4_f32.c **** 
 1128              		.loc 1 780 21 view .LVU544
 1129 0130 1FFA8AF3 		uxth	r3, r10
 1130 0134 0793     		str	r3, [sp, #28]
 1131              	.LVL150:
 1132              		.loc 1 783 4 is_stmt 1 view .LVU545
 1133              		.loc 1 783 20 is_stmt 0 view .LVU546
 1134 0136 1FFA89F3 		uxth	r3, r9
 1135 013a 0B93     		str	r3, [sp, #44]
 1136              	.LVL151:
 1137              		.loc 1 783 27 is_stmt 1 view .LVU547
 1138              		.loc 1 783 4 is_stmt 0 view .LVU548
 1139 013c 40F2B080 		bls	.L22
 1140 0140 0B9B     		ldr	r3, [sp, #44]
 1141              		.loc 1 783 4 view .LVU549
 1142 0142 0893     		str	r3, [sp, #32]
 1143              	.LVL152:
 1144              	.L18:
 784:../../libDaisy//Drivers/CMSIS/DSP/Source/TransformFunctions/arm_cfft_radix4_f32.c ****    {
 785:../../libDaisy//Drivers/CMSIS/DSP/Source/TransformFunctions/arm_cfft_radix4_f32.c ****       /*  Initializations for the first stage */
 786:../../libDaisy//Drivers/CMSIS/DSP/Source/TransformFunctions/arm_cfft_radix4_f32.c ****       n1 = n2;
 1145              		.loc 1 786 7 is_stmt 1 view .LVU550
 787:../../libDaisy//Drivers/CMSIS/DSP/Source/TransformFunctions/arm_cfft_radix4_f32.c ****       n2 >>= 2u;
 1146              		.loc 1 787 7 view .LVU551
 1147 0144 079A     		ldr	r2, [sp, #28]
 788:../../libDaisy//Drivers/CMSIS/DSP/Source/TransformFunctions/arm_cfft_radix4_f32.c ****       ia1 = 0u;
 789:../../libDaisy//Drivers/CMSIS/DSP/Source/TransformFunctions/arm_cfft_radix4_f32.c **** 
 790:../../libDaisy//Drivers/CMSIS/DSP/Source/TransformFunctions/arm_cfft_radix4_f32.c ****       /*  Calculation of first stage */
 791:../../libDaisy//Drivers/CMSIS/DSP/Source/TransformFunctions/arm_cfft_radix4_f32.c ****       j = 0;
 1148              		.loc 1 791 9 is_stmt 0 view .LVU552
 1149 0146 4FF0000E 		mov	lr, #0
 1150 014a 0299     		ldr	r1, [sp, #8]
 1151 014c 02EB4203 		add	r3, r2, r2, lsl #1
 792:../../libDaisy//Drivers/CMSIS/DSP/Source/TransformFunctions/arm_cfft_radix4_f32.c ****       do
 793:../../libDaisy//Drivers/CMSIS/DSP/Source/TransformFunctions/arm_cfft_radix4_f32.c ****       {
 794:../../libDaisy//Drivers/CMSIS/DSP/Source/TransformFunctions/arm_cfft_radix4_f32.c ****          /*  index calculation for the coefficients */
 795:../../libDaisy//Drivers/CMSIS/DSP/Source/TransformFunctions/arm_cfft_radix4_f32.c ****          ia2 = ia1 + ia1;
 796:../../libDaisy//Drivers/CMSIS/DSP/Source/TransformFunctions/arm_cfft_radix4_f32.c ****          ia3 = ia2 + ia1;
 797:../../libDaisy//Drivers/CMSIS/DSP/Source/TransformFunctions/arm_cfft_radix4_f32.c ****          co1 = pCoef[ia1 * 2u];
 798:../../libDaisy//Drivers/CMSIS/DSP/Source/TransformFunctions/arm_cfft_radix4_f32.c ****          si1 = pCoef[(ia1 * 2u) + 1u];
 799:../../libDaisy//Drivers/CMSIS/DSP/Source/TransformFunctions/arm_cfft_radix4_f32.c ****          co2 = pCoef[ia2 * 2u];
 800:../../libDaisy//Drivers/CMSIS/DSP/Source/TransformFunctions/arm_cfft_radix4_f32.c ****          si2 = pCoef[(ia2 * 2u) + 1u];
 801:../../libDaisy//Drivers/CMSIS/DSP/Source/TransformFunctions/arm_cfft_radix4_f32.c ****          co3 = pCoef[ia3 * 2u];
 802:../../libDaisy//Drivers/CMSIS/DSP/Source/TransformFunctions/arm_cfft_radix4_f32.c ****          si3 = pCoef[(ia3 * 2u) + 1u];
 803:../../libDaisy//Drivers/CMSIS/DSP/Source/TransformFunctions/arm_cfft_radix4_f32.c **** 
 804:../../libDaisy//Drivers/CMSIS/DSP/Source/TransformFunctions/arm_cfft_radix4_f32.c ****          /*  Twiddle coefficients index modifier */
 805:../../libDaisy//Drivers/CMSIS/DSP/Source/TransformFunctions/arm_cfft_radix4_f32.c ****          ia1 = ia1 + twidCoefModifier;
 1152              		.loc 1 805 20 view .LVU553
 1153 0150 DDF82880 		ldr	r8, [sp, #40]
 1154 0154 D000     		lsls	r0, r2, #3
ARM GAS  /var/folders/hl/qgbwny5j0fd895c2c41bk3tw0000gp/T//ccE84ZOm.s 			page 43


 1155 0156 0F46     		mov	r7, r1
 1156 0158 DB00     		lsls	r3, r3, #3
 1157 015a C246     		mov	r10, r8
 787:../../libDaisy//Drivers/CMSIS/DSP/Source/TransformFunctions/arm_cfft_radix4_f32.c ****       ia1 = 0u;
 1158              		.loc 1 787 10 view .LVU554
 1159 015c 8908     		lsrs	r1, r1, #2
 1160 015e 0590     		str	r0, [sp, #20]
 1161 0160 1201     		lsls	r2, r2, #4
 1162 0162 0693     		str	r3, [sp, #24]
 1163 0164 099B     		ldr	r3, [sp, #36]
 1164 0166 F800     		lsls	r0, r7, #3
 1165 0168 0492     		str	r2, [sp, #16]
 1166              		.loc 1 805 20 view .LVU555
 1167 016a C146     		mov	r9, r8
 1168 016c 03EB0112 		add	r2, r3, r1, lsl #4
 1169 0170 9C46     		mov	ip, r3
 787:../../libDaisy//Drivers/CMSIS/DSP/Source/TransformFunctions/arm_cfft_radix4_f32.c ****       ia1 = 0u;
 1170              		.loc 1 787 10 view .LVU556
 1171 0172 0291     		str	r1, [sp, #8]
 1172              	.LVL153:
 788:../../libDaisy//Drivers/CMSIS/DSP/Source/TransformFunctions/arm_cfft_radix4_f32.c ****       ia1 = 0u;
 1173              		.loc 1 788 7 is_stmt 1 view .LVU557
 791:../../libDaisy//Drivers/CMSIS/DSP/Source/TransformFunctions/arm_cfft_radix4_f32.c ****       do
 1174              		.loc 1 791 7 view .LVU558
 791:../../libDaisy//Drivers/CMSIS/DSP/Source/TransformFunctions/arm_cfft_radix4_f32.c ****       do
 1175              		.loc 1 791 7 is_stmt 0 view .LVU559
 1176 0174 0192     		str	r2, [sp, #4]
 1177 0176 CA00     		lsls	r2, r1, #3
 1178 0178 0392     		str	r2, [sp, #12]
 1179              	.LVL154:
 1180              	.L21:
 792:../../libDaisy//Drivers/CMSIS/DSP/Source/TransformFunctions/arm_cfft_radix4_f32.c ****       do
 1181              		.loc 1 792 7 is_stmt 1 view .LVU560
 795:../../libDaisy//Drivers/CMSIS/DSP/Source/TransformFunctions/arm_cfft_radix4_f32.c ****          ia3 = ia2 + ia1;
 1182              		.loc 1 795 10 view .LVU561
 796:../../libDaisy//Drivers/CMSIS/DSP/Source/TransformFunctions/arm_cfft_radix4_f32.c ****          co1 = pCoef[ia1 * 2u];
 1183              		.loc 1 796 10 view .LVU562
 797:../../libDaisy//Drivers/CMSIS/DSP/Source/TransformFunctions/arm_cfft_radix4_f32.c ****          si1 = pCoef[(ia1 * 2u) + 1u];
 1184              		.loc 1 797 10 view .LVU563
 1185 017a 039B     		ldr	r3, [sp, #12]
 1186 017c 0CF10405 		add	r5, ip, #4
 1187 0180 019C     		ldr	r4, [sp, #4]
 806:../../libDaisy//Drivers/CMSIS/DSP/Source/TransformFunctions/arm_cfft_radix4_f32.c **** 
 807:../../libDaisy//Drivers/CMSIS/DSP/Source/TransformFunctions/arm_cfft_radix4_f32.c ****          i0 = j;
 1188              		.loc 1 807 13 is_stmt 0 view .LVU564
 1189 0182 7646     		mov	r6, lr
 1190 0184 03EB0C01 		add	r1, r3, ip
 797:../../libDaisy//Drivers/CMSIS/DSP/Source/TransformFunctions/arm_cfft_radix4_f32.c ****          si1 = pCoef[(ia1 * 2u) + 1u];
 1191              		.loc 1 797 14 view .LVU565
 1192 0188 18ED01AA 		vldr.32	s20, [r8, #-4]
 1193              	.LVL155:
 798:../../libDaisy//Drivers/CMSIS/DSP/Source/TransformFunctions/arm_cfft_radix4_f32.c ****          co2 = pCoef[ia2 * 2u];
 1194              		.loc 1 798 10 is_stmt 1 view .LVU566
 1195 018c 1A19     		adds	r2, r3, r4
 798:../../libDaisy//Drivers/CMSIS/DSP/Source/TransformFunctions/arm_cfft_radix4_f32.c ****          co2 = pCoef[ia2 * 2u];
 1196              		.loc 1 798 14 is_stmt 0 view .LVU567
 1197 018e D8ED009A 		vldr.32	s19, [r8]
ARM GAS  /var/folders/hl/qgbwny5j0fd895c2c41bk3tw0000gp/T//ccE84ZOm.s 			page 44


 1198              	.LVL156:
 799:../../libDaisy//Drivers/CMSIS/DSP/Source/TransformFunctions/arm_cfft_radix4_f32.c ****          si2 = pCoef[(ia2 * 2u) + 1u];
 1199              		.loc 1 799 10 is_stmt 1 view .LVU568
 802:../../libDaisy//Drivers/CMSIS/DSP/Source/TransformFunctions/arm_cfft_radix4_f32.c **** 
 1200              		.loc 1 802 14 is_stmt 0 view .LVU569
 1201 0192 2346     		mov	r3, r4
 799:../../libDaisy//Drivers/CMSIS/DSP/Source/TransformFunctions/arm_cfft_radix4_f32.c ****          si2 = pCoef[(ia2 * 2u) + 1u];
 1202              		.loc 1 799 14 view .LVU570
 1203 0194 19ED019A 		vldr.32	s18, [r9, #-4]
 1204              	.LVL157:
 800:../../libDaisy//Drivers/CMSIS/DSP/Source/TransformFunctions/arm_cfft_radix4_f32.c ****          co3 = pCoef[ia3 * 2u];
 1205              		.loc 1 800 10 is_stmt 1 view .LVU571
 800:../../libDaisy//Drivers/CMSIS/DSP/Source/TransformFunctions/arm_cfft_radix4_f32.c ****          co3 = pCoef[ia3 * 2u];
 1206              		.loc 1 800 14 is_stmt 0 view .LVU572
 1207 0198 D9ED008A 		vldr.32	s17, [r9]
 1208              	.LVL158:
 801:../../libDaisy//Drivers/CMSIS/DSP/Source/TransformFunctions/arm_cfft_radix4_f32.c ****          si3 = pCoef[(ia3 * 2u) + 1u];
 1209              		.loc 1 801 10 is_stmt 1 view .LVU573
 802:../../libDaisy//Drivers/CMSIS/DSP/Source/TransformFunctions/arm_cfft_radix4_f32.c **** 
 1210              		.loc 1 802 14 is_stmt 0 view .LVU574
 1211 019c 6446     		mov	r4, ip
 801:../../libDaisy//Drivers/CMSIS/DSP/Source/TransformFunctions/arm_cfft_radix4_f32.c ****          si3 = pCoef[(ia3 * 2u) + 1u];
 1212              		.loc 1 801 14 view .LVU575
 1213 019e 1AED018A 		vldr.32	s16, [r10, #-4]
 1214              	.LVL159:
 802:../../libDaisy//Drivers/CMSIS/DSP/Source/TransformFunctions/arm_cfft_radix4_f32.c **** 
 1215              		.loc 1 802 10 is_stmt 1 view .LVU576
 802:../../libDaisy//Drivers/CMSIS/DSP/Source/TransformFunctions/arm_cfft_radix4_f32.c **** 
 1216              		.loc 1 802 14 is_stmt 0 view .LVU577
 1217 01a2 9AED000A 		vldr.32	s0, [r10]
 1218              	.LVL160:
 805:../../libDaisy//Drivers/CMSIS/DSP/Source/TransformFunctions/arm_cfft_radix4_f32.c **** 
 1219              		.loc 1 805 10 is_stmt 1 view .LVU578
 1220              		.loc 1 807 10 view .LVU579
 1221              	.L20:
 808:../../libDaisy//Drivers/CMSIS/DSP/Source/TransformFunctions/arm_cfft_radix4_f32.c ****          do
 1222              		.loc 1 808 10 discriminator 1 view .LVU580
 809:../../libDaisy//Drivers/CMSIS/DSP/Source/TransformFunctions/arm_cfft_radix4_f32.c ****          {
 810:../../libDaisy//Drivers/CMSIS/DSP/Source/TransformFunctions/arm_cfft_radix4_f32.c ****             /*  index calculation for the input as, */
 811:../../libDaisy//Drivers/CMSIS/DSP/Source/TransformFunctions/arm_cfft_radix4_f32.c ****             /*  pSrc[i0 + 0], pSrc[i0 + fftLen/4], pSrc[i0 + fftLen/2], pSrc[i0 + 3fftLen/4] */
 812:../../libDaisy//Drivers/CMSIS/DSP/Source/TransformFunctions/arm_cfft_radix4_f32.c ****             i1 = i0 + n2;
 1223              		.loc 1 812 13 discriminator 1 view .LVU581
 813:../../libDaisy//Drivers/CMSIS/DSP/Source/TransformFunctions/arm_cfft_radix4_f32.c ****             i2 = i1 + n2;
 1224              		.loc 1 813 13 discriminator 1 view .LVU582
 814:../../libDaisy//Drivers/CMSIS/DSP/Source/TransformFunctions/arm_cfft_radix4_f32.c ****             i3 = i2 + n2;
 1225              		.loc 1 814 13 discriminator 1 view .LVU583
 815:../../libDaisy//Drivers/CMSIS/DSP/Source/TransformFunctions/arm_cfft_radix4_f32.c **** 
 816:../../libDaisy//Drivers/CMSIS/DSP/Source/TransformFunctions/arm_cfft_radix4_f32.c ****             xaIn = pSrc[(2u * i0)];
 1226              		.loc 1 816 13 discriminator 1 view .LVU584
 1227              		.loc 1 816 18 is_stmt 0 discriminator 1 view .LVU585
 1228 01a6 15ED012A 		vldr.32	s4, [r5, #-4]
 1229              	.LVL161:
 817:../../libDaisy//Drivers/CMSIS/DSP/Source/TransformFunctions/arm_cfft_radix4_f32.c ****             yaIn = pSrc[(2u * i0) + 1u];
 1230              		.loc 1 817 13 is_stmt 1 discriminator 1 view .LVU586
 818:../../libDaisy//Drivers/CMSIS/DSP/Source/TransformFunctions/arm_cfft_radix4_f32.c **** 
 819:../../libDaisy//Drivers/CMSIS/DSP/Source/TransformFunctions/arm_cfft_radix4_f32.c ****             xbIn = pSrc[(2u * i1)];
 820:../../libDaisy//Drivers/CMSIS/DSP/Source/TransformFunctions/arm_cfft_radix4_f32.c ****             ybIn = pSrc[(2u * i1) + 1u];
ARM GAS  /var/folders/hl/qgbwny5j0fd895c2c41bk3tw0000gp/T//ccE84ZOm.s 			page 45


 821:../../libDaisy//Drivers/CMSIS/DSP/Source/TransformFunctions/arm_cfft_radix4_f32.c **** 
 822:../../libDaisy//Drivers/CMSIS/DSP/Source/TransformFunctions/arm_cfft_radix4_f32.c ****             xcIn = pSrc[(2u * i2)];
 823:../../libDaisy//Drivers/CMSIS/DSP/Source/TransformFunctions/arm_cfft_radix4_f32.c ****             ycIn = pSrc[(2u * i2) + 1u];
 824:../../libDaisy//Drivers/CMSIS/DSP/Source/TransformFunctions/arm_cfft_radix4_f32.c **** 
 825:../../libDaisy//Drivers/CMSIS/DSP/Source/TransformFunctions/arm_cfft_radix4_f32.c ****             xdIn = pSrc[(2u * i3)];
 826:../../libDaisy//Drivers/CMSIS/DSP/Source/TransformFunctions/arm_cfft_radix4_f32.c ****             ydIn = pSrc[(2u * i3) + 1u];
 827:../../libDaisy//Drivers/CMSIS/DSP/Source/TransformFunctions/arm_cfft_radix4_f32.c **** 
 828:../../libDaisy//Drivers/CMSIS/DSP/Source/TransformFunctions/arm_cfft_radix4_f32.c ****             /* xa - xc */
 829:../../libDaisy//Drivers/CMSIS/DSP/Source/TransformFunctions/arm_cfft_radix4_f32.c ****             Xaminusc = xaIn - xcIn;
 830:../../libDaisy//Drivers/CMSIS/DSP/Source/TransformFunctions/arm_cfft_radix4_f32.c ****             /* (xb - xd) */
 831:../../libDaisy//Drivers/CMSIS/DSP/Source/TransformFunctions/arm_cfft_radix4_f32.c ****             Xbminusd = xbIn - xdIn;
 832:../../libDaisy//Drivers/CMSIS/DSP/Source/TransformFunctions/arm_cfft_radix4_f32.c ****             /* ya - yc */
 833:../../libDaisy//Drivers/CMSIS/DSP/Source/TransformFunctions/arm_cfft_radix4_f32.c ****             Yaminusc = yaIn - ycIn;
 834:../../libDaisy//Drivers/CMSIS/DSP/Source/TransformFunctions/arm_cfft_radix4_f32.c ****             /* (yb - yd) */
 835:../../libDaisy//Drivers/CMSIS/DSP/Source/TransformFunctions/arm_cfft_radix4_f32.c ****             Ybminusd = ybIn - ydIn;
 836:../../libDaisy//Drivers/CMSIS/DSP/Source/TransformFunctions/arm_cfft_radix4_f32.c **** 
 837:../../libDaisy//Drivers/CMSIS/DSP/Source/TransformFunctions/arm_cfft_radix4_f32.c ****             /* xa + xc */
 838:../../libDaisy//Drivers/CMSIS/DSP/Source/TransformFunctions/arm_cfft_radix4_f32.c ****             Xaplusc = xaIn + xcIn;
 839:../../libDaisy//Drivers/CMSIS/DSP/Source/TransformFunctions/arm_cfft_radix4_f32.c ****             /* xb + xd */
 840:../../libDaisy//Drivers/CMSIS/DSP/Source/TransformFunctions/arm_cfft_radix4_f32.c ****             Xbplusd = xbIn + xdIn;
 841:../../libDaisy//Drivers/CMSIS/DSP/Source/TransformFunctions/arm_cfft_radix4_f32.c ****             /* ya + yc */
 842:../../libDaisy//Drivers/CMSIS/DSP/Source/TransformFunctions/arm_cfft_radix4_f32.c ****             Yaplusc = yaIn + ycIn;
 843:../../libDaisy//Drivers/CMSIS/DSP/Source/TransformFunctions/arm_cfft_radix4_f32.c ****             /* yb + yd */
 844:../../libDaisy//Drivers/CMSIS/DSP/Source/TransformFunctions/arm_cfft_radix4_f32.c ****             Ybplusd = ybIn + ydIn;
 845:../../libDaisy//Drivers/CMSIS/DSP/Source/TransformFunctions/arm_cfft_radix4_f32.c **** 
 846:../../libDaisy//Drivers/CMSIS/DSP/Source/TransformFunctions/arm_cfft_radix4_f32.c ****             /* (xa - xc) - (yb - yd) */
 847:../../libDaisy//Drivers/CMSIS/DSP/Source/TransformFunctions/arm_cfft_radix4_f32.c ****             Xb12C_out = (Xaminusc - Ybminusd);
 848:../../libDaisy//Drivers/CMSIS/DSP/Source/TransformFunctions/arm_cfft_radix4_f32.c ****             /* (ya - yc) +  (xb - xd) */
 849:../../libDaisy//Drivers/CMSIS/DSP/Source/TransformFunctions/arm_cfft_radix4_f32.c ****             Yb12C_out = (Yaminusc + Xbminusd);
 850:../../libDaisy//Drivers/CMSIS/DSP/Source/TransformFunctions/arm_cfft_radix4_f32.c ****             /* xa + xc -(xb + xd) */
 851:../../libDaisy//Drivers/CMSIS/DSP/Source/TransformFunctions/arm_cfft_radix4_f32.c ****             Xc12C_out = (Xaplusc - Xbplusd);
 852:../../libDaisy//Drivers/CMSIS/DSP/Source/TransformFunctions/arm_cfft_radix4_f32.c ****             /* (ya + yc) - (yb + yd) */
 853:../../libDaisy//Drivers/CMSIS/DSP/Source/TransformFunctions/arm_cfft_radix4_f32.c ****             Yc12C_out = (Yaplusc - Ybplusd);
 854:../../libDaisy//Drivers/CMSIS/DSP/Source/TransformFunctions/arm_cfft_radix4_f32.c ****             /* (xa - xc) + (yb - yd) */
 855:../../libDaisy//Drivers/CMSIS/DSP/Source/TransformFunctions/arm_cfft_radix4_f32.c ****             Xd12C_out = (Xaminusc + Ybminusd);
 856:../../libDaisy//Drivers/CMSIS/DSP/Source/TransformFunctions/arm_cfft_radix4_f32.c ****             /* (ya - yc) -  (xb - xd) */
 857:../../libDaisy//Drivers/CMSIS/DSP/Source/TransformFunctions/arm_cfft_radix4_f32.c ****             Yd12C_out = (Yaminusc - Xbminusd);
 858:../../libDaisy//Drivers/CMSIS/DSP/Source/TransformFunctions/arm_cfft_radix4_f32.c **** 
 859:../../libDaisy//Drivers/CMSIS/DSP/Source/TransformFunctions/arm_cfft_radix4_f32.c ****             pSrc[(2u * i0)] = Xaplusc + Xbplusd;
 860:../../libDaisy//Drivers/CMSIS/DSP/Source/TransformFunctions/arm_cfft_radix4_f32.c ****             pSrc[(2u * i0) + 1u] = Yaplusc + Ybplusd;
 861:../../libDaisy//Drivers/CMSIS/DSP/Source/TransformFunctions/arm_cfft_radix4_f32.c **** 
 862:../../libDaisy//Drivers/CMSIS/DSP/Source/TransformFunctions/arm_cfft_radix4_f32.c ****             Xb12_out = Xb12C_out * co1;
 863:../../libDaisy//Drivers/CMSIS/DSP/Source/TransformFunctions/arm_cfft_radix4_f32.c ****             Yb12_out = Yb12C_out * co1;
 864:../../libDaisy//Drivers/CMSIS/DSP/Source/TransformFunctions/arm_cfft_radix4_f32.c ****             Xc12_out = Xc12C_out * co2;
 865:../../libDaisy//Drivers/CMSIS/DSP/Source/TransformFunctions/arm_cfft_radix4_f32.c ****             Yc12_out = Yc12C_out * co2;
 866:../../libDaisy//Drivers/CMSIS/DSP/Source/TransformFunctions/arm_cfft_radix4_f32.c ****             Xd12_out = Xd12C_out * co3;
 867:../../libDaisy//Drivers/CMSIS/DSP/Source/TransformFunctions/arm_cfft_radix4_f32.c ****             Yd12_out = Yd12C_out * co3;
 868:../../libDaisy//Drivers/CMSIS/DSP/Source/TransformFunctions/arm_cfft_radix4_f32.c **** 
 869:../../libDaisy//Drivers/CMSIS/DSP/Source/TransformFunctions/arm_cfft_radix4_f32.c ****             /* xb' = (xa+yb-xc-yd)co1 - (ya-xb-yc+xd)(si1) */
 870:../../libDaisy//Drivers/CMSIS/DSP/Source/TransformFunctions/arm_cfft_radix4_f32.c ****             //Xb12_out -= Yb12C_out * si1;
 871:../../libDaisy//Drivers/CMSIS/DSP/Source/TransformFunctions/arm_cfft_radix4_f32.c ****             p0 = Yb12C_out * si1;
 872:../../libDaisy//Drivers/CMSIS/DSP/Source/TransformFunctions/arm_cfft_radix4_f32.c ****             /* yb' = (ya-xb-yc+xd)co1 + (xa+yb-xc-yd)(si1) */
 873:../../libDaisy//Drivers/CMSIS/DSP/Source/TransformFunctions/arm_cfft_radix4_f32.c ****             //Yb12_out += Xb12C_out * si1;
 874:../../libDaisy//Drivers/CMSIS/DSP/Source/TransformFunctions/arm_cfft_radix4_f32.c ****             p1 = Xb12C_out * si1;
 875:../../libDaisy//Drivers/CMSIS/DSP/Source/TransformFunctions/arm_cfft_radix4_f32.c ****             /* xc' = (xa-xb+xc-xd)co2 - (ya-yb+yc-yd)(si2) */
 876:../../libDaisy//Drivers/CMSIS/DSP/Source/TransformFunctions/arm_cfft_radix4_f32.c ****             //Xc12_out -= Yc12C_out * si2;
 877:../../libDaisy//Drivers/CMSIS/DSP/Source/TransformFunctions/arm_cfft_radix4_f32.c ****             p2 = Yc12C_out * si2;
ARM GAS  /var/folders/hl/qgbwny5j0fd895c2c41bk3tw0000gp/T//ccE84ZOm.s 			page 46


 878:../../libDaisy//Drivers/CMSIS/DSP/Source/TransformFunctions/arm_cfft_radix4_f32.c ****             /* yc' = (ya-yb+yc-yd)co2 + (xa-xb+xc-xd)(si2) */
 879:../../libDaisy//Drivers/CMSIS/DSP/Source/TransformFunctions/arm_cfft_radix4_f32.c ****             //Yc12_out += Xc12C_out * si2;
 880:../../libDaisy//Drivers/CMSIS/DSP/Source/TransformFunctions/arm_cfft_radix4_f32.c ****             p3 = Xc12C_out * si2;
 881:../../libDaisy//Drivers/CMSIS/DSP/Source/TransformFunctions/arm_cfft_radix4_f32.c ****             /* xd' = (xa-yb-xc+yd)co3 - (ya+xb-yc-xd)(si3) */
 882:../../libDaisy//Drivers/CMSIS/DSP/Source/TransformFunctions/arm_cfft_radix4_f32.c ****             //Xd12_out -= Yd12C_out * si3;
 883:../../libDaisy//Drivers/CMSIS/DSP/Source/TransformFunctions/arm_cfft_radix4_f32.c ****             p4 = Yd12C_out * si3;
 884:../../libDaisy//Drivers/CMSIS/DSP/Source/TransformFunctions/arm_cfft_radix4_f32.c ****             /* yd' = (ya+xb-yc-xd)co3 + (xa-yb-xc+yd)(si3) */
 885:../../libDaisy//Drivers/CMSIS/DSP/Source/TransformFunctions/arm_cfft_radix4_f32.c ****             //Yd12_out += Xd12C_out * si3;
 886:../../libDaisy//Drivers/CMSIS/DSP/Source/TransformFunctions/arm_cfft_radix4_f32.c ****             p5 = Xd12C_out * si3;
 887:../../libDaisy//Drivers/CMSIS/DSP/Source/TransformFunctions/arm_cfft_radix4_f32.c **** 
 888:../../libDaisy//Drivers/CMSIS/DSP/Source/TransformFunctions/arm_cfft_radix4_f32.c ****             Xb12_out -= p0;
 889:../../libDaisy//Drivers/CMSIS/DSP/Source/TransformFunctions/arm_cfft_radix4_f32.c ****             Yb12_out += p1;
 890:../../libDaisy//Drivers/CMSIS/DSP/Source/TransformFunctions/arm_cfft_radix4_f32.c ****             Xc12_out -= p2;
 891:../../libDaisy//Drivers/CMSIS/DSP/Source/TransformFunctions/arm_cfft_radix4_f32.c ****             Yc12_out += p3;
 892:../../libDaisy//Drivers/CMSIS/DSP/Source/TransformFunctions/arm_cfft_radix4_f32.c ****             Xd12_out -= p4;
 893:../../libDaisy//Drivers/CMSIS/DSP/Source/TransformFunctions/arm_cfft_radix4_f32.c ****             Yd12_out += p5;
 894:../../libDaisy//Drivers/CMSIS/DSP/Source/TransformFunctions/arm_cfft_radix4_f32.c **** 
 895:../../libDaisy//Drivers/CMSIS/DSP/Source/TransformFunctions/arm_cfft_radix4_f32.c ****             /* xc' = (xa-xb+xc-xd)co2 - (ya-yb+yc-yd)(si2) */
 896:../../libDaisy//Drivers/CMSIS/DSP/Source/TransformFunctions/arm_cfft_radix4_f32.c ****             pSrc[2u * i1] = Xc12_out;
 897:../../libDaisy//Drivers/CMSIS/DSP/Source/TransformFunctions/arm_cfft_radix4_f32.c **** 
 898:../../libDaisy//Drivers/CMSIS/DSP/Source/TransformFunctions/arm_cfft_radix4_f32.c ****             /* yc' = (ya-yb+yc-yd)co2 + (xa-xb+xc-xd)(si2) */
 899:../../libDaisy//Drivers/CMSIS/DSP/Source/TransformFunctions/arm_cfft_radix4_f32.c ****             pSrc[(2u * i1) + 1u] = Yc12_out;
 900:../../libDaisy//Drivers/CMSIS/DSP/Source/TransformFunctions/arm_cfft_radix4_f32.c **** 
 901:../../libDaisy//Drivers/CMSIS/DSP/Source/TransformFunctions/arm_cfft_radix4_f32.c ****             /* xb' = (xa+yb-xc-yd)co1 - (ya-xb-yc+xd)(si1) */
 902:../../libDaisy//Drivers/CMSIS/DSP/Source/TransformFunctions/arm_cfft_radix4_f32.c ****             pSrc[2u * i2] = Xb12_out;
 903:../../libDaisy//Drivers/CMSIS/DSP/Source/TransformFunctions/arm_cfft_radix4_f32.c **** 
 904:../../libDaisy//Drivers/CMSIS/DSP/Source/TransformFunctions/arm_cfft_radix4_f32.c ****             /* yb' = (ya-xb-yc+xd)co1 + (xa+yb-xc-yd)(si1) */
 905:../../libDaisy//Drivers/CMSIS/DSP/Source/TransformFunctions/arm_cfft_radix4_f32.c ****             pSrc[(2u * i2) + 1u] = Yb12_out;
 906:../../libDaisy//Drivers/CMSIS/DSP/Source/TransformFunctions/arm_cfft_radix4_f32.c **** 
 907:../../libDaisy//Drivers/CMSIS/DSP/Source/TransformFunctions/arm_cfft_radix4_f32.c ****             /* xd' = (xa-yb-xc+yd)co3 - (ya+xb-yc-xd)(si3) */
 908:../../libDaisy//Drivers/CMSIS/DSP/Source/TransformFunctions/arm_cfft_radix4_f32.c ****             pSrc[2u * i3] = Xd12_out;
 909:../../libDaisy//Drivers/CMSIS/DSP/Source/TransformFunctions/arm_cfft_radix4_f32.c **** 
 910:../../libDaisy//Drivers/CMSIS/DSP/Source/TransformFunctions/arm_cfft_radix4_f32.c ****             /* yd' = (ya+xb-yc-xd)co3 + (xa-yb-xc+yd)(si3) */
 911:../../libDaisy//Drivers/CMSIS/DSP/Source/TransformFunctions/arm_cfft_radix4_f32.c ****             pSrc[(2u * i3) + 1u] = Yd12_out;
 912:../../libDaisy//Drivers/CMSIS/DSP/Source/TransformFunctions/arm_cfft_radix4_f32.c **** 
 913:../../libDaisy//Drivers/CMSIS/DSP/Source/TransformFunctions/arm_cfft_radix4_f32.c ****             i0 += n1;
 1231              		.loc 1 913 16 is_stmt 0 discriminator 1 view .LVU587
 1232 01aa 3E44     		add	r6, r6, r7
 1233              	.LVL162:
 817:../../libDaisy//Drivers/CMSIS/DSP/Source/TransformFunctions/arm_cfft_radix4_f32.c ****             yaIn = pSrc[(2u * i0) + 1u];
 1234              		.loc 1 817 18 discriminator 1 view .LVU588
 1235 01ac 94ED013A 		vldr.32	s6, [r4, #4]
 1236              	.LVL163:
 819:../../libDaisy//Drivers/CMSIS/DSP/Source/TransformFunctions/arm_cfft_radix4_f32.c ****             ybIn = pSrc[(2u * i1) + 1u];
 1237              		.loc 1 819 13 is_stmt 1 discriminator 1 view .LVU589
 819:../../libDaisy//Drivers/CMSIS/DSP/Source/TransformFunctions/arm_cfft_radix4_f32.c ****             ybIn = pSrc[(2u * i1) + 1u];
 1238              		.loc 1 819 18 is_stmt 0 discriminator 1 view .LVU590
 1239 01b0 D1ED002A 		vldr.32	s5, [r1]
 1240              	.LVL164:
 820:../../libDaisy//Drivers/CMSIS/DSP/Source/TransformFunctions/arm_cfft_radix4_f32.c **** 
 1241              		.loc 1 820 13 is_stmt 1 discriminator 1 view .LVU591
 914:../../libDaisy//Drivers/CMSIS/DSP/Source/TransformFunctions/arm_cfft_radix4_f32.c ****          } while (i0 < fftLen);
 1242              		.loc 1 914 10 is_stmt 0 discriminator 1 view .LVU592
 1243 01b4 B345     		cmp	fp, r6
 820:../../libDaisy//Drivers/CMSIS/DSP/Source/TransformFunctions/arm_cfft_radix4_f32.c **** 
 1244              		.loc 1 820 18 discriminator 1 view .LVU593
 1245 01b6 D1ED013A 		vldr.32	s7, [r1, #4]
ARM GAS  /var/folders/hl/qgbwny5j0fd895c2c41bk3tw0000gp/T//ccE84ZOm.s 			page 47


 1246              	.LVL165:
 822:../../libDaisy//Drivers/CMSIS/DSP/Source/TransformFunctions/arm_cfft_radix4_f32.c ****             ycIn = pSrc[(2u * i2) + 1u];
 1247              		.loc 1 822 13 is_stmt 1 discriminator 1 view .LVU594
 822:../../libDaisy//Drivers/CMSIS/DSP/Source/TransformFunctions/arm_cfft_radix4_f32.c ****             ycIn = pSrc[(2u * i2) + 1u];
 1248              		.loc 1 822 18 is_stmt 0 discriminator 1 view .LVU595
 1249 01ba 93ED007A 		vldr.32	s14, [r3]
 1250              	.LVL166:
 823:../../libDaisy//Drivers/CMSIS/DSP/Source/TransformFunctions/arm_cfft_radix4_f32.c **** 
 1251              		.loc 1 823 13 is_stmt 1 discriminator 1 view .LVU596
 823:../../libDaisy//Drivers/CMSIS/DSP/Source/TransformFunctions/arm_cfft_radix4_f32.c **** 
 1252              		.loc 1 823 18 is_stmt 0 discriminator 1 view .LVU597
 1253 01be D3ED017A 		vldr.32	s15, [r3, #4]
 1254              	.LVL167:
 825:../../libDaisy//Drivers/CMSIS/DSP/Source/TransformFunctions/arm_cfft_radix4_f32.c ****             ydIn = pSrc[(2u * i3) + 1u];
 1255              		.loc 1 825 13 is_stmt 1 discriminator 1 view .LVU598
 825:../../libDaisy//Drivers/CMSIS/DSP/Source/TransformFunctions/arm_cfft_radix4_f32.c ****             ydIn = pSrc[(2u * i3) + 1u];
 1256              		.loc 1 825 18 is_stmt 0 discriminator 1 view .LVU599
 1257 01c2 D2ED006A 		vldr.32	s13, [r2]
 1258              	.LVL168:
 826:../../libDaisy//Drivers/CMSIS/DSP/Source/TransformFunctions/arm_cfft_radix4_f32.c **** 
 1259              		.loc 1 826 13 is_stmt 1 discriminator 1 view .LVU600
 829:../../libDaisy//Drivers/CMSIS/DSP/Source/TransformFunctions/arm_cfft_radix4_f32.c ****             /* (xb - xd) */
 1260              		.loc 1 829 22 is_stmt 0 discriminator 1 view .LVU601
 1261 01c6 32EE476A 		vsub.f32	s12, s4, s14
 826:../../libDaisy//Drivers/CMSIS/DSP/Source/TransformFunctions/arm_cfft_radix4_f32.c **** 
 1262              		.loc 1 826 18 discriminator 1 view .LVU602
 1263 01ca 92ED015A 		vldr.32	s10, [r2, #4]
 1264              	.LVL169:
 829:../../libDaisy//Drivers/CMSIS/DSP/Source/TransformFunctions/arm_cfft_radix4_f32.c ****             /* (xb - xd) */
 1265              		.loc 1 829 13 is_stmt 1 discriminator 1 view .LVU603
 831:../../libDaisy//Drivers/CMSIS/DSP/Source/TransformFunctions/arm_cfft_radix4_f32.c ****             /* ya - yc */
 1266              		.loc 1 831 13 discriminator 1 view .LVU604
 833:../../libDaisy//Drivers/CMSIS/DSP/Source/TransformFunctions/arm_cfft_radix4_f32.c ****             /* (yb - yd) */
 1267              		.loc 1 833 22 is_stmt 0 discriminator 1 view .LVU605
 1268 01ce 73EE675A 		vsub.f32	s11, s6, s15
 831:../../libDaisy//Drivers/CMSIS/DSP/Source/TransformFunctions/arm_cfft_radix4_f32.c ****             /* ya - yc */
 1269              		.loc 1 831 22 discriminator 1 view .LVU606
 1270 01d2 72EEE64A 		vsub.f32	s9, s5, s13
 1271              	.LVL170:
 833:../../libDaisy//Drivers/CMSIS/DSP/Source/TransformFunctions/arm_cfft_radix4_f32.c ****             /* (yb - yd) */
 1272              		.loc 1 833 13 is_stmt 1 discriminator 1 view .LVU607
 835:../../libDaisy//Drivers/CMSIS/DSP/Source/TransformFunctions/arm_cfft_radix4_f32.c **** 
 1273              		.loc 1 835 13 discriminator 1 view .LVU608
 835:../../libDaisy//Drivers/CMSIS/DSP/Source/TransformFunctions/arm_cfft_radix4_f32.c **** 
 1274              		.loc 1 835 22 is_stmt 0 discriminator 1 view .LVU609
 1275 01d6 33EEC54A 		vsub.f32	s8, s7, s10
 1276              	.LVL171:
 838:../../libDaisy//Drivers/CMSIS/DSP/Source/TransformFunctions/arm_cfft_radix4_f32.c ****             /* xb + xd */
 1277              		.loc 1 838 13 is_stmt 1 discriminator 1 view .LVU610
 838:../../libDaisy//Drivers/CMSIS/DSP/Source/TransformFunctions/arm_cfft_radix4_f32.c ****             /* xb + xd */
 1278              		.loc 1 838 21 is_stmt 0 discriminator 1 view .LVU611
 1279 01da 32EE077A 		vadd.f32	s14, s4, s14
 1280              	.LVL172:
 840:../../libDaisy//Drivers/CMSIS/DSP/Source/TransformFunctions/arm_cfft_radix4_f32.c ****             /* ya + yc */
 1281              		.loc 1 840 13 is_stmt 1 discriminator 1 view .LVU612
 849:../../libDaisy//Drivers/CMSIS/DSP/Source/TransformFunctions/arm_cfft_radix4_f32.c ****             /* xa + xc -(xb + xd) */
 1282              		.loc 1 849 23 is_stmt 0 discriminator 1 view .LVU613
ARM GAS  /var/folders/hl/qgbwny5j0fd895c2c41bk3tw0000gp/T//ccE84ZOm.s 			page 48


 1283 01de 74EEA50A 		vadd.f32	s1, s9, s11
 847:../../libDaisy//Drivers/CMSIS/DSP/Source/TransformFunctions/arm_cfft_radix4_f32.c ****             /* (ya - yc) +  (xb - xd) */
 1284              		.loc 1 847 23 discriminator 1 view .LVU614
 1285 01e2 36EE44BA 		vsub.f32	s22, s12, s8
 857:../../libDaisy//Drivers/CMSIS/DSP/Source/TransformFunctions/arm_cfft_radix4_f32.c **** 
 1286              		.loc 1 857 23 discriminator 1 view .LVU615
 1287 01e6 75EEE45A 		vsub.f32	s11, s11, s9
 1288              	.LVL173:
 840:../../libDaisy//Drivers/CMSIS/DSP/Source/TransformFunctions/arm_cfft_radix4_f32.c ****             /* ya + yc */
 1289              		.loc 1 840 21 discriminator 1 view .LVU616
 1290 01ea 72EEA66A 		vadd.f32	s13, s5, s13
 1291              	.LVL174:
 842:../../libDaisy//Drivers/CMSIS/DSP/Source/TransformFunctions/arm_cfft_radix4_f32.c ****             /* yb + yd */
 1292              		.loc 1 842 13 is_stmt 1 discriminator 1 view .LVU617
 842:../../libDaisy//Drivers/CMSIS/DSP/Source/TransformFunctions/arm_cfft_radix4_f32.c ****             /* yb + yd */
 1293              		.loc 1 842 21 is_stmt 0 discriminator 1 view .LVU618
 1294 01ee 73EE277A 		vadd.f32	s15, s6, s15
 1295              	.LVL175:
 844:../../libDaisy//Drivers/CMSIS/DSP/Source/TransformFunctions/arm_cfft_radix4_f32.c **** 
 1296              		.loc 1 844 13 is_stmt 1 discriminator 1 view .LVU619
 844:../../libDaisy//Drivers/CMSIS/DSP/Source/TransformFunctions/arm_cfft_radix4_f32.c **** 
 1297              		.loc 1 844 21 is_stmt 0 discriminator 1 view .LVU620
 1298 01f2 33EE855A 		vadd.f32	s10, s7, s10
 1299              	.LVL176:
 847:../../libDaisy//Drivers/CMSIS/DSP/Source/TransformFunctions/arm_cfft_radix4_f32.c ****             /* (ya - yc) +  (xb - xd) */
 1300              		.loc 1 847 13 is_stmt 1 discriminator 1 view .LVU621
 849:../../libDaisy//Drivers/CMSIS/DSP/Source/TransformFunctions/arm_cfft_radix4_f32.c ****             /* xa + xc -(xb + xd) */
 1301              		.loc 1 849 13 discriminator 1 view .LVU622
 851:../../libDaisy//Drivers/CMSIS/DSP/Source/TransformFunctions/arm_cfft_radix4_f32.c ****             /* (ya + yc) - (yb + yd) */
 1302              		.loc 1 851 13 discriminator 1 view .LVU623
 855:../../libDaisy//Drivers/CMSIS/DSP/Source/TransformFunctions/arm_cfft_radix4_f32.c ****             /* (ya - yc) -  (xb - xd) */
 1303              		.loc 1 855 23 is_stmt 0 discriminator 1 view .LVU624
 1304 01f6 36EE046A 		vadd.f32	s12, s12, s8
 1305              	.LVL177:
 851:../../libDaisy//Drivers/CMSIS/DSP/Source/TransformFunctions/arm_cfft_radix4_f32.c ****             /* (ya + yc) - (yb + yd) */
 1306              		.loc 1 851 23 discriminator 1 view .LVU625
 1307 01fa 77EE661A 		vsub.f32	s3, s14, s13
 1308              	.LVL178:
 853:../../libDaisy//Drivers/CMSIS/DSP/Source/TransformFunctions/arm_cfft_radix4_f32.c ****             /* (xa - xc) + (yb - yd) */
 1309              		.loc 1 853 13 is_stmt 1 discriminator 1 view .LVU626
 853:../../libDaisy//Drivers/CMSIS/DSP/Source/TransformFunctions/arm_cfft_radix4_f32.c ****             /* (xa - xc) + (yb - yd) */
 1310              		.loc 1 853 23 is_stmt 0 discriminator 1 view .LVU627
 1311 01fe 37EEC51A 		vsub.f32	s2, s15, s10
 1312              	.LVL179:
 855:../../libDaisy//Drivers/CMSIS/DSP/Source/TransformFunctions/arm_cfft_radix4_f32.c ****             /* (ya - yc) -  (xb - xd) */
 1313              		.loc 1 855 13 is_stmt 1 discriminator 1 view .LVU628
 857:../../libDaisy//Drivers/CMSIS/DSP/Source/TransformFunctions/arm_cfft_radix4_f32.c **** 
 1314              		.loc 1 857 13 discriminator 1 view .LVU629
 859:../../libDaisy//Drivers/CMSIS/DSP/Source/TransformFunctions/arm_cfft_radix4_f32.c ****             pSrc[(2u * i0) + 1u] = Yaplusc + Ybplusd;
 1315              		.loc 1 859 13 discriminator 1 view .LVU630
 886:../../libDaisy//Drivers/CMSIS/DSP/Source/TransformFunctions/arm_cfft_radix4_f32.c **** 
 1316              		.loc 1 886 16 is_stmt 0 discriminator 1 view .LVU631
 1317 0202 60EE064A 		vmul.f32	s9, s0, s12
 1318              	.LVL180:
 892:../../libDaisy//Drivers/CMSIS/DSP/Source/TransformFunctions/arm_cfft_radix4_f32.c ****             Yd12_out += p5;
 1319              		.loc 1 892 22 discriminator 1 view .LVU632
 1320 0206 25EEC04A 		vnmul.f32	s8, s11, s0
ARM GAS  /var/folders/hl/qgbwny5j0fd895c2c41bk3tw0000gp/T//ccE84ZOm.s 			page 49


 1321              	.LVL181:
 874:../../libDaisy//Drivers/CMSIS/DSP/Source/TransformFunctions/arm_cfft_radix4_f32.c ****             /* xc' = (xa-xb+xc-xd)co2 - (ya-yb+yc-yd)(si2) */
 1322              		.loc 1 874 16 discriminator 1 view .LVU633
 1323 020a 69EE8B3A 		vmul.f32	s7, s19, s22
 1324              	.LVL182:
 893:../../libDaisy//Drivers/CMSIS/DSP/Source/TransformFunctions/arm_cfft_radix4_f32.c **** 
 1325              		.loc 1 893 22 discriminator 1 view .LVU634
 1326 020e E8EE254A 		vfma.f32	s9, s16, s11
 888:../../libDaisy//Drivers/CMSIS/DSP/Source/TransformFunctions/arm_cfft_radix4_f32.c ****             Yb12_out += p1;
 1327              		.loc 1 888 22 discriminator 1 view .LVU635
 1328 0212 20EEE93A 		vnmul.f32	s6, s1, s19
 1329              	.LVL183:
 880:../../libDaisy//Drivers/CMSIS/DSP/Source/TransformFunctions/arm_cfft_radix4_f32.c ****             /* xd' = (xa-yb-xc+yd)co3 - (ya+xb-yc-xd)(si3) */
 1330              		.loc 1 880 16 discriminator 1 view .LVU636
 1331 0216 28EEA12A 		vmul.f32	s4, s17, s3
 1332              	.LVL184:
 890:../../libDaisy//Drivers/CMSIS/DSP/Source/TransformFunctions/arm_cfft_radix4_f32.c ****             Yc12_out += p3;
 1333              		.loc 1 890 22 discriminator 1 view .LVU637
 1334 021a 61EE682A 		vnmul.f32	s5, s2, s17
 1335              	.LVL185:
 892:../../libDaisy//Drivers/CMSIS/DSP/Source/TransformFunctions/arm_cfft_radix4_f32.c ****             Yd12_out += p5;
 1336              		.loc 1 892 22 discriminator 1 view .LVU638
 1337 021e F0EE445A 		vmov.f32	s11, s8
 1338              	.LVL186:
 888:../../libDaisy//Drivers/CMSIS/DSP/Source/TransformFunctions/arm_cfft_radix4_f32.c ****             Yb12_out += p1;
 1339              		.loc 1 888 22 discriminator 1 view .LVU639
 1340 0222 AAEE0B3A 		vfma.f32	s6, s20, s22
 889:../../libDaisy//Drivers/CMSIS/DSP/Source/TransformFunctions/arm_cfft_radix4_f32.c ****             Xc12_out -= p2;
 1341              		.loc 1 889 22 discriminator 1 view .LVU640
 1342 0226 EAEE203A 		vfma.f32	s7, s20, s1
 891:../../libDaisy//Drivers/CMSIS/DSP/Source/TransformFunctions/arm_cfft_radix4_f32.c ****             Xd12_out -= p4;
 1343              		.loc 1 891 22 discriminator 1 view .LVU641
 1344 022a A9EE012A 		vfma.f32	s4, s18, s2
 890:../../libDaisy//Drivers/CMSIS/DSP/Source/TransformFunctions/arm_cfft_radix4_f32.c ****             Yc12_out += p3;
 1345              		.loc 1 890 22 discriminator 1 view .LVU642
 1346 022e E9EE212A 		vfma.f32	s5, s18, s3
 892:../../libDaisy//Drivers/CMSIS/DSP/Source/TransformFunctions/arm_cfft_radix4_f32.c ****             Yd12_out += p5;
 1347              		.loc 1 892 22 discriminator 1 view .LVU643
 1348 0232 E8EE065A 		vfma.f32	s11, s16, s12
 859:../../libDaisy//Drivers/CMSIS/DSP/Source/TransformFunctions/arm_cfft_radix4_f32.c ****             pSrc[(2u * i0) + 1u] = Yaplusc + Ybplusd;
 1349              		.loc 1 859 39 discriminator 1 view .LVU644
 1350 0236 37EE267A 		vadd.f32	s14, s14, s13
 1351              	.LVL187:
 860:../../libDaisy//Drivers/CMSIS/DSP/Source/TransformFunctions/arm_cfft_radix4_f32.c **** 
 1352              		.loc 1 860 44 discriminator 1 view .LVU645
 1353 023a 77EE857A 		vadd.f32	s15, s15, s10
 1354              	.LVL188:
 859:../../libDaisy//Drivers/CMSIS/DSP/Source/TransformFunctions/arm_cfft_radix4_f32.c ****             pSrc[(2u * i0) + 1u] = Yaplusc + Ybplusd;
 1355              		.loc 1 859 29 discriminator 1 view .LVU646
 1356 023e 05ED017A 		vstr.32	s14, [r5, #-4]
 1357              	.LVL189:
 860:../../libDaisy//Drivers/CMSIS/DSP/Source/TransformFunctions/arm_cfft_radix4_f32.c **** 
 1358              		.loc 1 860 13 is_stmt 1 discriminator 1 view .LVU647
 1359              		.loc 1 914 10 is_stmt 0 discriminator 1 view .LVU648
 1360 0242 0544     		add	r5, r5, r0
 860:../../libDaisy//Drivers/CMSIS/DSP/Source/TransformFunctions/arm_cfft_radix4_f32.c **** 
 1361              		.loc 1 860 34 discriminator 1 view .LVU649
ARM GAS  /var/folders/hl/qgbwny5j0fd895c2c41bk3tw0000gp/T//ccE84ZOm.s 			page 50


 1362 0244 C4ED017A 		vstr.32	s15, [r4, #4]
 862:../../libDaisy//Drivers/CMSIS/DSP/Source/TransformFunctions/arm_cfft_radix4_f32.c ****             Yb12_out = Yb12C_out * co1;
 1363              		.loc 1 862 13 is_stmt 1 discriminator 1 view .LVU650
 1364              	.LVL190:
 863:../../libDaisy//Drivers/CMSIS/DSP/Source/TransformFunctions/arm_cfft_radix4_f32.c ****             Xc12_out = Xc12C_out * co2;
 1365              		.loc 1 863 13 discriminator 1 view .LVU651
 864:../../libDaisy//Drivers/CMSIS/DSP/Source/TransformFunctions/arm_cfft_radix4_f32.c ****             Yc12_out = Yc12C_out * co2;
 1366              		.loc 1 864 13 discriminator 1 view .LVU652
 865:../../libDaisy//Drivers/CMSIS/DSP/Source/TransformFunctions/arm_cfft_radix4_f32.c ****             Xd12_out = Xd12C_out * co3;
 1367              		.loc 1 865 13 discriminator 1 view .LVU653
 866:../../libDaisy//Drivers/CMSIS/DSP/Source/TransformFunctions/arm_cfft_radix4_f32.c ****             Yd12_out = Yd12C_out * co3;
 1368              		.loc 1 866 13 discriminator 1 view .LVU654
 867:../../libDaisy//Drivers/CMSIS/DSP/Source/TransformFunctions/arm_cfft_radix4_f32.c **** 
 1369              		.loc 1 867 13 discriminator 1 view .LVU655
 871:../../libDaisy//Drivers/CMSIS/DSP/Source/TransformFunctions/arm_cfft_radix4_f32.c ****             /* yb' = (ya-xb-yc+xd)co1 + (xa+yb-xc-yd)(si1) */
 1370              		.loc 1 871 13 discriminator 1 view .LVU656
 874:../../libDaisy//Drivers/CMSIS/DSP/Source/TransformFunctions/arm_cfft_radix4_f32.c ****             /* xc' = (xa-xb+xc-xd)co2 - (ya-yb+yc-yd)(si2) */
 1371              		.loc 1 874 13 discriminator 1 view .LVU657
 877:../../libDaisy//Drivers/CMSIS/DSP/Source/TransformFunctions/arm_cfft_radix4_f32.c ****             /* yc' = (ya-yb+yc-yd)co2 + (xa-xb+xc-xd)(si2) */
 1372              		.loc 1 877 13 discriminator 1 view .LVU658
 880:../../libDaisy//Drivers/CMSIS/DSP/Source/TransformFunctions/arm_cfft_radix4_f32.c ****             /* xd' = (xa-yb-xc+yd)co3 - (ya+xb-yc-xd)(si3) */
 1373              		.loc 1 880 13 discriminator 1 view .LVU659
 883:../../libDaisy//Drivers/CMSIS/DSP/Source/TransformFunctions/arm_cfft_radix4_f32.c ****             /* yd' = (ya+xb-yc-xd)co3 + (xa-yb-xc+yd)(si3) */
 1374              		.loc 1 883 13 discriminator 1 view .LVU660
 886:../../libDaisy//Drivers/CMSIS/DSP/Source/TransformFunctions/arm_cfft_radix4_f32.c **** 
 1375              		.loc 1 886 13 discriminator 1 view .LVU661
 888:../../libDaisy//Drivers/CMSIS/DSP/Source/TransformFunctions/arm_cfft_radix4_f32.c ****             Yb12_out += p1;
 1376              		.loc 1 888 13 discriminator 1 view .LVU662
 889:../../libDaisy//Drivers/CMSIS/DSP/Source/TransformFunctions/arm_cfft_radix4_f32.c ****             Xc12_out -= p2;
 1377              		.loc 1 889 13 discriminator 1 view .LVU663
 890:../../libDaisy//Drivers/CMSIS/DSP/Source/TransformFunctions/arm_cfft_radix4_f32.c ****             Yc12_out += p3;
 1378              		.loc 1 890 13 discriminator 1 view .LVU664
 891:../../libDaisy//Drivers/CMSIS/DSP/Source/TransformFunctions/arm_cfft_radix4_f32.c ****             Xd12_out -= p4;
 1379              		.loc 1 891 13 discriminator 1 view .LVU665
 892:../../libDaisy//Drivers/CMSIS/DSP/Source/TransformFunctions/arm_cfft_radix4_f32.c ****             Yd12_out += p5;
 1380              		.loc 1 892 13 discriminator 1 view .LVU666
 893:../../libDaisy//Drivers/CMSIS/DSP/Source/TransformFunctions/arm_cfft_radix4_f32.c **** 
 1381              		.loc 1 893 13 discriminator 1 view .LVU667
 896:../../libDaisy//Drivers/CMSIS/DSP/Source/TransformFunctions/arm_cfft_radix4_f32.c **** 
 1382              		.loc 1 896 13 discriminator 1 view .LVU668
 1383              		.loc 1 914 10 is_stmt 0 discriminator 1 view .LVU669
 1384 0248 0444     		add	r4, r4, r0
 899:../../libDaisy//Drivers/CMSIS/DSP/Source/TransformFunctions/arm_cfft_radix4_f32.c **** 
 1385              		.loc 1 899 34 discriminator 1 view .LVU670
 1386 024a 81ED012A 		vstr.32	s4, [r1, #4]
 896:../../libDaisy//Drivers/CMSIS/DSP/Source/TransformFunctions/arm_cfft_radix4_f32.c **** 
 1387              		.loc 1 896 27 discriminator 1 view .LVU671
 1388 024e C1ED002A 		vstr.32	s5, [r1]
 899:../../libDaisy//Drivers/CMSIS/DSP/Source/TransformFunctions/arm_cfft_radix4_f32.c **** 
 1389              		.loc 1 899 13 is_stmt 1 discriminator 1 view .LVU672
 902:../../libDaisy//Drivers/CMSIS/DSP/Source/TransformFunctions/arm_cfft_radix4_f32.c **** 
 1390              		.loc 1 902 13 discriminator 1 view .LVU673
 1391              		.loc 1 914 10 is_stmt 0 discriminator 1 view .LVU674
 1392 0252 0144     		add	r1, r1, r0
 902:../../libDaisy//Drivers/CMSIS/DSP/Source/TransformFunctions/arm_cfft_radix4_f32.c **** 
 1393              		.loc 1 902 27 discriminator 1 view .LVU675
 1394 0254 83ED003A 		vstr.32	s6, [r3]
ARM GAS  /var/folders/hl/qgbwny5j0fd895c2c41bk3tw0000gp/T//ccE84ZOm.s 			page 51


 905:../../libDaisy//Drivers/CMSIS/DSP/Source/TransformFunctions/arm_cfft_radix4_f32.c **** 
 1395              		.loc 1 905 13 is_stmt 1 discriminator 1 view .LVU676
 905:../../libDaisy//Drivers/CMSIS/DSP/Source/TransformFunctions/arm_cfft_radix4_f32.c **** 
 1396              		.loc 1 905 34 is_stmt 0 discriminator 1 view .LVU677
 1397 0258 C3ED013A 		vstr.32	s7, [r3, #4]
 908:../../libDaisy//Drivers/CMSIS/DSP/Source/TransformFunctions/arm_cfft_radix4_f32.c **** 
 1398              		.loc 1 908 13 is_stmt 1 discriminator 1 view .LVU678
 1399              		.loc 1 914 10 is_stmt 0 discriminator 1 view .LVU679
 1400 025c 0344     		add	r3, r3, r0
 908:../../libDaisy//Drivers/CMSIS/DSP/Source/TransformFunctions/arm_cfft_radix4_f32.c **** 
 1401              		.loc 1 908 27 discriminator 1 view .LVU680
 1402 025e C2ED005A 		vstr.32	s11, [r2]
 911:../../libDaisy//Drivers/CMSIS/DSP/Source/TransformFunctions/arm_cfft_radix4_f32.c **** 
 1403              		.loc 1 911 13 is_stmt 1 discriminator 1 view .LVU681
 911:../../libDaisy//Drivers/CMSIS/DSP/Source/TransformFunctions/arm_cfft_radix4_f32.c **** 
 1404              		.loc 1 911 34 is_stmt 0 discriminator 1 view .LVU682
 1405 0262 C2ED014A 		vstr.32	s9, [r2, #4]
 913:../../libDaisy//Drivers/CMSIS/DSP/Source/TransformFunctions/arm_cfft_radix4_f32.c ****          } while (i0 < fftLen);
 1406              		.loc 1 913 13 is_stmt 1 discriminator 1 view .LVU683
 1407              	.LVL191:
 1408              		.loc 1 914 18 discriminator 1 view .LVU684
 1409              		.loc 1 914 10 is_stmt 0 discriminator 1 view .LVU685
 1410 0266 0244     		add	r2, r2, r0
 1411 0268 9DD8     		bhi	.L20
 915:../../libDaisy//Drivers/CMSIS/DSP/Source/TransformFunctions/arm_cfft_radix4_f32.c ****          j++;
 1412              		.loc 1 915 10 is_stmt 1 view .LVU686
 916:../../libDaisy//Drivers/CMSIS/DSP/Source/TransformFunctions/arm_cfft_radix4_f32.c ****       } while (j <= (n2 - 1u));
 1413              		.loc 1 916 7 is_stmt 0 view .LVU687
 1414 026a 019B     		ldr	r3, [sp, #4]
 915:../../libDaisy//Drivers/CMSIS/DSP/Source/TransformFunctions/arm_cfft_radix4_f32.c ****          j++;
 1415              		.loc 1 915 11 view .LVU688
 1416 026c 0EF1010E 		add	lr, lr, #1
 1417              	.LVL192:
 1418              		.loc 1 916 15 is_stmt 1 view .LVU689
 1419              		.loc 1 916 7 is_stmt 0 view .LVU690
 1420 0270 0CF1080C 		add	ip, ip, #8
 1421 0274 0833     		adds	r3, r3, #8
 1422 0276 0193     		str	r3, [sp, #4]
 1423 0278 059B     		ldr	r3, [sp, #20]
 1424 027a 9844     		add	r8, r8, r3
 1425 027c 049B     		ldr	r3, [sp, #16]
 1426 027e 9944     		add	r9, r9, r3
 1427 0280 069B     		ldr	r3, [sp, #24]
 1428 0282 9A44     		add	r10, r10, r3
 1429 0284 029B     		ldr	r3, [sp, #8]
 1430 0286 7345     		cmp	r3, lr
 1431 0288 7FF477AF 		bne	.L21
 917:../../libDaisy//Drivers/CMSIS/DSP/Source/TransformFunctions/arm_cfft_radix4_f32.c ****       twidCoefModifier <<= 2u;
 1432              		.loc 1 917 7 is_stmt 1 discriminator 2 view .LVU691
 1433              		.loc 1 917 24 is_stmt 0 discriminator 2 view .LVU692
 1434 028c 079B     		ldr	r3, [sp, #28]
 783:../../libDaisy//Drivers/CMSIS/DSP/Source/TransformFunctions/arm_cfft_radix4_f32.c ****    {
 1435              		.loc 1 783 37 discriminator 2 view .LVU693
 1436 028e 089A     		ldr	r2, [sp, #32]
 1437              		.loc 1 917 24 discriminator 2 view .LVU694
 1438 0290 9B00     		lsls	r3, r3, #2
 783:../../libDaisy//Drivers/CMSIS/DSP/Source/TransformFunctions/arm_cfft_radix4_f32.c ****    {
ARM GAS  /var/folders/hl/qgbwny5j0fd895c2c41bk3tw0000gp/T//ccE84ZOm.s 			page 52


 1439              		.loc 1 783 37 discriminator 2 view .LVU695
 1440 0292 9208     		lsrs	r2, r2, #2
 1441              		.loc 1 917 24 discriminator 2 view .LVU696
 1442 0294 9BB2     		uxth	r3, r3
 783:../../libDaisy//Drivers/CMSIS/DSP/Source/TransformFunctions/arm_cfft_radix4_f32.c ****    {
 1443              		.loc 1 783 4 discriminator 2 view .LVU697
 1444 0296 042A     		cmp	r2, #4
 783:../../libDaisy//Drivers/CMSIS/DSP/Source/TransformFunctions/arm_cfft_radix4_f32.c ****    {
 1445              		.loc 1 783 37 discriminator 2 view .LVU698
 1446 0298 0892     		str	r2, [sp, #32]
 1447              	.LVL193:
 1448              		.loc 1 917 24 discriminator 2 view .LVU699
 1449 029a 0793     		str	r3, [sp, #28]
 1450              	.LVL194:
 783:../../libDaisy//Drivers/CMSIS/DSP/Source/TransformFunctions/arm_cfft_radix4_f32.c ****    {
 1451              		.loc 1 783 35 is_stmt 1 discriminator 2 view .LVU700
 783:../../libDaisy//Drivers/CMSIS/DSP/Source/TransformFunctions/arm_cfft_radix4_f32.c ****    {
 1452              		.loc 1 783 27 discriminator 2 view .LVU701
 783:../../libDaisy//Drivers/CMSIS/DSP/Source/TransformFunctions/arm_cfft_radix4_f32.c ****    {
 1453              		.loc 1 783 4 is_stmt 0 discriminator 2 view .LVU702
 1454 029c 3FF652AF 		bhi	.L18
 1455              	.LVL195:
 1456              	.L22:
 783:../../libDaisy//Drivers/CMSIS/DSP/Source/TransformFunctions/arm_cfft_radix4_f32.c ****    {
