ARM GAS  /var/folders/hl/qgbwny5j0fd895c2c41bk3tw0000gp/T//ccj2i8el.s 			page 1


   1              		.cpu cortex-m7
   2              		.eabi_attribute 28, 1
   3              		.eabi_attribute 20, 1
   4              		.eabi_attribute 21, 1
   5              		.eabi_attribute 23, 3
   6              		.eabi_attribute 24, 1
   7              		.eabi_attribute 25, 1
   8              		.eabi_attribute 26, 1
   9              		.eabi_attribute 30, 2
  10              		.eabi_attribute 34, 1
  11              		.eabi_attribute 18, 4
  12              		.file	"Wavetable.cpp"
  13              		.text
  14              	.Ltext0:
  15              		.cfi_sections	.debug_frame
  16              		.section	.text._ZN5daisy6SwitchD2Ev,"axG",%progbits,_ZN5daisy6SwitchD5Ev,comdat
  17              		.align	1
  18              		.p2align 2,,3
  19              		.weak	_ZN5daisy6SwitchD2Ev
  20              		.arch armv7e-m
  21              		.syntax unified
  22              		.thumb
  23              		.thumb_func
  24              		.fpu fpv5-d16
  26              	_ZN5daisy6SwitchD2Ev:
  27              	.LVL0:
  28              	.LFB1606:
  29              		.file 1 "../../libDaisy/src/hid/switch.h"
   1:../../libDaisy/src/hid/switch.h **** #pragma once
   2:../../libDaisy/src/hid/switch.h **** #ifndef DSY_SWITCH_H
   3:../../libDaisy/src/hid/switch.h **** #define DSY_SWITCH_H
   4:../../libDaisy/src/hid/switch.h **** #include "daisy_core.h"
   5:../../libDaisy/src/hid/switch.h **** #include "per/gpio.h"
   6:../../libDaisy/src/hid/switch.h **** #include "sys/system.h"
   7:../../libDaisy/src/hid/switch.h **** 
   8:../../libDaisy/src/hid/switch.h **** namespace daisy
   9:../../libDaisy/src/hid/switch.h **** {
  10:../../libDaisy/src/hid/switch.h **** /** 
  11:../../libDaisy/src/hid/switch.h ****     Generic Class for handling momentary/latching switches \n 
  12:../../libDaisy/src/hid/switch.h ****     Inspired/influenced by Mutable Instruments (pichenettes) Switch classes
  13:../../libDaisy/src/hid/switch.h ****     @author Stephen Hensley
  14:../../libDaisy/src/hid/switch.h ****     @date December 2019
  15:../../libDaisy/src/hid/switch.h ****     @ingroup controls
  16:../../libDaisy/src/hid/switch.h **** */
  17:../../libDaisy/src/hid/switch.h **** class Switch
  18:../../libDaisy/src/hid/switch.h **** {
  19:../../libDaisy/src/hid/switch.h ****   public:
  20:../../libDaisy/src/hid/switch.h ****     /** Specifies the expected behavior of the switch */
  21:../../libDaisy/src/hid/switch.h ****     enum Type
  22:../../libDaisy/src/hid/switch.h ****     {
  23:../../libDaisy/src/hid/switch.h ****         TYPE_TOGGLE,    /**< & */
  24:../../libDaisy/src/hid/switch.h ****         TYPE_MOMENTARY, /**< & */
  25:../../libDaisy/src/hid/switch.h ****     };
  26:../../libDaisy/src/hid/switch.h ****     /** Specifies whether the pressed is HIGH or LOW. */
  27:../../libDaisy/src/hid/switch.h ****     enum Polarity
  28:../../libDaisy/src/hid/switch.h ****     {
  29:../../libDaisy/src/hid/switch.h ****         POLARITY_NORMAL,   /**< & */
ARM GAS  /var/folders/hl/qgbwny5j0fd895c2c41bk3tw0000gp/T//ccj2i8el.s 			page 2


  30:../../libDaisy/src/hid/switch.h ****         POLARITY_INVERTED, /**< & */
  31:../../libDaisy/src/hid/switch.h ****     };
  32:../../libDaisy/src/hid/switch.h **** 
  33:../../libDaisy/src/hid/switch.h ****     /** Specifies whether to use built-in Pull Up/Down resistors to hold button at a given state wh
  34:../../libDaisy/src/hid/switch.h ****     enum Pull
  35:../../libDaisy/src/hid/switch.h ****     {
  36:../../libDaisy/src/hid/switch.h ****         PULL_UP,   /**< & */
  37:../../libDaisy/src/hid/switch.h ****         PULL_DOWN, /**< & */
  38:../../libDaisy/src/hid/switch.h ****         PULL_NONE, /**< & */
  39:../../libDaisy/src/hid/switch.h ****     };
  40:../../libDaisy/src/hid/switch.h **** 
  41:../../libDaisy/src/hid/switch.h ****     Switch() {}
  42:../../libDaisy/src/hid/switch.h ****     ~Switch() {}
  30              		.loc 1 42 5 view -0
  31              		.cfi_startproc
  32              		@ args = 0, pretend = 0, frame = 0
  33              		@ frame_needed = 0, uses_anonymous_args = 0
  34              		@ link register save eliminated.
  35              		.loc 1 42 16 is_stmt 0 view .LVU1
  36 0000 7047     		bx	lr
  37              		.cfi_endproc
  38              	.LFE1606:
  40              		.weak	_ZN5daisy6SwitchD1Ev
  41              		.thumb_set _ZN5daisy6SwitchD1Ev,_ZN5daisy6SwitchD2Ev
  42 0002 00BF     		.section	.text._ZN5daisy8patch_sm12DaisyPatchSMD2Ev,"axG",%progbits,_ZN5daisy8patch_sm12DaisyPatch
  43              		.align	1
  44              		.p2align 2,,3
  45              		.weak	_ZN5daisy8patch_sm12DaisyPatchSMD2Ev
  46              		.syntax unified
  47              		.thumb
  48              		.thumb_func
  49              		.fpu fpv5-d16
  51              	_ZN5daisy8patch_sm12DaisyPatchSMD2Ev:
  52              	.LVL1:
  53              	.LFB2529:
  54              		.file 2 "../../libDaisy/src/daisy_patch_sm.h"
   1:../../libDaisy/src/daisy_patch_sm.h **** #pragma once
   2:../../libDaisy/src/daisy_patch_sm.h **** 
   3:../../libDaisy/src/daisy_patch_sm.h **** #include "daisy.h"
   4:../../libDaisy/src/daisy_patch_sm.h **** 
   5:../../libDaisy/src/daisy_patch_sm.h **** namespace daisy
   6:../../libDaisy/src/daisy_patch_sm.h **** {
   7:../../libDaisy/src/daisy_patch_sm.h **** namespace patch_sm
   8:../../libDaisy/src/daisy_patch_sm.h **** {
   9:../../libDaisy/src/daisy_patch_sm.h ****     /** Accessors for the Analog Controls. 
  10:../../libDaisy/src/daisy_patch_sm.h ****      *  These cover the 8x Bipolar CV inputs
  11:../../libDaisy/src/daisy_patch_sm.h ****      *  as well as the 4x 0-3V3 ADC inputs on
  12:../../libDaisy/src/daisy_patch_sm.h ****      *  the hardware 
  13:../../libDaisy/src/daisy_patch_sm.h ****      * 
  14:../../libDaisy/src/daisy_patch_sm.h ****      *  When reading a value with DaisyPatchSM::GetAdcValue()
  15:../../libDaisy/src/daisy_patch_sm.h ****      * 
  16:../../libDaisy/src/daisy_patch_sm.h ****      *  patch.GetAdcValue(patch_sm::CV_1);
  17:../../libDaisy/src/daisy_patch_sm.h ****      */
  18:../../libDaisy/src/daisy_patch_sm.h ****     enum
  19:../../libDaisy/src/daisy_patch_sm.h ****     {
  20:../../libDaisy/src/daisy_patch_sm.h ****         CV_1 = 0,
  21:../../libDaisy/src/daisy_patch_sm.h ****         CV_2,
ARM GAS  /var/folders/hl/qgbwny5j0fd895c2c41bk3tw0000gp/T//ccj2i8el.s 			page 3


  22:../../libDaisy/src/daisy_patch_sm.h ****         CV_3,
  23:../../libDaisy/src/daisy_patch_sm.h ****         CV_4,
  24:../../libDaisy/src/daisy_patch_sm.h ****         CV_5,
  25:../../libDaisy/src/daisy_patch_sm.h ****         CV_6,
  26:../../libDaisy/src/daisy_patch_sm.h ****         CV_7,
  27:../../libDaisy/src/daisy_patch_sm.h ****         CV_8,
  28:../../libDaisy/src/daisy_patch_sm.h ****         ADC_9,
  29:../../libDaisy/src/daisy_patch_sm.h ****         ADC_10,
  30:../../libDaisy/src/daisy_patch_sm.h ****         ADC_11,
  31:../../libDaisy/src/daisy_patch_sm.h ****         ADC_12,
  32:../../libDaisy/src/daisy_patch_sm.h ****         ADC_LAST,
  33:../../libDaisy/src/daisy_patch_sm.h ****     };
  34:../../libDaisy/src/daisy_patch_sm.h **** 
  35:../../libDaisy/src/daisy_patch_sm.h ****     /** Enum for addressing the CV Outputs via the WriteCvOut function. */
  36:../../libDaisy/src/daisy_patch_sm.h ****     enum
  37:../../libDaisy/src/daisy_patch_sm.h ****     {
  38:../../libDaisy/src/daisy_patch_sm.h ****         CV_OUT_BOTH = 0,
  39:../../libDaisy/src/daisy_patch_sm.h ****         CV_OUT_1,
  40:../../libDaisy/src/daisy_patch_sm.h ****         CV_OUT_2,
  41:../../libDaisy/src/daisy_patch_sm.h ****     };
  42:../../libDaisy/src/daisy_patch_sm.h **** 
  43:../../libDaisy/src/daisy_patch_sm.h **** 
  44:../../libDaisy/src/daisy_patch_sm.h ****     /** @brief Board support file for DaisyPatchSM hardware
  45:../../libDaisy/src/daisy_patch_sm.h ****      *  @author shensley
  46:../../libDaisy/src/daisy_patch_sm.h ****      *  @ingroup boards
  47:../../libDaisy/src/daisy_patch_sm.h ****      * 
  48:../../libDaisy/src/daisy_patch_sm.h ****      *  Daisy Patch SM is a complete Eurorack module DSP engine.
  49:../../libDaisy/src/daisy_patch_sm.h ****      *  Based on the Daisy Seed, with circuits added for 
  50:../../libDaisy/src/daisy_patch_sm.h ****      *  interfacing directly with eurorack modular synthesizers.
  51:../../libDaisy/src/daisy_patch_sm.h ****      */
  52:../../libDaisy/src/daisy_patch_sm.h ****     class DaisyPatchSM
  53:../../libDaisy/src/daisy_patch_sm.h ****     {
  54:../../libDaisy/src/daisy_patch_sm.h ****       public:
  55:../../libDaisy/src/daisy_patch_sm.h ****         /** Helper for mapping pins, and accessing them using the `GetPin` function */
  56:../../libDaisy/src/daisy_patch_sm.h ****         enum class PinBank
  57:../../libDaisy/src/daisy_patch_sm.h ****         {
  58:../../libDaisy/src/daisy_patch_sm.h ****             A,
  59:../../libDaisy/src/daisy_patch_sm.h ****             B,
  60:../../libDaisy/src/daisy_patch_sm.h ****             C,
  61:../../libDaisy/src/daisy_patch_sm.h ****             D
  62:../../libDaisy/src/daisy_patch_sm.h ****         };
  63:../../libDaisy/src/daisy_patch_sm.h **** 
  64:../../libDaisy/src/daisy_patch_sm.h ****         DaisyPatchSM() {}
  65:../../libDaisy/src/daisy_patch_sm.h ****         ~DaisyPatchSM() {}
  55              		.loc 2 65 9 is_stmt 1 view -0
  56              		.cfi_startproc
  57              		@ args = 0, pretend = 0, frame = 0
  58              		@ frame_needed = 0, uses_anonymous_args = 0
  59              		@ link register save eliminated.
  60              	.LBB481:
  61              	.LBI481:
  62              		.file 3 "../../libDaisy/src/hid/gatein.h"
   1:../../libDaisy/src/hid/gatein.h **** #pragma once
   2:../../libDaisy/src/hid/gatein.h **** #ifndef DSY_GATEIN_H
   3:../../libDaisy/src/hid/gatein.h **** #define DSY_GATEIN_H
   4:../../libDaisy/src/hid/gatein.h **** #include "per/gpio.h"
   5:../../libDaisy/src/hid/gatein.h **** 
ARM GAS  /var/folders/hl/qgbwny5j0fd895c2c41bk3tw0000gp/T//ccj2i8el.s 			page 4


   6:../../libDaisy/src/hid/gatein.h **** namespace daisy
   7:../../libDaisy/src/hid/gatein.h **** {
   8:../../libDaisy/src/hid/gatein.h **** /**
   9:../../libDaisy/src/hid/gatein.h ****    @brief Generic Class for handling gate inputs through GPIO.
  10:../../libDaisy/src/hid/gatein.h ****    @author Stephen Hensley
  11:../../libDaisy/src/hid/gatein.h ****    @date    March 2020
  12:../../libDaisy/src/hid/gatein.h ****    @ingroup controls
  13:../../libDaisy/src/hid/gatein.h **** */
  14:../../libDaisy/src/hid/gatein.h **** class GateIn
  15:../../libDaisy/src/hid/gatein.h **** {
  16:../../libDaisy/src/hid/gatein.h ****   public:
  17:../../libDaisy/src/hid/gatein.h ****     /** GateIn 
  18:../../libDaisy/src/hid/gatein.h ****     Constructor 
  19:../../libDaisy/src/hid/gatein.h ****     */
  20:../../libDaisy/src/hid/gatein.h ****     GateIn() {}
  21:../../libDaisy/src/hid/gatein.h ****     /** GateIn~
  22:../../libDaisy/src/hid/gatein.h ****     Destructor 
  23:../../libDaisy/src/hid/gatein.h ****     */
  24:../../libDaisy/src/hid/gatein.h ****     ~GateIn() {}
  63              		.loc 3 24 5 view .LVU3
  64              		.loc 3 24 5 is_stmt 0 view .LVU4
  65              	.LBE481:
  66              	.LBB482:
  67              	.LBI482:
  68              		.loc 3 24 5 is_stmt 1 view .LVU5
  69              		.loc 3 24 5 is_stmt 0 view .LVU6
  70              	.LBE482:
  71              	.LBB483:
  72              	.LBI483:
  73              		.file 4 "../../libDaisy/src/dev/codec_pcm3060.h"
   1:../../libDaisy/src/dev/codec_pcm3060.h **** #pragma once
   2:../../libDaisy/src/dev/codec_pcm3060.h **** #ifndef DSY_CODEC_PCM3060_H
   3:../../libDaisy/src/dev/codec_pcm3060.h **** #define DSY_CODEC_PCM3060_H
   4:../../libDaisy/src/dev/codec_pcm3060.h **** #include "per/i2c.h"
   5:../../libDaisy/src/dev/codec_pcm3060.h **** namespace daisy
   6:../../libDaisy/src/dev/codec_pcm3060.h **** {
   7:../../libDaisy/src/dev/codec_pcm3060.h **** /**
   8:../../libDaisy/src/dev/codec_pcm3060.h ****  * @brief Driver for the TI PCM3060 Audio Codec.
   9:../../libDaisy/src/dev/codec_pcm3060.h ****  * @addtogroup codec
  10:../../libDaisy/src/dev/codec_pcm3060.h ****  * 
  11:../../libDaisy/src/dev/codec_pcm3060.h ****  * For now this is a limited interface that uses I2C to communicate with the PCM3060
  12:../../libDaisy/src/dev/codec_pcm3060.h ****  * The device can also be accessed with SPI, which is not yet supported.
  13:../../libDaisy/src/dev/codec_pcm3060.h ****  * 
  14:../../libDaisy/src/dev/codec_pcm3060.h ****  * For now all registers are set to their defaults, and the Init function will 
  15:../../libDaisy/src/dev/codec_pcm3060.h ****  * perform a MRST and SRST before setting the format to 24bit LJ, and disabling 
  16:../../libDaisy/src/dev/codec_pcm3060.h ****  * power save for both the ADC and DAC.
  17:../../libDaisy/src/dev/codec_pcm3060.h ****  *
  18:../../libDaisy/src/dev/codec_pcm3060.h ****  */
  19:../../libDaisy/src/dev/codec_pcm3060.h **** class Pcm3060
  20:../../libDaisy/src/dev/codec_pcm3060.h **** {
  21:../../libDaisy/src/dev/codec_pcm3060.h ****   public:
  22:../../libDaisy/src/dev/codec_pcm3060.h ****     enum class Result
  23:../../libDaisy/src/dev/codec_pcm3060.h ****     {
  24:../../libDaisy/src/dev/codec_pcm3060.h ****         OK,
  25:../../libDaisy/src/dev/codec_pcm3060.h ****         ERR,
  26:../../libDaisy/src/dev/codec_pcm3060.h ****     };
  27:../../libDaisy/src/dev/codec_pcm3060.h **** 
ARM GAS  /var/folders/hl/qgbwny5j0fd895c2c41bk3tw0000gp/T//ccj2i8el.s 			page 5


  28:../../libDaisy/src/dev/codec_pcm3060.h ****     Pcm3060() {}
  29:../../libDaisy/src/dev/codec_pcm3060.h ****     ~Pcm3060() {}
  74              		.loc 4 29 5 is_stmt 1 view .LVU7
  75              		.loc 4 29 5 is_stmt 0 view .LVU8
  76              	.LBE483:
  77              	.LBB484:
  78              	.LBI484:
  79              		.file 5 "../../libDaisy/src/hid/usb.h"
   1:../../libDaisy/src/hid/usb.h **** #pragma once
   2:../../libDaisy/src/hid/usb.h **** #ifndef DSY_HID_USB_H
   3:../../libDaisy/src/hid/usb.h **** #define DSY_HID_USB_H
   4:../../libDaisy/src/hid/usb.h **** #include <stdint.h>
   5:../../libDaisy/src/hid/usb.h **** #include <stdlib.h>
   6:../../libDaisy/src/hid/usb.h **** 
   7:../../libDaisy/src/hid/usb.h **** namespace daisy
   8:../../libDaisy/src/hid/usb.h **** /** @addtogroup human_interface
   9:../../libDaisy/src/hid/usb.h ****     @{
  10:../../libDaisy/src/hid/usb.h **** */
  11:../../libDaisy/src/hid/usb.h **** 
  12:../../libDaisy/src/hid/usb.h **** {
  13:../../libDaisy/src/hid/usb.h **** /** 
  14:../../libDaisy/src/hid/usb.h ****     @brief Interface for initializing and using the USB Peripherals on the daisy
  15:../../libDaisy/src/hid/usb.h ****     @author Stephen Hensley
  16:../../libDaisy/src/hid/usb.h ****     @date December 2019
  17:../../libDaisy/src/hid/usb.h **** */
  18:../../libDaisy/src/hid/usb.h **** class UsbHandle
  19:../../libDaisy/src/hid/usb.h **** {
  20:../../libDaisy/src/hid/usb.h ****   public:
  21:../../libDaisy/src/hid/usb.h ****     /** Return values for USBHandle Functions */
  22:../../libDaisy/src/hid/usb.h ****     enum class Result
  23:../../libDaisy/src/hid/usb.h ****     {
  24:../../libDaisy/src/hid/usb.h ****         OK,
  25:../../libDaisy/src/hid/usb.h ****         ERR,
  26:../../libDaisy/src/hid/usb.h ****     };
  27:../../libDaisy/src/hid/usb.h **** 
  28:../../libDaisy/src/hid/usb.h ****     /** Specified which of the two USB Peripherals to initialize. */
  29:../../libDaisy/src/hid/usb.h ****     enum UsbPeriph
  30:../../libDaisy/src/hid/usb.h ****     {
  31:../../libDaisy/src/hid/usb.h ****         FS_INTERNAL, /**< Internal pin */
  32:../../libDaisy/src/hid/usb.h ****         FS_EXTERNAL, /**< FS External D+ pin is Pin 38 (GPIO32). FS External D- pin is Pin 37 (GPIO
  33:../../libDaisy/src/hid/usb.h ****         FS_BOTH,     /**< Both */
  34:../../libDaisy/src/hid/usb.h ****     };
  35:../../libDaisy/src/hid/usb.h **** 
  36:../../libDaisy/src/hid/usb.h **** 
  37:../../libDaisy/src/hid/usb.h ****     /** Function called upon reception of a buffer */
  38:../../libDaisy/src/hid/usb.h ****     typedef void (*ReceiveCallback)(uint8_t* buff, uint32_t* len);
  39:../../libDaisy/src/hid/usb.h **** 
  40:../../libDaisy/src/hid/usb.h ****     UsbHandle() {}
  41:../../libDaisy/src/hid/usb.h **** 
  42:../../libDaisy/src/hid/usb.h ****     ~UsbHandle() {}
  80              		.loc 5 42 5 is_stmt 1 view .LVU9
  81              		.loc 5 42 5 is_stmt 0 view .LVU10
  82              	.LBE484:
  83              	.LBB485:
  84              	.LBI485:
  85              		.file 6 "../../libDaisy/src/per/adc.h"
   1:../../libDaisy/src/per/adc.h **** #pragma once
ARM GAS  /var/folders/hl/qgbwny5j0fd895c2c41bk3tw0000gp/T//ccj2i8el.s 			page 6


   2:../../libDaisy/src/per/adc.h **** #ifndef DSY_ADC_H
   3:../../libDaisy/src/per/adc.h **** #define DSY_ADC_H /**< Macro */
   4:../../libDaisy/src/per/adc.h **** #include <stdint.h>
   5:../../libDaisy/src/per/adc.h **** #include <stdlib.h>
   6:../../libDaisy/src/per/adc.h **** #include "daisy_core.h"
   7:../../libDaisy/src/per/adc.h **** #include "per/gpio.h"
   8:../../libDaisy/src/per/adc.h **** 
   9:../../libDaisy/src/per/adc.h **** #define DSY_ADC_MAX_CHANNELS 16 /**< Maximum number of ADC channels */
  10:../../libDaisy/src/per/adc.h **** 
  11:../../libDaisy/src/per/adc.h **** namespace daisy
  12:../../libDaisy/src/per/adc.h **** {
  13:../../libDaisy/src/per/adc.h **** /** @addtogroup per_analog
  14:../../libDaisy/src/per/adc.h ****     @{
  15:../../libDaisy/src/per/adc.h **** */
  16:../../libDaisy/src/per/adc.h **** 
  17:../../libDaisy/src/per/adc.h **** /* While there may not be many configuration options here,
  18:../../libDaisy/src/per/adc.h **** using a struct like this allows us to add more configuration
  19:../../libDaisy/src/per/adc.h **** later without breaking existing functionality.
  20:../../libDaisy/src/per/adc.h **** */
  21:../../libDaisy/src/per/adc.h **** 
  22:../../libDaisy/src/per/adc.h **** /** @brief   Configuration Structure for an ADC Channel 
  23:../../libDaisy/src/per/adc.h ****  *  @details This can be used to configure a a single input, 
  24:../../libDaisy/src/per/adc.h ****  *           or a multiplexed input, allowing up to 8 inputs on 
  25:../../libDaisy/src/per/adc.h ****  *           one channel.
  26:../../libDaisy/src/per/adc.h ****  *  @note    Sharing data lines to multiple muxes _is_ possible, but
  27:../../libDaisy/src/per/adc.h ****  *           each channel sharing data lines must be set to the maximum
  28:../../libDaisy/src/per/adc.h ****  *           number of channels, even if some multiplexers have fewer
  29:../../libDaisy/src/per/adc.h ****  *           inputs connected.
  30:../../libDaisy/src/per/adc.h **** */
  31:../../libDaisy/src/per/adc.h **** struct AdcChannelConfig
  32:../../libDaisy/src/per/adc.h **** {
  33:../../libDaisy/src/per/adc.h ****     /** Which pin to use for multiplexing */
  34:../../libDaisy/src/per/adc.h ****     enum MuxPin
  35:../../libDaisy/src/per/adc.h ****     {
  36:../../libDaisy/src/per/adc.h ****         MUX_SEL_0,    /**< & */
  37:../../libDaisy/src/per/adc.h ****         MUX_SEL_1,    /**< & */
  38:../../libDaisy/src/per/adc.h ****         MUX_SEL_2,    /**< & */
  39:../../libDaisy/src/per/adc.h ****         MUX_SEL_LAST, /**< & */
  40:../../libDaisy/src/per/adc.h ****     };
  41:../../libDaisy/src/per/adc.h **** 
  42:../../libDaisy/src/per/adc.h ****     /** Initializes a single ADC pin as an ADC. 
  43:../../libDaisy/src/per/adc.h ****     \param pin Pin to init.
  44:../../libDaisy/src/per/adc.h ****      */
  45:../../libDaisy/src/per/adc.h ****     void InitSingle(dsy_gpio_pin pin);
  46:../../libDaisy/src/per/adc.h **** 
  47:../../libDaisy/src/per/adc.h ****     /** 
  48:../../libDaisy/src/per/adc.h ****     Initializes a single ADC pin as a Multiplexed ADC.
  49:../../libDaisy/src/per/adc.h ****     Requires a CD405X Multiplexer connected to the pin.
  50:../../libDaisy/src/per/adc.h ****     You only need to supply the mux pins that are required,
  51:../../libDaisy/src/per/adc.h ****     e.g. a 4052 mux would only require mux_0 and mux_1.
  52:../../libDaisy/src/per/adc.h ****     Internal Callbacks handle the pin addressing.
  53:../../libDaisy/src/per/adc.h ****     \param mux_channels must be 1-8
  54:../../libDaisy/src/per/adc.h ****     \param mux_0 First mux pin
  55:../../libDaisy/src/per/adc.h ****     \param mux_1 Second mux pin
  56:../../libDaisy/src/per/adc.h ****     \param mux_2 Third mux pin
  57:../../libDaisy/src/per/adc.h ****     \param adc_pin &
  58:../../libDaisy/src/per/adc.h ****     */
ARM GAS  /var/folders/hl/qgbwny5j0fd895c2c41bk3tw0000gp/T//ccj2i8el.s 			page 7


  59:../../libDaisy/src/per/adc.h ****     void InitMux(dsy_gpio_pin adc_pin,
  60:../../libDaisy/src/per/adc.h ****                  size_t       mux_channels,
  61:../../libDaisy/src/per/adc.h ****                  dsy_gpio_pin mux_0,
  62:../../libDaisy/src/per/adc.h ****                  dsy_gpio_pin mux_1 = {DSY_GPIOX, 0},
  63:../../libDaisy/src/per/adc.h ****                  dsy_gpio_pin mux_2 = {DSY_GPIOX, 0});
  64:../../libDaisy/src/per/adc.h **** 
  65:../../libDaisy/src/per/adc.h ****     dsy_gpio pin_;                   /**< & */
  66:../../libDaisy/src/per/adc.h ****     dsy_gpio mux_pin_[MUX_SEL_LAST]; /**< & */
  67:../../libDaisy/src/per/adc.h ****     uint8_t  mux_channels_;          /**< & */
  68:../../libDaisy/src/per/adc.h **** };
  69:../../libDaisy/src/per/adc.h **** 
  70:../../libDaisy/src/per/adc.h **** /**
  71:../../libDaisy/src/per/adc.h ****    @brief Handler for analog to digital conversion
  72:../../libDaisy/src/per/adc.h **** */
  73:../../libDaisy/src/per/adc.h **** class AdcHandle
  74:../../libDaisy/src/per/adc.h **** {
  75:../../libDaisy/src/per/adc.h ****   public:
  76:../../libDaisy/src/per/adc.h ****     /** Supported oversampling amounts */
  77:../../libDaisy/src/per/adc.h ****     enum OverSampling
  78:../../libDaisy/src/per/adc.h ****     {
  79:../../libDaisy/src/per/adc.h ****         OVS_NONE, /**< & */
  80:../../libDaisy/src/per/adc.h ****         OVS_4,    /**< & */
  81:../../libDaisy/src/per/adc.h ****         OVS_8,    /**< & */
  82:../../libDaisy/src/per/adc.h ****         OVS_16,   /**< & */
  83:../../libDaisy/src/per/adc.h ****         OVS_32,   /**< & */
  84:../../libDaisy/src/per/adc.h ****         OVS_64,   /**< & */
  85:../../libDaisy/src/per/adc.h ****         OVS_128,  /**< & */
  86:../../libDaisy/src/per/adc.h ****         OVS_256,  /**< & */
  87:../../libDaisy/src/per/adc.h ****         OVS_512,  /**< & */
  88:../../libDaisy/src/per/adc.h ****         OVS_1024, /**< & */
  89:../../libDaisy/src/per/adc.h ****         OVS_LAST, /**< & */
  90:../../libDaisy/src/per/adc.h ****     };
  91:../../libDaisy/src/per/adc.h **** 
  92:../../libDaisy/src/per/adc.h ****     AdcHandle() {}
  93:../../libDaisy/src/per/adc.h ****     ~AdcHandle() {}
  86              		.loc 6 93 5 is_stmt 1 view .LVU11
  87              		.loc 6 93 5 is_stmt 0 view .LVU12
  88              	.LBE485:
  89              	.LBB486:
  90              	.LBI486:
  91              		.file 7 "../../libDaisy/src/hid/audio.h"
   1:../../libDaisy/src/hid/audio.h **** #ifndef DSY_AUDIO_H
   2:../../libDaisy/src/hid/audio.h **** #define DSY_AUDIO_H /**< & */
   3:../../libDaisy/src/hid/audio.h **** 
   4:../../libDaisy/src/hid/audio.h **** #include "per/sai.h"
   5:../../libDaisy/src/hid/audio.h **** 
   6:../../libDaisy/src/hid/audio.h **** namespace daisy
   7:../../libDaisy/src/hid/audio.h **** {
   8:../../libDaisy/src/hid/audio.h **** /** @brief Audio Engine Handle
   9:../../libDaisy/src/hid/audio.h ****  *  @ingroup audio 
  10:../../libDaisy/src/hid/audio.h ****  *  @details This class allows for higher level access to an audio engine.
  11:../../libDaisy/src/hid/audio.h ****  *           If you're using a SOM like the DaisySeed or DaisyPatchSM (or any 
  12:../../libDaisy/src/hid/audio.h ****  *            board that includes one of those objects) then the intialization
  13:../../libDaisy/src/hid/audio.h ****  *            is already taken  care of.
  14:../../libDaisy/src/hid/audio.h ****  *           If you're setting up your own custom hardware, or need to make changes
  15:../../libDaisy/src/hid/audio.h ****  *           you will have to take the following steps:
  16:../../libDaisy/src/hid/audio.h ****  *             1. Create and Initialize an SaiHandle or two depending on your requirements
ARM GAS  /var/folders/hl/qgbwny5j0fd895c2c41bk3tw0000gp/T//ccj2i8el.s 			page 8


  17:../../libDaisy/src/hid/audio.h ****  *             2. Initialize the Audio Handle with the desired settings and the Initialized SaiHand
  18:../../libDaisy/src/hid/audio.h ****  *             3. If the connected codec requires special configuration or initialization, do so
  19:../../libDaisy/src/hid/audio.h ****  *             4. Write a callback method using either the AudioCallback or the InterleavingAudioCa
  20:../../libDaisy/src/hid/audio.h ****  *             5. Start the Audio using one of the StartAudio function
  21:../../libDaisy/src/hid/audio.h ****  */
  22:../../libDaisy/src/hid/audio.h **** class AudioHandle
  23:../../libDaisy/src/hid/audio.h **** {
  24:../../libDaisy/src/hid/audio.h ****   public:
  25:../../libDaisy/src/hid/audio.h ****     /** Manually configurable details about the Audio Engine */
  26:../../libDaisy/src/hid/audio.h ****     /** TODO: Figure out how to get samplerate in here. */
  27:../../libDaisy/src/hid/audio.h ****     struct Config
  28:../../libDaisy/src/hid/audio.h ****     {
  29:../../libDaisy/src/hid/audio.h ****         /** number of samples to process per callback */
  30:../../libDaisy/src/hid/audio.h ****         size_t blocksize;
  31:../../libDaisy/src/hid/audio.h **** 
  32:../../libDaisy/src/hid/audio.h ****         /**< Sample rate of audio */
  33:../../libDaisy/src/hid/audio.h ****         SaiHandle::Config::SampleRate samplerate;
  34:../../libDaisy/src/hid/audio.h **** 
  35:../../libDaisy/src/hid/audio.h ****         /** factor for adjustment before and after callback for hardware that may have extra headro
  36:../../libDaisy/src/hid/audio.h ****         float postgain;
  37:../../libDaisy/src/hid/audio.h **** 
  38:../../libDaisy/src/hid/audio.h ****         /** factor for additional one-sided compensation to audio path for hardware that may
  39:../../libDaisy/src/hid/audio.h ****          *  have unequal input/output ranges
  40:../../libDaisy/src/hid/audio.h ****          */
  41:../../libDaisy/src/hid/audio.h ****         float output_compensation;
  42:../../libDaisy/src/hid/audio.h **** 
  43:../../libDaisy/src/hid/audio.h ****         /** Sets default values for config struct */
  44:../../libDaisy/src/hid/audio.h ****         Config()
  45:../../libDaisy/src/hid/audio.h ****         : blocksize(48),
  46:../../libDaisy/src/hid/audio.h ****           samplerate(SaiHandle::Config::SampleRate::SAI_48KHZ),
  47:../../libDaisy/src/hid/audio.h ****           postgain(1.f),
  48:../../libDaisy/src/hid/audio.h ****           output_compensation(1.f)
  49:../../libDaisy/src/hid/audio.h ****         {
  50:../../libDaisy/src/hid/audio.h ****         }
  51:../../libDaisy/src/hid/audio.h ****     };
  52:../../libDaisy/src/hid/audio.h **** 
  53:../../libDaisy/src/hid/audio.h ****     enum class Result
  54:../../libDaisy/src/hid/audio.h ****     {
  55:../../libDaisy/src/hid/audio.h ****         OK,
  56:../../libDaisy/src/hid/audio.h ****         ERR,
  57:../../libDaisy/src/hid/audio.h ****     };
  58:../../libDaisy/src/hid/audio.h **** 
  59:../../libDaisy/src/hid/audio.h ****     /** Non-Interleaving input buffer
  60:../../libDaisy/src/hid/audio.h ****      * Buffer arranged by float[chn][sample] 
  61:../../libDaisy/src/hid/audio.h ****      * const so that the user can't modify the input
  62:../../libDaisy/src/hid/audio.h ****      */
  63:../../libDaisy/src/hid/audio.h ****     typedef const float* const* InputBuffer;
  64:../../libDaisy/src/hid/audio.h **** 
  65:../../libDaisy/src/hid/audio.h ****     /** Non-Interleaving output buffer
  66:../../libDaisy/src/hid/audio.h ****      * Arranged by float[chn][sample] 
  67:../../libDaisy/src/hid/audio.h ****      */
  68:../../libDaisy/src/hid/audio.h ****     typedef float** OutputBuffer;
  69:../../libDaisy/src/hid/audio.h **** 
  70:../../libDaisy/src/hid/audio.h ****     /** Type for a Non-Interleaving audio callback 
  71:../../libDaisy/src/hid/audio.h ****      * Non-Interleaving audio callbacks in daisy will be of this type
  72:../../libDaisy/src/hid/audio.h ****      */
  73:../../libDaisy/src/hid/audio.h ****     typedef void (*AudioCallback)(InputBuffer  in,
ARM GAS  /var/folders/hl/qgbwny5j0fd895c2c41bk3tw0000gp/T//ccj2i8el.s 			page 9


  74:../../libDaisy/src/hid/audio.h ****                                   OutputBuffer out,
  75:../../libDaisy/src/hid/audio.h ****                                   size_t       size);
  76:../../libDaisy/src/hid/audio.h **** 
  77:../../libDaisy/src/hid/audio.h ****     /** Interleaving Input buffer
  78:../../libDaisy/src/hid/audio.h ****      ** audio is prepared as { L0, R0, L1, R1, . . . LN, RN }]
  79:../../libDaisy/src/hid/audio.h ****      ** this is const, as the user shouldn't modify it
  80:../../libDaisy/src/hid/audio.h ****     */
  81:../../libDaisy/src/hid/audio.h ****     typedef const float* InterleavingInputBuffer;
  82:../../libDaisy/src/hid/audio.h **** 
  83:../../libDaisy/src/hid/audio.h ****     /** Interleaving Output buffer 
  84:../../libDaisy/src/hid/audio.h ****      ** audio is prepared as { L0, R0, L1, R1, . . . LN, RN }
  85:../../libDaisy/src/hid/audio.h ****     */
  86:../../libDaisy/src/hid/audio.h ****     typedef float* InterleavingOutputBuffer;
  87:../../libDaisy/src/hid/audio.h **** 
  88:../../libDaisy/src/hid/audio.h ****     /** Interleaving Audio Callback 
  89:../../libDaisy/src/hid/audio.h ****      * Interleaving audio callbacks in daisy must be of this type
  90:../../libDaisy/src/hid/audio.h ****      */
  91:../../libDaisy/src/hid/audio.h ****     typedef void (*InterleavingAudioCallback)(InterleavingInputBuffer  in,
  92:../../libDaisy/src/hid/audio.h ****                                               InterleavingOutputBuffer out,
  93:../../libDaisy/src/hid/audio.h ****                                               size_t                   size);
  94:../../libDaisy/src/hid/audio.h **** 
  95:../../libDaisy/src/hid/audio.h ****     AudioHandle() : pimpl_(nullptr) {}
  96:../../libDaisy/src/hid/audio.h ****     ~AudioHandle() {}
  92              		.loc 7 96 5 is_stmt 1 view .LVU13
  93              		.loc 7 96 5 is_stmt 0 view .LVU14
  94              	.LBE486:
  95              	.LBB487:
  96              	.LBI487:
  97              		.file 8 "../../libDaisy/src/sys/system.h"
   1:../../libDaisy/src/sys/system.h **** #ifndef DSY_SYSTEM_H
   2:../../libDaisy/src/sys/system.h **** #define DSY_SYSTEM_H
   3:../../libDaisy/src/sys/system.h **** 
   4:../../libDaisy/src/sys/system.h **** #ifndef UNIT_TEST // for unit tests, a dummy implementation is provided below
   5:../../libDaisy/src/sys/system.h **** 
   6:../../libDaisy/src/sys/system.h **** #include <cstdint>
   7:../../libDaisy/src/sys/system.h **** #include "per/tim.h"
   8:../../libDaisy/src/sys/system.h **** 
   9:../../libDaisy/src/sys/system.h **** namespace daisy
  10:../../libDaisy/src/sys/system.h **** {
  11:../../libDaisy/src/sys/system.h **** /** A handle for interacting with the Core System. 
  12:../../libDaisy/src/sys/system.h ****  ** This includes the Clock tree, MPU, global DMA initialization,
  13:../../libDaisy/src/sys/system.h ****  ** cache handling, and any other necessary global initiailzation
  14:../../libDaisy/src/sys/system.h ****  **
  15:../../libDaisy/src/sys/system.h ****  ** @author shensley
  16:../../libDaisy/src/sys/system.h ****  ** @ingroup system
  17:../../libDaisy/src/sys/system.h ****  */
  18:../../libDaisy/src/sys/system.h **** class System
  19:../../libDaisy/src/sys/system.h **** {
  20:../../libDaisy/src/sys/system.h ****   public:
  21:../../libDaisy/src/sys/system.h ****     /** Contains settings for initializing the System */
  22:../../libDaisy/src/sys/system.h ****     struct Config
  23:../../libDaisy/src/sys/system.h ****     {
  24:../../libDaisy/src/sys/system.h ****         /** Specifies the system clock frequency that feeds APB/AHB clocks, etc. */
  25:../../libDaisy/src/sys/system.h ****         enum class SysClkFreq
  26:../../libDaisy/src/sys/system.h ****         {
  27:../../libDaisy/src/sys/system.h ****             FREQ_400MHZ,
  28:../../libDaisy/src/sys/system.h ****             FREQ_480MHZ,
ARM GAS  /var/folders/hl/qgbwny5j0fd895c2c41bk3tw0000gp/T//ccj2i8el.s 			page 10


  29:../../libDaisy/src/sys/system.h ****         };
  30:../../libDaisy/src/sys/system.h **** 
  31:../../libDaisy/src/sys/system.h ****         /** Method to call on the struct to set to defaults
  32:../../libDaisy/src/sys/system.h ****          ** CPU Freq set to 400MHz
  33:../../libDaisy/src/sys/system.h ****          ** Cache Enabled 
  34:../../libDaisy/src/sys/system.h ****          ** */
  35:../../libDaisy/src/sys/system.h ****         void Defaults()
  36:../../libDaisy/src/sys/system.h ****         {
  37:../../libDaisy/src/sys/system.h ****             cpu_freq    = SysClkFreq::FREQ_400MHZ;
  38:../../libDaisy/src/sys/system.h ****             use_dcache  = true;
  39:../../libDaisy/src/sys/system.h ****             use_icache  = true;
  40:../../libDaisy/src/sys/system.h ****             skip_clocks = false;
  41:../../libDaisy/src/sys/system.h ****         }
  42:../../libDaisy/src/sys/system.h **** 
  43:../../libDaisy/src/sys/system.h ****         /** Method to call on the struct to set to boost mode:
  44:../../libDaisy/src/sys/system.h ****          ** CPU Freq set to 480MHz
  45:../../libDaisy/src/sys/system.h ****          ** Cache Enabled 
  46:../../libDaisy/src/sys/system.h ****          ** */
  47:../../libDaisy/src/sys/system.h ****         void Boost()
  48:../../libDaisy/src/sys/system.h ****         {
  49:../../libDaisy/src/sys/system.h ****             cpu_freq    = SysClkFreq::FREQ_480MHZ;
  50:../../libDaisy/src/sys/system.h ****             use_dcache  = true;
  51:../../libDaisy/src/sys/system.h ****             use_icache  = true;
  52:../../libDaisy/src/sys/system.h ****             skip_clocks = false;
  53:../../libDaisy/src/sys/system.h ****         }
  54:../../libDaisy/src/sys/system.h **** 
  55:../../libDaisy/src/sys/system.h ****         SysClkFreq cpu_freq;
  56:../../libDaisy/src/sys/system.h ****         bool       use_dcache;
  57:../../libDaisy/src/sys/system.h ****         bool       use_icache;
  58:../../libDaisy/src/sys/system.h ****         bool       skip_clocks;
  59:../../libDaisy/src/sys/system.h ****     };
  60:../../libDaisy/src/sys/system.h **** 
  61:../../libDaisy/src/sys/system.h ****     /** Describes the different regions of memory available to the Daisy
  62:../../libDaisy/src/sys/system.h ****      * 
  63:../../libDaisy/src/sys/system.h ****      */
  64:../../libDaisy/src/sys/system.h ****     enum MemoryRegion
  65:../../libDaisy/src/sys/system.h ****     {
  66:../../libDaisy/src/sys/system.h ****         INTERNAL_FLASH = 0,
  67:../../libDaisy/src/sys/system.h ****         ITCMRAM,
  68:../../libDaisy/src/sys/system.h ****         DTCMRAM,
  69:../../libDaisy/src/sys/system.h ****         SRAM_D1,
  70:../../libDaisy/src/sys/system.h ****         SRAM_D2,
  71:../../libDaisy/src/sys/system.h ****         SRAM_D3,
  72:../../libDaisy/src/sys/system.h ****         SDRAM,
  73:../../libDaisy/src/sys/system.h ****         QSPI,
  74:../../libDaisy/src/sys/system.h ****         INVALID_ADDRESS,
  75:../../libDaisy/src/sys/system.h ****     };
  76:../../libDaisy/src/sys/system.h **** 
  77:../../libDaisy/src/sys/system.h ****     System() {}
  78:../../libDaisy/src/sys/system.h ****     ~System() {}
  98              		.loc 8 78 5 is_stmt 1 view .LVU15
  99              		.loc 8 78 5 is_stmt 0 view .LVU16
 100              	.LBE487:
 101              		.loc 2 65 26 view .LVU17
 102 0000 7047     		bx	lr
 103              		.cfi_endproc
 104              	.LFE2529:
ARM GAS  /var/folders/hl/qgbwny5j0fd895c2c41bk3tw0000gp/T//ccj2i8el.s 			page 11


 106              		.weak	_ZN5daisy8patch_sm12DaisyPatchSMD1Ev
 107              		.thumb_set _ZN5daisy8patch_sm12DaisyPatchSMD1Ev,_ZN5daisy8patch_sm12DaisyPatchSMD2Ev
 108 0002 00BF     		.section	.text._ZN7daisysp5AdEnvD2Ev,"axG",%progbits,_ZN7daisysp5AdEnvD5Ev,comdat
 109              		.align	1
 110              		.p2align 2,,3
 111              		.weak	_ZN7daisysp5AdEnvD2Ev
 112              		.syntax unified
 113              		.thumb
 114              		.thumb_func
 115              		.fpu fpv5-d16
 117              	_ZN7daisysp5AdEnvD2Ev:
 118              	.LVL2:
 119              	.LFB2542:
 120              		.file 9 "../../DaisySP/Source/Control/adenv.h"
   1:../../DaisySP/Source/Control/adenv.h **** #pragma once
   2:../../DaisySP/Source/Control/adenv.h **** #ifndef ADENV_H
   3:../../DaisySP/Source/Control/adenv.h **** #define ADENV_H
   4:../../DaisySP/Source/Control/adenv.h **** #include <stdint.h>
   5:../../DaisySP/Source/Control/adenv.h **** #ifdef __cplusplus
   6:../../DaisySP/Source/Control/adenv.h **** 
   7:../../DaisySP/Source/Control/adenv.h **** namespace daisysp
   8:../../DaisySP/Source/Control/adenv.h **** {
   9:../../DaisySP/Source/Control/adenv.h **** /** Distinct stages that the phase of the envelope can be located in.
  10:../../DaisySP/Source/Control/adenv.h ****     @see AdEnv
  11:../../DaisySP/Source/Control/adenv.h **** */
  12:../../DaisySP/Source/Control/adenv.h **** enum AdEnvSegment
  13:../../DaisySP/Source/Control/adenv.h **** {
  14:../../DaisySP/Source/Control/adenv.h ****     /** located at phase location 0, and not currently running */
  15:../../DaisySP/Source/Control/adenv.h ****     ADENV_SEG_IDLE,
  16:../../DaisySP/Source/Control/adenv.h ****     /** First segment of envelope where phase moves from MIN value to MAX value */
  17:../../DaisySP/Source/Control/adenv.h ****     ADENV_SEG_ATTACK,
  18:../../DaisySP/Source/Control/adenv.h ****     /** Second segment of envelope where phase moves from MAX to MIN value */
  19:../../DaisySP/Source/Control/adenv.h ****     ADENV_SEG_DECAY,
  20:../../DaisySP/Source/Control/adenv.h ****     /** The final segment of the envelope (currently decay) */
  21:../../DaisySP/Source/Control/adenv.h ****     ADENV_SEG_LAST,
  22:../../DaisySP/Source/Control/adenv.h **** };
  23:../../DaisySP/Source/Control/adenv.h **** 
  24:../../DaisySP/Source/Control/adenv.h **** /** Trigger-able envelope with adjustable min/max, and independent per-segment time control.
  25:../../DaisySP/Source/Control/adenv.h **** 
  26:../../DaisySP/Source/Control/adenv.h ****     \author shensley
  27:../../DaisySP/Source/Control/adenv.h ****     \todo - Add Cycling
  28:../../DaisySP/Source/Control/adenv.h ****     \todo - Implement Curve (its only linear for now).
  29:../../DaisySP/Source/Control/adenv.h ****     \todo - Maybe make this an ADsr_ that has AD/AR/Asr_ modes.
  30:../../DaisySP/Source/Control/adenv.h ****  */
  31:../../DaisySP/Source/Control/adenv.h **** class AdEnv
  32:../../DaisySP/Source/Control/adenv.h **** {
  33:../../DaisySP/Source/Control/adenv.h ****   public:
  34:../../DaisySP/Source/Control/adenv.h ****     AdEnv() {}
  35:../../DaisySP/Source/Control/adenv.h ****     ~AdEnv() {}
 121              		.loc 9 35 5 is_stmt 1 view -0
 122              		.cfi_startproc
 123              		@ args = 0, pretend = 0, frame = 0
 124              		@ frame_needed = 0, uses_anonymous_args = 0
 125              		@ link register save eliminated.
 126              		.loc 9 35 15 is_stmt 0 view .LVU19
 127 0000 7047     		bx	lr
 128              		.cfi_endproc
ARM GAS  /var/folders/hl/qgbwny5j0fd895c2c41bk3tw0000gp/T//ccj2i8el.s 			page 12


 129              	.LFE2542:
 131              		.weak	_ZN7daisysp5AdEnvD1Ev
 132              		.thumb_set _ZN7daisysp5AdEnvD1Ev,_ZN7daisysp5AdEnvD2Ev
 133 0002 00BF     		.section	.text._ZN7daisysp14BabyOscillatorD2Ev,"axG",%progbits,_ZN7daisysp14BabyOscillatorD5Ev,com
 134              		.align	1
 135              		.p2align 2,,3
 136              		.weak	_ZN7daisysp14BabyOscillatorD2Ev
 137              		.syntax unified
 138              		.thumb
 139              		.thumb_func
 140              		.fpu fpv5-d16
 142              	_ZN7daisysp14BabyOscillatorD2Ev:
 143              	.LVL3:
 144              	.LFB4801:
 145              		.file 10 "baby_osc.h"
   1:baby_osc.h    **** #pragma once
   2:baby_osc.h    **** #ifndef BABY_OSC_H
   3:baby_osc.h    **** #define BABY_OSC_H
   4:baby_osc.h    **** #include <stdint.h>
   5:baby_osc.h    **** #include "Utility/dsp.h"
   6:baby_osc.h    **** #ifdef __cplusplus
   7:baby_osc.h    **** 
   8:baby_osc.h    **** namespace daisysp
   9:baby_osc.h    **** {
  10:baby_osc.h    **** /** Synthesis of several waveforms, including polyBLEP bandlimited waveforms.
  11:baby_osc.h    **** */
  12:baby_osc.h    **** class BabyOscillator
  13:baby_osc.h    **** {
  14:baby_osc.h    ****   public:
  15:baby_osc.h    ****     BabyOscillator() {}
  16:baby_osc.h    ****     ~BabyOscillator() {}
 146              		.loc 10 16 5 is_stmt 1 view -0
 147              		.cfi_startproc
 148              		@ args = 0, pretend = 0, frame = 0
 149              		@ frame_needed = 0, uses_anonymous_args = 0
 150              		@ link register save eliminated.
 151              		.loc 10 16 24 is_stmt 0 view .LVU21
 152 0000 7047     		bx	lr
 153              		.cfi_endproc
 154              	.LFE4801:
 156              		.weak	_ZN7daisysp14BabyOscillatorD1Ev
 157              		.thumb_set _ZN7daisysp14BabyOscillatorD1Ev,_ZN7daisysp14BabyOscillatorD2Ev
 158 0002 00BF     		.section	.text._ZN5daisy8patch_sm7InitBedEv,"ax",%progbits
 159              		.align	1
 160              		.p2align 2,,3
 161              		.global	_ZN5daisy8patch_sm7InitBedEv
 162              		.syntax unified
 163              		.thumb
 164              		.thumb_func
 165              		.fpu fpv5-d16
 167              	_ZN5daisy8patch_sm7InitBedEv:
 168              	.LFB4793:
 169              		.file 11 "daisy_bed.h"
   1:daisy_bed.h   **** #pragma once
   2:daisy_bed.h   **** 
   3:daisy_bed.h   **** #include "daisy.h"
   4:daisy_bed.h   **** #include "per/gpio.h"
ARM GAS  /var/folders/hl/qgbwny5j0fd895c2c41bk3tw0000gp/T//ccj2i8el.s 			page 13


   5:daisy_bed.h   **** #include "daisy_patch_sm.h"
   6:daisy_bed.h   **** 
   7:daisy_bed.h   **** namespace daisy
   8:daisy_bed.h   **** {
   9:daisy_bed.h   **** namespace patch_sm
  10:daisy_bed.h   **** {
  11:daisy_bed.h   ****     // simple stupid led set up
  12:daisy_bed.h   ****     GPIO    gen_led1;
  13:daisy_bed.h   ****     GPIO    gen_led2;
  14:daisy_bed.h   ****     GPIO    cv_led1;
  15:daisy_bed.h   ****     GPIO    cv_led2;
  16:daisy_bed.h   ****     GPIO    gate_in_led1;
  17:daisy_bed.h   ****     GPIO    gate_in_led2;
  18:daisy_bed.h   ****     GPIO    gate_out_led1;
  19:daisy_bed.h   ****     GPIO    gate_out_led2;
  20:daisy_bed.h   **** 
  21:daisy_bed.h   **** 
  22:daisy_bed.h   ****     // generic leds
  23:daisy_bed.h   ****     dsy_gpio_pin oldPinD7 = DaisyPatchSM::D7;
  24:daisy_bed.h   ****     Pin newPinD7 = Pin(static_cast<GPIOPort>(oldPinD7.port), oldPinD7.pin);
  25:daisy_bed.h   ****     dsy_gpio_pin oldPinA9 = DaisyPatchSM::A9;
  26:daisy_bed.h   ****     Pin newPinA9 = Pin(static_cast<GPIOPort>(oldPinA9.port), oldPinA9.pin);
  27:daisy_bed.h   **** 
  28:daisy_bed.h   ****     // cv leds
  29:daisy_bed.h   ****     dsy_gpio_pin oldPinD2 = DaisyPatchSM::D2;
  30:daisy_bed.h   ****     Pin newPinD2 = Pin(static_cast<GPIOPort>(oldPinD2.port), oldPinD2.pin);
  31:daisy_bed.h   ****     dsy_gpio_pin oldPinD1 = DaisyPatchSM::D1;
  32:daisy_bed.h   ****     Pin newPinD1 = Pin(static_cast<GPIOPort>(oldPinD1.port), oldPinD1.pin);
  33:daisy_bed.h   ****     // ^^^ {DSY_GPIOB, 4},  /**< D1  - SPI2 CS */
  34:daisy_bed.h   **** 
  35:daisy_bed.h   ****     // gate leds
  36:daisy_bed.h   ****     dsy_gpio_pin oldPinD3 = DaisyPatchSM::D3;
  37:daisy_bed.h   ****     Pin newPinD3 = Pin(static_cast<GPIOPort>(oldPinD3.port), oldPinD3.pin);
  38:daisy_bed.h   ****     dsy_gpio_pin oldPinD6 = DaisyPatchSM::D6;
  39:daisy_bed.h   ****     Pin newPinD6 = Pin(static_cast<GPIOPort>(oldPinD6.port), oldPinD6.pin);
  40:daisy_bed.h   ****     dsy_gpio_pin oldPinD4 = DaisyPatchSM::D4;
  41:daisy_bed.h   ****     Pin newPinD4 = Pin(static_cast<GPIOPort>(oldPinD4.port), oldPinD4.pin);
  42:daisy_bed.h   ****     dsy_gpio_pin oldPinD5 = DaisyPatchSM::D5;
  43:daisy_bed.h   ****     Pin newPinD5 = Pin(static_cast<GPIOPort>(oldPinD5.port), oldPinD5.pin);
  44:daisy_bed.h   **** 
  45:daisy_bed.h   ****     // remap
  46:daisy_bed.h   ****      
  47:daisy_bed.h   ****     // map buttons
  48:daisy_bed.h   ****     Switch      b1,b2;
  49:daisy_bed.h   **** 
  50:daisy_bed.h   ****     void InitBed(){
 170              		.loc 11 50 19 is_stmt 1 view -0
 171              		.cfi_startproc
 172              		@ args = 0, pretend = 0, frame = 8
 173              		@ frame_needed = 0, uses_anonymous_args = 0
  51:daisy_bed.h   ****         // leds
  52:daisy_bed.h   ****         gen_led1.Init(newPinD7, GPIO::Mode::OUTPUT);
 174              		.loc 11 52 9 view .LVU23
  50:daisy_bed.h   ****         // leds
 175              		.loc 11 50 19 is_stmt 0 view .LVU24
 176 0000 10B5     		push	{r4, lr}
 177              		.cfi_def_cfa_offset 8
ARM GAS  /var/folders/hl/qgbwny5j0fd895c2c41bk3tw0000gp/T//ccj2i8el.s 			page 14


 178              		.cfi_offset 4, -8
 179              		.cfi_offset 14, -4
 180              		.loc 11 52 22 view .LVU25
 181 0002 2D49     		ldr	r1, .L8
  50:daisy_bed.h   ****         // leds
 182              		.loc 11 50 19 view .LVU26
 183 0004 84B0     		sub	sp, sp, #16
 184              		.cfi_def_cfa_offset 24
 185              		.loc 11 52 22 view .LVU27
 186 0006 0024     		movs	r4, #0
 187 0008 0122     		movs	r2, #1
 188 000a 0968     		ldr	r1, [r1]
 189 000c 2346     		mov	r3, r4
 190 000e 2B48     		ldr	r0, .L8+4
 191 0010 0094     		str	r4, [sp]
 192 0012 FFF7FEFF 		bl	_ZN5daisy4GPIO4InitENS_3PinENS0_4ModeENS0_4PullENS0_5SpeedE
 193              	.LVL4:
  53:daisy_bed.h   ****         gen_led2.Init(newPinA9, GPIO::Mode::OUTPUT);
 194              		.loc 11 53 9 is_stmt 1 view .LVU28
 195              		.loc 11 53 22 is_stmt 0 view .LVU29
 196 0016 2A49     		ldr	r1, .L8+8
 197 0018 2346     		mov	r3, r4
 198 001a 0122     		movs	r2, #1
 199 001c 0968     		ldr	r1, [r1]
 200 001e 2948     		ldr	r0, .L8+12
 201 0020 0094     		str	r4, [sp]
 202 0022 FFF7FEFF 		bl	_ZN5daisy4GPIO4InitENS_3PinENS0_4ModeENS0_4PullENS0_5SpeedE
 203              	.LVL5:
  54:daisy_bed.h   ****         cv_led1.Init(newPinD2, GPIO::Mode::OUTPUT);
 204              		.loc 11 54 9 is_stmt 1 view .LVU30
 205              		.loc 11 54 21 is_stmt 0 view .LVU31
 206 0026 2849     		ldr	r1, .L8+16
 207 0028 2346     		mov	r3, r4
 208 002a 0122     		movs	r2, #1
 209 002c 0968     		ldr	r1, [r1]
 210 002e 2748     		ldr	r0, .L8+20
 211 0030 0094     		str	r4, [sp]
 212 0032 FFF7FEFF 		bl	_ZN5daisy4GPIO4InitENS_3PinENS0_4ModeENS0_4PullENS0_5SpeedE
 213              	.LVL6:
  55:daisy_bed.h   ****         cv_led2.Init(newPinD1, GPIO::Mode::OUTPUT);
 214              		.loc 11 55 9 is_stmt 1 view .LVU32
 215              		.loc 11 55 21 is_stmt 0 view .LVU33
 216 0036 2649     		ldr	r1, .L8+24
 217 0038 2346     		mov	r3, r4
 218 003a 0122     		movs	r2, #1
 219 003c 0968     		ldr	r1, [r1]
 220 003e 2548     		ldr	r0, .L8+28
 221 0040 0094     		str	r4, [sp]
 222 0042 FFF7FEFF 		bl	_ZN5daisy4GPIO4InitENS_3PinENS0_4ModeENS0_4PullENS0_5SpeedE
 223              	.LVL7:
  56:daisy_bed.h   ****         gate_in_led1.Init(newPinD3, GPIO::Mode::OUTPUT);
 224              		.loc 11 56 9 is_stmt 1 view .LVU34
 225              		.loc 11 56 26 is_stmt 0 view .LVU35
 226 0046 2449     		ldr	r1, .L8+32
 227 0048 2346     		mov	r3, r4
 228 004a 0122     		movs	r2, #1
 229 004c 0968     		ldr	r1, [r1]
ARM GAS  /var/folders/hl/qgbwny5j0fd895c2c41bk3tw0000gp/T//ccj2i8el.s 			page 15


 230 004e 2348     		ldr	r0, .L8+36
 231 0050 0094     		str	r4, [sp]
 232 0052 FFF7FEFF 		bl	_ZN5daisy4GPIO4InitENS_3PinENS0_4ModeENS0_4PullENS0_5SpeedE
 233              	.LVL8:
  57:daisy_bed.h   ****         gate_in_led2.Init(newPinD4, GPIO::Mode::OUTPUT);
 234              		.loc 11 57 9 is_stmt 1 view .LVU36
 235              		.loc 11 57 26 is_stmt 0 view .LVU37
 236 0056 2249     		ldr	r1, .L8+40
 237 0058 2346     		mov	r3, r4
 238 005a 0122     		movs	r2, #1
 239 005c 0968     		ldr	r1, [r1]
 240 005e 2148     		ldr	r0, .L8+44
 241 0060 0094     		str	r4, [sp]
 242 0062 FFF7FEFF 		bl	_ZN5daisy4GPIO4InitENS_3PinENS0_4ModeENS0_4PullENS0_5SpeedE
 243              	.LVL9:
  58:daisy_bed.h   ****         gate_out_led1.Init(newPinD6, GPIO::Mode::OUTPUT);
 244              		.loc 11 58 9 is_stmt 1 view .LVU38
 245              		.loc 11 58 27 is_stmt 0 view .LVU39
 246 0066 2049     		ldr	r1, .L8+48
 247 0068 2346     		mov	r3, r4
 248 006a 0122     		movs	r2, #1
 249 006c 0968     		ldr	r1, [r1]
 250 006e 1F48     		ldr	r0, .L8+52
 251 0070 0094     		str	r4, [sp]
 252 0072 FFF7FEFF 		bl	_ZN5daisy4GPIO4InitENS_3PinENS0_4ModeENS0_4PullENS0_5SpeedE
 253              	.LVL10:
  59:daisy_bed.h   ****         gate_out_led2.Init(newPinD5, GPIO::Mode::OUTPUT);
 254              		.loc 11 59 9 is_stmt 1 view .LVU40
 255              		.loc 11 59 27 is_stmt 0 view .LVU41
 256 0076 1E49     		ldr	r1, .L8+56
 257 0078 2346     		mov	r3, r4
 258 007a 0122     		movs	r2, #1
 259 007c 0968     		ldr	r1, [r1]
 260 007e 1D48     		ldr	r0, .L8+60
 261 0080 0094     		str	r4, [sp]
 262 0082 FFF7FEFF 		bl	_ZN5daisy4GPIO4InitENS_3PinENS0_4ModeENS0_4PullENS0_5SpeedE
 263              	.LVL11:
  60:daisy_bed.h   **** 
  61:daisy_bed.h   ****         // buttons
  62:daisy_bed.h   ****         b1.Init(DaisyPatchSM::A8);
 264              		.loc 11 62 9 is_stmt 1 view .LVU42
 265              		.loc 11 62 16 is_stmt 0 view .LVU43
 266 0086 1C4B     		ldr	r3, .L8+64
 267 0088 9FED1C0A 		vldr.32	s0, .L8+68
 268 008c 1A78     		ldrb	r2, [r3]	@ zero_extendqisi2
 269 008e 5978     		ldrb	r1, [r3, #1]	@ zero_extendqisi2
 270 0090 1B48     		ldr	r0, .L8+72
 271 0092 42EA0121 		orr	r1, r2, r1, lsl #8
 272 0096 8DED030A 		vstr.32	s0, [sp, #12]	@ int
 273 009a FFF7FEFF 		bl	_ZN5daisy6Switch4InitE12dsy_gpio_pinf
 274              	.LVL12:
  63:daisy_bed.h   ****         b2.Init(DaisyPatchSM::D10);
 275              		.loc 11 63 9 is_stmt 1 view .LVU44
 276              		.loc 11 63 16 is_stmt 0 view .LVU45
 277 009e 194B     		ldr	r3, .L8+76
 278 00a0 9DED030A 		vldr.32	s0, [sp, #12]	@ int
 279 00a4 1A78     		ldrb	r2, [r3]	@ zero_extendqisi2
ARM GAS  /var/folders/hl/qgbwny5j0fd895c2c41bk3tw0000gp/T//ccj2i8el.s 			page 16


 280 00a6 5978     		ldrb	r1, [r3, #1]	@ zero_extendqisi2
 281 00a8 1748     		ldr	r0, .L8+80
 282 00aa 42EA0121 		orr	r1, r2, r1, lsl #8
  64:daisy_bed.h   ****     }
 283              		.loc 11 64 5 view .LVU46
 284 00ae 04B0     		add	sp, sp, #16
 285              		.cfi_def_cfa_offset 8
 286              		@ sp needed
 287 00b0 BDE81040 		pop	{r4, lr}
 288              		.cfi_restore 14
 289              		.cfi_restore 4
 290              		.cfi_def_cfa_offset 0
  63:daisy_bed.h   ****         b2.Init(DaisyPatchSM::D10);
 291              		.loc 11 63 16 view .LVU47
 292 00b4 FFF7FEBF 		b	_ZN5daisy6Switch4InitE12dsy_gpio_pinf
 293              	.LVL13:
 294              	.L9:
 295              		.align	2
 296              	.L8:
 297 00b8 00000000 		.word	.LANCHOR0
 298 00bc 00000000 		.word	.LANCHOR1
 299 00c0 00000000 		.word	.LANCHOR2
 300 00c4 00000000 		.word	.LANCHOR3
 301 00c8 00000000 		.word	.LANCHOR4
 302 00cc 00000000 		.word	.LANCHOR5
 303 00d0 00000000 		.word	.LANCHOR6
 304 00d4 00000000 		.word	.LANCHOR7
 305 00d8 00000000 		.word	.LANCHOR8
 306 00dc 00000000 		.word	.LANCHOR9
 307 00e0 00000000 		.word	.LANCHOR10
 308 00e4 00000000 		.word	.LANCHOR11
 309 00e8 00000000 		.word	.LANCHOR12
 310 00ec 00000000 		.word	.LANCHOR13
 311 00f0 00000000 		.word	.LANCHOR14
 312 00f4 00000000 		.word	.LANCHOR15
 313 00f8 00000000 		.word	_ZN5daisy8patch_sm12DaisyPatchSM2A8E
 314 00fc 00000000 		.word	0
 315 0100 00000000 		.word	.LANCHOR16
 316 0104 00000000 		.word	_ZN5daisy8patch_sm12DaisyPatchSM3D10E
 317 0108 00000000 		.word	.LANCHOR17
 318              		.cfi_endproc
 319              	.LFE4793:
 321              		.section	.text._ZN5daisy8patch_sm6ledOffEv,"ax",%progbits
 322              		.align	1
 323              		.p2align 2,,3
 324              		.global	_ZN5daisy8patch_sm6ledOffEv
 325              		.syntax unified
 326              		.thumb
 327              		.thumb_func
 328              		.fpu fpv5-d16
 330              	_ZN5daisy8patch_sm6ledOffEv:
 331              	.LFB4794:
  65:daisy_bed.h   **** 
  66:daisy_bed.h   ****     void ledOff(){
 332              		.loc 11 66 18 is_stmt 1 view -0
 333              		.cfi_startproc
 334              		@ args = 0, pretend = 0, frame = 0
ARM GAS  /var/folders/hl/qgbwny5j0fd895c2c41bk3tw0000gp/T//ccj2i8el.s 			page 17


 335              		@ frame_needed = 0, uses_anonymous_args = 0
  67:daisy_bed.h   ****         gen_led1.Write(false);
 336              		.loc 11 67 9 view .LVU49
  66:daisy_bed.h   ****         gen_led1.Write(false);
 337              		.loc 11 66 18 is_stmt 0 view .LVU50
 338 0000 08B5     		push	{r3, lr}
 339              		.cfi_def_cfa_offset 8
 340              		.cfi_offset 3, -8
 341              		.cfi_offset 14, -4
 342              		.loc 11 67 23 view .LVU51
 343 0002 0021     		movs	r1, #0
 344 0004 0848     		ldr	r0, .L12
 345 0006 FFF7FEFF 		bl	_ZN5daisy4GPIO5WriteEb
 346              	.LVL14:
  68:daisy_bed.h   ****         gen_led2.Write(false);
 347              		.loc 11 68 9 is_stmt 1 view .LVU52
 348              		.loc 11 68 23 is_stmt 0 view .LVU53
 349 000a 0021     		movs	r1, #0
 350 000c 0748     		ldr	r0, .L12+4
 351 000e FFF7FEFF 		bl	_ZN5daisy4GPIO5WriteEb
 352              	.LVL15:
  69:daisy_bed.h   ****         cv_led1.Write(false);
 353              		.loc 11 69 9 is_stmt 1 view .LVU54
 354              		.loc 11 69 22 is_stmt 0 view .LVU55
 355 0012 0021     		movs	r1, #0
 356 0014 0648     		ldr	r0, .L12+8
 357 0016 FFF7FEFF 		bl	_ZN5daisy4GPIO5WriteEb
 358              	.LVL16:
  70:daisy_bed.h   ****         cv_led2.Write(false);
 359              		.loc 11 70 9 is_stmt 1 view .LVU56
 360              		.loc 11 70 22 is_stmt 0 view .LVU57
 361 001a 0021     		movs	r1, #0
 362 001c 0548     		ldr	r0, .L12+12
  71:daisy_bed.h   ****     }
 363              		.loc 11 71 5 view .LVU58
 364 001e BDE80840 		pop	{r3, lr}
 365              		.cfi_restore 14
 366              		.cfi_restore 3
 367              		.cfi_def_cfa_offset 0
  70:daisy_bed.h   ****         cv_led2.Write(false);
 368              		.loc 11 70 22 view .LVU59
 369 0022 FFF7FEBF 		b	_ZN5daisy4GPIO5WriteEb
 370              	.LVL17:
 371              	.L13:
 372 0026 00BF     		.align	2
 373              	.L12:
 374 0028 00000000 		.word	.LANCHOR1
 375 002c 00000000 		.word	.LANCHOR3
 376 0030 00000000 		.word	.LANCHOR5
 377 0034 00000000 		.word	.LANCHOR7
 378              		.cfi_endproc
 379              	.LFE4794:
 381              		.section	.text._ZN5daisy8patch_sm13StartupCheeseEv,"ax",%progbits
 382              		.align	1
 383              		.p2align 2,,3
 384              		.global	_ZN5daisy8patch_sm13StartupCheeseEv
 385              		.syntax unified
ARM GAS  /var/folders/hl/qgbwny5j0fd895c2c41bk3tw0000gp/T//ccj2i8el.s 			page 18


 386              		.thumb
 387              		.thumb_func
 388              		.fpu fpv5-d16
 390              	_ZN5daisy8patch_sm13StartupCheeseEv:
 391              	.LFB4795:
  72:daisy_bed.h   **** 
  73:daisy_bed.h   ****     void StartupCheese(){
 392              		.loc 11 73 25 is_stmt 1 view -0
 393              		.cfi_startproc
 394              		@ args = 0, pretend = 0, frame = 0
 395              		@ frame_needed = 0, uses_anonymous_args = 0
  74:daisy_bed.h   **** 		gate_in_led1.Toggle();
 396              		.loc 11 74 3 view .LVU61
  73:daisy_bed.h   **** 		gate_in_led1.Toggle();
 397              		.loc 11 73 25 is_stmt 0 view .LVU62
 398 0000 F8B5     		push	{r3, r4, r5, r6, r7, lr}
 399              		.cfi_def_cfa_offset 24
 400              		.cfi_offset 3, -24
 401              		.cfi_offset 4, -20
 402              		.cfi_offset 5, -16
 403              		.cfi_offset 6, -12
 404              		.cfi_offset 7, -8
 405              		.cfi_offset 14, -4
 406              		.loc 11 74 22 view .LVU63
 407 0002 2348     		ldr	r0, .L16
 408 0004 FFF7FEFF 		bl	_ZN5daisy4GPIO6ToggleEv
 409              	.LVL18:
  75:daisy_bed.h   **** 		System::Delay(100);
 410              		.loc 11 75 3 is_stmt 1 view .LVU64
 411              		.loc 11 75 16 is_stmt 0 view .LVU65
 412 0008 6420     		movs	r0, #100
 413 000a FFF7FEFF 		bl	_ZN5daisy6System5DelayEm
 414              	.LVL19:
  76:daisy_bed.h   **** 		gate_in_led2.Toggle();
 415              		.loc 11 76 3 is_stmt 1 view .LVU66
  77:daisy_bed.h   **** 		System::Delay(100);
  78:daisy_bed.h   **** 		gen_led1.Toggle();
 416              		.loc 11 78 18 is_stmt 0 view .LVU67
 417 000e 214F     		ldr	r7, .L16+4
  76:daisy_bed.h   **** 		gate_in_led2.Toggle();
 418              		.loc 11 76 22 view .LVU68
 419 0010 2148     		ldr	r0, .L16+8
 420 0012 FFF7FEFF 		bl	_ZN5daisy4GPIO6ToggleEv
 421              	.LVL20:
  77:daisy_bed.h   **** 		System::Delay(100);
 422              		.loc 11 77 3 is_stmt 1 view .LVU69
  77:daisy_bed.h   **** 		System::Delay(100);
 423              		.loc 11 77 16 is_stmt 0 view .LVU70
 424 0016 6420     		movs	r0, #100
 425 0018 FFF7FEFF 		bl	_ZN5daisy6System5DelayEm
 426              	.LVL21:
 427              		.loc 11 78 3 is_stmt 1 view .LVU71
  79:daisy_bed.h   **** 		System::Delay(100);
  80:daisy_bed.h   **** 		gen_led2.Toggle();
 428              		.loc 11 80 18 is_stmt 0 view .LVU72
 429 001c 1F4E     		ldr	r6, .L16+12
  78:daisy_bed.h   **** 		System::Delay(100);
ARM GAS  /var/folders/hl/qgbwny5j0fd895c2c41bk3tw0000gp/T//ccj2i8el.s 			page 19


 430              		.loc 11 78 18 view .LVU73
 431 001e 3846     		mov	r0, r7
  81:daisy_bed.h   **** 		System::Delay(100);
  82:daisy_bed.h   **** 		cv_led1.Toggle();
 432              		.loc 11 82 17 view .LVU74
 433 0020 1F4D     		ldr	r5, .L16+16
  78:daisy_bed.h   **** 		System::Delay(100);
 434              		.loc 11 78 18 view .LVU75
 435 0022 FFF7FEFF 		bl	_ZN5daisy4GPIO6ToggleEv
 436              	.LVL22:
  79:daisy_bed.h   **** 		gen_led2.Toggle();
 437              		.loc 11 79 3 is_stmt 1 view .LVU76
  79:daisy_bed.h   **** 		gen_led2.Toggle();
 438              		.loc 11 79 16 is_stmt 0 view .LVU77
 439 0026 6420     		movs	r0, #100
 440 0028 FFF7FEFF 		bl	_ZN5daisy6System5DelayEm
 441              	.LVL23:
  80:daisy_bed.h   **** 		System::Delay(100);
 442              		.loc 11 80 3 is_stmt 1 view .LVU78
  80:daisy_bed.h   **** 		System::Delay(100);
 443              		.loc 11 80 18 is_stmt 0 view .LVU79
 444 002c 3046     		mov	r0, r6
 445 002e FFF7FEFF 		bl	_ZN5daisy4GPIO6ToggleEv
 446              	.LVL24:
  81:daisy_bed.h   **** 		System::Delay(100);
 447              		.loc 11 81 3 is_stmt 1 view .LVU80
  81:daisy_bed.h   **** 		System::Delay(100);
 448              		.loc 11 81 16 is_stmt 0 view .LVU81
 449 0032 6420     		movs	r0, #100
 450 0034 FFF7FEFF 		bl	_ZN5daisy6System5DelayEm
 451              	.LVL25:
 452              		.loc 11 82 3 is_stmt 1 view .LVU82
  83:daisy_bed.h   **** 		System::Delay(100);
  84:daisy_bed.h   **** 		cv_led2.Toggle();
 453              		.loc 11 84 17 is_stmt 0 view .LVU83
 454 0038 1A4C     		ldr	r4, .L16+20
  82:daisy_bed.h   **** 		System::Delay(100);
 455              		.loc 11 82 17 view .LVU84
 456 003a 2846     		mov	r0, r5
 457 003c FFF7FEFF 		bl	_ZN5daisy4GPIO6ToggleEv
 458              	.LVL26:
  83:daisy_bed.h   **** 		System::Delay(100);
 459              		.loc 11 83 3 is_stmt 1 view .LVU85
  83:daisy_bed.h   **** 		System::Delay(100);
 460              		.loc 11 83 16 is_stmt 0 view .LVU86
 461 0040 6420     		movs	r0, #100
 462 0042 FFF7FEFF 		bl	_ZN5daisy6System5DelayEm
 463              	.LVL27:
 464              		.loc 11 84 3 is_stmt 1 view .LVU87
 465              		.loc 11 84 17 is_stmt 0 view .LVU88
 466 0046 2046     		mov	r0, r4
 467 0048 FFF7FEFF 		bl	_ZN5daisy4GPIO6ToggleEv
 468              	.LVL28:
  85:daisy_bed.h   **** 		System::Delay(100);
 469              		.loc 11 85 3 is_stmt 1 view .LVU89
 470              		.loc 11 85 16 is_stmt 0 view .LVU90
 471 004c 6420     		movs	r0, #100
ARM GAS  /var/folders/hl/qgbwny5j0fd895c2c41bk3tw0000gp/T//ccj2i8el.s 			page 20


 472 004e FFF7FEFF 		bl	_ZN5daisy6System5DelayEm
 473              	.LVL29:
  86:daisy_bed.h   **** 		gate_out_led1.Toggle();
 474              		.loc 11 86 3 is_stmt 1 view .LVU91
 475              		.loc 11 86 23 is_stmt 0 view .LVU92
 476 0052 1548     		ldr	r0, .L16+24
 477 0054 FFF7FEFF 		bl	_ZN5daisy4GPIO6ToggleEv
 478              	.LVL30:
  87:daisy_bed.h   **** 		System::Delay(100);
 479              		.loc 11 87 3 is_stmt 1 view .LVU93
 480              		.loc 11 87 16 is_stmt 0 view .LVU94
 481 0058 6420     		movs	r0, #100
 482 005a FFF7FEFF 		bl	_ZN5daisy6System5DelayEm
 483              	.LVL31:
  88:daisy_bed.h   **** 		gate_out_led2.Toggle();
 484              		.loc 11 88 3 is_stmt 1 view .LVU95
 485              		.loc 11 88 23 is_stmt 0 view .LVU96
 486 005e 1348     		ldr	r0, .L16+28
 487 0060 FFF7FEFF 		bl	_ZN5daisy4GPIO6ToggleEv
 488              	.LVL32:
  89:daisy_bed.h   **** 		System::Delay(100);
 489              		.loc 11 89 3 is_stmt 1 view .LVU97
 490              		.loc 11 89 16 is_stmt 0 view .LVU98
 491 0064 6420     		movs	r0, #100
 492 0066 FFF7FEFF 		bl	_ZN5daisy6System5DelayEm
 493              	.LVL33:
  90:daisy_bed.h   ****         ledOff();
 494              		.loc 11 90 9 is_stmt 1 view .LVU99
 495              	.LBB490:
 496              	.LBI490:
  66:daisy_bed.h   ****         gen_led1.Write(false);
 497              		.loc 11 66 10 view .LVU100
 498              	.LBB491:
  67:daisy_bed.h   ****         gen_led2.Write(false);
 499              		.loc 11 67 9 view .LVU101
  67:daisy_bed.h   ****         gen_led2.Write(false);
 500              		.loc 11 67 23 is_stmt 0 view .LVU102
 501 006a 3846     		mov	r0, r7
 502 006c 0021     		movs	r1, #0
 503 006e FFF7FEFF 		bl	_ZN5daisy4GPIO5WriteEb
 504              	.LVL34:
  68:daisy_bed.h   ****         cv_led1.Write(false);
 505              		.loc 11 68 9 is_stmt 1 view .LVU103
  68:daisy_bed.h   ****         cv_led1.Write(false);
 506              		.loc 11 68 23 is_stmt 0 view .LVU104
 507 0072 3046     		mov	r0, r6
 508 0074 0021     		movs	r1, #0
 509 0076 FFF7FEFF 		bl	_ZN5daisy4GPIO5WriteEb
 510              	.LVL35:
  69:daisy_bed.h   ****         cv_led2.Write(false);
 511              		.loc 11 69 9 is_stmt 1 view .LVU105
  69:daisy_bed.h   ****         cv_led2.Write(false);
 512              		.loc 11 69 22 is_stmt 0 view .LVU106
 513 007a 2846     		mov	r0, r5
 514 007c 0021     		movs	r1, #0
 515 007e FFF7FEFF 		bl	_ZN5daisy4GPIO5WriteEb
 516              	.LVL36:
ARM GAS  /var/folders/hl/qgbwny5j0fd895c2c41bk3tw0000gp/T//ccj2i8el.s 			page 21


  70:daisy_bed.h   ****     }
 517              		.loc 11 70 9 is_stmt 1 view .LVU107
  70:daisy_bed.h   ****     }
 518              		.loc 11 70 22 is_stmt 0 view .LVU108
 519 0082 2046     		mov	r0, r4
 520 0084 0021     		movs	r1, #0
 521              	.LBE491:
 522              	.LBE490:
  91:daisy_bed.h   ****     }
 523              		.loc 11 91 5 view .LVU109
 524 0086 BDE8F840 		pop	{r3, r4, r5, r6, r7, lr}
 525              		.cfi_restore 14
 526              		.cfi_restore 7
 527              		.cfi_restore 6
 528              		.cfi_restore 5
 529              		.cfi_restore 4
 530              		.cfi_restore 3
 531              		.cfi_def_cfa_offset 0
 532              	.LBB493:
 533              	.LBB492:
  70:daisy_bed.h   ****     }
 534              		.loc 11 70 22 view .LVU110
 535 008a FFF7FEBF 		b	_ZN5daisy4GPIO5WriteEb
 536              	.LVL37:
 537              	.L17:
 538 008e 00BF     		.align	2
 539              	.L16:
 540 0090 00000000 		.word	.LANCHOR9
 541 0094 00000000 		.word	.LANCHOR1
 542 0098 00000000 		.word	.LANCHOR11
 543 009c 00000000 		.word	.LANCHOR3
 544 00a0 00000000 		.word	.LANCHOR5
 545 00a4 00000000 		.word	.LANCHOR7
 546 00a8 00000000 		.word	.LANCHOR13
 547 00ac 00000000 		.word	.LANCHOR15
 548              	.LBE492:
 549              	.LBE493:
 550              		.cfi_endproc
 551              	.LFE4795:
 553              		.section	.text._ZN5daisy8patch_sm8gateTestEv,"ax",%progbits
 554              		.align	1
 555              		.p2align 2,,3
 556              		.global	_ZN5daisy8patch_sm8gateTestEv
 557              		.syntax unified
 558              		.thumb
 559              		.thumb_func
 560              		.fpu fpv5-d16
 562              	_ZN5daisy8patch_sm8gateTestEv:
 563              	.LFB4796:
  92:daisy_bed.h   **** 
  93:daisy_bed.h   ****     void gateTest()
  94:daisy_bed.h   ****     {
 564              		.loc 11 94 5 is_stmt 1 view -0
 565              		.cfi_startproc
 566              		@ args = 0, pretend = 0, frame = 0
 567              		@ frame_needed = 0, uses_anonymous_args = 0
  95:daisy_bed.h   ****         gate_in_led1.Toggle();
ARM GAS  /var/folders/hl/qgbwny5j0fd895c2c41bk3tw0000gp/T//ccj2i8el.s 			page 22


 568              		.loc 11 95 9 view .LVU112
  94:daisy_bed.h   ****         gate_in_led1.Toggle();
 569              		.loc 11 94 5 is_stmt 0 view .LVU113
 570 0000 08B5     		push	{r3, lr}
 571              		.cfi_def_cfa_offset 8
 572              		.cfi_offset 3, -8
 573              		.cfi_offset 14, -4
 574              		.loc 11 95 28 view .LVU114
 575 0002 0F48     		ldr	r0, .L20
 576 0004 FFF7FEFF 		bl	_ZN5daisy4GPIO6ToggleEv
 577              	.LVL38:
  96:daisy_bed.h   ****         System::Delay(1000);
 578              		.loc 11 96 9 is_stmt 1 view .LVU115
 579              		.loc 11 96 22 is_stmt 0 view .LVU116
 580 0008 4FF47A70 		mov	r0, #1000
 581 000c FFF7FEFF 		bl	_ZN5daisy6System5DelayEm
 582              	.LVL39:
  97:daisy_bed.h   ****         gate_in_led2.Toggle();
 583              		.loc 11 97 9 is_stmt 1 view .LVU117
 584              		.loc 11 97 28 is_stmt 0 view .LVU118
 585 0010 0C48     		ldr	r0, .L20+4
 586 0012 FFF7FEFF 		bl	_ZN5daisy4GPIO6ToggleEv
 587              	.LVL40:
  98:daisy_bed.h   ****         System::Delay(1000);
 588              		.loc 11 98 9 is_stmt 1 view .LVU119
 589              		.loc 11 98 22 is_stmt 0 view .LVU120
 590 0016 4FF47A70 		mov	r0, #1000
 591 001a FFF7FEFF 		bl	_ZN5daisy6System5DelayEm
 592              	.LVL41:
  99:daisy_bed.h   ****         gate_out_led1.Toggle();
 593              		.loc 11 99 9 is_stmt 1 view .LVU121
 594              		.loc 11 99 29 is_stmt 0 view .LVU122
 595 001e 0A48     		ldr	r0, .L20+8
 596 0020 FFF7FEFF 		bl	_ZN5daisy4GPIO6ToggleEv
 597              	.LVL42:
 100:daisy_bed.h   ****         System::Delay(1000);
 598              		.loc 11 100 9 is_stmt 1 view .LVU123
 599              		.loc 11 100 22 is_stmt 0 view .LVU124
 600 0024 4FF47A70 		mov	r0, #1000
 601 0028 FFF7FEFF 		bl	_ZN5daisy6System5DelayEm
 602              	.LVL43:
 101:daisy_bed.h   ****         gate_out_led2.Toggle();
 603              		.loc 11 101 9 is_stmt 1 view .LVU125
 604              		.loc 11 101 29 is_stmt 0 view .LVU126
 605 002c 0748     		ldr	r0, .L20+12
 606 002e FFF7FEFF 		bl	_ZN5daisy4GPIO6ToggleEv
 607              	.LVL44:
 102:daisy_bed.h   ****         System::Delay(1000);
 608              		.loc 11 102 9 is_stmt 1 view .LVU127
 609              		.loc 11 102 22 is_stmt 0 view .LVU128
 610 0032 4FF47A70 		mov	r0, #1000
 103:daisy_bed.h   ****     }
 611              		.loc 11 103 5 view .LVU129
 612 0036 BDE80840 		pop	{r3, lr}
 613              		.cfi_restore 14
 614              		.cfi_restore 3
 615              		.cfi_def_cfa_offset 0
ARM GAS  /var/folders/hl/qgbwny5j0fd895c2c41bk3tw0000gp/T//ccj2i8el.s 			page 23


 102:daisy_bed.h   ****         System::Delay(1000);
 616              		.loc 11 102 22 view .LVU130
 617 003a FFF7FEBF 		b	_ZN5daisy6System5DelayEm
 618              	.LVL45:
 619              	.L21:
 620 003e 00BF     		.align	2
 621              	.L20:
 622 0040 00000000 		.word	.LANCHOR9
 623 0044 00000000 		.word	.LANCHOR11
 624 0048 00000000 		.word	.LANCHOR13
 625 004c 00000000 		.word	.LANCHOR15
 626              		.cfi_endproc
 627              	.LFE4796:
 629              		.section	.text.startup.main,"ax",%progbits
 630              		.align	1
 631              		.p2align 2,,3
 632              		.global	main
 633              		.syntax unified
 634              		.thumb
 635              		.thumb_func
 636              		.fpu fpv5-d16
 638              	main:
 639              	.LFB4815:
 640              		.file 12 "Wavetable.cpp"
   1:Wavetable.cpp **** /**
   2:Wavetable.cpp ****  * 
   3:Wavetable.cpp ****  *  Oscillator made with custom waveforms. The base oscillator class heavily leans on DaisySP's osc
   4:Wavetable.cpp ****  *  The Envelope setup was also adapted from Daisy's EnvelopeExample.
   5:Wavetable.cpp ****  *  Full disclosure: I'm 1000% pretending to know math here. 
   6:Wavetable.cpp ****  * 
   7:Wavetable.cpp **** */
   8:Wavetable.cpp **** 
   9:Wavetable.cpp **** #include "daisy_patch_sm.h"
  10:Wavetable.cpp **** #include "daisysp.h"
  11:Wavetable.cpp **** #include "daisy_bed.h"
  12:Wavetable.cpp **** #include "FilterButterworth24db.h"
  13:Wavetable.cpp **** #include "baby_osc.h"
  14:Wavetable.cpp **** 
  15:Wavetable.cpp **** using namespace daisy;
  16:Wavetable.cpp **** using namespace patch_sm;
  17:Wavetable.cpp **** using namespace daisysp;
  18:Wavetable.cpp **** 
  19:Wavetable.cpp **** DaisyPatchSM 			hw;
  20:Wavetable.cpp **** CFilterButterworth24db 	filter;
  21:Wavetable.cpp **** BabyOscillator 			wv;
  22:Wavetable.cpp **** AdEnv					env;
  23:Wavetable.cpp **** 
  24:Wavetable.cpp **** bool env_state;
  25:Wavetable.cpp **** void ControlUpdate();
  26:Wavetable.cpp **** 
  27:Wavetable.cpp **** void AudioCallback(AudioHandle::InputBuffer in, AudioHandle::OutputBuffer out, size_t size)
  28:Wavetable.cpp **** {
  29:Wavetable.cpp **** 	ControlUpdate();
  30:Wavetable.cpp **** 	b1.Debounce();
  31:Wavetable.cpp **** 	for (size_t i = 0; i < size; i++)
  32:Wavetable.cpp **** 	{
  33:Wavetable.cpp **** 		float env_out, wave, output;
ARM GAS  /var/folders/hl/qgbwny5j0fd895c2c41bk3tw0000gp/T//ccj2i8el.s 			page 24


  34:Wavetable.cpp **** 		if(b1.Pressed()||hw.gate_in_1.State()) { env.Trigger(); }
  35:Wavetable.cpp **** 
  36:Wavetable.cpp **** 		env_out = env.Process();
  37:Wavetable.cpp **** 		wv.SetAmp(env_out);
  38:Wavetable.cpp **** 		wave = wv.Process();
  39:Wavetable.cpp **** 		output = filter.Run(wave);
  40:Wavetable.cpp **** 
  41:Wavetable.cpp **** 		OUT_L[i] = output;
  42:Wavetable.cpp **** 		OUT_R[i] = output;
  43:Wavetable.cpp **** 	}
  44:Wavetable.cpp **** }
  45:Wavetable.cpp **** 
  46:Wavetable.cpp **** int main(void)
  47:Wavetable.cpp **** {
 641              		.loc 12 47 1 is_stmt 1 view -0
 642              		.cfi_startproc
 643              		@ args = 0, pretend = 0, frame = 0
 644              		@ frame_needed = 0, uses_anonymous_args = 0
  48:Wavetable.cpp **** 	hw.Init();
 645              		.loc 12 48 2 view .LVU132
  47:Wavetable.cpp **** 	hw.Init();
 646              		.loc 12 47 1 is_stmt 0 view .LVU133
 647 0000 70B5     		push	{r4, r5, r6, lr}
 648              		.cfi_def_cfa_offset 16
 649              		.cfi_offset 4, -16
 650              		.cfi_offset 5, -12
 651              		.cfi_offset 6, -8
 652              		.cfi_offset 14, -4
 653              		.loc 12 48 9 view .LVU134
 654 0002 2348     		ldr	r0, .L25
 655              	.LBB498:
 656              	.LBB499:
  17:baby_osc.h    **** 
  18:baby_osc.h    ****     /** Initializes the BabyOscillator
  19:baby_osc.h    **** 
  20:baby_osc.h    ****         \param sample_rate - sample rate of the audio engine being run, and the frequency that the 
  21:baby_osc.h    **** 
  22:baby_osc.h    ****         Defaults:
  23:baby_osc.h    ****         - freq_ = 100 Hz
  24:baby_osc.h    ****         - amp_ = 0.5
  25:baby_osc.h    ****         - waveform_ = sine wave.
  26:baby_osc.h    ****     */
  27:baby_osc.h    ****     void Init(float sample_rate)
  28:baby_osc.h    ****     {
  29:baby_osc.h    ****         sr_        = sample_rate;
  30:baby_osc.h    ****         sr_recip_  = 1.0f / sample_rate;
  31:baby_osc.h    ****         freq_      = 100.0f;
  32:baby_osc.h    ****         amp_       = 0.5f;
  33:baby_osc.h    ****         pw_        = 0.5f;
  34:baby_osc.h    ****         pw_rad_    = pw_ * TWOPI_F;
  35:baby_osc.h    ****         phase_     = 0.0f;
 657              		.loc 10 35 20 view .LVU135
 658 0004 0026     		movs	r6, #0
  29:baby_osc.h    ****         sr_recip_  = 1.0f / sample_rate;
 659              		.loc 10 29 20 view .LVU136
 660 0006 234C     		ldr	r4, .L25+4
 661              	.LBE499:
ARM GAS  /var/folders/hl/qgbwny5j0fd895c2c41bk3tw0000gp/T//ccj2i8el.s 			page 25


 662              	.LBE498:
  49:Wavetable.cpp **** 	hw.SetAudioBlockSize(32); // number of samples handled per callback
  50:Wavetable.cpp **** 	hw.SetAudioSampleRate(SaiHandle::Config::SampleRate::SAI_48KHZ);
  51:Wavetable.cpp **** 
  52:Wavetable.cpp **** 	float sample_rate = hw.AudioSampleRate();
  53:Wavetable.cpp **** 	InitBed();
  54:Wavetable.cpp **** 
  55:Wavetable.cpp **** 	// set up sound / mod sources
  56:Wavetable.cpp **** 	wv.Init(sample_rate);
  57:Wavetable.cpp **** 	filter.SetSampleRate(sample_rate);
  58:Wavetable.cpp ****     env.Init(sample_rate);
 663              		.loc 12 58 13 view .LVU137
 664 0008 234D     		ldr	r5, .L25+8
  47:Wavetable.cpp **** 	hw.Init();
 665              		.loc 12 47 1 view .LVU138
 666 000a 2DED028B 		vpush.64	{d8}
 667              		.cfi_def_cfa_offset 24
 668              		.cfi_offset 80, -24
 669              		.cfi_offset 81, -20
  48:Wavetable.cpp **** 	hw.SetAudioBlockSize(32); // number of samples handled per callback
 670              		.loc 12 48 9 view .LVU139
 671 000e FFF7FEFF 		bl	_ZN5daisy8patch_sm12DaisyPatchSM4InitEv
 672              	.LVL46:
  49:Wavetable.cpp **** 	hw.SetAudioBlockSize(32); // number of samples handled per callback
 673              		.loc 12 49 2 is_stmt 1 view .LVU140
  49:Wavetable.cpp **** 	hw.SetAudioBlockSize(32); // number of samples handled per callback
 674              		.loc 12 49 22 is_stmt 0 view .LVU141
 675 0012 2021     		movs	r1, #32
 676 0014 1E48     		ldr	r0, .L25
 677 0016 FFF7FEFF 		bl	_ZN5daisy8patch_sm12DaisyPatchSM17SetAudioBlockSizeEj
 678              	.LVL47:
  50:Wavetable.cpp **** 
 679              		.loc 12 50 2 is_stmt 1 view .LVU142
  50:Wavetable.cpp **** 
 680              		.loc 12 50 23 is_stmt 0 view .LVU143
 681 001a 0321     		movs	r1, #3
 682 001c 1C48     		ldr	r0, .L25
 683 001e FFF7FEFF 		bl	_ZN5daisy8patch_sm12DaisyPatchSM18SetAudioSampleRateENS_9SaiHandle6Config10SampleRateE
 684              	.LVL48:
  52:Wavetable.cpp **** 	InitBed();
 685              		.loc 12 52 2 is_stmt 1 view .LVU144
  52:Wavetable.cpp **** 	InitBed();
 686              		.loc 12 52 40 is_stmt 0 view .LVU145
 687 0022 1B48     		ldr	r0, .L25
 688 0024 FFF7FEFF 		bl	_ZN5daisy8patch_sm12DaisyPatchSM15AudioSampleRateEv
 689              	.LVL49:
 690 0028 B0EE408A 		vmov.f32	s16, s0
 691              	.LVL50:
  53:Wavetable.cpp **** 
 692              		.loc 12 53 2 is_stmt 1 view .LVU146
  53:Wavetable.cpp **** 
 693              		.loc 12 53 9 is_stmt 0 view .LVU147
 694 002c FFF7FEFF 		bl	_ZN5daisy8patch_sm7InitBedEv
 695              	.LVL51:
  56:Wavetable.cpp **** 	filter.SetSampleRate(sample_rate);
 696              		.loc 12 56 2 is_stmt 1 view .LVU148
 697              	.LBB502:
ARM GAS  /var/folders/hl/qgbwny5j0fd895c2c41bk3tw0000gp/T//ccj2i8el.s 			page 26


 698              	.LBI498:
  27:baby_osc.h    ****     {
 699              		.loc 10 27 10 view .LVU149
 700              	.LBB500:
  29:baby_osc.h    ****         sr_recip_  = 1.0f / sample_rate;
 701              		.loc 10 29 9 view .LVU150
  30:baby_osc.h    ****         freq_      = 100.0f;
 702              		.loc 10 30 27 is_stmt 0 view .LVU151
 703 0030 B7EE007A 		vmov.f32	s14, #1.0e+0
  32:baby_osc.h    ****         pw_        = 0.5f;
 704              		.loc 10 32 20 view .LVU152
 705 0034 4FF07C53 		mov	r3, #1056964608
  34:baby_osc.h    ****         phase_     = 0.0f;
 706              		.loc 10 34 20 view .LVU153
 707 0038 184A     		ldr	r2, .L25+12
  31:baby_osc.h    ****         amp_       = 0.5f;
 708              		.loc 10 31 20 view .LVU154
 709 003a 9FED190A 		vldr.32	s0, .L25+16
  36:baby_osc.h    ****         phase_inc_ = CalcPhaseInc(freq_);
 710              		.loc 10 36 34 view .LVU155
 711 003e 2046     		mov	r0, r4
  30:baby_osc.h    ****         freq_      = 100.0f;
 712              		.loc 10 30 27 view .LVU156
 713 0040 C7EE087A 		vdiv.f32	s15, s14, s16
  32:baby_osc.h    ****         pw_        = 0.5f;
 714              		.loc 10 32 20 view .LVU157
 715 0044 6360     		str	r3, [r4, #4]	@ float
  33:baby_osc.h    ****         pw_rad_    = pw_ * TWOPI_F;
 716              		.loc 10 33 20 view .LVU158
 717 0046 E360     		str	r3, [r4, #12]	@ float
  34:baby_osc.h    ****         phase_     = 0.0f;
 718              		.loc 10 34 20 view .LVU159
 719 0048 2261     		str	r2, [r4, #16]	@ float
  29:baby_osc.h    ****         sr_recip_  = 1.0f / sample_rate;
 720              		.loc 10 29 20 view .LVU160
 721 004a 84ED058A 		vstr.32	s16, [r4, #20]
  30:baby_osc.h    ****         freq_      = 100.0f;
 722              		.loc 10 30 9 is_stmt 1 view .LVU161
  35:baby_osc.h    ****         phase_inc_ = CalcPhaseInc(freq_);
 723              		.loc 10 35 20 is_stmt 0 view .LVU162
 724 004e E661     		str	r6, [r4, #28]	@ float
  31:baby_osc.h    ****         amp_       = 0.5f;
 725              		.loc 10 31 20 view .LVU163
 726 0050 84ED020A 		vstr.32	s0, [r4, #8]
  30:baby_osc.h    ****         freq_      = 100.0f;
 727              		.loc 10 30 20 view .LVU164
 728 0054 C4ED067A 		vstr.32	s15, [r4, #24]
  31:baby_osc.h    ****         amp_       = 0.5f;
 729              		.loc 10 31 9 is_stmt 1 view .LVU165
  32:baby_osc.h    ****         pw_        = 0.5f;
 730              		.loc 10 32 9 view .LVU166
  33:baby_osc.h    ****         pw_rad_    = pw_ * TWOPI_F;
 731              		.loc 10 33 9 view .LVU167
  34:baby_osc.h    ****         phase_     = 0.0f;
 732              		.loc 10 34 9 view .LVU168
  35:baby_osc.h    ****         phase_inc_ = CalcPhaseInc(freq_);
 733              		.loc 10 35 9 view .LVU169
ARM GAS  /var/folders/hl/qgbwny5j0fd895c2c41bk3tw0000gp/T//ccj2i8el.s 			page 27


 734              		.loc 10 36 9 view .LVU170
 735              		.loc 10 36 34 is_stmt 0 view .LVU171
 736 0058 FFF7FEFF 		bl	_ZN7daisysp14BabyOscillator12CalcPhaseIncEf
 737              	.LVL52:
 738 005c F0EE407A 		vmov.f32	s15, s0
  37:baby_osc.h    ****         eoc_       = true;
  38:baby_osc.h    ****         eor_       = true;
  39:baby_osc.h    ****         mod_       = 10.f;
 739              		.loc 10 39 20 view .LVU172
 740 0060 104A     		ldr	r2, .L25+20
  38:baby_osc.h    ****         mod_       = 10.f;
 741              		.loc 10 38 20 view .LVU173
 742 0062 40F20113 		movw	r3, #257
 743              	.LBE500:
 744              	.LBE502:
  57:Wavetable.cpp ****     env.Init(sample_rate);
 745              		.loc 12 57 22 view .LVU174
 746 0066 B0EE480A 		vmov.f32	s0, s16
 747 006a 0F48     		ldr	r0, .L25+24
 748              	.LBB503:
 749              	.LBB501:
 750              		.loc 10 39 20 view .LVU175
 751 006c 2260     		str	r2, [r4]	@ float
  38:baby_osc.h    ****         mod_       = 10.f;
 752              		.loc 10 38 20 view .LVU176
 753 006e A385     		strh	r3, [r4, #44]	@ movhi
  36:baby_osc.h    ****         eoc_       = true;
 754              		.loc 10 36 20 view .LVU177
 755 0070 C4ED087A 		vstr.32	s15, [r4, #32]
  37:baby_osc.h    ****         eor_       = true;
 756              		.loc 10 37 9 is_stmt 1 view .LVU178
  38:baby_osc.h    ****         mod_       = 10.f;
 757              		.loc 10 38 9 view .LVU179
 758              		.loc 10 39 9 view .LVU180
 759              	.LVL53:
 760              		.loc 10 39 9 is_stmt 0 view .LVU181
 761              	.LBE501:
 762              	.LBE503:
  57:Wavetable.cpp ****     env.Init(sample_rate);
 763              		.loc 12 57 2 is_stmt 1 view .LVU182
  57:Wavetable.cpp ****     env.Init(sample_rate);
 764              		.loc 12 57 22 is_stmt 0 view .LVU183
 765 0074 FFF7FEFF 		bl	_ZN22CFilterButterworth24db13SetSampleRateEf
 766              	.LVL54:
 767              		.loc 12 58 5 is_stmt 1 view .LVU184
 768              		.loc 12 58 13 is_stmt 0 view .LVU185
 769 0078 2846     		mov	r0, r5
 770 007a B0EE480A 		vmov.f32	s0, s16
 771 007e FFF7FEFF 		bl	_ZN7daisysp5AdEnv4InitEf
 772              	.LVL55:
  59:Wavetable.cpp ****     env.SetCurve(0); // linear
 773              		.loc 12 59 5 is_stmt 1 view .LVU186
 774              	.LBB504:
 775              	.LBI504:
  36:../../DaisySP/Source/Control/adenv.h ****     /** Initializes the ad envelope.
  37:../../DaisySP/Source/Control/adenv.h **** 
  38:../../DaisySP/Source/Control/adenv.h ****         Defaults:
ARM GAS  /var/folders/hl/qgbwny5j0fd895c2c41bk3tw0000gp/T//ccj2i8el.s 			page 28


  39:../../DaisySP/Source/Control/adenv.h ****             - current segment = idle
  40:../../DaisySP/Source/Control/adenv.h ****             - curve = linear
  41:../../DaisySP/Source/Control/adenv.h ****             - phase = 0
  42:../../DaisySP/Source/Control/adenv.h ****             - min = 0
  43:../../DaisySP/Source/Control/adenv.h ****             - max = 1
  44:../../DaisySP/Source/Control/adenv.h **** 
  45:../../DaisySP/Source/Control/adenv.h ****         \param sample_rate      sample rate of the audio engine being run
  46:../../DaisySP/Source/Control/adenv.h ****     */
  47:../../DaisySP/Source/Control/adenv.h ****     void Init(float sample_rate);
  48:../../DaisySP/Source/Control/adenv.h **** 
  49:../../DaisySP/Source/Control/adenv.h ****     /** Processes the current sample of the envelope. This should be called once
  50:../../DaisySP/Source/Control/adenv.h ****         per sample period.
  51:../../DaisySP/Source/Control/adenv.h ****         \return the current envelope value.
  52:../../DaisySP/Source/Control/adenv.h ****     */
  53:../../DaisySP/Source/Control/adenv.h ****     float Process();
  54:../../DaisySP/Source/Control/adenv.h **** 
  55:../../DaisySP/Source/Control/adenv.h ****     /** Starts or retriggers the envelope.*/
  56:../../DaisySP/Source/Control/adenv.h ****     inline void Trigger() { trigger_ = 1; }
  57:../../DaisySP/Source/Control/adenv.h ****     /** Sets the length of time (in seconds) for a specific segment. */
  58:../../DaisySP/Source/Control/adenv.h ****     inline void SetTime(uint8_t seg, float time) { segment_time_[seg] = time; }
  59:../../DaisySP/Source/Control/adenv.h ****     /** Sets the amount of curve applied. A positve value will create a log
  60:../../DaisySP/Source/Control/adenv.h ****         curve. Input range: -100 to 100.  (or more)
  61:../../DaisySP/Source/Control/adenv.h ****     */
  62:../../DaisySP/Source/Control/adenv.h ****     inline void SetCurve(float scalar) { curve_scalar_ = scalar; }
 776              		.loc 9 62 17 view .LVU187
 777              	.LBB505:
 778              		.loc 9 62 42 view .LVU188
 779              	.LBE505:
 780              	.LBE504:
  60:Wavetable.cpp **** 
  61:Wavetable.cpp **** 	hw.StartAudio(AudioCallback);
 781              		.loc 12 61 15 is_stmt 0 view .LVU189
 782 0082 0A49     		ldr	r1, .L25+28
 783 0084 0248     		ldr	r0, .L25
 784              	.LBB507:
 785              	.LBB506:
 786              		.loc 9 62 56 view .LVU190
 787 0086 2E62     		str	r6, [r5, #32]	@ float
 788              	.LVL56:
 789              		.loc 9 62 56 view .LVU191
 790              	.LBE506:
 791              	.LBE507:
 792              		.loc 12 61 2 is_stmt 1 view .LVU192
 793              		.loc 12 61 15 is_stmt 0 view .LVU193
 794 0088 FFF7FEFF 		bl	_ZN5daisy8patch_sm12DaisyPatchSM10StartAudioEPFvPKPKfPPfjE
 795              	.LVL57:
 796              	.L23:
  62:Wavetable.cpp **** 	while(1) {}
 797              		.loc 12 62 2 is_stmt 1 discriminator 1 view .LVU194
 798              		.loc 12 62 2 discriminator 1 view .LVU195
 799              		.loc 12 62 2 discriminator 1 view .LVU196
 800              		.loc 12 62 2 discriminator 1 view .LVU197
 801 008c FEE7     		b	.L23
 802              	.L26:
 803 008e 00BF     		.align	2
 804              	.L25:
 805 0090 00000000 		.word	.LANCHOR18
ARM GAS  /var/folders/hl/qgbwny5j0fd895c2c41bk3tw0000gp/T//ccj2i8el.s 			page 29


 806 0094 00000000 		.word	.LANCHOR19
 807 0098 00000000 		.word	.LANCHOR21
 808 009c DB0F4940 		.word	1078530011
 809 00a0 0000C842 		.word	1120403456
 810 00a4 00002041 		.word	1092616192
 811 00a8 00000000 		.word	.LANCHOR20
 812 00ac 00000000 		.word	_Z13AudioCallbackPKPKfPPfj
 813              		.cfi_endproc
 814              	.LFE4815:
 816              		.section	.text._Z13ControlUpdatev,"ax",%progbits
 817              		.align	1
 818              		.p2align 2,,3
 819              		.global	_Z13ControlUpdatev
 820              		.syntax unified
 821              		.thumb
 822              		.thumb_func
 823              		.fpu fpv5-d16
 825              	_Z13ControlUpdatev:
 826              	.LFB4816:
  63:Wavetable.cpp **** }
  64:Wavetable.cpp **** void ControlUpdate()
  65:Wavetable.cpp **** {
 827              		.loc 12 65 1 view -0
 828              		.cfi_startproc
 829              		@ args = 0, pretend = 0, frame = 0
 830              		@ frame_needed = 0, uses_anonymous_args = 0
  66:Wavetable.cpp **** 	hw.ProcessAllControls();
 831              		.loc 12 66 2 view .LVU199
 832              	.LVL58:
 833              	.LBB576:
 834              	.LBI576:
  66:../../libDaisy/src/daisy_patch_sm.h **** 
  67:../../libDaisy/src/daisy_patch_sm.h ****         /** Initializes the memories, and core peripherals for the Daisy Patch SM */
  68:../../libDaisy/src/daisy_patch_sm.h ****         void Init();
  69:../../libDaisy/src/daisy_patch_sm.h **** 
  70:../../libDaisy/src/daisy_patch_sm.h ****         /** Starts a non-interleaving audio callback */
  71:../../libDaisy/src/daisy_patch_sm.h ****         void StartAudio(AudioHandle::AudioCallback cb);
  72:../../libDaisy/src/daisy_patch_sm.h **** 
  73:../../libDaisy/src/daisy_patch_sm.h ****         /** Starts an interleaving audio callback */
  74:../../libDaisy/src/daisy_patch_sm.h ****         void StartAudio(AudioHandle::InterleavingAudioCallback cb);
  75:../../libDaisy/src/daisy_patch_sm.h **** 
  76:../../libDaisy/src/daisy_patch_sm.h ****         /** Changes the callback that is executing.
  77:../../libDaisy/src/daisy_patch_sm.h ****          *  This may cause clicks if done while audio is processing.
  78:../../libDaisy/src/daisy_patch_sm.h ****          */
  79:../../libDaisy/src/daisy_patch_sm.h ****         void ChangeAudioCallback(AudioHandle::AudioCallback cb);
  80:../../libDaisy/src/daisy_patch_sm.h **** 
  81:../../libDaisy/src/daisy_patch_sm.h ****         /** Changes the callback that is executing.
  82:../../libDaisy/src/daisy_patch_sm.h ****          *  This may cause clicks if done while audio is processing.
  83:../../libDaisy/src/daisy_patch_sm.h ****          */
  84:../../libDaisy/src/daisy_patch_sm.h ****         void ChangeAudioCallback(AudioHandle::InterleavingAudioCallback cb);
  85:../../libDaisy/src/daisy_patch_sm.h **** 
  86:../../libDaisy/src/daisy_patch_sm.h ****         /** Stops the transmission of audio. */
  87:../../libDaisy/src/daisy_patch_sm.h ****         void StopAudio();
  88:../../libDaisy/src/daisy_patch_sm.h **** 
  89:../../libDaisy/src/daisy_patch_sm.h ****         /** Sets the number of samples processed in an audio callback. 
  90:../../libDaisy/src/daisy_patch_sm.h ****          *  This will only take effect on the next invocation of `StartAudio`
  91:../../libDaisy/src/daisy_patch_sm.h ****          */
ARM GAS  /var/folders/hl/qgbwny5j0fd895c2c41bk3tw0000gp/T//ccj2i8el.s 			page 30


  92:../../libDaisy/src/daisy_patch_sm.h ****         void SetAudioBlockSize(size_t size);
  93:../../libDaisy/src/daisy_patch_sm.h **** 
  94:../../libDaisy/src/daisy_patch_sm.h ****         /** Sets the samplerate for the audio engine 
  95:../../libDaisy/src/daisy_patch_sm.h ****          *  This will set it to the closest valid samplerate. Options being:
  96:../../libDaisy/src/daisy_patch_sm.h ****          *  8kHz, 16kHz, 32kHz, 48kHz, and 96kHz
  97:../../libDaisy/src/daisy_patch_sm.h ****          */
  98:../../libDaisy/src/daisy_patch_sm.h ****         void SetAudioSampleRate(float sr);
  99:../../libDaisy/src/daisy_patch_sm.h **** 
 100:../../libDaisy/src/daisy_patch_sm.h ****         void SetAudioSampleRate(SaiHandle::Config::SampleRate sample_rate);
 101:../../libDaisy/src/daisy_patch_sm.h **** 
 102:../../libDaisy/src/daisy_patch_sm.h ****         /** Returns the number of samples processed in an audio callback */
 103:../../libDaisy/src/daisy_patch_sm.h ****         size_t AudioBlockSize();
 104:../../libDaisy/src/daisy_patch_sm.h **** 
 105:../../libDaisy/src/daisy_patch_sm.h ****         /** Returns the audio engine's samplerate in Hz */
 106:../../libDaisy/src/daisy_patch_sm.h ****         float AudioSampleRate();
 107:../../libDaisy/src/daisy_patch_sm.h **** 
 108:../../libDaisy/src/daisy_patch_sm.h ****         /** Returns the rate at which the audio callback will be called in Hz */
 109:../../libDaisy/src/daisy_patch_sm.h ****         float AudioCallbackRate();
 110:../../libDaisy/src/daisy_patch_sm.h **** 
 111:../../libDaisy/src/daisy_patch_sm.h ****         /** Starts the Control ADCs 
 112:../../libDaisy/src/daisy_patch_sm.h ****          * 
 113:../../libDaisy/src/daisy_patch_sm.h ****          *  This is started automatically when Init() is called.
 114:../../libDaisy/src/daisy_patch_sm.h ****          */
 115:../../libDaisy/src/daisy_patch_sm.h ****         void StartAdc();
 116:../../libDaisy/src/daisy_patch_sm.h **** 
 117:../../libDaisy/src/daisy_patch_sm.h ****         /** Stops the Control ADCs */
 118:../../libDaisy/src/daisy_patch_sm.h ****         void StopAdc();
 119:../../libDaisy/src/daisy_patch_sm.h **** 
 120:../../libDaisy/src/daisy_patch_sm.h ****         /** Reads and filters all of the analog control inputs */
 121:../../libDaisy/src/daisy_patch_sm.h ****         void ProcessAnalogControls();
 122:../../libDaisy/src/daisy_patch_sm.h **** 
 123:../../libDaisy/src/daisy_patch_sm.h ****         /** Reads and debounces any of the digital control inputs 
 124:../../libDaisy/src/daisy_patch_sm.h ****          *  This does nothing on this board at this time.
 125:../../libDaisy/src/daisy_patch_sm.h ****          */
 126:../../libDaisy/src/daisy_patch_sm.h ****         void ProcessDigitalControls();
 127:../../libDaisy/src/daisy_patch_sm.h **** 
 128:../../libDaisy/src/daisy_patch_sm.h ****         /** Does both of the above */
 129:../../libDaisy/src/daisy_patch_sm.h ****         void ProcessAllControls()
 835              		.loc 2 129 14 view .LVU200
 836              	.LBB577:
 130:../../libDaisy/src/daisy_patch_sm.h ****         {
 131:../../libDaisy/src/daisy_patch_sm.h ****             ProcessAnalogControls();
 837              		.loc 2 131 13 view .LVU201
 838              	.LBE577:
 839              	.LBE576:
  65:Wavetable.cpp **** 	hw.ProcessAllControls();
 840              		.loc 12 65 1 is_stmt 0 view .LVU202
 841 0000 38B5     		push	{r3, r4, r5, lr}
 842              		.cfi_def_cfa_offset 16
 843              		.cfi_offset 3, -16
 844              		.cfi_offset 4, -12
 845              		.cfi_offset 5, -8
 846              		.cfi_offset 14, -4
 847              	.LBB581:
 848              	.LBB578:
 849              		.loc 2 131 34 view .LVU203
 850 0002 544C     		ldr	r4, .L29
ARM GAS  /var/folders/hl/qgbwny5j0fd895c2c41bk3tw0000gp/T//ccj2i8el.s 			page 31


 851              	.LBE578:
 852              	.LBE581:
 853              	.LBB582:
 854              	.LBB583:
  40:baby_osc.h    ****     }
  41:baby_osc.h    **** 
  42:baby_osc.h    **** 
  43:baby_osc.h    ****     /** Changes the frequency of the BabyOscillator, and recalculates phase increment.
  44:baby_osc.h    ****     */
  45:baby_osc.h    ****     inline void SetFreq(const float f)
  46:baby_osc.h    ****     {
  47:baby_osc.h    ****         freq_      = f;
 855              		.loc 10 47 20 view .LVU204
 856 0004 544D     		ldr	r5, .L29+4
 857              	.LBE583:
 858              	.LBE582:
 859              	.LBB587:
 860              	.LBB579:
 861              		.loc 2 131 34 view .LVU205
 862 0006 2046     		mov	r0, r4
 863              	.LBE579:
 864              	.LBE587:
  65:Wavetable.cpp **** 	hw.ProcessAllControls();
 865              		.loc 12 65 1 view .LVU206
 866 0008 2DED048B 		vpush.64	{d8, d9}
 867              		.cfi_def_cfa_offset 32
 868              		.cfi_offset 80, -32
 869              		.cfi_offset 81, -28
 870              		.cfi_offset 82, -24
 871              		.cfi_offset 83, -20
 872              	.LBB588:
 873              	.LBB580:
 874              		.loc 2 131 34 view .LVU207
 875 000c FFF7FEFF 		bl	_ZN5daisy8patch_sm12DaisyPatchSM21ProcessAnalogControlsEv
 876              	.LVL59:
 132:../../libDaisy/src/daisy_patch_sm.h ****             ProcessDigitalControls();
 877              		.loc 2 132 13 is_stmt 1 view .LVU208
 878              		.loc 2 132 35 is_stmt 0 view .LVU209
 879 0010 2046     		mov	r0, r4
 880 0012 FFF7FEFF 		bl	_ZN5daisy8patch_sm12DaisyPatchSM22ProcessDigitalControlsEv
 881              	.LVL60:
 882              		.loc 2 132 35 view .LVU210
 883              	.LBE580:
 884              	.LBE588:
  67:Wavetable.cpp **** 	gate_in_led1.Write(b1.Pressed());
 885              		.loc 12 67 2 is_stmt 1 view .LVU211
 886              	.LBB589:
 887              	.LBI589:
  43:../../libDaisy/src/hid/switch.h **** 
  44:../../libDaisy/src/hid/switch.h ****     /** 
  45:../../libDaisy/src/hid/switch.h ****     Initializes the switch object with a given port/pin combo.
  46:../../libDaisy/src/hid/switch.h ****     \param pin port/pin object to tell the switch which hardware pin to use.
  47:../../libDaisy/src/hid/switch.h ****     \param update_rate Does nothing. Backwards compatibility until next breaking update.
  48:../../libDaisy/src/hid/switch.h ****     \param t switch type -- Default: TYPE_MOMENTARY
  49:../../libDaisy/src/hid/switch.h ****     \param pol switch polarity -- Default: POLARITY_INVERTED
  50:../../libDaisy/src/hid/switch.h ****     \param pu switch pull up/down -- Default: PULL_UP
  51:../../libDaisy/src/hid/switch.h ****     */
ARM GAS  /var/folders/hl/qgbwny5j0fd895c2c41bk3tw0000gp/T//ccj2i8el.s 			page 32


  52:../../libDaisy/src/hid/switch.h ****     void
  53:../../libDaisy/src/hid/switch.h ****     Init(dsy_gpio_pin pin, float update_rate, Type t, Polarity pol, Pull pu);
  54:../../libDaisy/src/hid/switch.h **** 
  55:../../libDaisy/src/hid/switch.h ****     /**
  56:../../libDaisy/src/hid/switch.h ****        Simplified Init.
  57:../../libDaisy/src/hid/switch.h ****        \param pin port/pin object to tell the switch which hardware pin to use.
  58:../../libDaisy/src/hid/switch.h ****        \param update_rate Left for backwards compatibility until next breaking change.
  59:../../libDaisy/src/hid/switch.h ****     */
  60:../../libDaisy/src/hid/switch.h ****     void Init(dsy_gpio_pin pin, float update_rate = 0.f);
  61:../../libDaisy/src/hid/switch.h **** 
  62:../../libDaisy/src/hid/switch.h ****     /** 
  63:../../libDaisy/src/hid/switch.h ****     Called at update_rate to debounce and handle timing for the switch.
  64:../../libDaisy/src/hid/switch.h ****     In order for events not to be missed, its important that the Edge/Pressed checks
  65:../../libDaisy/src/hid/switch.h ****     be made at the same rate as the debounce function is being called.
  66:../../libDaisy/src/hid/switch.h ****     */
  67:../../libDaisy/src/hid/switch.h ****     void Debounce();
  68:../../libDaisy/src/hid/switch.h **** 
  69:../../libDaisy/src/hid/switch.h ****     /** \return true if a button was just pressed. */
  70:../../libDaisy/src/hid/switch.h ****     inline bool RisingEdge() const { return updated_ ? state_ == 0x7f : false; }
  71:../../libDaisy/src/hid/switch.h **** 
  72:../../libDaisy/src/hid/switch.h ****     /** \return true if the button was just released */
  73:../../libDaisy/src/hid/switch.h ****     inline bool FallingEdge() const
  74:../../libDaisy/src/hid/switch.h ****     {
  75:../../libDaisy/src/hid/switch.h ****         return updated_ ? state_ == 0x80 : false;
  76:../../libDaisy/src/hid/switch.h ****     }
  77:../../libDaisy/src/hid/switch.h **** 
  78:../../libDaisy/src/hid/switch.h ****     /** \return true if the button is held down (or if the toggle is on) */
  79:../../libDaisy/src/hid/switch.h ****     inline bool Pressed() const { return state_ == 0xff; }
 888              		.loc 1 79 17 view .LVU212
 889              	.LBB590:
 890              		.loc 1 79 35 view .LVU213
 891              		.loc 1 79 42 is_stmt 0 view .LVU214
 892 0016 514B     		ldr	r3, .L29+8
 893              	.LBE590:
 894              	.LBE589:
 895              	.LBB592:
 896              	.LBB593:
 897              		.file 13 "../../DaisySP/Source/Utility/dsp.h"
   1:../../DaisySP/Source/Utility/dsp.h **** /** Helpful defines, functions, and other utilities for use in/with daisysp modules.
   2:../../DaisySP/Source/Utility/dsp.h **** */
   3:../../DaisySP/Source/Utility/dsp.h **** #pragma once
   4:../../DaisySP/Source/Utility/dsp.h **** #ifndef DSY_CORE_DSP
   5:../../DaisySP/Source/Utility/dsp.h **** #define DSY_CORE_DSP
   6:../../DaisySP/Source/Utility/dsp.h **** #include <cassert>
   7:../../DaisySP/Source/Utility/dsp.h **** #include <cstdint>
   8:../../DaisySP/Source/Utility/dsp.h **** #include <random>
   9:../../DaisySP/Source/Utility/dsp.h **** #include <cmath>
  10:../../DaisySP/Source/Utility/dsp.h **** 
  11:../../DaisySP/Source/Utility/dsp.h **** /** PIs
  12:../../DaisySP/Source/Utility/dsp.h **** */
  13:../../DaisySP/Source/Utility/dsp.h **** #define PI_F 3.1415927410125732421875f
  14:../../DaisySP/Source/Utility/dsp.h **** #define TWOPI_F (2.0f * PI_F)
  15:../../DaisySP/Source/Utility/dsp.h **** #define HALFPI_F (PI_F * 0.5f)
  16:../../DaisySP/Source/Utility/dsp.h **** #define DSY_MIN(in, mn) (in < mn ? in : mn)
  17:../../DaisySP/Source/Utility/dsp.h **** #define DSY_MAX(in, mx) (in > mx ? in : mx)
  18:../../DaisySP/Source/Utility/dsp.h **** #define DSY_CLAMP(in, mn, mx) (DSY_MIN(DSY_MAX(in, mn), mx))
  19:../../DaisySP/Source/Utility/dsp.h **** #define DSY_COUNTOF(_arr) (sizeof(_arr) / sizeof(_arr[0]))
ARM GAS  /var/folders/hl/qgbwny5j0fd895c2c41bk3tw0000gp/T//ccj2i8el.s 			page 33


  20:../../DaisySP/Source/Utility/dsp.h **** 
  21:../../DaisySP/Source/Utility/dsp.h **** namespace daisysp
  22:../../DaisySP/Source/Utility/dsp.h **** {
  23:../../DaisySP/Source/Utility/dsp.h **** //Avoids division for random floats. e.g. rand() * kRandFrac
  24:../../DaisySP/Source/Utility/dsp.h **** static constexpr float kRandFrac = 1.f / (float)RAND_MAX;
  25:../../DaisySP/Source/Utility/dsp.h **** 
  26:../../DaisySP/Source/Utility/dsp.h **** //Convert from semitones to other units. e.g. 2 ^ (kOneTwelfth * x)
  27:../../DaisySP/Source/Utility/dsp.h **** static constexpr float kOneTwelfth = 1.f / 12.f;
  28:../../DaisySP/Source/Utility/dsp.h **** 
  29:../../DaisySP/Source/Utility/dsp.h **** /** efficient floating point min/max
  30:../../DaisySP/Source/Utility/dsp.h **** c/o stephen mccaul
  31:../../DaisySP/Source/Utility/dsp.h **** */
  32:../../DaisySP/Source/Utility/dsp.h **** inline float fmax(float a, float b)
  33:../../DaisySP/Source/Utility/dsp.h **** {
  34:../../DaisySP/Source/Utility/dsp.h ****     float r;
  35:../../DaisySP/Source/Utility/dsp.h **** #ifdef __arm__
  36:../../DaisySP/Source/Utility/dsp.h ****     asm("vmaxnm.f32 %[d], %[n], %[m]" : [d] "=t"(r) : [n] "t"(a), [m] "t"(b) :);
  37:../../DaisySP/Source/Utility/dsp.h **** #else
  38:../../DaisySP/Source/Utility/dsp.h ****     r = (a > b) ? a : b;
  39:../../DaisySP/Source/Utility/dsp.h **** #endif // __arm__
  40:../../DaisySP/Source/Utility/dsp.h ****     return r;
  41:../../DaisySP/Source/Utility/dsp.h **** }
  42:../../DaisySP/Source/Utility/dsp.h **** 
  43:../../DaisySP/Source/Utility/dsp.h **** inline float fmin(float a, float b)
  44:../../DaisySP/Source/Utility/dsp.h **** {
  45:../../DaisySP/Source/Utility/dsp.h ****     float r;
  46:../../DaisySP/Source/Utility/dsp.h **** #ifdef __arm__
  47:../../DaisySP/Source/Utility/dsp.h ****     asm("vminnm.f32 %[d], %[n], %[m]" : [d] "=t"(r) : [n] "t"(a), [m] "t"(b) :);
  48:../../DaisySP/Source/Utility/dsp.h **** #else
  49:../../DaisySP/Source/Utility/dsp.h ****     r = (a < b) ? a : b;
  50:../../DaisySP/Source/Utility/dsp.h **** #endif // __arm__
  51:../../DaisySP/Source/Utility/dsp.h ****     return r;
  52:../../DaisySP/Source/Utility/dsp.h **** }
  53:../../DaisySP/Source/Utility/dsp.h **** 
  54:../../DaisySP/Source/Utility/dsp.h **** /** quick fp clamp
  55:../../DaisySP/Source/Utility/dsp.h **** */
  56:../../DaisySP/Source/Utility/dsp.h **** inline float fclamp(float in, float min, float max)
  57:../../DaisySP/Source/Utility/dsp.h **** {
  58:../../DaisySP/Source/Utility/dsp.h ****     return fmin(fmax(in, min), max);
  59:../../DaisySP/Source/Utility/dsp.h **** }
  60:../../DaisySP/Source/Utility/dsp.h **** 
  61:../../DaisySP/Source/Utility/dsp.h **** /** From Musicdsp.org "Fast power and root estimates for 32bit floats)
  62:../../DaisySP/Source/Utility/dsp.h **** Original code by Stefan Stenzel
  63:../../DaisySP/Source/Utility/dsp.h **** These are approximations
  64:../../DaisySP/Source/Utility/dsp.h **** */
  65:../../DaisySP/Source/Utility/dsp.h **** inline float fastpower(float f, int n)
  66:../../DaisySP/Source/Utility/dsp.h **** {
  67:../../DaisySP/Source/Utility/dsp.h ****     long *lp, l;
  68:../../DaisySP/Source/Utility/dsp.h ****     lp = (long *)(&f);
  69:../../DaisySP/Source/Utility/dsp.h ****     l  = *lp;
  70:../../DaisySP/Source/Utility/dsp.h ****     l -= 0x3F800000;
  71:../../DaisySP/Source/Utility/dsp.h ****     l <<= (n - 1);
  72:../../DaisySP/Source/Utility/dsp.h ****     l += 0x3F800000;
  73:../../DaisySP/Source/Utility/dsp.h ****     *lp = l;
  74:../../DaisySP/Source/Utility/dsp.h ****     return f;
  75:../../DaisySP/Source/Utility/dsp.h **** }
  76:../../DaisySP/Source/Utility/dsp.h **** 
ARM GAS  /var/folders/hl/qgbwny5j0fd895c2c41bk3tw0000gp/T//ccj2i8el.s 			page 34


  77:../../DaisySP/Source/Utility/dsp.h **** inline float fastroot(float f, int n)
  78:../../DaisySP/Source/Utility/dsp.h **** {
  79:../../DaisySP/Source/Utility/dsp.h ****     long *lp, l;
  80:../../DaisySP/Source/Utility/dsp.h ****     lp = (long *)(&f);
  81:../../DaisySP/Source/Utility/dsp.h ****     l  = *lp;
  82:../../DaisySP/Source/Utility/dsp.h ****     l -= 0x3F800000;
  83:../../DaisySP/Source/Utility/dsp.h ****     l >>= (n = 1);
  84:../../DaisySP/Source/Utility/dsp.h ****     l += 0x3F800000;
  85:../../DaisySP/Source/Utility/dsp.h ****     *lp = l;
  86:../../DaisySP/Source/Utility/dsp.h ****     return f;
  87:../../DaisySP/Source/Utility/dsp.h **** }
  88:../../DaisySP/Source/Utility/dsp.h **** 
  89:../../DaisySP/Source/Utility/dsp.h **** /** From http://openaudio.blogspot.com/2017/02/faster-log10-and-pow.html
  90:../../DaisySP/Source/Utility/dsp.h **** No approximation, pow10f(x) gives a 90% speed increase over powf(10.f, x)
  91:../../DaisySP/Source/Utility/dsp.h **** */
  92:../../DaisySP/Source/Utility/dsp.h **** inline float pow10f(float f)
  93:../../DaisySP/Source/Utility/dsp.h **** {
  94:../../DaisySP/Source/Utility/dsp.h ****     return expf(2.302585092994046f * f);
  95:../../DaisySP/Source/Utility/dsp.h **** }
  96:../../DaisySP/Source/Utility/dsp.h **** 
  97:../../DaisySP/Source/Utility/dsp.h **** /* Original code for fastlog2f by Dr. Paul Beckmann from the ARM community forum, adapted from the 
  98:../../DaisySP/Source/Utility/dsp.h **** About 25% performance increase over std::log10f
  99:../../DaisySP/Source/Utility/dsp.h **** */
 100:../../DaisySP/Source/Utility/dsp.h **** inline float fastlog2f(float f)
 101:../../DaisySP/Source/Utility/dsp.h **** {
 102:../../DaisySP/Source/Utility/dsp.h ****     float frac;
 103:../../DaisySP/Source/Utility/dsp.h ****     int   exp;
 104:../../DaisySP/Source/Utility/dsp.h ****     frac = frexpf(fabsf(f), &exp);
 105:../../DaisySP/Source/Utility/dsp.h ****     f    = 1.23149591368684f;
 106:../../DaisySP/Source/Utility/dsp.h ****     f *= frac;
 107:../../DaisySP/Source/Utility/dsp.h ****     f += -4.11852516267426f;
 108:../../DaisySP/Source/Utility/dsp.h ****     f *= frac;
 109:../../DaisySP/Source/Utility/dsp.h ****     f += 6.02197014179219f;
 110:../../DaisySP/Source/Utility/dsp.h ****     f *= frac;
 111:../../DaisySP/Source/Utility/dsp.h ****     f += -3.13396450166353f;
 112:../../DaisySP/Source/Utility/dsp.h ****     f += exp;
 113:../../DaisySP/Source/Utility/dsp.h ****     return (f);
 114:../../DaisySP/Source/Utility/dsp.h **** }
 115:../../DaisySP/Source/Utility/dsp.h **** 
 116:../../DaisySP/Source/Utility/dsp.h **** inline float fastlog10f(float f)
 117:../../DaisySP/Source/Utility/dsp.h **** {
 118:../../DaisySP/Source/Utility/dsp.h ****     return fastlog2f(f) * 0.3010299956639812f;
 119:../../DaisySP/Source/Utility/dsp.h **** }
 120:../../DaisySP/Source/Utility/dsp.h **** 
 121:../../DaisySP/Source/Utility/dsp.h **** /** Midi to frequency helper
 122:../../DaisySP/Source/Utility/dsp.h **** */
 123:../../DaisySP/Source/Utility/dsp.h **** inline float mtof(float m)
 124:../../DaisySP/Source/Utility/dsp.h **** {
 125:../../DaisySP/Source/Utility/dsp.h ****     return powf(2, (m - 69.0f) / 12.0f) * 440.0f;
 126:../../DaisySP/Source/Utility/dsp.h **** }
 127:../../DaisySP/Source/Utility/dsp.h **** 
 128:../../DaisySP/Source/Utility/dsp.h **** 
 129:../../DaisySP/Source/Utility/dsp.h **** /** one pole lpf
 130:../../DaisySP/Source/Utility/dsp.h **** out is passed by reference, and must be retained between
 131:../../DaisySP/Source/Utility/dsp.h **** calls to properly filter the signal
 132:../../DaisySP/Source/Utility/dsp.h **** coeff can be calculated:
 133:../../DaisySP/Source/Utility/dsp.h **** coeff = 1.0 / (time * sample_rate) ; where time is in seconds
ARM GAS  /var/folders/hl/qgbwny5j0fd895c2c41bk3tw0000gp/T//ccj2i8el.s 			page 35


 134:../../DaisySP/Source/Utility/dsp.h **** */
 135:../../DaisySP/Source/Utility/dsp.h **** inline void fonepole(float &out, float in, float coeff)
 136:../../DaisySP/Source/Utility/dsp.h **** {
 137:../../DaisySP/Source/Utility/dsp.h ****     out += coeff * (in - out);
 138:../../DaisySP/Source/Utility/dsp.h **** }
 139:../../DaisySP/Source/Utility/dsp.h **** 
 140:../../DaisySP/Source/Utility/dsp.h **** /** Curves to use with the fmap function */
 141:../../DaisySP/Source/Utility/dsp.h **** enum class Mapping
 142:../../DaisySP/Source/Utility/dsp.h **** {
 143:../../DaisySP/Source/Utility/dsp.h ****     LINEAR,
 144:../../DaisySP/Source/Utility/dsp.h ****     EXP,
 145:../../DaisySP/Source/Utility/dsp.h ****     LOG,
 146:../../DaisySP/Source/Utility/dsp.h **** };
 147:../../DaisySP/Source/Utility/dsp.h **** 
 148:../../DaisySP/Source/Utility/dsp.h **** /** Maps a float between a specified range, using a specified curve. 
 149:../../DaisySP/Source/Utility/dsp.h ****  * 
 150:../../DaisySP/Source/Utility/dsp.h ****  *  \param in a value between 0 to 1 that will be mapped to the new range.
 151:../../DaisySP/Source/Utility/dsp.h ****  *  \param min the new minimum value
 152:../../DaisySP/Source/Utility/dsp.h ****  *  \param max the new maxmimum value
 153:../../DaisySP/Source/Utility/dsp.h ****  *  \param curve a Mapping Value to adjust the response curve of the transformation
 154:../../DaisySP/Source/Utility/dsp.h ****  *               defaults to Linear. @see Mapping
 155:../../DaisySP/Source/Utility/dsp.h ****  * 
 156:../../DaisySP/Source/Utility/dsp.h ****  *  When using the log curve min and max, must be greater than zero.
 157:../../DaisySP/Source/Utility/dsp.h ****  * 
 158:../../DaisySP/Source/Utility/dsp.h ****  *  \retval returns the transformed float within the new range.
 159:../../DaisySP/Source/Utility/dsp.h **** */
 160:../../DaisySP/Source/Utility/dsp.h **** inline float
 161:../../DaisySP/Source/Utility/dsp.h **** fmap(float in, float min, float max, Mapping curve = Mapping::LINEAR)
 162:../../DaisySP/Source/Utility/dsp.h **** {
 163:../../DaisySP/Source/Utility/dsp.h ****     switch(curve)
 164:../../DaisySP/Source/Utility/dsp.h ****     {
 165:../../DaisySP/Source/Utility/dsp.h ****         case Mapping::EXP:
 166:../../DaisySP/Source/Utility/dsp.h ****             return fclamp(min + (in * in) * (max - min), min, max);
 167:../../DaisySP/Source/Utility/dsp.h ****         case Mapping::LOG:
 168:../../DaisySP/Source/Utility/dsp.h ****         {
 169:../../DaisySP/Source/Utility/dsp.h ****             const float a = 1.f / log10f(max / min);
 170:../../DaisySP/Source/Utility/dsp.h ****             return fclamp(min * powf(10, in / a), min, max);
 171:../../DaisySP/Source/Utility/dsp.h ****         }
 172:../../DaisySP/Source/Utility/dsp.h ****         case Mapping::LINEAR:
 173:../../DaisySP/Source/Utility/dsp.h ****         default: return fclamp(min + in * (max - min), min, max);
 898              		.loc 13 173 31 view .LVU215
 899 0018 DFED518A 		vldr.32	s17, .L29+12
 900              	.LBE593:
 901              	.LBE592:
 902              	.LBB607:
 903              	.LBB608:
 904              	.LBB609:
 905              	.LBB610:
 906              	.LBB611:
  47:../../DaisySP/Source/Utility/dsp.h **** #else
 907              		.loc 13 47 5 view .LVU216
 908 001c B7EE009A 		vmov.f32	s18, #1.0e+0
 909              	.LBE611:
 910              	.LBE610:
 911              	.LBE609:
 912              	.LBE608:
 913              	.LBE607:
ARM GAS  /var/folders/hl/qgbwny5j0fd895c2c41bk3tw0000gp/T//ccj2i8el.s 			page 36


 914              	.LBB624:
 915              	.LBB591:
 916              		.loc 1 79 52 view .LVU217
 917 0020 997A     		ldrb	r1, [r3, #10]	@ zero_extendqisi2
 918              	.LBE591:
 919              	.LBE624:
 920              		.loc 12 67 20 view .LVU218
 921 0022 5048     		ldr	r0, .L29+16
 922 0024 A1F1FF01 		sub	r1, #255
 923              	.LBB625:
 924              	.LBB626:
 925              		.loc 13 173 31 view .LVU219
 926 0028 9FED4F8A 		vldr.32	s16, .L29+20
 927              	.LBE626:
 928              	.LBE625:
 929              	.LBB636:
 930              	.LBB603:
 931 002c DFED4F9A 		vldr.32	s19, .L29+24
 932              	.LBE603:
 933              	.LBE636:
 934              		.loc 12 67 20 view .LVU220
 935 0030 B1FA81F1 		clz	r1, r1
 936 0034 4909     		lsrs	r1, r1, #5
 937 0036 FFF7FEFF 		bl	_ZN5daisy4GPIO5WriteEb
 938              	.LVL61:
  68:Wavetable.cpp **** 
  69:Wavetable.cpp **** 	// ripped from simple oscillator example
  70:Wavetable.cpp ****     float coarse_knob = hw.GetAdcValue(CV_1);
 939              		.loc 12 70 5 is_stmt 1 view .LVU221
 940              		.loc 12 70 39 is_stmt 0 view .LVU222
 941 003a 0021     		movs	r1, #0
 942 003c 2046     		mov	r0, r4
 943 003e FFF7FEFF 		bl	_ZN5daisy8patch_sm12DaisyPatchSM11GetAdcValueEi
 944              	.LVL62:
  71:Wavetable.cpp ****     float coarse      = fmap(coarse_knob, 36.f, 96.f);
 945              		.loc 12 71 5 is_stmt 1 view .LVU223
 946              	.LBB637:
 947              	.LBI592:
 161:../../DaisySP/Source/Utility/dsp.h **** {
 948              		.loc 13 161 1 view .LVU224
 949              	.LBE637:
 163:../../DaisySP/Source/Utility/dsp.h ****     {
 950              		.loc 13 163 5 view .LVU225
 951              	.LBB638:
 952              	.LBB604:
 172:../../DaisySP/Source/Utility/dsp.h ****         default: return fclamp(min + in * (max - min), min, max);
 953              		.loc 13 172 9 view .LVU226
 954              		.loc 13 173 9 view .LVU227
 955              		.loc 13 173 18 view .LVU228
 956              		.loc 13 173 31 is_stmt 0 view .LVU229
 957 0042 F0EE686A 		vmov.f32	s13, s17
 958              	.LBE604:
 959              	.LBE638:
  72:Wavetable.cpp **** 
  73:Wavetable.cpp **** 	float voct_cv = hw.GetAdcValue(CV_5);
 960              		.loc 12 73 32 view .LVU230
 961 0046 0421     		movs	r1, #4
ARM GAS  /var/folders/hl/qgbwny5j0fd895c2c41bk3tw0000gp/T//ccj2i8el.s 			page 37


 962 0048 2046     		mov	r0, r4
 963              	.LBB639:
 964              	.LBB605:
 965              	.LBB594:
 966              	.LBB595:
 967              	.LBB596:
  47:../../DaisySP/Source/Utility/dsp.h **** #else
 968              		.loc 13 47 5 view .LVU231
 969 004a DFED497A 		vldr.32	s15, .L29+28
 970              	.LBE596:
 971              	.LBE595:
 972              	.LBE594:
 973              		.loc 13 173 31 view .LVU232
 974 004e E0EE296A 		vfma.f32	s13, s0, s19
 975              	.LVL63:
 976              	.LBB601:
 977              	.LBI594:
  56:../../DaisySP/Source/Utility/dsp.h **** {
 978              		.loc 13 56 14 is_stmt 1 view .LVU233
 979              	.LBE601:
 980              	.LBE605:
 981              	.LBE639:
  58:../../DaisySP/Source/Utility/dsp.h **** }
 982              		.loc 13 58 5 view .LVU234
 983              	.LBB640:
 984              	.LBB606:
 985              	.LBB602:
 986              	.LBB598:
 987              	.LBI598:
  32:../../DaisySP/Source/Utility/dsp.h **** {
 988              		.loc 13 32 14 view .LVU235
 989              	.LBB599:
  34:../../DaisySP/Source/Utility/dsp.h **** #ifdef __arm__
 990              		.loc 13 34 5 view .LVU236
  36:../../DaisySP/Source/Utility/dsp.h **** #else
 991              		.loc 13 36 5 view .LVU237
 992              		.syntax unified
 993              	@ 36 "../../DaisySP/Source/Utility/dsp.h" 1
 994 0052 C6FEA86A 		vmaxnm.f32 s13, s13, s17
 995              	@ 0 "" 2
 996              	.LVL64:
  40:../../DaisySP/Source/Utility/dsp.h **** }
 997              		.loc 13 40 5 view .LVU238
  40:../../DaisySP/Source/Utility/dsp.h **** }
 998              		.loc 13 40 5 is_stmt 0 view .LVU239
 999              		.thumb
 1000              		.syntax unified
 1001              	.LBE599:
 1002              	.LBE598:
 1003              	.LBB600:
 1004              	.LBI595:
  43:../../DaisySP/Source/Utility/dsp.h **** {
 1005              		.loc 13 43 14 is_stmt 1 view .LVU240
 1006              	.LBB597:
  45:../../DaisySP/Source/Utility/dsp.h **** #ifdef __arm__
 1007              		.loc 13 45 5 view .LVU241
  47:../../DaisySP/Source/Utility/dsp.h **** #else
ARM GAS  /var/folders/hl/qgbwny5j0fd895c2c41bk3tw0000gp/T//ccj2i8el.s 			page 38


 1008              		.loc 13 47 5 view .LVU242
 1009              		.syntax unified
 1010              	@ 47 "../../DaisySP/Source/Utility/dsp.h" 1
 1011 0056 C6FEE78A 		vminnm.f32 s17, s13, s15
 1012              	@ 0 "" 2
 1013              	.LVL65:
  51:../../DaisySP/Source/Utility/dsp.h **** }
 1014              		.loc 13 51 5 view .LVU243
  51:../../DaisySP/Source/Utility/dsp.h **** }
 1015              		.loc 13 51 5 is_stmt 0 view .LVU244
 1016              		.thumb
 1017              		.syntax unified
 1018              	.LBE597:
 1019              	.LBE600:
 1020              	.LBE602:
 1021              	.LBE606:
 1022              	.LBE640:
 1023              		.loc 12 73 2 is_stmt 1 view .LVU245
 1024              		.loc 12 73 32 is_stmt 0 view .LVU246
 1025 005a FFF7FEFF 		bl	_ZN5daisy8patch_sm12DaisyPatchSM11GetAdcValueEi
 1026              	.LVL66:
  74:Wavetable.cpp ****     float voct    = fmap(voct_cv, 0.f, 60.f);
 1027              		.loc 12 74 5 is_stmt 1 view .LVU247
 1028              	.LBB641:
 1029              	.LBI625:
 161:../../DaisySP/Source/Utility/dsp.h **** {
 1030              		.loc 13 161 1 view .LVU248
 1031              	.LBE641:
 163:../../DaisySP/Source/Utility/dsp.h ****     {
 1032              		.loc 13 163 5 view .LVU249
 1033              	.LBB642:
 1034              	.LBB633:
 172:../../DaisySP/Source/Utility/dsp.h ****         default: return fclamp(min + in * (max - min), min, max);
 1035              		.loc 13 172 9 view .LVU250
 1036              		.loc 13 173 9 view .LVU251
 1037              		.loc 13 173 18 view .LVU252
 1038              		.loc 13 173 31 is_stmt 0 view .LVU253
 1039 005e B0EE487A 		vmov.f32	s14, s16
 1040              	.LBE633:
 1041              	.LBE642:
 1042              	.LBB643:
 1043              	.LBB644:
 125:../../DaisySP/Source/Utility/dsp.h **** }
 1044              		.loc 13 125 23 view .LVU254
 1045 0062 DFED446A 		vldr.32	s13, .L29+32
 125:../../DaisySP/Source/Utility/dsp.h **** }
 1046              		.loc 13 125 16 view .LVU255
 1047 0066 F2EE080A 		vmov.f32	s1, #1.2e+1
 1048              	.LBE644:
 1049              	.LBE643:
 1050              	.LBB648:
 1051              	.LBB649:
 1052              	.LBB650:
  47:../../DaisySP/Source/Utility/dsp.h **** #else
 1053              		.loc 13 47 5 view .LVU256
 1054 006a 9FED436A 		vldr.32	s12, .L29+36
 1055              	.LBE650:
ARM GAS  /var/folders/hl/qgbwny5j0fd895c2c41bk3tw0000gp/T//ccj2i8el.s 			page 39


 1056              	.LBE649:
 1057              	.LBE648:
 1058              	.LBB657:
 1059              	.LBB634:
 1060              		.loc 13 173 31 view .LVU257
 1061 006e A0EE297A 		vfma.f32	s14, s0, s19
 1062              	.LVL67:
 1063              	.LBB627:
 1064              	.LBI627:
  56:../../DaisySP/Source/Utility/dsp.h **** {
 1065              		.loc 13 56 14 is_stmt 1 view .LVU258
 1066              	.LBE627:
 1067              	.LBE634:
 1068              	.LBE657:
  58:../../DaisySP/Source/Utility/dsp.h **** }
 1069              		.loc 13 58 5 view .LVU259
 1070              	.LBB658:
 1071              	.LBB635:
 1072              	.LBB632:
 1073              	.LBB628:
 1074              	.LBI628:
  32:../../DaisySP/Source/Utility/dsp.h **** {
 1075              		.loc 13 32 14 view .LVU260
 1076              	.LBB629:
  34:../../DaisySP/Source/Utility/dsp.h **** #ifdef __arm__
 1077              		.loc 13 34 5 view .LVU261
  36:../../DaisySP/Source/Utility/dsp.h **** #else
 1078              		.loc 13 36 5 view .LVU262
 1079              		.syntax unified
 1080              	@ 36 "../../DaisySP/Source/Utility/dsp.h" 1
 1081 0072 87FE087A 		vmaxnm.f32 s14, s14, s16
 1082              	@ 0 "" 2
 1083              	.LVL68:
  40:../../DaisySP/Source/Utility/dsp.h **** }
 1084              		.loc 13 40 5 view .LVU263
  40:../../DaisySP/Source/Utility/dsp.h **** }
 1085              		.loc 13 40 5 is_stmt 0 view .LVU264
 1086              		.thumb
 1087              		.syntax unified
 1088              	.LBE629:
 1089              	.LBE628:
 1090              	.LBB630:
 1091              	.LBI630:
  43:../../DaisySP/Source/Utility/dsp.h **** {
 1092              		.loc 13 43 14 is_stmt 1 view .LVU265
 1093              	.LBB631:
  45:../../DaisySP/Source/Utility/dsp.h **** #ifdef __arm__
 1094              		.loc 13 45 5 view .LVU266
  47:../../DaisySP/Source/Utility/dsp.h **** #else
 1095              		.loc 13 47 5 view .LVU267
 1096              		.syntax unified
 1097              	@ 47 "../../DaisySP/Source/Utility/dsp.h" 1
 1098 0076 C7FE697A 		vminnm.f32 s15, s14, s19
 1099              	@ 0 "" 2
 1100              	.LVL69:
  51:../../DaisySP/Source/Utility/dsp.h **** }
 1101              		.loc 13 51 5 view .LVU268
ARM GAS  /var/folders/hl/qgbwny5j0fd895c2c41bk3tw0000gp/T//ccj2i8el.s 			page 40


  51:../../DaisySP/Source/Utility/dsp.h **** }
 1102              		.loc 13 51 5 is_stmt 0 view .LVU269
 1103              		.thumb
 1104              		.syntax unified
 1105              	.LBE631:
 1106              	.LBE630:
 1107              	.LBE632:
 1108              	.LBE635:
 1109              	.LBE658:
  75:Wavetable.cpp **** 
  76:Wavetable.cpp ****     float midi_nn = fclamp(coarse + voct, 0.f, 127.f);
 1110              		.loc 12 76 5 is_stmt 1 view .LVU270
 1111              	.LBB659:
 1112              	.LBI648:
  56:../../DaisySP/Source/Utility/dsp.h **** {
 1113              		.loc 13 56 14 view .LVU271
 1114              	.LBE659:
  58:../../DaisySP/Source/Utility/dsp.h **** }
 1115              		.loc 13 58 5 view .LVU272
 1116              	.LBB660:
 1117              	.LBB652:
 1118              	.LBI652:
  32:../../DaisySP/Source/Utility/dsp.h **** {
 1119              		.loc 13 32 14 view .LVU273
 1120              	.LBB653:
  34:../../DaisySP/Source/Utility/dsp.h **** #ifdef __arm__
 1121              		.loc 13 34 5 view .LVU274
  36:../../DaisySP/Source/Utility/dsp.h **** #else
 1122              		.loc 13 36 5 view .LVU275
 1123              	.LBE653:
 1124              	.LBE652:
 1125              	.LBE660:
 1126              		.loc 12 76 27 is_stmt 0 view .LVU276
 1127 007a 77EEA87A 		vadd.f32	s15, s15, s17
 1128              	.LVL70:
 1129              	.LBB661:
 1130              	.LBB655:
 1131              	.LBB654:
  36:../../DaisySP/Source/Utility/dsp.h **** #else
 1132              		.loc 13 36 5 view .LVU277
 1133              		.syntax unified
 1134              	@ 36 "../../DaisySP/Source/Utility/dsp.h" 1
 1135 007e C7FE887A 		vmaxnm.f32 s15, s15, s16
 1136              	@ 0 "" 2
 1137              	.LVL71:
  40:../../DaisySP/Source/Utility/dsp.h **** }
 1138              		.loc 13 40 5 is_stmt 1 view .LVU278
  40:../../DaisySP/Source/Utility/dsp.h **** }
 1139              		.loc 13 40 5 is_stmt 0 view .LVU279
 1140              		.thumb
 1141              		.syntax unified
 1142              	.LBE654:
 1143              	.LBE655:
 1144              	.LBB656:
 1145              	.LBI649:
  43:../../DaisySP/Source/Utility/dsp.h **** {
 1146              		.loc 13 43 14 is_stmt 1 view .LVU280
ARM GAS  /var/folders/hl/qgbwny5j0fd895c2c41bk3tw0000gp/T//ccj2i8el.s 			page 41


 1147              	.LBB651:
  45:../../DaisySP/Source/Utility/dsp.h **** #ifdef __arm__
 1148              		.loc 13 45 5 view .LVU281
  47:../../DaisySP/Source/Utility/dsp.h **** #else
 1149              		.loc 13 47 5 view .LVU282
 1150              		.syntax unified
 1151              	@ 47 "../../DaisySP/Source/Utility/dsp.h" 1
 1152 0082 C7FEC67A 		vminnm.f32 s15, s15, s12
 1153              	@ 0 "" 2
 1154              	.LVL72:
  51:../../DaisySP/Source/Utility/dsp.h **** }
 1155              		.loc 13 51 5 view .LVU283
  51:../../DaisySP/Source/Utility/dsp.h **** }
 1156              		.loc 13 51 5 is_stmt 0 view .LVU284
 1157              		.thumb
 1158              		.syntax unified
 1159              	.LBE651:
 1160              	.LBE656:
 1161              	.LBE661:
  77:Wavetable.cpp ****     float freq    = mtof(midi_nn);
 1162              		.loc 12 77 5 is_stmt 1 view .LVU285
 1163              	.LBB662:
 1164              	.LBI643:
 123:../../DaisySP/Source/Utility/dsp.h **** {
 1165              		.loc 13 123 14 view .LVU286
 1166              	.LBB645:
 125:../../DaisySP/Source/Utility/dsp.h **** }
 1167              		.loc 13 125 5 view .LVU287
 125:../../DaisySP/Source/Utility/dsp.h **** }
 1168              		.loc 13 125 23 is_stmt 0 view .LVU288
 1169 0086 77EEE67A 		vsub.f32	s15, s15, s13
 1170              	.LVL73:
 125:../../DaisySP/Source/Utility/dsp.h **** }
 1171              		.loc 13 125 16 view .LVU289
 1172 008a B0EE000A 		vmov.f32	s0, #2.0e+0
 1173              	.LVL74:
 125:../../DaisySP/Source/Utility/dsp.h **** }
 1174              		.loc 13 125 16 view .LVU290
 1175              	.LBE645:
 1176              	.LBE662:
 1177              	.LBB663:
 1178              	.LBB664:
 1179              		.loc 13 173 31 view .LVU291
 1180 008e F0EE488A 		vmov.f32	s17, s16
 1181              	.LVL75:
 1182              		.loc 13 173 31 view .LVU292
 1183              	.LBE664:
 1184              	.LBE663:
 1185              	.LBB674:
 1186              	.LBB646:
 125:../../DaisySP/Source/Utility/dsp.h **** }
 1187              		.loc 13 125 16 view .LVU293
 1188 0092 C7EEA00A 		vdiv.f32	s1, s15, s1
 1189 0096 FFF7FEFF 		bl	powf
 1190              	.LVL76:
 125:../../DaisySP/Source/Utility/dsp.h **** }
 1191              		.loc 13 125 43 view .LVU294
ARM GAS  /var/folders/hl/qgbwny5j0fd895c2c41bk3tw0000gp/T//ccj2i8el.s 			page 42


 1192 009a DFED387A 		vldr.32	s15, .L29+40
 1193              	.LBE646:
 1194              	.LBE674:
 1195              	.LBB675:
 1196              	.LBB584:
  48:baby_osc.h    ****         phase_inc_ = CalcPhaseInc(f);
 1197              		.loc 10 48 34 view .LVU295
 1198 009e 2846     		mov	r0, r5
 1199              	.LBE584:
 1200              	.LBE675:
 1201              	.LBB676:
 1202              	.LBB647:
 125:../../DaisySP/Source/Utility/dsp.h **** }
 1203              		.loc 13 125 43 view .LVU296
 1204 00a0 20EE270A 		vmul.f32	s0, s0, s15
 1205              	.LVL77:
 125:../../DaisySP/Source/Utility/dsp.h **** }
 1206              		.loc 13 125 43 view .LVU297
 1207              	.LBE647:
 1208              	.LBE676:
  78:Wavetable.cpp **** 	wv.SetFreq(freq);
 1209              		.loc 12 78 2 is_stmt 1 view .LVU298
 1210              	.LBB677:
 1211              	.LBI582:
  45:baby_osc.h    ****     {
 1212              		.loc 10 45 17 view .LVU299
 1213              	.LBB585:
  47:baby_osc.h    ****         phase_inc_ = CalcPhaseInc(f);
 1214              		.loc 10 47 9 view .LVU300
  47:baby_osc.h    ****         phase_inc_ = CalcPhaseInc(f);
 1215              		.loc 10 47 20 is_stmt 0 view .LVU301
 1216 00a4 85ED020A 		vstr.32	s0, [r5, #8]
 1217              		.loc 10 48 9 is_stmt 1 view .LVU302
 1218              		.loc 10 48 34 is_stmt 0 view .LVU303
 1219 00a8 FFF7FEFF 		bl	_ZN7daisysp14BabyOscillator12CalcPhaseIncEf
 1220              	.LVL78:
 1221              		.loc 10 48 34 view .LVU304
 1222              	.LBE585:
 1223              	.LBE677:
  79:Wavetable.cpp **** 
  80:Wavetable.cpp **** 	// filter settings
  81:Wavetable.cpp **** 	float cutoff = fmap(hw.GetAdcValue(CV_2), 0.f, 22050.f);
 1224              		.loc 12 81 21 view .LVU305
 1225 00ac 0121     		movs	r1, #1
 1226 00ae 2046     		mov	r0, r4
 1227              	.LBB678:
 1228              	.LBB586:
 1229              		.loc 10 48 20 view .LVU306
 1230 00b0 85ED080A 		vstr.32	s0, [r5, #32]
 1231              	.LVL79:
 1232              		.loc 10 48 20 view .LVU307
 1233              	.LBE586:
 1234              	.LBE678:
 1235              		.loc 12 81 2 is_stmt 1 view .LVU308
 1236              		.loc 12 81 21 is_stmt 0 view .LVU309
 1237 00b4 FFF7FEFF 		bl	_ZN5daisy8patch_sm12DaisyPatchSM11GetAdcValueEi
 1238              	.LVL80:
ARM GAS  /var/folders/hl/qgbwny5j0fd895c2c41bk3tw0000gp/T//ccj2i8el.s 			page 43


 1239              	.LBB679:
 1240              	.LBI663:
 161:../../DaisySP/Source/Utility/dsp.h **** {
 1241              		.loc 13 161 1 is_stmt 1 view .LVU310
 1242              	.LBE679:
 163:../../DaisySP/Source/Utility/dsp.h ****     {
 1243              		.loc 13 163 5 view .LVU311
 1244              	.LBB680:
 1245              	.LBB671:
 172:../../DaisySP/Source/Utility/dsp.h ****         default: return fclamp(min + in * (max - min), min, max);
 1246              		.loc 13 172 9 view .LVU312
 1247              		.loc 13 173 9 view .LVU313
 1248              		.loc 13 173 18 view .LVU314
 1249              		.loc 13 173 31 is_stmt 0 view .LVU315
 1250 00b8 DFED317A 		vldr.32	s15, .L29+44
 1251              	.LBE671:
 1252              	.LBE680:
  82:Wavetable.cpp **** 	float q = fmap(hw.GetAdcValue(CV_3), 0.f, 1.f);
 1253              		.loc 12 82 16 view .LVU316
 1254 00bc 0221     		movs	r1, #2
 1255 00be 2046     		mov	r0, r4
 1256              	.LBB681:
 1257              	.LBB672:
 1258              		.loc 13 173 31 view .LVU317
 1259 00c0 E0EE278A 		vfma.f32	s17, s0, s15
 1260              	.LVL81:
 1261              	.LBB665:
 1262              	.LBI665:
  56:../../DaisySP/Source/Utility/dsp.h **** {
 1263              		.loc 13 56 14 is_stmt 1 view .LVU318
 1264              	.LBE665:
 1265              	.LBE672:
 1266              	.LBE681:
  58:../../DaisySP/Source/Utility/dsp.h **** }
 1267              		.loc 13 58 5 view .LVU319
 1268              	.LBB682:
 1269              	.LBB673:
 1270              	.LBB670:
 1271              	.LBB666:
 1272              	.LBI666:
  32:../../DaisySP/Source/Utility/dsp.h **** {
 1273              		.loc 13 32 14 view .LVU320
 1274              	.LBB667:
  34:../../DaisySP/Source/Utility/dsp.h **** #ifdef __arm__
 1275              		.loc 13 34 5 view .LVU321
  36:../../DaisySP/Source/Utility/dsp.h **** #else
 1276              		.loc 13 36 5 view .LVU322
 1277              		.syntax unified
 1278              	@ 36 "../../DaisySP/Source/Utility/dsp.h" 1
 1279 00c4 C8FE888A 		vmaxnm.f32 s17, s17, s16
 1280              	@ 0 "" 2
 1281              	.LVL82:
  40:../../DaisySP/Source/Utility/dsp.h **** }
 1282              		.loc 13 40 5 view .LVU323
  40:../../DaisySP/Source/Utility/dsp.h **** }
 1283              		.loc 13 40 5 is_stmt 0 view .LVU324
 1284              		.thumb
ARM GAS  /var/folders/hl/qgbwny5j0fd895c2c41bk3tw0000gp/T//ccj2i8el.s 			page 44


 1285              		.syntax unified
 1286              	.LBE667:
 1287              	.LBE666:
 1288              	.LBB668:
 1289              	.LBI668:
  43:../../DaisySP/Source/Utility/dsp.h **** {
 1290              		.loc 13 43 14 is_stmt 1 view .LVU325
 1291              	.LBB669:
  45:../../DaisySP/Source/Utility/dsp.h **** #ifdef __arm__
 1292              		.loc 13 45 5 view .LVU326
  47:../../DaisySP/Source/Utility/dsp.h **** #else
 1293              		.loc 13 47 5 view .LVU327
 1294              		.syntax unified
 1295              	@ 47 "../../DaisySP/Source/Utility/dsp.h" 1
 1296 00c8 C8FEE78A 		vminnm.f32 s17, s17, s15
 1297              	@ 0 "" 2
 1298              	.LVL83:
  51:../../DaisySP/Source/Utility/dsp.h **** }
 1299              		.loc 13 51 5 view .LVU328
  51:../../DaisySP/Source/Utility/dsp.h **** }
 1300              		.loc 13 51 5 is_stmt 0 view .LVU329
 1301              		.thumb
 1302              		.syntax unified
 1303              	.LBE669:
 1304              	.LBE668:
 1305              	.LBE670:
 1306              	.LBE673:
 1307              	.LBE682:
 1308              		.loc 12 82 2 is_stmt 1 view .LVU330
 1309              		.loc 12 82 16 is_stmt 0 view .LVU331
 1310 00cc FFF7FEFF 		bl	_ZN5daisy8patch_sm12DaisyPatchSM11GetAdcValueEi
 1311              	.LVL84:
 1312 00d0 F0EE400A 		vmov.f32	s1, s0
 1313              	.LVL85:
 1314              	.LBB683:
 1315              	.LBI607:
 161:../../DaisySP/Source/Utility/dsp.h **** {
 1316              		.loc 13 161 1 is_stmt 1 view .LVU332
 1317              	.LBE683:
 163:../../DaisySP/Source/Utility/dsp.h ****     {
 1318              		.loc 13 163 5 view .LVU333
 1319              	.LBB684:
 1320              	.LBB621:
 172:../../DaisySP/Source/Utility/dsp.h ****         default: return fclamp(min + in * (max - min), min, max);
 1321              		.loc 13 172 9 view .LVU334
 1322              		.loc 13 173 9 view .LVU335
 1323              		.loc 13 173 18 view .LVU336
 1324              	.LBB618:
 1325              	.LBI609:
  56:../../DaisySP/Source/Utility/dsp.h **** {
 1326              		.loc 13 56 14 view .LVU337
 1327              	.LBE618:
 1328              	.LBE621:
 1329              	.LBE684:
  58:../../DaisySP/Source/Utility/dsp.h **** }
 1330              		.loc 13 58 5 view .LVU338
 1331              	.LBB685:
ARM GAS  /var/folders/hl/qgbwny5j0fd895c2c41bk3tw0000gp/T//ccj2i8el.s 			page 45


 1332              	.LBB622:
 1333              	.LBB619:
 1334              	.LBB613:
 1335              	.LBI613:
  32:../../DaisySP/Source/Utility/dsp.h **** {
 1336              		.loc 13 32 14 view .LVU339
 1337              	.LBB614:
  34:../../DaisySP/Source/Utility/dsp.h **** #ifdef __arm__
 1338              		.loc 13 34 5 view .LVU340
  36:../../DaisySP/Source/Utility/dsp.h **** #else
 1339              		.loc 13 36 5 view .LVU341
 1340              	.LBE614:
 1341              	.LBE613:
 1342              	.LBE619:
 1343              	.LBE622:
 1344              	.LBE685:
  83:Wavetable.cpp **** 	filter.Set(cutoff, q);
 1345              		.loc 12 83 12 is_stmt 0 view .LVU342
 1346 00d4 2B48     		ldr	r0, .L29+48
 1347 00d6 B0EE680A 		vmov.f32	s0, s17
 1348              	.LVL86:
 1349              	.LBB686:
 1350              	.LBB623:
 1351              		.loc 13 173 31 view .LVU343
 1352 00da 70EE880A 		vadd.f32	s1, s1, s16
 1353              	.LVL87:
 1354              	.LBB620:
 1355              	.LBB616:
 1356              	.LBB615:
  36:../../DaisySP/Source/Utility/dsp.h **** #else
 1357              		.loc 13 36 5 view .LVU344
 1358              		.syntax unified
 1359              	@ 36 "../../DaisySP/Source/Utility/dsp.h" 1
 1360 00de C0FE880A 		vmaxnm.f32 s1, s1, s16
 1361              	@ 0 "" 2
 1362              	.LVL88:
  40:../../DaisySP/Source/Utility/dsp.h **** }
 1363              		.loc 13 40 5 is_stmt 1 view .LVU345
  40:../../DaisySP/Source/Utility/dsp.h **** }
 1364              		.loc 13 40 5 is_stmt 0 view .LVU346
 1365              		.thumb
 1366              		.syntax unified
 1367              	.LBE615:
 1368              	.LBE616:
 1369              	.LBB617:
 1370              	.LBI610:
  43:../../DaisySP/Source/Utility/dsp.h **** {
 1371              		.loc 13 43 14 is_stmt 1 view .LVU347
 1372              	.LBB612:
  45:../../DaisySP/Source/Utility/dsp.h **** #ifdef __arm__
 1373              		.loc 13 45 5 view .LVU348
  47:../../DaisySP/Source/Utility/dsp.h **** #else
 1374              		.loc 13 47 5 view .LVU349
 1375              		.syntax unified
 1376              	@ 47 "../../DaisySP/Source/Utility/dsp.h" 1
 1377 00e2 C0FEC90A 		vminnm.f32 s1, s1, s18
 1378              	@ 0 "" 2
ARM GAS  /var/folders/hl/qgbwny5j0fd895c2c41bk3tw0000gp/T//ccj2i8el.s 			page 46


 1379              	.LVL89:
  51:../../DaisySP/Source/Utility/dsp.h **** }
 1380              		.loc 13 51 5 view .LVU350
  51:../../DaisySP/Source/Utility/dsp.h **** }
 1381              		.loc 13 51 5 is_stmt 0 view .LVU351
 1382              		.thumb
 1383              		.syntax unified
 1384              	.LBE612:
 1385              	.LBE617:
 1386              	.LBE620:
 1387              	.LBE623:
 1388              	.LBE686:
 1389              		.loc 12 83 2 is_stmt 1 view .LVU352
 1390              		.loc 12 83 12 is_stmt 0 view .LVU353
 1391 00e6 FFF7FEFF 		bl	_ZN22CFilterButterworth24db3SetEff
 1392              	.LVL90:
  84:Wavetable.cpp **** 
  85:Wavetable.cpp **** 	// wavemod 
  86:Wavetable.cpp **** 	float max_n = fmap(hw.GetAdcValue(CV_4)+hw.GetAdcValue(CV_6), 0.f, 10.f);
 1393              		.loc 12 86 2 is_stmt 1 view .LVU354
 1394              		.loc 12 86 35 is_stmt 0 view .LVU355
 1395 00ea 0321     		movs	r1, #3
 1396 00ec 2046     		mov	r0, r4
 1397 00ee FFF7FEFF 		bl	_ZN5daisy8patch_sm12DaisyPatchSM11GetAdcValueEi
 1398              	.LVL91:
 1399 00f2 F0EE408A 		vmov.f32	s17, s0
 1400              	.LVL92:
 1401              		.loc 12 86 56 view .LVU356
 1402 00f6 0521     		movs	r1, #5
 1403 00f8 2046     		mov	r0, r4
 1404 00fa FFF7FEFF 		bl	_ZN5daisy8patch_sm12DaisyPatchSM11GetAdcValueEi
 1405              	.LVL93:
 1406              	.LBB687:
 1407              	.LBI687:
 161:../../DaisySP/Source/Utility/dsp.h **** {
 1408              		.loc 13 161 1 is_stmt 1 view .LVU357
 1409              	.LBE687:
 163:../../DaisySP/Source/Utility/dsp.h ****     {
 1410              		.loc 13 163 5 view .LVU358
 1411              	.LBB698:
 1412              	.LBB688:
 172:../../DaisySP/Source/Utility/dsp.h ****         default: return fclamp(min + in * (max - min), min, max);
 1413              		.loc 13 172 9 view .LVU359
 1414              		.loc 13 173 9 view .LVU360
 1415              		.loc 13 173 18 view .LVU361
 1416              		.loc 13 173 31 is_stmt 0 view .LVU362
 1417 00fe B2EE047A 		vmov.f32	s14, #1.0e+1
 1418              	.LBE688:
 1419              	.LBE698:
 1420              		.loc 12 86 20 view .LVU363
 1421 0102 38EE800A 		vadd.f32	s0, s17, s0
 1422              	.LVL94:
  87:Wavetable.cpp **** 	wv.SetMod(max_n);
  88:Wavetable.cpp **** 
  89:Wavetable.cpp **** 	float attack = fmap(hw.GetAdcValue(ADC_9), 0.f, 1.f);
 1423              		.loc 12 89 21 view .LVU364
 1424 0106 0821     		movs	r1, #8
ARM GAS  /var/folders/hl/qgbwny5j0fd895c2c41bk3tw0000gp/T//ccj2i8el.s 			page 47


 1425              	.LBB699:
 1426              	.LBB695:
 1427              		.loc 13 173 31 view .LVU365
 1428 0108 F0EE487A 		vmov.f32	s15, s16
 1429              	.LBE695:
 1430              	.LBE699:
 1431              		.loc 12 89 21 view .LVU366
 1432 010c 2046     		mov	r0, r4
 1433              	.LBB700:
 1434              	.LBB696:
 1435              		.loc 13 173 31 view .LVU367
 1436 010e E0EE077A 		vfma.f32	s15, s0, s14
 1437              	.LVL95:
 1438              	.LBB689:
 1439              	.LBI689:
  56:../../DaisySP/Source/Utility/dsp.h **** {
 1440              		.loc 13 56 14 is_stmt 1 view .LVU368
 1441              	.LBE689:
 1442              	.LBE696:
 1443              	.LBE700:
  58:../../DaisySP/Source/Utility/dsp.h **** }
 1444              		.loc 13 58 5 view .LVU369
 1445              	.LBB701:
 1446              	.LBB697:
 1447              	.LBB694:
 1448              	.LBB690:
 1449              	.LBI690:
  32:../../DaisySP/Source/Utility/dsp.h **** {
 1450              		.loc 13 32 14 view .LVU370
 1451              	.LBB691:
  34:../../DaisySP/Source/Utility/dsp.h **** #ifdef __arm__
 1452              		.loc 13 34 5 view .LVU371
  36:../../DaisySP/Source/Utility/dsp.h **** #else
 1453              		.loc 13 36 5 view .LVU372
 1454              		.syntax unified
 1455              	@ 36 "../../DaisySP/Source/Utility/dsp.h" 1
 1456 0112 C7FE887A 		vmaxnm.f32 s15, s15, s16
 1457              	@ 0 "" 2
 1458              	.LVL96:
  40:../../DaisySP/Source/Utility/dsp.h **** }
 1459              		.loc 13 40 5 view .LVU373
  40:../../DaisySP/Source/Utility/dsp.h **** }
 1460              		.loc 13 40 5 is_stmt 0 view .LVU374
 1461              		.thumb
 1462              		.syntax unified
 1463              	.LBE691:
 1464              	.LBE690:
 1465              	.LBB692:
 1466              	.LBI692:
  43:../../DaisySP/Source/Utility/dsp.h **** {
 1467              		.loc 13 43 14 is_stmt 1 view .LVU375
 1468              	.LBB693:
  45:../../DaisySP/Source/Utility/dsp.h **** #ifdef __arm__
 1469              		.loc 13 45 5 view .LVU376
  47:../../DaisySP/Source/Utility/dsp.h **** #else
 1470              		.loc 13 47 5 view .LVU377
 1471              		.syntax unified
ARM GAS  /var/folders/hl/qgbwny5j0fd895c2c41bk3tw0000gp/T//ccj2i8el.s 			page 48


 1472              	@ 47 "../../DaisySP/Source/Utility/dsp.h" 1
 1473 0116 C7FEC77A 		vminnm.f32 s15, s15, s14
 1474              	@ 0 "" 2
 1475              	.LVL97:
  51:../../DaisySP/Source/Utility/dsp.h **** }
 1476              		.loc 13 51 5 view .LVU378
  51:../../DaisySP/Source/Utility/dsp.h **** }
 1477              		.loc 13 51 5 is_stmt 0 view .LVU379
 1478              		.thumb
 1479              		.syntax unified
 1480              	.LBE693:
 1481              	.LBE692:
 1482              	.LBE694:
 1483              	.LBE697:
 1484              	.LBE701:
  87:Wavetable.cpp **** 
 1485              		.loc 12 87 2 is_stmt 1 view .LVU380
 1486              	.LBB702:
 1487              	.LBI702:
  49:baby_osc.h    ****     }
  50:baby_osc.h    **** 
  51:baby_osc.h    **** 
  52:baby_osc.h    ****     /** Sets the amplitude of the waveform.
  53:baby_osc.h    ****     */
  54:baby_osc.h    ****     inline void SetAmp(const float a) { amp_ = a; }
  55:baby_osc.h    **** 
  56:baby_osc.h    ****     /** Modifier to apply to signal (1 - 10)
  57:baby_osc.h    ****     */
  58:baby_osc.h    ****    inline void SetMod(const float n) { mod_ = n; };
 1488              		.loc 10 58 16 view .LVU381
 1489              	.LBB703:
 1490              		.loc 10 58 40 view .LVU382
 1491              		.loc 10 58 45 is_stmt 0 view .LVU383
 1492 011a C5ED007A 		vstr.32	s15, [r5]
 1493              	.LVL98:
 1494              		.loc 10 58 45 view .LVU384
 1495              	.LBE703:
 1496              	.LBE702:
 1497              		.loc 12 89 2 is_stmt 1 view .LVU385
 1498              		.loc 12 89 21 is_stmt 0 view .LVU386
 1499 011e FFF7FEFF 		bl	_ZN5daisy8patch_sm12DaisyPatchSM11GetAdcValueEi
 1500              	.LVL99:
 1501              	.LBB704:
 1502              	.LBI704:
 161:../../DaisySP/Source/Utility/dsp.h **** {
 1503              		.loc 13 161 1 is_stmt 1 view .LVU387
 1504              	.LBE704:
 163:../../DaisySP/Source/Utility/dsp.h ****     {
 1505              		.loc 13 163 5 view .LVU388
 1506              	.LBB722:
 1507              	.LBB705:
 172:../../DaisySP/Source/Utility/dsp.h ****         default: return fclamp(min + in * (max - min), min, max);
 1508              		.loc 13 172 9 view .LVU389
 1509              		.loc 13 173 9 view .LVU390
 1510              		.loc 13 173 18 view .LVU391
 1511              	.LBB706:
 1512              	.LBI706:
ARM GAS  /var/folders/hl/qgbwny5j0fd895c2c41bk3tw0000gp/T//ccj2i8el.s 			page 49


  56:../../DaisySP/Source/Utility/dsp.h **** {
 1513              		.loc 13 56 14 view .LVU392
 1514              	.LBE706:
 1515              	.LBE705:
 1516              	.LBE722:
  58:../../DaisySP/Source/Utility/dsp.h **** }
 1517              		.loc 13 58 5 view .LVU393
 1518              	.LBB723:
 1519              	.LBB718:
 1520              	.LBB715:
 1521              	.LBB707:
 1522              	.LBI707:
  32:../../DaisySP/Source/Utility/dsp.h **** {
 1523              		.loc 13 32 14 view .LVU394
 1524              	.LBB708:
  34:../../DaisySP/Source/Utility/dsp.h **** #ifdef __arm__
 1525              		.loc 13 34 5 view .LVU395
  36:../../DaisySP/Source/Utility/dsp.h **** #else
 1526              		.loc 13 36 5 view .LVU396
 1527              	.LBE708:
 1528              	.LBE707:
 1529              	.LBE715:
 1530              	.LBE718:
 1531              	.LBE723:
  90:Wavetable.cpp **** 	float decay = fmap(hw.GetAdcValue(ADC_10), 0.f, 1.f);
 1532              		.loc 12 90 20 is_stmt 0 view .LVU397
 1533 0122 0921     		movs	r1, #9
 1534 0124 2046     		mov	r0, r4
 1535              	.LBB724:
 1536              	.LBB719:
 1537              		.loc 13 173 31 view .LVU398
 1538 0126 70EE088A 		vadd.f32	s17, s0, s16
 1539              	.LVL100:
 1540              		.loc 13 173 31 view .LVU399
 1541              	.LBE719:
 1542              	.LBE724:
 1543              		.loc 12 90 20 view .LVU400
 1544 012a FFF7FEFF 		bl	_ZN5daisy8patch_sm12DaisyPatchSM11GetAdcValueEi
 1545              	.LVL101:
 1546              	.LBB725:
 1547              	.LBB726:
  58:../../DaisySP/Source/Control/adenv.h ****     /** Sets the amount of curve applied. A positve value will create a log
 1548              		.loc 9 58 71 view .LVU401
 1549 012e 164B     		ldr	r3, .L29+52
 1550              	.LBE726:
 1551              	.LBE725:
 1552              	.LBB729:
 1553              	.LBB730:
 1554              		.loc 13 173 31 view .LVU402
 1555 0130 30EE080A 		vadd.f32	s0, s0, s16
 1556              	.LBE730:
 1557              	.LBE729:
 1558              	.LBB743:
 1559              	.LBB720:
 1560              	.LBB716:
 1561              	.LBB710:
 1562              	.LBB709:
ARM GAS  /var/folders/hl/qgbwny5j0fd895c2c41bk3tw0000gp/T//ccj2i8el.s 			page 50


  36:../../DaisySP/Source/Utility/dsp.h **** #else
 1563              		.loc 13 36 5 view .LVU403
 1564              		.syntax unified
 1565              	@ 36 "../../DaisySP/Source/Utility/dsp.h" 1
 1566 0134 C8FE888A 		vmaxnm.f32 s17, s17, s16
 1567              	@ 0 "" 2
 1568              	.LVL102:
  40:../../DaisySP/Source/Utility/dsp.h **** }
 1569              		.loc 13 40 5 is_stmt 1 view .LVU404
  40:../../DaisySP/Source/Utility/dsp.h **** }
 1570              		.loc 13 40 5 is_stmt 0 view .LVU405
 1571              		.thumb
 1572              		.syntax unified
 1573              	.LBE709:
 1574              	.LBE710:
 1575              	.LBB711:
 1576              	.LBI711:
  43:../../DaisySP/Source/Utility/dsp.h **** {
 1577              		.loc 13 43 14 is_stmt 1 view .LVU406
 1578              	.LBB712:
  45:../../DaisySP/Source/Utility/dsp.h **** #ifdef __arm__
 1579              		.loc 13 45 5 view .LVU407
  47:../../DaisySP/Source/Utility/dsp.h **** #else
 1580              		.loc 13 47 5 view .LVU408
 1581              	.LBE712:
 1582              	.LBE711:
 1583              	.LBE716:
 1584              	.LBE720:
 1585              	.LBE743:
 1586              	.LBB744:
 1587              	.LBB740:
 1588              	.LBB731:
 1589              	.LBB732:
 1590              	.LBB733:
  36:../../DaisySP/Source/Utility/dsp.h **** #else
 1591              		.loc 13 36 5 is_stmt 0 view .LVU409
 1592              		.syntax unified
 1593              	@ 36 "../../DaisySP/Source/Utility/dsp.h" 1
 1594 0138 80FE088A 		vmaxnm.f32 s16, s0, s16
 1595              	@ 0 "" 2
 1596              		.thumb
 1597              		.syntax unified
 1598              	.LBE733:
 1599              	.LBE732:
 1600              	.LBE731:
 1601              	.LBE740:
 1602              	.LBE744:
 1603              	.LBB745:
 1604              	.LBB721:
 1605              	.LBB717:
 1606              	.LBB714:
 1607              	.LBB713:
  47:../../DaisySP/Source/Utility/dsp.h **** #else
 1608              		.loc 13 47 5 view .LVU410
 1609              		.syntax unified
 1610              	@ 47 "../../DaisySP/Source/Utility/dsp.h" 1
 1611 013c C8FEC98A 		vminnm.f32 s17, s17, s18
ARM GAS  /var/folders/hl/qgbwny5j0fd895c2c41bk3tw0000gp/T//ccj2i8el.s 			page 51


 1612              	@ 0 "" 2
 1613              	.LVL103:
  51:../../DaisySP/Source/Utility/dsp.h **** }
 1614              		.loc 13 51 5 is_stmt 1 view .LVU411
  51:../../DaisySP/Source/Utility/dsp.h **** }
 1615              		.loc 13 51 5 is_stmt 0 view .LVU412
 1616              		.thumb
 1617              		.syntax unified
 1618              	.LBE713:
 1619              	.LBE714:
 1620              	.LBE717:
 1621              	.LBE721:
 1622              	.LBE745:
 1623              		.loc 12 90 2 is_stmt 1 view .LVU413
 1624              	.LBB746:
 1625              	.LBI729:
 161:../../DaisySP/Source/Utility/dsp.h **** {
 1626              		.loc 13 161 1 view .LVU414
 1627              	.LBE746:
 163:../../DaisySP/Source/Utility/dsp.h ****     {
 1628              		.loc 13 163 5 view .LVU415
 1629              	.LBB747:
 1630              	.LBB741:
 172:../../DaisySP/Source/Utility/dsp.h ****         default: return fclamp(min + in * (max - min), min, max);
 1631              		.loc 13 172 9 view .LVU416
 1632              		.loc 13 173 9 view .LVU417
 1633              		.loc 13 173 18 view .LVU418
 1634              	.LBB738:
 1635              	.LBI731:
  56:../../DaisySP/Source/Utility/dsp.h **** {
 1636              		.loc 13 56 14 view .LVU419
 1637              	.LBE738:
 1638              	.LBE741:
 1639              	.LBE747:
  58:../../DaisySP/Source/Utility/dsp.h **** }
 1640              		.loc 13 58 5 view .LVU420
 1641              	.LBB748:
 1642              	.LBB742:
 1643              	.LBB739:
 1644              	.LBB735:
 1645              	.LBI732:
  32:../../DaisySP/Source/Utility/dsp.h **** {
 1646              		.loc 13 32 14 view .LVU421
 1647              	.LBB734:
  34:../../DaisySP/Source/Utility/dsp.h **** #ifdef __arm__
 1648              		.loc 13 34 5 view .LVU422
  36:../../DaisySP/Source/Utility/dsp.h **** #else
 1649              		.loc 13 36 5 view .LVU423
  40:../../DaisySP/Source/Utility/dsp.h **** }
 1650              		.loc 13 40 5 view .LVU424
  40:../../DaisySP/Source/Utility/dsp.h **** }
 1651              		.loc 13 40 5 is_stmt 0 view .LVU425
 1652              	.LBE734:
 1653              	.LBE735:
 1654              	.LBB736:
 1655              	.LBI736:
  43:../../DaisySP/Source/Utility/dsp.h **** {
ARM GAS  /var/folders/hl/qgbwny5j0fd895c2c41bk3tw0000gp/T//ccj2i8el.s 			page 52


 1656              		.loc 13 43 14 is_stmt 1 view .LVU426
 1657              	.LBB737:
  45:../../DaisySP/Source/Utility/dsp.h **** #ifdef __arm__
 1658              		.loc 13 45 5 view .LVU427
  47:../../DaisySP/Source/Utility/dsp.h **** #else
 1659              		.loc 13 47 5 view .LVU428
 1660              		.syntax unified
 1661              	@ 47 "../../DaisySP/Source/Utility/dsp.h" 1
 1662 0140 88FE498A 		vminnm.f32 s16, s16, s18
 1663              	@ 0 "" 2
 1664              	.LVL104:
  51:../../DaisySP/Source/Utility/dsp.h **** }
 1665              		.loc 13 51 5 view .LVU429
  51:../../DaisySP/Source/Utility/dsp.h **** }
 1666              		.loc 13 51 5 is_stmt 0 view .LVU430
 1667              		.thumb
 1668              		.syntax unified
 1669              	.LBE737:
 1670              	.LBE736:
 1671              	.LBE739:
 1672              	.LBE742:
 1673              	.LBE748:
  91:Wavetable.cpp **** 	env.SetTime(ADENV_SEG_ATTACK, attack);
 1674              		.loc 12 91 2 is_stmt 1 view .LVU431
 1675              	.LBB749:
 1676              	.LBI725:
  58:../../DaisySP/Source/Control/adenv.h ****     /** Sets the amount of curve applied. A positve value will create a log
 1677              		.loc 9 58 17 view .LVU432
 1678              	.LBB727:
  58:../../DaisySP/Source/Control/adenv.h ****     /** Sets the amount of curve applied. A positve value will create a log
 1679              		.loc 9 58 52 view .LVU433
  58:../../DaisySP/Source/Control/adenv.h ****     /** Sets the amount of curve applied. A positve value will create a log
 1680              		.loc 9 58 52 is_stmt 0 view .LVU434
 1681              	.LBE727:
 1682              	.LBE749:
  92:Wavetable.cpp **** 	env.SetTime(ADENV_SEG_DECAY, decay);
 1683              		.loc 12 92 2 is_stmt 1 view .LVU435
 1684              	.LBB750:
 1685              	.LBI750:
  58:../../DaisySP/Source/Control/adenv.h ****     /** Sets the amount of curve applied. A positve value will create a log
 1686              		.loc 9 58 17 view .LVU436
 1687              	.LBB751:
  58:../../DaisySP/Source/Control/adenv.h ****     /** Sets the amount of curve applied. A positve value will create a log
 1688              		.loc 9 58 52 view .LVU437
 1689              	.LBE751:
 1690              	.LBE750:
 1691              	.LBB753:
 1692              	.LBB728:
  58:../../DaisySP/Source/Control/adenv.h ****     /** Sets the amount of curve applied. A positve value will create a log
 1693              		.loc 9 58 71 is_stmt 0 view .LVU438
 1694 0144 C3ED028A 		vstr.32	s17, [r3, #8]
 1695              	.LBE728:
 1696              	.LBE753:
 1697              	.LBB754:
 1698              	.LBB752:
 1699 0148 83ED038A 		vstr.32	s16, [r3, #12]
 1700              	.LVL105:
ARM GAS  /var/folders/hl/qgbwny5j0fd895c2c41bk3tw0000gp/T//ccj2i8el.s 			page 53


  58:../../DaisySP/Source/Control/adenv.h ****     /** Sets the amount of curve applied. A positve value will create a log
 1701              		.loc 9 58 71 view .LVU439
 1702              	.LBE752:
 1703              	.LBE754:
  93:Wavetable.cpp **** 
  94:Wavetable.cpp **** }...
 1704              		.loc 12 94 1 view .LVU440
 1705 014c BDEC048B 		vldm	sp!, {d8-d9}
 1706              		.cfi_restore 82
 1707              		.cfi_restore 83
 1708              		.cfi_restore 80
 1709              		.cfi_restore 81
 1710              		.cfi_def_cfa_offset 16
 1711              	.LVL106:
 1712              		.loc 12 94 1 view .LVU441
 1713 0150 38BD     		pop	{r3, r4, r5, pc}
 1714              	.L30:
 1715              		.loc 12 94 1 view .LVU442
 1716 0152 00BF     		.align	2
 1717              	.L29:
 1718 0154 00000000 		.word	.LANCHOR18
 1719 0158 00000000 		.word	.LANCHOR19
 1720 015c 00000000 		.word	.LANCHOR16
 1721 0160 00001042 		.word	1108344832
 1722 0164 00000000 		.word	.LANCHOR9
 1723 0168 00000000 		.word	0
 1724 016c 00007042 		.word	1114636288
 1725 0170 0000C042 		.word	1119879168
 1726 0174 00008A42 		.word	1116340224
 1727 0178 0000FE42 		.word	1123942400
 1728 017c 0000DC43 		.word	1138491392
 1729 0180 0044AC46 		.word	1185694720
 1730 0184 00000000 		.word	.LANCHOR20
 1731 0188 00000000 		.word	.LANCHOR21
 1732              		.cfi_endproc
 1733              	.LFE4816:
 1735              		.section	.text._Z13AudioCallbackPKPKfPPfj,"ax",%progbits
 1736              		.align	1
 1737              		.p2align 2,,3
 1738              		.global	_Z13AudioCallbackPKPKfPPfj
 1739              		.syntax unified
 1740              		.thumb
 1741              		.thumb_func
 1742              		.fpu fpv5-d16
 1744              	_Z13AudioCallbackPKPKfPPfj:
 1745              	.LVL107:
 1746              	.LFB4814:
  28:Wavetable.cpp **** {
 1747              		.loc 12 28 1 is_stmt 1 view -0
 1748              		.cfi_startproc
 1749              		@ args = 0, pretend = 0, frame = 0
 1750              		@ frame_needed = 0, uses_anonymous_args = 0
  29:Wavetable.cpp **** 	ControlUpdate();
 1751              		.loc 12 29 2 view .LVU444
  28:Wavetable.cpp **** {
 1752              		.loc 12 28 1 is_stmt 0 view .LVU445
 1753 0000 2DE9F041 		push	{r4, r5, r6, r7, r8, lr}
ARM GAS  /var/folders/hl/qgbwny5j0fd895c2c41bk3tw0000gp/T//ccj2i8el.s 			page 54


 1754              		.cfi_def_cfa_offset 24
 1755              		.cfi_offset 4, -24
 1756              		.cfi_offset 5, -20
 1757              		.cfi_offset 6, -16
 1758              		.cfi_offset 7, -12
 1759              		.cfi_offset 8, -8
 1760              		.cfi_offset 14, -4
  28:Wavetable.cpp **** {
 1761              		.loc 12 28 1 view .LVU446
 1762 0004 1546     		mov	r5, r2
 1763 0006 8846     		mov	r8, r1
  29:Wavetable.cpp **** 	ControlUpdate();
 1764              		.loc 12 29 15 view .LVU447
 1765 0008 FFF7FEFF 		bl	_Z13ControlUpdatev
 1766              	.LVL108:
  30:Wavetable.cpp **** 	b1.Debounce();
 1767              		.loc 12 30 2 is_stmt 1 view .LVU448
  30:Wavetable.cpp **** 	b1.Debounce();
 1768              		.loc 12 30 13 is_stmt 0 view .LVU449
 1769 000c 1C48     		ldr	r0, .L48
 1770 000e FFF7FEFF 		bl	_ZN5daisy6Switch8DebounceEv
 1771              	.LVL109:
  31:Wavetable.cpp **** 	for (size_t i = 0; i < size; i++)
 1772              		.loc 12 31 2 is_stmt 1 view .LVU450
 1773              	.LBB765:
  31:Wavetable.cpp **** 	for (size_t i = 0; i < size; i++)
 1774              		.loc 12 31 23 view .LVU451
 1775 0012 9DB3     		cbz	r5, .L31
  31:Wavetable.cpp **** 	for (size_t i = 0; i < size; i++)
 1776              		.loc 12 31 14 is_stmt 0 view .LVU452
 1777 0014 0024     		movs	r4, #0
 1778 0016 1A4F     		ldr	r7, .L48
 1779 0018 1A4E     		ldr	r6, .L48+4
 1780 001a 1EE0     		b	.L38
 1781              	.LVL110:
 1782              	.L47:
 1783              	.LBB766:
 1784              	.LBB767:
 1785              	.LBB768:
  25:../../libDaisy/src/hid/gatein.h **** 
  26:../../libDaisy/src/hid/gatein.h ****     /** @brief Initializes the gate input with specified hardware pin
  27:../../libDaisy/src/hid/gatein.h ****      *
  28:../../libDaisy/src/hid/gatein.h ****      *  @param pin_cfg pointer to pin to initialize
  29:../../libDaisy/src/hid/gatein.h ****      *  @param invert True if the pin state is HIGH when 0V is present
  30:../../libDaisy/src/hid/gatein.h ****      *         at the input. False if input signal matches the pin state.
  31:../../libDaisy/src/hid/gatein.h ****      *
  32:../../libDaisy/src/hid/gatein.h ****      *  @note the default for invert is true because it is typical to use
  33:../../libDaisy/src/hid/gatein.h ****      *  an inverting input circuit (e.g. a BJT circuit) for eurorack gate inputs.
  34:../../libDaisy/src/hid/gatein.h ****      */
  35:../../libDaisy/src/hid/gatein.h ****     void Init(dsy_gpio_pin *pin_cfg, bool invert = true);
  36:../../libDaisy/src/hid/gatein.h **** 
  37:../../libDaisy/src/hid/gatein.h ****     /** Trig
  38:../../libDaisy/src/hid/gatein.h ****     Checks current state of gate input.
  39:../../libDaisy/src/hid/gatein.h **** 
  40:../../libDaisy/src/hid/gatein.h ****     @return True if the GPIO just transitioned.
  41:../../libDaisy/src/hid/gatein.h ****     */
  42:../../libDaisy/src/hid/gatein.h ****     bool Trig();
ARM GAS  /var/folders/hl/qgbwny5j0fd895c2c41bk3tw0000gp/T//ccj2i8el.s 			page 55


  43:../../libDaisy/src/hid/gatein.h **** 
  44:../../libDaisy/src/hid/gatein.h ****     /** State
  45:../../libDaisy/src/hid/gatein.h ****     Checks current state of gate input (no state required)
  46:../../libDaisy/src/hid/gatein.h **** 
  47:../../libDaisy/src/hid/gatein.h ****     read function is inverted because of suggested BJT input circuit
  48:../../libDaisy/src/hid/gatein.h ****     */
  49:../../libDaisy/src/hid/gatein.h ****     inline bool State()
  50:../../libDaisy/src/hid/gatein.h ****     {
  51:../../libDaisy/src/hid/gatein.h ****         return invert_ ? !dsy_gpio_read(&pin_) : dsy_gpio_read(&pin_);
 1786              		.loc 3 51 40 view .LVU453
 1787 001c FFF7FEFF 		bl	dsy_gpio_read
 1788              	.LVL111:
 1789              		.loc 3 51 40 view .LVU454
 1790              	.LBE768:
 1791              	.LBE767:
  34:Wavetable.cpp **** 		if(b1.Pressed()||hw.gate_in_1.State()) { env.Trigger(); }
 1792              		.loc 12 34 18 view .LVU455
 1793 0020 18B9     		cbnz	r0, .L34
 1794              	.L36:
  34:Wavetable.cpp **** 		if(b1.Pressed()||hw.gate_in_1.State()) { env.Trigger(); }
 1795              		.loc 12 34 44 is_stmt 1 view .LVU456
 1796              	.LVL112:
 1797              	.LBB772:
 1798              	.LBI772:
  56:../../DaisySP/Source/Control/adenv.h ****     /** Sets the length of time (in seconds) for a specific segment. */
 1799              		.loc 9 56 17 view .LVU457
 1800              	.LBB773:
  56:../../DaisySP/Source/Control/adenv.h ****     /** Sets the length of time (in seconds) for a specific segment. */
 1801              		.loc 9 56 29 view .LVU458
  56:../../DaisySP/Source/Control/adenv.h ****     /** Sets the length of time (in seconds) for a specific segment. */
 1802              		.loc 9 56 38 is_stmt 0 view .LVU459
 1803 0022 194B     		ldr	r3, .L48+8
 1804 0024 0122     		movs	r2, #1
 1805 0026 83F83420 		strb	r2, [r3, #52]
 1806              	.LVL113:
 1807              	.L34:
  56:../../DaisySP/Source/Control/adenv.h ****     /** Sets the length of time (in seconds) for a specific segment. */
 1808              		.loc 9 56 38 view .LVU460
 1809              	.LBE773:
 1810              	.LBE772:
  36:Wavetable.cpp **** 		env_out = env.Process();
 1811              		.loc 12 36 3 is_stmt 1 discriminator 2 view .LVU461
  36:Wavetable.cpp **** 		env_out = env.Process();
 1812              		.loc 12 36 24 is_stmt 0 discriminator 2 view .LVU462
 1813 002a 1748     		ldr	r0, .L48+8
 1814 002c FFF7FEFF 		bl	_ZN7daisysp5AdEnv7ProcessEv
 1815              	.LVL114:
  37:Wavetable.cpp **** 		wv.SetAmp(env_out);
 1816              		.loc 12 37 3 is_stmt 1 discriminator 2 view .LVU463
 1817              	.LBB774:
 1818              	.LBI774:
  54:baby_osc.h    **** 
 1819              		.loc 10 54 17 discriminator 2 view .LVU464
 1820              	.LBB775:
  54:baby_osc.h    **** 
 1821              		.loc 10 54 41 discriminator 2 view .LVU465
 1822              	.LBE775:
ARM GAS  /var/folders/hl/qgbwny5j0fd895c2c41bk3tw0000gp/T//ccj2i8el.s 			page 56


 1823              	.LBE774:
  38:Wavetable.cpp **** 		wave = wv.Process();
 1824              		.loc 12 38 20 is_stmt 0 discriminator 2 view .LVU466
 1825 0030 1448     		ldr	r0, .L48+4
 1826              	.LBB777:
 1827              	.LBB776:
  54:baby_osc.h    **** 
 1828              		.loc 10 54 46 discriminator 2 view .LVU467
 1829 0032 86ED010A 		vstr.32	s0, [r6, #4]
 1830              	.LVL115:
  54:baby_osc.h    **** 
 1831              		.loc 10 54 46 discriminator 2 view .LVU468
 1832              	.LBE776:
 1833              	.LBE777:
  38:Wavetable.cpp **** 		wave = wv.Process();
 1834              		.loc 12 38 3 is_stmt 1 discriminator 2 view .LVU469
  38:Wavetable.cpp **** 		wave = wv.Process();
 1835              		.loc 12 38 20 is_stmt 0 discriminator 2 view .LVU470
 1836 0036 FFF7FEFF 		bl	_ZN7daisysp14BabyOscillator7ProcessEv
 1837              	.LVL116:
  39:Wavetable.cpp **** 		output = filter.Run(wave);
 1838              		.loc 12 39 3 is_stmt 1 discriminator 2 view .LVU471
  39:Wavetable.cpp **** 		output = filter.Run(wave);
 1839              		.loc 12 39 22 is_stmt 0 discriminator 2 view .LVU472
 1840 003a 1448     		ldr	r0, .L48+12
 1841 003c FFF7FEFF 		bl	_ZN22CFilterButterworth24db3RunEf
 1842              	.LVL117:
  42:Wavetable.cpp **** 		OUT_R[i] = output;
 1843              		.loc 12 42 12 discriminator 2 view .LVU473
 1844 0040 D8E90003 		ldrd	r0, r3, [r8]
 1845              	.LVL118:
  41:Wavetable.cpp **** 		OUT_L[i] = output;
 1846              		.loc 12 41 3 is_stmt 1 discriminator 2 view .LVU474
  41:Wavetable.cpp **** 		OUT_L[i] = output;
 1847              		.loc 12 41 12 is_stmt 0 discriminator 2 view .LVU475
 1848 0044 00EB8400 		add	r0, r0, r4, lsl #2
  42:Wavetable.cpp **** 		OUT_R[i] = output;
 1849              		.loc 12 42 12 discriminator 2 view .LVU476
 1850 0048 03EB8403 		add	r3, r3, r4, lsl #2
 1851              	.LBE766:
  31:Wavetable.cpp **** 	for (size_t i = 0; i < size; i++)
 1852              		.loc 12 31 2 discriminator 2 view .LVU477
 1853 004c 0134     		adds	r4, r4, #1
 1854              	.LVL119:
 1855              	.LBB783:
  41:Wavetable.cpp **** 		OUT_L[i] = output;
 1856              		.loc 12 41 12 discriminator 2 view .LVU478
 1857 004e 80ED000A 		vstr.32	s0, [r0]
  42:Wavetable.cpp **** 		OUT_R[i] = output;
 1858              		.loc 12 42 3 is_stmt 1 discriminator 2 view .LVU479
 1859              	.LBE783:
  31:Wavetable.cpp **** 	for (size_t i = 0; i < size; i++)
 1860              		.loc 12 31 23 is_stmt 0 discriminator 2 view .LVU480
 1861 0052 A542     		cmp	r5, r4
 1862              	.LBB784:
  42:Wavetable.cpp **** 		OUT_R[i] = output;
 1863              		.loc 12 42 12 discriminator 2 view .LVU481
ARM GAS  /var/folders/hl/qgbwny5j0fd895c2c41bk3tw0000gp/T//ccj2i8el.s 			page 57


 1864 0054 83ED000A 		vstr.32	s0, [r3]
 1865              	.LBE784:
  31:Wavetable.cpp **** 	for (size_t i = 0; i < size; i++)
 1866              		.loc 12 31 2 is_stmt 1 discriminator 2 view .LVU482
 1867              	.LVL120:
  31:Wavetable.cpp **** 	for (size_t i = 0; i < size; i++)
 1868              		.loc 12 31 23 discriminator 2 view .LVU483
 1869 0058 10D0     		beq	.L31
 1870              	.LVL121:
 1871              	.L38:
 1872              	.LBB785:
  33:Wavetable.cpp **** 		float env_out, wave, output;
 1873              		.loc 12 33 3 view .LVU484
  34:Wavetable.cpp **** 		if(b1.Pressed()||hw.gate_in_1.State()) { env.Trigger(); }
 1874              		.loc 12 34 3 view .LVU485
 1875              	.LBB778:
 1876              	.LBI778:
 1877              		.loc 1 79 17 view .LVU486
 1878              	.LBB779:
 1879              		.loc 1 79 35 view .LVU487
 1880              		.loc 1 79 35 is_stmt 0 view .LVU488
 1881              	.LBE779:
 1882              	.LBE778:
 1883              	.LBB780:
 1884              	.LBI767:
  49:../../libDaisy/src/hid/gatein.h ****     {
 1885              		.loc 3 49 17 is_stmt 1 view .LVU489
 1886              	.LBB769:
 1887              		.loc 3 51 9 view .LVU490
 1888              	.LBE769:
 1889              	.LBE780:
  34:Wavetable.cpp **** 		if(b1.Pressed()||hw.gate_in_1.State()) { env.Trigger(); }
 1890              		.loc 12 34 18 is_stmt 0 view .LVU491
 1891 005a BA7A     		ldrb	r2, [r7, #10]	@ zero_extendqisi2
 1892              	.LBB781:
 1893              	.LBB770:
 1894              		.loc 3 51 16 view .LVU492
 1895 005c 0C4B     		ldr	r3, .L48+16
 1896              	.LBE770:
 1897              	.LBE781:
  34:Wavetable.cpp **** 		if(b1.Pressed()||hw.gate_in_1.State()) { env.Trigger(); }
 1898              		.loc 12 34 18 view .LVU493
 1899 005e FF2A     		cmp	r2, #255
 1900 0060 DFD0     		beq	.L36
 1901              	.LBB782:
 1902              	.LBB771:
 1903              		.loc 3 51 24 view .LVU494
 1904 0062 93F8B621 		ldrb	r2, [r3, #438]	@ zero_extendqisi2
 1905              		.loc 3 51 40 view .LVU495
 1906 0066 03F5D870 		add	r0, r3, #432
 1907              		.loc 3 51 24 view .LVU496
 1908 006a 002A     		cmp	r2, #0
 1909 006c D6D1     		bne	.L47
 1910              		.loc 3 51 63 view .LVU497
 1911 006e 03F5D870 		add	r0, r3, #432
 1912 0072 FFF7FEFF 		bl	dsy_gpio_read
 1913              	.LVL122:
ARM GAS  /var/folders/hl/qgbwny5j0fd895c2c41bk3tw0000gp/T//ccj2i8el.s 			page 58


 1914              		.loc 3 51 63 view .LVU498
 1915              	.LBE771:
 1916              	.LBE782:
  34:Wavetable.cpp **** 		if(b1.Pressed()||hw.gate_in_1.State()) { env.Trigger(); }
 1917              		.loc 12 34 18 view .LVU499
 1918 0076 0028     		cmp	r0, #0
 1919 0078 D3D1     		bne	.L36
 1920 007a D6E7     		b	.L34
 1921              	.LVL123:
 1922              	.L31:
  34:Wavetable.cpp **** 		if(b1.Pressed()||hw.gate_in_1.State()) { env.Trigger(); }
 1923              		.loc 12 34 18 view .LVU500
 1924              	.LBE785:
 1925              	.LBE765:
  44:Wavetable.cpp **** }
 1926              		.loc 12 44 1 view .LVU501
 1927 007c BDE8F081 		pop	{r4, r5, r6, r7, r8, pc}
 1928              	.LVL124:
 1929              	.L49:
  44:Wavetable.cpp **** }
 1930              		.loc 12 44 1 view .LVU502
 1931              		.align	2
 1932              	.L48:
 1933 0080 00000000 		.word	.LANCHOR16
 1934 0084 00000000 		.word	.LANCHOR19
 1935 0088 00000000 		.word	.LANCHOR21
 1936 008c 00000000 		.word	.LANCHOR20
 1937 0090 00000000 		.word	.LANCHOR18
 1938              		.cfi_endproc
 1939              	.LFE4814:
 1941              		.section	.text.startup._GLOBAL__sub_I__ZN5daisy8patch_sm8gen_led1E,"ax",%progbits
 1942              		.align	1
 1943              		.p2align 2,,3
 1944              		.syntax unified
 1945              		.thumb
 1946              		.thumb_func
 1947              		.fpu fpv5-d16
 1949              	_GLOBAL__sub_I__ZN5daisy8patch_sm8gen_led1E:
 1950              	.LFB5376:
 1951              		.loc 12 94 1 is_stmt 1 view -0
 1952              		.cfi_startproc
 1953              		@ args = 0, pretend = 0, frame = 0
 1954              		@ frame_needed = 0, uses_anonymous_args = 0
 1955              	.LBB910:
 1956              	.LBI910:
 1957              		.loc 12 94 1 view .LVU504
 1958              	.LVL125:
 1959              	.LBB911:
 1960              	.LBB912:
 1961              	.LBI912:
 1962              		.file 14 "../../libDaisy/src/per/gpio.h"
   1:../../libDaisy/src/per/gpio.h **** #pragma once
   2:../../libDaisy/src/per/gpio.h **** #ifndef DSY_GPIO_H
   3:../../libDaisy/src/per/gpio.h **** #define DSY_GPIO_H
   4:../../libDaisy/src/per/gpio.h **** #include "daisy_core.h"
   5:../../libDaisy/src/per/gpio.h **** 
   6:../../libDaisy/src/per/gpio.h **** #ifdef __cplusplus
ARM GAS  /var/folders/hl/qgbwny5j0fd895c2c41bk3tw0000gp/T//ccj2i8el.s 			page 59


   7:../../libDaisy/src/per/gpio.h **** 
   8:../../libDaisy/src/per/gpio.h **** namespace daisy
   9:../../libDaisy/src/per/gpio.h **** {
  10:../../libDaisy/src/per/gpio.h **** /** @brief General Purpose I/O control 
  11:../../libDaisy/src/per/gpio.h ****  *  @details peripheral control over a single GPIO
  12:../../libDaisy/src/per/gpio.h ****  *  @ingroup peripheral
  13:../../libDaisy/src/per/gpio.h ****  *   
  14:../../libDaisy/src/per/gpio.h ****  *  Button Input (with internal Pullup resistor)
  15:../../libDaisy/src/per/gpio.h ****  *  @include GPIO_Input.cpp 
  16:../../libDaisy/src/per/gpio.h ****  * 
  17:../../libDaisy/src/per/gpio.h ****  *  Output Example (perfect for blinking an LED)
  18:../../libDaisy/src/per/gpio.h ****  *  @include GPIO_Output.cpp
  19:../../libDaisy/src/per/gpio.h ****  * 
  20:../../libDaisy/src/per/gpio.h **** */
  21:../../libDaisy/src/per/gpio.h **** class GPIO
  22:../../libDaisy/src/per/gpio.h **** {
  23:../../libDaisy/src/per/gpio.h ****   public:
  24:../../libDaisy/src/per/gpio.h ****     /** @brief Mode of operation for the specified GPIO */
  25:../../libDaisy/src/per/gpio.h ****     enum class Mode
  26:../../libDaisy/src/per/gpio.h ****     {
  27:../../libDaisy/src/per/gpio.h ****         INPUT,     /**< Input for reading state of pin */
  28:../../libDaisy/src/per/gpio.h ****         OUTPUT,    /**< Output w/ push-pull configuration */
  29:../../libDaisy/src/per/gpio.h ****         OUTPUT_OD, /**< Output w/ open-drain configuration */
  30:../../libDaisy/src/per/gpio.h ****         ANALOG,    /**< Analog for connection to ADC or DAC peripheral */
  31:../../libDaisy/src/per/gpio.h ****     };
  32:../../libDaisy/src/per/gpio.h **** 
  33:../../libDaisy/src/per/gpio.h ****     /** @brief Configures whether an internal Pull up or Pull down resistor is used. 
  34:../../libDaisy/src/per/gpio.h ****      *  
  35:../../libDaisy/src/per/gpio.h ****      * Internal Pull up/down resistors are typically 40k ohms, and will be between
  36:../../libDaisy/src/per/gpio.h ****      * 30k and 50k
  37:../../libDaisy/src/per/gpio.h ****      * 
  38:../../libDaisy/src/per/gpio.h ****      * When the Pin is configured in Analog mode, the pull up/down resistors are
  39:../../libDaisy/src/per/gpio.h ****      * disabled by hardware. 
  40:../../libDaisy/src/per/gpio.h ****      */
  41:../../libDaisy/src/per/gpio.h ****     enum class Pull
  42:../../libDaisy/src/per/gpio.h ****     {
  43:../../libDaisy/src/per/gpio.h ****         NOPULL,   /**< No pull up resistor */
  44:../../libDaisy/src/per/gpio.h ****         PULLUP,   /**< Internal pull up enabled */
  45:../../libDaisy/src/per/gpio.h ****         PULLDOWN, /**< Internal pull down enabled*/
  46:../../libDaisy/src/per/gpio.h ****     };
  47:../../libDaisy/src/per/gpio.h **** 
  48:../../libDaisy/src/per/gpio.h ****     /** @brief Output speed controls the drive strength, and slew rate of the pin */
  49:../../libDaisy/src/per/gpio.h ****     enum class Speed
  50:../../libDaisy/src/per/gpio.h ****     {
  51:../../libDaisy/src/per/gpio.h ****         LOW,
  52:../../libDaisy/src/per/gpio.h ****         MEDIUM,
  53:../../libDaisy/src/per/gpio.h ****         HIGH,
  54:../../libDaisy/src/per/gpio.h ****         VERY_HIGH,
  55:../../libDaisy/src/per/gpio.h ****     };
  56:../../libDaisy/src/per/gpio.h **** 
  57:../../libDaisy/src/per/gpio.h ****     /** @brief Configuration for a given GPIO */
  58:../../libDaisy/src/per/gpio.h ****     struct Config
  59:../../libDaisy/src/per/gpio.h ****     {
  60:../../libDaisy/src/per/gpio.h ****         Pin   pin;
  61:../../libDaisy/src/per/gpio.h ****         Mode  mode;
  62:../../libDaisy/src/per/gpio.h ****         Pull  pull;
  63:../../libDaisy/src/per/gpio.h ****         Speed speed;
ARM GAS  /var/folders/hl/qgbwny5j0fd895c2c41bk3tw0000gp/T//ccj2i8el.s 			page 60


  64:../../libDaisy/src/per/gpio.h **** 
  65:../../libDaisy/src/per/gpio.h ****         /** Constructor with no arguments will prepare an invalid GPIO set as
  66:../../libDaisy/src/per/gpio.h ****          *  an input, with no pullup. 
  67:../../libDaisy/src/per/gpio.h ****          */
  68:../../libDaisy/src/per/gpio.h ****         Config()
  69:../../libDaisy/src/per/gpio.h ****         : pin(), mode(Mode::INPUT), pull(Pull::NOPULL), speed(Speed::LOW)
  70:../../libDaisy/src/per/gpio.h ****         {
  71:../../libDaisy/src/per/gpio.h ****         }
  72:../../libDaisy/src/per/gpio.h ****     };
  73:../../libDaisy/src/per/gpio.h **** 
  74:../../libDaisy/src/per/gpio.h ****     GPIO() {}
 1963              		.loc 14 74 5 view .LVU505
 1964              	.LBB913:
 1965              	.LBB914:
 1966              	.LBI914:
  68:../../libDaisy/src/per/gpio.h ****         : pin(), mode(Mode::INPUT), pull(Pull::NOPULL), speed(Speed::LOW)
 1967              		.loc 14 68 9 view .LVU506
 1968              	.LBB915:
 1969              	.LBB916:
 1970              	.LBB917:
 1971              	.LBI917:
 1972              		.file 15 "../../libDaisy/src/daisy_core.h"
   1:../../libDaisy/src/daisy_core.h **** #pragma once
   2:../../libDaisy/src/daisy_core.h **** #ifndef DSY_CORE_HW_H
   3:../../libDaisy/src/daisy_core.h **** #define DSY_CORE_HW_H /**< & */
   4:../../libDaisy/src/daisy_core.h **** #include <stdint.h>
   5:../../libDaisy/src/daisy_core.h **** #include <stdlib.h>
   6:../../libDaisy/src/daisy_core.h **** 
   7:../../libDaisy/src/daisy_core.h **** #if defined(_MSC_VER)
   8:../../libDaisy/src/daisy_core.h **** #define FORCE_INLINE __forceinline /**< & */
   9:../../libDaisy/src/daisy_core.h **** #elif defined(__clang__)
  10:../../libDaisy/src/daisy_core.h **** #define FORCE_INLINE inline __attribute__((always_inline)) /**< & */
  11:../../libDaisy/src/daisy_core.h **** #pragma clang diagnostic ignored "-Wduplicate-decl-specifier"
  12:../../libDaisy/src/daisy_core.h **** #elif defined(__GNUC__)
  13:../../libDaisy/src/daisy_core.h **** #define FORCE_INLINE inline __attribute__((always_inline)) /**< & */
  14:../../libDaisy/src/daisy_core.h **** #else
  15:../../libDaisy/src/daisy_core.h **** #error unknown compiler
  16:../../libDaisy/src/daisy_core.h **** #endif
  17:../../libDaisy/src/daisy_core.h **** 
  18:../../libDaisy/src/daisy_core.h **** /** @addtogroup utility
  19:../../libDaisy/src/daisy_core.h ****     @{
  20:../../libDaisy/src/daisy_core.h **** */
  21:../../libDaisy/src/daisy_core.h **** 
  22:../../libDaisy/src/daisy_core.h **** /** Macro for area of memory that is configured as cacheless
  23:../../libDaisy/src/daisy_core.h **** This should be used primarily for DMA buffers, and the like.
  24:../../libDaisy/src/daisy_core.h **** */
  25:../../libDaisy/src/daisy_core.h **** #define DMA_BUFFER_MEM_SECTION __attribute__((section(".sram1_bss")))
  26:../../libDaisy/src/daisy_core.h **** /** 
  27:../../libDaisy/src/daisy_core.h **** THE DTCM RAM section is also non-cached. However, is not suitable 
  28:../../libDaisy/src/daisy_core.h **** for DMA transfers. Performance is on par with internal SRAM w/ 
  29:../../libDaisy/src/daisy_core.h **** cache enabled.
  30:../../libDaisy/src/daisy_core.h **** */
  31:../../libDaisy/src/daisy_core.h **** #define DTCM_MEM_SECTION __attribute__((section(".dtcmram_bss")))
  32:../../libDaisy/src/daisy_core.h **** 
  33:../../libDaisy/src/daisy_core.h **** #define FBIPMAX 0.999985f             /**< close to 1.0f-LSB at 16 bit */
  34:../../libDaisy/src/daisy_core.h **** #define FBIPMIN (-FBIPMAX)            /**< - (1 - LSB) */
  35:../../libDaisy/src/daisy_core.h **** #define U82F_SCALE 0.0078740f         /**< 1 / 127 */
ARM GAS  /var/folders/hl/qgbwny5j0fd895c2c41bk3tw0000gp/T//ccj2i8el.s 			page 61


  36:../../libDaisy/src/daisy_core.h **** #define F2U8_SCALE 127.0f             /**< 128 - 1 */
  37:../../libDaisy/src/daisy_core.h **** #define S82F_SCALE 0.0078125f         /**< 1 / (2**7) */
  38:../../libDaisy/src/daisy_core.h **** #define F2S8_SCALE 127.0f             /**< (2 ** 7) - 1 */
  39:../../libDaisy/src/daisy_core.h **** #define S162F_SCALE 3.0517578125e-05f /**< 1 / (2** 15) */
  40:../../libDaisy/src/daisy_core.h **** #define F2S16_SCALE 32767.0f          /**< (2 ** 15) - 1 */
  41:../../libDaisy/src/daisy_core.h **** #define F2S24_SCALE 8388608.0f        /**< 2 ** 23 */
  42:../../libDaisy/src/daisy_core.h **** #define S242F_SCALE 1.192092896e-07f  /**< 1 / (2 ** 23) */
  43:../../libDaisy/src/daisy_core.h **** #define S24SIGN 0x800000              /**< 2 ** 23 */
  44:../../libDaisy/src/daisy_core.h **** #define S322F_SCALE 4.6566129e-10f    /**< 1 / (2** 31) */
  45:../../libDaisy/src/daisy_core.h **** #define F2S32_SCALE 2147483647.f      /**< (2 ** 31) - 1 */
  46:../../libDaisy/src/daisy_core.h **** 
  47:../../libDaisy/src/daisy_core.h **** 
  48:../../libDaisy/src/daisy_core.h **** /** shorthand macro for simplifying the reading of the left 
  49:../../libDaisy/src/daisy_core.h ****  *  channel of a non-interleaved output buffer named out */
  50:../../libDaisy/src/daisy_core.h **** #define OUT_L out[0]
  51:../../libDaisy/src/daisy_core.h **** 
  52:../../libDaisy/src/daisy_core.h **** /** shorthand macro for simplifying the reading of the right 
  53:../../libDaisy/src/daisy_core.h ****  *  channel of a non-interleaved output buffer named out */
  54:../../libDaisy/src/daisy_core.h **** #define OUT_R out[1]
  55:../../libDaisy/src/daisy_core.h **** 
  56:../../libDaisy/src/daisy_core.h **** /** shorthand macro for simplifying the reading of the left 
  57:../../libDaisy/src/daisy_core.h ****  *  channel of a non-interleaved input buffer named in */
  58:../../libDaisy/src/daisy_core.h **** #define IN_L in[0]
  59:../../libDaisy/src/daisy_core.h **** 
  60:../../libDaisy/src/daisy_core.h **** /** shorthand macro for simplifying the reading of the right 
  61:../../libDaisy/src/daisy_core.h ****  *  channel of a non-interleaved input buffer named in */
  62:../../libDaisy/src/daisy_core.h **** #define IN_R in[1]
  63:../../libDaisy/src/daisy_core.h **** 
  64:../../libDaisy/src/daisy_core.h **** /** 
  65:../../libDaisy/src/daisy_core.h ****     Computes cube.
  66:../../libDaisy/src/daisy_core.h ****     \param x Number to be cubed
  67:../../libDaisy/src/daisy_core.h ****     \return x ^ 3
  68:../../libDaisy/src/daisy_core.h **** */
  69:../../libDaisy/src/daisy_core.h **** FORCE_INLINE float cube(float x)
  70:../../libDaisy/src/daisy_core.h **** {
  71:../../libDaisy/src/daisy_core.h ****     return (x * x) * x;
  72:../../libDaisy/src/daisy_core.h **** }
  73:../../libDaisy/src/daisy_core.h **** 
  74:../../libDaisy/src/daisy_core.h **** /** 
  75:../../libDaisy/src/daisy_core.h ****     Converts unsigned 8-bit to float
  76:../../libDaisy/src/daisy_core.h ****     \param x Number to be scaled.
  77:../../libDaisy/src/daisy_core.h ****     \return Scaled number.
  78:../../libDaisy/src/daisy_core.h **** */
  79:../../libDaisy/src/daisy_core.h **** FORCE_INLINE float u82f(uint8_t x)
  80:../../libDaisy/src/daisy_core.h **** {
  81:../../libDaisy/src/daisy_core.h ****     return ((float)x - 127.f) * U82F_SCALE;
  82:../../libDaisy/src/daisy_core.h **** }
  83:../../libDaisy/src/daisy_core.h **** 
  84:../../libDaisy/src/daisy_core.h **** /**
  85:../../libDaisy/src/daisy_core.h ****     Converts float to unsigned 8-bit
  86:../../libDaisy/src/daisy_core.h **** */
  87:../../libDaisy/src/daisy_core.h **** FORCE_INLINE uint8_t f2u8(float x)
  88:../../libDaisy/src/daisy_core.h **** {
  89:../../libDaisy/src/daisy_core.h ****     x = x <= FBIPMIN ? FBIPMIN : x;
  90:../../libDaisy/src/daisy_core.h ****     x = x >= FBIPMAX ? FBIPMAX : x;
  91:../../libDaisy/src/daisy_core.h ****     return (uint8_t)((x * F2U8_SCALE) + F2U8_SCALE);
  92:../../libDaisy/src/daisy_core.h **** }
ARM GAS  /var/folders/hl/qgbwny5j0fd895c2c41bk3tw0000gp/T//ccj2i8el.s 			page 62


  93:../../libDaisy/src/daisy_core.h **** 
  94:../../libDaisy/src/daisy_core.h **** 
  95:../../libDaisy/src/daisy_core.h **** /** 
  96:../../libDaisy/src/daisy_core.h ****     Converts Signed 8-bit to float
  97:../../libDaisy/src/daisy_core.h ****     \param x Number to be scaled.
  98:../../libDaisy/src/daisy_core.h ****     \return Scaled number.
  99:../../libDaisy/src/daisy_core.h **** */
 100:../../libDaisy/src/daisy_core.h **** FORCE_INLINE float s82f(int8_t x)
 101:../../libDaisy/src/daisy_core.h **** {
 102:../../libDaisy/src/daisy_core.h ****     return (float)x * S82F_SCALE;
 103:../../libDaisy/src/daisy_core.h **** }
 104:../../libDaisy/src/daisy_core.h **** 
 105:../../libDaisy/src/daisy_core.h **** /**
 106:../../libDaisy/src/daisy_core.h ****     Converts float to Signed 8-bit
 107:../../libDaisy/src/daisy_core.h **** */
 108:../../libDaisy/src/daisy_core.h **** FORCE_INLINE int8_t f2s8(float x)
 109:../../libDaisy/src/daisy_core.h **** {
 110:../../libDaisy/src/daisy_core.h ****     x = x <= FBIPMIN ? FBIPMIN : x;
 111:../../libDaisy/src/daisy_core.h ****     x = x >= FBIPMAX ? FBIPMAX : x;
 112:../../libDaisy/src/daisy_core.h ****     return (int32_t)(x * F2S8_SCALE);
 113:../../libDaisy/src/daisy_core.h **** }
 114:../../libDaisy/src/daisy_core.h **** 
 115:../../libDaisy/src/daisy_core.h **** /** 
 116:../../libDaisy/src/daisy_core.h ****     Converts Signed 16-bit to float
 117:../../libDaisy/src/daisy_core.h ****     \param x Number to be scaled.
 118:../../libDaisy/src/daisy_core.h ****     \return Scaled number.
 119:../../libDaisy/src/daisy_core.h **** */
 120:../../libDaisy/src/daisy_core.h **** FORCE_INLINE float s162f(int16_t x)
 121:../../libDaisy/src/daisy_core.h **** {
 122:../../libDaisy/src/daisy_core.h ****     return (float)x * S162F_SCALE;
 123:../../libDaisy/src/daisy_core.h **** }
 124:../../libDaisy/src/daisy_core.h **** 
 125:../../libDaisy/src/daisy_core.h **** /**
 126:../../libDaisy/src/daisy_core.h ****     Converts float to Signed 16-bit
 127:../../libDaisy/src/daisy_core.h **** */
 128:../../libDaisy/src/daisy_core.h **** FORCE_INLINE int16_t f2s16(float x)
 129:../../libDaisy/src/daisy_core.h **** {
 130:../../libDaisy/src/daisy_core.h ****     x = x <= FBIPMIN ? FBIPMIN : x;
 131:../../libDaisy/src/daisy_core.h ****     x = x >= FBIPMAX ? FBIPMAX : x;
 132:../../libDaisy/src/daisy_core.h ****     return (int32_t)(x * F2S16_SCALE);
 133:../../libDaisy/src/daisy_core.h **** }
 134:../../libDaisy/src/daisy_core.h **** 
 135:../../libDaisy/src/daisy_core.h **** /**
 136:../../libDaisy/src/daisy_core.h ****     Converts Signed 24-bit to float
 137:../../libDaisy/src/daisy_core.h ****  */
 138:../../libDaisy/src/daisy_core.h **** FORCE_INLINE float s242f(int32_t x)
 139:../../libDaisy/src/daisy_core.h **** {
 140:../../libDaisy/src/daisy_core.h ****     x = (x ^ S24SIGN) - S24SIGN; //sign extend aka ((x<<8)>>8)
 141:../../libDaisy/src/daisy_core.h ****     return (float)x * S242F_SCALE;
 142:../../libDaisy/src/daisy_core.h **** }
 143:../../libDaisy/src/daisy_core.h **** /**
 144:../../libDaisy/src/daisy_core.h ****     Converts float to Signed 24-bit
 145:../../libDaisy/src/daisy_core.h ****  */
 146:../../libDaisy/src/daisy_core.h **** FORCE_INLINE int32_t f2s24(float x)
 147:../../libDaisy/src/daisy_core.h **** {
 148:../../libDaisy/src/daisy_core.h ****     x = x <= FBIPMIN ? FBIPMIN : x;
 149:../../libDaisy/src/daisy_core.h ****     x = x >= FBIPMAX ? FBIPMAX : x;
ARM GAS  /var/folders/hl/qgbwny5j0fd895c2c41bk3tw0000gp/T//ccj2i8el.s 			page 63


 150:../../libDaisy/src/daisy_core.h ****     return (int32_t)(x * F2S24_SCALE);
 151:../../libDaisy/src/daisy_core.h **** }
 152:../../libDaisy/src/daisy_core.h **** 
 153:../../libDaisy/src/daisy_core.h **** /**
 154:../../libDaisy/src/daisy_core.h ****     Converts Signed 32-bit to float
 155:../../libDaisy/src/daisy_core.h ****  */
 156:../../libDaisy/src/daisy_core.h **** FORCE_INLINE float s322f(int32_t x)
 157:../../libDaisy/src/daisy_core.h **** {
 158:../../libDaisy/src/daisy_core.h ****     return (float)x * S322F_SCALE;
 159:../../libDaisy/src/daisy_core.h **** }
 160:../../libDaisy/src/daisy_core.h **** /**
 161:../../libDaisy/src/daisy_core.h ****     Converts float to Signed 24-bit
 162:../../libDaisy/src/daisy_core.h ****  */
 163:../../libDaisy/src/daisy_core.h **** FORCE_INLINE int32_t f2s32(float x)
 164:../../libDaisy/src/daisy_core.h **** {
 165:../../libDaisy/src/daisy_core.h ****     x = x <= FBIPMIN ? FBIPMIN : x;
 166:../../libDaisy/src/daisy_core.h ****     x = x >= FBIPMAX ? FBIPMAX : x;
 167:../../libDaisy/src/daisy_core.h ****     return (int32_t)(x * F2S32_SCALE);
 168:../../libDaisy/src/daisy_core.h **** }
 169:../../libDaisy/src/daisy_core.h **** 
 170:../../libDaisy/src/daisy_core.h **** 
 171:../../libDaisy/src/daisy_core.h **** /** Enums and a simple struct for defining a hardware pin on the MCU
 172:../../libDaisy/src/daisy_core.h ****  *  These correlate with the stm32 datasheet, and are used to configure
 173:../../libDaisy/src/daisy_core.h ****  *  the hardware.
 174:../../libDaisy/src/daisy_core.h ****  * 
 175:../../libDaisy/src/daisy_core.h ****  *  This along with the dsy_gpio_pin class should no longer be used.
 176:../../libDaisy/src/daisy_core.h ****  *  They are available for backwards compatability. 
 177:../../libDaisy/src/daisy_core.h ****  * 
 178:../../libDaisy/src/daisy_core.h ****  *  Please use GPIOPort enum and the Pin struct instead.
 179:../../libDaisy/src/daisy_core.h ****  */
 180:../../libDaisy/src/daisy_core.h **** typedef enum
 181:../../libDaisy/src/daisy_core.h **** {
 182:../../libDaisy/src/daisy_core.h ****     DSY_GPIOA, /**< & */
 183:../../libDaisy/src/daisy_core.h ****     DSY_GPIOB, /**< & */
 184:../../libDaisy/src/daisy_core.h ****     DSY_GPIOC, /**< & */
 185:../../libDaisy/src/daisy_core.h ****     DSY_GPIOD, /**< & */
 186:../../libDaisy/src/daisy_core.h ****     DSY_GPIOE, /**< & */
 187:../../libDaisy/src/daisy_core.h ****     DSY_GPIOF, /**< & */
 188:../../libDaisy/src/daisy_core.h ****     DSY_GPIOG, /**< & */
 189:../../libDaisy/src/daisy_core.h ****     DSY_GPIOH, /**< & */
 190:../../libDaisy/src/daisy_core.h ****     DSY_GPIOI, /**< & */
 191:../../libDaisy/src/daisy_core.h ****     DSY_GPIOJ, /**< & */
 192:../../libDaisy/src/daisy_core.h ****     DSY_GPIOK, /**< & */
 193:../../libDaisy/src/daisy_core.h ****     DSY_GPIOX, /** This is a non-existant port for unsupported bits of hardware. */
 194:../../libDaisy/src/daisy_core.h ****     DSY_GPIO_LAST, /** Final enum member */
 195:../../libDaisy/src/daisy_core.h **** } dsy_gpio_port;
 196:../../libDaisy/src/daisy_core.h **** 
 197:../../libDaisy/src/daisy_core.h **** /** Hardware define pins 
 198:../../libDaisy/src/daisy_core.h ****  *  
 199:../../libDaisy/src/daisy_core.h ****  *  The dsy_gpio_pin struct should no longer be used, and is only available for
 200:../../libDaisy/src/daisy_core.h ****  *  backwards compatability.
 201:../../libDaisy/src/daisy_core.h ****  * 
 202:../../libDaisy/src/daisy_core.h ****  *  Please use Pin struct instead.
 203:../../libDaisy/src/daisy_core.h ****  */
 204:../../libDaisy/src/daisy_core.h **** typedef struct
 205:../../libDaisy/src/daisy_core.h **** {
 206:../../libDaisy/src/daisy_core.h ****     dsy_gpio_port port; /**< & */
ARM GAS  /var/folders/hl/qgbwny5j0fd895c2c41bk3tw0000gp/T//ccj2i8el.s 			page 64


 207:../../libDaisy/src/daisy_core.h ****     uint8_t       pin;  /**< number 0-15 */
 208:../../libDaisy/src/daisy_core.h **** } dsy_gpio_pin;
 209:../../libDaisy/src/daisy_core.h **** 
 210:../../libDaisy/src/daisy_core.h **** /** Helper for creating pins from port/pin combos easily
 211:../../libDaisy/src/daisy_core.h ****  * 
 212:../../libDaisy/src/daisy_core.h ****  *  The dsy_gpio_pin struct should no longer be used, and is only available for
 213:../../libDaisy/src/daisy_core.h ****  *  backwards compatability.
 214:../../libDaisy/src/daisy_core.h ****  * 
 215:../../libDaisy/src/daisy_core.h ****  *  Please use Pin struct instead.
 216:../../libDaisy/src/daisy_core.h **** */
 217:../../libDaisy/src/daisy_core.h **** FORCE_INLINE dsy_gpio_pin dsy_pin(dsy_gpio_port port, uint8_t pin)
 218:../../libDaisy/src/daisy_core.h **** {
 219:../../libDaisy/src/daisy_core.h ****     dsy_gpio_pin p;
 220:../../libDaisy/src/daisy_core.h ****     p.port = port;
 221:../../libDaisy/src/daisy_core.h ****     p.pin  = pin;
 222:../../libDaisy/src/daisy_core.h ****     return p;
 223:../../libDaisy/src/daisy_core.h **** }
 224:../../libDaisy/src/daisy_core.h **** 
 225:../../libDaisy/src/daisy_core.h **** /** Helper for testing sameness of two dsy_gpio_pins
 226:../../libDaisy/src/daisy_core.h ****  *  \return    1 if same, 0 if different
 227:../../libDaisy/src/daisy_core.h ****  * 
 228:../../libDaisy/src/daisy_core.h ****  *  The dsy_gpio_pin struct should no longer be used, and is only available for
 229:../../libDaisy/src/daisy_core.h ****  *  backwards compatability.
 230:../../libDaisy/src/daisy_core.h ****  * 
 231:../../libDaisy/src/daisy_core.h ****  *  Please use Pin struct instead.
 232:../../libDaisy/src/daisy_core.h ****  */
 233:../../libDaisy/src/daisy_core.h **** FORCE_INLINE uint8_t dsy_pin_cmp(dsy_gpio_pin *a, dsy_gpio_pin *b)
 234:../../libDaisy/src/daisy_core.h **** {
 235:../../libDaisy/src/daisy_core.h ****     return ((a->port == b->port) && (a->pin == b->pin));
 236:../../libDaisy/src/daisy_core.h **** }
 237:../../libDaisy/src/daisy_core.h **** 
 238:../../libDaisy/src/daisy_core.h **** #ifdef __cplusplus
 239:../../libDaisy/src/daisy_core.h **** 
 240:../../libDaisy/src/daisy_core.h **** namespace daisy
 241:../../libDaisy/src/daisy_core.h **** {
 242:../../libDaisy/src/daisy_core.h **** /** @brief GPIO Port names */
 243:../../libDaisy/src/daisy_core.h **** enum GPIOPort
 244:../../libDaisy/src/daisy_core.h **** {
 245:../../libDaisy/src/daisy_core.h ****     PORTA, /**< Port A */
 246:../../libDaisy/src/daisy_core.h ****     PORTB, /**< Port B */
 247:../../libDaisy/src/daisy_core.h ****     PORTC, /**< Port C */
 248:../../libDaisy/src/daisy_core.h ****     PORTD, /**< Port D */
 249:../../libDaisy/src/daisy_core.h ****     PORTE, /**< Port E */
 250:../../libDaisy/src/daisy_core.h ****     PORTF, /**< Port F */
 251:../../libDaisy/src/daisy_core.h ****     PORTG, /**< Port G */
 252:../../libDaisy/src/daisy_core.h ****     PORTH, /**< Port H */
 253:../../libDaisy/src/daisy_core.h ****     PORTI, /**< Port I */
 254:../../libDaisy/src/daisy_core.h ****     PORTJ, /**< Port J */
 255:../../libDaisy/src/daisy_core.h ****     PORTK, /**< Port K */
 256:../../libDaisy/src/daisy_core.h ****     PORTX, /**< Used as a dummy port to signal an invalid pin. */
 257:../../libDaisy/src/daisy_core.h **** };
 258:../../libDaisy/src/daisy_core.h **** 
 259:../../libDaisy/src/daisy_core.h **** /** @brief representation of hardware port/pin combination */
 260:../../libDaisy/src/daisy_core.h **** struct Pin
 261:../../libDaisy/src/daisy_core.h **** {
 262:../../libDaisy/src/daisy_core.h ****     GPIOPort port;
 263:../../libDaisy/src/daisy_core.h ****     uint8_t  pin;
ARM GAS  /var/folders/hl/qgbwny5j0fd895c2c41bk3tw0000gp/T//ccj2i8el.s 			page 65


 264:../../libDaisy/src/daisy_core.h **** 
 265:../../libDaisy/src/daisy_core.h ****     /** @brief Constructor creates a valid pin. 
 266:../../libDaisy/src/daisy_core.h ****      *  @param pt GPIOPort between PA, and PK corresponding to STM32 Port.
 267:../../libDaisy/src/daisy_core.h ****      *  @param pn pin number in range of 0-15
 268:../../libDaisy/src/daisy_core.h ****     */
 269:../../libDaisy/src/daisy_core.h ****     constexpr Pin(const GPIOPort pt, const uint8_t pn) : port(pt), pin(pn) {}
 270:../../libDaisy/src/daisy_core.h **** 
 271:../../libDaisy/src/daisy_core.h ****     /** @brief Basic Constructor creates an invalid Pin object */
 272:../../libDaisy/src/daisy_core.h ****     constexpr Pin() : port(PORTX), pin(255) {}
 1973              		.loc 15 272 15 view .LVU507
 1974              		.loc 15 272 15 is_stmt 0 view .LVU508
 1975              	.LBE917:
 1976              	.LBE916:
 1977              	.LBE915:
 1978              	.LBE914:
 1979              	.LBE913:
 1980              	.LBE912:
 1981              	.LBE911:
 1982              	.LBE910:
 1983              		.loc 12 94 1 view .LVU509
 1984 0000 38B5     		push	{r3, r4, r5, lr}
 1985              		.cfi_def_cfa_offset 16
 1986              		.cfi_offset 3, -16
 1987              		.cfi_offset 4, -12
 1988              		.cfi_offset 5, -8
 1989              		.cfi_offset 14, -4
 1990              	.LBB1115:
 1991              	.LBB1112:
 1992              	.LBB930:
 1993              	.LBB931:
 1994              		.loc 14 74 12 view .LVU510
 1995 0002 494A     		ldr	r2, .L52
 1996              	.LBE931:
 1997              	.LBE930:
 1998              	.LBB941:
 1999              	.LBB927:
 2000              	.LBB924:
 2001              	.LBB921:
 2002              	.LBB918:
  69:../../libDaisy/src/per/gpio.h ****         {
 2003              		.loc 14 69 73 view .LVU511
 2004 0004 0024     		movs	r4, #0
 2005              	.LBE918:
 2006              	.LBE921:
 2007              	.LBE924:
 2008              		.loc 14 74 12 view .LVU512
 2009 0006 4FF60B73 		movw	r3, #65291
 2010 000a 4848     		ldr	r0, .L52+4
 2011              	.LBE927:
 2012              	.LBE941:
 2013              	.LBB942:
 2014              	.LBB943:
 2015 000c 4849     		ldr	r1, .L52+8
 2016              	.LBE943:
 2017              	.LBE942:
 2018              	.LBB953:
 2019              	.LBB939:
ARM GAS  /var/folders/hl/qgbwny5j0fd895c2c41bk3tw0000gp/T//ccj2i8el.s 			page 66


 2020              	.LBB932:
 2021              	.LBB933:
 2022              	.LBB934:
  69:../../libDaisy/src/per/gpio.h ****         {
 2023              		.loc 14 69 73 view .LVU513
 2024 000e C2E90034 		strd	r3, r4, [r2]
 2025 0012 C2E90244 		strd	r4, r4, [r2, #8]
 2026              	.LBE934:
 2027              	.LBE933:
 2028              	.LBE932:
 2029              	.LBE939:
 2030              	.LBE953:
 2031              	.LBB954:
 2032              	.LBB955:
 2033              		.loc 14 74 12 view .LVU514
 2034 0016 474A     		ldr	r2, .L52+12
 2035              	.LBB956:
 2036              	.LBB957:
 2037              	.LBB958:
  69:../../libDaisy/src/per/gpio.h ****         {
 2038              		.loc 14 69 73 view .LVU515
 2039 0018 C2E90034 		strd	r3, r4, [r2]
 2040 001c C2E90244 		strd	r4, r4, [r2, #8]
 2041              	.LBE958:
 2042              	.LBE957:
 2043              	.LBE956:
 2044              	.LBE955:
 2045              	.LBE954:
 2046              	.LBB964:
 2047              	.LBB965:
 2048              		.loc 14 74 12 view .LVU516
 2049 0020 454A     		ldr	r2, .L52+16
 2050              	.LBE965:
 2051              	.LBE964:
 2052              	.LBB979:
 2053              	.LBB928:
 2054              	.LBB925:
 2055              	.LBB922:
 2056              	.LBB919:
  69:../../libDaisy/src/per/gpio.h ****         {
 2057              		.loc 14 69 73 view .LVU517
 2058 0022 C0E90034 		strd	r3, r4, [r0]
 2059              	.LBE919:
 2060              	.LBE922:
 2061              	.LBE925:
 2062              	.LBE928:
 2063              	.LBE979:
 2064              	.LBB980:
 2065              	.LBB976:
 2066              	.LBB966:
 2067              	.LBB967:
 2068              	.LBB968:
 2069 0026 C2E90034 		strd	r3, r4, [r2]
 2070              	.LBE968:
 2071              	.LBE967:
 2072              	.LBE966:
 2073              	.LBE976:
ARM GAS  /var/folders/hl/qgbwny5j0fd895c2c41bk3tw0000gp/T//ccj2i8el.s 			page 67


 2074              	.LBE980:
 2075              	.LBB981:
 2076              	.LBB951:
 2077              	.LBB944:
 2078              	.LBB945:
 2079              	.LBB946:
 2080 002a C1E90034 		strd	r3, r4, [r1]
 2081              	.LBE946:
 2082              	.LBE945:
 2083              	.LBE944:
 2084              	.LBE951:
 2085              	.LBE981:
 2086              	.LBB982:
 2087              	.LBB929:
 2088              	.LBB926:
 2089              	.LBB923:
 2090              	.LBB920:
 2091 002e C0E90244 		strd	r4, r4, [r0, #8]
 2092              	.LVL126:
  69:../../libDaisy/src/per/gpio.h ****         {
 2093              		.loc 14 69 73 view .LVU518
 2094              	.LBE920:
 2095              	.LBE923:
 2096              	.LBE926:
 2097              	.LBE929:
 2098              	.LBE982:
 2099              	.LBB983:
 2100              	.LBI930:
 2101              		.loc 14 74 5 is_stmt 1 view .LVU519
 2102              	.LBB940:
 2103              	.LBB938:
 2104              	.LBI932:
  68:../../libDaisy/src/per/gpio.h ****         : pin(), mode(Mode::INPUT), pull(Pull::NOPULL), speed(Speed::LOW)
 2105              		.loc 14 68 9 view .LVU520
 2106              	.LBB937:
 2107              	.LBB936:
 2108              	.LBB935:
 2109              	.LBI935:
 2110              		.loc 15 272 15 view .LVU521
 2111              		.loc 15 272 15 is_stmt 0 view .LVU522
 2112              	.LBE935:
 2113              	.LBE936:
 2114              	.LBE937:
 2115              	.LBE938:
 2116              	.LBE940:
 2117              	.LBE983:
 2118              	.LBB984:
 2119              	.LBI942:
 2120              		.loc 14 74 5 is_stmt 1 view .LVU523
 2121              	.LBB952:
 2122              	.LBB950:
 2123              	.LBI944:
  68:../../libDaisy/src/per/gpio.h ****         : pin(), mode(Mode::INPUT), pull(Pull::NOPULL), speed(Speed::LOW)
 2124              		.loc 14 68 9 view .LVU524
 2125              	.LBB949:
 2126              	.LBB948:
 2127              	.LBB947:
ARM GAS  /var/folders/hl/qgbwny5j0fd895c2c41bk3tw0000gp/T//ccj2i8el.s 			page 68


 2128              	.LBI947:
 2129              		.loc 15 272 15 view .LVU525
 2130              		.loc 15 272 15 is_stmt 0 view .LVU526
 2131              	.LBE947:
  69:../../libDaisy/src/per/gpio.h ****         {
 2132              		.loc 14 69 73 view .LVU527
 2133 0032 C1E90244 		strd	r4, r4, [r1, #8]
 2134              	.LVL127:
  69:../../libDaisy/src/per/gpio.h ****         {
 2135              		.loc 14 69 73 view .LVU528
 2136              	.LBE948:
 2137              	.LBE949:
 2138              	.LBE950:
 2139              	.LBE952:
 2140              	.LBE984:
 2141              	.LBB985:
 2142              	.LBI954:
 2143              		.loc 14 74 5 is_stmt 1 view .LVU529
 2144              	.LBB963:
 2145              	.LBB962:
 2146              	.LBI956:
  68:../../libDaisy/src/per/gpio.h ****         : pin(), mode(Mode::INPUT), pull(Pull::NOPULL), speed(Speed::LOW)
 2147              		.loc 14 68 9 view .LVU530
 2148              	.LBB961:
 2149              	.LBB960:
 2150              	.LBB959:
 2151              	.LBI959:
 2152              		.loc 15 272 15 view .LVU531
 2153              		.loc 15 272 15 is_stmt 0 view .LVU532
 2154              	.LBE959:
 2155              	.LBE960:
 2156              	.LBE961:
 2157              	.LBE962:
 2158              	.LBE963:
 2159              	.LBE985:
 2160              	.LBB986:
 2161              	.LBI986:
 2162              		.loc 14 74 5 is_stmt 1 view .LVU533
 2163              	.LBB987:
 2164              	.LBB988:
 2165              	.LBI988:
  68:../../libDaisy/src/per/gpio.h ****         : pin(), mode(Mode::INPUT), pull(Pull::NOPULL), speed(Speed::LOW)
 2166              		.loc 14 68 9 view .LVU534
 2167              	.LBB989:
 2168              	.LBB990:
 2169              	.LBB991:
 2170              	.LBI991:
 2171              		.loc 15 272 15 view .LVU535
 2172              		.loc 15 272 15 is_stmt 0 view .LVU536
 2173              	.LBE991:
 2174              	.LBE990:
 2175              	.LBE989:
 2176              	.LBE988:
 2177              	.LBE987:
 2178              	.LBE986:
 2179              	.LBB1001:
 2180              	.LBB977:
ARM GAS  /var/folders/hl/qgbwny5j0fd895c2c41bk3tw0000gp/T//ccj2i8el.s 			page 69


 2181              	.LBB974:
 2182              	.LBB972:
 2183              	.LBB970:
  69:../../libDaisy/src/per/gpio.h ****         {
 2184              		.loc 14 69 73 view .LVU537
 2185 0036 C2E90244 		strd	r4, r4, [r2, #8]
 2186              	.LBE970:
 2187              	.LBE972:
 2188              	.LBE974:
 2189              	.LBE977:
 2190              	.LBE1001:
 2191              	.LBB1002:
 2192              	.LBB998:
 2193              		.loc 14 74 12 view .LVU538
 2194 003a 4048     		ldr	r0, .L52+20
 2195              	.LBE998:
 2196              	.LBE1002:
 2197              	.LBB1003:
 2198              	.LBB1004:
 2199 003c 404A     		ldr	r2, .L52+24
 2200              	.LBE1004:
 2201              	.LBE1003:
 2202              	.LBB1015:
 2203              	.LBB1016:
 2204 003e 4149     		ldr	r1, .L52+28
 2205              	.LBE1016:
 2206              	.LBE1015:
 2207              	.LBB1026:
 2208              	.LBB1012:
 2209 0040 1360     		str	r3, [r2]
 2210              	.LBE1012:
 2211              	.LBE1026:
 2212              	.LBB1027:
 2213              	.LBB999:
 2214              	.LBB996:
 2215              	.LBB994:
 2216              	.LBB992:
  69:../../libDaisy/src/per/gpio.h ****         {
 2217              		.loc 14 69 73 view .LVU539
 2218 0042 C0E90034 		strd	r3, r4, [r0]
 2219              	.LBE992:
 2220              	.LBE994:
 2221              	.LBE996:
 2222              	.LBE999:
 2223              	.LBE1027:
 2224              	.LBB1028:
 2225              	.LBB1024:
 2226              	.LBB1017:
 2227              	.LBB1018:
 2228              	.LBB1019:
 2229 0046 C1E90034 		strd	r3, r4, [r1]
 2230 004a C1E90244 		strd	r4, r4, [r1, #8]
 2231              	.LBE1019:
 2232              	.LBE1018:
 2233              	.LBE1017:
 2234              	.LBE1024:
 2235              	.LBE1028:
ARM GAS  /var/folders/hl/qgbwny5j0fd895c2c41bk3tw0000gp/T//ccj2i8el.s 			page 70


  23:daisy_bed.h   ****     Pin newPinD7 = Pin(static_cast<GPIOPort>(oldPinD7.port), oldPinD7.pin);
 2236              		.loc 11 23 18 view .LVU540
 2237 004e 3E4B     		ldr	r3, .L52+32
  25:daisy_bed.h   ****     Pin newPinA9 = Pin(static_cast<GPIOPort>(oldPinA9.port), oldPinA9.pin);
 2238              		.loc 11 25 18 view .LVU541
 2239 0050 3E49     		ldr	r1, .L52+36
 2240              	.LBB1029:
 2241              	.LBB1000:
 2242              	.LBB997:
 2243              	.LBB995:
 2244              	.LBB993:
  69:../../libDaisy/src/per/gpio.h ****         {
 2245              		.loc 14 69 73 view .LVU542
 2246 0052 C0E90244 		strd	r4, r4, [r0, #8]
 2247              	.LVL128:
  69:../../libDaisy/src/per/gpio.h ****         {
 2248              		.loc 14 69 73 view .LVU543
 2249              	.LBE993:
 2250              	.LBE995:
 2251              	.LBE997:
 2252              	.LBE1000:
 2253              	.LBE1029:
 2254              	.LBB1030:
 2255              	.LBI964:
 2256              		.loc 14 74 5 is_stmt 1 view .LVU544
 2257              	.LBB978:
 2258              	.LBB975:
 2259              	.LBI966:
  68:../../libDaisy/src/per/gpio.h ****         : pin(), mode(Mode::INPUT), pull(Pull::NOPULL), speed(Speed::LOW)
 2260              		.loc 14 68 9 view .LVU545
 2261              	.LBB973:
 2262              	.LBB971:
 2263              	.LBB969:
 2264              	.LBI969:
 2265              		.loc 15 272 15 view .LVU546
 2266              		.loc 15 272 15 is_stmt 0 view .LVU547
 2267              	.LBE969:
 2268              	.LBE971:
 2269              	.LBE973:
 2270              	.LBE975:
 2271              	.LBE978:
 2272              	.LBE1030:
 2273              	.LBB1031:
 2274              	.LBI1015:
 2275              		.loc 14 74 5 is_stmt 1 view .LVU548
 2276              	.LBB1025:
 2277              	.LBB1023:
 2278              	.LBI1017:
  68:../../libDaisy/src/per/gpio.h ****         : pin(), mode(Mode::INPUT), pull(Pull::NOPULL), speed(Speed::LOW)
 2279              		.loc 14 68 9 view .LVU549
 2280              	.LBB1022:
 2281              	.LBB1021:
 2282              	.LBB1020:
 2283              	.LBI1020:
 2284              		.loc 15 272 15 view .LVU550
 2285              		.loc 15 272 15 is_stmt 0 view .LVU551
 2286              	.LBE1020:
ARM GAS  /var/folders/hl/qgbwny5j0fd895c2c41bk3tw0000gp/T//ccj2i8el.s 			page 71


 2287              	.LBE1021:
 2288              	.LBE1022:
 2289              	.LBE1023:
 2290              	.LBE1025:
 2291              	.LBE1031:
 2292              	.LBB1032:
 2293              	.LBI1003:
 2294              		.loc 14 74 5 is_stmt 1 view .LVU552
 2295              	.LBB1013:
 2296              	.LBB1005:
 2297              	.LBI1005:
  68:../../libDaisy/src/per/gpio.h ****         : pin(), mode(Mode::INPUT), pull(Pull::NOPULL), speed(Speed::LOW)
 2298              		.loc 14 68 9 view .LVU553
 2299              	.LBB1006:
 2300              	.LBB1007:
 2301              	.LBB1008:
 2302              	.LBI1008:
 2303              		.loc 15 272 15 view .LVU554
 2304              		.loc 15 272 15 is_stmt 0 view .LVU555
 2305              	.LBE1008:
  69:../../libDaisy/src/per/gpio.h ****         {
 2306              		.loc 14 69 73 view .LVU556
 2307 0056 C2E90144 		strd	r4, r4, [r2, #4]
 2308              	.LBE1007:
 2309              	.LBE1006:
 2310              	.LBE1005:
 2311              	.LBE1013:
 2312              	.LBE1032:
  23:daisy_bed.h   ****     Pin newPinD7 = Pin(static_cast<GPIOPort>(oldPinD7.port), oldPinD7.pin);
 2313              		.loc 11 23 18 view .LVU557
 2314 005a 3D48     		ldr	r0, .L52+40
 2315              	.LBB1033:
 2316              	.LBB1014:
 2317              	.LBB1011:
 2318              	.LBB1010:
 2319              	.LBB1009:
  69:../../libDaisy/src/per/gpio.h ****         {
 2320              		.loc 14 69 73 view .LVU558
 2321 005c D460     		str	r4, [r2, #12]
 2322              	.LVL129:
  69:../../libDaisy/src/per/gpio.h ****         {
 2323              		.loc 14 69 73 view .LVU559
 2324              	.LBE1009:
 2325              	.LBE1010:
 2326              	.LBE1011:
 2327              	.LBE1014:
 2328              	.LBE1033:
  23:daisy_bed.h   ****     Pin newPinD7 = Pin(static_cast<GPIOPort>(oldPinD7.port), oldPinD7.pin);
 2329              		.loc 11 23 18 view .LVU560
 2330 005e 1D88     		ldrh	r5, [r3]	@ unaligned
  25:daisy_bed.h   ****     Pin newPinA9 = Pin(static_cast<GPIOPort>(oldPinA9.port), oldPinA9.pin);
 2331              		.loc 11 25 18 view .LVU561
 2332 0060 0988     		ldrh	r1, [r1]	@ unaligned
 2333 0062 3C4B     		ldr	r3, .L52+44
  23:daisy_bed.h   ****     Pin newPinD7 = Pin(static_cast<GPIOPort>(oldPinD7.port), oldPinD7.pin);
 2334              		.loc 11 23 18 view .LVU562
 2335 0064 0580     		strh	r5, [r0]	@ unaligned
ARM GAS  /var/folders/hl/qgbwny5j0fd895c2c41bk3tw0000gp/T//ccj2i8el.s 			page 72


  25:daisy_bed.h   ****     Pin newPinA9 = Pin(static_cast<GPIOPort>(oldPinA9.port), oldPinA9.pin);
 2336              		.loc 11 25 18 view .LVU563
 2337 0066 1980     		strh	r1, [r3]	@ unaligned
 2338              	.LBB1034:
 2339              	.LBB1035:
 2340              	.LBB1036:
 269:../../libDaisy/src/daisy_core.h **** 
 2341              		.loc 15 269 74 view .LVU564
 2342 0068 3B4A     		ldr	r2, .L52+48
 2343              	.LBE1036:
 2344              	.LBE1035:
 2345              	.LBE1034:
  24:daisy_bed.h   ****     dsy_gpio_pin oldPinA9 = DaisyPatchSM::A9;
 2346              		.loc 11 24 55 view .LVU565
 2347 006a 0188     		ldrh	r1, [r0]
 2348              	.LVL130:
 2349              	.LBB1039:
 2350              	.LBI1034:
 269:../../libDaisy/src/daisy_core.h **** 
 2351              		.loc 15 269 15 is_stmt 1 view .LVU566
 2352              	.LBE1039:
  31:daisy_bed.h   ****     Pin newPinD1 = Pin(static_cast<GPIOPort>(oldPinD1.port), oldPinD1.pin);
 2353              		.loc 11 31 18 is_stmt 0 view .LVU567
 2354 006c 3B48     		ldr	r0, .L52+52
 2355              	.LBB1040:
 2356              	.LBB1038:
 2357              	.LBB1037:
 269:../../libDaisy/src/daisy_core.h **** 
 2358              		.loc 15 269 74 view .LVU568
 2359 006e 1180     		strh	r1, [r2]	@ movhi
 2360              	.LVL131:
 269:../../libDaisy/src/daisy_core.h **** 
 2361              		.loc 15 269 74 view .LVU569
 2362              	.LBE1037:
 2363              	.LBE1038:
 2364              	.LBE1040:
  29:daisy_bed.h   ****     Pin newPinD2 = Pin(static_cast<GPIOPort>(oldPinD2.port), oldPinD2.pin);
 2365              		.loc 11 29 18 view .LVU570
 2366 0070 3B49     		ldr	r1, .L52+56
  31:daisy_bed.h   ****     Pin newPinD1 = Pin(static_cast<GPIOPort>(oldPinD1.port), oldPinD1.pin);
 2367              		.loc 11 31 18 view .LVU571
 2368 0072 0088     		ldrh	r0, [r0]	@ unaligned
  29:daisy_bed.h   ****     Pin newPinD2 = Pin(static_cast<GPIOPort>(oldPinD2.port), oldPinD2.pin);
 2369              		.loc 11 29 18 view .LVU572
 2370 0074 0D88     		ldrh	r5, [r1]	@ unaligned
  26:daisy_bed.h   **** 
 2371              		.loc 11 26 55 view .LVU573
 2372 0076 1988     		ldrh	r1, [r3]
 2373              	.LVL132:
 2374              	.LBB1041:
 2375              	.LBI1041:
 269:../../libDaisy/src/daisy_core.h **** 
 2376              		.loc 15 269 15 is_stmt 1 view .LVU574
 2377              	.LBB1042:
 2378              	.LBB1043:
 269:../../libDaisy/src/daisy_core.h **** 
 2379              		.loc 15 269 74 is_stmt 0 view .LVU575
ARM GAS  /var/folders/hl/qgbwny5j0fd895c2c41bk3tw0000gp/T//ccj2i8el.s 			page 73


 2380 0078 3A4B     		ldr	r3, .L52+60
 2381              	.LBE1043:
 2382              	.LBE1042:
 2383              	.LBE1041:
  29:daisy_bed.h   ****     Pin newPinD2 = Pin(static_cast<GPIOPort>(oldPinD2.port), oldPinD2.pin);
 2384              		.loc 11 29 18 view .LVU576
 2385 007a 3B4A     		ldr	r2, .L52+64
 2386              	.LBB1046:
 2387              	.LBB1045:
 2388              	.LBB1044:
 269:../../libDaisy/src/daisy_core.h **** 
 2389              		.loc 15 269 74 view .LVU577
 2390 007c 1980     		strh	r1, [r3]	@ movhi
 2391              	.LVL133:
 269:../../libDaisy/src/daisy_core.h **** 
 2392              		.loc 15 269 74 view .LVU578
 2393              	.LBE1044:
 2394              	.LBE1045:
 2395              	.LBE1046:
  31:daisy_bed.h   ****     Pin newPinD1 = Pin(static_cast<GPIOPort>(oldPinD1.port), oldPinD1.pin);
 2396              		.loc 11 31 18 view .LVU579
 2397 007e 3B4B     		ldr	r3, .L52+68
  29:daisy_bed.h   ****     Pin newPinD2 = Pin(static_cast<GPIOPort>(oldPinD2.port), oldPinD2.pin);
 2398              		.loc 11 29 18 view .LVU580
 2399 0080 1580     		strh	r5, [r2]	@ unaligned
  31:daisy_bed.h   ****     Pin newPinD1 = Pin(static_cast<GPIOPort>(oldPinD1.port), oldPinD1.pin);
 2400              		.loc 11 31 18 view .LVU581
 2401 0082 1880     		strh	r0, [r3]	@ unaligned
  30:daisy_bed.h   ****     dsy_gpio_pin oldPinD1 = DaisyPatchSM::D1;
 2402              		.loc 11 30 55 view .LVU582
 2403 0084 1288     		ldrh	r2, [r2]
 2404              	.LVL134:
 2405              	.LBB1047:
 2406              	.LBI1047:
 269:../../libDaisy/src/daisy_core.h **** 
 2407              		.loc 15 269 15 is_stmt 1 view .LVU583
 2408              	.LBE1047:
  32:daisy_bed.h   ****     // ^^^ {DSY_GPIOB, 4},  /**< D1  - SPI2 CS */
 2409              		.loc 11 32 55 is_stmt 0 view .LVU584
 2410 0086 1D88     		ldrh	r5, [r3]
 2411              	.LBB1052:
 2412              	.LBB1048:
 2413              	.LBB1049:
 269:../../libDaisy/src/daisy_core.h **** 
 2414              		.loc 15 269 74 view .LVU585
 2415 0088 394B     		ldr	r3, .L52+72
 2416              	.LBE1049:
 2417              	.LBE1048:
 2418              	.LBE1052:
  36:daisy_bed.h   ****     Pin newPinD3 = Pin(static_cast<GPIOPort>(oldPinD3.port), oldPinD3.pin);
 2419              		.loc 11 36 18 view .LVU586
 2420 008a 3A49     		ldr	r1, .L52+76
 2421              	.LBB1053:
 2422              	.LBB1051:
 2423              	.LBB1050:
 269:../../libDaisy/src/daisy_core.h **** 
 2424              		.loc 15 269 74 view .LVU587
ARM GAS  /var/folders/hl/qgbwny5j0fd895c2c41bk3tw0000gp/T//ccj2i8el.s 			page 74


 2425 008c 1A80     		strh	r2, [r3]	@ movhi
 2426              	.LVL135:
 269:../../libDaisy/src/daisy_core.h **** 
 2427              		.loc 15 269 74 view .LVU588
 2428              	.LBE1050:
 2429              	.LBE1051:
 2430              	.LBE1053:
 2431              	.LBB1054:
 2432              	.LBI1054:
 269:../../libDaisy/src/daisy_core.h **** 
 2433              		.loc 15 269 15 is_stmt 1 view .LVU589
 2434              	.LBE1054:
  38:daisy_bed.h   ****     Pin newPinD6 = Pin(static_cast<GPIOPort>(oldPinD6.port), oldPinD6.pin);
 2435              		.loc 11 38 18 is_stmt 0 view .LVU590
 2436 008e 3A4B     		ldr	r3, .L52+80
  36:daisy_bed.h   ****     Pin newPinD3 = Pin(static_cast<GPIOPort>(oldPinD3.port), oldPinD3.pin);
 2437              		.loc 11 36 18 view .LVU591
 2438 0090 B1F800E0 		ldrh	lr, [r1]	@ unaligned
  38:daisy_bed.h   ****     Pin newPinD6 = Pin(static_cast<GPIOPort>(oldPinD6.port), oldPinD6.pin);
 2439              		.loc 11 38 18 view .LVU592
 2440 0094 B3F800C0 		ldrh	ip, [r3]	@ unaligned
  40:daisy_bed.h   ****     Pin newPinD4 = Pin(static_cast<GPIOPort>(oldPinD4.port), oldPinD4.pin);
 2441              		.loc 11 40 18 view .LVU593
 2442 0098 384B     		ldr	r3, .L52+84
 2443              	.LBB1059:
 2444              	.LBB1060:
 2445              	.LBB1061:
 269:../../libDaisy/src/daisy_core.h **** 
 2446              		.loc 15 269 74 view .LVU594
 2447 009a 3948     		ldr	r0, .L52+88
 2448              	.LBE1061:
 2449              	.LBE1060:
 2450              	.LBE1059:
  40:daisy_bed.h   ****     Pin newPinD4 = Pin(static_cast<GPIOPort>(oldPinD4.port), oldPinD4.pin);
 2451              		.loc 11 40 18 view .LVU595
 2452 009c 1988     		ldrh	r1, [r3]	@ unaligned
  42:daisy_bed.h   ****     Pin newPinD5 = Pin(static_cast<GPIOPort>(oldPinD5.port), oldPinD5.pin);
 2453              		.loc 11 42 18 view .LVU596
 2454 009e 394B     		ldr	r3, .L52+92
 2455 00a0 1A88     		ldrh	r2, [r3]	@ unaligned
  36:daisy_bed.h   ****     Pin newPinD3 = Pin(static_cast<GPIOPort>(oldPinD3.port), oldPinD3.pin);
 2456              		.loc 11 36 18 view .LVU597
 2457 00a2 394B     		ldr	r3, .L52+96
 2458 00a4 A3F800E0 		strh	lr, [r3]	@ unaligned
  37:daisy_bed.h   ****     dsy_gpio_pin oldPinD6 = DaisyPatchSM::D6;
 2459              		.loc 11 37 55 view .LVU598
 2460 00a8 B3F800E0 		ldrh	lr, [r3]
  38:daisy_bed.h   ****     Pin newPinD6 = Pin(static_cast<GPIOPort>(oldPinD6.port), oldPinD6.pin);
 2461              		.loc 11 38 18 view .LVU599
 2462 00ac 374B     		ldr	r3, .L52+100
 2463 00ae A3F800C0 		strh	ip, [r3]	@ unaligned
  39:daisy_bed.h   ****     dsy_gpio_pin oldPinD4 = DaisyPatchSM::D4;
 2464              		.loc 11 39 55 view .LVU600
 2465 00b2 1B88     		ldrh	r3, [r3]
 2466              	.LBB1064:
 2467              	.LBB1063:
 2468              	.LBB1062:
ARM GAS  /var/folders/hl/qgbwny5j0fd895c2c41bk3tw0000gp/T//ccj2i8el.s 			page 75


 269:../../libDaisy/src/daisy_core.h **** 
 2469              		.loc 15 269 74 view .LVU601
 2470 00b4 0380     		strh	r3, [r0]	@ movhi
 2471              	.LBE1062:
 2472              	.LBE1063:
 2473              	.LBE1064:
  40:daisy_bed.h   ****     Pin newPinD4 = Pin(static_cast<GPIOPort>(oldPinD4.port), oldPinD4.pin);
 2474              		.loc 11 40 18 view .LVU602
 2475 00b6 364B     		ldr	r3, .L52+104
 2476 00b8 1980     		strh	r1, [r3]	@ unaligned
  41:daisy_bed.h   ****     dsy_gpio_pin oldPinD5 = DaisyPatchSM::D5;
 2477              		.loc 11 41 55 view .LVU603
 2478 00ba B3F800C0 		ldrh	ip, [r3]
  42:daisy_bed.h   ****     Pin newPinD5 = Pin(static_cast<GPIOPort>(oldPinD5.port), oldPinD5.pin);
 2479              		.loc 11 42 18 view .LVU604
 2480 00be 354B     		ldr	r3, .L52+108
  48:daisy_bed.h   **** 
 2481              		.loc 11 48 17 view .LVU605
 2482 00c0 3549     		ldr	r1, .L52+112
  42:daisy_bed.h   ****     Pin newPinD5 = Pin(static_cast<GPIOPort>(oldPinD5.port), oldPinD5.pin);
 2483              		.loc 11 42 18 view .LVU606
 2484 00c2 1A80     		strh	r2, [r3]	@ unaligned
  43:daisy_bed.h   **** 
 2485              		.loc 11 43 55 view .LVU607
 2486 00c4 1888     		ldrh	r0, [r3]
 2487              	.LBB1065:
 2488              	.LBB1055:
 2489              	.LBB1056:
 269:../../libDaisy/src/daisy_core.h **** 
 2490              		.loc 15 269 74 view .LVU608
 2491 00c6 354B     		ldr	r3, .L52+116
 2492              	.LBE1056:
 2493              	.LBE1055:
 2494              	.LBE1065:
  48:daisy_bed.h   **** 
 2495              		.loc 11 48 17 view .LVU609
 2496 00c8 354A     		ldr	r2, .L52+120
 2497              	.LBB1066:
 2498              	.LBB1058:
 2499              	.LBB1057:
 269:../../libDaisy/src/daisy_core.h **** 
 2500              		.loc 15 269 74 view .LVU610
 2501 00ca 1D80     		strh	r5, [r3]	@ movhi
 2502              	.LVL136:
 269:../../libDaisy/src/daisy_core.h **** 
 2503              		.loc 15 269 74 view .LVU611
 2504              	.LBE1057:
 2505              	.LBE1058:
 2506              	.LBE1066:
 2507              	.LBB1067:
 2508              	.LBI1067:
 269:../../libDaisy/src/daisy_core.h **** 
 2509              		.loc 15 269 15 is_stmt 1 view .LVU612
 2510              	.LBB1068:
 2511              	.LBB1069:
 269:../../libDaisy/src/daisy_core.h **** 
 2512              		.loc 15 269 74 is_stmt 0 view .LVU613
ARM GAS  /var/folders/hl/qgbwny5j0fd895c2c41bk3tw0000gp/T//ccj2i8el.s 			page 76


 2513 00cc 354B     		ldr	r3, .L52+124
 2514 00ce A3F800E0 		strh	lr, [r3]	@ movhi
 2515              	.LVL137:
 269:../../libDaisy/src/daisy_core.h **** 
 2516              		.loc 15 269 74 view .LVU614
 2517              	.LBE1069:
 2518              	.LBE1068:
 2519              	.LBE1067:
 2520              	.LBB1070:
 2521              	.LBI1059:
 269:../../libDaisy/src/daisy_core.h **** 
 2522              		.loc 15 269 15 is_stmt 1 view .LVU615
 269:../../libDaisy/src/daisy_core.h **** 
 2523              		.loc 15 269 15 is_stmt 0 view .LVU616
 2524              	.LBE1070:
 2525              	.LBB1071:
 2526              	.LBI1071:
 269:../../libDaisy/src/daisy_core.h **** 
 2527              		.loc 15 269 15 is_stmt 1 view .LVU617
 2528              	.LBB1072:
 2529              	.LBB1073:
 269:../../libDaisy/src/daisy_core.h **** 
 2530              		.loc 15 269 74 is_stmt 0 view .LVU618
 2531 00d2 354B     		ldr	r3, .L52+128
 2532 00d4 A3F800C0 		strh	ip, [r3]	@ movhi
 2533              	.LVL138:
 269:../../libDaisy/src/daisy_core.h **** 
 2534              		.loc 15 269 74 view .LVU619
 2535              	.LBE1073:
 2536              	.LBE1072:
 2537              	.LBE1071:
 2538              	.LBB1074:
 2539              	.LBI1074:
 269:../../libDaisy/src/daisy_core.h **** 
 2540              		.loc 15 269 15 is_stmt 1 view .LVU620
 2541              	.LBB1075:
 2542              	.LBB1076:
 269:../../libDaisy/src/daisy_core.h **** 
 2543              		.loc 15 269 74 is_stmt 0 view .LVU621
 2544 00d8 344B     		ldr	r3, .L52+132
 2545 00da 1880     		strh	r0, [r3]	@ movhi
 2546              	.LVL139:
 269:../../libDaisy/src/daisy_core.h **** 
 2547              		.loc 15 269 74 view .LVU622
 2548              	.LBE1076:
 2549              	.LBE1075:
 2550              	.LBE1074:
 2551              	.LBB1077:
 2552              	.LBI1077:
  41:../../libDaisy/src/hid/switch.h ****     ~Switch() {}
 2553              		.loc 1 41 5 is_stmt 1 view .LVU623
  41:../../libDaisy/src/hid/switch.h ****     ~Switch() {}
 2554              		.loc 1 41 5 is_stmt 0 view .LVU624
 2555              	.LBE1077:
  48:daisy_bed.h   **** 
 2556              		.loc 11 48 17 view .LVU625
 2557 00dc 3448     		ldr	r0, .L52+136
ARM GAS  /var/folders/hl/qgbwny5j0fd895c2c41bk3tw0000gp/T//ccj2i8el.s 			page 77


 2558 00de FFF7FEFF 		bl	__aeabi_atexit
 2559              	.LVL140:
 2560              	.LBB1078:
 2561              	.LBI1078:
  41:../../libDaisy/src/hid/switch.h ****     ~Switch() {}
 2562              		.loc 1 41 5 is_stmt 1 view .LVU626
  41:../../libDaisy/src/hid/switch.h ****     ~Switch() {}
 2563              		.loc 1 41 5 is_stmt 0 view .LVU627
 2564              	.LBE1078:
  48:daisy_bed.h   **** 
 2565              		.loc 11 48 20 view .LVU628
 2566 00e2 2F4A     		ldr	r2, .L52+120
 2567 00e4 2C49     		ldr	r1, .L52+112
 2568 00e6 3348     		ldr	r0, .L52+140
 2569 00e8 FFF7FEFF 		bl	__aeabi_atexit
 2570              	.LVL141:
 2571              	.LBB1079:
 2572              	.LBI1079:
  64:../../libDaisy/src/daisy_patch_sm.h ****         ~DaisyPatchSM() {}
 2573              		.loc 2 64 9 is_stmt 1 view .LVU629
 2574              	.LBB1080:
 2575              	.LBB1081:
 2576              	.LBI1081:
  77:../../libDaisy/src/sys/system.h ****     ~System() {}
 2577              		.loc 8 77 5 view .LVU630
  77:../../libDaisy/src/sys/system.h ****     ~System() {}
 2578              		.loc 8 77 5 is_stmt 0 view .LVU631
 2579              	.LBE1081:
 2580              	.LBB1082:
 2581              	.LBI1082:
 2582              		.file 16 "../../libDaisy/src/per/qspi.h"
   1:../../libDaisy/src/per/qspi.h **** #ifndef DSY_QSPI
   2:../../libDaisy/src/per/qspi.h **** #define DSY_QSPI /**< Macro */
   3:../../libDaisy/src/per/qspi.h **** 
   4:../../libDaisy/src/per/qspi.h **** #ifndef UNIT_TEST // for unit tests, a dummy implementation
   5:../../libDaisy/src/per/qspi.h **** 
   6:../../libDaisy/src/per/qspi.h **** #include <cstdint>
   7:../../libDaisy/src/per/qspi.h **** #include "daisy_core.h" // Added for dsy_gpio_pin typedef
   8:../../libDaisy/src/per/qspi.h **** 
   9:../../libDaisy/src/per/qspi.h **** #define DSY_QSPI_TEXT       \
  10:../../libDaisy/src/per/qspi.h ****     __attribute__((section( \
  11:../../libDaisy/src/per/qspi.h ****         ".qspiflash_text"))) /**< used for reading memory in memory_mapped mode. */
  12:../../libDaisy/src/per/qspi.h **** #define DSY_QSPI_DATA       \
  13:../../libDaisy/src/per/qspi.h ****     __attribute__((section( \
  14:../../libDaisy/src/per/qspi.h ****         ".qspiflash_data"))) /**< used for reading memory in memory_mapped mode. */
  15:../../libDaisy/src/per/qspi.h **** #define DSY_QSPI_BSS        \
  16:../../libDaisy/src/per/qspi.h ****     __attribute__((section( \
  17:../../libDaisy/src/per/qspi.h ****         ".qspiflash_bss"))) /**< used for reading memory in memory_mapped mode. */
  18:../../libDaisy/src/per/qspi.h **** 
  19:../../libDaisy/src/per/qspi.h **** namespace daisy
  20:../../libDaisy/src/per/qspi.h **** {
  21:../../libDaisy/src/per/qspi.h **** /** @addtogroup serial
  22:../../libDaisy/src/per/qspi.h **** @{
  23:../../libDaisy/src/per/qspi.h **** */
  24:../../libDaisy/src/per/qspi.h **** 
  25:../../libDaisy/src/per/qspi.h **** /** 
  26:../../libDaisy/src/per/qspi.h ****  Driver for QSPI peripheral to interface with external flash memory. \n 
ARM GAS  /var/folders/hl/qgbwny5j0fd895c2c41bk3tw0000gp/T//ccj2i8el.s 			page 78


  27:../../libDaisy/src/per/qspi.h ****     Currently supported QSPI Devices: \n 
  28:../../libDaisy/src/per/qspi.h ****     * IS25LP080D
  29:../../libDaisy/src/per/qspi.h **** */
  30:../../libDaisy/src/per/qspi.h **** class QSPIHandle
  31:../../libDaisy/src/per/qspi.h **** {
  32:../../libDaisy/src/per/qspi.h ****   public:
  33:../../libDaisy/src/per/qspi.h ****     enum Result
  34:../../libDaisy/src/per/qspi.h ****     {
  35:../../libDaisy/src/per/qspi.h ****         OK = 0,
  36:../../libDaisy/src/per/qspi.h ****         ERR
  37:../../libDaisy/src/per/qspi.h ****     };
  38:../../libDaisy/src/per/qspi.h **** 
  39:../../libDaisy/src/per/qspi.h ****     /** Indicates the current status of the module. 
  40:../../libDaisy/src/per/qspi.h ****          *  Warnings are indicated by a leading W.
  41:../../libDaisy/src/per/qspi.h ****          *  Errors are indicated by a leading E and cause an immediate exit.
  42:../../libDaisy/src/per/qspi.h ****          * 
  43:../../libDaisy/src/per/qspi.h ****          *  \param GOOD - No errors have been reported.
  44:../../libDaisy/src/per/qspi.h ****          *  \param E_HAL_ERROR - HAL code did not return HAL_OK.
  45:../../libDaisy/src/per/qspi.h ****          *  \param E_SWITCHING_MODES - An error was encountered while switching QSPI peripheral mod
  46:../../libDaisy/src/per/qspi.h ****          *  \param E_INVALID_MODE - QSPI should not be written to while the program is executing fr
  47:../../libDaisy/src/per/qspi.h ****          */
  48:../../libDaisy/src/per/qspi.h ****     enum Status
  49:../../libDaisy/src/per/qspi.h ****     {
  50:../../libDaisy/src/per/qspi.h ****         GOOD = 0,
  51:../../libDaisy/src/per/qspi.h ****         E_HAL_ERROR,
  52:../../libDaisy/src/per/qspi.h ****         E_SWITCHING_MODES,
  53:../../libDaisy/src/per/qspi.h ****         E_INVALID_MODE,
  54:../../libDaisy/src/per/qspi.h ****     };
  55:../../libDaisy/src/per/qspi.h **** 
  56:../../libDaisy/src/per/qspi.h ****     /** Configuration structure for interfacing with QSPI Driver */
  57:../../libDaisy/src/per/qspi.h ****     struct Config
  58:../../libDaisy/src/per/qspi.h ****     {
  59:../../libDaisy/src/per/qspi.h ****         /** Flash Devices supported. (Both of these are more-or-less the same, just different sizes
  60:../../libDaisy/src/per/qspi.h ****         enum Device
  61:../../libDaisy/src/per/qspi.h ****         {
  62:../../libDaisy/src/per/qspi.h ****             IS25LP080D,  /**< & */
  63:../../libDaisy/src/per/qspi.h ****             IS25LP064A,  /**< & */
  64:../../libDaisy/src/per/qspi.h ****             DEVICE_LAST, /**< & */
  65:../../libDaisy/src/per/qspi.h ****         };
  66:../../libDaisy/src/per/qspi.h **** 
  67:../../libDaisy/src/per/qspi.h ****         /** 
  68:../../libDaisy/src/per/qspi.h ****         Modes of operation.
  69:../../libDaisy/src/per/qspi.h ****         Memory Mapped mode: QSPI configured so that the QSPI can be
  70:../../libDaisy/src/per/qspi.h ****         read from starting address 0x90000000. Writing is not
  71:../../libDaisy/src/per/qspi.h ****         possible in this mode. \n 
  72:../../libDaisy/src/per/qspi.h ****         Indirect Polling mode: Device driver enabled. 
  73:../../libDaisy/src/per/qspi.h ****         */
  74:../../libDaisy/src/per/qspi.h ****         enum Mode
  75:../../libDaisy/src/per/qspi.h ****         {
  76:../../libDaisy/src/per/qspi.h ****             MEMORY_MAPPED,    /**< & */
  77:../../libDaisy/src/per/qspi.h ****             INDIRECT_POLLING, /**< & */
  78:../../libDaisy/src/per/qspi.h ****             MODE_LAST,
  79:../../libDaisy/src/per/qspi.h ****         };
  80:../../libDaisy/src/per/qspi.h **** 
  81:../../libDaisy/src/per/qspi.h ****         //SCK,  CE# (active low)
  82:../../libDaisy/src/per/qspi.h ****         struct
  83:../../libDaisy/src/per/qspi.h ****         {
ARM GAS  /var/folders/hl/qgbwny5j0fd895c2c41bk3tw0000gp/T//ccj2i8el.s 			page 79


  84:../../libDaisy/src/per/qspi.h ****             dsy_gpio_pin io0; /**< & */
  85:../../libDaisy/src/per/qspi.h ****             dsy_gpio_pin io1; /**< & */
  86:../../libDaisy/src/per/qspi.h ****             dsy_gpio_pin io2; /**< & */
  87:../../libDaisy/src/per/qspi.h ****             dsy_gpio_pin io3; /**< & */
  88:../../libDaisy/src/per/qspi.h ****             dsy_gpio_pin clk; /**< & */
  89:../../libDaisy/src/per/qspi.h ****             dsy_gpio_pin ncs; /**< & */
  90:../../libDaisy/src/per/qspi.h ****         } pin_config;
  91:../../libDaisy/src/per/qspi.h **** 
  92:../../libDaisy/src/per/qspi.h ****         Device device;
  93:../../libDaisy/src/per/qspi.h ****         Mode   mode;
  94:../../libDaisy/src/per/qspi.h ****     };
  95:../../libDaisy/src/per/qspi.h **** 
  96:../../libDaisy/src/per/qspi.h ****     /** 
  97:../../libDaisy/src/per/qspi.h ****         Initializes QSPI peripheral, and Resets, and prepares memory for access.
  98:../../libDaisy/src/per/qspi.h ****         \param config should be populated with the mode, device and pin_config before calling this 
  99:../../libDaisy/src/per/qspi.h ****         \return Result::OK or Result::ERR
 100:../../libDaisy/src/per/qspi.h ****         */
 101:../../libDaisy/src/per/qspi.h ****     Result Init(const Config& config);
 102:../../libDaisy/src/per/qspi.h **** 
 103:../../libDaisy/src/per/qspi.h ****     /** Returns the current config. */
 104:../../libDaisy/src/per/qspi.h ****     const Config& GetConfig() const;
 105:../../libDaisy/src/per/qspi.h **** 
 106:../../libDaisy/src/per/qspi.h ****     // Couldn't this just be called before anything else in init? That
 107:../../libDaisy/src/per/qspi.h ****     // would make manually calling it unnecessary.
 108:../../libDaisy/src/per/qspi.h ****     /** 
 109:../../libDaisy/src/per/qspi.h ****         Deinitializes the peripheral
 110:../../libDaisy/src/per/qspi.h ****         This should be called before reinitializing QSPI in a different mode.
 111:../../libDaisy/src/per/qspi.h ****         \return Result::OK or Result::ERR
 112:../../libDaisy/src/per/qspi.h ****         */
 113:../../libDaisy/src/per/qspi.h ****     Result DeInit();
 114:../../libDaisy/src/per/qspi.h **** 
 115:../../libDaisy/src/per/qspi.h ****     /** 
 116:../../libDaisy/src/per/qspi.h ****         Writes a single page to to the specified address on the QSPI chip.
 117:../../libDaisy/src/per/qspi.h ****         For IS25LP*, page size is 256 bytes.
 118:../../libDaisy/src/per/qspi.h ****         \param address Address to write to
 119:../../libDaisy/src/per/qspi.h ****         \param size Buffer size
 120:../../libDaisy/src/per/qspi.h ****         \param buffer Buffer to write
 121:../../libDaisy/src/per/qspi.h ****         \return Result::OK or Result::ERR
 122:../../libDaisy/src/per/qspi.h ****         */
 123:../../libDaisy/src/per/qspi.h ****     Result WritePage(uint32_t address, uint32_t size, uint8_t* buffer);
 124:../../libDaisy/src/per/qspi.h **** 
 125:../../libDaisy/src/per/qspi.h ****     /** 
 126:../../libDaisy/src/per/qspi.h ****         Writes data in buffer to to the QSPI. Starting at address to address+size 
 127:../../libDaisy/src/per/qspi.h ****         \param address Address to write to
 128:../../libDaisy/src/per/qspi.h ****         \param size Buffer size
 129:../../libDaisy/src/per/qspi.h ****         \param buffer Buffer to write
 130:../../libDaisy/src/per/qspi.h ****         \return Result::OK or Result::ERR
 131:../../libDaisy/src/per/qspi.h ****         */
 132:../../libDaisy/src/per/qspi.h ****     Result Write(uint32_t address, uint32_t size, uint8_t* buffer);
 133:../../libDaisy/src/per/qspi.h **** 
 134:../../libDaisy/src/per/qspi.h ****     /** 
 135:../../libDaisy/src/per/qspi.h ****         Erases the area specified on the chip.
 136:../../libDaisy/src/per/qspi.h ****         Erasures will happen by 4K, 32K or 64K increments.
 137:../../libDaisy/src/per/qspi.h ****         Smallest erase possible is 4kB at a time. (on IS25LP*)
 138:../../libDaisy/src/per/qspi.h ****         \param start_addr Address to begin erasing from
 139:../../libDaisy/src/per/qspi.h ****         \param end_addr  Address to stop erasing at
 140:../../libDaisy/src/per/qspi.h ****         \return Result::OK or Result::ERR
ARM GAS  /var/folders/hl/qgbwny5j0fd895c2c41bk3tw0000gp/T//ccj2i8el.s 			page 80


 141:../../libDaisy/src/per/qspi.h ****         */
 142:../../libDaisy/src/per/qspi.h ****     Result Erase(uint32_t start_addr, uint32_t end_addr);
 143:../../libDaisy/src/per/qspi.h **** 
 144:../../libDaisy/src/per/qspi.h ****     /**  
 145:../../libDaisy/src/per/qspi.h ****          Erases a single sector of the chip.  
 146:../../libDaisy/src/per/qspi.h ****         TODO: Document the size of this function. 
 147:../../libDaisy/src/per/qspi.h ****         \param address Address of sector to erase
 148:../../libDaisy/src/per/qspi.h ****         \return Result::OK or Result::ERR
 149:../../libDaisy/src/per/qspi.h ****         */
 150:../../libDaisy/src/per/qspi.h ****     Result EraseSector(uint32_t address);
 151:../../libDaisy/src/per/qspi.h **** 
 152:../../libDaisy/src/per/qspi.h ****     /** Returns the current class status. Useful for debugging.
 153:../../libDaisy/src/per/qspi.h ****      *  \returns Status
 154:../../libDaisy/src/per/qspi.h ****      */
 155:../../libDaisy/src/per/qspi.h ****     Status GetStatus();
 156:../../libDaisy/src/per/qspi.h **** 
 157:../../libDaisy/src/per/qspi.h ****     /** Returns a pointer to the actual memory used 
 158:../../libDaisy/src/per/qspi.h ****      *  The memory at this address is read-only
 159:../../libDaisy/src/per/qspi.h ****      *  to write to it use the Write function.
 160:../../libDaisy/src/per/qspi.h ****      * 
 161:../../libDaisy/src/per/qspi.h ****      *  \param offset returns the pointer starting this 
 162:../../libDaisy/src/per/qspi.h ****      *                many bytes into the memory
 163:../../libDaisy/src/per/qspi.h ****     */
 164:../../libDaisy/src/per/qspi.h ****     void* GetData(uint32_t offset = 0);
 165:../../libDaisy/src/per/qspi.h **** 
 166:../../libDaisy/src/per/qspi.h ****     QSPIHandle() : pimpl_(nullptr) {}
 2583              		.loc 16 166 5 is_stmt 1 view .LVU632
 2584              	.LBB1083:
 2585              	.LBB1084:
 2586              		.loc 16 166 34 is_stmt 0 view .LVU633
 2587 00ec 3248     		ldr	r0, .L52+144
 2588              	.LBE1084:
 2589              	.LBE1083:
 2590              	.LBE1082:
 2591              	.LBE1080:
 2592              	.LBE1079:
  19:Wavetable.cpp **** DaisyPatchSM 			hw;
 2593              		.loc 12 19 17 view .LVU634
 2594 00ee 3349     		ldr	r1, .L52+148
 2595              	.LBB1107:
 2596              	.LBB1104:
 2597              	.LBB1085:
 2598              	.LBB1086:
 2599              	.LBB1087:
 2600              	.LBB1088:
 2601              	.LBB1089:
 2602              		.file 17 "../../libDaisy/src/per/i2c.h"
   1:../../libDaisy/src/per/i2c.h **** #pragma once
   2:../../libDaisy/src/per/i2c.h **** #include "daisy_core.h"
   3:../../libDaisy/src/per/i2c.h **** 
   4:../../libDaisy/src/per/i2c.h **** namespace daisy
   5:../../libDaisy/src/per/i2c.h **** {
   6:../../libDaisy/src/per/i2c.h **** /** A handle for interacting with an I2C peripheral. This is a dumb
   7:../../libDaisy/src/per/i2c.h ****  *  gateway that internally points to one of the four I2C peripherals
   8:../../libDaisy/src/per/i2c.h ****  *  after it was initialised. It can then be copied and passed around.
   9:../../libDaisy/src/per/i2c.h ****  *  Use an I2CHandle like this:
  10:../../libDaisy/src/per/i2c.h ****  *  
ARM GAS  /var/folders/hl/qgbwny5j0fd895c2c41bk3tw0000gp/T//ccj2i8el.s 			page 81


  11:../../libDaisy/src/per/i2c.h ****  *      // setup the configuration
  12:../../libDaisy/src/per/i2c.h ****  *      I2CHandle::Config i2c_conf;
  13:../../libDaisy/src/per/i2c.h ****  *      i2c_conf.periph = I2CHandle::Config::Peripheral::I2C_1;
  14:../../libDaisy/src/per/i2c.h ****  *      i2c_conf.speed  = I2CHandle::Config::Speed::I2C_400KHZ;
  15:../../libDaisy/src/per/i2c.h ****  *      i2c_conf.mode   = I2CHandle::Config::Mode::Master;
  16:../../libDaisy/src/per/i2c.h ****  *      i2c_conf.pin_config.scl  = {DSY_GPIOB, 8};
  17:../../libDaisy/src/per/i2c.h ****  *      i2c_conf.pin_config.sda  = {DSY_GPIOB, 9};
  18:../../libDaisy/src/per/i2c.h ****  *      // initialise the peripheral
  19:../../libDaisy/src/per/i2c.h ****  *      I2CHandle i2c;
  20:../../libDaisy/src/per/i2c.h ****  *      i2c.Init(i2c_conf);
  21:../../libDaisy/src/per/i2c.h ****  *      // now i2c points to the corresponding peripheral and can be used.
  22:../../libDaisy/src/per/i2c.h ****  *      i2c.TransmitBlocking( ... );
  23:../../libDaisy/src/per/i2c.h ****  */
  24:../../libDaisy/src/per/i2c.h **** class I2CHandle
  25:../../libDaisy/src/per/i2c.h **** {
  26:../../libDaisy/src/per/i2c.h ****   public:
  27:../../libDaisy/src/per/i2c.h ****     /** Contains settings for initialising an I2C interface. */
  28:../../libDaisy/src/per/i2c.h ****     struct Config
  29:../../libDaisy/src/per/i2c.h ****     {
  30:../../libDaisy/src/per/i2c.h ****         /** Specifies whether the interface will operate in master or slave mode. */
  31:../../libDaisy/src/per/i2c.h ****         enum class Mode
  32:../../libDaisy/src/per/i2c.h ****         {
  33:../../libDaisy/src/per/i2c.h ****             I2C_MASTER,
  34:../../libDaisy/src/per/i2c.h ****             I2C_SLAVE,
  35:../../libDaisy/src/per/i2c.h ****         };
  36:../../libDaisy/src/per/i2c.h **** 
  37:../../libDaisy/src/per/i2c.h ****         /** Specifices the internal peripheral to use (these are mapped to different pins on the ha
  38:../../libDaisy/src/per/i2c.h ****         enum class Peripheral
  39:../../libDaisy/src/per/i2c.h ****         {
  40:../../libDaisy/src/per/i2c.h ****             I2C_1 = 0, /**< & */
  41:../../libDaisy/src/per/i2c.h ****             I2C_2,     /**< & */
  42:../../libDaisy/src/per/i2c.h ****             I2C_3,     /**< & */
  43:../../libDaisy/src/per/i2c.h ****             I2C_4,     /**< & */
  44:../../libDaisy/src/per/i2c.h ****         };
  45:../../libDaisy/src/per/i2c.h **** 
  46:../../libDaisy/src/per/i2c.h ****         /** Rate at which the clock/data will be sent/received. The device being used will have max
  47:../../libDaisy/src/per/i2c.h ****          *  1MHZ Mode is currently 886kHz
  48:../../libDaisy/src/per/i2c.h ****          */
  49:../../libDaisy/src/per/i2c.h ****         enum class Speed
  50:../../libDaisy/src/per/i2c.h ****         {
  51:../../libDaisy/src/per/i2c.h ****             I2C_100KHZ, /**< & */
  52:../../libDaisy/src/per/i2c.h ****             I2C_400KHZ, /**< & */
  53:../../libDaisy/src/per/i2c.h ****             I2C_1MHZ,   /**< & */
  54:../../libDaisy/src/per/i2c.h ****         };
  55:../../libDaisy/src/per/i2c.h **** 
  56:../../libDaisy/src/per/i2c.h ****         Peripheral periph; /**< & */
  57:../../libDaisy/src/per/i2c.h ****         struct
  58:../../libDaisy/src/per/i2c.h ****         {
  59:../../libDaisy/src/per/i2c.h ****             dsy_gpio_pin scl; /**< & */
  60:../../libDaisy/src/per/i2c.h ****             dsy_gpio_pin sda; /**< & */
  61:../../libDaisy/src/per/i2c.h ****         } pin_config;         /**< & */
  62:../../libDaisy/src/per/i2c.h **** 
  63:../../libDaisy/src/per/i2c.h ****         Speed speed; /**< & */
  64:../../libDaisy/src/per/i2c.h ****         Mode  mode;  /**< & */
  65:../../libDaisy/src/per/i2c.h ****         // 0x10 is chosen as a default to avoid conflicts with reserved addresses
  66:../../libDaisy/src/per/i2c.h ****         uint8_t address = 0x10; /**< & */
  67:../../libDaisy/src/per/i2c.h ****     };
ARM GAS  /var/folders/hl/qgbwny5j0fd895c2c41bk3tw0000gp/T//ccj2i8el.s 			page 82


  68:../../libDaisy/src/per/i2c.h **** 
  69:../../libDaisy/src/per/i2c.h ****     /** Return values for I2C functions. */
  70:../../libDaisy/src/per/i2c.h ****     enum class Result
  71:../../libDaisy/src/per/i2c.h ****     {
  72:../../libDaisy/src/per/i2c.h ****         OK, /**< & */
  73:../../libDaisy/src/per/i2c.h ****         ERR /**< & */
  74:../../libDaisy/src/per/i2c.h ****     };
  75:../../libDaisy/src/per/i2c.h **** 
  76:../../libDaisy/src/per/i2c.h ****     enum class Direction
  77:../../libDaisy/src/per/i2c.h ****     {
  78:../../libDaisy/src/per/i2c.h ****         TRANSMIT, /**< & */
  79:../../libDaisy/src/per/i2c.h ****         RECEIVE,  /**< & */
  80:../../libDaisy/src/per/i2c.h ****     };
  81:../../libDaisy/src/per/i2c.h **** 
  82:../../libDaisy/src/per/i2c.h ****     I2CHandle() : pimpl_(nullptr) {}
 2603              		.loc 17 82 33 view .LVU635
 2604 00f0 0462     		str	r4, [r0, #32]
 2605              	.LBE1089:
 2606              	.LBE1088:
 2607              	.LBE1087:
 2608              	.LBE1086:
 2609              	.LBE1085:
 2610              	.LBB1092:
 2611              	.LBB1093:
 2612              	.LBB1094:
 2613              		.file 18 "../../libDaisy/src/per/dac.h"
   1:../../libDaisy/src/per/dac.h **** #pragma once
   2:../../libDaisy/src/per/dac.h **** #ifndef DSY_DAC_H
   3:../../libDaisy/src/per/dac.h **** #define DSY_DAC_H
   4:../../libDaisy/src/per/dac.h **** 
   5:../../libDaisy/src/per/dac.h **** #include "daisy_core.h"
   6:../../libDaisy/src/per/dac.h **** 
   7:../../libDaisy/src/per/dac.h **** namespace daisy
   8:../../libDaisy/src/per/dac.h **** {
   9:../../libDaisy/src/per/dac.h **** /** @brief DAC handle for Built-in DAC Peripheral 
  10:../../libDaisy/src/per/dac.h ****  *  @ingroup per_analog
  11:../../libDaisy/src/per/dac.h ****  ** 
  12:../../libDaisy/src/per/dac.h ****  ** For now only Normal Mode is supported,
  13:../../libDaisy/src/per/dac.h ****  ** Sample and hold mode provides reduced power consumption, but requires a bit more setup.
  14:../../libDaisy/src/per/dac.h ****  **
  15:../../libDaisy/src/per/dac.h ****  ** For now connecting the DAC through other internal peripherals is also not supported.
  16:../../libDaisy/src/per/dac.h ****  **
  17:../../libDaisy/src/per/dac.h ****  ** Since the DAC channels have dedicated pins we don't need to pass in a pin config like with
  18:../../libDaisy/src/per/dac.h ****  ** other modules. However, it is still important to not try to use the DAC pins for anything else.
  19:../../libDaisy/src/per/dac.h ****  ** DAC Channel 1 is on PA4, and DAC Channel 2 is on PA5
  20:../../libDaisy/src/per/dac.h ****  ***/
  21:../../libDaisy/src/per/dac.h **** class DacHandle
  22:../../libDaisy/src/per/dac.h **** {
  23:../../libDaisy/src/per/dac.h ****   public:
  24:../../libDaisy/src/per/dac.h ****     /** Return Values for the DacHandle class */
  25:../../libDaisy/src/per/dac.h ****     enum class Result
  26:../../libDaisy/src/per/dac.h ****     {
  27:../../libDaisy/src/per/dac.h ****         OK,
  28:../../libDaisy/src/per/dac.h ****         ERR,
  29:../../libDaisy/src/per/dac.h ****     };
  30:../../libDaisy/src/per/dac.h **** 
  31:../../libDaisy/src/per/dac.h ****     /** Selects which channel(s) will be configured for use. */
ARM GAS  /var/folders/hl/qgbwny5j0fd895c2c41bk3tw0000gp/T//ccj2i8el.s 			page 83


  32:../../libDaisy/src/per/dac.h ****     enum class Channel
  33:../../libDaisy/src/per/dac.h ****     {
  34:../../libDaisy/src/per/dac.h ****         ONE,
  35:../../libDaisy/src/per/dac.h ****         TWO,
  36:../../libDaisy/src/per/dac.h ****         BOTH,
  37:../../libDaisy/src/per/dac.h ****     };
  38:../../libDaisy/src/per/dac.h **** 
  39:../../libDaisy/src/per/dac.h ****     /** Sets the Mode for the DAC channels.
  40:../../libDaisy/src/per/dac.h ****      **
  41:../../libDaisy/src/per/dac.h ****      ** Polling mode uses the blocking mode to transmit a single value at a time.
  42:../../libDaisy/src/per/dac.h ****      **
  43:../../libDaisy/src/per/dac.h ****      ** DMA mode uses a buffer, and periodically transmits it triggering a 
  44:../../libDaisy/src/per/dac.h ****      ** callback to fill the buffer when it is ready for more samples.
  45:../../libDaisy/src/per/dac.h ****      ***/
  46:../../libDaisy/src/per/dac.h ****     enum class Mode
  47:../../libDaisy/src/per/dac.h ****     {
  48:../../libDaisy/src/per/dac.h ****         POLLING,
  49:../../libDaisy/src/per/dac.h ****         DMA,
  50:../../libDaisy/src/per/dac.h ****     };
  51:../../libDaisy/src/per/dac.h **** 
  52:../../libDaisy/src/per/dac.h ****     /** Sets the number of bits per sample transmitted out of the DAC.
  53:../../libDaisy/src/per/dac.h ****      ** The output range will be: 0V - VDDA
  54:../../libDaisy/src/per/dac.h ****      ** The resolution will be roughly: bitdepth / (VDDA - 0V) 
  55:../../libDaisy/src/per/dac.h ****      ***/
  56:../../libDaisy/src/per/dac.h ****     enum class BitDepth
  57:../../libDaisy/src/per/dac.h ****     {
  58:../../libDaisy/src/per/dac.h ****         BITS_8,
  59:../../libDaisy/src/per/dac.h ****         BITS_12
  60:../../libDaisy/src/per/dac.h ****     };
  61:../../libDaisy/src/per/dac.h **** 
  62:../../libDaisy/src/per/dac.h ****     /** Sets whether the DAC output is buffered for higher drive ability. */
  63:../../libDaisy/src/per/dac.h ****     enum class BufferState
  64:../../libDaisy/src/per/dac.h ****     {
  65:../../libDaisy/src/per/dac.h ****         ENABLED,
  66:../../libDaisy/src/per/dac.h ****         DISABLED,
  67:../../libDaisy/src/per/dac.h ****     };
  68:../../libDaisy/src/per/dac.h **** 
  69:../../libDaisy/src/per/dac.h ****     /** Configuration structure for initializing the DAC structure. */
  70:../../libDaisy/src/per/dac.h ****     struct Config
  71:../../libDaisy/src/per/dac.h ****     {
  72:../../libDaisy/src/per/dac.h ****         /** Target Samplerate in Hz used to configure the internal 
  73:../../libDaisy/src/per/dac.h ****          ** timebase for DMA mode. Does nothing in POLLING mode.
  74:../../libDaisy/src/per/dac.h ****          ** If the value is 0 at Init time this will default to 48000Hz 
  75:../../libDaisy/src/per/dac.h ****          ** otherwise the driver will attempt meet the target.*/
  76:../../libDaisy/src/per/dac.h ****         uint32_t target_samplerate;
  77:../../libDaisy/src/per/dac.h **** 
  78:../../libDaisy/src/per/dac.h ****         Channel     chn;
  79:../../libDaisy/src/per/dac.h ****         Mode        mode;
  80:../../libDaisy/src/per/dac.h ****         BitDepth    bitdepth;
  81:../../libDaisy/src/per/dac.h ****         BufferState buff_state;
  82:../../libDaisy/src/per/dac.h ****     };
  83:../../libDaisy/src/per/dac.h **** 
  84:../../libDaisy/src/per/dac.h ****     DacHandle() : pimpl_(nullptr) {}
 2614              		.loc 18 84 33 view .LVU636
 2615 00f2 8462     		str	r4, [r0, #40]
 2616              	.LBE1094:
 2617              	.LBE1093:
ARM GAS  /var/folders/hl/qgbwny5j0fd895c2c41bk3tw0000gp/T//ccj2i8el.s 			page 84


 2618              	.LBE1092:
 2619              	.LBE1104:
 2620              	.LBE1107:
  19:Wavetable.cpp **** DaisyPatchSM 			hw;
 2621              		.loc 12 19 17 view .LVU637
 2622 00f4 2A4A     		ldr	r2, .L52+120
 2623              	.LBB1108:
 2624              	.LBB1105:
 2625              	.LBB1095:
 2626              	.LBB1096:
 2627              	.LBB1097:
  95:../../libDaisy/src/hid/audio.h ****     ~AudioHandle() {}
 2628              		.loc 7 95 35 view .LVU638
 2629 00f6 C0E90344 		strd	r4, r4, [r0, #12]
 2630              	.LVL142:
  95:../../libDaisy/src/hid/audio.h ****     ~AudioHandle() {}
 2631              		.loc 7 95 35 view .LVU639
 2632              	.LBE1097:
 2633              	.LBE1096:
 2634              	.LBE1095:
 2635              	.LBB1098:
 2636              	.LBI1098:
  92:../../libDaisy/src/per/adc.h ****     ~AdcHandle() {}
 2637              		.loc 6 92 5 is_stmt 1 view .LVU640
  92:../../libDaisy/src/per/adc.h ****     ~AdcHandle() {}
 2638              		.loc 6 92 5 is_stmt 0 view .LVU641
 2639              	.LBE1098:
 2640              	.LBB1099:
 2641              	.LBI1099:
  40:../../libDaisy/src/hid/usb.h **** 
 2642              		.loc 5 40 5 is_stmt 1 view .LVU642
  40:../../libDaisy/src/hid/usb.h **** 
 2643              		.loc 5 40 5 is_stmt 0 view .LVU643
 2644              	.LBE1099:
 2645              	.LBB1100:
 2646              	.LBI1085:
  28:../../libDaisy/src/dev/codec_pcm3060.h ****     ~Pcm3060() {}
 2647              		.loc 4 28 5 is_stmt 1 view .LVU644
 2648              	.LBB1091:
 2649              	.LBB1090:
 2650              	.LBI1087:
 2651              		.loc 17 82 5 view .LVU645
 2652              		.loc 17 82 5 is_stmt 0 view .LVU646
 2653              	.LBE1090:
 2654              	.LBE1091:
 2655              	.LBE1100:
 2656              	.LBB1101:
 2657              	.LBI1092:
 2658              		.loc 18 84 5 is_stmt 1 view .LVU647
 2659              		.loc 18 84 5 is_stmt 0 view .LVU648
 2660              	.LBE1101:
 2661              	.LBE1105:
 2662              	.LBE1108:
 2663              	.LBE1112:
 2664              	.LBE1115:
  64:../../libDaisy/src/daisy_patch_sm.h ****         ~DaisyPatchSM() {}
 2665              		.loc 2 64 24 is_stmt 1 view .LVU649
ARM GAS  /var/folders/hl/qgbwny5j0fd895c2c41bk3tw0000gp/T//ccj2i8el.s 			page 85


 2666              	.LBB1116:
 2667              	.LBB1113:
 2668              	.LBB1109:
 2669              	.LBB1106:
 2670              	.LBB1102:
 2671              	.LBI1102:
  20:../../libDaisy/src/hid/gatein.h ****     /** GateIn~
 2672              		.loc 3 20 5 view .LVU650
  20:../../libDaisy/src/hid/gatein.h ****     /** GateIn~
 2673              		.loc 3 20 5 is_stmt 0 view .LVU651
 2674              	.LBE1102:
 2675              	.LBB1103:
 2676              	.LBI1103:
