ARM GAS  /var/folders/hl/qgbwny5j0fd895c2c41bk3tw0000gp/T//ccS4M3jv.s 			page 1


   1              		.cpu cortex-m7
   2              		.eabi_attribute 28, 1
   3              		.eabi_attribute 20, 1
   4              		.eabi_attribute 21, 1
   5              		.eabi_attribute 23, 3
   6              		.eabi_attribute 24, 1
   7              		.eabi_attribute 25, 1
   8              		.eabi_attribute 26, 1
   9              		.eabi_attribute 30, 2
  10              		.eabi_attribute 34, 1
  11              		.eabi_attribute 18, 4
  12              		.file	"DrumTest.cpp"
  13              		.text
  14              	.Ltext0:
  15              		.cfi_sections	.debug_frame
  16              		.section	.text._ZN5daisy6SwitchD2Ev,"axG",%progbits,_ZN5daisy6SwitchD5Ev,comdat
  17              		.align	1
  18              		.p2align 2,,3
  19              		.weak	_ZN5daisy6SwitchD2Ev
  20              		.arch armv7e-m
  21              		.syntax unified
  22              		.thumb
  23              		.thumb_func
  24              		.fpu fpv5-d16
  26              	_ZN5daisy6SwitchD2Ev:
  27              	.LVL0:
  28              	.LFB3867:
  29              		.file 1 "../../libDaisy//src/hid/switch.h"
   1:../../libDaisy//src/hid/switch.h **** #pragma once
   2:../../libDaisy//src/hid/switch.h **** #ifndef DSY_SWITCH_H
   3:../../libDaisy//src/hid/switch.h **** #define DSY_SWITCH_H
   4:../../libDaisy//src/hid/switch.h **** #include "daisy_core.h"
   5:../../libDaisy//src/hid/switch.h **** #include "per/gpio.h"
   6:../../libDaisy//src/hid/switch.h **** #include "sys/system.h"
   7:../../libDaisy//src/hid/switch.h **** 
   8:../../libDaisy//src/hid/switch.h **** namespace daisy
   9:../../libDaisy//src/hid/switch.h **** {
  10:../../libDaisy//src/hid/switch.h **** /** 
  11:../../libDaisy//src/hid/switch.h ****     Generic Class for handling momentary/latching switches \n 
  12:../../libDaisy//src/hid/switch.h ****     Inspired/influenced by Mutable Instruments (pichenettes) Switch classes
  13:../../libDaisy//src/hid/switch.h ****     @author Stephen Hensley
  14:../../libDaisy//src/hid/switch.h ****     @date December 2019
  15:../../libDaisy//src/hid/switch.h ****     @ingroup controls
  16:../../libDaisy//src/hid/switch.h **** */
  17:../../libDaisy//src/hid/switch.h **** class Switch
  18:../../libDaisy//src/hid/switch.h **** {
  19:../../libDaisy//src/hid/switch.h ****   public:
  20:../../libDaisy//src/hid/switch.h ****     /** Specifies the expected behavior of the switch */
  21:../../libDaisy//src/hid/switch.h ****     enum Type
  22:../../libDaisy//src/hid/switch.h ****     {
  23:../../libDaisy//src/hid/switch.h ****         TYPE_TOGGLE,    /**< & */
  24:../../libDaisy//src/hid/switch.h ****         TYPE_MOMENTARY, /**< & */
  25:../../libDaisy//src/hid/switch.h ****     };
  26:../../libDaisy//src/hid/switch.h ****     /** Specifies whether the pressed is HIGH or LOW. */
  27:../../libDaisy//src/hid/switch.h ****     enum Polarity
  28:../../libDaisy//src/hid/switch.h ****     {
  29:../../libDaisy//src/hid/switch.h ****         POLARITY_NORMAL,   /**< & */
ARM GAS  /var/folders/hl/qgbwny5j0fd895c2c41bk3tw0000gp/T//ccS4M3jv.s 			page 2


  30:../../libDaisy//src/hid/switch.h ****         POLARITY_INVERTED, /**< & */
  31:../../libDaisy//src/hid/switch.h ****     };
  32:../../libDaisy//src/hid/switch.h **** 
  33:../../libDaisy//src/hid/switch.h ****     /** Specifies whether to use built-in Pull Up/Down resistors to hold button at a given state wh
  34:../../libDaisy//src/hid/switch.h ****     enum Pull
  35:../../libDaisy//src/hid/switch.h ****     {
  36:../../libDaisy//src/hid/switch.h ****         PULL_UP,   /**< & */
  37:../../libDaisy//src/hid/switch.h ****         PULL_DOWN, /**< & */
  38:../../libDaisy//src/hid/switch.h ****         PULL_NONE, /**< & */
  39:../../libDaisy//src/hid/switch.h ****     };
  40:../../libDaisy//src/hid/switch.h **** 
  41:../../libDaisy//src/hid/switch.h ****     Switch() {}
  42:../../libDaisy//src/hid/switch.h ****     ~Switch() {}
  30              		.loc 1 42 5 view -0
  31              		.cfi_startproc
  32              		@ args = 0, pretend = 0, frame = 0
  33              		@ frame_needed = 0, uses_anonymous_args = 0
  34              		@ link register save eliminated.
  35              		.loc 1 42 16 is_stmt 0 view .LVU1
  36 0000 7047     		bx	lr
  37              		.cfi_endproc
  38              	.LFE3867:
  40              		.weak	_ZN5daisy6SwitchD1Ev
  41              		.thumb_set _ZN5daisy6SwitchD1Ev,_ZN5daisy6SwitchD2Ev
  42 0002 00BF     		.section	.text._ZN5daisy8patch_sm12DaisyPatchSMD2Ev,"axG",%progbits,_ZN5daisy8patch_sm12DaisyPatch
  43              		.align	1
  44              		.p2align 2,,3
  45              		.weak	_ZN5daisy8patch_sm12DaisyPatchSMD2Ev
  46              		.syntax unified
  47              		.thumb
  48              		.thumb_func
  49              		.fpu fpv5-d16
  51              	_ZN5daisy8patch_sm12DaisyPatchSMD2Ev:
  52              	.LVL1:
  53              	.LFB4784:
  54              		.file 2 "../../libDaisy//src/daisy_patch_sm.h"
   1:../../libDaisy//src/daisy_patch_sm.h **** #pragma once
   2:../../libDaisy//src/daisy_patch_sm.h **** 
   3:../../libDaisy//src/daisy_patch_sm.h **** #include "daisy.h"
   4:../../libDaisy//src/daisy_patch_sm.h **** 
   5:../../libDaisy//src/daisy_patch_sm.h **** namespace daisy
   6:../../libDaisy//src/daisy_patch_sm.h **** {
   7:../../libDaisy//src/daisy_patch_sm.h **** namespace patch_sm
   8:../../libDaisy//src/daisy_patch_sm.h **** {
   9:../../libDaisy//src/daisy_patch_sm.h ****     /** Accessors for the Analog Controls. 
  10:../../libDaisy//src/daisy_patch_sm.h ****      *  These cover the 8x Bipolar CV inputs
  11:../../libDaisy//src/daisy_patch_sm.h ****      *  as well as the 4x 0-3V3 ADC inputs on
  12:../../libDaisy//src/daisy_patch_sm.h ****      *  the hardware 
  13:../../libDaisy//src/daisy_patch_sm.h ****      * 
  14:../../libDaisy//src/daisy_patch_sm.h ****      *  When reading a value with DaisyPatchSM::GetAdcValue()
  15:../../libDaisy//src/daisy_patch_sm.h ****      * 
  16:../../libDaisy//src/daisy_patch_sm.h ****      *  patch.GetAdcValue(patch_sm::CV_1);
  17:../../libDaisy//src/daisy_patch_sm.h ****      */
  18:../../libDaisy//src/daisy_patch_sm.h ****     enum
  19:../../libDaisy//src/daisy_patch_sm.h ****     {
  20:../../libDaisy//src/daisy_patch_sm.h ****         CV_1 = 0,
  21:../../libDaisy//src/daisy_patch_sm.h ****         CV_2,
ARM GAS  /var/folders/hl/qgbwny5j0fd895c2c41bk3tw0000gp/T//ccS4M3jv.s 			page 3


  22:../../libDaisy//src/daisy_patch_sm.h ****         CV_3,
  23:../../libDaisy//src/daisy_patch_sm.h ****         CV_4,
  24:../../libDaisy//src/daisy_patch_sm.h ****         CV_5,
  25:../../libDaisy//src/daisy_patch_sm.h ****         CV_6,
  26:../../libDaisy//src/daisy_patch_sm.h ****         CV_7,
  27:../../libDaisy//src/daisy_patch_sm.h ****         CV_8,
  28:../../libDaisy//src/daisy_patch_sm.h ****         ADC_9,
  29:../../libDaisy//src/daisy_patch_sm.h ****         ADC_10,
  30:../../libDaisy//src/daisy_patch_sm.h ****         ADC_11,
  31:../../libDaisy//src/daisy_patch_sm.h ****         ADC_12,
  32:../../libDaisy//src/daisy_patch_sm.h ****         ADC_LAST,
  33:../../libDaisy//src/daisy_patch_sm.h ****     };
  34:../../libDaisy//src/daisy_patch_sm.h **** 
  35:../../libDaisy//src/daisy_patch_sm.h ****     /** Enum for addressing the CV Outputs via the WriteCvOut function. */
  36:../../libDaisy//src/daisy_patch_sm.h ****     enum
  37:../../libDaisy//src/daisy_patch_sm.h ****     {
  38:../../libDaisy//src/daisy_patch_sm.h ****         CV_OUT_BOTH = 0,
  39:../../libDaisy//src/daisy_patch_sm.h ****         CV_OUT_1,
  40:../../libDaisy//src/daisy_patch_sm.h ****         CV_OUT_2,
  41:../../libDaisy//src/daisy_patch_sm.h ****     };
  42:../../libDaisy//src/daisy_patch_sm.h **** 
  43:../../libDaisy//src/daisy_patch_sm.h **** 
  44:../../libDaisy//src/daisy_patch_sm.h ****     /** @brief Board support file for DaisyPatchSM hardware
  45:../../libDaisy//src/daisy_patch_sm.h ****      *  @author shensley
  46:../../libDaisy//src/daisy_patch_sm.h ****      *  @ingroup boards
  47:../../libDaisy//src/daisy_patch_sm.h ****      * 
  48:../../libDaisy//src/daisy_patch_sm.h ****      *  Daisy Patch SM is a complete Eurorack module DSP engine.
  49:../../libDaisy//src/daisy_patch_sm.h ****      *  Based on the Daisy Seed, with circuits added for 
  50:../../libDaisy//src/daisy_patch_sm.h ****      *  interfacing directly with eurorack modular synthesizers.
  51:../../libDaisy//src/daisy_patch_sm.h ****      */
  52:../../libDaisy//src/daisy_patch_sm.h ****     class DaisyPatchSM
  53:../../libDaisy//src/daisy_patch_sm.h ****     {
  54:../../libDaisy//src/daisy_patch_sm.h ****       public:
  55:../../libDaisy//src/daisy_patch_sm.h ****         /** Helper for mapping pins, and accessing them using the `GetPin` function */
  56:../../libDaisy//src/daisy_patch_sm.h ****         enum class PinBank
  57:../../libDaisy//src/daisy_patch_sm.h ****         {
  58:../../libDaisy//src/daisy_patch_sm.h ****             A,
  59:../../libDaisy//src/daisy_patch_sm.h ****             B,
  60:../../libDaisy//src/daisy_patch_sm.h ****             C,
  61:../../libDaisy//src/daisy_patch_sm.h ****             D
  62:../../libDaisy//src/daisy_patch_sm.h ****         };
  63:../../libDaisy//src/daisy_patch_sm.h **** 
  64:../../libDaisy//src/daisy_patch_sm.h ****         DaisyPatchSM() {}
  65:../../libDaisy//src/daisy_patch_sm.h ****         ~DaisyPatchSM() {}
  55              		.loc 2 65 9 is_stmt 1 view -0
  56              		.cfi_startproc
  57              		@ args = 0, pretend = 0, frame = 0
  58              		@ frame_needed = 0, uses_anonymous_args = 0
  59              		@ link register save eliminated.
  60              	.LBB719:
  61              	.LBI719:
  62              		.file 3 "../../libDaisy//src/hid/gatein.h"
   1:../../libDaisy//src/hid/gatein.h **** #pragma once
   2:../../libDaisy//src/hid/gatein.h **** #ifndef DSY_GATEIN_H
   3:../../libDaisy//src/hid/gatein.h **** #define DSY_GATEIN_H
   4:../../libDaisy//src/hid/gatein.h **** #include "per/gpio.h"
   5:../../libDaisy//src/hid/gatein.h **** 
ARM GAS  /var/folders/hl/qgbwny5j0fd895c2c41bk3tw0000gp/T//ccS4M3jv.s 			page 4


   6:../../libDaisy//src/hid/gatein.h **** namespace daisy
   7:../../libDaisy//src/hid/gatein.h **** {
   8:../../libDaisy//src/hid/gatein.h **** /**
   9:../../libDaisy//src/hid/gatein.h ****    @brief Generic Class for handling gate inputs through GPIO.
  10:../../libDaisy//src/hid/gatein.h ****    @author Stephen Hensley
  11:../../libDaisy//src/hid/gatein.h ****    @date    March 2020
  12:../../libDaisy//src/hid/gatein.h ****    @ingroup controls
  13:../../libDaisy//src/hid/gatein.h **** */
  14:../../libDaisy//src/hid/gatein.h **** class GateIn
  15:../../libDaisy//src/hid/gatein.h **** {
  16:../../libDaisy//src/hid/gatein.h ****   public:
  17:../../libDaisy//src/hid/gatein.h ****     /** GateIn 
  18:../../libDaisy//src/hid/gatein.h ****     Constructor 
  19:../../libDaisy//src/hid/gatein.h ****     */
  20:../../libDaisy//src/hid/gatein.h ****     GateIn() {}
  21:../../libDaisy//src/hid/gatein.h ****     /** GateIn~
  22:../../libDaisy//src/hid/gatein.h ****     Destructor 
  23:../../libDaisy//src/hid/gatein.h ****     */
  24:../../libDaisy//src/hid/gatein.h ****     ~GateIn() {}
  63              		.loc 3 24 5 view .LVU3
  64              		.loc 3 24 5 is_stmt 0 view .LVU4
  65              	.LBE719:
  66              	.LBB720:
  67              	.LBI720:
  68              		.loc 3 24 5 is_stmt 1 view .LVU5
  69              		.loc 3 24 5 is_stmt 0 view .LVU6
  70              	.LBE720:
  71              	.LBB721:
  72              	.LBI721:
  73              		.file 4 "../../libDaisy//src/dev/codec_pcm3060.h"
   1:../../libDaisy//src/dev/codec_pcm3060.h **** #pragma once
   2:../../libDaisy//src/dev/codec_pcm3060.h **** #ifndef DSY_CODEC_PCM3060_H
   3:../../libDaisy//src/dev/codec_pcm3060.h **** #define DSY_CODEC_PCM3060_H
   4:../../libDaisy//src/dev/codec_pcm3060.h **** #include "per/i2c.h"
   5:../../libDaisy//src/dev/codec_pcm3060.h **** namespace daisy
   6:../../libDaisy//src/dev/codec_pcm3060.h **** {
   7:../../libDaisy//src/dev/codec_pcm3060.h **** /**
   8:../../libDaisy//src/dev/codec_pcm3060.h ****  * @brief Driver for the TI PCM3060 Audio Codec.
   9:../../libDaisy//src/dev/codec_pcm3060.h ****  * @addtogroup codec
  10:../../libDaisy//src/dev/codec_pcm3060.h ****  * 
  11:../../libDaisy//src/dev/codec_pcm3060.h ****  * For now this is a limited interface that uses I2C to communicate with the PCM3060
  12:../../libDaisy//src/dev/codec_pcm3060.h ****  * The device can also be accessed with SPI, which is not yet supported.
  13:../../libDaisy//src/dev/codec_pcm3060.h ****  * 
  14:../../libDaisy//src/dev/codec_pcm3060.h ****  * For now all registers are set to their defaults, and the Init function will 
  15:../../libDaisy//src/dev/codec_pcm3060.h ****  * perform a MRST and SRST before setting the format to 24bit LJ, and disabling 
  16:../../libDaisy//src/dev/codec_pcm3060.h ****  * power save for both the ADC and DAC.
  17:../../libDaisy//src/dev/codec_pcm3060.h ****  *
  18:../../libDaisy//src/dev/codec_pcm3060.h ****  */
  19:../../libDaisy//src/dev/codec_pcm3060.h **** class Pcm3060
  20:../../libDaisy//src/dev/codec_pcm3060.h **** {
  21:../../libDaisy//src/dev/codec_pcm3060.h ****   public:
  22:../../libDaisy//src/dev/codec_pcm3060.h ****     enum class Result
  23:../../libDaisy//src/dev/codec_pcm3060.h ****     {
  24:../../libDaisy//src/dev/codec_pcm3060.h ****         OK,
  25:../../libDaisy//src/dev/codec_pcm3060.h ****         ERR,
  26:../../libDaisy//src/dev/codec_pcm3060.h ****     };
  27:../../libDaisy//src/dev/codec_pcm3060.h **** 
ARM GAS  /var/folders/hl/qgbwny5j0fd895c2c41bk3tw0000gp/T//ccS4M3jv.s 			page 5


  28:../../libDaisy//src/dev/codec_pcm3060.h ****     Pcm3060() {}
  29:../../libDaisy//src/dev/codec_pcm3060.h ****     ~Pcm3060() {}
  74              		.loc 4 29 5 is_stmt 1 view .LVU7
  75              		.loc 4 29 5 is_stmt 0 view .LVU8
  76              	.LBE721:
  77              	.LBB722:
  78              	.LBI722:
  79              		.file 5 "../../libDaisy//src/hid/usb.h"
   1:../../libDaisy//src/hid/usb.h **** #pragma once
   2:../../libDaisy//src/hid/usb.h **** #ifndef DSY_HID_USB_H
   3:../../libDaisy//src/hid/usb.h **** #define DSY_HID_USB_H
   4:../../libDaisy//src/hid/usb.h **** #include <stdint.h>
   5:../../libDaisy//src/hid/usb.h **** #include <stdlib.h>
   6:../../libDaisy//src/hid/usb.h **** 
   7:../../libDaisy//src/hid/usb.h **** namespace daisy
   8:../../libDaisy//src/hid/usb.h **** /** @addtogroup human_interface
   9:../../libDaisy//src/hid/usb.h ****     @{
  10:../../libDaisy//src/hid/usb.h **** */
  11:../../libDaisy//src/hid/usb.h **** 
  12:../../libDaisy//src/hid/usb.h **** {
  13:../../libDaisy//src/hid/usb.h **** /** 
  14:../../libDaisy//src/hid/usb.h ****     @brief Interface for initializing and using the USB Peripherals on the daisy
  15:../../libDaisy//src/hid/usb.h ****     @author Stephen Hensley
  16:../../libDaisy//src/hid/usb.h ****     @date December 2019
  17:../../libDaisy//src/hid/usb.h **** */
  18:../../libDaisy//src/hid/usb.h **** class UsbHandle
  19:../../libDaisy//src/hid/usb.h **** {
  20:../../libDaisy//src/hid/usb.h ****   public:
  21:../../libDaisy//src/hid/usb.h ****     /** Return values for USBHandle Functions */
  22:../../libDaisy//src/hid/usb.h ****     enum class Result
  23:../../libDaisy//src/hid/usb.h ****     {
  24:../../libDaisy//src/hid/usb.h ****         OK,
  25:../../libDaisy//src/hid/usb.h ****         ERR,
  26:../../libDaisy//src/hid/usb.h ****     };
  27:../../libDaisy//src/hid/usb.h **** 
  28:../../libDaisy//src/hid/usb.h ****     /** Specified which of the two USB Peripherals to initialize. */
  29:../../libDaisy//src/hid/usb.h ****     enum UsbPeriph
  30:../../libDaisy//src/hid/usb.h ****     {
  31:../../libDaisy//src/hid/usb.h ****         FS_INTERNAL, /**< Internal pin */
  32:../../libDaisy//src/hid/usb.h ****         FS_EXTERNAL, /**< FS External D+ pin is Pin 38 (GPIO32). FS External D- pin is Pin 37 (GPIO
  33:../../libDaisy//src/hid/usb.h ****         FS_BOTH,     /**< Both */
  34:../../libDaisy//src/hid/usb.h ****     };
  35:../../libDaisy//src/hid/usb.h **** 
  36:../../libDaisy//src/hid/usb.h **** 
  37:../../libDaisy//src/hid/usb.h ****     /** Function called upon reception of a buffer */
  38:../../libDaisy//src/hid/usb.h ****     typedef void (*ReceiveCallback)(uint8_t* buff, uint32_t* len);
  39:../../libDaisy//src/hid/usb.h **** 
  40:../../libDaisy//src/hid/usb.h ****     UsbHandle() {}
  41:../../libDaisy//src/hid/usb.h **** 
  42:../../libDaisy//src/hid/usb.h ****     ~UsbHandle() {}
  80              		.loc 5 42 5 is_stmt 1 view .LVU9
  81              		.loc 5 42 5 is_stmt 0 view .LVU10
  82              	.LBE722:
  83              	.LBB723:
  84              	.LBI723:
  85              		.file 6 "../../libDaisy//src/per/adc.h"
   1:../../libDaisy//src/per/adc.h **** #pragma once
ARM GAS  /var/folders/hl/qgbwny5j0fd895c2c41bk3tw0000gp/T//ccS4M3jv.s 			page 6


   2:../../libDaisy//src/per/adc.h **** #ifndef DSY_ADC_H
   3:../../libDaisy//src/per/adc.h **** #define DSY_ADC_H /**< Macro */
   4:../../libDaisy//src/per/adc.h **** #include <stdint.h>
   5:../../libDaisy//src/per/adc.h **** #include <stdlib.h>
   6:../../libDaisy//src/per/adc.h **** #include "daisy_core.h"
   7:../../libDaisy//src/per/adc.h **** #include "per/gpio.h"
   8:../../libDaisy//src/per/adc.h **** 
   9:../../libDaisy//src/per/adc.h **** #define DSY_ADC_MAX_CHANNELS 16 /**< Maximum number of ADC channels */
  10:../../libDaisy//src/per/adc.h **** 
  11:../../libDaisy//src/per/adc.h **** namespace daisy
  12:../../libDaisy//src/per/adc.h **** {
  13:../../libDaisy//src/per/adc.h **** /** @addtogroup per_analog
  14:../../libDaisy//src/per/adc.h ****     @{
  15:../../libDaisy//src/per/adc.h **** */
  16:../../libDaisy//src/per/adc.h **** 
  17:../../libDaisy//src/per/adc.h **** /* While there may not be many configuration options here,
  18:../../libDaisy//src/per/adc.h **** using a struct like this allows us to add more configuration
  19:../../libDaisy//src/per/adc.h **** later without breaking existing functionality.
  20:../../libDaisy//src/per/adc.h **** */
  21:../../libDaisy//src/per/adc.h **** 
  22:../../libDaisy//src/per/adc.h **** /** @brief   Configuration Structure for an ADC Channel 
  23:../../libDaisy//src/per/adc.h ****  *  @details This can be used to configure a a single input, 
  24:../../libDaisy//src/per/adc.h ****  *           or a multiplexed input, allowing up to 8 inputs on 
  25:../../libDaisy//src/per/adc.h ****  *           one channel.
  26:../../libDaisy//src/per/adc.h ****  *  @note    Sharing data lines to multiple muxes _is_ possible, but
  27:../../libDaisy//src/per/adc.h ****  *           each channel sharing data lines must be set to the maximum
  28:../../libDaisy//src/per/adc.h ****  *           number of channels, even if some multiplexers have fewer
  29:../../libDaisy//src/per/adc.h ****  *           inputs connected.
  30:../../libDaisy//src/per/adc.h **** */
  31:../../libDaisy//src/per/adc.h **** struct AdcChannelConfig
  32:../../libDaisy//src/per/adc.h **** {
  33:../../libDaisy//src/per/adc.h ****     /** Which pin to use for multiplexing */
  34:../../libDaisy//src/per/adc.h ****     enum MuxPin
  35:../../libDaisy//src/per/adc.h ****     {
  36:../../libDaisy//src/per/adc.h ****         MUX_SEL_0,    /**< & */
  37:../../libDaisy//src/per/adc.h ****         MUX_SEL_1,    /**< & */
  38:../../libDaisy//src/per/adc.h ****         MUX_SEL_2,    /**< & */
  39:../../libDaisy//src/per/adc.h ****         MUX_SEL_LAST, /**< & */
  40:../../libDaisy//src/per/adc.h ****     };
  41:../../libDaisy//src/per/adc.h **** 
  42:../../libDaisy//src/per/adc.h ****     /** Initializes a single ADC pin as an ADC. 
  43:../../libDaisy//src/per/adc.h ****     \param pin Pin to init.
  44:../../libDaisy//src/per/adc.h ****      */
  45:../../libDaisy//src/per/adc.h ****     void InitSingle(dsy_gpio_pin pin);
  46:../../libDaisy//src/per/adc.h **** 
  47:../../libDaisy//src/per/adc.h ****     /** 
  48:../../libDaisy//src/per/adc.h ****     Initializes a single ADC pin as a Multiplexed ADC.
  49:../../libDaisy//src/per/adc.h ****     Requires a CD405X Multiplexer connected to the pin.
  50:../../libDaisy//src/per/adc.h ****     You only need to supply the mux pins that are required,
  51:../../libDaisy//src/per/adc.h ****     e.g. a 4052 mux would only require mux_0 and mux_1.
  52:../../libDaisy//src/per/adc.h ****     Internal Callbacks handle the pin addressing.
  53:../../libDaisy//src/per/adc.h ****     \param mux_channels must be 1-8
  54:../../libDaisy//src/per/adc.h ****     \param mux_0 First mux pin
  55:../../libDaisy//src/per/adc.h ****     \param mux_1 Second mux pin
  56:../../libDaisy//src/per/adc.h ****     \param mux_2 Third mux pin
  57:../../libDaisy//src/per/adc.h ****     \param adc_pin &
  58:../../libDaisy//src/per/adc.h ****     */
ARM GAS  /var/folders/hl/qgbwny5j0fd895c2c41bk3tw0000gp/T//ccS4M3jv.s 			page 7


  59:../../libDaisy//src/per/adc.h ****     void InitMux(dsy_gpio_pin adc_pin,
  60:../../libDaisy//src/per/adc.h ****                  size_t       mux_channels,
  61:../../libDaisy//src/per/adc.h ****                  dsy_gpio_pin mux_0,
  62:../../libDaisy//src/per/adc.h ****                  dsy_gpio_pin mux_1 = {DSY_GPIOX, 0},
  63:../../libDaisy//src/per/adc.h ****                  dsy_gpio_pin mux_2 = {DSY_GPIOX, 0});
  64:../../libDaisy//src/per/adc.h **** 
  65:../../libDaisy//src/per/adc.h ****     dsy_gpio pin_;                   /**< & */
  66:../../libDaisy//src/per/adc.h ****     dsy_gpio mux_pin_[MUX_SEL_LAST]; /**< & */
  67:../../libDaisy//src/per/adc.h ****     uint8_t  mux_channels_;          /**< & */
  68:../../libDaisy//src/per/adc.h **** };
  69:../../libDaisy//src/per/adc.h **** 
  70:../../libDaisy//src/per/adc.h **** /**
  71:../../libDaisy//src/per/adc.h ****    @brief Handler for analog to digital conversion
  72:../../libDaisy//src/per/adc.h **** */
  73:../../libDaisy//src/per/adc.h **** class AdcHandle
  74:../../libDaisy//src/per/adc.h **** {
  75:../../libDaisy//src/per/adc.h ****   public:
  76:../../libDaisy//src/per/adc.h ****     /** Supported oversampling amounts */
  77:../../libDaisy//src/per/adc.h ****     enum OverSampling
  78:../../libDaisy//src/per/adc.h ****     {
  79:../../libDaisy//src/per/adc.h ****         OVS_NONE, /**< & */
  80:../../libDaisy//src/per/adc.h ****         OVS_4,    /**< & */
  81:../../libDaisy//src/per/adc.h ****         OVS_8,    /**< & */
  82:../../libDaisy//src/per/adc.h ****         OVS_16,   /**< & */
  83:../../libDaisy//src/per/adc.h ****         OVS_32,   /**< & */
  84:../../libDaisy//src/per/adc.h ****         OVS_64,   /**< & */
  85:../../libDaisy//src/per/adc.h ****         OVS_128,  /**< & */
  86:../../libDaisy//src/per/adc.h ****         OVS_256,  /**< & */
  87:../../libDaisy//src/per/adc.h ****         OVS_512,  /**< & */
  88:../../libDaisy//src/per/adc.h ****         OVS_1024, /**< & */
  89:../../libDaisy//src/per/adc.h ****         OVS_LAST, /**< & */
  90:../../libDaisy//src/per/adc.h ****     };
  91:../../libDaisy//src/per/adc.h **** 
  92:../../libDaisy//src/per/adc.h ****     AdcHandle() {}
  93:../../libDaisy//src/per/adc.h ****     ~AdcHandle() {}
  86              		.loc 6 93 5 is_stmt 1 view .LVU11
  87              		.loc 6 93 5 is_stmt 0 view .LVU12
  88              	.LBE723:
  89              	.LBB724:
  90              	.LBI724:
  91              		.file 7 "../../libDaisy//src/hid/audio.h"
   1:../../libDaisy//src/hid/audio.h **** #ifndef DSY_AUDIO_H
   2:../../libDaisy//src/hid/audio.h **** #define DSY_AUDIO_H /**< & */
   3:../../libDaisy//src/hid/audio.h **** 
   4:../../libDaisy//src/hid/audio.h **** #include "per/sai.h"
   5:../../libDaisy//src/hid/audio.h **** 
   6:../../libDaisy//src/hid/audio.h **** namespace daisy
   7:../../libDaisy//src/hid/audio.h **** {
   8:../../libDaisy//src/hid/audio.h **** /** @brief Audio Engine Handle
   9:../../libDaisy//src/hid/audio.h ****  *  @ingroup audio 
  10:../../libDaisy//src/hid/audio.h ****  *  @details This class allows for higher level access to an audio engine.
  11:../../libDaisy//src/hid/audio.h ****  *           If you're using a SOM like the DaisySeed or DaisyPatchSM (or any 
  12:../../libDaisy//src/hid/audio.h ****  *            board that includes one of those objects) then the intialization
  13:../../libDaisy//src/hid/audio.h ****  *            is already taken  care of.
  14:../../libDaisy//src/hid/audio.h ****  *           If you're setting up your own custom hardware, or need to make changes
  15:../../libDaisy//src/hid/audio.h ****  *           you will have to take the following steps:
  16:../../libDaisy//src/hid/audio.h ****  *             1. Create and Initialize an SaiHandle or two depending on your requirements
ARM GAS  /var/folders/hl/qgbwny5j0fd895c2c41bk3tw0000gp/T//ccS4M3jv.s 			page 8


  17:../../libDaisy//src/hid/audio.h ****  *             2. Initialize the Audio Handle with the desired settings and the Initialized SaiHand
  18:../../libDaisy//src/hid/audio.h ****  *             3. If the connected codec requires special configuration or initialization, do so
  19:../../libDaisy//src/hid/audio.h ****  *             4. Write a callback method using either the AudioCallback or the InterleavingAudioCa
  20:../../libDaisy//src/hid/audio.h ****  *             5. Start the Audio using one of the StartAudio function
  21:../../libDaisy//src/hid/audio.h ****  */
  22:../../libDaisy//src/hid/audio.h **** class AudioHandle
  23:../../libDaisy//src/hid/audio.h **** {
  24:../../libDaisy//src/hid/audio.h ****   public:
  25:../../libDaisy//src/hid/audio.h ****     /** Manually configurable details about the Audio Engine */
  26:../../libDaisy//src/hid/audio.h ****     /** TODO: Figure out how to get samplerate in here. */
  27:../../libDaisy//src/hid/audio.h ****     struct Config
  28:../../libDaisy//src/hid/audio.h ****     {
  29:../../libDaisy//src/hid/audio.h ****         /** number of samples to process per callback */
  30:../../libDaisy//src/hid/audio.h ****         size_t blocksize;
  31:../../libDaisy//src/hid/audio.h **** 
  32:../../libDaisy//src/hid/audio.h ****         /**< Sample rate of audio */
  33:../../libDaisy//src/hid/audio.h ****         SaiHandle::Config::SampleRate samplerate;
  34:../../libDaisy//src/hid/audio.h **** 
  35:../../libDaisy//src/hid/audio.h ****         /** factor for adjustment before and after callback for hardware that may have extra headro
  36:../../libDaisy//src/hid/audio.h ****         float postgain;
  37:../../libDaisy//src/hid/audio.h **** 
  38:../../libDaisy//src/hid/audio.h ****         /** factor for additional one-sided compensation to audio path for hardware that may
  39:../../libDaisy//src/hid/audio.h ****          *  have unequal input/output ranges
  40:../../libDaisy//src/hid/audio.h ****          */
  41:../../libDaisy//src/hid/audio.h ****         float output_compensation;
  42:../../libDaisy//src/hid/audio.h **** 
  43:../../libDaisy//src/hid/audio.h ****         /** Sets default values for config struct */
  44:../../libDaisy//src/hid/audio.h ****         Config()
  45:../../libDaisy//src/hid/audio.h ****         : blocksize(48),
  46:../../libDaisy//src/hid/audio.h ****           samplerate(SaiHandle::Config::SampleRate::SAI_48KHZ),
  47:../../libDaisy//src/hid/audio.h ****           postgain(1.f),
  48:../../libDaisy//src/hid/audio.h ****           output_compensation(1.f)
  49:../../libDaisy//src/hid/audio.h ****         {
  50:../../libDaisy//src/hid/audio.h ****         }
  51:../../libDaisy//src/hid/audio.h ****     };
  52:../../libDaisy//src/hid/audio.h **** 
  53:../../libDaisy//src/hid/audio.h ****     enum class Result
  54:../../libDaisy//src/hid/audio.h ****     {
  55:../../libDaisy//src/hid/audio.h ****         OK,
  56:../../libDaisy//src/hid/audio.h ****         ERR,
  57:../../libDaisy//src/hid/audio.h ****     };
  58:../../libDaisy//src/hid/audio.h **** 
  59:../../libDaisy//src/hid/audio.h ****     /** Non-Interleaving input buffer
  60:../../libDaisy//src/hid/audio.h ****      * Buffer arranged by float[chn][sample] 
  61:../../libDaisy//src/hid/audio.h ****      * const so that the user can't modify the input
  62:../../libDaisy//src/hid/audio.h ****      */
  63:../../libDaisy//src/hid/audio.h ****     typedef const float* const* InputBuffer;
  64:../../libDaisy//src/hid/audio.h **** 
  65:../../libDaisy//src/hid/audio.h ****     /** Non-Interleaving output buffer
  66:../../libDaisy//src/hid/audio.h ****      * Arranged by float[chn][sample] 
  67:../../libDaisy//src/hid/audio.h ****      */
  68:../../libDaisy//src/hid/audio.h ****     typedef float** OutputBuffer;
  69:../../libDaisy//src/hid/audio.h **** 
  70:../../libDaisy//src/hid/audio.h ****     /** Type for a Non-Interleaving audio callback 
  71:../../libDaisy//src/hid/audio.h ****      * Non-Interleaving audio callbacks in daisy will be of this type
  72:../../libDaisy//src/hid/audio.h ****      */
  73:../../libDaisy//src/hid/audio.h ****     typedef void (*AudioCallback)(InputBuffer  in,
ARM GAS  /var/folders/hl/qgbwny5j0fd895c2c41bk3tw0000gp/T//ccS4M3jv.s 			page 9


  74:../../libDaisy//src/hid/audio.h ****                                   OutputBuffer out,
  75:../../libDaisy//src/hid/audio.h ****                                   size_t       size);
  76:../../libDaisy//src/hid/audio.h **** 
  77:../../libDaisy//src/hid/audio.h ****     /** Interleaving Input buffer
  78:../../libDaisy//src/hid/audio.h ****      ** audio is prepared as { L0, R0, L1, R1, . . . LN, RN }]
  79:../../libDaisy//src/hid/audio.h ****      ** this is const, as the user shouldn't modify it
  80:../../libDaisy//src/hid/audio.h ****     */
  81:../../libDaisy//src/hid/audio.h ****     typedef const float* InterleavingInputBuffer;
  82:../../libDaisy//src/hid/audio.h **** 
  83:../../libDaisy//src/hid/audio.h ****     /** Interleaving Output buffer 
  84:../../libDaisy//src/hid/audio.h ****      ** audio is prepared as { L0, R0, L1, R1, . . . LN, RN }
  85:../../libDaisy//src/hid/audio.h ****     */
  86:../../libDaisy//src/hid/audio.h ****     typedef float* InterleavingOutputBuffer;
  87:../../libDaisy//src/hid/audio.h **** 
  88:../../libDaisy//src/hid/audio.h ****     /** Interleaving Audio Callback 
  89:../../libDaisy//src/hid/audio.h ****      * Interleaving audio callbacks in daisy must be of this type
  90:../../libDaisy//src/hid/audio.h ****      */
  91:../../libDaisy//src/hid/audio.h ****     typedef void (*InterleavingAudioCallback)(InterleavingInputBuffer  in,
  92:../../libDaisy//src/hid/audio.h ****                                               InterleavingOutputBuffer out,
  93:../../libDaisy//src/hid/audio.h ****                                               size_t                   size);
  94:../../libDaisy//src/hid/audio.h **** 
  95:../../libDaisy//src/hid/audio.h ****     AudioHandle() : pimpl_(nullptr) {}
  96:../../libDaisy//src/hid/audio.h ****     ~AudioHandle() {}
  92              		.loc 7 96 5 is_stmt 1 view .LVU13
  93              		.loc 7 96 5 is_stmt 0 view .LVU14
  94              	.LBE724:
  95              	.LBB725:
  96              	.LBI725:
  97              		.file 8 "../../libDaisy//src/sys/system.h"
   1:../../libDaisy//src/sys/system.h **** #ifndef DSY_SYSTEM_H
   2:../../libDaisy//src/sys/system.h **** #define DSY_SYSTEM_H
   3:../../libDaisy//src/sys/system.h **** 
   4:../../libDaisy//src/sys/system.h **** #ifndef UNIT_TEST // for unit tests, a dummy implementation is provided below
   5:../../libDaisy//src/sys/system.h **** 
   6:../../libDaisy//src/sys/system.h **** #include <cstdint>
   7:../../libDaisy//src/sys/system.h **** #include "per/tim.h"
   8:../../libDaisy//src/sys/system.h **** 
   9:../../libDaisy//src/sys/system.h **** namespace daisy
  10:../../libDaisy//src/sys/system.h **** {
  11:../../libDaisy//src/sys/system.h **** /** A handle for interacting with the Core System. 
  12:../../libDaisy//src/sys/system.h ****  ** This includes the Clock tree, MPU, global DMA initialization,
  13:../../libDaisy//src/sys/system.h ****  ** cache handling, and any other necessary global initiailzation
  14:../../libDaisy//src/sys/system.h ****  **
  15:../../libDaisy//src/sys/system.h ****  ** @author shensley
  16:../../libDaisy//src/sys/system.h ****  ** @ingroup system
  17:../../libDaisy//src/sys/system.h ****  */
  18:../../libDaisy//src/sys/system.h **** class System
  19:../../libDaisy//src/sys/system.h **** {
  20:../../libDaisy//src/sys/system.h ****   public:
  21:../../libDaisy//src/sys/system.h ****     /** Contains settings for initializing the System */
  22:../../libDaisy//src/sys/system.h ****     struct Config
  23:../../libDaisy//src/sys/system.h ****     {
  24:../../libDaisy//src/sys/system.h ****         /** Specifies the system clock frequency that feeds APB/AHB clocks, etc. */
  25:../../libDaisy//src/sys/system.h ****         enum class SysClkFreq
  26:../../libDaisy//src/sys/system.h ****         {
  27:../../libDaisy//src/sys/system.h ****             FREQ_400MHZ,
  28:../../libDaisy//src/sys/system.h ****             FREQ_480MHZ,
ARM GAS  /var/folders/hl/qgbwny5j0fd895c2c41bk3tw0000gp/T//ccS4M3jv.s 			page 10


  29:../../libDaisy//src/sys/system.h ****         };
  30:../../libDaisy//src/sys/system.h **** 
  31:../../libDaisy//src/sys/system.h ****         /** Method to call on the struct to set to defaults
  32:../../libDaisy//src/sys/system.h ****          ** CPU Freq set to 400MHz
  33:../../libDaisy//src/sys/system.h ****          ** Cache Enabled 
  34:../../libDaisy//src/sys/system.h ****          ** */
  35:../../libDaisy//src/sys/system.h ****         void Defaults()
  36:../../libDaisy//src/sys/system.h ****         {
  37:../../libDaisy//src/sys/system.h ****             cpu_freq    = SysClkFreq::FREQ_400MHZ;
  38:../../libDaisy//src/sys/system.h ****             use_dcache  = true;
  39:../../libDaisy//src/sys/system.h ****             use_icache  = true;
  40:../../libDaisy//src/sys/system.h ****             skip_clocks = false;
  41:../../libDaisy//src/sys/system.h ****         }
  42:../../libDaisy//src/sys/system.h **** 
  43:../../libDaisy//src/sys/system.h ****         /** Method to call on the struct to set to boost mode:
  44:../../libDaisy//src/sys/system.h ****          ** CPU Freq set to 480MHz
  45:../../libDaisy//src/sys/system.h ****          ** Cache Enabled 
  46:../../libDaisy//src/sys/system.h ****          ** */
  47:../../libDaisy//src/sys/system.h ****         void Boost()
  48:../../libDaisy//src/sys/system.h ****         {
  49:../../libDaisy//src/sys/system.h ****             cpu_freq    = SysClkFreq::FREQ_480MHZ;
  50:../../libDaisy//src/sys/system.h ****             use_dcache  = true;
  51:../../libDaisy//src/sys/system.h ****             use_icache  = true;
  52:../../libDaisy//src/sys/system.h ****             skip_clocks = false;
  53:../../libDaisy//src/sys/system.h ****         }
  54:../../libDaisy//src/sys/system.h **** 
  55:../../libDaisy//src/sys/system.h ****         SysClkFreq cpu_freq;
  56:../../libDaisy//src/sys/system.h ****         bool       use_dcache;
  57:../../libDaisy//src/sys/system.h ****         bool       use_icache;
  58:../../libDaisy//src/sys/system.h ****         bool       skip_clocks;
  59:../../libDaisy//src/sys/system.h ****     };
  60:../../libDaisy//src/sys/system.h **** 
  61:../../libDaisy//src/sys/system.h ****     /** Describes the different regions of memory available to the Daisy
  62:../../libDaisy//src/sys/system.h ****      * 
  63:../../libDaisy//src/sys/system.h ****      */
  64:../../libDaisy//src/sys/system.h ****     enum MemoryRegion
  65:../../libDaisy//src/sys/system.h ****     {
  66:../../libDaisy//src/sys/system.h ****         INTERNAL_FLASH = 0,
  67:../../libDaisy//src/sys/system.h ****         ITCMRAM,
  68:../../libDaisy//src/sys/system.h ****         DTCMRAM,
  69:../../libDaisy//src/sys/system.h ****         SRAM_D1,
  70:../../libDaisy//src/sys/system.h ****         SRAM_D2,
  71:../../libDaisy//src/sys/system.h ****         SRAM_D3,
  72:../../libDaisy//src/sys/system.h ****         SDRAM,
  73:../../libDaisy//src/sys/system.h ****         QSPI,
  74:../../libDaisy//src/sys/system.h ****         INVALID_ADDRESS,
  75:../../libDaisy//src/sys/system.h ****     };
  76:../../libDaisy//src/sys/system.h **** 
  77:../../libDaisy//src/sys/system.h ****     System() {}
  78:../../libDaisy//src/sys/system.h ****     ~System() {}
  98              		.loc 8 78 5 is_stmt 1 view .LVU15
  99              		.loc 8 78 5 is_stmt 0 view .LVU16
 100              	.LBE725:
 101              		.loc 2 65 26 view .LVU17
 102 0000 7047     		bx	lr
 103              		.cfi_endproc
 104              	.LFE4784:
ARM GAS  /var/folders/hl/qgbwny5j0fd895c2c41bk3tw0000gp/T//ccS4M3jv.s 			page 11


 106              		.weak	_ZN5daisy8patch_sm12DaisyPatchSMD1Ev
 107              		.thumb_set _ZN5daisy8patch_sm12DaisyPatchSMD1Ev,_ZN5daisy8patch_sm12DaisyPatchSMD2Ev
 108 0002 00BF     		.section	.text._ZN7drumSetD2Ev,"axG",%progbits,_ZN7drumSetD5Ev,comdat
 109              		.align	1
 110              		.p2align 2,,3
 111              		.weak	_ZN7drumSetD2Ev
 112              		.syntax unified
 113              		.thumb
 114              		.thumb_func
 115              		.fpu fpv5-d16
 117              	_ZN7drumSetD2Ev:
 118              	.LVL2:
 119              	.LFB5404:
 120              		.file 9 "drum.h"
   1:drum.h        **** #pragma once
   2:drum.h        **** #ifndef DRUM_H
   3:drum.h        **** #define DRUM_H
   4:drum.h        **** 
   5:drum.h        **** #include "daisy.h"
   6:drum.h        **** #include "daisysp.h"
   7:drum.h        **** 
   8:drum.h        **** using namespace daisysp;
   9:drum.h        **** 
  10:drum.h        **** class drumSet
 121              		.loc 9 10 7 is_stmt 1 view -0
 122              		.cfi_startproc
 123              		@ args = 0, pretend = 0, frame = 0
 124              		@ frame_needed = 0, uses_anonymous_args = 0
 125              		@ link register save eliminated.
 126              	.LBB726:
 127              	.LBI726:
 128              		.file 10 "../../DaisySP//Source/Drums/hihat.h"
   1:../../DaisySP//Source/Drums/hihat.h **** #pragma once
   2:../../DaisySP//Source/Drums/hihat.h **** #ifndef DSY_HIHAT_H
   3:../../DaisySP//Source/Drums/hihat.h **** #define DSY_HIHAT_H
   4:../../DaisySP//Source/Drums/hihat.h **** 
   5:../../DaisySP//Source/Drums/hihat.h **** #include "Filters/svf.h"
   6:../../DaisySP//Source/Drums/hihat.h **** #include "Synthesis/oscillator.h"
   7:../../DaisySP//Source/Drums/hihat.h **** 
   8:../../DaisySP//Source/Drums/hihat.h **** #include <stdint.h>
   9:../../DaisySP//Source/Drums/hihat.h **** #include <stdlib.h>
  10:../../DaisySP//Source/Drums/hihat.h **** #ifdef __cplusplus
  11:../../DaisySP//Source/Drums/hihat.h **** 
  12:../../DaisySP//Source/Drums/hihat.h **** /** @file hihat.h */
  13:../../DaisySP//Source/Drums/hihat.h **** 
  14:../../DaisySP//Source/Drums/hihat.h **** namespace daisysp
  15:../../DaisySP//Source/Drums/hihat.h **** {
  16:../../DaisySP//Source/Drums/hihat.h **** /**  
  17:../../DaisySP//Source/Drums/hihat.h ****        @brief 808 style "metallic noise" with 6 square oscillators.
  18:../../DaisySP//Source/Drums/hihat.h ****        @author Ben Sergentanis
  19:../../DaisySP//Source/Drums/hihat.h ****        @date Jan 2021
  20:../../DaisySP//Source/Drums/hihat.h ****        Ported from pichenettes/eurorack/plaits/dsp/drums/hihat.h \n
  21:../../DaisySP//Source/Drums/hihat.h ****        to an independent module. \n
  22:../../DaisySP//Source/Drums/hihat.h ****        Original code written by Emilie Gillet in 2016. \n
  23:../../DaisySP//Source/Drums/hihat.h **** */
  24:../../DaisySP//Source/Drums/hihat.h **** class SquareNoise
  25:../../DaisySP//Source/Drums/hihat.h **** {
ARM GAS  /var/folders/hl/qgbwny5j0fd895c2c41bk3tw0000gp/T//ccS4M3jv.s 			page 12


  26:../../DaisySP//Source/Drums/hihat.h ****   public:
  27:../../DaisySP//Source/Drums/hihat.h ****     SquareNoise() {}
  28:../../DaisySP//Source/Drums/hihat.h ****     ~SquareNoise() {}
  29:../../DaisySP//Source/Drums/hihat.h **** 
  30:../../DaisySP//Source/Drums/hihat.h ****     void Init(float sample_rate);
  31:../../DaisySP//Source/Drums/hihat.h **** 
  32:../../DaisySP//Source/Drums/hihat.h ****     float Process(float f0);
  33:../../DaisySP//Source/Drums/hihat.h **** 
  34:../../DaisySP//Source/Drums/hihat.h ****   private:
  35:../../DaisySP//Source/Drums/hihat.h ****     uint32_t phase_[6];
  36:../../DaisySP//Source/Drums/hihat.h **** };
  37:../../DaisySP//Source/Drums/hihat.h **** 
  38:../../DaisySP//Source/Drums/hihat.h **** /**  
  39:../../DaisySP//Source/Drums/hihat.h ****        @brief Ring mod style metallic noise generator.
  40:../../DaisySP//Source/Drums/hihat.h ****        @author Ben Sergentanis
  41:../../DaisySP//Source/Drums/hihat.h ****        @date Jan 2021
  42:../../DaisySP//Source/Drums/hihat.h ****        Ported from pichenettes/eurorack/plaits/dsp/drums/hihat.h \n
  43:../../DaisySP//Source/Drums/hihat.h ****        to an independent module. \n
  44:../../DaisySP//Source/Drums/hihat.h ****        Original code written by Emilie Gillet in 2016. \n
  45:../../DaisySP//Source/Drums/hihat.h **** */
  46:../../DaisySP//Source/Drums/hihat.h **** class RingModNoise
  47:../../DaisySP//Source/Drums/hihat.h **** {
  48:../../DaisySP//Source/Drums/hihat.h ****   public:
  49:../../DaisySP//Source/Drums/hihat.h ****     RingModNoise() {}
  50:../../DaisySP//Source/Drums/hihat.h ****     ~RingModNoise() {}
  51:../../DaisySP//Source/Drums/hihat.h **** 
  52:../../DaisySP//Source/Drums/hihat.h ****     void Init(float sample_rate);
  53:../../DaisySP//Source/Drums/hihat.h **** 
  54:../../DaisySP//Source/Drums/hihat.h ****     float Process(float f0);
  55:../../DaisySP//Source/Drums/hihat.h **** 
  56:../../DaisySP//Source/Drums/hihat.h ****   private:
  57:../../DaisySP//Source/Drums/hihat.h ****     float      ProcessPair(Oscillator* osc, float f1, float f2);
  58:../../DaisySP//Source/Drums/hihat.h ****     Oscillator oscillator_[6];
  59:../../DaisySP//Source/Drums/hihat.h **** 
  60:../../DaisySP//Source/Drums/hihat.h ****     float sample_rate_;
  61:../../DaisySP//Source/Drums/hihat.h **** };
  62:../../DaisySP//Source/Drums/hihat.h **** 
  63:../../DaisySP//Source/Drums/hihat.h **** /**  
  64:../../DaisySP//Source/Drums/hihat.h ****        @brief Swing type VCA
  65:../../DaisySP//Source/Drums/hihat.h ****        @author Ben Sergentanis
  66:../../DaisySP//Source/Drums/hihat.h ****        @date Jan 2021
  67:../../DaisySP//Source/Drums/hihat.h ****        Ported from pichenettes/eurorack/plaits/dsp/drums/hihat.h \n
  68:../../DaisySP//Source/Drums/hihat.h ****        to an independent module. \n
  69:../../DaisySP//Source/Drums/hihat.h ****        Original code written by Emilie Gillet in 2016. \n
  70:../../DaisySP//Source/Drums/hihat.h **** */
  71:../../DaisySP//Source/Drums/hihat.h **** class SwingVCA
  72:../../DaisySP//Source/Drums/hihat.h **** {
  73:../../DaisySP//Source/Drums/hihat.h ****   public:
  74:../../DaisySP//Source/Drums/hihat.h ****     float operator()(float s, float gain)
  75:../../DaisySP//Source/Drums/hihat.h ****     {
  76:../../DaisySP//Source/Drums/hihat.h ****         s *= s > 0.0f ? 10.0f : 0.1f;
  77:../../DaisySP//Source/Drums/hihat.h ****         s = s / (1.0f + fabsf(s));
  78:../../DaisySP//Source/Drums/hihat.h ****         return (s + 1.0f) * gain;
  79:../../DaisySP//Source/Drums/hihat.h ****     }
  80:../../DaisySP//Source/Drums/hihat.h **** };
  81:../../DaisySP//Source/Drums/hihat.h **** 
  82:../../DaisySP//Source/Drums/hihat.h **** /**  
ARM GAS  /var/folders/hl/qgbwny5j0fd895c2c41bk3tw0000gp/T//ccS4M3jv.s 			page 13


  83:../../DaisySP//Source/Drums/hihat.h ****        @brief Linear type VCA
  84:../../DaisySP//Source/Drums/hihat.h ****        @author Ben Sergentanis
  85:../../DaisySP//Source/Drums/hihat.h ****        @date Jan 2021
  86:../../DaisySP//Source/Drums/hihat.h ****        Ported from pichenettes/eurorack/plaits/dsp/drums/hihat.h \n
  87:../../DaisySP//Source/Drums/hihat.h ****        to an independent module. \n
  88:../../DaisySP//Source/Drums/hihat.h ****        Original code written by Emilie Gillet in 2016. \n
  89:../../DaisySP//Source/Drums/hihat.h **** */
  90:../../DaisySP//Source/Drums/hihat.h **** class LinearVCA
  91:../../DaisySP//Source/Drums/hihat.h **** {
  92:../../DaisySP//Source/Drums/hihat.h ****   public:
  93:../../DaisySP//Source/Drums/hihat.h ****     float operator()(float s, float gain) { return s * gain; }
  94:../../DaisySP//Source/Drums/hihat.h **** };
  95:../../DaisySP//Source/Drums/hihat.h **** 
  96:../../DaisySP//Source/Drums/hihat.h **** /**  
  97:../../DaisySP//Source/Drums/hihat.h ****        @brief 808 HH, with a few extra parameters to push things to the CY territory...
  98:../../DaisySP//Source/Drums/hihat.h ****        @author Ben Sergentanis
  99:../../DaisySP//Source/Drums/hihat.h ****        @date Jan 2021
 100:../../DaisySP//Source/Drums/hihat.h ****        The template parameter MetallicNoiseSource allows another kind of "metallic \n
 101:../../DaisySP//Source/Drums/hihat.h ****        noise" to be used, for results which are more similar to KR-55 or FM hi-hats. \n \n 
 102:../../DaisySP//Source/Drums/hihat.h ****        Ported from pichenettes/eurorack/plaits/dsp/drums/hihat.h \n
 103:../../DaisySP//Source/Drums/hihat.h ****        to an independent module. \n
 104:../../DaisySP//Source/Drums/hihat.h ****        Original code written by Emilie Gillet in 2016. \n
 105:../../DaisySP//Source/Drums/hihat.h **** */
 106:../../DaisySP//Source/Drums/hihat.h **** template <typename MetallicNoiseSource = SquareNoise,
 107:../../DaisySP//Source/Drums/hihat.h ****           typename VCA                 = LinearVCA,
 108:../../DaisySP//Source/Drums/hihat.h ****           bool resonance               = true>
 109:../../DaisySP//Source/Drums/hihat.h **** class HiHat
 110:../../DaisySP//Source/Drums/hihat.h **** {
 111:../../DaisySP//Source/Drums/hihat.h ****   public:
 112:../../DaisySP//Source/Drums/hihat.h ****     HiHat() {}
 113:../../DaisySP//Source/Drums/hihat.h ****     ~HiHat() {}
 129              		.loc 10 113 5 view .LVU19
 130              	.LBB727:
 131              	.LBI727:
 132              		.file 11 "../../DaisySP//Source/Filters/svf.h"
   1:../../DaisySP//Source/Filters/svf.h **** #pragma once
   2:../../DaisySP//Source/Filters/svf.h **** #ifndef DSY_SVF_H
   3:../../DaisySP//Source/Filters/svf.h **** #define DSY_SVF_H
   4:../../DaisySP//Source/Filters/svf.h **** 
   5:../../DaisySP//Source/Filters/svf.h **** namespace daisysp
   6:../../DaisySP//Source/Filters/svf.h **** {
   7:../../DaisySP//Source/Filters/svf.h **** /**      Double Sampled, Stable State Variable Filter
   8:../../DaisySP//Source/Filters/svf.h **** 
   9:../../DaisySP//Source/Filters/svf.h **** Credit to Andrew Simper from musicdsp.org
  10:../../DaisySP//Source/Filters/svf.h **** 
  11:../../DaisySP//Source/Filters/svf.h **** This is his "State Variable Filter (Double Sampled, Stable)"
  12:../../DaisySP//Source/Filters/svf.h **** 
  13:../../DaisySP//Source/Filters/svf.h **** Additional thanks to Laurent de Soras for stability limit, and 
  14:../../DaisySP//Source/Filters/svf.h **** Stefan Diedrichsen for the correct notch output
  15:../../DaisySP//Source/Filters/svf.h **** 
  16:../../DaisySP//Source/Filters/svf.h **** Ported by: Stephen Hensley
  17:../../DaisySP//Source/Filters/svf.h **** */
  18:../../DaisySP//Source/Filters/svf.h **** class Svf
  19:../../DaisySP//Source/Filters/svf.h **** {
  20:../../DaisySP//Source/Filters/svf.h ****   public:
  21:../../DaisySP//Source/Filters/svf.h ****     Svf() {}
  22:../../DaisySP//Source/Filters/svf.h ****     ~Svf() {}
ARM GAS  /var/folders/hl/qgbwny5j0fd895c2c41bk3tw0000gp/T//ccS4M3jv.s 			page 14


 133              		.loc 11 22 5 view .LVU20
 134              		.loc 11 22 5 is_stmt 0 view .LVU21
 135              	.LBE727:
 136              	.LBB728:
 137              	.LBI728:
 138              		.loc 11 22 5 is_stmt 1 view .LVU22
 139              		.loc 11 22 5 is_stmt 0 view .LVU23
 140              	.LBE728:
 141              	.LBB729:
 142              	.LBI729:
  28:../../DaisySP//Source/Drums/hihat.h **** 
 143              		.loc 10 28 5 is_stmt 1 view .LVU24
  28:../../DaisySP//Source/Drums/hihat.h **** 
 144              		.loc 10 28 5 is_stmt 0 view .LVU25
 145              	.LBE729:
 146              	.LBE726:
 147              	.LBB730:
 148              	.LBI730:
 149              		.file 12 "../../DaisySP//Source/Drums/synthsnaredrum.h"
   1:../../DaisySP//Source/Drums/synthsnaredrum.h **** #pragma once
   2:../../DaisySP//Source/Drums/synthsnaredrum.h **** #ifndef DSY_SYNTHSD_H
   3:../../DaisySP//Source/Drums/synthsnaredrum.h **** #define DSY_SYNTHSD_H
   4:../../DaisySP//Source/Drums/synthsnaredrum.h **** 
   5:../../DaisySP//Source/Drums/synthsnaredrum.h **** #include "Filters/svf.h"
   6:../../DaisySP//Source/Drums/synthsnaredrum.h **** 
   7:../../DaisySP//Source/Drums/synthsnaredrum.h **** #include <stdint.h>
   8:../../DaisySP//Source/Drums/synthsnaredrum.h **** #ifdef __cplusplus
   9:../../DaisySP//Source/Drums/synthsnaredrum.h **** 
  10:../../DaisySP//Source/Drums/synthsnaredrum.h **** /** @file synthsnaredrum.h */
  11:../../DaisySP//Source/Drums/synthsnaredrum.h **** 
  12:../../DaisySP//Source/Drums/synthsnaredrum.h **** namespace daisysp
  13:../../DaisySP//Source/Drums/synthsnaredrum.h **** {
  14:../../DaisySP//Source/Drums/synthsnaredrum.h **** /**  
  15:../../DaisySP//Source/Drums/synthsnaredrum.h ****        @brief Naive snare drum model (two modulated oscillators + filtered noise).
  16:../../DaisySP//Source/Drums/synthsnaredrum.h ****        @author Ben Sergentanis
  17:../../DaisySP//Source/Drums/synthsnaredrum.h ****        @date Jan 2021
  18:../../DaisySP//Source/Drums/synthsnaredrum.h ****        Uses a few magic numbers taken from the 909 schematics: \n 
  19:../../DaisySP//Source/Drums/synthsnaredrum.h ****        - Ratio between the two modes of the drum set to 1.47. \n
  20:../../DaisySP//Source/Drums/synthsnaredrum.h ****        - Funky coupling between the two modes. \n
  21:../../DaisySP//Source/Drums/synthsnaredrum.h ****        - Noise coloration filters and envelope shapes for the snare. \n \n
  22:../../DaisySP//Source/Drums/synthsnaredrum.h ****        Ported from pichenettes/eurorack/plaits/dsp/drums/synthetic_snare_drum.h \n
  23:../../DaisySP//Source/Drums/synthsnaredrum.h ****        to an independent module. \n
  24:../../DaisySP//Source/Drums/synthsnaredrum.h ****        Original code written by Emilie Gillet in 2016. \n
  25:../../DaisySP//Source/Drums/synthsnaredrum.h **** */
  26:../../DaisySP//Source/Drums/synthsnaredrum.h **** class SyntheticSnareDrum
  27:../../DaisySP//Source/Drums/synthsnaredrum.h **** {
  28:../../DaisySP//Source/Drums/synthsnaredrum.h ****   public:
  29:../../DaisySP//Source/Drums/synthsnaredrum.h ****     SyntheticSnareDrum() {}
  30:../../DaisySP//Source/Drums/synthsnaredrum.h ****     ~SyntheticSnareDrum() {}
 150              		.loc 12 30 5 is_stmt 1 view .LVU26
 151              	.LBB731:
 152              	.LBI731:
 153              		.loc 11 22 5 view .LVU27
 154              		.loc 11 22 5 is_stmt 0 view .LVU28
 155              	.LBE731:
 156              	.LBB732:
 157              	.LBI732:
ARM GAS  /var/folders/hl/qgbwny5j0fd895c2c41bk3tw0000gp/T//ccS4M3jv.s 			page 15


 158              		.loc 11 22 5 is_stmt 1 view .LVU29
 159              		.loc 11 22 5 is_stmt 0 view .LVU30
 160              	.LBE732:
 161              	.LBB733:
 162              	.LBI733:
 163              		.loc 11 22 5 is_stmt 1 view .LVU31
 164              		.loc 11 22 5 is_stmt 0 view .LVU32
 165              	.LBE733:
 166              	.LBE730:
 167              	.LBB734:
 168              	.LBI734:
 169              		.file 13 "../../DaisySP//Source/Drums/synthbassdrum.h"
   1:../../DaisySP//Source/Drums/synthbassdrum.h **** #pragma once
   2:../../DaisySP//Source/Drums/synthbassdrum.h **** #ifndef DSY_SYNTHBD_H
   3:../../DaisySP//Source/Drums/synthbassdrum.h **** #define DSY_SYNTHBD_H
   4:../../DaisySP//Source/Drums/synthbassdrum.h **** 
   5:../../DaisySP//Source/Drums/synthbassdrum.h **** #include "Filters/svf.h"
   6:../../DaisySP//Source/Drums/synthbassdrum.h **** #include "Utility/dsp.h"
   7:../../DaisySP//Source/Drums/synthbassdrum.h **** 
   8:../../DaisySP//Source/Drums/synthbassdrum.h **** #include <stdint.h>
   9:../../DaisySP//Source/Drums/synthbassdrum.h **** #ifdef __cplusplus
  10:../../DaisySP//Source/Drums/synthbassdrum.h **** 
  11:../../DaisySP//Source/Drums/synthbassdrum.h **** /** @file synthbassdrum.h */
  12:../../DaisySP//Source/Drums/synthbassdrum.h **** 
  13:../../DaisySP//Source/Drums/synthbassdrum.h **** namespace daisysp
  14:../../DaisySP//Source/Drums/synthbassdrum.h **** {
  15:../../DaisySP//Source/Drums/synthbassdrum.h **** /**  
  16:../../DaisySP//Source/Drums/synthbassdrum.h ****        @brief Click noise for SyntheticBassDrum
  17:../../DaisySP//Source/Drums/synthbassdrum.h ****        @author Ben Sergentanis
  18:../../DaisySP//Source/Drums/synthbassdrum.h ****        @date Jan 2021
  19:../../DaisySP//Source/Drums/synthbassdrum.h ****        Ported from pichenettes/eurorack/plaits/dsp/drums/synthetic_bass_drum.h \n
  20:../../DaisySP//Source/Drums/synthbassdrum.h ****        to an independent module. \n
  21:../../DaisySP//Source/Drums/synthbassdrum.h ****        Original code written by Emilie Gillet in 2016. \n
  22:../../DaisySP//Source/Drums/synthbassdrum.h **** */
  23:../../DaisySP//Source/Drums/synthbassdrum.h **** class SyntheticBassDrumClick
  24:../../DaisySP//Source/Drums/synthbassdrum.h **** {
  25:../../DaisySP//Source/Drums/synthbassdrum.h ****   public:
  26:../../DaisySP//Source/Drums/synthbassdrum.h ****     SyntheticBassDrumClick() {}
  27:../../DaisySP//Source/Drums/synthbassdrum.h ****     ~SyntheticBassDrumClick() {}
  28:../../DaisySP//Source/Drums/synthbassdrum.h **** 
  29:../../DaisySP//Source/Drums/synthbassdrum.h ****     /** Init the module
  30:../../DaisySP//Source/Drums/synthbassdrum.h ****         \param sample_rate Audio engine sample rate.
  31:../../DaisySP//Source/Drums/synthbassdrum.h ****     */
  32:../../DaisySP//Source/Drums/synthbassdrum.h ****     void Init(float sample_rate);
  33:../../DaisySP//Source/Drums/synthbassdrum.h **** 
  34:../../DaisySP//Source/Drums/synthbassdrum.h ****     /** Get the next sample.
  35:../../DaisySP//Source/Drums/synthbassdrum.h ****         \param in Trigger the click.
  36:../../DaisySP//Source/Drums/synthbassdrum.h ****     */
  37:../../DaisySP//Source/Drums/synthbassdrum.h ****     float Process(float in);
  38:../../DaisySP//Source/Drums/synthbassdrum.h **** 
  39:../../DaisySP//Source/Drums/synthbassdrum.h ****   private:
  40:../../DaisySP//Source/Drums/synthbassdrum.h ****     float lp_;
  41:../../DaisySP//Source/Drums/synthbassdrum.h ****     float hp_;
  42:../../DaisySP//Source/Drums/synthbassdrum.h ****     Svf   filter_;
  43:../../DaisySP//Source/Drums/synthbassdrum.h **** };
  44:../../DaisySP//Source/Drums/synthbassdrum.h **** 
  45:../../DaisySP//Source/Drums/synthbassdrum.h **** /**  
ARM GAS  /var/folders/hl/qgbwny5j0fd895c2c41bk3tw0000gp/T//ccS4M3jv.s 			page 16


  46:../../DaisySP//Source/Drums/synthbassdrum.h ****        @brief Attack Noise generator for SyntheticBassDrum. 
  47:../../DaisySP//Source/Drums/synthbassdrum.h ****        @author Ben Sergentanis
  48:../../DaisySP//Source/Drums/synthbassdrum.h ****        @date Jan 2021
  49:../../DaisySP//Source/Drums/synthbassdrum.h ****        Ported from pichenettes/eurorack/plaits/dsp/drums/synthetic_bass_drum.h \n
  50:../../DaisySP//Source/Drums/synthbassdrum.h ****        to an independent module. \n
  51:../../DaisySP//Source/Drums/synthbassdrum.h ****        Original code written by Emilie Gillet in 2016. \n
  52:../../DaisySP//Source/Drums/synthbassdrum.h **** */
  53:../../DaisySP//Source/Drums/synthbassdrum.h **** class SyntheticBassDrumAttackNoise
  54:../../DaisySP//Source/Drums/synthbassdrum.h **** {
  55:../../DaisySP//Source/Drums/synthbassdrum.h ****   public:
  56:../../DaisySP//Source/Drums/synthbassdrum.h ****     SyntheticBassDrumAttackNoise() {}
  57:../../DaisySP//Source/Drums/synthbassdrum.h ****     ~SyntheticBassDrumAttackNoise() {}
  58:../../DaisySP//Source/Drums/synthbassdrum.h **** 
  59:../../DaisySP//Source/Drums/synthbassdrum.h ****     /** Init the module */
  60:../../DaisySP//Source/Drums/synthbassdrum.h ****     void Init();
  61:../../DaisySP//Source/Drums/synthbassdrum.h **** 
  62:../../DaisySP//Source/Drums/synthbassdrum.h ****     /** Get the next sample. */
  63:../../DaisySP//Source/Drums/synthbassdrum.h ****     float Process();
  64:../../DaisySP//Source/Drums/synthbassdrum.h **** 
  65:../../DaisySP//Source/Drums/synthbassdrum.h ****   private:
  66:../../DaisySP//Source/Drums/synthbassdrum.h ****     float lp_;
  67:../../DaisySP//Source/Drums/synthbassdrum.h ****     float hp_;
  68:../../DaisySP//Source/Drums/synthbassdrum.h **** };
  69:../../DaisySP//Source/Drums/synthbassdrum.h **** 
  70:../../DaisySP//Source/Drums/synthbassdrum.h **** /**  
  71:../../DaisySP//Source/Drums/synthbassdrum.h ****        @brief Naive bass drum model (modulated oscillator with FM + envelope).
  72:../../DaisySP//Source/Drums/synthbassdrum.h ****        @author Ben Sergentanis
  73:../../DaisySP//Source/Drums/synthbassdrum.h ****        @date Jan 2021
  74:../../DaisySP//Source/Drums/synthbassdrum.h ****        Inadvertently 909-ish. \n \n 
  75:../../DaisySP//Source/Drums/synthbassdrum.h ****        Ported from pichenettes/eurorack/plaits/dsp/drums/synthetic_bass_drum.h \n
  76:../../DaisySP//Source/Drums/synthbassdrum.h ****        to an independent module. \n
  77:../../DaisySP//Source/Drums/synthbassdrum.h ****        Original code written by Emilie Gillet in 2016. \n
  78:../../DaisySP//Source/Drums/synthbassdrum.h **** */
  79:../../DaisySP//Source/Drums/synthbassdrum.h **** class SyntheticBassDrum
  80:../../DaisySP//Source/Drums/synthbassdrum.h **** {
  81:../../DaisySP//Source/Drums/synthbassdrum.h ****   public:
  82:../../DaisySP//Source/Drums/synthbassdrum.h ****     SyntheticBassDrum() {}
  83:../../DaisySP//Source/Drums/synthbassdrum.h ****     ~SyntheticBassDrum() {}
 170              		.loc 13 83 5 is_stmt 1 view .LVU33
 171              	.LBB735:
 172              	.LBI735:
  57:../../DaisySP//Source/Drums/synthbassdrum.h **** 
 173              		.loc 13 57 5 view .LVU34
  57:../../DaisySP//Source/Drums/synthbassdrum.h **** 
 174              		.loc 13 57 5 is_stmt 0 view .LVU35
 175              	.LBE735:
 176              	.LBB736:
 177              	.LBI736:
  27:../../DaisySP//Source/Drums/synthbassdrum.h **** 
 178              		.loc 13 27 5 is_stmt 1 view .LVU36
 179              	.LBB737:
 180              	.LBI737:
 181              		.loc 11 22 5 view .LVU37
 182              		.loc 11 22 5 is_stmt 0 view .LVU38
 183              	.LBE737:
 184              	.LBE736:
 185              	.LBE734:
ARM GAS  /var/folders/hl/qgbwny5j0fd895c2c41bk3tw0000gp/T//ccS4M3jv.s 			page 17


 186              		.loc 9 10 7 view .LVU39
 187 0000 7047     		bx	lr
 188              		.cfi_endproc
 189              	.LFE5404:
 191              		.weak	_ZN7drumSetD1Ev
 192              		.thumb_set _ZN7drumSetD1Ev,_ZN7drumSetD2Ev
 193 0002 00BF     		.section	.text._ZN5daisy8patch_sm7InitBedEv,"ax",%progbits
 194              		.align	1
 195              		.p2align 2,,3
 196              		.global	_ZN5daisy8patch_sm7InitBedEv
 197              		.syntax unified
 198              		.thumb
 199              		.thumb_func
 200              		.fpu fpv5-d16
 202              	_ZN5daisy8patch_sm7InitBedEv:
 203              	.LFB4793:
 204              		.file 14 "daisy_bed.h"
   1:daisy_bed.h   **** #pragma once
   2:daisy_bed.h   **** 
   3:daisy_bed.h   **** #include "daisy.h"
   4:daisy_bed.h   **** #include "daisysp.h"
   5:daisy_bed.h   **** #include "per/gpio.h"
   6:daisy_bed.h   **** #include "daisy_patch_sm.h"
   7:daisy_bed.h   **** 
   8:daisy_bed.h   **** namespace daisy
   9:daisy_bed.h   **** {
  10:daisy_bed.h   **** namespace patch_sm
  11:daisy_bed.h   **** {
  12:daisy_bed.h   ****     // simple stupid led set up
  13:daisy_bed.h   ****     GPIO    gen_led1;
  14:daisy_bed.h   ****     GPIO    gen_led2;
  15:daisy_bed.h   ****     GPIO    cv_led1;
  16:daisy_bed.h   ****     GPIO    cv_led2;
  17:daisy_bed.h   ****     GPIO    gate_in_led1;
  18:daisy_bed.h   ****     GPIO    gate_in_led2;
  19:daisy_bed.h   ****     GPIO    gate_out_led1;
  20:daisy_bed.h   ****     GPIO    gate_out_led2;
  21:daisy_bed.h   **** 
  22:daisy_bed.h   **** 
  23:daisy_bed.h   ****     // generic leds
  24:daisy_bed.h   ****     dsy_gpio_pin oldPinD7 = DaisyPatchSM::D7;
  25:daisy_bed.h   ****     Pin newPinD7 = Pin(static_cast<GPIOPort>(oldPinD7.port), oldPinD7.pin);
  26:daisy_bed.h   ****     dsy_gpio_pin oldPinA9 = DaisyPatchSM::A9;
  27:daisy_bed.h   ****     Pin newPinA9 = Pin(static_cast<GPIOPort>(oldPinA9.port), oldPinA9.pin);
  28:daisy_bed.h   **** 
  29:daisy_bed.h   ****     // cv leds
  30:daisy_bed.h   ****     dsy_gpio_pin oldPinD2 = DaisyPatchSM::D2;
  31:daisy_bed.h   ****     Pin newPinD2 = Pin(static_cast<GPIOPort>(oldPinD2.port), oldPinD2.pin);
  32:daisy_bed.h   ****     dsy_gpio_pin oldPinD1 = DaisyPatchSM::D1;
  33:daisy_bed.h   ****     Pin newPinD1 = Pin(static_cast<GPIOPort>(oldPinD1.port), oldPinD1.pin);
  34:daisy_bed.h   ****     // ^^^ {DSY_GPIOB, 4},  /**< D1  - SPI2 CS */
  35:daisy_bed.h   **** 
  36:daisy_bed.h   ****     // gate leds
  37:daisy_bed.h   ****     dsy_gpio_pin oldPinD3 = DaisyPatchSM::D3;
  38:daisy_bed.h   ****     Pin newPinD3 = Pin(static_cast<GPIOPort>(oldPinD3.port), oldPinD3.pin);
  39:daisy_bed.h   ****     dsy_gpio_pin oldPinD6 = DaisyPatchSM::D6;
  40:daisy_bed.h   ****     Pin newPinD6 = Pin(static_cast<GPIOPort>(oldPinD6.port), oldPinD6.pin);
ARM GAS  /var/folders/hl/qgbwny5j0fd895c2c41bk3tw0000gp/T//ccS4M3jv.s 			page 18


  41:daisy_bed.h   ****     dsy_gpio_pin oldPinD4 = DaisyPatchSM::D4;
  42:daisy_bed.h   ****     Pin newPinD4 = Pin(static_cast<GPIOPort>(oldPinD4.port), oldPinD4.pin);
  43:daisy_bed.h   ****     dsy_gpio_pin oldPinD5 = DaisyPatchSM::D5;
  44:daisy_bed.h   ****     Pin newPinD5 = Pin(static_cast<GPIOPort>(oldPinD5.port), oldPinD5.pin);
  45:daisy_bed.h   **** 
  46:daisy_bed.h   ****     // remap
  47:daisy_bed.h   ****      
  48:daisy_bed.h   ****     // map buttons
  49:daisy_bed.h   ****     Switch      b1,b2;
  50:daisy_bed.h   **** 
  51:daisy_bed.h   ****     void InitBed(){
 205              		.loc 14 51 19 is_stmt 1 view -0
 206              		.cfi_startproc
 207              		@ args = 0, pretend = 0, frame = 8
 208              		@ frame_needed = 0, uses_anonymous_args = 0
  52:daisy_bed.h   ****         // leds
  53:daisy_bed.h   ****         gen_led1.Init(newPinD7, GPIO::Mode::OUTPUT);
 209              		.loc 14 53 9 view .LVU41
  51:daisy_bed.h   ****         // leds
 210              		.loc 14 51 19 is_stmt 0 view .LVU42
 211 0000 10B5     		push	{r4, lr}
 212              		.cfi_def_cfa_offset 8
 213              		.cfi_offset 4, -8
 214              		.cfi_offset 14, -4
 215              		.loc 14 53 22 view .LVU43
 216 0002 2D49     		ldr	r1, .L7
  51:daisy_bed.h   ****         // leds
 217              		.loc 14 51 19 view .LVU44
 218 0004 84B0     		sub	sp, sp, #16
 219              		.cfi_def_cfa_offset 24
 220              		.loc 14 53 22 view .LVU45
 221 0006 0024     		movs	r4, #0
 222 0008 0122     		movs	r2, #1
 223 000a 0968     		ldr	r1, [r1]
 224 000c 2346     		mov	r3, r4
 225 000e 2B48     		ldr	r0, .L7+4
 226 0010 0094     		str	r4, [sp]
 227 0012 FFF7FEFF 		bl	_ZN5daisy4GPIO4InitENS_3PinENS0_4ModeENS0_4PullENS0_5SpeedE
 228              	.LVL3:
  54:daisy_bed.h   ****         gen_led2.Init(newPinA9, GPIO::Mode::OUTPUT);
 229              		.loc 14 54 9 is_stmt 1 view .LVU46
 230              		.loc 14 54 22 is_stmt 0 view .LVU47
 231 0016 2A49     		ldr	r1, .L7+8
 232 0018 2346     		mov	r3, r4
 233 001a 0122     		movs	r2, #1
 234 001c 0968     		ldr	r1, [r1]
 235 001e 2948     		ldr	r0, .L7+12
 236 0020 0094     		str	r4, [sp]
 237 0022 FFF7FEFF 		bl	_ZN5daisy4GPIO4InitENS_3PinENS0_4ModeENS0_4PullENS0_5SpeedE
 238              	.LVL4:
  55:daisy_bed.h   ****         cv_led1.Init(newPinD2, GPIO::Mode::OUTPUT);
 239              		.loc 14 55 9 is_stmt 1 view .LVU48
 240              		.loc 14 55 21 is_stmt 0 view .LVU49
 241 0026 2849     		ldr	r1, .L7+16
 242 0028 2346     		mov	r3, r4
 243 002a 0122     		movs	r2, #1
 244 002c 0968     		ldr	r1, [r1]
ARM GAS  /var/folders/hl/qgbwny5j0fd895c2c41bk3tw0000gp/T//ccS4M3jv.s 			page 19


 245 002e 2748     		ldr	r0, .L7+20
 246 0030 0094     		str	r4, [sp]
 247 0032 FFF7FEFF 		bl	_ZN5daisy4GPIO4InitENS_3PinENS0_4ModeENS0_4PullENS0_5SpeedE
 248              	.LVL5:
  56:daisy_bed.h   ****         cv_led2.Init(newPinD1, GPIO::Mode::OUTPUT);
 249              		.loc 14 56 9 is_stmt 1 view .LVU50
 250              		.loc 14 56 21 is_stmt 0 view .LVU51
 251 0036 2649     		ldr	r1, .L7+24
 252 0038 2346     		mov	r3, r4
 253 003a 0122     		movs	r2, #1
 254 003c 0968     		ldr	r1, [r1]
 255 003e 2548     		ldr	r0, .L7+28
 256 0040 0094     		str	r4, [sp]
 257 0042 FFF7FEFF 		bl	_ZN5daisy4GPIO4InitENS_3PinENS0_4ModeENS0_4PullENS0_5SpeedE
 258              	.LVL6:
  57:daisy_bed.h   ****         gate_in_led1.Init(newPinD3, GPIO::Mode::OUTPUT);
 259              		.loc 14 57 9 is_stmt 1 view .LVU52
 260              		.loc 14 57 26 is_stmt 0 view .LVU53
 261 0046 2449     		ldr	r1, .L7+32
 262 0048 2346     		mov	r3, r4
 263 004a 0122     		movs	r2, #1
 264 004c 0968     		ldr	r1, [r1]
 265 004e 2348     		ldr	r0, .L7+36
 266 0050 0094     		str	r4, [sp]
 267 0052 FFF7FEFF 		bl	_ZN5daisy4GPIO4InitENS_3PinENS0_4ModeENS0_4PullENS0_5SpeedE
 268              	.LVL7:
  58:daisy_bed.h   ****         gate_in_led2.Init(newPinD4, GPIO::Mode::OUTPUT);
 269              		.loc 14 58 9 is_stmt 1 view .LVU54
 270              		.loc 14 58 26 is_stmt 0 view .LVU55
 271 0056 2249     		ldr	r1, .L7+40
 272 0058 2346     		mov	r3, r4
 273 005a 0122     		movs	r2, #1
 274 005c 0968     		ldr	r1, [r1]
 275 005e 2148     		ldr	r0, .L7+44
 276 0060 0094     		str	r4, [sp]
 277 0062 FFF7FEFF 		bl	_ZN5daisy4GPIO4InitENS_3PinENS0_4ModeENS0_4PullENS0_5SpeedE
 278              	.LVL8:
  59:daisy_bed.h   ****         gate_out_led1.Init(newPinD6, GPIO::Mode::OUTPUT);
 279              		.loc 14 59 9 is_stmt 1 view .LVU56
 280              		.loc 14 59 27 is_stmt 0 view .LVU57
 281 0066 2049     		ldr	r1, .L7+48
 282 0068 2346     		mov	r3, r4
 283 006a 0122     		movs	r2, #1
 284 006c 0968     		ldr	r1, [r1]
 285 006e 1F48     		ldr	r0, .L7+52
 286 0070 0094     		str	r4, [sp]
 287 0072 FFF7FEFF 		bl	_ZN5daisy4GPIO4InitENS_3PinENS0_4ModeENS0_4PullENS0_5SpeedE
 288              	.LVL9:
  60:daisy_bed.h   ****         gate_out_led2.Init(newPinD5, GPIO::Mode::OUTPUT);
 289              		.loc 14 60 9 is_stmt 1 view .LVU58
 290              		.loc 14 60 27 is_stmt 0 view .LVU59
 291 0076 1E49     		ldr	r1, .L7+56
 292 0078 2346     		mov	r3, r4
 293 007a 0122     		movs	r2, #1
 294 007c 0968     		ldr	r1, [r1]
 295 007e 1D48     		ldr	r0, .L7+60
 296 0080 0094     		str	r4, [sp]
ARM GAS  /var/folders/hl/qgbwny5j0fd895c2c41bk3tw0000gp/T//ccS4M3jv.s 			page 20


 297 0082 FFF7FEFF 		bl	_ZN5daisy4GPIO4InitENS_3PinENS0_4ModeENS0_4PullENS0_5SpeedE
 298              	.LVL10:
  61:daisy_bed.h   **** 
  62:daisy_bed.h   ****         // buttons
  63:daisy_bed.h   ****         b1.Init(DaisyPatchSM::A8);
 299              		.loc 14 63 9 is_stmt 1 view .LVU60
 300              		.loc 14 63 16 is_stmt 0 view .LVU61
 301 0086 1C4B     		ldr	r3, .L7+64
 302 0088 9FED1C0A 		vldr.32	s0, .L7+68
 303 008c 1A78     		ldrb	r2, [r3]	@ zero_extendqisi2
 304 008e 5978     		ldrb	r1, [r3, #1]	@ zero_extendqisi2
 305 0090 1B48     		ldr	r0, .L7+72
 306 0092 42EA0121 		orr	r1, r2, r1, lsl #8
 307 0096 8DED030A 		vstr.32	s0, [sp, #12]	@ int
 308 009a FFF7FEFF 		bl	_ZN5daisy6Switch4InitE12dsy_gpio_pinf
 309              	.LVL11:
  64:daisy_bed.h   ****         b2.Init(DaisyPatchSM::D10);
 310              		.loc 14 64 9 is_stmt 1 view .LVU62
 311              		.loc 14 64 16 is_stmt 0 view .LVU63
 312 009e 194B     		ldr	r3, .L7+76
 313 00a0 9DED030A 		vldr.32	s0, [sp, #12]	@ int
 314 00a4 1A78     		ldrb	r2, [r3]	@ zero_extendqisi2
 315 00a6 5978     		ldrb	r1, [r3, #1]	@ zero_extendqisi2
 316 00a8 1748     		ldr	r0, .L7+80
 317 00aa 42EA0121 		orr	r1, r2, r1, lsl #8
  65:daisy_bed.h   ****     }
 318              		.loc 14 65 5 view .LVU64
 319 00ae 04B0     		add	sp, sp, #16
 320              		.cfi_def_cfa_offset 8
 321              		@ sp needed
 322 00b0 BDE81040 		pop	{r4, lr}
 323              		.cfi_restore 14
 324              		.cfi_restore 4
 325              		.cfi_def_cfa_offset 0
  64:daisy_bed.h   ****         b2.Init(DaisyPatchSM::D10);
 326              		.loc 14 64 16 view .LVU65
 327 00b4 FFF7FEBF 		b	_ZN5daisy6Switch4InitE12dsy_gpio_pinf
 328              	.LVL12:
 329              	.L8:
 330              		.align	2
 331              	.L7:
 332 00b8 00000000 		.word	.LANCHOR0
 333 00bc 00000000 		.word	.LANCHOR1
 334 00c0 00000000 		.word	.LANCHOR2
 335 00c4 00000000 		.word	.LANCHOR3
 336 00c8 00000000 		.word	.LANCHOR4
 337 00cc 00000000 		.word	.LANCHOR5
 338 00d0 00000000 		.word	.LANCHOR6
 339 00d4 00000000 		.word	.LANCHOR7
 340 00d8 00000000 		.word	.LANCHOR8
 341 00dc 00000000 		.word	.LANCHOR9
 342 00e0 00000000 		.word	.LANCHOR10
 343 00e4 00000000 		.word	.LANCHOR11
 344 00e8 00000000 		.word	.LANCHOR12
 345 00ec 00000000 		.word	.LANCHOR13
 346 00f0 00000000 		.word	.LANCHOR14
 347 00f4 00000000 		.word	.LANCHOR15
ARM GAS  /var/folders/hl/qgbwny5j0fd895c2c41bk3tw0000gp/T//ccS4M3jv.s 			page 21


 348 00f8 00000000 		.word	_ZN5daisy8patch_sm12DaisyPatchSM2A8E
 349 00fc 00000000 		.word	0
 350 0100 00000000 		.word	.LANCHOR16
 351 0104 00000000 		.word	_ZN5daisy8patch_sm12DaisyPatchSM3D10E
 352 0108 00000000 		.word	.LANCHOR17
 353              		.cfi_endproc
 354              	.LFE4793:
 356              		.section	.text._ZN5daisy8patch_sm6ledOffEv,"ax",%progbits
 357              		.align	1
 358              		.p2align 2,,3
 359              		.global	_ZN5daisy8patch_sm6ledOffEv
 360              		.syntax unified
 361              		.thumb
 362              		.thumb_func
 363              		.fpu fpv5-d16
 365              	_ZN5daisy8patch_sm6ledOffEv:
 366              	.LFB4794:
  66:daisy_bed.h   **** 
  67:daisy_bed.h   ****     void ledOff(){
 367              		.loc 14 67 18 is_stmt 1 view -0
 368              		.cfi_startproc
 369              		@ args = 0, pretend = 0, frame = 0
 370              		@ frame_needed = 0, uses_anonymous_args = 0
  68:daisy_bed.h   ****         gen_led1.Write(false);
 371              		.loc 14 68 9 view .LVU67
  67:daisy_bed.h   ****         gen_led1.Write(false);
 372              		.loc 14 67 18 is_stmt 0 view .LVU68
 373 0000 08B5     		push	{r3, lr}
 374              		.cfi_def_cfa_offset 8
 375              		.cfi_offset 3, -8
 376              		.cfi_offset 14, -4
 377              		.loc 14 68 23 view .LVU69
 378 0002 0021     		movs	r1, #0
 379 0004 0848     		ldr	r0, .L11
 380 0006 FFF7FEFF 		bl	_ZN5daisy4GPIO5WriteEb
 381              	.LVL13:
  69:daisy_bed.h   ****         gen_led2.Write(false);
 382              		.loc 14 69 9 is_stmt 1 view .LVU70
 383              		.loc 14 69 23 is_stmt 0 view .LVU71
 384 000a 0021     		movs	r1, #0
 385 000c 0748     		ldr	r0, .L11+4
 386 000e FFF7FEFF 		bl	_ZN5daisy4GPIO5WriteEb
 387              	.LVL14:
  70:daisy_bed.h   ****         cv_led1.Write(false);
 388              		.loc 14 70 9 is_stmt 1 view .LVU72
 389              		.loc 14 70 22 is_stmt 0 view .LVU73
 390 0012 0021     		movs	r1, #0
 391 0014 0648     		ldr	r0, .L11+8
 392 0016 FFF7FEFF 		bl	_ZN5daisy4GPIO5WriteEb
 393              	.LVL15:
  71:daisy_bed.h   ****         cv_led2.Write(false);
 394              		.loc 14 71 9 is_stmt 1 view .LVU74
 395              		.loc 14 71 22 is_stmt 0 view .LVU75
 396 001a 0021     		movs	r1, #0
 397 001c 0548     		ldr	r0, .L11+12
  72:daisy_bed.h   ****     }
 398              		.loc 14 72 5 view .LVU76
ARM GAS  /var/folders/hl/qgbwny5j0fd895c2c41bk3tw0000gp/T//ccS4M3jv.s 			page 22


 399 001e BDE80840 		pop	{r3, lr}
 400              		.cfi_restore 14
 401              		.cfi_restore 3
 402              		.cfi_def_cfa_offset 0
  71:daisy_bed.h   ****         cv_led2.Write(false);
 403              		.loc 14 71 22 view .LVU77
 404 0022 FFF7FEBF 		b	_ZN5daisy4GPIO5WriteEb
 405              	.LVL16:
 406              	.L12:
 407 0026 00BF     		.align	2
 408              	.L11:
 409 0028 00000000 		.word	.LANCHOR1
 410 002c 00000000 		.word	.LANCHOR3
 411 0030 00000000 		.word	.LANCHOR5
 412 0034 00000000 		.word	.LANCHOR7
 413              		.cfi_endproc
 414              	.LFE4794:
 416              		.section	.text._ZN5daisy8patch_sm13StartupCheeseEv,"ax",%progbits
 417              		.align	1
 418              		.p2align 2,,3
 419              		.global	_ZN5daisy8patch_sm13StartupCheeseEv
 420              		.syntax unified
 421              		.thumb
 422              		.thumb_func
 423              		.fpu fpv5-d16
 425              	_ZN5daisy8patch_sm13StartupCheeseEv:
 426              	.LFB4795:
  73:daisy_bed.h   **** 
  74:daisy_bed.h   ****     void StartupCheese(){
 427              		.loc 14 74 25 is_stmt 1 view -0
 428              		.cfi_startproc
 429              		@ args = 0, pretend = 0, frame = 0
 430              		@ frame_needed = 0, uses_anonymous_args = 0
  75:daisy_bed.h   **** 		gate_in_led1.Toggle();
 431              		.loc 14 75 3 view .LVU79
  74:daisy_bed.h   **** 		gate_in_led1.Toggle();
 432              		.loc 14 74 25 is_stmt 0 view .LVU80
 433 0000 F8B5     		push	{r3, r4, r5, r6, r7, lr}
 434              		.cfi_def_cfa_offset 24
 435              		.cfi_offset 3, -24
 436              		.cfi_offset 4, -20
 437              		.cfi_offset 5, -16
 438              		.cfi_offset 6, -12
 439              		.cfi_offset 7, -8
 440              		.cfi_offset 14, -4
 441              		.loc 14 75 22 view .LVU81
 442 0002 2348     		ldr	r0, .L15
 443 0004 FFF7FEFF 		bl	_ZN5daisy4GPIO6ToggleEv
 444              	.LVL17:
  76:daisy_bed.h   **** 		System::Delay(100);
 445              		.loc 14 76 3 is_stmt 1 view .LVU82
 446              		.loc 14 76 16 is_stmt 0 view .LVU83
 447 0008 6420     		movs	r0, #100
 448 000a FFF7FEFF 		bl	_ZN5daisy6System5DelayEm
 449              	.LVL18:
  77:daisy_bed.h   **** 		gate_in_led2.Toggle();
 450              		.loc 14 77 3 is_stmt 1 view .LVU84
ARM GAS  /var/folders/hl/qgbwny5j0fd895c2c41bk3tw0000gp/T//ccS4M3jv.s 			page 23


  78:daisy_bed.h   **** 		System::Delay(100);
  79:daisy_bed.h   **** 		gen_led1.Toggle();
 451              		.loc 14 79 18 is_stmt 0 view .LVU85
 452 000e 214F     		ldr	r7, .L15+4
  77:daisy_bed.h   **** 		gate_in_led2.Toggle();
 453              		.loc 14 77 22 view .LVU86
 454 0010 2148     		ldr	r0, .L15+8
 455 0012 FFF7FEFF 		bl	_ZN5daisy4GPIO6ToggleEv
 456              	.LVL19:
  78:daisy_bed.h   **** 		System::Delay(100);
 457              		.loc 14 78 3 is_stmt 1 view .LVU87
  78:daisy_bed.h   **** 		System::Delay(100);
 458              		.loc 14 78 16 is_stmt 0 view .LVU88
 459 0016 6420     		movs	r0, #100
 460 0018 FFF7FEFF 		bl	_ZN5daisy6System5DelayEm
 461              	.LVL20:
 462              		.loc 14 79 3 is_stmt 1 view .LVU89
  80:daisy_bed.h   **** 		System::Delay(100);
  81:daisy_bed.h   **** 		gen_led2.Toggle();
 463              		.loc 14 81 18 is_stmt 0 view .LVU90
 464 001c 1F4E     		ldr	r6, .L15+12
  79:daisy_bed.h   **** 		System::Delay(100);
 465              		.loc 14 79 18 view .LVU91
 466 001e 3846     		mov	r0, r7
  82:daisy_bed.h   **** 		System::Delay(100);
  83:daisy_bed.h   **** 		cv_led1.Toggle();
 467              		.loc 14 83 17 view .LVU92
 468 0020 1F4D     		ldr	r5, .L15+16
  79:daisy_bed.h   **** 		System::Delay(100);
 469              		.loc 14 79 18 view .LVU93
 470 0022 FFF7FEFF 		bl	_ZN5daisy4GPIO6ToggleEv
 471              	.LVL21:
  80:daisy_bed.h   **** 		gen_led2.Toggle();
 472              		.loc 14 80 3 is_stmt 1 view .LVU94
  80:daisy_bed.h   **** 		gen_led2.Toggle();
 473              		.loc 14 80 16 is_stmt 0 view .LVU95
 474 0026 6420     		movs	r0, #100
 475 0028 FFF7FEFF 		bl	_ZN5daisy6System5DelayEm
 476              	.LVL22:
  81:daisy_bed.h   **** 		System::Delay(100);
 477              		.loc 14 81 3 is_stmt 1 view .LVU96
  81:daisy_bed.h   **** 		System::Delay(100);
 478              		.loc 14 81 18 is_stmt 0 view .LVU97
 479 002c 3046     		mov	r0, r6
 480 002e FFF7FEFF 		bl	_ZN5daisy4GPIO6ToggleEv
 481              	.LVL23:
  82:daisy_bed.h   **** 		System::Delay(100);
 482              		.loc 14 82 3 is_stmt 1 view .LVU98
  82:daisy_bed.h   **** 		System::Delay(100);
 483              		.loc 14 82 16 is_stmt 0 view .LVU99
 484 0032 6420     		movs	r0, #100
 485 0034 FFF7FEFF 		bl	_ZN5daisy6System5DelayEm
 486              	.LVL24:
 487              		.loc 14 83 3 is_stmt 1 view .LVU100
  84:daisy_bed.h   **** 		System::Delay(100);
  85:daisy_bed.h   **** 		cv_led2.Toggle();
 488              		.loc 14 85 17 is_stmt 0 view .LVU101
ARM GAS  /var/folders/hl/qgbwny5j0fd895c2c41bk3tw0000gp/T//ccS4M3jv.s 			page 24


 489 0038 1A4C     		ldr	r4, .L15+20
  83:daisy_bed.h   **** 		System::Delay(100);
 490              		.loc 14 83 17 view .LVU102
 491 003a 2846     		mov	r0, r5
 492 003c FFF7FEFF 		bl	_ZN5daisy4GPIO6ToggleEv
 493              	.LVL25:
  84:daisy_bed.h   **** 		System::Delay(100);
 494              		.loc 14 84 3 is_stmt 1 view .LVU103
  84:daisy_bed.h   **** 		System::Delay(100);
 495              		.loc 14 84 16 is_stmt 0 view .LVU104
 496 0040 6420     		movs	r0, #100
 497 0042 FFF7FEFF 		bl	_ZN5daisy6System5DelayEm
 498              	.LVL26:
 499              		.loc 14 85 3 is_stmt 1 view .LVU105
 500              		.loc 14 85 17 is_stmt 0 view .LVU106
 501 0046 2046     		mov	r0, r4
 502 0048 FFF7FEFF 		bl	_ZN5daisy4GPIO6ToggleEv
 503              	.LVL27:
  86:daisy_bed.h   **** 		System::Delay(100);
 504              		.loc 14 86 3 is_stmt 1 view .LVU107
 505              		.loc 14 86 16 is_stmt 0 view .LVU108
 506 004c 6420     		movs	r0, #100
 507 004e FFF7FEFF 		bl	_ZN5daisy6System5DelayEm
 508              	.LVL28:
  87:daisy_bed.h   **** 		gate_out_led1.Toggle();
 509              		.loc 14 87 3 is_stmt 1 view .LVU109
 510              		.loc 14 87 23 is_stmt 0 view .LVU110
 511 0052 1548     		ldr	r0, .L15+24
 512 0054 FFF7FEFF 		bl	_ZN5daisy4GPIO6ToggleEv
 513              	.LVL29:
  88:daisy_bed.h   **** 		System::Delay(100);
 514              		.loc 14 88 3 is_stmt 1 view .LVU111
 515              		.loc 14 88 16 is_stmt 0 view .LVU112
 516 0058 6420     		movs	r0, #100
 517 005a FFF7FEFF 		bl	_ZN5daisy6System5DelayEm
 518              	.LVL30:
  89:daisy_bed.h   **** 		gate_out_led2.Toggle();
 519              		.loc 14 89 3 is_stmt 1 view .LVU113
 520              		.loc 14 89 23 is_stmt 0 view .LVU114
 521 005e 1348     		ldr	r0, .L15+28
 522 0060 FFF7FEFF 		bl	_ZN5daisy4GPIO6ToggleEv
 523              	.LVL31:
  90:daisy_bed.h   **** 		System::Delay(100);
 524              		.loc 14 90 3 is_stmt 1 view .LVU115
 525              		.loc 14 90 16 is_stmt 0 view .LVU116
 526 0064 6420     		movs	r0, #100
 527 0066 FFF7FEFF 		bl	_ZN5daisy6System5DelayEm
 528              	.LVL32:
  91:daisy_bed.h   ****         ledOff();
 529              		.loc 14 91 9 is_stmt 1 view .LVU117
 530              	.LBB740:
 531              	.LBI740:
  67:daisy_bed.h   ****         gen_led1.Write(false);
 532              		.loc 14 67 10 view .LVU118
 533              	.LBB741:
  68:daisy_bed.h   ****         gen_led2.Write(false);
 534              		.loc 14 68 9 view .LVU119
ARM GAS  /var/folders/hl/qgbwny5j0fd895c2c41bk3tw0000gp/T//ccS4M3jv.s 			page 25


  68:daisy_bed.h   ****         gen_led2.Write(false);
 535              		.loc 14 68 23 is_stmt 0 view .LVU120
 536 006a 3846     		mov	r0, r7
 537 006c 0021     		movs	r1, #0
 538 006e FFF7FEFF 		bl	_ZN5daisy4GPIO5WriteEb
 539              	.LVL33:
  69:daisy_bed.h   ****         cv_led1.Write(false);
 540              		.loc 14 69 9 is_stmt 1 view .LVU121
  69:daisy_bed.h   ****         cv_led1.Write(false);
 541              		.loc 14 69 23 is_stmt 0 view .LVU122
 542 0072 3046     		mov	r0, r6
 543 0074 0021     		movs	r1, #0
 544 0076 FFF7FEFF 		bl	_ZN5daisy4GPIO5WriteEb
 545              	.LVL34:
  70:daisy_bed.h   ****         cv_led2.Write(false);
 546              		.loc 14 70 9 is_stmt 1 view .LVU123
  70:daisy_bed.h   ****         cv_led2.Write(false);
 547              		.loc 14 70 22 is_stmt 0 view .LVU124
 548 007a 2846     		mov	r0, r5
 549 007c 0021     		movs	r1, #0
 550 007e FFF7FEFF 		bl	_ZN5daisy4GPIO5WriteEb
 551              	.LVL35:
  71:daisy_bed.h   ****     }
 552              		.loc 14 71 9 is_stmt 1 view .LVU125
  71:daisy_bed.h   ****     }
 553              		.loc 14 71 22 is_stmt 0 view .LVU126
 554 0082 2046     		mov	r0, r4
 555 0084 0021     		movs	r1, #0
 556              	.LBE741:
 557              	.LBE740:
  92:daisy_bed.h   ****     }
 558              		.loc 14 92 5 view .LVU127
 559 0086 BDE8F840 		pop	{r3, r4, r5, r6, r7, lr}
 560              		.cfi_restore 14
 561              		.cfi_restore 7
 562              		.cfi_restore 6
 563              		.cfi_restore 5
 564              		.cfi_restore 4
 565              		.cfi_restore 3
 566              		.cfi_def_cfa_offset 0
 567              	.LBB743:
 568              	.LBB742:
  71:daisy_bed.h   ****     }
 569              		.loc 14 71 22 view .LVU128
 570 008a FFF7FEBF 		b	_ZN5daisy4GPIO5WriteEb
 571              	.LVL36:
 572              	.L16:
 573 008e 00BF     		.align	2
 574              	.L15:
 575 0090 00000000 		.word	.LANCHOR9
 576 0094 00000000 		.word	.LANCHOR1
 577 0098 00000000 		.word	.LANCHOR11
 578 009c 00000000 		.word	.LANCHOR3
 579 00a0 00000000 		.word	.LANCHOR5
 580 00a4 00000000 		.word	.LANCHOR7
 581 00a8 00000000 		.word	.LANCHOR13
 582 00ac 00000000 		.word	.LANCHOR15
ARM GAS  /var/folders/hl/qgbwny5j0fd895c2c41bk3tw0000gp/T//ccS4M3jv.s 			page 26


 583              	.LBE742:
 584              	.LBE743:
 585              		.cfi_endproc
 586              	.LFE4795:
 588              		.section	.text._ZN5daisy8patch_sm8gateTestEv,"ax",%progbits
 589              		.align	1
 590              		.p2align 2,,3
 591              		.global	_ZN5daisy8patch_sm8gateTestEv
 592              		.syntax unified
 593              		.thumb
 594              		.thumb_func
 595              		.fpu fpv5-d16
 597              	_ZN5daisy8patch_sm8gateTestEv:
 598              	.LFB4796:
  93:daisy_bed.h   **** 
  94:daisy_bed.h   ****     void gateTest()
  95:daisy_bed.h   ****     {
 599              		.loc 14 95 5 is_stmt 1 view -0
 600              		.cfi_startproc
 601              		@ args = 0, pretend = 0, frame = 0
 602              		@ frame_needed = 0, uses_anonymous_args = 0
  96:daisy_bed.h   ****         gate_in_led1.Toggle();
 603              		.loc 14 96 9 view .LVU130
  95:daisy_bed.h   ****         gate_in_led1.Toggle();
 604              		.loc 14 95 5 is_stmt 0 view .LVU131
 605 0000 08B5     		push	{r3, lr}
 606              		.cfi_def_cfa_offset 8
 607              		.cfi_offset 3, -8
 608              		.cfi_offset 14, -4
 609              		.loc 14 96 28 view .LVU132
 610 0002 0F48     		ldr	r0, .L19
 611 0004 FFF7FEFF 		bl	_ZN5daisy4GPIO6ToggleEv
 612              	.LVL37:
  97:daisy_bed.h   ****         System::Delay(1000);
 613              		.loc 14 97 9 is_stmt 1 view .LVU133
 614              		.loc 14 97 22 is_stmt 0 view .LVU134
 615 0008 4FF47A70 		mov	r0, #1000
 616 000c FFF7FEFF 		bl	_ZN5daisy6System5DelayEm
 617              	.LVL38:
  98:daisy_bed.h   ****         gate_in_led2.Toggle();
 618              		.loc 14 98 9 is_stmt 1 view .LVU135
 619              		.loc 14 98 28 is_stmt 0 view .LVU136
 620 0010 0C48     		ldr	r0, .L19+4
 621 0012 FFF7FEFF 		bl	_ZN5daisy4GPIO6ToggleEv
 622              	.LVL39:
  99:daisy_bed.h   ****         System::Delay(1000);
 623              		.loc 14 99 9 is_stmt 1 view .LVU137
 624              		.loc 14 99 22 is_stmt 0 view .LVU138
 625 0016 4FF47A70 		mov	r0, #1000
 626 001a FFF7FEFF 		bl	_ZN5daisy6System5DelayEm
 627              	.LVL40:
 100:daisy_bed.h   ****         gate_out_led1.Toggle();
 628              		.loc 14 100 9 is_stmt 1 view .LVU139
 629              		.loc 14 100 29 is_stmt 0 view .LVU140
 630 001e 0A48     		ldr	r0, .L19+8
 631 0020 FFF7FEFF 		bl	_ZN5daisy4GPIO6ToggleEv
 632              	.LVL41:
ARM GAS  /var/folders/hl/qgbwny5j0fd895c2c41bk3tw0000gp/T//ccS4M3jv.s 			page 27


 101:daisy_bed.h   ****         System::Delay(1000);
 633              		.loc 14 101 9 is_stmt 1 view .LVU141
 634              		.loc 14 101 22 is_stmt 0 view .LVU142
 635 0024 4FF47A70 		mov	r0, #1000
 636 0028 FFF7FEFF 		bl	_ZN5daisy6System5DelayEm
 637              	.LVL42:
 102:daisy_bed.h   ****         gate_out_led2.Toggle();
 638              		.loc 14 102 9 is_stmt 1 view .LVU143
 639              		.loc 14 102 29 is_stmt 0 view .LVU144
 640 002c 0748     		ldr	r0, .L19+12
 641 002e FFF7FEFF 		bl	_ZN5daisy4GPIO6ToggleEv
 642              	.LVL43:
 103:daisy_bed.h   ****         System::Delay(1000);
 643              		.loc 14 103 9 is_stmt 1 view .LVU145
 644              		.loc 14 103 22 is_stmt 0 view .LVU146
 645 0032 4FF47A70 		mov	r0, #1000
 104:daisy_bed.h   ****     }
 646              		.loc 14 104 5 view .LVU147
 647 0036 BDE80840 		pop	{r3, lr}
 648              		.cfi_restore 14
 649              		.cfi_restore 3
 650              		.cfi_def_cfa_offset 0
 103:daisy_bed.h   ****         System::Delay(1000);
 651              		.loc 14 103 22 view .LVU148
 652 003a FFF7FEBF 		b	_ZN5daisy6System5DelayEm
 653              	.LVL44:
 654              	.L20:
 655 003e 00BF     		.align	2
 656              	.L19:
 657 0040 00000000 		.word	.LANCHOR9
 658 0044 00000000 		.word	.LANCHOR11
 659 0048 00000000 		.word	.LANCHOR13
 660 004c 00000000 		.word	.LANCHOR15
 661              		.cfi_endproc
 662              	.LFE4796:
 664              		.section	.text._ZN6engine3runEv,"axG",%progbits,_ZN6engine3runEv,comdat
 665              		.align	1
 666              		.p2align 2,,3
 667              		.weak	_ZN6engine3runEv
 668              		.syntax unified
 669              		.thumb
 670              		.thumb_func
 671              		.fpu fpv5-d16
 673              	_ZN6engine3runEv:
 674              	.LVL45:
 675              	.LFB4805:
 676              		.file 15 "engine.h"
   1:engine.h      **** #pragma once
   2:engine.h      **** #ifndef ENGINE_H
   3:engine.h      **** #define ENGINE_H
   4:engine.h      **** 
   5:engine.h      **** #include "daisy.h"
   6:engine.h      **** #include "daisysp.h"
   7:engine.h      **** 
   8:engine.h      **** using namespace daisy;
   9:engine.h      **** using namespace daisysp;
  10:engine.h      **** using namespace patch_sm;
ARM GAS  /var/folders/hl/qgbwny5j0fd895c2c41bk3tw0000gp/T//ccS4M3jv.s 			page 28


  11:engine.h      **** 
  12:engine.h      **** extern daisy::patch_sm::DaisyPatchSM hw;
  13:engine.h      **** 
  14:engine.h      **** const static int euc16[17][16] = {//euclidian rythm
  15:engine.h      ****  {0, 0, 0, 0, 0, 0, 0, 0, 0, 0, 0, 0, 0, 0, 0, 0},
  16:engine.h      ****  {1, 0, 0, 0, 0, 0, 0, 0, 0, 0, 0, 0, 0, 0, 0, 0},
  17:engine.h      ****  {1, 0, 0, 0, 0, 0, 0, 0, 1, 0, 0, 0, 0, 0, 0, 0},
  18:engine.h      ****  {1, 0, 0, 0, 0, 1, 0, 0, 0, 0, 1, 0, 0, 0, 0, 0},
  19:engine.h      ****  {1, 0, 0, 0, 1, 0, 0, 0, 1, 0, 0, 0, 1, 0, 0, 0},
  20:engine.h      ****  {1, 0, 0, 1, 0, 0, 1, 0, 0, 1, 0, 0, 1, 0, 0, 0},
  21:engine.h      ****  {1, 0, 0, 1, 0, 1, 0, 0, 1, 0, 0, 1, 0, 1, 0, 0},
  22:engine.h      ****  {1, 0, 0, 1, 0, 1, 0, 1, 0, 0, 1, 0, 1, 0, 1, 0},
  23:engine.h      ****  {1, 0, 1, 0, 1, 0, 1, 0, 1, 0, 1, 0, 1, 0, 1, 0},
  24:engine.h      ****  {1, 0, 1, 1, 0, 1, 0, 1, 0, 1, 1, 0, 1, 0, 1, 0},
  25:engine.h      ****  {1, 0, 1, 1, 0, 1, 0, 1, 1, 0, 1, 1, 0, 1, 0, 1},
  26:engine.h      ****  {1, 0, 1, 1, 0, 1, 1, 0, 1, 1, 0, 1, 1, 0, 1, 1},
  27:engine.h      ****  {1, 0, 1, 1, 1, 0, 1, 1, 1, 0, 1, 1, 1, 0, 1, 1},
  28:engine.h      ****  {1, 0, 1, 1, 1, 1, 0, 1, 1, 1, 1, 0, 1, 1, 1, 1},
  29:engine.h      ****  {1, 0, 1, 1, 1, 1, 1, 1, 1, 0, 1, 1, 1, 1, 1, 1},
  30:engine.h      ****  {1, 1, 1, 1, 1, 1, 1, 1, 1, 1, 1, 1, 1, 1, 1, 0},
  31:engine.h      ****  {1, 1, 1, 1, 1, 1, 1, 1, 1, 1, 1, 1, 1, 1, 1, 1}
  32:engine.h      **** };
  33:engine.h      **** 
  34:engine.h      **** 
  35:engine.h      **** class engine
  36:engine.h      **** {
  37:engine.h      **** private:
  38:engine.h      ****     int i = 0;
  39:engine.h      **** 
  40:engine.h      ****     //push button
  41:engine.h      ****     bool sw = 0;//push button
  42:engine.h      ****     bool old_sw;//countermeasure of sw chattering
  43:engine.h      ****     unsigned long sw_timer = 0;//countermeasure of sw chattering
  44:engine.h      **** 
  45:engine.h      ****     //each channel param
  46:engine.h      ****     int hits[6] = { 4, 4, 5, 3, 2, 16};//each channel hits
  47:engine.h      ****     int offset[6] = { 0, 2, 0, 8, 3, 9};//each channele step offset
  48:engine.h      ****     bool mute[6] = {0, 0, 0, 0, 0, 0}; //mute 0 = off , 1 = on
  49:engine.h      ****     int limit[6] = {16, 16, 16, 16, 16, 16};//eache channel max step
  50:engine.h      **** 
  51:engine.h      **** 
  52:engine.h      ****     //Sequence variable
  53:engine.h      ****     int j = 0;
  54:engine.h      ****     int k = 0;
  55:engine.h      ****     int m = 0;
  56:engine.h      ****     int buf_count = 0;
  57:engine.h      **** 
  58:engine.h      ****     // bools for channel triggers
  59:engine.h      ****     bool trig1, trig2, trig3, trig4;
  60:engine.h      **** 
  61:engine.h      ****     bool offset_buf[6][16];//offset buffer , Stores the offset result
  62:engine.h      **** 
  63:engine.h      ****     bool trg_in = 0;//external trigger in H=1,L=0
  64:engine.h      ****     bool old_trg_in = 0;
  65:engine.h      ****     int playing_step[6] = {0, 0, 0, 0, 0, 0}; //playing step number , CH1,2,3,4,5,6
  66:engine.h      ****     unsigned long gate_timer = 0;//countermeasure of sw chattering
  67:engine.h      **** 
ARM GAS  /var/folders/hl/qgbwny5j0fd895c2c41bk3tw0000gp/T//ccS4M3jv.s 			page 29


  68:engine.h      ****     // random creator 
  69:engine.h      ****     int randomGen(int min, int max)
  70:engine.h      ****     {
  71:engine.h      ****         int randNum = rand()%(max-min + 1) + min;
  72:engine.h      ****         return randNum;
  73:engine.h      ****     }
  74:engine.h      **** 
  75:engine.h      ****     //random assign
  76:engine.h      ****     int hit_occ[6] = {0, 10, 20, 20, 40, 80}; //random change rate of occurrence
  77:engine.h      ****     int off_occ[6] = {10, 20, 20, 30, 40, 20}; //random change rate of occurrence
  78:engine.h      ****     int mute_occ[6] = {20, 20, 20, 20, 20, 20}; //random change rate of occurrence
  79:engine.h      ****     int hit_rng_max[6] = {0, 14, 16, 8, 9, 16}; //random change range of max
  80:engine.h      ****     int hit_rng_min[6] = {0, 13, 6, 1, 5, 10}; //random change range of max
  81:engine.h      **** 
  82:engine.h      ****     int bar_now = 1;//count 16 steps, the bar will increase by 1.
  83:engine.h      ****     int bar_max[4] = {2, 4, 8, 16} ;//selectable bar
  84:engine.h      ****     int bar_select = 1;//selected bar
  85:engine.h      ****     int step_cnt = 0;//count 16 steps, the bar will increase by 1.
  86:engine.h      **** 
  87:engine.h      ****     // mode selection (only useful for changing params)
  88:engine.h      ****     int mod = 0;
  89:engine.h      **** 
  90:engine.h      **** public:
  91:engine.h      **** 
  92:engine.h      **** int getMod()
  93:engine.h      **** {
  94:engine.h      ****     return mod;
  95:engine.h      **** }
  96:engine.h      **** 
  97:engine.h      **** void UpdateParams(int channel, float p1, float p2, float p3)
  98:engine.h      **** {
  99:engine.h      ****     hits[channel]   = p1;
 100:engine.h      ****     offset[channel] = p2;
 101:engine.h      ****     limit[channel]  = p3;
 102:engine.h      **** }
 103:engine.h      **** 
 104:engine.h      **** void randSetup()
 105:engine.h      **** {
 106:engine.h      ****      for (size_t i = 0; i < 5; i++)
 107:engine.h      ****         {
 108:engine.h      ****             hits[i] = randomGen(0, 16);
 109:engine.h      ****             offset[i] = randomGen(0, 16);
 110:engine.h      ****             limit[i] = randomGen(0, 16);
 111:engine.h      ****         }
 112:engine.h      **** }
 113:engine.h      **** 
 114:engine.h      **** bool GetTrig1()
 115:engine.h      **** {
 116:engine.h      ****     return trig1;
 117:engine.h      **** }
 118:engine.h      **** 
 119:engine.h      **** bool GetTrig2()
 120:engine.h      **** {
 121:engine.h      ****     return trig2;
 122:engine.h      **** }
 123:engine.h      **** 
 124:engine.h      **** bool GetTrig3()
ARM GAS  /var/folders/hl/qgbwny5j0fd895c2c41bk3tw0000gp/T//ccS4M3jv.s 			page 30


 125:engine.h      **** {
 126:engine.h      ****     return trig3;
 127:engine.h      **** }
 128:engine.h      **** 
 129:engine.h      **** bool GetTrig4()
 130:engine.h      **** {
 131:engine.h      ****     return trig4;
 132:engine.h      **** }
 133:engine.h      **** 
 134:engine.h      **** bool Trig[4]
 135:engine.h      **** {
 136:engine.h      ****   GetTrig1(),
 137:engine.h      ****   GetTrig2(),
 138:engine.h      ****   GetTrig3(),
 139:engine.h      ****   GetTrig4()
 140:engine.h      **** };
 141:engine.h      **** 
 142:engine.h      ****  //-----------------push button----------------------
 143:engine.h      **** void run(){
 677              		.loc 15 143 6 is_stmt 1 view -0
 678              		.cfi_startproc
 679              		@ args = 0, pretend = 0, frame = 0
 680              		@ frame_needed = 0, uses_anonymous_args = 0
 144:engine.h      **** 
 145:engine.h      ****  //-----------------offset setting----------------------
 146:engine.h      ****  for (k = 0; k <= 5; k++) { //k = 1~6ch
 681              		.loc 15 146 2 view .LVU150
 143:engine.h      **** 
 682              		.loc 15 143 6 is_stmt 0 view .LVU151
 683 0000 F8B5     		push	{r3, r4, r5, r6, r7, lr}
 684              		.cfi_def_cfa_offset 24
 685              		.cfi_offset 3, -24
 686              		.cfi_offset 4, -20
 687              		.cfi_offset 5, -16
 688              		.cfi_offset 6, -12
 689              		.cfi_offset 7, -8
 690              		.cfi_offset 14, -4
 143:engine.h      **** 
 691              		.loc 15 143 6 view .LVU152
 692 0002 0446     		mov	r4, r0
 693              		.loc 15 146 9 view .LVU153
 694 0004 0023     		movs	r3, #0
 695 0006 634D     		ldr	r5, .L59
 696              		.loc 15 146 14 view .LVU154
 697 0008 1846     		mov	r0, r3
 698              	.LVL46:
 699              		.loc 15 146 14 view .LVU155
 700 000a 04F1240E 		add	lr, r4, #36
 701              		.loc 15 146 9 view .LVU156
 702 000e A446     		mov	ip, r4
 703 0010 2366     		str	r3, [r4, #96]
 704              		.loc 15 146 16 is_stmt 1 view .LVU157
 705              	.L28:
 147:engine.h      ****    for (i = offset[k]; i <= 15; i++) {
 706              		.loc 15 147 4 view .LVU158
 707              		.loc 15 147 21 is_stmt 0 view .LVU159
 708 0012 5EF8041B 		ldr	r1, [lr], #4
ARM GAS  /var/folders/hl/qgbwny5j0fd895c2c41bk3tw0000gp/T//ccS4M3jv.s 			page 31


 709              		.loc 15 147 26 is_stmt 1 view .LVU160
 710 0016 0F29     		cmp	r1, #15
 711 0018 15DC     		bgt	.L22
 712 001a 5EF81C6C 		ldr	r6, [lr, #-28]
 713 001e 0CF18007 		add	r7, ip, #128
 714 0022 0CF17002 		add	r2, ip, #112
 715 0026 01EB0616 		add	r6, r1, r6, lsl #4
 716 002a 7F1A     		subs	r7, r7, r1
 717 002c 05EB8606 		add	r6, r5, r6, lsl #2
 718              	.L26:
 148:engine.h      ****      offset_buf[k][i - offset[k]] = euc16[hits[k]][i];
 719              		.loc 15 148 6 discriminator 2 view .LVU161
 720              		.loc 15 148 53 is_stmt 0 discriminator 2 view .LVU162
 721 0030 56F8043B 		ldr	r3, [r6], #4
 722 0034 003B     		subs	r3, r3, #0
 723 0036 18BF     		it	ne
 724 0038 0123     		movne	r3, #1
 725 003a 02F8013B 		strb	r3, [r2], #1
 147:engine.h      ****    for (i = offset[k]; i <= 15; i++) {
 726              		.loc 15 147 4 is_stmt 1 discriminator 2 view .LVU163
 147:engine.h      ****    for (i = offset[k]; i <= 15; i++) {
 727              		.loc 15 147 26 discriminator 2 view .LVU164
 728 003e BA42     		cmp	r2, r7
 729 0040 F6D1     		bne	.L26
 149:engine.h      ****    }
 150:engine.h      **** 
 151:engine.h      ****    for (i = 0; i < offset[k]; i++) {
 730              		.loc 15 151 4 view .LVU165
 731              		.loc 15 151 18 view .LVU166
 732 0042 0029     		cmp	r1, #0
 733 0044 2FDD     		ble	.L56
 734              	.L22:
 152:engine.h      ****      offset_buf[k][16 - offset[k] + i] = euc16[hits[k]][i];
 735              		.loc 15 152 23 is_stmt 0 view .LVU167
 736 0046 C1F11003 		rsb	r3, r1, #16
 737 004a 5EF81C6C 		ldr	r6, [lr, #-28]
 738 004e 0CF16F07 		add	r7, ip, #111
 739 0052 03EB0012 		add	r2, r3, r0, lsl #4
 740 0056 05EB8616 		add	r6, r5, r6, lsl #6
 741 005a 0F44     		add	r7, r7, r1
 742 005c 6F32     		adds	r2, r2, #111
 743 005e 043E     		subs	r6, r6, #4
 744 0060 1F44     		add	r7, r7, r3
 745 0062 2244     		add	r2, r2, r4
 746              	.L27:
 747              		.loc 15 152 6 is_stmt 1 discriminator 2 view .LVU168
 748              		.loc 15 152 58 is_stmt 0 discriminator 2 view .LVU169
 749 0064 56F8043F 		ldr	r3, [r6, #4]!
 750 0068 003B     		subs	r3, r3, #0
 751 006a 18BF     		it	ne
 752 006c 0123     		movne	r3, #1
 753 006e 02F8013F 		strb	r3, [r2, #1]!
 151:engine.h      ****      offset_buf[k][16 - offset[k] + i] = euc16[hits[k]][i];
 754              		.loc 15 151 4 is_stmt 1 discriminator 2 view .LVU170
 151:engine.h      ****      offset_buf[k][16 - offset[k] + i] = euc16[hits[k]][i];
 755              		.loc 15 151 18 discriminator 2 view .LVU171
 756 0072 BA42     		cmp	r2, r7
ARM GAS  /var/folders/hl/qgbwny5j0fd895c2c41bk3tw0000gp/T//ccS4M3jv.s 			page 32


 757 0074 F6D1     		bne	.L27
 146:engine.h      ****    for (i = offset[k]; i <= 15; i++) {
 758              		.loc 15 146 2 discriminator 2 view .LVU172
 759 0076 0130     		adds	r0, r0, #1
 146:engine.h      ****    for (i = offset[k]; i <= 15; i++) {
 760              		.loc 15 146 16 is_stmt 0 discriminator 2 view .LVU173
 761 0078 0CF1100C 		add	ip, ip, #16
 762 007c 0628     		cmp	r0, #6
 146:engine.h      ****    for (i = offset[k]; i <= 15; i++) {
 763              		.loc 15 146 2 discriminator 2 view .LVU174
 764 007e 2066     		str	r0, [r4, #96]
 146:engine.h      ****    for (i = offset[k]; i <= 15; i++) {
 765              		.loc 15 146 16 is_stmt 1 discriminator 2 view .LVU175
 766 0080 C7D1     		bne	.L28
 767              	.L58:
 153:engine.h      ****    }
 154:engine.h      ****  }
 155:engine.h      **** 
 156:engine.h      ****  //-----------------trigger detect & output----------------------
 157:engine.h      ****  bool trg_in = hw.gate_in_1.Trig();//external trigger in
 768              		.loc 15 157 33 is_stmt 0 view .LVU176
 769 0082 4548     		ldr	r0, .L59+4
 770 0084 2160     		str	r1, [r4]
 771              		.loc 15 157 2 is_stmt 1 view .LVU177
 772              		.loc 15 157 33 is_stmt 0 view .LVU178
 773 0086 FFF7FEFF 		bl	_ZN5daisy6GateIn4TrigEv
 774              	.LVL47:
 158:engine.h      ****  if(old_trg_in == 0 && trg_in) {
 775              		.loc 15 158 2 view .LVU179
 776 008a 94F8D130 		ldrb	r3, [r4, #209]	@ zero_extendqisi2
 777              	.LVL48:
 778              		.loc 15 158 2 is_stmt 1 view .LVU180
 779              		.loc 15 158 21 is_stmt 0 view .LVU181
 780 008e 012B     		cmp	r3, #1
 781 0090 00D0     		beq	.L41
 782 0092 18BB     		cbnz	r0, .L29
 783              	.L41:
 159:engine.h      ****    gate_timer = daisy::System::GetNow();
 160:engine.h      ****    for (i = 0; i <= 5; i++) {
 161:engine.h      ****      playing_step[i]++;      //When the trigger in, increment the step by 1.
 162:engine.h      ****      if (playing_step[i] >= limit[i]) {
 163:engine.h      ****        playing_step[i] = 0;  //When the step limit is reached, the step is set back to 0.
 164:engine.h      ****      }
 165:engine.h      ****    }
 166:engine.h      ****    for (k = 0; k <= 5; k++) {//output gate signal
 167:engine.h      ****      if (offset_buf[k][playing_step[k]] == 1 && mute[k] == 0) {
 168:engine.h      ****        switch (k) {
 169:engine.h      ****          case 0://CH1
 170:engine.h      ****            gen_led1.Write(true);
 171:engine.h      ****            trig1 = true;
 172:engine.h      ****            break;
 173:engine.h      **** 
 174:engine.h      ****          case 1://CH2
 175:engine.h      ****            gen_led2.Write(true);
 176:engine.h      ****            trig2 = true;
 177:engine.h      ****            break;
 178:engine.h      **** 
ARM GAS  /var/folders/hl/qgbwny5j0fd895c2c41bk3tw0000gp/T//ccS4M3jv.s 			page 33


 179:engine.h      ****          case 2://CH3
 180:engine.h      ****            cv_led1.Write(true);
 181:engine.h      ****            trig3 = true;
 182:engine.h      ****            break;
 183:engine.h      **** 
 184:engine.h      ****          case 3://CH4
 185:engine.h      ****            cv_led2.Write(true);
 186:engine.h      ****            trig4 = true;
 187:engine.h      ****            break;
 188:engine.h      **** 
 189:engine.h      ****        }
 190:engine.h      ****      }
 191:engine.h      ****    }
 192:engine.h      ****  }
 193:engine.h      **** 
 194:engine.h      ****  if(gate_timer + 10 <= daisy::System::GetNow()) { //off all gate , gate time is 10msec
 784              		.loc 15 194 2 is_stmt 1 view .LVU182
 785              		.loc 15 194 16 is_stmt 0 view .LVU183
 786 0094 D4F8EC30 		ldr	r3, [r4, #236]
 787 0098 03F10A05 		add	r5, r3, #10
 788              		.loc 15 194 45 view .LVU184
 789 009c FFF7FEFF 		bl	_ZN5daisy6System6GetNowEv
 790              	.LVL49:
 791              		.loc 15 194 2 view .LVU185
 792 00a0 8542     		cmp	r5, r0
 793 00a2 08D9     		bls	.L57
 794              	.L21:
 195:engine.h      ****     gen_led1.Write(false);
 196:engine.h      ****     gen_led2.Write(false);
 197:engine.h      ****     cv_led1.Write(false);
 198:engine.h      ****     cv_led2.Write(false);
 199:engine.h      ****     trig1 = false;
 200:engine.h      ****     trig2 = false;
 201:engine.h      ****     trig3 = false;
 202:engine.h      ****     trig4 = false;
 203:engine.h      ****  }
 204:engine.h      **** 
 205:engine.h      **** }
 795              		.loc 15 205 1 view .LVU186
 796 00a4 F8BD     		pop	{r3, r4, r5, r6, r7, pc}
 797              	.LVL50:
 798              	.L56:
 146:engine.h      ****    for (i = offset[k]; i <= 15; i++) {
 799              		.loc 15 146 2 view .LVU187
 800 00a6 0130     		adds	r0, r0, #1
 151:engine.h      ****      offset_buf[k][16 - offset[k] + i] = euc16[hits[k]][i];
 801              		.loc 15 151 11 view .LVU188
 802 00a8 0021     		movs	r1, #0
 146:engine.h      ****    for (i = offset[k]; i <= 15; i++) {
 803              		.loc 15 146 2 is_stmt 1 view .LVU189
 146:engine.h      ****    for (i = offset[k]; i <= 15; i++) {
 804              		.loc 15 146 16 is_stmt 0 view .LVU190
 805 00aa 0CF1100C 		add	ip, ip, #16
 806 00ae 0628     		cmp	r0, #6
 146:engine.h      ****    for (i = offset[k]; i <= 15; i++) {
 807              		.loc 15 146 2 view .LVU191
 808 00b0 2066     		str	r0, [r4, #96]
ARM GAS  /var/folders/hl/qgbwny5j0fd895c2c41bk3tw0000gp/T//ccS4M3jv.s 			page 34


 146:engine.h      ****    for (i = offset[k]; i <= 15; i++) {
 809              		.loc 15 146 16 is_stmt 1 view .LVU192
 810 00b2 AED1     		bne	.L28
 811 00b4 E5E7     		b	.L58
 812              	.L57:
 195:engine.h      ****     gen_led1.Write(false);
 813              		.loc 15 195 5 view .LVU193
 195:engine.h      ****     gen_led1.Write(false);
 814              		.loc 15 195 19 is_stmt 0 view .LVU194
 815 00b6 0021     		movs	r1, #0
 816 00b8 3848     		ldr	r0, .L59+8
 817 00ba FFF7FEFF 		bl	_ZN5daisy4GPIO5WriteEb
 818              	.LVL51:
 196:engine.h      ****     cv_led1.Write(false);
 819              		.loc 15 196 5 is_stmt 1 view .LVU195
 196:engine.h      ****     cv_led1.Write(false);
 820              		.loc 15 196 19 is_stmt 0 view .LVU196
 821 00be 0021     		movs	r1, #0
 822 00c0 3748     		ldr	r0, .L59+12
 823 00c2 FFF7FEFF 		bl	_ZN5daisy4GPIO5WriteEb
 824              	.LVL52:
 197:engine.h      ****     cv_led2.Write(false);
 825              		.loc 15 197 5 is_stmt 1 view .LVU197
 197:engine.h      ****     cv_led2.Write(false);
 826              		.loc 15 197 18 is_stmt 0 view .LVU198
 827 00c6 0021     		movs	r1, #0
 828 00c8 3648     		ldr	r0, .L59+16
 829 00ca FFF7FEFF 		bl	_ZN5daisy4GPIO5WriteEb
 830              	.LVL53:
 198:engine.h      ****     trig1 = false;
 831              		.loc 15 198 5 is_stmt 1 view .LVU199
 198:engine.h      ****     trig1 = false;
 832              		.loc 15 198 18 is_stmt 0 view .LVU200
 833 00ce 0021     		movs	r1, #0
 834 00d0 3548     		ldr	r0, .L59+20
 835 00d2 FFF7FEFF 		bl	_ZN5daisy4GPIO5WriteEb
 836              	.LVL54:
 199:engine.h      ****     trig2 = false;
 837              		.loc 15 199 5 is_stmt 1 view .LVU201
 200:engine.h      ****     trig3 = false;
 838              		.loc 15 200 5 view .LVU202
 201:engine.h      ****     trig4 = false;
 839              		.loc 15 201 5 view .LVU203
 202:engine.h      ****  }
 840              		.loc 15 202 5 view .LVU204
 199:engine.h      ****     trig2 = false;
 841              		.loc 15 199 11 is_stmt 0 view .LVU205
 842 00d6 0023     		movs	r3, #0
 843 00d8 E366     		str	r3, [r4, #108]
 844              		.loc 15 205 1 view .LVU206
 845 00da F8BD     		pop	{r3, r4, r5, r6, r7, pc}
 846              	.LVL55:
 847              	.L29:
 159:engine.h      ****    for (i = 0; i <= 5; i++) {
 848              		.loc 15 159 4 is_stmt 1 view .LVU207
 159:engine.h      ****    for (i = 0; i <= 5; i++) {
 849              		.loc 15 159 38 is_stmt 0 view .LVU208
ARM GAS  /var/folders/hl/qgbwny5j0fd895c2c41bk3tw0000gp/T//ccS4M3jv.s 			page 35


 850 00dc FFF7FEFF 		bl	_ZN5daisy6System6GetNowEv
 851              	.LVL56:
 159:engine.h      ****    for (i = 0; i <= 5; i++) {
 852              		.loc 15 159 38 view .LVU209
 853 00e0 04F1EC05 		add	r5, r4, #236
 854 00e4 04F1D403 		add	r3, r4, #212
 159:engine.h      ****    for (i = 0; i <= 5; i++) {
 855              		.loc 15 159 15 view .LVU210
 856 00e8 C4F8EC00 		str	r0, [r4, #236]
 160:engine.h      ****      playing_step[i]++;      //When the trigger in, increment the step by 1.
 857              		.loc 15 160 4 is_stmt 1 view .LVU211
 160:engine.h      ****      playing_step[i]++;      //When the trigger in, increment the step by 1.
 858              		.loc 15 160 18 view .LVU212
 859              	.L34:
 161:engine.h      ****      if (playing_step[i] >= limit[i]) {
 860              		.loc 15 161 6 view .LVU213
 163:engine.h      ****      }
 861              		.loc 15 163 8 view .LVU214
 160:engine.h      ****      playing_step[i]++;      //When the trigger in, increment the step by 1.
 862              		.loc 15 160 4 view .LVU215
 160:engine.h      ****      playing_step[i]++;      //When the trigger in, increment the step by 1.
 863              		.loc 15 160 18 view .LVU216
 161:engine.h      ****      if (playing_step[i] >= limit[i]) {
 864              		.loc 15 161 21 is_stmt 0 view .LVU217
 865 00ec 1A68     		ldr	r2, [r3]
 163:engine.h      ****      }
 866              		.loc 15 163 24 view .LVU218
 867 00ee 0020     		movs	r0, #0
 161:engine.h      ****      if (playing_step[i] >= limit[i]) {
 868              		.loc 15 161 21 view .LVU219
 869 00f0 0132     		adds	r2, r2, #1
 870 00f2 43F8042B 		str	r2, [r3], #4
 162:engine.h      ****        playing_step[i] = 0;  //When the step limit is reached, the step is set back to 0.
 871              		.loc 15 162 6 is_stmt 1 view .LVU220
 872 00f6 53F8941C 		ldr	r1, [r3, #-148]
 873 00fa 8A42     		cmp	r2, r1
 163:engine.h      ****      }
 874              		.loc 15 163 24 is_stmt 0 view .LVU221
 875 00fc A8BF     		it	ge
 876 00fe 43F8040C 		strge	r0, [r3, #-4]
 160:engine.h      ****      playing_step[i]++;      //When the trigger in, increment the step by 1.
 877              		.loc 15 160 18 view .LVU222
 878 0102 AB42     		cmp	r3, r5
 879 0104 F2D1     		bne	.L34
 166:engine.h      ****      if (offset_buf[k][playing_step[k]] == 1 && mute[k] == 0) {
 880              		.loc 15 166 11 view .LVU223
 881 0106 0022     		movs	r2, #0
 882 0108 0621     		movs	r1, #6
 166:engine.h      ****      if (offset_buf[k][playing_step[k]] == 1 && mute[k] == 0) {
 883              		.loc 15 166 16 view .LVU224
 884 010a 1346     		mov	r3, r2
 885 010c 2160     		str	r1, [r4]
 166:engine.h      ****      if (offset_buf[k][playing_step[k]] == 1 && mute[k] == 0) {
 886              		.loc 15 166 4 is_stmt 1 view .LVU225
 166:engine.h      ****      if (offset_buf[k][playing_step[k]] == 1 && mute[k] == 0) {
 887              		.loc 15 166 11 is_stmt 0 view .LVU226
 888 010e 2266     		str	r2, [r4, #96]
ARM GAS  /var/folders/hl/qgbwny5j0fd895c2c41bk3tw0000gp/T//ccS4M3jv.s 			page 36


 166:engine.h      ****      if (offset_buf[k][playing_step[k]] == 1 && mute[k] == 0) {
 889              		.loc 15 166 18 is_stmt 1 view .LVU227
 890              	.L42:
 167:engine.h      ****        switch (k) {
 891              		.loc 15 167 6 view .LVU228
 167:engine.h      ****        switch (k) {
 892              		.loc 15 167 38 is_stmt 0 view .LVU229
 893 0110 04EB8301 		add	r1, r4, r3, lsl #2
 167:engine.h      ****        switch (k) {
 894              		.loc 15 167 55 view .LVU230
 895 0114 E018     		adds	r0, r4, r3
 167:engine.h      ****        switch (k) {
 896              		.loc 15 167 39 view .LVU231
 897 0116 04EB0312 		add	r2, r4, r3, lsl #4
 898 011a D1F8D410 		ldr	r1, [r1, #212]
 899 011e 0A44     		add	r2, r2, r1
 167:engine.h      ****        switch (k) {
 900              		.loc 15 167 6 view .LVU232
 901 0120 92F87020 		ldrb	r2, [r2, #112]	@ zero_extendqisi2
 902 0124 7AB1     		cbz	r2, .L35
 168:engine.h      ****          case 0://CH1
 903              		.loc 15 168 8 is_stmt 1 discriminator 1 view .LVU233
 167:engine.h      ****        switch (k) {
 904              		.loc 15 167 46 is_stmt 0 discriminator 1 view .LVU234
 905 0126 90F83C20 		ldrb	r2, [r0, #60]	@ zero_extendqisi2
 906 012a 62B9     		cbnz	r2, .L35
 168:engine.h      ****          case 0://CH1
 907              		.loc 15 168 8 view .LVU235
 908 012c 032B     		cmp	r3, #3
 909 012e 0AD8     		bhi	.L35
 910 0130 DFE803F0 		tbb	[pc, r3]
 911              	.L37:
 912 0134 1F       		.byte	(.L40-.L37)/2
 913 0135 27       		.byte	(.L39-.L37)/2
 914 0136 17       		.byte	(.L38-.L37)/2
 915 0137 02       		.byte	(.L36-.L37)/2
 916              		.p2align 1
 917              	.L36:
 184:engine.h      ****            cv_led2.Write(true);
 918              		.loc 15 184 10 is_stmt 1 view .LVU236
 185:engine.h      ****            trig4 = true;
 919              		.loc 15 185 12 view .LVU237
 185:engine.h      ****            trig4 = true;
 920              		.loc 15 185 25 is_stmt 0 view .LVU238
 921 0138 0121     		movs	r1, #1
 922 013a 1B48     		ldr	r0, .L59+20
 923 013c FFF7FEFF 		bl	_ZN5daisy4GPIO5WriteEb
 924              	.LVL57:
 186:engine.h      ****            break;
 925              		.loc 15 186 12 is_stmt 1 view .LVU239
 186:engine.h      ****            break;
 926              		.loc 15 186 18 is_stmt 0 view .LVU240
 927 0140 0123     		movs	r3, #1
 928 0142 84F86F30 		strb	r3, [r4, #111]
 187:engine.h      **** 
 929              		.loc 15 187 12 is_stmt 1 view .LVU241
 930              	.L35:
ARM GAS  /var/folders/hl/qgbwny5j0fd895c2c41bk3tw0000gp/T//ccS4M3jv.s 			page 37


 166:engine.h      ****      if (offset_buf[k][playing_step[k]] == 1 && mute[k] == 0) {
 931              		.loc 15 166 4 discriminator 2 view .LVU242
 932 0146 236E     		ldr	r3, [r4, #96]
 933 0148 0133     		adds	r3, r3, #1
 166:engine.h      ****      if (offset_buf[k][playing_step[k]] == 1 && mute[k] == 0) {
 934              		.loc 15 166 18 is_stmt 0 discriminator 2 view .LVU243
 935 014a 052B     		cmp	r3, #5
 166:engine.h      ****      if (offset_buf[k][playing_step[k]] == 1 && mute[k] == 0) {
 936              		.loc 15 166 4 discriminator 2 view .LVU244
 937 014c 2366     		str	r3, [r4, #96]
 166:engine.h      ****      if (offset_buf[k][playing_step[k]] == 1 && mute[k] == 0) {
 938              		.loc 15 166 18 is_stmt 1 discriminator 2 view .LVU245
 939 014e DFDD     		ble	.L42
 194:engine.h      ****     gen_led1.Write(false);
 940              		.loc 15 194 2 view .LVU246
 194:engine.h      ****     gen_led1.Write(false);
 941              		.loc 15 194 16 is_stmt 0 view .LVU247
 942 0150 D4F8EC30 		ldr	r3, [r4, #236]
 943 0154 03F10A05 		add	r5, r3, #10
 194:engine.h      ****     gen_led1.Write(false);
 944              		.loc 15 194 45 view .LVU248
 945 0158 FFF7FEFF 		bl	_ZN5daisy6System6GetNowEv
 946              	.LVL58:
 194:engine.h      ****     gen_led1.Write(false);
 947              		.loc 15 194 2 view .LVU249
 948 015c 8542     		cmp	r5, r0
 949 015e A1D8     		bhi	.L21
 950 0160 A9E7     		b	.L57
 951              	.L38:
 179:engine.h      ****            cv_led1.Write(true);
 952              		.loc 15 179 10 is_stmt 1 view .LVU250
 180:engine.h      ****            trig3 = true;
 953              		.loc 15 180 12 view .LVU251
 180:engine.h      ****            trig3 = true;
 954              		.loc 15 180 25 is_stmt 0 view .LVU252
 955 0162 0121     		movs	r1, #1
 956 0164 0F48     		ldr	r0, .L59+16
 957 0166 FFF7FEFF 		bl	_ZN5daisy4GPIO5WriteEb
 958              	.LVL59:
 181:engine.h      ****            break;
 959              		.loc 15 181 12 is_stmt 1 view .LVU253
 181:engine.h      ****            break;
 960              		.loc 15 181 18 is_stmt 0 view .LVU254
 961 016a 0123     		movs	r3, #1
 962 016c 84F86E30 		strb	r3, [r4, #110]
 182:engine.h      **** 
 963              		.loc 15 182 12 is_stmt 1 view .LVU255
 964 0170 E9E7     		b	.L35
 965              	.L40:
 169:engine.h      ****            gen_led1.Write(true);
 966              		.loc 15 169 10 view .LVU256
 170:engine.h      ****            trig1 = true;
 967              		.loc 15 170 12 view .LVU257
 170:engine.h      ****            trig1 = true;
 968              		.loc 15 170 26 is_stmt 0 view .LVU258
 969 0172 0121     		movs	r1, #1
 970 0174 0948     		ldr	r0, .L59+8
ARM GAS  /var/folders/hl/qgbwny5j0fd895c2c41bk3tw0000gp/T//ccS4M3jv.s 			page 38


 971 0176 FFF7FEFF 		bl	_ZN5daisy4GPIO5WriteEb
 972              	.LVL60:
 171:engine.h      ****            break;
 973              		.loc 15 171 12 is_stmt 1 view .LVU259
 171:engine.h      ****            break;
 974              		.loc 15 171 18 is_stmt 0 view .LVU260
 975 017a 0123     		movs	r3, #1
 976 017c 84F86C30 		strb	r3, [r4, #108]
 172:engine.h      **** 
 977              		.loc 15 172 12 is_stmt 1 view .LVU261
 978 0180 E1E7     		b	.L35
 979              	.L39:
 174:engine.h      ****            gen_led2.Write(true);
 980              		.loc 15 174 10 view .LVU262
 175:engine.h      ****            trig2 = true;
 981              		.loc 15 175 12 view .LVU263
 175:engine.h      ****            trig2 = true;
 982              		.loc 15 175 26 is_stmt 0 view .LVU264
 983 0182 0121     		movs	r1, #1
 984 0184 0648     		ldr	r0, .L59+12
 985 0186 FFF7FEFF 		bl	_ZN5daisy4GPIO5WriteEb
 986              	.LVL61:
 176:engine.h      ****            break;
 987              		.loc 15 176 12 is_stmt 1 view .LVU265
 176:engine.h      ****            break;
 988              		.loc 15 176 18 is_stmt 0 view .LVU266
 989 018a 0123     		movs	r3, #1
 990 018c 84F86D30 		strb	r3, [r4, #109]
 177:engine.h      **** 
 991              		.loc 15 177 12 is_stmt 1 view .LVU267
 992 0190 D9E7     		b	.L35
 993              	.L60:
 994 0192 00BF     		.align	2
 995              	.L59:
 996 0194 00000000 		.word	.LANCHOR18
 997 0198 B0010000 		.word	.LANCHOR19+432
 998 019c 00000000 		.word	.LANCHOR1
 999 01a0 00000000 		.word	.LANCHOR3
 1000 01a4 00000000 		.word	.LANCHOR5
 1001 01a8 00000000 		.word	.LANCHOR7
 1002              		.cfi_endproc
 1003              	.LFE4805:
 1005              		.section	.text._ZN7drumSet4InitEf,"axG",%progbits,_ZN7drumSet4InitEf,comdat
 1006              		.align	1
 1007              		.p2align 2,,3
 1008              		.weak	_ZN7drumSet4InitEf
 1009              		.syntax unified
 1010              		.thumb
 1011              		.thumb_func
 1012              		.fpu fpv5-d16
 1014              	_ZN7drumSet4InitEf:
 1015              	.LVL62:
 1016              	.LFB4807:
  11:drum.h        **** {
  12:drum.h        **** public:
  13:drum.h        **** void Init(float sample_rate)
 1017              		.loc 9 13 6 view -0
ARM GAS  /var/folders/hl/qgbwny5j0fd895c2c41bk3tw0000gp/T//ccS4M3jv.s 			page 39


 1018              		.cfi_startproc
 1019              		@ args = 0, pretend = 0, frame = 0
 1020              		@ frame_needed = 0, uses_anonymous_args = 0
  14:drum.h        **** {
  15:drum.h        ****     sample_rate_ = sample_rate;
 1021              		.loc 9 15 5 view .LVU269
  13:drum.h        **** {
 1022              		.loc 9 13 6 is_stmt 0 view .LVU270
 1023 0000 10B5     		push	{r4, lr}
 1024              		.cfi_def_cfa_offset 8
 1025              		.cfi_offset 4, -8
 1026              		.cfi_offset 14, -4
 1027 0002 0446     		mov	r4, r0
 1028 0004 2DED028B 		vpush.64	{d8}
 1029              		.cfi_def_cfa_offset 16
 1030              		.cfi_offset 80, -16
 1031              		.cfi_offset 81, -12
 1032              		.loc 9 15 18 view .LVU271
 1033 0008 80EDAB0A 		vstr.32	s0, [r0, #684]
  16:drum.h        ****     kick_.Init(sample_rate_);
 1034              		.loc 9 16 5 is_stmt 1 view .LVU272
  13:drum.h        **** {
 1035              		.loc 9 13 6 is_stmt 0 view .LVU273
 1036 000c F0EE408A 		vmov.f32	s17, s0
 1037              		.loc 9 16 15 view .LVU274
 1038 0010 FFF7FEFF 		bl	_ZN7daisysp17SyntheticBassDrum4InitEf
 1039              	.LVL63:
  17:drum.h        ****     kick_.SetFreq(50.f);
 1040              		.loc 9 17 5 is_stmt 1 view .LVU275
 1041              		.loc 9 17 18 is_stmt 0 view .LVU276
 1042 0014 9FED3A0A 		vldr.32	s0, .L63+16
 1043 0018 2046     		mov	r0, r4
 1044              	.LBB780:
 1045              	.LBB781:
 114:../../DaisySP//Source/Drums/hihat.h **** 
 115:../../DaisySP//Source/Drums/hihat.h ****     /** Initialize the module
 116:../../DaisySP//Source/Drums/hihat.h ****         \param sample_rate Audio engine sample rate
 117:../../DaisySP//Source/Drums/hihat.h ****     */
 118:../../DaisySP//Source/Drums/hihat.h ****     void Init(float sample_rate)
 119:../../DaisySP//Source/Drums/hihat.h ****     {
 120:../../DaisySP//Source/Drums/hihat.h ****         sample_rate_ = sample_rate;
 121:../../DaisySP//Source/Drums/hihat.h **** 
 122:../../DaisySP//Source/Drums/hihat.h ****         trig_ = false;
 123:../../DaisySP//Source/Drums/hihat.h **** 
 124:../../DaisySP//Source/Drums/hihat.h ****         envelope_     = 0.0f;
 1046              		.loc 10 124 23 view .LVU277
 1047 001a 9FED3A8A 		vldr.32	s16, .L63+20
 1048              	.LBE781:
 1049              	.LBE780:
 1050              		.loc 9 17 18 view .LVU278
 1051 001e FFF7FEFF 		bl	_ZN7daisysp17SyntheticBassDrum7SetFreqEf
 1052              	.LVL64:
  18:drum.h        ****     kick_.SetDecay(.4f);
 1053              		.loc 9 18 5 is_stmt 1 view .LVU279
 1054              		.loc 9 18 19 is_stmt 0 view .LVU280
 1055 0022 9FED390A 		vldr.32	s0, .L63+24
 1056 0026 2046     		mov	r0, r4
ARM GAS  /var/folders/hl/qgbwny5j0fd895c2c41bk3tw0000gp/T//ccS4M3jv.s 			page 40


 1057 0028 FFF7FEFF 		bl	_ZN7daisysp17SyntheticBassDrum8SetDecayEf
 1058              	.LVL65:
  19:drum.h        ****     snare_.Init(sample_rate_);
 1059              		.loc 9 19 5 is_stmt 1 view .LVU281
 1060              		.loc 9 19 16 is_stmt 0 view .LVU282
 1061 002c 94EDAB0A 		vldr.32	s0, [r4, #684]
 1062 0030 04F1B400 		add	r0, r4, #180
 1063 0034 FFF7FEFF 		bl	_ZN7daisysp18SyntheticSnareDrum4InitEf
 1064              	.LVL66:
  20:drum.h        ****     hat_.Init(sample_rate);
 1065              		.loc 9 20 5 is_stmt 1 view .LVU283
 1066              	.LBB898:
 1067              	.LBI780:
 118:../../DaisySP//Source/Drums/hihat.h ****     {
 1068              		.loc 10 118 10 view .LVU284
 1069              	.LBB893:
 1070              	.LBB782:
 1071              	.LBB783:
 1072              	.LBB784:
 1073              	.LBB785:
 1074              		.file 16 "../../DaisySP//Source/Utility/dsp.h"
   1:../../DaisySP//Source/Utility/dsp.h **** /** Helpful defines, functions, and other utilities for use in/with daisysp modules.
   2:../../DaisySP//Source/Utility/dsp.h **** */
   3:../../DaisySP//Source/Utility/dsp.h **** #pragma once
   4:../../DaisySP//Source/Utility/dsp.h **** #ifndef DSY_CORE_DSP
   5:../../DaisySP//Source/Utility/dsp.h **** #define DSY_CORE_DSP
   6:../../DaisySP//Source/Utility/dsp.h **** #include <cassert>
   7:../../DaisySP//Source/Utility/dsp.h **** #include <cstdint>
   8:../../DaisySP//Source/Utility/dsp.h **** #include <random>
   9:../../DaisySP//Source/Utility/dsp.h **** #include <cmath>
  10:../../DaisySP//Source/Utility/dsp.h **** 
  11:../../DaisySP//Source/Utility/dsp.h **** /** PIs
  12:../../DaisySP//Source/Utility/dsp.h **** */
  13:../../DaisySP//Source/Utility/dsp.h **** #define PI_F 3.1415927410125732421875f
  14:../../DaisySP//Source/Utility/dsp.h **** #define TWOPI_F (2.0f * PI_F)
  15:../../DaisySP//Source/Utility/dsp.h **** #define HALFPI_F (PI_F * 0.5f)
  16:../../DaisySP//Source/Utility/dsp.h **** #define DSY_MIN(in, mn) (in < mn ? in : mn)
  17:../../DaisySP//Source/Utility/dsp.h **** #define DSY_MAX(in, mx) (in > mx ? in : mx)
  18:../../DaisySP//Source/Utility/dsp.h **** #define DSY_CLAMP(in, mn, mx) (DSY_MIN(DSY_MAX(in, mn), mx))
  19:../../DaisySP//Source/Utility/dsp.h **** #define DSY_COUNTOF(_arr) (sizeof(_arr) / sizeof(_arr[0]))
  20:../../DaisySP//Source/Utility/dsp.h **** 
  21:../../DaisySP//Source/Utility/dsp.h **** namespace daisysp
  22:../../DaisySP//Source/Utility/dsp.h **** {
  23:../../DaisySP//Source/Utility/dsp.h **** //Avoids division for random floats. e.g. rand() * kRandFrac
  24:../../DaisySP//Source/Utility/dsp.h **** static constexpr float kRandFrac = 1.f / (float)RAND_MAX;
  25:../../DaisySP//Source/Utility/dsp.h **** 
  26:../../DaisySP//Source/Utility/dsp.h **** //Convert from semitones to other units. e.g. 2 ^ (kOneTwelfth * x)
  27:../../DaisySP//Source/Utility/dsp.h **** static constexpr float kOneTwelfth = 1.f / 12.f;
  28:../../DaisySP//Source/Utility/dsp.h **** 
  29:../../DaisySP//Source/Utility/dsp.h **** /** efficient floating point min/max
  30:../../DaisySP//Source/Utility/dsp.h **** c/o stephen mccaul
  31:../../DaisySP//Source/Utility/dsp.h **** */
  32:../../DaisySP//Source/Utility/dsp.h **** inline float fmax(float a, float b)
  33:../../DaisySP//Source/Utility/dsp.h **** {
  34:../../DaisySP//Source/Utility/dsp.h ****     float r;
  35:../../DaisySP//Source/Utility/dsp.h **** #ifdef __arm__
  36:../../DaisySP//Source/Utility/dsp.h ****     asm("vmaxnm.f32 %[d], %[n], %[m]" : [d] "=t"(r) : [n] "t"(a), [m] "t"(b) :);
ARM GAS  /var/folders/hl/qgbwny5j0fd895c2c41bk3tw0000gp/T//ccS4M3jv.s 			page 41


 1075              		.loc 16 36 5 is_stmt 0 view .LVU285
 1076 0038 9FED347A 		vldr.32	s14, .L63+28
 1077              		.syntax unified
 1078              	@ 36 "../../DaisySP//Source/Utility/dsp.h" 1
 1079 003c 87FE087A 		vmaxnm.f32 s14, s14, s16
 1080              	@ 0 "" 2
 1081              		.thumb
 1082              		.syntax unified
 1083              	.LBE785:
 1084              	.LBE784:
 125:../../DaisySP//Source/Drums/hihat.h ****         noise_clock_  = 0.0f;
 126:../../DaisySP//Source/Drums/hihat.h ****         noise_sample_ = 0.0f;
 127:../../DaisySP//Source/Drums/hihat.h ****         sustain_gain_ = 0.0f;
 128:../../DaisySP//Source/Drums/hihat.h **** 
 129:../../DaisySP//Source/Drums/hihat.h ****         SetFreq(3000.f);
 130:../../DaisySP//Source/Drums/hihat.h ****         SetTone(.5f);
 131:../../DaisySP//Source/Drums/hihat.h ****         SetDecay(.2f);
 132:../../DaisySP//Source/Drums/hihat.h ****         SetNoisiness(.8f);
 133:../../DaisySP//Source/Drums/hihat.h ****         SetAccent(.8f);
 134:../../DaisySP//Source/Drums/hihat.h ****         SetSustain(false);
 135:../../DaisySP//Source/Drums/hihat.h **** 
 136:../../DaisySP//Source/Drums/hihat.h ****         metallic_noise_.Init(sample_rate_);
 137:../../DaisySP//Source/Drums/hihat.h ****         noise_coloration_svf_.Init(sample_rate_);
 138:../../DaisySP//Source/Drums/hihat.h ****         hpf_.Init(sample_rate_);
 139:../../DaisySP//Source/Drums/hihat.h ****     }
 140:../../DaisySP//Source/Drums/hihat.h **** 
 141:../../DaisySP//Source/Drums/hihat.h ****     /** Get the next sample
 142:../../DaisySP//Source/Drums/hihat.h ****         \param trigger Hit the hihat with true. Defaults to false.
 143:../../DaisySP//Source/Drums/hihat.h ****     */
 144:../../DaisySP//Source/Drums/hihat.h ****     float Process(bool trigger = false)
 145:../../DaisySP//Source/Drums/hihat.h ****     {
 146:../../DaisySP//Source/Drums/hihat.h ****         const float envelope_decay
 147:../../DaisySP//Source/Drums/hihat.h ****             = 1.0f - 0.003f * SemitonesToRatio(-decay_ * 84.0f);
 148:../../DaisySP//Source/Drums/hihat.h ****         const float cut_decay
 149:../../DaisySP//Source/Drums/hihat.h ****             = 1.0f - 0.0025f * SemitonesToRatio(-decay_ * 36.0f);
 150:../../DaisySP//Source/Drums/hihat.h **** 
 151:../../DaisySP//Source/Drums/hihat.h ****         if(trigger || trig_)
 152:../../DaisySP//Source/Drums/hihat.h ****         {
 153:../../DaisySP//Source/Drums/hihat.h ****             trig_ = false;
 154:../../DaisySP//Source/Drums/hihat.h **** 
 155:../../DaisySP//Source/Drums/hihat.h ****             envelope_
 156:../../DaisySP//Source/Drums/hihat.h ****                 = (1.5f + 0.5f * (1.0f - decay_)) * (0.3f + 0.7f * accent_);
 157:../../DaisySP//Source/Drums/hihat.h ****         }
 158:../../DaisySP//Source/Drums/hihat.h **** 
 159:../../DaisySP//Source/Drums/hihat.h ****         // Process the metallic noise.
 160:../../DaisySP//Source/Drums/hihat.h ****         float out = metallic_noise_.Process(2.0f * f0_);
 161:../../DaisySP//Source/Drums/hihat.h **** 
 162:../../DaisySP//Source/Drums/hihat.h ****         // Apply BPF on the metallic noise.
 163:../../DaisySP//Source/Drums/hihat.h ****         float cutoff = 150.0f / sample_rate_ * SemitonesToRatio(tone_ * 72.0f);
 164:../../DaisySP//Source/Drums/hihat.h **** 
 165:../../DaisySP//Source/Drums/hihat.h ****         cutoff = fclamp(cutoff, 0.0f, 16000.0f / sample_rate_);
 166:../../DaisySP//Source/Drums/hihat.h **** 
 167:../../DaisySP//Source/Drums/hihat.h **** 
 168:../../DaisySP//Source/Drums/hihat.h ****         noise_coloration_svf_.SetFreq(cutoff * sample_rate_);
 169:../../DaisySP//Source/Drums/hihat.h ****         noise_coloration_svf_.SetRes(resonance ? 3.0f + 6.0f * tone_ : 1.0f);
 170:../../DaisySP//Source/Drums/hihat.h **** 
 171:../../DaisySP//Source/Drums/hihat.h ****         noise_coloration_svf_.Process(out);
ARM GAS  /var/folders/hl/qgbwny5j0fd895c2c41bk3tw0000gp/T//ccS4M3jv.s 			page 42


 172:../../DaisySP//Source/Drums/hihat.h ****         out = noise_coloration_svf_.Band();
 173:../../DaisySP//Source/Drums/hihat.h **** 
 174:../../DaisySP//Source/Drums/hihat.h ****         // This is not at all part of the 808 circuit! But to add more variety, we
 175:../../DaisySP//Source/Drums/hihat.h ****         // add a variable amount of clocked noise to the output of the 6 schmitt
 176:../../DaisySP//Source/Drums/hihat.h ****         // trigger oscillators.
 177:../../DaisySP//Source/Drums/hihat.h ****         float noise_f = f0_ * (16.0f + 16.0f * (1.0f - noisiness_));
 178:../../DaisySP//Source/Drums/hihat.h ****         noise_f       = fclamp(noise_f, 0.0f, 0.5f);
 179:../../DaisySP//Source/Drums/hihat.h **** 
 180:../../DaisySP//Source/Drums/hihat.h ****         noise_clock_ += noise_f;
 181:../../DaisySP//Source/Drums/hihat.h ****         if(noise_clock_ >= 1.0f)
 182:../../DaisySP//Source/Drums/hihat.h ****         {
 183:../../DaisySP//Source/Drums/hihat.h ****             noise_clock_ -= 1.0f;
 184:../../DaisySP//Source/Drums/hihat.h ****             noise_sample_ = rand() * kRandFrac - 0.5f;
 185:../../DaisySP//Source/Drums/hihat.h ****         }
 186:../../DaisySP//Source/Drums/hihat.h ****         out += noisiness_ * (noise_sample_ - out);
 187:../../DaisySP//Source/Drums/hihat.h **** 
 188:../../DaisySP//Source/Drums/hihat.h ****         // Apply VCA.
 189:../../DaisySP//Source/Drums/hihat.h ****         sustain_gain_ = accent_ * decay_;
 190:../../DaisySP//Source/Drums/hihat.h ****         VCA vca;
 191:../../DaisySP//Source/Drums/hihat.h ****         envelope_ *= envelope_ > 0.5f ? envelope_decay : cut_decay;
 192:../../DaisySP//Source/Drums/hihat.h ****         out = vca(out, sustain_ ? sustain_gain_ : envelope_);
 193:../../DaisySP//Source/Drums/hihat.h **** 
 194:../../DaisySP//Source/Drums/hihat.h ****         hpf_.SetFreq(cutoff * sample_rate_);
 195:../../DaisySP//Source/Drums/hihat.h ****         hpf_.SetRes(.5f);
 196:../../DaisySP//Source/Drums/hihat.h ****         hpf_.Process(out);
 197:../../DaisySP//Source/Drums/hihat.h ****         out = hpf_.High();
 198:../../DaisySP//Source/Drums/hihat.h **** 
 199:../../DaisySP//Source/Drums/hihat.h ****         return out;
 200:../../DaisySP//Source/Drums/hihat.h ****     }
 201:../../DaisySP//Source/Drums/hihat.h **** 
 202:../../DaisySP//Source/Drums/hihat.h ****     /** Trigger the hihat */
 203:../../DaisySP//Source/Drums/hihat.h ****     void Trig() { trig_ = true; }
 204:../../DaisySP//Source/Drums/hihat.h **** 
 205:../../DaisySP//Source/Drums/hihat.h ****     /** Make the hihat ring out infinitely.
 206:../../DaisySP//Source/Drums/hihat.h ****         \param sustain True = infinite sustain.
 207:../../DaisySP//Source/Drums/hihat.h ****     */
 208:../../DaisySP//Source/Drums/hihat.h ****     void SetSustain(bool sustain) { sustain_ = sustain; }
 209:../../DaisySP//Source/Drums/hihat.h **** 
 210:../../DaisySP//Source/Drums/hihat.h ****     /** Set how much accent to use
 211:../../DaisySP//Source/Drums/hihat.h ****         \param accent Works 0-1.
 212:../../DaisySP//Source/Drums/hihat.h ****     */
 213:../../DaisySP//Source/Drums/hihat.h ****     void SetAccent(float accent) { accent_ = fclamp(accent, 0.f, 1.f); }
 214:../../DaisySP//Source/Drums/hihat.h **** 
 215:../../DaisySP//Source/Drums/hihat.h ****     /** Set the hihat tone's root frequency
 216:../../DaisySP//Source/Drums/hihat.h ****         \param f0 Freq in Hz
 217:../../DaisySP//Source/Drums/hihat.h ****     */
 218:../../DaisySP//Source/Drums/hihat.h ****     void SetFreq(float f0)
 219:../../DaisySP//Source/Drums/hihat.h ****     {
 220:../../DaisySP//Source/Drums/hihat.h ****         f0 /= sample_rate_;
 221:../../DaisySP//Source/Drums/hihat.h ****         f0_ = fclamp(f0, 0.f, 1.f);
 222:../../DaisySP//Source/Drums/hihat.h ****     }
 223:../../DaisySP//Source/Drums/hihat.h **** 
 224:../../DaisySP//Source/Drums/hihat.h ****     /** Set the overall brightness / darkness of the hihat.
 225:../../DaisySP//Source/Drums/hihat.h ****         \param tone Works from 0-1.
 226:../../DaisySP//Source/Drums/hihat.h ****     */
 227:../../DaisySP//Source/Drums/hihat.h ****     void SetTone(float tone) { tone_ = fclamp(tone, 0.f, 1.f); }
 228:../../DaisySP//Source/Drums/hihat.h **** 
ARM GAS  /var/folders/hl/qgbwny5j0fd895c2c41bk3tw0000gp/T//ccS4M3jv.s 			page 43


 229:../../DaisySP//Source/Drums/hihat.h ****     /** Set the length of the hihat decay
 230:../../DaisySP//Source/Drums/hihat.h ****         \param decay Works > 0. Tuned for 0-1.
 231:../../DaisySP//Source/Drums/hihat.h ****     */
 232:../../DaisySP//Source/Drums/hihat.h ****     void SetDecay(float decay)
 233:../../DaisySP//Source/Drums/hihat.h ****     {
 234:../../DaisySP//Source/Drums/hihat.h ****         decay_ = fmax(decay, 0.f);
 235:../../DaisySP//Source/Drums/hihat.h ****         decay_ *= 1.7;
 1085              		.loc 10 235 16 view .LVU286
 1086 0040 9FED2B2B 		vldr.64	d2, .L63
 1087 0044 B7EEC77A 		vcvt.f64.f32	d7, s14
 1088              	.LBE783:
 1089              	.LBE782:
 1090              	.LBB793:
 1091              	.LBB794:
 1092              	.LBB795:
 1093              	.LBB796:
 1094              	.LBB797:
 1095              		.loc 16 36 5 view .LVU287
 1096 0048 DFED316A 		vldr.32	s13, .L63+32
 1097              	.LBE797:
 1098              	.LBE796:
 1099              	.LBE795:
 1100              	.LBE794:
 1101              	.LBE793:
 1102              	.LBB816:
 1103              	.LBB817:
 1104              	.LBB818:
 1105              	.LBB819:
 1106              	.LBB820:
  37:../../DaisySP//Source/Utility/dsp.h **** #else
  38:../../DaisySP//Source/Utility/dsp.h ****     r = (a > b) ? a : b;
  39:../../DaisySP//Source/Utility/dsp.h **** #endif // __arm__
  40:../../DaisySP//Source/Utility/dsp.h ****     return r;
  41:../../DaisySP//Source/Utility/dsp.h **** }
  42:../../DaisySP//Source/Utility/dsp.h **** 
  43:../../DaisySP//Source/Utility/dsp.h **** inline float fmin(float a, float b)
  44:../../DaisySP//Source/Utility/dsp.h **** {
  45:../../DaisySP//Source/Utility/dsp.h ****     float r;
  46:../../DaisySP//Source/Utility/dsp.h **** #ifdef __arm__
  47:../../DaisySP//Source/Utility/dsp.h ****     asm("vminnm.f32 %[d], %[n], %[m]" : [d] "=t"(r) : [n] "t"(a), [m] "t"(b) :);
 1107              		.loc 16 47 5 view .LVU288
 1108 004c F7EE004A 		vmov.f32	s9, #1.0e+0
 1109              	.LBE820:
 1110              	.LBE819:
 1111              	.LBE818:
 220:../../DaisySP//Source/Drums/hihat.h ****         f0_ = fclamp(f0, 0.f, 1.f);
 1112              		.loc 10 220 12 view .LVU289
 1113 0050 DFED303A 		vldr.32	s7, .L63+36
 1114              	.LBE817:
 1115              	.LBE816:
 1116              	.LBB839:
 1117              	.LBB810:
 1118              	.LBB806:
 1119              	.LBB800:
 1120              	.LBB798:
  36:../../DaisySP//Source/Utility/dsp.h **** #else
 1121              		.loc 16 36 5 view .LVU290
ARM GAS  /var/folders/hl/qgbwny5j0fd895c2c41bk3tw0000gp/T//ccS4M3jv.s 			page 44


 1122              		.syntax unified
 1123              	@ 36 "../../DaisySP//Source/Utility/dsp.h" 1
 1124 0054 C6FE886A 		vmaxnm.f32 s13, s13, s16
 1125              	@ 0 "" 2
 1126              		.thumb
 1127              		.syntax unified
 1128              	.LBE798:
 1129              	.LBE800:
 1130              	.LBE806:
 1131              	.LBE810:
 1132              	.LBE839:
 1133              	.LBB840:
 1134              	.LBB788:
 1135              		.loc 10 235 16 view .LVU291
 1136 0058 27EE027B 		vmul.f64	d7, d7, d2
 1137              	.LBE788:
 1138              	.LBE840:
 1139              	.LBB841:
 1140              	.LBB842:
 208:../../DaisySP//Source/Drums/hihat.h **** 
 1141              		.loc 10 208 46 view .LVU292
 1142 005c 0023     		movs	r3, #0
 1143              	.LBE842:
 1144              	.LBE841:
 1145              	.LBB844:
 1146              	.LBB811:
 1147              	.LBB807:
 1148              	.LBB801:
 1149              	.LBB802:
 1150              		.loc 16 47 5 view .LVU293
 1151              		.syntax unified
 1152              	@ 47 "../../DaisySP//Source/Utility/dsp.h" 1
 1153 005e C6FEE46A 		vminnm.f32 s13, s13, s9
 1154              	@ 0 "" 2
 1155              		.thumb
 1156              		.syntax unified
 1157              	.LBE802:
 1158              	.LBE801:
 1159              	.LBE807:
 1160              	.LBE811:
 1161              	.LBE844:
 1162              	.LBB845:
 1163              	.LBB843:
 208:../../DaisySP//Source/Drums/hihat.h **** 
 1164              		.loc 10 208 46 view .LVU294
 1165 0062 A4F8E831 		strh	r3, [r4, #488]	@ movhi
 1166              	.LBE843:
 1167              	.LBE845:
 136:../../DaisySP//Source/Drums/hihat.h ****         noise_coloration_svf_.Init(sample_rate_);
 1168              		.loc 10 136 29 view .LVU295
 1169 0066 04F5FE70 		add	r0, r4, #508
 1170              	.LBB846:
 1171              	.LBB812:
 236:../../DaisySP//Source/Drums/hihat.h ****         decay_ -= 1.2;
 237:../../DaisySP//Source/Drums/hihat.h ****     }
 238:../../DaisySP//Source/Drums/hihat.h **** 
 239:../../DaisySP//Source/Drums/hihat.h ****     /** Sets the mix between tone and noise
ARM GAS  /var/folders/hl/qgbwny5j0fd895c2c41bk3tw0000gp/T//ccS4M3jv.s 			page 45


 240:../../DaisySP//Source/Drums/hihat.h ****         \param snappy 1 = just noise. 0 = just tone.
 241:../../DaisySP//Source/Drums/hihat.h ****     */
 242:../../DaisySP//Source/Drums/hihat.h ****     void SetNoisiness(float noisiness)
 243:../../DaisySP//Source/Drums/hihat.h ****     {
 244:../../DaisySP//Source/Drums/hihat.h ****         noisiness_ = fclamp(noisiness, 0.f, 1.f);
 245:../../DaisySP//Source/Drums/hihat.h ****         noisiness_ *= noisiness_;
 1172              		.loc 10 245 20 view .LVU296
 1173 006a 26EEA64A 		vmul.f32	s8, s13, s13
 1174              	.LBE812:
 1175              	.LBE846:
 120:../../DaisySP//Source/Drums/hihat.h **** 
 1176              		.loc 10 120 22 view .LVU297
 1177 006e C4ED748A 		vstr.32	s17, [r4, #464]
 1178              	.LBB847:
 1179              	.LBB833:
 220:../../DaisySP//Source/Drums/hihat.h ****         f0_ = fclamp(f0, 0.f, 1.f);
 1180              		.loc 10 220 12 view .LVU298
 1181 0072 83EEA86A 		vdiv.f32	s12, s7, s17
 1182              	.LBE833:
 1183              	.LBE847:
 124:../../DaisySP//Source/Drums/hihat.h ****         noise_clock_  = 0.0f;
 1184              		.loc 10 124 23 view .LVU299
 1185 0076 84ED7B8A 		vstr.32	s16, [r4, #492]
 1186              	.LBB848:
 1187              	.LBB834:
 1188              	.LBB829:
 1189              	.LBB823:
 1190              	.LBB824:
  36:../../DaisySP//Source/Utility/dsp.h **** #else
 1191              		.loc 16 36 5 view .LVU300
 1192              		.syntax unified
 1193              	@ 36 "../../DaisySP//Source/Utility/dsp.h" 1
 1194 007a 86FE086A 		vmaxnm.f32 s12, s12, s16
 1195              	@ 0 "" 2
 1196              		.thumb
 1197              		.syntax unified
 1198              	.LBE824:
 1199              	.LBE823:
 1200              	.LBE829:
 1201              	.LBE834:
 1202              	.LBE848:
 1203              	.LBB849:
 1204              	.LBB813:
 1205              		.loc 10 245 20 view .LVU301
 1206 007e 84ED794A 		vstr.32	s8, [r4, #484]
 1207              	.LBE813:
 1208              	.LBE849:
 1209              	.LBB850:
 1210              	.LBB835:
 1211              	.LBB830:
 1212              	.LBB826:
 1213              	.LBB821:
 1214              		.loc 16 47 5 view .LVU302
 1215              		.syntax unified
 1216              	@ 47 "../../DaisySP//Source/Utility/dsp.h" 1
 1217 0082 86FE646A 		vminnm.f32 s12, s12, s9
 1218              	@ 0 "" 2
ARM GAS  /var/folders/hl/qgbwny5j0fd895c2c41bk3tw0000gp/T//ccS4M3jv.s 			page 46


 1219              		.thumb
 1220              		.syntax unified
 1221              	.LBE821:
 1222              	.LBE826:
 1223              	.LBE830:
 1224              	.LBE835:
 1225              	.LBE850:
 125:../../DaisySP//Source/Drums/hihat.h ****         noise_sample_ = 0.0f;
 1226              		.loc 10 125 23 view .LVU303
 1227 0086 84ED7C8A 		vstr.32	s16, [r4, #496]
 1228              	.LBB851:
 1229              	.LBB789:
 235:../../DaisySP//Source/Drums/hihat.h ****         decay_ -= 1.2;
 1230              		.loc 10 235 16 view .LVU304
 1231 008a B7EEC77B 		vcvt.f32.f64	s14, d7
 1232              	.LBE789:
 1233              	.LBE851:
 1234              	.LBB852:
 1235              	.LBB836:
 221:../../DaisySP//Source/Drums/hihat.h ****     }
 1236              		.loc 10 221 13 view .LVU305
 1237 008e 84ED766A 		vstr.32	s12, [r4, #472]
 1238              	.LBE836:
 1239              	.LBE852:
 136:../../DaisySP//Source/Drums/hihat.h ****         noise_coloration_svf_.Init(sample_rate_);
 1240              		.loc 10 136 29 view .LVU306
 1241 0092 B0EE680A 		vmov.f32	s0, s17
 126:../../DaisySP//Source/Drums/hihat.h ****         sustain_gain_ = 0.0f;
 1242              		.loc 10 126 23 view .LVU307
 1243 0096 84ED7D8A 		vstr.32	s16, [r4, #500]
 127:../../DaisySP//Source/Drums/hihat.h **** 
 1244              		.loc 10 127 23 view .LVU308
 1245 009a 84ED7E8A 		vstr.32	s16, [r4, #504]
 1246              	.LVL67:
 1247              	.LBB853:
 1248              	.LBI816:
 218:../../DaisySP//Source/Drums/hihat.h ****     {
 1249              		.loc 10 218 10 is_stmt 1 view .LVU309
 1250              	.LBB837:
 1251              	.LBB831:
 1252              	.LBI818:
  48:../../DaisySP//Source/Utility/dsp.h **** #else
  49:../../DaisySP//Source/Utility/dsp.h ****     r = (a < b) ? a : b;
  50:../../DaisySP//Source/Utility/dsp.h **** #endif // __arm__
  51:../../DaisySP//Source/Utility/dsp.h ****     return r;
  52:../../DaisySP//Source/Utility/dsp.h **** }
  53:../../DaisySP//Source/Utility/dsp.h **** 
  54:../../DaisySP//Source/Utility/dsp.h **** /** quick fp clamp
  55:../../DaisySP//Source/Utility/dsp.h **** */
  56:../../DaisySP//Source/Utility/dsp.h **** inline float fclamp(float in, float min, float max)
 1253              		.loc 16 56 14 view .LVU310
 1254              	.LBE831:
 1255              	.LBE837:
 1256              	.LBE853:
 1257              	.LBE893:
 1258              	.LBE898:
  57:../../DaisySP//Source/Utility/dsp.h **** {
ARM GAS  /var/folders/hl/qgbwny5j0fd895c2c41bk3tw0000gp/T//ccS4M3jv.s 			page 47


  58:../../DaisySP//Source/Utility/dsp.h ****     return fmin(fmax(in, min), max);
 1259              		.loc 16 58 5 view .LVU311
 1260              	.LBB899:
 1261              	.LBB894:
 1262              	.LBB854:
 1263              	.LBB838:
 1264              	.LBB832:
 1265              	.LBB827:
 1266              	.LBI823:
  32:../../DaisySP//Source/Utility/dsp.h **** {
 1267              		.loc 16 32 14 view .LVU312
 1268              	.LBB825:
  34:../../DaisySP//Source/Utility/dsp.h **** #ifdef __arm__
 1269              		.loc 16 34 5 view .LVU313
  36:../../DaisySP//Source/Utility/dsp.h **** #else
 1270              		.loc 16 36 5 view .LVU314
  40:../../DaisySP//Source/Utility/dsp.h **** }
 1271              		.loc 16 40 5 view .LVU315
  40:../../DaisySP//Source/Utility/dsp.h **** }
 1272              		.loc 16 40 5 is_stmt 0 view .LVU316
 1273              	.LBE825:
 1274              	.LBE827:
 1275              	.LBB828:
 1276              	.LBI819:
  43:../../DaisySP//Source/Utility/dsp.h **** {
 1277              		.loc 16 43 14 is_stmt 1 view .LVU317
 1278              	.LBB822:
  45:../../DaisySP//Source/Utility/dsp.h **** #ifdef __arm__
 1279              		.loc 16 45 5 view .LVU318
  47:../../DaisySP//Source/Utility/dsp.h **** #else
 1280              		.loc 16 47 5 view .LVU319
  51:../../DaisySP//Source/Utility/dsp.h **** }
 1281              		.loc 16 51 5 view .LVU320
  51:../../DaisySP//Source/Utility/dsp.h **** }
 1282              		.loc 16 51 5 is_stmt 0 view .LVU321
 1283              	.LBE822:
 1284              	.LBE828:
 1285              	.LBE832:
 1286              	.LBE838:
 1287              	.LBE854:
 1288              	.LBB855:
 1289              	.LBI855:
 227:../../DaisySP//Source/Drums/hihat.h **** 
 1290              		.loc 10 227 10 is_stmt 1 view .LVU322
 1291              	.LBB856:
 1292              	.LBB857:
 1293              	.LBI857:
  56:../../DaisySP//Source/Utility/dsp.h **** {
 1294              		.loc 16 56 14 view .LVU323
 1295              	.LBE857:
 1296              	.LBE856:
 1297              	.LBE855:
 1298              	.LBE894:
 1299              	.LBE899:
 1300              		.loc 16 58 5 view .LVU324
 1301              	.LBB900:
 1302              	.LBB895:
ARM GAS  /var/folders/hl/qgbwny5j0fd895c2c41bk3tw0000gp/T//ccS4M3jv.s 			page 48


 1303              	.LBB872:
 1304              	.LBB869:
 1305              	.LBB866:
 1306              	.LBB858:
 1307              	.LBI858:
  32:../../DaisySP//Source/Utility/dsp.h **** {
 1308              		.loc 16 32 14 view .LVU325
 1309              	.LBB859:
  34:../../DaisySP//Source/Utility/dsp.h **** #ifdef __arm__
 1310              		.loc 16 34 5 view .LVU326
  36:../../DaisySP//Source/Utility/dsp.h **** #else
 1311              		.loc 16 36 5 view .LVU327
 1312              	.LBE859:
 1313              	.LBE858:
 1314              	.LBE866:
 1315              	.LBE869:
 1316              	.LBE872:
 1317              	.LBB873:
 1318              	.LBB790:
 236:../../DaisySP//Source/Drums/hihat.h ****     }
 1319              		.loc 10 236 16 is_stmt 0 view .LVU328
 1320 009e B7EEC77A 		vcvt.f64.f32	d7, s14
 1321              	.LBE790:
 1322              	.LBE873:
 1323              	.LBB874:
 1324              	.LBB875:
 213:../../DaisySP//Source/Drums/hihat.h **** 
 1325              		.loc 10 213 44 view .LVU329
 1326 00a2 C4ED756A 		vstr.32	s13, [r4, #468]
 1327              	.LBE875:
 1328              	.LBE874:
 1329              	.LBB884:
 1330              	.LBB870:
 1331              	.LBB867:
 1332              	.LBB861:
 1333              	.LBB860:
  36:../../DaisySP//Source/Utility/dsp.h **** #else
 1334              		.loc 16 36 5 view .LVU330
 1335 00a6 F6EE006A 		vmov.f32	s13, #5.0e-1
 1336              		.syntax unified
 1337              	@ 36 "../../DaisySP//Source/Utility/dsp.h" 1
 1338 00aa C6FE886A 		vmaxnm.f32 s13, s13, s16
 1339              	@ 0 "" 2
 1340              	.LVL68:
  40:../../DaisySP//Source/Utility/dsp.h **** }
 1341              		.loc 16 40 5 is_stmt 1 view .LVU331
  40:../../DaisySP//Source/Utility/dsp.h **** }
 1342              		.loc 16 40 5 is_stmt 0 view .LVU332
 1343              		.thumb
 1344              		.syntax unified
 1345              	.LBE860:
 1346              	.LBE861:
 1347              	.LBB862:
 1348              	.LBI862:
  43:../../DaisySP//Source/Utility/dsp.h **** {
 1349              		.loc 16 43 14 is_stmt 1 view .LVU333
 1350              	.LBB863:
ARM GAS  /var/folders/hl/qgbwny5j0fd895c2c41bk3tw0000gp/T//ccS4M3jv.s 			page 49


  45:../../DaisySP//Source/Utility/dsp.h **** #ifdef __arm__
 1351              		.loc 16 45 5 view .LVU334
  47:../../DaisySP//Source/Utility/dsp.h **** #else
 1352              		.loc 16 47 5 view .LVU335
 1353              	.LBE863:
 1354              	.LBE862:
 1355              	.LBE867:
 1356              	.LBE870:
 1357              	.LBE884:
 1358              	.LBB885:
 1359              	.LBB791:
 236:../../DaisySP//Source/Drums/hihat.h ****     }
 1360              		.loc 10 236 16 is_stmt 0 view .LVU336
 1361 00ae 9FED125B 		vldr.64	d5, .L63+8
 1362              	.LBE791:
 1363              	.LBE885:
 1364              	.LBB886:
 1365              	.LBB871:
 1366              	.LBB868:
 1367              	.LBB865:
 1368              	.LBB864:
  47:../../DaisySP//Source/Utility/dsp.h **** #else
 1369              		.loc 16 47 5 view .LVU337
 1370              		.syntax unified
 1371              	@ 47 "../../DaisySP//Source/Utility/dsp.h" 1
 1372 00b2 C6FEE46A 		vminnm.f32 s13, s13, s9
 1373              	@ 0 "" 2
 1374              	.LVL69:
  51:../../DaisySP//Source/Utility/dsp.h **** }
 1375              		.loc 16 51 5 is_stmt 1 view .LVU338
  51:../../DaisySP//Source/Utility/dsp.h **** }
 1376              		.loc 16 51 5 is_stmt 0 view .LVU339
 1377              		.thumb
 1378              		.syntax unified
 1379              	.LBE864:
 1380              	.LBE865:
 1381              	.LBE868:
 227:../../DaisySP//Source/Drums/hihat.h **** 
 1382              		.loc 10 227 38 view .LVU340
 1383 00b6 C4ED776A 		vstr.32	s13, [r4, #476]
 1384              	.LVL70:
 227:../../DaisySP//Source/Drums/hihat.h **** 
 1385              		.loc 10 227 38 view .LVU341
 1386              	.LBE871:
 1387              	.LBE886:
 1388              	.LBB887:
 1389              	.LBI782:
 232:../../DaisySP//Source/Drums/hihat.h ****     {
 1390              		.loc 10 232 10 is_stmt 1 view .LVU342
 1391              	.LBB792:
 1392              	.LBB787:
 1393              	.LBI784:
  32:../../DaisySP//Source/Utility/dsp.h **** {
 1394              		.loc 16 32 14 view .LVU343
 1395              	.LBB786:
  34:../../DaisySP//Source/Utility/dsp.h **** #ifdef __arm__
 1396              		.loc 16 34 5 view .LVU344
ARM GAS  /var/folders/hl/qgbwny5j0fd895c2c41bk3tw0000gp/T//ccS4M3jv.s 			page 50


  36:../../DaisySP//Source/Utility/dsp.h **** #else
 1397              		.loc 16 36 5 view .LVU345
  40:../../DaisySP//Source/Utility/dsp.h **** }
 1398              		.loc 16 40 5 view .LVU346
  40:../../DaisySP//Source/Utility/dsp.h **** }
 1399              		.loc 16 40 5 is_stmt 0 view .LVU347
 1400              	.LBE786:
 1401              	.LBE787:
 236:../../DaisySP//Source/Drums/hihat.h ****     }
 1402              		.loc 10 236 16 view .LVU348
 1403 00ba 37EE457B 		vsub.f64	d7, d7, d5
 1404 00be B7EEC77B 		vcvt.f32.f64	s14, d7
 1405 00c2 84ED787A 		vstr.32	s14, [r4, #480]
 1406              	.LVL71:
 236:../../DaisySP//Source/Drums/hihat.h ****     }
 1407              		.loc 10 236 16 view .LVU349
 1408              	.LBE792:
 1409              	.LBE887:
 1410              	.LBB888:
 1411              	.LBI793:
 242:../../DaisySP//Source/Drums/hihat.h ****     {
 1412              		.loc 10 242 10 is_stmt 1 view .LVU350
 1413              	.LBB814:
 1414              	.LBB808:
 1415              	.LBI795:
  56:../../DaisySP//Source/Utility/dsp.h **** {
 1416              		.loc 16 56 14 view .LVU351
 1417              	.LBE808:
 1418              	.LBE814:
 1419              	.LBE888:
 1420              	.LBE895:
 1421              	.LBE900:
 1422              		.loc 16 58 5 view .LVU352
 1423              	.LBB901:
 1424              	.LBB896:
 1425              	.LBB889:
 1426              	.LBB815:
 1427              	.LBB809:
 1428              	.LBB804:
 1429              	.LBI796:
  32:../../DaisySP//Source/Utility/dsp.h **** {
 1430              		.loc 16 32 14 view .LVU353
 1431              	.LBB799:
  34:../../DaisySP//Source/Utility/dsp.h **** #ifdef __arm__
 1432              		.loc 16 34 5 view .LVU354
  36:../../DaisySP//Source/Utility/dsp.h **** #else
 1433              		.loc 16 36 5 view .LVU355
  40:../../DaisySP//Source/Utility/dsp.h **** }
 1434              		.loc 16 40 5 view .LVU356
  40:../../DaisySP//Source/Utility/dsp.h **** }
 1435              		.loc 16 40 5 is_stmt 0 view .LVU357
 1436              	.LBE799:
 1437              	.LBE804:
 1438              	.LBB805:
 1439              	.LBI801:
  43:../../DaisySP//Source/Utility/dsp.h **** {
 1440              		.loc 16 43 14 is_stmt 1 view .LVU358
ARM GAS  /var/folders/hl/qgbwny5j0fd895c2c41bk3tw0000gp/T//ccS4M3jv.s 			page 51


 1441              	.LBB803:
  45:../../DaisySP//Source/Utility/dsp.h **** #ifdef __arm__
 1442              		.loc 16 45 5 view .LVU359
  47:../../DaisySP//Source/Utility/dsp.h **** #else
 1443              		.loc 16 47 5 view .LVU360
  51:../../DaisySP//Source/Utility/dsp.h **** }
 1444              		.loc 16 51 5 view .LVU361
  51:../../DaisySP//Source/Utility/dsp.h **** }
 1445              		.loc 16 51 5 is_stmt 0 view .LVU362
 1446              	.LBE803:
 1447              	.LBE805:
 1448              	.LBE809:
 1449              	.LBE815:
 1450              	.LBE889:
 1451              	.LBB890:
 1452              	.LBI874:
 213:../../DaisySP//Source/Drums/hihat.h **** 
 1453              		.loc 10 213 10 is_stmt 1 view .LVU363
 1454              	.LBB882:
 1455              	.LBB876:
 1456              	.LBI876:
  56:../../DaisySP//Source/Utility/dsp.h **** {
 1457              		.loc 16 56 14 view .LVU364
 1458              	.LBE876:
 1459              	.LBE882:
 1460              	.LBE890:
 1461              	.LBE896:
 1462              	.LBE901:
 1463              		.loc 16 58 5 view .LVU365
 1464              	.LBB902:
 1465              	.LBB897:
 1466              	.LBB891:
 1467              	.LBB883:
 1468              	.LBB881:
 1469              	.LBB877:
 1470              	.LBI877:
  32:../../DaisySP//Source/Utility/dsp.h **** {
 1471              		.loc 16 32 14 view .LVU366
 1472              	.LBB878:
  34:../../DaisySP//Source/Utility/dsp.h **** #ifdef __arm__
 1473              		.loc 16 34 5 view .LVU367
  36:../../DaisySP//Source/Utility/dsp.h **** #else
 1474              		.loc 16 36 5 view .LVU368
  40:../../DaisySP//Source/Utility/dsp.h **** }
 1475              		.loc 16 40 5 view .LVU369
  40:../../DaisySP//Source/Utility/dsp.h **** }
 1476              		.loc 16 40 5 is_stmt 0 view .LVU370
 1477              	.LBE878:
 1478              	.LBE877:
 1479              	.LBB879:
 1480              	.LBI879:
  43:../../DaisySP//Source/Utility/dsp.h **** {
 1481              		.loc 16 43 14 is_stmt 1 view .LVU371
 1482              	.LBB880:
  45:../../DaisySP//Source/Utility/dsp.h **** #ifdef __arm__
 1483              		.loc 16 45 5 view .LVU372
  47:../../DaisySP//Source/Utility/dsp.h **** #else
ARM GAS  /var/folders/hl/qgbwny5j0fd895c2c41bk3tw0000gp/T//ccS4M3jv.s 			page 52


 1484              		.loc 16 47 5 view .LVU373
  51:../../DaisySP//Source/Utility/dsp.h **** }
 1485              		.loc 16 51 5 view .LVU374
  51:../../DaisySP//Source/Utility/dsp.h **** }
 1486              		.loc 16 51 5 is_stmt 0 view .LVU375
 1487              	.LBE880:
 1488              	.LBE879:
 1489              	.LBE881:
 1490              	.LBE883:
 1491              	.LBE891:
 1492              	.LBB892:
 1493              	.LBI841:
 208:../../DaisySP//Source/Drums/hihat.h **** 
 1494              		.loc 10 208 10 is_stmt 1 view .LVU376
 208:../../DaisySP//Source/Drums/hihat.h **** 
 1495              		.loc 10 208 10 is_stmt 0 view .LVU377
 1496              	.LBE892:
 136:../../DaisySP//Source/Drums/hihat.h ****         noise_coloration_svf_.Init(sample_rate_);
 1497              		.loc 10 136 29 view .LVU378
 1498 00c6 FFF7FEFF 		bl	_ZN7daisysp11SquareNoise4InitEf
 1499              	.LVL72:
 137:../../DaisySP//Source/Drums/hihat.h ****         hpf_.Init(sample_rate_);
 1500              		.loc 10 137 35 view .LVU379
 1501 00ca 94ED740A 		vldr.32	s0, [r4, #464]
 1502 00ce 04F50570 		add	r0, r4, #532
 1503 00d2 FFF7FEFF 		bl	_ZN7daisysp3Svf4InitEf
 1504              	.LVL73:
 138:../../DaisySP//Source/Drums/hihat.h ****     }
 1505              		.loc 10 138 18 view .LVU380
 1506 00d6 94ED740A 		vldr.32	s0, [r4, #464]
 1507 00da 04F51870 		add	r0, r4, #608
 1508 00de FFF7FEFF 		bl	_ZN7daisysp3Svf4InitEf
 1509              	.LVL74:
 138:../../DaisySP//Source/Drums/hihat.h ****     }
 1510              		.loc 10 138 18 view .LVU381
 1511              	.LBE897:
 1512              	.LBE902:
  21:drum.h        ****     amplitude_ = 0.0f;
 1513              		.loc 9 21 5 is_stmt 1 view .LVU382
 1514              		.loc 9 21 16 is_stmt 0 view .LVU383
 1515 00e2 84EDAD8A 		vstr.32	s16, [r4, #692]
  22:drum.h        **** }
 1516              		.loc 9 22 1 view .LVU384
 1517 00e6 BDEC028B 		vldm	sp!, {d8}
 1518              		.cfi_restore 80
 1519              		.cfi_restore 81
 1520              		.cfi_def_cfa_offset 8
 1521 00ea 10BD     		pop	{r4, pc}
 1522              	.LVL75:
 1523              	.L64:
 1524              		.loc 9 22 1 view .LVU385
 1525 00ec AFF30080 		.align	3
 1526              	.L63:
 1527 00f0 33333333 		.word	858993459
 1528 00f4 3333FB3F 		.word	1073427251
 1529 00f8 33333333 		.word	858993459
 1530 00fc 3333F33F 		.word	1072902963
ARM GAS  /var/folders/hl/qgbwny5j0fd895c2c41bk3tw0000gp/T//ccS4M3jv.s 			page 53


 1531 0100 00004842 		.word	1112014848
 1532 0104 00000000 		.word	0
 1533 0108 CDCCCC3E 		.word	1053609165
 1534 010c CDCC4C3E 		.word	1045220557
 1535 0110 CDCC4C3F 		.word	1061997773
 1536 0114 00803B45 		.word	1161527296
 1537              		.cfi_endproc
 1538              	.LFE4807:
 1540              		.section	.text._ZN6engineC2Ev,"axG",%progbits,_ZN6engineC5Ev,comdat
 1541              		.align	1
 1542              		.p2align 2,,3
 1543              		.weak	_ZN6engineC2Ev
 1544              		.syntax unified
 1545              		.thumb
 1546              		.thumb_func
 1547              		.fpu fpv5-d16
 1549              	_ZN6engineC2Ev:
 1550              	.LVL76:
 1551              	.LFB4815:
  35:engine.h      **** {
 1552              		.loc 15 35 7 is_stmt 1 view -0
 1553              		.cfi_startproc
 1554              		@ args = 0, pretend = 0, frame = 48
 1555              		@ frame_needed = 0, uses_anonymous_args = 0
 1556              	.LBB903:
  35:engine.h      **** {
 1557              		.loc 15 35 7 is_stmt 0 view .LVU387
 1558 0000 4C4B     		ldr	r3, .L67
 1559              	.LBE903:
 1560 0002 2DE9F04F 		push	{r4, r5, r6, r7, r8, r9, r10, fp, lr}
 1561              		.cfi_def_cfa_offset 36
 1562              		.cfi_offset 4, -36
 1563              		.cfi_offset 5, -32
 1564              		.cfi_offset 6, -28
 1565              		.cfi_offset 7, -24
 1566              		.cfi_offset 8, -20
 1567              		.cfi_offset 9, -16
 1568              		.cfi_offset 10, -12
 1569              		.cfi_offset 11, -8
 1570              		.cfi_offset 14, -4
 1571              	.LBB904:
 1572 0006 9C46     		mov	ip, r3
 1573              	.LBE904:
 1574 0008 8DB0     		sub	sp, sp, #52
 1575              		.cfi_def_cfa_offset 88
 1576              	.LBB905:
  35:engine.h      **** {
 1577              		.loc 15 35 7 view .LVU388
 1578 000a 03F11809 		add	r9, r3, #24
 1579 000e 03F13007 		add	r7, r3, #48
 1580 0012 00F14403 		add	r3, r0, #68
 1581              	.LBE905:
 1582 0016 0546     		mov	r5, r0
 1583              	.LBB906:
 1584 0018 0026     		movs	r6, #0
 1585 001a 0CF14802 		add	r2, ip, #72
 1586 001e 0193     		str	r3, [sp, #4]
ARM GAS  /var/folders/hl/qgbwny5j0fd895c2c41bk3tw0000gp/T//ccS4M3jv.s 			page 54


 1587 0020 00F1F003 		add	r3, r0, #240
 1588 0024 0660     		str	r6, [r0]
 1589 0026 00F13C04 		add	r4, r0, #60
 1590 002a 0671     		strb	r6, [r0, #4]
 1591 002c 0CF16001 		add	r1, ip, #96
 1592 0030 8660     		str	r6, [r0, #8]
 1593 0032 00F10C0A 		add	r10, r0, #12
 1594 0036 0392     		str	r2, [sp, #12]
 1595 0038 00F12408 		add	r8, r0, #36
 1596 003c 05F59072 		add	r2, r5, #288
 1597 0040 0293     		str	r3, [sp, #8]
 1598 0042 00F58470 		add	r0, r0, #264
 1599              	.LVL77:
  35:engine.h      **** {
 1600              		.loc 15 35 7 view .LVU389
 1601 0046 0CF17803 		add	r3, ip, #120
 1602 004a 0591     		str	r1, [sp, #20]
 1603 004c 0CF19001 		add	r1, ip, #144
 1604 0050 0490     		str	r0, [sp, #16]
 1605 0052 0CF1A800 		add	r0, ip, #168
 1606 0056 0793     		str	r3, [sp, #28]
 1607 0058 05F5A873 		add	r3, r5, #336
 1608 005c 0692     		str	r2, [sp, #24]
 1609 005e 05F5B672 		add	r2, r5, #364
 1610 0062 0891     		str	r1, [sp, #32]
 1611 0064 05F59C7E 		add	lr, r5, #312
 1612 0068 0A90     		str	r0, [sp, #40]
 1613 006a 0993     		str	r3, [sp, #36]
 1614 006c 0B92     		str	r2, [sp, #44]
 1615 006e BCE80F00 		ldmia	ip!, {r0, r1, r2, r3}
 1616 0072 AAE80F00 		stmia	r10!, {r0, r1, r2, r3}
 1617 0076 9CE80300 		ldm	ip, {r0, r1}
 1618 007a 8AE80300 		stm	r10, {r0, r1}
 1619 007e B9E80F00 		ldmia	r9!, {r0, r1, r2, r3}
 1620 0082 A8E80F00 		stmia	r8!, {r0, r1, r2, r3}
 1621 0086 99E80300 		ldm	r9, {r0, r1}
 1622 008a 88E80300 		stm	r8, {r0, r1}
 1623 008e 0FCF     		ldmia	r7!, {r0, r1, r2, r3}
 1624 0090 EE63     		str	r6, [r5, #60]
 1625 0092 A680     		strh	r6, [r4, #4]	@ movhi
 1626 0094 019C     		ldr	r4, [sp, #4]
 1627 0096 0FC4     		stmia	r4!, {r0, r1, r2, r3}
 1628 0098 97E80300 		ldm	r7, {r0, r1}
 1629 009c 84E80300 		stm	r4, {r0, r1}
 1630 00a0 C5E91766 		strd	r6, r6, [r5, #92]
 1631 00a4 C5E91966 		strd	r6, r6, [r5, #100]
 1632 00a8 A5F8D060 		strh	r6, [r5, #208]	@ movhi
 1633 00ac C5E93566 		strd	r6, r6, [r5, #212]
 1634 00b0 C5E93766 		strd	r6, r6, [r5, #220]
 1635 00b4 C5E93966 		strd	r6, r6, [r5, #228]
 1636 00b8 C5F8EC60 		str	r6, [r5, #236]
 1637 00bc 039C     		ldr	r4, [sp, #12]
 1638 00be 029F     		ldr	r7, [sp, #8]
 1639 00c0 0FCC     		ldmia	r4!, {r0, r1, r2, r3}
 1640 00c2 0FC7     		stmia	r7!, {r0, r1, r2, r3}
 1641 00c4 94E80300 		ldm	r4, {r0, r1}
 1642 00c8 059C     		ldr	r4, [sp, #20]
ARM GAS  /var/folders/hl/qgbwny5j0fd895c2c41bk3tw0000gp/T//ccS4M3jv.s 			page 55


 1643 00ca C7E90001 		strd	r0, r1, [r7]
 1644 00ce 0FCC     		ldmia	r4!, {r0, r1, r2, r3}
 1645 00d0 049F     		ldr	r7, [sp, #16]
 1646 00d2 0FC7     		stmia	r7!, {r0, r1, r2, r3}
 1647 00d4 94E80300 		ldm	r4, {r0, r1}
 1648 00d8 079C     		ldr	r4, [sp, #28]
 1649 00da C7E90001 		strd	r0, r1, [r7]
 1650 00de 0FCC     		ldmia	r4!, {r0, r1, r2, r3}
 1651 00e0 069F     		ldr	r7, [sp, #24]
 1652 00e2 D5F86CC0 		ldr	ip, [r5, #108]
 1653 00e6 0FC7     		stmia	r7!, {r0, r1, r2, r3}
 1654 00e8 94E80300 		ldm	r4, {r0, r1}
 1655 00ec 089C     		ldr	r4, [sp, #32]
 1656 00ee C7E90001 		strd	r0, r1, [r7]
 1657 00f2 0FCC     		ldmia	r4!, {r0, r1, r2, r3}
 1658 00f4 0A9F     		ldr	r7, [sp, #40]
 1659 00f6 AEE80F00 		stmia	lr!, {r0, r1, r2, r3}
 1660 00fa 94E80300 		ldm	r4, {r0, r1}
 1661 00fe 099C     		ldr	r4, [sp, #36]
 1662 0100 8EE80300 		stm	lr, {r0, r1}
 1663 0104 0FCF     		ldmia	r7!, {r0, r1, r2, r3}
 1664 0106 0FC4     		stmia	r4!, {r0, r1, r2, r3}
 1665 0108 97E80300 		ldm	r7, {r0, r1}
 1666 010c 0123     		movs	r3, #1
 1667 010e C4E90001 		strd	r0, r1, [r4]
 1668 0112 C5F86831 		str	r3, [r5, #360]
 1669 0116 09F19803 		add	r3, r9, #152
 1670 011a 0B9C     		ldr	r4, [sp, #44]
 1671 011c 0FCB     		ldm	r3, {r0, r1, r2, r3}
 1672 011e 84E80F00 		stm	r4, {r0, r1, r2, r3}
 1673 0122 0123     		movs	r3, #1
 1674              	.LBE906:
 1675 0124 2846     		mov	r0, r5
 1676              	.LBB907:
 1677 0126 C5E95F36 		strd	r3, r6, [r5, #380]
 1678 012a C5E9616C 		strd	r6, ip, [r5, #388]
 1679              	.LBE907:
 1680 012e 0DB0     		add	sp, sp, #52
 1681              		.cfi_def_cfa_offset 36
 1682              		@ sp needed
 1683 0130 BDE8F08F 		pop	{r4, r5, r6, r7, r8, r9, r10, fp, pc}
 1684              	.LVL78:
 1685              	.L68:
  35:engine.h      **** {
 1686              		.loc 15 35 7 view .LVU390
 1687              		.align	2
 1688              	.L67:
 1689 0134 00000000 		.word	.LANCHOR20
 1690              		.cfi_endproc
 1691              	.LFE4815:
 1693              		.weak	_ZN6engineC1Ev
 1694              		.thumb_set _ZN6engineC1Ev,_ZN6engineC2Ev
 1695              		.section	.rodata._Z6syslogv.str1.4,"aMS",%progbits,1
 1696              		.align	2
 1697              	.LC9:
 1698 0000 50726F63 		.ascii	"Processing Load %:\000"
 1698      65737369 
ARM GAS  /var/folders/hl/qgbwny5j0fd895c2c41bk3tw0000gp/T//ccS4M3jv.s 			page 56


 1698      6E67204C 
 1698      6F616420 
 1698      253A00
 1699 0013 00       		.align	2
 1700              	.LC10:
 1701 0014 4D61783A 		.ascii	"Max: %c%d.%03d\000"
 1701      20256325 
 1701      642E2530 
 1701      336400
 1702 0023 00       		.align	2
 1703              	.LC11:
 1704 0024 4176673A 		.ascii	"Avg: %c%d.%03d\000"
 1704      20256325 
 1704      642E2530 
 1704      336400
 1705 0033 00       		.align	2
 1706              	.LC12:
 1707 0034 4D696E3A 		.ascii	"Min: %c%d.%03d\000"
 1707      20256325 
 1707      642E2530 
 1707      336400
 1708              		.section	.text._Z6syslogv,"ax",%progbits
 1709              		.align	1
 1710              		.p2align 2,,3
 1711              		.global	_Z6syslogv
 1712              		.syntax unified
 1713              		.thumb
 1714              		.thumb_func
 1715              		.fpu fpv5-d16
 1717              	_Z6syslogv:
 1718              	.LFB4820:
 1719              		.file 17 "DrumTest.cpp"
   1:DrumTest.cpp  **** #include "daisysp.h"
   2:DrumTest.cpp  **** #include "daisy_patch_sm.h"
   3:DrumTest.cpp  **** #include "daisy_bed.h"
   4:DrumTest.cpp  **** #include "engine.h"
   5:DrumTest.cpp  **** #include "drum.h"
   6:DrumTest.cpp  **** 
   7:DrumTest.cpp  **** using namespace daisy;
   8:DrumTest.cpp  **** using namespace patch_sm;
   9:DrumTest.cpp  **** using namespace daisysp;
  10:DrumTest.cpp  **** 
  11:DrumTest.cpp  **** DaisyPatchSM 	hw;
  12:DrumTest.cpp  **** engine			euclid;
  13:DrumTest.cpp  **** drumSet			drums;
  14:DrumTest.cpp  **** CpuLoadMeter	loadMeter;
  15:DrumTest.cpp  **** 
  16:DrumTest.cpp  **** 
  17:DrumTest.cpp  **** /* pot lock and drop it */
  18:DrumTest.cpp  **** int modifier = 0; 
  19:DrumTest.cpp  **** 
  20:DrumTest.cpp  **** void modManager();
  21:DrumTest.cpp  **** 
  22:DrumTest.cpp  **** void syslog(){
 1720              		.loc 17 22 14 is_stmt 1 view -0
 1721              		.cfi_startproc
 1722              		@ args = 0, pretend = 0, frame = 0
ARM GAS  /var/folders/hl/qgbwny5j0fd895c2c41bk3tw0000gp/T//ccS4M3jv.s 			page 57


 1723              		@ frame_needed = 0, uses_anonymous_args = 0
  23:DrumTest.cpp  ****     // testing cpuloads
  24:DrumTest.cpp  ****     // get the current load (smoothed value and peak values)
  25:DrumTest.cpp  ****     const float avgLoad = loadMeter.GetAvgCpuLoad();
 1724              		.loc 17 25 5 view .LVU392
 1725              	.LVL79:
 1726              	.LBB908:
 1727              	.LBI908:
 1728              		.file 18 "../../libDaisy//src/util/CpuLoadMeter.h"
   1:../../libDaisy//src/util/CpuLoadMeter.h **** #pragma once
   2:../../libDaisy//src/util/CpuLoadMeter.h **** 
   3:../../libDaisy//src/util/CpuLoadMeter.h **** #include "sys/system.h"
   4:../../libDaisy//src/util/CpuLoadMeter.h **** #include <cmath>
   5:../../libDaisy//src/util/CpuLoadMeter.h **** 
   6:../../libDaisy//src/util/CpuLoadMeter.h **** namespace daisy
   7:../../libDaisy//src/util/CpuLoadMeter.h **** {
   8:../../libDaisy//src/util/CpuLoadMeter.h **** /** @brief CPU load metering
   9:../../libDaisy//src/util/CpuLoadMeter.h ****  *  @author jelliesen
  10:../../libDaisy//src/util/CpuLoadMeter.h ****  *  @addtogroup utility
  11:../../libDaisy//src/util/CpuLoadMeter.h ****  * 
  12:../../libDaisy//src/util/CpuLoadMeter.h ****  *  To measure the CPU load of your audio processing, create a CpuLoadMeter
  13:../../libDaisy//src/util/CpuLoadMeter.h ****  *  and initialize it with your block size and sample rate.
  14:../../libDaisy//src/util/CpuLoadMeter.h ****  *  Then at the beginning of the audio callback, call `OnBlockStart()`, 
  15:../../libDaisy//src/util/CpuLoadMeter.h ****  *  and at the end of the audio callback, call `OnBlockEnd()`.
  16:../../libDaisy//src/util/CpuLoadMeter.h ****  *  You can then read out the minimum, maximum and average CPU load.
  17:../../libDaisy//src/util/CpuLoadMeter.h ****  */
  18:../../libDaisy//src/util/CpuLoadMeter.h **** class CpuLoadMeter
  19:../../libDaisy//src/util/CpuLoadMeter.h **** {
  20:../../libDaisy//src/util/CpuLoadMeter.h ****   public:
  21:../../libDaisy//src/util/CpuLoadMeter.h ****     CpuLoadMeter(){};
  22:../../libDaisy//src/util/CpuLoadMeter.h **** 
  23:../../libDaisy//src/util/CpuLoadMeter.h ****     /** Initializes the CpuLoadMeter for a particular sample rate and block size.
  24:../../libDaisy//src/util/CpuLoadMeter.h ****      *  @param sampleRateInHz           The sample rate in Hz
  25:../../libDaisy//src/util/CpuLoadMeter.h ****      *  @param blockSizeInSamples       The block size in samples
  26:../../libDaisy//src/util/CpuLoadMeter.h ****      *  @param smoothingFilterCutoffHz  The cutoff frequency of the smoothing filter that's used to
  27:../../libDaisy//src/util/CpuLoadMeter.h ****      *                                  create the average CPU load reading.
  28:../../libDaisy//src/util/CpuLoadMeter.h ****      */
  29:../../libDaisy//src/util/CpuLoadMeter.h ****     void Init(float sampleRateInHz,
  30:../../libDaisy//src/util/CpuLoadMeter.h ****               int   blockSizeInSamples,
  31:../../libDaisy//src/util/CpuLoadMeter.h ****               float smoothingFilterCutoffHz = 1.0f)
  32:../../libDaisy//src/util/CpuLoadMeter.h ****     {
  33:../../libDaisy//src/util/CpuLoadMeter.h ****         const auto secPerBlock = float(blockSizeInSamples) / sampleRateInHz;
  34:../../libDaisy//src/util/CpuLoadMeter.h ****         const auto ticksPerS   = float(System::GetTickFreq());
  35:../../libDaisy//src/util/CpuLoadMeter.h ****         ticksPerBlockInv_      = 1.0f / (ticksPerS * secPerBlock);
  36:../../libDaisy//src/util/CpuLoadMeter.h **** 
  37:../../libDaisy//src/util/CpuLoadMeter.h ****         // update filter coefficient for smoothing filter (1pole lowpass)
  38:../../libDaisy//src/util/CpuLoadMeter.h ****         const auto blockRateInHz = sampleRateInHz / float(blockSizeInSamples);
  39:../../libDaisy//src/util/CpuLoadMeter.h ****         const auto cutoffNormalized
  40:../../libDaisy//src/util/CpuLoadMeter.h ****             = smoothingFilterCutoffHz * 2.0f * 3.141592653f / blockRateInHz;
  41:../../libDaisy//src/util/CpuLoadMeter.h ****         // according to
  42:../../libDaisy//src/util/CpuLoadMeter.h ****         // https://en.wikipedia.org/wiki/Low-pass_filter#Simple_infinite_impulse_response_filter
  43:../../libDaisy//src/util/CpuLoadMeter.h ****         smoothingConstant_ = cutoffNormalized / (cutoffNormalized + 1.0f);
  44:../../libDaisy//src/util/CpuLoadMeter.h **** 
  45:../../libDaisy//src/util/CpuLoadMeter.h ****         Reset();
  46:../../libDaisy//src/util/CpuLoadMeter.h ****     }
  47:../../libDaisy//src/util/CpuLoadMeter.h **** 
  48:../../libDaisy//src/util/CpuLoadMeter.h ****     /** Call this at the beginning of your audio callback */
ARM GAS  /var/folders/hl/qgbwny5j0fd895c2c41bk3tw0000gp/T//ccS4M3jv.s 			page 58


  49:../../libDaisy//src/util/CpuLoadMeter.h ****     void OnBlockStart() { currentBlockStartTicks_ = System::GetTick(); }
  50:../../libDaisy//src/util/CpuLoadMeter.h **** 
  51:../../libDaisy//src/util/CpuLoadMeter.h ****     /** Call this at the end of your audio callback */
  52:../../libDaisy//src/util/CpuLoadMeter.h ****     void OnBlockEnd()
  53:../../libDaisy//src/util/CpuLoadMeter.h ****     {
  54:../../libDaisy//src/util/CpuLoadMeter.h ****         const auto end         = System::GetTick();
  55:../../libDaisy//src/util/CpuLoadMeter.h ****         const auto ticksPassed = end - currentBlockStartTicks_;
  56:../../libDaisy//src/util/CpuLoadMeter.h ****         const auto currentBlockLoad
  57:../../libDaisy//src/util/CpuLoadMeter.h ****             = float(ticksPassed) * ticksPerBlockInv_; // usPassed / usPerBlock
  58:../../libDaisy//src/util/CpuLoadMeter.h **** 
  59:../../libDaisy//src/util/CpuLoadMeter.h ****         if(firstCycle_)
  60:../../libDaisy//src/util/CpuLoadMeter.h ****         {
  61:../../libDaisy//src/util/CpuLoadMeter.h ****             max_ = min_ = avg_ = currentBlockLoad;
  62:../../libDaisy//src/util/CpuLoadMeter.h ****             firstCycle_        = false;
  63:../../libDaisy//src/util/CpuLoadMeter.h ****         }
  64:../../libDaisy//src/util/CpuLoadMeter.h ****         else
  65:../../libDaisy//src/util/CpuLoadMeter.h ****         {
  66:../../libDaisy//src/util/CpuLoadMeter.h ****             if(currentBlockLoad > max_)
  67:../../libDaisy//src/util/CpuLoadMeter.h ****                 max_ = currentBlockLoad;
  68:../../libDaisy//src/util/CpuLoadMeter.h ****             if(currentBlockLoad < min_)
  69:../../libDaisy//src/util/CpuLoadMeter.h ****                 min_ = currentBlockLoad;
  70:../../libDaisy//src/util/CpuLoadMeter.h **** 
  71:../../libDaisy//src/util/CpuLoadMeter.h ****             avg_ = smoothingConstant_ * currentBlockLoad
  72:../../libDaisy//src/util/CpuLoadMeter.h ****                    + (1.0f - smoothingConstant_) * avg_;
  73:../../libDaisy//src/util/CpuLoadMeter.h ****         }
  74:../../libDaisy//src/util/CpuLoadMeter.h ****     }
  75:../../libDaisy//src/util/CpuLoadMeter.h **** 
  76:../../libDaisy//src/util/CpuLoadMeter.h ****     /** Returns the smoothed average CPU load in the range 0..1 */
  77:../../libDaisy//src/util/CpuLoadMeter.h ****     float GetAvgCpuLoad() const { return avg_; }
 1729              		.loc 18 77 11 view .LVU393
 1730              	.LBB909:
 1731              		.loc 18 77 35 view .LVU394
 1732              		.loc 18 77 42 is_stmt 0 view .LVU395
 1733 0000 3B4B     		ldr	r3, .L77+8
 1734              	.LBE909:
 1735              	.LBE908:
 1736              	.LBB911:
 1737              	.LBB912:
  66:../../libDaisy//src/daisy_patch_sm.h **** 
  67:../../libDaisy//src/daisy_patch_sm.h ****         /** Initializes the memories, and core peripherals for the Daisy Patch SM */
  68:../../libDaisy//src/daisy_patch_sm.h ****         void Init();
  69:../../libDaisy//src/daisy_patch_sm.h **** 
  70:../../libDaisy//src/daisy_patch_sm.h ****         /** Starts a non-interleaving audio callback */
  71:../../libDaisy//src/daisy_patch_sm.h ****         void StartAudio(AudioHandle::AudioCallback cb);
  72:../../libDaisy//src/daisy_patch_sm.h **** 
  73:../../libDaisy//src/daisy_patch_sm.h ****         /** Starts an interleaving audio callback */
  74:../../libDaisy//src/daisy_patch_sm.h ****         void StartAudio(AudioHandle::InterleavingAudioCallback cb);
  75:../../libDaisy//src/daisy_patch_sm.h **** 
  76:../../libDaisy//src/daisy_patch_sm.h ****         /** Changes the callback that is executing.
  77:../../libDaisy//src/daisy_patch_sm.h ****          *  This may cause clicks if done while audio is processing.
  78:../../libDaisy//src/daisy_patch_sm.h ****          */
  79:../../libDaisy//src/daisy_patch_sm.h ****         void ChangeAudioCallback(AudioHandle::AudioCallback cb);
  80:../../libDaisy//src/daisy_patch_sm.h **** 
  81:../../libDaisy//src/daisy_patch_sm.h ****         /** Changes the callback that is executing.
  82:../../libDaisy//src/daisy_patch_sm.h ****          *  This may cause clicks if done while audio is processing.
  83:../../libDaisy//src/daisy_patch_sm.h ****          */
  84:../../libDaisy//src/daisy_patch_sm.h ****         void ChangeAudioCallback(AudioHandle::InterleavingAudioCallback cb);
ARM GAS  /var/folders/hl/qgbwny5j0fd895c2c41bk3tw0000gp/T//ccS4M3jv.s 			page 59


  85:../../libDaisy//src/daisy_patch_sm.h **** 
  86:../../libDaisy//src/daisy_patch_sm.h ****         /** Stops the transmission of audio. */
  87:../../libDaisy//src/daisy_patch_sm.h ****         void StopAudio();
  88:../../libDaisy//src/daisy_patch_sm.h **** 
  89:../../libDaisy//src/daisy_patch_sm.h ****         /** Sets the number of samples processed in an audio callback. 
  90:../../libDaisy//src/daisy_patch_sm.h ****          *  This will only take effect on the next invocation of `StartAudio`
  91:../../libDaisy//src/daisy_patch_sm.h ****          */
  92:../../libDaisy//src/daisy_patch_sm.h ****         void SetAudioBlockSize(size_t size);
  93:../../libDaisy//src/daisy_patch_sm.h **** 
  94:../../libDaisy//src/daisy_patch_sm.h ****         /** Sets the samplerate for the audio engine 
  95:../../libDaisy//src/daisy_patch_sm.h ****          *  This will set it to the closest valid samplerate. Options being:
  96:../../libDaisy//src/daisy_patch_sm.h ****          *  8kHz, 16kHz, 32kHz, 48kHz, and 96kHz
  97:../../libDaisy//src/daisy_patch_sm.h ****          */
  98:../../libDaisy//src/daisy_patch_sm.h ****         void SetAudioSampleRate(float sr);
  99:../../libDaisy//src/daisy_patch_sm.h **** 
 100:../../libDaisy//src/daisy_patch_sm.h ****         void SetAudioSampleRate(SaiHandle::Config::SampleRate sample_rate);
 101:../../libDaisy//src/daisy_patch_sm.h **** 
 102:../../libDaisy//src/daisy_patch_sm.h ****         /** Returns the number of samples processed in an audio callback */
 103:../../libDaisy//src/daisy_patch_sm.h ****         size_t AudioBlockSize();
 104:../../libDaisy//src/daisy_patch_sm.h **** 
 105:../../libDaisy//src/daisy_patch_sm.h ****         /** Returns the audio engine's samplerate in Hz */
 106:../../libDaisy//src/daisy_patch_sm.h ****         float AudioSampleRate();
 107:../../libDaisy//src/daisy_patch_sm.h **** 
 108:../../libDaisy//src/daisy_patch_sm.h ****         /** Returns the rate at which the audio callback will be called in Hz */
 109:../../libDaisy//src/daisy_patch_sm.h ****         float AudioCallbackRate();
 110:../../libDaisy//src/daisy_patch_sm.h **** 
 111:../../libDaisy//src/daisy_patch_sm.h ****         /** Starts the Control ADCs 
 112:../../libDaisy//src/daisy_patch_sm.h ****          * 
 113:../../libDaisy//src/daisy_patch_sm.h ****          *  This is started automatically when Init() is called.
 114:../../libDaisy//src/daisy_patch_sm.h ****          */
 115:../../libDaisy//src/daisy_patch_sm.h ****         void StartAdc();
 116:../../libDaisy//src/daisy_patch_sm.h **** 
 117:../../libDaisy//src/daisy_patch_sm.h ****         /** Stops the Control ADCs */
 118:../../libDaisy//src/daisy_patch_sm.h ****         void StopAdc();
 119:../../libDaisy//src/daisy_patch_sm.h **** 
 120:../../libDaisy//src/daisy_patch_sm.h ****         /** Reads and filters all of the analog control inputs */
 121:../../libDaisy//src/daisy_patch_sm.h ****         void ProcessAnalogControls();
 122:../../libDaisy//src/daisy_patch_sm.h **** 
 123:../../libDaisy//src/daisy_patch_sm.h ****         /** Reads and debounces any of the digital control inputs 
 124:../../libDaisy//src/daisy_patch_sm.h ****          *  This does nothing on this board at this time.
 125:../../libDaisy//src/daisy_patch_sm.h ****          */
 126:../../libDaisy//src/daisy_patch_sm.h ****         void ProcessDigitalControls();
 127:../../libDaisy//src/daisy_patch_sm.h **** 
 128:../../libDaisy//src/daisy_patch_sm.h ****         /** Does both of the above */
 129:../../libDaisy//src/daisy_patch_sm.h ****         void ProcessAllControls()
 130:../../libDaisy//src/daisy_patch_sm.h ****         {
 131:../../libDaisy//src/daisy_patch_sm.h ****             ProcessAnalogControls();
 132:../../libDaisy//src/daisy_patch_sm.h ****             ProcessDigitalControls();
 133:../../libDaisy//src/daisy_patch_sm.h ****         }
 134:../../libDaisy//src/daisy_patch_sm.h **** 
 135:../../libDaisy//src/daisy_patch_sm.h ****         /** Returns the current value for one of the ADCs */
 136:../../libDaisy//src/daisy_patch_sm.h ****         float GetAdcValue(int idx);
 137:../../libDaisy//src/daisy_patch_sm.h **** 
 138:../../libDaisy//src/daisy_patch_sm.h ****         /** Returns the STM32 port/pin combo for the desired pin (or an invalid pin for HW only pin
 139:../../libDaisy//src/daisy_patch_sm.h ****          *
 140:../../libDaisy//src/daisy_patch_sm.h ****          *  Macros at top of file can be used in place of separate arguments (i.e. GetPin(A4), etc.
 141:../../libDaisy//src/daisy_patch_sm.h ****          * 
ARM GAS  /var/folders/hl/qgbwny5j0fd895c2c41bk3tw0000gp/T//ccS4M3jv.s 			page 60


 142:../../libDaisy//src/daisy_patch_sm.h ****          *  \param bank should be one of the PinBank options above
 143:../../libDaisy//src/daisy_patch_sm.h ****          *  \param idx pin number between 1 and 10 for each of the pins on each header.
 144:../../libDaisy//src/daisy_patch_sm.h ****          */
 145:../../libDaisy//src/daisy_patch_sm.h ****         dsy_gpio_pin GetPin(const PinBank bank, const int idx);
 146:../../libDaisy//src/daisy_patch_sm.h **** 
 147:../../libDaisy//src/daisy_patch_sm.h ****         /** Starts the DAC for the CV Outputs 
 148:../../libDaisy//src/daisy_patch_sm.h ****          * 
 149:../../libDaisy//src/daisy_patch_sm.h ****          *  By default this starts by running the 
 150:../../libDaisy//src/daisy_patch_sm.h ****          *  internal callback at 48kHz, which will 
 151:../../libDaisy//src/daisy_patch_sm.h ****          *  update the values based on the SetCvOut 
 152:../../libDaisy//src/daisy_patch_sm.h ****          *  function.
 153:../../libDaisy//src/daisy_patch_sm.h ****          * 
 154:../../libDaisy//src/daisy_patch_sm.h ****          *  This is started automatically when Init() is called.
 155:../../libDaisy//src/daisy_patch_sm.h ****          */
 156:../../libDaisy//src/daisy_patch_sm.h ****         void StartDac(DacHandle::DacCallback callback = nullptr);
 157:../../libDaisy//src/daisy_patch_sm.h **** 
 158:../../libDaisy//src/daisy_patch_sm.h ****         /** Stop the DAC from updating. 
 159:../../libDaisy//src/daisy_patch_sm.h ****          *  This will suspend the CV Outputs from changing 
 160:../../libDaisy//src/daisy_patch_sm.h ****          */
 161:../../libDaisy//src/daisy_patch_sm.h ****         void StopDac();
 162:../../libDaisy//src/daisy_patch_sm.h **** 
 163:../../libDaisy//src/daisy_patch_sm.h ****         /** Sets specified DAC channel to the target voltage. 
 164:../../libDaisy//src/daisy_patch_sm.h ****          *  This may not be 100% accurate without calibration. 
 165:../../libDaisy//src/daisy_patch_sm.h ****          *  
 166:../../libDaisy//src/daisy_patch_sm.h ****          *  \todo Add Calibration to CV Outputs
 167:../../libDaisy//src/daisy_patch_sm.h ****          * 
 168:../../libDaisy//src/daisy_patch_sm.h ****          *  \param channel desired channel to update. 0 is both, otherwise 1 or 2 are valid.
 169:../../libDaisy//src/daisy_patch_sm.h ****          *  \param voltage value in Volts that you'd like to write to the DAC. The valid range is 0
 170:../../libDaisy//src/daisy_patch_sm.h ****          */
 171:../../libDaisy//src/daisy_patch_sm.h ****         void WriteCvOut(const int channel, float voltage);
 172:../../libDaisy//src/daisy_patch_sm.h **** 
 173:../../libDaisy//src/daisy_patch_sm.h ****         /** Here are some wrappers around libDaisy Static functions 
 174:../../libDaisy//src/daisy_patch_sm.h ****          *  to provide simpler syntax to those who prefer it. */
 175:../../libDaisy//src/daisy_patch_sm.h **** 
 176:../../libDaisy//src/daisy_patch_sm.h ****         /** Delays for a specified number of milliseconds */
 177:../../libDaisy//src/daisy_patch_sm.h ****         inline void Delay(uint32_t milliseconds)
 178:../../libDaisy//src/daisy_patch_sm.h ****         {
 179:../../libDaisy//src/daisy_patch_sm.h ****             System::Delay(milliseconds);
 180:../../libDaisy//src/daisy_patch_sm.h ****         }
 181:../../libDaisy//src/daisy_patch_sm.h **** 
 182:../../libDaisy//src/daisy_patch_sm.h ****         /** Gets a random 32-bit value */
 183:../../libDaisy//src/daisy_patch_sm.h ****         inline uint32_t GetRandomValue() { return Random::GetValue(); }
 184:../../libDaisy//src/daisy_patch_sm.h **** 
 185:../../libDaisy//src/daisy_patch_sm.h ****         /** Gets a random floating point value between the specified minimum, and maxmimum */
 186:../../libDaisy//src/daisy_patch_sm.h ****         inline float GetRandomFloat(float min = 0.f, float max = 1.f)
 187:../../libDaisy//src/daisy_patch_sm.h ****         {
 188:../../libDaisy//src/daisy_patch_sm.h ****             return Random::GetFloat(min, max);
 189:../../libDaisy//src/daisy_patch_sm.h ****         }
 190:../../libDaisy//src/daisy_patch_sm.h **** 
 191:../../libDaisy//src/daisy_patch_sm.h ****         void SetLed(bool state);
 192:../../libDaisy//src/daisy_patch_sm.h **** 
 193:../../libDaisy//src/daisy_patch_sm.h ****         /** Print formatted debug log message
 194:../../libDaisy//src/daisy_patch_sm.h ****          */
 195:../../libDaisy//src/daisy_patch_sm.h ****         template <typename... VA>
 196:../../libDaisy//src/daisy_patch_sm.h ****         static void Print(const char* format, VA... va)
 197:../../libDaisy//src/daisy_patch_sm.h ****         {
 198:../../libDaisy//src/daisy_patch_sm.h ****             Log::Print(format, va...);
ARM GAS  /var/folders/hl/qgbwny5j0fd895c2c41bk3tw0000gp/T//ccS4M3jv.s 			page 61


 199:../../libDaisy//src/daisy_patch_sm.h ****         }
 200:../../libDaisy//src/daisy_patch_sm.h **** 
 201:../../libDaisy//src/daisy_patch_sm.h ****         /** Print formatted debug log message with automatic line termination
 202:../../libDaisy//src/daisy_patch_sm.h ****          */
 203:../../libDaisy//src/daisy_patch_sm.h ****         template <typename... VA>
 204:../../libDaisy//src/daisy_patch_sm.h ****         static void PrintLine(const char* format, VA... va)
 205:../../libDaisy//src/daisy_patch_sm.h ****         {
 206:../../libDaisy//src/daisy_patch_sm.h ****             Log::PrintLine(format, va...);
 1738              		.loc 2 206 27 view .LVU396
 1739 0002 3C48     		ldr	r0, .L77+12
 1740              	.LBE912:
 1741              	.LBE911:
  22:DrumTest.cpp  ****     // testing cpuloads
 1742              		.loc 17 22 14 view .LVU397
 1743 0004 10B5     		push	{r4, lr}
 1744              		.cfi_def_cfa_offset 8
 1745              		.cfi_offset 4, -8
 1746              		.cfi_offset 14, -4
 1747 0006 2DED068B 		vpush.64	{d8, d9, d10}
 1748              		.cfi_def_cfa_offset 32
 1749              		.cfi_offset 80, -32
 1750              		.cfi_offset 81, -28
 1751              		.cfi_offset 82, -24
 1752              		.cfi_offset 83, -20
 1753              		.cfi_offset 84, -16
 1754              		.cfi_offset 85, -12
  26:DrumTest.cpp  ****     const float maxLoad = loadMeter.GetMaxCpuLoad();
  27:DrumTest.cpp  ****     const float minLoad = loadMeter.GetMinCpuLoad();
  28:DrumTest.cpp  ****     // print it to the serial connection (as percentages)
  29:DrumTest.cpp  ****     hw.PrintLine("Processing Load %:");
  30:DrumTest.cpp  ****     hw.PrintLine("Max: " FLT_FMT3, FLT_VAR3(maxLoad * 100.0f));
 1755              		.loc 17 30 36 view .LVU398
 1756 000a DFED3B9A 		vldr.32	s19, .L77+16
 1757              	.LBB914:
 1758              	.LBB915:
  78:../../libDaisy//src/util/CpuLoadMeter.h ****     /** Returns the minimun CPU load observed since the last call to Reset(). */
  79:../../libDaisy//src/util/CpuLoadMeter.h ****     float GetMinCpuLoad() const { return min_; }
  80:../../libDaisy//src/util/CpuLoadMeter.h ****     /** Returns the maximum CPU load observed since the last call to Reset(). */
  81:../../libDaisy//src/util/CpuLoadMeter.h ****     float GetMaxCpuLoad() const { return max_; }
 1759              		.loc 18 81 42 view .LVU399
 1760 000e D3ED04AA 		vldr.32	s21, [r3, #16]
 1761              	.LBE915:
 1762              	.LBE914:
 1763              	.LBB917:
 1764              	.LBB910:
  77:../../libDaisy//src/util/CpuLoadMeter.h ****     /** Returns the minimun CPU load observed since the last call to Reset(). */
 1765              		.loc 18 77 42 view .LVU400
 1766 0012 93ED05AA 		vldr.32	s20, [r3, #20]
 1767              	.LVL80:
  77:../../libDaisy//src/util/CpuLoadMeter.h ****     /** Returns the minimun CPU load observed since the last call to Reset(). */
 1768              		.loc 18 77 42 view .LVU401
 1769              	.LBE910:
 1770              	.LBE917:
  26:DrumTest.cpp  ****     const float maxLoad = loadMeter.GetMaxCpuLoad();
 1771              		.loc 17 26 5 is_stmt 1 view .LVU402
 1772              	.LBB918:
 1773              	.LBI914:
ARM GAS  /var/folders/hl/qgbwny5j0fd895c2c41bk3tw0000gp/T//ccS4M3jv.s 			page 62


 1774              		.loc 18 81 11 view .LVU403
 1775              	.LBB916:
 1776              		.loc 18 81 35 view .LVU404
 1777              		.loc 18 81 35 is_stmt 0 view .LVU405
 1778              	.LBE916:
 1779              	.LBE918:
  27:DrumTest.cpp  ****     // print it to the serial connection (as percentages)
 1780              		.loc 17 27 5 is_stmt 1 view .LVU406
 1781              	.LBB919:
 1782              	.LBI919:
  79:../../libDaisy//src/util/CpuLoadMeter.h ****     /** Returns the maximum CPU load observed since the last call to Reset(). */
 1783              		.loc 18 79 11 view .LVU407
 1784              	.LBB920:
  79:../../libDaisy//src/util/CpuLoadMeter.h ****     /** Returns the maximum CPU load observed since the last call to Reset(). */
 1785              		.loc 18 79 35 view .LVU408
  79:../../libDaisy//src/util/CpuLoadMeter.h ****     /** Returns the maximum CPU load observed since the last call to Reset(). */
 1786              		.loc 18 79 42 is_stmt 0 view .LVU409
 1787 0016 93ED039A 		vldr.32	s18, [r3, #12]
 1788              	.LVL81:
  79:../../libDaisy//src/util/CpuLoadMeter.h ****     /** Returns the maximum CPU load observed since the last call to Reset(). */
 1789              		.loc 18 79 42 view .LVU410
 1790              	.LBE920:
 1791              	.LBE919:
  29:DrumTest.cpp  ****     hw.PrintLine("Max: " FLT_FMT3, FLT_VAR3(maxLoad * 100.0f));
 1792              		.loc 17 29 5 is_stmt 1 view .LVU411
 1793              	.LBB921:
 1794              	.LBI911:
 204:../../libDaisy//src/daisy_patch_sm.h ****         {
 1795              		.loc 2 204 21 view .LVU412
 1796              	.LBB913:
 1797              		.loc 2 206 27 is_stmt 0 view .LVU413
 1798 001a FFF7FEFF 		bl	_ZN5daisy6LoggerILNS_17LoggerDestinationE1EE9PrintLineEPKcz
 1799              	.LVL82:
 1800              		.loc 2 206 27 view .LVU414
 1801              	.LBE913:
 1802              	.LBE921:
 1803              		.loc 17 30 5 is_stmt 1 view .LVU415
 1804              	.LBB922:
 1805              	.LBI922:
 1806              		.file 19 "/opt/homebrew/Cellar/arm-none-eabi-gcc/10.3-2021.07/gcc/arm-none-eabi/include/c++/10.3.1
   1:/opt/homebrew/Cellar/arm-none-eabi-gcc/10.3-2021.07/gcc/arm-none-eabi/include/c++/10.3.1/bits/std_abs.h **** // -*- C++ -*- C library enhancements header.
   2:/opt/homebrew/Cellar/arm-none-eabi-gcc/10.3-2021.07/gcc/arm-none-eabi/include/c++/10.3.1/bits/std_abs.h **** 
   3:/opt/homebrew/Cellar/arm-none-eabi-gcc/10.3-2021.07/gcc/arm-none-eabi/include/c++/10.3.1/bits/std_abs.h **** // Copyright (C) 2016-2020 Free Software Foundation, Inc.
   4:/opt/homebrew/Cellar/arm-none-eabi-gcc/10.3-2021.07/gcc/arm-none-eabi/include/c++/10.3.1/bits/std_abs.h **** //
   5:/opt/homebrew/Cellar/arm-none-eabi-gcc/10.3-2021.07/gcc/arm-none-eabi/include/c++/10.3.1/bits/std_abs.h **** // This file is part of the GNU ISO C++ Library.  This library is free
   6:/opt/homebrew/Cellar/arm-none-eabi-gcc/10.3-2021.07/gcc/arm-none-eabi/include/c++/10.3.1/bits/std_abs.h **** // software; you can redistribute it and/or modify it under the
   7:/opt/homebrew/Cellar/arm-none-eabi-gcc/10.3-2021.07/gcc/arm-none-eabi/include/c++/10.3.1/bits/std_abs.h **** // terms of the GNU General Public License as published by the
   8:/opt/homebrew/Cellar/arm-none-eabi-gcc/10.3-2021.07/gcc/arm-none-eabi/include/c++/10.3.1/bits/std_abs.h **** // Free Software Foundation; either version 3, or (at your option)
   9:/opt/homebrew/Cellar/arm-none-eabi-gcc/10.3-2021.07/gcc/arm-none-eabi/include/c++/10.3.1/bits/std_abs.h **** // any later version.
  10:/opt/homebrew/Cellar/arm-none-eabi-gcc/10.3-2021.07/gcc/arm-none-eabi/include/c++/10.3.1/bits/std_abs.h **** 
  11:/opt/homebrew/Cellar/arm-none-eabi-gcc/10.3-2021.07/gcc/arm-none-eabi/include/c++/10.3.1/bits/std_abs.h **** // This library is distributed in the hope that it will be useful,
  12:/opt/homebrew/Cellar/arm-none-eabi-gcc/10.3-2021.07/gcc/arm-none-eabi/include/c++/10.3.1/bits/std_abs.h **** // but WITHOUT ANY WARRANTY; without even the implied warranty of
  13:/opt/homebrew/Cellar/arm-none-eabi-gcc/10.3-2021.07/gcc/arm-none-eabi/include/c++/10.3.1/bits/std_abs.h **** // MERCHANTABILITY or FITNESS FOR A PARTICULAR PURPOSE.  See the
  14:/opt/homebrew/Cellar/arm-none-eabi-gcc/10.3-2021.07/gcc/arm-none-eabi/include/c++/10.3.1/bits/std_abs.h **** // GNU General Public License for more details.
  15:/opt/homebrew/Cellar/arm-none-eabi-gcc/10.3-2021.07/gcc/arm-none-eabi/include/c++/10.3.1/bits/std_abs.h **** 
  16:/opt/homebrew/Cellar/arm-none-eabi-gcc/10.3-2021.07/gcc/arm-none-eabi/include/c++/10.3.1/bits/std_abs.h **** // Under Section 7 of GPL version 3, you are granted additional
  17:/opt/homebrew/Cellar/arm-none-eabi-gcc/10.3-2021.07/gcc/arm-none-eabi/include/c++/10.3.1/bits/std_abs.h **** // permissions described in the GCC Runtime Library Exception, version
ARM GAS  /var/folders/hl/qgbwny5j0fd895c2c41bk3tw0000gp/T//ccS4M3jv.s 			page 63


  18:/opt/homebrew/Cellar/arm-none-eabi-gcc/10.3-2021.07/gcc/arm-none-eabi/include/c++/10.3.1/bits/std_abs.h **** // 3.1, as published by the Free Software Foundation.
  19:/opt/homebrew/Cellar/arm-none-eabi-gcc/10.3-2021.07/gcc/arm-none-eabi/include/c++/10.3.1/bits/std_abs.h **** 
  20:/opt/homebrew/Cellar/arm-none-eabi-gcc/10.3-2021.07/gcc/arm-none-eabi/include/c++/10.3.1/bits/std_abs.h **** // You should have received a copy of the GNU General Public License and
  21:/opt/homebrew/Cellar/arm-none-eabi-gcc/10.3-2021.07/gcc/arm-none-eabi/include/c++/10.3.1/bits/std_abs.h **** // a copy of the GCC Runtime Library Exception along with this program;
  22:/opt/homebrew/Cellar/arm-none-eabi-gcc/10.3-2021.07/gcc/arm-none-eabi/include/c++/10.3.1/bits/std_abs.h **** // see the files COPYING3 and COPYING.RUNTIME respectively.  If not, see
  23:/opt/homebrew/Cellar/arm-none-eabi-gcc/10.3-2021.07/gcc/arm-none-eabi/include/c++/10.3.1/bits/std_abs.h **** // <http://www.gnu.org/licenses/>.
  24:/opt/homebrew/Cellar/arm-none-eabi-gcc/10.3-2021.07/gcc/arm-none-eabi/include/c++/10.3.1/bits/std_abs.h **** 
  25:/opt/homebrew/Cellar/arm-none-eabi-gcc/10.3-2021.07/gcc/arm-none-eabi/include/c++/10.3.1/bits/std_abs.h **** /** @file include/bits/std_abs.h
  26:/opt/homebrew/Cellar/arm-none-eabi-gcc/10.3-2021.07/gcc/arm-none-eabi/include/c++/10.3.1/bits/std_abs.h ****  *  This is an internal header file, included by other library headers.
  27:/opt/homebrew/Cellar/arm-none-eabi-gcc/10.3-2021.07/gcc/arm-none-eabi/include/c++/10.3.1/bits/std_abs.h ****  *  Do not attempt to use it directly. @headername{cmath, cstdlib}
  28:/opt/homebrew/Cellar/arm-none-eabi-gcc/10.3-2021.07/gcc/arm-none-eabi/include/c++/10.3.1/bits/std_abs.h ****  */
  29:/opt/homebrew/Cellar/arm-none-eabi-gcc/10.3-2021.07/gcc/arm-none-eabi/include/c++/10.3.1/bits/std_abs.h **** 
  30:/opt/homebrew/Cellar/arm-none-eabi-gcc/10.3-2021.07/gcc/arm-none-eabi/include/c++/10.3.1/bits/std_abs.h **** #ifndef _GLIBCXX_BITS_STD_ABS_H
  31:/opt/homebrew/Cellar/arm-none-eabi-gcc/10.3-2021.07/gcc/arm-none-eabi/include/c++/10.3.1/bits/std_abs.h **** #define _GLIBCXX_BITS_STD_ABS_H
  32:/opt/homebrew/Cellar/arm-none-eabi-gcc/10.3-2021.07/gcc/arm-none-eabi/include/c++/10.3.1/bits/std_abs.h **** 
  33:/opt/homebrew/Cellar/arm-none-eabi-gcc/10.3-2021.07/gcc/arm-none-eabi/include/c++/10.3.1/bits/std_abs.h **** #pragma GCC system_header
  34:/opt/homebrew/Cellar/arm-none-eabi-gcc/10.3-2021.07/gcc/arm-none-eabi/include/c++/10.3.1/bits/std_abs.h **** 
  35:/opt/homebrew/Cellar/arm-none-eabi-gcc/10.3-2021.07/gcc/arm-none-eabi/include/c++/10.3.1/bits/std_abs.h **** #include <bits/c++config.h>
  36:/opt/homebrew/Cellar/arm-none-eabi-gcc/10.3-2021.07/gcc/arm-none-eabi/include/c++/10.3.1/bits/std_abs.h **** 
  37:/opt/homebrew/Cellar/arm-none-eabi-gcc/10.3-2021.07/gcc/arm-none-eabi/include/c++/10.3.1/bits/std_abs.h **** #define _GLIBCXX_INCLUDE_NEXT_C_HEADERS
  38:/opt/homebrew/Cellar/arm-none-eabi-gcc/10.3-2021.07/gcc/arm-none-eabi/include/c++/10.3.1/bits/std_abs.h **** #include_next <stdlib.h>
  39:/opt/homebrew/Cellar/arm-none-eabi-gcc/10.3-2021.07/gcc/arm-none-eabi/include/c++/10.3.1/bits/std_abs.h **** #ifdef __CORRECT_ISO_CPP_MATH_H_PROTO
  40:/opt/homebrew/Cellar/arm-none-eabi-gcc/10.3-2021.07/gcc/arm-none-eabi/include/c++/10.3.1/bits/std_abs.h **** # include_next <math.h>
  41:/opt/homebrew/Cellar/arm-none-eabi-gcc/10.3-2021.07/gcc/arm-none-eabi/include/c++/10.3.1/bits/std_abs.h **** #endif
  42:/opt/homebrew/Cellar/arm-none-eabi-gcc/10.3-2021.07/gcc/arm-none-eabi/include/c++/10.3.1/bits/std_abs.h **** #undef _GLIBCXX_INCLUDE_NEXT_C_HEADERS
  43:/opt/homebrew/Cellar/arm-none-eabi-gcc/10.3-2021.07/gcc/arm-none-eabi/include/c++/10.3.1/bits/std_abs.h **** 
  44:/opt/homebrew/Cellar/arm-none-eabi-gcc/10.3-2021.07/gcc/arm-none-eabi/include/c++/10.3.1/bits/std_abs.h **** #undef abs
  45:/opt/homebrew/Cellar/arm-none-eabi-gcc/10.3-2021.07/gcc/arm-none-eabi/include/c++/10.3.1/bits/std_abs.h **** 
  46:/opt/homebrew/Cellar/arm-none-eabi-gcc/10.3-2021.07/gcc/arm-none-eabi/include/c++/10.3.1/bits/std_abs.h **** extern "C++"
  47:/opt/homebrew/Cellar/arm-none-eabi-gcc/10.3-2021.07/gcc/arm-none-eabi/include/c++/10.3.1/bits/std_abs.h **** {
  48:/opt/homebrew/Cellar/arm-none-eabi-gcc/10.3-2021.07/gcc/arm-none-eabi/include/c++/10.3.1/bits/std_abs.h **** namespace std _GLIBCXX_VISIBILITY(default)
  49:/opt/homebrew/Cellar/arm-none-eabi-gcc/10.3-2021.07/gcc/arm-none-eabi/include/c++/10.3.1/bits/std_abs.h **** {
  50:/opt/homebrew/Cellar/arm-none-eabi-gcc/10.3-2021.07/gcc/arm-none-eabi/include/c++/10.3.1/bits/std_abs.h **** _GLIBCXX_BEGIN_NAMESPACE_VERSION
  51:/opt/homebrew/Cellar/arm-none-eabi-gcc/10.3-2021.07/gcc/arm-none-eabi/include/c++/10.3.1/bits/std_abs.h **** 
  52:/opt/homebrew/Cellar/arm-none-eabi-gcc/10.3-2021.07/gcc/arm-none-eabi/include/c++/10.3.1/bits/std_abs.h ****   using ::abs;
  53:/opt/homebrew/Cellar/arm-none-eabi-gcc/10.3-2021.07/gcc/arm-none-eabi/include/c++/10.3.1/bits/std_abs.h **** 
  54:/opt/homebrew/Cellar/arm-none-eabi-gcc/10.3-2021.07/gcc/arm-none-eabi/include/c++/10.3.1/bits/std_abs.h **** #ifndef __CORRECT_ISO_CPP_STDLIB_H_PROTO
  55:/opt/homebrew/Cellar/arm-none-eabi-gcc/10.3-2021.07/gcc/arm-none-eabi/include/c++/10.3.1/bits/std_abs.h ****   inline long
  56:/opt/homebrew/Cellar/arm-none-eabi-gcc/10.3-2021.07/gcc/arm-none-eabi/include/c++/10.3.1/bits/std_abs.h ****   abs(long __i) { return __builtin_labs(__i); }
  57:/opt/homebrew/Cellar/arm-none-eabi-gcc/10.3-2021.07/gcc/arm-none-eabi/include/c++/10.3.1/bits/std_abs.h **** #endif
  58:/opt/homebrew/Cellar/arm-none-eabi-gcc/10.3-2021.07/gcc/arm-none-eabi/include/c++/10.3.1/bits/std_abs.h **** 
  59:/opt/homebrew/Cellar/arm-none-eabi-gcc/10.3-2021.07/gcc/arm-none-eabi/include/c++/10.3.1/bits/std_abs.h **** #ifdef _GLIBCXX_USE_LONG_LONG
  60:/opt/homebrew/Cellar/arm-none-eabi-gcc/10.3-2021.07/gcc/arm-none-eabi/include/c++/10.3.1/bits/std_abs.h ****   inline long long
  61:/opt/homebrew/Cellar/arm-none-eabi-gcc/10.3-2021.07/gcc/arm-none-eabi/include/c++/10.3.1/bits/std_abs.h ****   abs(long long __x) { return __builtin_llabs (__x); }
  62:/opt/homebrew/Cellar/arm-none-eabi-gcc/10.3-2021.07/gcc/arm-none-eabi/include/c++/10.3.1/bits/std_abs.h **** #endif
  63:/opt/homebrew/Cellar/arm-none-eabi-gcc/10.3-2021.07/gcc/arm-none-eabi/include/c++/10.3.1/bits/std_abs.h **** 
  64:/opt/homebrew/Cellar/arm-none-eabi-gcc/10.3-2021.07/gcc/arm-none-eabi/include/c++/10.3.1/bits/std_abs.h **** // _GLIBCXX_RESOLVE_LIB_DEFECTS
  65:/opt/homebrew/Cellar/arm-none-eabi-gcc/10.3-2021.07/gcc/arm-none-eabi/include/c++/10.3.1/bits/std_abs.h **** // 2192. Validity and return type of std::abs(0u) is unclear
  66:/opt/homebrew/Cellar/arm-none-eabi-gcc/10.3-2021.07/gcc/arm-none-eabi/include/c++/10.3.1/bits/std_abs.h **** // 2294. <cstdlib> should declare abs(double)
  67:/opt/homebrew/Cellar/arm-none-eabi-gcc/10.3-2021.07/gcc/arm-none-eabi/include/c++/10.3.1/bits/std_abs.h **** // 2735. std::abs(short), std::abs(signed char) and others should return int
  68:/opt/homebrew/Cellar/arm-none-eabi-gcc/10.3-2021.07/gcc/arm-none-eabi/include/c++/10.3.1/bits/std_abs.h **** 
  69:/opt/homebrew/Cellar/arm-none-eabi-gcc/10.3-2021.07/gcc/arm-none-eabi/include/c++/10.3.1/bits/std_abs.h **** #ifndef __CORRECT_ISO_CPP_MATH_H_PROTO
  70:/opt/homebrew/Cellar/arm-none-eabi-gcc/10.3-2021.07/gcc/arm-none-eabi/include/c++/10.3.1/bits/std_abs.h ****   inline _GLIBCXX_CONSTEXPR double
  71:/opt/homebrew/Cellar/arm-none-eabi-gcc/10.3-2021.07/gcc/arm-none-eabi/include/c++/10.3.1/bits/std_abs.h ****   abs(double __x)
  72:/opt/homebrew/Cellar/arm-none-eabi-gcc/10.3-2021.07/gcc/arm-none-eabi/include/c++/10.3.1/bits/std_abs.h ****   { return __builtin_fabs(__x); }
  73:/opt/homebrew/Cellar/arm-none-eabi-gcc/10.3-2021.07/gcc/arm-none-eabi/include/c++/10.3.1/bits/std_abs.h **** 
  74:/opt/homebrew/Cellar/arm-none-eabi-gcc/10.3-2021.07/gcc/arm-none-eabi/include/c++/10.3.1/bits/std_abs.h ****   inline _GLIBCXX_CONSTEXPR float
ARM GAS  /var/folders/hl/qgbwny5j0fd895c2c41bk3tw0000gp/T//ccS4M3jv.s 			page 64


  75:/opt/homebrew/Cellar/arm-none-eabi-gcc/10.3-2021.07/gcc/arm-none-eabi/include/c++/10.3.1/bits/std_abs.h ****   abs(float __x)
 1807              		.loc 19 75 3 view .LVU416
 1808              	.LBB923:
  76:/opt/homebrew/Cellar/arm-none-eabi-gcc/10.3-2021.07/gcc/arm-none-eabi/include/c++/10.3.1/bits/std_abs.h ****   { return __builtin_fabsf(__x); }
 1809              		.loc 19 76 5 view .LVU417
 1810              	.LBE923:
 1811              	.LBE922:
 1812              		.loc 17 30 36 is_stmt 0 view .LVU418
 1813 001e 6AEEA97A 		vmul.f32	s15, s21, s19
 1814              	.LVL83:
 1815              		.loc 17 30 17 view .LVU419
 1816 0022 DFED36AA 		vldr.32	s21, .L77+20
 1817              	.LVL84:
 1818              	.LBB925:
 1819              	.LBB926:
 1820              		.loc 2 206 27 view .LVU420
 1821 0026 3648     		ldr	r0, .L77+24
 1822              	.LBE926:
 1823              	.LBE925:
 1824              	.LBB929:
 1825              	.LBB924:
 1826              		.loc 19 76 31 view .LVU421
 1827 0028 B0EEE77A 		vabs.f32	s14, s15
 1828              	.LVL85:
 1829              		.loc 19 76 31 view .LVU422
 1830              	.LBE924:
 1831              	.LBE929:
 1832              		.loc 17 30 17 view .LVU423
 1833 002c F4EEEA7A 		vcmpe.f32	s15, s21
 1834 0030 FDEEC77A 		vcvt.s32.f32	s15, s14
 1835              	.LVL86:
 1836              		.loc 19 76 5 is_stmt 1 view .LVU424
 1837              		.loc 19 76 5 view .LVU425
 1838              	.LBB930:
 1839              	.LBI925:
 204:../../libDaisy//src/daisy_patch_sm.h ****         {
 1840              		.loc 2 204 21 view .LVU426
 1841              	.LBE930:
 1842              		.loc 17 30 17 is_stmt 0 view .LVU427
 1843 0034 F1EE10FA 		vmrs	APSR_nzcv, FPSCR
 1844              		.loc 17 30 36 view .LVU428
 1845 0038 F8EEE76A 		vcvt.f32.s32	s13, s15
 1846              	.LVL87:
 1847              	.LBB931:
 1848              	.LBB927:
 1849              		.loc 2 206 27 view .LVU429
 1850 003c 17EE902A 		vmov	r2, s15	@ int
 1851 0040 4CBF     		ite	mi
 1852 0042 2D21     		movmi	r1, #45
 1853 0044 2021     		movpl	r1, #32
 1854              	.LBE927:
 1855              	.LBE931:
 1856              		.loc 17 30 36 view .LVU430
 1857 0046 37EE667A 		vsub.f32	s14, s14, s13
 1858              	.LVL88:
 1859              		.loc 17 30 36 view .LVU431
 1860 004a 9FED278B 		vldr.64	d8, .L77
ARM GAS  /var/folders/hl/qgbwny5j0fd895c2c41bk3tw0000gp/T//ccS4M3jv.s 			page 65


 1861 004e B7EEC77A 		vcvt.f64.f32	d7, s14
 1862 0052 27EE087B 		vmul.f64	d7, d7, d8
 1863              	.LBB932:
 1864              	.LBB928:
 1865              		.loc 2 206 27 view .LVU432
 1866 0056 FDEEC77B 		vcvt.s32.f64	s15, d7
 1867              	.LVL89:
 1868              		.loc 2 206 27 view .LVU433
 1869 005a 17EE903A 		vmov	r3, s15	@ int
 1870 005e FFF7FEFF 		bl	_ZN5daisy6LoggerILNS_17LoggerDestinationE1EE9PrintLineEPKcz
 1871              	.LVL90:
 1872              		.loc 2 206 27 view .LVU434
 1873              	.LBE928:
 1874              	.LBE932:
  31:DrumTest.cpp  ****     hw.PrintLine("Avg: " FLT_FMT3, FLT_VAR3(avgLoad * 100.0f));
 1875              		.loc 17 31 5 is_stmt 1 view .LVU435
 1876              	.LBB933:
 1877              	.LBI933:
  75:/opt/homebrew/Cellar/arm-none-eabi-gcc/10.3-2021.07/gcc/arm-none-eabi/include/c++/10.3.1/bits/std_abs.h ****   { return __builtin_fabsf(__x); }
 1878              		.loc 19 75 3 view .LVU436
 1879              	.LBB934:
 1880              		.loc 19 76 5 view .LVU437
 1881              	.LBE934:
 1882              	.LBE933:
 1883              		.loc 17 31 36 is_stmt 0 view .LVU438
 1884 0062 6AEE297A 		vmul.f32	s15, s20, s19
 1885              	.LVL91:
 1886              	.LBB936:
 1887              	.LBB937:
 1888              		.loc 2 206 27 view .LVU439
 1889 0066 2748     		ldr	r0, .L77+28
 1890              	.LBE937:
 1891              	.LBE936:
 1892              	.LBB940:
 1893              	.LBB935:
 1894              		.loc 19 76 31 view .LVU440
 1895 0068 B0EEE77A 		vabs.f32	s14, s15
 1896              	.LVL92:
 1897              		.loc 19 76 31 view .LVU441
 1898              	.LBE935:
 1899              	.LBE940:
 1900              		.loc 17 31 17 view .LVU442
 1901 006c F4EEEA7A 		vcmpe.f32	s15, s21
 1902 0070 FDEEC77A 		vcvt.s32.f32	s15, s14
 1903              	.LVL93:
 1904              		.loc 19 76 5 is_stmt 1 view .LVU443
 1905              		.loc 19 76 5 view .LVU444
 1906              	.LBB941:
 1907              	.LBI936:
 204:../../libDaisy//src/daisy_patch_sm.h ****         {
 1908              		.loc 2 204 21 view .LVU445
 1909              	.LBE941:
 1910              		.loc 17 31 17 is_stmt 0 view .LVU446
 1911 0074 F1EE10FA 		vmrs	APSR_nzcv, FPSCR
 1912              		.loc 17 31 36 view .LVU447
 1913 0078 F8EEE76A 		vcvt.f32.s32	s13, s15
 1914              	.LVL94:
ARM GAS  /var/folders/hl/qgbwny5j0fd895c2c41bk3tw0000gp/T//ccS4M3jv.s 			page 66


 1915              	.LBB942:
 1916              	.LBB938:
 1917              		.loc 2 206 27 view .LVU448
 1918 007c 17EE902A 		vmov	r2, s15	@ int
 1919 0080 4CBF     		ite	mi
 1920 0082 2D21     		movmi	r1, #45
 1921 0084 2021     		movpl	r1, #32
 1922              	.LBE938:
 1923              	.LBE942:
 1924              		.loc 17 31 36 view .LVU449
 1925 0086 37EE667A 		vsub.f32	s14, s14, s13
 1926              	.LVL95:
 1927              		.loc 17 31 36 view .LVU450
 1928 008a B7EEC77A 		vcvt.f64.f32	d7, s14
 1929 008e 27EE087B 		vmul.f64	d7, d7, d8
 1930              	.LBB943:
 1931              	.LBB939:
 1932              		.loc 2 206 27 view .LVU451
 1933 0092 FDEEC77B 		vcvt.s32.f64	s15, d7
 1934              	.LVL96:
 1935              		.loc 2 206 27 view .LVU452
 1936 0096 17EE903A 		vmov	r3, s15	@ int
 1937 009a FFF7FEFF 		bl	_ZN5daisy6LoggerILNS_17LoggerDestinationE1EE9PrintLineEPKcz
 1938              	.LVL97:
 1939              		.loc 2 206 27 view .LVU453
 1940              	.LBE939:
 1941              	.LBE943:
  32:DrumTest.cpp  ****     hw.PrintLine("Min: " FLT_FMT3, FLT_VAR3(minLoad * 100.0f));
 1942              		.loc 17 32 5 is_stmt 1 view .LVU454
 1943              	.LBB944:
 1944              	.LBI944:
  75:/opt/homebrew/Cellar/arm-none-eabi-gcc/10.3-2021.07/gcc/arm-none-eabi/include/c++/10.3.1/bits/std_abs.h ****   { return __builtin_fabsf(__x); }
 1945              		.loc 19 75 3 view .LVU455
 1946              	.LBB945:
 1947              		.loc 19 76 5 view .LVU456
 1948              	.LBE945:
 1949              	.LBE944:
 1950              		.loc 17 32 36 is_stmt 0 view .LVU457
 1951 009e 69EE297A 		vmul.f32	s15, s18, s19
 1952              	.LVL98:
 1953              	.LBB947:
 1954              	.LBB948:
 1955              		.loc 2 206 27 view .LVU458
 1956 00a2 1948     		ldr	r0, .L77+32
 1957              	.LBE948:
 1958              	.LBE947:
 1959              	.LBB952:
 1960              	.LBB946:
 1961              		.loc 19 76 31 view .LVU459
 1962 00a4 B0EEE77A 		vabs.f32	s14, s15
 1963              	.LVL99:
 1964              		.loc 19 76 31 view .LVU460
 1965              	.LBE946:
 1966              	.LBE952:
 1967              		.loc 17 32 17 view .LVU461
 1968 00a8 F4EEEA7A 		vcmpe.f32	s15, s21
 1969 00ac FDEEC77A 		vcvt.s32.f32	s15, s14
ARM GAS  /var/folders/hl/qgbwny5j0fd895c2c41bk3tw0000gp/T//ccS4M3jv.s 			page 67


 1970              	.LVL100:
 1971              		.loc 19 76 5 is_stmt 1 view .LVU462
 1972              		.loc 19 76 5 view .LVU463
 1973              	.LBB953:
 1974              	.LBI947:
 204:../../libDaisy//src/daisy_patch_sm.h ****         {
 1975              		.loc 2 204 21 view .LVU464
 1976              	.LBE953:
 1977              		.loc 17 32 17 is_stmt 0 view .LVU465
 1978 00b0 F1EE10FA 		vmrs	APSR_nzcv, FPSCR
 1979              		.loc 17 32 36 view .LVU466
 1980 00b4 F8EEE76A 		vcvt.f32.s32	s13, s15
 1981              	.LVL101:
 1982              	.LBB954:
 1983              	.LBB949:
 1984              		.loc 2 206 27 view .LVU467
 1985 00b8 17EE902A 		vmov	r2, s15	@ int
 1986 00bc 4CBF     		ite	mi
 1987 00be 2D21     		movmi	r1, #45
 1988 00c0 2021     		movpl	r1, #32
 1989              	.LBE949:
 1990              	.LBE954:
 1991              		.loc 17 32 36 view .LVU468
 1992 00c2 37EE667A 		vsub.f32	s14, s14, s13
 1993              	.LVL102:
 1994              		.loc 17 32 36 view .LVU469
 1995 00c6 B7EEC77A 		vcvt.f64.f32	d7, s14
 1996 00ca 27EE087B 		vmul.f64	d7, d7, d8
  33:DrumTest.cpp  **** }
 1997              		.loc 17 33 1 view .LVU470
 1998 00ce BDEC068B 		vldm	sp!, {d8-d10}
 1999              		.cfi_restore 84
 2000              		.cfi_restore 85
 2001              		.cfi_restore 82
 2002              		.cfi_restore 83
 2003              		.cfi_restore 80
 2004              		.cfi_restore 81
 2005              		.cfi_def_cfa_offset 8
 2006              	.LVL103:
 2007              	.LBB955:
 2008              	.LBB950:
 2009              		.loc 2 206 27 view .LVU471
 2010 00d2 FDEEC77B 		vcvt.s32.f64	s15, d7
 2011              	.LVL104:
 2012              		.loc 2 206 27 view .LVU472
 2013              	.LBE950:
 2014              	.LBE955:
 2015              		.loc 17 33 1 view .LVU473
 2016 00d6 BDE81040 		pop	{r4, lr}
 2017              		.cfi_restore 14
 2018              		.cfi_restore 4
 2019              		.cfi_def_cfa_offset 0
 2020              	.LBB956:
 2021              	.LBB951:
 2022              		.loc 2 206 27 view .LVU474
 2023 00da 17EE903A 		vmov	r3, s15	@ int
 2024 00de FFF7FEBF 		b	_ZN5daisy6LoggerILNS_17LoggerDestinationE1EE9PrintLineEPKcz
ARM GAS  /var/folders/hl/qgbwny5j0fd895c2c41bk3tw0000gp/T//ccS4M3jv.s 			page 68


 2025              	.LVL105:
 2026              	.L78:
 2027              		.loc 2 206 27 view .LVU475
 2028 00e2 00BFAFF3 		.align	3
 2028      0080
 2029              	.L77:
 2030 00e8 00000000 		.word	0
 2031 00ec 00408F40 		.word	1083129856
 2032 00f0 00000000 		.word	.LANCHOR21
 2033 00f4 00000000 		.word	.LC9
 2034 00f8 0000C842 		.word	1120403456
 2035 00fc 00000000 		.word	0
 2036 0100 14000000 		.word	.LC10
 2037 0104 24000000 		.word	.LC11
 2038 0108 34000000 		.word	.LC12
 2039              	.LBE951:
 2040              	.LBE956:
 2041              		.cfi_endproc
 2042              	.LFE4820:
 2044              		.section	.rodata._Z7logInitv.str1.4,"aMS",%progbits,1
 2045              		.align	2
 2046              	.LC13:
 2047 0000 48656C6C 		.ascii	"Hello World!\000"
 2047      6F20576F 
 2047      726C6421 
 2047      00
 2048              		.section	.text._Z7logInitv,"ax",%progbits
 2049              		.align	1
 2050              		.p2align 2,,3
 2051              		.global	_Z7logInitv
 2052              		.syntax unified
 2053              		.thumb
 2054              		.thumb_func
 2055              		.fpu fpv5-d16
 2057              	_Z7logInitv:
 2058              	.LFB4822:
  34:DrumTest.cpp  **** 
  35:DrumTest.cpp  **** void logInit(){
 2059              		.loc 17 35 15 is_stmt 1 view -0
 2060              		.cfi_startproc
 2061              		@ args = 0, pretend = 0, frame = 0
 2062              		@ frame_needed = 0, uses_anonymous_args = 0
  36:DrumTest.cpp  ****     hw.StartLog();
 2063              		.loc 17 36 5 view .LVU477
 2064              	.LVL106:
 2065              	.LBB957:
 2066              	.LBI957:
 207:../../libDaisy//src/daisy_patch_sm.h ****         }
 208:../../libDaisy//src/daisy_patch_sm.h **** 
 209:../../libDaisy//src/daisy_patch_sm.h ****         /** Start the logging session. Optionally wait for terminal connection before proceeding.
 210:../../libDaisy//src/daisy_patch_sm.h ****          */
 211:../../libDaisy//src/daisy_patch_sm.h ****         static void StartLog(bool wait_for_pc = false)
 2067              		.loc 2 211 21 view .LVU478
 2068              	.LBB958:
 212:../../libDaisy//src/daisy_patch_sm.h ****         {
 213:../../libDaisy//src/daisy_patch_sm.h ****             Log::StartLog(wait_for_pc);
 2069              		.loc 2 213 13 view .LVU479
ARM GAS  /var/folders/hl/qgbwny5j0fd895c2c41bk3tw0000gp/T//ccS4M3jv.s 			page 69


 2070              		.loc 2 213 26 is_stmt 0 view .LVU480
 2071 0000 0020     		movs	r0, #0
 2072              	.LBE958:
 2073              	.LBE957:
  35:DrumTest.cpp  ****     hw.StartLog();
 2074              		.loc 17 35 15 view .LVU481
 2075 0002 08B5     		push	{r3, lr}
 2076              		.cfi_def_cfa_offset 8
 2077              		.cfi_offset 3, -8
 2078              		.cfi_offset 14, -4
 2079              	.LBB960:
 2080              	.LBB959:
 2081              		.loc 2 213 26 view .LVU482
 2082 0004 FFF7FEFF 		bl	_ZN5daisy6LoggerILNS_17LoggerDestinationE1EE8StartLogEb
 2083              	.LVL107:
 2084              		.loc 2 213 26 view .LVU483
 2085              	.LBE959:
 2086              	.LBE960:
  37:DrumTest.cpp  ****     hw.PrintLine("Hello World!");
 2087              		.loc 17 37 5 is_stmt 1 view .LVU484
 2088              	.LBB961:
 2089              	.LBI961:
 204:../../libDaisy//src/daisy_patch_sm.h ****         {
 2090              		.loc 2 204 21 view .LVU485
 2091              	.LBB962:
 206:../../libDaisy//src/daisy_patch_sm.h ****         }
 2092              		.loc 2 206 27 is_stmt 0 view .LVU486
 2093 0008 0248     		ldr	r0, .L81
 2094              	.LBE962:
 2095              	.LBE961:
  38:DrumTest.cpp  **** }
 2096              		.loc 17 38 1 view .LVU487
 2097 000a BDE80840 		pop	{r3, lr}
 2098              		.cfi_restore 14
 2099              		.cfi_restore 3
 2100              		.cfi_def_cfa_offset 0
 2101              	.LBB964:
 2102              	.LBB963:
 206:../../libDaisy//src/daisy_patch_sm.h ****         }
 2103              		.loc 2 206 27 view .LVU488
 2104 000e FFF7FEBF 		b	_ZN5daisy6LoggerILNS_17LoggerDestinationE1EE9PrintLineEPKcz
 2105              	.LVL108:
 2106              	.L82:
 2107 0012 00BF     		.align	2
 2108              	.L81:
 2109 0014 00000000 		.word	.LC13
 2110              	.LBE963:
 2111              	.LBE964:
 2112              		.cfi_endproc
 2113              	.LFE4822:
 2115              		.section	.text.startup.main,"ax",%progbits
 2116              		.align	1
 2117              		.p2align 2,,3
 2118              		.global	main
 2119              		.syntax unified
 2120              		.thumb
 2121              		.thumb_func
ARM GAS  /var/folders/hl/qgbwny5j0fd895c2c41bk3tw0000gp/T//ccS4M3jv.s 			page 70


 2122              		.fpu fpv5-d16
 2124              	main:
 2125              	.LFB4824:
  39:DrumTest.cpp  **** 
  40:DrumTest.cpp  **** void AudioCallback(AudioHandle::InputBuffer in, AudioHandle::OutputBuffer out, size_t size)
  41:DrumTest.cpp  **** {
  42:DrumTest.cpp  **** 	loadMeter.OnBlockStart();
  43:DrumTest.cpp  **** 	hw.ProcessAllControls();
  44:DrumTest.cpp  **** 
  45:DrumTest.cpp  **** 	for (size_t i = 0; i < size; i++)
  46:DrumTest.cpp  **** 	{
  47:DrumTest.cpp  **** 		float sig;
  48:DrumTest.cpp  **** 
  49:DrumTest.cpp  **** 		drums.TriggerKick(euclid.GetTrig1());
  50:DrumTest.cpp  **** 		drums.TriggerSnare(euclid.GetTrig2());	
  51:DrumTest.cpp  **** 		drums.TriggerHat(euclid.GetTrig3());
  52:DrumTest.cpp  **** 		drums.TriggerHat2(euclid.GetTrig4());
  53:DrumTest.cpp  **** 
  54:DrumTest.cpp  **** 		sig = drums.Process();
  55:DrumTest.cpp  **** 
  56:DrumTest.cpp  **** 		OUT_L[i] = sig;
  57:DrumTest.cpp  **** 		OUT_R[i] = sig;
  58:DrumTest.cpp  **** 	}
  59:DrumTest.cpp  **** 	loadMeter.OnBlockEnd();
  60:DrumTest.cpp  **** }
  61:DrumTest.cpp  **** 
  62:DrumTest.cpp  **** int main(void)
  63:DrumTest.cpp  **** {
 2126              		.loc 17 63 1 is_stmt 1 view -0
 2127              		.cfi_startproc
 2128              		@ args = 0, pretend = 0, frame = 8
 2129              		@ frame_needed = 0, uses_anonymous_args = 0
  64:DrumTest.cpp  **** 	hw.Init();
 2130              		.loc 17 64 2 view .LVU490
  63:DrumTest.cpp  **** 	hw.Init();
 2131              		.loc 17 63 1 is_stmt 0 view .LVU491
 2132 0000 70B5     		push	{r4, r5, r6, lr}
 2133              		.cfi_def_cfa_offset 16
 2134              		.cfi_offset 4, -16
 2135              		.cfi_offset 5, -12
 2136              		.cfi_offset 6, -8
 2137              		.cfi_offset 14, -4
 2138              		.loc 17 64 9 view .LVU492
 2139 0002 4848     		ldr	r0, .L89
 2140 0004 484C     		ldr	r4, .L89+4
  63:DrumTest.cpp  **** 	hw.Init();
 2141              		.loc 17 63 1 view .LVU493
 2142 0006 2DED028B 		vpush.64	{d8}
 2143              		.cfi_def_cfa_offset 24
 2144              		.cfi_offset 80, -24
 2145              		.cfi_offset 81, -20
 2146 000a 82B0     		sub	sp, sp, #8
 2147              		.cfi_def_cfa_offset 32
 2148 000c 04F11405 		add	r5, r4, #20
 2149              		.loc 17 64 9 view .LVU494
 2150 0010 FFF7FEFF 		bl	_ZN5daisy8patch_sm12DaisyPatchSM4InitEv
 2151              	.LVL109:
ARM GAS  /var/folders/hl/qgbwny5j0fd895c2c41bk3tw0000gp/T//ccS4M3jv.s 			page 71


  65:DrumTest.cpp  **** 	hw.SetAudioBlockSize(4); // number of samples handled per callback
 2152              		.loc 17 65 2 is_stmt 1 view .LVU495
 2153              		.loc 17 65 22 is_stmt 0 view .LVU496
 2154 0014 0421     		movs	r1, #4
 2155 0016 4348     		ldr	r0, .L89
 2156 0018 FFF7FEFF 		bl	_ZN5daisy8patch_sm12DaisyPatchSM17SetAudioBlockSizeEj
 2157              	.LVL110:
  66:DrumTest.cpp  **** 	hw.SetAudioSampleRate(SaiHandle::Config::SampleRate::SAI_48KHZ);
 2158              		.loc 17 66 2 is_stmt 1 view .LVU497
 2159              		.loc 17 66 23 is_stmt 0 view .LVU498
 2160 001c 0321     		movs	r1, #3
 2161 001e 4148     		ldr	r0, .L89
 2162 0020 FFF7FEFF 		bl	_ZN5daisy8patch_sm12DaisyPatchSM18SetAudioSampleRateENS_9SaiHandle6Config10SampleRateE
 2163              	.LVL111:
  67:DrumTest.cpp  **** 
  68:DrumTest.cpp  **** 	loadMeter.Init(hw.AudioSampleRate(), hw.AudioBlockSize());
 2164              		.loc 17 68 2 is_stmt 1 view .LVU499
 2165              		.loc 17 68 16 is_stmt 0 view .LVU500
 2166 0024 3F48     		ldr	r0, .L89
 2167 0026 FFF7FEFF 		bl	_ZN5daisy8patch_sm12DaisyPatchSM15AudioSampleRateEv
 2168              	.LVL112:
 2169              		.loc 17 68 56 view .LVU501
 2170 002a 3E48     		ldr	r0, .L89
 2171              		.loc 17 68 16 view .LVU502
 2172 002c B0EE408A 		vmov.f32	s16, s0
 2173              		.loc 17 68 56 view .LVU503
 2174 0030 FFF7FEFF 		bl	_ZN5daisy8patch_sm12DaisyPatchSM14AudioBlockSizeEv
 2175              	.LVL113:
 2176              	.LBB992:
 2177              	.LBI992:
  29:../../libDaisy//src/util/CpuLoadMeter.h ****               int   blockSizeInSamples,
 2178              		.loc 18 29 10 is_stmt 1 view .LVU504
 2179              	.LBB993:
  33:../../libDaisy//src/util/CpuLoadMeter.h ****         const auto ticksPerS   = float(System::GetTickFreq());
 2180              		.loc 18 33 9 view .LVU505
  33:../../libDaisy//src/util/CpuLoadMeter.h ****         const auto ticksPerS   = float(System::GetTickFreq());
 2181              		.loc 18 33 34 is_stmt 0 view .LVU506
 2182 0034 07EE900A 		vmov	s15, r0	@ int
 2183 0038 F8EEE78A 		vcvt.f32.s32	s17, s15
  34:../../libDaisy//src/util/CpuLoadMeter.h ****         ticksPerBlockInv_      = 1.0f / (ticksPerS * secPerBlock);
 2184              		.loc 18 34 59 view .LVU507
 2185 003c FFF7FEFF 		bl	_ZN5daisy6System11GetTickFreqEv
 2186              	.LVL114:
  39:../../libDaisy//src/util/CpuLoadMeter.h ****             = smoothingFilterCutoffHz * 2.0f * 3.141592653f / blockRateInHz;
 2187              		.loc 18 39 20 view .LVU508
 2188 0040 9FED3A5A 		vldr.32	s10, .L89+8
  34:../../libDaisy//src/util/CpuLoadMeter.h ****         ticksPerBlockInv_      = 1.0f / (ticksPerS * secPerBlock);
 2189              		.loc 18 34 61 view .LVU509
 2190 0044 07EE900A 		vmov	s15, r0	@ int
  35:../../libDaisy//src/util/CpuLoadMeter.h **** 
 2191              		.loc 18 35 39 view .LVU510
 2192 0048 B7EE007A 		vmov.f32	s14, #1.0e+0
  35:../../libDaisy//src/util/CpuLoadMeter.h **** 
 2193              		.loc 18 35 32 view .LVU511
 2194 004c 384B     		ldr	r3, .L89+12
  38:../../libDaisy//src/util/CpuLoadMeter.h ****         const auto cutoffNormalized
 2195              		.loc 18 38 20 view .LVU512
ARM GAS  /var/folders/hl/qgbwny5j0fd895c2c41bk3tw0000gp/T//ccS4M3jv.s 			page 72


 2196 004e C8EE285A 		vdiv.f32	s11, s16, s17
 2197              	.LBB994:
 2198              	.LBB995:
  82:../../libDaisy//src/util/CpuLoadMeter.h **** 
  83:../../libDaisy//src/util/CpuLoadMeter.h ****     /** Resets the minimun, maximum and average load readings. */
  84:../../libDaisy//src/util/CpuLoadMeter.h ****     void Reset()
  85:../../libDaisy//src/util/CpuLoadMeter.h ****     {
  86:../../libDaisy//src/util/CpuLoadMeter.h ****         firstCycle_ = true;
  87:../../libDaisy//src/util/CpuLoadMeter.h ****         avg_ = max_ = min_ = NAN;
 2199              		.loc 18 87 28 view .LVU513
 2200 0052 384A     		ldr	r2, .L89+16
  86:../../libDaisy//src/util/CpuLoadMeter.h ****         avg_ = max_ = min_ = NAN;
 2201              		.loc 18 86 21 view .LVU514
 2202 0054 0121     		movs	r1, #1
 2203              		.loc 18 87 28 view .LVU515
 2204 0056 DA60     		str	r2, [r3, #12]	@ float
 2205              		.loc 18 87 21 view .LVU516
 2206 0058 1A61     		str	r2, [r3, #16]	@ float
  86:../../libDaisy//src/util/CpuLoadMeter.h ****         avg_ = max_ = min_ = NAN;
 2207              		.loc 18 86 21 view .LVU517
 2208 005a 1970     		strb	r1, [r3]
 2209              	.LBE995:
 2210              	.LBE994:
  33:../../libDaisy//src/util/CpuLoadMeter.h ****         const auto ticksPerS   = float(System::GetTickFreq());
 2211              		.loc 18 33 20 view .LVU518
 2212 005c 88EE886A 		vdiv.f32	s12, s17, s16
 2213              	.LVL115:
  34:../../libDaisy//src/util/CpuLoadMeter.h ****         ticksPerBlockInv_      = 1.0f / (ticksPerS * secPerBlock);
 2214              		.loc 18 34 9 is_stmt 1 view .LVU519
  35:../../libDaisy//src/util/CpuLoadMeter.h **** 
 2215              		.loc 18 35 9 view .LVU520
 2216              	.LBB998:
 2217              	.LBB996:
 2218              		.loc 18 87 14 is_stmt 0 view .LVU521
 2219 0060 5A61     		str	r2, [r3, #20]	@ float
 2220              	.LBE996:
 2221              	.LBE998:
  34:../../libDaisy//src/util/CpuLoadMeter.h ****         ticksPerBlockInv_      = 1.0f / (ticksPerS * secPerBlock);
 2222              		.loc 18 34 61 view .LVU522
 2223 0062 F8EE677A 		vcvt.f32.u32	s15, s15
 2224              	.LVL116:
  39:../../libDaisy//src/util/CpuLoadMeter.h ****             = smoothingFilterCutoffHz * 2.0f * 3.141592653f / blockRateInHz;
 2225              		.loc 18 39 20 view .LVU523
 2226 0066 C5EE256A 		vdiv.f32	s13, s10, s11
  35:../../libDaisy//src/util/CpuLoadMeter.h **** 
 2227              		.loc 18 35 52 view .LVU524
 2228 006a 67EE867A 		vmul.f32	s15, s15, s12
 2229              	.LVL117:
  35:../../libDaisy//src/util/CpuLoadMeter.h **** 
 2230              		.loc 18 35 39 view .LVU525
 2231 006e 87EE276A 		vdiv.f32	s12, s14, s15
 2232              	.LVL118:
  43:../../libDaisy//src/util/CpuLoadMeter.h **** 
 2233              		.loc 18 43 67 view .LVU526
 2234 0072 36EE877A 		vadd.f32	s14, s13, s14
  43:../../libDaisy//src/util/CpuLoadMeter.h **** 
 2235              		.loc 18 43 47 view .LVU527
ARM GAS  /var/folders/hl/qgbwny5j0fd895c2c41bk3tw0000gp/T//ccS4M3jv.s 			page 73


 2236 0076 C6EE877A 		vdiv.f32	s15, s13, s14
  35:../../libDaisy//src/util/CpuLoadMeter.h **** 
 2237              		.loc 18 35 32 view .LVU528
 2238 007a 83ED016A 		vstr.32	s12, [r3, #4]
  38:../../libDaisy//src/util/CpuLoadMeter.h ****         const auto cutoffNormalized
 2239              		.loc 18 38 9 is_stmt 1 view .LVU529
 2240              	.LVL119:
  39:../../libDaisy//src/util/CpuLoadMeter.h ****             = smoothingFilterCutoffHz * 2.0f * 3.141592653f / blockRateInHz;
 2241              		.loc 18 39 9 view .LVU530
  43:../../libDaisy//src/util/CpuLoadMeter.h **** 
 2242              		.loc 18 43 9 view .LVU531
  43:../../libDaisy//src/util/CpuLoadMeter.h **** 
 2243              		.loc 18 43 28 is_stmt 0 view .LVU532
 2244 007e C3ED067A 		vstr.32	s15, [r3, #24]
  45:../../libDaisy//src/util/CpuLoadMeter.h ****     }
 2245              		.loc 18 45 9 is_stmt 1 view .LVU533
 2246              	.LVL120:
 2247              	.LBB999:
 2248              	.LBI994:
  84:../../libDaisy//src/util/CpuLoadMeter.h ****     {
 2249              		.loc 18 84 10 view .LVU534
 2250              	.LBB997:
  86:../../libDaisy//src/util/CpuLoadMeter.h ****         avg_ = max_ = min_ = NAN;
 2251              		.loc 18 86 9 view .LVU535
 2252              		.loc 18 87 9 view .LVU536
 2253              		.loc 18 87 9 is_stmt 0 view .LVU537
 2254              	.LBE997:
 2255              	.LBE999:
 2256              	.LBE993:
 2257              	.LBE992:
  69:DrumTest.cpp  ****     logInit();
 2258              		.loc 17 69 5 is_stmt 1 view .LVU538
 2259              		.loc 17 69 12 is_stmt 0 view .LVU539
 2260 0082 FFF7FEFF 		bl	_Z7logInitv
 2261              	.LVL121:
  70:DrumTest.cpp  **** 
  71:DrumTest.cpp  **** 	float sample_rate = hw.AudioSampleRate();
 2262              		.loc 17 71 2 is_stmt 1 view .LVU540
 2263              		.loc 17 71 40 is_stmt 0 view .LVU541
 2264 0086 2748     		ldr	r0, .L89
 2265 0088 FFF7FEFF 		bl	_ZN5daisy8patch_sm12DaisyPatchSM15AudioSampleRateEv
 2266              	.LVL122:
 2267 008c 8DED010A 		vstr.32	s0, [sp, #4]	@ int
 2268              	.LVL123:
  72:DrumTest.cpp  **** 	InitBed();
 2269              		.loc 17 72 2 is_stmt 1 view .LVU542
 2270              		.loc 17 72 9 is_stmt 0 view .LVU543
 2271 0090 FFF7FEFF 		bl	_ZN5daisy8patch_sm7InitBedEv
 2272              	.LVL124:
  73:DrumTest.cpp  **** 	drums.Init(sample_rate);
 2273              		.loc 17 73 2 is_stmt 1 view .LVU544
 2274              		.loc 17 73 12 is_stmt 0 view .LVU545
 2275 0094 9DED010A 		vldr.32	s0, [sp, #4]	@ int
 2276 0098 2748     		ldr	r0, .L89+20
 2277 009a FFF7FEFF 		bl	_ZN7drumSet4InitEf
 2278              	.LVL125:
  74:DrumTest.cpp  **** 	euclid.randSetup();
ARM GAS  /var/folders/hl/qgbwny5j0fd895c2c41bk3tw0000gp/T//ccS4M3jv.s 			page 74


 2279              		.loc 17 74 2 is_stmt 1 view .LVU546
 2280              	.LBB1000:
 2281              	.LBI1000:
 104:engine.h      **** {
 2282              		.loc 15 104 6 view .LVU547
 2283              	.LBB1001:
 106:engine.h      ****         {
 2284              		.loc 15 106 27 view .LVU548
 2285              	.L84:
 108:engine.h      ****             offset[i] = randomGen(0, 16);
 2286              		.loc 15 108 13 view .LVU549
 2287              	.LBB1002:
 2288              	.LBI1002:
  69:engine.h      ****     {
 2289              		.loc 15 69 9 view .LVU550
 2290              	.LBB1003:
  71:engine.h      ****         return randNum;
 2291              		.loc 15 71 9 view .LVU551
  71:engine.h      ****         return randNum;
 2292              		.loc 15 71 29 is_stmt 0 view .LVU552
 2293 009e 274E     		ldr	r6, .L89+24
  71:engine.h      ****         return randNum;
 2294              		.loc 15 71 27 view .LVU553
 2295 00a0 FFF7FEFF 		bl	rand
 2296              	.LVL126:
  72:engine.h      ****     }
 2297              		.loc 15 72 9 is_stmt 1 view .LVU554
  71:engine.h      ****         return randNum;
 2298              		.loc 15 71 29 is_stmt 0 view .LVU555
 2299 00a4 86FB0032 		smull	r3, r2, r6, r0
 2300 00a8 C317     		asrs	r3, r0, #31
 2301 00aa C3EBE203 		rsb	r3, r3, r2, asr #3
 2302 00ae 03EB0313 		add	r3, r3, r3, lsl #4
 2303 00b2 C01A     		subs	r0, r0, r3
 2304              	.LBE1003:
 2305              	.LBE1002:
 108:engine.h      ****             offset[i] = randomGen(0, 16);
 2306              		.loc 15 108 21 view .LVU556
 2307 00b4 44F8040B 		str	r0, [r4], #4
 109:engine.h      ****             limit[i] = randomGen(0, 16);
 2308              		.loc 15 109 13 is_stmt 1 view .LVU557
 2309              	.LVL127:
 2310              	.LBB1004:
 2311              	.LBI1004:
  69:engine.h      ****     {
 2312              		.loc 15 69 9 view .LVU558
 2313              	.LBB1005:
  71:engine.h      ****         return randNum;
 2314              		.loc 15 71 9 view .LVU559
  71:engine.h      ****         return randNum;
 2315              		.loc 15 71 27 is_stmt 0 view .LVU560
 2316 00b8 FFF7FEFF 		bl	rand
 2317              	.LVL128:
  72:engine.h      ****     }
 2318              		.loc 15 72 9 is_stmt 1 view .LVU561
  71:engine.h      ****         return randNum;
 2319              		.loc 15 71 29 is_stmt 0 view .LVU562
ARM GAS  /var/folders/hl/qgbwny5j0fd895c2c41bk3tw0000gp/T//ccS4M3jv.s 			page 75


 2320 00bc 86FB0032 		smull	r3, r2, r6, r0
 2321 00c0 C317     		asrs	r3, r0, #31
 2322 00c2 C3EBE203 		rsb	r3, r3, r2, asr #3
 2323 00c6 03EB0313 		add	r3, r3, r3, lsl #4
 2324 00ca C01A     		subs	r0, r0, r3
 2325              	.LBE1005:
 2326              	.LBE1004:
 109:engine.h      ****             limit[i] = randomGen(0, 16);
 2327              		.loc 15 109 23 view .LVU563
 2328 00cc 6061     		str	r0, [r4, #20]
 110:engine.h      ****         }
 2329              		.loc 15 110 13 is_stmt 1 view .LVU564
 2330              	.LVL129:
 2331              	.LBB1006:
 2332              	.LBI1006:
  69:engine.h      ****     {
 2333              		.loc 15 69 9 view .LVU565
 2334              	.LBB1007:
  71:engine.h      ****         return randNum;
 2335              		.loc 15 71 9 view .LVU566
  71:engine.h      ****         return randNum;
 2336              		.loc 15 71 27 is_stmt 0 view .LVU567
 2337 00ce FFF7FEFF 		bl	rand
 2338              	.LVL130:
  72:engine.h      ****     }
 2339              		.loc 15 72 9 is_stmt 1 view .LVU568
  71:engine.h      ****         return randNum;
 2340              		.loc 15 71 29 is_stmt 0 view .LVU569
 2341 00d2 86FB0036 		smull	r3, r6, r6, r0
 2342 00d6 C317     		asrs	r3, r0, #31
 2343              	.LBE1007:
 2344              	.LBE1006:
 106:engine.h      ****         {
 2345              		.loc 15 106 27 view .LVU570
 2346 00d8 AC42     		cmp	r4, r5
 2347              	.LBB1009:
 2348              	.LBB1008:
  71:engine.h      ****         return randNum;
 2349              		.loc 15 71 29 view .LVU571
 2350 00da C3EBE603 		rsb	r3, r3, r6, asr #3
 2351 00de 03EB0313 		add	r3, r3, r3, lsl #4
 2352 00e2 A0EB0300 		sub	r0, r0, r3
 2353              	.LBE1008:
 2354              	.LBE1009:
 110:engine.h      ****         }
 2355              		.loc 15 110 22 view .LVU572
 2356 00e6 6063     		str	r0, [r4, #52]
 106:engine.h      ****         {
 2357              		.loc 15 106 6 is_stmt 1 view .LVU573
 106:engine.h      ****         {
 2358              		.loc 15 106 27 view .LVU574
 2359 00e8 D9D1     		bne	.L84
 2360              	.LVL131:
 106:engine.h      ****         {
 2361              		.loc 15 106 27 is_stmt 0 view .LVU575
 2362              	.LBE1001:
 2363              	.LBE1000:
ARM GAS  /var/folders/hl/qgbwny5j0fd895c2c41bk3tw0000gp/T//ccS4M3jv.s 			page 76


  75:DrumTest.cpp  **** 
  76:DrumTest.cpp  **** 	hw.StartAudio(AudioCallback);
 2364              		.loc 17 76 2 is_stmt 1 view .LVU576
 2365              		.loc 17 76 15 is_stmt 0 view .LVU577
 2366 00ea 1549     		ldr	r1, .L89+28
 2367 00ec 0D48     		ldr	r0, .L89
 2368 00ee 154D     		ldr	r5, .L89+32
 2369 00f0 154C     		ldr	r4, .L89+36
 2370 00f2 114E     		ldr	r6, .L89+20
 2371 00f4 FFF7FEFF 		bl	_ZN5daisy8patch_sm12DaisyPatchSM10StartAudioEPFvPKPKfPPfjE
 2372              	.LVL132:
 2373 00f8 01E0     		b	.L86
 2374              	.L85:
  77:DrumTest.cpp  **** 	while(1) 
  78:DrumTest.cpp  **** 	{
  79:DrumTest.cpp  **** 		syslog();
  80:DrumTest.cpp  **** 		modManager();
  81:DrumTest.cpp  **** 		euclid.run();
 2375              		.loc 17 81 13 view .LVU578
 2376 00fa FFF7FEFF 		bl	_ZN6engine3runEv
 2377              	.LVL133:
  77:DrumTest.cpp  **** 	while(1) 
 2378              		.loc 17 77 2 is_stmt 1 view .LVU579
 2379              	.L86:
  77:DrumTest.cpp  **** 	while(1) 
 2380              		.loc 17 77 2 discriminator 1 view .LVU580
  79:DrumTest.cpp  **** 		modManager();
 2381              		.loc 17 79 3 discriminator 1 view .LVU581
  79:DrumTest.cpp  **** 		modManager();
 2382              		.loc 17 79 9 is_stmt 0 discriminator 1 view .LVU582
 2383 00fe FFF7FEFF 		bl	_Z6syslogv
 2384              	.LVL134:
  80:DrumTest.cpp  **** 		euclid.run();
 2385              		.loc 17 80 3 is_stmt 1 discriminator 1 view .LVU583
 2386              	.LBB1010:
 2387              	.LBI1010:
  82:DrumTest.cpp  **** 	}
  83:DrumTest.cpp  **** }
  84:DrumTest.cpp  **** 
  85:DrumTest.cpp  **** void modManager() 
 2388              		.loc 17 85 6 discriminator 1 view .LVU584
 2389              	.LBB1011:
  86:DrumTest.cpp  **** {
  87:DrumTest.cpp  **** 	bool modmanager = false;
 2390              		.loc 17 87 2 discriminator 1 view .LVU585
  88:DrumTest.cpp  **** 	b1.Debounce();
 2391              		.loc 17 88 2 discriminator 1 view .LVU586
 2392              		.loc 17 88 13 is_stmt 0 discriminator 1 view .LVU587
 2393 0102 1048     		ldr	r0, .L89+32
 2394 0104 FFF7FEFF 		bl	_ZN5daisy6Switch8DebounceEv
 2395              	.LVL135:
  89:DrumTest.cpp  **** 	b2.Debounce();
 2396              		.loc 17 89 2 is_stmt 1 discriminator 1 view .LVU588
 2397              		.loc 17 89 13 is_stmt 0 discriminator 1 view .LVU589
 2398 0108 0F48     		ldr	r0, .L89+36
 2399 010a FFF7FEFF 		bl	_ZN5daisy6Switch8DebounceEv
 2400              	.LVL136:
ARM GAS  /var/folders/hl/qgbwny5j0fd895c2c41bk3tw0000gp/T//ccS4M3jv.s 			page 77


  90:DrumTest.cpp  **** 
  91:DrumTest.cpp  **** 	if(b1.RisingEdge())
 2401              		.loc 17 91 2 is_stmt 1 discriminator 1 view .LVU590
 2402              		.loc 17 91 2 is_stmt 0 discriminator 1 view .LVU591
 2403              	.LBE1011:
 2404              	.LBE1010:
  43:../../libDaisy//src/hid/switch.h **** 
  44:../../libDaisy//src/hid/switch.h ****     /** 
  45:../../libDaisy//src/hid/switch.h ****     Initializes the switch object with a given port/pin combo.
  46:../../libDaisy//src/hid/switch.h ****     \param pin port/pin object to tell the switch which hardware pin to use.
  47:../../libDaisy//src/hid/switch.h ****     \param update_rate Does nothing. Backwards compatibility until next breaking update.
  48:../../libDaisy//src/hid/switch.h ****     \param t switch type -- Default: TYPE_MOMENTARY
  49:../../libDaisy//src/hid/switch.h ****     \param pol switch polarity -- Default: POLARITY_INVERTED
  50:../../libDaisy//src/hid/switch.h ****     \param pu switch pull up/down -- Default: PULL_UP
  51:../../libDaisy//src/hid/switch.h ****     */
  52:../../libDaisy//src/hid/switch.h ****     void
  53:../../libDaisy//src/hid/switch.h ****     Init(dsy_gpio_pin pin, float update_rate, Type t, Polarity pol, Pull pu);
  54:../../libDaisy//src/hid/switch.h **** 
  55:../../libDaisy//src/hid/switch.h ****     /**
  56:../../libDaisy//src/hid/switch.h ****        Simplified Init.
  57:../../libDaisy//src/hid/switch.h ****        \param pin port/pin object to tell the switch which hardware pin to use.
  58:../../libDaisy//src/hid/switch.h ****        \param update_rate Left for backwards compatibility until next breaking change.
  59:../../libDaisy//src/hid/switch.h ****     */
  60:../../libDaisy//src/hid/switch.h ****     void Init(dsy_gpio_pin pin, float update_rate = 0.f);
  61:../../libDaisy//src/hid/switch.h **** 
  62:../../libDaisy//src/hid/switch.h ****     /** 
  63:../../libDaisy//src/hid/switch.h ****     Called at update_rate to debounce and handle timing for the switch.
  64:../../libDaisy//src/hid/switch.h ****     In order for events not to be missed, its important that the Edge/Pressed checks
  65:../../libDaisy//src/hid/switch.h ****     be made at the same rate as the debounce function is being called.
  66:../../libDaisy//src/hid/switch.h ****     */
  67:../../libDaisy//src/hid/switch.h ****     void Debounce();
  68:../../libDaisy//src/hid/switch.h **** 
  69:../../libDaisy//src/hid/switch.h ****     /** \return true if a button was just pressed. */
  70:../../libDaisy//src/hid/switch.h ****     inline bool RisingEdge() const { return updated_ ? state_ == 0x7f : false; }
 2405              		.loc 1 70 38 is_stmt 1 discriminator 1 view .LVU592
 2406              	.LBB1027:
 2407              	.LBB1024:
  92:DrumTest.cpp  **** 	{
  93:DrumTest.cpp  **** 		modmanager = !modmanager;	
  94:DrumTest.cpp  **** 	}
  95:DrumTest.cpp  **** 
  96:DrumTest.cpp  **** 	if(modmanager)
 2408              		.loc 17 96 2 discriminator 1 view .LVU593
  97:DrumTest.cpp  **** 	{
  98:DrumTest.cpp  **** 		//you're now in mod manager
  99:DrumTest.cpp  **** 	}
 100:DrumTest.cpp  **** 
 101:DrumTest.cpp  **** 	if(b1.Pressed() && b2.Pressed())
 2409              		.loc 17 101 2 discriminator 1 view .LVU594
 2410              	.LBB1012:
 2411              	.LBI1012:
  71:../../libDaisy//src/hid/switch.h **** 
  72:../../libDaisy//src/hid/switch.h ****     /** \return true if the button was just released */
  73:../../libDaisy//src/hid/switch.h ****     inline bool FallingEdge() const
  74:../../libDaisy//src/hid/switch.h ****     {
  75:../../libDaisy//src/hid/switch.h ****         return updated_ ? state_ == 0x80 : false;
  76:../../libDaisy//src/hid/switch.h ****     }
ARM GAS  /var/folders/hl/qgbwny5j0fd895c2c41bk3tw0000gp/T//ccS4M3jv.s 			page 78


  77:../../libDaisy//src/hid/switch.h **** 
  78:../../libDaisy//src/hid/switch.h ****     /** \return true if the button is held down (or if the toggle is on) */
  79:../../libDaisy//src/hid/switch.h ****     inline bool Pressed() const { return state_ == 0xff; }
 2412              		.loc 1 79 17 discriminator 1 view .LVU595
 2413              	.LBB1013:
 2414              		.loc 1 79 35 discriminator 1 view .LVU596
 2415              		.loc 1 79 35 is_stmt 0 discriminator 1 view .LVU597
 2416              	.LBE1013:
 2417              	.LBE1012:
 2418              	.LBB1014:
 2419              	.LBI1014:
  85:DrumTest.cpp  **** {
 2420              		.loc 17 85 6 is_stmt 1 discriminator 1 view .LVU598
 2421              	.LBB1015:
 2422              	.LBB1016:
 2423              	.LBI1016:
 2424              		.loc 1 79 17 discriminator 1 view .LVU599
 2425              	.LBB1017:
 2426              		.loc 1 79 35 discriminator 1 view .LVU600
 2427              		.loc 1 79 35 is_stmt 0 discriminator 1 view .LVU601
 2428              	.LBE1017:
 2429              	.LBE1016:
 2430              	.LBE1015:
 2431              	.LBE1014:
 2432              	.LBE1024:
 2433              	.LBE1027:
  81:DrumTest.cpp  **** 	}
 2434              		.loc 17 81 3 is_stmt 1 discriminator 1 view .LVU602
 2435              	.LBB1028:
 2436              	.LBB1025:
 2437              	.LBB1022:
 2438              	.LBB1020:
 2439              		.loc 17 101 18 is_stmt 0 discriminator 1 view .LVU603
 2440 010e AB7A     		ldrb	r3, [r5, #10]	@ zero_extendqisi2
 2441 0110 A27A     		ldrb	r2, [r4, #10]	@ zero_extendqisi2
 2442              	.LBE1020:
 2443              	.LBE1022:
 2444              	.LBE1025:
 2445              	.LBE1028:
  81:DrumTest.cpp  **** 	}
 2446              		.loc 17 81 13 discriminator 1 view .LVU604
 2447 0112 0E48     		ldr	r0, .L89+40
 2448              	.LBB1029:
 2449              	.LBB1026:
 2450              	.LBB1023:
 2451              	.LBB1021:
 2452              		.loc 17 101 18 discriminator 1 view .LVU605
 2453 0114 1340     		ands	r3, r3, r2
 2454 0116 FF2B     		cmp	r3, #255
 2455 0118 EFD1     		bne	.L85
 102:DrumTest.cpp  **** 	{
 103:DrumTest.cpp  **** 		drums.updateAmp(0.5f);
 2456              		.loc 17 103 3 is_stmt 1 view .LVU606
 2457              	.LVL137:
 2458              	.LBB1018:
 2459              	.LBI1018:
  23:drum.h        **** 
ARM GAS  /var/folders/hl/qgbwny5j0fd895c2c41bk3tw0000gp/T//ccS4M3jv.s 			page 79


  24:drum.h        **** void updateAmp(int amp) 
 2460              		.loc 9 24 6 view .LVU607
 2461              	.LBB1019:
  25:drum.h        **** {
  26:drum.h        ****     amplitude_ = amp;
 2462              		.loc 9 26 5 view .LVU608
 2463              		.loc 9 26 16 is_stmt 0 view .LVU609
 2464 011a 0023     		movs	r3, #0
 2465 011c C6F8B432 		str	r3, [r6, #692]	@ float
  27:drum.h        **** }
 2466              		.loc 9 27 1 view .LVU610
 2467 0120 EBE7     		b	.L85
 2468              	.L90:
 2469 0122 00BF     		.align	2
 2470              	.L89:
 2471 0124 00000000 		.word	.LANCHOR19
 2472 0128 0C000000 		.word	.LANCHOR23+12
 2473 012c DB0FC940 		.word	1086918619
 2474 0130 00000000 		.word	.LANCHOR21
 2475 0134 0000C07F 		.word	2143289344
 2476 0138 00000000 		.word	.LANCHOR22
 2477 013c 79787878 		.word	2021161081
 2478 0140 00000000 		.word	_Z13AudioCallbackPKPKfPPfj
 2479 0144 00000000 		.word	.LANCHOR16
 2480 0148 00000000 		.word	.LANCHOR17
 2481 014c 00000000 		.word	.LANCHOR23
 2482              	.LBE1019:
 2483              	.LBE1018:
 2484              	.LBE1021:
 2485              	.LBE1023:
 2486              	.LBE1026:
 2487              	.LBE1029:
 2488              		.cfi_endproc
 2489              	.LFE4824:
 2491              		.section	.text._Z10modManagerv,"ax",%progbits
 2492              		.align	1
 2493              		.p2align 2,,3
 2494              		.global	_Z10modManagerv
 2495              		.syntax unified
 2496              		.thumb
 2497              		.thumb_func
 2498              		.fpu fpv5-d16
 2500              	_Z10modManagerv:
 2501              	.LFB4825:
  86:DrumTest.cpp  **** 	bool modmanager = false;
 2502              		.loc 17 86 1 is_stmt 1 view -0
 2503              		.cfi_startproc
 2504              		@ args = 0, pretend = 0, frame = 0
 2505              		@ frame_needed = 0, uses_anonymous_args = 0
  87:DrumTest.cpp  **** 	b1.Debounce();
 2506              		.loc 17 87 2 view .LVU612
 2507              	.LVL138:
  88:DrumTest.cpp  **** 	b2.Debounce();
 2508              		.loc 17 88 2 view .LVU613
  86:DrumTest.cpp  **** 	bool modmanager = false;
 2509              		.loc 17 86 1 is_stmt 0 view .LVU614
 2510 0000 38B5     		push	{r3, r4, r5, lr}
ARM GAS  /var/folders/hl/qgbwny5j0fd895c2c41bk3tw0000gp/T//ccS4M3jv.s 			page 80


 2511              		.cfi_def_cfa_offset 16
 2512              		.cfi_offset 3, -16
 2513              		.cfi_offset 4, -12
 2514              		.cfi_offset 5, -8
 2515              		.cfi_offset 14, -4
  88:DrumTest.cpp  **** 	b2.Debounce();
 2516              		.loc 17 88 13 view .LVU615
 2517 0002 094D     		ldr	r5, .L95
  89:DrumTest.cpp  **** 
 2518              		.loc 17 89 13 view .LVU616
 2519 0004 094C     		ldr	r4, .L95+4
  88:DrumTest.cpp  **** 	b2.Debounce();
 2520              		.loc 17 88 13 view .LVU617
 2521 0006 2846     		mov	r0, r5
 2522 0008 FFF7FEFF 		bl	_ZN5daisy6Switch8DebounceEv
 2523              	.LVL139:
  89:DrumTest.cpp  **** 
 2524              		.loc 17 89 2 is_stmt 1 view .LVU618
  89:DrumTest.cpp  **** 
 2525              		.loc 17 89 13 is_stmt 0 view .LVU619
 2526 000c 2046     		mov	r0, r4
 2527 000e FFF7FEFF 		bl	_ZN5daisy6Switch8DebounceEv
 2528              	.LVL140:
  91:DrumTest.cpp  **** 	{
 2529              		.loc 17 91 2 is_stmt 1 view .LVU620
  70:../../libDaisy//src/hid/switch.h **** 
 2530              		.loc 1 70 38 view .LVU621
  96:DrumTest.cpp  **** 	{
 2531              		.loc 17 96 2 view .LVU622
 101:DrumTest.cpp  **** 	{
 2532              		.loc 17 101 2 view .LVU623
 2533              	.LBB1042:
 2534              	.LBI1042:
 2535              		.loc 1 79 17 view .LVU624
 2536              	.LBB1043:
 2537              		.loc 1 79 35 view .LVU625
 2538              		.loc 1 79 35 is_stmt 0 view .LVU626
 2539              	.LBE1043:
 2540              	.LBE1042:
 2541              	.LBB1044:
 2542              	.LBI1044:
  85:DrumTest.cpp  **** {
 2543              		.loc 17 85 6 is_stmt 1 view .LVU627
 2544              	.LBB1045:
 2545              	.LBB1046:
 2546              	.LBI1046:
 2547              		.loc 1 79 17 view .LVU628
 2548              	.LBB1047:
 2549              		.loc 1 79 35 view .LVU629
 2550              		.loc 1 79 35 is_stmt 0 view .LVU630
 2551              	.LBE1047:
 2552              	.LBE1046:
 101:DrumTest.cpp  **** 	{
 2553              		.loc 17 101 18 view .LVU631
 2554 0012 AB7A     		ldrb	r3, [r5, #10]	@ zero_extendqisi2
 2555 0014 A27A     		ldrb	r2, [r4, #10]	@ zero_extendqisi2
 2556 0016 1340     		ands	r3, r3, r2
ARM GAS  /var/folders/hl/qgbwny5j0fd895c2c41bk3tw0000gp/T//ccS4M3jv.s 			page 81


 2557 0018 FF2B     		cmp	r3, #255
 2558 001a 00D0     		beq	.L94
 2559              	.LBE1045:
 2560              	.LBE1044:
 104:DrumTest.cpp  **** 	}
 105:DrumTest.cpp  **** 
 106:DrumTest.cpp  **** }
 2561              		.loc 17 106 1 view .LVU632
 2562 001c 38BD     		pop	{r3, r4, r5, pc}
 2563              	.L94:
 2564              	.LBB1051:
 2565              	.LBB1050:
 103:DrumTest.cpp  **** 	}
 2566              		.loc 17 103 3 is_stmt 1 view .LVU633
 2567              	.LVL141:
 2568              	.LBB1048:
 2569              	.LBI1048:
  24:drum.h        **** {
 2570              		.loc 9 24 6 view .LVU634
 2571              	.LBB1049:
  26:drum.h        **** }
 2572              		.loc 9 26 5 view .LVU635
  26:drum.h        **** }
 2573              		.loc 9 26 16 is_stmt 0 view .LVU636
 2574 001e 044B     		ldr	r3, .L95+8
 2575 0020 0022     		movs	r2, #0
 2576 0022 C3F8B422 		str	r2, [r3, #692]	@ float
 2577              	.LVL142:
  26:drum.h        **** }
 2578              		.loc 9 26 16 view .LVU637
 2579              	.LBE1049:
 2580              	.LBE1048:
 2581              	.LBE1050:
 2582              	.LBE1051:
 2583              		.loc 17 106 1 view .LVU638
 2584 0026 38BD     		pop	{r3, r4, r5, pc}
 2585              	.L96:
 2586              		.align	2
 2587              	.L95:
 2588 0028 00000000 		.word	.LANCHOR16
 2589 002c 00000000 		.word	.LANCHOR17
 2590 0030 00000000 		.word	.LANCHOR22
 2591              		.cfi_endproc
 2592              	.LFE4825:
 2594              		.section	.text._ZN7daisysp5HiHatINS_11SquareNoiseENS_9LinearVCAELb1EE7ProcessEb,"axG",%progbits,_Z
 2595              		.align	1
 2596              		.p2align 2,,3
 2597              		.weak	_ZN7daisysp5HiHatINS_11SquareNoiseENS_9LinearVCAELb1EE7ProcessEb
 2598              		.syntax unified
 2599              		.thumb
 2600              		.thumb_func
 2601              		.fpu fpv5-d16
 2603              	_ZN7daisysp5HiHatINS_11SquareNoiseENS_9LinearVCAELb1EE7ProcessEb:
 2604              	.LVL143:
 2605              	.LFB5134:
 144:../../DaisySP//Source/Drums/hihat.h ****     {
 2606              		.loc 10 144 11 is_stmt 1 view -0
ARM GAS  /var/folders/hl/qgbwny5j0fd895c2c41bk3tw0000gp/T//ccS4M3jv.s 			page 82


 2607              		.cfi_startproc
 2608              		@ args = 0, pretend = 0, frame = 8
 2609              		@ frame_needed = 0, uses_anonymous_args = 0
 147:../../DaisySP//Source/Drums/hihat.h ****         const float cut_decay
 2610              		.loc 10 147 47 is_stmt 0 view .LVU640
 2611 0000 DFED827A 		vldr.32	s15, .L112
 2612              	.LBB1052:
 2613              	.LBB1053:
 246:../../DaisySP//Source/Drums/hihat.h ****     }
 247:../../DaisySP//Source/Drums/hihat.h **** 
 248:../../DaisySP//Source/Drums/hihat.h **** 
 249:../../DaisySP//Source/Drums/hihat.h ****   private:
 250:../../DaisySP//Source/Drums/hihat.h ****     float sample_rate_;
 251:../../DaisySP//Source/Drums/hihat.h **** 
 252:../../DaisySP//Source/Drums/hihat.h ****     float accent_, f0_, tone_, decay_, noisiness_;
 253:../../DaisySP//Source/Drums/hihat.h ****     bool  sustain_;
 254:../../DaisySP//Source/Drums/hihat.h ****     bool  trig_;
 255:../../DaisySP//Source/Drums/hihat.h **** 
 256:../../DaisySP//Source/Drums/hihat.h ****     float SemitonesToRatio(float in) { return powf(2.f, in * kOneTwelfth); }
 2614              		.loc 10 256 51 view .LVU641
 2615 0004 B0EE000A 		vmov.f32	s0, #2.0e+0
 2616              	.LBE1053:
 2617              	.LBE1052:
