ARM GAS  /var/folders/hl/qgbwny5j0fd895c2c41bk3tw0000gp/T//cchkzwyh.s 			page 1


   1              		.cpu cortex-m7
   2              		.eabi_attribute 28, 1
   3              		.eabi_attribute 20, 1
   4              		.eabi_attribute 21, 1
   5              		.eabi_attribute 23, 3
   6              		.eabi_attribute 24, 1
   7              		.eabi_attribute 25, 1
   8              		.eabi_attribute 26, 1
   9              		.eabi_attribute 30, 2
  10              		.eabi_attribute 34, 1
  11              		.eabi_attribute 18, 4
  12              		.file	"TFT_TEST.cpp"
  13              		.text
  14              	.Ltext0:
  15              		.cfi_sections	.debug_frame
  16              		.section	.text._ZN5daisy8patch_sm12DaisyPatchSMD2Ev,"axG",%progbits,_ZN5daisy8patch_sm12DaisyPatch
  17              		.align	1
  18              		.p2align 2,,3
  19              		.weak	_ZN5daisy8patch_sm12DaisyPatchSMD2Ev
  20              		.arch armv7e-m
  21              		.syntax unified
  22              		.thumb
  23              		.thumb_func
  24              		.fpu fpv5-d16
  26              	_ZN5daisy8patch_sm12DaisyPatchSMD2Ev:
  27              	.LVL0:
  28              	.LFB2529:
  29              		.file 1 "../../libDaisy//src/daisy_patch_sm.h"
   1:../../libDaisy//src/daisy_patch_sm.h **** #pragma once
   2:../../libDaisy//src/daisy_patch_sm.h **** 
   3:../../libDaisy//src/daisy_patch_sm.h **** #include "daisy.h"
   4:../../libDaisy//src/daisy_patch_sm.h **** 
   5:../../libDaisy//src/daisy_patch_sm.h **** namespace daisy
   6:../../libDaisy//src/daisy_patch_sm.h **** {
   7:../../libDaisy//src/daisy_patch_sm.h **** namespace patch_sm
   8:../../libDaisy//src/daisy_patch_sm.h **** {
   9:../../libDaisy//src/daisy_patch_sm.h ****     /** Accessors for the Analog Controls. 
  10:../../libDaisy//src/daisy_patch_sm.h ****      *  These cover the 8x Bipolar CV inputs
  11:../../libDaisy//src/daisy_patch_sm.h ****      *  as well as the 4x 0-3V3 ADC inputs on
  12:../../libDaisy//src/daisy_patch_sm.h ****      *  the hardware 
  13:../../libDaisy//src/daisy_patch_sm.h ****      * 
  14:../../libDaisy//src/daisy_patch_sm.h ****      *  When reading a value with DaisyPatchSM::GetAdcValue()
  15:../../libDaisy//src/daisy_patch_sm.h ****      * 
  16:../../libDaisy//src/daisy_patch_sm.h ****      *  patch.GetAdcValue(patch_sm::CV_1);
  17:../../libDaisy//src/daisy_patch_sm.h ****      */
  18:../../libDaisy//src/daisy_patch_sm.h ****     enum
  19:../../libDaisy//src/daisy_patch_sm.h ****     {
  20:../../libDaisy//src/daisy_patch_sm.h ****         CV_1 = 0,
  21:../../libDaisy//src/daisy_patch_sm.h ****         CV_2,
  22:../../libDaisy//src/daisy_patch_sm.h ****         CV_3,
  23:../../libDaisy//src/daisy_patch_sm.h ****         CV_4,
  24:../../libDaisy//src/daisy_patch_sm.h ****         CV_5,
  25:../../libDaisy//src/daisy_patch_sm.h ****         CV_6,
  26:../../libDaisy//src/daisy_patch_sm.h ****         CV_7,
  27:../../libDaisy//src/daisy_patch_sm.h ****         CV_8,
  28:../../libDaisy//src/daisy_patch_sm.h ****         ADC_9,
  29:../../libDaisy//src/daisy_patch_sm.h ****         ADC_10,
ARM GAS  /var/folders/hl/qgbwny5j0fd895c2c41bk3tw0000gp/T//cchkzwyh.s 			page 2


  30:../../libDaisy//src/daisy_patch_sm.h ****         ADC_11,
  31:../../libDaisy//src/daisy_patch_sm.h ****         ADC_12,
  32:../../libDaisy//src/daisy_patch_sm.h ****         ADC_LAST,
  33:../../libDaisy//src/daisy_patch_sm.h ****     };
  34:../../libDaisy//src/daisy_patch_sm.h **** 
  35:../../libDaisy//src/daisy_patch_sm.h ****     /** Enum for addressing the CV Outputs via the WriteCvOut function. */
  36:../../libDaisy//src/daisy_patch_sm.h ****     enum
  37:../../libDaisy//src/daisy_patch_sm.h ****     {
  38:../../libDaisy//src/daisy_patch_sm.h ****         CV_OUT_BOTH = 0,
  39:../../libDaisy//src/daisy_patch_sm.h ****         CV_OUT_1,
  40:../../libDaisy//src/daisy_patch_sm.h ****         CV_OUT_2,
  41:../../libDaisy//src/daisy_patch_sm.h ****     };
  42:../../libDaisy//src/daisy_patch_sm.h **** 
  43:../../libDaisy//src/daisy_patch_sm.h **** 
  44:../../libDaisy//src/daisy_patch_sm.h ****     /** @brief Board support file for DaisyPatchSM hardware
  45:../../libDaisy//src/daisy_patch_sm.h ****      *  @author shensley
  46:../../libDaisy//src/daisy_patch_sm.h ****      *  @ingroup boards
  47:../../libDaisy//src/daisy_patch_sm.h ****      * 
  48:../../libDaisy//src/daisy_patch_sm.h ****      *  Daisy Patch SM is a complete Eurorack module DSP engine.
  49:../../libDaisy//src/daisy_patch_sm.h ****      *  Based on the Daisy Seed, with circuits added for 
  50:../../libDaisy//src/daisy_patch_sm.h ****      *  interfacing directly with eurorack modular synthesizers.
  51:../../libDaisy//src/daisy_patch_sm.h ****      */
  52:../../libDaisy//src/daisy_patch_sm.h ****     class DaisyPatchSM
  53:../../libDaisy//src/daisy_patch_sm.h ****     {
  54:../../libDaisy//src/daisy_patch_sm.h ****       public:
  55:../../libDaisy//src/daisy_patch_sm.h ****         /** Helper for mapping pins, and accessing them using the `GetPin` function */
  56:../../libDaisy//src/daisy_patch_sm.h ****         enum class PinBank
  57:../../libDaisy//src/daisy_patch_sm.h ****         {
  58:../../libDaisy//src/daisy_patch_sm.h ****             A,
  59:../../libDaisy//src/daisy_patch_sm.h ****             B,
  60:../../libDaisy//src/daisy_patch_sm.h ****             C,
  61:../../libDaisy//src/daisy_patch_sm.h ****             D
  62:../../libDaisy//src/daisy_patch_sm.h ****         };
  63:../../libDaisy//src/daisy_patch_sm.h **** 
  64:../../libDaisy//src/daisy_patch_sm.h ****         DaisyPatchSM() {}
  65:../../libDaisy//src/daisy_patch_sm.h ****         ~DaisyPatchSM() {}
  30              		.loc 1 65 9 view -0
  31              		.cfi_startproc
  32              		@ args = 0, pretend = 0, frame = 0
  33              		@ frame_needed = 0, uses_anonymous_args = 0
  34              		@ link register save eliminated.
  35              	.LBB281:
  36              	.LBI281:
  37              		.file 2 "../../libDaisy//src/hid/gatein.h"
   1:../../libDaisy//src/hid/gatein.h **** #pragma once
   2:../../libDaisy//src/hid/gatein.h **** #ifndef DSY_GATEIN_H
   3:../../libDaisy//src/hid/gatein.h **** #define DSY_GATEIN_H
   4:../../libDaisy//src/hid/gatein.h **** #include "per/gpio.h"
   5:../../libDaisy//src/hid/gatein.h **** 
   6:../../libDaisy//src/hid/gatein.h **** namespace daisy
   7:../../libDaisy//src/hid/gatein.h **** {
   8:../../libDaisy//src/hid/gatein.h **** /**
   9:../../libDaisy//src/hid/gatein.h ****    @brief Generic Class for handling gate inputs through GPIO.
  10:../../libDaisy//src/hid/gatein.h ****    @author Stephen Hensley
  11:../../libDaisy//src/hid/gatein.h ****    @date    March 2020
  12:../../libDaisy//src/hid/gatein.h ****    @ingroup controls
  13:../../libDaisy//src/hid/gatein.h **** */
ARM GAS  /var/folders/hl/qgbwny5j0fd895c2c41bk3tw0000gp/T//cchkzwyh.s 			page 3


  14:../../libDaisy//src/hid/gatein.h **** class GateIn
  15:../../libDaisy//src/hid/gatein.h **** {
  16:../../libDaisy//src/hid/gatein.h ****   public:
  17:../../libDaisy//src/hid/gatein.h ****     /** GateIn 
  18:../../libDaisy//src/hid/gatein.h ****     Constructor 
  19:../../libDaisy//src/hid/gatein.h ****     */
  20:../../libDaisy//src/hid/gatein.h ****     GateIn() {}
  21:../../libDaisy//src/hid/gatein.h ****     /** GateIn~
  22:../../libDaisy//src/hid/gatein.h ****     Destructor 
  23:../../libDaisy//src/hid/gatein.h ****     */
  24:../../libDaisy//src/hid/gatein.h ****     ~GateIn() {}
  38              		.loc 2 24 5 view .LVU1
  39              		.loc 2 24 5 is_stmt 0 view .LVU2
  40              	.LBE281:
  41              	.LBB282:
  42              	.LBI282:
  43              		.loc 2 24 5 is_stmt 1 view .LVU3
  44              		.loc 2 24 5 is_stmt 0 view .LVU4
  45              	.LBE282:
  46              	.LBB283:
  47              	.LBI283:
  48              		.file 3 "../../libDaisy//src/dev/codec_pcm3060.h"
   1:../../libDaisy//src/dev/codec_pcm3060.h **** #pragma once
   2:../../libDaisy//src/dev/codec_pcm3060.h **** #ifndef DSY_CODEC_PCM3060_H
   3:../../libDaisy//src/dev/codec_pcm3060.h **** #define DSY_CODEC_PCM3060_H
   4:../../libDaisy//src/dev/codec_pcm3060.h **** #include "per/i2c.h"
   5:../../libDaisy//src/dev/codec_pcm3060.h **** namespace daisy
   6:../../libDaisy//src/dev/codec_pcm3060.h **** {
   7:../../libDaisy//src/dev/codec_pcm3060.h **** /**
   8:../../libDaisy//src/dev/codec_pcm3060.h ****  * @brief Driver for the TI PCM3060 Audio Codec.
   9:../../libDaisy//src/dev/codec_pcm3060.h ****  * @addtogroup codec
  10:../../libDaisy//src/dev/codec_pcm3060.h ****  * 
  11:../../libDaisy//src/dev/codec_pcm3060.h ****  * For now this is a limited interface that uses I2C to communicate with the PCM3060
  12:../../libDaisy//src/dev/codec_pcm3060.h ****  * The device can also be accessed with SPI, which is not yet supported.
  13:../../libDaisy//src/dev/codec_pcm3060.h ****  * 
  14:../../libDaisy//src/dev/codec_pcm3060.h ****  * For now all registers are set to their defaults, and the Init function will 
  15:../../libDaisy//src/dev/codec_pcm3060.h ****  * perform a MRST and SRST before setting the format to 24bit LJ, and disabling 
  16:../../libDaisy//src/dev/codec_pcm3060.h ****  * power save for both the ADC and DAC.
  17:../../libDaisy//src/dev/codec_pcm3060.h ****  *
  18:../../libDaisy//src/dev/codec_pcm3060.h ****  */
  19:../../libDaisy//src/dev/codec_pcm3060.h **** class Pcm3060
  20:../../libDaisy//src/dev/codec_pcm3060.h **** {
  21:../../libDaisy//src/dev/codec_pcm3060.h ****   public:
  22:../../libDaisy//src/dev/codec_pcm3060.h ****     enum class Result
  23:../../libDaisy//src/dev/codec_pcm3060.h ****     {
  24:../../libDaisy//src/dev/codec_pcm3060.h ****         OK,
  25:../../libDaisy//src/dev/codec_pcm3060.h ****         ERR,
  26:../../libDaisy//src/dev/codec_pcm3060.h ****     };
  27:../../libDaisy//src/dev/codec_pcm3060.h **** 
  28:../../libDaisy//src/dev/codec_pcm3060.h ****     Pcm3060() {}
  29:../../libDaisy//src/dev/codec_pcm3060.h ****     ~Pcm3060() {}
  49              		.loc 3 29 5 is_stmt 1 view .LVU5
  50              		.loc 3 29 5 is_stmt 0 view .LVU6
  51              	.LBE283:
  52              	.LBB284:
  53              	.LBI284:
  54              		.file 4 "../../libDaisy//src/hid/usb.h"
ARM GAS  /var/folders/hl/qgbwny5j0fd895c2c41bk3tw0000gp/T//cchkzwyh.s 			page 4


   1:../../libDaisy//src/hid/usb.h **** #pragma once
   2:../../libDaisy//src/hid/usb.h **** #ifndef DSY_HID_USB_H
   3:../../libDaisy//src/hid/usb.h **** #define DSY_HID_USB_H
   4:../../libDaisy//src/hid/usb.h **** #include <stdint.h>
   5:../../libDaisy//src/hid/usb.h **** #include <stdlib.h>
   6:../../libDaisy//src/hid/usb.h **** 
   7:../../libDaisy//src/hid/usb.h **** namespace daisy
   8:../../libDaisy//src/hid/usb.h **** /** @addtogroup human_interface
   9:../../libDaisy//src/hid/usb.h ****     @{
  10:../../libDaisy//src/hid/usb.h **** */
  11:../../libDaisy//src/hid/usb.h **** 
  12:../../libDaisy//src/hid/usb.h **** {
  13:../../libDaisy//src/hid/usb.h **** /** 
  14:../../libDaisy//src/hid/usb.h ****     @brief Interface for initializing and using the USB Peripherals on the daisy
  15:../../libDaisy//src/hid/usb.h ****     @author Stephen Hensley
  16:../../libDaisy//src/hid/usb.h ****     @date December 2019
  17:../../libDaisy//src/hid/usb.h **** */
  18:../../libDaisy//src/hid/usb.h **** class UsbHandle
  19:../../libDaisy//src/hid/usb.h **** {
  20:../../libDaisy//src/hid/usb.h ****   public:
  21:../../libDaisy//src/hid/usb.h ****     /** Return values for USBHandle Functions */
  22:../../libDaisy//src/hid/usb.h ****     enum class Result
  23:../../libDaisy//src/hid/usb.h ****     {
  24:../../libDaisy//src/hid/usb.h ****         OK,
  25:../../libDaisy//src/hid/usb.h ****         ERR,
  26:../../libDaisy//src/hid/usb.h ****     };
  27:../../libDaisy//src/hid/usb.h **** 
  28:../../libDaisy//src/hid/usb.h ****     /** Specified which of the two USB Peripherals to initialize. */
  29:../../libDaisy//src/hid/usb.h ****     enum UsbPeriph
  30:../../libDaisy//src/hid/usb.h ****     {
  31:../../libDaisy//src/hid/usb.h ****         FS_INTERNAL, /**< Internal pin */
  32:../../libDaisy//src/hid/usb.h ****         FS_EXTERNAL, /**< FS External D+ pin is Pin 38 (GPIO32). FS External D- pin is Pin 37 (GPIO
  33:../../libDaisy//src/hid/usb.h ****         FS_BOTH,     /**< Both */
  34:../../libDaisy//src/hid/usb.h ****     };
  35:../../libDaisy//src/hid/usb.h **** 
  36:../../libDaisy//src/hid/usb.h **** 
  37:../../libDaisy//src/hid/usb.h ****     /** Function called upon reception of a buffer */
  38:../../libDaisy//src/hid/usb.h ****     typedef void (*ReceiveCallback)(uint8_t* buff, uint32_t* len);
  39:../../libDaisy//src/hid/usb.h **** 
  40:../../libDaisy//src/hid/usb.h ****     UsbHandle() {}
  41:../../libDaisy//src/hid/usb.h **** 
  42:../../libDaisy//src/hid/usb.h ****     ~UsbHandle() {}
  55              		.loc 4 42 5 is_stmt 1 view .LVU7
  56              		.loc 4 42 5 is_stmt 0 view .LVU8
  57              	.LBE284:
  58              	.LBB285:
  59              	.LBI285:
  60              		.file 5 "../../libDaisy//src/per/adc.h"
   1:../../libDaisy//src/per/adc.h **** #pragma once
   2:../../libDaisy//src/per/adc.h **** #ifndef DSY_ADC_H
   3:../../libDaisy//src/per/adc.h **** #define DSY_ADC_H /**< Macro */
   4:../../libDaisy//src/per/adc.h **** #include <stdint.h>
   5:../../libDaisy//src/per/adc.h **** #include <stdlib.h>
   6:../../libDaisy//src/per/adc.h **** #include "daisy_core.h"
   7:../../libDaisy//src/per/adc.h **** #include "per/gpio.h"
   8:../../libDaisy//src/per/adc.h **** 
   9:../../libDaisy//src/per/adc.h **** #define DSY_ADC_MAX_CHANNELS 16 /**< Maximum number of ADC channels */
ARM GAS  /var/folders/hl/qgbwny5j0fd895c2c41bk3tw0000gp/T//cchkzwyh.s 			page 5


  10:../../libDaisy//src/per/adc.h **** 
  11:../../libDaisy//src/per/adc.h **** namespace daisy
  12:../../libDaisy//src/per/adc.h **** {
  13:../../libDaisy//src/per/adc.h **** /** @addtogroup per_analog
  14:../../libDaisy//src/per/adc.h ****     @{
  15:../../libDaisy//src/per/adc.h **** */
  16:../../libDaisy//src/per/adc.h **** 
  17:../../libDaisy//src/per/adc.h **** /* While there may not be many configuration options here,
  18:../../libDaisy//src/per/adc.h **** using a struct like this allows us to add more configuration
  19:../../libDaisy//src/per/adc.h **** later without breaking existing functionality.
  20:../../libDaisy//src/per/adc.h **** */
  21:../../libDaisy//src/per/adc.h **** 
  22:../../libDaisy//src/per/adc.h **** /** @brief   Configuration Structure for an ADC Channel 
  23:../../libDaisy//src/per/adc.h ****  *  @details This can be used to configure a a single input, 
  24:../../libDaisy//src/per/adc.h ****  *           or a multiplexed input, allowing up to 8 inputs on 
  25:../../libDaisy//src/per/adc.h ****  *           one channel.
  26:../../libDaisy//src/per/adc.h ****  *  @note    Sharing data lines to multiple muxes _is_ possible, but
  27:../../libDaisy//src/per/adc.h ****  *           each channel sharing data lines must be set to the maximum
  28:../../libDaisy//src/per/adc.h ****  *           number of channels, even if some multiplexers have fewer
  29:../../libDaisy//src/per/adc.h ****  *           inputs connected.
  30:../../libDaisy//src/per/adc.h **** */
  31:../../libDaisy//src/per/adc.h **** struct AdcChannelConfig
  32:../../libDaisy//src/per/adc.h **** {
  33:../../libDaisy//src/per/adc.h ****     /** Which pin to use for multiplexing */
  34:../../libDaisy//src/per/adc.h ****     enum MuxPin
  35:../../libDaisy//src/per/adc.h ****     {
  36:../../libDaisy//src/per/adc.h ****         MUX_SEL_0,    /**< & */
  37:../../libDaisy//src/per/adc.h ****         MUX_SEL_1,    /**< & */
  38:../../libDaisy//src/per/adc.h ****         MUX_SEL_2,    /**< & */
  39:../../libDaisy//src/per/adc.h ****         MUX_SEL_LAST, /**< & */
  40:../../libDaisy//src/per/adc.h ****     };
  41:../../libDaisy//src/per/adc.h **** 
  42:../../libDaisy//src/per/adc.h ****     /** Initializes a single ADC pin as an ADC. 
  43:../../libDaisy//src/per/adc.h ****     \param pin Pin to init.
  44:../../libDaisy//src/per/adc.h ****      */
  45:../../libDaisy//src/per/adc.h ****     void InitSingle(dsy_gpio_pin pin);
  46:../../libDaisy//src/per/adc.h **** 
  47:../../libDaisy//src/per/adc.h ****     /** 
  48:../../libDaisy//src/per/adc.h ****     Initializes a single ADC pin as a Multiplexed ADC.
  49:../../libDaisy//src/per/adc.h ****     Requires a CD405X Multiplexer connected to the pin.
  50:../../libDaisy//src/per/adc.h ****     You only need to supply the mux pins that are required,
  51:../../libDaisy//src/per/adc.h ****     e.g. a 4052 mux would only require mux_0 and mux_1.
  52:../../libDaisy//src/per/adc.h ****     Internal Callbacks handle the pin addressing.
  53:../../libDaisy//src/per/adc.h ****     \param mux_channels must be 1-8
  54:../../libDaisy//src/per/adc.h ****     \param mux_0 First mux pin
  55:../../libDaisy//src/per/adc.h ****     \param mux_1 Second mux pin
  56:../../libDaisy//src/per/adc.h ****     \param mux_2 Third mux pin
  57:../../libDaisy//src/per/adc.h ****     \param adc_pin &
  58:../../libDaisy//src/per/adc.h ****     */
  59:../../libDaisy//src/per/adc.h ****     void InitMux(dsy_gpio_pin adc_pin,
  60:../../libDaisy//src/per/adc.h ****                  size_t       mux_channels,
  61:../../libDaisy//src/per/adc.h ****                  dsy_gpio_pin mux_0,
  62:../../libDaisy//src/per/adc.h ****                  dsy_gpio_pin mux_1 = {DSY_GPIOX, 0},
  63:../../libDaisy//src/per/adc.h ****                  dsy_gpio_pin mux_2 = {DSY_GPIOX, 0});
  64:../../libDaisy//src/per/adc.h **** 
  65:../../libDaisy//src/per/adc.h ****     dsy_gpio pin_;                   /**< & */
  66:../../libDaisy//src/per/adc.h ****     dsy_gpio mux_pin_[MUX_SEL_LAST]; /**< & */
ARM GAS  /var/folders/hl/qgbwny5j0fd895c2c41bk3tw0000gp/T//cchkzwyh.s 			page 6


  67:../../libDaisy//src/per/adc.h ****     uint8_t  mux_channels_;          /**< & */
  68:../../libDaisy//src/per/adc.h **** };
  69:../../libDaisy//src/per/adc.h **** 
  70:../../libDaisy//src/per/adc.h **** /**
  71:../../libDaisy//src/per/adc.h ****    @brief Handler for analog to digital conversion
  72:../../libDaisy//src/per/adc.h **** */
  73:../../libDaisy//src/per/adc.h **** class AdcHandle
  74:../../libDaisy//src/per/adc.h **** {
  75:../../libDaisy//src/per/adc.h ****   public:
  76:../../libDaisy//src/per/adc.h ****     /** Supported oversampling amounts */
  77:../../libDaisy//src/per/adc.h ****     enum OverSampling
  78:../../libDaisy//src/per/adc.h ****     {
  79:../../libDaisy//src/per/adc.h ****         OVS_NONE, /**< & */
  80:../../libDaisy//src/per/adc.h ****         OVS_4,    /**< & */
  81:../../libDaisy//src/per/adc.h ****         OVS_8,    /**< & */
  82:../../libDaisy//src/per/adc.h ****         OVS_16,   /**< & */
  83:../../libDaisy//src/per/adc.h ****         OVS_32,   /**< & */
  84:../../libDaisy//src/per/adc.h ****         OVS_64,   /**< & */
  85:../../libDaisy//src/per/adc.h ****         OVS_128,  /**< & */
  86:../../libDaisy//src/per/adc.h ****         OVS_256,  /**< & */
  87:../../libDaisy//src/per/adc.h ****         OVS_512,  /**< & */
  88:../../libDaisy//src/per/adc.h ****         OVS_1024, /**< & */
  89:../../libDaisy//src/per/adc.h ****         OVS_LAST, /**< & */
  90:../../libDaisy//src/per/adc.h ****     };
  91:../../libDaisy//src/per/adc.h **** 
  92:../../libDaisy//src/per/adc.h ****     AdcHandle() {}
  93:../../libDaisy//src/per/adc.h ****     ~AdcHandle() {}
  61              		.loc 5 93 5 is_stmt 1 view .LVU9
  62              		.loc 5 93 5 is_stmt 0 view .LVU10
  63              	.LBE285:
  64              	.LBB286:
  65              	.LBI286:
  66              		.file 6 "../../libDaisy//src/hid/audio.h"
   1:../../libDaisy//src/hid/audio.h **** #ifndef DSY_AUDIO_H
   2:../../libDaisy//src/hid/audio.h **** #define DSY_AUDIO_H /**< & */
   3:../../libDaisy//src/hid/audio.h **** 
   4:../../libDaisy//src/hid/audio.h **** #include "per/sai.h"
   5:../../libDaisy//src/hid/audio.h **** 
   6:../../libDaisy//src/hid/audio.h **** namespace daisy
   7:../../libDaisy//src/hid/audio.h **** {
   8:../../libDaisy//src/hid/audio.h **** /** @brief Audio Engine Handle
   9:../../libDaisy//src/hid/audio.h ****  *  @ingroup audio 
  10:../../libDaisy//src/hid/audio.h ****  *  @details This class allows for higher level access to an audio engine.
  11:../../libDaisy//src/hid/audio.h ****  *           If you're using a SOM like the DaisySeed or DaisyPatchSM (or any 
  12:../../libDaisy//src/hid/audio.h ****  *            board that includes one of those objects) then the intialization
  13:../../libDaisy//src/hid/audio.h ****  *            is already taken  care of.
  14:../../libDaisy//src/hid/audio.h ****  *           If you're setting up your own custom hardware, or need to make changes
  15:../../libDaisy//src/hid/audio.h ****  *           you will have to take the following steps:
  16:../../libDaisy//src/hid/audio.h ****  *             1. Create and Initialize an SaiHandle or two depending on your requirements
  17:../../libDaisy//src/hid/audio.h ****  *             2. Initialize the Audio Handle with the desired settings and the Initialized SaiHand
  18:../../libDaisy//src/hid/audio.h ****  *             3. If the connected codec requires special configuration or initialization, do so
  19:../../libDaisy//src/hid/audio.h ****  *             4. Write a callback method using either the AudioCallback or the InterleavingAudioCa
  20:../../libDaisy//src/hid/audio.h ****  *             5. Start the Audio using one of the StartAudio function
  21:../../libDaisy//src/hid/audio.h ****  */
  22:../../libDaisy//src/hid/audio.h **** class AudioHandle
  23:../../libDaisy//src/hid/audio.h **** {
  24:../../libDaisy//src/hid/audio.h ****   public:
ARM GAS  /var/folders/hl/qgbwny5j0fd895c2c41bk3tw0000gp/T//cchkzwyh.s 			page 7


  25:../../libDaisy//src/hid/audio.h ****     /** Manually configurable details about the Audio Engine */
  26:../../libDaisy//src/hid/audio.h ****     /** TODO: Figure out how to get samplerate in here. */
  27:../../libDaisy//src/hid/audio.h ****     struct Config
  28:../../libDaisy//src/hid/audio.h ****     {
  29:../../libDaisy//src/hid/audio.h ****         /** number of samples to process per callback */
  30:../../libDaisy//src/hid/audio.h ****         size_t blocksize;
  31:../../libDaisy//src/hid/audio.h **** 
  32:../../libDaisy//src/hid/audio.h ****         /**< Sample rate of audio */
  33:../../libDaisy//src/hid/audio.h ****         SaiHandle::Config::SampleRate samplerate;
  34:../../libDaisy//src/hid/audio.h **** 
  35:../../libDaisy//src/hid/audio.h ****         /** factor for adjustment before and after callback for hardware that may have extra headro
  36:../../libDaisy//src/hid/audio.h ****         float postgain;
  37:../../libDaisy//src/hid/audio.h **** 
  38:../../libDaisy//src/hid/audio.h ****         /** factor for additional one-sided compensation to audio path for hardware that may
  39:../../libDaisy//src/hid/audio.h ****          *  have unequal input/output ranges
  40:../../libDaisy//src/hid/audio.h ****          */
  41:../../libDaisy//src/hid/audio.h ****         float output_compensation;
  42:../../libDaisy//src/hid/audio.h **** 
  43:../../libDaisy//src/hid/audio.h ****         /** Sets default values for config struct */
  44:../../libDaisy//src/hid/audio.h ****         Config()
  45:../../libDaisy//src/hid/audio.h ****         : blocksize(48),
  46:../../libDaisy//src/hid/audio.h ****           samplerate(SaiHandle::Config::SampleRate::SAI_48KHZ),
  47:../../libDaisy//src/hid/audio.h ****           postgain(1.f),
  48:../../libDaisy//src/hid/audio.h ****           output_compensation(1.f)
  49:../../libDaisy//src/hid/audio.h ****         {
  50:../../libDaisy//src/hid/audio.h ****         }
  51:../../libDaisy//src/hid/audio.h ****     };
  52:../../libDaisy//src/hid/audio.h **** 
  53:../../libDaisy//src/hid/audio.h ****     enum class Result
  54:../../libDaisy//src/hid/audio.h ****     {
  55:../../libDaisy//src/hid/audio.h ****         OK,
  56:../../libDaisy//src/hid/audio.h ****         ERR,
  57:../../libDaisy//src/hid/audio.h ****     };
  58:../../libDaisy//src/hid/audio.h **** 
  59:../../libDaisy//src/hid/audio.h ****     /** Non-Interleaving input buffer
  60:../../libDaisy//src/hid/audio.h ****      * Buffer arranged by float[chn][sample] 
  61:../../libDaisy//src/hid/audio.h ****      * const so that the user can't modify the input
  62:../../libDaisy//src/hid/audio.h ****      */
  63:../../libDaisy//src/hid/audio.h ****     typedef const float* const* InputBuffer;
  64:../../libDaisy//src/hid/audio.h **** 
  65:../../libDaisy//src/hid/audio.h ****     /** Non-Interleaving output buffer
  66:../../libDaisy//src/hid/audio.h ****      * Arranged by float[chn][sample] 
  67:../../libDaisy//src/hid/audio.h ****      */
  68:../../libDaisy//src/hid/audio.h ****     typedef float** OutputBuffer;
  69:../../libDaisy//src/hid/audio.h **** 
  70:../../libDaisy//src/hid/audio.h ****     /** Type for a Non-Interleaving audio callback 
  71:../../libDaisy//src/hid/audio.h ****      * Non-Interleaving audio callbacks in daisy will be of this type
  72:../../libDaisy//src/hid/audio.h ****      */
  73:../../libDaisy//src/hid/audio.h ****     typedef void (*AudioCallback)(InputBuffer  in,
  74:../../libDaisy//src/hid/audio.h ****                                   OutputBuffer out,
  75:../../libDaisy//src/hid/audio.h ****                                   size_t       size);
  76:../../libDaisy//src/hid/audio.h **** 
  77:../../libDaisy//src/hid/audio.h ****     /** Interleaving Input buffer
  78:../../libDaisy//src/hid/audio.h ****      ** audio is prepared as { L0, R0, L1, R1, . . . LN, RN }]
  79:../../libDaisy//src/hid/audio.h ****      ** this is const, as the user shouldn't modify it
  80:../../libDaisy//src/hid/audio.h ****     */
  81:../../libDaisy//src/hid/audio.h ****     typedef const float* InterleavingInputBuffer;
ARM GAS  /var/folders/hl/qgbwny5j0fd895c2c41bk3tw0000gp/T//cchkzwyh.s 			page 8


  82:../../libDaisy//src/hid/audio.h **** 
  83:../../libDaisy//src/hid/audio.h ****     /** Interleaving Output buffer 
  84:../../libDaisy//src/hid/audio.h ****      ** audio is prepared as { L0, R0, L1, R1, . . . LN, RN }
  85:../../libDaisy//src/hid/audio.h ****     */
  86:../../libDaisy//src/hid/audio.h ****     typedef float* InterleavingOutputBuffer;
  87:../../libDaisy//src/hid/audio.h **** 
  88:../../libDaisy//src/hid/audio.h ****     /** Interleaving Audio Callback 
  89:../../libDaisy//src/hid/audio.h ****      * Interleaving audio callbacks in daisy must be of this type
  90:../../libDaisy//src/hid/audio.h ****      */
  91:../../libDaisy//src/hid/audio.h ****     typedef void (*InterleavingAudioCallback)(InterleavingInputBuffer  in,
  92:../../libDaisy//src/hid/audio.h ****                                               InterleavingOutputBuffer out,
  93:../../libDaisy//src/hid/audio.h ****                                               size_t                   size);
  94:../../libDaisy//src/hid/audio.h **** 
  95:../../libDaisy//src/hid/audio.h ****     AudioHandle() : pimpl_(nullptr) {}
  96:../../libDaisy//src/hid/audio.h ****     ~AudioHandle() {}
  67              		.loc 6 96 5 is_stmt 1 view .LVU11
  68              		.loc 6 96 5 is_stmt 0 view .LVU12
  69              	.LBE286:
  70              	.LBB287:
  71              	.LBI287:
  72              		.file 7 "../../libDaisy//src/sys/system.h"
   1:../../libDaisy//src/sys/system.h **** #ifndef DSY_SYSTEM_H
   2:../../libDaisy//src/sys/system.h **** #define DSY_SYSTEM_H
   3:../../libDaisy//src/sys/system.h **** 
   4:../../libDaisy//src/sys/system.h **** #ifndef UNIT_TEST // for unit tests, a dummy implementation is provided below
   5:../../libDaisy//src/sys/system.h **** 
   6:../../libDaisy//src/sys/system.h **** #include <cstdint>
   7:../../libDaisy//src/sys/system.h **** #include "per/tim.h"
   8:../../libDaisy//src/sys/system.h **** 
   9:../../libDaisy//src/sys/system.h **** namespace daisy
  10:../../libDaisy//src/sys/system.h **** {
  11:../../libDaisy//src/sys/system.h **** /** A handle for interacting with the Core System. 
  12:../../libDaisy//src/sys/system.h ****  ** This includes the Clock tree, MPU, global DMA initialization,
  13:../../libDaisy//src/sys/system.h ****  ** cache handling, and any other necessary global initiailzation
  14:../../libDaisy//src/sys/system.h ****  **
  15:../../libDaisy//src/sys/system.h ****  ** @author shensley
  16:../../libDaisy//src/sys/system.h ****  ** @ingroup system
  17:../../libDaisy//src/sys/system.h ****  */
  18:../../libDaisy//src/sys/system.h **** class System
  19:../../libDaisy//src/sys/system.h **** {
  20:../../libDaisy//src/sys/system.h ****   public:
  21:../../libDaisy//src/sys/system.h ****     /** Contains settings for initializing the System */
  22:../../libDaisy//src/sys/system.h ****     struct Config
  23:../../libDaisy//src/sys/system.h ****     {
  24:../../libDaisy//src/sys/system.h ****         /** Specifies the system clock frequency that feeds APB/AHB clocks, etc. */
  25:../../libDaisy//src/sys/system.h ****         enum class SysClkFreq
  26:../../libDaisy//src/sys/system.h ****         {
  27:../../libDaisy//src/sys/system.h ****             FREQ_400MHZ,
  28:../../libDaisy//src/sys/system.h ****             FREQ_480MHZ,
  29:../../libDaisy//src/sys/system.h ****         };
  30:../../libDaisy//src/sys/system.h **** 
  31:../../libDaisy//src/sys/system.h ****         /** Method to call on the struct to set to defaults
  32:../../libDaisy//src/sys/system.h ****          ** CPU Freq set to 400MHz
  33:../../libDaisy//src/sys/system.h ****          ** Cache Enabled 
  34:../../libDaisy//src/sys/system.h ****          ** */
  35:../../libDaisy//src/sys/system.h ****         void Defaults()
  36:../../libDaisy//src/sys/system.h ****         {
ARM GAS  /var/folders/hl/qgbwny5j0fd895c2c41bk3tw0000gp/T//cchkzwyh.s 			page 9


  37:../../libDaisy//src/sys/system.h ****             cpu_freq    = SysClkFreq::FREQ_400MHZ;
  38:../../libDaisy//src/sys/system.h ****             use_dcache  = true;
  39:../../libDaisy//src/sys/system.h ****             use_icache  = true;
  40:../../libDaisy//src/sys/system.h ****             skip_clocks = false;
  41:../../libDaisy//src/sys/system.h ****         }
  42:../../libDaisy//src/sys/system.h **** 
  43:../../libDaisy//src/sys/system.h ****         /** Method to call on the struct to set to boost mode:
  44:../../libDaisy//src/sys/system.h ****          ** CPU Freq set to 480MHz
  45:../../libDaisy//src/sys/system.h ****          ** Cache Enabled 
  46:../../libDaisy//src/sys/system.h ****          ** */
  47:../../libDaisy//src/sys/system.h ****         void Boost()
  48:../../libDaisy//src/sys/system.h ****         {
  49:../../libDaisy//src/sys/system.h ****             cpu_freq    = SysClkFreq::FREQ_480MHZ;
  50:../../libDaisy//src/sys/system.h ****             use_dcache  = true;
  51:../../libDaisy//src/sys/system.h ****             use_icache  = true;
  52:../../libDaisy//src/sys/system.h ****             skip_clocks = false;
  53:../../libDaisy//src/sys/system.h ****         }
  54:../../libDaisy//src/sys/system.h **** 
  55:../../libDaisy//src/sys/system.h ****         SysClkFreq cpu_freq;
  56:../../libDaisy//src/sys/system.h ****         bool       use_dcache;
  57:../../libDaisy//src/sys/system.h ****         bool       use_icache;
  58:../../libDaisy//src/sys/system.h ****         bool       skip_clocks;
  59:../../libDaisy//src/sys/system.h ****     };
  60:../../libDaisy//src/sys/system.h **** 
  61:../../libDaisy//src/sys/system.h ****     /** Describes the different regions of memory available to the Daisy
  62:../../libDaisy//src/sys/system.h ****      * 
  63:../../libDaisy//src/sys/system.h ****      */
  64:../../libDaisy//src/sys/system.h ****     enum MemoryRegion
  65:../../libDaisy//src/sys/system.h ****     {
  66:../../libDaisy//src/sys/system.h ****         INTERNAL_FLASH = 0,
  67:../../libDaisy//src/sys/system.h ****         ITCMRAM,
  68:../../libDaisy//src/sys/system.h ****         DTCMRAM,
  69:../../libDaisy//src/sys/system.h ****         SRAM_D1,
  70:../../libDaisy//src/sys/system.h ****         SRAM_D2,
  71:../../libDaisy//src/sys/system.h ****         SRAM_D3,
  72:../../libDaisy//src/sys/system.h ****         SDRAM,
  73:../../libDaisy//src/sys/system.h ****         QSPI,
  74:../../libDaisy//src/sys/system.h ****         INVALID_ADDRESS,
  75:../../libDaisy//src/sys/system.h ****     };
  76:../../libDaisy//src/sys/system.h **** 
  77:../../libDaisy//src/sys/system.h ****     System() {}
  78:../../libDaisy//src/sys/system.h ****     ~System() {}
  73              		.loc 7 78 5 is_stmt 1 view .LVU13
  74              		.loc 7 78 5 is_stmt 0 view .LVU14
  75              	.LBE287:
  76              		.loc 1 65 26 view .LVU15
  77 0000 7047     		bx	lr
  78              		.cfi_endproc
  79              	.LFE2529:
  81              		.weak	_ZN5daisy8patch_sm12DaisyPatchSMD1Ev
  82              		.thumb_set _ZN5daisy8patch_sm12DaisyPatchSMD1Ev,_ZN5daisy8patch_sm12DaisyPatchSMD2Ev
  83 0002 00BF     		.section	.text._ZN19ILI9341SpiTransport18TxCompleteCallbackEPvN5daisy9SpiHandle6ResultE,"axG",%pro
  84              		.align	1
  85              		.p2align 2,,3
  86              		.weak	_ZN19ILI9341SpiTransport18TxCompleteCallbackEPvN5daisy9SpiHandle6ResultE
  87              		.syntax unified
  88              		.thumb
ARM GAS  /var/folders/hl/qgbwny5j0fd895c2c41bk3tw0000gp/T//cchkzwyh.s 			page 10


  89              		.thumb_func
  90              		.fpu fpv5-d16
  92              	_ZN19ILI9341SpiTransport18TxCompleteCallbackEPvN5daisy9SpiHandle6ResultE:
  93              	.LVL1:
  94              	.LFB2549:
  95              		.file 8 "ili9341_ui_driver.hpp"
   1:ili9341_ui_driver.hpp **** #pragma once
   2:ili9341_ui_driver.hpp **** 
   3:ili9341_ui_driver.hpp **** #include <cstring>
   4:ili9341_ui_driver.hpp **** 
   5:ili9341_ui_driver.hpp **** #include "daisy_seed.h"
   6:ili9341_ui_driver.hpp **** #include "daisy_patch_sm.h"
   7:ili9341_ui_driver.hpp **** #include "util/oled_fonts.h"
   8:ili9341_ui_driver.hpp **** #include "hid/disp/graphics_common.h"
   9:ili9341_ui_driver.hpp **** 
  10:ili9341_ui_driver.hpp **** using namespace daisy;
  11:ili9341_ui_driver.hpp **** using namespace patch_sm;
  12:ili9341_ui_driver.hpp **** 
  13:ili9341_ui_driver.hpp **** DaisyPatchSM    psm;
  14:ili9341_ui_driver.hpp **** 
  15:ili9341_ui_driver.hpp **** // #define SPI1_NSS 7    // LCD CS 3
  16:ili9341_ui_driver.hpp **** // #define SPI1_SCK 8    // LCD SCK 7
  17:ili9341_ui_driver.hpp **** // #define SPI1_MOSI 10  // LCD MOSI 6
  18:ili9341_ui_driver.hpp **** // #define ADC1_INP15 16 // PIN 23 - LCD RST 4
  19:ili9341_ui_driver.hpp **** // #define DAC1_OUT2 22  //PIN 29 - LCD DC 5
  20:ili9341_ui_driver.hpp **** 
  21:ili9341_ui_driver.hpp **** // #define SPI1_MISO 9 // Not used
  22:ili9341_ui_driver.hpp **** // #define I2C1_SCL 11
  23:ili9341_ui_driver.hpp **** // #define I2C1_SDA 12
  24:ili9341_ui_driver.hpp **** 
  25:ili9341_ui_driver.hpp **** enum TFT_COLOR
  26:ili9341_ui_driver.hpp **** {
  27:ili9341_ui_driver.hpp ****     COLOR_BLACK = 0,
  28:ili9341_ui_driver.hpp ****     COLOR_WHITE,
  29:ili9341_ui_driver.hpp ****     COLOR_BLUE,
  30:ili9341_ui_driver.hpp ****     COLOR_DARK_BLUE,
  31:ili9341_ui_driver.hpp ****     COLOR_CYAN,
  32:ili9341_ui_driver.hpp ****     COLOR_YELLOW,
  33:ili9341_ui_driver.hpp ****     COLOR_DARK_YELLOW,
  34:ili9341_ui_driver.hpp ****     COLOR_ORANGE,
  35:ili9341_ui_driver.hpp ****     COLOR_RED,
  36:ili9341_ui_driver.hpp ****     COLOR_DARK_RED,
  37:ili9341_ui_driver.hpp ****     COLOR_GREEN,
  38:ili9341_ui_driver.hpp ****     COLOR_DARK_GREEN,
  39:ili9341_ui_driver.hpp ****     COLOR_LIGHT_GREEN,
  40:ili9341_ui_driver.hpp ****     COLOR_GRAY,
  41:ili9341_ui_driver.hpp ****     COLOR_DARK_GRAY,
  42:ili9341_ui_driver.hpp ****     COLOR_LIGHT_GRAY,
  43:ili9341_ui_driver.hpp ****     COLOR_MEDIUM_GRAY,
  44:ili9341_ui_driver.hpp ****     COLOR_ABL_BG,
  45:ili9341_ui_driver.hpp ****     COLOR_ABL_LINE,
  46:ili9341_ui_driver.hpp ****     COLOR_ABL_D_LINE,
  47:ili9341_ui_driver.hpp ****     COLOR_ABL_L_GRAY,
  48:ili9341_ui_driver.hpp ****     COLOR_ABL_M_GRAY,
  49:ili9341_ui_driver.hpp ****     NUMBER_OF_TFT_COLORS
  50:ili9341_ui_driver.hpp **** };
  51:ili9341_ui_driver.hpp **** 
ARM GAS  /var/folders/hl/qgbwny5j0fd895c2c41bk3tw0000gp/T//cchkzwyh.s 			page 11


  52:ili9341_ui_driver.hpp **** /**
  53:ili9341_ui_driver.hpp ****  * SPI Transport for ILI9341 TFT display devices
  54:ili9341_ui_driver.hpp ****  */
  55:ili9341_ui_driver.hpp **** class ILI9341SpiTransport
  56:ili9341_ui_driver.hpp **** {
  57:ili9341_ui_driver.hpp ****   public:
  58:ili9341_ui_driver.hpp ****     void Init()
  59:ili9341_ui_driver.hpp ****     {
  60:ili9341_ui_driver.hpp ****         // Initialize SPI
  61:ili9341_ui_driver.hpp ****         SpiHandle::Config spi_config;
  62:ili9341_ui_driver.hpp ****         spi_config.periph    = SpiHandle::Config::Peripheral::SPI_2;
  63:ili9341_ui_driver.hpp ****         spi_config.mode      = SpiHandle::Config::Mode::MASTER;
  64:ili9341_ui_driver.hpp ****         spi_config.direction = SpiHandle::Config::Direction::TWO_LINES_TX_ONLY;
  65:ili9341_ui_driver.hpp ****         spi_config.clock_polarity  = SpiHandle::Config::ClockPolarity::LOW;
  66:ili9341_ui_driver.hpp ****         spi_config.baud_prescaler  = SpiHandle::Config::BaudPrescaler::PS_2;
  67:ili9341_ui_driver.hpp ****         spi_config.clock_phase     = SpiHandle::Config::ClockPhase::ONE_EDGE;
  68:ili9341_ui_driver.hpp ****         spi_config.nss             = SpiHandle::Config::NSS::HARD_OUTPUT;
  69:ili9341_ui_driver.hpp ****         spi_config.datasize        = 8;
  70:ili9341_ui_driver.hpp ****         spi_config.pin_config.sclk = psm.GetPin(DaisyPatchSM::PinBank::D, 10);
  71:ili9341_ui_driver.hpp ****         spi_config.pin_config.mosi = psm.GetPin(DaisyPatchSM::PinBank::D, 9);
  72:ili9341_ui_driver.hpp ****         spi_config.pin_config.nss  = psm.GetPin(DaisyPatchSM::PinBank::D, 1);
  73:ili9341_ui_driver.hpp ****         // spi_config.pin_config.miso = {DSY_GPIOX, 0}; // not used
  74:ili9341_ui_driver.hpp **** 
  75:ili9341_ui_driver.hpp ****         // v0.1 mix up
  76:ili9341_ui_driver.hpp ****         //auto dc_pin    = psm.GetPin(DaisyPatchSM::PinBank::A, 2);
  77:ili9341_ui_driver.hpp ****         //auto reset_pin = psm.GetPin(DaisyPatchSM::PinBank::A, 3);
  78:ili9341_ui_driver.hpp ****         // auto dc_pin    = 22;
  79:ili9341_ui_driver.hpp ****         // auto reset_pin = 16;
  80:ili9341_ui_driver.hpp **** 
  81:ili9341_ui_driver.hpp **** 
  82:ili9341_ui_driver.hpp ****         // DC pin
  83:ili9341_ui_driver.hpp ****         pin_dc_.mode = DSY_GPIO_MODE_OUTPUT_PP;
  84:ili9341_ui_driver.hpp ****         pin_dc_.pin  = psm.GetPin(DaisyPatchSM::PinBank::A, 2);
  85:ili9341_ui_driver.hpp ****         dsy_gpio_init(&pin_dc_);
  86:ili9341_ui_driver.hpp ****         // Reset pin
  87:ili9341_ui_driver.hpp ****         pin_reset_.mode = DSY_GPIO_MODE_OUTPUT_PP;
  88:ili9341_ui_driver.hpp ****         pin_reset_.pin  = psm.GetPin(DaisyPatchSM::PinBank::A, 3);
  89:ili9341_ui_driver.hpp ****         dsy_gpio_init(&pin_reset_);
  90:ili9341_ui_driver.hpp ****         // CS pin
  91:ili9341_ui_driver.hpp ****         pin_cs_.mode = DSY_GPIO_MODE_OUTPUT_PP;
  92:ili9341_ui_driver.hpp ****         pin_cs_.pin  = spi_config.pin_config.nss;
  93:ili9341_ui_driver.hpp ****         dsy_gpio_init(&pin_cs_);
  94:ili9341_ui_driver.hpp **** 
  95:ili9341_ui_driver.hpp ****         spi_.Init(spi_config);
  96:ili9341_ui_driver.hpp ****     };
  97:ili9341_ui_driver.hpp **** 
  98:ili9341_ui_driver.hpp ****     void Reset()
  99:ili9341_ui_driver.hpp ****     {
 100:ili9341_ui_driver.hpp ****         dsy_gpio_write(&pin_reset_, 0);
 101:ili9341_ui_driver.hpp ****         System::Delay(100);
 102:ili9341_ui_driver.hpp ****         dsy_gpio_write(&pin_reset_, 1);
 103:ili9341_ui_driver.hpp ****         System::Delay(100);
 104:ili9341_ui_driver.hpp ****     }
 105:ili9341_ui_driver.hpp **** 
 106:ili9341_ui_driver.hpp ****     // an internal function to handle SPI DMA callbacks
 107:ili9341_ui_driver.hpp ****     // called when an DMA transmission completes and the next driver must be updated
 108:ili9341_ui_driver.hpp ****     static void TxCompleteCallback(void* context, SpiHandle::Result result)
ARM GAS  /var/folders/hl/qgbwny5j0fd895c2c41bk3tw0000gp/T//cchkzwyh.s 			page 12


  96              		.loc 8 108 17 is_stmt 1 view -0
  97              		.cfi_startproc
  98              		@ args = 0, pretend = 0, frame = 0
  99              		@ frame_needed = 0, uses_anonymous_args = 0
 109:ili9341_ui_driver.hpp ****     {
 110:ili9341_ui_driver.hpp ****         if(result == SpiHandle::Result::OK)
 100              		.loc 8 110 9 view .LVU17
 101              	.LBB297:
 102 0000 69B9     		cbnz	r1, .L7
 103              	.LVL2:
 104              		.loc 8 110 9 is_stmt 0 view .LVU18
 105              	.LBE297:
 106              	.LBB298:
 107              	.LBI298:
 108:ili9341_ui_driver.hpp ****     {
 108              		.loc 8 108 17 is_stmt 1 view .LVU19
 109              	.LBB299:
 111:ili9341_ui_driver.hpp ****         {
 112:ili9341_ui_driver.hpp ****             auto transport     = static_cast<ILI9341SpiTransport*>(context);
 110              		.loc 8 112 13 view .LVU20
 113:ili9341_ui_driver.hpp ****             auto transfer_size = transport->GetTransferSize();
 111              		.loc 8 113 13 view .LVU21
 112              	.LBB300:
 113              	.LBI300:
 114:ili9341_ui_driver.hpp ****             transport->remaining_buff -= transfer_size;
 115:ili9341_ui_driver.hpp ****             if(transport->remaining_buff > 0)
 116:ili9341_ui_driver.hpp ****             {
 117:ili9341_ui_driver.hpp ****                 transport->SendDataDMA(
 118:ili9341_ui_driver.hpp ****                     &frame_buffer[buffer_size - transport->remaining_buff],
 119:ili9341_ui_driver.hpp ****                     transfer_size);
 120:ili9341_ui_driver.hpp **** 
 121:ili9341_ui_driver.hpp ****                 // 16bit transfer
 122:ili9341_ui_driver.hpp ****                 // transport->SendDataDMA(
 123:ili9341_ui_driver.hpp ****                 //     &frame_buffer[2 * transport->buf_chunk_size],
 124:ili9341_ui_driver.hpp ****                 //     transport->buf_chunk_size);
 125:ili9341_ui_driver.hpp ****             }
 126:ili9341_ui_driver.hpp ****             else
 127:ili9341_ui_driver.hpp ****             {
 128:ili9341_ui_driver.hpp ****                 transport->dma_busy = false;
 129:ili9341_ui_driver.hpp **** 
 130:ili9341_ui_driver.hpp ****                 // 8 bit transfer
 131:ili9341_ui_driver.hpp ****                 // auto* spi_h = transport->spi_.GetHandle();
 132:ili9341_ui_driver.hpp ****                 // spi_h->Instance->CFG1 &= ~SPI_CFG1_DSIZE_3;
 133:ili9341_ui_driver.hpp ****                 // spi_h->Instance->CFG2 &= ~SPI_CFG2_LSBFRST;
 134:ili9341_ui_driver.hpp ****                 // spi_h->Init.DataSize = SPI_DATASIZE_8BIT;
 135:ili9341_ui_driver.hpp ****             }
 136:ili9341_ui_driver.hpp ****         }
 137:ili9341_ui_driver.hpp ****     }
 138:ili9341_ui_driver.hpp **** 
 139:ili9341_ui_driver.hpp ****     SpiHandle::Result SendDataDMA()
 140:ili9341_ui_driver.hpp ****     {
 141:ili9341_ui_driver.hpp ****         remaining_buff = buffer_size;
 142:ili9341_ui_driver.hpp ****         dma_busy       = true;
 143:ili9341_ui_driver.hpp **** 
 144:ili9341_ui_driver.hpp ****         // auto* spi_h = spi_.GetHandle();
 145:ili9341_ui_driver.hpp ****         // spi_h->Instance->CFG1 |= SPI_CFG1_DSIZE_3;
 146:ili9341_ui_driver.hpp ****         // spi_h->Instance->CFG2 |= SPI_CFG2_LSBFRST;
ARM GAS  /var/folders/hl/qgbwny5j0fd895c2c41bk3tw0000gp/T//cchkzwyh.s 			page 13


 147:ili9341_ui_driver.hpp ****         // spi_h->Init.DataSize = SPI_DATASIZE_16BIT; // 15;
 148:ili9341_ui_driver.hpp **** 
 149:ili9341_ui_driver.hpp ****         return SendDataDMA(frame_buffer, buf_chunk_size);
 150:ili9341_ui_driver.hpp ****     };
 151:ili9341_ui_driver.hpp **** 
 152:ili9341_ui_driver.hpp ****     SpiHandle::Result SendDataDMA(uint8_t* buff, size_t size)
 153:ili9341_ui_driver.hpp ****     {
 154:ili9341_ui_driver.hpp ****         dsy_gpio_write(&pin_dc_, 1);
 155:ili9341_ui_driver.hpp ****         return spi_.DmaTransmit(buff, size, nullptr, &TxCompleteCallback, this);
 156:ili9341_ui_driver.hpp ****     };
 157:ili9341_ui_driver.hpp **** 
 158:ili9341_ui_driver.hpp ****     uint32_t GetTransferSize() const
 114              		.loc 8 158 14 view .LVU22
 115              	.LBB301:
 159:ili9341_ui_driver.hpp ****     {
 160:ili9341_ui_driver.hpp ****         return remaining_buff < buf_chunk_size ? remaining_buff
 116              		.loc 8 160 9 view .LVU23
 117              	.LBE301:
 118              	.LBE300:
 119              	.LBE299:
 120              	.LBE298:
 108:ili9341_ui_driver.hpp ****     {
 121              		.loc 8 108 17 is_stmt 0 view .LVU24
 122 0002 F0B5     		push	{r4, r5, r6, r7, lr}
 123              		.cfi_def_cfa_offset 20
 124              		.cfi_offset 4, -20
 125              		.cfi_offset 5, -16
 126              		.cfi_offset 6, -12
 127              		.cfi_offset 7, -8
 128              		.cfi_offset 14, -4
 129              	.LBB315:
 130              	.LBB312:
 131              	.LBB304:
 132              	.LBB302:
 133              		.loc 8 160 16 view .LVU25
 134 0004 4768     		ldr	r7, [r0, #4]
 135              	.LBE302:
 136              	.LBE304:
 137              	.LBE312:
 138              	.LBE315:
 108:ili9341_ui_driver.hpp ****     {
 139              		.loc 8 108 17 view .LVU26
 140 0006 83B0     		sub	sp, sp, #12
 141              		.cfi_def_cfa_offset 32
 142              	.LBB316:
 143              	.LBB313:
 144              	.LBB305:
 145              	.LBB303:
 146              		.loc 8 160 31 view .LVU27
 147 0008 0689     		ldrh	r6, [r0, #8]
 148 000a 0446     		mov	r4, r0
 161:ili9341_ui_driver.hpp ****                                                : buf_chunk_size;
 149              		.loc 8 161 50 view .LVU28
 150 000c BE42     		cmp	r6, r7
 151 000e 28BF     		it	cs
 152 0010 3E46     		movcs	r6, r7
 153              	.LVL3:
ARM GAS  /var/folders/hl/qgbwny5j0fd895c2c41bk3tw0000gp/T//cchkzwyh.s 			page 14


 154              		.loc 8 161 50 view .LVU29
 155              	.LBE303:
 156              	.LBE305:
 114:ili9341_ui_driver.hpp ****             if(transport->remaining_buff > 0)
 157              		.loc 8 114 13 is_stmt 1 view .LVU30
 114:ili9341_ui_driver.hpp ****             if(transport->remaining_buff > 0)
 158              		.loc 8 114 39 is_stmt 0 view .LVU31
 159 0012 BB1B     		subs	r3, r7, r6
 160 0014 4360     		str	r3, [r0, #4]
 115:ili9341_ui_driver.hpp ****             {
 161              		.loc 8 115 13 is_stmt 1 view .LVU32
 162 0016 1BB9     		cbnz	r3, .L10
 128:ili9341_ui_driver.hpp **** 
 163              		.loc 8 128 17 view .LVU33
 128:ili9341_ui_driver.hpp **** 
 164              		.loc 8 128 37 is_stmt 0 view .LVU34
 165 0018 0370     		strb	r3, [r0]
 166              	.LVL4:
 128:ili9341_ui_driver.hpp **** 
 167              		.loc 8 128 37 view .LVU35
 168              	.LBE313:
 169              	.LBE316:
 137:ili9341_ui_driver.hpp **** 
 170              		.loc 8 137 5 view .LVU36
 171 001a 03B0     		add	sp, sp, #12
 172              		.cfi_def_cfa_offset 20
 173              		@ sp needed
 174 001c F0BD     		pop	{r4, r5, r6, r7, pc}
 175              	.L7:
 176              		.cfi_def_cfa_offset 0
 177              		.cfi_restore 4
 178              		.cfi_restore 5
 179              		.cfi_restore 6
 180              		.cfi_restore 7
 181              		.cfi_restore 14
 182 001e 7047     		bx	lr
 183              	.LVL5:
 184              	.L10:
 185              		.cfi_def_cfa_offset 32
 186              		.cfi_offset 4, -20
 187              		.cfi_offset 5, -16
 188              		.cfi_offset 6, -12
 189              		.cfi_offset 7, -8
 190              		.cfi_offset 14, -4
 191              	.LBB317:
 192              	.LBB314:
 117:ili9341_ui_driver.hpp ****                     &frame_buffer[buffer_size - transport->remaining_buff],
 193              		.loc 8 117 17 is_stmt 1 view .LVU37
 194              	.LBB306:
 195              	.LBI306:
 152:ili9341_ui_driver.hpp ****     {
 196              		.loc 8 152 23 view .LVU38
 197              	.LBB307:
 154:ili9341_ui_driver.hpp ****         return spi_.DmaTransmit(buff, size, nullptr, &TxCompleteCallback, this);
 198              		.loc 8 154 9 view .LVU39
 199              	.LBE307:
 200              	.LBE306:
ARM GAS  /var/folders/hl/qgbwny5j0fd895c2c41bk3tw0000gp/T//cchkzwyh.s 			page 15


 118:ili9341_ui_driver.hpp ****                     transfer_size);
 201              		.loc 8 118 47 is_stmt 0 view .LVU40
 202 0020 C7F51637 		rsb	r7, r7, #153600
 203              	.LVL6:
 118:ili9341_ui_driver.hpp ****                     transfer_size);
 204              		.loc 8 118 47 view .LVU41
 205 0024 0D46     		mov	r5, r1
 206              	.LBB310:
 207              	.LBB308:
 154:ili9341_ui_driver.hpp ****         return spi_.DmaTransmit(buff, size, nullptr, &TxCompleteCallback, this);
 208              		.loc 8 154 23 view .LVU42
 209 0026 4030     		adds	r0, r0, #64
 210              	.LVL7:
 154:ili9341_ui_driver.hpp ****         return spi_.DmaTransmit(buff, size, nullptr, &TxCompleteCallback, this);
 211              		.loc 8 154 23 view .LVU43
 212 0028 0121     		movs	r1, #1
 213              	.LVL8:
 154:ili9341_ui_driver.hpp ****         return spi_.DmaTransmit(buff, size, nullptr, &TxCompleteCallback, this);
 214              		.loc 8 154 23 view .LVU44
 215 002a FFF7FEFF 		bl	dsy_gpio_write
 216              	.LVL9:
 155:ili9341_ui_driver.hpp ****     };
 217              		.loc 8 155 9 is_stmt 1 view .LVU45
 218              	.LBE308:
 219              	.LBE310:
 118:ili9341_ui_driver.hpp ****                     transfer_size);
 220              		.loc 8 118 47 is_stmt 0 view .LVU46
 221 002e 3744     		add	r7, r7, r6
 117:ili9341_ui_driver.hpp ****                     &frame_buffer[buffer_size - transport->remaining_buff],
 222              		.loc 8 117 39 view .LVU47
 223 0030 0649     		ldr	r1, .L11
 224              	.LBB311:
 225              	.LBB309:
 155:ili9341_ui_driver.hpp ****     };
 226              		.loc 8 155 32 view .LVU48
 227 0032 04F10C00 		add	r0, r4, #12
 228 0036 0194     		str	r4, [sp, #4]
 229 0038 2B46     		mov	r3, r5
 230 003a 054C     		ldr	r4, .L11+4
 231              	.LVL10:
 155:ili9341_ui_driver.hpp ****     };
 232              		.loc 8 155 32 view .LVU49
 233 003c 3944     		add	r1, r1, r7
 234 003e 3246     		mov	r2, r6
 235 0040 0094     		str	r4, [sp]
 236 0042 FFF7FEFF 		bl	_ZN5daisy9SpiHandle11DmaTransmitEPhjPFvPvEPFvS2_NS0_6ResultEES2_
 237              	.LVL11:
 155:ili9341_ui_driver.hpp ****     };
 238              		.loc 8 155 32 view .LVU50
 239              	.LBE309:
 240              	.LBE311:
 241              	.LBE314:
 242              	.LBE317:
 137:ili9341_ui_driver.hpp **** 
 243              		.loc 8 137 5 view .LVU51
 244 0046 03B0     		add	sp, sp, #12
 245              		.cfi_def_cfa_offset 20
ARM GAS  /var/folders/hl/qgbwny5j0fd895c2c41bk3tw0000gp/T//cchkzwyh.s 			page 16


 246              		@ sp needed
 247 0048 F0BD     		pop	{r4, r5, r6, r7, pc}
 248              	.LVL12:
 249              	.L12:
 137:ili9341_ui_driver.hpp **** 
 250              		.loc 8 137 5 view .LVU52
 251 004a 00BF     		.align	2
 252              	.L11:
 253 004c 00000000 		.word	_ZN19ILI9341SpiTransport12frame_bufferE
 254 0050 00000000 		.word	_ZN19ILI9341SpiTransport18TxCompleteCallbackEPvN5daisy9SpiHandle6ResultE
 255              		.cfi_endproc
 256              	.LFE2549:
 258              		.section	.rodata._ZN8UiDriver10InitDriverEv.str1.4,"aMS",%progbits,1
 259              		.align	2
 260              	.LC3:
 261 0000 08822700 		.ascii	"\010\202'\000"
 262              		.align	2
 263              	.LC4:
 264 0004 0F312B0C 		.ascii	"\0171+\014\016\010N\3617\007\020\003\016\011\000"
 264      0E084EF1 
 264      37071003 
 264      0E0900
 265              		.section	.text._ZN8UiDriver10InitDriverEv,"axG",%progbits,_ZN8UiDriver10InitDriverEv,comdat
 266              		.align	1
 267              		.p2align 2,,3
 268              		.weak	_ZN8UiDriver10InitDriverEv
 269              		.syntax unified
 270              		.thumb
 271              		.thumb_func
 272              		.fpu fpv5-d16
 274              	_ZN8UiDriver10InitDriverEv:
 275              	.LVL13:
 276              	.LFB2561:
 162:ili9341_ui_driver.hpp ****         // return remaining_buff < 2 * buf_chunk_size ? remaining_buff
 163:ili9341_ui_driver.hpp ****         //                                            : 2 * buf_chunk_size;
 164:ili9341_ui_driver.hpp ****     }
 165:ili9341_ui_driver.hpp **** 
 166:ili9341_ui_driver.hpp ****     SpiHandle::Result SendCommand(uint8_t cmd)
 167:ili9341_ui_driver.hpp ****     {
 168:ili9341_ui_driver.hpp ****         dsy_gpio_write(&pin_dc_, 0);
 169:ili9341_ui_driver.hpp ****         return spi_.BlockingTransmit(&cmd, 1);
 170:ili9341_ui_driver.hpp ****     };
 171:ili9341_ui_driver.hpp **** 
 172:ili9341_ui_driver.hpp ****     SpiHandle::Result SendData(uint8_t* buff, size_t size)
 173:ili9341_ui_driver.hpp ****     {
 174:ili9341_ui_driver.hpp ****         dsy_gpio_write(&pin_dc_, 1);
 175:ili9341_ui_driver.hpp ****         return spi_.BlockingTransmit(buff, size);
 176:ili9341_ui_driver.hpp ****     };
 177:ili9341_ui_driver.hpp **** 
 178:ili9341_ui_driver.hpp ****     void SetAddressWindow(uint16_t x0, uint16_t y0, uint16_t x1, uint16_t y1)
 179:ili9341_ui_driver.hpp ****     {
 180:ili9341_ui_driver.hpp ****         // column address set
 181:ili9341_ui_driver.hpp ****         SendCommand(0x2A); // CASET
 182:ili9341_ui_driver.hpp ****         {
 183:ili9341_ui_driver.hpp ****             uint8_t data[4] = {static_cast<uint8_t>((x0 >> 8) & 0xFF),
 184:ili9341_ui_driver.hpp ****                                static_cast<uint8_t>(x0 & 0xFF),
 185:ili9341_ui_driver.hpp ****                                static_cast<uint8_t>((x1 >> 8) & 0xFF),
ARM GAS  /var/folders/hl/qgbwny5j0fd895c2c41bk3tw0000gp/T//cchkzwyh.s 			page 17


 186:ili9341_ui_driver.hpp ****                                static_cast<uint8_t>(x1 & 0xFF)};
 187:ili9341_ui_driver.hpp ****             SendData(data, 4);
 188:ili9341_ui_driver.hpp ****         }
 189:ili9341_ui_driver.hpp **** 
 190:ili9341_ui_driver.hpp ****         // row address set
 191:ili9341_ui_driver.hpp ****         SendCommand(0x2B); // RASET
 192:ili9341_ui_driver.hpp ****         {
 193:ili9341_ui_driver.hpp ****             uint8_t data[4] = {static_cast<uint8_t>((y0 >> 8) & 0xFF),
 194:ili9341_ui_driver.hpp ****                                static_cast<uint8_t>(y0 & 0xFF),
 195:ili9341_ui_driver.hpp ****                                static_cast<uint8_t>((y1 >> 8) & 0xFF),
 196:ili9341_ui_driver.hpp ****                                static_cast<uint8_t>(y1 & 0xFF)};
 197:ili9341_ui_driver.hpp ****             SendData(data, 4);
 198:ili9341_ui_driver.hpp ****         }
 199:ili9341_ui_driver.hpp **** 
 200:ili9341_ui_driver.hpp ****         // write to RAM
 201:ili9341_ui_driver.hpp ****         SendCommand(0x2C); // RAMWR
 202:ili9341_ui_driver.hpp ****     }
 203:ili9341_ui_driver.hpp **** 
 204:ili9341_ui_driver.hpp ****     void PaintPixel(uint32_t id, uint8_t color_id, uint8_t alpha = 255) const
 205:ili9341_ui_driver.hpp ****     {
 206:ili9341_ui_driver.hpp ****         auto color = tftPalette[color_id];
 207:ili9341_ui_driver.hpp **** 
 208:ili9341_ui_driver.hpp ****         if(alpha != 255)
 209:ili9341_ui_driver.hpp ****         {
 210:ili9341_ui_driver.hpp ****             auto bg_color = tftPalette[color_mem[id]];
 211:ili9341_ui_driver.hpp ****             color         = Blend565(color, bg_color, alpha);
 212:ili9341_ui_driver.hpp ****         }
 213:ili9341_ui_driver.hpp **** 
 214:ili9341_ui_driver.hpp ****         color_mem[id] = color_id;
 215:ili9341_ui_driver.hpp **** 
 216:ili9341_ui_driver.hpp ****         frame_buffer[id]     = color >> 8;
 217:ili9341_ui_driver.hpp ****         frame_buffer[id + 1] = color & 0xFF;
 218:ili9341_ui_driver.hpp ****     }
 219:ili9341_ui_driver.hpp **** 
 220:ili9341_ui_driver.hpp ****     uint16_t GetPixel(uint32_t id) { return color_mem[id]; }
 221:ili9341_ui_driver.hpp **** 
 222:ili9341_ui_driver.hpp ****     bool     dma_busy       = false;
 223:ili9341_ui_driver.hpp ****     uint32_t remaining_buff = 0;
 224:ili9341_ui_driver.hpp **** 
 225:ili9341_ui_driver.hpp ****     static uint32_t const buffer_size    = 153600;          // 320 * 240 * 2
 226:ili9341_ui_driver.hpp ****     const uint16_t        buf_chunk_size = buffer_size / 3; // 8bit data
 227:ili9341_ui_driver.hpp ****     // const uint16_t buf_chunk_size = buffer_size / 4; // 16bit data
 228:ili9341_ui_driver.hpp **** 
 229:ili9341_ui_driver.hpp ****     static uint8_t DMA_BUFFER_MEM_SECTION frame_buffer[buffer_size];
 230:ili9341_ui_driver.hpp ****     static uint8_t DSY_SDRAM_BSS          color_mem[buffer_size / 2];
 231:ili9341_ui_driver.hpp ****     SpiHandle                             spi_;
 232:ili9341_ui_driver.hpp **** 
 233:ili9341_ui_driver.hpp ****     uint16_t tftPalette[NUMBER_OF_TFT_COLORS];
 234:ili9341_ui_driver.hpp **** 
 235:ili9341_ui_driver.hpp ****   private:
 236:ili9341_ui_driver.hpp ****     dsy_gpio pin_reset_;
 237:ili9341_ui_driver.hpp ****     dsy_gpio pin_dc_;
 238:ili9341_ui_driver.hpp ****     dsy_gpio pin_cs_;
 239:ili9341_ui_driver.hpp **** 
 240:ili9341_ui_driver.hpp **** 
 241:ili9341_ui_driver.hpp ****     //   rrrrrggggggbbbbb
 242:ili9341_ui_driver.hpp **** #define MASK_RB 63519       // 0b1111100000011111
ARM GAS  /var/folders/hl/qgbwny5j0fd895c2c41bk3tw0000gp/T//cchkzwyh.s 			page 18


 243:ili9341_ui_driver.hpp **** #define MASK_G 2016         // 0b0000011111100000
 244:ili9341_ui_driver.hpp **** #define MASK_MUL_RB 4065216 // 0b1111100000011111000000
 245:ili9341_ui_driver.hpp **** #define MASK_MUL_G 129024   // 0b0000011111100000000000
 246:ili9341_ui_driver.hpp **** #define MAX_ALPHA 64        // 6bits+1 with rounding
 247:ili9341_ui_driver.hpp **** 
 248:ili9341_ui_driver.hpp ****     uint16_t Blend565(uint16_t fg, uint16_t bg, uint8_t alpha) const
 249:ili9341_ui_driver.hpp ****     {
 250:ili9341_ui_driver.hpp ****         // alpha for foreground multiplication
 251:ili9341_ui_driver.hpp ****         // convert from 8bit to (6bit+1) with rounding
 252:ili9341_ui_driver.hpp ****         // will be in [0..64] inclusive
 253:ili9341_ui_driver.hpp ****         alpha = (alpha + 2) >> 2;
 254:ili9341_ui_driver.hpp ****         // "beta" for background multiplication; (6bit+1);
 255:ili9341_ui_driver.hpp ****         // will be in [0..64] inclusive
 256:ili9341_ui_driver.hpp ****         uint8_t beta = MAX_ALPHA - alpha;
 257:ili9341_ui_driver.hpp ****         // so (0..64)*alpha + (0..64)*beta always in 0..64
 258:ili9341_ui_driver.hpp **** 
 259:ili9341_ui_driver.hpp ****         return (uint16_t)((((alpha * (uint32_t)(fg & MASK_RB)
 260:ili9341_ui_driver.hpp ****                              + beta * (uint32_t)(bg & MASK_RB))
 261:ili9341_ui_driver.hpp ****                             & MASK_MUL_RB)
 262:ili9341_ui_driver.hpp ****                            | ((alpha * (fg & MASK_G) + beta * (bg & MASK_G))
 263:ili9341_ui_driver.hpp ****                               & MASK_MUL_G))
 264:ili9341_ui_driver.hpp ****                           >> 6);
 265:ili9341_ui_driver.hpp ****     }
 266:ili9341_ui_driver.hpp **** 
 267:ili9341_ui_driver.hpp ****     /*
 268:ili9341_ui_driver.hpp ****   result masks of multiplications
 269:ili9341_ui_driver.hpp ****   uppercase: usable bits of multiplications
 270:ili9341_ui_driver.hpp ****   RRRRRrrrrrrBBBBBbbbbbb // 5-5 bits of red+blue
 271:ili9341_ui_driver.hpp ****         1111100000011111 // from MASK_RB * 1
 272:ili9341_ui_driver.hpp ****   1111100000011111000000 //   to MASK_RB * MAX_ALPHA // 22 bits!
 273:ili9341_ui_driver.hpp **** 
 274:ili9341_ui_driver.hpp **** 
 275:ili9341_ui_driver.hpp ****   -----GGGGGGgggggg----- // 6 bits of green
 276:ili9341_ui_driver.hpp ****         0000011111100000 // from MASK_G * 1
 277:ili9341_ui_driver.hpp ****   0000011111100000000000 //   to MASK_G * MAX_ALPHA
 278:ili9341_ui_driver.hpp **** */
 279:ili9341_ui_driver.hpp **** 
 280:ili9341_ui_driver.hpp **** 
 281:ili9341_ui_driver.hpp ****     void InitPalette()
 282:ili9341_ui_driver.hpp ****     {
 283:ili9341_ui_driver.hpp ****         // HEX to RBG565 converter: https://trolsoft.ru/en/articles/rgb565-color-picker
 284:ili9341_ui_driver.hpp ****         tftPalette[COLOR_BLACK]       = 0x0000;
 285:ili9341_ui_driver.hpp ****         tftPalette[COLOR_WHITE]       = 0xffff;
 286:ili9341_ui_driver.hpp ****         tftPalette[COLOR_BLUE]        = 0x5AFF;
 287:ili9341_ui_driver.hpp ****         tftPalette[COLOR_DARK_BLUE]   = 0x18EB;
 288:ili9341_ui_driver.hpp ****         tftPalette[COLOR_YELLOW]      = 0xFFE0;
 289:ili9341_ui_driver.hpp ****         tftPalette[COLOR_DARK_YELLOW] = 0x49E1;
 290:ili9341_ui_driver.hpp ****         tftPalette[COLOR_RED]         = 0xF9E1; // 0xff4010
 291:ili9341_ui_driver.hpp ****         tftPalette[COLOR_DARK_RED]    = 0x4880; // 0x401000
 292:ili9341_ui_driver.hpp ****         tftPalette[COLOR_GREEN]       = 0x3FE7; // 0x40ff40
 293:ili9341_ui_driver.hpp ****         tftPalette[COLOR_DARK_GREEN]  = 0x01E0; // 0x004000
 294:ili9341_ui_driver.hpp ****         tftPalette[COLOR_LIGHT_GRAY]  = 0xAD75; // 0xb0b0b0
 295:ili9341_ui_driver.hpp ****         tftPalette[COLOR_MEDIUM_GRAY] = 0x8C71; // 0x909090
 296:ili9341_ui_driver.hpp ****         tftPalette[COLOR_GRAY]        = 0x5AEB; // 0x606060
 297:ili9341_ui_driver.hpp ****         tftPalette[COLOR_DARK_GRAY]   = 0x2965; // 0x303030
 298:ili9341_ui_driver.hpp ****         tftPalette[COLOR_CYAN]        = 0x76FD; // 0x76dfef
 299:ili9341_ui_driver.hpp ****         tftPalette[COLOR_ORANGE]      = 0xFBE0; // 0xff7f00
ARM GAS  /var/folders/hl/qgbwny5j0fd895c2c41bk3tw0000gp/T//cchkzwyh.s 			page 19


 300:ili9341_ui_driver.hpp ****         tftPalette[COLOR_LIGHT_GREEN] = 0x6FED; // 0x70ff70
 301:ili9341_ui_driver.hpp ****         // tftPalette[COLOR_ABL_BG]      = (0x2104); // 0x212121
 302:ili9341_ui_driver.hpp ****         tftPalette[COLOR_ABL_BG]     = 0x4A69; // #4D4D4D
 303:ili9341_ui_driver.hpp ****         tftPalette[COLOR_ABL_LINE]   = 0x39E7; // 0x3d3d3d
 304:ili9341_ui_driver.hpp ****         tftPalette[COLOR_ABL_D_LINE] = 0x31A6; // 0x363636
 305:ili9341_ui_driver.hpp ****         tftPalette[COLOR_ABL_L_GRAY] = 0x52AA; // 0x555555
 306:ili9341_ui_driver.hpp ****         tftPalette[COLOR_ABL_M_GRAY] = 0x4228; // 0x454545
 307:ili9341_ui_driver.hpp ****     }
 308:ili9341_ui_driver.hpp **** };
 309:ili9341_ui_driver.hpp **** 
 310:ili9341_ui_driver.hpp **** 
 311:ili9341_ui_driver.hpp **** /**
 312:ili9341_ui_driver.hpp ****  * A driver implementation for the ILI9341
 313:ili9341_ui_driver.hpp ****  */
 314:ili9341_ui_driver.hpp **** // class ILI9341Driver
 315:ili9341_ui_driver.hpp **** class UiDriver
 316:ili9341_ui_driver.hpp **** {
 317:ili9341_ui_driver.hpp ****   public:
 318:ili9341_ui_driver.hpp ****     enum class Orientation
 319:ili9341_ui_driver.hpp ****     {
 320:ili9341_ui_driver.hpp ****         Default = 0,
 321:ili9341_ui_driver.hpp ****         RRight,
 322:ili9341_ui_driver.hpp ****         RLeft,
 323:ili9341_ui_driver.hpp ****         UpsideDown,
 324:ili9341_ui_driver.hpp ****     };
 325:ili9341_ui_driver.hpp **** 
 326:ili9341_ui_driver.hpp ****     void Init()
 327:ili9341_ui_driver.hpp ****     {
 328:ili9341_ui_driver.hpp ****         screen_update_period_ = 17; // 17 is roughly 60Hz
 329:ili9341_ui_driver.hpp ****         screen_update_last_   = System::GetNow();
 330:ili9341_ui_driver.hpp **** 
 331:ili9341_ui_driver.hpp ****         InitDriver();
 332:ili9341_ui_driver.hpp ****     }
 333:ili9341_ui_driver.hpp **** 
 334:ili9341_ui_driver.hpp ****     void InitDriver()
 277              		.loc 8 334 10 is_stmt 1 view -0
 278              		.cfi_startproc
 279              		@ args = 0, pretend = 0, frame = 40
 280              		@ frame_needed = 0, uses_anonymous_args = 0
 335:ili9341_ui_driver.hpp ****     {
 336:ili9341_ui_driver.hpp ****         transport_.Init();
 281              		.loc 8 336 9 view .LVU54
 334:ili9341_ui_driver.hpp ****     {
 282              		.loc 8 334 10 is_stmt 0 view .LVU55
 283 0000 2DE9F04F 		push	{r4, r5, r6, r7, r8, r9, r10, fp, lr}
 284              		.cfi_def_cfa_offset 36
 285              		.cfi_offset 4, -36
 286              		.cfi_offset 5, -32
 287              		.cfi_offset 6, -28
 288              		.cfi_offset 7, -24
 289              		.cfi_offset 8, -20
 290              		.cfi_offset 9, -16
 291              		.cfi_offset 10, -12
 292              		.cfi_offset 11, -8
 293              		.cfi_offset 14, -4
 294              	.LBB428:
 295              	.LBB429:
ARM GAS  /var/folders/hl/qgbwny5j0fd895c2c41bk3tw0000gp/T//cchkzwyh.s 			page 20


  70:ili9341_ui_driver.hpp ****         spi_config.pin_config.mosi = psm.GetPin(DaisyPatchSM::PinBank::D, 9);
 296              		.loc 8 70 77 view .LVU56
 297 0004 F94D     		ldr	r5, .L15
 298              	.LBE429:
 299              	.LBE428:
 334:ili9341_ui_driver.hpp ****     {
 300              		.loc 8 334 10 view .LVU57
 301 0006 8BB0     		sub	sp, sp, #44
 302              		.cfi_def_cfa_offset 80
 303              	.LBB446:
 304              	.LBB442:
  62:ili9341_ui_driver.hpp ****         spi_config.mode      = SpiHandle::Config::Mode::MASTER;
 305              		.loc 8 62 30 view .LVU58
 306 0008 0124     		movs	r4, #1
 307              	.LBB430:
 308              	.LBB431:
 309              	.LBB432:
 310              		.file 9 "../../libDaisy//src/per/spi.h"
   1:../../libDaisy//src/per/spi.h **** #pragma once
   2:../../libDaisy//src/per/spi.h **** #ifndef DSY_SPI_H
   3:../../libDaisy//src/per/spi.h **** #define DSY_SPI_H
   4:../../libDaisy//src/per/spi.h **** 
   5:../../libDaisy//src/per/spi.h **** #include "daisy_core.h"
   6:../../libDaisy//src/per/spi.h **** 
   7:../../libDaisy//src/per/spi.h **** /* TODO:
   8:../../libDaisy//src/per/spi.h **** - Add documentation
   9:../../libDaisy//src/per/spi.h **** - Add IT
  10:../../libDaisy//src/per/spi.h **** */
  11:../../libDaisy//src/per/spi.h **** 
  12:../../libDaisy//src/per/spi.h **** namespace daisy
  13:../../libDaisy//src/per/spi.h **** {
  14:../../libDaisy//src/per/spi.h **** /** @addtogroup serial
  15:../../libDaisy//src/per/spi.h **** @{
  16:../../libDaisy//src/per/spi.h **** */
  17:../../libDaisy//src/per/spi.h **** 
  18:../../libDaisy//src/per/spi.h **** /**  Handler for serial peripheral interface */
  19:../../libDaisy//src/per/spi.h **** class SpiHandle
  20:../../libDaisy//src/per/spi.h **** {
  21:../../libDaisy//src/per/spi.h ****   public:
  22:../../libDaisy//src/per/spi.h ****     struct Config
  23:../../libDaisy//src/per/spi.h ****     {
  24:../../libDaisy//src/per/spi.h ****         enum class Peripheral
  25:../../libDaisy//src/per/spi.h ****         {
  26:../../libDaisy//src/per/spi.h ****             SPI_1,
  27:../../libDaisy//src/per/spi.h ****             SPI_2,
  28:../../libDaisy//src/per/spi.h ****             SPI_3,
  29:../../libDaisy//src/per/spi.h ****             SPI_4,
  30:../../libDaisy//src/per/spi.h ****             SPI_5,
  31:../../libDaisy//src/per/spi.h ****             SPI_6,
  32:../../libDaisy//src/per/spi.h ****         };
  33:../../libDaisy//src/per/spi.h **** 
  34:../../libDaisy//src/per/spi.h ****         enum class Mode
  35:../../libDaisy//src/per/spi.h ****         {
  36:../../libDaisy//src/per/spi.h ****             MASTER,
  37:../../libDaisy//src/per/spi.h ****             SLAVE,
  38:../../libDaisy//src/per/spi.h ****         };
  39:../../libDaisy//src/per/spi.h **** 
ARM GAS  /var/folders/hl/qgbwny5j0fd895c2c41bk3tw0000gp/T//cchkzwyh.s 			page 21


  40:../../libDaisy//src/per/spi.h ****         enum class Direction
  41:../../libDaisy//src/per/spi.h ****         {
  42:../../libDaisy//src/per/spi.h ****             TWO_LINES,
  43:../../libDaisy//src/per/spi.h ****             TWO_LINES_TX_ONLY,
  44:../../libDaisy//src/per/spi.h ****             TWO_LINES_RX_ONLY,
  45:../../libDaisy//src/per/spi.h ****             ONE_LINE,
  46:../../libDaisy//src/per/spi.h ****         };
  47:../../libDaisy//src/per/spi.h **** 
  48:../../libDaisy//src/per/spi.h ****         enum class ClockPolarity
  49:../../libDaisy//src/per/spi.h ****         {
  50:../../libDaisy//src/per/spi.h ****             LOW,
  51:../../libDaisy//src/per/spi.h ****             HIGH,
  52:../../libDaisy//src/per/spi.h ****         };
  53:../../libDaisy//src/per/spi.h **** 
  54:../../libDaisy//src/per/spi.h ****         enum class ClockPhase
  55:../../libDaisy//src/per/spi.h ****         {
  56:../../libDaisy//src/per/spi.h ****             ONE_EDGE,
  57:../../libDaisy//src/per/spi.h ****             TWO_EDGE,
  58:../../libDaisy//src/per/spi.h ****         };
  59:../../libDaisy//src/per/spi.h **** 
  60:../../libDaisy//src/per/spi.h ****         enum class NSS
  61:../../libDaisy//src/per/spi.h ****         {
  62:../../libDaisy//src/per/spi.h ****             SOFT,
  63:../../libDaisy//src/per/spi.h ****             HARD_INPUT,
  64:../../libDaisy//src/per/spi.h ****             HARD_OUTPUT,
  65:../../libDaisy//src/per/spi.h ****         };
  66:../../libDaisy//src/per/spi.h **** 
  67:../../libDaisy//src/per/spi.h ****         enum class BaudPrescaler
  68:../../libDaisy//src/per/spi.h ****         {
  69:../../libDaisy//src/per/spi.h ****             PS_2,
  70:../../libDaisy//src/per/spi.h ****             PS_4,
  71:../../libDaisy//src/per/spi.h ****             PS_8,
  72:../../libDaisy//src/per/spi.h ****             PS_16,
  73:../../libDaisy//src/per/spi.h ****             PS_32,
  74:../../libDaisy//src/per/spi.h ****             PS_64,
  75:../../libDaisy//src/per/spi.h ****             PS_128,
  76:../../libDaisy//src/per/spi.h ****             PS_256,
  77:../../libDaisy//src/per/spi.h ****         };
  78:../../libDaisy//src/per/spi.h **** 
  79:../../libDaisy//src/per/spi.h ****         struct
  80:../../libDaisy//src/per/spi.h ****         {
  81:../../libDaisy//src/per/spi.h ****             dsy_gpio_pin sclk; /**< & */
  82:../../libDaisy//src/per/spi.h ****             dsy_gpio_pin miso; /**< & */
  83:../../libDaisy//src/per/spi.h ****             dsy_gpio_pin mosi; /**< & */
  84:../../libDaisy//src/per/spi.h ****             dsy_gpio_pin nss;  /**< & */
  85:../../libDaisy//src/per/spi.h ****         } pin_config;
  86:../../libDaisy//src/per/spi.h **** 
  87:../../libDaisy//src/per/spi.h ****         Config()
  88:../../libDaisy//src/per/spi.h ****         {
  89:../../libDaisy//src/per/spi.h ****             // user must specify periph, mode, direction, nss, and pin_config
  90:../../libDaisy//src/per/spi.h ****             datasize       = 8;
  91:../../libDaisy//src/per/spi.h ****             clock_polarity = ClockPolarity::LOW;
 311              		.loc 9 91 28 view .LVU59
 312 000a 0027     		movs	r7, #0
  90:../../libDaisy//src/per/spi.h ****             clock_polarity = ClockPolarity::LOW;
 313              		.loc 9 90 28 view .LVU60
 314 000c 0823     		movs	r3, #8
ARM GAS  /var/folders/hl/qgbwny5j0fd895c2c41bk3tw0000gp/T//cchkzwyh.s 			page 22


 315              	.LBE432:
 316              	.LBE431:
 317              	.LBE430:
  68:ili9341_ui_driver.hpp ****         spi_config.datasize        = 8;
 318              		.loc 8 68 36 view .LVU61
 319 000e 4FF0020B 		mov	fp, #2
 320              	.LBE442:
 321              	.LBE446:
 334:ili9341_ui_driver.hpp ****     {
 322              		.loc 8 334 10 view .LVU62
 323 0012 8046     		mov	r8, r0
 324              	.LBB447:
 325              	.LBB443:
  70:ili9341_ui_driver.hpp ****         spi_config.pin_config.mosi = psm.GetPin(DaisyPatchSM::PinBank::D, 9);
 326              		.loc 8 70 77 view .LVU63
 327 0014 0A22     		movs	r2, #10
 328 0016 0321     		movs	r1, #3
 329 0018 2846     		mov	r0, r5
 330              	.LVL14:
 331              	.LBB439:
 332              	.LBB436:
 333              	.LBB433:
  90:../../libDaisy//src/per/spi.h ****             clock_polarity = ClockPolarity::LOW;
 334              		.loc 9 90 28 view .LVU64
 335 001a 0593     		str	r3, [sp, #20]
 336              	.LBE433:
 337              	.LBE436:
 338              	.LBE439:
  85:ili9341_ui_driver.hpp ****         // Reset pin
 339              		.loc 8 85 23 view .LVU65
 340 001c 08F14C06 		add	r6, r8, #76
  64:ili9341_ui_driver.hpp ****         spi_config.clock_polarity  = SpiHandle::Config::ClockPolarity::LOW;
 341              		.loc 8 64 30 view .LVU66
 342 0020 0494     		str	r4, [sp, #16]
  89:ili9341_ui_driver.hpp ****         // CS pin
 343              		.loc 8 89 23 view .LVU67
 344 0022 08F1480A 		add	r10, r8, #72
 345              	.LBE443:
 346              	.LBE447:
 347              	.LBB448:
 337:ili9341_ui_driver.hpp **** 
 338:ili9341_ui_driver.hpp ****         SetOrientation(Orientation::RLeft);
 339:ili9341_ui_driver.hpp **** 
 340:ili9341_ui_driver.hpp ****         transport_.Reset();
 341:ili9341_ui_driver.hpp **** 
 342:ili9341_ui_driver.hpp ****         //Software Reset
 343:ili9341_ui_driver.hpp ****         transport_.SendCommand(0x01);
 344:ili9341_ui_driver.hpp ****         System::Delay(100); // TODO: maybe less?
 345:ili9341_ui_driver.hpp **** 
 346:ili9341_ui_driver.hpp ****         // command list is based on https://github.com/martnak/STM32-ILI9341
 347:ili9341_ui_driver.hpp **** 
 348:ili9341_ui_driver.hpp ****         // POWER CONTROL A
 349:ili9341_ui_driver.hpp ****         transport_.SendCommand(0xCB);
 350:ili9341_ui_driver.hpp ****         {
 351:ili9341_ui_driver.hpp ****             uint8_t data[5] = {0x39, 0x2C, 0x00, 0x34, 0x02};
 348              		.loc 8 351 21 view .LVU68
 349 0026 DFF8D493 		ldr	r9, .L15+16
ARM GAS  /var/folders/hl/qgbwny5j0fd895c2c41bk3tw0000gp/T//cchkzwyh.s 			page 23


 350              	.LBE448:
 351              	.LBB453:
 352              	.LBB444:
 353              	.LBB440:
 354              	.LBB437:
 355              	.LBB434:
  92:../../libDaisy//src/per/spi.h ****             clock_phase    = ClockPhase::ONE_EDGE;
 356              		.loc 9 92 28 view .LVU69
 357 002a CDE90677 		strd	r7, r7, [sp, #24]
 358              	.LBE434:
 359              	.LBE437:
 360              	.LBE440:
  63:ili9341_ui_driver.hpp ****         spi_config.direction = SpiHandle::Config::Direction::TWO_LINES_TX_ONLY;
 361              		.loc 8 63 30 view .LVU70
 362 002e CDE90247 		strd	r4, r7, [sp, #8]
  68:ili9341_ui_driver.hpp ****         spi_config.datasize        = 8;
 363              		.loc 8 68 36 view .LVU71
 364 0032 CDE908B7 		strd	fp, r7, [sp, #32]
 365              	.LVL15:
  68:ili9341_ui_driver.hpp ****         spi_config.datasize        = 8;
 366              		.loc 8 68 36 view .LVU72
 367              	.LBE444:
 368              	.LBI428:
  58:ili9341_ui_driver.hpp ****     {
 369              		.loc 8 58 10 is_stmt 1 view .LVU73
 370              	.LBB445:
  61:ili9341_ui_driver.hpp ****         spi_config.periph    = SpiHandle::Config::Peripheral::SPI_2;
 371              		.loc 8 61 9 view .LVU74
 372              	.LBB441:
 373              	.LBI430:
  87:../../libDaisy//src/per/spi.h ****         {
 374              		.loc 9 87 9 view .LVU75
 375              	.LBB438:
 376              	.LBB435:
  90:../../libDaisy//src/per/spi.h ****             clock_polarity = ClockPolarity::LOW;
 377              		.loc 9 90 13 view .LVU76
  91:../../libDaisy//src/per/spi.h ****             clock_phase    = ClockPhase::ONE_EDGE;
 378              		.loc 9 91 13 view .LVU77
 379              		.loc 9 92 13 view .LVU78
  93:../../libDaisy//src/per/spi.h ****             baud_prescaler = BaudPrescaler::PS_8;
 380              		.loc 9 93 13 view .LVU79
 381              		.loc 9 93 13 is_stmt 0 view .LVU80
 382              	.LBE435:
 383              	.LBE438:
 384              	.LBE441:
  62:ili9341_ui_driver.hpp ****         spi_config.mode      = SpiHandle::Config::Mode::MASTER;
 385              		.loc 8 62 9 is_stmt 1 view .LVU81
  63:ili9341_ui_driver.hpp ****         spi_config.direction = SpiHandle::Config::Direction::TWO_LINES_TX_ONLY;
 386              		.loc 8 63 9 view .LVU82
  64:ili9341_ui_driver.hpp ****         spi_config.clock_polarity  = SpiHandle::Config::ClockPolarity::LOW;
 387              		.loc 8 64 9 view .LVU83
  65:ili9341_ui_driver.hpp ****         spi_config.baud_prescaler  = SpiHandle::Config::BaudPrescaler::PS_2;
 388              		.loc 8 65 9 view .LVU84
  66:ili9341_ui_driver.hpp ****         spi_config.clock_phase     = SpiHandle::Config::ClockPhase::ONE_EDGE;
 389              		.loc 8 66 9 view .LVU85
  67:ili9341_ui_driver.hpp ****         spi_config.nss             = SpiHandle::Config::NSS::HARD_OUTPUT;
 390              		.loc 8 67 9 view .LVU86
ARM GAS  /var/folders/hl/qgbwny5j0fd895c2c41bk3tw0000gp/T//cchkzwyh.s 			page 24


  68:ili9341_ui_driver.hpp ****         spi_config.datasize        = 8;
 391              		.loc 8 68 9 view .LVU87
  69:ili9341_ui_driver.hpp ****         spi_config.pin_config.sclk = psm.GetPin(DaisyPatchSM::PinBank::D, 10);
 392              		.loc 8 69 9 view .LVU88
  70:ili9341_ui_driver.hpp ****         spi_config.pin_config.mosi = psm.GetPin(DaisyPatchSM::PinBank::D, 9);
 393              		.loc 8 70 9 view .LVU89
  70:ili9341_ui_driver.hpp ****         spi_config.pin_config.mosi = psm.GetPin(DaisyPatchSM::PinBank::D, 9);
 394              		.loc 8 70 77 is_stmt 0 view .LVU90
 395 0036 FFF7FEFF 		bl	_ZN5daisy8patch_sm12DaisyPatchSM6GetPinENS1_7PinBankEi
 396              	.LVL16:
  71:ili9341_ui_driver.hpp ****         spi_config.pin_config.nss  = psm.GetPin(DaisyPatchSM::PinBank::D, 1);
 397              		.loc 8 71 76 view .LVU91
 398 003a 0922     		movs	r2, #9
  70:ili9341_ui_driver.hpp ****         spi_config.pin_config.mosi = psm.GetPin(DaisyPatchSM::PinBank::D, 9);
 399              		.loc 8 70 77 view .LVU92
 400 003c ADF80000 		strh	r0, [sp]	@ movhi
  71:ili9341_ui_driver.hpp ****         spi_config.pin_config.nss  = psm.GetPin(DaisyPatchSM::PinBank::D, 1);
 401              		.loc 8 71 9 is_stmt 1 view .LVU93
  71:ili9341_ui_driver.hpp ****         spi_config.pin_config.nss  = psm.GetPin(DaisyPatchSM::PinBank::D, 1);
 402              		.loc 8 71 76 is_stmt 0 view .LVU94
 403 0040 0321     		movs	r1, #3
 404 0042 2846     		mov	r0, r5
 405 0044 FFF7FEFF 		bl	_ZN5daisy8patch_sm12DaisyPatchSM6GetPinENS1_7PinBankEi
 406              	.LVL17:
  72:ili9341_ui_driver.hpp ****         // spi_config.pin_config.miso = {DSY_GPIOX, 0}; // not used
 407              		.loc 8 72 76 view .LVU95
 408 0048 2246     		mov	r2, r4
  71:ili9341_ui_driver.hpp ****         spi_config.pin_config.nss  = psm.GetPin(DaisyPatchSM::PinBank::D, 1);
 409              		.loc 8 71 76 view .LVU96
 410 004a ADF80400 		strh	r0, [sp, #4]	@ movhi
  72:ili9341_ui_driver.hpp ****         // spi_config.pin_config.miso = {DSY_GPIOX, 0}; // not used
 411              		.loc 8 72 9 is_stmt 1 view .LVU97
  72:ili9341_ui_driver.hpp ****         // spi_config.pin_config.miso = {DSY_GPIOX, 0}; // not used
 412              		.loc 8 72 76 is_stmt 0 view .LVU98
 413 004e 0321     		movs	r1, #3
 414 0050 2846     		mov	r0, r5
 415 0052 FFF7FEFF 		bl	_ZN5daisy8patch_sm12DaisyPatchSM6GetPinENS1_7PinBankEi
 416              	.LVL18:
  84:ili9341_ui_driver.hpp ****         dsy_gpio_init(&pin_dc_);
 417              		.loc 8 84 62 view .LVU99
 418 0056 5A46     		mov	r2, fp
 419 0058 3946     		mov	r1, r7
  72:ili9341_ui_driver.hpp ****         // spi_config.pin_config.miso = {DSY_GPIOX, 0}; // not used
 420              		.loc 8 72 76 view .LVU100
 421 005a ADF80600 		strh	r0, [sp, #6]	@ movhi
  83:ili9341_ui_driver.hpp ****         pin_dc_.pin  = psm.GetPin(DaisyPatchSM::PinBank::A, 2);
 422              		.loc 8 83 9 is_stmt 1 view .LVU101
  83:ili9341_ui_driver.hpp ****         pin_dc_.pin  = psm.GetPin(DaisyPatchSM::PinBank::A, 2);
 423              		.loc 8 83 22 is_stmt 0 view .LVU102
 424 005e 88F84E40 		strb	r4, [r8, #78]
  84:ili9341_ui_driver.hpp ****         dsy_gpio_init(&pin_dc_);
 425              		.loc 8 84 9 is_stmt 1 view .LVU103
  84:ili9341_ui_driver.hpp ****         dsy_gpio_init(&pin_dc_);
 426              		.loc 8 84 62 is_stmt 0 view .LVU104
 427 0062 2846     		mov	r0, r5
 428 0064 FFF7FEFF 		bl	_ZN5daisy8patch_sm12DaisyPatchSM6GetPinENS1_7PinBankEi
 429              	.LVL19:
ARM GAS  /var/folders/hl/qgbwny5j0fd895c2c41bk3tw0000gp/T//cchkzwyh.s 			page 25


 430 0068 A8F84C00 		strh	r0, [r8, #76]	@ movhi
  85:ili9341_ui_driver.hpp ****         // Reset pin
 431              		.loc 8 85 9 is_stmt 1 view .LVU105
  85:ili9341_ui_driver.hpp ****         // Reset pin
 432              		.loc 8 85 22 is_stmt 0 view .LVU106
 433 006c 3046     		mov	r0, r6
 434 006e FFF7FEFF 		bl	dsy_gpio_init
 435              	.LVL20:
  87:ili9341_ui_driver.hpp ****         pin_reset_.pin  = psm.GetPin(DaisyPatchSM::PinBank::A, 3);
 436              		.loc 8 87 9 is_stmt 1 view .LVU107
  88:ili9341_ui_driver.hpp ****         dsy_gpio_init(&pin_reset_);
 437              		.loc 8 88 65 is_stmt 0 view .LVU108
 438 0072 0322     		movs	r2, #3
 439 0074 3946     		mov	r1, r7
 440 0076 2846     		mov	r0, r5
  87:ili9341_ui_driver.hpp ****         pin_reset_.pin  = psm.GetPin(DaisyPatchSM::PinBank::A, 3);
 441              		.loc 8 87 25 view .LVU109
 442 0078 88F84A40 		strb	r4, [r8, #74]
  88:ili9341_ui_driver.hpp ****         dsy_gpio_init(&pin_reset_);
 443              		.loc 8 88 9 is_stmt 1 view .LVU110
  95:ili9341_ui_driver.hpp ****     };
 444              		.loc 8 95 18 is_stmt 0 view .LVU111
 445 007c 08F11805 		add	r5, r8, #24
  88:ili9341_ui_driver.hpp ****         dsy_gpio_init(&pin_reset_);
 446              		.loc 8 88 65 view .LVU112
 447 0080 FFF7FEFF 		bl	_ZN5daisy8patch_sm12DaisyPatchSM6GetPinENS1_7PinBankEi
 448              	.LVL21:
 449 0084 A8F84800 		strh	r0, [r8, #72]	@ movhi
  89:ili9341_ui_driver.hpp ****         // CS pin
 450              		.loc 8 89 9 is_stmt 1 view .LVU113
  89:ili9341_ui_driver.hpp ****         // CS pin
 451              		.loc 8 89 22 is_stmt 0 view .LVU114
 452 0088 5046     		mov	r0, r10
 453 008a FFF7FEFF 		bl	dsy_gpio_init
 454              	.LVL22:
  91:ili9341_ui_driver.hpp ****         pin_cs_.pin  = spi_config.pin_config.nss;
 455              		.loc 8 91 9 is_stmt 1 view .LVU115
  92:ili9341_ui_driver.hpp ****         dsy_gpio_init(&pin_cs_);
 456              		.loc 8 92 22 is_stmt 0 view .LVU116
 457 008e BDF80630 		ldrh	r3, [sp, #6]
 458 0092 4046     		mov	r0, r8
  91:ili9341_ui_driver.hpp ****         pin_cs_.pin  = spi_config.pin_config.nss;
 459              		.loc 8 91 22 view .LVU117
 460 0094 88F85240 		strb	r4, [r8, #82]
  92:ili9341_ui_driver.hpp ****         dsy_gpio_init(&pin_cs_);
 461              		.loc 8 92 9 is_stmt 1 view .LVU118
  92:ili9341_ui_driver.hpp ****         dsy_gpio_init(&pin_cs_);
 462              		.loc 8 92 22 is_stmt 0 view .LVU119
 463 0098 20F8503F 		strh	r3, [r0, #80]!	@ movhi
  93:ili9341_ui_driver.hpp **** 
 464              		.loc 8 93 9 is_stmt 1 view .LVU120
  93:ili9341_ui_driver.hpp **** 
 465              		.loc 8 93 22 is_stmt 0 view .LVU121
 466 009c FFF7FEFF 		bl	dsy_gpio_init
 467              	.LVL23:
  95:ili9341_ui_driver.hpp ****     };
 468              		.loc 8 95 9 is_stmt 1 view .LVU122
ARM GAS  /var/folders/hl/qgbwny5j0fd895c2c41bk3tw0000gp/T//cchkzwyh.s 			page 26


  95:ili9341_ui_driver.hpp ****     };
 469              		.loc 8 95 18 is_stmt 0 view .LVU123
 470 00a0 6946     		mov	r1, sp
 471 00a2 2846     		mov	r0, r5
 472 00a4 FFF7FEFF 		bl	_ZN5daisy9SpiHandle4InitERKNS0_6ConfigE
 473              	.LVL24:
  95:ili9341_ui_driver.hpp ****     };
 474              		.loc 8 95 18 view .LVU124
 475              	.LBE445:
 476              	.LBE453:
 338:ili9341_ui_driver.hpp **** 
 477              		.loc 8 338 9 is_stmt 1 view .LVU125
 478              	.LBB454:
 479              	.LBI454:
 352:ili9341_ui_driver.hpp ****             transport_.SendData(data, 5);
 353:ili9341_ui_driver.hpp ****         }
 354:ili9341_ui_driver.hpp **** 
 355:ili9341_ui_driver.hpp ****         // POWER CONTROL B
 356:ili9341_ui_driver.hpp ****         transport_.SendCommand(0xCF);
 357:ili9341_ui_driver.hpp ****         {
 358:ili9341_ui_driver.hpp ****             uint8_t data[3] = {0x00, 0xC1, 0x30};
 359:ili9341_ui_driver.hpp ****             transport_.SendData(data, 3);
 360:ili9341_ui_driver.hpp ****         }
 361:ili9341_ui_driver.hpp **** 
 362:ili9341_ui_driver.hpp ****         // DRIVER TIMING CONTROL A
 363:ili9341_ui_driver.hpp ****         transport_.SendCommand(0xE8);
 364:ili9341_ui_driver.hpp ****         {
 365:ili9341_ui_driver.hpp ****             uint8_t data[3] = {0x85, 0x00, 0x78};
 366:ili9341_ui_driver.hpp ****             transport_.SendData(data, 3);
 367:ili9341_ui_driver.hpp ****         }
 368:ili9341_ui_driver.hpp **** 
 369:ili9341_ui_driver.hpp ****         // DRIVER TIMING CONTROL B
 370:ili9341_ui_driver.hpp ****         transport_.SendCommand(0xEA);
 371:ili9341_ui_driver.hpp ****         {
 372:ili9341_ui_driver.hpp ****             uint8_t data[2] = {0x00, 0x00};
 373:ili9341_ui_driver.hpp ****             transport_.SendData(data, 2);
 374:ili9341_ui_driver.hpp ****         }
 375:ili9341_ui_driver.hpp **** 
 376:ili9341_ui_driver.hpp ****         // POWER ON SEQUENCE CONTROL
 377:ili9341_ui_driver.hpp ****         transport_.SendCommand(0xED);
 378:ili9341_ui_driver.hpp ****         {
 379:ili9341_ui_driver.hpp ****             uint8_t data[4] = {0x64, 0x03, 0x12, 0x81};
 380:ili9341_ui_driver.hpp ****             transport_.SendData(data, 4);
 381:ili9341_ui_driver.hpp ****         }
 382:ili9341_ui_driver.hpp **** 
 383:ili9341_ui_driver.hpp ****         // PUMP RATIO CONTROL
 384:ili9341_ui_driver.hpp ****         transport_.SendCommand(0xF7);
 385:ili9341_ui_driver.hpp ****         {
 386:ili9341_ui_driver.hpp ****             uint8_t data[1] = {0x20};
 387:ili9341_ui_driver.hpp ****             transport_.SendData(data, 1);
 388:ili9341_ui_driver.hpp ****         }
 389:ili9341_ui_driver.hpp **** 
 390:ili9341_ui_driver.hpp ****         // POWER CONTROL,VRH[5:0]
 391:ili9341_ui_driver.hpp ****         transport_.SendCommand(0xC0);
 392:ili9341_ui_driver.hpp ****         {
 393:ili9341_ui_driver.hpp ****             uint8_t data[1] = {0x23};
 394:ili9341_ui_driver.hpp ****             transport_.SendData(data, 1);
ARM GAS  /var/folders/hl/qgbwny5j0fd895c2c41bk3tw0000gp/T//cchkzwyh.s 			page 27


 395:ili9341_ui_driver.hpp ****         }
 396:ili9341_ui_driver.hpp **** 
 397:ili9341_ui_driver.hpp ****         // POWER CONTROL,SAP[2:0];BT[3:0]
 398:ili9341_ui_driver.hpp ****         transport_.SendCommand(0xC1);
 399:ili9341_ui_driver.hpp ****         {
 400:ili9341_ui_driver.hpp ****             uint8_t data[1] = {0x10};
 401:ili9341_ui_driver.hpp ****             transport_.SendData(data, 1);
 402:ili9341_ui_driver.hpp ****         }
 403:ili9341_ui_driver.hpp **** 
 404:ili9341_ui_driver.hpp ****         // VCM CONTROL
 405:ili9341_ui_driver.hpp ****         transport_.SendCommand(0xC5);
 406:ili9341_ui_driver.hpp ****         {
 407:ili9341_ui_driver.hpp ****             uint8_t data[2] = {0x3E, 0x28};
 408:ili9341_ui_driver.hpp ****             transport_.SendData(data, 2);
 409:ili9341_ui_driver.hpp ****         }
 410:ili9341_ui_driver.hpp **** 
 411:ili9341_ui_driver.hpp ****         // VCM CONTROL 2
 412:ili9341_ui_driver.hpp ****         transport_.SendCommand(0xC7);
 413:ili9341_ui_driver.hpp ****         {
 414:ili9341_ui_driver.hpp ****             uint8_t data[1] = {0x86};
 415:ili9341_ui_driver.hpp ****             transport_.SendData(data, 1);
 416:ili9341_ui_driver.hpp ****         }
 417:ili9341_ui_driver.hpp **** 
 418:ili9341_ui_driver.hpp ****         // MEMORY ACCESS CONTROL
 419:ili9341_ui_driver.hpp ****         transport_.SendCommand(0x36);
 420:ili9341_ui_driver.hpp ****         {
 421:ili9341_ui_driver.hpp ****             uint8_t data[1] = {0x48};
 422:ili9341_ui_driver.hpp ****             transport_.SendData(data, 1);
 423:ili9341_ui_driver.hpp ****         }
 424:ili9341_ui_driver.hpp **** 
 425:ili9341_ui_driver.hpp ****         // PIXEL FORMAT
 426:ili9341_ui_driver.hpp ****         transport_.SendCommand(0x3A);
 427:ili9341_ui_driver.hpp ****         {
 428:ili9341_ui_driver.hpp ****             uint8_t data[1] = {0x55};
 429:ili9341_ui_driver.hpp ****             transport_.SendData(data, 1);
 430:ili9341_ui_driver.hpp ****         }
 431:ili9341_ui_driver.hpp **** 
 432:ili9341_ui_driver.hpp ****         // FRAME RATIO CONTROL, STANDARD RGB COLOR
 433:ili9341_ui_driver.hpp ****         transport_.SendCommand(0xB1);
 434:ili9341_ui_driver.hpp ****         {
 435:ili9341_ui_driver.hpp ****             uint8_t data[2] = {0x00, 0x18};
 436:ili9341_ui_driver.hpp ****             transport_.SendData(data, 2);
 437:ili9341_ui_driver.hpp ****         }
 438:ili9341_ui_driver.hpp **** 
 439:ili9341_ui_driver.hpp ****         // DISPLAY FUNCTION CONTROL
 440:ili9341_ui_driver.hpp ****         transport_.SendCommand(0xB6);
 441:ili9341_ui_driver.hpp ****         {
 442:ili9341_ui_driver.hpp ****             uint8_t data[3] = {0x08, 0x82, 0x27};
 443:ili9341_ui_driver.hpp ****             transport_.SendData(data, 3);
 444:ili9341_ui_driver.hpp ****         }
 445:ili9341_ui_driver.hpp **** 
 446:ili9341_ui_driver.hpp ****         // 3GAMMA FUNCTION DISABLE
 447:ili9341_ui_driver.hpp ****         transport_.SendCommand(0xF2);
 448:ili9341_ui_driver.hpp ****         {
 449:ili9341_ui_driver.hpp ****             uint8_t data[1] = {0x00};
 450:ili9341_ui_driver.hpp ****             transport_.SendData(data, 1);
 451:ili9341_ui_driver.hpp ****         }
ARM GAS  /var/folders/hl/qgbwny5j0fd895c2c41bk3tw0000gp/T//cchkzwyh.s 			page 28


 452:ili9341_ui_driver.hpp **** 
 453:ili9341_ui_driver.hpp ****         // GAMMA CURVE SELECTED
 454:ili9341_ui_driver.hpp ****         transport_.SendCommand(0x26);
 455:ili9341_ui_driver.hpp ****         {
 456:ili9341_ui_driver.hpp ****             uint8_t data[1] = {0x01};
 457:ili9341_ui_driver.hpp ****             transport_.SendData(data, 1);
 458:ili9341_ui_driver.hpp ****         }
 459:ili9341_ui_driver.hpp **** 
 460:ili9341_ui_driver.hpp ****         // POSITIVE GAMMA CORRECTION
 461:ili9341_ui_driver.hpp ****         transport_.SendCommand(0xE0);
 462:ili9341_ui_driver.hpp ****         {
 463:ili9341_ui_driver.hpp ****             uint8_t data[15] = {0x0F,
 464:ili9341_ui_driver.hpp ****                                 0x31,
 465:ili9341_ui_driver.hpp ****                                 0x2B,
 466:ili9341_ui_driver.hpp ****                                 0x0C,
 467:ili9341_ui_driver.hpp ****                                 0x0E,
 468:ili9341_ui_driver.hpp ****                                 0x08,
 469:ili9341_ui_driver.hpp ****                                 0x4E,
 470:ili9341_ui_driver.hpp ****                                 0xF1,
 471:ili9341_ui_driver.hpp ****                                 0x37,
 472:ili9341_ui_driver.hpp ****                                 0x07,
 473:ili9341_ui_driver.hpp ****                                 0x10,
 474:ili9341_ui_driver.hpp ****                                 0x03,
 475:ili9341_ui_driver.hpp ****                                 0x0E,
 476:ili9341_ui_driver.hpp ****                                 0x09,
 477:ili9341_ui_driver.hpp ****                                 0x00};
 478:ili9341_ui_driver.hpp ****             transport_.SendData(data, 15);
 479:ili9341_ui_driver.hpp ****         }
 480:ili9341_ui_driver.hpp **** 
 481:ili9341_ui_driver.hpp ****         // NEGATIVE GAMMA CORRECTION
 482:ili9341_ui_driver.hpp ****         transport_.SendCommand(0xE1);
 483:ili9341_ui_driver.hpp ****         {
 484:ili9341_ui_driver.hpp ****             uint8_t data[15] = {0x00,
 485:ili9341_ui_driver.hpp ****                                 0x0E,
 486:ili9341_ui_driver.hpp ****                                 0x14,
 487:ili9341_ui_driver.hpp ****                                 0x03,
 488:ili9341_ui_driver.hpp ****                                 0x11,
 489:ili9341_ui_driver.hpp ****                                 0x07,
 490:ili9341_ui_driver.hpp ****                                 0x31,
 491:ili9341_ui_driver.hpp ****                                 0xC1,
 492:ili9341_ui_driver.hpp ****                                 0x48,
 493:ili9341_ui_driver.hpp ****                                 0x08,
 494:ili9341_ui_driver.hpp ****                                 0x0F,
 495:ili9341_ui_driver.hpp ****                                 0x0C,
 496:ili9341_ui_driver.hpp ****                                 0x31,
 497:ili9341_ui_driver.hpp ****                                 0x36,
 498:ili9341_ui_driver.hpp ****                                 0x0F};
 499:ili9341_ui_driver.hpp ****             transport_.SendData(data, 15);
 500:ili9341_ui_driver.hpp ****         }
 501:ili9341_ui_driver.hpp **** 
 502:ili9341_ui_driver.hpp ****         // EXIT SLEEP
 503:ili9341_ui_driver.hpp ****         transport_.SendCommand(0x11);
 504:ili9341_ui_driver.hpp ****         System::Delay(100);
 505:ili9341_ui_driver.hpp **** 
 506:ili9341_ui_driver.hpp ****         // TURN ON DISPLAY
 507:ili9341_ui_driver.hpp ****         transport_.SendCommand(0x29);
 508:ili9341_ui_driver.hpp **** 
ARM GAS  /var/folders/hl/qgbwny5j0fd895c2c41bk3tw0000gp/T//cchkzwyh.s 			page 29


 509:ili9341_ui_driver.hpp ****         // MADCTL
 510:ili9341_ui_driver.hpp ****         transport_.SendCommand(0x36);
 511:ili9341_ui_driver.hpp ****         System::Delay(10);
 512:ili9341_ui_driver.hpp **** 
 513:ili9341_ui_driver.hpp ****         {
 514:ili9341_ui_driver.hpp ****             uint8_t data[1] = {rotation};
 515:ili9341_ui_driver.hpp ****             transport_.SendData(data, 1);
 516:ili9341_ui_driver.hpp ****         }
 517:ili9341_ui_driver.hpp ****     };
 518:ili9341_ui_driver.hpp **** 
 519:ili9341_ui_driver.hpp ****     void SetOrientation(Orientation ori)
 480              		.loc 8 519 10 view .LVU126
 481              	.LBB455:
 520:ili9341_ui_driver.hpp ****     {
 521:ili9341_ui_driver.hpp ****         uint8_t ili_bgr = 0x08;
 482              		.loc 8 521 9 view .LVU127
 522:ili9341_ui_driver.hpp ****         uint8_t ili_mx  = 0x40;
 483              		.loc 8 522 9 view .LVU128
 523:ili9341_ui_driver.hpp ****         uint8_t ili_my  = 0x80;
 484              		.loc 8 523 9 view .LVU129
 524:ili9341_ui_driver.hpp ****         uint8_t ili_mv  = 0x20;
 485              		.loc 8 524 9 view .LVU130
 525:ili9341_ui_driver.hpp ****         switch(ori)
 486              		.loc 8 525 9 view .LVU131
 526:ili9341_ui_driver.hpp ****         {
 527:ili9341_ui_driver.hpp ****             case Orientation::RRight:
 528:ili9341_ui_driver.hpp ****             {
 529:ili9341_ui_driver.hpp ****                 width    = 320;
 530:ili9341_ui_driver.hpp ****                 height   = 240;
 531:ili9341_ui_driver.hpp ****                 rotation = ili_mx | ili_my | ili_mv | ili_bgr;
 532:ili9341_ui_driver.hpp ****                 return;
 533:ili9341_ui_driver.hpp ****             }
 534:ili9341_ui_driver.hpp ****             case Orientation::RLeft:
 487              		.loc 8 534 13 view .LVU132
 535:ili9341_ui_driver.hpp ****             {
 488              		.loc 8 535 13 view .LVU133
 536:ili9341_ui_driver.hpp ****                 width    = 320;
 489              		.loc 8 536 17 view .LVU134
 537:ili9341_ui_driver.hpp ****                 height   = 240;
 490              		.loc 8 537 17 view .LVU135
 538:ili9341_ui_driver.hpp ****                 rotation = ili_mv | ili_bgr;
 491              		.loc 8 538 17 view .LVU136
 536:ili9341_ui_driver.hpp ****                 width    = 320;
 492              		.loc 8 536 26 is_stmt 0 view .LVU137
 493 00a8 D14B     		ldr	r3, .L15+4
 494              	.LBE455:
 495              	.LBE454:
 496              	.LBB457:
 497              	.LBB458:
 100:ili9341_ui_driver.hpp ****         System::Delay(100);
 498              		.loc 8 100 23 view .LVU138
 499 00aa 3946     		mov	r1, r7
 500 00ac 5046     		mov	r0, r10
 501              	.LBE458:
 502              	.LBE457:
 503              	.LBB460:
 504              	.LBB456:
ARM GAS  /var/folders/hl/qgbwny5j0fd895c2c41bk3tw0000gp/T//cchkzwyh.s 			page 30


 536:ili9341_ui_driver.hpp ****                 height   = 240;
 505              		.loc 8 536 26 view .LVU139
 506 00ae C8F85430 		str	r3, [r8, #84]
 507              		.loc 8 538 26 view .LVU140
 508 00b2 2823     		movs	r3, #40
 509 00b4 88F85830 		strb	r3, [r8, #88]
 539:ili9341_ui_driver.hpp ****                 return;
 510              		.loc 8 539 17 is_stmt 1 view .LVU141
 540:ili9341_ui_driver.hpp ****             }
 541:ili9341_ui_driver.hpp ****             case Orientation::UpsideDown:
 542:ili9341_ui_driver.hpp ****             {
 543:ili9341_ui_driver.hpp ****                 width    = 240;
 544:ili9341_ui_driver.hpp ****                 height   = 320;
 545:ili9341_ui_driver.hpp ****                 rotation = ili_my | ili_bgr;
 546:ili9341_ui_driver.hpp ****                 return;
 547:ili9341_ui_driver.hpp ****             }
 548:ili9341_ui_driver.hpp ****             default:
 549:ili9341_ui_driver.hpp ****             {
 550:ili9341_ui_driver.hpp ****                 width    = 240;
 551:ili9341_ui_driver.hpp ****                 height   = 320;
 552:ili9341_ui_driver.hpp ****                 rotation = ili_mx | ili_bgr;
 553:ili9341_ui_driver.hpp ****             };
 511              		.loc 8 553 14 view .LVU142
 512              	.LVL25:
 513              		.loc 8 553 14 is_stmt 0 view .LVU143
 514              	.LBE456:
 515              	.LBE460:
 340:ili9341_ui_driver.hpp **** 
 516              		.loc 8 340 9 is_stmt 1 view .LVU144
 517              	.LBB461:
 518              	.LBI457:
  98:ili9341_ui_driver.hpp ****     {
 519              		.loc 8 98 10 view .LVU145
 520              	.LBB459:
 100:ili9341_ui_driver.hpp ****         System::Delay(100);
 521              		.loc 8 100 9 view .LVU146
 100:ili9341_ui_driver.hpp ****         System::Delay(100);
 522              		.loc 8 100 23 is_stmt 0 view .LVU147
 523 00b8 FFF7FEFF 		bl	dsy_gpio_write
 524              	.LVL26:
 101:ili9341_ui_driver.hpp ****         dsy_gpio_write(&pin_reset_, 1);
 525              		.loc 8 101 9 is_stmt 1 view .LVU148
 101:ili9341_ui_driver.hpp ****         dsy_gpio_write(&pin_reset_, 1);
 526              		.loc 8 101 22 is_stmt 0 view .LVU149
 527 00bc 6420     		movs	r0, #100
 528 00be FFF7FEFF 		bl	_ZN5daisy6System5DelayEm
 529              	.LVL27:
 102:ili9341_ui_driver.hpp ****         System::Delay(100);
 530              		.loc 8 102 9 is_stmt 1 view .LVU150
 102:ili9341_ui_driver.hpp ****         System::Delay(100);
 531              		.loc 8 102 23 is_stmt 0 view .LVU151
 532 00c2 2146     		mov	r1, r4
 533 00c4 5046     		mov	r0, r10
 534 00c6 4FF0360A 		mov	r10, #54
 535 00ca FFF7FEFF 		bl	dsy_gpio_write
 536              	.LVL28:
 103:ili9341_ui_driver.hpp ****     }
ARM GAS  /var/folders/hl/qgbwny5j0fd895c2c41bk3tw0000gp/T//cchkzwyh.s 			page 31


 537              		.loc 8 103 9 is_stmt 1 view .LVU152
 103:ili9341_ui_driver.hpp ****     }
 538              		.loc 8 103 22 is_stmt 0 view .LVU153
 539 00ce 6420     		movs	r0, #100
 540 00d0 FFF7FEFF 		bl	_ZN5daisy6System5DelayEm
 541              	.LVL29:
 103:ili9341_ui_driver.hpp ****     }
 542              		.loc 8 103 22 view .LVU154
 543              	.LBE459:
 544              	.LBE461:
 343:ili9341_ui_driver.hpp ****         System::Delay(100); // TODO: maybe less?
 545              		.loc 8 343 9 is_stmt 1 view .LVU155
 546              	.LBB462:
 547              	.LBB463:
 168:ili9341_ui_driver.hpp ****         return spi_.BlockingTransmit(&cmd, 1);
 548              		.loc 8 168 23 is_stmt 0 view .LVU156
 549 00d4 3946     		mov	r1, r7
 550 00d6 3046     		mov	r0, r6
 551 00d8 8DF80040 		strb	r4, [sp]
 552              	.LVL30:
 168:ili9341_ui_driver.hpp ****         return spi_.BlockingTransmit(&cmd, 1);
 553              		.loc 8 168 23 view .LVU157
 554              	.LBE463:
 555              	.LBI462:
 166:ili9341_ui_driver.hpp ****     {
 556              		.loc 8 166 23 is_stmt 1 view .LVU158
 557              	.LBB464:
 168:ili9341_ui_driver.hpp ****         return spi_.BlockingTransmit(&cmd, 1);
 558              		.loc 8 168 9 view .LVU159
 168:ili9341_ui_driver.hpp ****         return spi_.BlockingTransmit(&cmd, 1);
 559              		.loc 8 168 23 is_stmt 0 view .LVU160
 560 00dc FFF7FEFF 		bl	dsy_gpio_write
 561              	.LVL31:
 169:ili9341_ui_driver.hpp ****     };
 562              		.loc 8 169 9 is_stmt 1 view .LVU161
 169:ili9341_ui_driver.hpp ****     };
 563              		.loc 8 169 37 is_stmt 0 view .LVU162
 564 00e0 2246     		mov	r2, r4
 565 00e2 6946     		mov	r1, sp
 566 00e4 6423     		movs	r3, #100
 567 00e6 2846     		mov	r0, r5
 568 00e8 FFF7FEFF 		bl	_ZN5daisy9SpiHandle16BlockingTransmitEPhjm
 569              	.LVL32:
 169:ili9341_ui_driver.hpp ****     };
 570              		.loc 8 169 37 view .LVU163
 571              	.LBE464:
 572              	.LBE462:
 344:ili9341_ui_driver.hpp **** 
 573              		.loc 8 344 9 is_stmt 1 view .LVU164
 344:ili9341_ui_driver.hpp **** 
 574              		.loc 8 344 22 is_stmt 0 view .LVU165
 575 00ec 6420     		movs	r0, #100
 576 00ee FFF7FEFF 		bl	_ZN5daisy6System5DelayEm
 577              	.LVL33:
 349:ili9341_ui_driver.hpp ****         {
 578              		.loc 8 349 9 is_stmt 1 view .LVU166
 349:ili9341_ui_driver.hpp ****         {
ARM GAS  /var/folders/hl/qgbwny5j0fd895c2c41bk3tw0000gp/T//cchkzwyh.s 			page 32


 579              		.loc 8 349 9 is_stmt 0 view .LVU167
 580 00f2 CB23     		movs	r3, #203
 581              	.LBB465:
 582              	.LBB466:
 168:ili9341_ui_driver.hpp ****         return spi_.BlockingTransmit(&cmd, 1);
 583              		.loc 8 168 23 view .LVU168
 584 00f4 3946     		mov	r1, r7
 585 00f6 3046     		mov	r0, r6
 586 00f8 8DF80030 		strb	r3, [sp]
 587              	.LVL34:
 168:ili9341_ui_driver.hpp ****         return spi_.BlockingTransmit(&cmd, 1);
 588              		.loc 8 168 23 view .LVU169
 589              	.LBE466:
 590              	.LBI465:
 166:ili9341_ui_driver.hpp ****     {
 591              		.loc 8 166 23 is_stmt 1 view .LVU170
 592              	.LBB467:
 168:ili9341_ui_driver.hpp ****         return spi_.BlockingTransmit(&cmd, 1);
 593              		.loc 8 168 9 view .LVU171
 168:ili9341_ui_driver.hpp ****         return spi_.BlockingTransmit(&cmd, 1);
 594              		.loc 8 168 23 is_stmt 0 view .LVU172
 595 00fc FFF7FEFF 		bl	dsy_gpio_write
 596              	.LVL35:
 169:ili9341_ui_driver.hpp ****     };
 597              		.loc 8 169 9 is_stmt 1 view .LVU173
 169:ili9341_ui_driver.hpp ****     };
 598              		.loc 8 169 37 is_stmt 0 view .LVU174
 599 0100 2246     		mov	r2, r4
 600 0102 6423     		movs	r3, #100
 601 0104 6946     		mov	r1, sp
 602 0106 2846     		mov	r0, r5
 603 0108 FFF7FEFF 		bl	_ZN5daisy9SpiHandle16BlockingTransmitEPhjm
 604              	.LVL36:
 169:ili9341_ui_driver.hpp ****     };
 605              		.loc 8 169 37 view .LVU175
 606              	.LBE467:
 607              	.LBE465:
 350:ili9341_ui_driver.hpp ****             uint8_t data[5] = {0x39, 0x2C, 0x00, 0x34, 0x02};
 608              		.loc 8 350 9 is_stmt 1 view .LVU176
 609              	.LBB468:
 351:ili9341_ui_driver.hpp ****             transport_.SendData(data, 5);
 610              		.loc 8 351 13 view .LVU177
 351:ili9341_ui_driver.hpp ****             transport_.SendData(data, 5);
 611              		.loc 8 351 21 is_stmt 0 view .LVU178
 612 010c 99E80300 		ldm	r9, {r0, r1}
 613              	.LBE468:
 614              	.LBB469:
 484:ili9341_ui_driver.hpp ****                                 0x0E,
 615              		.loc 8 484 21 view .LVU179
 616 0110 09F11009 		add	r9, r9, #16
 617              	.LBE469:
 618              	.LBB474:
 351:ili9341_ui_driver.hpp ****             transport_.SendData(data, 5);
 619              		.loc 8 351 21 view .LVU180
 620 0114 0090     		str	r0, [sp]
 621              	.LBB449:
 622              	.LBB450:
ARM GAS  /var/folders/hl/qgbwny5j0fd895c2c41bk3tw0000gp/T//cchkzwyh.s 			page 33


 174:ili9341_ui_driver.hpp ****         return spi_.BlockingTransmit(buff, size);
 623              		.loc 8 174 23 view .LVU181
 624 0116 3046     		mov	r0, r6
 625              	.LBE450:
 626              	.LBE449:
 351:ili9341_ui_driver.hpp ****             transport_.SendData(data, 5);
 627              		.loc 8 351 21 view .LVU182
 628 0118 8DF80410 		strb	r1, [sp, #4]
 352:ili9341_ui_driver.hpp ****         }
 629              		.loc 8 352 13 is_stmt 1 view .LVU183
 630              	.LVL37:
 631              	.LBB452:
 632              	.LBI449:
 172:ili9341_ui_driver.hpp ****     {
 633              		.loc 8 172 23 view .LVU184
 634              	.LBB451:
 174:ili9341_ui_driver.hpp ****         return spi_.BlockingTransmit(buff, size);
 635              		.loc 8 174 9 view .LVU185
 174:ili9341_ui_driver.hpp ****         return spi_.BlockingTransmit(buff, size);
 636              		.loc 8 174 23 is_stmt 0 view .LVU186
 637 011c 2146     		mov	r1, r4
 638 011e FFF7FEFF 		bl	dsy_gpio_write
 639              	.LVL38:
 175:ili9341_ui_driver.hpp ****     };
 640              		.loc 8 175 9 is_stmt 1 view .LVU187
 175:ili9341_ui_driver.hpp ****     };
 641              		.loc 8 175 37 is_stmt 0 view .LVU188
 642 0122 0522     		movs	r2, #5
 643 0124 6946     		mov	r1, sp
 644 0126 6423     		movs	r3, #100
 645 0128 2846     		mov	r0, r5
 646 012a FFF7FEFF 		bl	_ZN5daisy9SpiHandle16BlockingTransmitEPhjm
 647              	.LVL39:
 175:ili9341_ui_driver.hpp ****     };
 648              		.loc 8 175 37 view .LVU189
 649              	.LBE451:
 650              	.LBE452:
 651              	.LBE474:
 356:ili9341_ui_driver.hpp ****         {
 652              		.loc 8 356 9 is_stmt 1 view .LVU190
 356:ili9341_ui_driver.hpp ****         {
 653              		.loc 8 356 9 is_stmt 0 view .LVU191
 654 012e CF23     		movs	r3, #207
 655              	.LBB475:
 656              	.LBB476:
 168:ili9341_ui_driver.hpp ****         return spi_.BlockingTransmit(&cmd, 1);
 657              		.loc 8 168 23 view .LVU192
 658 0130 3946     		mov	r1, r7
 659 0132 3046     		mov	r0, r6
 660 0134 8DF80030 		strb	r3, [sp]
 661              	.LVL40:
 168:ili9341_ui_driver.hpp ****         return spi_.BlockingTransmit(&cmd, 1);
 662              		.loc 8 168 23 view .LVU193
 663              	.LBE476:
 664              	.LBI475:
 166:ili9341_ui_driver.hpp ****     {
 665              		.loc 8 166 23 is_stmt 1 view .LVU194
ARM GAS  /var/folders/hl/qgbwny5j0fd895c2c41bk3tw0000gp/T//cchkzwyh.s 			page 34


 666              	.LBB477:
 168:ili9341_ui_driver.hpp ****         return spi_.BlockingTransmit(&cmd, 1);
 667              		.loc 8 168 9 view .LVU195
 168:ili9341_ui_driver.hpp ****         return spi_.BlockingTransmit(&cmd, 1);
 668              		.loc 8 168 23 is_stmt 0 view .LVU196
 669 0138 FFF7FEFF 		bl	dsy_gpio_write
 670              	.LVL41:
 169:ili9341_ui_driver.hpp ****     };
 671              		.loc 8 169 9 is_stmt 1 view .LVU197
 169:ili9341_ui_driver.hpp ****     };
 672              		.loc 8 169 37 is_stmt 0 view .LVU198
 673 013c 2246     		mov	r2, r4
 674 013e 6946     		mov	r1, sp
 675 0140 6423     		movs	r3, #100
 676 0142 2846     		mov	r0, r5
 677 0144 FFF7FEFF 		bl	_ZN5daisy9SpiHandle16BlockingTransmitEPhjm
 678              	.LVL42:
 169:ili9341_ui_driver.hpp ****     };
 679              		.loc 8 169 37 view .LVU199
 680              	.LBE477:
 681              	.LBE475:
 357:ili9341_ui_driver.hpp ****             uint8_t data[3] = {0x00, 0xC1, 0x30};
 682              		.loc 8 357 9 is_stmt 1 view .LVU200
 683              	.LBB478:
 358:ili9341_ui_driver.hpp ****             transport_.SendData(data, 3);
 684              		.loc 8 358 13 view .LVU201
 358:ili9341_ui_driver.hpp ****             transport_.SendData(data, 3);
 685              		.loc 8 358 21 is_stmt 0 view .LVU202
 686 0148 59F8083C 		ldr	r3, [r9, #-8]
 687              	.LBB479:
 688              	.LBB480:
 174:ili9341_ui_driver.hpp ****         return spi_.BlockingTransmit(buff, size);
 689              		.loc 8 174 23 view .LVU203
 690 014c 2146     		mov	r1, r4
 691 014e 3046     		mov	r0, r6
 692              	.LBE480:
 693              	.LBE479:
 358:ili9341_ui_driver.hpp ****             transport_.SendData(data, 3);
 694              		.loc 8 358 21 view .LVU204
 695 0150 ADF80030 		strh	r3, [sp]	@ movhi
 696 0154 1B0C     		lsrs	r3, r3, #16
 697 0156 8DF80230 		strb	r3, [sp, #2]
 359:ili9341_ui_driver.hpp ****         }
 698              		.loc 8 359 13 is_stmt 1 view .LVU205
 699              	.LVL43:
 700              	.LBB482:
 701              	.LBI479:
 172:ili9341_ui_driver.hpp ****     {
 702              		.loc 8 172 23 view .LVU206
 703              	.LBB481:
 174:ili9341_ui_driver.hpp ****         return spi_.BlockingTransmit(buff, size);
 704              		.loc 8 174 9 view .LVU207
 174:ili9341_ui_driver.hpp ****         return spi_.BlockingTransmit(buff, size);
 705              		.loc 8 174 23 is_stmt 0 view .LVU208
 706 015a FFF7FEFF 		bl	dsy_gpio_write
 707              	.LVL44:
 175:ili9341_ui_driver.hpp ****     };
ARM GAS  /var/folders/hl/qgbwny5j0fd895c2c41bk3tw0000gp/T//cchkzwyh.s 			page 35


 708              		.loc 8 175 9 is_stmt 1 view .LVU209
 175:ili9341_ui_driver.hpp ****     };
 709              		.loc 8 175 37 is_stmt 0 view .LVU210
 710 015e 0322     		movs	r2, #3
 711 0160 6946     		mov	r1, sp
 712 0162 6423     		movs	r3, #100
 713 0164 2846     		mov	r0, r5
 714 0166 FFF7FEFF 		bl	_ZN5daisy9SpiHandle16BlockingTransmitEPhjm
 715              	.LVL45:
 175:ili9341_ui_driver.hpp ****     };
 716              		.loc 8 175 37 view .LVU211
 717              	.LBE481:
 718              	.LBE482:
 719              	.LBE478:
 363:ili9341_ui_driver.hpp ****         {
 720              		.loc 8 363 9 is_stmt 1 view .LVU212
 363:ili9341_ui_driver.hpp ****         {
 721              		.loc 8 363 9 is_stmt 0 view .LVU213
 722 016a E823     		movs	r3, #232
 723              	.LBB483:
 724              	.LBB484:
 168:ili9341_ui_driver.hpp ****         return spi_.BlockingTransmit(&cmd, 1);
 725              		.loc 8 168 23 view .LVU214
 726 016c 3946     		mov	r1, r7
 727 016e 3046     		mov	r0, r6
 728 0170 8DF80030 		strb	r3, [sp]
 729              	.LVL46:
 168:ili9341_ui_driver.hpp ****         return spi_.BlockingTransmit(&cmd, 1);
 730              		.loc 8 168 23 view .LVU215
 731              	.LBE484:
 732              	.LBI483:
 166:ili9341_ui_driver.hpp ****     {
 733              		.loc 8 166 23 is_stmt 1 view .LVU216
 734              	.LBB485:
 168:ili9341_ui_driver.hpp ****         return spi_.BlockingTransmit(&cmd, 1);
 735              		.loc 8 168 9 view .LVU217
 168:ili9341_ui_driver.hpp ****         return spi_.BlockingTransmit(&cmd, 1);
 736              		.loc 8 168 23 is_stmt 0 view .LVU218
 737 0174 FFF7FEFF 		bl	dsy_gpio_write
 738              	.LVL47:
 169:ili9341_ui_driver.hpp ****     };
 739              		.loc 8 169 9 is_stmt 1 view .LVU219
 169:ili9341_ui_driver.hpp ****     };
 740              		.loc 8 169 37 is_stmt 0 view .LVU220
 741 0178 2246     		mov	r2, r4
 742 017a 6946     		mov	r1, sp
 743 017c 6423     		movs	r3, #100
 744 017e 2846     		mov	r0, r5
 745 0180 FFF7FEFF 		bl	_ZN5daisy9SpiHandle16BlockingTransmitEPhjm
 746              	.LVL48:
 169:ili9341_ui_driver.hpp ****     };
 747              		.loc 8 169 37 view .LVU221
 748              	.LBE485:
 749              	.LBE483:
 364:ili9341_ui_driver.hpp ****             uint8_t data[3] = {0x85, 0x00, 0x78};
 750              		.loc 8 364 9 is_stmt 1 view .LVU222
 751              	.LBB486:
ARM GAS  /var/folders/hl/qgbwny5j0fd895c2c41bk3tw0000gp/T//cchkzwyh.s 			page 36


 365:ili9341_ui_driver.hpp ****             transport_.SendData(data, 3);
 752              		.loc 8 365 13 view .LVU223
 365:ili9341_ui_driver.hpp ****             transport_.SendData(data, 3);
 753              		.loc 8 365 21 is_stmt 0 view .LVU224
 754 0184 59F8043C 		ldr	r3, [r9, #-4]
 755              	.LBB487:
 756              	.LBB488:
 174:ili9341_ui_driver.hpp ****         return spi_.BlockingTransmit(buff, size);
 757              		.loc 8 174 23 view .LVU225
 758 0188 2146     		mov	r1, r4
 759 018a 3046     		mov	r0, r6
 760              	.LBE488:
 761              	.LBE487:
 365:ili9341_ui_driver.hpp ****             transport_.SendData(data, 3);
 762              		.loc 8 365 21 view .LVU226
 763 018c ADF80030 		strh	r3, [sp]	@ movhi
 764 0190 1B0C     		lsrs	r3, r3, #16
 765 0192 8DF80230 		strb	r3, [sp, #2]
 366:ili9341_ui_driver.hpp ****         }
 766              		.loc 8 366 13 is_stmt 1 view .LVU227
 767              	.LVL49:
 768              	.LBB490:
 769              	.LBI487:
 172:ili9341_ui_driver.hpp ****     {
 770              		.loc 8 172 23 view .LVU228
 771              	.LBB489:
 174:ili9341_ui_driver.hpp ****         return spi_.BlockingTransmit(buff, size);
 772              		.loc 8 174 9 view .LVU229
 174:ili9341_ui_driver.hpp ****         return spi_.BlockingTransmit(buff, size);
 773              		.loc 8 174 23 is_stmt 0 view .LVU230
 774 0196 FFF7FEFF 		bl	dsy_gpio_write
 775              	.LVL50:
 175:ili9341_ui_driver.hpp ****     };
 776              		.loc 8 175 9 is_stmt 1 view .LVU231
 175:ili9341_ui_driver.hpp ****     };
 777              		.loc 8 175 37 is_stmt 0 view .LVU232
 778 019a 0322     		movs	r2, #3
 779 019c 6946     		mov	r1, sp
 780 019e 6423     		movs	r3, #100
 781 01a0 2846     		mov	r0, r5
 782 01a2 FFF7FEFF 		bl	_ZN5daisy9SpiHandle16BlockingTransmitEPhjm
 783              	.LVL51:
 175:ili9341_ui_driver.hpp ****     };
 784              		.loc 8 175 37 view .LVU233
 785              	.LBE489:
 786              	.LBE490:
 787              	.LBE486:
 370:ili9341_ui_driver.hpp ****         {
 788              		.loc 8 370 9 is_stmt 1 view .LVU234
 370:ili9341_ui_driver.hpp ****         {
 789              		.loc 8 370 9 is_stmt 0 view .LVU235
 790 01a6 EA23     		movs	r3, #234
 791              	.LBB491:
 792              	.LBB492:
 168:ili9341_ui_driver.hpp ****         return spi_.BlockingTransmit(&cmd, 1);
 793              		.loc 8 168 23 view .LVU236
 794 01a8 3946     		mov	r1, r7
ARM GAS  /var/folders/hl/qgbwny5j0fd895c2c41bk3tw0000gp/T//cchkzwyh.s 			page 37


 795 01aa 3046     		mov	r0, r6
 796 01ac 8DF80030 		strb	r3, [sp]
 797              	.LVL52:
 168:ili9341_ui_driver.hpp ****         return spi_.BlockingTransmit(&cmd, 1);
 798              		.loc 8 168 23 view .LVU237
 799              	.LBE492:
 800              	.LBI491:
 166:ili9341_ui_driver.hpp ****     {
 801              		.loc 8 166 23 is_stmt 1 view .LVU238
 802              	.LBB493:
 168:ili9341_ui_driver.hpp ****         return spi_.BlockingTransmit(&cmd, 1);
 803              		.loc 8 168 9 view .LVU239
 168:ili9341_ui_driver.hpp ****         return spi_.BlockingTransmit(&cmd, 1);
 804              		.loc 8 168 23 is_stmt 0 view .LVU240
 805 01b0 FFF7FEFF 		bl	dsy_gpio_write
 806              	.LVL53:
 169:ili9341_ui_driver.hpp ****     };
 807              		.loc 8 169 9 is_stmt 1 view .LVU241
 169:ili9341_ui_driver.hpp ****     };
 808              		.loc 8 169 37 is_stmt 0 view .LVU242
 809 01b4 2246     		mov	r2, r4
 810 01b6 6423     		movs	r3, #100
 811 01b8 6946     		mov	r1, sp
 812 01ba 2846     		mov	r0, r5
 813 01bc FFF7FEFF 		bl	_ZN5daisy9SpiHandle16BlockingTransmitEPhjm
 814              	.LVL54:
 169:ili9341_ui_driver.hpp ****     };
 815              		.loc 8 169 37 view .LVU243
 816              	.LBE493:
 817              	.LBE491:
 371:ili9341_ui_driver.hpp ****             uint8_t data[2] = {0x00, 0x00};
 818              		.loc 8 371 9 is_stmt 1 view .LVU244
 819              	.LBB494:
 372:ili9341_ui_driver.hpp ****             transport_.SendData(data, 2);
 820              		.loc 8 372 13 view .LVU245
 821              	.LBB495:
 822              	.LBB496:
 174:ili9341_ui_driver.hpp ****         return spi_.BlockingTransmit(buff, size);
 823              		.loc 8 174 23 is_stmt 0 view .LVU246
 824 01c0 2146     		mov	r1, r4
 825 01c2 3046     		mov	r0, r6
 826              	.LBE496:
 827              	.LBE495:
 372:ili9341_ui_driver.hpp ****             transport_.SendData(data, 2);
 828              		.loc 8 372 21 view .LVU247
 829 01c4 ADF80070 		strh	r7, [sp]	@ movhi
 373:ili9341_ui_driver.hpp ****         }
 830              		.loc 8 373 13 is_stmt 1 view .LVU248
 831              	.LVL55:
 832              	.LBB498:
 833              	.LBI495:
 172:ili9341_ui_driver.hpp ****     {
 834              		.loc 8 172 23 view .LVU249
 835              	.LBB497:
 174:ili9341_ui_driver.hpp ****         return spi_.BlockingTransmit(buff, size);
 836              		.loc 8 174 9 view .LVU250
 174:ili9341_ui_driver.hpp ****         return spi_.BlockingTransmit(buff, size);
ARM GAS  /var/folders/hl/qgbwny5j0fd895c2c41bk3tw0000gp/T//cchkzwyh.s 			page 38


 837              		.loc 8 174 23 is_stmt 0 view .LVU251
 838 01c8 FFF7FEFF 		bl	dsy_gpio_write
 839              	.LVL56:
 175:ili9341_ui_driver.hpp ****     };
 840              		.loc 8 175 9 is_stmt 1 view .LVU252
 175:ili9341_ui_driver.hpp ****     };
 841              		.loc 8 175 37 is_stmt 0 view .LVU253
 842 01cc 5A46     		mov	r2, fp
 843 01ce 6946     		mov	r1, sp
 844 01d0 6423     		movs	r3, #100
 845 01d2 2846     		mov	r0, r5
 846 01d4 FFF7FEFF 		bl	_ZN5daisy9SpiHandle16BlockingTransmitEPhjm
 847              	.LVL57:
 175:ili9341_ui_driver.hpp ****     };
 848              		.loc 8 175 37 view .LVU254
 849              	.LBE497:
 850              	.LBE498:
 851              	.LBE494:
 377:ili9341_ui_driver.hpp ****         {
 852              		.loc 8 377 9 is_stmt 1 view .LVU255
 377:ili9341_ui_driver.hpp ****         {
 853              		.loc 8 377 9 is_stmt 0 view .LVU256
 854 01d8 ED23     		movs	r3, #237
 855              	.LBB499:
 856              	.LBB500:
 168:ili9341_ui_driver.hpp ****         return spi_.BlockingTransmit(&cmd, 1);
 857              		.loc 8 168 23 view .LVU257
 858 01da 3946     		mov	r1, r7
 859 01dc 3046     		mov	r0, r6
 860 01de 8DF80030 		strb	r3, [sp]
 861              	.LVL58:
 168:ili9341_ui_driver.hpp ****         return spi_.BlockingTransmit(&cmd, 1);
 862              		.loc 8 168 23 view .LVU258
 863              	.LBE500:
 864              	.LBI499:
 166:ili9341_ui_driver.hpp ****     {
 865              		.loc 8 166 23 is_stmt 1 view .LVU259
 866              	.LBB501:
 168:ili9341_ui_driver.hpp ****         return spi_.BlockingTransmit(&cmd, 1);
 867              		.loc 8 168 9 view .LVU260
 168:ili9341_ui_driver.hpp ****         return spi_.BlockingTransmit(&cmd, 1);
 868              		.loc 8 168 23 is_stmt 0 view .LVU261
 869 01e2 FFF7FEFF 		bl	dsy_gpio_write
 870              	.LVL59:
 169:ili9341_ui_driver.hpp ****     };
 871              		.loc 8 169 9 is_stmt 1 view .LVU262
 169:ili9341_ui_driver.hpp ****     };
 872              		.loc 8 169 37 is_stmt 0 view .LVU263
 873 01e6 2246     		mov	r2, r4
 874 01e8 6946     		mov	r1, sp
 875 01ea 6423     		movs	r3, #100
 876 01ec 2846     		mov	r0, r5
 877 01ee FFF7FEFF 		bl	_ZN5daisy9SpiHandle16BlockingTransmitEPhjm
 878              	.LVL60:
 169:ili9341_ui_driver.hpp ****     };
 879              		.loc 8 169 37 view .LVU264
 880              	.LBE501:
ARM GAS  /var/folders/hl/qgbwny5j0fd895c2c41bk3tw0000gp/T//cchkzwyh.s 			page 39


 881              	.LBE499:
 378:ili9341_ui_driver.hpp ****             uint8_t data[4] = {0x64, 0x03, 0x12, 0x81};
 882              		.loc 8 378 9 is_stmt 1 view .LVU265
 883              	.LBB502:
 379:ili9341_ui_driver.hpp ****             transport_.SendData(data, 4);
 884              		.loc 8 379 13 view .LVU266
 379:ili9341_ui_driver.hpp ****             transport_.SendData(data, 4);
 885              		.loc 8 379 21 is_stmt 0 view .LVU267
 886 01f2 804B     		ldr	r3, .L15+8
 887              	.LBB503:
 888              	.LBB504:
 174:ili9341_ui_driver.hpp ****         return spi_.BlockingTransmit(buff, size);
 889              		.loc 8 174 23 view .LVU268
 890 01f4 2146     		mov	r1, r4
 891 01f6 3046     		mov	r0, r6
 892              	.LBE504:
 893              	.LBE503:
 379:ili9341_ui_driver.hpp ****             transport_.SendData(data, 4);
 894              		.loc 8 379 21 view .LVU269
 895 01f8 0093     		str	r3, [sp]
 380:ili9341_ui_driver.hpp ****         }
 896              		.loc 8 380 13 is_stmt 1 view .LVU270
 897              	.LVL61:
 898              	.LBB506:
 899              	.LBI503:
 172:ili9341_ui_driver.hpp ****     {
 900              		.loc 8 172 23 view .LVU271
 901              	.LBB505:
 174:ili9341_ui_driver.hpp ****         return spi_.BlockingTransmit(buff, size);
 902              		.loc 8 174 9 view .LVU272
 174:ili9341_ui_driver.hpp ****         return spi_.BlockingTransmit(buff, size);
 903              		.loc 8 174 23 is_stmt 0 view .LVU273
 904 01fa FFF7FEFF 		bl	dsy_gpio_write
 905              	.LVL62:
 175:ili9341_ui_driver.hpp ****     };
 906              		.loc 8 175 9 is_stmt 1 view .LVU274
 175:ili9341_ui_driver.hpp ****     };
 907              		.loc 8 175 37 is_stmt 0 view .LVU275
 908 01fe 0422     		movs	r2, #4
 909 0200 6946     		mov	r1, sp
 910 0202 6423     		movs	r3, #100
 911 0204 2846     		mov	r0, r5
 912 0206 FFF7FEFF 		bl	_ZN5daisy9SpiHandle16BlockingTransmitEPhjm
 913              	.LVL63:
 175:ili9341_ui_driver.hpp ****     };
 914              		.loc 8 175 37 view .LVU276
 915              	.LBE505:
 916              	.LBE506:
 917              	.LBE502:
 384:ili9341_ui_driver.hpp ****         {
 918              		.loc 8 384 9 is_stmt 1 view .LVU277
 384:ili9341_ui_driver.hpp ****         {
 919              		.loc 8 384 9 is_stmt 0 view .LVU278
 920 020a F723     		movs	r3, #247
 921              	.LBB507:
 922              	.LBB508:
 168:ili9341_ui_driver.hpp ****         return spi_.BlockingTransmit(&cmd, 1);
ARM GAS  /var/folders/hl/qgbwny5j0fd895c2c41bk3tw0000gp/T//cchkzwyh.s 			page 40


 923              		.loc 8 168 23 view .LVU279
 924 020c 3946     		mov	r1, r7
 925 020e 3046     		mov	r0, r6
 926 0210 8DF80030 		strb	r3, [sp]
 927              	.LVL64:
 168:ili9341_ui_driver.hpp ****         return spi_.BlockingTransmit(&cmd, 1);
 928              		.loc 8 168 23 view .LVU280
 929              	.LBE508:
 930              	.LBI507:
 166:ili9341_ui_driver.hpp ****     {
 931              		.loc 8 166 23 is_stmt 1 view .LVU281
 932              	.LBB509:
 168:ili9341_ui_driver.hpp ****         return spi_.BlockingTransmit(&cmd, 1);
 933              		.loc 8 168 9 view .LVU282
 168:ili9341_ui_driver.hpp ****         return spi_.BlockingTransmit(&cmd, 1);
 934              		.loc 8 168 23 is_stmt 0 view .LVU283
 935 0214 FFF7FEFF 		bl	dsy_gpio_write
 936              	.LVL65:
 169:ili9341_ui_driver.hpp ****     };
 937              		.loc 8 169 9 is_stmt 1 view .LVU284
 169:ili9341_ui_driver.hpp ****     };
 938              		.loc 8 169 37 is_stmt 0 view .LVU285
 939 0218 2246     		mov	r2, r4
 940 021a 6946     		mov	r1, sp
 941 021c 6423     		movs	r3, #100
 942 021e 2846     		mov	r0, r5
 943 0220 FFF7FEFF 		bl	_ZN5daisy9SpiHandle16BlockingTransmitEPhjm
 944              	.LVL66:
 169:ili9341_ui_driver.hpp ****     };
 945              		.loc 8 169 37 view .LVU286
 946              	.LBE509:
 947              	.LBE507:
 385:ili9341_ui_driver.hpp ****             uint8_t data[1] = {0x20};
 948              		.loc 8 385 9 is_stmt 1 view .LVU287
 949              	.LBB510:
 386:ili9341_ui_driver.hpp ****             transport_.SendData(data, 1);
 950              		.loc 8 386 13 view .LVU288
 386:ili9341_ui_driver.hpp ****             transport_.SendData(data, 1);
 951              		.loc 8 386 21 is_stmt 0 view .LVU289
 952 0224 2023     		movs	r3, #32
 953              	.LBB511:
 954              	.LBB512:
 174:ili9341_ui_driver.hpp ****         return spi_.BlockingTransmit(buff, size);
 955              		.loc 8 174 23 view .LVU290
 956 0226 2146     		mov	r1, r4
 957 0228 3046     		mov	r0, r6
 958              	.LBE512:
 959              	.LBE511:
 386:ili9341_ui_driver.hpp ****             transport_.SendData(data, 1);
 960              		.loc 8 386 21 view .LVU291
 961 022a 8DF80030 		strb	r3, [sp]
 387:ili9341_ui_driver.hpp ****         }
 962              		.loc 8 387 13 is_stmt 1 view .LVU292
 963              	.LVL67:
 964              	.LBB514:
 965              	.LBI511:
 172:ili9341_ui_driver.hpp ****     {
ARM GAS  /var/folders/hl/qgbwny5j0fd895c2c41bk3tw0000gp/T//cchkzwyh.s 			page 41


 966              		.loc 8 172 23 view .LVU293
 967              	.LBB513:
 174:ili9341_ui_driver.hpp ****         return spi_.BlockingTransmit(buff, size);
 968              		.loc 8 174 9 view .LVU294
 174:ili9341_ui_driver.hpp ****         return spi_.BlockingTransmit(buff, size);
 969              		.loc 8 174 23 is_stmt 0 view .LVU295
 970 022e FFF7FEFF 		bl	dsy_gpio_write
 971              	.LVL68:
 175:ili9341_ui_driver.hpp ****     };
 972              		.loc 8 175 9 is_stmt 1 view .LVU296
 175:ili9341_ui_driver.hpp ****     };
 973              		.loc 8 175 37 is_stmt 0 view .LVU297
 974 0232 2246     		mov	r2, r4
 975 0234 6946     		mov	r1, sp
 976 0236 6423     		movs	r3, #100
 977 0238 2846     		mov	r0, r5
 978 023a FFF7FEFF 		bl	_ZN5daisy9SpiHandle16BlockingTransmitEPhjm
 979              	.LVL69:
 175:ili9341_ui_driver.hpp ****     };
 980              		.loc 8 175 37 view .LVU298
 981              	.LBE513:
 982              	.LBE514:
 983              	.LBE510:
 391:ili9341_ui_driver.hpp ****         {
 984              		.loc 8 391 9 is_stmt 1 view .LVU299
 391:ili9341_ui_driver.hpp ****         {
 985              		.loc 8 391 9 is_stmt 0 view .LVU300
 986 023e C023     		movs	r3, #192
 987              	.LBB515:
 988              	.LBB516:
 168:ili9341_ui_driver.hpp ****         return spi_.BlockingTransmit(&cmd, 1);
 989              		.loc 8 168 23 view .LVU301
 990 0240 3946     		mov	r1, r7
 991 0242 3046     		mov	r0, r6
 992 0244 8DF80030 		strb	r3, [sp]
 993              	.LVL70:
 168:ili9341_ui_driver.hpp ****         return spi_.BlockingTransmit(&cmd, 1);
 994              		.loc 8 168 23 view .LVU302
 995              	.LBE516:
 996              	.LBI515:
 166:ili9341_ui_driver.hpp ****     {
 997              		.loc 8 166 23 is_stmt 1 view .LVU303
 998              	.LBB517:
 168:ili9341_ui_driver.hpp ****         return spi_.BlockingTransmit(&cmd, 1);
 999              		.loc 8 168 9 view .LVU304
 168:ili9341_ui_driver.hpp ****         return spi_.BlockingTransmit(&cmd, 1);
 1000              		.loc 8 168 23 is_stmt 0 view .LVU305
 1001 0248 FFF7FEFF 		bl	dsy_gpio_write
 1002              	.LVL71:
 169:ili9341_ui_driver.hpp ****     };
 1003              		.loc 8 169 9 is_stmt 1 view .LVU306
 169:ili9341_ui_driver.hpp ****     };
 1004              		.loc 8 169 37 is_stmt 0 view .LVU307
 1005 024c 2246     		mov	r2, r4
 1006 024e 6946     		mov	r1, sp
 1007 0250 6423     		movs	r3, #100
 1008 0252 2846     		mov	r0, r5
ARM GAS  /var/folders/hl/qgbwny5j0fd895c2c41bk3tw0000gp/T//cchkzwyh.s 			page 42


 1009 0254 FFF7FEFF 		bl	_ZN5daisy9SpiHandle16BlockingTransmitEPhjm
 1010              	.LVL72:
 169:ili9341_ui_driver.hpp ****     };
 1011              		.loc 8 169 37 view .LVU308
 1012              	.LBE517:
 1013              	.LBE515:
 392:ili9341_ui_driver.hpp ****             uint8_t data[1] = {0x23};
 1014              		.loc 8 392 9 is_stmt 1 view .LVU309
 1015              	.LBB518:
 393:ili9341_ui_driver.hpp ****             transport_.SendData(data, 1);
 1016              		.loc 8 393 13 view .LVU310
 393:ili9341_ui_driver.hpp ****             transport_.SendData(data, 1);
 1017              		.loc 8 393 21 is_stmt 0 view .LVU311
 1018 0258 2323     		movs	r3, #35
 1019              	.LBB519:
 1020              	.LBB520:
 174:ili9341_ui_driver.hpp ****         return spi_.BlockingTransmit(buff, size);
 1021              		.loc 8 174 23 view .LVU312
 1022 025a 2146     		mov	r1, r4
 1023 025c 3046     		mov	r0, r6
 1024              	.LBE520:
 1025              	.LBE519:
 393:ili9341_ui_driver.hpp ****             transport_.SendData(data, 1);
 1026              		.loc 8 393 21 view .LVU313
 1027 025e 8DF80030 		strb	r3, [sp]
 394:ili9341_ui_driver.hpp ****         }
 1028              		.loc 8 394 13 is_stmt 1 view .LVU314
 1029              	.LVL73:
 1030              	.LBB522:
 1031              	.LBI519:
 172:ili9341_ui_driver.hpp ****     {
 1032              		.loc 8 172 23 view .LVU315
 1033              	.LBB521:
 174:ili9341_ui_driver.hpp ****         return spi_.BlockingTransmit(buff, size);
 1034              		.loc 8 174 9 view .LVU316
 174:ili9341_ui_driver.hpp ****         return spi_.BlockingTransmit(buff, size);
 1035              		.loc 8 174 23 is_stmt 0 view .LVU317
 1036 0262 FFF7FEFF 		bl	dsy_gpio_write
 1037              	.LVL74:
 175:ili9341_ui_driver.hpp ****     };
 1038              		.loc 8 175 9 is_stmt 1 view .LVU318
 175:ili9341_ui_driver.hpp ****     };
 1039              		.loc 8 175 37 is_stmt 0 view .LVU319
 1040 0266 2246     		mov	r2, r4
 1041 0268 6946     		mov	r1, sp
 1042 026a 6423     		movs	r3, #100
 1043 026c 2846     		mov	r0, r5
 1044 026e FFF7FEFF 		bl	_ZN5daisy9SpiHandle16BlockingTransmitEPhjm
 1045              	.LVL75:
 175:ili9341_ui_driver.hpp ****     };
 1046              		.loc 8 175 37 view .LVU320
 1047              	.LBE521:
 1048              	.LBE522:
 1049              	.LBE518:
 398:ili9341_ui_driver.hpp ****         {
 1050              		.loc 8 398 9 is_stmt 1 view .LVU321
 398:ili9341_ui_driver.hpp ****         {
ARM GAS  /var/folders/hl/qgbwny5j0fd895c2c41bk3tw0000gp/T//cchkzwyh.s 			page 43


 1051              		.loc 8 398 9 is_stmt 0 view .LVU322
 1052 0272 C123     		movs	r3, #193
 1053              	.LBB523:
 1054              	.LBB524:
 168:ili9341_ui_driver.hpp ****         return spi_.BlockingTransmit(&cmd, 1);
 1055              		.loc 8 168 23 view .LVU323
 1056 0274 3946     		mov	r1, r7
 1057 0276 3046     		mov	r0, r6
 1058 0278 8DF80030 		strb	r3, [sp]
 1059              	.LVL76:
 168:ili9341_ui_driver.hpp ****         return spi_.BlockingTransmit(&cmd, 1);
 1060              		.loc 8 168 23 view .LVU324
 1061              	.LBE524:
 1062              	.LBI523:
 166:ili9341_ui_driver.hpp ****     {
 1063              		.loc 8 166 23 is_stmt 1 view .LVU325
 1064              	.LBB525:
 168:ili9341_ui_driver.hpp ****         return spi_.BlockingTransmit(&cmd, 1);
 1065              		.loc 8 168 9 view .LVU326
 168:ili9341_ui_driver.hpp ****         return spi_.BlockingTransmit(&cmd, 1);
 1066              		.loc 8 168 23 is_stmt 0 view .LVU327
 1067 027c FFF7FEFF 		bl	dsy_gpio_write
 1068              	.LVL77:
 169:ili9341_ui_driver.hpp ****     };
 1069              		.loc 8 169 9 is_stmt 1 view .LVU328
 169:ili9341_ui_driver.hpp ****     };
 1070              		.loc 8 169 37 is_stmt 0 view .LVU329
 1071 0280 2246     		mov	r2, r4
 1072 0282 6946     		mov	r1, sp
 1073 0284 6423     		movs	r3, #100
 1074 0286 2846     		mov	r0, r5
 1075 0288 FFF7FEFF 		bl	_ZN5daisy9SpiHandle16BlockingTransmitEPhjm
 1076              	.LVL78:
 169:ili9341_ui_driver.hpp ****     };
 1077              		.loc 8 169 37 view .LVU330
 1078              	.LBE525:
 1079              	.LBE523:
 399:ili9341_ui_driver.hpp ****             uint8_t data[1] = {0x10};
 1080              		.loc 8 399 9 is_stmt 1 view .LVU331
 1081              	.LBB526:
 400:ili9341_ui_driver.hpp ****             transport_.SendData(data, 1);
 1082              		.loc 8 400 13 view .LVU332
 400:ili9341_ui_driver.hpp ****             transport_.SendData(data, 1);
 1083              		.loc 8 400 21 is_stmt 0 view .LVU333
 1084 028c 1023     		movs	r3, #16
 1085              	.LBB527:
 1086              	.LBB528:
 174:ili9341_ui_driver.hpp ****         return spi_.BlockingTransmit(buff, size);
 1087              		.loc 8 174 23 view .LVU334
 1088 028e 2146     		mov	r1, r4
 1089 0290 3046     		mov	r0, r6
 1090              	.LBE528:
 1091              	.LBE527:
 400:ili9341_ui_driver.hpp ****             transport_.SendData(data, 1);
 1092              		.loc 8 400 21 view .LVU335
 1093 0292 8DF80030 		strb	r3, [sp]
 401:ili9341_ui_driver.hpp ****         }
ARM GAS  /var/folders/hl/qgbwny5j0fd895c2c41bk3tw0000gp/T//cchkzwyh.s 			page 44


 1094              		.loc 8 401 13 is_stmt 1 view .LVU336
 1095              	.LVL79:
 1096              	.LBB530:
 1097              	.LBI527:
 172:ili9341_ui_driver.hpp ****     {
 1098              		.loc 8 172 23 view .LVU337
 1099              	.LBB529:
 174:ili9341_ui_driver.hpp ****         return spi_.BlockingTransmit(buff, size);
 1100              		.loc 8 174 9 view .LVU338
 174:ili9341_ui_driver.hpp ****         return spi_.BlockingTransmit(buff, size);
 1101              		.loc 8 174 23 is_stmt 0 view .LVU339
 1102 0296 FFF7FEFF 		bl	dsy_gpio_write
 1103              	.LVL80:
 175:ili9341_ui_driver.hpp ****     };
 1104              		.loc 8 175 9 is_stmt 1 view .LVU340
 175:ili9341_ui_driver.hpp ****     };
 1105              		.loc 8 175 37 is_stmt 0 view .LVU341
 1106 029a 2246     		mov	r2, r4
 1107 029c 6946     		mov	r1, sp
 1108 029e 6423     		movs	r3, #100
 1109 02a0 2846     		mov	r0, r5
 1110 02a2 FFF7FEFF 		bl	_ZN5daisy9SpiHandle16BlockingTransmitEPhjm
 1111              	.LVL81:
 175:ili9341_ui_driver.hpp ****     };
 1112              		.loc 8 175 37 view .LVU342
 1113              	.LBE529:
 1114              	.LBE530:
 1115              	.LBE526:
 405:ili9341_ui_driver.hpp ****         {
 1116              		.loc 8 405 9 is_stmt 1 view .LVU343
 405:ili9341_ui_driver.hpp ****         {
 1117              		.loc 8 405 9 is_stmt 0 view .LVU344
 1118 02a6 C523     		movs	r3, #197
 1119              	.LBB531:
 1120              	.LBB532:
 168:ili9341_ui_driver.hpp ****         return spi_.BlockingTransmit(&cmd, 1);
 1121              		.loc 8 168 23 view .LVU345
 1122 02a8 3946     		mov	r1, r7
 1123 02aa 3046     		mov	r0, r6
 1124 02ac 8DF80030 		strb	r3, [sp]
 1125              	.LVL82:
 168:ili9341_ui_driver.hpp ****         return spi_.BlockingTransmit(&cmd, 1);
 1126              		.loc 8 168 23 view .LVU346
 1127              	.LBE532:
 1128              	.LBI531:
 166:ili9341_ui_driver.hpp ****     {
 1129              		.loc 8 166 23 is_stmt 1 view .LVU347
 1130              	.LBB533:
 168:ili9341_ui_driver.hpp ****         return spi_.BlockingTransmit(&cmd, 1);
 1131              		.loc 8 168 9 view .LVU348
 168:ili9341_ui_driver.hpp ****         return spi_.BlockingTransmit(&cmd, 1);
 1132              		.loc 8 168 23 is_stmt 0 view .LVU349
 1133 02b0 FFF7FEFF 		bl	dsy_gpio_write
 1134              	.LVL83:
 169:ili9341_ui_driver.hpp ****     };
 1135              		.loc 8 169 9 is_stmt 1 view .LVU350
 169:ili9341_ui_driver.hpp ****     };
ARM GAS  /var/folders/hl/qgbwny5j0fd895c2c41bk3tw0000gp/T//cchkzwyh.s 			page 45


 1136              		.loc 8 169 37 is_stmt 0 view .LVU351
 1137 02b4 2246     		mov	r2, r4
 1138 02b6 6946     		mov	r1, sp
 1139 02b8 6423     		movs	r3, #100
 1140 02ba 2846     		mov	r0, r5
 1141 02bc FFF7FEFF 		bl	_ZN5daisy9SpiHandle16BlockingTransmitEPhjm
 1142              	.LVL84:
 169:ili9341_ui_driver.hpp ****     };
 1143              		.loc 8 169 37 view .LVU352
 1144              	.LBE533:
 1145              	.LBE531:
 406:ili9341_ui_driver.hpp ****             uint8_t data[2] = {0x3E, 0x28};
 1146              		.loc 8 406 9 is_stmt 1 view .LVU353
 1147              	.LBB534:
 407:ili9341_ui_driver.hpp ****             transport_.SendData(data, 2);
 1148              		.loc 8 407 13 view .LVU354
 407:ili9341_ui_driver.hpp ****             transport_.SendData(data, 2);
 1149              		.loc 8 407 21 is_stmt 0 view .LVU355
 1150 02c0 42F63E03 		movw	r3, #10302
 1151              	.LBB535:
 1152              	.LBB536:
 174:ili9341_ui_driver.hpp ****         return spi_.BlockingTransmit(buff, size);
 1153              		.loc 8 174 23 view .LVU356
 1154 02c4 2146     		mov	r1, r4
 1155 02c6 3046     		mov	r0, r6
 1156              	.LBE536:
 1157              	.LBE535:
 407:ili9341_ui_driver.hpp ****             transport_.SendData(data, 2);
 1158              		.loc 8 407 21 view .LVU357
 1159 02c8 ADF80030 		strh	r3, [sp]	@ movhi
 408:ili9341_ui_driver.hpp ****         }
 1160              		.loc 8 408 13 is_stmt 1 view .LVU358
 1161              	.LVL85:
 1162              	.LBB538:
 1163              	.LBI535:
 172:ili9341_ui_driver.hpp ****     {
 1164              		.loc 8 172 23 view .LVU359
 1165              	.LBB537:
 174:ili9341_ui_driver.hpp ****         return spi_.BlockingTransmit(buff, size);
 1166              		.loc 8 174 9 view .LVU360
 174:ili9341_ui_driver.hpp ****         return spi_.BlockingTransmit(buff, size);
 1167              		.loc 8 174 23 is_stmt 0 view .LVU361
 1168 02cc FFF7FEFF 		bl	dsy_gpio_write
 1169              	.LVL86:
 175:ili9341_ui_driver.hpp ****     };
 1170              		.loc 8 175 9 is_stmt 1 view .LVU362
 175:ili9341_ui_driver.hpp ****     };
 1171              		.loc 8 175 37 is_stmt 0 view .LVU363
 1172 02d0 5A46     		mov	r2, fp
 1173 02d2 6946     		mov	r1, sp
 1174 02d4 6423     		movs	r3, #100
 1175 02d6 2846     		mov	r0, r5
 1176 02d8 FFF7FEFF 		bl	_ZN5daisy9SpiHandle16BlockingTransmitEPhjm
 1177              	.LVL87:
 175:ili9341_ui_driver.hpp ****     };
 1178              		.loc 8 175 37 view .LVU364
 1179              	.LBE537:
ARM GAS  /var/folders/hl/qgbwny5j0fd895c2c41bk3tw0000gp/T//cchkzwyh.s 			page 46


 1180              	.LBE538:
 1181              	.LBE534:
 412:ili9341_ui_driver.hpp ****         {
 1182              		.loc 8 412 9 is_stmt 1 view .LVU365
 412:ili9341_ui_driver.hpp ****         {
 1183              		.loc 8 412 9 is_stmt 0 view .LVU366
 1184 02dc C723     		movs	r3, #199
 1185              	.LBB539:
 1186              	.LBB540:
 168:ili9341_ui_driver.hpp ****         return spi_.BlockingTransmit(&cmd, 1);
 1187              		.loc 8 168 23 view .LVU367
 1188 02de 3946     		mov	r1, r7
 1189 02e0 3046     		mov	r0, r6
 1190 02e2 8DF80030 		strb	r3, [sp]
 1191              	.LVL88:
 168:ili9341_ui_driver.hpp ****         return spi_.BlockingTransmit(&cmd, 1);
 1192              		.loc 8 168 23 view .LVU368
 1193              	.LBE540:
 1194              	.LBI539:
 166:ili9341_ui_driver.hpp ****     {
 1195              		.loc 8 166 23 is_stmt 1 view .LVU369
 1196              	.LBB541:
 168:ili9341_ui_driver.hpp ****         return spi_.BlockingTransmit(&cmd, 1);
 1197              		.loc 8 168 9 view .LVU370
 168:ili9341_ui_driver.hpp ****         return spi_.BlockingTransmit(&cmd, 1);
 1198              		.loc 8 168 23 is_stmt 0 view .LVU371
 1199 02e6 FFF7FEFF 		bl	dsy_gpio_write
 1200              	.LVL89:
 169:ili9341_ui_driver.hpp ****     };
 1201              		.loc 8 169 9 is_stmt 1 view .LVU372
 169:ili9341_ui_driver.hpp ****     };
 1202              		.loc 8 169 37 is_stmt 0 view .LVU373
 1203 02ea 2246     		mov	r2, r4
 1204 02ec 6946     		mov	r1, sp
 1205 02ee 6423     		movs	r3, #100
 1206 02f0 2846     		mov	r0, r5
 1207 02f2 FFF7FEFF 		bl	_ZN5daisy9SpiHandle16BlockingTransmitEPhjm
 1208              	.LVL90:
 169:ili9341_ui_driver.hpp ****     };
 1209              		.loc 8 169 37 view .LVU374
 1210              	.LBE541:
 1211              	.LBE539:
 413:ili9341_ui_driver.hpp ****             uint8_t data[1] = {0x86};
 1212              		.loc 8 413 9 is_stmt 1 view .LVU375
 1213              	.LBB542:
 414:ili9341_ui_driver.hpp ****             transport_.SendData(data, 1);
 1214              		.loc 8 414 13 view .LVU376
 414:ili9341_ui_driver.hpp ****             transport_.SendData(data, 1);
 1215              		.loc 8 414 21 is_stmt 0 view .LVU377
 1216 02f6 8623     		movs	r3, #134
 1217              	.LBB543:
 1218              	.LBB544:
 174:ili9341_ui_driver.hpp ****         return spi_.BlockingTransmit(buff, size);
 1219              		.loc 8 174 23 view .LVU378
 1220 02f8 2146     		mov	r1, r4
 1221 02fa 3046     		mov	r0, r6
 1222              	.LBE544:
ARM GAS  /var/folders/hl/qgbwny5j0fd895c2c41bk3tw0000gp/T//cchkzwyh.s 			page 47


 1223              	.LBE543:
 414:ili9341_ui_driver.hpp ****             transport_.SendData(data, 1);
 1224              		.loc 8 414 21 view .LVU379
 1225 02fc 8DF80030 		strb	r3, [sp]
 415:ili9341_ui_driver.hpp ****         }
 1226              		.loc 8 415 13 is_stmt 1 view .LVU380
 1227              	.LVL91:
 1228              	.LBB546:
 1229              	.LBI543:
 172:ili9341_ui_driver.hpp ****     {
 1230              		.loc 8 172 23 view .LVU381
 1231              	.LBB545:
 174:ili9341_ui_driver.hpp ****         return spi_.BlockingTransmit(buff, size);
 1232              		.loc 8 174 9 view .LVU382
 174:ili9341_ui_driver.hpp ****         return spi_.BlockingTransmit(buff, size);
 1233              		.loc 8 174 23 is_stmt 0 view .LVU383
 1234 0300 FFF7FEFF 		bl	dsy_gpio_write
 1235              	.LVL92:
 175:ili9341_ui_driver.hpp ****     };
 1236              		.loc 8 175 9 is_stmt 1 view .LVU384
 175:ili9341_ui_driver.hpp ****     };
 1237              		.loc 8 175 37 is_stmt 0 view .LVU385
 1238 0304 2246     		mov	r2, r4
 1239 0306 6423     		movs	r3, #100
 1240 0308 6946     		mov	r1, sp
 1241 030a 2846     		mov	r0, r5
 1242 030c FFF7FEFF 		bl	_ZN5daisy9SpiHandle16BlockingTransmitEPhjm
 1243              	.LVL93:
 175:ili9341_ui_driver.hpp ****     };
 1244              		.loc 8 175 37 view .LVU386
 1245              	.LBE545:
 1246              	.LBE546:
 1247              	.LBE542:
 419:ili9341_ui_driver.hpp ****         {
 1248              		.loc 8 419 9 is_stmt 1 view .LVU387
 1249              	.LBB547:
 1250              	.LBB548:
 168:ili9341_ui_driver.hpp ****         return spi_.BlockingTransmit(&cmd, 1);
 1251              		.loc 8 168 23 is_stmt 0 view .LVU388
 1252 0310 3946     		mov	r1, r7
 1253 0312 3046     		mov	r0, r6
 1254 0314 8DF800A0 		strb	r10, [sp]
 1255              	.LVL94:
 168:ili9341_ui_driver.hpp ****         return spi_.BlockingTransmit(&cmd, 1);
 1256              		.loc 8 168 23 view .LVU389
 1257              	.LBE548:
 1258              	.LBI547:
 166:ili9341_ui_driver.hpp ****     {
 1259              		.loc 8 166 23 is_stmt 1 view .LVU390
 1260              	.LBB549:
 168:ili9341_ui_driver.hpp ****         return spi_.BlockingTransmit(&cmd, 1);
 1261              		.loc 8 168 9 view .LVU391
 168:ili9341_ui_driver.hpp ****         return spi_.BlockingTransmit(&cmd, 1);
 1262              		.loc 8 168 23 is_stmt 0 view .LVU392
 1263 0318 FFF7FEFF 		bl	dsy_gpio_write
 1264              	.LVL95:
 169:ili9341_ui_driver.hpp ****     };
ARM GAS  /var/folders/hl/qgbwny5j0fd895c2c41bk3tw0000gp/T//cchkzwyh.s 			page 48


 1265              		.loc 8 169 9 is_stmt 1 view .LVU393
 169:ili9341_ui_driver.hpp ****     };
 1266              		.loc 8 169 37 is_stmt 0 view .LVU394
 1267 031c 2246     		mov	r2, r4
 1268 031e 6946     		mov	r1, sp
 1269 0320 6423     		movs	r3, #100
 1270 0322 2846     		mov	r0, r5
 1271 0324 FFF7FEFF 		bl	_ZN5daisy9SpiHandle16BlockingTransmitEPhjm
 1272              	.LVL96:
 169:ili9341_ui_driver.hpp ****     };
 1273              		.loc 8 169 37 view .LVU395
 1274              	.LBE549:
 1275              	.LBE547:
 420:ili9341_ui_driver.hpp ****             uint8_t data[1] = {0x48};
 1276              		.loc 8 420 9 is_stmt 1 view .LVU396
 1277              	.LBB550:
 421:ili9341_ui_driver.hpp ****             transport_.SendData(data, 1);
 1278              		.loc 8 421 13 view .LVU397
 421:ili9341_ui_driver.hpp ****             transport_.SendData(data, 1);
 1279              		.loc 8 421 21 is_stmt 0 view .LVU398
 1280 0328 4823     		movs	r3, #72
 1281              	.LBB551:
 1282              	.LBB552:
 174:ili9341_ui_driver.hpp ****         return spi_.BlockingTransmit(buff, size);
 1283              		.loc 8 174 23 view .LVU399
 1284 032a 2146     		mov	r1, r4
 1285 032c 3046     		mov	r0, r6
 1286              	.LBE552:
 1287              	.LBE551:
 421:ili9341_ui_driver.hpp ****             transport_.SendData(data, 1);
 1288              		.loc 8 421 21 view .LVU400
 1289 032e 8DF80030 		strb	r3, [sp]
 422:ili9341_ui_driver.hpp ****         }
 1290              		.loc 8 422 13 is_stmt 1 view .LVU401
 1291              	.LVL97:
 1292              	.LBB554:
 1293              	.LBI551:
 172:ili9341_ui_driver.hpp ****     {
 1294              		.loc 8 172 23 view .LVU402
 1295              	.LBB553:
 174:ili9341_ui_driver.hpp ****         return spi_.BlockingTransmit(buff, size);
 1296              		.loc 8 174 9 view .LVU403
 174:ili9341_ui_driver.hpp ****         return spi_.BlockingTransmit(buff, size);
 1297              		.loc 8 174 23 is_stmt 0 view .LVU404
 1298 0332 FFF7FEFF 		bl	dsy_gpio_write
 1299              	.LVL98:
 175:ili9341_ui_driver.hpp ****     };
 1300              		.loc 8 175 9 is_stmt 1 view .LVU405
 175:ili9341_ui_driver.hpp ****     };
 1301              		.loc 8 175 37 is_stmt 0 view .LVU406
 1302 0336 2246     		mov	r2, r4
 1303 0338 6946     		mov	r1, sp
 1304 033a 6423     		movs	r3, #100
 1305 033c 2846     		mov	r0, r5
 1306 033e FFF7FEFF 		bl	_ZN5daisy9SpiHandle16BlockingTransmitEPhjm
 1307              	.LVL99:
 175:ili9341_ui_driver.hpp ****     };
ARM GAS  /var/folders/hl/qgbwny5j0fd895c2c41bk3tw0000gp/T//cchkzwyh.s 			page 49


 1308              		.loc 8 175 37 view .LVU407
 1309              	.LBE553:
 1310              	.LBE554:
 1311              	.LBE550:
 426:ili9341_ui_driver.hpp ****         {
 1312              		.loc 8 426 9 is_stmt 1 view .LVU408
 426:ili9341_ui_driver.hpp ****         {
 1313              		.loc 8 426 9 is_stmt 0 view .LVU409
 1314 0342 3A23     		movs	r3, #58
 1315              	.LBB555:
 1316              	.LBB556:
 168:ili9341_ui_driver.hpp ****         return spi_.BlockingTransmit(&cmd, 1);
 1317              		.loc 8 168 23 view .LVU410
 1318 0344 3946     		mov	r1, r7
 1319 0346 3046     		mov	r0, r6
 1320 0348 8DF80030 		strb	r3, [sp]
 1321              	.LVL100:
 168:ili9341_ui_driver.hpp ****         return spi_.BlockingTransmit(&cmd, 1);
 1322              		.loc 8 168 23 view .LVU411
 1323              	.LBE556:
 1324              	.LBI555:
 166:ili9341_ui_driver.hpp ****     {
 1325              		.loc 8 166 23 is_stmt 1 view .LVU412
 1326              	.LBB557:
 168:ili9341_ui_driver.hpp ****         return spi_.BlockingTransmit(&cmd, 1);
 1327              		.loc 8 168 9 view .LVU413
 168:ili9341_ui_driver.hpp ****         return spi_.BlockingTransmit(&cmd, 1);
 1328              		.loc 8 168 23 is_stmt 0 view .LVU414
 1329 034c FFF7FEFF 		bl	dsy_gpio_write
 1330              	.LVL101:
 169:ili9341_ui_driver.hpp ****     };
 1331              		.loc 8 169 9 is_stmt 1 view .LVU415
 169:ili9341_ui_driver.hpp ****     };
 1332              		.loc 8 169 37 is_stmt 0 view .LVU416
 1333 0350 2246     		mov	r2, r4
 1334 0352 6946     		mov	r1, sp
 1335 0354 6423     		movs	r3, #100
 1336 0356 2846     		mov	r0, r5
 1337 0358 FFF7FEFF 		bl	_ZN5daisy9SpiHandle16BlockingTransmitEPhjm
 1338              	.LVL102:
 169:ili9341_ui_driver.hpp ****     };
 1339              		.loc 8 169 37 view .LVU417
 1340              	.LBE557:
 1341              	.LBE555:
 427:ili9341_ui_driver.hpp ****             uint8_t data[1] = {0x55};
 1342              		.loc 8 427 9 is_stmt 1 view .LVU418
 1343              	.LBB558:
 428:ili9341_ui_driver.hpp ****             transport_.SendData(data, 1);
 1344              		.loc 8 428 13 view .LVU419
 428:ili9341_ui_driver.hpp ****             transport_.SendData(data, 1);
 1345              		.loc 8 428 21 is_stmt 0 view .LVU420
 1346 035c 5523     		movs	r3, #85
 1347              	.LBB559:
 1348              	.LBB560:
 174:ili9341_ui_driver.hpp ****         return spi_.BlockingTransmit(buff, size);
 1349              		.loc 8 174 23 view .LVU421
 1350 035e 2146     		mov	r1, r4
ARM GAS  /var/folders/hl/qgbwny5j0fd895c2c41bk3tw0000gp/T//cchkzwyh.s 			page 50


 1351 0360 3046     		mov	r0, r6
 1352              	.LBE560:
 1353              	.LBE559:
 428:ili9341_ui_driver.hpp ****             transport_.SendData(data, 1);
 1354              		.loc 8 428 21 view .LVU422
 1355 0362 8DF80030 		strb	r3, [sp]
 429:ili9341_ui_driver.hpp ****         }
 1356              		.loc 8 429 13 is_stmt 1 view .LVU423
 1357              	.LVL103:
 1358              	.LBB562:
 1359              	.LBI559:
 172:ili9341_ui_driver.hpp ****     {
 1360              		.loc 8 172 23 view .LVU424
 1361              	.LBB561:
 174:ili9341_ui_driver.hpp ****         return spi_.BlockingTransmit(buff, size);
 1362              		.loc 8 174 9 view .LVU425
 174:ili9341_ui_driver.hpp ****         return spi_.BlockingTransmit(buff, size);
 1363              		.loc 8 174 23 is_stmt 0 view .LVU426
 1364 0366 FFF7FEFF 		bl	dsy_gpio_write
 1365              	.LVL104:
 175:ili9341_ui_driver.hpp ****     };
 1366              		.loc 8 175 9 is_stmt 1 view .LVU427
 175:ili9341_ui_driver.hpp ****     };
 1367              		.loc 8 175 37 is_stmt 0 view .LVU428
 1368 036a 2246     		mov	r2, r4
 1369 036c 6946     		mov	r1, sp
 1370 036e 6423     		movs	r3, #100
 1371 0370 2846     		mov	r0, r5
 1372 0372 FFF7FEFF 		bl	_ZN5daisy9SpiHandle16BlockingTransmitEPhjm
 1373              	.LVL105:
 175:ili9341_ui_driver.hpp ****     };
 1374              		.loc 8 175 37 view .LVU429
 1375              	.LBE561:
 1376              	.LBE562:
 1377              	.LBE558:
 433:ili9341_ui_driver.hpp ****         {
 1378              		.loc 8 433 9 is_stmt 1 view .LVU430
 433:ili9341_ui_driver.hpp ****         {
 1379              		.loc 8 433 9 is_stmt 0 view .LVU431
 1380 0376 B123     		movs	r3, #177
 1381              	.LBB563:
 1382              	.LBB564:
 168:ili9341_ui_driver.hpp ****         return spi_.BlockingTransmit(&cmd, 1);
 1383              		.loc 8 168 23 view .LVU432
 1384 0378 3946     		mov	r1, r7
 1385 037a 3046     		mov	r0, r6
 1386 037c 8DF80030 		strb	r3, [sp]
 1387              	.LVL106:
 168:ili9341_ui_driver.hpp ****         return spi_.BlockingTransmit(&cmd, 1);
 1388              		.loc 8 168 23 view .LVU433
 1389              	.LBE564:
 1390              	.LBI563:
 166:ili9341_ui_driver.hpp ****     {
 1391              		.loc 8 166 23 is_stmt 1 view .LVU434
 1392              	.LBB565:
 168:ili9341_ui_driver.hpp ****         return spi_.BlockingTransmit(&cmd, 1);
 1393              		.loc 8 168 9 view .LVU435
ARM GAS  /var/folders/hl/qgbwny5j0fd895c2c41bk3tw0000gp/T//cchkzwyh.s 			page 51


 168:ili9341_ui_driver.hpp ****         return spi_.BlockingTransmit(&cmd, 1);
 1394              		.loc 8 168 23 is_stmt 0 view .LVU436
 1395 0380 FFF7FEFF 		bl	dsy_gpio_write
 1396              	.LVL107:
 169:ili9341_ui_driver.hpp ****     };
 1397              		.loc 8 169 9 is_stmt 1 view .LVU437
 169:ili9341_ui_driver.hpp ****     };
 1398              		.loc 8 169 37 is_stmt 0 view .LVU438
 1399 0384 2246     		mov	r2, r4
 1400 0386 6946     		mov	r1, sp
 1401 0388 6423     		movs	r3, #100
 1402 038a 2846     		mov	r0, r5
 1403 038c FFF7FEFF 		bl	_ZN5daisy9SpiHandle16BlockingTransmitEPhjm
 1404              	.LVL108:
 169:ili9341_ui_driver.hpp ****     };
 1405              		.loc 8 169 37 view .LVU439
 1406              	.LBE565:
 1407              	.LBE563:
 434:ili9341_ui_driver.hpp ****             uint8_t data[2] = {0x00, 0x18};
 1408              		.loc 8 434 9 is_stmt 1 view .LVU440
 1409              	.LBB566:
 435:ili9341_ui_driver.hpp ****             transport_.SendData(data, 2);
 1410              		.loc 8 435 13 view .LVU441
 435:ili9341_ui_driver.hpp ****             transport_.SendData(data, 2);
 1411              		.loc 8 435 21 is_stmt 0 view .LVU442
 1412 0390 4FF4C053 		mov	r3, #6144
 1413              	.LBB567:
 1414              	.LBB568:
 174:ili9341_ui_driver.hpp ****         return spi_.BlockingTransmit(buff, size);
 1415              		.loc 8 174 23 view .LVU443
 1416 0394 2146     		mov	r1, r4
 1417 0396 3046     		mov	r0, r6
 1418              	.LBE568:
 1419              	.LBE567:
 435:ili9341_ui_driver.hpp ****             transport_.SendData(data, 2);
 1420              		.loc 8 435 21 view .LVU444
 1421 0398 ADF80030 		strh	r3, [sp]	@ movhi
 436:ili9341_ui_driver.hpp ****         }
 1422              		.loc 8 436 13 is_stmt 1 view .LVU445
 1423              	.LVL109:
 1424              	.LBB570:
 1425              	.LBI567:
 172:ili9341_ui_driver.hpp ****     {
 1426              		.loc 8 172 23 view .LVU446
 1427              	.LBB569:
 174:ili9341_ui_driver.hpp ****         return spi_.BlockingTransmit(buff, size);
 1428              		.loc 8 174 9 view .LVU447
 174:ili9341_ui_driver.hpp ****         return spi_.BlockingTransmit(buff, size);
 1429              		.loc 8 174 23 is_stmt 0 view .LVU448
 1430 039c FFF7FEFF 		bl	dsy_gpio_write
 1431              	.LVL110:
 175:ili9341_ui_driver.hpp ****     };
 1432              		.loc 8 175 9 is_stmt 1 view .LVU449
 175:ili9341_ui_driver.hpp ****     };
 1433              		.loc 8 175 37 is_stmt 0 view .LVU450
 1434 03a0 5A46     		mov	r2, fp
 1435 03a2 6946     		mov	r1, sp
ARM GAS  /var/folders/hl/qgbwny5j0fd895c2c41bk3tw0000gp/T//cchkzwyh.s 			page 52


 1436 03a4 6423     		movs	r3, #100
 1437 03a6 2846     		mov	r0, r5
 1438 03a8 FFF7FEFF 		bl	_ZN5daisy9SpiHandle16BlockingTransmitEPhjm
 1439              	.LVL111:
 175:ili9341_ui_driver.hpp ****     };
 1440              		.loc 8 175 37 view .LVU451
 1441              	.LBE569:
 1442              	.LBE570:
 1443              	.LBE566:
 440:ili9341_ui_driver.hpp ****         {
 1444              		.loc 8 440 9 is_stmt 1 view .LVU452
 440:ili9341_ui_driver.hpp ****         {
 1445              		.loc 8 440 9 is_stmt 0 view .LVU453
 1446 03ac B623     		movs	r3, #182
 1447              	.LBB571:
 1448              	.LBB572:
 168:ili9341_ui_driver.hpp ****         return spi_.BlockingTransmit(&cmd, 1);
 1449              		.loc 8 168 23 view .LVU454
 1450 03ae 3946     		mov	r1, r7
 1451 03b0 3046     		mov	r0, r6
 1452 03b2 8DF80030 		strb	r3, [sp]
 1453              	.LVL112:
 168:ili9341_ui_driver.hpp ****         return spi_.BlockingTransmit(&cmd, 1);
 1454              		.loc 8 168 23 view .LVU455
 1455              	.LBE572:
 1456              	.LBI571:
 166:ili9341_ui_driver.hpp ****     {
 1457              		.loc 8 166 23 is_stmt 1 view .LVU456
 1458              	.LBB573:
 168:ili9341_ui_driver.hpp ****         return spi_.BlockingTransmit(&cmd, 1);
 1459              		.loc 8 168 9 view .LVU457
 168:ili9341_ui_driver.hpp ****         return spi_.BlockingTransmit(&cmd, 1);
 1460              		.loc 8 168 23 is_stmt 0 view .LVU458
 1461 03b6 FFF7FEFF 		bl	dsy_gpio_write
 1462              	.LVL113:
 169:ili9341_ui_driver.hpp ****     };
 1463              		.loc 8 169 9 is_stmt 1 view .LVU459
 169:ili9341_ui_driver.hpp ****     };
 1464              		.loc 8 169 37 is_stmt 0 view .LVU460
 1465 03ba 2246     		mov	r2, r4
 1466 03bc 6946     		mov	r1, sp
 1467 03be 6423     		movs	r3, #100
 1468 03c0 2846     		mov	r0, r5
 1469 03c2 FFF7FEFF 		bl	_ZN5daisy9SpiHandle16BlockingTransmitEPhjm
 1470              	.LVL114:
 169:ili9341_ui_driver.hpp ****     };
 1471              		.loc 8 169 37 view .LVU461
 1472              	.LBE573:
 1473              	.LBE571:
 441:ili9341_ui_driver.hpp ****             uint8_t data[3] = {0x08, 0x82, 0x27};
 1474              		.loc 8 441 9 is_stmt 1 view .LVU462
 1475              	.LBB574:
 442:ili9341_ui_driver.hpp ****             transport_.SendData(data, 3);
 1476              		.loc 8 442 13 view .LVU463
 442:ili9341_ui_driver.hpp ****             transport_.SendData(data, 3);
 1477              		.loc 8 442 21 is_stmt 0 view .LVU464
 1478 03c6 0C4B     		ldr	r3, .L15+12
ARM GAS  /var/folders/hl/qgbwny5j0fd895c2c41bk3tw0000gp/T//cchkzwyh.s 			page 53


 1479              	.LBB575:
 1480              	.LBB576:
 174:ili9341_ui_driver.hpp ****         return spi_.BlockingTransmit(buff, size);
 1481              		.loc 8 174 23 view .LVU465
 1482 03c8 2146     		mov	r1, r4
 1483 03ca 3046     		mov	r0, r6
 1484              	.LBE576:
 1485              	.LBE575:
 442:ili9341_ui_driver.hpp ****             transport_.SendData(data, 3);
 1486              		.loc 8 442 21 view .LVU466
 1487 03cc 1B68     		ldr	r3, [r3]
 1488 03ce ADF80030 		strh	r3, [sp]	@ movhi
 1489 03d2 1B0C     		lsrs	r3, r3, #16
 1490 03d4 8DF80230 		strb	r3, [sp, #2]
 443:ili9341_ui_driver.hpp ****         }
 1491              		.loc 8 443 13 is_stmt 1 view .LVU467
 1492              	.LVL115:
 1493              	.LBB578:
 1494              	.LBI575:
 172:ili9341_ui_driver.hpp ****     {
 1495              		.loc 8 172 23 view .LVU468
 1496              	.LBB577:
 174:ili9341_ui_driver.hpp ****         return spi_.BlockingTransmit(buff, size);
 1497              		.loc 8 174 9 view .LVU469
 174:ili9341_ui_driver.hpp ****         return spi_.BlockingTransmit(buff, size);
 1498              		.loc 8 174 23 is_stmt 0 view .LVU470
 1499 03d8 FFF7FEFF 		bl	dsy_gpio_write
 1500              	.LVL116:
 175:ili9341_ui_driver.hpp ****     };
 1501              		.loc 8 175 9 is_stmt 1 view .LVU471
 175:ili9341_ui_driver.hpp ****     };
 1502              		.loc 8 175 37 is_stmt 0 view .LVU472
 1503 03dc 0322     		movs	r2, #3
 1504 03de 6946     		mov	r1, sp
 1505 03e0 6423     		movs	r3, #100
 1506 03e2 2846     		mov	r0, r5
 1507 03e4 FFF7FEFF 		bl	_ZN5daisy9SpiHandle16BlockingTransmitEPhjm
 1508              	.LVL117:
 1509 03e8 0AE0     		b	.L16
 1510              	.L17:
 1511 03ea 00BF     		.align	2
 1512              	.L15:
 1513 03ec 00000000 		.word	.LANCHOR0
 1514 03f0 4001F000 		.word	15728960
 1515 03f4 64031281 		.word	-2129525916
 1516 03f8 00000000 		.word	.LC3
 1517 03fc 00000000 		.word	.LANCHOR1
 1518              	.L16:
 1519              	.LVL118:
 175:ili9341_ui_driver.hpp ****     };
 1520              		.loc 8 175 37 view .LVU473
 1521              	.LBE577:
 1522              	.LBE578:
 1523              	.LBE574:
 447:ili9341_ui_driver.hpp ****         {
 1524              		.loc 8 447 9 is_stmt 1 view .LVU474
 447:ili9341_ui_driver.hpp ****         {
ARM GAS  /var/folders/hl/qgbwny5j0fd895c2c41bk3tw0000gp/T//cchkzwyh.s 			page 54


 1525              		.loc 8 447 9 is_stmt 0 view .LVU475
 1526 0400 F223     		movs	r3, #242
 1527              	.LBB579:
 1528              	.LBB580:
 168:ili9341_ui_driver.hpp ****         return spi_.BlockingTransmit(&cmd, 1);
 1529              		.loc 8 168 23 view .LVU476
 1530 0402 3946     		mov	r1, r7
 1531 0404 3046     		mov	r0, r6
 1532 0406 8DF80030 		strb	r3, [sp]
 1533              	.LVL119:
 168:ili9341_ui_driver.hpp ****         return spi_.BlockingTransmit(&cmd, 1);
 1534              		.loc 8 168 23 view .LVU477
 1535              	.LBE580:
 1536              	.LBI579:
 166:ili9341_ui_driver.hpp ****     {
 1537              		.loc 8 166 23 is_stmt 1 view .LVU478
 1538              	.LBB581:
 168:ili9341_ui_driver.hpp ****         return spi_.BlockingTransmit(&cmd, 1);
 1539              		.loc 8 168 9 view .LVU479
 168:ili9341_ui_driver.hpp ****         return spi_.BlockingTransmit(&cmd, 1);
 1540              		.loc 8 168 23 is_stmt 0 view .LVU480
 1541 040a FFF7FEFF 		bl	dsy_gpio_write
 1542              	.LVL120:
 169:ili9341_ui_driver.hpp ****     };
 1543              		.loc 8 169 9 is_stmt 1 view .LVU481
 169:ili9341_ui_driver.hpp ****     };
 1544              		.loc 8 169 37 is_stmt 0 view .LVU482
 1545 040e 2246     		mov	r2, r4
 1546 0410 6423     		movs	r3, #100
 1547 0412 6946     		mov	r1, sp
 1548 0414 2846     		mov	r0, r5
 1549 0416 FFF7FEFF 		bl	_ZN5daisy9SpiHandle16BlockingTransmitEPhjm
 1550              	.LVL121:
 169:ili9341_ui_driver.hpp ****     };
 1551              		.loc 8 169 37 view .LVU483
 1552              	.LBE581:
 1553              	.LBE579:
 448:ili9341_ui_driver.hpp ****             uint8_t data[1] = {0x00};
 1554              		.loc 8 448 9 is_stmt 1 view .LVU484
 1555              	.LBB582:
 449:ili9341_ui_driver.hpp ****             transport_.SendData(data, 1);
 1556              		.loc 8 449 13 view .LVU485
 1557              	.LBB583:
 1558              	.LBB584:
 174:ili9341_ui_driver.hpp ****         return spi_.BlockingTransmit(buff, size);
 1559              		.loc 8 174 23 is_stmt 0 view .LVU486
 1560 041a 2146     		mov	r1, r4
 1561 041c 3046     		mov	r0, r6
 1562              	.LBE584:
 1563              	.LBE583:
 449:ili9341_ui_driver.hpp ****             transport_.SendData(data, 1);
 1564              		.loc 8 449 21 view .LVU487
 1565 041e 8DF80070 		strb	r7, [sp]
 450:ili9341_ui_driver.hpp ****         }
 1566              		.loc 8 450 13 is_stmt 1 view .LVU488
 1567              	.LVL122:
 1568              	.LBB586:
ARM GAS  /var/folders/hl/qgbwny5j0fd895c2c41bk3tw0000gp/T//cchkzwyh.s 			page 55


 1569              	.LBI583:
 172:ili9341_ui_driver.hpp ****     {
 1570              		.loc 8 172 23 view .LVU489
 1571              	.LBB585:
 174:ili9341_ui_driver.hpp ****         return spi_.BlockingTransmit(buff, size);
 1572              		.loc 8 174 9 view .LVU490
 174:ili9341_ui_driver.hpp ****         return spi_.BlockingTransmit(buff, size);
 1573              		.loc 8 174 23 is_stmt 0 view .LVU491
 1574 0422 FFF7FEFF 		bl	dsy_gpio_write
 1575              	.LVL123:
 175:ili9341_ui_driver.hpp ****     };
 1576              		.loc 8 175 9 is_stmt 1 view .LVU492
 175:ili9341_ui_driver.hpp ****     };
 1577              		.loc 8 175 37 is_stmt 0 view .LVU493
 1578 0426 2246     		mov	r2, r4
 1579 0428 6946     		mov	r1, sp
 1580 042a 6423     		movs	r3, #100
 1581 042c 2846     		mov	r0, r5
 1582 042e FFF7FEFF 		bl	_ZN5daisy9SpiHandle16BlockingTransmitEPhjm
 1583              	.LVL124:
 175:ili9341_ui_driver.hpp ****     };
 1584              		.loc 8 175 37 view .LVU494
 1585              	.LBE585:
 1586              	.LBE586:
 1587              	.LBE582:
 454:ili9341_ui_driver.hpp ****         {
 1588              		.loc 8 454 9 is_stmt 1 view .LVU495
 454:ili9341_ui_driver.hpp ****         {
 1589              		.loc 8 454 9 is_stmt 0 view .LVU496
 1590 0432 2623     		movs	r3, #38
 1591              	.LBB587:
 1592              	.LBB588:
 168:ili9341_ui_driver.hpp ****         return spi_.BlockingTransmit(&cmd, 1);
 1593              		.loc 8 168 23 view .LVU497
 1594 0434 3946     		mov	r1, r7
 1595 0436 3046     		mov	r0, r6
 1596 0438 8DF80030 		strb	r3, [sp]
 1597              	.LVL125:
 168:ili9341_ui_driver.hpp ****         return spi_.BlockingTransmit(&cmd, 1);
 1598              		.loc 8 168 23 view .LVU498
 1599              	.LBE588:
 1600              	.LBI587:
 166:ili9341_ui_driver.hpp ****     {
 1601              		.loc 8 166 23 is_stmt 1 view .LVU499
 1602              	.LBB589:
 168:ili9341_ui_driver.hpp ****         return spi_.BlockingTransmit(&cmd, 1);
 1603              		.loc 8 168 9 view .LVU500
 168:ili9341_ui_driver.hpp ****         return spi_.BlockingTransmit(&cmd, 1);
 1604              		.loc 8 168 23 is_stmt 0 view .LVU501
 1605 043c FFF7FEFF 		bl	dsy_gpio_write
 1606              	.LVL126:
 169:ili9341_ui_driver.hpp ****     };
 1607              		.loc 8 169 9 is_stmt 1 view .LVU502
 169:ili9341_ui_driver.hpp ****     };
 1608              		.loc 8 169 37 is_stmt 0 view .LVU503
 1609 0440 2246     		mov	r2, r4
 1610 0442 6423     		movs	r3, #100
ARM GAS  /var/folders/hl/qgbwny5j0fd895c2c41bk3tw0000gp/T//cchkzwyh.s 			page 56


 1611 0444 6946     		mov	r1, sp
 1612 0446 2846     		mov	r0, r5
 1613 0448 FFF7FEFF 		bl	_ZN5daisy9SpiHandle16BlockingTransmitEPhjm
 1614              	.LVL127:
 169:ili9341_ui_driver.hpp ****     };
 1615              		.loc 8 169 37 view .LVU504
 1616              	.LBE589:
 1617              	.LBE587:
 455:ili9341_ui_driver.hpp ****             uint8_t data[1] = {0x01};
 1618              		.loc 8 455 9 is_stmt 1 view .LVU505
 1619              	.LBB590:
 456:ili9341_ui_driver.hpp ****             transport_.SendData(data, 1);
 1620              		.loc 8 456 13 view .LVU506
 1621              	.LBB591:
 1622              	.LBB592:
 174:ili9341_ui_driver.hpp ****         return spi_.BlockingTransmit(buff, size);
 1623              		.loc 8 174 23 is_stmt 0 view .LVU507
 1624 044c 2146     		mov	r1, r4
 1625 044e 3046     		mov	r0, r6
 1626              	.LBE592:
 1627              	.LBE591:
 456:ili9341_ui_driver.hpp ****             transport_.SendData(data, 1);
 1628              		.loc 8 456 21 view .LVU508
 1629 0450 8DF80040 		strb	r4, [sp]
 457:ili9341_ui_driver.hpp ****         }
 1630              		.loc 8 457 13 is_stmt 1 view .LVU509
 1631              	.LVL128:
 1632              	.LBB594:
 1633              	.LBI591:
 172:ili9341_ui_driver.hpp ****     {
 1634              		.loc 8 172 23 view .LVU510
 1635              	.LBB593:
 174:ili9341_ui_driver.hpp ****         return spi_.BlockingTransmit(buff, size);
 1636              		.loc 8 174 9 view .LVU511
 174:ili9341_ui_driver.hpp ****         return spi_.BlockingTransmit(buff, size);
 1637              		.loc 8 174 23 is_stmt 0 view .LVU512
 1638 0454 FFF7FEFF 		bl	dsy_gpio_write
 1639              	.LVL129:
 175:ili9341_ui_driver.hpp ****     };
 1640              		.loc 8 175 9 is_stmt 1 view .LVU513
 175:ili9341_ui_driver.hpp ****     };
 1641              		.loc 8 175 37 is_stmt 0 view .LVU514
 1642 0458 2246     		mov	r2, r4
 1643 045a 6946     		mov	r1, sp
 1644 045c 6423     		movs	r3, #100
 1645 045e 2846     		mov	r0, r5
 1646 0460 FFF7FEFF 		bl	_ZN5daisy9SpiHandle16BlockingTransmitEPhjm
 1647              	.LVL130:
 175:ili9341_ui_driver.hpp ****     };
 1648              		.loc 8 175 37 view .LVU515
 1649              	.LBE593:
 1650              	.LBE594:
 1651              	.LBE590:
 461:ili9341_ui_driver.hpp ****         {
 1652              		.loc 8 461 9 is_stmt 1 view .LVU516
 461:ili9341_ui_driver.hpp ****         {
 1653              		.loc 8 461 9 is_stmt 0 view .LVU517
ARM GAS  /var/folders/hl/qgbwny5j0fd895c2c41bk3tw0000gp/T//cchkzwyh.s 			page 57


 1654 0464 E023     		movs	r3, #224
 1655              	.LBB595:
 1656              	.LBB596:
 168:ili9341_ui_driver.hpp ****         return spi_.BlockingTransmit(&cmd, 1);
 1657              		.loc 8 168 23 view .LVU518
 1658 0466 3946     		mov	r1, r7
 1659 0468 3046     		mov	r0, r6
 1660 046a 8DF80030 		strb	r3, [sp]
 1661              	.LVL131:
 168:ili9341_ui_driver.hpp ****         return spi_.BlockingTransmit(&cmd, 1);
 1662              		.loc 8 168 23 view .LVU519
 1663              	.LBE596:
 1664              	.LBI595:
 166:ili9341_ui_driver.hpp ****     {
 1665              		.loc 8 166 23 is_stmt 1 view .LVU520
 1666              	.LBB597:
 168:ili9341_ui_driver.hpp ****         return spi_.BlockingTransmit(&cmd, 1);
 1667              		.loc 8 168 9 view .LVU521
 168:ili9341_ui_driver.hpp ****         return spi_.BlockingTransmit(&cmd, 1);
 1668              		.loc 8 168 23 is_stmt 0 view .LVU522
 1669 046e FFF7FEFF 		bl	dsy_gpio_write
 1670              	.LVL132:
 169:ili9341_ui_driver.hpp ****     };
 1671              		.loc 8 169 9 is_stmt 1 view .LVU523
 169:ili9341_ui_driver.hpp ****     };
 1672              		.loc 8 169 37 is_stmt 0 view .LVU524
 1673 0472 2246     		mov	r2, r4
 1674 0474 6946     		mov	r1, sp
 1675 0476 6423     		movs	r3, #100
 1676 0478 2846     		mov	r0, r5
 1677 047a FFF7FEFF 		bl	_ZN5daisy9SpiHandle16BlockingTransmitEPhjm
 1678              	.LVL133:
 169:ili9341_ui_driver.hpp ****     };
 1679              		.loc 8 169 37 view .LVU525
 1680              	.LBE597:
 1681              	.LBE595:
 462:ili9341_ui_driver.hpp ****             uint8_t data[15] = {0x0F,
 1682              		.loc 8 462 9 is_stmt 1 view .LVU526
 1683              	.LBB598:
 463:ili9341_ui_driver.hpp ****                                 0x31,
 1684              		.loc 8 463 13 view .LVU527
 463:ili9341_ui_driver.hpp ****                                 0x31,
 1685              		.loc 8 463 21 is_stmt 0 view .LVU528
 1686 047e 394B     		ldr	r3, .L18
 1687 0480 EC46     		mov	ip, sp
 1688 0482 0FCB     		ldm	r3, {r0, r1, r2, r3}
 1689 0484 ACE80700 		stmia	ip!, {r0, r1, r2}
 1690 0488 2CF8023B 		strh	r3, [ip], #2	@ movhi
 1691 048c 1B0C     		lsrs	r3, r3, #16
 1692              	.LBB599:
 1693              	.LBB600:
 174:ili9341_ui_driver.hpp ****         return spi_.BlockingTransmit(buff, size);
 1694              		.loc 8 174 23 view .LVU529
 1695 048e 2146     		mov	r1, r4
 1696 0490 3046     		mov	r0, r6
 1697              	.LBE600:
 1698              	.LBE599:
ARM GAS  /var/folders/hl/qgbwny5j0fd895c2c41bk3tw0000gp/T//cchkzwyh.s 			page 58


 463:ili9341_ui_driver.hpp ****                                 0x31,
 1699              		.loc 8 463 21 view .LVU530
 1700 0492 8CF80030 		strb	r3, [ip]
 478:ili9341_ui_driver.hpp ****         }
 1701              		.loc 8 478 13 is_stmt 1 view .LVU531
 1702              	.LVL134:
 1703              	.LBB602:
 1704              	.LBI599:
 172:ili9341_ui_driver.hpp ****     {
 1705              		.loc 8 172 23 view .LVU532
 1706              	.LBB601:
 174:ili9341_ui_driver.hpp ****         return spi_.BlockingTransmit(buff, size);
 1707              		.loc 8 174 9 view .LVU533
 174:ili9341_ui_driver.hpp ****         return spi_.BlockingTransmit(buff, size);
 1708              		.loc 8 174 23 is_stmt 0 view .LVU534
 1709 0496 FFF7FEFF 		bl	dsy_gpio_write
 1710              	.LVL135:
 175:ili9341_ui_driver.hpp ****     };
 1711              		.loc 8 175 9 is_stmt 1 view .LVU535
 175:ili9341_ui_driver.hpp ****     };
 1712              		.loc 8 175 37 is_stmt 0 view .LVU536
 1713 049a 0F22     		movs	r2, #15
 1714 049c 6946     		mov	r1, sp
 1715 049e 6423     		movs	r3, #100
 1716 04a0 2846     		mov	r0, r5
 1717 04a2 FFF7FEFF 		bl	_ZN5daisy9SpiHandle16BlockingTransmitEPhjm
 1718              	.LVL136:
 175:ili9341_ui_driver.hpp ****     };
 1719              		.loc 8 175 37 view .LVU537
 1720              	.LBE601:
 1721              	.LBE602:
 1722              	.LBE598:
 482:ili9341_ui_driver.hpp ****         {
 1723              		.loc 8 482 9 is_stmt 1 view .LVU538
 482:ili9341_ui_driver.hpp ****         {
 1724              		.loc 8 482 9 is_stmt 0 view .LVU539
 1725 04a6 E123     		movs	r3, #225
 1726              	.LBB603:
 1727              	.LBB604:
 168:ili9341_ui_driver.hpp ****         return spi_.BlockingTransmit(&cmd, 1);
 1728              		.loc 8 168 23 view .LVU540
 1729 04a8 3946     		mov	r1, r7
 1730 04aa 3046     		mov	r0, r6
 1731 04ac 8DF80030 		strb	r3, [sp]
 1732              	.LVL137:
 168:ili9341_ui_driver.hpp ****         return spi_.BlockingTransmit(&cmd, 1);
 1733              		.loc 8 168 23 view .LVU541
 1734              	.LBE604:
 1735              	.LBI603:
 166:ili9341_ui_driver.hpp ****     {
 1736              		.loc 8 166 23 is_stmt 1 view .LVU542
 1737              	.LBB605:
 168:ili9341_ui_driver.hpp ****         return spi_.BlockingTransmit(&cmd, 1);
 1738              		.loc 8 168 9 view .LVU543
 168:ili9341_ui_driver.hpp ****         return spi_.BlockingTransmit(&cmd, 1);
 1739              		.loc 8 168 23 is_stmt 0 view .LVU544
 1740 04b0 FFF7FEFF 		bl	dsy_gpio_write
ARM GAS  /var/folders/hl/qgbwny5j0fd895c2c41bk3tw0000gp/T//cchkzwyh.s 			page 59


 1741              	.LVL138:
 169:ili9341_ui_driver.hpp ****     };
 1742              		.loc 8 169 9 is_stmt 1 view .LVU545
 169:ili9341_ui_driver.hpp ****     };
 1743              		.loc 8 169 37 is_stmt 0 view .LVU546
 1744 04b4 2246     		mov	r2, r4
 1745 04b6 6946     		mov	r1, sp
 1746 04b8 6423     		movs	r3, #100
 1747 04ba 2846     		mov	r0, r5
 1748 04bc FFF7FEFF 		bl	_ZN5daisy9SpiHandle16BlockingTransmitEPhjm
 1749              	.LVL139:
 169:ili9341_ui_driver.hpp ****     };
 1750              		.loc 8 169 37 view .LVU547
 1751              	.LBE605:
 1752              	.LBE603:
 483:ili9341_ui_driver.hpp ****             uint8_t data[15] = {0x00,
 1753              		.loc 8 483 9 is_stmt 1 view .LVU548
 1754              	.LBB606:
 484:ili9341_ui_driver.hpp ****                                 0x0E,
 1755              		.loc 8 484 13 view .LVU549
 484:ili9341_ui_driver.hpp ****                                 0x0E,
 1756              		.loc 8 484 21 is_stmt 0 view .LVU550
 1757 04c0 EC46     		mov	ip, sp
 1758 04c2 99E80F00 		ldm	r9, {r0, r1, r2, r3}
 1759 04c6 ACE80700 		stmia	ip!, {r0, r1, r2}
 1760 04ca 2CF8023B 		strh	r3, [ip], #2	@ movhi
 1761 04ce 1B0C     		lsrs	r3, r3, #16
 1762              	.LBB470:
 1763              	.LBB471:
 174:ili9341_ui_driver.hpp ****         return spi_.BlockingTransmit(buff, size);
 1764              		.loc 8 174 23 view .LVU551
 1765 04d0 2146     		mov	r1, r4
 1766 04d2 3046     		mov	r0, r6
 1767              	.LBE471:
 1768              	.LBE470:
 484:ili9341_ui_driver.hpp ****                                 0x0E,
 1769              		.loc 8 484 21 view .LVU552
 1770 04d4 8CF80030 		strb	r3, [ip]
 499:ili9341_ui_driver.hpp ****         }
 1771              		.loc 8 499 13 is_stmt 1 view .LVU553
 1772              	.LVL140:
 1773              	.LBB473:
 1774              	.LBI470:
 172:ili9341_ui_driver.hpp ****     {
 1775              		.loc 8 172 23 view .LVU554
 1776              	.LBB472:
 174:ili9341_ui_driver.hpp ****         return spi_.BlockingTransmit(buff, size);
 1777              		.loc 8 174 9 view .LVU555
 174:ili9341_ui_driver.hpp ****         return spi_.BlockingTransmit(buff, size);
 1778              		.loc 8 174 23 is_stmt 0 view .LVU556
 1779 04d8 FFF7FEFF 		bl	dsy_gpio_write
 1780              	.LVL141:
 175:ili9341_ui_driver.hpp ****     };
 1781              		.loc 8 175 9 is_stmt 1 view .LVU557
 175:ili9341_ui_driver.hpp ****     };
 1782              		.loc 8 175 37 is_stmt 0 view .LVU558
 1783 04dc 0F22     		movs	r2, #15
ARM GAS  /var/folders/hl/qgbwny5j0fd895c2c41bk3tw0000gp/T//cchkzwyh.s 			page 60


 1784 04de 6946     		mov	r1, sp
 1785 04e0 6423     		movs	r3, #100
 1786 04e2 2846     		mov	r0, r5
 1787 04e4 FFF7FEFF 		bl	_ZN5daisy9SpiHandle16BlockingTransmitEPhjm
 1788              	.LVL142:
 175:ili9341_ui_driver.hpp ****     };
 1789              		.loc 8 175 37 view .LVU559
 1790              	.LBE472:
 1791              	.LBE473:
 1792              	.LBE606:
 503:ili9341_ui_driver.hpp ****         System::Delay(100);
 1793              		.loc 8 503 9 is_stmt 1 view .LVU560
 503:ili9341_ui_driver.hpp ****         System::Delay(100);
 1794              		.loc 8 503 9 is_stmt 0 view .LVU561
 1795 04e8 1123     		movs	r3, #17
 1796              	.LBB607:
 1797              	.LBB608:
 168:ili9341_ui_driver.hpp ****         return spi_.BlockingTransmit(&cmd, 1);
 1798              		.loc 8 168 23 view .LVU562
 1799 04ea 3946     		mov	r1, r7
 1800 04ec 3046     		mov	r0, r6
 1801 04ee 8DF80030 		strb	r3, [sp]
 1802              	.LVL143:
 168:ili9341_ui_driver.hpp ****         return spi_.BlockingTransmit(&cmd, 1);
 1803              		.loc 8 168 23 view .LVU563
 1804              	.LBE608:
 1805              	.LBI607:
 166:ili9341_ui_driver.hpp ****     {
 1806              		.loc 8 166 23 is_stmt 1 view .LVU564
 1807              	.LBB609:
 168:ili9341_ui_driver.hpp ****         return spi_.BlockingTransmit(&cmd, 1);
 1808              		.loc 8 168 9 view .LVU565
 168:ili9341_ui_driver.hpp ****         return spi_.BlockingTransmit(&cmd, 1);
 1809              		.loc 8 168 23 is_stmt 0 view .LVU566
 1810 04f2 FFF7FEFF 		bl	dsy_gpio_write
 1811              	.LVL144:
 169:ili9341_ui_driver.hpp ****     };
 1812              		.loc 8 169 9 is_stmt 1 view .LVU567
 169:ili9341_ui_driver.hpp ****     };
 1813              		.loc 8 169 37 is_stmt 0 view .LVU568
 1814 04f6 2246     		mov	r2, r4
 1815 04f8 6946     		mov	r1, sp
 1816 04fa 6423     		movs	r3, #100
 1817 04fc 2846     		mov	r0, r5
 1818 04fe FFF7FEFF 		bl	_ZN5daisy9SpiHandle16BlockingTransmitEPhjm
 1819              	.LVL145:
 169:ili9341_ui_driver.hpp ****     };
 1820              		.loc 8 169 37 view .LVU569
 1821              	.LBE609:
 1822              	.LBE607:
 504:ili9341_ui_driver.hpp **** 
 1823              		.loc 8 504 9 is_stmt 1 view .LVU570
 504:ili9341_ui_driver.hpp **** 
 1824              		.loc 8 504 22 is_stmt 0 view .LVU571
 1825 0502 6420     		movs	r0, #100
 1826 0504 FFF7FEFF 		bl	_ZN5daisy6System5DelayEm
 1827              	.LVL146:
ARM GAS  /var/folders/hl/qgbwny5j0fd895c2c41bk3tw0000gp/T//cchkzwyh.s 			page 61


 507:ili9341_ui_driver.hpp **** 
 1828              		.loc 8 507 9 is_stmt 1 view .LVU572
 507:ili9341_ui_driver.hpp **** 
 1829              		.loc 8 507 9 is_stmt 0 view .LVU573
 1830 0508 2923     		movs	r3, #41
 1831              	.LBB610:
 1832              	.LBB611:
 168:ili9341_ui_driver.hpp ****         return spi_.BlockingTransmit(&cmd, 1);
 1833              		.loc 8 168 23 view .LVU574
 1834 050a 3946     		mov	r1, r7
 1835 050c 3046     		mov	r0, r6
 1836 050e 8DF80030 		strb	r3, [sp]
 1837              	.LVL147:
 168:ili9341_ui_driver.hpp ****         return spi_.BlockingTransmit(&cmd, 1);
 1838              		.loc 8 168 23 view .LVU575
 1839              	.LBE611:
 1840              	.LBI610:
 166:ili9341_ui_driver.hpp ****     {
 1841              		.loc 8 166 23 is_stmt 1 view .LVU576
 1842              	.LBB612:
 168:ili9341_ui_driver.hpp ****         return spi_.BlockingTransmit(&cmd, 1);
 1843              		.loc 8 168 9 view .LVU577
 168:ili9341_ui_driver.hpp ****         return spi_.BlockingTransmit(&cmd, 1);
 1844              		.loc 8 168 23 is_stmt 0 view .LVU578
 1845 0512 FFF7FEFF 		bl	dsy_gpio_write
 1846              	.LVL148:
 169:ili9341_ui_driver.hpp ****     };
 1847              		.loc 8 169 9 is_stmt 1 view .LVU579
 169:ili9341_ui_driver.hpp ****     };
 1848              		.loc 8 169 37 is_stmt 0 view .LVU580
 1849 0516 2246     		mov	r2, r4
 1850 0518 6423     		movs	r3, #100
 1851 051a 6946     		mov	r1, sp
 1852 051c 2846     		mov	r0, r5
 1853 051e FFF7FEFF 		bl	_ZN5daisy9SpiHandle16BlockingTransmitEPhjm
 1854              	.LVL149:
 169:ili9341_ui_driver.hpp ****     };
 1855              		.loc 8 169 37 view .LVU581
 1856              	.LBE612:
 1857              	.LBE610:
 510:ili9341_ui_driver.hpp ****         System::Delay(10);
 1858              		.loc 8 510 9 is_stmt 1 view .LVU582
 1859              	.LBB613:
 1860              	.LBB614:
 168:ili9341_ui_driver.hpp ****         return spi_.BlockingTransmit(&cmd, 1);
 1861              		.loc 8 168 23 is_stmt 0 view .LVU583
 1862 0522 3946     		mov	r1, r7
 1863 0524 3046     		mov	r0, r6
 1864 0526 8DF800A0 		strb	r10, [sp]
 1865              	.LVL150:
 168:ili9341_ui_driver.hpp ****         return spi_.BlockingTransmit(&cmd, 1);
 1866              		.loc 8 168 23 view .LVU584
 1867              	.LBE614:
 1868              	.LBI613:
 166:ili9341_ui_driver.hpp ****     {
 1869              		.loc 8 166 23 is_stmt 1 view .LVU585
 1870              	.LBB615:
ARM GAS  /var/folders/hl/qgbwny5j0fd895c2c41bk3tw0000gp/T//cchkzwyh.s 			page 62


 168:ili9341_ui_driver.hpp ****         return spi_.BlockingTransmit(&cmd, 1);
 1871              		.loc 8 168 9 view .LVU586
 168:ili9341_ui_driver.hpp ****         return spi_.BlockingTransmit(&cmd, 1);
 1872              		.loc 8 168 23 is_stmt 0 view .LVU587
 1873 052a FFF7FEFF 		bl	dsy_gpio_write
 1874              	.LVL151:
 169:ili9341_ui_driver.hpp ****     };
 1875              		.loc 8 169 9 is_stmt 1 view .LVU588
 169:ili9341_ui_driver.hpp ****     };
 1876              		.loc 8 169 37 is_stmt 0 view .LVU589
 1877 052e 2246     		mov	r2, r4
 1878 0530 6946     		mov	r1, sp
 1879 0532 6423     		movs	r3, #100
 1880 0534 2846     		mov	r0, r5
 1881 0536 FFF7FEFF 		bl	_ZN5daisy9SpiHandle16BlockingTransmitEPhjm
 1882              	.LVL152:
 169:ili9341_ui_driver.hpp ****     };
 1883              		.loc 8 169 37 view .LVU590
 1884              	.LBE615:
 1885              	.LBE613:
 511:ili9341_ui_driver.hpp **** 
 1886              		.loc 8 511 9 is_stmt 1 view .LVU591
 511:ili9341_ui_driver.hpp **** 
 1887              		.loc 8 511 22 is_stmt 0 view .LVU592
 1888 053a 0A20     		movs	r0, #10
 1889 053c FFF7FEFF 		bl	_ZN5daisy6System5DelayEm
 1890              	.LVL153:
 513:ili9341_ui_driver.hpp ****             uint8_t data[1] = {rotation};
 1891              		.loc 8 513 9 is_stmt 1 view .LVU593
 1892              	.LBB616:
 514:ili9341_ui_driver.hpp ****             transport_.SendData(data, 1);
 1893              		.loc 8 514 13 view .LVU594
 514:ili9341_ui_driver.hpp ****             transport_.SendData(data, 1);
 1894              		.loc 8 514 40 is_stmt 0 view .LVU595
 1895 0540 98F85830 		ldrb	r3, [r8, #88]	@ zero_extendqisi2
 1896              	.LBB617:
 1897              	.LBB618:
 174:ili9341_ui_driver.hpp ****         return spi_.BlockingTransmit(buff, size);
 1898              		.loc 8 174 23 view .LVU596
 1899 0544 3046     		mov	r0, r6
 1900 0546 2146     		mov	r1, r4
 1901              	.LBE618:
 1902              	.LBE617:
 514:ili9341_ui_driver.hpp ****             transport_.SendData(data, 1);
 1903              		.loc 8 514 40 view .LVU597
 1904 0548 8DF80030 		strb	r3, [sp]
 515:ili9341_ui_driver.hpp ****         }
 1905              		.loc 8 515 13 is_stmt 1 view .LVU598
 1906              	.LVL154:
 1907              	.LBB620:
 1908              	.LBI617:
 172:ili9341_ui_driver.hpp ****     {
 1909              		.loc 8 172 23 view .LVU599
 1910              	.LBB619:
 174:ili9341_ui_driver.hpp ****         return spi_.BlockingTransmit(buff, size);
 1911              		.loc 8 174 9 view .LVU600
 174:ili9341_ui_driver.hpp ****         return spi_.BlockingTransmit(buff, size);
ARM GAS  /var/folders/hl/qgbwny5j0fd895c2c41bk3tw0000gp/T//cchkzwyh.s 			page 63


 1912              		.loc 8 174 23 is_stmt 0 view .LVU601
 1913 054c FFF7FEFF 		bl	dsy_gpio_write
 1914              	.LVL155:
 175:ili9341_ui_driver.hpp ****     };
 1915              		.loc 8 175 9 is_stmt 1 view .LVU602
 175:ili9341_ui_driver.hpp ****     };
 1916              		.loc 8 175 37 is_stmt 0 view .LVU603
 1917 0550 6423     		movs	r3, #100
 1918 0552 2246     		mov	r2, r4
 1919 0554 6946     		mov	r1, sp
 1920 0556 2846     		mov	r0, r5
 1921 0558 FFF7FEFF 		bl	_ZN5daisy9SpiHandle16BlockingTransmitEPhjm
 1922              	.LVL156:
 175:ili9341_ui_driver.hpp ****     };
 1923              		.loc 8 175 37 view .LVU604
 1924              	.LBE619:
 1925              	.LBE620:
 1926              	.LBE616:
 517:ili9341_ui_driver.hpp **** 
 1927              		.loc 8 517 5 view .LVU605
 1928 055c 0BB0     		add	sp, sp, #44
 1929              		.cfi_def_cfa_offset 36
 1930              		@ sp needed
 1931 055e BDE8F08F 		pop	{r4, r5, r6, r7, r8, r9, r10, fp, pc}
 1932              	.LVL157:
 1933              	.L19:
 517:ili9341_ui_driver.hpp **** 
 1934              		.loc 8 517 5 view .LVU606
 1935 0562 00BF     		.align	2
 1936              	.L18:
 1937 0564 04000000 		.word	.LC4
 1938              		.cfi_endproc
 1939              	.LFE2561:
 1941              		.section	.text._ZN8UiDriver8DrawLineEjjjjhh,"axG",%progbits,_ZN8UiDriver8DrawLineEjjjjhh,comdat
 1942              		.align	1
 1943              		.p2align 2,,3
 1944              		.weak	_ZN8UiDriver8DrawLineEjjjjhh
 1945              		.syntax unified
 1946              		.thumb
 1947              		.thumb_func
 1948              		.fpu fpv5-d16
 1950              	_ZN8UiDriver8DrawLineEjjjjhh:
 1951              	.LVL158:
 1952              	.LFB2566:
 554:ili9341_ui_driver.hpp ****         }
 555:ili9341_ui_driver.hpp ****     }
 556:ili9341_ui_driver.hpp **** 
 557:ili9341_ui_driver.hpp ****     Rectangle GetDrawableFrame() const
 558:ili9341_ui_driver.hpp ****     {
 559:ili9341_ui_driver.hpp ****         return Rectangle(int16_t(width), int16_t(height))
 560:ili9341_ui_driver.hpp ****             .WithTrimmedTop(header)
 561:ili9341_ui_driver.hpp ****             .WithTrimmedBottom(footer);
 562:ili9341_ui_driver.hpp ****     }
 563:ili9341_ui_driver.hpp **** 
 564:ili9341_ui_driver.hpp ****     Rectangle GetBounds() const
 565:ili9341_ui_driver.hpp ****     {
 566:ili9341_ui_driver.hpp ****         return Rectangle(int16_t(width), int16_t(height));
ARM GAS  /var/folders/hl/qgbwny5j0fd895c2c41bk3tw0000gp/T//cchkzwyh.s 			page 64


 567:ili9341_ui_driver.hpp ****     }
 568:ili9341_ui_driver.hpp **** 
 569:ili9341_ui_driver.hpp ****     void Fill(uint8_t color)
 570:ili9341_ui_driver.hpp ****     {
 571:ili9341_ui_driver.hpp ****         for(size_t i = 0; i < transport_.buffer_size / 2; i++)
 572:ili9341_ui_driver.hpp ****         {
 573:ili9341_ui_driver.hpp ****             transport_.PaintPixel(i * 2, color);
 574:ili9341_ui_driver.hpp ****         }
 575:ili9341_ui_driver.hpp ****     };
 576:ili9341_ui_driver.hpp **** 
 577:ili9341_ui_driver.hpp ****     void DrawLine(uint_fast16_t x1,
 1953              		.loc 8 577 10 is_stmt 1 view -0
 1954              		.cfi_startproc
 1955              		@ args = 12, pretend = 0, frame = 32
 1956              		@ frame_needed = 0, uses_anonymous_args = 0
 1957              		.loc 8 577 10 is_stmt 0 view .LVU608
 1958 0000 2DE9F04F 		push	{r4, r5, r6, r7, r8, r9, r10, fp, lr}
 1959              		.cfi_def_cfa_offset 36
 1960              		.cfi_offset 4, -36
 1961              		.cfi_offset 5, -32
 1962              		.cfi_offset 6, -28
 1963              		.cfi_offset 7, -24
 1964              		.cfi_offset 8, -20
 1965              		.cfi_offset 9, -16
 1966              		.cfi_offset 10, -12
 1967              		.cfi_offset 11, -8
 1968              		.cfi_offset 14, -4
 1969 0004 89B0     		sub	sp, sp, #36
 1970              		.cfi_def_cfa_offset 72
 578:ili9341_ui_driver.hpp ****                   uint_fast16_t y1,
 579:ili9341_ui_driver.hpp ****                   uint_fast16_t x2,
 580:ili9341_ui_driver.hpp ****                   uint_fast16_t y2,
 581:ili9341_ui_driver.hpp ****                   uint8_t       color,
 582:ili9341_ui_driver.hpp ****                   uint8_t       alpha = 255)
 583:ili9341_ui_driver.hpp ****     {
 584:ili9341_ui_driver.hpp ****         if(x1 == x2)
 1971              		.loc 8 584 9 is_stmt 1 view .LVU609
 1972 0006 9942     		cmp	r1, r3
 577:ili9341_ui_driver.hpp ****                   uint_fast16_t y1,
 1973              		.loc 8 577 10 is_stmt 0 view .LVU610
 1974 0008 9DF85040 		ldrb	r4, [sp, #80]	@ zero_extendqisi2
 1975 000c 9DF84CB0 		ldrb	fp, [sp, #76]	@ zero_extendqisi2
 1976 0010 0194     		str	r4, [sp, #4]
 1977              		.loc 8 584 9 view .LVU611
 1978 0012 00F0DB80 		beq	.L66
 585:ili9341_ui_driver.hpp ****         {
 586:ili9341_ui_driver.hpp ****             return DrawVLine(x1, y1, y2 - y1 + 1, color, alpha);
 587:ili9341_ui_driver.hpp ****         }
 588:ili9341_ui_driver.hpp ****         else if(y1 == y2)
 1979              		.loc 8 588 14 is_stmt 1 view .LVU612
 1980 0016 129C     		ldr	r4, [sp, #72]
 1981 0018 A242     		cmp	r2, r4
 1982 001a 00F03081 		beq	.L67
 589:ili9341_ui_driver.hpp ****         {
 590:ili9341_ui_driver.hpp ****             return DrawHLine(x1, y1, x2 - x1 + 1, color, alpha);
 591:ili9341_ui_driver.hpp ****         }
 592:ili9341_ui_driver.hpp **** 
ARM GAS  /var/folders/hl/qgbwny5j0fd895c2c41bk3tw0000gp/T//cchkzwyh.s 			page 65


 593:ili9341_ui_driver.hpp ****         auto deltaX = abs((int_fast16_t)x2 - (int_fast16_t)x1);
 1983              		.loc 8 593 9 view .LVU613
 594:ili9341_ui_driver.hpp ****         auto deltaY = abs((int_fast16_t)y2 - (int_fast16_t)y1);
 1984              		.loc 8 594 44 is_stmt 0 view .LVU614
 1985 001e 129C     		ldr	r4, [sp, #72]
 593:ili9341_ui_driver.hpp ****         auto deltaY = abs((int_fast16_t)y2 - (int_fast16_t)y1);
 1986              		.loc 8 593 44 view .LVU615
 1987 0020 5E1A     		subs	r6, r3, r1
 1988              	.LBB663:
 1989              	.LBB664:
 595:ili9341_ui_driver.hpp ****         auto signX  = ((x1 < x2) ? 1 : -1);
 596:ili9341_ui_driver.hpp ****         auto signY  = ((y1 < y2) ? 1 : -1);
 597:ili9341_ui_driver.hpp ****         auto error  = deltaX - deltaY;
 598:ili9341_ui_driver.hpp **** 
 599:ili9341_ui_driver.hpp ****         DrawPixel(x2, y2, color, alpha);
 600:ili9341_ui_driver.hpp **** 
 601:ili9341_ui_driver.hpp ****         while((x1 != x2) || (y1 != y2))
 602:ili9341_ui_driver.hpp ****         {
 603:ili9341_ui_driver.hpp ****             DrawPixel(x1, y1, color, alpha);
 604:ili9341_ui_driver.hpp ****             auto error2 = error * 2;
 605:ili9341_ui_driver.hpp ****             if(error2 > -deltaY)
 606:ili9341_ui_driver.hpp ****             {
 607:ili9341_ui_driver.hpp ****                 error -= deltaY;
 608:ili9341_ui_driver.hpp ****                 x1 += signX;
 609:ili9341_ui_driver.hpp ****             }
 610:ili9341_ui_driver.hpp **** 
 611:ili9341_ui_driver.hpp ****             if(error2 < deltaX)
 612:ili9341_ui_driver.hpp ****             {
 613:ili9341_ui_driver.hpp ****                 error += deltaX;
 614:ili9341_ui_driver.hpp ****                 y1 += signY;
 615:ili9341_ui_driver.hpp ****             }
 616:ili9341_ui_driver.hpp ****         }
 617:ili9341_ui_driver.hpp ****     }
 618:ili9341_ui_driver.hpp **** 
 619:ili9341_ui_driver.hpp ****     void FillArea(uint_fast16_t x,
 620:ili9341_ui_driver.hpp ****                   uint_fast16_t y,
 621:ili9341_ui_driver.hpp ****                   uint_fast16_t w,
 622:ili9341_ui_driver.hpp ****                   uint_fast16_t h,
 623:ili9341_ui_driver.hpp ****                   uint8_t       color,
 624:ili9341_ui_driver.hpp ****                   uint8_t       alpha = 255)
 625:ili9341_ui_driver.hpp ****     {
 626:ili9341_ui_driver.hpp ****         // Loop through every Y sector
 627:ili9341_ui_driver.hpp ****         for(size_t i = 0; i < h; i++)
 628:ili9341_ui_driver.hpp ****         {
 629:ili9341_ui_driver.hpp ****             for(size_t j = 0; j < w; j++)
 630:ili9341_ui_driver.hpp ****             {
 631:ili9341_ui_driver.hpp ****                 DrawPixel(x + j, y + i, color, alpha);
 632:ili9341_ui_driver.hpp ****             }
 633:ili9341_ui_driver.hpp ****         }
 634:ili9341_ui_driver.hpp ****     };
 635:ili9341_ui_driver.hpp **** 
 636:ili9341_ui_driver.hpp ****     void DrawRect(uint16_t x,
 637:ili9341_ui_driver.hpp ****                   uint16_t y,
 638:ili9341_ui_driver.hpp ****                   uint16_t w,
 639:ili9341_ui_driver.hpp ****                   uint16_t h,
 640:ili9341_ui_driver.hpp ****                   uint8_t  color,
 641:ili9341_ui_driver.hpp ****                   uint8_t  alpha = 255)
ARM GAS  /var/folders/hl/qgbwny5j0fd895c2c41bk3tw0000gp/T//cchkzwyh.s 			page 66


 642:ili9341_ui_driver.hpp ****     {
 643:ili9341_ui_driver.hpp ****         auto x2 = x + w;
 644:ili9341_ui_driver.hpp ****         auto y2 = y + h;
 645:ili9341_ui_driver.hpp ****         DrawLine(x, y, x, y2, color, alpha);
 646:ili9341_ui_driver.hpp ****         DrawLine(x, y, x2, y, color, alpha);
 647:ili9341_ui_driver.hpp ****         DrawLine(x, y2, x2, y2, color, alpha);
 648:ili9341_ui_driver.hpp ****         DrawLine(x2, y, x2, y2, color, alpha);
 649:ili9341_ui_driver.hpp ****     }
 650:ili9341_ui_driver.hpp **** 
 651:ili9341_ui_driver.hpp ****     void DrawRect(const Rectangle& rect, uint8_t color, uint8_t alpha = 255)
 652:ili9341_ui_driver.hpp ****     {
 653:ili9341_ui_driver.hpp ****         DrawRect(rect.GetX(),
 654:ili9341_ui_driver.hpp ****                  rect.GetY(),
 655:ili9341_ui_driver.hpp ****                  rect.GetWidth(),
 656:ili9341_ui_driver.hpp ****                  rect.GetHeight(),
 657:ili9341_ui_driver.hpp ****                  color,
 658:ili9341_ui_driver.hpp ****                  alpha);
 659:ili9341_ui_driver.hpp ****     }
 660:ili9341_ui_driver.hpp **** 
 661:ili9341_ui_driver.hpp ****     void FillRect(const Rectangle& rect, uint8_t color, uint8_t alpha = 255)
 662:ili9341_ui_driver.hpp ****     {
 663:ili9341_ui_driver.hpp ****         FillArea(rect.GetX(),
 664:ili9341_ui_driver.hpp ****                  rect.GetY(),
 665:ili9341_ui_driver.hpp ****                  rect.GetWidth(),
 666:ili9341_ui_driver.hpp ****                  rect.GetHeight(),
 667:ili9341_ui_driver.hpp ****                  color,
 668:ili9341_ui_driver.hpp ****                  alpha);
 669:ili9341_ui_driver.hpp ****     };
 670:ili9341_ui_driver.hpp **** 
 671:ili9341_ui_driver.hpp ****     void DrawTriangle(int16_t x0,
 672:ili9341_ui_driver.hpp ****                       int16_t y0,
 673:ili9341_ui_driver.hpp ****                       int16_t x1,
 674:ili9341_ui_driver.hpp ****                       int16_t y1,
 675:ili9341_ui_driver.hpp ****                       int16_t x2,
 676:ili9341_ui_driver.hpp ****                       int16_t y2,
 677:ili9341_ui_driver.hpp ****                       uint8_t color,
 678:ili9341_ui_driver.hpp ****                       uint8_t alpha = 255)
 679:ili9341_ui_driver.hpp ****     {
 680:ili9341_ui_driver.hpp ****         DrawLine(x0, y0, x1, y1, color, alpha);
 681:ili9341_ui_driver.hpp ****         DrawLine(x1, y1, x2, y2, color, alpha);
 682:ili9341_ui_driver.hpp ****         DrawLine(x2, y2, x0, y0, color, alpha);
 683:ili9341_ui_driver.hpp ****     }
 684:ili9341_ui_driver.hpp **** 
 685:ili9341_ui_driver.hpp ****     void FillTriangle(int16_t x0,
 686:ili9341_ui_driver.hpp ****                       int16_t y0,
 687:ili9341_ui_driver.hpp ****                       int16_t x1,
 688:ili9341_ui_driver.hpp ****                       int16_t y1,
 689:ili9341_ui_driver.hpp ****                       int16_t x2,
 690:ili9341_ui_driver.hpp ****                       int16_t y2,
 691:ili9341_ui_driver.hpp ****                       uint8_t color,
 692:ili9341_ui_driver.hpp ****                       uint8_t alpha = 255)
 693:ili9341_ui_driver.hpp ****     {
 694:ili9341_ui_driver.hpp ****         int16_t a, b, y, last;
 695:ili9341_ui_driver.hpp **** 
 696:ili9341_ui_driver.hpp ****         // Sort coordinates by Y order (y2 >= y1 >= y0)
 697:ili9341_ui_driver.hpp ****         if(y0 > y1)
 698:ili9341_ui_driver.hpp ****         {
ARM GAS  /var/folders/hl/qgbwny5j0fd895c2c41bk3tw0000gp/T//cchkzwyh.s 			page 67


 699:ili9341_ui_driver.hpp ****             std::swap(y0, y1);
 700:ili9341_ui_driver.hpp ****             std::swap(x0, x1);
 701:ili9341_ui_driver.hpp ****         }
 702:ili9341_ui_driver.hpp ****         if(y1 > y2)
 703:ili9341_ui_driver.hpp ****         {
 704:ili9341_ui_driver.hpp ****             std::swap(y2, y1);
 705:ili9341_ui_driver.hpp ****             std::swap(x2, x1);
 706:ili9341_ui_driver.hpp ****         }
 707:ili9341_ui_driver.hpp ****         if(y0 > y1)
 708:ili9341_ui_driver.hpp ****         {
 709:ili9341_ui_driver.hpp ****             std::swap(y0, y1);
 710:ili9341_ui_driver.hpp ****             std::swap(x0, x1);
 711:ili9341_ui_driver.hpp ****         }
 712:ili9341_ui_driver.hpp **** 
 713:ili9341_ui_driver.hpp ****         if(y0 == y2)
 714:ili9341_ui_driver.hpp ****         { // Handle awkward all-on-same-line case as its own thing
 715:ili9341_ui_driver.hpp ****             a = b = x0;
 716:ili9341_ui_driver.hpp ****             if(x1 < a)
 717:ili9341_ui_driver.hpp ****                 a = x1;
 718:ili9341_ui_driver.hpp ****             else if(x1 > b)
 719:ili9341_ui_driver.hpp ****                 b = x1;
 720:ili9341_ui_driver.hpp ****             if(x2 < a)
 721:ili9341_ui_driver.hpp ****                 a = x2;
 722:ili9341_ui_driver.hpp ****             else if(x2 > b)
 723:ili9341_ui_driver.hpp ****                 b = x2;
 724:ili9341_ui_driver.hpp ****             DrawHLine(a, y0, b - a + 1, color, alpha);
 725:ili9341_ui_driver.hpp ****             return;
 726:ili9341_ui_driver.hpp ****         }
 727:ili9341_ui_driver.hpp **** 
 728:ili9341_ui_driver.hpp ****         int16_t dx01 = x1 - x0, dy01 = y1 - y0, dx02 = x2 - x0, dy02 = y2 - y0,
 729:ili9341_ui_driver.hpp ****                 dx12 = x2 - x1, dy12 = y2 - y1;
 730:ili9341_ui_driver.hpp ****         int32_t sa = 0, sb = 0;
 731:ili9341_ui_driver.hpp **** 
 732:ili9341_ui_driver.hpp ****         // For upper part of triangle, find scanline crossings for segments
 733:ili9341_ui_driver.hpp ****         // 0-1 and 0-2.  If y1=y2 (flat-bottomed triangle), the scanline y1
 734:ili9341_ui_driver.hpp ****         // is included here (and second loop will be skipped, avoiding a /0
 735:ili9341_ui_driver.hpp ****         // error there), otherwise scanline y1 is skipped here and handled
 736:ili9341_ui_driver.hpp ****         // in the second loop...which also avoids a /0 error here if y0=y1
 737:ili9341_ui_driver.hpp ****         // (flat-topped triangle).
 738:ili9341_ui_driver.hpp ****         if(y1 == y2)
 739:ili9341_ui_driver.hpp ****         {
 740:ili9341_ui_driver.hpp ****             last = y1; // Include y1 scanline
 741:ili9341_ui_driver.hpp ****         }
 742:ili9341_ui_driver.hpp ****         else
 743:ili9341_ui_driver.hpp ****         {
 744:ili9341_ui_driver.hpp ****             last = y1 - 1; // Skip it
 745:ili9341_ui_driver.hpp ****         }
 746:ili9341_ui_driver.hpp **** 
 747:ili9341_ui_driver.hpp ****         for(y = y0; y <= last; y++)
 748:ili9341_ui_driver.hpp ****         {
 749:ili9341_ui_driver.hpp ****             a = x0 + sa / dy01;
 750:ili9341_ui_driver.hpp ****             b = x0 + sb / dy02;
 751:ili9341_ui_driver.hpp ****             sa += dx01;
 752:ili9341_ui_driver.hpp ****             sb += dx02;
 753:ili9341_ui_driver.hpp ****             /* longhand:
 754:ili9341_ui_driver.hpp ****             a = x0 + (x1 - x0) * (y - y0) / (y1 - y0);
 755:ili9341_ui_driver.hpp ****             b = x0 + (x2 - x0) * (y - y0) / (y2 - y0);
ARM GAS  /var/folders/hl/qgbwny5j0fd895c2c41bk3tw0000gp/T//cchkzwyh.s 			page 68


 756:ili9341_ui_driver.hpp ****             */
 757:ili9341_ui_driver.hpp ****             if(a > b)
 758:ili9341_ui_driver.hpp ****             {
 759:ili9341_ui_driver.hpp ****                 std::swap(a, b);
 760:ili9341_ui_driver.hpp ****             }
 761:ili9341_ui_driver.hpp ****             DrawHLine(a, y, b - a + 1, color, alpha);
 762:ili9341_ui_driver.hpp ****         }
 763:ili9341_ui_driver.hpp **** 
 764:ili9341_ui_driver.hpp ****         // For lower part of triangle, find scanline crossings for segments
 765:ili9341_ui_driver.hpp ****         // 0-2 and 1-2.  This loop is skipped if y1=y2.
 766:ili9341_ui_driver.hpp ****         sa = (int32_t)dx12 * (y - y1);
 767:ili9341_ui_driver.hpp ****         sb = (int32_t)dx02 * (y - y0);
 768:ili9341_ui_driver.hpp ****         for(; y <= y2; y++)
 769:ili9341_ui_driver.hpp ****         {
 770:ili9341_ui_driver.hpp ****             a = x1 + sa / dy12;
 771:ili9341_ui_driver.hpp ****             b = x0 + sb / dy02;
 772:ili9341_ui_driver.hpp ****             sa += dx12;
 773:ili9341_ui_driver.hpp ****             sb += dx02;
 774:ili9341_ui_driver.hpp ****             /* longhand:
 775:ili9341_ui_driver.hpp ****                 a = x1 + (x2 - x1) * (y - y1) / (y2 - y1);
 776:ili9341_ui_driver.hpp ****                 b = x0 + (x2 - x0) * (y - y0) / (y2 - y0);
 777:ili9341_ui_driver.hpp ****             */
 778:ili9341_ui_driver.hpp ****             if(a > b)
 779:ili9341_ui_driver.hpp ****             {
 780:ili9341_ui_driver.hpp ****                 std::swap(a, b);
 781:ili9341_ui_driver.hpp ****             }
 782:ili9341_ui_driver.hpp ****             DrawHLine(a, y, b - a + 1, color, alpha);
 783:ili9341_ui_driver.hpp ****         }
 784:ili9341_ui_driver.hpp ****     }
 785:ili9341_ui_driver.hpp **** 
 786:ili9341_ui_driver.hpp **** 
 787:ili9341_ui_driver.hpp ****     Rectangle WriteStringAligned(const char*    str,
 788:ili9341_ui_driver.hpp ****                                  const FontDef& font,
 789:ili9341_ui_driver.hpp ****                                  Rectangle      boundingBox,
 790:ili9341_ui_driver.hpp ****                                  Alignment      alignment,
 791:ili9341_ui_driver.hpp ****                                  uint8_t        color)
 792:ili9341_ui_driver.hpp ****     {
 793:ili9341_ui_driver.hpp ****         const auto alignedRect
 794:ili9341_ui_driver.hpp ****             = GetTextRect(str, font).AlignedWithin(boundingBox, alignment);
 795:ili9341_ui_driver.hpp ****         WriteString(str, alignedRect.GetX(), alignedRect.GetY(), font, color);
 796:ili9341_ui_driver.hpp ****         return alignedRect;
 797:ili9341_ui_driver.hpp ****     }
 798:ili9341_ui_driver.hpp **** 
 799:ili9341_ui_driver.hpp ****     Rectangle GetTextRect(const char* text, const FontDef& font) const
 800:ili9341_ui_driver.hpp ****     {
 801:ili9341_ui_driver.hpp ****         return {int16_t(strlen(text) * font.FontWidth), font.FontHeight};
 802:ili9341_ui_driver.hpp ****     }
 803:ili9341_ui_driver.hpp **** 
 804:ili9341_ui_driver.hpp ****     char WriteChar(char ch, FontDef font, uint8_t color)
 805:ili9341_ui_driver.hpp ****     {
 806:ili9341_ui_driver.hpp ****         // Check if character is valid
 807:ili9341_ui_driver.hpp ****         if(ch < 32 || ch > 126)
 808:ili9341_ui_driver.hpp ****             return 0;
 809:ili9341_ui_driver.hpp **** 
 810:ili9341_ui_driver.hpp ****         // Check remaining space on current line
 811:ili9341_ui_driver.hpp ****         if(width < (currentX_ + font.FontWidth)
 812:ili9341_ui_driver.hpp ****            || height < (currentY_ + font.FontHeight))
ARM GAS  /var/folders/hl/qgbwny5j0fd895c2c41bk3tw0000gp/T//cchkzwyh.s 			page 69


 813:ili9341_ui_driver.hpp ****         {
 814:ili9341_ui_driver.hpp ****             return 0;
 815:ili9341_ui_driver.hpp ****         }
 816:ili9341_ui_driver.hpp **** 
 817:ili9341_ui_driver.hpp ****         // Use the font to write
 818:ili9341_ui_driver.hpp ****         for(auto i = 0; i < font.FontHeight; i++)
 819:ili9341_ui_driver.hpp ****         {
 820:ili9341_ui_driver.hpp ****             auto b = font.data[(ch - 32) * font.FontHeight + i];
 821:ili9341_ui_driver.hpp ****             for(auto j = 0; j < font.FontWidth; j++)
 822:ili9341_ui_driver.hpp ****             {
 823:ili9341_ui_driver.hpp ****                 if((b << j) & 0x8000)
 824:ili9341_ui_driver.hpp ****                 {
 825:ili9341_ui_driver.hpp ****                     DrawPixel(currentX_ + j, (currentY_ + i), color);
 826:ili9341_ui_driver.hpp ****                 }
 827:ili9341_ui_driver.hpp ****             }
 828:ili9341_ui_driver.hpp ****         }
 829:ili9341_ui_driver.hpp **** 
 830:ili9341_ui_driver.hpp ****         // The current space is now taken
 831:ili9341_ui_driver.hpp ****         SetCursor(currentX_ + font.FontWidth, currentY_);
 832:ili9341_ui_driver.hpp **** 
 833:ili9341_ui_driver.hpp ****         return ch;
 834:ili9341_ui_driver.hpp ****     }
 835:ili9341_ui_driver.hpp **** 
 836:ili9341_ui_driver.hpp ****     void WriteString(const char* str, uint16_t x, uint16_t y, FontDef font)
 837:ili9341_ui_driver.hpp ****     {
 838:ili9341_ui_driver.hpp ****         WriteString(str, x, y, font, COLOR_WHITE);
 839:ili9341_ui_driver.hpp ****     }
 840:ili9341_ui_driver.hpp **** 
 841:ili9341_ui_driver.hpp ****     void WriteString(const char* str,
 842:ili9341_ui_driver.hpp ****                      uint16_t    x,
 843:ili9341_ui_driver.hpp ****                      uint16_t    y,
 844:ili9341_ui_driver.hpp ****                      FontDef     font,
 845:ili9341_ui_driver.hpp ****                      uint8_t     color)
 846:ili9341_ui_driver.hpp ****     {
 847:ili9341_ui_driver.hpp ****         SetCursor(x, y);
 848:ili9341_ui_driver.hpp ****         while(*str) // Write until null-byte
 849:ili9341_ui_driver.hpp ****         {
 850:ili9341_ui_driver.hpp ****             if(WriteChar(*str, font, color) != *str)
 851:ili9341_ui_driver.hpp ****             {
 852:ili9341_ui_driver.hpp ****                 return; // Char could not be written
 853:ili9341_ui_driver.hpp ****             }
 854:ili9341_ui_driver.hpp ****             str++; // Next char
 855:ili9341_ui_driver.hpp ****         }
 856:ili9341_ui_driver.hpp ****     }
 857:ili9341_ui_driver.hpp **** 
 858:ili9341_ui_driver.hpp ****     uint16_t GetStringWidth(const char* str, FontDef font) const
 859:ili9341_ui_driver.hpp ****     {
 860:ili9341_ui_driver.hpp ****         uint16_t font_width = 0;
 861:ili9341_ui_driver.hpp ****         // Loop until null-byte
 862:ili9341_ui_driver.hpp ****         while(*str)
 863:ili9341_ui_driver.hpp ****         {
 864:ili9341_ui_driver.hpp ****             font_width += font.FontWidth;
 865:ili9341_ui_driver.hpp ****             str++;
 866:ili9341_ui_driver.hpp ****         }
 867:ili9341_ui_driver.hpp **** 
 868:ili9341_ui_driver.hpp ****         return font_width;
 869:ili9341_ui_driver.hpp ****     }
ARM GAS  /var/folders/hl/qgbwny5j0fd895c2c41bk3tw0000gp/T//cchkzwyh.s 			page 70


 870:ili9341_ui_driver.hpp **** 
 871:ili9341_ui_driver.hpp ****     void DrawCircle(int16_t x0, int16_t y0, int16_t r, uint8_t color)
 872:ili9341_ui_driver.hpp ****     {
 873:ili9341_ui_driver.hpp ****         int16_t f     = 1 - r;
 874:ili9341_ui_driver.hpp ****         int16_t ddF_x = 1;
 875:ili9341_ui_driver.hpp ****         int16_t ddF_y = -2 * r;
 876:ili9341_ui_driver.hpp ****         int16_t x     = 0;
 877:ili9341_ui_driver.hpp ****         int16_t y     = r;
 878:ili9341_ui_driver.hpp **** 
 879:ili9341_ui_driver.hpp ****         DrawPixel(x0, y0 + r, color);
 880:ili9341_ui_driver.hpp ****         DrawPixel(x0, y0 - r, color);
 881:ili9341_ui_driver.hpp ****         DrawPixel(x0 + r, y0, color);
 882:ili9341_ui_driver.hpp ****         DrawPixel(x0 - r, y0, color);
 883:ili9341_ui_driver.hpp **** 
 884:ili9341_ui_driver.hpp ****         while(x < y)
 885:ili9341_ui_driver.hpp ****         {
 886:ili9341_ui_driver.hpp ****             if(f >= 0)
 887:ili9341_ui_driver.hpp ****             {
 888:ili9341_ui_driver.hpp ****                 y--;
 889:ili9341_ui_driver.hpp ****                 ddF_y += 2;
 890:ili9341_ui_driver.hpp ****                 f += ddF_y;
 891:ili9341_ui_driver.hpp ****             }
 892:ili9341_ui_driver.hpp ****             x++;
 893:ili9341_ui_driver.hpp ****             ddF_x += 2;
 894:ili9341_ui_driver.hpp ****             f += ddF_x;
 895:ili9341_ui_driver.hpp **** 
 896:ili9341_ui_driver.hpp ****             DrawPixel(x0 + x, y0 + y, color);
 897:ili9341_ui_driver.hpp ****             DrawPixel(x0 - x, y0 + y, color);
 898:ili9341_ui_driver.hpp ****             DrawPixel(x0 + x, y0 - y, color);
 899:ili9341_ui_driver.hpp ****             DrawPixel(x0 - x, y0 - y, color);
 900:ili9341_ui_driver.hpp ****             DrawPixel(x0 + y, y0 + x, color);
 901:ili9341_ui_driver.hpp ****             DrawPixel(x0 - y, y0 + x, color);
 902:ili9341_ui_driver.hpp ****             DrawPixel(x0 + y, y0 - x, color);
 903:ili9341_ui_driver.hpp ****             DrawPixel(x0 - y, y0 - x, color);
 904:ili9341_ui_driver.hpp ****         }
 905:ili9341_ui_driver.hpp ****     }
 906:ili9341_ui_driver.hpp **** 
 907:ili9341_ui_driver.hpp ****     void FillCircle(int16_t x0, int16_t y0, int16_t r, uint8_t color)
 908:ili9341_ui_driver.hpp ****     {
 909:ili9341_ui_driver.hpp ****         DrawLine(x0, y0, x0, y0 + 2 * r + 1, color);
 910:ili9341_ui_driver.hpp ****         FillCircleHelper(x0, y0, r, 3, 0, color);
 911:ili9341_ui_driver.hpp ****     }
 912:ili9341_ui_driver.hpp **** 
 913:ili9341_ui_driver.hpp ****     void FillCircleHelper(int16_t x0,
 914:ili9341_ui_driver.hpp ****                           int16_t y0,
 915:ili9341_ui_driver.hpp ****                           int16_t r,
 916:ili9341_ui_driver.hpp ****                           uint8_t cornername,
 917:ili9341_ui_driver.hpp ****                           int16_t delta,
 918:ili9341_ui_driver.hpp ****                           uint8_t color)
 919:ili9341_ui_driver.hpp ****     {
 920:ili9341_ui_driver.hpp ****         int16_t f     = 1 - r;
 921:ili9341_ui_driver.hpp ****         int16_t ddF_x = 1;
 922:ili9341_ui_driver.hpp ****         int16_t ddF_y = -2 * r;
 923:ili9341_ui_driver.hpp ****         int16_t x     = 0;
 924:ili9341_ui_driver.hpp ****         int16_t y     = r;
 925:ili9341_ui_driver.hpp **** 
 926:ili9341_ui_driver.hpp ****         delta++;
ARM GAS  /var/folders/hl/qgbwny5j0fd895c2c41bk3tw0000gp/T//cchkzwyh.s 			page 71


 927:ili9341_ui_driver.hpp **** 
 928:ili9341_ui_driver.hpp ****         while(x < y)
 929:ili9341_ui_driver.hpp ****         {
 930:ili9341_ui_driver.hpp ****             if(f >= 0)
 931:ili9341_ui_driver.hpp ****             {
 932:ili9341_ui_driver.hpp ****                 y--;
 933:ili9341_ui_driver.hpp ****                 ddF_y += 2;
 934:ili9341_ui_driver.hpp ****                 f += ddF_y;
 935:ili9341_ui_driver.hpp ****             }
 936:ili9341_ui_driver.hpp ****             x++;
 937:ili9341_ui_driver.hpp ****             ddF_x += 2;
 938:ili9341_ui_driver.hpp ****             f += ddF_x;
 939:ili9341_ui_driver.hpp **** 
 940:ili9341_ui_driver.hpp ****             if(cornername & 0x1)
 941:ili9341_ui_driver.hpp ****             {
 942:ili9341_ui_driver.hpp ****                 DrawLine(
 943:ili9341_ui_driver.hpp ****                     x0 + x, y0 - y, x0 + x, y0 - y + 2 * y + delta - 1, color);
 944:ili9341_ui_driver.hpp ****                 DrawLine(
 945:ili9341_ui_driver.hpp ****                     x0 + y, y0 - x, x0 + y, y0 - x + 2 * x + delta - 1, color);
 946:ili9341_ui_driver.hpp ****             }
 947:ili9341_ui_driver.hpp ****             if(cornername & 0x2)
 948:ili9341_ui_driver.hpp ****             {
 949:ili9341_ui_driver.hpp ****                 DrawLine(
 950:ili9341_ui_driver.hpp ****                     x0 - x, y0 - y, x0 - x, y0 - y + 2 * y + delta - 1, color);
 951:ili9341_ui_driver.hpp ****                 DrawLine(
 952:ili9341_ui_driver.hpp ****                     x0 - y, y0 - x, x0 - y, y0 - x + 2 * x + delta - 1, color);
 953:ili9341_ui_driver.hpp ****             }
 954:ili9341_ui_driver.hpp ****         }
 955:ili9341_ui_driver.hpp ****     }
 956:ili9341_ui_driver.hpp **** 
 957:ili9341_ui_driver.hpp ****     /**
 958:ili9341_ui_driver.hpp ****      * @brief Moves the 'Cursor' position used for WriteChar, and WriteStr to the specified coordin
 959:ili9341_ui_driver.hpp ****      * 
 960:ili9341_ui_driver.hpp ****      * 
 961:ili9341_ui_driver.hpp ****      * @param x x pos
 962:ili9341_ui_driver.hpp ****      * @param y y pos
 963:ili9341_ui_driver.hpp ****      */
 964:ili9341_ui_driver.hpp ****     void SetCursor(uint16_t x, uint16_t y)
 965:ili9341_ui_driver.hpp ****     {
 966:ili9341_ui_driver.hpp ****         currentX_ = (x >= width) ? width - 1 : x;
 967:ili9341_ui_driver.hpp ****         currentY_ = (y >= height) ? height - 1 : y;
 968:ili9341_ui_driver.hpp ****     }
 969:ili9341_ui_driver.hpp **** 
 970:ili9341_ui_driver.hpp ****     void Update()
 971:ili9341_ui_driver.hpp ****     {
 972:ili9341_ui_driver.hpp ****         Start();
 973:ili9341_ui_driver.hpp ****         transport_.SendDataDMA();
 974:ili9341_ui_driver.hpp ****     }
 975:ili9341_ui_driver.hpp **** 
 976:ili9341_ui_driver.hpp ****     bool IsRender()
 977:ili9341_ui_driver.hpp ****     {
 978:ili9341_ui_driver.hpp ****         if(transport_.dma_busy == false)
 979:ili9341_ui_driver.hpp ****         {
 980:ili9341_ui_driver.hpp ****             diff = System::GetNow() - screen_update_last_;
 981:ili9341_ui_driver.hpp ****             if(diff > screen_update_period_)
 982:ili9341_ui_driver.hpp ****             {
 983:ili9341_ui_driver.hpp ****                 UpdateFrameRate();
ARM GAS  /var/folders/hl/qgbwny5j0fd895c2c41bk3tw0000gp/T//cchkzwyh.s 			page 72


 984:ili9341_ui_driver.hpp ****                 screen_update_last_ = System::GetNow();
 985:ili9341_ui_driver.hpp ****                 return true;
 986:ili9341_ui_driver.hpp ****             }
 987:ili9341_ui_driver.hpp ****         }
 988:ili9341_ui_driver.hpp **** 
 989:ili9341_ui_driver.hpp ****         return false;
 990:ili9341_ui_driver.hpp ****     }
 991:ili9341_ui_driver.hpp **** 
 992:ili9341_ui_driver.hpp ****     void UpdateFrameRate()
 993:ili9341_ui_driver.hpp ****     {
 994:ili9341_ui_driver.hpp ****         ++frames;
 995:ili9341_ui_driver.hpp ****         if(System::GetNow() - fps_update_last_ > 1000)
 996:ili9341_ui_driver.hpp ****         {
 997:ili9341_ui_driver.hpp ****             fps              = frames;
 998:ili9341_ui_driver.hpp ****             frames           = 0;
 999:ili9341_ui_driver.hpp ****             fps_update_last_ = System::GetNow();
1000:ili9341_ui_driver.hpp ****         }
1001:ili9341_ui_driver.hpp ****     }
1002:ili9341_ui_driver.hpp **** 
1003:ili9341_ui_driver.hpp ****     uint16_t Fps() const { return fps; }
1004:ili9341_ui_driver.hpp **** 
1005:ili9341_ui_driver.hpp ****     void TrimString(char*    str,
1006:ili9341_ui_driver.hpp ****                     char*    str_trimmed,
1007:ili9341_ui_driver.hpp ****                     uint16_t str_len,
1008:ili9341_ui_driver.hpp ****                     uint16_t str_width,
1009:ili9341_ui_driver.hpp ****                     FontDef  font) const
1010:ili9341_ui_driver.hpp ****     {
1011:ili9341_ui_driver.hpp ****         if(str_len <= str_width)
1012:ili9341_ui_driver.hpp ****         {
1013:ili9341_ui_driver.hpp ****             return;
1014:ili9341_ui_driver.hpp ****         }
1015:ili9341_ui_driver.hpp **** 
1016:ili9341_ui_driver.hpp ****         uint16_t max_chars = str_width / font.FontWidth;
1017:ili9341_ui_driver.hpp ****         strncpy(str_trimmed, str, max_chars);
1018:ili9341_ui_driver.hpp ****         str_trimmed[max_chars] = '\0';
1019:ili9341_ui_driver.hpp ****     }
1020:ili9341_ui_driver.hpp **** 
1021:ili9341_ui_driver.hpp ****   private:
1022:ili9341_ui_driver.hpp ****     void Start() { transport_.SetAddressWindow(0, 0, width - 1, height - 1); }
1023:ili9341_ui_driver.hpp **** 
1024:ili9341_ui_driver.hpp ****     void DrawPixel(uint_fast16_t x,
1025:ili9341_ui_driver.hpp ****                    uint_fast16_t y,
1026:ili9341_ui_driver.hpp ****                    uint8_t       color,
1027:ili9341_ui_driver.hpp ****                    uint8_t       alpha = 255)
1028:ili9341_ui_driver.hpp ****     {
1029:ili9341_ui_driver.hpp ****         if(x >= width || y >= height)
 1990              		.loc 8 1029 17 view .LVU616
 1991 0022 B0F854E0 		ldrh	lr, [r0, #84]
 1992              	.LBE664:
 1993              	.LBE663:
 594:ili9341_ui_driver.hpp ****         auto signX  = ((x1 < x2) ? 1 : -1);
 1994              		.loc 8 594 44 view .LVU617
 1995 0026 A41A     		subs	r4, r4, r2
 593:ili9341_ui_driver.hpp ****         auto deltaY = abs((int_fast16_t)y2 - (int_fast16_t)y1);
 1996              		.loc 8 593 14 view .LVU618
 1997 0028 002E     		cmp	r6, #0
 594:ili9341_ui_driver.hpp ****         auto signX  = ((x1 < x2) ? 1 : -1);
ARM GAS  /var/folders/hl/qgbwny5j0fd895c2c41bk3tw0000gp/T//cchkzwyh.s 			page 73


 1998              		.loc 8 594 14 view .LVU619
 1999 002a 84EAE475 		eor	r5, r4, r4, asr #31
 593:ili9341_ui_driver.hpp ****         auto deltaY = abs((int_fast16_t)y2 - (int_fast16_t)y1);
 2000              		.loc 8 593 14 view .LVU620
 2001 002e B8BF     		it	lt
 2002 0030 7642     		rsblt	r6, r6, #0
 2003              	.LVL159:
 594:ili9341_ui_driver.hpp ****         auto signX  = ((x1 < x2) ? 1 : -1);
 2004              		.loc 8 594 9 is_stmt 1 view .LVU621
 594:ili9341_ui_driver.hpp ****         auto signX  = ((x1 < x2) ? 1 : -1);
 2005              		.loc 8 594 14 is_stmt 0 view .LVU622
 2006 0032 A5EBE475 		sub	r5, r5, r4, asr #31
 2007 0036 2C46     		mov	r4, r5
 2008 0038 0295     		str	r5, [sp, #8]
 2009              	.LVL160:
 595:ili9341_ui_driver.hpp ****         auto signX  = ((x1 < x2) ? 1 : -1);
 2010              		.loc 8 595 9 is_stmt 1 view .LVU623
 595:ili9341_ui_driver.hpp ****         auto signX  = ((x1 < x2) ? 1 : -1);
 2011              		.loc 8 595 34 is_stmt 0 view .LVU624
 2012 003a 9942     		cmp	r1, r3
 2013 003c 34BF     		ite	cc
 2014 003e 0125     		movcc	r5, #1
 2015 0040 4FF0FF35 		movcs	r5, #-1
 597:ili9341_ui_driver.hpp **** 
 2016              		.loc 8 597 14 view .LVU625
 2017 0044 A6EB040C 		sub	ip, r6, r4
 595:ili9341_ui_driver.hpp ****         auto signX  = ((x1 < x2) ? 1 : -1);
 2018              		.loc 8 595 34 view .LVU626
 2019 0048 0395     		str	r5, [sp, #12]
 2020              	.LVL161:
 596:ili9341_ui_driver.hpp ****         auto error  = deltaX - deltaY;
 2021              		.loc 8 596 9 is_stmt 1 view .LVU627
 596:ili9341_ui_driver.hpp ****         auto error  = deltaX - deltaY;
 2022              		.loc 8 596 34 is_stmt 0 view .LVU628
 2023 004a 129D     		ldr	r5, [sp, #72]
 2024              	.LVL162:
 596:ili9341_ui_driver.hpp ****         auto error  = deltaX - deltaY;
 2025              		.loc 8 596 34 view .LVU629
 2026 004c AA42     		cmp	r2, r5
 2027 004e 34BF     		ite	cc
 2028 0050 0125     		movcc	r5, #1
 2029 0052 4FF0FF35 		movcs	r5, #-1
 2030              	.LBB688:
 2031              	.LBB685:
 2032              		.loc 8 1029 9 view .LVU630
 2033 0056 7345     		cmp	r3, lr
 2034              	.LBE685:
 2035              	.LBE688:
 596:ili9341_ui_driver.hpp ****         auto error  = deltaX - deltaY;
 2036              		.loc 8 596 34 view .LVU631
 2037 0058 0495     		str	r5, [sp, #16]
 2038              	.LVL163:
 597:ili9341_ui_driver.hpp **** 
 2039              		.loc 8 597 9 is_stmt 1 view .LVU632
 599:ili9341_ui_driver.hpp **** 
 2040              		.loc 8 599 9 view .LVU633
 2041              	.LBB689:
ARM GAS  /var/folders/hl/qgbwny5j0fd895c2c41bk3tw0000gp/T//cchkzwyh.s 			page 74


 2042              	.LBI663:
1024:ili9341_ui_driver.hpp ****                    uint_fast16_t y,
 2043              		.loc 8 1024 10 view .LVU634
 2044              	.LBB686:
 2045              		.loc 8 1029 9 view .LVU635
 2046 005a 4ED2     		bcs	.L65
 2047              		.loc 8 1029 31 is_stmt 0 view .LVU636
 2048 005c B0F85640 		ldrh	r4, [r0, #86]
 2049              	.LVL164:
 2050              		.loc 8 1029 23 view .LVU637
 2051 0060 129D     		ldr	r5, [sp, #72]
 2052              	.LVL165:
 2053              		.loc 8 1029 23 view .LVU638
 2054 0062 A542     		cmp	r5, r4
 2055 0064 49D2     		bcs	.L65
1030:ili9341_ui_driver.hpp ****             return;
1031:ili9341_ui_driver.hpp **** 
1032:ili9341_ui_driver.hpp ****         auto id = 2 * (x + y * width);
 2056              		.loc 8 1032 9 is_stmt 1 view .LVU639
 2057              		.loc 8 1032 26 is_stmt 0 view .LVU640
 2058 0066 129C     		ldr	r4, [sp, #72]
 2059 0068 0EFB0439 		mla	r9, lr, r4, r3
 2060              	.LBB665:
 2061              	.LBB666:
 206:ili9341_ui_driver.hpp **** 
 2062              		.loc 8 206 14 view .LVU641
 2063 006c 00EB4B04 		add	r4, r0, fp, lsl #1
 2064              	.LBE666:
 2065              	.LBE665:
 2066              		.loc 8 1032 14 view .LVU642
 2067 0070 4FEA4905 		lsl	r5, r9, #1
 2068              	.LBB682:
 2069              	.LBB679:
 206:ili9341_ui_driver.hpp **** 
 2070              		.loc 8 206 14 view .LVU643
 2071 0074 A48B     		ldrh	r4, [r4, #28]
 2072              	.LBE679:
 2073              	.LBE682:
 2074              		.loc 8 1032 14 view .LVU644
 2075 0076 0095     		str	r5, [sp]
 2076              	.LVL166:
1033:ili9341_ui_driver.hpp **** 
1034:ili9341_ui_driver.hpp ****         // NOTE: Probably we should check the color id before accessing the array
1035:ili9341_ui_driver.hpp ****         transport_.PaintPixel(id, color, alpha);
 2077              		.loc 8 1035 9 is_stmt 1 view .LVU645
 2078              	.LBB683:
 2079              	.LBI665:
 204:ili9341_ui_driver.hpp ****     {
 2080              		.loc 8 204 10 view .LVU646
 2081              	.LBB680:
 206:ili9341_ui_driver.hpp **** 
 2082              		.loc 8 206 9 view .LVU647
 208:ili9341_ui_driver.hpp ****         {
 2083              		.loc 8 208 9 view .LVU648
 2084              	.LBB667:
 2085 0078 019D     		ldr	r5, [sp, #4]
 2086              	.LVL167:
ARM GAS  /var/folders/hl/qgbwny5j0fd895c2c41bk3tw0000gp/T//cchkzwyh.s 			page 75


 208:ili9341_ui_driver.hpp ****         {
 2087              		.loc 8 208 9 is_stmt 0 view .LVU649
 2088 007a FF2D     		cmp	r5, #255
 2089 007c 00F0FA80 		beq	.L68
 2090              	.LBB668:
 210:ili9341_ui_driver.hpp ****             color         = Blend565(color, bg_color, alpha);
 2091              		.loc 8 210 13 is_stmt 1 view .LVU650
 2092              	.LBB669:
 2093              	.LBB670:
 253:ili9341_ui_driver.hpp ****         // "beta" for background multiplication; (6bit+1);
 2094              		.loc 8 253 24 is_stmt 0 view .LVU651
 2095 0080 019D     		ldr	r5, [sp, #4]
 2096              	.LBE670:
 2097              	.LBE669:
 210:ili9341_ui_driver.hpp ****             color         = Blend565(color, bg_color, alpha);
 2098              		.loc 8 210 52 view .LVU652
 2099 0082 DFF8ACA2 		ldr	r10, .L69+8
 2100              	.LBB675:
 2101              	.LBB671:
 253:ili9341_ui_driver.hpp ****         // "beta" for background multiplication; (6bit+1);
 2102              		.loc 8 253 24 view .LVU653
 2103 0086 AF1C     		adds	r7, r5, #2
 259:ili9341_ui_driver.hpp ****                              + beta * (uint32_t)(bg & MASK_RB))
 2104              		.loc 8 259 38 view .LVU654
 2105 0088 24F4FC65 		bic	r5, r4, #2016
 262:ili9341_ui_driver.hpp ****                               & MASK_MUL_G))
 2106              		.loc 8 262 44 view .LVU655
 2107 008c 04F4FC64 		and	r4, r4, #2016
 2108              	.LVL168:
 253:ili9341_ui_driver.hpp ****         // "beta" for background multiplication; (6bit+1);
 2109              		.loc 8 253 29 view .LVU656
 2110 0090 4FEAA708 		asr	r8, r7, #2
 259:ili9341_ui_driver.hpp ****                              + beta * (uint32_t)(bg & MASK_RB))
 2111              		.loc 8 259 38 view .LVU657
 2112 0094 0595     		str	r5, [sp, #20]
 262:ili9341_ui_driver.hpp ****                               & MASK_MUL_G))
 2113              		.loc 8 262 44 view .LVU658
 2114 0096 0694     		str	r4, [sp, #24]
 2115              	.LBE671:
 2116              	.LBE675:
 210:ili9341_ui_driver.hpp ****             color         = Blend565(color, bg_color, alpha);
 2117              		.loc 8 210 52 view .LVU659
 2118 0098 1AF81940 		ldrb	r4, [r10, r9, lsl #1]	@ zero_extendqisi2
 2119              	.LBB676:
 2120              	.LBB672:
 256:ili9341_ui_driver.hpp ****         // so (0..64)*alpha + (0..64)*beta always in 0..64
 2121              		.loc 8 256 17 view .LVU660
 2122 009c C8F1400E 		rsb	lr, r8, #64
 2123              	.LBE672:
 2124              	.LBE676:
 210:ili9341_ui_driver.hpp ****             color         = Blend565(color, bg_color, alpha);
 2125              		.loc 8 210 18 view .LVU661
 2126 00a0 00EB4404 		add	r4, r0, r4, lsl #1
 2127              	.LBB677:
 2128              	.LBB673:
 256:ili9341_ui_driver.hpp ****         // so (0..64)*alpha + (0..64)*beta always in 0..64
 2129              		.loc 8 256 17 view .LVU662
ARM GAS  /var/folders/hl/qgbwny5j0fd895c2c41bk3tw0000gp/T//cchkzwyh.s 			page 76


 2130 00a4 5FFA8EFE 		uxtb	lr, lr
 2131              	.LBE673:
 2132              	.LBE677:
 210:ili9341_ui_driver.hpp ****             color         = Blend565(color, bg_color, alpha);
 2133              		.loc 8 210 18 view .LVU663
 2134 00a8 A58B     		ldrh	r5, [r4, #28]
 2135              	.LVL169:
 211:ili9341_ui_driver.hpp ****         }
 2136              		.loc 8 211 13 is_stmt 1 view .LVU664
 2137              	.LBB678:
 2138              	.LBI669:
 248:ili9341_ui_driver.hpp ****     {
 2139              		.loc 8 248 14 view .LVU665
 2140              	.LBB674:
 253:ili9341_ui_driver.hpp ****         // "beta" for background multiplication; (6bit+1);
 2141              		.loc 8 253 9 view .LVU666
 256:ili9341_ui_driver.hpp ****         // so (0..64)*alpha + (0..64)*beta always in 0..64
 2142              		.loc 8 256 9 view .LVU667
 259:ili9341_ui_driver.hpp ****                              + beta * (uint32_t)(bg & MASK_RB))
 2143              		.loc 8 259 9 view .LVU668
 260:ili9341_ui_driver.hpp ****                             & MASK_MUL_RB)
 2144              		.loc 8 260 39 is_stmt 0 view .LVU669
 2145 00aa 25F4FC64 		bic	r4, r5, #2016
 262:ili9341_ui_driver.hpp ****                               & MASK_MUL_G))
 2146              		.loc 8 262 67 view .LVU670
 2147 00ae 05F4FC65 		and	r5, r5, #2016
 2148              	.LVL170:
 260:ili9341_ui_driver.hpp ****                             & MASK_MUL_RB)
 2149              		.loc 8 260 37 view .LVU671
 2150 00b2 0EFB04F4 		mul	r4, lr, r4
 262:ili9341_ui_driver.hpp ****                               & MASK_MUL_G))
 2151              		.loc 8 262 61 view .LVU672
 2152 00b6 0EFB05FE 		mul	lr, lr, r5
 2153              	.LVL171:
 260:ili9341_ui_driver.hpp ****                             & MASK_MUL_RB)
 2154              		.loc 8 260 30 view .LVU673
 2155 00ba 059D     		ldr	r5, [sp, #20]
 2156 00bc 08FB0544 		mla	r4, r8, r5, r4
 262:ili9341_ui_driver.hpp ****                               & MASK_MUL_G))
 2157              		.loc 8 262 54 view .LVU674
 2158 00c0 069D     		ldr	r5, [sp, #24]
 261:ili9341_ui_driver.hpp ****                            | ((alpha * (fg & MASK_G) + beta * (bg & MASK_G))
 2159              		.loc 8 261 29 view .LVU675
 2160 00c2 24F07F44 		bic	r4, r4, #-16777216
 262:ili9341_ui_driver.hpp ****                               & MASK_MUL_G))
 2161              		.loc 8 262 54 view .LVU676
 2162 00c6 08FB05E5 		mla	r5, r8, r5, lr
 261:ili9341_ui_driver.hpp ****                            | ((alpha * (fg & MASK_G) + beta * (bg & MASK_G))
 2163              		.loc 8 261 29 view .LVU677
 2164 00ca 24F44104 		bic	r4, r4, #12648448
 263:ili9341_ui_driver.hpp ****                           >> 6);
 2165              		.loc 8 263 31 view .LVU678
 2166 00ce 05F4FC35 		and	r5, r5, #129024
 261:ili9341_ui_driver.hpp ****                            | ((alpha * (fg & MASK_G) + beta * (bg & MASK_G))
 2167              		.loc 8 261 29 view .LVU679
 2168 00d2 24F47844 		bic	r4, r4, #63488
 2169 00d6 24F03F04 		bic	r4, r4, #63
ARM GAS  /var/folders/hl/qgbwny5j0fd895c2c41bk3tw0000gp/T//cchkzwyh.s 			page 77


 262:ili9341_ui_driver.hpp ****                               & MASK_MUL_G))
 2170              		.loc 8 262 28 view .LVU680
 2171 00da 2C43     		orrs	r4, r4, r5
 264:ili9341_ui_driver.hpp ****     }
 2172              		.loc 8 264 31 view .LVU681
 2173 00dc A409     		lsrs	r4, r4, #6
 2174              	.LVL172:
 2175              	.L33:
 264:ili9341_ui_driver.hpp ****     }
 2176              		.loc 8 264 31 view .LVU682
 2177              	.LBE674:
 2178              	.LBE678:
 2179              	.LBE668:
 2180              	.LBE667:
 214:ili9341_ui_driver.hpp **** 
 2181              		.loc 8 214 9 is_stmt 1 view .LVU683
 216:ili9341_ui_driver.hpp ****         frame_buffer[id + 1] = color & 0xFF;
 2182              		.loc 8 216 30 is_stmt 0 view .LVU684
 2183 00de DFF84CE2 		ldr	lr, .L69+4
 216:ili9341_ui_driver.hpp ****         frame_buffer[id + 1] = color & 0xFF;
 2184              		.loc 8 216 38 view .LVU685
 2185 00e2 4FEA1428 		lsr	r8, r4, #8
 217:ili9341_ui_driver.hpp ****     }
 2186              		.loc 8 217 30 view .LVU686
 2187 00e6 009D     		ldr	r5, [sp]
 216:ili9341_ui_driver.hpp ****         frame_buffer[id + 1] = color & 0xFF;
 2188              		.loc 8 216 30 view .LVU687
 2189 00e8 0EF81980 		strb	r8, [lr, r9, lsl #1]
 217:ili9341_ui_driver.hpp ****     }
 2190              		.loc 8 217 30 view .LVU688
 2191 00ec 7544     		add	r5, r5, lr
 214:ili9341_ui_driver.hpp **** 
 2192              		.loc 8 214 23 view .LVU689
 2193 00ee 0AF819B0 		strb	fp, [r10, r9, lsl #1]
 216:ili9341_ui_driver.hpp ****         frame_buffer[id + 1] = color & 0xFF;
 2194              		.loc 8 216 9 is_stmt 1 view .LVU690
 217:ili9341_ui_driver.hpp ****     }
 2195              		.loc 8 217 9 view .LVU691
 217:ili9341_ui_driver.hpp ****     }
 2196              		.loc 8 217 30 is_stmt 0 view .LVU692
 2197 00f2 6C70     		strb	r4, [r5, #1]
 2198              	.LBE680:
 2199              	.LBE683:
 2200              	.LBE686:
 2201              	.LBE689:
 2202              	.LBB690:
 2203              	.LBB691:
 2204              	.LBB692:
1029:ili9341_ui_driver.hpp ****             return;
 2205              		.loc 8 1029 17 view .LVU693
 2206 00f4 B0F854E0 		ldrh	lr, [r0, #84]
 2207              	.LBE692:
 2208              	.LBE691:
 2209              	.LBE690:
 2210              	.LBB733:
 2211              	.LBB687:
 2212              	.LBB684:
ARM GAS  /var/folders/hl/qgbwny5j0fd895c2c41bk3tw0000gp/T//cchkzwyh.s 			page 78


 2213              	.LBB681:
 218:ili9341_ui_driver.hpp **** 
 2214              		.loc 8 218 5 view .LVU694
 2215 00f8 01E0     		b	.L32
 2216              	.LVL173:
 2217              	.L65:
 218:ili9341_ui_driver.hpp **** 
 2218              		.loc 8 218 5 view .LVU695
 2219 00fa 019C     		ldr	r4, [sp, #4]
 2220 00fc A71C     		adds	r7, r4, #2
 2221              	.L32:
 2222              	.LVL174:
 218:ili9341_ui_driver.hpp **** 
 2223              		.loc 8 218 5 view .LVU696
 2224              	.LBE681:
 2225              	.LBE684:
 2226              	.LBE687:
 2227              	.LBE733:
 601:ili9341_ui_driver.hpp ****         {
 2228              		.loc 8 601 9 is_stmt 1 view .LVU697
 601:ili9341_ui_driver.hpp ****         {
 2229              		.loc 8 601 26 view .LVU698
 2230              	.LBB734:
 2231              	.LBB729:
 2232              	.LBB725:
 2233              	.LBB693:
 2234              	.LBB694:
 2235              	.LBB695:
 2236              	.LBB696:
 2237              	.LBB697:
 2238              	.LBB698:
 253:ili9341_ui_driver.hpp ****         // "beta" for background multiplication; (6bit+1);
 2239              		.loc 8 253 29 is_stmt 0 view .LVU699
 2240 00fe BC10     		asrs	r4, r7, #2
 2241              	.LBE698:
 2242              	.LBE697:
 2243              	.LBE696:
 2244              	.LBE695:
 2245              	.LBE694:
 2246              	.LBE693:
 2247              	.LBE725:
 2248              	.LBE729:
 605:ili9341_ui_driver.hpp ****             {
 2249              		.loc 8 605 25 view .LVU700
 2250 0100 029D     		ldr	r5, [sp, #8]
 2251 0102 0093     		str	r3, [sp]
 2252              	.LBB730:
 2253              	.LBB726:
 2254              	.LBB720:
 2255              	.LBB715:
 2256              	.LBB711:
 2257              	.LBB707:
 2258              	.LBB703:
 2259              	.LBB699:
 253:ili9341_ui_driver.hpp ****         // "beta" for background multiplication; (6bit+1);
 2260              		.loc 8 253 29 view .LVU701
 2261 0104 0594     		str	r4, [sp, #20]
ARM GAS  /var/folders/hl/qgbwny5j0fd895c2c41bk3tw0000gp/T//cchkzwyh.s 			page 79


 256:ili9341_ui_driver.hpp ****         // so (0..64)*alpha + (0..64)*beta always in 0..64
 2262              		.loc 8 256 17 view .LVU702
 2263 0106 C4F14004 		rsb	r4, r4, #64
 2264              	.LBE699:
 2265              	.LBE703:
 2266              	.LBE707:
 2267              	.LBE711:
 2268              	.LBE715:
 2269              	.LBE720:
 2270              	.LBE726:
 2271              	.LBE730:
 605:ili9341_ui_driver.hpp ****             {
 2272              		.loc 8 605 25 view .LVU703
 2273 010a C5F1000A 		rsb	r10, r5, #0
 2274              	.LBB731:
 2275              	.LBB727:
 2276              	.LBB721:
 2277              	.LBB716:
 2278              	.LBB712:
 2279              	.LBB708:
 2280              	.LBB704:
 2281              	.LBB700:
 256:ili9341_ui_driver.hpp ****         // so (0..64)*alpha + (0..64)*beta always in 0..64
 2282              		.loc 8 256 17 view .LVU704
 2283 010e E4B2     		uxtb	r4, r4
 2284 0110 0694     		str	r4, [sp, #24]
 2285 0112 01E0     		b	.L34
 2286              	.LVL175:
 2287              	.L42:
 256:ili9341_ui_driver.hpp ****         // so (0..64)*alpha + (0..64)*beta always in 0..64
 2288              		.loc 8 256 17 view .LVU705
 2289              	.LBE700:
 2290              	.LBE704:
 2291              	.LBE708:
 2292              	.LBE712:
 2293              	.LBE716:
 2294              	.LBE721:
1029:ili9341_ui_driver.hpp ****             return;
 2295              		.loc 8 1029 17 view .LVU706
 2296 0114 B0F854E0 		ldrh	lr, [r0, #84]
 2297              	.L34:
1029:ili9341_ui_driver.hpp ****             return;
 2298              		.loc 8 1029 17 view .LVU707
 2299              	.LBE727:
 2300              	.LBE731:
 603:ili9341_ui_driver.hpp ****             auto error2 = error * 2;
 2301              		.loc 8 603 13 is_stmt 1 view .LVU708
 2302              	.LVL176:
 2303              	.LBB732:
 2304              	.LBI691:
1024:ili9341_ui_driver.hpp ****                    uint_fast16_t y,
 2305              		.loc 8 1024 10 view .LVU709
 2306              	.LBB728:
1029:ili9341_ui_driver.hpp ****             return;
 2307              		.loc 8 1029 9 view .LVU710
 2308 0118 8E45     		cmp	lr, r1
 2309 011a 3FD9     		bls	.L36
ARM GAS  /var/folders/hl/qgbwny5j0fd895c2c41bk3tw0000gp/T//cchkzwyh.s 			page 80


1029:ili9341_ui_driver.hpp ****             return;
 2310              		.loc 8 1029 31 is_stmt 0 view .LVU711
 2311 011c B0F85640 		ldrh	r4, [r0, #86]
1029:ili9341_ui_driver.hpp ****             return;
 2312              		.loc 8 1029 23 view .LVU712
 2313 0120 9442     		cmp	r4, r2
 2314 0122 3BD9     		bls	.L36
1032:ili9341_ui_driver.hpp **** 
 2315              		.loc 8 1032 9 is_stmt 1 view .LVU713
 2316              	.LBB722:
 2317              	.LBB717:
 206:ili9341_ui_driver.hpp **** 
 2318              		.loc 8 206 14 is_stmt 0 view .LVU714
 2319 0124 00EB4B04 		add	r4, r0, fp, lsl #1
 2320              	.LBE717:
 2321              	.LBE722:
1032:ili9341_ui_driver.hpp **** 
 2322              		.loc 8 1032 26 view .LVU715
 2323 0128 02FB0E15 		mla	r5, r2, lr, r1
 2324              	.LBB723:
 2325              	.LBB718:
 2326              	.LBB713:
 2327              	.LBB709:
 210:ili9341_ui_driver.hpp ****             color         = Blend565(color, bg_color, alpha);
 2328              		.loc 8 210 52 view .LVU716
 2329 012c DFF80082 		ldr	r8, .L69+8
 2330              	.LBE709:
 2331              	.LBE713:
 206:ili9341_ui_driver.hpp **** 
 2332              		.loc 8 206 14 view .LVU717
 2333 0130 B4F81C90 		ldrh	r9, [r4, #28]
 2334              	.LBE718:
 2335              	.LBE723:
1032:ili9341_ui_driver.hpp **** 
 2336              		.loc 8 1032 14 view .LVU718
 2337 0134 4FEA450E 		lsl	lr, r5, #1
 2338              	.LVL177:
 2339              		.loc 8 1035 9 is_stmt 1 view .LVU719
 2340              	.LBB724:
 2341              	.LBI693:
 204:ili9341_ui_driver.hpp ****     {
 2342              		.loc 8 204 10 view .LVU720
 2343              	.LBB719:
 206:ili9341_ui_driver.hpp **** 
 2344              		.loc 8 206 9 view .LVU721
 208:ili9341_ui_driver.hpp ****         {
 2345              		.loc 8 208 9 view .LVU722
 2346              	.LBB714:
 2347 0138 019C     		ldr	r4, [sp, #4]
 2348 013a FF2C     		cmp	r4, #255
 2349 013c 24D0     		beq	.L37
 2350              	.LBB710:
 210:ili9341_ui_driver.hpp ****             color         = Blend565(color, bg_color, alpha);
 2351              		.loc 8 210 13 view .LVU723
 2352              	.LBB705:
 2353              	.LBB701:
 259:ili9341_ui_driver.hpp ****                              + beta * (uint32_t)(bg & MASK_RB))
ARM GAS  /var/folders/hl/qgbwny5j0fd895c2c41bk3tw0000gp/T//cchkzwyh.s 			page 81


 2354              		.loc 8 259 38 is_stmt 0 view .LVU724
 2355 013e 29F4FC64 		bic	r4, r9, #2016
 262:ili9341_ui_driver.hpp ****                               & MASK_MUL_G))
 2356              		.loc 8 262 44 view .LVU725
 2357 0142 09F4FC69 		and	r9, r9, #2016
 2358              	.LVL178:
 259:ili9341_ui_driver.hpp ****                              + beta * (uint32_t)(bg & MASK_RB))
 2359              		.loc 8 259 38 view .LVU726
 2360 0146 2346     		mov	r3, r4
 2361              	.LBE701:
 2362              	.LBE705:
 210:ili9341_ui_driver.hpp ****             color         = Blend565(color, bg_color, alpha);
 2363              		.loc 8 210 52 view .LVU727
 2364 0148 18F81540 		ldrb	r4, [r8, r5, lsl #1]	@ zero_extendqisi2
 210:ili9341_ui_driver.hpp ****             color         = Blend565(color, bg_color, alpha);
 2365              		.loc 8 210 18 view .LVU728
 2366 014c 00EB4404 		add	r4, r0, r4, lsl #1
 2367 0150 A78B     		ldrh	r7, [r4, #28]
 2368              	.LVL179:
 211:ili9341_ui_driver.hpp ****         }
 2369              		.loc 8 211 13 is_stmt 1 view .LVU729
 2370              	.LBB706:
 2371              	.LBI697:
 248:ili9341_ui_driver.hpp ****     {
 2372              		.loc 8 248 14 view .LVU730
 2373              	.LBB702:
 253:ili9341_ui_driver.hpp ****         // "beta" for background multiplication; (6bit+1);
 2374              		.loc 8 253 9 view .LVU731
 256:ili9341_ui_driver.hpp ****         // so (0..64)*alpha + (0..64)*beta always in 0..64
 2375              		.loc 8 256 9 view .LVU732
 259:ili9341_ui_driver.hpp ****                              + beta * (uint32_t)(bg & MASK_RB))
 2376              		.loc 8 259 9 view .LVU733
 260:ili9341_ui_driver.hpp ****                             & MASK_MUL_RB)
 2377              		.loc 8 260 39 is_stmt 0 view .LVU734
 2378 0152 27F4FC64 		bic	r4, r7, #2016
 262:ili9341_ui_driver.hpp ****                               & MASK_MUL_G))
 2379              		.loc 8 262 67 view .LVU735
 2380 0156 07F4FC67 		and	r7, r7, #2016
 2381              	.LVL180:
 262:ili9341_ui_driver.hpp ****                               & MASK_MUL_G))
 2382              		.loc 8 262 67 view .LVU736
 2383 015a 0797     		str	r7, [sp, #28]
 260:ili9341_ui_driver.hpp ****                             & MASK_MUL_RB)
 2384              		.loc 8 260 37 view .LVU737
 2385 015c 069F     		ldr	r7, [sp, #24]
 2386 015e 07FB04F4 		mul	r4, r7, r4
 260:ili9341_ui_driver.hpp ****                             & MASK_MUL_RB)
 2387              		.loc 8 260 30 view .LVU738
 2388 0162 059F     		ldr	r7, [sp, #20]
 2389 0164 07FB0344 		mla	r4, r7, r3, r4
 261:ili9341_ui_driver.hpp ****                            | ((alpha * (fg & MASK_G) + beta * (bg & MASK_G))
 2390              		.loc 8 261 29 view .LVU739
 2391 0168 6F4B     		ldr	r3, .L69
 2392 016a 2340     		ands	r3, r3, r4
 262:ili9341_ui_driver.hpp ****                               & MASK_MUL_G))
 2393              		.loc 8 262 61 view .LVU740
 2394 016c DDE90674 		ldrd	r7, r4, [sp, #24]
ARM GAS  /var/folders/hl/qgbwny5j0fd895c2c41bk3tw0000gp/T//cchkzwyh.s 			page 82


 2395 0170 07FB04F4 		mul	r4, r7, r4
 2396 0174 2746     		mov	r7, r4
 262:ili9341_ui_driver.hpp ****                               & MASK_MUL_G))
 2397              		.loc 8 262 54 view .LVU741
 2398 0176 059C     		ldr	r4, [sp, #20]
 2399 0178 04FB0977 		mla	r7, r4, r9, r7
 263:ili9341_ui_driver.hpp ****                           >> 6);
 2400              		.loc 8 263 31 view .LVU742
 2401 017c 07F4FC37 		and	r7, r7, #129024
 262:ili9341_ui_driver.hpp ****                               & MASK_MUL_G))
 2402              		.loc 8 262 28 view .LVU743
 2403 0180 43EA0704 		orr	r4, r3, r7
 264:ili9341_ui_driver.hpp ****     }
 2404              		.loc 8 264 31 view .LVU744
 2405 0184 4FEA9419 		lsr	r9, r4, #6
 2406              	.LVL181:
 2407              	.L37:
 264:ili9341_ui_driver.hpp ****     }
 2408              		.loc 8 264 31 view .LVU745
 2409              	.LBE702:
 2410              	.LBE706:
 2411              	.LBE710:
 2412              	.LBE714:
 214:ili9341_ui_driver.hpp **** 
 2413              		.loc 8 214 9 is_stmt 1 view .LVU746
 216:ili9341_ui_driver.hpp ****         frame_buffer[id + 1] = color & 0xFF;
 2414              		.loc 8 216 30 is_stmt 0 view .LVU747
 2415 0188 684C     		ldr	r4, .L69+4
 216:ili9341_ui_driver.hpp ****         frame_buffer[id + 1] = color & 0xFF;
 2416              		.loc 8 216 38 view .LVU748
 2417 018a 4FEA1927 		lsr	r7, r9, #8
 214:ili9341_ui_driver.hpp **** 
 2418              		.loc 8 214 23 view .LVU749
 2419 018e 08F815B0 		strb	fp, [r8, r5, lsl #1]
 216:ili9341_ui_driver.hpp ****         frame_buffer[id + 1] = color & 0xFF;
 2420              		.loc 8 216 9 is_stmt 1 view .LVU750
 217:ili9341_ui_driver.hpp ****     }
 2421              		.loc 8 217 30 is_stmt 0 view .LVU751
 2422 0192 A644     		add	lr, lr, r4
 2423              	.LVL182:
 216:ili9341_ui_driver.hpp ****         frame_buffer[id + 1] = color & 0xFF;
 2424              		.loc 8 216 30 view .LVU752
 2425 0194 04F81570 		strb	r7, [r4, r5, lsl #1]
 217:ili9341_ui_driver.hpp ****     }
 2426              		.loc 8 217 9 is_stmt 1 view .LVU753
 217:ili9341_ui_driver.hpp ****     }
 2427              		.loc 8 217 30 is_stmt 0 view .LVU754
 2428 0198 8EF80190 		strb	r9, [lr, #1]
 2429              	.LVL183:
 2430              	.L36:
 217:ili9341_ui_driver.hpp ****     }
 2431              		.loc 8 217 30 view .LVU755
 2432              	.LBE719:
 2433              	.LBE724:
 2434              	.LBE728:
 2435              	.LBE732:
 604:ili9341_ui_driver.hpp ****             if(error2 > -deltaY)
ARM GAS  /var/folders/hl/qgbwny5j0fd895c2c41bk3tw0000gp/T//cchkzwyh.s 			page 83


 2436              		.loc 8 604 13 is_stmt 1 view .LVU756
 605:ili9341_ui_driver.hpp ****             {
 2437              		.loc 8 605 13 is_stmt 0 view .LVU757
 2438 019c BAEB4C0F 		cmp	r10, ip, lsl #1
 604:ili9341_ui_driver.hpp ****             if(error2 > -deltaY)
 2439              		.loc 8 604 18 view .LVU758
 2440 01a0 4FEA4C04 		lsl	r4, ip, #1
 2441              	.LVL184:
 605:ili9341_ui_driver.hpp ****             {
 2442              		.loc 8 605 13 is_stmt 1 view .LVU759
 2443 01a4 04DA     		bge	.L38
 607:ili9341_ui_driver.hpp ****                 x1 += signX;
 2444              		.loc 8 607 17 view .LVU760
 607:ili9341_ui_driver.hpp ****                 x1 += signX;
 2445              		.loc 8 607 23 is_stmt 0 view .LVU761
 2446 01a6 029D     		ldr	r5, [sp, #8]
 2447 01a8 ACEB050C 		sub	ip, ip, r5
 2448              	.LVL185:
 608:ili9341_ui_driver.hpp ****             }
 2449              		.loc 8 608 17 is_stmt 1 view .LVU762
 608:ili9341_ui_driver.hpp ****             }
 2450              		.loc 8 608 20 is_stmt 0 view .LVU763
 2451 01ac 039D     		ldr	r5, [sp, #12]
 2452 01ae 2944     		add	r1, r1, r5
 2453              	.LVL186:
 2454              	.L38:
 611:ili9341_ui_driver.hpp ****             {
 2455              		.loc 8 611 13 is_stmt 1 view .LVU764
 2456 01b0 A642     		cmp	r6, r4
 2457 01b2 02DD     		ble	.L39
 613:ili9341_ui_driver.hpp ****                 y1 += signY;
 2458              		.loc 8 613 17 view .LVU765
 614:ili9341_ui_driver.hpp ****             }
 2459              		.loc 8 614 20 is_stmt 0 view .LVU766
 2460 01b4 049C     		ldr	r4, [sp, #16]
 2461              	.LVL187:
 613:ili9341_ui_driver.hpp ****                 y1 += signY;
 2462              		.loc 8 613 23 view .LVU767
 2463 01b6 B444     		add	ip, ip, r6
 2464              	.LVL188:
 614:ili9341_ui_driver.hpp ****             }
 2465              		.loc 8 614 17 is_stmt 1 view .LVU768
 614:ili9341_ui_driver.hpp ****             }
 2466              		.loc 8 614 20 is_stmt 0 view .LVU769
 2467 01b8 2244     		add	r2, r2, r4
 2468              	.LVL189:
 2469              	.L39:
 614:ili9341_ui_driver.hpp ****             }
 2470              		.loc 8 614 20 view .LVU770
 2471              	.LBE734:
 601:ili9341_ui_driver.hpp ****         {
 2472              		.loc 8 601 9 is_stmt 1 view .LVU771
 601:ili9341_ui_driver.hpp ****         {
 2473              		.loc 8 601 26 view .LVU772
 2474 01ba 009B     		ldr	r3, [sp]
 2475 01bc 9942     		cmp	r1, r3
 2476 01be A9D1     		bne	.L42
ARM GAS  /var/folders/hl/qgbwny5j0fd895c2c41bk3tw0000gp/T//cchkzwyh.s 			page 84


 601:ili9341_ui_driver.hpp ****         {
 2477              		.loc 8 601 26 is_stmt 0 view .LVU773
 2478 01c0 129C     		ldr	r4, [sp, #72]
 2479 01c2 9442     		cmp	r4, r2
 2480 01c4 A6D1     		bne	.L42
 2481              	.LVL190:
 2482              	.L20:
 617:ili9341_ui_driver.hpp **** 
 2483              		.loc 8 617 5 view .LVU774
 2484 01c6 09B0     		add	sp, sp, #36
 2485              		.cfi_remember_state
 2486              		.cfi_def_cfa_offset 36
 2487              		@ sp needed
 2488 01c8 BDE8F08F 		pop	{r4, r5, r6, r7, r8, r9, r10, fp, pc}
 2489              	.LVL191:
 2490              	.L66:
 2491              		.cfi_restore_state
 586:ili9341_ui_driver.hpp ****         }
 2492              		.loc 8 586 13 is_stmt 1 view .LVU775
 586:ili9341_ui_driver.hpp ****         }
 2493              		.loc 8 586 46 is_stmt 0 view .LVU776
 2494 01cc 129B     		ldr	r3, [sp, #72]
 2495              	.LVL192:
 586:ili9341_ui_driver.hpp ****         }
 2496              		.loc 8 586 29 view .LVU777
 2497 01ce 09B2     		sxth	r1, r1
 2498              	.LVL193:
 586:ili9341_ui_driver.hpp ****         }
 2499              		.loc 8 586 46 view .LVU778
 2500 01d0 5E1C     		adds	r6, r3, #1
 2501 01d2 B61A     		subs	r6, r6, r2
 586:ili9341_ui_driver.hpp ****         }
 2502              		.loc 8 586 29 view .LVU779
 2503 01d4 12B2     		sxth	r2, r2
 2504              	.LVL194:
 2505              	.LBB735:
 2506              	.LBI735:
1036:ili9341_ui_driver.hpp **** 
1037:ili9341_ui_driver.hpp ****         // Lets divide the whole screen in 10 sectors, 32 pixel high each
1038:ili9341_ui_driver.hpp ****         // uint8_t screen_sector     = y / 32;
1039:ili9341_ui_driver.hpp ****         // dirty_buff[screen_sector] = 1;
1040:ili9341_ui_driver.hpp ****     }
1041:ili9341_ui_driver.hpp **** 
1042:ili9341_ui_driver.hpp ****     void DrawVLine(int16_t x,
 2507              		.loc 8 1042 10 is_stmt 1 view .LVU780
 2508              	.LBE735:
1043:ili9341_ui_driver.hpp ****                    int16_t y,
1044:ili9341_ui_driver.hpp ****                    int16_t h,
1045:ili9341_ui_driver.hpp ****                    uint8_t color,
1046:ili9341_ui_driver.hpp ****                    uint8_t alpha = 255)
1047:ili9341_ui_driver.hpp ****     {
1048:ili9341_ui_driver.hpp ****         for(int16_t i = y; i < y + h; i++)
 2509              		.loc 8 1048 9 view .LVU781
 2510              	.LBB770:
 2511              	.LBB736:
 2512              		.loc 8 1048 30 view .LVU782
 2513              		.loc 8 1048 34 is_stmt 0 view .LVU783
ARM GAS  /var/folders/hl/qgbwny5j0fd895c2c41bk3tw0000gp/T//cchkzwyh.s 			page 85


 2514 01d6 02FA86F6 		sxtah	r6, r2, r6
 2515              		.loc 8 1048 30 view .LVU784
 2516 01da 9642     		cmp	r6, r2
 2517 01dc F3DD     		ble	.L20
 2518              	.LBB737:
 2519              	.LBB738:
 2520              	.LBB739:
 2521              	.LBB740:
 2522              	.LBB741:
 2523              	.LBB742:
 2524              	.LBB743:
 2525              	.LBB744:
 253:ili9341_ui_driver.hpp ****         // "beta" for background multiplication; (6bit+1);
 2526              		.loc 8 253 24 view .LVU785
 2527 01de 04F1020E 		add	lr, r4, #2
 253:ili9341_ui_driver.hpp ****         // "beta" for background multiplication; (6bit+1);
 2528              		.loc 8 253 29 view .LVU786
 2529 01e2 4FEAAE0E 		asr	lr, lr, #2
 256:ili9341_ui_driver.hpp ****         // so (0..64)*alpha + (0..64)*beta always in 0..64
 2530              		.loc 8 256 17 view .LVU787
 2531 01e6 CEF14008 		rsb	r8, lr, #64
 2532 01ea 5FFA88F8 		uxtb	r8, r8
 2533              	.LVL195:
 2534              	.L25:
 256:ili9341_ui_driver.hpp ****         // so (0..64)*alpha + (0..64)*beta always in 0..64
 2535              		.loc 8 256 17 view .LVU788
 2536              	.LBE744:
 2537              	.LBE743:
 2538              	.LBE742:
 2539              	.LBE741:
 2540              	.LBE740:
 2541              	.LBE739:
 2542              	.LBE738:
 2543              	.LBE737:
1049:ili9341_ui_driver.hpp ****         {
1050:ili9341_ui_driver.hpp ****             DrawPixel(x, i, color, alpha);
 2544              		.loc 8 1050 13 is_stmt 1 view .LVU789
 2545              	.LBB769:
 2546              	.LBI737:
1024:ili9341_ui_driver.hpp ****                    uint_fast16_t y,
 2547              		.loc 8 1024 10 view .LVU790
 2548              	.LBB768:
1029:ili9341_ui_driver.hpp ****             return;
 2549              		.loc 8 1029 9 view .LVU791
1029:ili9341_ui_driver.hpp ****             return;
 2550              		.loc 8 1029 17 is_stmt 0 view .LVU792
 2551 01ee B0F85430 		ldrh	r3, [r0, #84]
1029:ili9341_ui_driver.hpp ****             return;
 2552              		.loc 8 1029 9 view .LVU793
 2553 01f2 8B42     		cmp	r3, r1
 2554 01f4 37D9     		bls	.L23
1032:ili9341_ui_driver.hpp **** 
 2555              		.loc 8 1032 9 is_stmt 1 view .LVU794
1029:ili9341_ui_driver.hpp ****             return;
 2556              		.loc 8 1029 31 is_stmt 0 view .LVU795
 2557 01f6 B0F85640 		ldrh	r4, [r0, #86]
1032:ili9341_ui_driver.hpp **** 
ARM GAS  /var/folders/hl/qgbwny5j0fd895c2c41bk3tw0000gp/T//cchkzwyh.s 			page 86


 2558              		.loc 8 1032 26 view .LVU796
 2559 01fa 03FB0213 		mla	r3, r3, r2, r1
1029:ili9341_ui_driver.hpp ****             return;
 2560              		.loc 8 1029 23 view .LVU797
 2561 01fe A242     		cmp	r2, r4
 2562 0200 31D2     		bcs	.L23
 2563              	.LBB765:
 2564              	.LBB762:
 2565              	.LBB757:
 2566              	.LBB753:
 210:ili9341_ui_driver.hpp ****             color         = Blend565(color, bg_color, alpha);
 2567              		.loc 8 210 13 is_stmt 1 view .LVU798
 2568              	.LBE753:
 2569              	.LBE757:
 2570              	.LBE762:
 2571              	.LBE765:
1032:ili9341_ui_driver.hpp **** 
 2572              		.loc 8 1032 14 is_stmt 0 view .LVU799
 2573 0202 5D00     		lsls	r5, r3, #1
 2574              	.LBB766:
 2575              	.LBB763:
 2576              	.LBB758:
 2577              	.LBB754:
 210:ili9341_ui_driver.hpp ****             color         = Blend565(color, bg_color, alpha);
 2578              		.loc 8 210 52 view .LVU800
 2579 0204 DFF828C1 		ldr	ip, .L69+8
 2580              	.LBE754:
 2581              	.LBE758:
 206:ili9341_ui_driver.hpp **** 
 2582              		.loc 8 206 14 view .LVU801
 2583 0208 00EB4B04 		add	r4, r0, fp, lsl #1
 2584              	.LBB759:
 2585              	.LBB755:
 2586              	.LBB749:
 2587              	.LBB745:
 261:ili9341_ui_driver.hpp ****                            | ((alpha * (fg & MASK_G) + beta * (bg & MASK_G))
 2588              		.loc 8 261 29 view .LVU802
 2589 020c DFF81891 		ldr	r9, .L69
 2590              	.LBE745:
 2591              	.LBE749:
 2592              	.LBE755:
 2593              	.LBE759:
 2594              	.LBE763:
 2595              	.LBE766:
1032:ili9341_ui_driver.hpp **** 
 2596              		.loc 8 1032 14 view .LVU803
 2597 0210 0095     		str	r5, [sp]
 2598              	.LVL196:
1035:ili9341_ui_driver.hpp **** 
 2599              		.loc 8 1035 9 is_stmt 1 view .LVU804
 2600              	.LBB767:
 2601              	.LBI739:
 204:ili9341_ui_driver.hpp ****     {
 2602              		.loc 8 204 10 view .LVU805
 2603              	.LBB764:
 206:ili9341_ui_driver.hpp **** 
 2604              		.loc 8 206 9 view .LVU806
ARM GAS  /var/folders/hl/qgbwny5j0fd895c2c41bk3tw0000gp/T//cchkzwyh.s 			page 87


 2605              	.LBB760:
 208:ili9341_ui_driver.hpp ****         {
 2606              		.loc 8 208 9 is_stmt 0 view .LVU807
 2607 0212 019D     		ldr	r5, [sp, #4]
 2608              	.LVL197:
 208:ili9341_ui_driver.hpp ****         {
 2609              		.loc 8 208 9 view .LVU808
 2610              	.LBE760:
 206:ili9341_ui_driver.hpp **** 
 2611              		.loc 8 206 14 view .LVU809
 2612 0214 A48B     		ldrh	r4, [r4, #28]
 2613              	.LVL198:
 208:ili9341_ui_driver.hpp ****         {
 2614              		.loc 8 208 9 is_stmt 1 view .LVU810
 2615              	.LBB761:
 2616 0216 FF2D     		cmp	r5, #255
 2617 0218 1BD0     		beq	.L24
 2618              	.LBB756:
 210:ili9341_ui_driver.hpp ****             color         = Blend565(color, bg_color, alpha);
 2619              		.loc 8 210 52 is_stmt 0 view .LVU811
 2620 021a 1CF81350 		ldrb	r5, [ip, r3, lsl #1]	@ zero_extendqisi2
 2621              	.LBB750:
 2622              	.LBB746:
 259:ili9341_ui_driver.hpp ****                              + beta * (uint32_t)(bg & MASK_RB))
 2623              		.loc 8 259 38 view .LVU812
 2624 021e 24F4FC6A 		bic	r10, r4, #2016
 262:ili9341_ui_driver.hpp ****                               & MASK_MUL_G))
 2625              		.loc 8 262 44 view .LVU813
 2626 0222 04F4FC64 		and	r4, r4, #2016
 2627              	.LVL199:
 262:ili9341_ui_driver.hpp ****                               & MASK_MUL_G))
 2628              		.loc 8 262 44 view .LVU814
 2629              	.LBE746:
 2630              	.LBE750:
 210:ili9341_ui_driver.hpp ****             color         = Blend565(color, bg_color, alpha);
 2631              		.loc 8 210 18 view .LVU815
 2632 0226 00EB4505 		add	r5, r0, r5, lsl #1
 2633              	.LBB751:
 2634              	.LBB747:
 262:ili9341_ui_driver.hpp ****                               & MASK_MUL_G))
 2635              		.loc 8 262 44 view .LVU816
 2636 022a 2746     		mov	r7, r4
 2637              	.LBE747:
 2638              	.LBE751:
 210:ili9341_ui_driver.hpp ****             color         = Blend565(color, bg_color, alpha);
 2639              		.loc 8 210 18 view .LVU817
 2640 022c AD8B     		ldrh	r5, [r5, #28]
 2641              	.LVL200:
 211:ili9341_ui_driver.hpp ****         }
 2642              		.loc 8 211 13 is_stmt 1 view .LVU818
 2643              	.LBB752:
 2644              	.LBI743:
 248:ili9341_ui_driver.hpp ****     {
 2645              		.loc 8 248 14 view .LVU819
 2646              	.LBB748:
 253:ili9341_ui_driver.hpp ****         // "beta" for background multiplication; (6bit+1);
 2647              		.loc 8 253 9 view .LVU820
ARM GAS  /var/folders/hl/qgbwny5j0fd895c2c41bk3tw0000gp/T//cchkzwyh.s 			page 88


 256:ili9341_ui_driver.hpp ****         // so (0..64)*alpha + (0..64)*beta always in 0..64
 2648              		.loc 8 256 9 view .LVU821
 259:ili9341_ui_driver.hpp ****                              + beta * (uint32_t)(bg & MASK_RB))
 2649              		.loc 8 259 9 view .LVU822
 260:ili9341_ui_driver.hpp ****                             & MASK_MUL_RB)
 2650              		.loc 8 260 39 is_stmt 0 view .LVU823
 2651 022e 25F4FC64 		bic	r4, r5, #2016
 262:ili9341_ui_driver.hpp ****                               & MASK_MUL_G))
 2652              		.loc 8 262 67 view .LVU824
 2653 0232 05F4FC65 		and	r5, r5, #2016
 2654              	.LVL201:
 260:ili9341_ui_driver.hpp ****                             & MASK_MUL_RB)
 2655              		.loc 8 260 37 view .LVU825
 2656 0236 08FB04F4 		mul	r4, r8, r4
 262:ili9341_ui_driver.hpp ****                               & MASK_MUL_G))
 2657              		.loc 8 262 61 view .LVU826
 2658 023a 08FB05F5 		mul	r5, r8, r5
 260:ili9341_ui_driver.hpp ****                             & MASK_MUL_RB)
 2659              		.loc 8 260 30 view .LVU827
 2660 023e 0EFB0A44 		mla	r4, lr, r10, r4
 262:ili9341_ui_driver.hpp ****                               & MASK_MUL_G))
 2661              		.loc 8 262 54 view .LVU828
 2662 0242 0EFB0755 		mla	r5, lr, r7, r5
 261:ili9341_ui_driver.hpp ****                            | ((alpha * (fg & MASK_G) + beta * (bg & MASK_G))
 2663              		.loc 8 261 29 view .LVU829
 2664 0246 04EA0904 		and	r4, r4, r9
 263:ili9341_ui_driver.hpp ****                           >> 6);
 2665              		.loc 8 263 31 view .LVU830
 2666 024a 05F4FC35 		and	r5, r5, #129024
 262:ili9341_ui_driver.hpp ****                               & MASK_MUL_G))
 2667              		.loc 8 262 28 view .LVU831
 2668 024e 2C43     		orrs	r4, r4, r5
 264:ili9341_ui_driver.hpp ****     }
 2669              		.loc 8 264 31 view .LVU832
 2670 0250 A409     		lsrs	r4, r4, #6
 2671              	.LVL202:
 2672              	.L24:
 264:ili9341_ui_driver.hpp ****     }
 2673              		.loc 8 264 31 view .LVU833
 2674              	.LBE748:
 2675              	.LBE752:
 2676              	.LBE756:
 2677              	.LBE761:
 214:ili9341_ui_driver.hpp **** 
 2678              		.loc 8 214 9 is_stmt 1 view .LVU834
 216:ili9341_ui_driver.hpp ****         frame_buffer[id + 1] = color & 0xFF;
 2679              		.loc 8 216 30 is_stmt 0 view .LVU835
 2680 0252 364D     		ldr	r5, .L69+4
 217:ili9341_ui_driver.hpp ****     }
 2681              		.loc 8 217 30 view .LVU836
 2682 0254 5F00     		lsls	r7, r3, #1
 214:ili9341_ui_driver.hpp **** 
 2683              		.loc 8 214 23 view .LVU837
 2684 0256 0CF813B0 		strb	fp, [ip, r3, lsl #1]
 216:ili9341_ui_driver.hpp ****         frame_buffer[id + 1] = color & 0xFF;
 2685              		.loc 8 216 9 is_stmt 1 view .LVU838
 216:ili9341_ui_driver.hpp ****         frame_buffer[id + 1] = color & 0xFF;
ARM GAS  /var/folders/hl/qgbwny5j0fd895c2c41bk3tw0000gp/T//cchkzwyh.s 			page 89


 2686              		.loc 8 216 38 is_stmt 0 view .LVU839
 2687 025a 4FEA142C 		lsr	ip, r4, #8
 217:ili9341_ui_driver.hpp ****     }
 2688              		.loc 8 217 30 view .LVU840
 2689 025e 2F44     		add	r7, r7, r5
 216:ili9341_ui_driver.hpp ****         frame_buffer[id + 1] = color & 0xFF;
 2690              		.loc 8 216 30 view .LVU841
 2691 0260 05F813C0 		strb	ip, [r5, r3, lsl #1]
 217:ili9341_ui_driver.hpp ****     }
 2692              		.loc 8 217 9 is_stmt 1 view .LVU842
 217:ili9341_ui_driver.hpp ****     }
 2693              		.loc 8 217 30 is_stmt 0 view .LVU843
 2694 0264 7C70     		strb	r4, [r7, #1]
 2695              	.LVL203:
 2696              	.L23:
 217:ili9341_ui_driver.hpp ****     }
 2697              		.loc 8 217 30 view .LVU844
 2698              	.LBE764:
 2699              	.LBE767:
 2700              	.LBE768:
 2701              	.LBE769:
1048:ili9341_ui_driver.hpp ****         {
 2702              		.loc 8 1048 9 is_stmt 1 view .LVU845
 2703 0266 0132     		adds	r2, r2, #1
 2704              	.LVL204:
1048:ili9341_ui_driver.hpp ****         {
 2705              		.loc 8 1048 9 is_stmt 0 view .LVU846
 2706 0268 12B2     		sxth	r2, r2
 2707              	.LVL205:
1048:ili9341_ui_driver.hpp ****         {
 2708              		.loc 8 1048 30 is_stmt 1 view .LVU847
 2709 026a 9642     		cmp	r6, r2
 2710 026c BFDC     		bgt	.L25
 2711              	.LBE736:
 2712              	.LBE770:
 617:ili9341_ui_driver.hpp **** 
 2713              		.loc 8 617 5 is_stmt 0 view .LVU848
 2714 026e 09B0     		add	sp, sp, #36
 2715              		.cfi_remember_state
 2716              		.cfi_def_cfa_offset 36
 2717              		@ sp needed
 2718 0270 BDE8F08F 		pop	{r4, r5, r6, r7, r8, r9, r10, fp, pc}
 2719              	.LVL206:
 2720              	.L68:
 2721              		.cfi_restore_state
 617:ili9341_ui_driver.hpp **** 
 2722              		.loc 8 617 5 view .LVU849
 2723 0274 40F20117 		movw	r7, #257
 2724 0278 DFF8B4A0 		ldr	r10, .L69+8
 2725 027c 2FE7     		b	.L33
 2726              	.LVL207:
 2727              	.L67:
 2728              	.LBB771:
 2729              	.LBI771:
 577:ili9341_ui_driver.hpp ****                   uint_fast16_t y1,
 2730              		.loc 8 577 10 is_stmt 1 view .LVU850
 2731              	.LBB772:
ARM GAS  /var/folders/hl/qgbwny5j0fd895c2c41bk3tw0000gp/T//cchkzwyh.s 			page 90


 590:ili9341_ui_driver.hpp ****         }
 2732              		.loc 8 590 13 view .LVU851
 590:ili9341_ui_driver.hpp ****         }
 2733              		.loc 8 590 46 is_stmt 0 view .LVU852
 2734 027e 5E1C     		adds	r6, r3, #1
 590:ili9341_ui_driver.hpp ****         }
 2735              		.loc 8 590 29 view .LVU853
 2736 0280 12B2     		sxth	r2, r2
 2737              	.LVL208:
 590:ili9341_ui_driver.hpp ****         }
 2738              		.loc 8 590 46 view .LVU854
 2739 0282 761A     		subs	r6, r6, r1
 590:ili9341_ui_driver.hpp ****         }
 2740              		.loc 8 590 29 view .LVU855
 2741 0284 09B2     		sxth	r1, r1
 2742              	.LVL209:
 2743              	.LBB773:
 2744              	.LBI773:
1051:ili9341_ui_driver.hpp ****         }
1052:ili9341_ui_driver.hpp ****     }
1053:ili9341_ui_driver.hpp **** 
1054:ili9341_ui_driver.hpp ****     void DrawHLine(int16_t x,
 2745              		.loc 8 1054 10 is_stmt 1 view .LVU856
 2746              	.LBE773:
 2747              	.LBE772:
 2748              	.LBE771:
1055:ili9341_ui_driver.hpp ****                    int16_t y,
1056:ili9341_ui_driver.hpp ****                    int16_t w,
1057:ili9341_ui_driver.hpp ****                    uint8_t color,
1058:ili9341_ui_driver.hpp ****                    uint8_t alpha = 255)
1059:ili9341_ui_driver.hpp ****     {
1060:ili9341_ui_driver.hpp ****         for(int16_t i = x; i < x + w; i++)
 2749              		.loc 8 1060 9 view .LVU857
 2750              	.LBB810:
 2751              	.LBB809:
 2752              	.LBB808:
 2753              	.LBB774:
 2754              		.loc 8 1060 30 view .LVU858
 2755              		.loc 8 1060 34 is_stmt 0 view .LVU859
 2756 0286 01FA86F6 		sxtah	r6, r1, r6
 2757              		.loc 8 1060 30 view .LVU860
 2758 028a B142     		cmp	r1, r6
 2759 028c 9BDA     		bge	.L20
 2760              	.LBB775:
 2761              	.LBB776:
 2762              	.LBB777:
 2763              	.LBB778:
 2764              	.LBB779:
 2765              	.LBB780:
 2766              	.LBB781:
 2767              	.LBB782:
 253:ili9341_ui_driver.hpp ****         // "beta" for background multiplication; (6bit+1);
 2768              		.loc 8 253 24 view .LVU861
 2769 028e 019B     		ldr	r3, [sp, #4]
 2770              	.LVL210:
 253:ili9341_ui_driver.hpp ****         // "beta" for background multiplication; (6bit+1);
 2771              		.loc 8 253 24 view .LVU862
ARM GAS  /var/folders/hl/qgbwny5j0fd895c2c41bk3tw0000gp/T//cchkzwyh.s 			page 91


 2772 0290 03F1020E 		add	lr, r3, #2
 253:ili9341_ui_driver.hpp ****         // "beta" for background multiplication; (6bit+1);
 2773              		.loc 8 253 29 view .LVU863
 2774 0294 4FEAAE0E 		asr	lr, lr, #2
 256:ili9341_ui_driver.hpp ****         // so (0..64)*alpha + (0..64)*beta always in 0..64
 2775              		.loc 8 256 17 view .LVU864
 2776 0298 CEF14008 		rsb	r8, lr, #64
 2777 029c 5FFA88F8 		uxtb	r8, r8
 2778              	.LVL211:
 2779              	.L29:
 256:ili9341_ui_driver.hpp ****         // so (0..64)*alpha + (0..64)*beta always in 0..64
 2780              		.loc 8 256 17 view .LVU865
 2781              	.LBE782:
 2782              	.LBE781:
 2783              	.LBE780:
 2784              	.LBE779:
 2785              	.LBE778:
 2786              	.LBE777:
 2787              	.LBE776:
 2788              	.LBE775:
1061:ili9341_ui_driver.hpp ****         {
1062:ili9341_ui_driver.hpp ****             DrawPixel(i, y, color, alpha);
 2789              		.loc 8 1062 13 is_stmt 1 view .LVU866
 2790              	.LBB807:
 2791              	.LBI775:
1024:ili9341_ui_driver.hpp ****                    uint_fast16_t y,
 2792              		.loc 8 1024 10 view .LVU867
 2793              	.LBB806:
1029:ili9341_ui_driver.hpp ****             return;
 2794              		.loc 8 1029 9 view .LVU868
1029:ili9341_ui_driver.hpp ****             return;
 2795              		.loc 8 1029 17 is_stmt 0 view .LVU869
 2796 02a0 B0F85430 		ldrh	r3, [r0, #84]
1029:ili9341_ui_driver.hpp ****             return;
 2797              		.loc 8 1029 9 view .LVU870
 2798 02a4 9942     		cmp	r1, r3
 2799 02a6 37D2     		bcs	.L27
1032:ili9341_ui_driver.hpp **** 
 2800              		.loc 8 1032 9 is_stmt 1 view .LVU871
1029:ili9341_ui_driver.hpp ****             return;
 2801              		.loc 8 1029 31 is_stmt 0 view .LVU872
 2802 02a8 B0F85640 		ldrh	r4, [r0, #86]
1032:ili9341_ui_driver.hpp **** 
 2803              		.loc 8 1032 26 view .LVU873
 2804 02ac 02FB0313 		mla	r3, r2, r3, r1
1029:ili9341_ui_driver.hpp ****             return;
 2805              		.loc 8 1029 23 view .LVU874
 2806 02b0 9442     		cmp	r4, r2
 2807 02b2 31D9     		bls	.L27
 2808              	.LBB803:
 2809              	.LBB800:
 2810              	.LBB795:
 2811              	.LBB791:
 210:ili9341_ui_driver.hpp ****             color         = Blend565(color, bg_color, alpha);
 2812              		.loc 8 210 13 is_stmt 1 view .LVU875
 2813              	.LBE791:
 2814              	.LBE795:
ARM GAS  /var/folders/hl/qgbwny5j0fd895c2c41bk3tw0000gp/T//cchkzwyh.s 			page 92


 2815              	.LBE800:
 2816              	.LBE803:
1032:ili9341_ui_driver.hpp **** 
 2817              		.loc 8 1032 14 is_stmt 0 view .LVU876
 2818 02b4 5D00     		lsls	r5, r3, #1
 2819              	.LBB804:
 2820              	.LBB801:
 2821              	.LBB796:
 2822              	.LBB792:
 210:ili9341_ui_driver.hpp ****             color         = Blend565(color, bg_color, alpha);
 2823              		.loc 8 210 52 view .LVU877
 2824 02b6 DFF878C0 		ldr	ip, .L69+8
 2825              	.LBE792:
 2826              	.LBE796:
 206:ili9341_ui_driver.hpp **** 
 2827              		.loc 8 206 14 view .LVU878
 2828 02ba 00EB4B04 		add	r4, r0, fp, lsl #1
 2829              	.LBB797:
 2830              	.LBB793:
 2831              	.LBB787:
 2832              	.LBB783:
 261:ili9341_ui_driver.hpp ****                            | ((alpha * (fg & MASK_G) + beta * (bg & MASK_G))
 2833              		.loc 8 261 29 view .LVU879
 2834 02be DFF86890 		ldr	r9, .L69
 2835              	.LBE783:
 2836              	.LBE787:
 2837              	.LBE793:
 2838              	.LBE797:
 2839              	.LBE801:
 2840              	.LBE804:
1032:ili9341_ui_driver.hpp **** 
 2841              		.loc 8 1032 14 view .LVU880
 2842 02c2 0095     		str	r5, [sp]
 2843              	.LVL212:
1035:ili9341_ui_driver.hpp **** 
 2844              		.loc 8 1035 9 is_stmt 1 view .LVU881
 2845              	.LBB805:
 2846              	.LBI777:
 204:ili9341_ui_driver.hpp ****     {
 2847              		.loc 8 204 10 view .LVU882
 2848              	.LBB802:
 206:ili9341_ui_driver.hpp **** 
 2849              		.loc 8 206 9 view .LVU883
 2850              	.LBB798:
 208:ili9341_ui_driver.hpp ****         {
 2851              		.loc 8 208 9 is_stmt 0 view .LVU884
 2852 02c4 019D     		ldr	r5, [sp, #4]
 2853              	.LVL213:
 208:ili9341_ui_driver.hpp ****         {
 2854              		.loc 8 208 9 view .LVU885
 2855              	.LBE798:
 206:ili9341_ui_driver.hpp **** 
 2856              		.loc 8 206 14 view .LVU886
 2857 02c6 A48B     		ldrh	r4, [r4, #28]
 2858              	.LVL214:
 208:ili9341_ui_driver.hpp ****         {
 2859              		.loc 8 208 9 is_stmt 1 view .LVU887
ARM GAS  /var/folders/hl/qgbwny5j0fd895c2c41bk3tw0000gp/T//cchkzwyh.s 			page 93


 2860              	.LBB799:
 2861 02c8 FF2D     		cmp	r5, #255
 2862 02ca 1BD0     		beq	.L28
 2863              	.LBB794:
 210:ili9341_ui_driver.hpp ****             color         = Blend565(color, bg_color, alpha);
 2864              		.loc 8 210 52 is_stmt 0 view .LVU888
 2865 02cc 1CF81350 		ldrb	r5, [ip, r3, lsl #1]	@ zero_extendqisi2
 2866              	.LBB788:
 2867              	.LBB784:
 259:ili9341_ui_driver.hpp ****                              + beta * (uint32_t)(bg & MASK_RB))
 2868              		.loc 8 259 38 view .LVU889
 2869 02d0 24F4FC6A 		bic	r10, r4, #2016
 262:ili9341_ui_driver.hpp ****                               & MASK_MUL_G))
 2870              		.loc 8 262 44 view .LVU890
 2871 02d4 04F4FC64 		and	r4, r4, #2016
 2872              	.LVL215:
 262:ili9341_ui_driver.hpp ****                               & MASK_MUL_G))
 2873              		.loc 8 262 44 view .LVU891
 2874              	.LBE784:
 2875              	.LBE788:
 210:ili9341_ui_driver.hpp ****             color         = Blend565(color, bg_color, alpha);
 2876              		.loc 8 210 18 view .LVU892
 2877 02d8 00EB4505 		add	r5, r0, r5, lsl #1
 2878              	.LBB789:
 2879              	.LBB785:
 262:ili9341_ui_driver.hpp ****                               & MASK_MUL_G))
 2880              		.loc 8 262 44 view .LVU893
 2881 02dc 2746     		mov	r7, r4
 2882              	.LBE785:
 2883              	.LBE789:
 210:ili9341_ui_driver.hpp ****             color         = Blend565(color, bg_color, alpha);
 2884              		.loc 8 210 18 view .LVU894
 2885 02de AD8B     		ldrh	r5, [r5, #28]
 2886              	.LVL216:
 211:ili9341_ui_driver.hpp ****         }
 2887              		.loc 8 211 13 is_stmt 1 view .LVU895
 2888              	.LBB790:
 2889              	.LBI781:
 248:ili9341_ui_driver.hpp ****     {
 2890              		.loc 8 248 14 view .LVU896
 2891              	.LBB786:
 253:ili9341_ui_driver.hpp ****         // "beta" for background multiplication; (6bit+1);
 2892              		.loc 8 253 9 view .LVU897
 256:ili9341_ui_driver.hpp ****         // so (0..64)*alpha + (0..64)*beta always in 0..64
 2893              		.loc 8 256 9 view .LVU898
 259:ili9341_ui_driver.hpp ****                              + beta * (uint32_t)(bg & MASK_RB))
 2894              		.loc 8 259 9 view .LVU899
 260:ili9341_ui_driver.hpp ****                             & MASK_MUL_RB)
 2895              		.loc 8 260 39 is_stmt 0 view .LVU900
 2896 02e0 25F4FC64 		bic	r4, r5, #2016
 262:ili9341_ui_driver.hpp ****                               & MASK_MUL_G))
 2897              		.loc 8 262 67 view .LVU901
 2898 02e4 05F4FC65 		and	r5, r5, #2016
 2899              	.LVL217:
 260:ili9341_ui_driver.hpp ****                             & MASK_MUL_RB)
 2900              		.loc 8 260 37 view .LVU902
 2901 02e8 08FB04F4 		mul	r4, r8, r4
ARM GAS  /var/folders/hl/qgbwny5j0fd895c2c41bk3tw0000gp/T//cchkzwyh.s 			page 94


 262:ili9341_ui_driver.hpp ****                               & MASK_MUL_G))
 2902              		.loc 8 262 61 view .LVU903
 2903 02ec 08FB05F5 		mul	r5, r8, r5
 260:ili9341_ui_driver.hpp ****                             & MASK_MUL_RB)
 2904              		.loc 8 260 30 view .LVU904
 2905 02f0 0EFB0A44 		mla	r4, lr, r10, r4
 262:ili9341_ui_driver.hpp ****                               & MASK_MUL_G))
 2906              		.loc 8 262 54 view .LVU905
 2907 02f4 0EFB0755 		mla	r5, lr, r7, r5
 261:ili9341_ui_driver.hpp ****                            | ((alpha * (fg & MASK_G) + beta * (bg & MASK_G))
 2908              		.loc 8 261 29 view .LVU906
 2909 02f8 04EA0904 		and	r4, r4, r9
 263:ili9341_ui_driver.hpp ****                           >> 6);
 2910              		.loc 8 263 31 view .LVU907
 2911 02fc 05F4FC35 		and	r5, r5, #129024
 262:ili9341_ui_driver.hpp ****                               & MASK_MUL_G))
 2912              		.loc 8 262 28 view .LVU908
 2913 0300 2C43     		orrs	r4, r4, r5
 264:ili9341_ui_driver.hpp ****     }
 2914              		.loc 8 264 31 view .LVU909
 2915 0302 A409     		lsrs	r4, r4, #6
 2916              	.LVL218:
 2917              	.L28:
 264:ili9341_ui_driver.hpp ****     }
 2918              		.loc 8 264 31 view .LVU910
 2919              	.LBE786:
 2920              	.LBE790:
 2921              	.LBE794:
 2922              	.LBE799:
 214:ili9341_ui_driver.hpp **** 
 2923              		.loc 8 214 9 is_stmt 1 view .LVU911
 216:ili9341_ui_driver.hpp ****         frame_buffer[id + 1] = color & 0xFF;
 2924              		.loc 8 216 30 is_stmt 0 view .LVU912
 2925 0304 094D     		ldr	r5, .L69+4
 217:ili9341_ui_driver.hpp ****     }
 2926              		.loc 8 217 30 view .LVU913
 2927 0306 5F00     		lsls	r7, r3, #1
 214:ili9341_ui_driver.hpp **** 
 2928              		.loc 8 214 23 view .LVU914
 2929 0308 0CF813B0 		strb	fp, [ip, r3, lsl #1]
 216:ili9341_ui_driver.hpp ****         frame_buffer[id + 1] = color & 0xFF;
 2930              		.loc 8 216 9 is_stmt 1 view .LVU915
 216:ili9341_ui_driver.hpp ****         frame_buffer[id + 1] = color & 0xFF;
 2931              		.loc 8 216 38 is_stmt 0 view .LVU916
 2932 030c 4FEA142C 		lsr	ip, r4, #8
 217:ili9341_ui_driver.hpp ****     }
 2933              		.loc 8 217 30 view .LVU917
 2934 0310 2F44     		add	r7, r7, r5
 216:ili9341_ui_driver.hpp ****         frame_buffer[id + 1] = color & 0xFF;
 2935              		.loc 8 216 30 view .LVU918
 2936 0312 05F813C0 		strb	ip, [r5, r3, lsl #1]
 217:ili9341_ui_driver.hpp ****     }
 2937              		.loc 8 217 9 is_stmt 1 view .LVU919
 217:ili9341_ui_driver.hpp ****     }
 2938              		.loc 8 217 30 is_stmt 0 view .LVU920
 2939 0316 7C70     		strb	r4, [r7, #1]
 2940              	.LVL219:
ARM GAS  /var/folders/hl/qgbwny5j0fd895c2c41bk3tw0000gp/T//cchkzwyh.s 			page 95


 2941              	.L27:
 217:ili9341_ui_driver.hpp ****     }
 2942              		.loc 8 217 30 view .LVU921
 2943              	.LBE802:
 2944              	.LBE805:
 2945              	.LBE806:
 2946              	.LBE807:
1060:ili9341_ui_driver.hpp ****         {
 2947              		.loc 8 1060 9 is_stmt 1 view .LVU922
 2948 0318 0131     		adds	r1, r1, #1
 2949              	.LVL220:
1060:ili9341_ui_driver.hpp ****         {
 2950              		.loc 8 1060 9 is_stmt 0 view .LVU923
 2951 031a 09B2     		sxth	r1, r1
 2952              	.LVL221:
1060:ili9341_ui_driver.hpp ****         {
 2953              		.loc 8 1060 30 is_stmt 1 view .LVU924
 2954 031c B142     		cmp	r1, r6
 2955 031e BFDB     		blt	.L29
 2956              	.LBE774:
 2957              	.LBE808:
 2958              	.LBE809:
 2959              	.LBE810:
 617:ili9341_ui_driver.hpp **** 
 2960              		.loc 8 617 5 is_stmt 0 view .LVU925
 2961 0320 09B0     		add	sp, sp, #36
 2962              		.cfi_def_cfa_offset 36
 2963              		@ sp needed
 2964 0322 BDE8F08F 		pop	{r4, r5, r6, r7, r8, r9, r10, fp, pc}
 2965              	.LVL222:
 2966              	.L70:
 617:ili9341_ui_driver.hpp **** 
 2967              		.loc 8 617 5 view .LVU926
 2968 0326 00BF     		.align	2
 2969              	.L69:
 2970 0328 C0073E00 		.word	4065216
 2971 032c 00000000 		.word	_ZN19ILI9341SpiTransport12frame_bufferE
 2972 0330 00000000 		.word	_ZN19ILI9341SpiTransport9color_memE
 2973              		.cfi_endproc
 2974              	.LFE2566:
 2976              		.section	.text.startup.main,"ax",%progbits
 2977              		.align	1
 2978              		.p2align 2,,3
 2979              		.global	main
 2980              		.syntax unified
 2981              		.thumb
 2982              		.thumb_func
 2983              		.fpu fpv5-d16
 2985              	main:
 2986              	.LFB2601:
 2987              		.file 10 "TFT_TEST.cpp"
   1:TFT_TEST.cpp  **** #include "daisy_patch_sm.h"
   2:TFT_TEST.cpp  **** #include "ili9341_ui_driver.cpp"
   3:TFT_TEST.cpp  **** 
   4:TFT_TEST.cpp  **** using namespace daisy;
   5:TFT_TEST.cpp  **** using namespace patch_sm;
   6:TFT_TEST.cpp  **** 
ARM GAS  /var/folders/hl/qgbwny5j0fd895c2c41bk3tw0000gp/T//cchkzwyh.s 			page 96


   7:TFT_TEST.cpp  **** DaisyPatchSM hw;
   8:TFT_TEST.cpp  **** UiDriver driver;
   9:TFT_TEST.cpp  **** 
  10:TFT_TEST.cpp  **** int main(void)
  11:TFT_TEST.cpp  **** {
 2988              		.loc 10 11 1 is_stmt 1 view -0
 2989              		.cfi_startproc
 2990              		@ Volatile: function does not return.
 2991              		@ args = 0, pretend = 0, frame = 16
 2992              		@ frame_needed = 0, uses_anonymous_args = 0
  12:TFT_TEST.cpp  ****   hw.Init();
 2993              		.loc 10 12 3 view .LVU928
  11:TFT_TEST.cpp  ****   hw.Init();
 2994              		.loc 10 11 1 is_stmt 0 view .LVU929
 2995 0000 80B5     		push	{r7, lr}
 2996              		.cfi_def_cfa_offset 8
 2997              		.cfi_offset 7, -8
 2998              		.cfi_offset 14, -4
 2999              		.loc 10 12 10 view .LVU930
 3000 0002 7148     		ldr	r0, .L81
  11:TFT_TEST.cpp  ****   hw.Init();
 3001              		.loc 10 11 1 view .LVU931
 3002 0004 88B0     		sub	sp, sp, #32
 3003              		.cfi_def_cfa_offset 40
 3004              	.LBB886:
 3005              	.LBB887:
 328:ili9341_ui_driver.hpp ****         screen_update_last_   = System::GetNow();
 3006              		.loc 8 328 31 view .LVU932
 3007 0006 714F     		ldr	r7, .L81+4
 3008              	.LBE887:
 3009              	.LBE886:
 3010              		.loc 10 12 10 view .LVU933
 3011 0008 FFF7FEFF 		bl	_ZN5daisy8patch_sm12DaisyPatchSM4InitEv
 3012              	.LVL223:
  13:TFT_TEST.cpp  ****   driver.Init();
 3013              		.loc 10 13 3 is_stmt 1 view .LVU934
 3014              	.LBB889:
 3015              	.LBI886:
 326:ili9341_ui_driver.hpp ****     {
 3016              		.loc 8 326 10 view .LVU935
 3017              	.LBB888:
 328:ili9341_ui_driver.hpp ****         screen_update_last_   = System::GetNow();
 3018              		.loc 8 328 9 view .LVU936
 328:ili9341_ui_driver.hpp ****         screen_update_last_   = System::GetNow();
 3019              		.loc 8 328 31 is_stmt 0 view .LVU937
 3020 000c 1123     		movs	r3, #17
 3021 000e 704C     		ldr	r4, .L81+8
 3022 0010 7B60     		str	r3, [r7, #4]
 329:ili9341_ui_driver.hpp **** 
 3023              		.loc 8 329 9 is_stmt 1 view .LVU938
 329:ili9341_ui_driver.hpp **** 
 3024              		.loc 8 329 47 is_stmt 0 view .LVU939
 3025 0012 FFF7FEFF 		bl	_ZN5daisy6System6GetNowEv
 3026              	.LVL224:
 3027 0016 0346     		mov	r3, r0
 331:ili9341_ui_driver.hpp ****     }
 3028              		.loc 8 331 19 view .LVU940
ARM GAS  /var/folders/hl/qgbwny5j0fd895c2c41bk3tw0000gp/T//cchkzwyh.s 			page 97


 3029 0018 3846     		mov	r0, r7
 329:ili9341_ui_driver.hpp **** 
 3030              		.loc 8 329 31 view .LVU941
 3031 001a 3B60     		str	r3, [r7]
 331:ili9341_ui_driver.hpp ****     }
 3032              		.loc 8 331 9 is_stmt 1 view .LVU942
 331:ili9341_ui_driver.hpp ****     }
 3033              		.loc 8 331 19 is_stmt 0 view .LVU943
 3034 001c FFF7FEFF 		bl	_ZN8UiDriver10InitDriverEv
 3035              	.LVL225:
 331:ili9341_ui_driver.hpp ****     }
 3036              		.loc 8 331 19 view .LVU944
 3037              	.LBE888:
 3038              	.LBE889:
 3039              	.LBB890:
 3040              	.LBB891:
 571:ili9341_ui_driver.hpp ****         {
 3041              		.loc 8 571 29 is_stmt 1 view .LVU945
 3042              	.LBB892:
 3043              	.LBB893:
 206:ili9341_ui_driver.hpp **** 
 3044              		.loc 8 206 14 is_stmt 0 view .LVU946
 3045 0020 B88B     		ldrh	r0, [r7, #28]
 3046              	.LBE893:
 3047              	.LBE892:
 571:ili9341_ui_driver.hpp ****         {
 3048              		.loc 8 571 20 view .LVU947
 3049 0022 0023     		movs	r3, #0
 3050 0024 6B49     		ldr	r1, .L81+12
 3051              	.LBB896:
 3052              	.LBB894:
 216:ili9341_ui_driver.hpp ****         frame_buffer[id + 1] = color & 0xFF;
 3053              		.loc 8 216 30 view .LVU948
 3054 0026 060A     		lsrs	r6, r0, #8
 3055 0028 4D1C     		adds	r5, r1, #1
 217:ili9341_ui_driver.hpp ****     }
 3056              		.loc 8 217 30 view .LVU949
 3057 002a C0B2     		uxtb	r0, r0
 3058              	.LVL226:
 3059              	.L72:
 217:ili9341_ui_driver.hpp ****     }
 3060              		.loc 8 217 30 view .LVU950
 3061              	.LBE894:
 3062              	.LBE896:
 573:ili9341_ui_driver.hpp ****         }
 3063              		.loc 8 573 13 is_stmt 1 view .LVU951
 3064              	.LBB897:
 3065              	.LBI892:
 204:ili9341_ui_driver.hpp ****     {
 3066              		.loc 8 204 10 view .LVU952
 3067              	.LBB895:
 206:ili9341_ui_driver.hpp **** 
 3068              		.loc 8 206 9 view .LVU953
 208:ili9341_ui_driver.hpp ****         {
 3069              		.loc 8 208 9 view .LVU954
 214:ili9341_ui_driver.hpp **** 
 3070              		.loc 8 214 9 view .LVU955
ARM GAS  /var/folders/hl/qgbwny5j0fd895c2c41bk3tw0000gp/T//cchkzwyh.s 			page 98


 214:ili9341_ui_driver.hpp **** 
 3071              		.loc 8 214 23 is_stmt 0 view .LVU956
 3072 002c 0022     		movs	r2, #0
 216:ili9341_ui_driver.hpp ****         frame_buffer[id + 1] = color & 0xFF;
 3073              		.loc 8 216 30 view .LVU957
 3074 002e 01F81360 		strb	r6, [r1, r3, lsl #1]
 217:ili9341_ui_driver.hpp ****     }
 3075              		.loc 8 217 30 view .LVU958
 3076 0032 05F81300 		strb	r0, [r5, r3, lsl #1]
 214:ili9341_ui_driver.hpp **** 
 3077              		.loc 8 214 23 view .LVU959
 3078 0036 04F81320 		strb	r2, [r4, r3, lsl #1]
 216:ili9341_ui_driver.hpp ****         frame_buffer[id + 1] = color & 0xFF;
 3079              		.loc 8 216 9 is_stmt 1 view .LVU960
 217:ili9341_ui_driver.hpp ****     }
 3080              		.loc 8 217 9 view .LVU961
 3081              	.LVL227:
 217:ili9341_ui_driver.hpp ****     }
 3082              		.loc 8 217 9 is_stmt 0 view .LVU962
 3083              	.LBE895:
 3084              	.LBE897:
 571:ili9341_ui_driver.hpp ****         {
 3085              		.loc 8 571 9 is_stmt 1 view .LVU963
 3086 003a 0133     		adds	r3, r3, #1
 3087              	.LVL228:
 571:ili9341_ui_driver.hpp ****         {
 3088              		.loc 8 571 29 view .LVU964
 3089 003c B3F5963F 		cmp	r3, #76800
 3090 0040 F4D1     		bne	.L72
 3091              	.LVL229:
 571:ili9341_ui_driver.hpp ****         {
 3092              		.loc 8 571 29 is_stmt 0 view .LVU965
 3093              	.LBE891:
 3094              	.LBE890:
  14:TFT_TEST.cpp  ****   
  15:TFT_TEST.cpp  ****   // Here all the drawing happening in the memory buffer, so no drawing happening at this point. 
  16:TFT_TEST.cpp  ****   driver.Fill(COLOR_BLACK);
  17:TFT_TEST.cpp  ****   driver.FillRect(Rectangle(100, 100, 50, 50), COLOR_RED);
 3095              		.loc 10 17 3 is_stmt 1 view .LVU966
 3096              	.LBB898:
 3097              	.LBI898:
 3098              		.file 11 "../../libDaisy//src/hid/disp/graphics_common.h"
   1:../../libDaisy//src/hid/disp/graphics_common.h **** #pragma once
   2:../../libDaisy//src/hid/disp/graphics_common.h **** 
   3:../../libDaisy//src/hid/disp/graphics_common.h **** #include <cstdint>
   4:../../libDaisy//src/hid/disp/graphics_common.h **** 
   5:../../libDaisy//src/hid/disp/graphics_common.h **** namespace daisy
   6:../../libDaisy//src/hid/disp/graphics_common.h **** {
   7:../../libDaisy//src/hid/disp/graphics_common.h **** /** Justifications */
   8:../../libDaisy//src/hid/disp/graphics_common.h **** enum class Alignment
   9:../../libDaisy//src/hid/disp/graphics_common.h **** {
  10:../../libDaisy//src/hid/disp/graphics_common.h ****     centered,
  11:../../libDaisy//src/hid/disp/graphics_common.h ****     topLeft,
  12:../../libDaisy//src/hid/disp/graphics_common.h ****     topCentered,
  13:../../libDaisy//src/hid/disp/graphics_common.h ****     topRight,
  14:../../libDaisy//src/hid/disp/graphics_common.h ****     bottomLeft,
  15:../../libDaisy//src/hid/disp/graphics_common.h ****     bottomCentered,
ARM GAS  /var/folders/hl/qgbwny5j0fd895c2c41bk3tw0000gp/T//cchkzwyh.s 			page 99


  16:../../libDaisy//src/hid/disp/graphics_common.h ****     bottomRight,
  17:../../libDaisy//src/hid/disp/graphics_common.h ****     centeredLeft,
  18:../../libDaisy//src/hid/disp/graphics_common.h ****     centeredRight
  19:../../libDaisy//src/hid/disp/graphics_common.h **** };
  20:../../libDaisy//src/hid/disp/graphics_common.h **** 
  21:../../libDaisy//src/hid/disp/graphics_common.h **** class Rectangle
  22:../../libDaisy//src/hid/disp/graphics_common.h **** {
  23:../../libDaisy//src/hid/disp/graphics_common.h ****   public:
  24:../../libDaisy//src/hid/disp/graphics_common.h ****     Rectangle() : x_(0), y_(0), width_(0), height_(0) {}
  25:../../libDaisy//src/hid/disp/graphics_common.h **** 
  26:../../libDaisy//src/hid/disp/graphics_common.h ****     Rectangle(int16_t width, int16_t height)
  27:../../libDaisy//src/hid/disp/graphics_common.h ****     : x_(0), y_(0), width_(max(0, width)), height_(max(0, height))
  28:../../libDaisy//src/hid/disp/graphics_common.h ****     {
  29:../../libDaisy//src/hid/disp/graphics_common.h ****     }
  30:../../libDaisy//src/hid/disp/graphics_common.h **** 
  31:../../libDaisy//src/hid/disp/graphics_common.h ****     Rectangle(int16_t x, int16_t y, int16_t width, int16_t height)
 3099              		.loc 11 31 5 view .LVU967
 3100              	.LBB899:
 3101              	.LBI899:
  32:../../libDaisy//src/hid/disp/graphics_common.h ****     : x_(x), y_(y), width_(max(0, width)), height_(max(0, height))
  33:../../libDaisy//src/hid/disp/graphics_common.h ****     {
  34:../../libDaisy//src/hid/disp/graphics_common.h ****     }
  35:../../libDaisy//src/hid/disp/graphics_common.h **** 
  36:../../libDaisy//src/hid/disp/graphics_common.h ****     Rectangle(const Rectangle& other) { *this = other; }
  37:../../libDaisy//src/hid/disp/graphics_common.h **** 
  38:../../libDaisy//src/hid/disp/graphics_common.h ****     Rectangle& operator=(const Rectangle& other)
  39:../../libDaisy//src/hid/disp/graphics_common.h ****     {
  40:../../libDaisy//src/hid/disp/graphics_common.h ****         x_      = other.x_;
  41:../../libDaisy//src/hid/disp/graphics_common.h ****         y_      = other.y_;
  42:../../libDaisy//src/hid/disp/graphics_common.h ****         width_  = other.width_;
  43:../../libDaisy//src/hid/disp/graphics_common.h ****         height_ = other.height_;
  44:../../libDaisy//src/hid/disp/graphics_common.h ****         return *this;
  45:../../libDaisy//src/hid/disp/graphics_common.h ****     }
  46:../../libDaisy//src/hid/disp/graphics_common.h **** 
  47:../../libDaisy//src/hid/disp/graphics_common.h ****     bool operator==(const Rectangle& other) const
  48:../../libDaisy//src/hid/disp/graphics_common.h ****     {
  49:../../libDaisy//src/hid/disp/graphics_common.h ****         return (x_ == other.x_) && (y_ == other.y_) && (width_ == other.width_)
  50:../../libDaisy//src/hid/disp/graphics_common.h ****                && (height_ == other.height_);
  51:../../libDaisy//src/hid/disp/graphics_common.h ****     }
  52:../../libDaisy//src/hid/disp/graphics_common.h ****     bool operator!=(const Rectangle& other) const { return !(*this == other); }
  53:../../libDaisy//src/hid/disp/graphics_common.h **** 
  54:../../libDaisy//src/hid/disp/graphics_common.h ****     bool IsEmpty() const { return (width_ <= 0) || (height_ <= 0); }
  55:../../libDaisy//src/hid/disp/graphics_common.h **** 
  56:../../libDaisy//src/hid/disp/graphics_common.h ****     int16_t GetX() const { return x_; }
  57:../../libDaisy//src/hid/disp/graphics_common.h ****     int16_t GetY() const { return y_; }
  58:../../libDaisy//src/hid/disp/graphics_common.h ****     int16_t GetWidth() const { return width_; }
  59:../../libDaisy//src/hid/disp/graphics_common.h ****     int16_t GetHeight() const { return height_; }
  60:../../libDaisy//src/hid/disp/graphics_common.h ****     int16_t GetRight() const { return x_ + width_; }
  61:../../libDaisy//src/hid/disp/graphics_common.h ****     int16_t GetBottom() const { return y_ + height_; }
  62:../../libDaisy//src/hid/disp/graphics_common.h ****     int16_t GetCenterX() const { return x_ + width_ / 2; }
  63:../../libDaisy//src/hid/disp/graphics_common.h ****     int16_t GetCenterY() const { return y_ + height_ / 2; }
  64:../../libDaisy//src/hid/disp/graphics_common.h **** 
  65:../../libDaisy//src/hid/disp/graphics_common.h ****     Rectangle WithX(int16_t x) const { return {x, y_, width_, height_}; }
  66:../../libDaisy//src/hid/disp/graphics_common.h ****     Rectangle WithY(int16_t y) const { return {x_, y, width_, height_}; }
  67:../../libDaisy//src/hid/disp/graphics_common.h ****     Rectangle WithWidth(int16_t width) const
  68:../../libDaisy//src/hid/disp/graphics_common.h ****     {
  69:../../libDaisy//src/hid/disp/graphics_common.h ****         return {x_, y_, width, height_};
ARM GAS  /var/folders/hl/qgbwny5j0fd895c2c41bk3tw0000gp/T//cchkzwyh.s 			page 100


  70:../../libDaisy//src/hid/disp/graphics_common.h ****     }
  71:../../libDaisy//src/hid/disp/graphics_common.h ****     Rectangle WithHeight(int16_t height) const
  72:../../libDaisy//src/hid/disp/graphics_common.h ****     {
  73:../../libDaisy//src/hid/disp/graphics_common.h ****         return {x_, y_, width_, height};
  74:../../libDaisy//src/hid/disp/graphics_common.h ****     }
  75:../../libDaisy//src/hid/disp/graphics_common.h ****     Rectangle WithSize(int16_t width, int16_t height) const
  76:../../libDaisy//src/hid/disp/graphics_common.h ****     {
  77:../../libDaisy//src/hid/disp/graphics_common.h ****         return {x_, y_, width, height};
  78:../../libDaisy//src/hid/disp/graphics_common.h ****     }
  79:../../libDaisy//src/hid/disp/graphics_common.h ****     Rectangle WithWidthKeepingCenter(int16_t width) const
  80:../../libDaisy//src/hid/disp/graphics_common.h ****     {
  81:../../libDaisy//src/hid/disp/graphics_common.h ****         return Rectangle(x_, y_, width, height_)
  82:../../libDaisy//src/hid/disp/graphics_common.h ****             .WithCenter(GetCenterX(), GetCenterY());
  83:../../libDaisy//src/hid/disp/graphics_common.h ****     }
  84:../../libDaisy//src/hid/disp/graphics_common.h ****     Rectangle WithHeightKeepingCenter(int16_t height) const
  85:../../libDaisy//src/hid/disp/graphics_common.h ****     {
  86:../../libDaisy//src/hid/disp/graphics_common.h ****         return Rectangle(x_, y_, width_, height)
  87:../../libDaisy//src/hid/disp/graphics_common.h ****             .WithCenter(GetCenterX(), GetCenterY());
  88:../../libDaisy//src/hid/disp/graphics_common.h ****     }
  89:../../libDaisy//src/hid/disp/graphics_common.h ****     Rectangle WithSizeKeepingCenter(int16_t width, int16_t height) const
  90:../../libDaisy//src/hid/disp/graphics_common.h ****     {
  91:../../libDaisy//src/hid/disp/graphics_common.h ****         return Rectangle(x_, y_, width, height)
  92:../../libDaisy//src/hid/disp/graphics_common.h ****             .WithCenter(GetCenterX(), GetCenterY());
  93:../../libDaisy//src/hid/disp/graphics_common.h ****     }
  94:../../libDaisy//src/hid/disp/graphics_common.h **** 
  95:../../libDaisy//src/hid/disp/graphics_common.h ****     Rectangle Reduced(int16_t sizeToReduce) const
  96:../../libDaisy//src/hid/disp/graphics_common.h ****     {
  97:../../libDaisy//src/hid/disp/graphics_common.h ****         return {int16_t(x_ + sizeToReduce),
  98:../../libDaisy//src/hid/disp/graphics_common.h ****                 int16_t(y_ + sizeToReduce),
  99:../../libDaisy//src/hid/disp/graphics_common.h ****                 int16_t(width_ - 2 * sizeToReduce),
 100:../../libDaisy//src/hid/disp/graphics_common.h ****                 int16_t(height_ - 2 * sizeToReduce)};
 101:../../libDaisy//src/hid/disp/graphics_common.h ****     }
 102:../../libDaisy//src/hid/disp/graphics_common.h ****     Rectangle Reduced(int16_t xToReduce, int16_t yToReduce) const
 103:../../libDaisy//src/hid/disp/graphics_common.h ****     {
 104:../../libDaisy//src/hid/disp/graphics_common.h ****         return {int16_t(x_ + xToReduce),
 105:../../libDaisy//src/hid/disp/graphics_common.h ****                 int16_t(y_ + yToReduce),
 106:../../libDaisy//src/hid/disp/graphics_common.h ****                 int16_t(width_ - 2 * xToReduce),
 107:../../libDaisy//src/hid/disp/graphics_common.h ****                 int16_t(height_ - 2 * yToReduce)};
 108:../../libDaisy//src/hid/disp/graphics_common.h ****     }
 109:../../libDaisy//src/hid/disp/graphics_common.h **** 
 110:../../libDaisy//src/hid/disp/graphics_common.h ****     Rectangle Translated(int16_t x, int16_t y) const
 111:../../libDaisy//src/hid/disp/graphics_common.h ****     {
 112:../../libDaisy//src/hid/disp/graphics_common.h ****         return {int16_t(x_ + x), int16_t(y_ + y), width_, height_};
 113:../../libDaisy//src/hid/disp/graphics_common.h ****     }
 114:../../libDaisy//src/hid/disp/graphics_common.h **** 
 115:../../libDaisy//src/hid/disp/graphics_common.h ****     Rectangle WithLeft(int16_t left) const
 116:../../libDaisy//src/hid/disp/graphics_common.h ****     {
 117:../../libDaisy//src/hid/disp/graphics_common.h ****         const auto newWidth = int16_t((x_ - left) + width_);
 118:../../libDaisy//src/hid/disp/graphics_common.h ****         return {left, y_, newWidth, height_};
 119:../../libDaisy//src/hid/disp/graphics_common.h ****     }
 120:../../libDaisy//src/hid/disp/graphics_common.h **** 
 121:../../libDaisy//src/hid/disp/graphics_common.h ****     Rectangle WithRight(int16_t right) const
 122:../../libDaisy//src/hid/disp/graphics_common.h ****     {
 123:../../libDaisy//src/hid/disp/graphics_common.h ****         const auto newWidth = int16_t(right - x_);
 124:../../libDaisy//src/hid/disp/graphics_common.h ****         return {x_, y_, newWidth, height_};
 125:../../libDaisy//src/hid/disp/graphics_common.h ****     }
 126:../../libDaisy//src/hid/disp/graphics_common.h **** 
ARM GAS  /var/folders/hl/qgbwny5j0fd895c2c41bk3tw0000gp/T//cchkzwyh.s 			page 101


 127:../../libDaisy//src/hid/disp/graphics_common.h ****     Rectangle WithTop(int16_t top) const
 128:../../libDaisy//src/hid/disp/graphics_common.h ****     {
 129:../../libDaisy//src/hid/disp/graphics_common.h ****         const auto newHeight = int16_t((y_ - top) + height_);
 130:../../libDaisy//src/hid/disp/graphics_common.h ****         return {x_, top, width_, newHeight};
 131:../../libDaisy//src/hid/disp/graphics_common.h ****     }
 132:../../libDaisy//src/hid/disp/graphics_common.h **** 
 133:../../libDaisy//src/hid/disp/graphics_common.h ****     Rectangle WithBottom(int16_t bottom) const
 134:../../libDaisy//src/hid/disp/graphics_common.h ****     {
 135:../../libDaisy//src/hid/disp/graphics_common.h ****         const auto newHeight = int16_t(bottom - y_);
 136:../../libDaisy//src/hid/disp/graphics_common.h ****         return {x_, y_, width_, newHeight};
 137:../../libDaisy//src/hid/disp/graphics_common.h ****     }
 138:../../libDaisy//src/hid/disp/graphics_common.h **** 
 139:../../libDaisy//src/hid/disp/graphics_common.h ****     Rectangle WithTrimmedLeft(int16_t pxToTrim) const
 140:../../libDaisy//src/hid/disp/graphics_common.h ****     {
 141:../../libDaisy//src/hid/disp/graphics_common.h ****         return {
 142:../../libDaisy//src/hid/disp/graphics_common.h ****             int16_t(x_ + pxToTrim), y_, int16_t(width_ - pxToTrim), height_};
 143:../../libDaisy//src/hid/disp/graphics_common.h ****     }
 144:../../libDaisy//src/hid/disp/graphics_common.h **** 
 145:../../libDaisy//src/hid/disp/graphics_common.h ****     Rectangle WithTrimmedRight(int16_t pxToTrim) const
 146:../../libDaisy//src/hid/disp/graphics_common.h ****     {
 147:../../libDaisy//src/hid/disp/graphics_common.h ****         return {x_, y_, int16_t(width_ - pxToTrim), height_};
 148:../../libDaisy//src/hid/disp/graphics_common.h ****     }
 149:../../libDaisy//src/hid/disp/graphics_common.h **** 
 150:../../libDaisy//src/hid/disp/graphics_common.h ****     Rectangle WithTrimmedTop(int16_t pxToTrim) const
 151:../../libDaisy//src/hid/disp/graphics_common.h ****     {
 152:../../libDaisy//src/hid/disp/graphics_common.h ****         return {
 153:../../libDaisy//src/hid/disp/graphics_common.h ****             x_, int16_t(y_ + pxToTrim), width_, int16_t(height_ - pxToTrim)};
 154:../../libDaisy//src/hid/disp/graphics_common.h ****     }
 155:../../libDaisy//src/hid/disp/graphics_common.h **** 
 156:../../libDaisy//src/hid/disp/graphics_common.h ****     Rectangle WithTrimmedBottom(int16_t pxToTrim) const
 157:../../libDaisy//src/hid/disp/graphics_common.h ****     {
 158:../../libDaisy//src/hid/disp/graphics_common.h ****         return {x_, y_, width_, int16_t(height_ - pxToTrim)};
 159:../../libDaisy//src/hid/disp/graphics_common.h ****     }
 160:../../libDaisy//src/hid/disp/graphics_common.h **** 
 161:../../libDaisy//src/hid/disp/graphics_common.h ****     Rectangle WithCenterX(int16_t centerX) const
 162:../../libDaisy//src/hid/disp/graphics_common.h ****     {
 163:../../libDaisy//src/hid/disp/graphics_common.h ****         return {int16_t(x_ + centerX - GetCenterX()), y_, width_, height_};
 164:../../libDaisy//src/hid/disp/graphics_common.h ****     }
 165:../../libDaisy//src/hid/disp/graphics_common.h **** 
 166:../../libDaisy//src/hid/disp/graphics_common.h ****     Rectangle WithCenterY(int16_t centerY) const
 167:../../libDaisy//src/hid/disp/graphics_common.h ****     {
 168:../../libDaisy//src/hid/disp/graphics_common.h ****         return {x_, int16_t(y_ + centerY - GetCenterY()), width_, height_};
 169:../../libDaisy//src/hid/disp/graphics_common.h ****     }
 170:../../libDaisy//src/hid/disp/graphics_common.h **** 
 171:../../libDaisy//src/hid/disp/graphics_common.h ****     Rectangle WithCenter(int16_t centerX, int16_t centerY) const
 172:../../libDaisy//src/hid/disp/graphics_common.h ****     {
 173:../../libDaisy//src/hid/disp/graphics_common.h ****         return {int16_t(x_ + centerX - GetCenterX()),
 174:../../libDaisy//src/hid/disp/graphics_common.h ****                 int16_t(y_ + centerY - GetCenterY()),
 175:../../libDaisy//src/hid/disp/graphics_common.h ****                 width_,
 176:../../libDaisy//src/hid/disp/graphics_common.h ****                 height_};
 177:../../libDaisy//src/hid/disp/graphics_common.h ****     }
 178:../../libDaisy//src/hid/disp/graphics_common.h **** 
 179:../../libDaisy//src/hid/disp/graphics_common.h ****     Rectangle RemoveFromLeft(int16_t pxToRemove)
 180:../../libDaisy//src/hid/disp/graphics_common.h ****     {
 181:../../libDaisy//src/hid/disp/graphics_common.h ****         const auto result = this->WithWidth(min(pxToRemove, width_));
 182:../../libDaisy//src/hid/disp/graphics_common.h ****         x_ += min(pxToRemove, width_);
 183:../../libDaisy//src/hid/disp/graphics_common.h ****         width_ = max(int16_t(width_ - pxToRemove), 0);
ARM GAS  /var/folders/hl/qgbwny5j0fd895c2c41bk3tw0000gp/T//cchkzwyh.s 			page 102


 184:../../libDaisy//src/hid/disp/graphics_common.h ****         return result;
 185:../../libDaisy//src/hid/disp/graphics_common.h ****     }
 186:../../libDaisy//src/hid/disp/graphics_common.h **** 
 187:../../libDaisy//src/hid/disp/graphics_common.h ****     Rectangle RemoveFromRight(int16_t pxToRemove)
 188:../../libDaisy//src/hid/disp/graphics_common.h ****     {
 189:../../libDaisy//src/hid/disp/graphics_common.h ****         const auto canRemove = min(pxToRemove, width_);
 190:../../libDaisy//src/hid/disp/graphics_common.h ****         width_ -= canRemove;
 191:../../libDaisy//src/hid/disp/graphics_common.h ****         return {int16_t(x_ + width_), y_, canRemove, height_};
 192:../../libDaisy//src/hid/disp/graphics_common.h ****     }
 193:../../libDaisy//src/hid/disp/graphics_common.h **** 
 194:../../libDaisy//src/hid/disp/graphics_common.h ****     Rectangle RemoveFromTop(int16_t pxToRemove)
 195:../../libDaisy//src/hid/disp/graphics_common.h ****     {
 196:../../libDaisy//src/hid/disp/graphics_common.h ****         const auto result = this->WithHeight(min(pxToRemove, height_));
 197:../../libDaisy//src/hid/disp/graphics_common.h ****         y_ += min(pxToRemove, height_);
 198:../../libDaisy//src/hid/disp/graphics_common.h ****         height_ = max(height_ - pxToRemove, 0);
 199:../../libDaisy//src/hid/disp/graphics_common.h ****         return result;
 200:../../libDaisy//src/hid/disp/graphics_common.h ****     }
 201:../../libDaisy//src/hid/disp/graphics_common.h **** 
 202:../../libDaisy//src/hid/disp/graphics_common.h ****     Rectangle RemoveFromBottom(int16_t pxToRemove)
 203:../../libDaisy//src/hid/disp/graphics_common.h ****     {
 204:../../libDaisy//src/hid/disp/graphics_common.h ****         const auto canRemove = min(pxToRemove, height_);
 205:../../libDaisy//src/hid/disp/graphics_common.h ****         height_ -= canRemove;
 206:../../libDaisy//src/hid/disp/graphics_common.h ****         return {x_, int16_t(y_ + height_), width_, canRemove};
 207:../../libDaisy//src/hid/disp/graphics_common.h ****     }
 208:../../libDaisy//src/hid/disp/graphics_common.h **** 
 209:../../libDaisy//src/hid/disp/graphics_common.h ****     Rectangle AlignedWithin(const Rectangle& other, Alignment alignment) const
 210:../../libDaisy//src/hid/disp/graphics_common.h ****     {
 211:../../libDaisy//src/hid/disp/graphics_common.h ****         switch(alignment)
 212:../../libDaisy//src/hid/disp/graphics_common.h ****         {
 213:../../libDaisy//src/hid/disp/graphics_common.h ****             case Alignment::topLeft:
 214:../../libDaisy//src/hid/disp/graphics_common.h ****                 return {other.x_, other.y_, width_, height_};
 215:../../libDaisy//src/hid/disp/graphics_common.h ****             case Alignment::topRight:
 216:../../libDaisy//src/hid/disp/graphics_common.h ****                 return {int16_t(other.GetRight() - width_),
 217:../../libDaisy//src/hid/disp/graphics_common.h ****                         other.y_,
 218:../../libDaisy//src/hid/disp/graphics_common.h ****                         width_,
 219:../../libDaisy//src/hid/disp/graphics_common.h ****                         height_};
 220:../../libDaisy//src/hid/disp/graphics_common.h ****             case Alignment::topCentered:
 221:../../libDaisy//src/hid/disp/graphics_common.h ****                 return {int16_t(x_ + (other.GetCenterX() - GetCenterX())),
 222:../../libDaisy//src/hid/disp/graphics_common.h ****                         other.y_,
 223:../../libDaisy//src/hid/disp/graphics_common.h ****                         width_,
 224:../../libDaisy//src/hid/disp/graphics_common.h ****                         height_};
 225:../../libDaisy//src/hid/disp/graphics_common.h ****             case Alignment::bottomLeft:
 226:../../libDaisy//src/hid/disp/graphics_common.h ****                 return {other.x_,
 227:../../libDaisy//src/hid/disp/graphics_common.h ****                         int16_t(other.GetBottom() - height_),
 228:../../libDaisy//src/hid/disp/graphics_common.h ****                         width_,
 229:../../libDaisy//src/hid/disp/graphics_common.h ****                         height_};
 230:../../libDaisy//src/hid/disp/graphics_common.h ****             case Alignment::bottomRight:
 231:../../libDaisy//src/hid/disp/graphics_common.h ****                 return {int16_t(other.GetRight() - width_),
 232:../../libDaisy//src/hid/disp/graphics_common.h ****                         int16_t(other.GetBottom() - height_),
 233:../../libDaisy//src/hid/disp/graphics_common.h ****                         width_,
 234:../../libDaisy//src/hid/disp/graphics_common.h ****                         height_};
 235:../../libDaisy//src/hid/disp/graphics_common.h ****             case Alignment::bottomCentered:
 236:../../libDaisy//src/hid/disp/graphics_common.h ****                 return {int16_t(x_ + (other.GetCenterX() - GetCenterX())),
 237:../../libDaisy//src/hid/disp/graphics_common.h ****                         int16_t(other.GetBottom() - height_),
 238:../../libDaisy//src/hid/disp/graphics_common.h ****                         width_,
 239:../../libDaisy//src/hid/disp/graphics_common.h ****                         height_};
 240:../../libDaisy//src/hid/disp/graphics_common.h ****             case Alignment::centeredLeft:
ARM GAS  /var/folders/hl/qgbwny5j0fd895c2c41bk3tw0000gp/T//cchkzwyh.s 			page 103


 241:../../libDaisy//src/hid/disp/graphics_common.h ****                 return {other.x_,
 242:../../libDaisy//src/hid/disp/graphics_common.h ****                         int16_t(y_ + (other.GetCenterY() - GetCenterY())),
 243:../../libDaisy//src/hid/disp/graphics_common.h ****                         width_,
 244:../../libDaisy//src/hid/disp/graphics_common.h ****                         height_};
 245:../../libDaisy//src/hid/disp/graphics_common.h ****             case Alignment::centeredRight:
 246:../../libDaisy//src/hid/disp/graphics_common.h ****                 return {int16_t(other.GetRight() - width_),
 247:../../libDaisy//src/hid/disp/graphics_common.h ****                         int16_t(y_ + (other.GetCenterY() - GetCenterY())),
 248:../../libDaisy//src/hid/disp/graphics_common.h ****                         width_,
 249:../../libDaisy//src/hid/disp/graphics_common.h ****                         height_};
 250:../../libDaisy//src/hid/disp/graphics_common.h ****             case Alignment::centered:
 251:../../libDaisy//src/hid/disp/graphics_common.h ****                 return {int16_t(x_ + (other.GetCenterX() - GetCenterX())),
 252:../../libDaisy//src/hid/disp/graphics_common.h ****                         int16_t(y_ + (other.GetCenterY() - GetCenterY())),
 253:../../libDaisy//src/hid/disp/graphics_common.h ****                         width_,
 254:../../libDaisy//src/hid/disp/graphics_common.h ****                         height_};
 255:../../libDaisy//src/hid/disp/graphics_common.h ****             default: return {};
 256:../../libDaisy//src/hid/disp/graphics_common.h ****         }
 257:../../libDaisy//src/hid/disp/graphics_common.h ****     }
 258:../../libDaisy//src/hid/disp/graphics_common.h **** 
 259:../../libDaisy//src/hid/disp/graphics_common.h ****   private:
 260:../../libDaisy//src/hid/disp/graphics_common.h ****     int16_t x_, y_, width_, height_;
 261:../../libDaisy//src/hid/disp/graphics_common.h ****     int16_t max(int16_t a, int16_t b) { return (a > b) ? a : b; }
 3102              		.loc 11 261 13 view .LVU968
 3103              	.LBE899:
 3104              	.LBE898:
 3105              		.loc 11 261 41 view .LVU969
 3106              	.LBB901:
 3107              	.LBB900:
 3108              	.LBI900:
 3109              		.loc 11 261 13 view .LVU970
 3110              	.LBE900:
 3111              	.LBE901:
 3112              		.loc 11 261 41 view .LVU971
 3113              	.LBB902:
 3114              	.LBI902:
 661:ili9341_ui_driver.hpp ****     {
 3115              		.loc 8 661 10 view .LVU972
 661:ili9341_ui_driver.hpp ****     {
 3116              		.loc 8 661 10 is_stmt 0 view .LVU973
 3117              	.LBE902:
 663:ili9341_ui_driver.hpp ****                  rect.GetY(),
 3118              		.loc 8 663 9 is_stmt 1 view .LVU974
  56:../../libDaisy//src/hid/disp/graphics_common.h ****     int16_t GetY() const { return y_; }
 3119              		.loc 11 56 28 view .LVU975
  57:../../libDaisy//src/hid/disp/graphics_common.h ****     int16_t GetWidth() const { return width_; }
 3120              		.loc 11 57 28 view .LVU976
  58:../../libDaisy//src/hid/disp/graphics_common.h ****     int16_t GetHeight() const { return height_; }
 3121              		.loc 11 58 32 view .LVU977
  59:../../libDaisy//src/hid/disp/graphics_common.h ****     int16_t GetRight() const { return x_ + width_; }
 3122              		.loc 11 59 33 view .LVU978
 3123              	.LBB926:
 3124              	.LBB903:
 3125              	.LBI903:
 619:ili9341_ui_driver.hpp ****                   uint_fast16_t y,
 3126              		.loc 8 619 10 view .LVU979
 3127              	.LBB904:
 627:ili9341_ui_driver.hpp ****         {
 3128              		.loc 8 627 29 view .LVU980
ARM GAS  /var/folders/hl/qgbwny5j0fd895c2c41bk3tw0000gp/T//cchkzwyh.s 			page 104


 3129              	.LBB905:
 3130              	.LBB906:
 3131              	.LBB907:
1029:ili9341_ui_driver.hpp ****             return;
 3132              		.loc 8 1029 17 is_stmt 0 view .LVU981
 3133 0042 B7F85420 		ldrh	r2, [r7, #84]
 3134 0046 4FF0C80C 		mov	ip, #200
 3135              	.LBB908:
 3136              	.LBB909:
 206:ili9341_ui_driver.hpp **** 
 3137              		.loc 8 206 14 view .LVU982
 3138 004a B7F82C80 		ldrh	r8, [r7, #44]
 217:ili9341_ui_driver.hpp ****     }
 3139              		.loc 8 217 30 view .LVU983
 3140 004e 6425     		movs	r5, #100
 3141 0050 0CFB02FC 		mul	ip, ip, r2
 3142              	.LBE909:
 3143              	.LBE908:
1029:ili9341_ui_driver.hpp ****             return;
 3144              		.loc 8 1029 31 view .LVU984
 3145 0054 B7F85660 		ldrh	r6, [r7, #86]
 3146              	.LBB915:
 3147              	.LBB910:
 216:ili9341_ui_driver.hpp ****         frame_buffer[id + 1] = color & 0xFF;
 3148              		.loc 8 216 30 view .LVU985
 3149 0058 4FEA1829 		lsr	r9, r8, #8
 3150 005c 0CF10103 		add	r3, ip, #1
 3151 0060 6444     		add	r4, r4, ip
 217:ili9341_ui_driver.hpp ****     }
 3152              		.loc 8 217 30 view .LVU986
 3153 0062 5FFA88F8 		uxtb	r8, r8
 3154 0066 8C44     		add	ip, ip, r1
 3155 0068 4FEA420E 		lsl	lr, r2, #1
 3156 006c 1944     		add	r1, r1, r3
 3157              	.LVL230:
 3158              	.L75:
 217:ili9341_ui_driver.hpp ****     }
 3159              		.loc 8 217 30 view .LVU987
 3160              	.LBE910:
 3161              	.LBE915:
 3162              	.LBE907:
 3163              	.LBE906:
 629:ili9341_ui_driver.hpp ****             {
 3164              		.loc 8 629 33 is_stmt 1 view .LVU988
 3165              	.LBB923:
 3166              	.LBB920:
 3167              	.LBB916:
 3168              	.LBB911:
 217:ili9341_ui_driver.hpp ****     }
 3169              		.loc 8 217 30 is_stmt 0 view .LVU989
 3170 006e 6423     		movs	r3, #100
 3171              	.LVL231:
 3172              	.L74:
 217:ili9341_ui_driver.hpp ****     }
 3173              		.loc 8 217 30 view .LVU990
 3174              	.LBE911:
 3175              	.LBE916:
ARM GAS  /var/folders/hl/qgbwny5j0fd895c2c41bk3tw0000gp/T//cchkzwyh.s 			page 105


 3176              	.LBE920:
 3177              	.LBE923:
 631:ili9341_ui_driver.hpp ****             }
 3178              		.loc 8 631 17 is_stmt 1 view .LVU991
 3179              	.LBB924:
 3180              	.LBI906:
1024:ili9341_ui_driver.hpp ****                    uint_fast16_t y,
 3181              		.loc 8 1024 10 view .LVU992
 3182              	.LBB921:
1029:ili9341_ui_driver.hpp ****             return;
 3183              		.loc 8 1029 9 view .LVU993
1029:ili9341_ui_driver.hpp ****             return;
 3184              		.loc 8 1029 9 is_stmt 0 view .LVU994
 3185              	.LBE921:
 3186              	.LBE924:
 629:ili9341_ui_driver.hpp ****             {
 3187              		.loc 8 629 13 is_stmt 1 view .LVU995
 629:ili9341_ui_driver.hpp ****             {
 3188              		.loc 8 629 33 view .LVU996
 3189              	.LBB925:
 3190              	.LBB922:
1029:ili9341_ui_driver.hpp ****             return;
 3191              		.loc 8 1029 9 is_stmt 0 view .LVU997
 3192 0070 9342     		cmp	r3, r2
 3193 0072 09D2     		bcs	.L73
1032:ili9341_ui_driver.hpp **** 
 3194              		.loc 8 1032 9 is_stmt 1 view .LVU998
 3195              	.LVL232:
1035:ili9341_ui_driver.hpp **** 
 3196              		.loc 8 1035 9 view .LVU999
 3197              	.LBB917:
 3198              	.LBI908:
 204:ili9341_ui_driver.hpp ****     {
 3199              		.loc 8 204 10 view .LVU1000
 3200              	.LBB912:
 206:ili9341_ui_driver.hpp **** 
 3201              		.loc 8 206 9 view .LVU1001
 208:ili9341_ui_driver.hpp ****         {
 3202              		.loc 8 208 9 view .LVU1002
 214:ili9341_ui_driver.hpp **** 
 3203              		.loc 8 214 9 view .LVU1003
 3204              	.LBE912:
 3205              	.LBE917:
1029:ili9341_ui_driver.hpp ****             return;
 3206              		.loc 8 1029 23 is_stmt 0 view .LVU1004
 3207 0074 AE42     		cmp	r6, r5
 3208              	.LBB918:
 3209              	.LBB913:
 214:ili9341_ui_driver.hpp **** 
 3210              		.loc 8 214 23 view .LVU1005
 3211 0076 4FF00800 		mov	r0, #8
 3212              	.LBE913:
 3213              	.LBE918:
1029:ili9341_ui_driver.hpp ****             return;
 3214              		.loc 8 1029 23 view .LVU1006
 3215 007a 05D9     		bls	.L73
 3216              	.LBB919:
ARM GAS  /var/folders/hl/qgbwny5j0fd895c2c41bk3tw0000gp/T//cchkzwyh.s 			page 106


 3217              	.LBB914:
 216:ili9341_ui_driver.hpp ****         frame_buffer[id + 1] = color & 0xFF;
 3218              		.loc 8 216 30 view .LVU1007
 3219 007c 0CF81390 		strb	r9, [ip, r3, lsl #1]
 214:ili9341_ui_driver.hpp **** 
 3220              		.loc 8 214 23 view .LVU1008
 3221 0080 04F81300 		strb	r0, [r4, r3, lsl #1]
 216:ili9341_ui_driver.hpp ****         frame_buffer[id + 1] = color & 0xFF;
 3222              		.loc 8 216 9 is_stmt 1 view .LVU1009
 217:ili9341_ui_driver.hpp ****     }
 3223              		.loc 8 217 9 view .LVU1010
 217:ili9341_ui_driver.hpp ****     }
 3224              		.loc 8 217 30 is_stmt 0 view .LVU1011
 3225 0084 01F81380 		strb	r8, [r1, r3, lsl #1]
 3226              	.LVL233:
 3227              	.L73:
 217:ili9341_ui_driver.hpp ****     }
 3228              		.loc 8 217 30 view .LVU1012
 3229              	.LBE914:
 3230              	.LBE919:
 3231              	.LBE922:
 3232              	.LBE925:
 629:ili9341_ui_driver.hpp ****             {
 3233              		.loc 8 629 33 view .LVU1013
 3234 0088 0133     		adds	r3, r3, #1
 3235              	.LVL234:
 629:ili9341_ui_driver.hpp ****             {
 3236              		.loc 8 629 33 view .LVU1014
 3237 008a 962B     		cmp	r3, #150
 3238 008c F0D1     		bne	.L74
 3239              	.LBE905:
 627:ili9341_ui_driver.hpp ****         {
 3240              		.loc 8 627 9 is_stmt 1 view .LVU1015
 3241              	.LVL235:
 627:ili9341_ui_driver.hpp ****         {
 3242              		.loc 8 627 29 view .LVU1016
 3243 008e 0135     		adds	r5, r5, #1
 3244              	.LVL236:
 627:ili9341_ui_driver.hpp ****         {
 3245              		.loc 8 627 29 is_stmt 0 view .LVU1017
 3246 0090 7444     		add	r4, r4, lr
 3247 0092 F444     		add	ip, ip, lr
 3248 0094 7144     		add	r1, r1, lr
 3249 0096 962D     		cmp	r5, #150
 3250 0098 E9D1     		bne	.L75
 3251              	.LVL237:
 627:ili9341_ui_driver.hpp ****         {
 3252              		.loc 8 627 29 view .LVU1018
 3253              	.LBE904:
 3254              	.LBE903:
 3255              	.LBE926:
  18:TFT_TEST.cpp  ****   driver.DrawRect(Rectangle(100, 100, 50, 50), COLOR_WHITE);
 3256              		.loc 10 18 3 is_stmt 1 view .LVU1019
 3257              	.LBB927:
 3258              	.LBI927:
  31:../../libDaisy//src/hid/disp/graphics_common.h ****     : x_(x), y_(y), width_(max(0, width)), height_(max(0, height))
 3259              		.loc 11 31 5 view .LVU1020
ARM GAS  /var/folders/hl/qgbwny5j0fd895c2c41bk3tw0000gp/T//cchkzwyh.s 			page 107


 3260              	.LBB928:
 3261              	.LBI928:
 3262              		.loc 11 261 13 view .LVU1021
 3263              	.LBE928:
 3264              	.LBE927:
 3265              		.loc 11 261 41 view .LVU1022
 3266              	.LBB930:
 3267              	.LBB929:
 3268              	.LBI929:
 3269              		.loc 11 261 13 view .LVU1023
 3270              	.LBE929:
 3271              	.LBE930:
 3272              		.loc 11 261 41 view .LVU1024
 3273              	.LBB931:
 3274              	.LBI931:
 651:ili9341_ui_driver.hpp ****     {
 3275              		.loc 8 651 10 view .LVU1025
 651:ili9341_ui_driver.hpp ****     {
 3276              		.loc 8 651 10 is_stmt 0 view .LVU1026
 3277              	.LBE931:
 653:ili9341_ui_driver.hpp ****                  rect.GetY(),
 3278              		.loc 8 653 9 is_stmt 1 view .LVU1027
  56:../../libDaisy//src/hid/disp/graphics_common.h ****     int16_t GetY() const { return y_; }
 3279              		.loc 11 56 28 view .LVU1028
  57:../../libDaisy//src/hid/disp/graphics_common.h ****     int16_t GetWidth() const { return width_; }
 3280              		.loc 11 57 28 view .LVU1029
  58:../../libDaisy//src/hid/disp/graphics_common.h ****     int16_t GetHeight() const { return height_; }
 3281              		.loc 11 58 32 view .LVU1030
  59:../../libDaisy//src/hid/disp/graphics_common.h ****     int16_t GetRight() const { return x_ + width_; }
 3282              		.loc 11 59 33 view .LVU1031
 3283              	.LBB934:
 3284              	.LBB932:
 3285              	.LBI932:
 636:ili9341_ui_driver.hpp ****                   uint16_t y,
 3286              		.loc 8 636 10 view .LVU1032
 3287              	.LBB933:
 643:ili9341_ui_driver.hpp ****         auto y2 = y + h;
 3288              		.loc 8 643 9 view .LVU1033
 644:ili9341_ui_driver.hpp ****         DrawLine(x, y, x, y2, color, alpha);
 3289              		.loc 8 644 9 view .LVU1034
 645:ili9341_ui_driver.hpp ****         DrawLine(x, y, x2, y, color, alpha);
 3290              		.loc 8 645 9 view .LVU1035
 645:ili9341_ui_driver.hpp ****         DrawLine(x, y, x2, y, color, alpha);
 3291              		.loc 8 645 17 is_stmt 0 view .LVU1036
 3292 009a 6423     		movs	r3, #100
 3293 009c 4FF0FF08 		mov	r8, #255
 3294 00a0 0126     		movs	r6, #1
 3295 00a2 4A48     		ldr	r0, .L81+4
 646:ili9341_ui_driver.hpp ****         DrawLine(x, y2, x2, y2, color, alpha);
 3296              		.loc 8 646 17 view .LVU1037
 3297 00a4 1C46     		mov	r4, r3
 645:ili9341_ui_driver.hpp ****         DrawLine(x, y, x2, y, color, alpha);
 3298              		.loc 8 645 17 view .LVU1038
 3299 00a6 1A46     		mov	r2, r3
 3300 00a8 1946     		mov	r1, r3
 3301 00aa DFF83491 		ldr	r9, .L81+24
 3302 00ae 8DE86001 		stm	sp, {r5, r6, r8}
ARM GAS  /var/folders/hl/qgbwny5j0fd895c2c41bk3tw0000gp/T//cchkzwyh.s 			page 108


 3303 00b2 FFF7FEFF 		bl	_ZN8UiDriver8DrawLineEjjjjhh
 3304              	.LVL238:
 646:ili9341_ui_driver.hpp ****         DrawLine(x, y2, x2, y2, color, alpha);
 3305              		.loc 8 646 9 is_stmt 1 view .LVU1039
 646:ili9341_ui_driver.hpp ****         DrawLine(x, y2, x2, y2, color, alpha);
 3306              		.loc 8 646 17 is_stmt 0 view .LVU1040
 3307 00b6 2B46     		mov	r3, r5
 3308 00b8 2246     		mov	r2, r4
 3309 00ba 2146     		mov	r1, r4
 3310 00bc 4348     		ldr	r0, .L81+4
 3311 00be 0094     		str	r4, [sp]
 3312 00c0 CDE90168 		strd	r6, r8, [sp, #4]
 3313 00c4 FFF7FEFF 		bl	_ZN8UiDriver8DrawLineEjjjjhh
 3314              	.LVL239:
 647:ili9341_ui_driver.hpp ****         DrawLine(x2, y, x2, y2, color, alpha);
 3315              		.loc 8 647 9 is_stmt 1 view .LVU1041
 647:ili9341_ui_driver.hpp ****         DrawLine(x2, y, x2, y2, color, alpha);
 3316              		.loc 8 647 17 is_stmt 0 view .LVU1042
 3317 00c8 2B46     		mov	r3, r5
 3318 00ca 2A46     		mov	r2, r5
 3319 00cc 2146     		mov	r1, r4
 3320 00ce 3F48     		ldr	r0, .L81+4
 3321 00d0 0095     		str	r5, [sp]
 3322 00d2 CDE90168 		strd	r6, r8, [sp, #4]
 3323 00d6 FFF7FEFF 		bl	_ZN8UiDriver8DrawLineEjjjjhh
 3324              	.LVL240:
 648:ili9341_ui_driver.hpp ****     }
 3325              		.loc 8 648 9 is_stmt 1 view .LVU1043
 648:ili9341_ui_driver.hpp ****     }
 3326              		.loc 8 648 17 is_stmt 0 view .LVU1044
 3327 00da CDF80880 		str	r8, [sp, #8]
 3328 00de 2246     		mov	r2, r4
 3329 00e0 2B46     		mov	r3, r5
 3330 00e2 2946     		mov	r1, r5
 3331 00e4 A9F10C00 		sub	r0, r9, #12
 3332 00e8 DFF8F880 		ldr	r8, .L81+28
 3333 00ec CDE90056 		strd	r5, r6, [sp]
 3334 00f0 FFF7FEFF 		bl	_ZN8UiDriver8DrawLineEjjjjhh
 3335              	.LVL241:
 3336              	.L76:
 648:ili9341_ui_driver.hpp ****     }
 3337              		.loc 8 648 17 view .LVU1045
 3338              	.LBE933:
 3339              	.LBE932:
 3340              	.LBE934:
  19:TFT_TEST.cpp  **** 
  20:TFT_TEST.cpp  ****   for(;;)
 3341              		.loc 10 20 3 is_stmt 1 discriminator 1 view .LVU1046
  21:TFT_TEST.cpp  ****   {
  22:TFT_TEST.cpp  ****         // Update() is required to actually flush the screen buffer to the display
  23:TFT_TEST.cpp  ****         driver.Update();
 3342              		.loc 10 23 9 discriminator 1 view .LVU1047
 3343              	.LBB935:
 3344              	.LBI935:
 970:ili9341_ui_driver.hpp ****     {
 3345              		.loc 8 970 10 discriminator 1 view .LVU1048
 3346              	.LBE935:
ARM GAS  /var/folders/hl/qgbwny5j0fd895c2c41bk3tw0000gp/T//cchkzwyh.s 			page 109


 972:ili9341_ui_driver.hpp ****         transport_.SendDataDMA();
 3347              		.loc 8 972 9 discriminator 1 view .LVU1049
 3348              	.LBB987:
 3349              	.LBB936:
 3350              	.LBI936:
1022:ili9341_ui_driver.hpp **** 
 3351              		.loc 8 1022 10 discriminator 1 view .LVU1050
 3352              	.LBB937:
1022:ili9341_ui_driver.hpp **** 
 3353              		.loc 8 1022 20 discriminator 1 view .LVU1051
1022:ili9341_ui_driver.hpp **** 
 3354              		.loc 8 1022 47 is_stmt 0 discriminator 1 view .LVU1052
 3355 00f4 B7F85460 		ldrh	r6, [r7, #84]
 3356 00f8 2A23     		movs	r3, #42
 3357              	.LBB938:
 3358              	.LBB939:
 3359              	.LBB940:
 3360              	.LBB941:
 168:ili9341_ui_driver.hpp ****         return spi_.BlockingTransmit(&cmd, 1);
 3361              		.loc 8 168 23 discriminator 1 view .LVU1053
 3362 00fa 0021     		movs	r1, #0
 3363 00fc 3648     		ldr	r0, .L81+16
 3364              	.LBE941:
 3365              	.LBE940:
 3366              	.LBE939:
 3367              	.LBE938:
1022:ili9341_ui_driver.hpp **** 
 3368              		.loc 8 1022 47 discriminator 1 view .LVU1054
 3369 00fe 013E     		subs	r6, r6, #1
 3370 0100 B7F85650 		ldrh	r5, [r7, #86]
 3371 0104 8DF81C30 		strb	r3, [sp, #28]
 3372              	.LBB977:
 3373              	.LBB973:
 3374              	.LBB946:
 3375              	.LBB942:
 168:ili9341_ui_driver.hpp ****         return spi_.BlockingTransmit(&cmd, 1);
 3376              		.loc 8 168 23 discriminator 1 view .LVU1055
 3377 0108 FFF7FEFF 		bl	dsy_gpio_write
 3378              	.LVL242:
 3379              	.LBE942:
 3380              	.LBE946:
 3381              	.LBE973:
 3382              	.LBE977:
1022:ili9341_ui_driver.hpp **** 
 3383              		.loc 8 1022 47 discriminator 1 view .LVU1056
 3384 010c B6B2     		uxth	r6, r6
 3385              	.LBB978:
 3386              	.LBB974:
 3387              	.LBB947:
 3388              	.LBB943:
 169:ili9341_ui_driver.hpp ****     };
 3389              		.loc 8 169 37 discriminator 1 view .LVU1057
 3390 010e 0122     		movs	r2, #1
 3391 0110 07A9     		add	r1, sp, #28
 3392 0112 6423     		movs	r3, #100
 3393 0114 3148     		ldr	r0, .L81+20
 3394              	.LBE943:
ARM GAS  /var/folders/hl/qgbwny5j0fd895c2c41bk3tw0000gp/T//cchkzwyh.s 			page 110


 3395              	.LBE947:
 3396              	.LBB948:
 186:ili9341_ui_driver.hpp ****             SendData(data, 4);
 3397              		.loc 8 186 63 discriminator 1 view .LVU1058
 3398 0116 0024     		movs	r4, #0
 3399              	.LBE948:
 3400              	.LBB955:
 3401              	.LBB944:
 169:ili9341_ui_driver.hpp ****     };
 3402              		.loc 8 169 37 discriminator 1 view .LVU1059
 3403 0118 FFF7FEFF 		bl	_ZN5daisy9SpiHandle16BlockingTransmitEPhjm
 3404              	.LVL243:
 3405              	.LBE944:
 3406              	.LBE955:
 3407              	.LBB956:
 3408              	.LBB949:
 3409              	.LBB950:
 174:ili9341_ui_driver.hpp ****         return spi_.BlockingTransmit(buff, size);
 3410              		.loc 8 174 23 discriminator 1 view .LVU1060
 3411 011c 0121     		movs	r1, #1
 3412              	.LBE950:
 3413              	.LBE949:
 185:ili9341_ui_driver.hpp ****                                static_cast<uint8_t>(x1 & 0xFF)};
 3414              		.loc 8 185 57 discriminator 1 view .LVU1061
 3415 011e 330A     		lsrs	r3, r6, #8
 3416              	.LBB953:
 3417              	.LBB951:
 174:ili9341_ui_driver.hpp ****         return spi_.BlockingTransmit(buff, size);
 3418              		.loc 8 174 23 discriminator 1 view .LVU1062
 3419 0120 2D48     		ldr	r0, .L81+16
 3420              	.LBE951:
 3421              	.LBE953:
 186:ili9341_ui_driver.hpp ****             SendData(data, 4);
 3422              		.loc 8 186 63 discriminator 1 view .LVU1063
 3423 0122 8DF81C40 		strb	r4, [sp, #28]
 3424              	.LBE956:
 3425              	.LBE974:
 3426              	.LBE978:
1022:ili9341_ui_driver.hpp **** 
 3427              		.loc 8 1022 47 discriminator 1 view .LVU1064
 3428 0126 013D     		subs	r5, r5, #1
 3429              	.LBB979:
 3430              	.LBB975:
 3431              	.LBB957:
 186:ili9341_ui_driver.hpp ****             SendData(data, 4);
 3432              		.loc 8 186 63 discriminator 1 view .LVU1065
 3433 0128 8DF81E30 		strb	r3, [sp, #30]
 3434 012c 8DF81D40 		strb	r4, [sp, #29]
 3435              	.LBE957:
 3436              	.LBE975:
 3437              	.LBE979:
1022:ili9341_ui_driver.hpp **** 
 3438              		.loc 8 1022 47 discriminator 1 view .LVU1066
 3439 0130 ADB2     		uxth	r5, r5
 3440              	.LVL244:
 3441              	.LBB980:
 3442              	.LBI938:
ARM GAS  /var/folders/hl/qgbwny5j0fd895c2c41bk3tw0000gp/T//cchkzwyh.s 			page 111


 178:ili9341_ui_driver.hpp ****     {
 3443              		.loc 8 178 10 is_stmt 1 discriminator 1 view .LVU1067
 3444              	.LBB976:
 181:ili9341_ui_driver.hpp ****         {
 3445              		.loc 8 181 9 discriminator 1 view .LVU1068
 3446              	.LBB958:
 3447              	.LBI940:
 166:ili9341_ui_driver.hpp ****     {
 3448              		.loc 8 166 23 discriminator 1 view .LVU1069
 3449              	.LBB945:
 168:ili9341_ui_driver.hpp ****         return spi_.BlockingTransmit(&cmd, 1);
 3450              		.loc 8 168 9 discriminator 1 view .LVU1070
 169:ili9341_ui_driver.hpp ****     };
 3451              		.loc 8 169 9 discriminator 1 view .LVU1071
 169:ili9341_ui_driver.hpp ****     };
 3452              		.loc 8 169 9 is_stmt 0 discriminator 1 view .LVU1072
 3453              	.LBE945:
 3454              	.LBE958:
 182:ili9341_ui_driver.hpp ****             uint8_t data[4] = {static_cast<uint8_t>((x0 >> 8) & 0xFF),
 3455              		.loc 8 182 9 is_stmt 1 discriminator 1 view .LVU1073
 3456              	.LBB959:
 183:ili9341_ui_driver.hpp ****                                static_cast<uint8_t>(x0 & 0xFF),
 3457              		.loc 8 183 13 discriminator 1 view .LVU1074
 186:ili9341_ui_driver.hpp ****             SendData(data, 4);
 3458              		.loc 8 186 63 is_stmt 0 discriminator 1 view .LVU1075
 3459 0132 8DF81F60 		strb	r6, [sp, #31]
 187:ili9341_ui_driver.hpp ****         }
 3460              		.loc 8 187 13 is_stmt 1 discriminator 1 view .LVU1076
 3461              	.LVL245:
 3462              	.LBB954:
 3463              	.LBI949:
 172:ili9341_ui_driver.hpp ****     {
 3464              		.loc 8 172 23 discriminator 1 view .LVU1077
 3465              	.LBB952:
 174:ili9341_ui_driver.hpp ****         return spi_.BlockingTransmit(buff, size);
 3466              		.loc 8 174 9 discriminator 1 view .LVU1078
 174:ili9341_ui_driver.hpp ****         return spi_.BlockingTransmit(buff, size);
 3467              		.loc 8 174 23 is_stmt 0 discriminator 1 view .LVU1079
 3468 0136 FFF7FEFF 		bl	dsy_gpio_write
 3469              	.LVL246:
 175:ili9341_ui_driver.hpp ****     };
 3470              		.loc 8 175 9 is_stmt 1 discriminator 1 view .LVU1080
 175:ili9341_ui_driver.hpp ****     };
 3471              		.loc 8 175 37 is_stmt 0 discriminator 1 view .LVU1081
 3472 013a 0422     		movs	r2, #4
 3473 013c 07A9     		add	r1, sp, #28
 3474              	.LVL247:
 175:ili9341_ui_driver.hpp ****     };
 3475              		.loc 8 175 37 discriminator 1 view .LVU1082
 3476 013e 6423     		movs	r3, #100
 3477 0140 2648     		ldr	r0, .L81+20
 3478 0142 FFF7FEFF 		bl	_ZN5daisy9SpiHandle16BlockingTransmitEPhjm
 3479              	.LVL248:
 175:ili9341_ui_driver.hpp ****     };
 3480              		.loc 8 175 37 discriminator 1 view .LVU1083
 3481              	.LBE952:
 3482              	.LBE954:
ARM GAS  /var/folders/hl/qgbwny5j0fd895c2c41bk3tw0000gp/T//cchkzwyh.s 			page 112


 3483              	.LBE959:
 191:ili9341_ui_driver.hpp ****         {
 3484              		.loc 8 191 9 is_stmt 1 discriminator 1 view .LVU1084
 191:ili9341_ui_driver.hpp ****         {
 3485              		.loc 8 191 9 is_stmt 0 discriminator 1 view .LVU1085
 3486 0146 2B23     		movs	r3, #43
 3487              	.LBB960:
 3488              	.LBB961:
 168:ili9341_ui_driver.hpp ****         return spi_.BlockingTransmit(&cmd, 1);
 3489              		.loc 8 168 23 discriminator 1 view .LVU1086
 3490 0148 2146     		mov	r1, r4
 3491 014a 2348     		ldr	r0, .L81+16
 3492 014c 8DF81C30 		strb	r3, [sp, #28]
 3493              	.LVL249:
 168:ili9341_ui_driver.hpp ****         return spi_.BlockingTransmit(&cmd, 1);
 3494              		.loc 8 168 23 discriminator 1 view .LVU1087
 3495              	.LBE961:
 3496              	.LBI960:
 166:ili9341_ui_driver.hpp ****     {
 3497              		.loc 8 166 23 is_stmt 1 discriminator 1 view .LVU1088
 3498              	.LBB962:
 168:ili9341_ui_driver.hpp ****         return spi_.BlockingTransmit(&cmd, 1);
 3499              		.loc 8 168 9 discriminator 1 view .LVU1089
 168:ili9341_ui_driver.hpp ****         return spi_.BlockingTransmit(&cmd, 1);
 3500              		.loc 8 168 23 is_stmt 0 discriminator 1 view .LVU1090
 3501 0150 FFF7FEFF 		bl	dsy_gpio_write
 3502              	.LVL250:
 169:ili9341_ui_driver.hpp ****     };
 3503              		.loc 8 169 9 is_stmt 1 discriminator 1 view .LVU1091
 169:ili9341_ui_driver.hpp ****     };
 3504              		.loc 8 169 37 is_stmt 0 discriminator 1 view .LVU1092
 3505 0154 0122     		movs	r2, #1
 3506 0156 07A9     		add	r1, sp, #28
 3507 0158 6423     		movs	r3, #100
 3508 015a 2048     		ldr	r0, .L81+20
 3509 015c FFF7FEFF 		bl	_ZN5daisy9SpiHandle16BlockingTransmitEPhjm
 3510              	.LVL251:
 169:ili9341_ui_driver.hpp ****     };
 3511              		.loc 8 169 37 discriminator 1 view .LVU1093
 3512              	.LBE962:
 3513              	.LBE960:
 192:ili9341_ui_driver.hpp ****             uint8_t data[4] = {static_cast<uint8_t>((y0 >> 8) & 0xFF),
 3514              		.loc 8 192 9 is_stmt 1 discriminator 1 view .LVU1094
 3515              	.LBB963:
 193:ili9341_ui_driver.hpp ****                                static_cast<uint8_t>(y0 & 0xFF),
 3516              		.loc 8 193 13 discriminator 1 view .LVU1095
 3517              	.LBB964:
 3518              	.LBB965:
 174:ili9341_ui_driver.hpp ****         return spi_.BlockingTransmit(buff, size);
 3519              		.loc 8 174 23 is_stmt 0 discriminator 1 view .LVU1096
 3520 0160 0121     		movs	r1, #1
 3521              	.LBE965:
 3522              	.LBE964:
 195:ili9341_ui_driver.hpp ****                                static_cast<uint8_t>(y1 & 0xFF)};
 3523              		.loc 8 195 57 discriminator 1 view .LVU1097
 3524 0162 2B0A     		lsrs	r3, r5, #8
 3525              	.LBB968:
ARM GAS  /var/folders/hl/qgbwny5j0fd895c2c41bk3tw0000gp/T//cchkzwyh.s 			page 113


 3526              	.LBB966:
 174:ili9341_ui_driver.hpp ****         return spi_.BlockingTransmit(buff, size);
 3527              		.loc 8 174 23 discriminator 1 view .LVU1098
 3528 0164 1C48     		ldr	r0, .L81+16
 3529              	.LBE966:
 3530              	.LBE968:
 196:ili9341_ui_driver.hpp ****             SendData(data, 4);
 3531              		.loc 8 196 63 discriminator 1 view .LVU1099
 3532 0166 8DF81C40 		strb	r4, [sp, #28]
 3533 016a 8DF81E30 		strb	r3, [sp, #30]
 3534 016e 8DF81D40 		strb	r4, [sp, #29]
 3535 0172 8DF81F50 		strb	r5, [sp, #31]
 197:ili9341_ui_driver.hpp ****         }
 3536              		.loc 8 197 13 is_stmt 1 discriminator 1 view .LVU1100
 3537              	.LVL252:
 3538              	.LBB969:
 3539              	.LBI964:
 172:ili9341_ui_driver.hpp ****     {
 3540              		.loc 8 172 23 discriminator 1 view .LVU1101
 3541              	.LBB967:
 174:ili9341_ui_driver.hpp ****         return spi_.BlockingTransmit(buff, size);
 3542              		.loc 8 174 9 discriminator 1 view .LVU1102
 174:ili9341_ui_driver.hpp ****         return spi_.BlockingTransmit(buff, size);
 3543              		.loc 8 174 23 is_stmt 0 discriminator 1 view .LVU1103
 3544 0176 FFF7FEFF 		bl	dsy_gpio_write
 3545              	.LVL253:
 175:ili9341_ui_driver.hpp ****     };
 3546              		.loc 8 175 9 is_stmt 1 discriminator 1 view .LVU1104
 175:ili9341_ui_driver.hpp ****     };
 3547              		.loc 8 175 37 is_stmt 0 discriminator 1 view .LVU1105
 3548 017a 0422     		movs	r2, #4
 3549 017c 07A9     		add	r1, sp, #28
 3550              	.LVL254:
 175:ili9341_ui_driver.hpp ****     };
 3551              		.loc 8 175 37 discriminator 1 view .LVU1106
 3552 017e 6423     		movs	r3, #100
 3553 0180 1648     		ldr	r0, .L81+20
 3554 0182 FFF7FEFF 		bl	_ZN5daisy9SpiHandle16BlockingTransmitEPhjm
 3555              	.LVL255:
 175:ili9341_ui_driver.hpp ****     };
 3556              		.loc 8 175 37 discriminator 1 view .LVU1107
 3557              	.LBE967:
 3558              	.LBE969:
 3559              	.LBE963:
 201:ili9341_ui_driver.hpp ****     }
 3560              		.loc 8 201 9 is_stmt 1 discriminator 1 view .LVU1108
 201:ili9341_ui_driver.hpp ****     }
 3561              		.loc 8 201 9 is_stmt 0 discriminator 1 view .LVU1109
 3562 0186 2C23     		movs	r3, #44
 3563              	.LBB970:
 3564              	.LBB971:
 168:ili9341_ui_driver.hpp ****         return spi_.BlockingTransmit(&cmd, 1);
 3565              		.loc 8 168 23 discriminator 1 view .LVU1110
 3566 0188 2146     		mov	r1, r4
 3567 018a 1348     		ldr	r0, .L81+16
 3568 018c 8DF81C30 		strb	r3, [sp, #28]
 3569              	.LVL256:
ARM GAS  /var/folders/hl/qgbwny5j0fd895c2c41bk3tw0000gp/T//cchkzwyh.s 			page 114


 168:ili9341_ui_driver.hpp ****         return spi_.BlockingTransmit(&cmd, 1);
 3570              		.loc 8 168 23 discriminator 1 view .LVU1111
 3571              	.LBE971:
 3572              	.LBI970:
 166:ili9341_ui_driver.hpp ****     {
 3573              		.loc 8 166 23 is_stmt 1 discriminator 1 view .LVU1112
 3574              	.LBB972:
 168:ili9341_ui_driver.hpp ****         return spi_.BlockingTransmit(&cmd, 1);
 3575              		.loc 8 168 9 discriminator 1 view .LVU1113
 168:ili9341_ui_driver.hpp ****         return spi_.BlockingTransmit(&cmd, 1);
 3576              		.loc 8 168 23 is_stmt 0 discriminator 1 view .LVU1114
 3577 0190 FFF7FEFF 		bl	dsy_gpio_write
 3578              	.LVL257:
 169:ili9341_ui_driver.hpp ****     };
 3579              		.loc 8 169 9 is_stmt 1 discriminator 1 view .LVU1115
 169:ili9341_ui_driver.hpp ****     };
 3580              		.loc 8 169 37 is_stmt 0 discriminator 1 view .LVU1116
 3581 0194 07A9     		add	r1, sp, #28
 3582 0196 6423     		movs	r3, #100
 3583 0198 0122     		movs	r2, #1
 3584 019a 1048     		ldr	r0, .L81+20
 3585 019c FFF7FEFF 		bl	_ZN5daisy9SpiHandle16BlockingTransmitEPhjm
 3586              	.LVL258:
 169:ili9341_ui_driver.hpp ****     };
 3587              		.loc 8 169 37 discriminator 1 view .LVU1117
 3588              	.LBE972:
 3589              	.LBE970:
 3590              	.LBE976:
 3591              	.LBE980:
 3592              	.LBE937:
 3593              	.LBE936:
 3594              	.LBE987:
 973:ili9341_ui_driver.hpp ****     }
 3595              		.loc 8 973 9 is_stmt 1 discriminator 1 view .LVU1118
 3596              	.LBB988:
 3597              	.LBB981:
 3598              	.LBI981:
 139:ili9341_ui_driver.hpp ****     {
 3599              		.loc 8 139 23 discriminator 1 view .LVU1119
 3600              	.LBB982:
 141:ili9341_ui_driver.hpp ****         dma_busy       = true;
 3601              		.loc 8 141 9 discriminator 1 view .LVU1120
 149:ili9341_ui_driver.hpp ****     };
 3602              		.loc 8 149 27 is_stmt 0 discriminator 1 view .LVU1121
 3603 01a0 BA8A     		ldrh	r2, [r7, #20]
 142:ili9341_ui_driver.hpp **** 
 3604              		.loc 8 142 24 discriminator 1 view .LVU1122
 3605 01a2 0121     		movs	r1, #1
 141:ili9341_ui_driver.hpp ****         dma_busy       = true;
 3606              		.loc 8 141 24 discriminator 1 view .LVU1123
 3607 01a4 4FF41633 		mov	r3, #153600
 3608              	.LBB983:
 3609              	.LBB984:
 154:ili9341_ui_driver.hpp ****         return spi_.DmaTransmit(buff, size, nullptr, &TxCompleteCallback, this);
 3610              		.loc 8 154 23 discriminator 1 view .LVU1124
 3611 01a8 0B48     		ldr	r0, .L81+16
 3612              	.LBE984:
ARM GAS  /var/folders/hl/qgbwny5j0fd895c2c41bk3tw0000gp/T//cchkzwyh.s 			page 115


 3613              	.LBE983:
 149:ili9341_ui_driver.hpp ****     };
 3614              		.loc 8 149 27 discriminator 1 view .LVU1125
 3615 01aa 0592     		str	r2, [sp, #20]
 141:ili9341_ui_driver.hpp ****         dma_busy       = true;
 3616              		.loc 8 141 24 discriminator 1 view .LVU1126
 3617 01ac 3B61     		str	r3, [r7, #16]
 142:ili9341_ui_driver.hpp **** 
 3618              		.loc 8 142 9 is_stmt 1 discriminator 1 view .LVU1127
 142:ili9341_ui_driver.hpp **** 
 3619              		.loc 8 142 24 is_stmt 0 discriminator 1 view .LVU1128
 3620 01ae 3973     		strb	r1, [r7, #12]
 149:ili9341_ui_driver.hpp ****     };
 3621              		.loc 8 149 9 is_stmt 1 discriminator 1 view .LVU1129
 3622              	.LVL259:
 3623              	.LBB986:
 3624              	.LBI983:
 152:ili9341_ui_driver.hpp ****     {
 3625              		.loc 8 152 23 discriminator 1 view .LVU1130
 3626              	.LBB985:
 154:ili9341_ui_driver.hpp ****         return spi_.DmaTransmit(buff, size, nullptr, &TxCompleteCallback, this);
 3627              		.loc 8 154 9 discriminator 1 view .LVU1131
 154:ili9341_ui_driver.hpp ****         return spi_.DmaTransmit(buff, size, nullptr, &TxCompleteCallback, this);
 3628              		.loc 8 154 23 is_stmt 0 discriminator 1 view .LVU1132
 3629 01b0 FFF7FEFF 		bl	dsy_gpio_write
 3630              	.LVL260:
 155:ili9341_ui_driver.hpp ****     };
 3631              		.loc 8 155 9 is_stmt 1 discriminator 1 view .LVU1133
 155:ili9341_ui_driver.hpp ****     };
 3632              		.loc 8 155 32 is_stmt 0 discriminator 1 view .LVU1134
 3633 01b4 2346     		mov	r3, r4
 3634 01b6 059A     		ldr	r2, [sp, #20]
 3635 01b8 0649     		ldr	r1, .L81+12
 3636 01ba 0848     		ldr	r0, .L81+20
 3637 01bc CDE90089 		strd	r8, r9, [sp]
 3638 01c0 FFF7FEFF 		bl	_ZN5daisy9SpiHandle11DmaTransmitEPhjPFvPvEPFvS2_NS0_6ResultEES2_
 3639              	.LVL261:
 3640 01c4 96E7     		b	.L76
 3641              	.L82:
 3642 01c6 00BF     		.align	2
 3643              	.L81:
 3644 01c8 00000000 		.word	.LANCHOR2
 3645 01cc 00000000 		.word	.LANCHOR3
 3646 01d0 00000000 		.word	_ZN19ILI9341SpiTransport9color_memE
 3647 01d4 00000000 		.word	_ZN19ILI9341SpiTransport12frame_bufferE
 3648 01d8 4C000000 		.word	.LANCHOR3+76
 3649 01dc 18000000 		.word	.LANCHOR3+24
 3650 01e0 0C000000 		.word	.LANCHOR3+12
 3651 01e4 00000000 		.word	_ZN19ILI9341SpiTransport18TxCompleteCallbackEPvN5daisy9SpiHandle6ResultE
 3652              	.LBE985:
 3653              	.LBE986:
 3654              	.LBE982:
 3655              	.LBE981:
 3656              	.LBE988:
 3657              		.cfi_endproc
 3658              	.LFE2601:
 3660              		.section	.text.startup._GLOBAL__sub_I_psm,"ax",%progbits
ARM GAS  /var/folders/hl/qgbwny5j0fd895c2c41bk3tw0000gp/T//cchkzwyh.s 			page 116


 3661              		.align	1
 3662              		.p2align 2,,3
 3663              		.syntax unified
 3664              		.thumb
 3665              		.thumb_func
 3666              		.fpu fpv5-d16
 3668              	_GLOBAL__sub_I_psm:
 3669              	.LFB2619:
  24:TFT_TEST.cpp  ****   }
  25:TFT_TEST.cpp  **** }...
 3670              		.loc 10 25 1 is_stmt 1 view -0
 3671              		.cfi_startproc
 3672              		@ args = 0, pretend = 0, frame = 0
 3673              		@ frame_needed = 0, uses_anonymous_args = 0
 3674              	.LBB1051:
 3675              	.LBI1051:
 3676              		.loc 10 25 1 view .LVU1136
 3677              	.LVL262:
 3678              	.LBB1052:
 3679              	.LBB1053:
 3680              	.LBI1053:
  64:../../libDaisy//src/daisy_patch_sm.h ****         ~DaisyPatchSM() {}
 3681              		.loc 1 64 9 view .LVU1137
 3682              	.LBB1054:
 3683              	.LBB1055:
 3684              	.LBI1055:
  77:../../libDaisy//src/sys/system.h ****     ~System() {}
 3685              		.loc 7 77 5 view .LVU1138
  77:../../libDaisy//src/sys/system.h ****     ~System() {}
 3686              		.loc 7 77 5 is_stmt 0 view .LVU1139
 3687              	.LBE1055:
 3688              	.LBB1056:
 3689              	.LBI1056:
 3690              		.file 12 "../../libDaisy//src/per/qspi.h"
   1:../../libDaisy//src/per/qspi.h **** #ifndef DSY_QSPI
   2:../../libDaisy//src/per/qspi.h **** #define DSY_QSPI /**< Macro */
   3:../../libDaisy//src/per/qspi.h **** 
   4:../../libDaisy//src/per/qspi.h **** #ifndef UNIT_TEST // for unit tests, a dummy implementation
   5:../../libDaisy//src/per/qspi.h **** 
   6:../../libDaisy//src/per/qspi.h **** #include <cstdint>
   7:../../libDaisy//src/per/qspi.h **** #include "daisy_core.h" // Added for dsy_gpio_pin typedef
   8:../../libDaisy//src/per/qspi.h **** 
   9:../../libDaisy//src/per/qspi.h **** #define DSY_QSPI_TEXT       \
  10:../../libDaisy//src/per/qspi.h ****     __attribute__((section( \
  11:../../libDaisy//src/per/qspi.h ****         ".qspiflash_text"))) /**< used for reading memory in memory_mapped mode. */
  12:../../libDaisy//src/per/qspi.h **** #define DSY_QSPI_DATA       \
  13:../../libDaisy//src/per/qspi.h ****     __attribute__((section( \
  14:../../libDaisy//src/per/qspi.h ****         ".qspiflash_data"))) /**< used for reading memory in memory_mapped mode. */
  15:../../libDaisy//src/per/qspi.h **** #define DSY_QSPI_BSS        \
  16:../../libDaisy//src/per/qspi.h ****     __attribute__((section( \
  17:../../libDaisy//src/per/qspi.h ****         ".qspiflash_bss"))) /**< used for reading memory in memory_mapped mode. */
  18:../../libDaisy//src/per/qspi.h **** 
  19:../../libDaisy//src/per/qspi.h **** namespace daisy
  20:../../libDaisy//src/per/qspi.h **** {
  21:../../libDaisy//src/per/qspi.h **** /** @addtogroup serial
  22:../../libDaisy//src/per/qspi.h **** @{
  23:../../libDaisy//src/per/qspi.h **** */
ARM GAS  /var/folders/hl/qgbwny5j0fd895c2c41bk3tw0000gp/T//cchkzwyh.s 			page 117


  24:../../libDaisy//src/per/qspi.h **** 
  25:../../libDaisy//src/per/qspi.h **** /** 
  26:../../libDaisy//src/per/qspi.h ****  Driver for QSPI peripheral to interface with external flash memory. \n 
  27:../../libDaisy//src/per/qspi.h ****     Currently supported QSPI Devices: \n 
  28:../../libDaisy//src/per/qspi.h ****     * IS25LP080D
  29:../../libDaisy//src/per/qspi.h **** */
  30:../../libDaisy//src/per/qspi.h **** class QSPIHandle
  31:../../libDaisy//src/per/qspi.h **** {
  32:../../libDaisy//src/per/qspi.h ****   public:
  33:../../libDaisy//src/per/qspi.h ****     enum Result
  34:../../libDaisy//src/per/qspi.h ****     {
  35:../../libDaisy//src/per/qspi.h ****         OK = 0,
  36:../../libDaisy//src/per/qspi.h ****         ERR
  37:../../libDaisy//src/per/qspi.h ****     };
  38:../../libDaisy//src/per/qspi.h **** 
  39:../../libDaisy//src/per/qspi.h ****     /** Indicates the current status of the module. 
  40:../../libDaisy//src/per/qspi.h ****          *  Warnings are indicated by a leading W.
  41:../../libDaisy//src/per/qspi.h ****          *  Errors are indicated by a leading E and cause an immediate exit.
  42:../../libDaisy//src/per/qspi.h ****          * 
  43:../../libDaisy//src/per/qspi.h ****          *  \param GOOD - No errors have been reported.
  44:../../libDaisy//src/per/qspi.h ****          *  \param E_HAL_ERROR - HAL code did not return HAL_OK.
  45:../../libDaisy//src/per/qspi.h ****          *  \param E_SWITCHING_MODES - An error was encountered while switching QSPI peripheral mod
  46:../../libDaisy//src/per/qspi.h ****          *  \param E_INVALID_MODE - QSPI should not be written to while the program is executing fr
  47:../../libDaisy//src/per/qspi.h ****          */
  48:../../libDaisy//src/per/qspi.h ****     enum Status
  49:../../libDaisy//src/per/qspi.h ****     {
  50:../../libDaisy//src/per/qspi.h ****         GOOD = 0,
  51:../../libDaisy//src/per/qspi.h ****         E_HAL_ERROR,
  52:../../libDaisy//src/per/qspi.h ****         E_SWITCHING_MODES,
  53:../../libDaisy//src/per/qspi.h ****         E_INVALID_MODE,
  54:../../libDaisy//src/per/qspi.h ****     };
  55:../../libDaisy//src/per/qspi.h **** 
  56:../../libDaisy//src/per/qspi.h ****     /** Configuration structure for interfacing with QSPI Driver */
  57:../../libDaisy//src/per/qspi.h ****     struct Config
  58:../../libDaisy//src/per/qspi.h ****     {
  59:../../libDaisy//src/per/qspi.h ****         /** Flash Devices supported. (Both of these are more-or-less the same, just different sizes
  60:../../libDaisy//src/per/qspi.h ****         enum Device
  61:../../libDaisy//src/per/qspi.h ****         {
  62:../../libDaisy//src/per/qspi.h ****             IS25LP080D,  /**< & */
  63:../../libDaisy//src/per/qspi.h ****             IS25LP064A,  /**< & */
  64:../../libDaisy//src/per/qspi.h ****             DEVICE_LAST, /**< & */
  65:../../libDaisy//src/per/qspi.h ****         };
  66:../../libDaisy//src/per/qspi.h **** 
  67:../../libDaisy//src/per/qspi.h ****         /** 
  68:../../libDaisy//src/per/qspi.h ****         Modes of operation.
  69:../../libDaisy//src/per/qspi.h ****         Memory Mapped mode: QSPI configured so that the QSPI can be
  70:../../libDaisy//src/per/qspi.h ****         read from starting address 0x90000000. Writing is not
  71:../../libDaisy//src/per/qspi.h ****         possible in this mode. \n 
  72:../../libDaisy//src/per/qspi.h ****         Indirect Polling mode: Device driver enabled. 
  73:../../libDaisy//src/per/qspi.h ****         */
  74:../../libDaisy//src/per/qspi.h ****         enum Mode
  75:../../libDaisy//src/per/qspi.h ****         {
  76:../../libDaisy//src/per/qspi.h ****             MEMORY_MAPPED,    /**< & */
  77:../../libDaisy//src/per/qspi.h ****             INDIRECT_POLLING, /**< & */
  78:../../libDaisy//src/per/qspi.h ****             MODE_LAST,
  79:../../libDaisy//src/per/qspi.h ****         };
  80:../../libDaisy//src/per/qspi.h **** 
ARM GAS  /var/folders/hl/qgbwny5j0fd895c2c41bk3tw0000gp/T//cchkzwyh.s 			page 118


  81:../../libDaisy//src/per/qspi.h ****         //SCK,  CE# (active low)
  82:../../libDaisy//src/per/qspi.h ****         struct
  83:../../libDaisy//src/per/qspi.h ****         {
  84:../../libDaisy//src/per/qspi.h ****             dsy_gpio_pin io0; /**< & */
  85:../../libDaisy//src/per/qspi.h ****             dsy_gpio_pin io1; /**< & */
  86:../../libDaisy//src/per/qspi.h ****             dsy_gpio_pin io2; /**< & */
  87:../../libDaisy//src/per/qspi.h ****             dsy_gpio_pin io3; /**< & */
  88:../../libDaisy//src/per/qspi.h ****             dsy_gpio_pin clk; /**< & */
  89:../../libDaisy//src/per/qspi.h ****             dsy_gpio_pin ncs; /**< & */
  90:../../libDaisy//src/per/qspi.h ****         } pin_config;
  91:../../libDaisy//src/per/qspi.h **** 
  92:../../libDaisy//src/per/qspi.h ****         Device device;
  93:../../libDaisy//src/per/qspi.h ****         Mode   mode;
  94:../../libDaisy//src/per/qspi.h ****     };
  95:../../libDaisy//src/per/qspi.h **** 
  96:../../libDaisy//src/per/qspi.h ****     /** 
  97:../../libDaisy//src/per/qspi.h ****         Initializes QSPI peripheral, and Resets, and prepares memory for access.
  98:../../libDaisy//src/per/qspi.h ****         \param config should be populated with the mode, device and pin_config before calling this 
  99:../../libDaisy//src/per/qspi.h ****         \return Result::OK or Result::ERR
 100:../../libDaisy//src/per/qspi.h ****         */
 101:../../libDaisy//src/per/qspi.h ****     Result Init(const Config& config);
 102:../../libDaisy//src/per/qspi.h **** 
 103:../../libDaisy//src/per/qspi.h ****     /** Returns the current config. */
 104:../../libDaisy//src/per/qspi.h ****     const Config& GetConfig() const;
 105:../../libDaisy//src/per/qspi.h **** 
 106:../../libDaisy//src/per/qspi.h ****     // Couldn't this just be called before anything else in init? That
 107:../../libDaisy//src/per/qspi.h ****     // would make manually calling it unnecessary.
 108:../../libDaisy//src/per/qspi.h ****     /** 
 109:../../libDaisy//src/per/qspi.h ****         Deinitializes the peripheral
 110:../../libDaisy//src/per/qspi.h ****         This should be called before reinitializing QSPI in a different mode.
 111:../../libDaisy//src/per/qspi.h ****         \return Result::OK or Result::ERR
 112:../../libDaisy//src/per/qspi.h ****         */
 113:../../libDaisy//src/per/qspi.h ****     Result DeInit();
 114:../../libDaisy//src/per/qspi.h **** 
 115:../../libDaisy//src/per/qspi.h ****     /** 
 116:../../libDaisy//src/per/qspi.h ****         Writes a single page to to the specified address on the QSPI chip.
 117:../../libDaisy//src/per/qspi.h ****         For IS25LP*, page size is 256 bytes.
 118:../../libDaisy//src/per/qspi.h ****         \param address Address to write to
 119:../../libDaisy//src/per/qspi.h ****         \param size Buffer size
 120:../../libDaisy//src/per/qspi.h ****         \param buffer Buffer to write
 121:../../libDaisy//src/per/qspi.h ****         \return Result::OK or Result::ERR
 122:../../libDaisy//src/per/qspi.h ****         */
 123:../../libDaisy//src/per/qspi.h ****     Result WritePage(uint32_t address, uint32_t size, uint8_t* buffer);
 124:../../libDaisy//src/per/qspi.h **** 
 125:../../libDaisy//src/per/qspi.h ****     /** 
 126:../../libDaisy//src/per/qspi.h ****         Writes data in buffer to to the QSPI. Starting at address to address+size 
 127:../../libDaisy//src/per/qspi.h ****         \param address Address to write to
 128:../../libDaisy//src/per/qspi.h ****         \param size Buffer size
 129:../../libDaisy//src/per/qspi.h ****         \param buffer Buffer to write
 130:../../libDaisy//src/per/qspi.h ****         \return Result::OK or Result::ERR
 131:../../libDaisy//src/per/qspi.h ****         */
 132:../../libDaisy//src/per/qspi.h ****     Result Write(uint32_t address, uint32_t size, uint8_t* buffer);
 133:../../libDaisy//src/per/qspi.h **** 
 134:../../libDaisy//src/per/qspi.h ****     /** 
 135:../../libDaisy//src/per/qspi.h ****         Erases the area specified on the chip.
 136:../../libDaisy//src/per/qspi.h ****         Erasures will happen by 4K, 32K or 64K increments.
 137:../../libDaisy//src/per/qspi.h ****         Smallest erase possible is 4kB at a time. (on IS25LP*)
ARM GAS  /var/folders/hl/qgbwny5j0fd895c2c41bk3tw0000gp/T//cchkzwyh.s 			page 119


 138:../../libDaisy//src/per/qspi.h ****         \param start_addr Address to begin erasing from
 139:../../libDaisy//src/per/qspi.h ****         \param end_addr  Address to stop erasing at
 140:../../libDaisy//src/per/qspi.h ****         \return Result::OK or Result::ERR
 141:../../libDaisy//src/per/qspi.h ****         */
 142:../../libDaisy//src/per/qspi.h ****     Result Erase(uint32_t start_addr, uint32_t end_addr);
 143:../../libDaisy//src/per/qspi.h **** 
 144:../../libDaisy//src/per/qspi.h ****     /**  
 145:../../libDaisy//src/per/qspi.h ****          Erases a single sector of the chip.  
 146:../../libDaisy//src/per/qspi.h ****         TODO: Document the size of this function. 
 147:../../libDaisy//src/per/qspi.h ****         \param address Address of sector to erase
 148:../../libDaisy//src/per/qspi.h ****         \return Result::OK or Result::ERR
 149:../../libDaisy//src/per/qspi.h ****         */
 150:../../libDaisy//src/per/qspi.h ****     Result EraseSector(uint32_t address);
 151:../../libDaisy//src/per/qspi.h **** 
 152:../../libDaisy//src/per/qspi.h ****     /** Returns the current class status. Useful for debugging.
 153:../../libDaisy//src/per/qspi.h ****      *  \returns Status
 154:../../libDaisy//src/per/qspi.h ****      */
 155:../../libDaisy//src/per/qspi.h ****     Status GetStatus();
 156:../../libDaisy//src/per/qspi.h **** 
 157:../../libDaisy//src/per/qspi.h ****     /** Returns a pointer to the actual memory used 
 158:../../libDaisy//src/per/qspi.h ****      *  The memory at this address is read-only
 159:../../libDaisy//src/per/qspi.h ****      *  to write to it use the Write function.
 160:../../libDaisy//src/per/qspi.h ****      * 
 161:../../libDaisy//src/per/qspi.h ****      *  \param offset returns the pointer starting this 
 162:../../libDaisy//src/per/qspi.h ****      *                many bytes into the memory
 163:../../libDaisy//src/per/qspi.h ****     */
 164:../../libDaisy//src/per/qspi.h ****     void* GetData(uint32_t offset = 0);
 165:../../libDaisy//src/per/qspi.h **** 
 166:../../libDaisy//src/per/qspi.h ****     QSPIHandle() : pimpl_(nullptr) {}
 3691              		.loc 12 166 5 is_stmt 1 view .LVU1140
 3692              	.LBE1056:
 3693              	.LBE1054:
 3694              	.LBE1053:
 3695              	.LBE1052:
 3696              	.LBE1051:
 3697              		.loc 10 25 1 is_stmt 0 view .LVU1141
 3698 0000 10B5     		push	{r4, lr}
 3699              		.cfi_def_cfa_offset 8
 3700              		.cfi_offset 4, -8
 3701              		.cfi_offset 14, -4
 3702              	.LBB1126:
 3703              	.LBB1123:
 3704              	.LBB1082:
 3705              	.LBB1079:
 3706              	.LBB1059:
 3707              	.LBB1057:
 3708              	.LBB1058:
 3709              		.loc 12 166 34 view .LVU1142
 3710 0002 1248     		ldr	r0, .L85
 3711 0004 0024     		movs	r4, #0
 3712              	.LBE1058:
 3713              	.LBE1057:
 3714              	.LBE1059:
 3715              	.LBE1079:
 3716              	.LBE1082:
  13:ili9341_ui_driver.hpp **** 
 3717              		.loc 8 13 17 view .LVU1143
ARM GAS  /var/folders/hl/qgbwny5j0fd895c2c41bk3tw0000gp/T//cchkzwyh.s 			page 120


 3718 0006 124A     		ldr	r2, .L85+4
 3719 0008 1249     		ldr	r1, .L85+8
 3720              	.LBB1083:
 3721              	.LBB1080:
 3722              	.LBB1060:
 3723              	.LBB1061:
 3724              	.LBB1062:
 3725              	.LBB1063:
 3726              	.LBB1064:
 3727              		.file 13 "../../libDaisy//src/per/i2c.h"
   1:../../libDaisy//src/per/i2c.h **** #pragma once
   2:../../libDaisy//src/per/i2c.h **** #include "daisy_core.h"
   3:../../libDaisy//src/per/i2c.h **** 
   4:../../libDaisy//src/per/i2c.h **** namespace daisy
   5:../../libDaisy//src/per/i2c.h **** {
   6:../../libDaisy//src/per/i2c.h **** /** A handle for interacting with an I2C peripheral. This is a dumb
   7:../../libDaisy//src/per/i2c.h ****  *  gateway that internally points to one of the four I2C peripherals
   8:../../libDaisy//src/per/i2c.h ****  *  after it was initialised. It can then be copied and passed around.
   9:../../libDaisy//src/per/i2c.h ****  *  Use an I2CHandle like this:
  10:../../libDaisy//src/per/i2c.h ****  *  
  11:../../libDaisy//src/per/i2c.h ****  *      // setup the configuration
  12:../../libDaisy//src/per/i2c.h ****  *      I2CHandle::Config i2c_conf;
  13:../../libDaisy//src/per/i2c.h ****  *      i2c_conf.periph = I2CHandle::Config::Peripheral::I2C_1;
  14:../../libDaisy//src/per/i2c.h ****  *      i2c_conf.speed  = I2CHandle::Config::Speed::I2C_400KHZ;
  15:../../libDaisy//src/per/i2c.h ****  *      i2c_conf.mode   = I2CHandle::Config::Mode::Master;
  16:../../libDaisy//src/per/i2c.h ****  *      i2c_conf.pin_config.scl  = {DSY_GPIOB, 8};
  17:../../libDaisy//src/per/i2c.h ****  *      i2c_conf.pin_config.sda  = {DSY_GPIOB, 9};
  18:../../libDaisy//src/per/i2c.h ****  *      // initialise the peripheral
  19:../../libDaisy//src/per/i2c.h ****  *      I2CHandle i2c;
  20:../../libDaisy//src/per/i2c.h ****  *      i2c.Init(i2c_conf);
  21:../../libDaisy//src/per/i2c.h ****  *      // now i2c points to the corresponding peripheral and can be used.
  22:../../libDaisy//src/per/i2c.h ****  *      i2c.TransmitBlocking( ... );
  23:../../libDaisy//src/per/i2c.h ****  */
  24:../../libDaisy//src/per/i2c.h **** class I2CHandle
  25:../../libDaisy//src/per/i2c.h **** {
  26:../../libDaisy//src/per/i2c.h ****   public:
  27:../../libDaisy//src/per/i2c.h ****     /** Contains settings for initialising an I2C interface. */
  28:../../libDaisy//src/per/i2c.h ****     struct Config
  29:../../libDaisy//src/per/i2c.h ****     {
  30:../../libDaisy//src/per/i2c.h ****         /** Specifies whether the interface will operate in master or slave mode. */
  31:../../libDaisy//src/per/i2c.h ****         enum class Mode
  32:../../libDaisy//src/per/i2c.h ****         {
  33:../../libDaisy//src/per/i2c.h ****             I2C_MASTER,
  34:../../libDaisy//src/per/i2c.h ****             I2C_SLAVE,
  35:../../libDaisy//src/per/i2c.h ****         };
  36:../../libDaisy//src/per/i2c.h **** 
  37:../../libDaisy//src/per/i2c.h ****         /** Specifices the internal peripheral to use (these are mapped to different pins on the ha
  38:../../libDaisy//src/per/i2c.h ****         enum class Peripheral
  39:../../libDaisy//src/per/i2c.h ****         {
  40:../../libDaisy//src/per/i2c.h ****             I2C_1 = 0, /**< & */
  41:../../libDaisy//src/per/i2c.h ****             I2C_2,     /**< & */
  42:../../libDaisy//src/per/i2c.h ****             I2C_3,     /**< & */
  43:../../libDaisy//src/per/i2c.h ****             I2C_4,     /**< & */
  44:../../libDaisy//src/per/i2c.h ****         };
  45:../../libDaisy//src/per/i2c.h **** 
  46:../../libDaisy//src/per/i2c.h ****         /** Rate at which the clock/data will be sent/received. The device being used will have max
  47:../../libDaisy//src/per/i2c.h ****          *  1MHZ Mode is currently 886kHz
ARM GAS  /var/folders/hl/qgbwny5j0fd895c2c41bk3tw0000gp/T//cchkzwyh.s 			page 121


  48:../../libDaisy//src/per/i2c.h ****          */
  49:../../libDaisy//src/per/i2c.h ****         enum class Speed
  50:../../libDaisy//src/per/i2c.h ****         {
  51:../../libDaisy//src/per/i2c.h ****             I2C_100KHZ, /**< & */
  52:../../libDaisy//src/per/i2c.h ****             I2C_400KHZ, /**< & */
  53:../../libDaisy//src/per/i2c.h ****             I2C_1MHZ,   /**< & */
  54:../../libDaisy//src/per/i2c.h ****         };
  55:../../libDaisy//src/per/i2c.h **** 
  56:../../libDaisy//src/per/i2c.h ****         Peripheral periph; /**< & */
  57:../../libDaisy//src/per/i2c.h ****         struct
  58:../../libDaisy//src/per/i2c.h ****         {
  59:../../libDaisy//src/per/i2c.h ****             dsy_gpio_pin scl; /**< & */
  60:../../libDaisy//src/per/i2c.h ****             dsy_gpio_pin sda; /**< & */
  61:../../libDaisy//src/per/i2c.h ****         } pin_config;         /**< & */
  62:../../libDaisy//src/per/i2c.h **** 
  63:../../libDaisy//src/per/i2c.h ****         Speed speed; /**< & */
  64:../../libDaisy//src/per/i2c.h ****         Mode  mode;  /**< & */
  65:../../libDaisy//src/per/i2c.h ****         // 0x10 is chosen as a default to avoid conflicts with reserved addresses
  66:../../libDaisy//src/per/i2c.h ****         uint8_t address = 0x10; /**< & */
  67:../../libDaisy//src/per/i2c.h ****     };
  68:../../libDaisy//src/per/i2c.h **** 
  69:../../libDaisy//src/per/i2c.h ****     /** Return values for I2C functions. */
  70:../../libDaisy//src/per/i2c.h ****     enum class Result
  71:../../libDaisy//src/per/i2c.h ****     {
  72:../../libDaisy//src/per/i2c.h ****         OK, /**< & */
  73:../../libDaisy//src/per/i2c.h ****         ERR /**< & */
  74:../../libDaisy//src/per/i2c.h ****     };
  75:../../libDaisy//src/per/i2c.h **** 
  76:../../libDaisy//src/per/i2c.h ****     enum class Direction
  77:../../libDaisy//src/per/i2c.h ****     {
  78:../../libDaisy//src/per/i2c.h ****         TRANSMIT, /**< & */
  79:../../libDaisy//src/per/i2c.h ****         RECEIVE,  /**< & */
  80:../../libDaisy//src/per/i2c.h ****     };
  81:../../libDaisy//src/per/i2c.h **** 
  82:../../libDaisy//src/per/i2c.h ****     I2CHandle() : pimpl_(nullptr) {}
 3728              		.loc 13 82 33 view .LVU1144
 3729 000a 0462     		str	r4, [r0, #32]
 3730              	.LBE1064:
 3731              	.LBE1063:
 3732              	.LBE1062:
 3733              	.LBE1061:
 3734              	.LBE1060:
 3735              	.LBB1067:
 3736              	.LBB1068:
 3737              	.LBB1069:
 3738              		.file 14 "../../libDaisy//src/per/dac.h"
   1:../../libDaisy//src/per/dac.h **** #pragma once
   2:../../libDaisy//src/per/dac.h **** #ifndef DSY_DAC_H
   3:../../libDaisy//src/per/dac.h **** #define DSY_DAC_H
   4:../../libDaisy//src/per/dac.h **** 
   5:../../libDaisy//src/per/dac.h **** #include "daisy_core.h"
   6:../../libDaisy//src/per/dac.h **** 
   7:../../libDaisy//src/per/dac.h **** namespace daisy
   8:../../libDaisy//src/per/dac.h **** {
   9:../../libDaisy//src/per/dac.h **** /** @brief DAC handle for Built-in DAC Peripheral 
  10:../../libDaisy//src/per/dac.h ****  *  @ingroup per_analog
  11:../../libDaisy//src/per/dac.h ****  ** 
ARM GAS  /var/folders/hl/qgbwny5j0fd895c2c41bk3tw0000gp/T//cchkzwyh.s 			page 122


  12:../../libDaisy//src/per/dac.h ****  ** For now only Normal Mode is supported,
  13:../../libDaisy//src/per/dac.h ****  ** Sample and hold mode provides reduced power consumption, but requires a bit more setup.
  14:../../libDaisy//src/per/dac.h ****  **
  15:../../libDaisy//src/per/dac.h ****  ** For now connecting the DAC through other internal peripherals is also not supported.
  16:../../libDaisy//src/per/dac.h ****  **
  17:../../libDaisy//src/per/dac.h ****  ** Since the DAC channels have dedicated pins we don't need to pass in a pin config like with
  18:../../libDaisy//src/per/dac.h ****  ** other modules. However, it is still important to not try to use the DAC pins for anything else.
  19:../../libDaisy//src/per/dac.h ****  ** DAC Channel 1 is on PA4, and DAC Channel 2 is on PA5
  20:../../libDaisy//src/per/dac.h ****  ***/
  21:../../libDaisy//src/per/dac.h **** class DacHandle
  22:../../libDaisy//src/per/dac.h **** {
  23:../../libDaisy//src/per/dac.h ****   public:
  24:../../libDaisy//src/per/dac.h ****     /** Return Values for the DacHandle class */
  25:../../libDaisy//src/per/dac.h ****     enum class Result
  26:../../libDaisy//src/per/dac.h ****     {
  27:../../libDaisy//src/per/dac.h ****         OK,
  28:../../libDaisy//src/per/dac.h ****         ERR,
  29:../../libDaisy//src/per/dac.h ****     };
  30:../../libDaisy//src/per/dac.h **** 
  31:../../libDaisy//src/per/dac.h ****     /** Selects which channel(s) will be configured for use. */
  32:../../libDaisy//src/per/dac.h ****     enum class Channel
  33:../../libDaisy//src/per/dac.h ****     {
  34:../../libDaisy//src/per/dac.h ****         ONE,
  35:../../libDaisy//src/per/dac.h ****         TWO,
  36:../../libDaisy//src/per/dac.h ****         BOTH,
  37:../../libDaisy//src/per/dac.h ****     };
  38:../../libDaisy//src/per/dac.h **** 
  39:../../libDaisy//src/per/dac.h ****     /** Sets the Mode for the DAC channels.
  40:../../libDaisy//src/per/dac.h ****      **
  41:../../libDaisy//src/per/dac.h ****      ** Polling mode uses the blocking mode to transmit a single value at a time.
  42:../../libDaisy//src/per/dac.h ****      **
  43:../../libDaisy//src/per/dac.h ****      ** DMA mode uses a buffer, and periodically transmits it triggering a 
  44:../../libDaisy//src/per/dac.h ****      ** callback to fill the buffer when it is ready for more samples.
  45:../../libDaisy//src/per/dac.h ****      ***/
  46:../../libDaisy//src/per/dac.h ****     enum class Mode
  47:../../libDaisy//src/per/dac.h ****     {
  48:../../libDaisy//src/per/dac.h ****         POLLING,
  49:../../libDaisy//src/per/dac.h ****         DMA,
  50:../../libDaisy//src/per/dac.h ****     };
  51:../../libDaisy//src/per/dac.h **** 
  52:../../libDaisy//src/per/dac.h ****     /** Sets the number of bits per sample transmitted out of the DAC.
  53:../../libDaisy//src/per/dac.h ****      ** The output range will be: 0V - VDDA
  54:../../libDaisy//src/per/dac.h ****      ** The resolution will be roughly: bitdepth / (VDDA - 0V) 
  55:../../libDaisy//src/per/dac.h ****      ***/
  56:../../libDaisy//src/per/dac.h ****     enum class BitDepth
  57:../../libDaisy//src/per/dac.h ****     {
  58:../../libDaisy//src/per/dac.h ****         BITS_8,
  59:../../libDaisy//src/per/dac.h ****         BITS_12
  60:../../libDaisy//src/per/dac.h ****     };
  61:../../libDaisy//src/per/dac.h **** 
  62:../../libDaisy//src/per/dac.h ****     /** Sets whether the DAC output is buffered for higher drive ability. */
  63:../../libDaisy//src/per/dac.h ****     enum class BufferState
  64:../../libDaisy//src/per/dac.h ****     {
  65:../../libDaisy//src/per/dac.h ****         ENABLED,
  66:../../libDaisy//src/per/dac.h ****         DISABLED,
  67:../../libDaisy//src/per/dac.h ****     };
  68:../../libDaisy//src/per/dac.h **** 
ARM GAS  /var/folders/hl/qgbwny5j0fd895c2c41bk3tw0000gp/T//cchkzwyh.s 			page 123


  69:../../libDaisy//src/per/dac.h ****     /** Configuration structure for initializing the DAC structure. */
  70:../../libDaisy//src/per/dac.h ****     struct Config
  71:../../libDaisy//src/per/dac.h ****     {
  72:../../libDaisy//src/per/dac.h ****         /** Target Samplerate in Hz used to configure the internal 
  73:../../libDaisy//src/per/dac.h ****          ** timebase for DMA mode. Does nothing in POLLING mode.
  74:../../libDaisy//src/per/dac.h ****          ** If the value is 0 at Init time this will default to 48000Hz 
  75:../../libDaisy//src/per/dac.h ****          ** otherwise the driver will attempt meet the target.*/
  76:../../libDaisy//src/per/dac.h ****         uint32_t target_samplerate;
  77:../../libDaisy//src/per/dac.h **** 
  78:../../libDaisy//src/per/dac.h ****         Channel     chn;
  79:../../libDaisy//src/per/dac.h ****         Mode        mode;
  80:../../libDaisy//src/per/dac.h ****         BitDepth    bitdepth;
  81:../../libDaisy//src/per/dac.h ****         BufferState buff_state;
  82:../../libDaisy//src/per/dac.h ****     };
  83:../../libDaisy//src/per/dac.h **** 
  84:../../libDaisy//src/per/dac.h ****     DacHandle() : pimpl_(nullptr) {}
 3739              		.loc 14 84 33 view .LVU1145
 3740 000c 8462     		str	r4, [r0, #40]
 3741              	.LBE1069:
 3742              	.LBE1068:
 3743              	.LBE1067:
 3744              	.LBB1070:
 3745              	.LBB1071:
 3746              	.LBB1072:
  95:../../libDaisy//src/hid/audio.h ****     ~AudioHandle() {}
 3747              		.loc 6 95 35 view .LVU1146
 3748 000e C0E90344 		strd	r4, r4, [r0, #12]
 3749              	.LVL263:
  95:../../libDaisy//src/hid/audio.h ****     ~AudioHandle() {}
 3750              		.loc 6 95 35 view .LVU1147
 3751              	.LBE1072:
 3752              	.LBE1071:
 3753              	.LBE1070:
 3754              	.LBB1073:
 3755              	.LBI1073:
  92:../../libDaisy//src/per/adc.h ****     ~AdcHandle() {}
 3756              		.loc 5 92 5 is_stmt 1 view .LVU1148
  92:../../libDaisy//src/per/adc.h ****     ~AdcHandle() {}
 3757              		.loc 5 92 5 is_stmt 0 view .LVU1149
 3758              	.LBE1073:
 3759              	.LBB1074:
 3760              	.LBI1074:
  40:../../libDaisy//src/hid/usb.h **** 
 3761              		.loc 4 40 5 is_stmt 1 view .LVU1150
  40:../../libDaisy//src/hid/usb.h **** 
 3762              		.loc 4 40 5 is_stmt 0 view .LVU1151
 3763              	.LBE1074:
 3764              	.LBB1075:
 3765              	.LBI1060:
  28:../../libDaisy//src/dev/codec_pcm3060.h ****     ~Pcm3060() {}
 3766              		.loc 3 28 5 is_stmt 1 view .LVU1152
 3767              	.LBB1066:
 3768              	.LBB1065:
 3769              	.LBI1062:
 3770              		.loc 13 82 5 view .LVU1153
 3771              		.loc 13 82 5 is_stmt 0 view .LVU1154
 3772              	.LBE1065:
ARM GAS  /var/folders/hl/qgbwny5j0fd895c2c41bk3tw0000gp/T//cchkzwyh.s 			page 124


 3773              	.LBE1066:
 3774              	.LBE1075:
 3775              	.LBB1076:
 3776              	.LBI1067:
 3777              		.loc 14 84 5 is_stmt 1 view .LVU1155
 3778              		.loc 14 84 5 is_stmt 0 view .LVU1156
 3779              	.LBE1076:
 3780              	.LBE1080:
 3781              	.LBE1083:
 3782              	.LBE1123:
 3783              	.LBE1126:
  64:../../libDaisy//src/daisy_patch_sm.h ****         ~DaisyPatchSM() {}
 3784              		.loc 1 64 24 is_stmt 1 view .LVU1157
 3785              	.LBB1127:
 3786              	.LBB1124:
 3787              	.LBB1084:
 3788              	.LBB1081:
 3789              	.LBB1077:
 3790              	.LBI1077:
  20:../../libDaisy//src/hid/gatein.h ****     /** GateIn~
 3791              		.loc 2 20 5 view .LVU1158
  20:../../libDaisy//src/hid/gatein.h ****     /** GateIn~
 3792              		.loc 2 20 5 is_stmt 0 view .LVU1159
 3793              	.LBE1077:
 3794              	.LBB1078:
 3795              	.LBI1078:
  20:../../libDaisy//src/hid/gatein.h ****     /** GateIn~
 3796              		.loc 2 20 5 is_stmt 1 view .LVU1160
  20:../../libDaisy//src/hid/gatein.h ****     /** GateIn~
 3797              		.loc 2 20 5 is_stmt 0 view .LVU1161
 3798              	.LBE1078:
 3799              	.LBE1081:
 3800              	.LBE1084:
  13:ili9341_ui_driver.hpp **** 
 3801              		.loc 8 13 17 view .LVU1162
 3802 0012 FFF7FEFF 		bl	__aeabi_atexit
 3803              	.LVL264:
 3804              	.LBB1085:
 3805              	.LBI1085:
  64:../../libDaisy//src/daisy_patch_sm.h ****         ~DaisyPatchSM() {}
 3806              		.loc 1 64 9 is_stmt 1 view .LVU1163
 3807              	.LBB1086:
 3808              	.LBB1087:
 3809              	.LBI1087:
  77:../../libDaisy//src/sys/system.h ****     ~System() {}
 3810              		.loc 7 77 5 view .LVU1164
  77:../../libDaisy//src/sys/system.h ****     ~System() {}
 3811              		.loc 7 77 5 is_stmt 0 view .LVU1165
 3812              	.LBE1087:
 3813              	.LBB1088:
 3814              	.LBI1088:
 3815              		.loc 12 166 5 is_stmt 1 view .LVU1166
 3816              	.LBB1089:
 3817              	.LBB1090:
 3818              		.loc 12 166 34 is_stmt 0 view .LVU1167
 3819 0016 1048     		ldr	r0, .L85+12
 3820              	.LBE1090:
ARM GAS  /var/folders/hl/qgbwny5j0fd895c2c41bk3tw0000gp/T//cchkzwyh.s 			page 125


 3821              	.LBE1089:
 3822              	.LBE1088:
 3823              	.LBE1086:
 3824              	.LBE1085:
   7:TFT_TEST.cpp  **** DaisyPatchSM hw;
 3825              		.loc 10 7 14 view .LVU1168
 3826 0018 0D4A     		ldr	r2, .L85+4
 3827 001a 0E49     		ldr	r1, .L85+8
 3828              	.LBB1112:
 3829              	.LBB1110:
 3830              	.LBB1091:
 3831              	.LBB1092:
 3832              	.LBB1093:
 3833              	.LBB1094:
 3834              	.LBB1095:
 3835              		.loc 13 82 33 view .LVU1169
 3836 001c 0462     		str	r4, [r0, #32]
 3837              	.LBE1095:
 3838              	.LBE1094:
 3839              	.LBE1093:
 3840              	.LBE1092:
 3841              	.LBE1091:
 3842              	.LBB1098:
 3843              	.LBB1099:
 3844              	.LBB1100:
 3845              		.loc 14 84 33 view .LVU1170
 3846 001e 8462     		str	r4, [r0, #40]
 3847              	.LBE1100:
 3848              	.LBE1099:
 3849              	.LBE1098:
 3850              	.LBB1101:
 3851              	.LBB1102:
 3852              	.LBB1103:
  95:../../libDaisy//src/hid/audio.h ****     ~AudioHandle() {}
 3853              		.loc 6 95 35 view .LVU1171
 3854 0020 C0E90344 		strd	r4, r4, [r0, #12]
 3855              	.LVL265:
  95:../../libDaisy//src/hid/audio.h ****     ~AudioHandle() {}
 3856              		.loc 6 95 35 view .LVU1172
 3857              	.LBE1103:
 3858              	.LBE1102:
 3859              	.LBE1101:
 3860              	.LBB1104:
 3861              	.LBI1104:
  92:../../libDaisy//src/per/adc.h ****     ~AdcHandle() {}
 3862              		.loc 5 92 5 is_stmt 1 view .LVU1173
  92:../../libDaisy//src/per/adc.h ****     ~AdcHandle() {}
 3863              		.loc 5 92 5 is_stmt 0 view .LVU1174
 3864              	.LBE1104:
 3865              	.LBB1105:
 3866              	.LBI1105:
  40:../../libDaisy//src/hid/usb.h **** 
 3867              		.loc 4 40 5 is_stmt 1 view .LVU1175
  40:../../libDaisy//src/hid/usb.h **** 
 3868              		.loc 4 40 5 is_stmt 0 view .LVU1176
 3869              	.LBE1105:
 3870              	.LBB1106:
ARM GAS  /var/folders/hl/qgbwny5j0fd895c2c41bk3tw0000gp/T//cchkzwyh.s 			page 126


 3871              	.LBI1091:
  28:../../libDaisy//src/dev/codec_pcm3060.h ****     ~Pcm3060() {}
 3872              		.loc 3 28 5 is_stmt 1 view .LVU1177
 3873              	.LBB1097:
 3874              	.LBB1096:
 3875              	.LBI1093:
 3876              		.loc 13 82 5 view .LVU1178
 3877              		.loc 13 82 5 is_stmt 0 view .LVU1179
 3878              	.LBE1096:
 3879              	.LBE1097:
 3880              	.LBE1106:
 3881              	.LBB1107:
 3882              	.LBI1098:
 3883              		.loc 14 84 5 is_stmt 1 view .LVU1180
 3884              		.loc 14 84 5 is_stmt 0 view .LVU1181
 3885              	.LBE1107:
 3886              	.LBE1110:
 3887              	.LBE1112:
 3888              	.LBE1124:
 3889              	.LBE1127:
  64:../../libDaisy//src/daisy_patch_sm.h ****         ~DaisyPatchSM() {}
 3890              		.loc 1 64 24 is_stmt 1 view .LVU1182
 3891              	.LBB1128:
 3892              	.LBB1125:
 3893              	.LBB1113:
 3894              	.LBB1111:
 3895              	.LBB1108:
 3896              	.LBI1108:
  20:../../libDaisy//src/hid/gatein.h ****     /** GateIn~
 3897              		.loc 2 20 5 view .LVU1183
  20:../../libDaisy//src/hid/gatein.h ****     /** GateIn~
 3898              		.loc 2 20 5 is_stmt 0 view .LVU1184
 3899              	.LBE1108:
 3900              	.LBB1109:
 3901              	.LBI1109:
  20:../../libDaisy//src/hid/gatein.h ****     /** GateIn~
 3902              		.loc 2 20 5 is_stmt 1 view .LVU1185
  20:../../libDaisy//src/hid/gatein.h ****     /** GateIn~
 3903              		.loc 2 20 5 is_stmt 0 view .LVU1186
 3904              	.LBE1109:
 3905              	.LBE1111:
 3906              	.LBE1113:
   7:TFT_TEST.cpp  **** DaisyPatchSM hw;
 3907              		.loc 10 7 14 view .LVU1187
 3908 0024 FFF7FEFF 		bl	__aeabi_atexit
 3909              	.LVL266:
 3910              	.LBB1114:
 3911              	.LBI1114:
 315:ili9341_ui_driver.hpp **** {
 3912              		.loc 8 315 7 is_stmt 1 view .LVU1188
 3913              	.LBB1115:
 3914              	.LBB1116:
 3915              	.LBI1116:
  55:ili9341_ui_driver.hpp **** {
 3916              		.loc 8 55 7 view .LVU1189
 3917              	.LBB1117:
 3918 0028 0C4B     		ldr	r3, .L85+16
ARM GAS  /var/folders/hl/qgbwny5j0fd895c2c41bk3tw0000gp/T//cchkzwyh.s 			page 127


 3919 002a 4FF44840 		mov	r0, #51200
 3920              	.LBE1117:
 3921              	.LBE1116:
 315:ili9341_ui_driver.hpp **** {
 3922              		.loc 8 315 7 is_stmt 0 view .LVU1190
 3923 002e 1421     		movs	r1, #20
 3924 0030 0D22     		movs	r2, #13
 3925              	.LBB1122:
 3926              	.LBB1121:
  55:ili9341_ui_driver.hpp **** {
 3927              		.loc 8 55 7 view .LVU1191
 3928 0032 1C73     		strb	r4, [r3, #12]
 3929 0034 1C61     		str	r4, [r3, #16]
 3930 0036 9882     		strh	r0, [r3, #20]	@ movhi
 3931              	.LVL267:
 3932              	.LBB1118:
 3933              	.LBI1118:
  94:../../libDaisy//src/per/spi.h ****         }
  95:../../libDaisy//src/per/spi.h **** 
  96:../../libDaisy//src/per/spi.h ****         Peripheral    periph;
  97:../../libDaisy//src/per/spi.h ****         Mode          mode;
  98:../../libDaisy//src/per/spi.h ****         Direction     direction;
  99:../../libDaisy//src/per/spi.h ****         unsigned long datasize;
 100:../../libDaisy//src/per/spi.h ****         ClockPolarity clock_polarity;
 101:../../libDaisy//src/per/spi.h ****         ClockPhase    clock_phase;
 102:../../libDaisy//src/per/spi.h ****         NSS           nss;
 103:../../libDaisy//src/per/spi.h ****         BaudPrescaler baud_prescaler;
 104:../../libDaisy//src/per/spi.h ****     };
 105:../../libDaisy//src/per/spi.h **** 
 106:../../libDaisy//src/per/spi.h ****     SpiHandle() : pimpl_(nullptr) {}
 3934              		.loc 9 106 5 is_stmt 1 view .LVU1192
 3935              	.LBB1119:
 3936              	.LBB1120:
 3937              		.loc 9 106 33 is_stmt 0 view .LVU1193
 3938 0038 9C61     		str	r4, [r3, #24]
 3939              	.LVL268:
 3940              		.loc 9 106 33 view .LVU1194
 3941              	.LBE1120:
 3942              	.LBE1119:
 3943              	.LBE1118:
 3944              	.LBE1121:
 3945              	.LBE1122:
 315:ili9341_ui_driver.hpp **** {
 3946              		.loc 8 315 7 view .LVU1195
 3947 003a 83F85910 		strb	r1, [r3, #89]
 3948 003e 83F85A20 		strb	r2, [r3, #90]
 3949 0042 A3F86040 		strh	r4, [r3, #96]	@ movhi
 3950 0046 A3F86640 		strh	r4, [r3, #102]	@ movhi
 3951              	.LVL269:
 315:ili9341_ui_driver.hpp **** {
 3952              		.loc 8 315 7 view .LVU1196
 3953              	.LBE1115:
 3954              	.LBE1114:
 3955              	.LBE1125:
 3956              	.LBE1128:
 3957              		.loc 10 25 1 view .LVU1197
 3958 004a 10BD     		pop	{r4, pc}
ARM GAS  /var/folders/hl/qgbwny5j0fd895c2c41bk3tw0000gp/T//cchkzwyh.s 			page 128


 3959              	.L86:
 3960              		.align	2
 3961              	.L85:
 3962 004c 00000000 		.word	.LANCHOR0
 3963 0050 00000000 		.word	__dso_handle
 3964 0054 00000000 		.word	_ZN5daisy8patch_sm12DaisyPatchSMD1Ev
 3965 0058 00000000 		.word	.LANCHOR2
 3966 005c 00000000 		.word	.LANCHOR3
 3967              		.cfi_endproc
 3968              	.LFE2619:
 3970              		.section	.init_array,"aw",%init_array
 3971              		.align	2
 3972 0000 00000000 		.word	_GLOBAL__sub_I_psm(target1)
 3973              		.global	driver
 3974              		.global	hw
 3975              		.global	_ZN19ILI9341SpiTransport9color_memE
 3976              		.global	_ZN19ILI9341SpiTransport12frame_bufferE
 3977              		.global	psm
 3978              		.section	.rodata
 3979              		.align	2
 3980              		.set	.LANCHOR1,. + 0
 3981              	.LC0:
 3982 0000 392C0034 		.ascii	"9,\0004\002"
 3982      02
 3983 0005 000000   		.space	3
 3984              	.LC1:
 3985 0008 00C130   		.ascii	"\000\3010"
 3986 000b 00       		.space	1
 3987              	.LC2:
 3988 000c 850078   		.ascii	"\205\000x"
 3989 000f 00       		.space	1
 3990              	.LC5:
 3991 0010 000E1403 		.ascii	"\000\016\024\003\021\0071\301H\010\017\01416\017"
 3991      110731C1 
 3991      48080F0C 
 3991      31360F
 3992              		.section	.bss.driver,"aw",%nobits
 3993              		.align	2
 3994              		.set	.LANCHOR3,. + 0
 3997              	driver:
 3998 0000 00000000 		.space	104
 3998      00000000 
 3998      00000000 
 3998      00000000 
 3998      00000000 
 3999              		.section	.bss.hw,"aw",%nobits
 4000              		.align	2
 4001              		.set	.LANCHOR2,. + 0
 4004              	hw:
 4005 0000 00000000 		.space	464
 4005      00000000 
 4005      00000000 
 4005      00000000 
 4005      00000000 
 4006              		.section	.bss.psm,"aw",%nobits
 4007              		.align	2
 4008              		.set	.LANCHOR0,. + 0
ARM GAS  /var/folders/hl/qgbwny5j0fd895c2c41bk3tw0000gp/T//cchkzwyh.s 			page 129


 4011              	psm:
 4012 0000 00000000 		.space	464
 4012      00000000 
 4012      00000000 
 4012      00000000 
 4012      00000000 
 4013              		.section	.sdram_bss,"aw"
 4014              		.align	2
 4017              	_ZN19ILI9341SpiTransport9color_memE:
 4018 0000 00000000 		.space	76800
 4018      00000000 
 4018      00000000 
 4018      00000000 
 4018      00000000 
 4019              		.section	.sram1_bss,"aw"
 4020              		.align	2
 4023              	_ZN19ILI9341SpiTransport12frame_bufferE:
 4024 0000 00000000 		.space	153600
 4024      00000000 
 4024      00000000 
 4024      00000000 
 4024      00000000 
 4025              		.text
 4026              	.Letext0:
 4027              		.file 15 "/opt/homebrew/Cellar/arm-none-eabi-gcc/10.3-2021.07/gcc/arm-none-eabi/include/machine/_d
 4028              		.file 16 "/opt/homebrew/Cellar/arm-none-eabi-gcc/10.3-2021.07/gcc/arm-none-eabi/include/sys/_stdin
 4029              		.file 17 "/opt/homebrew/Cellar/arm-none-eabi-gcc/10.3-2021.07/gcc/arm-none-eabi/include/stdint.h"
 4030              		.file 18 "/opt/homebrew/Cellar/arm-none-eabi-gcc/10.3-2021.07/gcc/lib/gcc/arm-none-eabi/10.3.1/inc
 4031              		.file 19 "/opt/homebrew/Cellar/arm-none-eabi-gcc/10.3-2021.07/gcc/arm-none-eabi/include/c++/10.3.1
 4032              		.file 20 "/opt/homebrew/Cellar/arm-none-eabi-gcc/10.3-2021.07/gcc/arm-none-eabi/include/c++/10.3.1
 4033              		.file 21 "/opt/homebrew/Cellar/arm-none-eabi-gcc/10.3-2021.07/gcc/arm-none-eabi/include/c++/10.3.1
 4034              		.file 22 "/opt/homebrew/Cellar/arm-none-eabi-gcc/10.3-2021.07/gcc/arm-none-eabi/include/c++/10.3.1
 4035              		.file 23 "/opt/homebrew/Cellar/arm-none-eabi-gcc/10.3-2021.07/gcc/arm-none-eabi/include/c++/10.3.1
 4036              		.file 24 "/opt/homebrew/Cellar/arm-none-eabi-gcc/10.3-2021.07/gcc/arm-none-eabi/include/c++/10.3.1
 4037              		.file 25 "/opt/homebrew/Cellar/arm-none-eabi-gcc/10.3-2021.07/gcc/arm-none-eabi/include/c++/10.3.1
 4038              		.file 26 "/opt/homebrew/Cellar/arm-none-eabi-gcc/10.3-2021.07/gcc/arm-none-eabi/include/c++/10.3.1
 4039              		.file 27 "/opt/homebrew/Cellar/arm-none-eabi-gcc/10.3-2021.07/gcc/arm-none-eabi/include/c++/10.3.1
 4040              		.file 28 "/opt/homebrew/Cellar/arm-none-eabi-gcc/10.3-2021.07/gcc/arm-none-eabi/include/c++/10.3.1
 4041              		.file 29 "/opt/homebrew/Cellar/arm-none-eabi-gcc/10.3-2021.07/gcc/arm-none-eabi/include/c++/10.3.1
 4042              		.file 30 "/opt/homebrew/Cellar/arm-none-eabi-gcc/10.3-2021.07/gcc/arm-none-eabi/include/c++/10.3.1
 4043              		.file 31 "/opt/homebrew/Cellar/arm-none-eabi-gcc/10.3-2021.07/gcc/arm-none-eabi/include/c++/10.3.1
 4044              		.file 32 "/opt/homebrew/Cellar/arm-none-eabi-gcc/10.3-2021.07/gcc/arm-none-eabi/include/c++/10.3.1
 4045              		.file 33 "/opt/homebrew/Cellar/arm-none-eabi-gcc/10.3-2021.07/gcc/arm-none-eabi/include/sys/_types
 4046              		.file 34 "/opt/homebrew/Cellar/arm-none-eabi-gcc/10.3-2021.07/gcc/arm-none-eabi/include/sys/reent.
 4047              		.file 35 "/opt/homebrew/Cellar/arm-none-eabi-gcc/10.3-2021.07/gcc/arm-none-eabi/include/sys/lock.h
 4048              		.file 36 "/opt/homebrew/Cellar/arm-none-eabi-gcc/10.3-2021.07/gcc/arm-none-eabi/include/math.h"
 4049              		.file 37 "/opt/homebrew/Cellar/arm-none-eabi-gcc/10.3-2021.07/gcc/arm-none-eabi/include/stdlib.h"
 4050              		.file 38 "/opt/homebrew/Cellar/arm-none-eabi-gcc/10.3-2021.07/gcc/arm-none-eabi/include/c++/10.3.1
 4051              		.file 39 "/opt/homebrew/Cellar/arm-none-eabi-gcc/10.3-2021.07/gcc/arm-none-eabi/include/c++/10.3.1
 4052              		.file 40 "../../libDaisy//src/daisy_core.h"
 4053              		.file 41 "../../libDaisy//src/per/tim.h"
 4054              		.file 42 "../../libDaisy//src/per/sai.h"
 4055              		.file 43 "../../libDaisy//src/hid/ctrl.h"
 4056              		.file 44 "../../libDaisy//src/util/wav_format.h"
 4057              		.file 45 "../../libDaisy//src/dev/max11300.h"
 4058              		.file 46 "../../libDaisy//src/daisy_seed.h"
 4059              		.file 47 "../../libDaisy//src/per/gpio.h"
ARM GAS  /var/folders/hl/qgbwny5j0fd895c2c41bk3tw0000gp/T//cchkzwyh.s 			page 130


 4060              		.file 48 "../../libDaisy//src/dev/sdram.h"
 4061              		.file 49 "/opt/homebrew/Cellar/arm-none-eabi-gcc/10.3-2021.07/gcc/lib/gcc/arm-none-eabi/10.3.1/inc
 4062              		.file 50 "/opt/homebrew/Cellar/arm-none-eabi-gcc/10.3-2021.07/gcc/arm-none-eabi/include/stdio.h"
 4063              		.file 51 "../../libDaisy//src/util/oled_fonts.h"
 4064              		.file 52 "/opt/homebrew/Cellar/arm-none-eabi-gcc/10.3-2021.07/gcc/arm-none-eabi/include/string.h"
 4065              		.file 53 "ili9341_ui_driver.cpp"
 4066              		.file 54 "../../libDaisy//src/dev/sr_595.h"
 4067              		.file 55 "<built-in>"
ARM GAS  /var/folders/hl/qgbwny5j0fd895c2c41bk3tw0000gp/T//cchkzwyh.s 			page 131


DEFINED SYMBOLS
                            *ABS*:0000000000000000 TFT_TEST.cpp
/var/folders/hl/qgbwny5j0fd895c2c41bk3tw0000gp/T//cchkzwyh.s:17     .text._ZN5daisy8patch_sm12DaisyPatchSMD2Ev:0000000000000000 $t
/var/folders/hl/qgbwny5j0fd895c2c41bk3tw0000gp/T//cchkzwyh.s:26     .text._ZN5daisy8patch_sm12DaisyPatchSMD2Ev:0000000000000000 _ZN5daisy8patch_sm12DaisyPatchSMD2Ev
/var/folders/hl/qgbwny5j0fd895c2c41bk3tw0000gp/T//cchkzwyh.s:26     .text._ZN5daisy8patch_sm12DaisyPatchSMD2Ev:0000000000000000 _ZN5daisy8patch_sm12DaisyPatchSMD1Ev
/var/folders/hl/qgbwny5j0fd895c2c41bk3tw0000gp/T//cchkzwyh.s:84     .text._ZN19ILI9341SpiTransport18TxCompleteCallbackEPvN5daisy9SpiHandle6ResultE:0000000000000000 $t
/var/folders/hl/qgbwny5j0fd895c2c41bk3tw0000gp/T//cchkzwyh.s:92     .text._ZN19ILI9341SpiTransport18TxCompleteCallbackEPvN5daisy9SpiHandle6ResultE:0000000000000000 _ZN19ILI9341SpiTransport18TxCompleteCallbackEPvN5daisy9SpiHandle6ResultE
/var/folders/hl/qgbwny5j0fd895c2c41bk3tw0000gp/T//cchkzwyh.s:253    .text._ZN19ILI9341SpiTransport18TxCompleteCallbackEPvN5daisy9SpiHandle6ResultE:000000000000004c $d
/var/folders/hl/qgbwny5j0fd895c2c41bk3tw0000gp/T//cchkzwyh.s:4023   .sram1_bss:0000000000000000 _ZN19ILI9341SpiTransport12frame_bufferE
/var/folders/hl/qgbwny5j0fd895c2c41bk3tw0000gp/T//cchkzwyh.s:259    .rodata._ZN8UiDriver10InitDriverEv.str1.4:0000000000000000 $d
/var/folders/hl/qgbwny5j0fd895c2c41bk3tw0000gp/T//cchkzwyh.s:266    .text._ZN8UiDriver10InitDriverEv:0000000000000000 $t
/var/folders/hl/qgbwny5j0fd895c2c41bk3tw0000gp/T//cchkzwyh.s:274    .text._ZN8UiDriver10InitDriverEv:0000000000000000 _ZN8UiDriver10InitDriverEv
/var/folders/hl/qgbwny5j0fd895c2c41bk3tw0000gp/T//cchkzwyh.s:1513   .text._ZN8UiDriver10InitDriverEv:00000000000003ec $d
/var/folders/hl/qgbwny5j0fd895c2c41bk3tw0000gp/T//cchkzwyh.s:1526   .text._ZN8UiDriver10InitDriverEv:0000000000000400 $t
/var/folders/hl/qgbwny5j0fd895c2c41bk3tw0000gp/T//cchkzwyh.s:1937   .text._ZN8UiDriver10InitDriverEv:0000000000000564 $d
/var/folders/hl/qgbwny5j0fd895c2c41bk3tw0000gp/T//cchkzwyh.s:1942   .text._ZN8UiDriver8DrawLineEjjjjhh:0000000000000000 $t
/var/folders/hl/qgbwny5j0fd895c2c41bk3tw0000gp/T//cchkzwyh.s:1950   .text._ZN8UiDriver8DrawLineEjjjjhh:0000000000000000 _ZN8UiDriver8DrawLineEjjjjhh
/var/folders/hl/qgbwny5j0fd895c2c41bk3tw0000gp/T//cchkzwyh.s:2970   .text._ZN8UiDriver8DrawLineEjjjjhh:0000000000000328 $d
/var/folders/hl/qgbwny5j0fd895c2c41bk3tw0000gp/T//cchkzwyh.s:4017   .sdram_bss:0000000000000000 _ZN19ILI9341SpiTransport9color_memE
/var/folders/hl/qgbwny5j0fd895c2c41bk3tw0000gp/T//cchkzwyh.s:2977   .text.startup.main:0000000000000000 $t
/var/folders/hl/qgbwny5j0fd895c2c41bk3tw0000gp/T//cchkzwyh.s:2985   .text.startup.main:0000000000000000 main
/var/folders/hl/qgbwny5j0fd895c2c41bk3tw0000gp/T//cchkzwyh.s:3644   .text.startup.main:00000000000001c8 $d
/var/folders/hl/qgbwny5j0fd895c2c41bk3tw0000gp/T//cchkzwyh.s:3661   .text.startup._GLOBAL__sub_I_psm:0000000000000000 $t
/var/folders/hl/qgbwny5j0fd895c2c41bk3tw0000gp/T//cchkzwyh.s:3668   .text.startup._GLOBAL__sub_I_psm:0000000000000000 _GLOBAL__sub_I_psm
/var/folders/hl/qgbwny5j0fd895c2c41bk3tw0000gp/T//cchkzwyh.s:3962   .text.startup._GLOBAL__sub_I_psm:000000000000004c $d
/var/folders/hl/qgbwny5j0fd895c2c41bk3tw0000gp/T//cchkzwyh.s:3971   .init_array:0000000000000000 $d
/var/folders/hl/qgbwny5j0fd895c2c41bk3tw0000gp/T//cchkzwyh.s:3997   .bss.driver:0000000000000000 driver
/var/folders/hl/qgbwny5j0fd895c2c41bk3tw0000gp/T//cchkzwyh.s:4004   .bss.hw:0000000000000000 hw
/var/folders/hl/qgbwny5j0fd895c2c41bk3tw0000gp/T//cchkzwyh.s:4011   .bss.psm:0000000000000000 psm
/var/folders/hl/qgbwny5j0fd895c2c41bk3tw0000gp/T//cchkzwyh.s:3979   .rodata:0000000000000000 $d
/var/folders/hl/qgbwny5j0fd895c2c41bk3tw0000gp/T//cchkzwyh.s:3993   .bss.driver:0000000000000000 $d
/var/folders/hl/qgbwny5j0fd895c2c41bk3tw0000gp/T//cchkzwyh.s:4000   .bss.hw:0000000000000000 $d
/var/folders/hl/qgbwny5j0fd895c2c41bk3tw0000gp/T//cchkzwyh.s:4007   .bss.psm:0000000000000000 $d
/var/folders/hl/qgbwny5j0fd895c2c41bk3tw0000gp/T//cchkzwyh.s:4014   .sdram_bss:0000000000000000 $d
/var/folders/hl/qgbwny5j0fd895c2c41bk3tw0000gp/T//cchkzwyh.s:4020   .sram1_bss:0000000000000000 $d
                           .group:0000000000000000 _ZN5daisy8patch_sm12DaisyPatchSMD5Ev

UNDEFINED SYMBOLS
dsy_gpio_write
_ZN5daisy9SpiHandle11DmaTransmitEPhjPFvPvEPFvS2_NS0_6ResultEES2_
_ZN5daisy8patch_sm12DaisyPatchSM6GetPinENS1_7PinBankEi
dsy_gpio_init
_ZN5daisy9SpiHandle4InitERKNS0_6ConfigE
_ZN5daisy6System5DelayEm
_ZN5daisy9SpiHandle16BlockingTransmitEPhjm
_ZN5daisy8patch_sm12DaisyPatchSM4InitEv
_ZN5daisy6System6GetNowEv
__aeabi_atexit
__dso_handle
