ARM GAS  /var/folders/hl/qgbwny5j0fd895c2c41bk3tw0000gp/T//ccEG44Zu.s 			page 1


   1              		.cpu cortex-m7
   2              		.arch armv7e-m
   3              		.fpu fpv5-d16
   4              		.eabi_attribute 28, 1
   5              		.eabi_attribute 20, 1
   6              		.eabi_attribute 21, 1
   7              		.eabi_attribute 23, 3
   8              		.eabi_attribute 24, 1
   9              		.eabi_attribute 25, 1
  10              		.eabi_attribute 26, 1
  11              		.eabi_attribute 30, 2
  12              		.eabi_attribute 34, 1
  13              		.eabi_attribute 18, 4
  14              		.file	"Interesting.cpp"
  15              		.text
  16              	.Ltext0:
  17              		.cfi_sections	.debug_frame
  18              		.section	.text._ZN5daisy6SwitchD2Ev,"axG",%progbits,_ZN5daisy6SwitchD5Ev,comdat
  19              		.align	1
  20              		.p2align 2,,3
  21              		.weak	_ZN5daisy6SwitchD2Ev
  22              		.syntax unified
  23              		.thumb
  24              		.thumb_func
  26              	_ZN5daisy6SwitchD2Ev:
  27              	.LVL0:
  28              	.LFB1606:
  29              		.file 1 "../../libDaisy//src/hid/switch.h"
   1:../../libDaisy//src/hid/switch.h **** #pragma once
   2:../../libDaisy//src/hid/switch.h **** #ifndef DSY_SWITCH_H
   3:../../libDaisy//src/hid/switch.h **** #define DSY_SWITCH_H
   4:../../libDaisy//src/hid/switch.h **** #include "daisy_core.h"
   5:../../libDaisy//src/hid/switch.h **** #include "per/gpio.h"
   6:../../libDaisy//src/hid/switch.h **** #include "sys/system.h"
   7:../../libDaisy//src/hid/switch.h **** 
   8:../../libDaisy//src/hid/switch.h **** namespace daisy
   9:../../libDaisy//src/hid/switch.h **** {
  10:../../libDaisy//src/hid/switch.h **** /** 
  11:../../libDaisy//src/hid/switch.h ****     Generic Class for handling momentary/latching switches \n 
  12:../../libDaisy//src/hid/switch.h ****     Inspired/influenced by Mutable Instruments (pichenettes) Switch classes
  13:../../libDaisy//src/hid/switch.h ****     @author Stephen Hensley
  14:../../libDaisy//src/hid/switch.h ****     @date December 2019
  15:../../libDaisy//src/hid/switch.h ****     @ingroup controls
  16:../../libDaisy//src/hid/switch.h **** */
  17:../../libDaisy//src/hid/switch.h **** class Switch
  18:../../libDaisy//src/hid/switch.h **** {
  19:../../libDaisy//src/hid/switch.h ****   public:
  20:../../libDaisy//src/hid/switch.h ****     /** Specifies the expected behavior of the switch */
  21:../../libDaisy//src/hid/switch.h ****     enum Type
  22:../../libDaisy//src/hid/switch.h ****     {
  23:../../libDaisy//src/hid/switch.h ****         TYPE_TOGGLE,    /**< & */
  24:../../libDaisy//src/hid/switch.h ****         TYPE_MOMENTARY, /**< & */
  25:../../libDaisy//src/hid/switch.h ****     };
  26:../../libDaisy//src/hid/switch.h ****     /** Specifies whether the pressed is HIGH or LOW. */
  27:../../libDaisy//src/hid/switch.h ****     enum Polarity
  28:../../libDaisy//src/hid/switch.h ****     {
  29:../../libDaisy//src/hid/switch.h ****         POLARITY_NORMAL,   /**< & */
ARM GAS  /var/folders/hl/qgbwny5j0fd895c2c41bk3tw0000gp/T//ccEG44Zu.s 			page 2


  30:../../libDaisy//src/hid/switch.h ****         POLARITY_INVERTED, /**< & */
  31:../../libDaisy//src/hid/switch.h ****     };
  32:../../libDaisy//src/hid/switch.h **** 
  33:../../libDaisy//src/hid/switch.h ****     /** Specifies whether to use built-in Pull Up/Down resistors to hold button at a given state wh
  34:../../libDaisy//src/hid/switch.h ****     enum Pull
  35:../../libDaisy//src/hid/switch.h ****     {
  36:../../libDaisy//src/hid/switch.h ****         PULL_UP,   /**< & */
  37:../../libDaisy//src/hid/switch.h ****         PULL_DOWN, /**< & */
  38:../../libDaisy//src/hid/switch.h ****         PULL_NONE, /**< & */
  39:../../libDaisy//src/hid/switch.h ****     };
  40:../../libDaisy//src/hid/switch.h **** 
  41:../../libDaisy//src/hid/switch.h ****     Switch() {}
  42:../../libDaisy//src/hid/switch.h ****     ~Switch() {}
  30              		.loc 1 42 5 view -0
  31              		.cfi_startproc
  32              		@ args = 0, pretend = 0, frame = 0
  33              		@ frame_needed = 0, uses_anonymous_args = 0
  34              		@ link register save eliminated.
  35              		.loc 1 42 16 is_stmt 0 view .LVU1
  36 0000 7047     		bx	lr
  37              		.cfi_endproc
  38              	.LFE1606:
  40              		.weak	_ZN5daisy6SwitchD1Ev
  41              		.thumb_set _ZN5daisy6SwitchD1Ev,_ZN5daisy6SwitchD2Ev
  42 0002 00BF     		.section	.text._ZN5daisy8patch_sm12DaisyPatchSMD2Ev,"axG",%progbits,_ZN5daisy8patch_sm12DaisyPatch
  43              		.align	1
  44              		.p2align 2,,3
  45              		.weak	_ZN5daisy8patch_sm12DaisyPatchSMD2Ev
  46              		.syntax unified
  47              		.thumb
  48              		.thumb_func
  50              	_ZN5daisy8patch_sm12DaisyPatchSMD2Ev:
  51              	.LVL1:
  52              	.LFB2529:
  53              		.file 2 "../../libDaisy//src/daisy_patch_sm.h"
   1:../../libDaisy//src/daisy_patch_sm.h **** #pragma once
   2:../../libDaisy//src/daisy_patch_sm.h **** 
   3:../../libDaisy//src/daisy_patch_sm.h **** #include "daisy.h"
   4:../../libDaisy//src/daisy_patch_sm.h **** 
   5:../../libDaisy//src/daisy_patch_sm.h **** namespace daisy
   6:../../libDaisy//src/daisy_patch_sm.h **** {
   7:../../libDaisy//src/daisy_patch_sm.h **** namespace patch_sm
   8:../../libDaisy//src/daisy_patch_sm.h **** {
   9:../../libDaisy//src/daisy_patch_sm.h ****     /** Accessors for the Analog Controls. 
  10:../../libDaisy//src/daisy_patch_sm.h ****      *  These cover the 8x Bipolar CV inputs
  11:../../libDaisy//src/daisy_patch_sm.h ****      *  as well as the 4x 0-3V3 ADC inputs on
  12:../../libDaisy//src/daisy_patch_sm.h ****      *  the hardware 
  13:../../libDaisy//src/daisy_patch_sm.h ****      * 
  14:../../libDaisy//src/daisy_patch_sm.h ****      *  When reading a value with DaisyPatchSM::GetAdcValue()
  15:../../libDaisy//src/daisy_patch_sm.h ****      * 
  16:../../libDaisy//src/daisy_patch_sm.h ****      *  patch.GetAdcValue(patch_sm::CV_1);
  17:../../libDaisy//src/daisy_patch_sm.h ****      */
  18:../../libDaisy//src/daisy_patch_sm.h ****     enum
  19:../../libDaisy//src/daisy_patch_sm.h ****     {
  20:../../libDaisy//src/daisy_patch_sm.h ****         CV_1 = 0,
  21:../../libDaisy//src/daisy_patch_sm.h ****         CV_2,
  22:../../libDaisy//src/daisy_patch_sm.h ****         CV_3,
ARM GAS  /var/folders/hl/qgbwny5j0fd895c2c41bk3tw0000gp/T//ccEG44Zu.s 			page 3


  23:../../libDaisy//src/daisy_patch_sm.h ****         CV_4,
  24:../../libDaisy//src/daisy_patch_sm.h ****         CV_5,
  25:../../libDaisy//src/daisy_patch_sm.h ****         CV_6,
  26:../../libDaisy//src/daisy_patch_sm.h ****         CV_7,
  27:../../libDaisy//src/daisy_patch_sm.h ****         CV_8,
  28:../../libDaisy//src/daisy_patch_sm.h ****         ADC_9,
  29:../../libDaisy//src/daisy_patch_sm.h ****         ADC_10,
  30:../../libDaisy//src/daisy_patch_sm.h ****         ADC_11,
  31:../../libDaisy//src/daisy_patch_sm.h ****         ADC_12,
  32:../../libDaisy//src/daisy_patch_sm.h ****         ADC_LAST,
  33:../../libDaisy//src/daisy_patch_sm.h ****     };
  34:../../libDaisy//src/daisy_patch_sm.h **** 
  35:../../libDaisy//src/daisy_patch_sm.h ****     /** Enum for addressing the CV Outputs via the WriteCvOut function. */
  36:../../libDaisy//src/daisy_patch_sm.h ****     enum
  37:../../libDaisy//src/daisy_patch_sm.h ****     {
  38:../../libDaisy//src/daisy_patch_sm.h ****         CV_OUT_BOTH = 0,
  39:../../libDaisy//src/daisy_patch_sm.h ****         CV_OUT_1,
  40:../../libDaisy//src/daisy_patch_sm.h ****         CV_OUT_2,
  41:../../libDaisy//src/daisy_patch_sm.h ****     };
  42:../../libDaisy//src/daisy_patch_sm.h **** 
  43:../../libDaisy//src/daisy_patch_sm.h **** 
  44:../../libDaisy//src/daisy_patch_sm.h ****     /** @brief Board support file for DaisyPatchSM hardware
  45:../../libDaisy//src/daisy_patch_sm.h ****      *  @author shensley
  46:../../libDaisy//src/daisy_patch_sm.h ****      *  @ingroup boards
  47:../../libDaisy//src/daisy_patch_sm.h ****      * 
  48:../../libDaisy//src/daisy_patch_sm.h ****      *  Daisy Patch SM is a complete Eurorack module DSP engine.
  49:../../libDaisy//src/daisy_patch_sm.h ****      *  Based on the Daisy Seed, with circuits added for 
  50:../../libDaisy//src/daisy_patch_sm.h ****      *  interfacing directly with eurorack modular synthesizers.
  51:../../libDaisy//src/daisy_patch_sm.h ****      */
  52:../../libDaisy//src/daisy_patch_sm.h ****     class DaisyPatchSM
  53:../../libDaisy//src/daisy_patch_sm.h ****     {
  54:../../libDaisy//src/daisy_patch_sm.h ****       public:
  55:../../libDaisy//src/daisy_patch_sm.h ****         /** Helper for mapping pins, and accessing them using the `GetPin` function */
  56:../../libDaisy//src/daisy_patch_sm.h ****         enum class PinBank
  57:../../libDaisy//src/daisy_patch_sm.h ****         {
  58:../../libDaisy//src/daisy_patch_sm.h ****             A,
  59:../../libDaisy//src/daisy_patch_sm.h ****             B,
  60:../../libDaisy//src/daisy_patch_sm.h ****             C,
  61:../../libDaisy//src/daisy_patch_sm.h ****             D
  62:../../libDaisy//src/daisy_patch_sm.h ****         };
  63:../../libDaisy//src/daisy_patch_sm.h **** 
  64:../../libDaisy//src/daisy_patch_sm.h ****         DaisyPatchSM() {}
  65:../../libDaisy//src/daisy_patch_sm.h ****         ~DaisyPatchSM() {}
  54              		.loc 2 65 9 is_stmt 1 view -0
  55              		.cfi_startproc
  56              		@ args = 0, pretend = 0, frame = 0
  57              		@ frame_needed = 0, uses_anonymous_args = 0
  58              		@ link register save eliminated.
  59              	.LBB895:
  60              	.LBI895:
  61              		.file 3 "../../libDaisy//src/hid/gatein.h"
   1:../../libDaisy//src/hid/gatein.h **** #pragma once
   2:../../libDaisy//src/hid/gatein.h **** #ifndef DSY_GATEIN_H
   3:../../libDaisy//src/hid/gatein.h **** #define DSY_GATEIN_H
   4:../../libDaisy//src/hid/gatein.h **** #include "per/gpio.h"
   5:../../libDaisy//src/hid/gatein.h **** 
   6:../../libDaisy//src/hid/gatein.h **** namespace daisy
ARM GAS  /var/folders/hl/qgbwny5j0fd895c2c41bk3tw0000gp/T//ccEG44Zu.s 			page 4


   7:../../libDaisy//src/hid/gatein.h **** {
   8:../../libDaisy//src/hid/gatein.h **** /**
   9:../../libDaisy//src/hid/gatein.h ****    @brief Generic Class for handling gate inputs through GPIO.
  10:../../libDaisy//src/hid/gatein.h ****    @author Stephen Hensley
  11:../../libDaisy//src/hid/gatein.h ****    @date    March 2020
  12:../../libDaisy//src/hid/gatein.h ****    @ingroup controls
  13:../../libDaisy//src/hid/gatein.h **** */
  14:../../libDaisy//src/hid/gatein.h **** class GateIn
  15:../../libDaisy//src/hid/gatein.h **** {
  16:../../libDaisy//src/hid/gatein.h ****   public:
  17:../../libDaisy//src/hid/gatein.h ****     /** GateIn 
  18:../../libDaisy//src/hid/gatein.h ****     Constructor 
  19:../../libDaisy//src/hid/gatein.h ****     */
  20:../../libDaisy//src/hid/gatein.h ****     GateIn() {}
  21:../../libDaisy//src/hid/gatein.h ****     /** GateIn~
  22:../../libDaisy//src/hid/gatein.h ****     Destructor 
  23:../../libDaisy//src/hid/gatein.h ****     */
  24:../../libDaisy//src/hid/gatein.h ****     ~GateIn() {}
  62              		.loc 3 24 5 view .LVU3
  63              		.loc 3 24 5 is_stmt 0 view .LVU4
  64              	.LBE895:
  65              	.LBB896:
  66              	.LBI896:
  67              		.loc 3 24 5 is_stmt 1 view .LVU5
  68              		.loc 3 24 5 is_stmt 0 view .LVU6
  69              	.LBE896:
  70              	.LBB897:
  71              	.LBI897:
  72              		.file 4 "../../libDaisy//src/dev/codec_pcm3060.h"
   1:../../libDaisy//src/dev/codec_pcm3060.h **** #pragma once
   2:../../libDaisy//src/dev/codec_pcm3060.h **** #ifndef DSY_CODEC_PCM3060_H
   3:../../libDaisy//src/dev/codec_pcm3060.h **** #define DSY_CODEC_PCM3060_H
   4:../../libDaisy//src/dev/codec_pcm3060.h **** #include "per/i2c.h"
   5:../../libDaisy//src/dev/codec_pcm3060.h **** namespace daisy
   6:../../libDaisy//src/dev/codec_pcm3060.h **** {
   7:../../libDaisy//src/dev/codec_pcm3060.h **** /**
   8:../../libDaisy//src/dev/codec_pcm3060.h ****  * @brief Driver for the TI PCM3060 Audio Codec.
   9:../../libDaisy//src/dev/codec_pcm3060.h ****  * @addtogroup codec
  10:../../libDaisy//src/dev/codec_pcm3060.h ****  * 
  11:../../libDaisy//src/dev/codec_pcm3060.h ****  * For now this is a limited interface that uses I2C to communicate with the PCM3060
  12:../../libDaisy//src/dev/codec_pcm3060.h ****  * The device can also be accessed with SPI, which is not yet supported.
  13:../../libDaisy//src/dev/codec_pcm3060.h ****  * 
  14:../../libDaisy//src/dev/codec_pcm3060.h ****  * For now all registers are set to their defaults, and the Init function will 
  15:../../libDaisy//src/dev/codec_pcm3060.h ****  * perform a MRST and SRST before setting the format to 24bit LJ, and disabling 
  16:../../libDaisy//src/dev/codec_pcm3060.h ****  * power save for both the ADC and DAC.
  17:../../libDaisy//src/dev/codec_pcm3060.h ****  *
  18:../../libDaisy//src/dev/codec_pcm3060.h ****  */
  19:../../libDaisy//src/dev/codec_pcm3060.h **** class Pcm3060
  20:../../libDaisy//src/dev/codec_pcm3060.h **** {
  21:../../libDaisy//src/dev/codec_pcm3060.h ****   public:
  22:../../libDaisy//src/dev/codec_pcm3060.h ****     enum class Result
  23:../../libDaisy//src/dev/codec_pcm3060.h ****     {
  24:../../libDaisy//src/dev/codec_pcm3060.h ****         OK,
  25:../../libDaisy//src/dev/codec_pcm3060.h ****         ERR,
  26:../../libDaisy//src/dev/codec_pcm3060.h ****     };
  27:../../libDaisy//src/dev/codec_pcm3060.h **** 
  28:../../libDaisy//src/dev/codec_pcm3060.h ****     Pcm3060() {}
ARM GAS  /var/folders/hl/qgbwny5j0fd895c2c41bk3tw0000gp/T//ccEG44Zu.s 			page 5


  29:../../libDaisy//src/dev/codec_pcm3060.h ****     ~Pcm3060() {}
  73              		.loc 4 29 5 is_stmt 1 view .LVU7
  74              		.loc 4 29 5 is_stmt 0 view .LVU8
  75              	.LBE897:
  76              	.LBB898:
  77              	.LBI898:
  78              		.file 5 "../../libDaisy//src/hid/usb.h"
   1:../../libDaisy//src/hid/usb.h **** #pragma once
   2:../../libDaisy//src/hid/usb.h **** #ifndef DSY_HID_USB_H
   3:../../libDaisy//src/hid/usb.h **** #define DSY_HID_USB_H
   4:../../libDaisy//src/hid/usb.h **** #include <stdint.h>
   5:../../libDaisy//src/hid/usb.h **** #include <stdlib.h>
   6:../../libDaisy//src/hid/usb.h **** 
   7:../../libDaisy//src/hid/usb.h **** namespace daisy
   8:../../libDaisy//src/hid/usb.h **** /** @addtogroup human_interface
   9:../../libDaisy//src/hid/usb.h ****     @{
  10:../../libDaisy//src/hid/usb.h **** */
  11:../../libDaisy//src/hid/usb.h **** 
  12:../../libDaisy//src/hid/usb.h **** {
  13:../../libDaisy//src/hid/usb.h **** /** 
  14:../../libDaisy//src/hid/usb.h ****     @brief Interface for initializing and using the USB Peripherals on the daisy
  15:../../libDaisy//src/hid/usb.h ****     @author Stephen Hensley
  16:../../libDaisy//src/hid/usb.h ****     @date December 2019
  17:../../libDaisy//src/hid/usb.h **** */
  18:../../libDaisy//src/hid/usb.h **** class UsbHandle
  19:../../libDaisy//src/hid/usb.h **** {
  20:../../libDaisy//src/hid/usb.h ****   public:
  21:../../libDaisy//src/hid/usb.h ****     /** Return values for USBHandle Functions */
  22:../../libDaisy//src/hid/usb.h ****     enum class Result
  23:../../libDaisy//src/hid/usb.h ****     {
  24:../../libDaisy//src/hid/usb.h ****         OK,
  25:../../libDaisy//src/hid/usb.h ****         ERR,
  26:../../libDaisy//src/hid/usb.h ****     };
  27:../../libDaisy//src/hid/usb.h **** 
  28:../../libDaisy//src/hid/usb.h ****     /** Specified which of the two USB Peripherals to initialize. */
  29:../../libDaisy//src/hid/usb.h ****     enum UsbPeriph
  30:../../libDaisy//src/hid/usb.h ****     {
  31:../../libDaisy//src/hid/usb.h ****         FS_INTERNAL, /**< Internal pin */
  32:../../libDaisy//src/hid/usb.h ****         FS_EXTERNAL, /**< FS External D+ pin is Pin 38 (GPIO32). FS External D- pin is Pin 37 (GPIO
  33:../../libDaisy//src/hid/usb.h ****         FS_BOTH,     /**< Both */
  34:../../libDaisy//src/hid/usb.h ****     };
  35:../../libDaisy//src/hid/usb.h **** 
  36:../../libDaisy//src/hid/usb.h **** 
  37:../../libDaisy//src/hid/usb.h ****     /** Function called upon reception of a buffer */
  38:../../libDaisy//src/hid/usb.h ****     typedef void (*ReceiveCallback)(uint8_t* buff, uint32_t* len);
  39:../../libDaisy//src/hid/usb.h **** 
  40:../../libDaisy//src/hid/usb.h ****     UsbHandle() {}
  41:../../libDaisy//src/hid/usb.h **** 
  42:../../libDaisy//src/hid/usb.h ****     ~UsbHandle() {}
  79              		.loc 5 42 5 is_stmt 1 view .LVU9
  80              		.loc 5 42 5 is_stmt 0 view .LVU10
  81              	.LBE898:
  82              	.LBB899:
  83              	.LBI899:
  84              		.file 6 "../../libDaisy//src/per/adc.h"
   1:../../libDaisy//src/per/adc.h **** #pragma once
   2:../../libDaisy//src/per/adc.h **** #ifndef DSY_ADC_H
ARM GAS  /var/folders/hl/qgbwny5j0fd895c2c41bk3tw0000gp/T//ccEG44Zu.s 			page 6


   3:../../libDaisy//src/per/adc.h **** #define DSY_ADC_H /**< Macro */
   4:../../libDaisy//src/per/adc.h **** #include <stdint.h>
   5:../../libDaisy//src/per/adc.h **** #include <stdlib.h>
   6:../../libDaisy//src/per/adc.h **** #include "daisy_core.h"
   7:../../libDaisy//src/per/adc.h **** #include "per/gpio.h"
   8:../../libDaisy//src/per/adc.h **** 
   9:../../libDaisy//src/per/adc.h **** #define DSY_ADC_MAX_CHANNELS 16 /**< Maximum number of ADC channels */
  10:../../libDaisy//src/per/adc.h **** 
  11:../../libDaisy//src/per/adc.h **** namespace daisy
  12:../../libDaisy//src/per/adc.h **** {
  13:../../libDaisy//src/per/adc.h **** /** @addtogroup per_analog
  14:../../libDaisy//src/per/adc.h ****     @{
  15:../../libDaisy//src/per/adc.h **** */
  16:../../libDaisy//src/per/adc.h **** 
  17:../../libDaisy//src/per/adc.h **** /* While there may not be many configuration options here,
  18:../../libDaisy//src/per/adc.h **** using a struct like this allows us to add more configuration
  19:../../libDaisy//src/per/adc.h **** later without breaking existing functionality.
  20:../../libDaisy//src/per/adc.h **** */
  21:../../libDaisy//src/per/adc.h **** 
  22:../../libDaisy//src/per/adc.h **** /** @brief   Configuration Structure for an ADC Channel 
  23:../../libDaisy//src/per/adc.h ****  *  @details This can be used to configure a a single input, 
  24:../../libDaisy//src/per/adc.h ****  *           or a multiplexed input, allowing up to 8 inputs on 
  25:../../libDaisy//src/per/adc.h ****  *           one channel.
  26:../../libDaisy//src/per/adc.h ****  *  @note    Sharing data lines to multiple muxes _is_ possible, but
  27:../../libDaisy//src/per/adc.h ****  *           each channel sharing data lines must be set to the maximum
  28:../../libDaisy//src/per/adc.h ****  *           number of channels, even if some multiplexers have fewer
  29:../../libDaisy//src/per/adc.h ****  *           inputs connected.
  30:../../libDaisy//src/per/adc.h **** */
  31:../../libDaisy//src/per/adc.h **** struct AdcChannelConfig
  32:../../libDaisy//src/per/adc.h **** {
  33:../../libDaisy//src/per/adc.h ****     /** Which pin to use for multiplexing */
  34:../../libDaisy//src/per/adc.h ****     enum MuxPin
  35:../../libDaisy//src/per/adc.h ****     {
  36:../../libDaisy//src/per/adc.h ****         MUX_SEL_0,    /**< & */
  37:../../libDaisy//src/per/adc.h ****         MUX_SEL_1,    /**< & */
  38:../../libDaisy//src/per/adc.h ****         MUX_SEL_2,    /**< & */
  39:../../libDaisy//src/per/adc.h ****         MUX_SEL_LAST, /**< & */
  40:../../libDaisy//src/per/adc.h ****     };
  41:../../libDaisy//src/per/adc.h **** 
  42:../../libDaisy//src/per/adc.h ****     /** Initializes a single ADC pin as an ADC. 
  43:../../libDaisy//src/per/adc.h ****     \param pin Pin to init.
  44:../../libDaisy//src/per/adc.h ****      */
  45:../../libDaisy//src/per/adc.h ****     void InitSingle(dsy_gpio_pin pin);
  46:../../libDaisy//src/per/adc.h **** 
  47:../../libDaisy//src/per/adc.h ****     /** 
  48:../../libDaisy//src/per/adc.h ****     Initializes a single ADC pin as a Multiplexed ADC.
  49:../../libDaisy//src/per/adc.h ****     Requires a CD405X Multiplexer connected to the pin.
  50:../../libDaisy//src/per/adc.h ****     You only need to supply the mux pins that are required,
  51:../../libDaisy//src/per/adc.h ****     e.g. a 4052 mux would only require mux_0 and mux_1.
  52:../../libDaisy//src/per/adc.h ****     Internal Callbacks handle the pin addressing.
  53:../../libDaisy//src/per/adc.h ****     \param mux_channels must be 1-8
  54:../../libDaisy//src/per/adc.h ****     \param mux_0 First mux pin
  55:../../libDaisy//src/per/adc.h ****     \param mux_1 Second mux pin
  56:../../libDaisy//src/per/adc.h ****     \param mux_2 Third mux pin
  57:../../libDaisy//src/per/adc.h ****     \param adc_pin &
  58:../../libDaisy//src/per/adc.h ****     */
  59:../../libDaisy//src/per/adc.h ****     void InitMux(dsy_gpio_pin adc_pin,
ARM GAS  /var/folders/hl/qgbwny5j0fd895c2c41bk3tw0000gp/T//ccEG44Zu.s 			page 7


  60:../../libDaisy//src/per/adc.h ****                  size_t       mux_channels,
  61:../../libDaisy//src/per/adc.h ****                  dsy_gpio_pin mux_0,
  62:../../libDaisy//src/per/adc.h ****                  dsy_gpio_pin mux_1 = {DSY_GPIOX, 0},
  63:../../libDaisy//src/per/adc.h ****                  dsy_gpio_pin mux_2 = {DSY_GPIOX, 0});
  64:../../libDaisy//src/per/adc.h **** 
  65:../../libDaisy//src/per/adc.h ****     dsy_gpio pin_;                   /**< & */
  66:../../libDaisy//src/per/adc.h ****     dsy_gpio mux_pin_[MUX_SEL_LAST]; /**< & */
  67:../../libDaisy//src/per/adc.h ****     uint8_t  mux_channels_;          /**< & */
  68:../../libDaisy//src/per/adc.h **** };
  69:../../libDaisy//src/per/adc.h **** 
  70:../../libDaisy//src/per/adc.h **** /**
  71:../../libDaisy//src/per/adc.h ****    @brief Handler for analog to digital conversion
  72:../../libDaisy//src/per/adc.h **** */
  73:../../libDaisy//src/per/adc.h **** class AdcHandle
  74:../../libDaisy//src/per/adc.h **** {
  75:../../libDaisy//src/per/adc.h ****   public:
  76:../../libDaisy//src/per/adc.h ****     /** Supported oversampling amounts */
  77:../../libDaisy//src/per/adc.h ****     enum OverSampling
  78:../../libDaisy//src/per/adc.h ****     {
  79:../../libDaisy//src/per/adc.h ****         OVS_NONE, /**< & */
  80:../../libDaisy//src/per/adc.h ****         OVS_4,    /**< & */
  81:../../libDaisy//src/per/adc.h ****         OVS_8,    /**< & */
  82:../../libDaisy//src/per/adc.h ****         OVS_16,   /**< & */
  83:../../libDaisy//src/per/adc.h ****         OVS_32,   /**< & */
  84:../../libDaisy//src/per/adc.h ****         OVS_64,   /**< & */
  85:../../libDaisy//src/per/adc.h ****         OVS_128,  /**< & */
  86:../../libDaisy//src/per/adc.h ****         OVS_256,  /**< & */
  87:../../libDaisy//src/per/adc.h ****         OVS_512,  /**< & */
  88:../../libDaisy//src/per/adc.h ****         OVS_1024, /**< & */
  89:../../libDaisy//src/per/adc.h ****         OVS_LAST, /**< & */
  90:../../libDaisy//src/per/adc.h ****     };
  91:../../libDaisy//src/per/adc.h **** 
  92:../../libDaisy//src/per/adc.h ****     AdcHandle() {}
  93:../../libDaisy//src/per/adc.h ****     ~AdcHandle() {}
  85              		.loc 6 93 5 is_stmt 1 view .LVU11
  86              		.loc 6 93 5 is_stmt 0 view .LVU12
  87              	.LBE899:
  88              	.LBB900:
  89              	.LBI900:
  90              		.file 7 "../../libDaisy//src/hid/audio.h"
   1:../../libDaisy//src/hid/audio.h **** #ifndef DSY_AUDIO_H
   2:../../libDaisy//src/hid/audio.h **** #define DSY_AUDIO_H /**< & */
   3:../../libDaisy//src/hid/audio.h **** 
   4:../../libDaisy//src/hid/audio.h **** #include "per/sai.h"
   5:../../libDaisy//src/hid/audio.h **** 
   6:../../libDaisy//src/hid/audio.h **** namespace daisy
   7:../../libDaisy//src/hid/audio.h **** {
   8:../../libDaisy//src/hid/audio.h **** /** @brief Audio Engine Handle
   9:../../libDaisy//src/hid/audio.h ****  *  @ingroup audio 
  10:../../libDaisy//src/hid/audio.h ****  *  @details This class allows for higher level access to an audio engine.
  11:../../libDaisy//src/hid/audio.h ****  *           If you're using a SOM like the DaisySeed or DaisyPatchSM (or any 
  12:../../libDaisy//src/hid/audio.h ****  *            board that includes one of those objects) then the intialization
  13:../../libDaisy//src/hid/audio.h ****  *            is already taken  care of.
  14:../../libDaisy//src/hid/audio.h ****  *           If you're setting up your own custom hardware, or need to make changes
  15:../../libDaisy//src/hid/audio.h ****  *           you will have to take the following steps:
  16:../../libDaisy//src/hid/audio.h ****  *             1. Create and Initialize an SaiHandle or two depending on your requirements
  17:../../libDaisy//src/hid/audio.h ****  *             2. Initialize the Audio Handle with the desired settings and the Initialized SaiHand
ARM GAS  /var/folders/hl/qgbwny5j0fd895c2c41bk3tw0000gp/T//ccEG44Zu.s 			page 8


  18:../../libDaisy//src/hid/audio.h ****  *             3. If the connected codec requires special configuration or initialization, do so
  19:../../libDaisy//src/hid/audio.h ****  *             4. Write a callback method using either the AudioCallback or the InterleavingAudioCa
  20:../../libDaisy//src/hid/audio.h ****  *             5. Start the Audio using one of the StartAudio function
  21:../../libDaisy//src/hid/audio.h ****  */
  22:../../libDaisy//src/hid/audio.h **** class AudioHandle
  23:../../libDaisy//src/hid/audio.h **** {
  24:../../libDaisy//src/hid/audio.h ****   public:
  25:../../libDaisy//src/hid/audio.h ****     /** Manually configurable details about the Audio Engine */
  26:../../libDaisy//src/hid/audio.h ****     /** TODO: Figure out how to get samplerate in here. */
  27:../../libDaisy//src/hid/audio.h ****     struct Config
  28:../../libDaisy//src/hid/audio.h ****     {
  29:../../libDaisy//src/hid/audio.h ****         /** number of samples to process per callback */
  30:../../libDaisy//src/hid/audio.h ****         size_t blocksize;
  31:../../libDaisy//src/hid/audio.h **** 
  32:../../libDaisy//src/hid/audio.h ****         /**< Sample rate of audio */
  33:../../libDaisy//src/hid/audio.h ****         SaiHandle::Config::SampleRate samplerate;
  34:../../libDaisy//src/hid/audio.h **** 
  35:../../libDaisy//src/hid/audio.h ****         /** factor for adjustment before and after callback for hardware that may have extra headro
  36:../../libDaisy//src/hid/audio.h ****         float postgain;
  37:../../libDaisy//src/hid/audio.h **** 
  38:../../libDaisy//src/hid/audio.h ****         /** factor for additional one-sided compensation to audio path for hardware that may
  39:../../libDaisy//src/hid/audio.h ****          *  have unequal input/output ranges
  40:../../libDaisy//src/hid/audio.h ****          */
  41:../../libDaisy//src/hid/audio.h ****         float output_compensation;
  42:../../libDaisy//src/hid/audio.h **** 
  43:../../libDaisy//src/hid/audio.h ****         /** Sets default values for config struct */
  44:../../libDaisy//src/hid/audio.h ****         Config()
  45:../../libDaisy//src/hid/audio.h ****         : blocksize(48),
  46:../../libDaisy//src/hid/audio.h ****           samplerate(SaiHandle::Config::SampleRate::SAI_48KHZ),
  47:../../libDaisy//src/hid/audio.h ****           postgain(1.f),
  48:../../libDaisy//src/hid/audio.h ****           output_compensation(1.f)
  49:../../libDaisy//src/hid/audio.h ****         {
  50:../../libDaisy//src/hid/audio.h ****         }
  51:../../libDaisy//src/hid/audio.h ****     };
  52:../../libDaisy//src/hid/audio.h **** 
  53:../../libDaisy//src/hid/audio.h ****     enum class Result
  54:../../libDaisy//src/hid/audio.h ****     {
  55:../../libDaisy//src/hid/audio.h ****         OK,
  56:../../libDaisy//src/hid/audio.h ****         ERR,
  57:../../libDaisy//src/hid/audio.h ****     };
  58:../../libDaisy//src/hid/audio.h **** 
  59:../../libDaisy//src/hid/audio.h ****     /** Non-Interleaving input buffer
  60:../../libDaisy//src/hid/audio.h ****      * Buffer arranged by float[chn][sample] 
  61:../../libDaisy//src/hid/audio.h ****      * const so that the user can't modify the input
  62:../../libDaisy//src/hid/audio.h ****      */
  63:../../libDaisy//src/hid/audio.h ****     typedef const float* const* InputBuffer;
  64:../../libDaisy//src/hid/audio.h **** 
  65:../../libDaisy//src/hid/audio.h ****     /** Non-Interleaving output buffer
  66:../../libDaisy//src/hid/audio.h ****      * Arranged by float[chn][sample] 
  67:../../libDaisy//src/hid/audio.h ****      */
  68:../../libDaisy//src/hid/audio.h ****     typedef float** OutputBuffer;
  69:../../libDaisy//src/hid/audio.h **** 
  70:../../libDaisy//src/hid/audio.h ****     /** Type for a Non-Interleaving audio callback 
  71:../../libDaisy//src/hid/audio.h ****      * Non-Interleaving audio callbacks in daisy will be of this type
  72:../../libDaisy//src/hid/audio.h ****      */
  73:../../libDaisy//src/hid/audio.h ****     typedef void (*AudioCallback)(InputBuffer  in,
  74:../../libDaisy//src/hid/audio.h ****                                   OutputBuffer out,
ARM GAS  /var/folders/hl/qgbwny5j0fd895c2c41bk3tw0000gp/T//ccEG44Zu.s 			page 9


  75:../../libDaisy//src/hid/audio.h ****                                   size_t       size);
  76:../../libDaisy//src/hid/audio.h **** 
  77:../../libDaisy//src/hid/audio.h ****     /** Interleaving Input buffer
  78:../../libDaisy//src/hid/audio.h ****      ** audio is prepared as { L0, R0, L1, R1, . . . LN, RN }]
  79:../../libDaisy//src/hid/audio.h ****      ** this is const, as the user shouldn't modify it
  80:../../libDaisy//src/hid/audio.h ****     */
  81:../../libDaisy//src/hid/audio.h ****     typedef const float* InterleavingInputBuffer;
  82:../../libDaisy//src/hid/audio.h **** 
  83:../../libDaisy//src/hid/audio.h ****     /** Interleaving Output buffer 
  84:../../libDaisy//src/hid/audio.h ****      ** audio is prepared as { L0, R0, L1, R1, . . . LN, RN }
  85:../../libDaisy//src/hid/audio.h ****     */
  86:../../libDaisy//src/hid/audio.h ****     typedef float* InterleavingOutputBuffer;
  87:../../libDaisy//src/hid/audio.h **** 
  88:../../libDaisy//src/hid/audio.h ****     /** Interleaving Audio Callback 
  89:../../libDaisy//src/hid/audio.h ****      * Interleaving audio callbacks in daisy must be of this type
  90:../../libDaisy//src/hid/audio.h ****      */
  91:../../libDaisy//src/hid/audio.h ****     typedef void (*InterleavingAudioCallback)(InterleavingInputBuffer  in,
  92:../../libDaisy//src/hid/audio.h ****                                               InterleavingOutputBuffer out,
  93:../../libDaisy//src/hid/audio.h ****                                               size_t                   size);
  94:../../libDaisy//src/hid/audio.h **** 
  95:../../libDaisy//src/hid/audio.h ****     AudioHandle() : pimpl_(nullptr) {}
  96:../../libDaisy//src/hid/audio.h ****     ~AudioHandle() {}
  91              		.loc 7 96 5 is_stmt 1 view .LVU13
  92              		.loc 7 96 5 is_stmt 0 view .LVU14
  93              	.LBE900:
  94              	.LBB901:
  95              	.LBI901:
  96              		.file 8 "../../libDaisy//src/sys/system.h"
   1:../../libDaisy//src/sys/system.h **** #ifndef DSY_SYSTEM_H
   2:../../libDaisy//src/sys/system.h **** #define DSY_SYSTEM_H
   3:../../libDaisy//src/sys/system.h **** 
   4:../../libDaisy//src/sys/system.h **** #ifndef UNIT_TEST // for unit tests, a dummy implementation is provided below
   5:../../libDaisy//src/sys/system.h **** 
   6:../../libDaisy//src/sys/system.h **** #include <cstdint>
   7:../../libDaisy//src/sys/system.h **** #include "per/tim.h"
   8:../../libDaisy//src/sys/system.h **** 
   9:../../libDaisy//src/sys/system.h **** namespace daisy
  10:../../libDaisy//src/sys/system.h **** {
  11:../../libDaisy//src/sys/system.h **** /** A handle for interacting with the Core System. 
  12:../../libDaisy//src/sys/system.h ****  ** This includes the Clock tree, MPU, global DMA initialization,
  13:../../libDaisy//src/sys/system.h ****  ** cache handling, and any other necessary global initiailzation
  14:../../libDaisy//src/sys/system.h ****  **
  15:../../libDaisy//src/sys/system.h ****  ** @author shensley
  16:../../libDaisy//src/sys/system.h ****  ** @ingroup system
  17:../../libDaisy//src/sys/system.h ****  */
  18:../../libDaisy//src/sys/system.h **** class System
  19:../../libDaisy//src/sys/system.h **** {
  20:../../libDaisy//src/sys/system.h ****   public:
  21:../../libDaisy//src/sys/system.h ****     /** Contains settings for initializing the System */
  22:../../libDaisy//src/sys/system.h ****     struct Config
  23:../../libDaisy//src/sys/system.h ****     {
  24:../../libDaisy//src/sys/system.h ****         /** Specifies the system clock frequency that feeds APB/AHB clocks, etc. */
  25:../../libDaisy//src/sys/system.h ****         enum class SysClkFreq
  26:../../libDaisy//src/sys/system.h ****         {
  27:../../libDaisy//src/sys/system.h ****             FREQ_400MHZ,
  28:../../libDaisy//src/sys/system.h ****             FREQ_480MHZ,
  29:../../libDaisy//src/sys/system.h ****         };
ARM GAS  /var/folders/hl/qgbwny5j0fd895c2c41bk3tw0000gp/T//ccEG44Zu.s 			page 10


  30:../../libDaisy//src/sys/system.h **** 
  31:../../libDaisy//src/sys/system.h ****         /** Method to call on the struct to set to defaults
  32:../../libDaisy//src/sys/system.h ****          ** CPU Freq set to 400MHz
  33:../../libDaisy//src/sys/system.h ****          ** Cache Enabled 
  34:../../libDaisy//src/sys/system.h ****          ** */
  35:../../libDaisy//src/sys/system.h ****         void Defaults()
  36:../../libDaisy//src/sys/system.h ****         {
  37:../../libDaisy//src/sys/system.h ****             cpu_freq    = SysClkFreq::FREQ_400MHZ;
  38:../../libDaisy//src/sys/system.h ****             use_dcache  = true;
  39:../../libDaisy//src/sys/system.h ****             use_icache  = true;
  40:../../libDaisy//src/sys/system.h ****             skip_clocks = false;
  41:../../libDaisy//src/sys/system.h ****         }
  42:../../libDaisy//src/sys/system.h **** 
  43:../../libDaisy//src/sys/system.h ****         /** Method to call on the struct to set to boost mode:
  44:../../libDaisy//src/sys/system.h ****          ** CPU Freq set to 480MHz
  45:../../libDaisy//src/sys/system.h ****          ** Cache Enabled 
  46:../../libDaisy//src/sys/system.h ****          ** */
  47:../../libDaisy//src/sys/system.h ****         void Boost()
  48:../../libDaisy//src/sys/system.h ****         {
  49:../../libDaisy//src/sys/system.h ****             cpu_freq    = SysClkFreq::FREQ_480MHZ;
  50:../../libDaisy//src/sys/system.h ****             use_dcache  = true;
  51:../../libDaisy//src/sys/system.h ****             use_icache  = true;
  52:../../libDaisy//src/sys/system.h ****             skip_clocks = false;
  53:../../libDaisy//src/sys/system.h ****         }
  54:../../libDaisy//src/sys/system.h **** 
  55:../../libDaisy//src/sys/system.h ****         SysClkFreq cpu_freq;
  56:../../libDaisy//src/sys/system.h ****         bool       use_dcache;
  57:../../libDaisy//src/sys/system.h ****         bool       use_icache;
  58:../../libDaisy//src/sys/system.h ****         bool       skip_clocks;
  59:../../libDaisy//src/sys/system.h ****     };
  60:../../libDaisy//src/sys/system.h **** 
  61:../../libDaisy//src/sys/system.h ****     /** Describes the different regions of memory available to the Daisy
  62:../../libDaisy//src/sys/system.h ****      * 
  63:../../libDaisy//src/sys/system.h ****      */
  64:../../libDaisy//src/sys/system.h ****     enum MemoryRegion
  65:../../libDaisy//src/sys/system.h ****     {
  66:../../libDaisy//src/sys/system.h ****         INTERNAL_FLASH = 0,
  67:../../libDaisy//src/sys/system.h ****         ITCMRAM,
  68:../../libDaisy//src/sys/system.h ****         DTCMRAM,
  69:../../libDaisy//src/sys/system.h ****         SRAM_D1,
  70:../../libDaisy//src/sys/system.h ****         SRAM_D2,
  71:../../libDaisy//src/sys/system.h ****         SRAM_D3,
  72:../../libDaisy//src/sys/system.h ****         SDRAM,
  73:../../libDaisy//src/sys/system.h ****         QSPI,
  74:../../libDaisy//src/sys/system.h ****         INVALID_ADDRESS,
  75:../../libDaisy//src/sys/system.h ****     };
  76:../../libDaisy//src/sys/system.h **** 
  77:../../libDaisy//src/sys/system.h ****     System() {}
  78:../../libDaisy//src/sys/system.h ****     ~System() {}
  97              		.loc 8 78 5 is_stmt 1 view .LVU15
  98              		.loc 8 78 5 is_stmt 0 view .LVU16
  99              	.LBE901:
 100              		.loc 2 65 26 view .LVU17
 101 0000 7047     		bx	lr
 102              		.cfi_endproc
 103              	.LFE2529:
 105              		.weak	_ZN5daisy8patch_sm12DaisyPatchSMD1Ev
ARM GAS  /var/folders/hl/qgbwny5j0fd895c2c41bk3tw0000gp/T//ccEG44Zu.s 			page 11


 106              		.thumb_set _ZN5daisy8patch_sm12DaisyPatchSMD1Ev,_ZN5daisy8patch_sm12DaisyPatchSMD2Ev
 107 0002 00BF     		.section	.text._ZN20InterestingProcessorILj48000EED2Ev,"axG",%progbits,_ZN20InterestingProcessorIL
 108              		.align	1
 109              		.p2align 2,,3
 110              		.weak	_ZN20InterestingProcessorILj48000EED2Ev
 111              		.syntax unified
 112              		.thumb
 113              		.thumb_func
 115              	_ZN20InterestingProcessorILj48000EED2Ev:
 116              	.LVL2:
 117              	.LFB6062:
 118              		.file 9 "processor.h"
   1:processor.h   **** // Using tips learned from radicalTeapot at https://github.com/RadicalTeapot/DaisyGrains/blob/main/
   2:processor.h   **** // this class will mostly be used as a "circular buffer" to run a constaint capture loop on the inp
   3:processor.h   **** 
   4:processor.h   **** #pragma once 
   5:processor.h   **** #include "daisy.h"
   6:processor.h   **** #include "daisysp.h"
   7:processor.h   **** 
   8:processor.h   **** using namespace daisy;
   9:processor.h   **** using namespace daisysp;
  10:processor.h   **** 
  11:processor.h   **** template <size_t BufferSize>
  12:processor.h   **** class InterestingProcessor {
 119              		.loc 9 12 7 is_stmt 1 view -0
 120              		.cfi_startproc
 121              		@ args = 0, pretend = 0, frame = 0
 122              		@ frame_needed = 0, uses_anonymous_args = 0
 123              		@ link register save eliminated.
 124              	.LBB902:
 125              	.LBI902:
 126              		.file 10 "../../DaisySP//Source/Utility/dcblock.h"
   1:../../DaisySP//Source/Utility/dcblock.h **** 
   2:../../DaisySP//Source/Utility/dcblock.h **** #pragma once
   3:../../DaisySP//Source/Utility/dcblock.h **** #ifndef DSY_DCBLOCK_H
   4:../../DaisySP//Source/Utility/dcblock.h **** #define DSY_DCBLOCK_H
   5:../../DaisySP//Source/Utility/dcblock.h **** #ifdef __cplusplus
   6:../../DaisySP//Source/Utility/dcblock.h **** 
   7:../../DaisySP//Source/Utility/dcblock.h **** namespace daisysp
   8:../../DaisySP//Source/Utility/dcblock.h **** {
   9:../../DaisySP//Source/Utility/dcblock.h **** /** Removes DC component of a signal
  10:../../DaisySP//Source/Utility/dcblock.h ****     */
  11:../../DaisySP//Source/Utility/dcblock.h **** class DcBlock
  12:../../DaisySP//Source/Utility/dcblock.h **** {
  13:../../DaisySP//Source/Utility/dcblock.h ****   public:
  14:../../DaisySP//Source/Utility/dcblock.h ****     DcBlock(){};
  15:../../DaisySP//Source/Utility/dcblock.h ****     ~DcBlock(){};
 127              		.loc 10 15 5 view .LVU19
 128              		.loc 10 15 5 is_stmt 0 view .LVU20
 129              	.LBE902:
 130              		.loc 9 12 7 view .LVU21
 131 0000 7047     		bx	lr
 132              		.cfi_endproc
 133              	.LFE6062:
 135              		.weak	_ZN20InterestingProcessorILj48000EED1Ev
 136              		.thumb_set _ZN20InterestingProcessorILj48000EED1Ev,_ZN20InterestingProcessorILj48000EED2Ev
 137 0002 00BF     		.section	.text._ZN15EffectsHandlingD2Ev,"axG",%progbits,_ZN15EffectsHandlingD5Ev,comdat
ARM GAS  /var/folders/hl/qgbwny5j0fd895c2c41bk3tw0000gp/T//ccEG44Zu.s 			page 12


 138              		.align	1
 139              		.p2align 2,,3
 140              		.weak	_ZN15EffectsHandlingD2Ev
 141              		.syntax unified
 142              		.thumb
 143              		.thumb_func
 145              	_ZN15EffectsHandlingD2Ev:
 146              	.LVL3:
 147              	.LFB6065:
 148              		.file 11 "effects_handling.h"
   1:effects_handling.h **** // reverb implementation from https://github.com/erwincoumans/DaisyCloudSeed
   2:effects_handling.h **** 
   3:effects_handling.h **** #pragma once
   4:effects_handling.h **** #include "daisy_patch_sm.h"
   5:effects_handling.h **** #include "daisysp.h"
   6:effects_handling.h **** #include "rings/dsp/fx/reverb.h"
   7:effects_handling.h **** #include "clouds/dsp/granular_processor.h"
   8:effects_handling.h **** #include "clouds/dsp/frame.h"
   9:effects_handling.h **** 
  10:effects_handling.h **** using namespace rings;
  11:effects_handling.h **** using namespace clouds;
  12:effects_handling.h **** 
  13:effects_handling.h **** class EffectsHandling
 149              		.loc 11 13 7 is_stmt 1 view -0
 150              		.cfi_startproc
 151              		@ args = 0, pretend = 0, frame = 0
 152              		@ frame_needed = 0, uses_anonymous_args = 0
 153              		@ link register save eliminated.
 154              	.LBB903:
 155              	.LBI903:
 156              		.file 12 "../../../mutable-instruments/rings/dsp/fx/reverb.h"
   1:../../../mutable-instruments/rings/dsp/fx/reverb.h **** // Copyright 2014 Emilie Gillet.
   2:../../../mutable-instruments/rings/dsp/fx/reverb.h **** //
   3:../../../mutable-instruments/rings/dsp/fx/reverb.h **** // Author: Emilie Gillet (emilie.o.gillet@gmail.com)
   4:../../../mutable-instruments/rings/dsp/fx/reverb.h **** //
   5:../../../mutable-instruments/rings/dsp/fx/reverb.h **** // Permission is hereby granted, free of charge, to any person obtaining a copy
   6:../../../mutable-instruments/rings/dsp/fx/reverb.h **** // of this software and associated documentation files (the "Software"), to deal
   7:../../../mutable-instruments/rings/dsp/fx/reverb.h **** // in the Software without restriction, including without limitation the rights
   8:../../../mutable-instruments/rings/dsp/fx/reverb.h **** // to use, copy, modify, merge, publish, distribute, sublicense, and/or sell
   9:../../../mutable-instruments/rings/dsp/fx/reverb.h **** // copies of the Software, and to permit persons to whom the Software is
  10:../../../mutable-instruments/rings/dsp/fx/reverb.h **** // furnished to do so, subject to the following conditions:
  11:../../../mutable-instruments/rings/dsp/fx/reverb.h **** // 
  12:../../../mutable-instruments/rings/dsp/fx/reverb.h **** // The above copyright notice and this permission notice shall be included in
  13:../../../mutable-instruments/rings/dsp/fx/reverb.h **** // all copies or substantial portions of the Software.
  14:../../../mutable-instruments/rings/dsp/fx/reverb.h **** // 
  15:../../../mutable-instruments/rings/dsp/fx/reverb.h **** // THE SOFTWARE IS PROVIDED "AS IS", WITHOUT WARRANTY OF ANY KIND, EXPRESS OR
  16:../../../mutable-instruments/rings/dsp/fx/reverb.h **** // IMPLIED, INCLUDING BUT NOT LIMITED TO THE WARRANTIES OF MERCHANTABILITY,
  17:../../../mutable-instruments/rings/dsp/fx/reverb.h **** // FITNESS FOR A PARTICULAR PURPOSE AND NONINFRINGEMENT. IN NO EVENT SHALL THE
  18:../../../mutable-instruments/rings/dsp/fx/reverb.h **** // AUTHORS OR COPYRIGHT HOLDERS BE LIABLE FOR ANY CLAIM, DAMAGES OR OTHER
  19:../../../mutable-instruments/rings/dsp/fx/reverb.h **** // LIABILITY, WHETHER IN AN ACTION OF CONTRACT, TORT OR OTHERWISE, ARISING FROM,
  20:../../../mutable-instruments/rings/dsp/fx/reverb.h **** // OUT OF OR IN CONNECTION WITH THE SOFTWARE OR THE USE OR OTHER DEALINGS IN
  21:../../../mutable-instruments/rings/dsp/fx/reverb.h **** // THE SOFTWARE.
  22:../../../mutable-instruments/rings/dsp/fx/reverb.h **** // 
  23:../../../mutable-instruments/rings/dsp/fx/reverb.h **** // See http://creativecommons.org/licenses/MIT/ for more information.
  24:../../../mutable-instruments/rings/dsp/fx/reverb.h **** //
  25:../../../mutable-instruments/rings/dsp/fx/reverb.h **** // -----------------------------------------------------------------------------
  26:../../../mutable-instruments/rings/dsp/fx/reverb.h **** //
ARM GAS  /var/folders/hl/qgbwny5j0fd895c2c41bk3tw0000gp/T//ccEG44Zu.s 			page 13


  27:../../../mutable-instruments/rings/dsp/fx/reverb.h **** // Reverb.
  28:../../../mutable-instruments/rings/dsp/fx/reverb.h **** 
  29:../../../mutable-instruments/rings/dsp/fx/reverb.h **** #ifndef RINGS_DSP_FX_REVERB_H_
  30:../../../mutable-instruments/rings/dsp/fx/reverb.h **** #define RINGS_DSP_FX_REVERB_H_
  31:../../../mutable-instruments/rings/dsp/fx/reverb.h **** 
  32:../../../mutable-instruments/rings/dsp/fx/reverb.h **** #include "stmlib/stmlib.h"
  33:../../../mutable-instruments/rings/dsp/fx/reverb.h **** 
  34:../../../mutable-instruments/rings/dsp/fx/reverb.h **** #include "rings/dsp/fx/fx_engine.h"
  35:../../../mutable-instruments/rings/dsp/fx/reverb.h **** 
  36:../../../mutable-instruments/rings/dsp/fx/reverb.h **** namespace rings {
  37:../../../mutable-instruments/rings/dsp/fx/reverb.h **** 
  38:../../../mutable-instruments/rings/dsp/fx/reverb.h **** class Reverb {
  39:../../../mutable-instruments/rings/dsp/fx/reverb.h ****  public:
  40:../../../mutable-instruments/rings/dsp/fx/reverb.h ****   Reverb() { }
  41:../../../mutable-instruments/rings/dsp/fx/reverb.h ****   ~Reverb() { }
 157              		.loc 12 41 3 view .LVU23
 158              	.LBB904:
 159              	.LBI904:
 160              		.file 13 "../../../mutable-instruments/rings/dsp/fx/fx_engine.h"
   1:../../../mutable-instruments/rings/dsp/fx/fx_engine.h **** // Copyright 2014 Emilie Gillet.
   2:../../../mutable-instruments/rings/dsp/fx/fx_engine.h **** //
   3:../../../mutable-instruments/rings/dsp/fx/fx_engine.h **** // Author: Emilie Gillet (emilie.o.gillet@gmail.com)
   4:../../../mutable-instruments/rings/dsp/fx/fx_engine.h **** //
   5:../../../mutable-instruments/rings/dsp/fx/fx_engine.h **** // Permission is hereby granted, free of charge, to any person obtaining a copy
   6:../../../mutable-instruments/rings/dsp/fx/fx_engine.h **** // of this software and associated documentation files (the "Software"), to deal
   7:../../../mutable-instruments/rings/dsp/fx/fx_engine.h **** // in the Software without restriction, including without limitation the rights
   8:../../../mutable-instruments/rings/dsp/fx/fx_engine.h **** // to use, copy, modify, merge, publish, distribute, sublicense, and/or sell
   9:../../../mutable-instruments/rings/dsp/fx/fx_engine.h **** // copies of the Software, and to permit persons to whom the Software is
  10:../../../mutable-instruments/rings/dsp/fx/fx_engine.h **** // furnished to do so, subject to the following conditions:
  11:../../../mutable-instruments/rings/dsp/fx/fx_engine.h **** // 
  12:../../../mutable-instruments/rings/dsp/fx/fx_engine.h **** // The above copyright notice and this permission notice shall be included in
  13:../../../mutable-instruments/rings/dsp/fx/fx_engine.h **** // all copies or substantial portions of the Software.
  14:../../../mutable-instruments/rings/dsp/fx/fx_engine.h **** // 
  15:../../../mutable-instruments/rings/dsp/fx/fx_engine.h **** // THE SOFTWARE IS PROVIDED "AS IS", WITHOUT WARRANTY OF ANY KIND, EXPRESS OR
  16:../../../mutable-instruments/rings/dsp/fx/fx_engine.h **** // IMPLIED, INCLUDING BUT NOT LIMITED TO THE WARRANTIES OF MERCHANTABILITY,
  17:../../../mutable-instruments/rings/dsp/fx/fx_engine.h **** // FITNESS FOR A PARTICULAR PURPOSE AND NONINFRINGEMENT. IN NO EVENT SHALL THE
  18:../../../mutable-instruments/rings/dsp/fx/fx_engine.h **** // AUTHORS OR COPYRIGHT HOLDERS BE LIABLE FOR ANY CLAIM, DAMAGES OR OTHER
  19:../../../mutable-instruments/rings/dsp/fx/fx_engine.h **** // LIABILITY, WHETHER IN AN ACTION OF CONTRACT, TORT OR OTHERWISE, ARISING FROM,
  20:../../../mutable-instruments/rings/dsp/fx/fx_engine.h **** // OUT OF OR IN CONNECTION WITH THE SOFTWARE OR THE USE OR OTHER DEALINGS IN
  21:../../../mutable-instruments/rings/dsp/fx/fx_engine.h **** // THE SOFTWARE.
  22:../../../mutable-instruments/rings/dsp/fx/fx_engine.h **** // 
  23:../../../mutable-instruments/rings/dsp/fx/fx_engine.h **** // See http://creativecommons.org/licenses/MIT/ for more information.
  24:../../../mutable-instruments/rings/dsp/fx/fx_engine.h **** //
  25:../../../mutable-instruments/rings/dsp/fx/fx_engine.h **** // -----------------------------------------------------------------------------
  26:../../../mutable-instruments/rings/dsp/fx/fx_engine.h **** //
  27:../../../mutable-instruments/rings/dsp/fx/fx_engine.h **** // Base class for building reverb.
  28:../../../mutable-instruments/rings/dsp/fx/fx_engine.h **** 
  29:../../../mutable-instruments/rings/dsp/fx/fx_engine.h **** #ifndef RINGS_DSP_FX_FX_ENGINE_H_
  30:../../../mutable-instruments/rings/dsp/fx/fx_engine.h **** #define RINGS_DSP_FX_FX_ENGINE_H_
  31:../../../mutable-instruments/rings/dsp/fx/fx_engine.h **** 
  32:../../../mutable-instruments/rings/dsp/fx/fx_engine.h **** #include <algorithm>
  33:../../../mutable-instruments/rings/dsp/fx/fx_engine.h **** 
  34:../../../mutable-instruments/rings/dsp/fx/fx_engine.h **** #include "stmlib/stmlib.h"
  35:../../../mutable-instruments/rings/dsp/fx/fx_engine.h **** 
  36:../../../mutable-instruments/rings/dsp/fx/fx_engine.h **** #include "stmlib/dsp/dsp.h"
  37:../../../mutable-instruments/rings/dsp/fx/fx_engine.h **** #include "stmlib/dsp/cosine_oscillator.h"
  38:../../../mutable-instruments/rings/dsp/fx/fx_engine.h **** 
ARM GAS  /var/folders/hl/qgbwny5j0fd895c2c41bk3tw0000gp/T//ccEG44Zu.s 			page 14


  39:../../../mutable-instruments/rings/dsp/fx/fx_engine.h **** namespace rings {
  40:../../../mutable-instruments/rings/dsp/fx/fx_engine.h **** 
  41:../../../mutable-instruments/rings/dsp/fx/fx_engine.h **** #define TAIL , -1
  42:../../../mutable-instruments/rings/dsp/fx/fx_engine.h **** 
  43:../../../mutable-instruments/rings/dsp/fx/fx_engine.h **** enum Format {
  44:../../../mutable-instruments/rings/dsp/fx/fx_engine.h ****   FORMAT_12_BIT,
  45:../../../mutable-instruments/rings/dsp/fx/fx_engine.h ****   FORMAT_16_BIT,
  46:../../../mutable-instruments/rings/dsp/fx/fx_engine.h ****   FORMAT_32_BIT
  47:../../../mutable-instruments/rings/dsp/fx/fx_engine.h **** };
  48:../../../mutable-instruments/rings/dsp/fx/fx_engine.h **** 
  49:../../../mutable-instruments/rings/dsp/fx/fx_engine.h **** enum LFOIndex {
  50:../../../mutable-instruments/rings/dsp/fx/fx_engine.h ****   LFO_1,
  51:../../../mutable-instruments/rings/dsp/fx/fx_engine.h ****   LFO_2
  52:../../../mutable-instruments/rings/dsp/fx/fx_engine.h **** };
  53:../../../mutable-instruments/rings/dsp/fx/fx_engine.h **** 
  54:../../../mutable-instruments/rings/dsp/fx/fx_engine.h **** template<Format format>
  55:../../../mutable-instruments/rings/dsp/fx/fx_engine.h **** struct DataType { };
  56:../../../mutable-instruments/rings/dsp/fx/fx_engine.h **** 
  57:../../../mutable-instruments/rings/dsp/fx/fx_engine.h **** template<>
  58:../../../mutable-instruments/rings/dsp/fx/fx_engine.h **** struct DataType<FORMAT_12_BIT> {
  59:../../../mutable-instruments/rings/dsp/fx/fx_engine.h ****   typedef uint16_t T;
  60:../../../mutable-instruments/rings/dsp/fx/fx_engine.h ****   
  61:../../../mutable-instruments/rings/dsp/fx/fx_engine.h ****   static inline float Decompress(T value) {
  62:../../../mutable-instruments/rings/dsp/fx/fx_engine.h ****     return static_cast<float>(static_cast<int16_t>(value)) / 4096.0f;
  63:../../../mutable-instruments/rings/dsp/fx/fx_engine.h ****   }
  64:../../../mutable-instruments/rings/dsp/fx/fx_engine.h ****   
  65:../../../mutable-instruments/rings/dsp/fx/fx_engine.h ****   static inline T Compress(float value) {
  66:../../../mutable-instruments/rings/dsp/fx/fx_engine.h ****     return static_cast<uint16_t>(
  67:../../../mutable-instruments/rings/dsp/fx/fx_engine.h ****         stmlib::Clip16(static_cast<int32_t>(value * 4096.0f)));
  68:../../../mutable-instruments/rings/dsp/fx/fx_engine.h ****   }
  69:../../../mutable-instruments/rings/dsp/fx/fx_engine.h **** };
  70:../../../mutable-instruments/rings/dsp/fx/fx_engine.h **** 
  71:../../../mutable-instruments/rings/dsp/fx/fx_engine.h **** template<>
  72:../../../mutable-instruments/rings/dsp/fx/fx_engine.h **** struct DataType<FORMAT_16_BIT> {
  73:../../../mutable-instruments/rings/dsp/fx/fx_engine.h ****   typedef uint16_t T;
  74:../../../mutable-instruments/rings/dsp/fx/fx_engine.h ****   
  75:../../../mutable-instruments/rings/dsp/fx/fx_engine.h ****   static inline float Decompress(T value) {
  76:../../../mutable-instruments/rings/dsp/fx/fx_engine.h ****     return static_cast<float>(static_cast<int16_t>(value)) / 32768.0f;
  77:../../../mutable-instruments/rings/dsp/fx/fx_engine.h ****   }
  78:../../../mutable-instruments/rings/dsp/fx/fx_engine.h ****   
  79:../../../mutable-instruments/rings/dsp/fx/fx_engine.h ****   static inline T Compress(float value) {
  80:../../../mutable-instruments/rings/dsp/fx/fx_engine.h ****     return static_cast<uint16_t>(
  81:../../../mutable-instruments/rings/dsp/fx/fx_engine.h ****         stmlib::Clip16(static_cast<int32_t>(value * 32768.0f)));
  82:../../../mutable-instruments/rings/dsp/fx/fx_engine.h ****   }
  83:../../../mutable-instruments/rings/dsp/fx/fx_engine.h **** };
  84:../../../mutable-instruments/rings/dsp/fx/fx_engine.h **** 
  85:../../../mutable-instruments/rings/dsp/fx/fx_engine.h **** template<>
  86:../../../mutable-instruments/rings/dsp/fx/fx_engine.h **** struct DataType<FORMAT_32_BIT> {
  87:../../../mutable-instruments/rings/dsp/fx/fx_engine.h ****   typedef float T;
  88:../../../mutable-instruments/rings/dsp/fx/fx_engine.h ****   
  89:../../../mutable-instruments/rings/dsp/fx/fx_engine.h ****   static inline float Decompress(T value) {
  90:../../../mutable-instruments/rings/dsp/fx/fx_engine.h ****     return value;;
  91:../../../mutable-instruments/rings/dsp/fx/fx_engine.h ****   }
  92:../../../mutable-instruments/rings/dsp/fx/fx_engine.h ****   
  93:../../../mutable-instruments/rings/dsp/fx/fx_engine.h ****   static inline T Compress(float value) {
  94:../../../mutable-instruments/rings/dsp/fx/fx_engine.h ****     return value;
  95:../../../mutable-instruments/rings/dsp/fx/fx_engine.h ****   }
ARM GAS  /var/folders/hl/qgbwny5j0fd895c2c41bk3tw0000gp/T//ccEG44Zu.s 			page 15


  96:../../../mutable-instruments/rings/dsp/fx/fx_engine.h **** };
  97:../../../mutable-instruments/rings/dsp/fx/fx_engine.h **** 
  98:../../../mutable-instruments/rings/dsp/fx/fx_engine.h **** template<
  99:../../../mutable-instruments/rings/dsp/fx/fx_engine.h ****     size_t size,
 100:../../../mutable-instruments/rings/dsp/fx/fx_engine.h ****     Format format = FORMAT_12_BIT>
 101:../../../mutable-instruments/rings/dsp/fx/fx_engine.h **** class FxEngine {
 102:../../../mutable-instruments/rings/dsp/fx/fx_engine.h ****  public:
 103:../../../mutable-instruments/rings/dsp/fx/fx_engine.h ****   typedef typename DataType<format>::T T;
 104:../../../mutable-instruments/rings/dsp/fx/fx_engine.h ****   FxEngine() { }
 105:../../../mutable-instruments/rings/dsp/fx/fx_engine.h ****   ~FxEngine() { }
 161              		.loc 13 105 3 view .LVU24
 162              		.loc 13 105 3 is_stmt 0 view .LVU25
 163              	.LBE904:
 164              	.LBE903:
 165              		.loc 11 13 7 view .LVU26
 166 0000 7047     		bx	lr
 167              		.cfi_endproc
 168              	.LFE6065:
 170              		.weak	_ZN15EffectsHandlingD1Ev
 171              		.thumb_set _ZN15EffectsHandlingD1Ev,_ZN15EffectsHandlingD2Ev
 172 0002 00BF     		.section	.text._ZN5daisy8patch_sm7InitBedEv,"ax",%progbits
 173              		.align	1
 174              		.p2align 2,,3
 175              		.global	_ZN5daisy8patch_sm7InitBedEv
 176              		.syntax unified
 177              		.thumb
 178              		.thumb_func
 180              	_ZN5daisy8patch_sm7InitBedEv:
 181              	.LFB4793:
 182              		.file 14 "daisy_bed.h"
   1:daisy_bed.h   **** #pragma once
   2:daisy_bed.h   **** 
   3:daisy_bed.h   **** #include "daisy.h"
   4:daisy_bed.h   **** #include "per/gpio.h"
   5:daisy_bed.h   **** #include "daisy_patch_sm.h"
   6:daisy_bed.h   **** 
   7:daisy_bed.h   **** namespace daisy
   8:daisy_bed.h   **** {
   9:daisy_bed.h   **** namespace patch_sm
  10:daisy_bed.h   **** {
  11:daisy_bed.h   ****     // simple stupid led set up
  12:daisy_bed.h   ****     GPIO    gen_led1;
  13:daisy_bed.h   ****     GPIO    gen_led2;
  14:daisy_bed.h   ****     GPIO    cv_led1;
  15:daisy_bed.h   ****     GPIO    cv_led2;
  16:daisy_bed.h   ****     GPIO    gate_in_led1;
  17:daisy_bed.h   ****     GPIO    gate_in_led2;
  18:daisy_bed.h   ****     GPIO    gate_out_led1;
  19:daisy_bed.h   ****     GPIO    gate_out_led2;
  20:daisy_bed.h   **** 
  21:daisy_bed.h   **** 
  22:daisy_bed.h   ****     // generic leds
  23:daisy_bed.h   ****     dsy_gpio_pin oldPinD7 = DaisyPatchSM::D7;
  24:daisy_bed.h   ****     Pin newPinD7 = Pin(static_cast<GPIOPort>(oldPinD7.port), oldPinD7.pin);
  25:daisy_bed.h   ****     dsy_gpio_pin oldPinA9 = DaisyPatchSM::A9;
  26:daisy_bed.h   ****     Pin newPinA9 = Pin(static_cast<GPIOPort>(oldPinA9.port), oldPinA9.pin);
  27:daisy_bed.h   **** 
ARM GAS  /var/folders/hl/qgbwny5j0fd895c2c41bk3tw0000gp/T//ccEG44Zu.s 			page 16


  28:daisy_bed.h   ****     // cv leds
  29:daisy_bed.h   ****     dsy_gpio_pin oldPinD2 = DaisyPatchSM::D2;
  30:daisy_bed.h   ****     Pin newPinD2 = Pin(static_cast<GPIOPort>(oldPinD2.port), oldPinD2.pin);
  31:daisy_bed.h   ****     dsy_gpio_pin oldPinD1 = DaisyPatchSM::D1;
  32:daisy_bed.h   ****     Pin newPinD1 = Pin(static_cast<GPIOPort>(oldPinD1.port), oldPinD1.pin);
  33:daisy_bed.h   ****     // ^^^ {DSY_GPIOB, 4},  /**< D1  - SPI2 CS */
  34:daisy_bed.h   **** 
  35:daisy_bed.h   ****     // gate leds
  36:daisy_bed.h   ****     dsy_gpio_pin oldPinD3 = DaisyPatchSM::D3;
  37:daisy_bed.h   ****     Pin newPinD3 = Pin(static_cast<GPIOPort>(oldPinD3.port), oldPinD3.pin);
  38:daisy_bed.h   ****     dsy_gpio_pin oldPinD6 = DaisyPatchSM::D6;
  39:daisy_bed.h   ****     Pin newPinD6 = Pin(static_cast<GPIOPort>(oldPinD6.port), oldPinD6.pin);
  40:daisy_bed.h   ****     dsy_gpio_pin oldPinD4 = DaisyPatchSM::D4;
  41:daisy_bed.h   ****     Pin newPinD4 = Pin(static_cast<GPIOPort>(oldPinD4.port), oldPinD4.pin);
  42:daisy_bed.h   ****     dsy_gpio_pin oldPinD5 = DaisyPatchSM::D5;
  43:daisy_bed.h   ****     Pin newPinD5 = Pin(static_cast<GPIOPort>(oldPinD5.port), oldPinD5.pin);
  44:daisy_bed.h   **** 
  45:daisy_bed.h   ****     // remap
  46:daisy_bed.h   ****      
  47:daisy_bed.h   ****     // map buttons
  48:daisy_bed.h   ****     Switch      b1,b2;
  49:daisy_bed.h   **** 
  50:daisy_bed.h   ****     void InitBed(){
 183              		.loc 14 50 19 is_stmt 1 view -0
 184              		.cfi_startproc
 185              		@ args = 0, pretend = 0, frame = 8
 186              		@ frame_needed = 0, uses_anonymous_args = 0
  51:daisy_bed.h   ****         // leds
  52:daisy_bed.h   ****         gen_led1.Init(newPinD7, GPIO::Mode::OUTPUT);
 187              		.loc 14 52 9 view .LVU28
  50:daisy_bed.h   ****         // leds
 188              		.loc 14 50 19 is_stmt 0 view .LVU29
 189 0000 10B5     		push	{r4, lr}
 190              		.cfi_def_cfa_offset 8
 191              		.cfi_offset 4, -8
 192              		.cfi_offset 14, -4
 193              		.loc 14 52 22 view .LVU30
 194 0002 2D49     		ldr	r1, .L8
  50:daisy_bed.h   ****         // leds
 195              		.loc 14 50 19 view .LVU31
 196 0004 84B0     		sub	sp, sp, #16
 197              		.cfi_def_cfa_offset 24
 198              		.loc 14 52 22 view .LVU32
 199 0006 0024     		movs	r4, #0
 200 0008 0122     		movs	r2, #1
 201 000a 0968     		ldr	r1, [r1]
 202 000c 2346     		mov	r3, r4
 203 000e 2B48     		ldr	r0, .L8+4
 204 0010 0094     		str	r4, [sp]
 205 0012 FFF7FEFF 		bl	_ZN5daisy4GPIO4InitENS_3PinENS0_4ModeENS0_4PullENS0_5SpeedE
 206              	.LVL4:
  53:daisy_bed.h   ****         gen_led2.Init(newPinA9, GPIO::Mode::OUTPUT);
 207              		.loc 14 53 9 is_stmt 1 view .LVU33
 208              		.loc 14 53 22 is_stmt 0 view .LVU34
 209 0016 2A49     		ldr	r1, .L8+8
 210 0018 2346     		mov	r3, r4
 211 001a 0122     		movs	r2, #1
ARM GAS  /var/folders/hl/qgbwny5j0fd895c2c41bk3tw0000gp/T//ccEG44Zu.s 			page 17


 212 001c 0968     		ldr	r1, [r1]
 213 001e 2948     		ldr	r0, .L8+12
 214 0020 0094     		str	r4, [sp]
 215 0022 FFF7FEFF 		bl	_ZN5daisy4GPIO4InitENS_3PinENS0_4ModeENS0_4PullENS0_5SpeedE
 216              	.LVL5:
  54:daisy_bed.h   ****         cv_led1.Init(newPinD2, GPIO::Mode::OUTPUT);
 217              		.loc 14 54 9 is_stmt 1 view .LVU35
 218              		.loc 14 54 21 is_stmt 0 view .LVU36
 219 0026 2849     		ldr	r1, .L8+16
 220 0028 2346     		mov	r3, r4
 221 002a 0122     		movs	r2, #1
 222 002c 0968     		ldr	r1, [r1]
 223 002e 2748     		ldr	r0, .L8+20
 224 0030 0094     		str	r4, [sp]
 225 0032 FFF7FEFF 		bl	_ZN5daisy4GPIO4InitENS_3PinENS0_4ModeENS0_4PullENS0_5SpeedE
 226              	.LVL6:
  55:daisy_bed.h   ****         cv_led2.Init(newPinD1, GPIO::Mode::OUTPUT);
 227              		.loc 14 55 9 is_stmt 1 view .LVU37
 228              		.loc 14 55 21 is_stmt 0 view .LVU38
 229 0036 2649     		ldr	r1, .L8+24
 230 0038 2346     		mov	r3, r4
 231 003a 0122     		movs	r2, #1
 232 003c 0968     		ldr	r1, [r1]
 233 003e 2548     		ldr	r0, .L8+28
 234 0040 0094     		str	r4, [sp]
 235 0042 FFF7FEFF 		bl	_ZN5daisy4GPIO4InitENS_3PinENS0_4ModeENS0_4PullENS0_5SpeedE
 236              	.LVL7:
  56:daisy_bed.h   ****         gate_in_led1.Init(newPinD3, GPIO::Mode::OUTPUT);
 237              		.loc 14 56 9 is_stmt 1 view .LVU39
 238              		.loc 14 56 26 is_stmt 0 view .LVU40
 239 0046 2449     		ldr	r1, .L8+32
 240 0048 2346     		mov	r3, r4
 241 004a 0122     		movs	r2, #1
 242 004c 0968     		ldr	r1, [r1]
 243 004e 2348     		ldr	r0, .L8+36
 244 0050 0094     		str	r4, [sp]
 245 0052 FFF7FEFF 		bl	_ZN5daisy4GPIO4InitENS_3PinENS0_4ModeENS0_4PullENS0_5SpeedE
 246              	.LVL8:
  57:daisy_bed.h   ****         gate_in_led2.Init(newPinD4, GPIO::Mode::OUTPUT);
 247              		.loc 14 57 9 is_stmt 1 view .LVU41
 248              		.loc 14 57 26 is_stmt 0 view .LVU42
 249 0056 2249     		ldr	r1, .L8+40
 250 0058 2346     		mov	r3, r4
 251 005a 0122     		movs	r2, #1
 252 005c 0968     		ldr	r1, [r1]
 253 005e 2148     		ldr	r0, .L8+44
 254 0060 0094     		str	r4, [sp]
 255 0062 FFF7FEFF 		bl	_ZN5daisy4GPIO4InitENS_3PinENS0_4ModeENS0_4PullENS0_5SpeedE
 256              	.LVL9:
  58:daisy_bed.h   ****         gate_out_led1.Init(newPinD6, GPIO::Mode::OUTPUT);
 257              		.loc 14 58 9 is_stmt 1 view .LVU43
 258              		.loc 14 58 27 is_stmt 0 view .LVU44
 259 0066 2049     		ldr	r1, .L8+48
 260 0068 2346     		mov	r3, r4
 261 006a 0122     		movs	r2, #1
 262 006c 0968     		ldr	r1, [r1]
 263 006e 1F48     		ldr	r0, .L8+52
ARM GAS  /var/folders/hl/qgbwny5j0fd895c2c41bk3tw0000gp/T//ccEG44Zu.s 			page 18


 264 0070 0094     		str	r4, [sp]
 265 0072 FFF7FEFF 		bl	_ZN5daisy4GPIO4InitENS_3PinENS0_4ModeENS0_4PullENS0_5SpeedE
 266              	.LVL10:
  59:daisy_bed.h   ****         gate_out_led2.Init(newPinD5, GPIO::Mode::OUTPUT);
 267              		.loc 14 59 9 is_stmt 1 view .LVU45
 268              		.loc 14 59 27 is_stmt 0 view .LVU46
 269 0076 1E49     		ldr	r1, .L8+56
 270 0078 2346     		mov	r3, r4
 271 007a 0122     		movs	r2, #1
 272 007c 0968     		ldr	r1, [r1]
 273 007e 1D48     		ldr	r0, .L8+60
 274 0080 0094     		str	r4, [sp]
 275 0082 FFF7FEFF 		bl	_ZN5daisy4GPIO4InitENS_3PinENS0_4ModeENS0_4PullENS0_5SpeedE
 276              	.LVL11:
  60:daisy_bed.h   **** 
  61:daisy_bed.h   ****         // buttons
  62:daisy_bed.h   ****         b1.Init(DaisyPatchSM::A8);
 277              		.loc 14 62 9 is_stmt 1 view .LVU47
 278              		.loc 14 62 16 is_stmt 0 view .LVU48
 279 0086 1C4B     		ldr	r3, .L8+64
 280 0088 9FED1C0A 		vldr.32	s0, .L8+68
 281 008c 1A78     		ldrb	r2, [r3]	@ zero_extendqisi2
 282 008e 5978     		ldrb	r1, [r3, #1]	@ zero_extendqisi2
 283 0090 1B48     		ldr	r0, .L8+72
 284 0092 42EA0121 		orr	r1, r2, r1, lsl #8
 285 0096 8DED030A 		vstr.32	s0, [sp, #12]	@ int
 286 009a FFF7FEFF 		bl	_ZN5daisy6Switch4InitE12dsy_gpio_pinf
 287              	.LVL12:
  63:daisy_bed.h   ****         b2.Init(DaisyPatchSM::D10);
 288              		.loc 14 63 9 is_stmt 1 view .LVU49
 289              		.loc 14 63 16 is_stmt 0 view .LVU50
 290 009e 194B     		ldr	r3, .L8+76
 291 00a0 9DED030A 		vldr.32	s0, [sp, #12]	@ int
 292 00a4 1A78     		ldrb	r2, [r3]	@ zero_extendqisi2
 293 00a6 5978     		ldrb	r1, [r3, #1]	@ zero_extendqisi2
 294 00a8 1748     		ldr	r0, .L8+80
 295 00aa 42EA0121 		orr	r1, r2, r1, lsl #8
  64:daisy_bed.h   ****     }
 296              		.loc 14 64 5 view .LVU51
 297 00ae 04B0     		add	sp, sp, #16
 298              		.cfi_def_cfa_offset 8
 299              		@ sp needed
 300 00b0 BDE81040 		pop	{r4, lr}
 301              		.cfi_restore 14
 302              		.cfi_restore 4
 303              		.cfi_def_cfa_offset 0
  63:daisy_bed.h   ****         b2.Init(DaisyPatchSM::D10);
 304              		.loc 14 63 16 view .LVU52
 305 00b4 FFF7FEBF 		b	_ZN5daisy6Switch4InitE12dsy_gpio_pinf
 306              	.LVL13:
 307              	.L9:
 308              		.align	2
 309              	.L8:
 310 00b8 00000000 		.word	.LANCHOR0
 311 00bc 00000000 		.word	.LANCHOR1
 312 00c0 00000000 		.word	.LANCHOR2
 313 00c4 00000000 		.word	.LANCHOR3
ARM GAS  /var/folders/hl/qgbwny5j0fd895c2c41bk3tw0000gp/T//ccEG44Zu.s 			page 19


 314 00c8 00000000 		.word	.LANCHOR4
 315 00cc 00000000 		.word	.LANCHOR5
 316 00d0 00000000 		.word	.LANCHOR6
 317 00d4 00000000 		.word	.LANCHOR7
 318 00d8 00000000 		.word	.LANCHOR8
 319 00dc 00000000 		.word	.LANCHOR9
 320 00e0 00000000 		.word	.LANCHOR10
 321 00e4 00000000 		.word	.LANCHOR11
 322 00e8 00000000 		.word	.LANCHOR12
 323 00ec 00000000 		.word	.LANCHOR13
 324 00f0 00000000 		.word	.LANCHOR14
 325 00f4 00000000 		.word	.LANCHOR15
 326 00f8 00000000 		.word	_ZN5daisy8patch_sm12DaisyPatchSM2A8E
 327 00fc 00000000 		.word	0
 328 0100 00000000 		.word	.LANCHOR16
 329 0104 00000000 		.word	_ZN5daisy8patch_sm12DaisyPatchSM3D10E
 330 0108 00000000 		.word	.LANCHOR17
 331              		.cfi_endproc
 332              	.LFE4793:
 334              		.section	.text._ZN5daisy8patch_sm6ledOffEv,"ax",%progbits
 335              		.align	1
 336              		.p2align 2,,3
 337              		.global	_ZN5daisy8patch_sm6ledOffEv
 338              		.syntax unified
 339              		.thumb
 340              		.thumb_func
 342              	_ZN5daisy8patch_sm6ledOffEv:
 343              	.LFB4794:
  65:daisy_bed.h   **** 
  66:daisy_bed.h   ****     void ledOff(){
 344              		.loc 14 66 18 is_stmt 1 view -0
 345              		.cfi_startproc
 346              		@ args = 0, pretend = 0, frame = 0
 347              		@ frame_needed = 0, uses_anonymous_args = 0
  67:daisy_bed.h   ****         gen_led1.Write(false);
 348              		.loc 14 67 9 view .LVU54
  66:daisy_bed.h   ****         gen_led1.Write(false);
 349              		.loc 14 66 18 is_stmt 0 view .LVU55
 350 0000 08B5     		push	{r3, lr}
 351              		.cfi_def_cfa_offset 8
 352              		.cfi_offset 3, -8
 353              		.cfi_offset 14, -4
 354              		.loc 14 67 23 view .LVU56
 355 0002 0021     		movs	r1, #0
 356 0004 0848     		ldr	r0, .L12
 357 0006 FFF7FEFF 		bl	_ZN5daisy4GPIO5WriteEb
 358              	.LVL14:
  68:daisy_bed.h   ****         gen_led2.Write(false);
 359              		.loc 14 68 9 is_stmt 1 view .LVU57
 360              		.loc 14 68 23 is_stmt 0 view .LVU58
 361 000a 0021     		movs	r1, #0
 362 000c 0748     		ldr	r0, .L12+4
 363 000e FFF7FEFF 		bl	_ZN5daisy4GPIO5WriteEb
 364              	.LVL15:
  69:daisy_bed.h   ****         cv_led1.Write(false);
 365              		.loc 14 69 9 is_stmt 1 view .LVU59
 366              		.loc 14 69 22 is_stmt 0 view .LVU60
ARM GAS  /var/folders/hl/qgbwny5j0fd895c2c41bk3tw0000gp/T//ccEG44Zu.s 			page 20


 367 0012 0021     		movs	r1, #0
 368 0014 0648     		ldr	r0, .L12+8
 369 0016 FFF7FEFF 		bl	_ZN5daisy4GPIO5WriteEb
 370              	.LVL16:
  70:daisy_bed.h   ****         cv_led2.Write(false);
 371              		.loc 14 70 9 is_stmt 1 view .LVU61
 372              		.loc 14 70 22 is_stmt 0 view .LVU62
 373 001a 0021     		movs	r1, #0
 374 001c 0548     		ldr	r0, .L12+12
  71:daisy_bed.h   ****     }
 375              		.loc 14 71 5 view .LVU63
 376 001e BDE80840 		pop	{r3, lr}
 377              		.cfi_restore 14
 378              		.cfi_restore 3
 379              		.cfi_def_cfa_offset 0
  70:daisy_bed.h   ****         cv_led2.Write(false);
 380              		.loc 14 70 22 view .LVU64
 381 0022 FFF7FEBF 		b	_ZN5daisy4GPIO5WriteEb
 382              	.LVL17:
 383              	.L13:
 384 0026 00BF     		.align	2
 385              	.L12:
 386 0028 00000000 		.word	.LANCHOR1
 387 002c 00000000 		.word	.LANCHOR3
 388 0030 00000000 		.word	.LANCHOR5
 389 0034 00000000 		.word	.LANCHOR7
 390              		.cfi_endproc
 391              	.LFE4794:
 393              		.section	.text._ZN5daisy8patch_sm13StartupCheeseEv,"ax",%progbits
 394              		.align	1
 395              		.p2align 2,,3
 396              		.global	_ZN5daisy8patch_sm13StartupCheeseEv
 397              		.syntax unified
 398              		.thumb
 399              		.thumb_func
 401              	_ZN5daisy8patch_sm13StartupCheeseEv:
 402              	.LFB4795:
  72:daisy_bed.h   **** 
  73:daisy_bed.h   ****     void StartupCheese(){
 403              		.loc 14 73 25 is_stmt 1 view -0
 404              		.cfi_startproc
 405              		@ args = 0, pretend = 0, frame = 0
 406              		@ frame_needed = 0, uses_anonymous_args = 0
  74:daisy_bed.h   **** 		gate_in_led1.Toggle();
 407              		.loc 14 74 3 view .LVU66
  73:daisy_bed.h   **** 		gate_in_led1.Toggle();
 408              		.loc 14 73 25 is_stmt 0 view .LVU67
 409 0000 F8B5     		push	{r3, r4, r5, r6, r7, lr}
 410              		.cfi_def_cfa_offset 24
 411              		.cfi_offset 3, -24
 412              		.cfi_offset 4, -20
 413              		.cfi_offset 5, -16
 414              		.cfi_offset 6, -12
 415              		.cfi_offset 7, -8
 416              		.cfi_offset 14, -4
 417              		.loc 14 74 22 view .LVU68
 418 0002 2348     		ldr	r0, .L16
ARM GAS  /var/folders/hl/qgbwny5j0fd895c2c41bk3tw0000gp/T//ccEG44Zu.s 			page 21


 419 0004 FFF7FEFF 		bl	_ZN5daisy4GPIO6ToggleEv
 420              	.LVL18:
  75:daisy_bed.h   **** 		System::Delay(100);
 421              		.loc 14 75 3 is_stmt 1 view .LVU69
 422              		.loc 14 75 16 is_stmt 0 view .LVU70
 423 0008 6420     		movs	r0, #100
 424 000a FFF7FEFF 		bl	_ZN5daisy6System5DelayEm
 425              	.LVL19:
  76:daisy_bed.h   **** 		gate_in_led2.Toggle();
 426              		.loc 14 76 3 is_stmt 1 view .LVU71
  77:daisy_bed.h   **** 		System::Delay(100);
  78:daisy_bed.h   **** 		gen_led1.Toggle();
 427              		.loc 14 78 18 is_stmt 0 view .LVU72
 428 000e 214F     		ldr	r7, .L16+4
  76:daisy_bed.h   **** 		gate_in_led2.Toggle();
 429              		.loc 14 76 22 view .LVU73
 430 0010 2148     		ldr	r0, .L16+8
 431 0012 FFF7FEFF 		bl	_ZN5daisy4GPIO6ToggleEv
 432              	.LVL20:
  77:daisy_bed.h   **** 		System::Delay(100);
 433              		.loc 14 77 3 is_stmt 1 view .LVU74
  77:daisy_bed.h   **** 		System::Delay(100);
 434              		.loc 14 77 16 is_stmt 0 view .LVU75
 435 0016 6420     		movs	r0, #100
 436 0018 FFF7FEFF 		bl	_ZN5daisy6System5DelayEm
 437              	.LVL21:
 438              		.loc 14 78 3 is_stmt 1 view .LVU76
  79:daisy_bed.h   **** 		System::Delay(100);
  80:daisy_bed.h   **** 		gen_led2.Toggle();
 439              		.loc 14 80 18 is_stmt 0 view .LVU77
 440 001c 1F4E     		ldr	r6, .L16+12
  78:daisy_bed.h   **** 		System::Delay(100);
 441              		.loc 14 78 18 view .LVU78
 442 001e 3846     		mov	r0, r7
  81:daisy_bed.h   **** 		System::Delay(100);
  82:daisy_bed.h   **** 		cv_led1.Toggle();
 443              		.loc 14 82 17 view .LVU79
 444 0020 1F4D     		ldr	r5, .L16+16
  78:daisy_bed.h   **** 		System::Delay(100);
 445              		.loc 14 78 18 view .LVU80
 446 0022 FFF7FEFF 		bl	_ZN5daisy4GPIO6ToggleEv
 447              	.LVL22:
  79:daisy_bed.h   **** 		gen_led2.Toggle();
 448              		.loc 14 79 3 is_stmt 1 view .LVU81
  79:daisy_bed.h   **** 		gen_led2.Toggle();
 449              		.loc 14 79 16 is_stmt 0 view .LVU82
 450 0026 6420     		movs	r0, #100
 451 0028 FFF7FEFF 		bl	_ZN5daisy6System5DelayEm
 452              	.LVL23:
  80:daisy_bed.h   **** 		System::Delay(100);
 453              		.loc 14 80 3 is_stmt 1 view .LVU83
  80:daisy_bed.h   **** 		System::Delay(100);
 454              		.loc 14 80 18 is_stmt 0 view .LVU84
 455 002c 3046     		mov	r0, r6
 456 002e FFF7FEFF 		bl	_ZN5daisy4GPIO6ToggleEv
 457              	.LVL24:
  81:daisy_bed.h   **** 		System::Delay(100);
ARM GAS  /var/folders/hl/qgbwny5j0fd895c2c41bk3tw0000gp/T//ccEG44Zu.s 			page 22


 458              		.loc 14 81 3 is_stmt 1 view .LVU85
  81:daisy_bed.h   **** 		System::Delay(100);
 459              		.loc 14 81 16 is_stmt 0 view .LVU86
 460 0032 6420     		movs	r0, #100
 461 0034 FFF7FEFF 		bl	_ZN5daisy6System5DelayEm
 462              	.LVL25:
 463              		.loc 14 82 3 is_stmt 1 view .LVU87
  83:daisy_bed.h   **** 		System::Delay(100);
  84:daisy_bed.h   **** 		cv_led2.Toggle();
 464              		.loc 14 84 17 is_stmt 0 view .LVU88
 465 0038 1A4C     		ldr	r4, .L16+20
  82:daisy_bed.h   **** 		System::Delay(100);
 466              		.loc 14 82 17 view .LVU89
 467 003a 2846     		mov	r0, r5
 468 003c FFF7FEFF 		bl	_ZN5daisy4GPIO6ToggleEv
 469              	.LVL26:
  83:daisy_bed.h   **** 		System::Delay(100);
 470              		.loc 14 83 3 is_stmt 1 view .LVU90
  83:daisy_bed.h   **** 		System::Delay(100);
 471              		.loc 14 83 16 is_stmt 0 view .LVU91
 472 0040 6420     		movs	r0, #100
 473 0042 FFF7FEFF 		bl	_ZN5daisy6System5DelayEm
 474              	.LVL27:
 475              		.loc 14 84 3 is_stmt 1 view .LVU92
 476              		.loc 14 84 17 is_stmt 0 view .LVU93
 477 0046 2046     		mov	r0, r4
 478 0048 FFF7FEFF 		bl	_ZN5daisy4GPIO6ToggleEv
 479              	.LVL28:
  85:daisy_bed.h   **** 		System::Delay(100);
 480              		.loc 14 85 3 is_stmt 1 view .LVU94
 481              		.loc 14 85 16 is_stmt 0 view .LVU95
 482 004c 6420     		movs	r0, #100
 483 004e FFF7FEFF 		bl	_ZN5daisy6System5DelayEm
 484              	.LVL29:
  86:daisy_bed.h   **** 		gate_out_led1.Toggle();
 485              		.loc 14 86 3 is_stmt 1 view .LVU96
 486              		.loc 14 86 23 is_stmt 0 view .LVU97
 487 0052 1548     		ldr	r0, .L16+24
 488 0054 FFF7FEFF 		bl	_ZN5daisy4GPIO6ToggleEv
 489              	.LVL30:
  87:daisy_bed.h   **** 		System::Delay(100);
 490              		.loc 14 87 3 is_stmt 1 view .LVU98
 491              		.loc 14 87 16 is_stmt 0 view .LVU99
 492 0058 6420     		movs	r0, #100
 493 005a FFF7FEFF 		bl	_ZN5daisy6System5DelayEm
 494              	.LVL31:
  88:daisy_bed.h   **** 		gate_out_led2.Toggle();
 495              		.loc 14 88 3 is_stmt 1 view .LVU100
 496              		.loc 14 88 23 is_stmt 0 view .LVU101
 497 005e 1348     		ldr	r0, .L16+28
 498 0060 FFF7FEFF 		bl	_ZN5daisy4GPIO6ToggleEv
 499              	.LVL32:
  89:daisy_bed.h   **** 		System::Delay(100);
 500              		.loc 14 89 3 is_stmt 1 view .LVU102
 501              		.loc 14 89 16 is_stmt 0 view .LVU103
 502 0064 6420     		movs	r0, #100
 503 0066 FFF7FEFF 		bl	_ZN5daisy6System5DelayEm
ARM GAS  /var/folders/hl/qgbwny5j0fd895c2c41bk3tw0000gp/T//ccEG44Zu.s 			page 23


 504              	.LVL33:
  90:daisy_bed.h   ****         ledOff();
 505              		.loc 14 90 9 is_stmt 1 view .LVU104
 506              	.LBB907:
 507              	.LBI907:
  66:daisy_bed.h   ****         gen_led1.Write(false);
 508              		.loc 14 66 10 view .LVU105
 509              	.LBB908:
  67:daisy_bed.h   ****         gen_led2.Write(false);
 510              		.loc 14 67 9 view .LVU106
  67:daisy_bed.h   ****         gen_led2.Write(false);
 511              		.loc 14 67 23 is_stmt 0 view .LVU107
 512 006a 3846     		mov	r0, r7
 513 006c 0021     		movs	r1, #0
 514 006e FFF7FEFF 		bl	_ZN5daisy4GPIO5WriteEb
 515              	.LVL34:
  68:daisy_bed.h   ****         cv_led1.Write(false);
 516              		.loc 14 68 9 is_stmt 1 view .LVU108
  68:daisy_bed.h   ****         cv_led1.Write(false);
 517              		.loc 14 68 23 is_stmt 0 view .LVU109
 518 0072 3046     		mov	r0, r6
 519 0074 0021     		movs	r1, #0
 520 0076 FFF7FEFF 		bl	_ZN5daisy4GPIO5WriteEb
 521              	.LVL35:
  69:daisy_bed.h   ****         cv_led2.Write(false);
 522              		.loc 14 69 9 is_stmt 1 view .LVU110
  69:daisy_bed.h   ****         cv_led2.Write(false);
 523              		.loc 14 69 22 is_stmt 0 view .LVU111
 524 007a 2846     		mov	r0, r5
 525 007c 0021     		movs	r1, #0
 526 007e FFF7FEFF 		bl	_ZN5daisy4GPIO5WriteEb
 527              	.LVL36:
  70:daisy_bed.h   ****     }
 528              		.loc 14 70 9 is_stmt 1 view .LVU112
  70:daisy_bed.h   ****     }
 529              		.loc 14 70 22 is_stmt 0 view .LVU113
 530 0082 2046     		mov	r0, r4
 531 0084 0021     		movs	r1, #0
 532              	.LBE908:
 533              	.LBE907:
  91:daisy_bed.h   ****     }
 534              		.loc 14 91 5 view .LVU114
 535 0086 BDE8F840 		pop	{r3, r4, r5, r6, r7, lr}
 536              		.cfi_restore 14
 537              		.cfi_restore 7
 538              		.cfi_restore 6
 539              		.cfi_restore 5
 540              		.cfi_restore 4
 541              		.cfi_restore 3
 542              		.cfi_def_cfa_offset 0
 543              	.LBB910:
 544              	.LBB909:
  70:daisy_bed.h   ****     }
 545              		.loc 14 70 22 view .LVU115
 546 008a FFF7FEBF 		b	_ZN5daisy4GPIO5WriteEb
 547              	.LVL37:
 548              	.L17:
ARM GAS  /var/folders/hl/qgbwny5j0fd895c2c41bk3tw0000gp/T//ccEG44Zu.s 			page 24


 549 008e 00BF     		.align	2
 550              	.L16:
 551 0090 00000000 		.word	.LANCHOR9
 552 0094 00000000 		.word	.LANCHOR1
 553 0098 00000000 		.word	.LANCHOR11
 554 009c 00000000 		.word	.LANCHOR3
 555 00a0 00000000 		.word	.LANCHOR5
 556 00a4 00000000 		.word	.LANCHOR7
 557 00a8 00000000 		.word	.LANCHOR13
 558 00ac 00000000 		.word	.LANCHOR15
 559              	.LBE909:
 560              	.LBE910:
 561              		.cfi_endproc
 562              	.LFE4795:
 564              		.section	.text._ZN5daisy8patch_sm8gateTestEv,"ax",%progbits
 565              		.align	1
 566              		.p2align 2,,3
 567              		.global	_ZN5daisy8patch_sm8gateTestEv
 568              		.syntax unified
 569              		.thumb
 570              		.thumb_func
 572              	_ZN5daisy8patch_sm8gateTestEv:
 573              	.LFB4796:
  92:daisy_bed.h   **** 
  93:daisy_bed.h   ****     void gateTest()
  94:daisy_bed.h   ****     {
 574              		.loc 14 94 5 is_stmt 1 view -0
 575              		.cfi_startproc
 576              		@ args = 0, pretend = 0, frame = 0
 577              		@ frame_needed = 0, uses_anonymous_args = 0
  95:daisy_bed.h   ****         gate_in_led1.Toggle();
 578              		.loc 14 95 9 view .LVU117
  94:daisy_bed.h   ****         gate_in_led1.Toggle();
 579              		.loc 14 94 5 is_stmt 0 view .LVU118
 580 0000 08B5     		push	{r3, lr}
 581              		.cfi_def_cfa_offset 8
 582              		.cfi_offset 3, -8
 583              		.cfi_offset 14, -4
 584              		.loc 14 95 28 view .LVU119
 585 0002 0F48     		ldr	r0, .L20
 586 0004 FFF7FEFF 		bl	_ZN5daisy4GPIO6ToggleEv
 587              	.LVL38:
  96:daisy_bed.h   ****         System::Delay(1000);
 588              		.loc 14 96 9 is_stmt 1 view .LVU120
 589              		.loc 14 96 22 is_stmt 0 view .LVU121
 590 0008 4FF47A70 		mov	r0, #1000
 591 000c FFF7FEFF 		bl	_ZN5daisy6System5DelayEm
 592              	.LVL39:
  97:daisy_bed.h   ****         gate_in_led2.Toggle();
 593              		.loc 14 97 9 is_stmt 1 view .LVU122
 594              		.loc 14 97 28 is_stmt 0 view .LVU123
 595 0010 0C48     		ldr	r0, .L20+4
 596 0012 FFF7FEFF 		bl	_ZN5daisy4GPIO6ToggleEv
 597              	.LVL40:
  98:daisy_bed.h   ****         System::Delay(1000);
 598              		.loc 14 98 9 is_stmt 1 view .LVU124
 599              		.loc 14 98 22 is_stmt 0 view .LVU125
ARM GAS  /var/folders/hl/qgbwny5j0fd895c2c41bk3tw0000gp/T//ccEG44Zu.s 			page 25


 600 0016 4FF47A70 		mov	r0, #1000
 601 001a FFF7FEFF 		bl	_ZN5daisy6System5DelayEm
 602              	.LVL41:
  99:daisy_bed.h   ****         gate_out_led1.Toggle();
 603              		.loc 14 99 9 is_stmt 1 view .LVU126
 604              		.loc 14 99 29 is_stmt 0 view .LVU127
 605 001e 0A48     		ldr	r0, .L20+8
 606 0020 FFF7FEFF 		bl	_ZN5daisy4GPIO6ToggleEv
 607              	.LVL42:
 100:daisy_bed.h   ****         System::Delay(1000);
 608              		.loc 14 100 9 is_stmt 1 view .LVU128
 609              		.loc 14 100 22 is_stmt 0 view .LVU129
 610 0024 4FF47A70 		mov	r0, #1000
 611 0028 FFF7FEFF 		bl	_ZN5daisy6System5DelayEm
 612              	.LVL43:
 101:daisy_bed.h   ****         gate_out_led2.Toggle();
 613              		.loc 14 101 9 is_stmt 1 view .LVU130
 614              		.loc 14 101 29 is_stmt 0 view .LVU131
 615 002c 0748     		ldr	r0, .L20+12
 616 002e FFF7FEFF 		bl	_ZN5daisy4GPIO6ToggleEv
 617              	.LVL44:
 102:daisy_bed.h   ****         System::Delay(1000);
 618              		.loc 14 102 9 is_stmt 1 view .LVU132
 619              		.loc 14 102 22 is_stmt 0 view .LVU133
 620 0032 4FF47A70 		mov	r0, #1000
 103:daisy_bed.h   ****     }
 621              		.loc 14 103 5 view .LVU134
 622 0036 BDE80840 		pop	{r3, lr}
 623              		.cfi_restore 14
 624              		.cfi_restore 3
 625              		.cfi_def_cfa_offset 0
 102:daisy_bed.h   ****         System::Delay(1000);
 626              		.loc 14 102 22 view .LVU135
 627 003a FFF7FEBF 		b	_ZN5daisy6System5DelayEm
 628              	.LVL45:
 629              	.L21:
 630 003e 00BF     		.align	2
 631              	.L20:
 632 0040 00000000 		.word	.LANCHOR9
 633 0044 00000000 		.word	.LANCHOR11
 634 0048 00000000 		.word	.LANCHOR13
 635 004c 00000000 		.word	.LANCHOR15
 636              		.cfi_endproc
 637              	.LFE4796:
 639              		.section	.text._ZN5rings6Reverb7ProcessEPfS1_j,"axG",%progbits,_ZN5rings6Reverb7ProcessEPfS1_j,com
 640              		.align	1
 641              		.p2align 2,,3
 642              		.weak	_ZN5rings6Reverb7ProcessEPfS1_j
 643              		.syntax unified
 644              		.thumb
 645              		.thumb_func
 647              	_ZN5rings6Reverb7ProcessEPfS1_j:
 648              	.LVL46:
 649              	.LFB4875:
  42:../../../mutable-instruments/rings/dsp/fx/reverb.h ****   
  43:../../../mutable-instruments/rings/dsp/fx/reverb.h ****   void Init(uint16_t* buffer) {
  44:../../../mutable-instruments/rings/dsp/fx/reverb.h ****     engine_.Init(buffer);
ARM GAS  /var/folders/hl/qgbwny5j0fd895c2c41bk3tw0000gp/T//ccEG44Zu.s 			page 26


  45:../../../mutable-instruments/rings/dsp/fx/reverb.h ****     engine_.SetLFOFrequency(LFO_1, 0.5f / 48000.0f);
  46:../../../mutable-instruments/rings/dsp/fx/reverb.h ****     engine_.SetLFOFrequency(LFO_2, 0.3f / 48000.0f);
  47:../../../mutable-instruments/rings/dsp/fx/reverb.h ****     lp_ = 0.7f;
  48:../../../mutable-instruments/rings/dsp/fx/reverb.h ****     diffusion_ = 0.625f;
  49:../../../mutable-instruments/rings/dsp/fx/reverb.h ****   }
  50:../../../mutable-instruments/rings/dsp/fx/reverb.h ****   
  51:../../../mutable-instruments/rings/dsp/fx/reverb.h ****   void Process(float* left, float* right, size_t size) {
 650              		.loc 12 51 8 is_stmt 1 view -0
 651              		.cfi_startproc
 652              		@ args = 0, pretend = 0, frame = 0
 653              		@ frame_needed = 0, uses_anonymous_args = 0
  52:../../../mutable-instruments/rings/dsp/fx/reverb.h ****     // This is the Griesinger topology described in the Dattorro paper
  53:../../../mutable-instruments/rings/dsp/fx/reverb.h ****     // (4 AP diffusers on the input, then a loop of 2x 2AP+1Delay).
  54:../../../mutable-instruments/rings/dsp/fx/reverb.h ****     // Modulation is applied in the loop of the first diffuser AP for additional
  55:../../../mutable-instruments/rings/dsp/fx/reverb.h ****     // smearing; and to the two long delays for a slow shimmer/chorus effect.
  56:../../../mutable-instruments/rings/dsp/fx/reverb.h ****     typedef E::Reserve<150,
 654              		.loc 12 56 5 view .LVU137
  57:../../../mutable-instruments/rings/dsp/fx/reverb.h ****       E::Reserve<214,
  58:../../../mutable-instruments/rings/dsp/fx/reverb.h ****       E::Reserve<319,
  59:../../../mutable-instruments/rings/dsp/fx/reverb.h ****       E::Reserve<527,
  60:../../../mutable-instruments/rings/dsp/fx/reverb.h ****       E::Reserve<2182,
  61:../../../mutable-instruments/rings/dsp/fx/reverb.h ****       E::Reserve<2690,
  62:../../../mutable-instruments/rings/dsp/fx/reverb.h ****       E::Reserve<4501,
  63:../../../mutable-instruments/rings/dsp/fx/reverb.h ****       E::Reserve<2525,
  64:../../../mutable-instruments/rings/dsp/fx/reverb.h ****       E::Reserve<2197,
  65:../../../mutable-instruments/rings/dsp/fx/reverb.h ****       E::Reserve<6312> > > > > > > > > > Memory;
  66:../../../mutable-instruments/rings/dsp/fx/reverb.h ****     E::DelayLine<Memory, 0> ap1;
 655              		.loc 12 66 5 view .LVU138
  67:../../../mutable-instruments/rings/dsp/fx/reverb.h ****     E::DelayLine<Memory, 1> ap2;
 656              		.loc 12 67 5 view .LVU139
  68:../../../mutable-instruments/rings/dsp/fx/reverb.h ****     E::DelayLine<Memory, 2> ap3;
 657              		.loc 12 68 5 view .LVU140
  69:../../../mutable-instruments/rings/dsp/fx/reverb.h ****     E::DelayLine<Memory, 3> ap4;
 658              		.loc 12 69 5 view .LVU141
  70:../../../mutable-instruments/rings/dsp/fx/reverb.h ****     E::DelayLine<Memory, 4> dap1a;
 659              		.loc 12 70 5 view .LVU142
  71:../../../mutable-instruments/rings/dsp/fx/reverb.h ****     E::DelayLine<Memory, 5> dap1b;
 660              		.loc 12 71 5 view .LVU143
  72:../../../mutable-instruments/rings/dsp/fx/reverb.h ****     E::DelayLine<Memory, 6> del1;
 661              		.loc 12 72 5 view .LVU144
  73:../../../mutable-instruments/rings/dsp/fx/reverb.h ****     E::DelayLine<Memory, 7> dap2a;
 662              		.loc 12 73 5 view .LVU145
  74:../../../mutable-instruments/rings/dsp/fx/reverb.h ****     E::DelayLine<Memory, 8> dap2b;
 663              		.loc 12 74 5 view .LVU146
  75:../../../mutable-instruments/rings/dsp/fx/reverb.h ****     E::DelayLine<Memory, 9> del2;
 664              		.loc 12 75 5 view .LVU147
  76:../../../mutable-instruments/rings/dsp/fx/reverb.h ****     E::Context c;
 665              		.loc 12 76 5 view .LVU148
 666              	.LBB1086:
 667              	.LBI1086:
 106:../../../mutable-instruments/rings/dsp/fx/fx_engine.h **** 
 107:../../../mutable-instruments/rings/dsp/fx/fx_engine.h ****   void Init(T* buffer) {
 108:../../../mutable-instruments/rings/dsp/fx/fx_engine.h ****     buffer_ = buffer;
 109:../../../mutable-instruments/rings/dsp/fx/fx_engine.h ****     Clear();
 110:../../../mutable-instruments/rings/dsp/fx/fx_engine.h ****   }
 111:../../../mutable-instruments/rings/dsp/fx/fx_engine.h ****   
 112:../../../mutable-instruments/rings/dsp/fx/fx_engine.h ****   void Clear() {
ARM GAS  /var/folders/hl/qgbwny5j0fd895c2c41bk3tw0000gp/T//ccEG44Zu.s 			page 27


 113:../../../mutable-instruments/rings/dsp/fx/fx_engine.h ****     std::fill(&buffer_[0], &buffer_[size], 0);
 114:../../../mutable-instruments/rings/dsp/fx/fx_engine.h ****     write_ptr_ = 0;
 115:../../../mutable-instruments/rings/dsp/fx/fx_engine.h ****   }
 116:../../../mutable-instruments/rings/dsp/fx/fx_engine.h **** 
 117:../../../mutable-instruments/rings/dsp/fx/fx_engine.h ****   struct Empty { };
 118:../../../mutable-instruments/rings/dsp/fx/fx_engine.h ****   
 119:../../../mutable-instruments/rings/dsp/fx/fx_engine.h ****   template<int32_t l, typename T = Empty>
 120:../../../mutable-instruments/rings/dsp/fx/fx_engine.h ****   struct Reserve {
 121:../../../mutable-instruments/rings/dsp/fx/fx_engine.h ****     typedef T Tail;
 122:../../../mutable-instruments/rings/dsp/fx/fx_engine.h ****     enum {
 123:../../../mutable-instruments/rings/dsp/fx/fx_engine.h ****       length = l
 124:../../../mutable-instruments/rings/dsp/fx/fx_engine.h ****     };
 125:../../../mutable-instruments/rings/dsp/fx/fx_engine.h ****   };
 126:../../../mutable-instruments/rings/dsp/fx/fx_engine.h ****   
 127:../../../mutable-instruments/rings/dsp/fx/fx_engine.h ****   template<typename Memory, int32_t index>
 128:../../../mutable-instruments/rings/dsp/fx/fx_engine.h ****   struct DelayLine {
 129:../../../mutable-instruments/rings/dsp/fx/fx_engine.h ****     enum {
 130:../../../mutable-instruments/rings/dsp/fx/fx_engine.h ****       length = DelayLine<typename Memory::Tail, index - 1>::length,
 131:../../../mutable-instruments/rings/dsp/fx/fx_engine.h ****       base = DelayLine<Memory, index - 1>::base + DelayLine<Memory, index - 1>::length + 1
 132:../../../mutable-instruments/rings/dsp/fx/fx_engine.h ****     };
 133:../../../mutable-instruments/rings/dsp/fx/fx_engine.h ****   };
 134:../../../mutable-instruments/rings/dsp/fx/fx_engine.h **** 
 135:../../../mutable-instruments/rings/dsp/fx/fx_engine.h ****   template<typename Memory>
 136:../../../mutable-instruments/rings/dsp/fx/fx_engine.h ****   struct DelayLine<Memory, 0> {
 137:../../../mutable-instruments/rings/dsp/fx/fx_engine.h ****     enum {
 138:../../../mutable-instruments/rings/dsp/fx/fx_engine.h ****       length = Memory::length,
 139:../../../mutable-instruments/rings/dsp/fx/fx_engine.h ****       base = 0
 140:../../../mutable-instruments/rings/dsp/fx/fx_engine.h ****     };
 141:../../../mutable-instruments/rings/dsp/fx/fx_engine.h ****   };
 142:../../../mutable-instruments/rings/dsp/fx/fx_engine.h **** 
 143:../../../mutable-instruments/rings/dsp/fx/fx_engine.h ****   class Context {
 144:../../../mutable-instruments/rings/dsp/fx/fx_engine.h ****    friend class FxEngine;
 145:../../../mutable-instruments/rings/dsp/fx/fx_engine.h ****    public:
 146:../../../mutable-instruments/rings/dsp/fx/fx_engine.h ****     Context() { }
 668              		.loc 13 146 5 view .LVU149
 669              		.loc 13 146 5 is_stmt 0 view .LVU150
 670              	.LBE1086:
  77:../../../mutable-instruments/rings/dsp/fx/reverb.h **** 
  78:../../../mutable-instruments/rings/dsp/fx/reverb.h ****     const float kap = diffusion_;
 671              		.loc 12 78 5 is_stmt 1 view .LVU151
 672              		.loc 12 78 17 is_stmt 0 view .LVU152
 673 0000 90ED0D6A 		vldr.32	s12, [r0, #52]
 674              	.LVL47:
  79:../../../mutable-instruments/rings/dsp/fx/reverb.h ****     const float klp = lp_;
 675              		.loc 12 79 5 is_stmt 1 view .LVU153
 676              		.loc 12 79 17 is_stmt 0 view .LVU154
 677 0004 90ED0E4A 		vldr.32	s8, [r0, #56]
 678              	.LVL48:
  80:../../../mutable-instruments/rings/dsp/fx/reverb.h ****     const float krt = reverb_time_;
 679              		.loc 12 80 5 is_stmt 1 view .LVU155
 680              		.loc 12 80 17 is_stmt 0 view .LVU156
 681 0008 D0ED0C3A 		vldr.32	s7, [r0, #48]
 682              	.LVL49:
  81:../../../mutable-instruments/rings/dsp/fx/reverb.h ****     const float amount = amount_;
 683              		.loc 12 81 5 is_stmt 1 view .LVU157
 684              		.loc 12 81 17 is_stmt 0 view .LVU158
 685 000c 90ED0A3A 		vldr.32	s6, [r0, #40]
ARM GAS  /var/folders/hl/qgbwny5j0fd895c2c41bk3tw0000gp/T//ccEG44Zu.s 			page 28


 686              	.LVL50:
  82:../../../mutable-instruments/rings/dsp/fx/reverb.h ****     const float gain = input_gain_;
 687              		.loc 12 82 5 is_stmt 1 view .LVU159
 688              		.loc 12 82 17 is_stmt 0 view .LVU160
 689 0010 D0ED0B2A 		vldr.32	s5, [r0, #44]
 690              	.LVL51:
  83:../../../mutable-instruments/rings/dsp/fx/reverb.h **** 
  84:../../../mutable-instruments/rings/dsp/fx/reverb.h ****     float lp_1 = lp_decay_1_;
 691              		.loc 12 84 5 is_stmt 1 view .LVU161
 692              		.loc 12 84 18 is_stmt 0 view .LVU162
 693 0014 D0ED0F4A 		vldr.32	s9, [r0, #60]
 694              	.LVL52:
  85:../../../mutable-instruments/rings/dsp/fx/reverb.h ****     float lp_2 = lp_decay_2_;
 695              		.loc 12 85 5 is_stmt 1 view .LVU163
 696              		.loc 12 85 18 is_stmt 0 view .LVU164
 697 0018 90ED105A 		vldr.32	s10, [r0, #64]
 698              	.LVL53:
  86:../../../mutable-instruments/rings/dsp/fx/reverb.h **** 
  87:../../../mutable-instruments/rings/dsp/fx/reverb.h ****     while (size--) {
 699              		.loc 12 87 5 is_stmt 1 view .LVU165
 700              		.loc 12 87 16 view .LVU166
 701              		.loc 12 87 16 is_stmt 0 view .LVU167
 702 001c 002B     		cmp	r3, #0
 703 001e 00F0DE81 		beq	.L34
 704              	.LBB1087:
  88:../../../mutable-instruments/rings/dsp/fx/reverb.h ****       float wet;
  89:../../../mutable-instruments/rings/dsp/fx/reverb.h ****       float apout = 0.0f;
  90:../../../mutable-instruments/rings/dsp/fx/reverb.h ****       engine_.Start(&c);
  91:../../../mutable-instruments/rings/dsp/fx/reverb.h ****       
  92:../../../mutable-instruments/rings/dsp/fx/reverb.h ****       // Smear AP1 inside the loop.
  93:../../../mutable-instruments/rings/dsp/fx/reverb.h ****       //c.Interpolate(ap1, 10.0f, LFO_1, 80.0f, 1.0f);
  94:../../../mutable-instruments/rings/dsp/fx/reverb.h ****       //c.Write(ap1, 100, 0.0f);
  95:../../../mutable-instruments/rings/dsp/fx/reverb.h ****       
  96:../../../mutable-instruments/rings/dsp/fx/reverb.h ****       c.Read(*left + *right, gain);
  97:../../../mutable-instruments/rings/dsp/fx/reverb.h **** 
  98:../../../mutable-instruments/rings/dsp/fx/reverb.h ****       // Diffuse through 4 allpasses.
  99:../../../mutable-instruments/rings/dsp/fx/reverb.h ****       c.Read(ap1 TAIL, kap);
 100:../../../mutable-instruments/rings/dsp/fx/reverb.h ****       c.WriteAllPass(ap1, -kap);
 705              		.loc 12 100 21 view .LVU168
 706 0022 F1EE465A 		vneg.f32	s11, s12
 707              	.LBE1087:
  51:../../../mutable-instruments/rings/dsp/fx/reverb.h ****     // This is the Griesinger topology described in the Dattorro paper
 708              		.loc 12 51 8 view .LVU169
 709 0026 2DE9F04F 		push	{r4, r5, r6, r7, r8, r9, r10, fp, lr}
 710              		.cfi_def_cfa_offset 36
 711              		.cfi_offset 4, -36
 712              		.cfi_offset 5, -32
 713              		.cfi_offset 6, -28
 714              		.cfi_offset 7, -24
 715              		.cfi_offset 8, -20
 716              		.cfi_offset 9, -16
 717              		.cfi_offset 10, -12
 718              		.cfi_offset 11, -8
 719              		.cfi_offset 14, -4
 720 002a 5D1E     		subs	r5, r3, #1
 721              	.LVL54:
  51:../../../mutable-instruments/rings/dsp/fx/reverb.h ****     // This is the Griesinger topology described in the Dattorro paper
ARM GAS  /var/folders/hl/qgbwny5j0fd895c2c41bk3tw0000gp/T//ccEG44Zu.s 			page 29


 722              		.loc 12 51 8 view .LVU170
 723 002c 0C46     		mov	r4, r1
 724 002e 0368     		ldr	r3, [r0]
 725              	.LBB1724:
 726              	.LBB1088:
 727              	.LBB1089:
 147:../../../mutable-instruments/rings/dsp/fx/fx_engine.h ****     ~Context() { }
 148:../../../mutable-instruments/rings/dsp/fx/fx_engine.h ****     
 149:../../../mutable-instruments/rings/dsp/fx/fx_engine.h ****     inline void Load(float value) {
 150:../../../mutable-instruments/rings/dsp/fx/fx_engine.h ****       accumulator_ = value;
 151:../../../mutable-instruments/rings/dsp/fx/fx_engine.h ****     }
 152:../../../mutable-instruments/rings/dsp/fx/fx_engine.h **** 
 153:../../../mutable-instruments/rings/dsp/fx/fx_engine.h ****     inline void Read(float value, float scale) {
 154:../../../mutable-instruments/rings/dsp/fx/fx_engine.h ****       accumulator_ += value * scale;
 155:../../../mutable-instruments/rings/dsp/fx/fx_engine.h ****     }
 156:../../../mutable-instruments/rings/dsp/fx/fx_engine.h **** 
 157:../../../mutable-instruments/rings/dsp/fx/fx_engine.h ****     inline void Read(float value) {
 158:../../../mutable-instruments/rings/dsp/fx/fx_engine.h ****       accumulator_ += value;
 159:../../../mutable-instruments/rings/dsp/fx/fx_engine.h ****     }
 160:../../../mutable-instruments/rings/dsp/fx/fx_engine.h **** 
 161:../../../mutable-instruments/rings/dsp/fx/fx_engine.h ****     inline void Write(float& value) {
 162:../../../mutable-instruments/rings/dsp/fx/fx_engine.h ****       value = accumulator_;
 163:../../../mutable-instruments/rings/dsp/fx/fx_engine.h ****     }
 164:../../../mutable-instruments/rings/dsp/fx/fx_engine.h **** 
 165:../../../mutable-instruments/rings/dsp/fx/fx_engine.h ****     inline void Write(float& value, float scale) {
 166:../../../mutable-instruments/rings/dsp/fx/fx_engine.h ****       value = accumulator_;
 167:../../../mutable-instruments/rings/dsp/fx/fx_engine.h ****       accumulator_ *= scale;
 168:../../../mutable-instruments/rings/dsp/fx/fx_engine.h ****     }
 169:../../../mutable-instruments/rings/dsp/fx/fx_engine.h ****     
 170:../../../mutable-instruments/rings/dsp/fx/fx_engine.h ****     template<typename D>
 171:../../../mutable-instruments/rings/dsp/fx/fx_engine.h ****     inline void Write(D& d, int32_t offset, float scale) {
 172:../../../mutable-instruments/rings/dsp/fx/fx_engine.h ****       STATIC_ASSERT(D::base + D::length <= size, delay_memory_full);
 173:../../../mutable-instruments/rings/dsp/fx/fx_engine.h ****       T w = DataType<format>::Compress(accumulator_);
 174:../../../mutable-instruments/rings/dsp/fx/fx_engine.h ****       if (offset == -1) {
 175:../../../mutable-instruments/rings/dsp/fx/fx_engine.h ****         buffer_[(write_ptr_ + D::base + D::length - 1) & MASK] = w;
 176:../../../mutable-instruments/rings/dsp/fx/fx_engine.h ****       } else {
 177:../../../mutable-instruments/rings/dsp/fx/fx_engine.h ****         buffer_[(write_ptr_ + D::base + offset) & MASK] = w;
 178:../../../mutable-instruments/rings/dsp/fx/fx_engine.h ****       }
 179:../../../mutable-instruments/rings/dsp/fx/fx_engine.h ****       accumulator_ *= scale;
 180:../../../mutable-instruments/rings/dsp/fx/fx_engine.h ****     }
 181:../../../mutable-instruments/rings/dsp/fx/fx_engine.h ****     
 182:../../../mutable-instruments/rings/dsp/fx/fx_engine.h ****     template<typename D>
 183:../../../mutable-instruments/rings/dsp/fx/fx_engine.h ****     inline void Write(D& d, float scale) {
 184:../../../mutable-instruments/rings/dsp/fx/fx_engine.h ****       Write(d, 0, scale);
 185:../../../mutable-instruments/rings/dsp/fx/fx_engine.h ****     }
 186:../../../mutable-instruments/rings/dsp/fx/fx_engine.h **** 
 187:../../../mutable-instruments/rings/dsp/fx/fx_engine.h ****     template<typename D>
 188:../../../mutable-instruments/rings/dsp/fx/fx_engine.h ****     inline void WriteAllPass(D& d, int32_t offset, float scale) {
 189:../../../mutable-instruments/rings/dsp/fx/fx_engine.h ****       Write(d, offset, scale);
 190:../../../mutable-instruments/rings/dsp/fx/fx_engine.h ****       accumulator_ += previous_read_;
 191:../../../mutable-instruments/rings/dsp/fx/fx_engine.h ****     }
 192:../../../mutable-instruments/rings/dsp/fx/fx_engine.h ****     
 193:../../../mutable-instruments/rings/dsp/fx/fx_engine.h ****     template<typename D>
 194:../../../mutable-instruments/rings/dsp/fx/fx_engine.h ****     inline void WriteAllPass(D& d, float scale) {
 195:../../../mutable-instruments/rings/dsp/fx/fx_engine.h ****       WriteAllPass(d, 0, scale);
 196:../../../mutable-instruments/rings/dsp/fx/fx_engine.h ****     }
 197:../../../mutable-instruments/rings/dsp/fx/fx_engine.h ****     
ARM GAS  /var/folders/hl/qgbwny5j0fd895c2c41bk3tw0000gp/T//ccEG44Zu.s 			page 30


 198:../../../mutable-instruments/rings/dsp/fx/fx_engine.h ****     template<typename D>
 199:../../../mutable-instruments/rings/dsp/fx/fx_engine.h ****     inline void Read(D& d, int32_t offset, float scale) {
 200:../../../mutable-instruments/rings/dsp/fx/fx_engine.h ****       STATIC_ASSERT(D::base + D::length <= size, delay_memory_full);
 201:../../../mutable-instruments/rings/dsp/fx/fx_engine.h ****       T r;
 202:../../../mutable-instruments/rings/dsp/fx/fx_engine.h ****       if (offset == -1) {
 203:../../../mutable-instruments/rings/dsp/fx/fx_engine.h ****         r = buffer_[(write_ptr_ + D::base + D::length - 1) & MASK];
 204:../../../mutable-instruments/rings/dsp/fx/fx_engine.h ****       } else {
 205:../../../mutable-instruments/rings/dsp/fx/fx_engine.h ****         r = buffer_[(write_ptr_ + D::base + offset) & MASK];
 206:../../../mutable-instruments/rings/dsp/fx/fx_engine.h ****       }
 207:../../../mutable-instruments/rings/dsp/fx/fx_engine.h ****       float r_f = DataType<format>::Decompress(r);
 208:../../../mutable-instruments/rings/dsp/fx/fx_engine.h ****       previous_read_ = r_f;
 209:../../../mutable-instruments/rings/dsp/fx/fx_engine.h ****       accumulator_ += r_f * scale;
 210:../../../mutable-instruments/rings/dsp/fx/fx_engine.h ****     }
 211:../../../mutable-instruments/rings/dsp/fx/fx_engine.h ****     
 212:../../../mutable-instruments/rings/dsp/fx/fx_engine.h ****     template<typename D>
 213:../../../mutable-instruments/rings/dsp/fx/fx_engine.h ****     inline void Read(D& d, float scale) {
 214:../../../mutable-instruments/rings/dsp/fx/fx_engine.h ****       Read(d, 0, scale);
 215:../../../mutable-instruments/rings/dsp/fx/fx_engine.h ****     }
 216:../../../mutable-instruments/rings/dsp/fx/fx_engine.h ****     
 217:../../../mutable-instruments/rings/dsp/fx/fx_engine.h ****     inline void Lp(float& state, float coefficient) {
 218:../../../mutable-instruments/rings/dsp/fx/fx_engine.h ****       state += coefficient * (accumulator_ - state);
 219:../../../mutable-instruments/rings/dsp/fx/fx_engine.h ****       accumulator_ = state;
 220:../../../mutable-instruments/rings/dsp/fx/fx_engine.h ****     }
 221:../../../mutable-instruments/rings/dsp/fx/fx_engine.h **** 
 222:../../../mutable-instruments/rings/dsp/fx/fx_engine.h ****     inline void Hp(float& state, float coefficient) {
 223:../../../mutable-instruments/rings/dsp/fx/fx_engine.h ****       state += coefficient * (accumulator_ - state);
 224:../../../mutable-instruments/rings/dsp/fx/fx_engine.h ****       accumulator_ -= state;
 225:../../../mutable-instruments/rings/dsp/fx/fx_engine.h ****     }
 226:../../../mutable-instruments/rings/dsp/fx/fx_engine.h ****     
 227:../../../mutable-instruments/rings/dsp/fx/fx_engine.h ****     template<typename D>
 228:../../../mutable-instruments/rings/dsp/fx/fx_engine.h ****     inline void Interpolate(D& d, float offset, float scale) {
 229:../../../mutable-instruments/rings/dsp/fx/fx_engine.h ****       STATIC_ASSERT(D::base + D::length <= size, delay_memory_full);
 230:../../../mutable-instruments/rings/dsp/fx/fx_engine.h ****       MAKE_INTEGRAL_FRACTIONAL(offset);
 231:../../../mutable-instruments/rings/dsp/fx/fx_engine.h ****       float a = DataType<format>::Decompress(
 232:../../../mutable-instruments/rings/dsp/fx/fx_engine.h ****           buffer_[(write_ptr_ + offset_integral + D::base) & MASK]);
 233:../../../mutable-instruments/rings/dsp/fx/fx_engine.h ****       float b = DataType<format>::Decompress(
 234:../../../mutable-instruments/rings/dsp/fx/fx_engine.h ****           buffer_[(write_ptr_ + offset_integral + D::base + 1) & MASK]);
 235:../../../mutable-instruments/rings/dsp/fx/fx_engine.h ****       float x = a + (b - a) * offset_fractional;
 236:../../../mutable-instruments/rings/dsp/fx/fx_engine.h ****       previous_read_ = x;
 237:../../../mutable-instruments/rings/dsp/fx/fx_engine.h ****       accumulator_ += x * scale;
 238:../../../mutable-instruments/rings/dsp/fx/fx_engine.h ****     }
 239:../../../mutable-instruments/rings/dsp/fx/fx_engine.h ****     
 240:../../../mutable-instruments/rings/dsp/fx/fx_engine.h ****     template<typename D>
 241:../../../mutable-instruments/rings/dsp/fx/fx_engine.h ****     inline void Interpolate(
 242:../../../mutable-instruments/rings/dsp/fx/fx_engine.h ****         D& d, float offset, LFOIndex index, float amplitude, float scale) {
 243:../../../mutable-instruments/rings/dsp/fx/fx_engine.h ****       STATIC_ASSERT(D::base + D::length <= size, delay_memory_full);
 244:../../../mutable-instruments/rings/dsp/fx/fx_engine.h ****       offset += amplitude * lfo_value_[index];
 245:../../../mutable-instruments/rings/dsp/fx/fx_engine.h ****       MAKE_INTEGRAL_FRACTIONAL(offset);
 246:../../../mutable-instruments/rings/dsp/fx/fx_engine.h ****       float a = DataType<format>::Decompress(
 247:../../../mutable-instruments/rings/dsp/fx/fx_engine.h ****           buffer_[(write_ptr_ + offset_integral + D::base) & MASK]);
 248:../../../mutable-instruments/rings/dsp/fx/fx_engine.h ****       float b = DataType<format>::Decompress(
 249:../../../mutable-instruments/rings/dsp/fx/fx_engine.h ****           buffer_[(write_ptr_ + offset_integral + D::base + 1) & MASK]);
 250:../../../mutable-instruments/rings/dsp/fx/fx_engine.h ****       float x = a + (b - a) * offset_fractional;
 251:../../../mutable-instruments/rings/dsp/fx/fx_engine.h ****       previous_read_ = x;
 252:../../../mutable-instruments/rings/dsp/fx/fx_engine.h ****       accumulator_ += x * scale;
 253:../../../mutable-instruments/rings/dsp/fx/fx_engine.h ****     }
 254:../../../mutable-instruments/rings/dsp/fx/fx_engine.h ****     
ARM GAS  /var/folders/hl/qgbwny5j0fd895c2c41bk3tw0000gp/T//ccEG44Zu.s 			page 31


 255:../../../mutable-instruments/rings/dsp/fx/fx_engine.h ****    private:
 256:../../../mutable-instruments/rings/dsp/fx/fx_engine.h ****     float accumulator_;
 257:../../../mutable-instruments/rings/dsp/fx/fx_engine.h ****     float previous_read_;
 258:../../../mutable-instruments/rings/dsp/fx/fx_engine.h ****     float lfo_value_[2];
 259:../../../mutable-instruments/rings/dsp/fx/fx_engine.h ****     T* buffer_;
 260:../../../mutable-instruments/rings/dsp/fx/fx_engine.h ****     int32_t write_ptr_;
 261:../../../mutable-instruments/rings/dsp/fx/fx_engine.h **** 
 262:../../../mutable-instruments/rings/dsp/fx/fx_engine.h ****     DISALLOW_COPY_AND_ASSIGN(Context);
 263:../../../mutable-instruments/rings/dsp/fx/fx_engine.h ****   };
 264:../../../mutable-instruments/rings/dsp/fx/fx_engine.h ****   
 265:../../../mutable-instruments/rings/dsp/fx/fx_engine.h ****   inline void SetLFOFrequency(LFOIndex index, float frequency) {
 266:../../../mutable-instruments/rings/dsp/fx/fx_engine.h ****     lfo_[index].template Init<stmlib::COSINE_OSCILLATOR_APPROXIMATE>(frequency * 32.0f);
 267:../../../mutable-instruments/rings/dsp/fx/fx_engine.h ****   }
 268:../../../mutable-instruments/rings/dsp/fx/fx_engine.h ****   
 269:../../../mutable-instruments/rings/dsp/fx/fx_engine.h ****   inline void Start(Context* c) {
 270:../../../mutable-instruments/rings/dsp/fx/fx_engine.h ****     --write_ptr_;
 271:../../../mutable-instruments/rings/dsp/fx/fx_engine.h ****     if (write_ptr_ < 0) {
 272:../../../mutable-instruments/rings/dsp/fx/fx_engine.h ****       write_ptr_ += size;
 273:../../../mutable-instruments/rings/dsp/fx/fx_engine.h ****     }
 274:../../../mutable-instruments/rings/dsp/fx/fx_engine.h ****     c->accumulator_ = 0.0f;
 275:../../../mutable-instruments/rings/dsp/fx/fx_engine.h ****     c->previous_read_ = 0.0f;
 276:../../../mutable-instruments/rings/dsp/fx/fx_engine.h ****     c->buffer_ = buffer_;
 728              		.loc 13 276 18 view .LVU171
 729 0030 4168     		ldr	r1, [r0, #4]
 730              	.LVL55:
 731              		.loc 13 276 18 view .LVU172
 732              	.LBE1089:
 733              	.LBE1088:
 734              	.LBE1724:
  51:../../../mutable-instruments/rings/dsp/fx/reverb.h ****     // This is the Griesinger topology described in the Dattorro paper
 735              		.loc 12 51 8 view .LVU173
 736 0032 2DED028B 		vpush.64	{d8}
 737              		.cfi_def_cfa_offset 44
 738              		.cfi_offset 80, -44
 739              		.cfi_offset 81, -40
 740 0036 B2E1     		b	.L28
 741              	.LVL56:
 742              	.L38:
 743              	.LBB1725:
 744              	.LBB1127:
 745              	.LBB1124:
 746              	.LBB1090:
 747              	.LBI1090:
 269:../../../mutable-instruments/rings/dsp/fx/fx_engine.h ****     --write_ptr_;
 748              		.loc 13 269 15 is_stmt 1 view .LVU174
 749              	.LBB1091:
 750              	.LBB1092:
 751              	.LBI1092:
 752              		.file 15 "../../../mutable-instruments/stmlib/dsp/cosine_oscillator.h"
   1:../../../mutable-instruments/stmlib/dsp/cosine_oscillator.h **** // Copyright 2014 Emilie Gillet.
   2:../../../mutable-instruments/stmlib/dsp/cosine_oscillator.h **** //
   3:../../../mutable-instruments/stmlib/dsp/cosine_oscillator.h **** // Author: Emilie Gillet (emilie.o.gillet@gmail.com)
   4:../../../mutable-instruments/stmlib/dsp/cosine_oscillator.h **** //
   5:../../../mutable-instruments/stmlib/dsp/cosine_oscillator.h **** // Permission is hereby granted, free of charge, to any person obtaining a copy
   6:../../../mutable-instruments/stmlib/dsp/cosine_oscillator.h **** // of this software and associated documentation files (the "Software"), to deal
   7:../../../mutable-instruments/stmlib/dsp/cosine_oscillator.h **** // in the Software without restriction, including without limitation the rights
   8:../../../mutable-instruments/stmlib/dsp/cosine_oscillator.h **** // to use, copy, modify, merge, publish, distribute, sublicense, and/or sell
ARM GAS  /var/folders/hl/qgbwny5j0fd895c2c41bk3tw0000gp/T//ccEG44Zu.s 			page 32


   9:../../../mutable-instruments/stmlib/dsp/cosine_oscillator.h **** // copies of the Software, and to permit persons to whom the Software is
  10:../../../mutable-instruments/stmlib/dsp/cosine_oscillator.h **** // furnished to do so, subject to the following conditions:
  11:../../../mutable-instruments/stmlib/dsp/cosine_oscillator.h **** // 
  12:../../../mutable-instruments/stmlib/dsp/cosine_oscillator.h **** // The above copyright notice and this permission notice shall be included in
  13:../../../mutable-instruments/stmlib/dsp/cosine_oscillator.h **** // all copies or substantial portions of the Software.
  14:../../../mutable-instruments/stmlib/dsp/cosine_oscillator.h **** // 
  15:../../../mutable-instruments/stmlib/dsp/cosine_oscillator.h **** // THE SOFTWARE IS PROVIDED "AS IS", WITHOUT WARRANTY OF ANY KIND, EXPRESS OR
  16:../../../mutable-instruments/stmlib/dsp/cosine_oscillator.h **** // IMPLIED, INCLUDING BUT NOT LIMITED TO THE WARRANTIES OF MERCHANTABILITY,
  17:../../../mutable-instruments/stmlib/dsp/cosine_oscillator.h **** // FITNESS FOR A PARTICULAR PURPOSE AND NONINFRINGEMENT. IN NO EVENT SHALL THE
  18:../../../mutable-instruments/stmlib/dsp/cosine_oscillator.h **** // AUTHORS OR COPYRIGHT HOLDERS BE LIABLE FOR ANY CLAIM, DAMAGES OR OTHER
  19:../../../mutable-instruments/stmlib/dsp/cosine_oscillator.h **** // LIABILITY, WHETHER IN AN ACTION OF CONTRACT, TORT OR OTHERWISE, ARISING FROM,
  20:../../../mutable-instruments/stmlib/dsp/cosine_oscillator.h **** // OUT OF OR IN CONNECTION WITH THE SOFTWARE OR THE USE OR OTHER DEALINGS IN
  21:../../../mutable-instruments/stmlib/dsp/cosine_oscillator.h **** // THE SOFTWARE.
  22:../../../mutable-instruments/stmlib/dsp/cosine_oscillator.h **** // 
  23:../../../mutable-instruments/stmlib/dsp/cosine_oscillator.h **** // See http://creativecommons.org/licenses/MIT/ for more information.
  24:../../../mutable-instruments/stmlib/dsp/cosine_oscillator.h **** //
  25:../../../mutable-instruments/stmlib/dsp/cosine_oscillator.h **** // -----------------------------------------------------------------------------
  26:../../../mutable-instruments/stmlib/dsp/cosine_oscillator.h **** //
  27:../../../mutable-instruments/stmlib/dsp/cosine_oscillator.h **** // Cosine oscillator. Generates a cosine between 0.0 and 1.0 with minimal
  28:../../../mutable-instruments/stmlib/dsp/cosine_oscillator.h **** // CPU use.
  29:../../../mutable-instruments/stmlib/dsp/cosine_oscillator.h **** 
  30:../../../mutable-instruments/stmlib/dsp/cosine_oscillator.h **** #ifndef STMLIB_DSP_COSINE_OSCILLATOR_H_
  31:../../../mutable-instruments/stmlib/dsp/cosine_oscillator.h **** #define STMLIB_DSP_COSINE_OSCILLATOR_H_
  32:../../../mutable-instruments/stmlib/dsp/cosine_oscillator.h **** 
  33:../../../mutable-instruments/stmlib/dsp/cosine_oscillator.h **** #include "stmlib/stmlib.h"
  34:../../../mutable-instruments/stmlib/dsp/cosine_oscillator.h **** 
  35:../../../mutable-instruments/stmlib/dsp/cosine_oscillator.h **** #include <cmath>
  36:../../../mutable-instruments/stmlib/dsp/cosine_oscillator.h **** 
  37:../../../mutable-instruments/stmlib/dsp/cosine_oscillator.h **** namespace stmlib {
  38:../../../mutable-instruments/stmlib/dsp/cosine_oscillator.h **** 
  39:../../../mutable-instruments/stmlib/dsp/cosine_oscillator.h **** enum CosineOscillatorMode {
  40:../../../mutable-instruments/stmlib/dsp/cosine_oscillator.h ****   COSINE_OSCILLATOR_APPROXIMATE,
  41:../../../mutable-instruments/stmlib/dsp/cosine_oscillator.h ****   COSINE_OSCILLATOR_EXACT
  42:../../../mutable-instruments/stmlib/dsp/cosine_oscillator.h **** };
  43:../../../mutable-instruments/stmlib/dsp/cosine_oscillator.h **** 
  44:../../../mutable-instruments/stmlib/dsp/cosine_oscillator.h **** class CosineOscillator {
  45:../../../mutable-instruments/stmlib/dsp/cosine_oscillator.h ****  public:
  46:../../../mutable-instruments/stmlib/dsp/cosine_oscillator.h ****   CosineOscillator() { }
  47:../../../mutable-instruments/stmlib/dsp/cosine_oscillator.h ****   ~CosineOscillator() { }
  48:../../../mutable-instruments/stmlib/dsp/cosine_oscillator.h **** 
  49:../../../mutable-instruments/stmlib/dsp/cosine_oscillator.h ****   template<CosineOscillatorMode mode>
  50:../../../mutable-instruments/stmlib/dsp/cosine_oscillator.h ****   inline void Init(float frequency) {
  51:../../../mutable-instruments/stmlib/dsp/cosine_oscillator.h ****     if (mode == COSINE_OSCILLATOR_APPROXIMATE) {
  52:../../../mutable-instruments/stmlib/dsp/cosine_oscillator.h ****       InitApproximate(frequency);
  53:../../../mutable-instruments/stmlib/dsp/cosine_oscillator.h ****     } else {
  54:../../../mutable-instruments/stmlib/dsp/cosine_oscillator.h ****       iir_coefficient_ = 2.0f * cosf(2.0f * float(M_PI) * frequency);
  55:../../../mutable-instruments/stmlib/dsp/cosine_oscillator.h ****       initial_amplitude_ = iir_coefficient_ * 0.25f;
  56:../../../mutable-instruments/stmlib/dsp/cosine_oscillator.h ****     }
  57:../../../mutable-instruments/stmlib/dsp/cosine_oscillator.h ****     Start();
  58:../../../mutable-instruments/stmlib/dsp/cosine_oscillator.h ****   }
  59:../../../mutable-instruments/stmlib/dsp/cosine_oscillator.h ****   
  60:../../../mutable-instruments/stmlib/dsp/cosine_oscillator.h ****   inline void InitApproximate(float frequency) {
  61:../../../mutable-instruments/stmlib/dsp/cosine_oscillator.h ****     float sign = 16.0f;
  62:../../../mutable-instruments/stmlib/dsp/cosine_oscillator.h ****     frequency -= 0.25f;
  63:../../../mutable-instruments/stmlib/dsp/cosine_oscillator.h ****     if (frequency < 0.0f) {
  64:../../../mutable-instruments/stmlib/dsp/cosine_oscillator.h ****       frequency = -frequency;
  65:../../../mutable-instruments/stmlib/dsp/cosine_oscillator.h ****     } else {
ARM GAS  /var/folders/hl/qgbwny5j0fd895c2c41bk3tw0000gp/T//ccEG44Zu.s 			page 33


  66:../../../mutable-instruments/stmlib/dsp/cosine_oscillator.h ****       if (frequency > 0.5f) {
  67:../../../mutable-instruments/stmlib/dsp/cosine_oscillator.h ****         frequency -= 0.5f;
  68:../../../mutable-instruments/stmlib/dsp/cosine_oscillator.h ****       } else {
  69:../../../mutable-instruments/stmlib/dsp/cosine_oscillator.h ****         sign = -16.0f;
  70:../../../mutable-instruments/stmlib/dsp/cosine_oscillator.h ****       }
  71:../../../mutable-instruments/stmlib/dsp/cosine_oscillator.h ****     }
  72:../../../mutable-instruments/stmlib/dsp/cosine_oscillator.h ****     iir_coefficient_ = sign * frequency * (1.0f - 2.0f * frequency);
  73:../../../mutable-instruments/stmlib/dsp/cosine_oscillator.h ****     initial_amplitude_ = iir_coefficient_ * 0.25f;
  74:../../../mutable-instruments/stmlib/dsp/cosine_oscillator.h ****   }
  75:../../../mutable-instruments/stmlib/dsp/cosine_oscillator.h ****   
  76:../../../mutable-instruments/stmlib/dsp/cosine_oscillator.h ****   inline void Start() {
  77:../../../mutable-instruments/stmlib/dsp/cosine_oscillator.h ****     y1_ = initial_amplitude_;
  78:../../../mutable-instruments/stmlib/dsp/cosine_oscillator.h ****     y0_ = 0.5f;
  79:../../../mutable-instruments/stmlib/dsp/cosine_oscillator.h ****   }
  80:../../../mutable-instruments/stmlib/dsp/cosine_oscillator.h ****   
  81:../../../mutable-instruments/stmlib/dsp/cosine_oscillator.h ****   inline float value() const {
  82:../../../mutable-instruments/stmlib/dsp/cosine_oscillator.h ****     return y1_ + 0.5f;
  83:../../../mutable-instruments/stmlib/dsp/cosine_oscillator.h ****   }
  84:../../../mutable-instruments/stmlib/dsp/cosine_oscillator.h **** 
  85:../../../mutable-instruments/stmlib/dsp/cosine_oscillator.h ****   inline float Next() {
 753              		.loc 15 85 16 view .LVU175
 754              	.LBB1093:
  86:../../../mutable-instruments/stmlib/dsp/cosine_oscillator.h ****     float temp = y0_;
 755              		.loc 15 86 5 view .LVU176
 756              		.loc 15 86 11 is_stmt 0 view .LVU177
 757 0038 90ED030A 		vldr.32	s0, [r0, #12]
 758              	.LVL57:
  87:../../../mutable-instruments/stmlib/dsp/cosine_oscillator.h ****     y0_ = iir_coefficient_ * y0_ - y1_;
 759              		.loc 15 87 5 is_stmt 1 view .LVU178
  88:../../../mutable-instruments/stmlib/dsp/cosine_oscillator.h ****     y1_ = temp;
  89:../../../mutable-instruments/stmlib/dsp/cosine_oscillator.h ****     return temp + 0.5f;
 760              		.loc 15 89 19 is_stmt 0 view .LVU179
 761 003c F6EE006A 		vmov.f32	s13, #5.0e-1
 762              	.LBE1093:
 763              	.LBE1092:
 764              	.LBB1099:
 765              	.LBB1100:
  86:../../../mutable-instruments/stmlib/dsp/cosine_oscillator.h ****     y0_ = iir_coefficient_ * y0_ - y1_;
 766              		.loc 15 86 11 view .LVU180
 767 0040 90ED072A 		vldr.32	s4, [r0, #28]
 768              	.LBE1100:
 769              	.LBE1099:
 770              	.LBB1106:
 771              	.LBB1094:
  87:../../../mutable-instruments/stmlib/dsp/cosine_oscillator.h ****     y0_ = iir_coefficient_ * y0_ - y1_;
 772              		.loc 15 87 34 view .LVU181
 773 0044 90ED027A 		vldr.32	s14, [r0, #8]
 774              	.LBE1094:
 775              	.LBE1106:
 776              	.LBB1107:
 777              	.LBB1101:
 778 0048 D0ED067A 		vldr.32	s15, [r0, #24]
 779              	.LBE1101:
 780              	.LBE1107:
 781              	.LBB1108:
 782              	.LBB1095:
 783 004c 90ED041A 		vldr.32	s2, [r0, #16]
ARM GAS  /var/folders/hl/qgbwny5j0fd895c2c41bk3tw0000gp/T//ccEG44Zu.s 			page 34


 784              	.LBE1095:
 785              	.LBE1108:
 786              	.LBB1109:
 787              	.LBB1102:
 788 0050 D0ED081A 		vldr.32	s3, [r0, #32]
 789              	.LBE1102:
 790              	.LBE1109:
 791              	.LBB1110:
 792              	.LBB1096:
 793 0054 90EE017A 		vfnms.f32	s14, s0, s2
  88:../../../mutable-instruments/stmlib/dsp/cosine_oscillator.h ****     y1_ = temp;
 794              		.loc 15 88 9 view .LVU182
 795 0058 80ED020A 		vstr.32	s0, [r0, #8]
 796              	.LBE1096:
 797              	.LBE1110:
 798              	.LBB1111:
 799              	.LBB1103:
  87:../../../mutable-instruments/stmlib/dsp/cosine_oscillator.h ****     y0_ = iir_coefficient_ * y0_ - y1_;
 800              		.loc 15 87 34 view .LVU183
 801 005c D2EE217A 		vfnms.f32	s15, s4, s3
  88:../../../mutable-instruments/stmlib/dsp/cosine_oscillator.h ****     y1_ = temp;
 802              		.loc 15 88 9 view .LVU184
 803 0060 80ED062A 		vstr.32	s4, [r0, #24]
 804              	.LBE1103:
 805              	.LBE1111:
 806              	.LBB1112:
 807              	.LBB1097:
 808              		.loc 15 89 19 view .LVU185
 809 0064 30EE260A 		vadd.f32	s0, s0, s13
 810              	.LVL58:
 811              		.loc 15 89 19 view .LVU186
 812              	.LBE1097:
 813              	.LBE1112:
 814              	.LBB1113:
 815              	.LBB1104:
 816 0068 32EE262A 		vadd.f32	s4, s4, s13
 817              	.LBE1104:
 818              	.LBE1113:
 819              	.LBB1114:
 820              	.LBB1098:
  87:../../../mutable-instruments/stmlib/dsp/cosine_oscillator.h ****     y0_ = iir_coefficient_ * y0_ - y1_;
 821              		.loc 15 87 9 view .LVU187
 822 006c 80ED037A 		vstr.32	s14, [r0, #12]
 823              	.LVL59:
  88:../../../mutable-instruments/stmlib/dsp/cosine_oscillator.h ****     y1_ = temp;
 824              		.loc 15 88 5 is_stmt 1 view .LVU188
 825              		.loc 15 89 5 view .LVU189
 826              		.loc 15 89 5 is_stmt 0 view .LVU190
 827              	.LBE1098:
 828              	.LBE1114:
 829              	.LBB1115:
 830              	.LBI1099:
  85:../../../mutable-instruments/stmlib/dsp/cosine_oscillator.h ****     float temp = y0_;
 831              		.loc 15 85 16 is_stmt 1 view .LVU191
 832              	.LBB1105:
  86:../../../mutable-instruments/stmlib/dsp/cosine_oscillator.h ****     y0_ = iir_coefficient_ * y0_ - y1_;
 833              		.loc 15 86 5 view .LVU192
ARM GAS  /var/folders/hl/qgbwny5j0fd895c2c41bk3tw0000gp/T//ccEG44Zu.s 			page 35


  87:../../../mutable-instruments/stmlib/dsp/cosine_oscillator.h ****     y1_ = temp;
 834              		.loc 15 87 5 view .LVU193
  87:../../../mutable-instruments/stmlib/dsp/cosine_oscillator.h ****     y1_ = temp;
 835              		.loc 15 87 9 is_stmt 0 view .LVU194
 836 0070 C0ED077A 		vstr.32	s15, [r0, #28]
 837              	.LVL60:
  88:../../../mutable-instruments/stmlib/dsp/cosine_oscillator.h ****     return temp + 0.5f;
 838              		.loc 15 88 5 is_stmt 1 view .LVU195
 839              		.loc 15 89 5 view .LVU196
 840              	.L27:
 841              		.loc 15 89 5 is_stmt 0 view .LVU197
 842              	.LBE1105:
 843              	.LBE1115:
 844              	.LBE1091:
 845              	.LBE1090:
 846              	.LBE1124:
 847              	.LBE1127:
  96:../../../mutable-instruments/rings/dsp/fx/reverb.h **** 
 848              		.loc 12 96 7 is_stmt 1 view .LVU198
 849              	.LBB1128:
 850              	.LBB1129:
 203:../../../mutable-instruments/rings/dsp/fx/fx_engine.h ****       } else {
 851              		.loc 13 203 55 is_stmt 0 view .LVU199
 852 0074 03F19506 		add	r6, r3, #149
 853              	.LBE1129:
 854              	.LBE1128:
  96:../../../mutable-instruments/rings/dsp/fx/reverb.h **** 
 855              		.loc 12 96 14 view .LVU200
 856 0078 D4ED001A 		vldr.32	s3, [r4]
 857              	.LVL61:
 858              	.LBB1147:
 859              	.LBI1147:
 153:../../../mutable-instruments/rings/dsp/fx/fx_engine.h ****       accumulator_ += value * scale;
 860              		.loc 13 153 17 is_stmt 1 view .LVU201
 861              	.LBE1147:
  96:../../../mutable-instruments/rings/dsp/fx/reverb.h **** 
 862              		.loc 12 96 13 is_stmt 0 view .LVU202
 863 007c 92ED001A 		vldr.32	s2, [r2]
 864              	.LBB1150:
 865              	.LBB1151:
 203:../../../mutable-instruments/rings/dsp/fx/fx_engine.h ****       } else {
 866              		.loc 13 203 55 view .LVU203
 867 0080 03F5B67C 		add	ip, r3, #364
 868              	.LBE1151:
 869              	.LBE1150:
 870              	.LBB1168:
 871              	.LBB1140:
 203:../../../mutable-instruments/rings/dsp/fx/fx_engine.h ****       } else {
 872              		.loc 13 203 60 view .LVU204
 873 0084 C6F30E06 		ubfx	r6, r6, #0, #15
 874              	.LBE1140:
 875              	.LBE1168:
 876              	.LBB1169:
 877              	.LBB1148:
 154:../../../mutable-instruments/rings/dsp/fx/fx_engine.h ****     }
 878              		.loc 13 154 20 view .LVU205
 879 0088 DFEDD76A 		vldr.32	s13, .L39
ARM GAS  /var/folders/hl/qgbwny5j0fd895c2c41bk3tw0000gp/T//ccEG44Zu.s 			page 36


 880              	.LBE1148:
 881              	.LBE1169:
  96:../../../mutable-instruments/rings/dsp/fx/reverb.h **** 
 882              		.loc 12 96 13 view .LVU206
 883 008c 31EE811A 		vadd.f32	s2, s3, s2
 884              	.LVL62:
 885              	.LBB1170:
 886              	.LBB1141:
 887              	.LBB1130:
 888              	.LBB1131:
  76:../../../mutable-instruments/rings/dsp/fx/fx_engine.h ****   }
 889              		.loc 13 76 62 view .LVU207
 890 0090 9FEDD67A 		vldr.32	s14, .L39+4
  76:../../../mutable-instruments/rings/dsp/fx/fx_engine.h ****   }
 891              		.loc 13 76 12 view .LVU208
 892 0094 31F91660 		ldrsh	r6, [r1, r6, lsl #1]
 893              	.LBE1131:
 894              	.LBE1130:
 895              	.LBE1141:
 896              	.LBE1170:
 897              	.LBB1171:
 898              	.LBB1172:
 899              	.LBB1173:
 900              	.LBB1174:
 901              	.LBB1175:
 177:../../../mutable-instruments/rings/dsp/fx/fx_engine.h ****       }
 902              		.loc 13 177 49 view .LVU209
 903 0098 CEF30E0E 		ubfx	lr, lr, #0, #15
 904              	.LBE1175:
 905              	.LBE1174:
 906              	.LBE1173:
 907              	.LBE1172:
 908              	.LBE1171:
 909              	.LBB1206:
 910              	.LBB1207:
 244:../../../mutable-instruments/rings/dsp/fx/fx_engine.h ****       MAKE_INTEGRAL_FRACTIONAL(offset);
 911              		.loc 13 244 14 view .LVU210
 912 009c DFEDD40A 		vldr.32	s1, .L39+8
 913              	.LBE1207:
 914              	.LBE1206:
 915              	.LBB1244:
 916              	.LBB1162:
 203:../../../mutable-instruments/rings/dsp/fx/fx_engine.h ****       } else {
 917              		.loc 13 203 60 view .LVU211
 918 00a0 CCF30E0C 		ubfx	ip, ip, #0, #15
 919              	.LBE1162:
 920              	.LBE1244:
 921              	.LBB1245:
 922              	.LBB1142:
 923              	.LBB1136:
 924              	.LBB1132:
  76:../../../mutable-instruments/rings/dsp/fx/fx_engine.h ****   }
 925              		.loc 13 76 12 view .LVU212
 926 00a4 07EE906A 		vmov	s15, r6	@ int
 927              	.LBE1132:
 928              	.LBE1136:
 929              	.LBE1142:
ARM GAS  /var/folders/hl/qgbwny5j0fd895c2c41bk3tw0000gp/T//ccEG44Zu.s 			page 37


 930              	.LBE1245:
 931              	.LBB1246:
 932              	.LBB1149:
 154:../../../mutable-instruments/rings/dsp/fx/fx_engine.h ****     }
 933              		.loc 13 154 20 view .LVU213
 934 00a8 E1EE226A 		vfma.f32	s13, s2, s5
 935              	.LVL63:
 154:../../../mutable-instruments/rings/dsp/fx/fx_engine.h ****     }
 936              		.loc 13 154 20 view .LVU214
 937              	.LBE1149:
 938              	.LBE1246:
  99:../../../mutable-instruments/rings/dsp/fx/reverb.h ****       c.WriteAllPass(ap1, -kap);
 939              		.loc 12 99 7 is_stmt 1 view .LVU215
 940              	.LBB1247:
 941              	.LBI1128:
 199:../../../mutable-instruments/rings/dsp/fx/fx_engine.h ****       STATIC_ASSERT(D::base + D::length <= size, delay_memory_full);
 942              		.loc 13 199 17 view .LVU216
 943              	.LBB1143:
 944              	.LBB1137:
 945              	.LBI1130:
  75:../../../mutable-instruments/rings/dsp/fx/fx_engine.h ****     return static_cast<float>(static_cast<int16_t>(value)) / 32768.0f;
 946              		.loc 13 75 23 view .LVU217
 947              	.LBB1133:
  76:../../../mutable-instruments/rings/dsp/fx/fx_engine.h ****   }
 948              		.loc 13 76 5 view .LVU218
 949              	.LBE1133:
 950              	.LBE1137:
 951              	.LBE1143:
 952              	.LBE1247:
 953              	.LBB1248:
 954              	.LBB1226:
 244:../../../mutable-instruments/rings/dsp/fx/fx_engine.h ****       MAKE_INTEGRAL_FRACTIONAL(offset);
 955              		.loc 13 244 14 is_stmt 0 view .LVU219
 956 00ac 9FEDD11A 		vldr.32	s2, .L39+12
 957              	.LBE1226:
 958              	.LBE1248:
 959              	.LBB1249:
 960              	.LBB1250:
 961              	.LBB1251:
 962              	.LBB1252:
 963              	.LBB1253:
 177:../../../mutable-instruments/rings/dsp/fx/fx_engine.h ****       }
 964              		.loc 13 177 29 view .LVU220
 965 00b0 03F1970A 		add	r10, r3, #151
 966              	.LBE1253:
 967              	.LBE1252:
 968              	.LBE1251:
 969              	.LBE1250:
 970              	.LBE1249:
 971              	.LBB1272:
 972              	.LBB1144:
 973              	.LBB1138:
 974              	.LBB1134:
  76:../../../mutable-instruments/rings/dsp/fx/fx_engine.h ****   }
 975              		.loc 13 76 12 view .LVU221
 976 00b4 F8EEE77A 		vcvt.f32.s32	s15, s15
 977              	.LBE1134:
ARM GAS  /var/folders/hl/qgbwny5j0fd895c2c41bk3tw0000gp/T//ccEG44Zu.s 			page 38


 978              	.LBE1138:
 979              	.LBE1144:
 980              	.LBE1272:
 981              	.LBB1273:
 982              	.LBB1274:
 244:../../../mutable-instruments/rings/dsp/fx/fx_engine.h ****       MAKE_INTEGRAL_FRACTIONAL(offset);
 983              		.loc 13 244 14 view .LVU222
 984 00b8 9FEDCF8A 		vldr.32	s16, .L39+16
 985              	.LBE1274:
 986              	.LBE1273:
 987              	.LBB1309:
 988              	.LBB1227:
 989 00bc E2EE010A 		vfma.f32	s1, s4, s2
 990              	.LBE1227:
 991              	.LBE1309:
 992              	.LBB1310:
 993              	.LBB1293:
 994 00c0 9FEDCE1A 		vldr.32	s2, .L39+20
 995              	.LBE1293:
 996              	.LBE1310:
 997              	.LBB1311:
 998              	.LBB1312:
 203:../../../mutable-instruments/rings/dsp/fx/fx_engine.h ****       } else {
 999              		.loc 13 203 55 view .LVU223
 1000 00c4 03F52B79 		add	r9, r3, #684
 1001              	.LBE1312:
 1002              	.LBE1311:
 1003              	.LBB1323:
 1004              	.LBB1270:
 1005              	.LBB1268:
 1006              	.LBB1265:
 1007              	.LBB1262:
 177:../../../mutable-instruments/rings/dsp/fx/fx_engine.h ****       }
 1008              		.loc 13 177 49 view .LVU224
 1009 00c8 CAF30E0A 		ubfx	r10, r10, #0, #15
 1010              	.LBE1262:
 1011              	.LBE1265:
 1012              	.LBE1268:
 1013              	.LBE1270:
 1014              	.LBE1323:
 1015              	.LBB1324:
 1016              	.LBB1145:
 1017              	.LBB1139:
 1018              	.LBB1135:
  76:../../../mutable-instruments/rings/dsp/fx/fx_engine.h ****   }
 1019              		.loc 13 76 62 view .LVU225
 1020 00cc 67EE877A 		vmul.f32	s15, s15, s14
 1021              	.LVL64:
  76:../../../mutable-instruments/rings/dsp/fx/fx_engine.h ****   }
 1022              		.loc 13 76 62 view .LVU226
 1023              	.LBE1135:
 1024              	.LBE1139:
 1025              	.LBE1145:
 1026              	.LBE1324:
 1027              	.LBB1325:
 1028              	.LBB1326:
 1029              	.LBB1327:
ARM GAS  /var/folders/hl/qgbwny5j0fd895c2c41bk3tw0000gp/T//ccEG44Zu.s 			page 39


 1030              	.LBB1328:
 1031              	.LBB1329:
 177:../../../mutable-instruments/rings/dsp/fx/fx_engine.h ****       }
 1032              		.loc 13 177 29 view .LVU227
 1033 00d0 03F5B778 		add	r8, r3, #366
 1034              	.LBE1329:
 1035              	.LBE1328:
 1036              	.LBE1327:
 1037              	.LBE1326:
 1038              	.LBE1325:
 1039              	.LBB1348:
 1040              	.LBB1294:
 244:../../../mutable-instruments/rings/dsp/fx/fx_engine.h ****       MAKE_INTEGRAL_FRACTIONAL(offset);
 1041              		.loc 13 244 14 view .LVU228
 1042 00d4 A0EE081A 		vfma.f32	s2, s0, s16
 1043              	.LBE1294:
 1044              	.LBE1348:
 1045              	.LBB1349:
 1046              	.LBB1319:
 203:../../../mutable-instruments/rings/dsp/fx/fx_engine.h ****       } else {
 1047              		.loc 13 203 60 view .LVU229
 1048 00d8 C9F30E09 		ubfx	r9, r9, #0, #15
 1049              	.LBE1319:
 1050              	.LBE1349:
 1051              	.LBB1350:
 1052              	.LBB1351:
 203:../../../mutable-instruments/rings/dsp/fx/fx_engine.h ****       } else {
 1053              		.loc 13 203 55 view .LVU230
 1054 00dc 03F2BC46 		addw	r6, r3, #1212
 1055              	.LBE1351:
 1056              	.LBE1350:
 1057              	.LBB1369:
 1058              	.LBB1346:
 1059              	.LBB1344:
 1060              	.LBB1341:
 1061              	.LBB1338:
 177:../../../mutable-instruments/rings/dsp/fx/fx_engine.h ****       }
 1062              		.loc 13 177 49 view .LVU231
 1063 00e0 C8F30E08 		ubfx	r8, r8, #0, #15
 1064              	.LBE1338:
 1065              	.LBE1341:
 1066              	.LBE1344:
 1067              	.LBE1346:
 1068              	.LBE1369:
 1069              	.LBB1370:
 1070              	.LBB1146:
 209:../../../mutable-instruments/rings/dsp/fx/fx_engine.h ****     }
 1071              		.loc 13 209 20 view .LVU232
 1072 00e4 E6EE276A 		vfma.f32	s13, s12, s15
 1073              	.LVL65:
 209:../../../mutable-instruments/rings/dsp/fx/fx_engine.h ****     }
 1074              		.loc 13 209 20 view .LVU233
 1075              	.LBE1146:
 1076              	.LBE1370:
 1077              		.loc 12 100 7 is_stmt 1 view .LVU234
 1078              	.LBB1371:
 1079              	.LBI1171:
ARM GAS  /var/folders/hl/qgbwny5j0fd895c2c41bk3tw0000gp/T//ccEG44Zu.s 			page 40


 194:../../../mutable-instruments/rings/dsp/fx/fx_engine.h ****       WriteAllPass(d, 0, scale);
 1080              		.loc 13 194 17 view .LVU235
 1081              	.LBB1202:
 1082              	.LBI1172:
 188:../../../mutable-instruments/rings/dsp/fx/fx_engine.h ****       Write(d, offset, scale);
 1083              		.loc 13 188 17 view .LVU236
 1084              	.LBB1198:
 1085              	.LBB1193:
 1086              	.LBI1174:
 171:../../../mutable-instruments/rings/dsp/fx/fx_engine.h ****       STATIC_ASSERT(D::base + D::length <= size, delay_memory_full);
 1087              		.loc 13 171 17 view .LVU237
 1088              	.LBB1188:
 1089              	.LBB1176:
 1090              	.LBI1176:
  79:../../../mutable-instruments/rings/dsp/fx/fx_engine.h ****     return static_cast<uint16_t>(
 1091              		.loc 13 79 19 view .LVU238
 1092              	.LBB1177:
  80:../../../mutable-instruments/rings/dsp/fx/fx_engine.h ****         stmlib::Clip16(static_cast<int32_t>(value * 32768.0f)));
 1093              		.loc 13 80 5 view .LVU239
 1094              	.LBB1178:
 1095              	.LBI1178:
 1096              		.file 16 "../../../mutable-instruments/stmlib/dsp/dsp.h"
   1:../../../mutable-instruments/stmlib/dsp/dsp.h **** // Copyright 2012 Emilie Gillet.
   2:../../../mutable-instruments/stmlib/dsp/dsp.h **** //
   3:../../../mutable-instruments/stmlib/dsp/dsp.h **** // Author: Emilie Gillet (emilie.o.gillet@gmail.com)
   4:../../../mutable-instruments/stmlib/dsp/dsp.h **** //
   5:../../../mutable-instruments/stmlib/dsp/dsp.h **** // Permission is hereby granted, free of charge, to any person obtaining a copy
   6:../../../mutable-instruments/stmlib/dsp/dsp.h **** // of this software and associated documentation files (the "Software"), to deal
   7:../../../mutable-instruments/stmlib/dsp/dsp.h **** // in the Software without restriction, including without limitation the rights
   8:../../../mutable-instruments/stmlib/dsp/dsp.h **** // to use, copy, modify, merge, publish, distribute, sublicense, and/or sell
   9:../../../mutable-instruments/stmlib/dsp/dsp.h **** // copies of the Software, and to permit persons to whom the Software is
  10:../../../mutable-instruments/stmlib/dsp/dsp.h **** // furnished to do so, subject to the following conditions:
  11:../../../mutable-instruments/stmlib/dsp/dsp.h **** // 
  12:../../../mutable-instruments/stmlib/dsp/dsp.h **** // The above copyright notice and this permission notice shall be included in
  13:../../../mutable-instruments/stmlib/dsp/dsp.h **** // all copies or substantial portions of the Software.
  14:../../../mutable-instruments/stmlib/dsp/dsp.h **** // 
  15:../../../mutable-instruments/stmlib/dsp/dsp.h **** // THE SOFTWARE IS PROVIDED "AS IS", WITHOUT WARRANTY OF ANY KIND, EXPRESS OR
  16:../../../mutable-instruments/stmlib/dsp/dsp.h **** // IMPLIED, INCLUDING BUT NOT LIMITED TO THE WARRANTIES OF MERCHANTABILITY,
  17:../../../mutable-instruments/stmlib/dsp/dsp.h **** // FITNESS FOR A PARTICULAR PURPOSE AND NONINFRINGEMENT. IN NO EVENT SHALL THE
  18:../../../mutable-instruments/stmlib/dsp/dsp.h **** // AUTHORS OR COPYRIGHT HOLDERS BE LIABLE FOR ANY CLAIM, DAMAGES OR OTHER
  19:../../../mutable-instruments/stmlib/dsp/dsp.h **** // LIABILITY, WHETHER IN AN ACTION OF CONTRACT, TORT OR OTHERWISE, ARISING FROM,
  20:../../../mutable-instruments/stmlib/dsp/dsp.h **** // OUT OF OR IN CONNECTION WITH THE SOFTWARE OR THE USE OR OTHER DEALINGS IN
  21:../../../mutable-instruments/stmlib/dsp/dsp.h **** // THE SOFTWARE.
  22:../../../mutable-instruments/stmlib/dsp/dsp.h **** // 
  23:../../../mutable-instruments/stmlib/dsp/dsp.h **** // See http://creativecommons.org/licenses/MIT/ for more information.
  24:../../../mutable-instruments/stmlib/dsp/dsp.h **** //
  25:../../../mutable-instruments/stmlib/dsp/dsp.h **** // -----------------------------------------------------------------------------
  26:../../../mutable-instruments/stmlib/dsp/dsp.h **** //
  27:../../../mutable-instruments/stmlib/dsp/dsp.h **** // DSP utility routines.
  28:../../../mutable-instruments/stmlib/dsp/dsp.h **** 
  29:../../../mutable-instruments/stmlib/dsp/dsp.h **** #ifndef STMLIB_UTILS_DSP_DSP_H_
  30:../../../mutable-instruments/stmlib/dsp/dsp.h **** #define STMLIB_UTILS_DSP_DSP_H_
  31:../../../mutable-instruments/stmlib/dsp/dsp.h **** 
  32:../../../mutable-instruments/stmlib/dsp/dsp.h **** #include "stmlib/stmlib.h"
  33:../../../mutable-instruments/stmlib/dsp/dsp.h **** 
  34:../../../mutable-instruments/stmlib/dsp/dsp.h **** #include <cmath>
  35:../../../mutable-instruments/stmlib/dsp/dsp.h **** #include <math.h>
ARM GAS  /var/folders/hl/qgbwny5j0fd895c2c41bk3tw0000gp/T//ccEG44Zu.s 			page 41


  36:../../../mutable-instruments/stmlib/dsp/dsp.h **** 
  37:../../../mutable-instruments/stmlib/dsp/dsp.h **** namespace stmlib {
  38:../../../mutable-instruments/stmlib/dsp/dsp.h **** 
  39:../../../mutable-instruments/stmlib/dsp/dsp.h **** #define MAKE_INTEGRAL_FRACTIONAL(x) \
  40:../../../mutable-instruments/stmlib/dsp/dsp.h ****   int32_t x ## _integral = static_cast<int32_t>(x); \
  41:../../../mutable-instruments/stmlib/dsp/dsp.h ****   float x ## _fractional = x - static_cast<float>(x ## _integral);
  42:../../../mutable-instruments/stmlib/dsp/dsp.h **** 
  43:../../../mutable-instruments/stmlib/dsp/dsp.h **** inline float Interpolate(const float* table, float index, float size) {
  44:../../../mutable-instruments/stmlib/dsp/dsp.h ****   index *= size;
  45:../../../mutable-instruments/stmlib/dsp/dsp.h ****   MAKE_INTEGRAL_FRACTIONAL(index)
  46:../../../mutable-instruments/stmlib/dsp/dsp.h ****   float a = table[index_integral];
  47:../../../mutable-instruments/stmlib/dsp/dsp.h ****   float b = table[index_integral + 1];
  48:../../../mutable-instruments/stmlib/dsp/dsp.h ****   return a + (b - a) * index_fractional;
  49:../../../mutable-instruments/stmlib/dsp/dsp.h **** }
  50:../../../mutable-instruments/stmlib/dsp/dsp.h **** 
  51:../../../mutable-instruments/stmlib/dsp/dsp.h **** 
  52:../../../mutable-instruments/stmlib/dsp/dsp.h **** inline float InterpolateHermite(const float* table, float index, float size) {
  53:../../../mutable-instruments/stmlib/dsp/dsp.h ****   index *= size;
  54:../../../mutable-instruments/stmlib/dsp/dsp.h ****   MAKE_INTEGRAL_FRACTIONAL(index)
  55:../../../mutable-instruments/stmlib/dsp/dsp.h ****   const float xm1 = table[index_integral - 1];
  56:../../../mutable-instruments/stmlib/dsp/dsp.h ****   const float x0 = table[index_integral + 0];
  57:../../../mutable-instruments/stmlib/dsp/dsp.h ****   const float x1 = table[index_integral + 1];
  58:../../../mutable-instruments/stmlib/dsp/dsp.h ****   const float x2 = table[index_integral + 2];
  59:../../../mutable-instruments/stmlib/dsp/dsp.h ****   const float c = (x1 - xm1) * 0.5f;
  60:../../../mutable-instruments/stmlib/dsp/dsp.h ****   const float v = x0 - x1;
  61:../../../mutable-instruments/stmlib/dsp/dsp.h ****   const float w = c + v;
  62:../../../mutable-instruments/stmlib/dsp/dsp.h ****   const float a = w + v + (x2 - x0) * 0.5f;
  63:../../../mutable-instruments/stmlib/dsp/dsp.h ****   const float b_neg = w + a;
  64:../../../mutable-instruments/stmlib/dsp/dsp.h ****   const float f = index_fractional;
  65:../../../mutable-instruments/stmlib/dsp/dsp.h ****   return (((a * f) - b_neg) * f + c) * f + x0;
  66:../../../mutable-instruments/stmlib/dsp/dsp.h **** }
  67:../../../mutable-instruments/stmlib/dsp/dsp.h **** 
  68:../../../mutable-instruments/stmlib/dsp/dsp.h **** inline float InterpolateWrap(const float* table, float index, float size) {
  69:../../../mutable-instruments/stmlib/dsp/dsp.h ****   index -= static_cast<float>(static_cast<int32_t>(index));
  70:../../../mutable-instruments/stmlib/dsp/dsp.h ****   index *= size;
  71:../../../mutable-instruments/stmlib/dsp/dsp.h ****   MAKE_INTEGRAL_FRACTIONAL(index)
  72:../../../mutable-instruments/stmlib/dsp/dsp.h ****   float a = table[index_integral];
  73:../../../mutable-instruments/stmlib/dsp/dsp.h ****   float b = table[index_integral + 1];
  74:../../../mutable-instruments/stmlib/dsp/dsp.h ****   return a + (b - a) * index_fractional;
  75:../../../mutable-instruments/stmlib/dsp/dsp.h **** }
  76:../../../mutable-instruments/stmlib/dsp/dsp.h **** 
  77:../../../mutable-instruments/stmlib/dsp/dsp.h **** inline float SmoothStep(float value) {
  78:../../../mutable-instruments/stmlib/dsp/dsp.h ****   return value * value * (3.0f - 2.0f * value);
  79:../../../mutable-instruments/stmlib/dsp/dsp.h **** }
  80:../../../mutable-instruments/stmlib/dsp/dsp.h **** 
  81:../../../mutable-instruments/stmlib/dsp/dsp.h **** #define ONE_POLE(out, in, coefficient) out += (coefficient) * ((in) - out);
  82:../../../mutable-instruments/stmlib/dsp/dsp.h **** #define SLOPE(out, in, positive, negative) { \
  83:../../../mutable-instruments/stmlib/dsp/dsp.h ****   float error = (in) - out; \
  84:../../../mutable-instruments/stmlib/dsp/dsp.h ****   out += (error > 0 ? positive : negative) * error; \
  85:../../../mutable-instruments/stmlib/dsp/dsp.h **** }
  86:../../../mutable-instruments/stmlib/dsp/dsp.h **** #define SLEW(out, in, delta) { \
  87:../../../mutable-instruments/stmlib/dsp/dsp.h ****   float error = (in) - out; \
  88:../../../mutable-instruments/stmlib/dsp/dsp.h ****   float d = (delta); \
  89:../../../mutable-instruments/stmlib/dsp/dsp.h ****   if (error > d) { \
  90:../../../mutable-instruments/stmlib/dsp/dsp.h ****     error = d; \
  91:../../../mutable-instruments/stmlib/dsp/dsp.h ****   } else if (error < -d) { \
  92:../../../mutable-instruments/stmlib/dsp/dsp.h ****     error = -d; \
ARM GAS  /var/folders/hl/qgbwny5j0fd895c2c41bk3tw0000gp/T//ccEG44Zu.s 			page 42


  93:../../../mutable-instruments/stmlib/dsp/dsp.h ****   } \
  94:../../../mutable-instruments/stmlib/dsp/dsp.h ****   out += error; \
  95:../../../mutable-instruments/stmlib/dsp/dsp.h **** }
  96:../../../mutable-instruments/stmlib/dsp/dsp.h **** 
  97:../../../mutable-instruments/stmlib/dsp/dsp.h **** inline float Crossfade(float a, float b, float fade) {
  98:../../../mutable-instruments/stmlib/dsp/dsp.h ****   return a + (b - a) * fade;
  99:../../../mutable-instruments/stmlib/dsp/dsp.h **** }
 100:../../../mutable-instruments/stmlib/dsp/dsp.h **** 
 101:../../../mutable-instruments/stmlib/dsp/dsp.h **** inline float SoftLimit(float x) {
 102:../../../mutable-instruments/stmlib/dsp/dsp.h ****   return x * (27.0f + x * x) / (27.0f + 9.0f * x * x);
 103:../../../mutable-instruments/stmlib/dsp/dsp.h **** }
 104:../../../mutable-instruments/stmlib/dsp/dsp.h **** 
 105:../../../mutable-instruments/stmlib/dsp/dsp.h **** inline float SoftClip(float x) {
 106:../../../mutable-instruments/stmlib/dsp/dsp.h ****   if (x < -3.0f) {
 107:../../../mutable-instruments/stmlib/dsp/dsp.h ****     return -1.0f;
 108:../../../mutable-instruments/stmlib/dsp/dsp.h ****   } else if (x > 3.0f) {
 109:../../../mutable-instruments/stmlib/dsp/dsp.h ****     return 1.0f;
 110:../../../mutable-instruments/stmlib/dsp/dsp.h ****   } else {
 111:../../../mutable-instruments/stmlib/dsp/dsp.h ****     return SoftLimit(x);
 112:../../../mutable-instruments/stmlib/dsp/dsp.h ****   }
 113:../../../mutable-instruments/stmlib/dsp/dsp.h **** }
 114:../../../mutable-instruments/stmlib/dsp/dsp.h **** 
 115:../../../mutable-instruments/stmlib/dsp/dsp.h **** #ifdef TEST
 116:../../../mutable-instruments/stmlib/dsp/dsp.h ****   inline int32_t Clip16(int32_t x) {
 117:../../../mutable-instruments/stmlib/dsp/dsp.h ****     if (x < -32768) {
 118:../../../mutable-instruments/stmlib/dsp/dsp.h ****       return -32768;
 119:../../../mutable-instruments/stmlib/dsp/dsp.h ****     } else if (x > 32767) {
 120:../../../mutable-instruments/stmlib/dsp/dsp.h ****       return 32767;
 121:../../../mutable-instruments/stmlib/dsp/dsp.h ****     } else {
 122:../../../mutable-instruments/stmlib/dsp/dsp.h ****       return x;
 123:../../../mutable-instruments/stmlib/dsp/dsp.h ****     }
 124:../../../mutable-instruments/stmlib/dsp/dsp.h ****   }
 125:../../../mutable-instruments/stmlib/dsp/dsp.h ****   inline uint16_t ClipU16(int32_t x) {
 126:../../../mutable-instruments/stmlib/dsp/dsp.h ****     if (x < 0) {
 127:../../../mutable-instruments/stmlib/dsp/dsp.h ****       return 0;
 128:../../../mutable-instruments/stmlib/dsp/dsp.h ****     } else if (x > 65535) {
 129:../../../mutable-instruments/stmlib/dsp/dsp.h ****       return 65535;
 130:../../../mutable-instruments/stmlib/dsp/dsp.h ****     } else {
 131:../../../mutable-instruments/stmlib/dsp/dsp.h ****       return x;
 132:../../../mutable-instruments/stmlib/dsp/dsp.h ****     }
 133:../../../mutable-instruments/stmlib/dsp/dsp.h ****   }
 134:../../../mutable-instruments/stmlib/dsp/dsp.h **** #else
 135:../../../mutable-instruments/stmlib/dsp/dsp.h ****   inline int32_t Clip16(int32_t x) {
 1097              		.loc 16 135 18 view .LVU240
 1098              	.LBB1179:
 136:../../../mutable-instruments/stmlib/dsp/dsp.h ****     int32_t result;
 1099              		.loc 16 136 5 view .LVU241
 137:../../../mutable-instruments/stmlib/dsp/dsp.h ****     __asm ("ssat %0, %1, %2" : "=r" (result) :  "I" (16), "r" (x) );
 1100              		.loc 16 137 5 view .LVU242
 1101              	.LBE1179:
 1102              	.LBE1178:
 1103              	.LBE1177:
 1104              	.LBE1176:
 1105              	.LBE1188:
 1106              	.LBE1193:
 1107              	.LBE1198:
 1108              	.LBE1202:
ARM GAS  /var/folders/hl/qgbwny5j0fd895c2c41bk3tw0000gp/T//ccEG44Zu.s 			page 43


 1109              	.LBE1371:
 1110              	.LBB1372:
 1111              	.LBB1373:
 1112              	.LBB1374:
 1113              	.LBB1375:
 1114              	.LBB1376:
 177:../../../mutable-instruments/rings/dsp/fx/fx_engine.h ****       }
 1115              		.loc 13 177 29 is_stmt 0 view .LVU243
 1116 00e8 03F2AE27 		addw	r7, r3, #686
 1117              	.LBE1376:
 1118              	.LBE1375:
 1119              	.LBE1374:
 1120              	.LBE1373:
 1121              	.LBE1372:
 1122              	.LBB1395:
 1123              	.LBB1362:
 203:../../../mutable-instruments/rings/dsp/fx/fx_engine.h ****       } else {
 1124              		.loc 13 203 60 view .LVU244
 1125 00ec C6F30E06 		ubfx	r6, r6, #0, #15
 1126              	.LBE1362:
 1127              	.LBE1395:
 101:../../../mutable-instruments/rings/dsp/fx/reverb.h ****       c.Read(ap2 TAIL, kap);
 102:../../../mutable-instruments/rings/dsp/fx/reverb.h ****       c.WriteAllPass(ap2, -kap);
 103:../../../mutable-instruments/rings/dsp/fx/reverb.h ****       c.Read(ap3 TAIL, kap);
 104:../../../mutable-instruments/rings/dsp/fx/reverb.h ****       c.WriteAllPass(ap3, -kap);
 105:../../../mutable-instruments/rings/dsp/fx/reverb.h ****       c.Read(ap4 TAIL, kap);
 106:../../../mutable-instruments/rings/dsp/fx/reverb.h ****       c.WriteAllPass(ap4, -kap);
 107:../../../mutable-instruments/rings/dsp/fx/reverb.h ****       c.Write(apout);
 108:../../../mutable-instruments/rings/dsp/fx/reverb.h ****       
 109:../../../mutable-instruments/rings/dsp/fx/reverb.h ****       // Main reverb loop.
 110:../../../mutable-instruments/rings/dsp/fx/reverb.h ****       c.Load(apout);
 111:../../../mutable-instruments/rings/dsp/fx/reverb.h ****       c.Interpolate(del2, 6261.0f, LFO_2, 50.0f, krt);
 112:../../../mutable-instruments/rings/dsp/fx/reverb.h ****       c.Lp(lp_1, klp);
 113:../../../mutable-instruments/rings/dsp/fx/reverb.h ****       c.Read(dap1a TAIL, -kap);
 114:../../../mutable-instruments/rings/dsp/fx/reverb.h ****       c.WriteAllPass(dap1a, kap);
 115:../../../mutable-instruments/rings/dsp/fx/reverb.h ****       c.Read(dap1b TAIL, kap);
 116:../../../mutable-instruments/rings/dsp/fx/reverb.h ****       c.WriteAllPass(dap1b, -kap);
 117:../../../mutable-instruments/rings/dsp/fx/reverb.h ****       c.Write(del1, 2.0f);
 118:../../../mutable-instruments/rings/dsp/fx/reverb.h ****       c.Write(wet, 0.0f);
 119:../../../mutable-instruments/rings/dsp/fx/reverb.h **** 
 120:../../../mutable-instruments/rings/dsp/fx/reverb.h ****       *left += (wet - *left) * amount;
 1128              		.loc 12 120 21 view .LVU245
 1129 00f0 B0EE002A 		vmov.f32	s4, #2.0e+0
 1130              	.LVL66:
 1131              	.LBB1396:
 1132              	.LBB1393:
 1133              	.LBB1391:
 1134              	.LBB1388:
 1135              	.LBB1385:
 177:../../../mutable-instruments/rings/dsp/fx/fx_engine.h ****       }
 1136              		.loc 13 177 49 view .LVU246
 1137 00f4 C7F30E07 		ubfx	r7, r7, #0, #15
 1138              	.LBE1385:
 1139              	.LBE1388:
 1140              	.LBE1391:
 1141              	.LBE1393:
 1142              	.LBE1396:
ARM GAS  /var/folders/hl/qgbwny5j0fd895c2c41bk3tw0000gp/T//ccEG44Zu.s 			page 44


 1143              	.LBE1725:
  87:../../../mutable-instruments/rings/dsp/fx/reverb.h ****       float wet;
 1144              		.loc 12 87 16 view .LVU247
 1145 00f8 013D     		subs	r5, r5, #1
 1146              	.LVL67:
 1147              	.LBB1726:
 1148              	.LBB1397:
 1149              	.LBB1295:
 245:../../../mutable-instruments/rings/dsp/fx/fx_engine.h ****       float a = DataType<format>::Decompress(
 1150              		.loc 13 245 7 view .LVU248
 1151 00fa BDEEC18A 		vcvt.s32.f32	s16, s2
 1152              	.LBE1295:
 1153              	.LBE1397:
 1154              	.LBB1398:
 1155              	.LBB1203:
 1156              	.LBB1199:
 1157              	.LBB1194:
 1158              	.LBB1189:
 1159              	.LBB1185:
 1160              	.LBB1182:
  81:../../../mutable-instruments/rings/dsp/fx/fx_engine.h ****   }
 1161              		.loc 13 81 23 view .LVU249
 1162 00fe B0EE660A 		vmov.f32	s0, s13
 1163              	.LVL68:
  81:../../../mutable-instruments/rings/dsp/fx/fx_engine.h ****   }
 1164              		.loc 13 81 23 view .LVU250
 1165              	.LBE1182:
 1166              	.LBE1185:
 1167              	.LBE1189:
 1168              	.LBE1194:
 190:../../../mutable-instruments/rings/dsp/fx/fx_engine.h ****     }
 1169              		.loc 13 190 20 view .LVU251
 1170 0102 E5EEA67A 		vfma.f32	s15, s11, s13
 1171              	.LVL69:
 1172              	.LBB1195:
 1173              	.LBB1190:
 1174              	.LBB1186:
 1175              	.LBB1183:
  81:../../../mutable-instruments/rings/dsp/fx/fx_engine.h ****   }
 1176              		.loc 13 81 23 view .LVU252
 1177 0106 BEEEE80A 		vcvt.s32.f32	s0, s0, #15
 1178 010a 10EE10BA 		vmov	fp, s0	@ int
 1179              	.LBE1183:
 1180              	.LBE1186:
 1181              	.LBE1190:
 1182              	.LBE1195:
 1183              	.LBE1199:
 1184              	.LBE1203:
 1185              	.LBE1398:
 1186              	.LBB1399:
 1187              	.LBB1228:
 245:../../../mutable-instruments/rings/dsp/fx/fx_engine.h ****       float a = DataType<format>::Decompress(
 1188              		.loc 13 245 7 view .LVU253
 1189 010e BDEEE00A 		vcvt.s32.f32	s0, s1
 1190              	.LBE1228:
 1191              	.LBE1399:
 1192              	.LBB1400:
ARM GAS  /var/folders/hl/qgbwny5j0fd895c2c41bk3tw0000gp/T//ccEG44Zu.s 			page 45


 1193              	.LBB1204:
 1194              	.LBB1200:
 1195              	.LBB1196:
 1196              	.LBB1191:
 1197              	.LBB1187:
 1198              	.LBB1184:
 1199              	.LBB1181:
 1200              	.LBB1180:
 1201              		.loc 16 137 5 view .LVU254
 1202              		.syntax unified
 1203              	@ 137 "../../../mutable-instruments/stmlib/dsp/dsp.h" 1
 1204 0112 0BF30F0B 		ssat fp, #16, fp
 1205              	@ 0 "" 2
 1206              	.LVL70:
 138:../../../mutable-instruments/stmlib/dsp/dsp.h ****     return result;
 1207              		.loc 16 138 5 is_stmt 1 view .LVU255
 1208              		.loc 16 138 5 is_stmt 0 view .LVU256
 1209              		.thumb
 1210              		.syntax unified
 1211              	.LBE1180:
 1212              	.LBE1181:
  81:../../../mutable-instruments/rings/dsp/fx/fx_engine.h ****   }
 1213              		.loc 13 81 63 view .LVU257
 1214 0116 21F81EB0 		strh	fp, [r1, lr, lsl #1]	@ movhi
 1215              	.LVL71:
  81:../../../mutable-instruments/rings/dsp/fx/fx_engine.h ****   }
 1216              		.loc 13 81 63 view .LVU258
 1217              	.LBE1184:
 1218              	.LBE1187:
 1219              	.LBE1191:
 1220              	.LBE1196:
 1221              	.LBE1200:
 1222              	.LBE1204:
 1223              	.LBE1400:
 101:../../../mutable-instruments/rings/dsp/fx/reverb.h ****       c.WriteAllPass(ap2, -kap);
 1224              		.loc 12 101 7 is_stmt 1 view .LVU259
 1225              	.LBB1401:
 1226              	.LBI1150:
 199:../../../mutable-instruments/rings/dsp/fx/fx_engine.h ****       STATIC_ASSERT(D::base + D::length <= size, delay_memory_full);
 1227              		.loc 13 199 17 view .LVU260
 1228              	.LBB1163:
 1229              	.LBB1152:
 1230              	.LBI1152:
  75:../../../mutable-instruments/rings/dsp/fx/fx_engine.h ****     return static_cast<float>(static_cast<int16_t>(value)) / 32768.0f;
 1231              		.loc 13 75 23 view .LVU261
 1232              	.LBB1153:
  76:../../../mutable-instruments/rings/dsp/fx/fx_engine.h ****   }
 1233              		.loc 13 76 5 view .LVU262
 1234              	.LBE1153:
 1235              	.LBE1152:
 1236              	.LBE1163:
 1237              	.LBE1401:
 1238              	.LBB1402:
 1239              	.LBB1229:
 247:../../../mutable-instruments/rings/dsp/fx/fx_engine.h ****       float b = DataType<format>::Decompress(
 1240              		.loc 13 247 49 is_stmt 0 view .LVU263
 1241 011a 43F6D23E 		movw	lr, #15314
ARM GAS  /var/folders/hl/qgbwny5j0fd895c2c41bk3tw0000gp/T//ccEG44Zu.s 			page 46


 1242              	.LBE1229:
 1243              	.LBE1402:
 1244              	.LBB1403:
 1245              	.LBB1164:
 1246              	.LBB1158:
 1247              	.LBB1154:
  76:../../../mutable-instruments/rings/dsp/fx/fx_engine.h ****   }
 1248              		.loc 13 76 12 view .LVU264
 1249 011e 31F91CC0 		ldrsh	ip, [r1, ip, lsl #1]
 1250              	.LBE1154:
 1251              	.LBE1158:
 1252              	.LBE1164:
 1253              	.LBE1403:
 1254              	.LBB1404:
 1255              	.LBB1230:
 245:../../../mutable-instruments/rings/dsp/fx/fx_engine.h ****       float a = DataType<format>::Decompress(
 1256              		.loc 13 245 7 view .LVU265
 1257 0122 F8EEC08A 		vcvt.f32.s32	s17, s0
 1258              	.LBE1230:
 1259              	.LBE1404:
 1260              	.LBB1405:
 1261              	.LBB1165:
 1262              	.LBB1159:
 1263              	.LBB1155:
  76:../../../mutable-instruments/rings/dsp/fx/fx_engine.h ****   }
 1264              		.loc 13 76 12 view .LVU266
 1265 0126 06EE90CA 		vmov	s13, ip	@ int
 1266              	.LBE1155:
 1267              	.LBE1159:
 1268              	.LBE1165:
 1269              	.LBE1405:
 1270              	.LBB1406:
 1271              	.LBB1231:
 247:../../../mutable-instruments/rings/dsp/fx/fx_engine.h ****       float b = DataType<format>::Decompress(
 1272              		.loc 13 247 31 view .LVU267
 1273 012a 10EE10CA 		vmov	ip, s0	@ int
 1274              	.LBE1231:
 1275              	.LBE1406:
 1276              	.LBB1407:
 1277              	.LBB1296:
 245:../../../mutable-instruments/rings/dsp/fx/fx_engine.h ****       float a = DataType<format>::Decompress(
 1278              		.loc 13 245 7 view .LVU268
 1279 012e B8EEC80A 		vcvt.f32.s32	s0, s16
 1280              	.LBE1296:
 1281              	.LBE1407:
 1282              	.LBB1408:
 1283              	.LBB1166:
 1284              	.LBB1160:
 1285              	.LBB1156:
  76:../../../mutable-instruments/rings/dsp/fx/fx_engine.h ****   }
 1286              		.loc 13 76 12 view .LVU269
 1287 0132 F8EEE66A 		vcvt.f32.s32	s13, s13
 1288              	.LBE1156:
 1289              	.LBE1160:
 1290              	.LBE1166:
 1291              	.LBE1408:
 1292              	.LBB1409:
ARM GAS  /var/folders/hl/qgbwny5j0fd895c2c41bk3tw0000gp/T//ccEG44Zu.s 			page 47


 1293              	.LBB1232:
 247:../../../mutable-instruments/rings/dsp/fx/fx_engine.h ****       float b = DataType<format>::Decompress(
 1294              		.loc 13 247 31 view .LVU270
 1295 0136 9C44     		add	ip, ip, r3
 245:../../../mutable-instruments/rings/dsp/fx/fx_engine.h ****       float a = DataType<format>::Decompress(
 1296              		.loc 13 245 7 view .LVU271
 1297 0138 70EEE80A 		vsub.f32	s1, s1, s17
 1298              	.LBE1232:
 1299              	.LBE1409:
 1300              	.LBB1410:
 1301              	.LBB1297:
 1302 013c 31EE401A 		vsub.f32	s2, s2, s0
 1303              	.LBE1297:
 1304              	.LBE1410:
 1305              	.LBB1411:
 1306              	.LBB1167:
 1307              	.LBB1161:
 1308              	.LBB1157:
  76:../../../mutable-instruments/rings/dsp/fx/fx_engine.h ****   }
 1309              		.loc 13 76 62 view .LVU272
 1310 0140 66EE876A 		vmul.f32	s13, s13, s14
 1311              	.LVL72:
  76:../../../mutable-instruments/rings/dsp/fx/fx_engine.h ****   }
 1312              		.loc 13 76 62 view .LVU273
 1313              	.LBE1157:
 1314              	.LBE1161:
 209:../../../mutable-instruments/rings/dsp/fx/fx_engine.h ****     }
 1315              		.loc 13 209 20 view .LVU274
 1316 0144 E6EE267A 		vfma.f32	s15, s12, s13
 1317              	.LVL73:
 209:../../../mutable-instruments/rings/dsp/fx/fx_engine.h ****     }
 1318              		.loc 13 209 20 view .LVU275
 1319              	.LBE1167:
 1320              	.LBE1411:
 102:../../../mutable-instruments/rings/dsp/fx/reverb.h ****       c.Read(ap3 TAIL, kap);
 1321              		.loc 12 102 7 is_stmt 1 view .LVU276
 1322              	.LBB1412:
 1323              	.LBI1249:
 194:../../../mutable-instruments/rings/dsp/fx/fx_engine.h ****       WriteAllPass(d, 0, scale);
 1324              		.loc 13 194 17 view .LVU277
 1325              	.LBB1271:
 1326              	.LBI1250:
 188:../../../mutable-instruments/rings/dsp/fx/fx_engine.h ****       Write(d, offset, scale);
 1327              		.loc 13 188 17 view .LVU278
 1328              	.LBB1269:
 1329              	.LBB1266:
 1330              	.LBI1252:
 171:../../../mutable-instruments/rings/dsp/fx/fx_engine.h ****       STATIC_ASSERT(D::base + D::length <= size, delay_memory_full);
 1331              		.loc 13 171 17 view .LVU279
 1332              	.LBB1263:
 1333              	.LBB1254:
 1334              	.LBI1254:
  79:../../../mutable-instruments/rings/dsp/fx/fx_engine.h ****     return static_cast<uint16_t>(
 1335              		.loc 13 79 19 view .LVU280
 1336              	.LBB1255:
  80:../../../mutable-instruments/rings/dsp/fx/fx_engine.h ****         stmlib::Clip16(static_cast<int32_t>(value * 32768.0f)));
 1337              		.loc 13 80 5 view .LVU281
ARM GAS  /var/folders/hl/qgbwny5j0fd895c2c41bk3tw0000gp/T//ccEG44Zu.s 			page 48


 1338              	.LBB1256:
 1339              	.LBI1256:
 135:../../../mutable-instruments/stmlib/dsp/dsp.h ****     int32_t result;
 1340              		.loc 16 135 18 view .LVU282
 1341              	.LBB1257:
 136:../../../mutable-instruments/stmlib/dsp/dsp.h ****     __asm ("ssat %0, %1, %2" : "=r" (result) :  "I" (16), "r" (x) );
 1342              		.loc 16 136 5 view .LVU283
 137:../../../mutable-instruments/stmlib/dsp/dsp.h ****     return result;
 1343              		.loc 16 137 5 view .LVU284
 1344              	.LBE1257:
 1345              	.LBE1256:
  81:../../../mutable-instruments/rings/dsp/fx/fx_engine.h ****   }
 1346              		.loc 13 81 23 is_stmt 0 view .LVU285
 1347 0148 B0EE670A 		vmov.f32	s0, s15
 1348              	.LBE1255:
 1349              	.LBE1254:
 1350              	.LBE1263:
 1351              	.LBE1266:
 190:../../../mutable-instruments/rings/dsp/fx/fx_engine.h ****     }
 1352              		.loc 13 190 20 view .LVU286
 1353 014c E7EEA56A 		vfma.f32	s13, s15, s11
 1354              	.LVL74:
 1355              	.LBB1267:
 1356              	.LBB1264:
 1357              	.LBB1261:
 1358              	.LBB1260:
  81:../../../mutable-instruments/rings/dsp/fx/fx_engine.h ****   }
 1359              		.loc 13 81 23 view .LVU287
 1360 0150 BEEEE80A 		vcvt.s32.f32	s0, s0, #15
 1361 0154 10EE10BA 		vmov	fp, s0	@ int
 1362              	.LVL75:
 1363              	.LBB1259:
 1364              	.LBB1258:
 137:../../../mutable-instruments/stmlib/dsp/dsp.h ****     return result;
 1365              		.loc 16 137 5 view .LVU288
 1366              		.syntax unified
 1367              	@ 137 "../../../mutable-instruments/stmlib/dsp/dsp.h" 1
 1368 0158 0BF30F0B 		ssat fp, #16, fp
 1369              	@ 0 "" 2
 1370              	.LVL76:
 1371              		.loc 16 138 5 is_stmt 1 view .LVU289
 1372              		.loc 16 138 5 is_stmt 0 view .LVU290
 1373              		.thumb
 1374              		.syntax unified
 1375              	.LBE1258:
 1376              	.LBE1259:
  81:../../../mutable-instruments/rings/dsp/fx/fx_engine.h ****   }
 1377              		.loc 13 81 63 view .LVU291
 1378 015c 21F81AB0 		strh	fp, [r1, r10, lsl #1]	@ movhi
 1379              	.LVL77:
  81:../../../mutable-instruments/rings/dsp/fx/fx_engine.h ****   }
 1380              		.loc 13 81 63 view .LVU292
 1381              	.LBE1260:
 1382              	.LBE1261:
 1383              	.LBE1264:
 1384              	.LBE1267:
 1385              	.LBE1269:
ARM GAS  /var/folders/hl/qgbwny5j0fd895c2c41bk3tw0000gp/T//ccEG44Zu.s 			page 49


 1386              	.LBE1271:
 1387              	.LBE1412:
 103:../../../mutable-instruments/rings/dsp/fx/reverb.h ****       c.WriteAllPass(ap3, -kap);
 1388              		.loc 12 103 7 is_stmt 1 view .LVU293
 1389              	.LBB1413:
 1390              	.LBI1311:
 199:../../../mutable-instruments/rings/dsp/fx/fx_engine.h ****       STATIC_ASSERT(D::base + D::length <= size, delay_memory_full);
 1391              		.loc 13 199 17 view .LVU294
 1392              	.LBB1320:
 1393              	.LBB1313:
 1394              	.LBI1313:
  75:../../../mutable-instruments/rings/dsp/fx/fx_engine.h ****     return static_cast<float>(static_cast<int16_t>(value)) / 32768.0f;
 1395              		.loc 13 75 23 view .LVU295
 1396              	.LBB1314:
  76:../../../mutable-instruments/rings/dsp/fx/fx_engine.h ****   }
 1397              		.loc 13 76 5 view .LVU296
 1398              	.LBE1314:
 1399              	.LBE1313:
 1400              	.LBE1320:
 1401              	.LBE1413:
 1402              	.LBB1414:
 1403              	.LBB1415:
 1404              	.LBB1416:
 1405              	.LBB1417:
 1406              	.LBB1418:
 177:../../../mutable-instruments/rings/dsp/fx/fx_engine.h ****       }
 1407              		.loc 13 177 29 is_stmt 0 view .LVU297
 1408 0160 03F2BE4A 		addw	r10, r3, #1214
 1409              	.LBE1418:
 1410              	.LBE1417:
 1411              	.LBE1416:
 1412              	.LBE1415:
 1413              	.LBE1414:
 1414              	.LBB1437:
 1415              	.LBB1321:
 1416              	.LBB1317:
 1417              	.LBB1315:
  76:../../../mutable-instruments/rings/dsp/fx/fx_engine.h ****   }
 1418              		.loc 13 76 12 view .LVU298
 1419 0164 31F91990 		ldrsh	r9, [r1, r9, lsl #1]
 1420              	.LBE1315:
 1421              	.LBE1317:
 1422              	.LBE1321:
 1423              	.LBE1437:
 1424              	.LBB1438:
 1425              	.LBB1435:
 1426              	.LBB1433:
 1427              	.LBB1430:
 1428              	.LBB1427:
 177:../../../mutable-instruments/rings/dsp/fx/fx_engine.h ****       }
 1429              		.loc 13 177 49 view .LVU299
 1430 0168 CAF30E0A 		ubfx	r10, r10, #0, #15
 1431              	.LBE1427:
 1432              	.LBE1430:
 1433              	.LBE1433:
 1434              	.LBE1435:
 1435              	.LBE1438:
ARM GAS  /var/folders/hl/qgbwny5j0fd895c2c41bk3tw0000gp/T//ccEG44Zu.s 			page 50


 1436              	.LBB1439:
 1437              	.LBB1322:
 1438              	.LBB1318:
 1439              	.LBB1316:
  76:../../../mutable-instruments/rings/dsp/fx/fx_engine.h ****   }
 1440              		.loc 13 76 12 view .LVU300
 1441 016c 07EE909A 		vmov	s15, r9	@ int
 1442 0170 F8EEE77A 		vcvt.f32.s32	s15, s15
  76:../../../mutable-instruments/rings/dsp/fx/fx_engine.h ****   }
 1443              		.loc 13 76 62 view .LVU301
 1444 0174 67EE877A 		vmul.f32	s15, s15, s14
 1445              	.LVL78:
  76:../../../mutable-instruments/rings/dsp/fx/fx_engine.h ****   }
 1446              		.loc 13 76 62 view .LVU302
 1447              	.LBE1316:
 1448              	.LBE1318:
 209:../../../mutable-instruments/rings/dsp/fx/fx_engine.h ****     }
 1449              		.loc 13 209 20 view .LVU303
 1450 0178 E6EE276A 		vfma.f32	s13, s12, s15
 1451              	.LVL79:
 209:../../../mutable-instruments/rings/dsp/fx/fx_engine.h ****     }
 1452              		.loc 13 209 20 view .LVU304
 1453              	.LBE1322:
 1454              	.LBE1439:
 104:../../../mutable-instruments/rings/dsp/fx/reverb.h ****       c.Read(ap4 TAIL, kap);
 1455              		.loc 12 104 7 is_stmt 1 view .LVU305
 1456              	.LBB1440:
 1457              	.LBI1325:
 194:../../../mutable-instruments/rings/dsp/fx/fx_engine.h ****       WriteAllPass(d, 0, scale);
 1458              		.loc 13 194 17 view .LVU306
 1459              	.LBB1347:
 1460              	.LBI1326:
 188:../../../mutable-instruments/rings/dsp/fx/fx_engine.h ****       Write(d, offset, scale);
 1461              		.loc 13 188 17 view .LVU307
 1462              	.LBB1345:
 1463              	.LBB1342:
 1464              	.LBI1328:
 171:../../../mutable-instruments/rings/dsp/fx/fx_engine.h ****       STATIC_ASSERT(D::base + D::length <= size, delay_memory_full);
 1465              		.loc 13 171 17 view .LVU308
 1466              	.LBB1339:
 1467              	.LBB1330:
 1468              	.LBI1330:
  79:../../../mutable-instruments/rings/dsp/fx/fx_engine.h ****     return static_cast<uint16_t>(
 1469              		.loc 13 79 19 view .LVU309
 1470              	.LBB1331:
  80:../../../mutable-instruments/rings/dsp/fx/fx_engine.h ****         stmlib::Clip16(static_cast<int32_t>(value * 32768.0f)));
 1471              		.loc 13 80 5 view .LVU310
 1472              	.LBB1332:
 1473              	.LBI1332:
 135:../../../mutable-instruments/stmlib/dsp/dsp.h ****     int32_t result;
 1474              		.loc 16 135 18 view .LVU311
 1475              	.LBB1333:
 136:../../../mutable-instruments/stmlib/dsp/dsp.h ****     __asm ("ssat %0, %1, %2" : "=r" (result) :  "I" (16), "r" (x) );
 1476              		.loc 16 136 5 view .LVU312
 137:../../../mutable-instruments/stmlib/dsp/dsp.h ****     return result;
 1477              		.loc 16 137 5 view .LVU313
 1478              	.LBE1333:
ARM GAS  /var/folders/hl/qgbwny5j0fd895c2c41bk3tw0000gp/T//ccEG44Zu.s 			page 51


 1479              	.LBE1332:
  81:../../../mutable-instruments/rings/dsp/fx/fx_engine.h ****   }
 1480              		.loc 13 81 23 is_stmt 0 view .LVU314
 1481 017c B0EE660A 		vmov.f32	s0, s13
 1482              	.LBE1331:
 1483              	.LBE1330:
 1484              	.LBE1339:
 1485              	.LBE1342:
 190:../../../mutable-instruments/rings/dsp/fx/fx_engine.h ****     }
 1486              		.loc 13 190 20 view .LVU315
 1487 0180 E6EEA57A 		vfma.f32	s15, s13, s11
 1488              	.LVL80:
 1489              	.LBB1343:
 1490              	.LBB1340:
 1491              	.LBB1337:
 1492              	.LBB1336:
  81:../../../mutable-instruments/rings/dsp/fx/fx_engine.h ****   }
 1493              		.loc 13 81 23 view .LVU316
 1494 0184 BEEEE80A 		vcvt.s32.f32	s0, s0, #15
 1495 0188 10EE109A 		vmov	r9, s0	@ int
 1496              	.LVL81:
 1497              	.LBB1335:
 1498              	.LBB1334:
 137:../../../mutable-instruments/stmlib/dsp/dsp.h ****     return result;
 1499              		.loc 16 137 5 view .LVU317
 1500              		.syntax unified
 1501              	@ 137 "../../../mutable-instruments/stmlib/dsp/dsp.h" 1
 1502 018c 09F30F09 		ssat r9, #16, r9
 1503              	@ 0 "" 2
 1504              	.LVL82:
 1505              		.loc 16 138 5 is_stmt 1 view .LVU318
 1506              		.loc 16 138 5 is_stmt 0 view .LVU319
 1507              		.thumb
 1508              		.syntax unified
 1509              	.LBE1334:
 1510              	.LBE1335:
  81:../../../mutable-instruments/rings/dsp/fx/fx_engine.h ****   }
 1511              		.loc 13 81 63 view .LVU320
 1512 0190 21F81890 		strh	r9, [r1, r8, lsl #1]	@ movhi
 1513              	.LVL83:
  81:../../../mutable-instruments/rings/dsp/fx/fx_engine.h ****   }
 1514              		.loc 13 81 63 view .LVU321
 1515              	.LBE1336:
 1516              	.LBE1337:
 1517              	.LBE1340:
 1518              	.LBE1343:
 1519              	.LBE1345:
 1520              	.LBE1347:
 1521              	.LBE1440:
 105:../../../mutable-instruments/rings/dsp/fx/reverb.h ****       c.WriteAllPass(ap4, -kap);
 1522              		.loc 12 105 7 is_stmt 1 view .LVU322
 1523              	.LBB1441:
 1524              	.LBI1350:
 199:../../../mutable-instruments/rings/dsp/fx/fx_engine.h ****       STATIC_ASSERT(D::base + D::length <= size, delay_memory_full);
 1525              		.loc 13 199 17 view .LVU323
 1526              	.LBB1363:
 1527              	.LBB1352:
ARM GAS  /var/folders/hl/qgbwny5j0fd895c2c41bk3tw0000gp/T//ccEG44Zu.s 			page 52


 1528              	.LBI1352:
  75:../../../mutable-instruments/rings/dsp/fx/fx_engine.h ****     return static_cast<float>(static_cast<int16_t>(value)) / 32768.0f;
 1529              		.loc 13 75 23 view .LVU324
 1530              	.LBB1353:
  76:../../../mutable-instruments/rings/dsp/fx/fx_engine.h ****   }
 1531              		.loc 13 76 5 view .LVU325
 1532              	.LBE1353:
 1533              	.LBE1352:
 1534              	.LBE1363:
 1535              	.LBE1441:
 1536              	.LBB1442:
 1537              	.LBB1233:
 249:../../../mutable-instruments/rings/dsp/fx/fx_engine.h ****       float x = a + (b - a) * offset_fractional;
 1538              		.loc 13 249 59 is_stmt 0 view .LVU326
 1539 0194 43F6D338 		movw	r8, #15315
 1540              	.LBE1233:
 1541              	.LBE1442:
 1542              	.LBB1443:
 1543              	.LBB1364:
 1544              	.LBB1358:
 1545              	.LBB1354:
  76:../../../mutable-instruments/rings/dsp/fx/fx_engine.h ****   }
 1546              		.loc 13 76 12 view .LVU327
 1547 0198 31F91660 		ldrsh	r6, [r1, r6, lsl #1]
 1548              	.LBE1354:
 1549              	.LBE1358:
 1550              	.LBE1364:
 1551              	.LBE1443:
 1552              	.LBB1444:
 1553              	.LBB1234:
 247:../../../mutable-instruments/rings/dsp/fx/fx_engine.h ****       float b = DataType<format>::Decompress(
 1554              		.loc 13 247 49 view .LVU328
 1555 019c 0CEB0E09 		add	r9, ip, lr
 1556              	.LVL84:
 249:../../../mutable-instruments/rings/dsp/fx/fx_engine.h ****       float x = a + (b - a) * offset_fractional;
 1557              		.loc 13 249 59 view .LVU329
 1558 01a0 E044     		add	r8, r8, ip
 1559              	.LBE1234:
 1560              	.LBE1444:
 1561              	.LBB1445:
 1562              	.LBB1446:
 203:../../../mutable-instruments/rings/dsp/fx/fx_engine.h ****       } else {
 1563              		.loc 13 203 55 view .LVU330
 1564 01a2 41F2C67C 		movw	ip, #6086
 1565              	.LBE1446:
 1566              	.LBE1445:
 1567              	.LBB1461:
 1568              	.LBB1365:
 1569              	.LBB1359:
 1570              	.LBB1355:
  76:../../../mutable-instruments/rings/dsp/fx/fx_engine.h ****   }
 1571              		.loc 13 76 12 view .LVU331
 1572 01a6 06EE906A 		vmov	s13, r6	@ int
 1573              	.LBE1355:
 1574              	.LBE1359:
 1575              	.LBE1365:
 1576              	.LBE1461:
ARM GAS  /var/folders/hl/qgbwny5j0fd895c2c41bk3tw0000gp/T//ccEG44Zu.s 			page 53


 1577              	.LBB1462:
 1578              	.LBB1235:
 247:../../../mutable-instruments/rings/dsp/fx/fx_engine.h ****       float b = DataType<format>::Decompress(
 1579              		.loc 13 247 60 view .LVU332
 1580 01aa C9F30E09 		ubfx	r9, r9, #0, #15
 249:../../../mutable-instruments/rings/dsp/fx/fx_engine.h ****       float x = a + (b - a) * offset_fractional;
 1581              		.loc 13 249 64 view .LVU333
 1582 01ae C8F30E08 		ubfx	r8, r8, #0, #15
 1583              	.LBE1235:
 1584              	.LBE1462:
 1585              	.LBB1463:
 1586              	.LBB1464:
 203:../../../mutable-instruments/rings/dsp/fx/fx_engine.h ****       } else {
 1587              		.loc 13 203 55 view .LVU334
 1588 01b2 03F64356 		addw	r6, r3, #3395
 1589              	.LBE1464:
 1590              	.LBE1463:
 1591              	.LBB1481:
 1592              	.LBB1366:
 1593              	.LBB1360:
 1594              	.LBB1356:
  76:../../../mutable-instruments/rings/dsp/fx/fx_engine.h ****   }
 1595              		.loc 13 76 12 view .LVU335
 1596 01b6 F8EEE66A 		vcvt.f32.s32	s13, s13
 1597              	.LBE1356:
 1598              	.LBE1360:
 1599              	.LBE1366:
 1600              	.LBE1481:
 1601              	.LBB1482:
 1602              	.LBB1455:
 203:../../../mutable-instruments/rings/dsp/fx/fx_engine.h ****       } else {
 1603              		.loc 13 203 55 view .LVU336
 1604 01ba 9C44     		add	ip, ip, r3
 1605              	.LBE1455:
 1606              	.LBE1482:
 1607              	.LBB1483:
 1608              	.LBB1475:
 203:../../../mutable-instruments/rings/dsp/fx/fx_engine.h ****       } else {
 1609              		.loc 13 203 60 view .LVU337
 1610 01bc C6F30E06 		ubfx	r6, r6, #0, #15
 1611              	.LBE1475:
 1612              	.LBE1483:
 1613              	.LBB1484:
 1614              	.LBB1485:
 1615              	.LBB1486:
 177:../../../mutable-instruments/rings/dsp/fx/fx_engine.h ****       }
 1616              		.loc 13 177 29 view .LVU338
 1617 01c0 9E44     		add	lr, lr, r3
 1618              	.LBE1486:
 1619              	.LBE1485:
 1620              	.LBE1484:
 1621              	.LBB1505:
 1622              	.LBB1456:
 203:../../../mutable-instruments/rings/dsp/fx/fx_engine.h ****       } else {
 1623              		.loc 13 203 60 view .LVU339
 1624 01c2 CCF30E0C 		ubfx	ip, ip, #0, #15
 1625              	.LBE1456:
ARM GAS  /var/folders/hl/qgbwny5j0fd895c2c41bk3tw0000gp/T//ccEG44Zu.s 			page 54


 1626              	.LBE1505:
 1627              	.LBB1506:
 1628              	.LBB1367:
 1629              	.LBB1361:
 1630              	.LBB1357:
  76:../../../mutable-instruments/rings/dsp/fx/fx_engine.h ****   }
 1631              		.loc 13 76 62 view .LVU340
 1632 01c6 66EE876A 		vmul.f32	s13, s13, s14
 1633              	.LVL85:
  76:../../../mutable-instruments/rings/dsp/fx/fx_engine.h ****   }
 1634              		.loc 13 76 62 view .LVU341
 1635              	.LBE1357:
 1636              	.LBE1361:
 1637              	.LBE1367:
 1638              	.LBE1506:
 1639              	.LBB1507:
 1640              	.LBB1501:
 1641              	.LBB1497:
 177:../../../mutable-instruments/rings/dsp/fx/fx_engine.h ****       }
 1642              		.loc 13 177 49 view .LVU342
 1643 01ca CEF30E0E 		ubfx	lr, lr, #0, #15
 1644              	.LBE1497:
 1645              	.LBE1501:
 1646              	.LBE1507:
 1647              	.LBB1508:
 1648              	.LBB1368:
 209:../../../mutable-instruments/rings/dsp/fx/fx_engine.h ****     }
 1649              		.loc 13 209 20 view .LVU343
 1650 01ce E6EE267A 		vfma.f32	s15, s12, s13
 1651              	.LVL86:
 209:../../../mutable-instruments/rings/dsp/fx/fx_engine.h ****     }
 1652              		.loc 13 209 20 view .LVU344
 1653              	.LBE1368:
 1654              	.LBE1508:
 106:../../../mutable-instruments/rings/dsp/fx/reverb.h ****       c.Write(apout);
 1655              		.loc 12 106 7 is_stmt 1 view .LVU345
 1656              	.LBB1509:
 1657              	.LBI1372:
 194:../../../mutable-instruments/rings/dsp/fx/fx_engine.h ****       WriteAllPass(d, 0, scale);
 1658              		.loc 13 194 17 view .LVU346
 1659              	.LBB1394:
 1660              	.LBI1373:
 188:../../../mutable-instruments/rings/dsp/fx/fx_engine.h ****       Write(d, offset, scale);
 1661              		.loc 13 188 17 view .LVU347
 1662              	.LBB1392:
 1663              	.LBB1389:
 1664              	.LBI1375:
 171:../../../mutable-instruments/rings/dsp/fx/fx_engine.h ****       STATIC_ASSERT(D::base + D::length <= size, delay_memory_full);
 1665              		.loc 13 171 17 view .LVU348
 1666              	.LBB1386:
 1667              	.LBB1377:
 1668              	.LBI1377:
  79:../../../mutable-instruments/rings/dsp/fx/fx_engine.h ****     return static_cast<uint16_t>(
 1669              		.loc 13 79 19 view .LVU349
 1670              	.LBB1378:
  80:../../../mutable-instruments/rings/dsp/fx/fx_engine.h ****         stmlib::Clip16(static_cast<int32_t>(value * 32768.0f)));
 1671              		.loc 13 80 5 view .LVU350
ARM GAS  /var/folders/hl/qgbwny5j0fd895c2c41bk3tw0000gp/T//ccEG44Zu.s 			page 55


 1672              	.LBB1379:
 1673              	.LBI1379:
 135:../../../mutable-instruments/stmlib/dsp/dsp.h ****     int32_t result;
 1674              		.loc 16 135 18 view .LVU351
 1675              	.LBB1380:
 136:../../../mutable-instruments/stmlib/dsp/dsp.h ****     __asm ("ssat %0, %1, %2" : "=r" (result) :  "I" (16), "r" (x) );
 1676              		.loc 16 136 5 view .LVU352
 137:../../../mutable-instruments/stmlib/dsp/dsp.h ****     return result;
 1677              		.loc 16 137 5 view .LVU353
 1678              	.LBE1380:
 1679              	.LBE1379:
  81:../../../mutable-instruments/rings/dsp/fx/fx_engine.h ****   }
 1680              		.loc 13 81 23 is_stmt 0 view .LVU354
 1681 01d2 B0EE670A 		vmov.f32	s0, s15
 1682              	.LBE1378:
 1683              	.LBE1377:
 1684              	.LBE1386:
 1685              	.LBE1389:
 190:../../../mutable-instruments/rings/dsp/fx/fx_engine.h ****     }
 1686              		.loc 13 190 20 view .LVU355
 1687 01d6 E7EEA56A 		vfma.f32	s13, s15, s11
 1688              	.LVL87:
 1689              	.LBB1390:
 1690              	.LBB1387:
 1691              	.LBB1384:
 1692              	.LBB1383:
  81:../../../mutable-instruments/rings/dsp/fx/fx_engine.h ****   }
 1693              		.loc 13 81 23 view .LVU356
 1694 01da BEEEE80A 		vcvt.s32.f32	s0, s0, #15
 1695 01de 10EE10BA 		vmov	fp, s0	@ int
 1696              	.LVL88:
 1697              	.LBB1382:
 1698              	.LBB1381:
 137:../../../mutable-instruments/stmlib/dsp/dsp.h ****     return result;
 1699              		.loc 16 137 5 view .LVU357
 1700              		.syntax unified
 1701              	@ 137 "../../../mutable-instruments/stmlib/dsp/dsp.h" 1
 1702 01e2 0BF30F0B 		ssat fp, #16, fp
 1703              	@ 0 "" 2
 1704              	.LVL89:
 1705              		.loc 16 138 5 is_stmt 1 view .LVU358
 1706              		.loc 16 138 5 is_stmt 0 view .LVU359
 1707              		.thumb
 1708              		.syntax unified
 1709              	.LBE1381:
 1710              	.LBE1382:
  81:../../../mutable-instruments/rings/dsp/fx/fx_engine.h ****   }
 1711              		.loc 13 81 63 view .LVU360
 1712 01e6 21F817B0 		strh	fp, [r1, r7, lsl #1]	@ movhi
 1713              	.LVL90:
  81:../../../mutable-instruments/rings/dsp/fx/fx_engine.h ****   }
 1714              		.loc 13 81 63 view .LVU361
 1715              	.LBE1383:
 1716              	.LBE1384:
 1717              	.LBE1387:
 1718              	.LBE1390:
 1719              	.LBE1392:
ARM GAS  /var/folders/hl/qgbwny5j0fd895c2c41bk3tw0000gp/T//ccEG44Zu.s 			page 56


 1720              	.LBE1394:
 1721              	.LBE1509:
 107:../../../mutable-instruments/rings/dsp/fx/reverb.h ****       
 1722              		.loc 12 107 7 is_stmt 1 view .LVU362
 110:../../../mutable-instruments/rings/dsp/fx/reverb.h ****       c.Interpolate(del2, 6261.0f, LFO_2, 50.0f, krt);
 1723              		.loc 12 110 7 view .LVU363
 111:../../../mutable-instruments/rings/dsp/fx/reverb.h ****       c.Lp(lp_1, klp);
 1724              		.loc 12 111 7 view .LVU364
 1725              	.LBB1510:
 1726              	.LBI1206:
 241:../../../mutable-instruments/rings/dsp/fx/fx_engine.h ****         D& d, float offset, LFOIndex index, float amplitude, float scale) {
 1727              		.loc 13 241 17 view .LVU365
 1728              	.LBB1236:
 1729              	.LBB1208:
 1730              	.LBI1208:
  75:../../../mutable-instruments/rings/dsp/fx/fx_engine.h ****     return static_cast<float>(static_cast<int16_t>(value)) / 32768.0f;
 1731              		.loc 13 75 23 view .LVU366
 1732              	.LBB1209:
  76:../../../mutable-instruments/rings/dsp/fx/fx_engine.h ****   }
 1733              		.loc 13 76 5 view .LVU367
 1734              	.LBE1209:
 1735              	.LBE1208:
 1736              	.LBB1213:
 1737              	.LBB1214:
  76:../../../mutable-instruments/rings/dsp/fx/fx_engine.h ****   }
 1738              		.loc 13 76 12 is_stmt 0 view .LVU368
 1739 01ea 31F91870 		ldrsh	r7, [r1, r8, lsl #1]
 1740              	.LBE1214:
 1741              	.LBE1213:
 1742              	.LBE1236:
 1743              	.LBE1510:
 1744              	.LBB1511:
 1745              	.LBB1298:
 249:../../../mutable-instruments/rings/dsp/fx/fx_engine.h ****       float x = a + (b - a) * offset_fractional;
 1746              		.loc 13 249 59 view .LVU369
 1747 01ee 41F2C978 		movw	r8, #6089
 1748              	.LBE1298:
 1749              	.LBE1511:
 1750              	.LBB1512:
 1751              	.LBB1476:
 1752              	.LBB1465:
 1753              	.LBB1466:
  76:../../../mutable-instruments/rings/dsp/fx/fx_engine.h ****   }
 1754              		.loc 13 76 12 view .LVU370
 1755 01f2 31F91660 		ldrsh	r6, [r1, r6, lsl #1]
 1756              	.LBE1466:
 1757              	.LBE1465:
 1758              	.LBE1476:
 1759              	.LBE1512:
 1760              	.LBB1513:
 1761              	.LBB1237:
 1762              	.LBB1219:
 1763              	.LBB1215:
 1764 01f6 00EE107A 		vmov	s0, r7	@ int
 1765              	.LBE1215:
 1766              	.LBE1219:
 1767              	.LBB1220:
ARM GAS  /var/folders/hl/qgbwny5j0fd895c2c41bk3tw0000gp/T//ccEG44Zu.s 			page 57


 1768              	.LBB1210:
 1769 01fa 31F91970 		ldrsh	r7, [r1, r9, lsl #1]
 1770              	.LBE1210:
 1771              	.LBE1220:
 1772              	.LBE1237:
 1773              	.LBE1513:
 1774              	.LBB1514:
 1775              	.LBB1477:
 1776              	.LBB1471:
 1777              	.LBB1467:
 1778 01fe 07EE906A 		vmov	s15, r6	@ int
 1779              	.LBE1467:
 1780              	.LBE1471:
 1781              	.LBE1477:
 1782              	.LBE1514:
 1783              	.LBB1515:
 1784              	.LBB1299:
 247:../../../mutable-instruments/rings/dsp/fx/fx_engine.h ****       float b = DataType<format>::Decompress(
 1785              		.loc 13 247 31 view .LVU371
 1786 0202 18EE106A 		vmov	r6, s16	@ int
 1787              	.LBE1299:
 1788              	.LBE1515:
 1789              	.LBB1516:
 1790              	.LBB1238:
 1791              	.LBB1221:
 1792              	.LBB1216:
  76:../../../mutable-instruments/rings/dsp/fx/fx_engine.h ****   }
 1793              		.loc 13 76 12 view .LVU372
 1794 0206 B8EEC00A 		vcvt.f32.s32	s0, s0
 1795              	.LBE1216:
 1796              	.LBE1221:
 1797              	.LBB1222:
 1798              	.LBB1211:
 1799 020a 08EE907A 		vmov	s17, r7	@ int
 1800              	.LBE1211:
 1801              	.LBE1222:
 1802              	.LBE1238:
 1803              	.LBE1516:
 1804              	.LBB1517:
 1805              	.LBB1478:
 1806              	.LBB1472:
 1807              	.LBB1468:
 1808 020e F8EEE77A 		vcvt.f32.s32	s15, s15
 1809              	.LBE1468:
 1810              	.LBE1472:
 1811              	.LBE1478:
 1812              	.LBE1517:
 1813              	.LBB1518:
 1814              	.LBB1519:
 1815              	.LBB1520:
 177:../../../mutable-instruments/rings/dsp/fx/fx_engine.h ****       }
 1816              		.loc 13 177 29 view .LVU373
 1817 0212 41F2C877 		movw	r7, #6088
 1818              	.LBE1520:
 1819              	.LBE1519:
 1820              	.LBE1518:
 1821              	.LBB1549:
ARM GAS  /var/folders/hl/qgbwny5j0fd895c2c41bk3tw0000gp/T//ccEG44Zu.s 			page 58


 1822              	.LBB1239:
 1823              	.LBB1223:
 1824              	.LBB1212:
  76:../../../mutable-instruments/rings/dsp/fx/fx_engine.h ****   }
 1825              		.loc 13 76 12 view .LVU374
 1826 0216 F8EEE88A 		vcvt.f32.s32	s17, s17
 1827              	.LVL91:
  76:../../../mutable-instruments/rings/dsp/fx/fx_engine.h ****   }
 1828              		.loc 13 76 12 view .LVU375
 1829              	.LBE1212:
 1830              	.LBE1223:
 1831              	.LBB1224:
 1832              	.LBI1213:
  75:../../../mutable-instruments/rings/dsp/fx/fx_engine.h ****     return static_cast<float>(static_cast<int16_t>(value)) / 32768.0f;
 1833              		.loc 13 75 23 is_stmt 1 view .LVU376
 1834              	.LBB1217:
  76:../../../mutable-instruments/rings/dsp/fx/fx_engine.h ****   }
 1835              		.loc 13 76 5 view .LVU377
  76:../../../mutable-instruments/rings/dsp/fx/fx_engine.h ****   }
 1836              		.loc 13 76 5 is_stmt 0 view .LVU378
 1837              	.LBE1217:
 1838              	.LBE1224:
 1839              	.LBE1239:
 1840              	.LBE1549:
 1841              	.LBB1550:
 1842              	.LBB1300:
 247:../../../mutable-instruments/rings/dsp/fx/fx_engine.h ****       float b = DataType<format>::Decompress(
 1843              		.loc 13 247 31 view .LVU379
 1844 021a 1E44     		add	r6, r6, r3
 1845              	.LBE1300:
 1846              	.LBE1550:
 1847              	.LBB1551:
 1848              	.LBB1240:
 1849              	.LBB1225:
 1850              	.LBB1218:
  76:../../../mutable-instruments/rings/dsp/fx/fx_engine.h ****   }
 1851              		.loc 13 76 62 view .LVU380
 1852 021c 20EE070A 		vmul.f32	s0, s0, s14
 1853              	.LBE1218:
 1854              	.LBE1225:
 1855              	.LBE1240:
 1856              	.LBE1551:
 1857              	.LBB1552:
 1858              	.LBB1553:
 1859              	.LBB1554:
 1860              	.LBB1555:
 1861              	.LBB1556:
 177:../../../mutable-instruments/rings/dsp/fx/fx_engine.h ****       }
 1862              		.loc 13 177 29 view .LVU381
 1863 0220 03F64559 		addw	r9, r3, #3397
 1864              	.LBE1556:
 1865              	.LBE1555:
 1866              	.LBE1554:
 1867              	.LBE1553:
 1868              	.LBE1552:
 1869              	.LBB1581:
 1870              	.LBB1479:
ARM GAS  /var/folders/hl/qgbwny5j0fd895c2c41bk3tw0000gp/T//ccEG44Zu.s 			page 59


 1871              	.LBB1473:
 1872              	.LBB1469:
  76:../../../mutable-instruments/rings/dsp/fx/fx_engine.h ****   }
 1873              		.loc 13 76 62 view .LVU382
 1874 0224 67EE877A 		vmul.f32	s15, s15, s14
 1875              	.LBE1469:
 1876              	.LBE1473:
 1877              	.LBE1479:
 1878              	.LBE1581:
 1879              	.LBB1582:
 1880              	.LBB1301:
 249:../../../mutable-instruments/rings/dsp/fx/fx_engine.h ****       float x = a + (b - a) * offset_fractional;
 1881              		.loc 13 249 59 view .LVU383
 1882 0228 B044     		add	r8, r8, r6
 247:../../../mutable-instruments/rings/dsp/fx/fx_engine.h ****       float b = DataType<format>::Decompress(
 1883              		.loc 13 247 49 view .LVU384
 1884 022a 3E44     		add	r6, r6, r7
 1885              	.LBE1301:
 1886              	.LBE1582:
 1887              	.LBB1583:
 1888              	.LBB1542:
 1889              	.LBB1535:
 177:../../../mutable-instruments/rings/dsp/fx/fx_engine.h ****       }
 1890              		.loc 13 177 29 view .LVU385
 1891 022c 1F44     		add	r7, r7, r3
 1892              	.LBE1535:
 1893              	.LBE1542:
 1894              	.LBE1583:
 1895              	.LBB1584:
 1896              	.LBB1241:
 250:../../../mutable-instruments/rings/dsp/fx/fx_engine.h ****       previous_read_ = x;
 1897              		.loc 13 250 24 view .LVU386
 1898 022e A8EEC70A 		vfms.f32	s0, s17, s14
 1899              	.LBE1241:
 1900              	.LBE1584:
 1901              	.LBB1585:
 1902              	.LBB1578:
 1903              	.LBB1575:
 1904              	.LBB1571:
 1905              	.LBB1567:
 177:../../../mutable-instruments/rings/dsp/fx/fx_engine.h ****       }
 1906              		.loc 13 177 49 view .LVU387
 1907 0232 C9F30E09 		ubfx	r9, r9, #0, #15
 1908              	.LBE1567:
 1909              	.LBE1571:
 1910              	.LBE1575:
 1911              	.LBE1578:
 1912              	.LBE1585:
 1913              	.LBB1586:
 1914              	.LBB1543:
 1915              	.LBB1536:
 1916 0236 C7F30E07 		ubfx	r7, r7, #0, #15
 1917              	.LBE1536:
 1918              	.LBE1543:
 1919              	.LBE1586:
 1920              	.LBB1587:
 1921              	.LBB1302:
ARM GAS  /var/folders/hl/qgbwny5j0fd895c2c41bk3tw0000gp/T//ccEG44Zu.s 			page 60


 249:../../../mutable-instruments/rings/dsp/fx/fx_engine.h ****       float x = a + (b - a) * offset_fractional;
 1922              		.loc 13 249 64 view .LVU388
 1923 023a C8F30E08 		ubfx	r8, r8, #0, #15
 247:../../../mutable-instruments/rings/dsp/fx/fx_engine.h ****       float b = DataType<format>::Decompress(
 1924              		.loc 13 247 60 view .LVU389
 1925 023e C6F30E06 		ubfx	r6, r6, #0, #15
 1926              	.LBE1302:
 1927              	.LBE1587:
 1928              	.LBB1588:
 1929              	.LBB1242:
 250:../../../mutable-instruments/rings/dsp/fx/fx_engine.h ****       previous_read_ = x;
 1930              		.loc 13 250 29 view .LVU390
 1931 0242 60EE800A 		vmul.f32	s1, s1, s0
 1932              	.LVL92:
 252:../../../mutable-instruments/rings/dsp/fx/fx_engine.h ****     }
 1933              		.loc 13 252 20 view .LVU391
 1934 0246 B0EE660A 		vmov.f32	s0, s13
 250:../../../mutable-instruments/rings/dsp/fx/fx_engine.h ****       previous_read_ = x;
 1935              		.loc 13 250 13 view .LVU392
 1936 024a E8EE870A 		vfma.f32	s1, s17, s14
 1937              	.LVL93:
 250:../../../mutable-instruments/rings/dsp/fx/fx_engine.h ****       previous_read_ = x;
 1938              		.loc 13 250 13 view .LVU393
 1939              	.LBE1242:
 1940              	.LBE1588:
 1941              		.loc 12 120 21 view .LVU394
 1942 024e F0EE618A 		vmov.f32	s17, s3
 1943              	.LVL94:
 1944              	.LBB1589:
 1945              	.LBB1243:
 252:../../../mutable-instruments/rings/dsp/fx/fx_engine.h ****     }
 1946              		.loc 13 252 20 view .LVU395
 1947 0252 A3EEA00A 		vfma.f32	s0, s7, s1
 1948              	.LVL95:
 252:../../../mutable-instruments/rings/dsp/fx/fx_engine.h ****     }
 1949              		.loc 13 252 20 view .LVU396
 1950              	.LBE1243:
 1951              	.LBE1589:
 112:../../../mutable-instruments/rings/dsp/fx/reverb.h ****       c.Read(dap1a TAIL, -kap);
 1952              		.loc 12 112 7 is_stmt 1 view .LVU397
 1953              	.LBB1590:
 1954              	.LBI1590:
 217:../../../mutable-instruments/rings/dsp/fx/fx_engine.h ****       state += coefficient * (accumulator_ - state);
 1955              		.loc 13 217 17 view .LVU398
 1956              	.LBB1591:
 218:../../../mutable-instruments/rings/dsp/fx/fx_engine.h ****       accumulator_ = state;
 1957              		.loc 13 218 44 is_stmt 0 view .LVU399
 1958 0256 70EE640A 		vsub.f32	s1, s0, s9
 218:../../../mutable-instruments/rings/dsp/fx/fx_engine.h ****       accumulator_ = state;
 1959              		.loc 13 218 13 view .LVU400
 1960 025a E4EE204A 		vfma.f32	s9, s8, s1
 1961              	.LVL96:
 218:../../../mutable-instruments/rings/dsp/fx/fx_engine.h ****       accumulator_ = state;
 1962              		.loc 13 218 13 view .LVU401
 1963              	.LBE1591:
 1964              	.LBE1590:
 113:../../../mutable-instruments/rings/dsp/fx/reverb.h ****       c.WriteAllPass(dap1a, kap);
ARM GAS  /var/folders/hl/qgbwny5j0fd895c2c41bk3tw0000gp/T//ccEG44Zu.s 			page 61


 1965              		.loc 12 113 7 is_stmt 1 view .LVU402
 1966              	.LBB1592:
 1967              	.LBI1463:
 199:../../../mutable-instruments/rings/dsp/fx/fx_engine.h ****       STATIC_ASSERT(D::base + D::length <= size, delay_memory_full);
 1968              		.loc 13 199 17 view .LVU403
 1969              	.LBB1480:
 1970              	.LBB1474:
 1971              	.LBI1465:
  75:../../../mutable-instruments/rings/dsp/fx/fx_engine.h ****     return static_cast<float>(static_cast<int16_t>(value)) / 32768.0f;
 1972              		.loc 13 75 23 view .LVU404
 1973              	.LBB1470:
  76:../../../mutable-instruments/rings/dsp/fx/fx_engine.h ****   }
 1974              		.loc 13 76 5 view .LVU405
  76:../../../mutable-instruments/rings/dsp/fx/fx_engine.h ****   }
 1975              		.loc 13 76 5 is_stmt 0 view .LVU406
 1976              	.LBE1470:
 1977              	.LBE1474:
 209:../../../mutable-instruments/rings/dsp/fx/fx_engine.h ****     }
 1978              		.loc 13 209 20 view .LVU407
 1979 025e F0EE640A 		vmov.f32	s1, s9
 1980 0262 E7EEA50A 		vfma.f32	s1, s15, s11
 1981              	.LVL97:
 209:../../../mutable-instruments/rings/dsp/fx/fx_engine.h ****     }
 1982              		.loc 13 209 20 view .LVU408
 1983              	.LBE1480:
 1984              	.LBE1592:
 114:../../../mutable-instruments/rings/dsp/fx/reverb.h ****       c.Read(dap1b TAIL, kap);
 1985              		.loc 12 114 7 is_stmt 1 view .LVU409
 1986              	.LBB1593:
 1987              	.LBI1414:
 194:../../../mutable-instruments/rings/dsp/fx/fx_engine.h ****       WriteAllPass(d, 0, scale);
 1988              		.loc 13 194 17 view .LVU410
 1989              	.LBB1436:
 1990              	.LBI1415:
 188:../../../mutable-instruments/rings/dsp/fx/fx_engine.h ****       Write(d, offset, scale);
 1991              		.loc 13 188 17 view .LVU411
 1992              	.LBB1434:
 1993              	.LBB1431:
 1994              	.LBI1417:
 171:../../../mutable-instruments/rings/dsp/fx/fx_engine.h ****       STATIC_ASSERT(D::base + D::length <= size, delay_memory_full);
 1995              		.loc 13 171 17 view .LVU412
 1996              	.LBB1428:
 1997              	.LBB1419:
 1998              	.LBI1419:
  79:../../../mutable-instruments/rings/dsp/fx/fx_engine.h ****     return static_cast<uint16_t>(
 1999              		.loc 13 79 19 view .LVU413
 2000              	.LBB1420:
  80:../../../mutable-instruments/rings/dsp/fx/fx_engine.h ****         stmlib::Clip16(static_cast<int32_t>(value * 32768.0f)));
 2001              		.loc 13 80 5 view .LVU414
 2002              	.LBB1421:
 2003              	.LBI1421:
 135:../../../mutable-instruments/stmlib/dsp/dsp.h ****     int32_t result;
 2004              		.loc 16 135 18 view .LVU415
 2005              	.LBB1422:
 136:../../../mutable-instruments/stmlib/dsp/dsp.h ****     __asm ("ssat %0, %1, %2" : "=r" (result) :  "I" (16), "r" (x) );
 2006              		.loc 16 136 5 view .LVU416
 137:../../../mutable-instruments/stmlib/dsp/dsp.h ****     return result;
ARM GAS  /var/folders/hl/qgbwny5j0fd895c2c41bk3tw0000gp/T//ccEG44Zu.s 			page 62


 2007              		.loc 16 137 5 view .LVU417
 2008              	.LBE1422:
 2009              	.LBE1421:
 2010              	.LBE1420:
 2011              	.LBE1419:
 2012              	.LBE1428:
 2013              	.LBE1431:
 190:../../../mutable-instruments/rings/dsp/fx/fx_engine.h ****     }
 2014              		.loc 13 190 20 is_stmt 0 view .LVU418
 2015 0266 E6EE207A 		vfma.f32	s15, s12, s1
 2016              	.LVL98:
 2017              	.LBB1432:
 2018              	.LBB1429:
 2019              	.LBB1426:
 2020              	.LBB1425:
  81:../../../mutable-instruments/rings/dsp/fx/fx_engine.h ****   }
 2021              		.loc 13 81 23 view .LVU419
 2022 026a FEEEE80A 		vcvt.s32.f32	s1, s1, #15
 2023              	.LVL99:
 2024              	.LBB1424:
 2025              	.LBB1423:
 137:../../../mutable-instruments/stmlib/dsp/dsp.h ****     return result;
 2026              		.loc 16 137 5 view .LVU420
 2027 026e 10EE90BA 		vmov	fp, s1	@ int
 2028              	.LVL100:
 137:../../../mutable-instruments/stmlib/dsp/dsp.h ****     return result;
 2029              		.loc 16 137 5 view .LVU421
 2030              		.syntax unified
 2031              	@ 137 "../../../mutable-instruments/stmlib/dsp/dsp.h" 1
 2032 0272 0BF30F0B 		ssat fp, #16, fp
 2033              	@ 0 "" 2
 2034              	.LVL101:
 2035              		.loc 16 138 5 is_stmt 1 view .LVU422
 2036              		.loc 16 138 5 is_stmt 0 view .LVU423
 2037              		.thumb
 2038              		.syntax unified
 2039              	.LBE1423:
 2040              	.LBE1424:
  81:../../../mutable-instruments/rings/dsp/fx/fx_engine.h ****   }
 2041              		.loc 13 81 63 view .LVU424
 2042 0276 21F81AB0 		strh	fp, [r1, r10, lsl #1]	@ movhi
 2043              	.LVL102:
  81:../../../mutable-instruments/rings/dsp/fx/fx_engine.h ****   }
 2044              		.loc 13 81 63 view .LVU425
 2045              	.LBE1425:
 2046              	.LBE1426:
 2047              	.LBE1429:
 2048              	.LBE1432:
 2049              	.LBE1434:
 2050              	.LBE1436:
 2051              	.LBE1593:
 115:../../../mutable-instruments/rings/dsp/fx/reverb.h ****       c.WriteAllPass(dap1b, -kap);
 2052              		.loc 12 115 7 is_stmt 1 view .LVU426
 2053              	.LBB1594:
 2054              	.LBI1445:
 199:../../../mutable-instruments/rings/dsp/fx/fx_engine.h ****       STATIC_ASSERT(D::base + D::length <= size, delay_memory_full);
 2055              		.loc 13 199 17 view .LVU427
ARM GAS  /var/folders/hl/qgbwny5j0fd895c2c41bk3tw0000gp/T//ccEG44Zu.s 			page 63


 2056              	.LBB1457:
 2057              	.LBB1447:
 2058              	.LBI1447:
  75:../../../mutable-instruments/rings/dsp/fx/fx_engine.h ****     return static_cast<float>(static_cast<int16_t>(value)) / 32768.0f;
 2059              		.loc 13 75 23 view .LVU428
 2060              	.LBB1448:
  76:../../../mutable-instruments/rings/dsp/fx/fx_engine.h ****   }
 2061              		.loc 13 76 5 view .LVU429
 2062              	.LBE1448:
 2063              	.LBE1447:
 2064              	.LBE1457:
 2065              	.LBE1594:
 2066              	.LBB1595:
 2067              	.LBB1596:
 203:../../../mutable-instruments/rings/dsp/fx/fx_engine.h ****       } else {
 2068              		.loc 13 203 55 is_stmt 0 view .LVU430
 2069 027a 43F23A3A 		movw	r10, #13114
 2070              	.LBE1596:
 2071              	.LBE1595:
 2072              	.LBB1614:
 2073              	.LBB1458:
 2074              	.LBB1452:
 2075              	.LBB1449:
  76:../../../mutable-instruments/rings/dsp/fx/fx_engine.h ****   }
 2076              		.loc 13 76 12 view .LVU431
 2077 027e 31F91CC0 		ldrsh	ip, [r1, ip, lsl #1]
 2078              	.LBE1449:
 2079              	.LBE1452:
 2080              	.LBE1458:
 2081              	.LBE1614:
 2082              	.LBB1615:
 2083              	.LBB1607:
 203:../../../mutable-instruments/rings/dsp/fx/fx_engine.h ****       } else {
 2084              		.loc 13 203 55 view .LVU432
 2085 0282 9A44     		add	r10, r10, r3
 2086              	.LBE1607:
 2087              	.LBE1615:
 2088              	.LBB1616:
 2089              	.LBB1459:
 2090              	.LBB1453:
 2091              	.LBB1450:
  76:../../../mutable-instruments/rings/dsp/fx/fx_engine.h ****   }
 2092              		.loc 13 76 12 view .LVU433
 2093 0284 00EE90CA 		vmov	s1, ip	@ int
 2094              	.LBE1450:
 2095              	.LBE1453:
 2096              	.LBE1459:
 2097              	.LBE1616:
 2098              	.LBB1617:
 2099              	.LBB1608:
 203:../../../mutable-instruments/rings/dsp/fx/fx_engine.h ****       } else {
 2100              		.loc 13 203 60 view .LVU434
 2101 0288 CAF30E0A 		ubfx	r10, r10, #0, #15
 2102              	.LBE1608:
 2103              	.LBE1617:
 2104              	.LBB1618:
 2105              	.LBB1460:
ARM GAS  /var/folders/hl/qgbwny5j0fd895c2c41bk3tw0000gp/T//ccEG44Zu.s 			page 64


 2106              	.LBB1454:
 2107              	.LBB1451:
  76:../../../mutable-instruments/rings/dsp/fx/fx_engine.h ****   }
 2108              		.loc 13 76 12 view .LVU435
 2109 028c F8EEE00A 		vcvt.f32.s32	s1, s1
  76:../../../mutable-instruments/rings/dsp/fx/fx_engine.h ****   }
 2110              		.loc 13 76 62 view .LVU436
 2111 0290 60EE870A 		vmul.f32	s1, s1, s14
 2112              	.LVL103:
  76:../../../mutable-instruments/rings/dsp/fx/fx_engine.h ****   }
 2113              		.loc 13 76 62 view .LVU437
 2114              	.LBE1451:
 2115              	.LBE1454:
 209:../../../mutable-instruments/rings/dsp/fx/fx_engine.h ****     }
 2116              		.loc 13 209 20 view .LVU438
 2117 0294 E6EE207A 		vfma.f32	s15, s12, s1
 2118              	.LVL104:
 209:../../../mutable-instruments/rings/dsp/fx/fx_engine.h ****     }
 2119              		.loc 13 209 20 view .LVU439
 2120              	.LBE1460:
 2121              	.LBE1618:
 116:../../../mutable-instruments/rings/dsp/fx/reverb.h ****       c.Write(del1, 2.0f);
 2122              		.loc 12 116 7 is_stmt 1 view .LVU440
 2123              	.LBB1619:
 2124              	.LBI1552:
 194:../../../mutable-instruments/rings/dsp/fx/fx_engine.h ****       WriteAllPass(d, 0, scale);
 2125              		.loc 13 194 17 view .LVU441
 2126              	.LBB1579:
 2127              	.LBI1553:
 188:../../../mutable-instruments/rings/dsp/fx/fx_engine.h ****       Write(d, offset, scale);
 2128              		.loc 13 188 17 view .LVU442
 2129              	.LBB1576:
 2130              	.LBB1572:
 2131              	.LBI1555:
 171:../../../mutable-instruments/rings/dsp/fx/fx_engine.h ****       STATIC_ASSERT(D::base + D::length <= size, delay_memory_full);
 2132              		.loc 13 171 17 view .LVU443
 2133              	.LBB1568:
 2134              	.LBB1557:
 2135              	.LBI1557:
  79:../../../mutable-instruments/rings/dsp/fx/fx_engine.h ****     return static_cast<uint16_t>(
 2136              		.loc 13 79 19 view .LVU444
 2137              	.LBB1558:
  80:../../../mutable-instruments/rings/dsp/fx/fx_engine.h ****         stmlib::Clip16(static_cast<int32_t>(value * 32768.0f)));
 2138              		.loc 13 80 5 view .LVU445
 2139              	.LBB1559:
 2140              	.LBI1559:
 135:../../../mutable-instruments/stmlib/dsp/dsp.h ****     int32_t result;
 2141              		.loc 16 135 18 view .LVU446
 2142              	.LBB1560:
 136:../../../mutable-instruments/stmlib/dsp/dsp.h ****     __asm ("ssat %0, %1, %2" : "=r" (result) :  "I" (16), "r" (x) );
 2143              		.loc 16 136 5 view .LVU447
 137:../../../mutable-instruments/stmlib/dsp/dsp.h ****     return result;
 2144              		.loc 16 137 5 view .LVU448
 2145              	.LBE1560:
 2146              	.LBE1559:
 2147              	.LBE1558:
 2148              	.LBE1557:
ARM GAS  /var/folders/hl/qgbwny5j0fd895c2c41bk3tw0000gp/T//ccEG44Zu.s 			page 65


 2149              	.LBE1568:
 2150              	.LBE1572:
 190:../../../mutable-instruments/rings/dsp/fx/fx_engine.h ****     }
 2151              		.loc 13 190 20 is_stmt 0 view .LVU449
 2152 0298 E7EEA50A 		vfma.f32	s1, s15, s11
 2153              	.LVL105:
 2154              	.LBB1573:
 2155              	.LBB1569:
 2156              	.LBB1565:
 2157              	.LBB1563:
  81:../../../mutable-instruments/rings/dsp/fx/fx_engine.h ****   }
 2158              		.loc 13 81 23 view .LVU450
 2159 029c FEEEE87A 		vcvt.s32.f32	s15, s15, #15
 2160              	.LVL106:
 2161              	.LBB1562:
 2162              	.LBB1561:
 137:../../../mutable-instruments/stmlib/dsp/dsp.h ****     return result;
 2163              		.loc 16 137 5 view .LVU451
 2164 02a0 17EE90CA 		vmov	ip, s15	@ int
 2165              	.LVL107:
 137:../../../mutable-instruments/stmlib/dsp/dsp.h ****     return result;
 2166              		.loc 16 137 5 view .LVU452
 2167              		.syntax unified
 2168              	@ 137 "../../../mutable-instruments/stmlib/dsp/dsp.h" 1
 2169 02a4 0CF30F0C 		ssat ip, #16, ip
 2170              	@ 0 "" 2
 2171              	.LVL108:
 2172              		.loc 16 138 5 is_stmt 1 view .LVU453
 2173              		.loc 16 138 5 is_stmt 0 view .LVU454
 2174              		.thumb
 2175              		.syntax unified
 2176              	.LBE1561:
 2177              	.LBE1562:
 2178              	.LBE1563:
 2179              	.LBE1565:
 2180              	.LBE1569:
 2181              	.LBE1573:
 2182              	.LBE1576:
 2183              	.LBE1579:
 2184              	.LBE1619:
 2185              	.LBB1620:
 2186              	.LBB1544:
 2187              	.LBB1537:
 2188              	.LBB1521:
 2189              	.LBB1522:
  81:../../../mutable-instruments/rings/dsp/fx/fx_engine.h ****   }
 2190              		.loc 13 81 23 view .LVU455
 2191 02a8 F0EE607A 		vmov.f32	s15, s1
 2192              	.LBE1522:
 2193              	.LBE1521:
 2194              	.LBE1537:
 2195              	.LBE1544:
 2196              	.LBE1620:
 2197              	.LBB1621:
 2198              	.LBB1580:
 2199              	.LBB1577:
 2200              	.LBB1574:
ARM GAS  /var/folders/hl/qgbwny5j0fd895c2c41bk3tw0000gp/T//ccEG44Zu.s 			page 66


 2201              	.LBB1570:
 2202              	.LBB1566:
 2203              	.LBB1564:
  81:../../../mutable-instruments/rings/dsp/fx/fx_engine.h ****   }
 2204              		.loc 13 81 63 view .LVU456
 2205 02ac 21F819C0 		strh	ip, [r1, r9, lsl #1]	@ movhi
 2206              	.LVL109:
  81:../../../mutable-instruments/rings/dsp/fx/fx_engine.h ****   }
 2207              		.loc 13 81 63 view .LVU457
 2208              	.LBE1564:
 2209              	.LBE1566:
 2210              	.LBE1570:
 2211              	.LBE1574:
 2212              	.LBE1577:
 2213              	.LBE1580:
 2214              	.LBE1621:
 117:../../../mutable-instruments/rings/dsp/fx/reverb.h ****       c.Write(wet, 0.0f);
 2215              		.loc 12 117 7 is_stmt 1 view .LVU458
 2216              	.LBB1622:
 2217              	.LBI1518:
 183:../../../mutable-instruments/rings/dsp/fx/fx_engine.h ****       Write(d, 0, scale);
 2218              		.loc 13 183 17 view .LVU459
 2219              	.LBB1545:
 2220              	.LBI1519:
 171:../../../mutable-instruments/rings/dsp/fx/fx_engine.h ****       STATIC_ASSERT(D::base + D::length <= size, delay_memory_full);
 2221              		.loc 13 171 17 view .LVU460
 2222              	.LBB1538:
 2223              	.LBB1531:
 2224              	.LBI1521:
  79:../../../mutable-instruments/rings/dsp/fx/fx_engine.h ****     return static_cast<uint16_t>(
 2225              		.loc 13 79 19 view .LVU461
 2226              	.LBB1527:
  80:../../../mutable-instruments/rings/dsp/fx/fx_engine.h ****         stmlib::Clip16(static_cast<int32_t>(value * 32768.0f)));
 2227              		.loc 13 80 5 view .LVU462
 2228              	.LBB1523:
 2229              	.LBI1523:
 135:../../../mutable-instruments/stmlib/dsp/dsp.h ****     int32_t result;
 2230              		.loc 16 135 18 view .LVU463
 2231              	.LBB1524:
 136:../../../mutable-instruments/stmlib/dsp/dsp.h ****     __asm ("ssat %0, %1, %2" : "=r" (result) :  "I" (16), "r" (x) );
 2232              		.loc 16 136 5 view .LVU464
 137:../../../mutable-instruments/stmlib/dsp/dsp.h ****     return result;
 2233              		.loc 16 137 5 view .LVU465
 2234              	.LBE1524:
 2235              	.LBE1523:
 2236              	.LBE1527:
 2237              	.LBE1531:
 2238              	.LBE1538:
 2239              	.LBE1545:
 2240              	.LBE1622:
 2241              		.loc 12 120 21 is_stmt 0 view .LVU466
 2242 02b0 D0EE828A 		vfnms.f32	s17, s1, s4
 2243              	.LBB1623:
 2244              	.LBB1624:
 2245              	.LBB1625:
 2246              	.LBB1626:
 2247              	.LBB1627:
ARM GAS  /var/folders/hl/qgbwny5j0fd895c2c41bk3tw0000gp/T//ccEG44Zu.s 			page 67


 177:../../../mutable-instruments/rings/dsp/fx/fx_engine.h ****       }
 2248              		.loc 13 177 29 view .LVU467
 2249 02b4 42F65E19 		movw	r9, #10590
 2250              	.LBE1627:
 2251              	.LBE1626:
 2252              	.LBE1625:
 2253              	.LBE1624:
 2254              	.LBE1623:
 2255              	.LBB1650:
 2256              	.LBB1651:
 203:../../../mutable-instruments/rings/dsp/fx/fx_engine.h ****       } else {
 2257              		.loc 13 203 55 view .LVU468
 2258 02b8 43F6D03C 		movw	ip, #15312
 2259              	.LVL110:
 203:../../../mutable-instruments/rings/dsp/fx/fx_engine.h ****       } else {
 2260              		.loc 13 203 55 view .LVU469
 2261              	.LBE1651:
 2262              	.LBE1650:
 2263              	.LBB1657:
 2264              	.LBB1546:
 2265              	.LBB1539:
 2266              	.LBB1532:
 2267              	.LBB1528:
  81:../../../mutable-instruments/rings/dsp/fx/fx_engine.h ****   }
 2268              		.loc 13 81 23 view .LVU470
 2269 02bc FEEEE87A 		vcvt.s32.f32	s15, s15, #15
 2270              	.LBE1528:
 2271              	.LBE1532:
 2272              	.LBE1539:
 2273              	.LBE1546:
 2274              	.LBE1657:
 2275              	.LBB1658:
 2276              	.LBB1647:
 2277              	.LBB1644:
 2278              	.LBB1640:
 2279              	.LBB1636:
 177:../../../mutable-instruments/rings/dsp/fx/fx_engine.h ****       }
 2280              		.loc 13 177 29 view .LVU471
 2281 02c0 9944     		add	r9, r9, r3
 2282              	.LBE1636:
 2283              	.LBE1640:
 2284              	.LBE1644:
 2285              	.LBE1647:
 2286              	.LBE1658:
 2287              	.LBB1659:
 2288              	.LBB1654:
 203:../../../mutable-instruments/rings/dsp/fx/fx_engine.h ****       } else {
 2289              		.loc 13 203 55 view .LVU472
 2290 02c2 9C44     		add	ip, ip, r3
 2291              	.LBE1654:
 2292              	.LBE1659:
 2293              	.LBB1660:
 2294              	.LBB1648:
 2295              	.LBB1645:
 2296              	.LBB1641:
 2297              	.LBB1637:
 177:../../../mutable-instruments/rings/dsp/fx/fx_engine.h ****       }
ARM GAS  /var/folders/hl/qgbwny5j0fd895c2c41bk3tw0000gp/T//ccEG44Zu.s 			page 68


 2298              		.loc 13 177 49 view .LVU473
 2299 02c4 C9F30E09 		ubfx	r9, r9, #0, #15
 2300              	.LBE1637:
 2301              	.LBE1641:
 2302              	.LBE1645:
 2303              	.LBE1648:
 2304              	.LBE1660:
 2305              	.LBB1661:
 2306              	.LBB1547:
 2307              	.LBB1540:
 2308              	.LBB1533:
 2309              	.LBB1529:
  81:../../../mutable-instruments/rings/dsp/fx/fx_engine.h ****   }
 2310              		.loc 13 81 23 view .LVU474
 2311 02c8 17EE90BA 		vmov	fp, s15	@ int
 2312              	.LVL111:
  81:../../../mutable-instruments/rings/dsp/fx/fx_engine.h ****   }
 2313              		.loc 13 81 23 view .LVU475
 2314              	.LBE1529:
 2315              	.LBE1533:
 2316              	.LBE1540:
 2317              	.LBE1547:
 2318              	.LBE1661:
 2319              	.LBB1662:
 2320              	.LBB1655:
 203:../../../mutable-instruments/rings/dsp/fx/fx_engine.h ****       } else {
 2321              		.loc 13 203 60 view .LVU476
 2322 02cc CCF30E0C 		ubfx	ip, ip, #0, #15
 2323              	.LBE1655:
 2324              	.LBE1662:
 2325              	.LBB1663:
 2326              	.LBB1548:
 2327              	.LBB1541:
 2328              	.LBB1534:
 2329              	.LBB1530:
 2330              	.LBB1526:
 2331              	.LBB1525:
 137:../../../mutable-instruments/stmlib/dsp/dsp.h ****     return result;
 2332              		.loc 16 137 5 view .LVU477
 2333              		.syntax unified
 2334              	@ 137 "../../../mutable-instruments/stmlib/dsp/dsp.h" 1
 2335 02d0 0BF30F0B 		ssat fp, #16, fp
 2336              	@ 0 "" 2
 2337              	.LVL112:
 2338              		.loc 16 138 5 is_stmt 1 view .LVU478
 2339              		.loc 16 138 5 is_stmt 0 view .LVU479
 2340              		.thumb
 2341              		.syntax unified
 2342              	.LBE1525:
 2343              	.LBE1526:
  81:../../../mutable-instruments/rings/dsp/fx/fx_engine.h ****   }
 2344              		.loc 13 81 63 view .LVU480
 2345 02d4 21F817B0 		strh	fp, [r1, r7, lsl #1]	@ movhi
 2346              	.LVL113:
  81:../../../mutable-instruments/rings/dsp/fx/fx_engine.h ****   }
 2347              		.loc 13 81 63 view .LVU481
 2348              	.LBE1530:
ARM GAS  /var/folders/hl/qgbwny5j0fd895c2c41bk3tw0000gp/T//ccEG44Zu.s 			page 69


 2349              	.LBE1534:
 2350              	.LBE1541:
 2351              	.LBE1548:
 2352              	.LBE1663:
 118:../../../mutable-instruments/rings/dsp/fx/reverb.h **** 
 2353              		.loc 12 118 7 is_stmt 1 view .LVU482
 2354              		.loc 12 120 7 view .LVU483
 2355              		.loc 12 120 13 is_stmt 0 view .LVU484
 2356 02d8 E8EE831A 		vfma.f32	s3, s17, s6
 2357              	.LBB1664:
 2358              	.LBB1303:
 2359              	.LBB1275:
 2360              	.LBB1276:
  76:../../../mutable-instruments/rings/dsp/fx/fx_engine.h ****   }
 2361              		.loc 13 76 12 view .LVU485
 2362 02dc 31F91870 		ldrsh	r7, [r1, r8, lsl #1]
 2363              	.LBE1276:
 2364              	.LBE1275:
 2365              	.LBB1281:
 2366              	.LBB1282:
 2367 02e0 31F91660 		ldrsh	r6, [r1, r6, lsl #1]
 2368              	.LBE1282:
 2369              	.LBE1281:
 2370              	.LBB1286:
 2371              	.LBB1277:
 2372 02e4 00EE107A 		vmov	s0, r7	@ int
 2373              	.LBE1277:
 2374              	.LBE1286:
 2375              	.LBB1287:
 2376              	.LBB1283:
 2377 02e8 08EE106A 		vmov	s16, r6	@ int
 2378              	.LBE1283:
 2379              	.LBE1287:
 2380              	.LBE1303:
 2381              	.LBE1664:
 2382              	.LBB1665:
 2383              	.LBB1609:
 2384              	.LBB1597:
 2385              	.LBB1598:
 2386 02ec 31F91A60 		ldrsh	r6, [r1, r10, lsl #1]
 2387              	.LBE1598:
 2388              	.LBE1597:
 2389              	.LBE1609:
 2390              	.LBE1665:
 2391              	.LBB1666:
 2392              	.LBB1304:
 2393              	.LBB1288:
 2394              	.LBB1278:
 2395 02f0 B8EEC00A 		vcvt.f32.s32	s0, s0
 2396              	.LBE1278:
 2397              	.LBE1288:
 2398              	.LBB1289:
 2399              	.LBB1284:
 2400 02f4 B8EEC88A 		vcvt.f32.s32	s16, s16
 2401              	.LBE1284:
 2402              	.LBE1289:
 2403              	.LBE1304:
ARM GAS  /var/folders/hl/qgbwny5j0fd895c2c41bk3tw0000gp/T//ccEG44Zu.s 			page 70


 2404              	.LBE1666:
 2405              	.LBB1667:
 2406              	.LBB1610:
 2407              	.LBB1603:
 2408              	.LBB1599:
 2409 02f8 07EE906A 		vmov	s15, r6	@ int
 2410              	.LBE1599:
 2411              	.LBE1603:
 2412              	.LBE1610:
 2413              	.LBE1667:
 2414              		.loc 12 120 13 view .LVU486
 2415 02fc E4EC011A 		vstmia.32	r4!, {s3}
 2416              	.LVL114:
 2417              	.LBB1668:
 2418              	.LBB1669:
 2419              	.LBB1670:
 2420              	.LBB1671:
 2421              	.LBB1672:
 177:../../../mutable-instruments/rings/dsp/fx/fx_engine.h ****       }
 2422              		.loc 13 177 29 view .LVU487
 2423 0300 43F23C36 		movw	r6, #13116
 2424              	.LBE1672:
 2425              	.LBE1671:
 2426              	.LBE1670:
 2427              	.LBE1669:
 2428              	.LBE1668:
 2429              	.LBB1703:
 2430              	.LBB1305:
 2431              	.LBB1290:
 2432              	.LBB1279:
  76:../../../mutable-instruments/rings/dsp/fx/fx_engine.h ****   }
 2433              		.loc 13 76 62 view .LVU488
 2434 0304 60EE070A 		vmul.f32	s1, s0, s14
 2435              	.LVL115:
  76:../../../mutable-instruments/rings/dsp/fx/fx_engine.h ****   }
 2436              		.loc 13 76 62 view .LVU489
 2437              	.LBE1279:
 2438              	.LBE1290:
 2439              	.LBE1305:
 2440              	.LBE1703:
 121:../../../mutable-instruments/rings/dsp/fx/reverb.h **** 
 122:../../../mutable-instruments/rings/dsp/fx/reverb.h ****       c.Load(apout);
 123:../../../mutable-instruments/rings/dsp/fx/reverb.h ****       c.Interpolate(del1, 4460.0f, LFO_1, 40.0f, krt);
 124:../../../mutable-instruments/rings/dsp/fx/reverb.h ****       c.Lp(lp_2, klp);
 125:../../../mutable-instruments/rings/dsp/fx/reverb.h ****       c.Read(dap2a TAIL, kap);
 126:../../../mutable-instruments/rings/dsp/fx/reverb.h ****       c.WriteAllPass(dap2a, -kap);
 127:../../../mutable-instruments/rings/dsp/fx/reverb.h ****       c.Read(dap2b TAIL, -kap);
 128:../../../mutable-instruments/rings/dsp/fx/reverb.h ****       c.WriteAllPass(dap2b, kap);
 129:../../../mutable-instruments/rings/dsp/fx/reverb.h ****       c.Write(del2, 2.0f);
 130:../../../mutable-instruments/rings/dsp/fx/reverb.h ****       c.Write(wet, 0.0f);
 131:../../../mutable-instruments/rings/dsp/fx/reverb.h **** 
 132:../../../mutable-instruments/rings/dsp/fx/reverb.h ****       *right += (wet - *right) * amount;
 2441              		.loc 12 132 14 view .LVU490
 2442 0308 D2ED001A 		vldr.32	s3, [r2]
 2443              	.LBB1704:
 2444              	.LBB1611:
 2445              	.LBB1604:
ARM GAS  /var/folders/hl/qgbwny5j0fd895c2c41bk3tw0000gp/T//ccEG44Zu.s 			page 71


 2446              	.LBB1600:
  76:../../../mutable-instruments/rings/dsp/fx/fx_engine.h ****   }
 2447              		.loc 13 76 12 view .LVU491
 2448 030c F8EEE77A 		vcvt.f32.s32	s15, s15
 2449              	.LBE1600:
 2450              	.LBE1604:
 2451              	.LBE1611:
 2452              	.LBE1704:
 2453              	.LBB1705:
 2454              	.LBB1699:
 2455              	.LBB1695:
 2456              	.LBB1690:
 2457              	.LBB1685:
 177:../../../mutable-instruments/rings/dsp/fx/fx_engine.h ****       }
 2458              		.loc 13 177 29 view .LVU492
 2459 0310 1E44     		add	r6, r6, r3
 2460              	.LBE1685:
 2461              	.LBE1690:
 2462              	.LBE1695:
 2463              	.LBE1699:
 2464              	.LBE1705:
 2465              	.LBB1706:
 2466              	.LBB1306:
 250:../../../mutable-instruments/rings/dsp/fx/fx_engine.h ****       previous_read_ = x;
 2467              		.loc 13 250 24 view .LVU493
 2468 0312 E8EE470A 		vfms.f32	s1, s16, s14
 2469              	.LBE1306:
 2470              	.LBE1706:
 2471              	.LBB1707:
 2472              	.LBB1700:
 2473              	.LBB1696:
 2474              	.LBB1691:
 2475              	.LBB1686:
 177:../../../mutable-instruments/rings/dsp/fx/fx_engine.h ****       }
 2476              		.loc 13 177 49 view .LVU494
 2477 0316 C6F30E06 		ubfx	r6, r6, #0, #15
 2478              	.LBE1686:
 2479              	.LBE1691:
 2480              	.LBE1696:
 2481              	.LBE1700:
 2482              	.LBE1707:
 122:../../../mutable-instruments/rings/dsp/fx/reverb.h ****       c.Interpolate(del1, 4460.0f, LFO_1, 40.0f, krt);
 2483              		.loc 12 122 7 is_stmt 1 view .LVU495
 123:../../../mutable-instruments/rings/dsp/fx/reverb.h ****       c.Lp(lp_2, klp);
 2484              		.loc 12 123 7 view .LVU496
 2485              	.LVL116:
 2486              	.LBB1708:
 2487              	.LBI1273:
 241:../../../mutable-instruments/rings/dsp/fx/fx_engine.h ****         D& d, float offset, LFOIndex index, float amplitude, float scale) {
 2488              		.loc 13 241 17 view .LVU497
 2489              	.LBB1307:
 2490              	.LBB1291:
 2491              	.LBI1281:
  75:../../../mutable-instruments/rings/dsp/fx/fx_engine.h ****     return static_cast<float>(static_cast<int16_t>(value)) / 32768.0f;
 2492              		.loc 13 75 23 view .LVU498
 2493              	.LBB1285:
  76:../../../mutable-instruments/rings/dsp/fx/fx_engine.h ****   }
ARM GAS  /var/folders/hl/qgbwny5j0fd895c2c41bk3tw0000gp/T//ccEG44Zu.s 			page 72


 2494              		.loc 13 76 5 view .LVU499
  76:../../../mutable-instruments/rings/dsp/fx/fx_engine.h ****   }
 2495              		.loc 13 76 5 is_stmt 0 view .LVU500
 2496              	.LBE1285:
 2497              	.LBE1291:
 2498              	.LBB1292:
 2499              	.LBI1275:
  75:../../../mutable-instruments/rings/dsp/fx/fx_engine.h ****     return static_cast<float>(static_cast<int16_t>(value)) / 32768.0f;
 2500              		.loc 13 75 23 is_stmt 1 view .LVU501
 2501              	.LBB1280:
  76:../../../mutable-instruments/rings/dsp/fx/fx_engine.h ****   }
 2502              		.loc 13 76 5 view .LVU502
  76:../../../mutable-instruments/rings/dsp/fx/fx_engine.h ****   }
 2503              		.loc 13 76 5 is_stmt 0 view .LVU503
 2504              	.LBE1280:
 2505              	.LBE1292:
 2506              	.LBE1307:
 2507              	.LBE1708:
 2508              	.LBB1709:
 2509              	.LBB1612:
 2510              	.LBB1605:
 2511              	.LBB1601:
  76:../../../mutable-instruments/rings/dsp/fx/fx_engine.h ****   }
 2512              		.loc 13 76 62 view .LVU504
 2513 031a 67EE877A 		vmul.f32	s15, s15, s14
 2514              	.LBE1601:
 2515              	.LBE1605:
 2516              	.LBE1612:
 2517              	.LBE1709:
 2518              	.LBB1710:
 2519              	.LBB1308:
 250:../../../mutable-instruments/rings/dsp/fx/fx_engine.h ****       previous_read_ = x;
 2520              		.loc 13 250 29 view .LVU505
 2521 031e 21EE201A 		vmul.f32	s2, s2, s1
 2522              	.LVL117:
 250:../../../mutable-instruments/rings/dsp/fx/fx_engine.h ****       previous_read_ = x;
 2523              		.loc 13 250 13 view .LVU506
 2524 0322 A8EE071A 		vfma.f32	s2, s16, s14
 2525              	.LVL118:
 252:../../../mutable-instruments/rings/dsp/fx/fx_engine.h ****     }
 2526              		.loc 13 252 20 view .LVU507
 2527 0326 E3EE816A 		vfma.f32	s13, s7, s2
 2528              	.LVL119:
 252:../../../mutable-instruments/rings/dsp/fx/fx_engine.h ****     }
 2529              		.loc 13 252 20 view .LVU508
 2530              	.LBE1308:
 2531              	.LBE1710:
 124:../../../mutable-instruments/rings/dsp/fx/reverb.h ****       c.Read(dap2a TAIL, kap);
 2532              		.loc 12 124 7 is_stmt 1 view .LVU509
 2533              	.LBB1711:
 2534              	.LBI1711:
 217:../../../mutable-instruments/rings/dsp/fx/fx_engine.h ****       state += coefficient * (accumulator_ - state);
 2535              		.loc 13 217 17 view .LVU510
 2536              	.LBB1712:
 218:../../../mutable-instruments/rings/dsp/fx/fx_engine.h ****       accumulator_ = state;
 2537              		.loc 13 218 44 is_stmt 0 view .LVU511
 2538 032a 76EEC56A 		vsub.f32	s13, s13, s10
ARM GAS  /var/folders/hl/qgbwny5j0fd895c2c41bk3tw0000gp/T//ccEG44Zu.s 			page 73


 218:../../../mutable-instruments/rings/dsp/fx/fx_engine.h ****       accumulator_ = state;
 2539              		.loc 13 218 13 view .LVU512
 2540 032e A4EE265A 		vfma.f32	s10, s8, s13
 2541              	.LVL120:
 218:../../../mutable-instruments/rings/dsp/fx/fx_engine.h ****       accumulator_ = state;
 2542              		.loc 13 218 13 view .LVU513
 2543              	.LBE1712:
 2544              	.LBE1711:
 125:../../../mutable-instruments/rings/dsp/fx/reverb.h ****       c.WriteAllPass(dap2a, -kap);
 2545              		.loc 12 125 7 is_stmt 1 view .LVU514
 2546              	.LBB1713:
 2547              	.LBI1595:
 199:../../../mutable-instruments/rings/dsp/fx/fx_engine.h ****       STATIC_ASSERT(D::base + D::length <= size, delay_memory_full);
 2548              		.loc 13 199 17 view .LVU515
 2549              	.LBB1613:
 2550              	.LBB1606:
 2551              	.LBI1597:
  75:../../../mutable-instruments/rings/dsp/fx/fx_engine.h ****     return static_cast<float>(static_cast<int16_t>(value)) / 32768.0f;
 2552              		.loc 13 75 23 view .LVU516
 2553              	.LBB1602:
  76:../../../mutable-instruments/rings/dsp/fx/fx_engine.h ****   }
 2554              		.loc 13 76 5 view .LVU517
  76:../../../mutable-instruments/rings/dsp/fx/fx_engine.h ****   }
 2555              		.loc 13 76 5 is_stmt 0 view .LVU518
 2556              	.LBE1602:
 2557              	.LBE1606:
 209:../../../mutable-instruments/rings/dsp/fx/fx_engine.h ****     }
 2558              		.loc 13 209 20 view .LVU519
 2559 0332 F0EE456A 		vmov.f32	s13, s10
 2560 0336 E6EE276A 		vfma.f32	s13, s12, s15
 2561              	.LVL121:
 209:../../../mutable-instruments/rings/dsp/fx/fx_engine.h ****     }
 2562              		.loc 13 209 20 view .LVU520
 2563              	.LBE1613:
 2564              	.LBE1713:
 126:../../../mutable-instruments/rings/dsp/fx/reverb.h ****       c.Read(dap2b TAIL, -kap);
 2565              		.loc 12 126 7 is_stmt 1 view .LVU521
 2566              	.LBB1714:
 2567              	.LBI1623:
 194:../../../mutable-instruments/rings/dsp/fx/fx_engine.h ****       WriteAllPass(d, 0, scale);
 2568              		.loc 13 194 17 view .LVU522
 2569              	.LBB1649:
 2570              	.LBI1624:
 188:../../../mutable-instruments/rings/dsp/fx/fx_engine.h ****       Write(d, offset, scale);
 2571              		.loc 13 188 17 view .LVU523
 2572              	.LBB1646:
 2573              	.LBB1642:
 2574              	.LBI1626:
 171:../../../mutable-instruments/rings/dsp/fx/fx_engine.h ****       STATIC_ASSERT(D::base + D::length <= size, delay_memory_full);
 2575              		.loc 13 171 17 view .LVU524
 2576              	.LBB1638:
 2577              	.LBB1628:
 2578              	.LBI1628:
  79:../../../mutable-instruments/rings/dsp/fx/fx_engine.h ****     return static_cast<uint16_t>(
 2579              		.loc 13 79 19 view .LVU525
 2580              	.LBB1629:
  80:../../../mutable-instruments/rings/dsp/fx/fx_engine.h ****         stmlib::Clip16(static_cast<int32_t>(value * 32768.0f)));
ARM GAS  /var/folders/hl/qgbwny5j0fd895c2c41bk3tw0000gp/T//ccEG44Zu.s 			page 74


 2581              		.loc 13 80 5 view .LVU526
 2582              	.LBB1630:
 2583              	.LBI1630:
 135:../../../mutable-instruments/stmlib/dsp/dsp.h ****     int32_t result;
 2584              		.loc 16 135 18 view .LVU527
 2585              	.LBB1631:
 136:../../../mutable-instruments/stmlib/dsp/dsp.h ****     __asm ("ssat %0, %1, %2" : "=r" (result) :  "I" (16), "r" (x) );
 2586              		.loc 16 136 5 view .LVU528
 137:../../../mutable-instruments/stmlib/dsp/dsp.h ****     return result;
 2587              		.loc 16 137 5 view .LVU529
 2588              	.LBE1631:
 2589              	.LBE1630:
  81:../../../mutable-instruments/rings/dsp/fx/fx_engine.h ****   }
 2590              		.loc 13 81 23 is_stmt 0 view .LVU530
 2591 033a B0EE661A 		vmov.f32	s2, s13
 2592              	.LBE1629:
 2593              	.LBE1628:
 2594              	.LBE1638:
 2595              	.LBE1642:
 190:../../../mutable-instruments/rings/dsp/fx/fx_engine.h ****     }
 2596              		.loc 13 190 20 view .LVU531
 2597 033e E6EEA57A 		vfma.f32	s15, s13, s11
 2598              	.LVL122:
 2599              	.LBB1643:
 2600              	.LBB1639:
 2601              	.LBB1635:
 2602              	.LBB1634:
  81:../../../mutable-instruments/rings/dsp/fx/fx_engine.h ****   }
 2603              		.loc 13 81 23 view .LVU532
 2604 0342 BEEEE81A 		vcvt.s32.f32	s2, s2, #15
 2605 0346 11EE107A 		vmov	r7, s2	@ int
 2606              	.LBB1633:
 2607              	.LBB1632:
 137:../../../mutable-instruments/stmlib/dsp/dsp.h ****     return result;
 2608              		.loc 16 137 5 view .LVU533
 2609              		.syntax unified
 2610              	@ 137 "../../../mutable-instruments/stmlib/dsp/dsp.h" 1
 2611 034a 07F30F07 		ssat r7, #16, r7
 2612              	@ 0 "" 2
 2613              	.LVL123:
 2614              		.loc 16 138 5 is_stmt 1 view .LVU534
 2615              		.loc 16 138 5 is_stmt 0 view .LVU535
 2616              		.thumb
 2617              		.syntax unified
 2618              	.LBE1632:
 2619              	.LBE1633:
  81:../../../mutable-instruments/rings/dsp/fx/fx_engine.h ****   }
 2620              		.loc 13 81 63 view .LVU536
 2621 034e 21F81970 		strh	r7, [r1, r9, lsl #1]	@ movhi
 2622              	.LVL124:
  81:../../../mutable-instruments/rings/dsp/fx/fx_engine.h ****   }
 2623              		.loc 13 81 63 view .LVU537
 2624              	.LBE1634:
 2625              	.LBE1635:
 2626              	.LBE1639:
 2627              	.LBE1643:
 2628              	.LBE1646:
ARM GAS  /var/folders/hl/qgbwny5j0fd895c2c41bk3tw0000gp/T//ccEG44Zu.s 			page 75


 2629              	.LBE1649:
 2630              	.LBE1714:
 127:../../../mutable-instruments/rings/dsp/fx/reverb.h ****       c.WriteAllPass(dap2b, kap);
 2631              		.loc 12 127 7 is_stmt 1 view .LVU538
 2632              	.LBB1715:
 2633              	.LBI1650:
 199:../../../mutable-instruments/rings/dsp/fx/fx_engine.h ****       STATIC_ASSERT(D::base + D::length <= size, delay_memory_full);
 2634              		.loc 13 199 17 view .LVU539
 2635              	.LBB1656:
 2636              	.LBB1652:
 2637              	.LBI1652:
  75:../../../mutable-instruments/rings/dsp/fx/fx_engine.h ****     return static_cast<float>(static_cast<int16_t>(value)) / 32768.0f;
 2638              		.loc 13 75 23 view .LVU540
 2639              	.LBB1653:
  76:../../../mutable-instruments/rings/dsp/fx/fx_engine.h ****   }
 2640              		.loc 13 76 5 view .LVU541
  76:../../../mutable-instruments/rings/dsp/fx/fx_engine.h ****   }
 2641              		.loc 13 76 12 is_stmt 0 view .LVU542
 2642 0352 31F91C70 		ldrsh	r7, [r1, ip, lsl #1]
 2643              	.LVL125:
  76:../../../mutable-instruments/rings/dsp/fx/fx_engine.h ****   }
 2644              		.loc 13 76 12 view .LVU543
 2645 0356 06EE907A 		vmov	s13, r7	@ int
 2646 035a F8EEE66A 		vcvt.f32.s32	s13, s13
  76:../../../mutable-instruments/rings/dsp/fx/fx_engine.h ****   }
 2647              		.loc 13 76 62 view .LVU544
 2648 035e 26EE877A 		vmul.f32	s14, s13, s14
 2649              	.LVL126:
  76:../../../mutable-instruments/rings/dsp/fx/fx_engine.h ****   }
 2650              		.loc 13 76 62 view .LVU545
 2651              	.LBE1653:
 2652              	.LBE1652:
 209:../../../mutable-instruments/rings/dsp/fx/fx_engine.h ****     }
 2653              		.loc 13 209 20 view .LVU546
 2654 0362 E7EE257A 		vfma.f32	s15, s14, s11
 2655              	.LVL127:
 209:../../../mutable-instruments/rings/dsp/fx/fx_engine.h ****     }
 2656              		.loc 13 209 20 view .LVU547
 2657              	.LBE1656:
 2658              	.LBE1715:
 128:../../../mutable-instruments/rings/dsp/fx/reverb.h ****       c.Write(del2, 2.0f);
 2659              		.loc 12 128 7 is_stmt 1 view .LVU548
 2660              	.LBB1716:
 2661              	.LBI1668:
 194:../../../mutable-instruments/rings/dsp/fx/fx_engine.h ****       WriteAllPass(d, 0, scale);
 2662              		.loc 13 194 17 view .LVU549
 2663              	.LBB1701:
 2664              	.LBI1669:
 188:../../../mutable-instruments/rings/dsp/fx/fx_engine.h ****       Write(d, offset, scale);
 2665              		.loc 13 188 17 view .LVU550
 2666              	.LBB1697:
 2667              	.LBB1692:
 2668              	.LBI1671:
 171:../../../mutable-instruments/rings/dsp/fx/fx_engine.h ****       STATIC_ASSERT(D::base + D::length <= size, delay_memory_full);
 2669              		.loc 13 171 17 view .LVU551
 2670              	.LBB1687:
 2671              	.LBB1673:
ARM GAS  /var/folders/hl/qgbwny5j0fd895c2c41bk3tw0000gp/T//ccEG44Zu.s 			page 76


 2672              	.LBI1673:
  79:../../../mutable-instruments/rings/dsp/fx/fx_engine.h ****     return static_cast<uint16_t>(
 2673              		.loc 13 79 19 view .LVU552
 2674              	.LBB1674:
  80:../../../mutable-instruments/rings/dsp/fx/fx_engine.h ****         stmlib::Clip16(static_cast<int32_t>(value * 32768.0f)));
 2675              		.loc 13 80 5 view .LVU553
 2676              	.LBB1675:
 2677              	.LBI1675:
 135:../../../mutable-instruments/stmlib/dsp/dsp.h ****     int32_t result;
 2678              		.loc 16 135 18 view .LVU554
 2679              	.LBB1676:
 136:../../../mutable-instruments/stmlib/dsp/dsp.h ****     __asm ("ssat %0, %1, %2" : "=r" (result) :  "I" (16), "r" (x) );
 2680              		.loc 16 136 5 view .LVU555
 137:../../../mutable-instruments/stmlib/dsp/dsp.h ****     return result;
 2681              		.loc 16 137 5 view .LVU556
 2682              	.LBE1676:
 2683              	.LBE1675:
 2684              	.LBE1674:
 2685              	.LBE1673:
 2686              	.LBE1687:
 2687              	.LBE1692:
 190:../../../mutable-instruments/rings/dsp/fx/fx_engine.h ****     }
 2688              		.loc 13 190 20 is_stmt 0 view .LVU557
 2689 0366 A6EE277A 		vfma.f32	s14, s12, s15
 2690              	.LVL128:
 2691              	.LBB1693:
 2692              	.LBB1688:
 2693              	.LBB1683:
 2694              	.LBB1681:
  81:../../../mutable-instruments/rings/dsp/fx/fx_engine.h ****   }
 2695              		.loc 13 81 23 view .LVU558
 2696 036a FEEEE87A 		vcvt.s32.f32	s15, s15, #15
 2697              	.LVL129:
 2698              	.LBB1679:
 2699              	.LBB1677:
 137:../../../mutable-instruments/stmlib/dsp/dsp.h ****     return result;
 2700              		.loc 16 137 5 view .LVU559
 2701 036e 17EE907A 		vmov	r7, s15	@ int
 2702              	.LBE1677:
 2703              	.LBE1679:
 2704              	.LBE1681:
 2705              	.LBE1683:
 2706              	.LBE1688:
 2707              	.LBE1693:
 2708              	.LBE1697:
 2709              	.LBE1701:
 2710              	.LBE1716:
 2711              		.loc 12 132 22 view .LVU560
 2712 0372 F0EE617A 		vmov.f32	s15, s3
 2713              	.LBB1717:
 2714              	.LBB1702:
 2715              	.LBB1698:
 2716              	.LBB1694:
 2717              	.LBB1689:
 2718              	.LBB1684:
 2719              	.LBB1682:
 2720              	.LBB1680:
ARM GAS  /var/folders/hl/qgbwny5j0fd895c2c41bk3tw0000gp/T//ccEG44Zu.s 			page 77


 2721              	.LBB1678:
 137:../../../mutable-instruments/stmlib/dsp/dsp.h ****     return result;
 2722              		.loc 16 137 5 view .LVU561
 2723              		.syntax unified
 2724              	@ 137 "../../../mutable-instruments/stmlib/dsp/dsp.h" 1
 2725 0376 07F30F0C 		ssat ip, #16, r7
 2726              	@ 0 "" 2
 2727              	.LVL130:
 2728              		.loc 16 138 5 is_stmt 1 view .LVU562
 2729              		.loc 16 138 5 is_stmt 0 view .LVU563
 2730              		.thumb
 2731              		.syntax unified
 2732              	.LBE1678:
 2733              	.LBE1680:
  81:../../../mutable-instruments/rings/dsp/fx/fx_engine.h ****   }
 2734              		.loc 13 81 63 view .LVU564
 2735 037a 21F816C0 		strh	ip, [r1, r6, lsl #1]	@ movhi
 2736              	.LVL131:
  81:../../../mutable-instruments/rings/dsp/fx/fx_engine.h ****   }
 2737              		.loc 13 81 63 view .LVU565
 2738              	.LBE1682:
 2739              	.LBE1684:
 2740              	.LBE1689:
 2741              	.LBE1694:
 2742              	.LBE1698:
 2743              	.LBE1702:
 2744              	.LBE1717:
 129:../../../mutable-instruments/rings/dsp/fx/reverb.h ****       c.Write(wet, 0.0f);
 2745              		.loc 12 129 7 is_stmt 1 view .LVU566
 2746              	.LBB1718:
 2747              	.LBI1484:
 183:../../../mutable-instruments/rings/dsp/fx/fx_engine.h ****       Write(d, 0, scale);
 2748              		.loc 13 183 17 view .LVU567
 2749              	.LBB1502:
 2750              	.LBI1485:
 171:../../../mutable-instruments/rings/dsp/fx/fx_engine.h ****       STATIC_ASSERT(D::base + D::length <= size, delay_memory_full);
 2751              		.loc 13 171 17 view .LVU568
 2752              	.LBB1498:
 2753              	.LBB1487:
 2754              	.LBI1487:
  79:../../../mutable-instruments/rings/dsp/fx/fx_engine.h ****     return static_cast<uint16_t>(
 2755              		.loc 13 79 19 view .LVU569
 2756              	.LBB1488:
  80:../../../mutable-instruments/rings/dsp/fx/fx_engine.h ****         stmlib::Clip16(static_cast<int32_t>(value * 32768.0f)));
 2757              		.loc 13 80 5 view .LVU570
 2758              	.LBB1489:
 2759              	.LBI1489:
 135:../../../mutable-instruments/stmlib/dsp/dsp.h ****     int32_t result;
 2760              		.loc 16 135 18 view .LVU571
 2761              	.LBB1490:
 136:../../../mutable-instruments/stmlib/dsp/dsp.h ****     __asm ("ssat %0, %1, %2" : "=r" (result) :  "I" (16), "r" (x) );
 2762              		.loc 16 136 5 view .LVU572
 137:../../../mutable-instruments/stmlib/dsp/dsp.h ****     return result;
 2763              		.loc 16 137 5 view .LVU573
 2764              	.LBE1490:
 2765              	.LBE1489:
 2766              	.LBE1488:
ARM GAS  /var/folders/hl/qgbwny5j0fd895c2c41bk3tw0000gp/T//ccEG44Zu.s 			page 78


 2767              	.LBE1487:
 2768              	.LBE1498:
 2769              	.LBE1502:
 2770              	.LBE1718:
 2771              		.loc 12 132 22 is_stmt 0 view .LVU574
 2772 037e D7EE027A 		vfnms.f32	s15, s14, s4
 2773              	.LBB1719:
 2774              	.LBB1503:
 2775              	.LBB1499:
 2776              	.LBB1495:
 2777              	.LBB1493:
  81:../../../mutable-instruments/rings/dsp/fx/fx_engine.h ****   }
 2778              		.loc 13 81 23 view .LVU575
 2779 0382 BEEEE87A 		vcvt.s32.f32	s14, s14, #15
 2780              	.LVL132:
 2781              	.LBB1492:
 2782              	.LBB1491:
 137:../../../mutable-instruments/stmlib/dsp/dsp.h ****     return result;
 2783              		.loc 16 137 5 view .LVU576
 2784 0386 17EE106A 		vmov	r6, s14	@ int
 2785              		.syntax unified
 2786              	@ 137 "../../../mutable-instruments/stmlib/dsp/dsp.h" 1
 2787 038a 06F30F0C 		ssat ip, #16, r6
 2788              	@ 0 "" 2
 2789              	.LVL133:
 2790              		.loc 16 138 5 is_stmt 1 view .LVU577
 2791              		.loc 16 138 5 is_stmt 0 view .LVU578
 2792              		.thumb
 2793              		.syntax unified
 2794              	.LBE1491:
 2795              	.LBE1492:
 2796              	.LBE1493:
 2797              	.LBE1495:
 2798              	.LBE1499:
 2799              	.LBE1503:
 2800              	.LBE1719:
 2801              		.loc 12 132 14 view .LVU579
 2802 038e E7EE831A 		vfma.f32	s3, s15, s6
 2803              	.LBE1726:
  87:../../../mutable-instruments/rings/dsp/fx/reverb.h ****       float wet;
 2804              		.loc 12 87 16 view .LVU580
 2805 0392 6E1C     		adds	r6, r5, #1
 2806              	.LBB1727:
 2807              	.LBB1720:
 2808              	.LBB1504:
 2809              	.LBB1500:
 2810              	.LBB1496:
 2811              	.LBB1494:
  81:../../../mutable-instruments/rings/dsp/fx/fx_engine.h ****   }
 2812              		.loc 13 81 63 view .LVU581
 2813 0394 21F81EC0 		strh	ip, [r1, lr, lsl #1]	@ movhi
 2814              	.LVL134:
  81:../../../mutable-instruments/rings/dsp/fx/fx_engine.h ****   }
 2815              		.loc 13 81 63 view .LVU582
 2816              	.LBE1494:
 2817              	.LBE1496:
 2818              	.LBE1500:
ARM GAS  /var/folders/hl/qgbwny5j0fd895c2c41bk3tw0000gp/T//ccEG44Zu.s 			page 79


 2819              	.LBE1504:
 2820              	.LBE1720:
 130:../../../mutable-instruments/rings/dsp/fx/reverb.h **** 
 2821              		.loc 12 130 7 is_stmt 1 view .LVU583
 2822              		.loc 12 132 7 view .LVU584
 2823              		.loc 12 132 14 is_stmt 0 view .LVU585
 2824 0398 E2EC011A 		vstmia.32	r2!, {s3}
 2825              	.LVL135:
 133:../../../mutable-instruments/rings/dsp/fx/reverb.h ****       
 134:../../../mutable-instruments/rings/dsp/fx/reverb.h ****       ++left;
 2826              		.loc 12 134 7 is_stmt 1 view .LVU586
 135:../../../mutable-instruments/rings/dsp/fx/reverb.h ****       ++right;
 2827              		.loc 12 135 7 view .LVU587
 2828              		.loc 12 135 7 is_stmt 0 view .LVU588
 2829              	.LBE1727:
  87:../../../mutable-instruments/rings/dsp/fx/reverb.h ****       float wet;
 2830              		.loc 12 87 5 is_stmt 1 view .LVU589
  87:../../../mutable-instruments/rings/dsp/fx/reverb.h ****       float wet;
 2831              		.loc 12 87 16 view .LVU590
  87:../../../mutable-instruments/rings/dsp/fx/reverb.h ****       float wet;
 2832              		.loc 12 87 16 is_stmt 0 view .LVU591
 2833 039c 16D0     		beq	.L37
 2834              	.LVL136:
 2835              	.L28:
 2836              	.LBB1728:
  88:../../../mutable-instruments/rings/dsp/fx/reverb.h ****       float apout = 0.0f;
 2837              		.loc 12 88 7 is_stmt 1 view .LVU592
  89:../../../mutable-instruments/rings/dsp/fx/reverb.h ****       engine_.Start(&c);
 2838              		.loc 12 89 7 view .LVU593
  90:../../../mutable-instruments/rings/dsp/fx/reverb.h ****       
 2839              		.loc 12 90 7 view .LVU594
 2840              	.LBB1721:
 2841              	.LBI1088:
 269:../../../mutable-instruments/rings/dsp/fx/fx_engine.h ****     --write_ptr_;
 2842              		.loc 13 269 15 view .LVU595
 2843              	.LBB1125:
 271:../../../mutable-instruments/rings/dsp/fx/fx_engine.h ****       write_ptr_ += size;
 2844              		.loc 13 271 5 is_stmt 0 view .LVU596
 2845 039e 5E1E     		subs	r6, r3, #1
 2846 03a0 0FD4     		bmi	.L24
 271:../../../mutable-instruments/rings/dsp/fx/fx_engine.h ****       write_ptr_ += size;
 2847              		.loc 13 271 5 view .LVU597
 2848              	.LBE1125:
 2849              	.LBE1721:
 2850              	.LBB1722:
 2851              	.LBB1205:
 2852              	.LBB1201:
 2853              	.LBB1197:
 2854              	.LBB1192:
 177:../../../mutable-instruments/rings/dsp/fx/fx_engine.h ****       }
 2855              		.loc 13 177 49 view .LVU598
 2856 03a2 3346     		mov	r3, r6
 2857 03a4 B646     		mov	lr, r6
 2858              	.L25:
 2859              	.LBE1192:
 2860              	.LBE1197:
 2861              	.LBE1201:
ARM GAS  /var/folders/hl/qgbwny5j0fd895c2c41bk3tw0000gp/T//ccEG44Zu.s 			page 80


 2862              	.LBE1205:
 2863              	.LBE1722:
 2864              	.LBB1723:
 2865              	.LBB1126:
 277:../../../mutable-instruments/rings/dsp/fx/fx_engine.h ****     c->write_ptr_ = write_ptr_;
 278:../../../mutable-instruments/rings/dsp/fx/fx_engine.h ****     if ((write_ptr_ & 31) == 0) {
 2866              		.loc 13 278 5 view .LVU599
 2867 03a6 DF06     		lsls	r7, r3, #27
 2868 03a8 3FF446AE 		beq	.L38
 2869              	.LVL137:
 2870              	.LBB1116:
 2871              	.LBI1116:
  81:../../../mutable-instruments/stmlib/dsp/cosine_oscillator.h ****     return y1_ + 0.5f;
 2872              		.loc 15 81 16 is_stmt 1 view .LVU600
 2873              	.LBB1117:
  82:../../../mutable-instruments/stmlib/dsp/cosine_oscillator.h ****   }
 2874              		.loc 15 82 5 view .LVU601
  82:../../../mutable-instruments/stmlib/dsp/cosine_oscillator.h ****   }
 2875              		.loc 15 82 18 is_stmt 0 view .LVU602
 2876 03ac F6EE007A 		vmov.f32	s15, #5.0e-1
 2877 03b0 90ED020A 		vldr.32	s0, [r0, #8]
 2878              	.LBE1117:
 2879              	.LBE1116:
 2880              	.LBB1119:
 2881              	.LBB1120:
 2882 03b4 90ED062A 		vldr.32	s4, [r0, #24]
 2883              	.LBE1120:
 2884              	.LBE1119:
 2885              	.LBB1122:
 2886              	.LBB1118:
 2887 03b8 30EE270A 		vadd.f32	s0, s0, s15
 2888              	.LVL138:
  82:../../../mutable-instruments/stmlib/dsp/cosine_oscillator.h ****   }
 2889              		.loc 15 82 18 view .LVU603
 2890              	.LBE1118:
 2891              	.LBE1122:
 2892              	.LBB1123:
 2893              	.LBI1119:
  81:../../../mutable-instruments/stmlib/dsp/cosine_oscillator.h ****     return y1_ + 0.5f;
 2894              		.loc 15 81 16 is_stmt 1 view .LVU604
 2895              	.LBB1121:
  82:../../../mutable-instruments/stmlib/dsp/cosine_oscillator.h ****   }
 2896              		.loc 15 82 5 view .LVU605
  82:../../../mutable-instruments/stmlib/dsp/cosine_oscillator.h ****   }
 2897              		.loc 15 82 18 is_stmt 0 view .LVU606
 2898 03bc 32EE272A 		vadd.f32	s4, s4, s15
 2899              	.LVL139:
  82:../../../mutable-instruments/stmlib/dsp/cosine_oscillator.h ****   }
 2900              		.loc 15 82 18 view .LVU607
 2901 03c0 58E6     		b	.L27
 2902              	.LVL140:
 2903              	.L24:
  82:../../../mutable-instruments/stmlib/dsp/cosine_oscillator.h ****   }
 2904              		.loc 15 82 18 view .LVU608
 2905              	.LBE1121:
 2906              	.LBE1123:
 272:../../../mutable-instruments/rings/dsp/fx/fx_engine.h ****     }
ARM GAS  /var/folders/hl/qgbwny5j0fd895c2c41bk3tw0000gp/T//ccEG44Zu.s 			page 81


 2907              		.loc 13 272 18 view .LVU609
 2908 03c2 03F5FF43 		add	r3, r3, #32640
 2909 03c6 7F33     		adds	r3, r3, #127
 2910 03c8 9E46     		mov	lr, r3
 2911 03ca ECE7     		b	.L25
 2912              	.LVL141:
 2913              	.L37:
 272:../../../mutable-instruments/rings/dsp/fx/fx_engine.h ****     }
 2914              		.loc 13 272 18 view .LVU610
 2915              	.LBE1126:
 2916              	.LBE1723:
 2917              	.LBE1728:
 136:../../../mutable-instruments/rings/dsp/fx/reverb.h ****     }
 137:../../../mutable-instruments/rings/dsp/fx/reverb.h ****     
 138:../../../mutable-instruments/rings/dsp/fx/reverb.h ****     lp_decay_1_ = lp_1;
 139:../../../mutable-instruments/rings/dsp/fx/reverb.h ****     lp_decay_2_ = lp_2;
 140:../../../mutable-instruments/rings/dsp/fx/reverb.h ****   }
 2918              		.loc 12 140 3 view .LVU611
 2919 03cc BDEC028B 		vldm	sp!, {d8}
 2920              		.cfi_restore 80
 2921              		.cfi_restore 81
 2922              		.cfi_def_cfa_offset 36
 2923              	.LVL142:
 2924              		.loc 12 140 3 view .LVU612
 2925 03d0 0360     		str	r3, [r0]
 138:../../../mutable-instruments/rings/dsp/fx/reverb.h ****     lp_decay_2_ = lp_2;
 2926              		.loc 12 138 5 is_stmt 1 view .LVU613
 138:../../../mutable-instruments/rings/dsp/fx/reverb.h ****     lp_decay_2_ = lp_2;
 2927              		.loc 12 138 17 is_stmt 0 view .LVU614
 2928 03d2 C0ED0F4A 		vstr.32	s9, [r0, #60]
 139:../../../mutable-instruments/rings/dsp/fx/reverb.h ****   }
 2929              		.loc 12 139 5 is_stmt 1 view .LVU615
 139:../../../mutable-instruments/rings/dsp/fx/reverb.h ****   }
 2930              		.loc 12 139 17 is_stmt 0 view .LVU616
 2931 03d6 80ED105A 		vstr.32	s10, [r0, #64]
 2932              	.LVL143:
