ARM GAS  /var/folders/hl/qgbwny5j0fd895c2c41bk3tw0000gp/T//ccEG44Zu.s 			page 1


   1              		.cpu cortex-m7
   2              		.arch armv7e-m
   3              		.fpu fpv5-d16
   4              		.eabi_attribute 28, 1
   5              		.eabi_attribute 20, 1
   6              		.eabi_attribute 21, 1
   7              		.eabi_attribute 23, 3
   8              		.eabi_attribute 24, 1
   9              		.eabi_attribute 25, 1
  10              		.eabi_attribute 26, 1
  11              		.eabi_attribute 30, 2
  12              		.eabi_attribute 34, 1
  13              		.eabi_attribute 18, 4
  14              		.file	"Interesting.cpp"
  15              		.text
  16              	.Ltext0:
  17              		.cfi_sections	.debug_frame
  18              		.section	.text._ZN5daisy6SwitchD2Ev,"axG",%progbits,_ZN5daisy6SwitchD5Ev,comdat
  19              		.align	1
  20              		.p2align 2,,3
  21              		.weak	_ZN5daisy6SwitchD2Ev
  22              		.syntax unified
  23              		.thumb
  24              		.thumb_func
  26              	_ZN5daisy6SwitchD2Ev:
  27              	.LVL0:
  28              	.LFB1606:
  29              		.file 1 "../../libDaisy//src/hid/switch.h"
   1:../../libDaisy//src/hid/switch.h **** #pragma once
   2:../../libDaisy//src/hid/switch.h **** #ifndef DSY_SWITCH_H
   3:../../libDaisy//src/hid/switch.h **** #define DSY_SWITCH_H
   4:../../libDaisy//src/hid/switch.h **** #include "daisy_core.h"
   5:../../libDaisy//src/hid/switch.h **** #include "per/gpio.h"
   6:../../libDaisy//src/hid/switch.h **** #include "sys/system.h"
   7:../../libDaisy//src/hid/switch.h **** 
   8:../../libDaisy//src/hid/switch.h **** namespace daisy
   9:../../libDaisy//src/hid/switch.h **** {
  10:../../libDaisy//src/hid/switch.h **** /** 
  11:../../libDaisy//src/hid/switch.h ****     Generic Class for handling momentary/latching switches \n 
  12:../../libDaisy//src/hid/switch.h ****     Inspired/influenced by Mutable Instruments (pichenettes) Switch classes
  13:../../libDaisy//src/hid/switch.h ****     @author Stephen Hensley
  14:../../libDaisy//src/hid/switch.h ****     @date December 2019
  15:../../libDaisy//src/hid/switch.h ****     @ingroup controls
  16:../../libDaisy//src/hid/switch.h **** */
  17:../../libDaisy//src/hid/switch.h **** class Switch
  18:../../libDaisy//src/hid/switch.h **** {
  19:../../libDaisy//src/hid/switch.h ****   public:
  20:../../libDaisy//src/hid/switch.h ****     /** Specifies the expected behavior of the switch */
  21:../../libDaisy//src/hid/switch.h ****     enum Type
  22:../../libDaisy//src/hid/switch.h ****     {
  23:../../libDaisy//src/hid/switch.h ****         TYPE_TOGGLE,    /**< & */
  24:../../libDaisy//src/hid/switch.h ****         TYPE_MOMENTARY, /**< & */
  25:../../libDaisy//src/hid/switch.h ****     };
  26:../../libDaisy//src/hid/switch.h ****     /** Specifies whether the pressed is HIGH or LOW. */
  27:../../libDaisy//src/hid/switch.h ****     enum Polarity
  28:../../libDaisy//src/hid/switch.h ****     {
  29:../../libDaisy//src/hid/switch.h ****         POLARITY_NORMAL,   /**< & */
ARM GAS  /var/folders/hl/qgbwny5j0fd895c2c41bk3tw0000gp/T//ccEG44Zu.s 			page 2


  30:../../libDaisy//src/hid/switch.h ****         POLARITY_INVERTED, /**< & */
  31:../../libDaisy//src/hid/switch.h ****     };
  32:../../libDaisy//src/hid/switch.h **** 
  33:../../libDaisy//src/hid/switch.h ****     /** Specifies whether to use built-in Pull Up/Down resistors to hold button at a given state wh
  34:../../libDaisy//src/hid/switch.h ****     enum Pull
  35:../../libDaisy//src/hid/switch.h ****     {
  36:../../libDaisy//src/hid/switch.h ****         PULL_UP,   /**< & */
  37:../../libDaisy//src/hid/switch.h ****         PULL_DOWN, /**< & */
  38:../../libDaisy//src/hid/switch.h ****         PULL_NONE, /**< & */
  39:../../libDaisy//src/hid/switch.h ****     };
  40:../../libDaisy//src/hid/switch.h **** 
  41:../../libDaisy//src/hid/switch.h ****     Switch() {}
  42:../../libDaisy//src/hid/switch.h ****     ~Switch() {}
  30              		.loc 1 42 5 view -0
  31              		.cfi_startproc
  32              		@ args = 0, pretend = 0, frame = 0
  33              		@ frame_needed = 0, uses_anonymous_args = 0
  34              		@ link register save eliminated.
  35              		.loc 1 42 16 is_stmt 0 view .LVU1
  36 0000 7047     		bx	lr
  37              		.cfi_endproc
  38              	.LFE1606:
  40              		.weak	_ZN5daisy6SwitchD1Ev
  41              		.thumb_set _ZN5daisy6SwitchD1Ev,_ZN5daisy6SwitchD2Ev
  42 0002 00BF     		.section	.text._ZN5daisy8patch_sm12DaisyPatchSMD2Ev,"axG",%progbits,_ZN5daisy8patch_sm12DaisyPatch
  43              		.align	1
  44              		.p2align 2,,3
  45              		.weak	_ZN5daisy8patch_sm12DaisyPatchSMD2Ev
  46              		.syntax unified
  47              		.thumb
  48              		.thumb_func
  50              	_ZN5daisy8patch_sm12DaisyPatchSMD2Ev:
  51              	.LVL1:
  52              	.LFB2529:
  53              		.file 2 "../../libDaisy//src/daisy_patch_sm.h"
   1:../../libDaisy//src/daisy_patch_sm.h **** #pragma once
   2:../../libDaisy//src/daisy_patch_sm.h **** 
   3:../../libDaisy//src/daisy_patch_sm.h **** #include "daisy.h"
   4:../../libDaisy//src/daisy_patch_sm.h **** 
   5:../../libDaisy//src/daisy_patch_sm.h **** namespace daisy
   6:../../libDaisy//src/daisy_patch_sm.h **** {
   7:../../libDaisy//src/daisy_patch_sm.h **** namespace patch_sm
   8:../../libDaisy//src/daisy_patch_sm.h **** {
   9:../../libDaisy//src/daisy_patch_sm.h ****     /** Accessors for the Analog Controls. 
  10:../../libDaisy//src/daisy_patch_sm.h ****      *  These cover the 8x Bipolar CV inputs
  11:../../libDaisy//src/daisy_patch_sm.h ****      *  as well as the 4x 0-3V3 ADC inputs on
  12:../../libDaisy//src/daisy_patch_sm.h ****      *  the hardware 
  13:../../libDaisy//src/daisy_patch_sm.h ****      * 
  14:../../libDaisy//src/daisy_patch_sm.h ****      *  When reading a value with DaisyPatchSM::GetAdcValue()
  15:../../libDaisy//src/daisy_patch_sm.h ****      * 
  16:../../libDaisy//src/daisy_patch_sm.h ****      *  patch.GetAdcValue(patch_sm::CV_1);
  17:../../libDaisy//src/daisy_patch_sm.h ****      */
  18:../../libDaisy//src/daisy_patch_sm.h ****     enum
  19:../../libDaisy//src/daisy_patch_sm.h ****     {
  20:../../libDaisy//src/daisy_patch_sm.h ****         CV_1 = 0,
  21:../../libDaisy//src/daisy_patch_sm.h ****         CV_2,
  22:../../libDaisy//src/daisy_patch_sm.h ****         CV_3,
ARM GAS  /var/folders/hl/qgbwny5j0fd895c2c41bk3tw0000gp/T//ccEG44Zu.s 			page 3


  23:../../libDaisy//src/daisy_patch_sm.h ****         CV_4,
  24:../../libDaisy//src/daisy_patch_sm.h ****         CV_5,
  25:../../libDaisy//src/daisy_patch_sm.h ****         CV_6,
  26:../../libDaisy//src/daisy_patch_sm.h ****         CV_7,
  27:../../libDaisy//src/daisy_patch_sm.h ****         CV_8,
  28:../../libDaisy//src/daisy_patch_sm.h ****         ADC_9,
  29:../../libDaisy//src/daisy_patch_sm.h ****         ADC_10,
  30:../../libDaisy//src/daisy_patch_sm.h ****         ADC_11,
  31:../../libDaisy//src/daisy_patch_sm.h ****         ADC_12,
  32:../../libDaisy//src/daisy_patch_sm.h ****         ADC_LAST,
  33:../../libDaisy//src/daisy_patch_sm.h ****     };
  34:../../libDaisy//src/daisy_patch_sm.h **** 
  35:../../libDaisy//src/daisy_patch_sm.h ****     /** Enum for addressing the CV Outputs via the WriteCvOut function. */
  36:../../libDaisy//src/daisy_patch_sm.h ****     enum
  37:../../libDaisy//src/daisy_patch_sm.h ****     {
  38:../../libDaisy//src/daisy_patch_sm.h ****         CV_OUT_BOTH = 0,
  39:../../libDaisy//src/daisy_patch_sm.h ****         CV_OUT_1,
  40:../../libDaisy//src/daisy_patch_sm.h ****         CV_OUT_2,
  41:../../libDaisy//src/daisy_patch_sm.h ****     };
  42:../../libDaisy//src/daisy_patch_sm.h **** 
  43:../../libDaisy//src/daisy_patch_sm.h **** 
  44:../../libDaisy//src/daisy_patch_sm.h ****     /** @brief Board support file for DaisyPatchSM hardware
  45:../../libDaisy//src/daisy_patch_sm.h ****      *  @author shensley
  46:../../libDaisy//src/daisy_patch_sm.h ****      *  @ingroup boards
  47:../../libDaisy//src/daisy_patch_sm.h ****      * 
  48:../../libDaisy//src/daisy_patch_sm.h ****      *  Daisy Patch SM is a complete Eurorack module DSP engine.
  49:../../libDaisy//src/daisy_patch_sm.h ****      *  Based on the Daisy Seed, with circuits added for 
  50:../../libDaisy//src/daisy_patch_sm.h ****      *  interfacing directly with eurorack modular synthesizers.
  51:../../libDaisy//src/daisy_patch_sm.h ****      */
  52:../../libDaisy//src/daisy_patch_sm.h ****     class DaisyPatchSM
  53:../../libDaisy//src/daisy_patch_sm.h ****     {
  54:../../libDaisy//src/daisy_patch_sm.h ****       public:
  55:../../libDaisy//src/daisy_patch_sm.h ****         /** Helper for mapping pins, and accessing them using the `GetPin` function */
  56:../../libDaisy//src/daisy_patch_sm.h ****         enum class PinBank
  57:../../libDaisy//src/daisy_patch_sm.h ****         {
  58:../../libDaisy//src/daisy_patch_sm.h ****             A,
  59:../../libDaisy//src/daisy_patch_sm.h ****             B,
  60:../../libDaisy//src/daisy_patch_sm.h ****             C,
  61:../../libDaisy//src/daisy_patch_sm.h ****             D
  62:../../libDaisy//src/daisy_patch_sm.h ****         };
  63:../../libDaisy//src/daisy_patch_sm.h **** 
  64:../../libDaisy//src/daisy_patch_sm.h ****         DaisyPatchSM() {}
  65:../../libDaisy//src/daisy_patch_sm.h ****         ~DaisyPatchSM() {}
  54              		.loc 2 65 9 is_stmt 1 view -0
  55              		.cfi_startproc
  56              		@ args = 0, pretend = 0, frame = 0
  57              		@ frame_needed = 0, uses_anonymous_args = 0
  58              		@ link register save eliminated.
  59              	.LBB895:
  60              	.LBI895:
  61              		.file 3 "../../libDaisy//src/hid/gatein.h"
   1:../../libDaisy//src/hid/gatein.h **** #pragma once
   2:../../libDaisy//src/hid/gatein.h **** #ifndef DSY_GATEIN_H
   3:../../libDaisy//src/hid/gatein.h **** #define DSY_GATEIN_H
   4:../../libDaisy//src/hid/gatein.h **** #include "per/gpio.h"
   5:../../libDaisy//src/hid/gatein.h **** 
   6:../../libDaisy//src/hid/gatein.h **** namespace daisy
ARM GAS  /var/folders/hl/qgbwny5j0fd895c2c41bk3tw0000gp/T//ccEG44Zu.s 			page 4


   7:../../libDaisy//src/hid/gatein.h **** {
   8:../../libDaisy//src/hid/gatein.h **** /**
   9:../../libDaisy//src/hid/gatein.h ****    @brief Generic Class for handling gate inputs through GPIO.
  10:../../libDaisy//src/hid/gatein.h ****    @author Stephen Hensley
  11:../../libDaisy//src/hid/gatein.h ****    @date    March 2020
  12:../../libDaisy//src/hid/gatein.h ****    @ingroup controls
  13:../../libDaisy//src/hid/gatein.h **** */
  14:../../libDaisy//src/hid/gatein.h **** class GateIn
  15:../../libDaisy//src/hid/gatein.h **** {
  16:../../libDaisy//src/hid/gatein.h ****   public:
  17:../../libDaisy//src/hid/gatein.h ****     /** GateIn 
  18:../../libDaisy//src/hid/gatein.h ****     Constructor 
  19:../../libDaisy//src/hid/gatein.h ****     */
  20:../../libDaisy//src/hid/gatein.h ****     GateIn() {}
  21:../../libDaisy//src/hid/gatein.h ****     /** GateIn~
  22:../../libDaisy//src/hid/gatein.h ****     Destructor 
  23:../../libDaisy//src/hid/gatein.h ****     */
  24:../../libDaisy//src/hid/gatein.h ****     ~GateIn() {}
  62              		.loc 3 24 5 view .LVU3
  63              		.loc 3 24 5 is_stmt 0 view .LVU4
  64              	.LBE895:
  65              	.LBB896:
  66              	.LBI896:
  67              		.loc 3 24 5 is_stmt 1 view .LVU5
  68              		.loc 3 24 5 is_stmt 0 view .LVU6
  69              	.LBE896:
  70              	.LBB897:
  71              	.LBI897:
  72              		.file 4 "../../libDaisy//src/dev/codec_pcm3060.h"
   1:../../libDaisy//src/dev/codec_pcm3060.h **** #pragma once
   2:../../libDaisy//src/dev/codec_pcm3060.h **** #ifndef DSY_CODEC_PCM3060_H
   3:../../libDaisy//src/dev/codec_pcm3060.h **** #define DSY_CODEC_PCM3060_H
   4:../../libDaisy//src/dev/codec_pcm3060.h **** #include "per/i2c.h"
   5:../../libDaisy//src/dev/codec_pcm3060.h **** namespace daisy
   6:../../libDaisy//src/dev/codec_pcm3060.h **** {
   7:../../libDaisy//src/dev/codec_pcm3060.h **** /**
   8:../../libDaisy//src/dev/codec_pcm3060.h ****  * @brief Driver for the TI PCM3060 Audio Codec.
   9:../../libDaisy//src/dev/codec_pcm3060.h ****  * @addtogroup codec
  10:../../libDaisy//src/dev/codec_pcm3060.h ****  * 
  11:../../libDaisy//src/dev/codec_pcm3060.h ****  * For now this is a limited interface that uses I2C to communicate with the PCM3060
  12:../../libDaisy//src/dev/codec_pcm3060.h ****  * The device can also be accessed with SPI, which is not yet supported.
  13:../../libDaisy//src/dev/codec_pcm3060.h ****  * 
  14:../../libDaisy//src/dev/codec_pcm3060.h ****  * For now all registers are set to their defaults, and the Init function will 
  15:../../libDaisy//src/dev/codec_pcm3060.h ****  * perform a MRST and SRST before setting the format to 24bit LJ, and disabling 
  16:../../libDaisy//src/dev/codec_pcm3060.h ****  * power save for both the ADC and DAC.
  17:../../libDaisy//src/dev/codec_pcm3060.h ****  *
  18:../../libDaisy//src/dev/codec_pcm3060.h ****  */
  19:../../libDaisy//src/dev/codec_pcm3060.h **** class Pcm3060
  20:../../libDaisy//src/dev/codec_pcm3060.h **** {
  21:../../libDaisy//src/dev/codec_pcm3060.h ****   public:
  22:../../libDaisy//src/dev/codec_pcm3060.h ****     enum class Result
  23:../../libDaisy//src/dev/codec_pcm3060.h ****     {
  24:../../libDaisy//src/dev/codec_pcm3060.h ****         OK,
  25:../../libDaisy//src/dev/codec_pcm3060.h ****         ERR,
  26:../../libDaisy//src/dev/codec_pcm3060.h ****     };
  27:../../libDaisy//src/dev/codec_pcm3060.h **** 
  28:../../libDaisy//src/dev/codec_pcm3060.h ****     Pcm3060() {}
ARM GAS  /var/folders/hl/qgbwny5j0fd895c2c41bk3tw0000gp/T//ccEG44Zu.s 			page 5


  29:../../libDaisy//src/dev/codec_pcm3060.h ****     ~Pcm3060() {}
  73              		.loc 4 29 5 is_stmt 1 view .LVU7
  74              		.loc 4 29 5 is_stmt 0 view .LVU8
  75              	.LBE897:
  76              	.LBB898:
  77              	.LBI898:
  78              		.file 5 "../../libDaisy//src/hid/usb.h"
   1:../../libDaisy//src/hid/usb.h **** #pragma once
   2:../../libDaisy//src/hid/usb.h **** #ifndef DSY_HID_USB_H
   3:../../libDaisy//src/hid/usb.h **** #define DSY_HID_USB_H
   4:../../libDaisy//src/hid/usb.h **** #include <stdint.h>
   5:../../libDaisy//src/hid/usb.h **** #include <stdlib.h>
   6:../../libDaisy//src/hid/usb.h **** 
   7:../../libDaisy//src/hid/usb.h **** namespace daisy
   8:../../libDaisy//src/hid/usb.h **** /** @addtogroup human_interface
   9:../../libDaisy//src/hid/usb.h ****     @{
  10:../../libDaisy//src/hid/usb.h **** */
  11:../../libDaisy//src/hid/usb.h **** 
  12:../../libDaisy//src/hid/usb.h **** {
  13:../../libDaisy//src/hid/usb.h **** /** 
  14:../../libDaisy//src/hid/usb.h ****     @brief Interface for initializing and using the USB Peripherals on the daisy
  15:../../libDaisy//src/hid/usb.h ****     @author Stephen Hensley
  16:../../libDaisy//src/hid/usb.h ****     @date December 2019
  17:../../libDaisy//src/hid/usb.h **** */
  18:../../libDaisy//src/hid/usb.h **** class UsbHandle
  19:../../libDaisy//src/hid/usb.h **** {
  20:../../libDaisy//src/hid/usb.h ****   public:
  21:../../libDaisy//src/hid/usb.h ****     /** Return values for USBHandle Functions */
  22:../../libDaisy//src/hid/usb.h ****     enum class Result
  23:../../libDaisy//src/hid/usb.h ****     {
  24:../../libDaisy//src/hid/usb.h ****         OK,
  25:../../libDaisy//src/hid/usb.h ****         ERR,
  26:../../libDaisy//src/hid/usb.h ****     };
  27:../../libDaisy//src/hid/usb.h **** 
  28:../../libDaisy//src/hid/usb.h ****     /** Specified which of the two USB Peripherals to initialize. */
  29:../../libDaisy//src/hid/usb.h ****     enum UsbPeriph
  30:../../libDaisy//src/hid/usb.h ****     {
  31:../../libDaisy//src/hid/usb.h ****         FS_INTERNAL, /**< Internal pin */
  32:../../libDaisy//src/hid/usb.h ****         FS_EXTERNAL, /**< FS External D+ pin is Pin 38 (GPIO32). FS External D- pin is Pin 37 (GPIO
  33:../../libDaisy//src/hid/usb.h ****         FS_BOTH,     /**< Both */
  34:../../libDaisy//src/hid/usb.h ****     };
  35:../../libDaisy//src/hid/usb.h **** 
  36:../../libDaisy//src/hid/usb.h **** 
  37:../../libDaisy//src/hid/usb.h ****     /** Function called upon reception of a buffer */
  38:../../libDaisy//src/hid/usb.h ****     typedef void (*ReceiveCallback)(uint8_t* buff, uint32_t* len);
  39:../../libDaisy//src/hid/usb.h **** 
  40:../../libDaisy//src/hid/usb.h ****     UsbHandle() {}
  41:../../libDaisy//src/hid/usb.h **** 
  42:../../libDaisy//src/hid/usb.h ****     ~UsbHandle() {}
  79              		.loc 5 42 5 is_stmt 1 view .LVU9
  80              		.loc 5 42 5 is_stmt 0 view .LVU10
  81              	.LBE898:
  82              	.LBB899:
  83              	.LBI899:
  84              		.file 6 "../../libDaisy//src/per/adc.h"
   1:../../libDaisy//src/per/adc.h **** #pragma once
   2:../../libDaisy//src/per/adc.h **** #ifndef DSY_ADC_H
ARM GAS  /var/folders/hl/qgbwny5j0fd895c2c41bk3tw0000gp/T//ccEG44Zu.s 			page 6


   3:../../libDaisy//src/per/adc.h **** #define DSY_ADC_H /**< Macro */
   4:../../libDaisy//src/per/adc.h **** #include <stdint.h>
   5:../../libDaisy//src/per/adc.h **** #include <stdlib.h>
   6:../../libDaisy//src/per/adc.h **** #include "daisy_core.h"
   7:../../libDaisy//src/per/adc.h **** #include "per/gpio.h"
   8:../../libDaisy//src/per/adc.h **** 
   9:../../libDaisy//src/per/adc.h **** #define DSY_ADC_MAX_CHANNELS 16 /**< Maximum number of ADC channels */
  10:../../libDaisy//src/per/adc.h **** 
  11:../../libDaisy//src/per/adc.h **** namespace daisy
  12:../../libDaisy//src/per/adc.h **** {
  13:../../libDaisy//src/per/adc.h **** /** @addtogroup per_analog
  14:../../libDaisy//src/per/adc.h ****     @{
  15:../../libDaisy//src/per/adc.h **** */
  16:../../libDaisy//src/per/adc.h **** 
  17:../../libDaisy//src/per/adc.h **** /* While there may not be many configuration options here,
  18:../../libDaisy//src/per/adc.h **** using a struct like this allows us to add more configuration
  19:../../libDaisy//src/per/adc.h **** later without breaking existing functionality.
  20:../../libDaisy//src/per/adc.h **** */
  21:../../libDaisy//src/per/adc.h **** 
  22:../../libDaisy//src/per/adc.h **** /** @brief   Configuration Structure for an ADC Channel 
  23:../../libDaisy//src/per/adc.h ****  *  @details This can be used to configure a a single input, 
  24:../../libDaisy//src/per/adc.h ****  *           or a multiplexed input, allowing up to 8 inputs on 
  25:../../libDaisy//src/per/adc.h ****  *           one channel.
  26:../../libDaisy//src/per/adc.h ****  *  @note    Sharing data lines to multiple muxes _is_ possible, but
  27:../../libDaisy//src/per/adc.h ****  *           each channel sharing data lines must be set to the maximum
  28:../../libDaisy//src/per/adc.h ****  *           number of channels, even if some multiplexers have fewer
  29:../../libDaisy//src/per/adc.h ****  *           inputs connected.
  30:../../libDaisy//src/per/adc.h **** */
  31:../../libDaisy//src/per/adc.h **** struct AdcChannelConfig
  32:../../libDaisy//src/per/adc.h **** {
  33:../../libDaisy//src/per/adc.h ****     /** Which pin to use for multiplexing */
  34:../../libDaisy//src/per/adc.h ****     enum MuxPin
  35:../../libDaisy//src/per/adc.h ****     {
  36:../../libDaisy//src/per/adc.h ****         MUX_SEL_0,    /**< & */
  37:../../libDaisy//src/per/adc.h ****         MUX_SEL_1,    /**< & */
  38:../../libDaisy//src/per/adc.h ****         MUX_SEL_2,    /**< & */
  39:../../libDaisy//src/per/adc.h ****         MUX_SEL_LAST, /**< & */
  40:../../libDaisy//src/per/adc.h ****     };
  41:../../libDaisy//src/per/adc.h **** 
  42:../../libDaisy//src/per/adc.h ****     /** Initializes a single ADC pin as an ADC. 
  43:../../libDaisy//src/per/adc.h ****     \param pin Pin to init.
  44:../../libDaisy//src/per/adc.h ****      */
  45:../../libDaisy//src/per/adc.h ****     void InitSingle(dsy_gpio_pin pin);
  46:../../libDaisy//src/per/adc.h **** 
  47:../../libDaisy//src/per/adc.h ****     /** 
  48:../../libDaisy//src/per/adc.h ****     Initializes a single ADC pin as a Multiplexed ADC.
  49:../../libDaisy//src/per/adc.h ****     Requires a CD405X Multiplexer connected to the pin.
  50:../../libDaisy//src/per/adc.h ****     You only need to supply the mux pins that are required,
  51:../../libDaisy//src/per/adc.h ****     e.g. a 4052 mux would only require mux_0 and mux_1.
  52:../../libDaisy//src/per/adc.h ****     Internal Callbacks handle the pin addressing.
  53:../../libDaisy//src/per/adc.h ****     \param mux_channels must be 1-8
  54:../../libDaisy//src/per/adc.h ****     \param mux_0 First mux pin
  55:../../libDaisy//src/per/adc.h ****     \param mux_1 Second mux pin
  56:../../libDaisy//src/per/adc.h ****     \param mux_2 Third mux pin
  57:../../libDaisy//src/per/adc.h ****     \param adc_pin &
  58:../../libDaisy//src/per/adc.h ****     */
  59:../../libDaisy//src/per/adc.h ****     void InitMux(dsy_gpio_pin adc_pin,
ARM GAS  /var/folders/hl/qgbwny5j0fd895c2c41bk3tw0000gp/T//ccEG44Zu.s 			page 7


  60:../../libDaisy//src/per/adc.h ****                  size_t       mux_channels,
  61:../../libDaisy//src/per/adc.h ****                  dsy_gpio_pin mux_0,
  62:../../libDaisy//src/per/adc.h ****                  dsy_gpio_pin mux_1 = {DSY_GPIOX, 0},
  63:../../libDaisy//src/per/adc.h ****                  dsy_gpio_pin mux_2 = {DSY_GPIOX, 0});
  64:../../libDaisy//src/per/adc.h **** 
  65:../../libDaisy//src/per/adc.h ****     dsy_gpio pin_;                   /**< & */
  66:../../libDaisy//src/per/adc.h ****     dsy_gpio mux_pin_[MUX_SEL_LAST]; /**< & */
  67:../../libDaisy//src/per/adc.h ****     uint8_t  mux_channels_;          /**< & */
  68:../../libDaisy//src/per/adc.h **** };
  69:../../libDaisy//src/per/adc.h **** 
  70:../../libDaisy//src/per/adc.h **** /**
  71:../../libDaisy//src/per/adc.h ****    @brief Handler for analog to digital conversion
  72:../../libDaisy//src/per/adc.h **** */
  73:../../libDaisy//src/per/adc.h **** class AdcHandle
  74:../../libDaisy//src/per/adc.h **** {
  75:../../libDaisy//src/per/adc.h ****   public:
  76:../../libDaisy//src/per/adc.h ****     /** Supported oversampling amounts */
  77:../../libDaisy//src/per/adc.h ****     enum OverSampling
  78:../../libDaisy//src/per/adc.h ****     {
  79:../../libDaisy//src/per/adc.h ****         OVS_NONE, /**< & */
  80:../../libDaisy//src/per/adc.h ****         OVS_4,    /**< & */
  81:../../libDaisy//src/per/adc.h ****         OVS_8,    /**< & */
  82:../../libDaisy//src/per/adc.h ****         OVS_16,   /**< & */
  83:../../libDaisy//src/per/adc.h ****         OVS_32,   /**< & */
  84:../../libDaisy//src/per/adc.h ****         OVS_64,   /**< & */
  85:../../libDaisy//src/per/adc.h ****         OVS_128,  /**< & */
  86:../../libDaisy//src/per/adc.h ****         OVS_256,  /**< & */
  87:../../libDaisy//src/per/adc.h ****         OVS_512,  /**< & */
  88:../../libDaisy//src/per/adc.h ****         OVS_1024, /**< & */
  89:../../libDaisy//src/per/adc.h ****         OVS_LAST, /**< & */
  90:../../libDaisy//src/per/adc.h ****     };
  91:../../libDaisy//src/per/adc.h **** 
  92:../../libDaisy//src/per/adc.h ****     AdcHandle() {}
  93:../../libDaisy//src/per/adc.h ****     ~AdcHandle() {}
  85              		.loc 6 93 5 is_stmt 1 view .LVU11
  86              		.loc 6 93 5 is_stmt 0 view .LVU12
  87              	.LBE899:
  88              	.LBB900:
  89              	.LBI900:
  90              		.file 7 "../../libDaisy//src/hid/audio.h"
   1:../../libDaisy//src/hid/audio.h **** #ifndef DSY_AUDIO_H
   2:../../libDaisy//src/hid/audio.h **** #define DSY_AUDIO_H /**< & */
   3:../../libDaisy//src/hid/audio.h **** 
   4:../../libDaisy//src/hid/audio.h **** #include "per/sai.h"
   5:../../libDaisy//src/hid/audio.h **** 
   6:../../libDaisy//src/hid/audio.h **** namespace daisy
   7:../../libDaisy//src/hid/audio.h **** {
   8:../../libDaisy//src/hid/audio.h **** /** @brief Audio Engine Handle
   9:../../libDaisy//src/hid/audio.h ****  *  @ingroup audio 
  10:../../libDaisy//src/hid/audio.h ****  *  @details This class allows for higher level access to an audio engine.
  11:../../libDaisy//src/hid/audio.h ****  *           If you're using a SOM like the DaisySeed or DaisyPatchSM (or any 
  12:../../libDaisy//src/hid/audio.h ****  *            board that includes one of those objects) then the intialization
  13:../../libDaisy//src/hid/audio.h ****  *            is already taken  care of.
  14:../../libDaisy//src/hid/audio.h ****  *           If you're setting up your own custom hardware, or need to make changes
  15:../../libDaisy//src/hid/audio.h ****  *           you will have to take the following steps:
  16:../../libDaisy//src/hid/audio.h ****  *             1. Create and Initialize an SaiHandle or two depending on your requirements
  17:../../libDaisy//src/hid/audio.h ****  *             2. Initialize the Audio Handle with the desired settings and the Initialized SaiHand
ARM GAS  /var/folders/hl/qgbwny5j0fd895c2c41bk3tw0000gp/T//ccEG44Zu.s 			page 8


  18:../../libDaisy//src/hid/audio.h ****  *             3. If the connected codec requires special configuration or initialization, do so
  19:../../libDaisy//src/hid/audio.h ****  *             4. Write a callback method using either the AudioCallback or the InterleavingAudioCa
  20:../../libDaisy//src/hid/audio.h ****  *             5. Start the Audio using one of the StartAudio function
  21:../../libDaisy//src/hid/audio.h ****  */
  22:../../libDaisy//src/hid/audio.h **** class AudioHandle
  23:../../libDaisy//src/hid/audio.h **** {
  24:../../libDaisy//src/hid/audio.h ****   public:
  25:../../libDaisy//src/hid/audio.h ****     /** Manually configurable details about the Audio Engine */
  26:../../libDaisy//src/hid/audio.h ****     /** TODO: Figure out how to get samplerate in here. */
  27:../../libDaisy//src/hid/audio.h ****     struct Config
  28:../../libDaisy//src/hid/audio.h ****     {
  29:../../libDaisy//src/hid/audio.h ****         /** number of samples to process per callback */
  30:../../libDaisy//src/hid/audio.h ****         size_t blocksize;
  31:../../libDaisy//src/hid/audio.h **** 
  32:../../libDaisy//src/hid/audio.h ****         /**< Sample rate of audio */
  33:../../libDaisy//src/hid/audio.h ****         SaiHandle::Config::SampleRate samplerate;
  34:../../libDaisy//src/hid/audio.h **** 
  35:../../libDaisy//src/hid/audio.h ****         /** factor for adjustment before and after callback for hardware that may have extra headro
  36:../../libDaisy//src/hid/audio.h ****         float postgain;
  37:../../libDaisy//src/hid/audio.h **** 
  38:../../libDaisy//src/hid/audio.h ****         /** factor for additional one-sided compensation to audio path for hardware that may
  39:../../libDaisy//src/hid/audio.h ****          *  have unequal input/output ranges
  40:../../libDaisy//src/hid/audio.h ****          */
  41:../../libDaisy//src/hid/audio.h ****         float output_compensation;
  42:../../libDaisy//src/hid/audio.h **** 
  43:../../libDaisy//src/hid/audio.h ****         /** Sets default values for config struct */
  44:../../libDaisy//src/hid/audio.h ****         Config()
  45:../../libDaisy//src/hid/audio.h ****         : blocksize(48),
  46:../../libDaisy//src/hid/audio.h ****           samplerate(SaiHandle::Config::SampleRate::SAI_48KHZ),
  47:../../libDaisy//src/hid/audio.h ****           postgain(1.f),
  48:../../libDaisy//src/hid/audio.h ****           output_compensation(1.f)
  49:../../libDaisy//src/hid/audio.h ****         {
  50:../../libDaisy//src/hid/audio.h ****         }
  51:../../libDaisy//src/hid/audio.h ****     };
  52:../../libDaisy//src/hid/audio.h **** 
  53:../../libDaisy//src/hid/audio.h ****     enum class Result
  54:../../libDaisy//src/hid/audio.h ****     {
  55:../../libDaisy//src/hid/audio.h ****         OK,
  56:../../libDaisy//src/hid/audio.h ****         ERR,
  57:../../libDaisy//src/hid/audio.h ****     };
  58:../../libDaisy//src/hid/audio.h **** 
  59:../../libDaisy//src/hid/audio.h ****     /** Non-Interleaving input buffer
  60:../../libDaisy//src/hid/audio.h ****      * Buffer arranged by float[chn][sample] 
  61:../../libDaisy//src/hid/audio.h ****      * const so that the user can't modify the input
  62:../../libDaisy//src/hid/audio.h ****      */
  63:../../libDaisy//src/hid/audio.h ****     typedef const float* const* InputBuffer;
  64:../../libDaisy//src/hid/audio.h **** 
  65:../../libDaisy//src/hid/audio.h ****     /** Non-Interleaving output buffer
  66:../../libDaisy//src/hid/audio.h ****      * Arranged by float[chn][sample] 
  67:../../libDaisy//src/hid/audio.h ****      */
  68:../../libDaisy//src/hid/audio.h ****     typedef float** OutputBuffer;
  69:../../libDaisy//src/hid/audio.h **** 
  70:../../libDaisy//src/hid/audio.h ****     /** Type for a Non-Interleaving audio callback 
  71:../../libDaisy//src/hid/audio.h ****      * Non-Interleaving audio callbacks in daisy will be of this type
  72:../../libDaisy//src/hid/audio.h ****      */
  73:../../libDaisy//src/hid/audio.h ****     typedef void (*AudioCallback)(InputBuffer  in,
  74:../../libDaisy//src/hid/audio.h ****                                   OutputBuffer out,
ARM GAS  /var/folders/hl/qgbwny5j0fd895c2c41bk3tw0000gp/T//ccEG44Zu.s 			page 9


  75:../../libDaisy//src/hid/audio.h ****                                   size_t       size);
  76:../../libDaisy//src/hid/audio.h **** 
  77:../../libDaisy//src/hid/audio.h ****     /** Interleaving Input buffer
  78:../../libDaisy//src/hid/audio.h ****      ** audio is prepared as { L0, R0, L1, R1, . . . LN, RN }]
  79:../../libDaisy//src/hid/audio.h ****      ** this is const, as the user shouldn't modify it
  80:../../libDaisy//src/hid/audio.h ****     */
  81:../../libDaisy//src/hid/audio.h ****     typedef const float* InterleavingInputBuffer;
  82:../../libDaisy//src/hid/audio.h **** 
  83:../../libDaisy//src/hid/audio.h ****     /** Interleaving Output buffer 
  84:../../libDaisy//src/hid/audio.h ****      ** audio is prepared as { L0, R0, L1, R1, . . . LN, RN }
  85:../../libDaisy//src/hid/audio.h ****     */
  86:../../libDaisy//src/hid/audio.h ****     typedef float* InterleavingOutputBuffer;
  87:../../libDaisy//src/hid/audio.h **** 
  88:../../libDaisy//src/hid/audio.h ****     /** Interleaving Audio Callback 
  89:../../libDaisy//src/hid/audio.h ****      * Interleaving audio callbacks in daisy must be of this type
  90:../../libDaisy//src/hid/audio.h ****      */
  91:../../libDaisy//src/hid/audio.h ****     typedef void (*InterleavingAudioCallback)(InterleavingInputBuffer  in,
  92:../../libDaisy//src/hid/audio.h ****                                               InterleavingOutputBuffer out,
  93:../../libDaisy//src/hid/audio.h ****                                               size_t                   size);
  94:../../libDaisy//src/hid/audio.h **** 
  95:../../libDaisy//src/hid/audio.h ****     AudioHandle() : pimpl_(nullptr) {}
  96:../../libDaisy//src/hid/audio.h ****     ~AudioHandle() {}
  91              		.loc 7 96 5 is_stmt 1 view .LVU13
  92              		.loc 7 96 5 is_stmt 0 view .LVU14
  93              	.LBE900:
  94              	.LBB901:
  95              	.LBI901:
  96              		.file 8 "../../libDaisy//src/sys/system.h"
   1:../../libDaisy//src/sys/system.h **** #ifndef DSY_SYSTEM_H
   2:../../libDaisy//src/sys/system.h **** #define DSY_SYSTEM_H
   3:../../libDaisy//src/sys/system.h **** 
   4:../../libDaisy//src/sys/system.h **** #ifndef UNIT_TEST // for unit tests, a dummy implementation is provided below
   5:../../libDaisy//src/sys/system.h **** 
   6:../../libDaisy//src/sys/system.h **** #include <cstdint>
   7:../../libDaisy//src/sys/system.h **** #include "per/tim.h"
   8:../../libDaisy//src/sys/system.h **** 
   9:../../libDaisy//src/sys/system.h **** namespace daisy
  10:../../libDaisy//src/sys/system.h **** {
  11:../../libDaisy//src/sys/system.h **** /** A handle for interacting with the Core System. 
  12:../../libDaisy//src/sys/system.h ****  ** This includes the Clock tree, MPU, global DMA initialization,
  13:../../libDaisy//src/sys/system.h ****  ** cache handling, and any other necessary global initiailzation
  14:../../libDaisy//src/sys/system.h ****  **
  15:../../libDaisy//src/sys/system.h ****  ** @author shensley
  16:../../libDaisy//src/sys/system.h ****  ** @ingroup system
  17:../../libDaisy//src/sys/system.h ****  */
  18:../../libDaisy//src/sys/system.h **** class System
  19:../../libDaisy//src/sys/system.h **** {
  20:../../libDaisy//src/sys/system.h ****   public:
  21:../../libDaisy//src/sys/system.h ****     /** Contains settings for initializing the System */
  22:../../libDaisy//src/sys/system.h ****     struct Config
  23:../../libDaisy//src/sys/system.h ****     {
  24:../../libDaisy//src/sys/system.h ****         /** Specifies the system clock frequency that feeds APB/AHB clocks, etc. */
  25:../../libDaisy//src/sys/system.h ****         enum class SysClkFreq
  26:../../libDaisy//src/sys/system.h ****         {
  27:../../libDaisy//src/sys/system.h ****             FREQ_400MHZ,
  28:../../libDaisy//src/sys/system.h ****             FREQ_480MHZ,
  29:../../libDaisy//src/sys/system.h ****         };
ARM GAS  /var/folders/hl/qgbwny5j0fd895c2c41bk3tw0000gp/T//ccEG44Zu.s 			page 10


  30:../../libDaisy//src/sys/system.h **** 
  31:../../libDaisy//src/sys/system.h ****         /** Method to call on the struct to set to defaults
  32:../../libDaisy//src/sys/system.h ****          ** CPU Freq set to 400MHz
  33:../../libDaisy//src/sys/system.h ****          ** Cache Enabled 
  34:../../libDaisy//src/sys/system.h ****          ** */
  35:../../libDaisy//src/sys/system.h ****         void Defaults()
  36:../../libDaisy//src/sys/system.h ****         {
  37:../../libDaisy//src/sys/system.h ****             cpu_freq    = SysClkFreq::FREQ_400MHZ;
  38:../../libDaisy//src/sys/system.h ****             use_dcache  = true;
  39:../../libDaisy//src/sys/system.h ****             use_icache  = true;
  40:../../libDaisy//src/sys/system.h ****             skip_clocks = false;
  41:../../libDaisy//src/sys/system.h ****         }
  42:../../libDaisy//src/sys/system.h **** 
  43:../../libDaisy//src/sys/system.h ****         /** Method to call on the struct to set to boost mode:
  44:../../libDaisy//src/sys/system.h ****          ** CPU Freq set to 480MHz
  45:../../libDaisy//src/sys/system.h ****          ** Cache Enabled 
  46:../../libDaisy//src/sys/system.h ****          ** */
  47:../../libDaisy//src/sys/system.h ****         void Boost()
  48:../../libDaisy//src/sys/system.h ****         {
  49:../../libDaisy//src/sys/system.h ****             cpu_freq    = SysClkFreq::FREQ_480MHZ;
  50:../../libDaisy//src/sys/system.h ****             use_dcache  = true;
  51:../../libDaisy//src/sys/system.h ****             use_icache  = true;
  52:../../libDaisy//src/sys/system.h ****             skip_clocks = false;
  53:../../libDaisy//src/sys/system.h ****         }
  54:../../libDaisy//src/sys/system.h **** 
  55:../../libDaisy//src/sys/system.h ****         SysClkFreq cpu_freq;
  56:../../libDaisy//src/sys/system.h ****         bool       use_dcache;
  57:../../libDaisy//src/sys/system.h ****         bool       use_icache;
  58:../../libDaisy//src/sys/system.h ****         bool       skip_clocks;
  59:../../libDaisy//src/sys/system.h ****     };
  60:../../libDaisy//src/sys/system.h **** 
  61:../../libDaisy//src/sys/system.h ****     /** Describes the different regions of memory available to the Daisy
  62:../../libDaisy//src/sys/system.h ****      * 
  63:../../libDaisy//src/sys/system.h ****      */
  64:../../libDaisy//src/sys/system.h ****     enum MemoryRegion
  65:../../libDaisy//src/sys/system.h ****     {
  66:../../libDaisy//src/sys/system.h ****         INTERNAL_FLASH = 0,
  67:../../libDaisy//src/sys/system.h ****         ITCMRAM,
  68:../../libDaisy//src/sys/system.h ****         DTCMRAM,
  69:../../libDaisy//src/sys/system.h ****         SRAM_D1,
  70:../../libDaisy//src/sys/system.h ****         SRAM_D2,
  71:../../libDaisy//src/sys/system.h ****         SRAM_D3,
  72:../../libDaisy//src/sys/system.h ****         SDRAM,
  73:../../libDaisy//src/sys/system.h ****         QSPI,
  74:../../libDaisy//src/sys/system.h ****         INVALID_ADDRESS,
  75:../../libDaisy//src/sys/system.h ****     };
  76:../../libDaisy//src/sys/system.h **** 
  77:../../libDaisy//src/sys/system.h ****     System() {}
  78:../../libDaisy//src/sys/system.h ****     ~System() {}
  97              		.loc 8 78 5 is_stmt 1 view .LVU15
  98              		.loc 8 78 5 is_stmt 0 view .LVU16
  99              	.LBE901:
 100              		.loc 2 65 26 view .LVU17
 101 0000 7047     		bx	lr
 102              		.cfi_endproc
 103              	.LFE2529:
 105              		.weak	_ZN5daisy8patch_sm12DaisyPatchSMD1Ev
ARM GAS  /var/folders/hl/qgbwny5j0fd895c2c41bk3tw0000gp/T//ccEG44Zu.s 			page 11


 106              		.thumb_set _ZN5daisy8patch_sm12DaisyPatchSMD1Ev,_ZN5daisy8patch_sm12DaisyPatchSMD2Ev
 107 0002 00BF     		.section	.text._ZN20InterestingProcessorILj48000EED2Ev,"axG",%progbits,_ZN20InterestingProcessorIL
 108              		.align	1
 109              		.p2align 2,,3
 110              		.weak	_ZN20InterestingProcessorILj48000EED2Ev
 111              		.syntax unified
 112              		.thumb
 113              		.thumb_func
 115              	_ZN20InterestingProcessorILj48000EED2Ev:
 116              	.LVL2:
 117              	.LFB6062:
 118              		.file 9 "processor.h"
   1:processor.h   **** // Using tips learned from radicalTeapot at https://github.com/RadicalTeapot/DaisyGrains/blob/main/
   2:processor.h   **** // this class will mostly be used as a "circular buffer" to run a constaint capture loop on the inp
   3:processor.h   **** 
   4:processor.h   **** #pragma once 
   5:processor.h   **** #include "daisy.h"
   6:processor.h   **** #include "daisysp.h"
   7:processor.h   **** 
   8:processor.h   **** using namespace daisy;
   9:processor.h   **** using namespace daisysp;
  10:processor.h   **** 
  11:processor.h   **** template <size_t BufferSize>
  12:processor.h   **** class InterestingProcessor {
 119              		.loc 9 12 7 is_stmt 1 view -0
 120              		.cfi_startproc
 121              		@ args = 0, pretend = 0, frame = 0
 122              		@ frame_needed = 0, uses_anonymous_args = 0
 123              		@ link register save eliminated.
 124              	.LBB902:
 125              	.LBI902:
 126              		.file 10 "../../DaisySP//Source/Utility/dcblock.h"
   1:../../DaisySP//Source/Utility/dcblock.h **** 
   2:../../DaisySP//Source/Utility/dcblock.h **** #pragma once
   3:../../DaisySP//Source/Utility/dcblock.h **** #ifndef DSY_DCBLOCK_H
   4:../../DaisySP//Source/Utility/dcblock.h **** #define DSY_DCBLOCK_H
   5:../../DaisySP//Source/Utility/dcblock.h **** #ifdef __cplusplus
   6:../../DaisySP//Source/Utility/dcblock.h **** 
   7:../../DaisySP//Source/Utility/dcblock.h **** namespace daisysp
   8:../../DaisySP//Source/Utility/dcblock.h **** {
   9:../../DaisySP//Source/Utility/dcblock.h **** /** Removes DC component of a signal
  10:../../DaisySP//Source/Utility/dcblock.h ****     */
  11:../../DaisySP//Source/Utility/dcblock.h **** class DcBlock
  12:../../DaisySP//Source/Utility/dcblock.h **** {
  13:../../DaisySP//Source/Utility/dcblock.h ****   public:
  14:../../DaisySP//Source/Utility/dcblock.h ****     DcBlock(){};
  15:../../DaisySP//Source/Utility/dcblock.h ****     ~DcBlock(){};
 127              		.loc 10 15 5 view .LVU19
 128              		.loc 10 15 5 is_stmt 0 view .LVU20
 129              	.LBE902:
 130              		.loc 9 12 7 view .LVU21
 131 0000 7047     		bx	lr
 132              		.cfi_endproc
 133              	.LFE6062:
 135              		.weak	_ZN20InterestingProcessorILj48000EED1Ev
 136              		.thumb_set _ZN20InterestingProcessorILj48000EED1Ev,_ZN20InterestingProcessorILj48000EED2Ev
 137 0002 00BF     		.section	.text._ZN15EffectsHandlingD2Ev,"axG",%progbits,_ZN15EffectsHandlingD5Ev,comdat
ARM GAS  /var/folders/hl/qgbwny5j0fd895c2c41bk3tw0000gp/T//ccEG44Zu.s 			page 12


 138              		.align	1
 139              		.p2align 2,,3
 140              		.weak	_ZN15EffectsHandlingD2Ev
 141              		.syntax unified
 142              		.thumb
 143              		.thumb_func
 145              	_ZN15EffectsHandlingD2Ev:
 146              	.LVL3:
 147              	.LFB6065:
 148              		.file 11 "effects_handling.h"
   1:effects_handling.h **** // reverb implementation from https://github.com/erwincoumans/DaisyCloudSeed
   2:effects_handling.h **** 
   3:effects_handling.h **** #pragma once
   4:effects_handling.h **** #include "daisy_patch_sm.h"
   5:effects_handling.h **** #include "daisysp.h"
   6:effects_handling.h **** #include "rings/dsp/fx/reverb.h"
   7:effects_handling.h **** #include "clouds/dsp/granular_processor.h"
   8:effects_handling.h **** #include "clouds/dsp/frame.h"
   9:effects_handling.h **** 
  10:effects_handling.h **** using namespace rings;
  11:effects_handling.h **** using namespace clouds;
  12:effects_handling.h **** 
  13:effects_handling.h **** class EffectsHandling
 149              		.loc 11 13 7 is_stmt 1 view -0
 150              		.cfi_startproc
 151              		@ args = 0, pretend = 0, frame = 0
 152              		@ frame_needed = 0, uses_anonymous_args = 0
 153              		@ link register save eliminated.
 154              	.LBB903:
 155              	.LBI903:
 156              		.file 12 "../../../mutable-instruments/rings/dsp/fx/reverb.h"
   1:../../../mutable-instruments/rings/dsp/fx/reverb.h **** // Copyright 2014 Emilie Gillet.
   2:../../../mutable-instruments/rings/dsp/fx/reverb.h **** //
   3:../../../mutable-instruments/rings/dsp/fx/reverb.h **** // Author: Emilie Gillet (emilie.o.gillet@gmail.com)
   4:../../../mutable-instruments/rings/dsp/fx/reverb.h **** //
   5:../../../mutable-instruments/rings/dsp/fx/reverb.h **** // Permission is hereby granted, free of charge, to any person obtaining a copy
   6:../../../mutable-instruments/rings/dsp/fx/reverb.h **** // of this software and associated documentation files (the "Software"), to deal
   7:../../../mutable-instruments/rings/dsp/fx/reverb.h **** // in the Software without restriction, including without limitation the rights
   8:../../../mutable-instruments/rings/dsp/fx/reverb.h **** // to use, copy, modify, merge, publish, distribute, sublicense, and/or sell
   9:../../../mutable-instruments/rings/dsp/fx/reverb.h **** // copies of the Software, and to permit persons to whom the Software is
  10:../../../mutable-instruments/rings/dsp/fx/reverb.h **** // furnished to do so, subject to the following conditions:
  11:../../../mutable-instruments/rings/dsp/fx/reverb.h **** // 
  12:../../../mutable-instruments/rings/dsp/fx/reverb.h **** // The above copyright notice and this permission notice shall be included in
  13:../../../mutable-instruments/rings/dsp/fx/reverb.h **** // all copies or substantial portions of the Software.
  14:../../../mutable-instruments/rings/dsp/fx/reverb.h **** // 
  15:../../../mutable-instruments/rings/dsp/fx/reverb.h **** // THE SOFTWARE IS PROVIDED "AS IS", WITHOUT WARRANTY OF ANY KIND, EXPRESS OR
  16:../../../mutable-instruments/rings/dsp/fx/reverb.h **** // IMPLIED, INCLUDING BUT NOT LIMITED TO THE WARRANTIES OF MERCHANTABILITY,
  17:../../../mutable-instruments/rings/dsp/fx/reverb.h **** // FITNESS FOR A PARTICULAR PURPOSE AND NONINFRINGEMENT. IN NO EVENT SHALL THE
  18:../../../mutable-instruments/rings/dsp/fx/reverb.h **** // AUTHORS OR COPYRIGHT HOLDERS BE LIABLE FOR ANY CLAIM, DAMAGES OR OTHER
  19:../../../mutable-instruments/rings/dsp/fx/reverb.h **** // LIABILITY, WHETHER IN AN ACTION OF CONTRACT, TORT OR OTHERWISE, ARISING FROM,
  20:../../../mutable-instruments/rings/dsp/fx/reverb.h **** // OUT OF OR IN CONNECTION WITH THE SOFTWARE OR THE USE OR OTHER DEALINGS IN
  21:../../../mutable-instruments/rings/dsp/fx/reverb.h **** // THE SOFTWARE.
  22:../../../mutable-instruments/rings/dsp/fx/reverb.h **** // 
  23:../../../mutable-instruments/rings/dsp/fx/reverb.h **** // See http://creativecommons.org/licenses/MIT/ for more information.
  24:../../../mutable-instruments/rings/dsp/fx/reverb.h **** //
  25:../../../mutable-instruments/rings/dsp/fx/reverb.h **** // -----------------------------------------------------------------------------
  26:../../../mutable-instruments/rings/dsp/fx/reverb.h **** //
ARM GAS  /var/folders/hl/qgbwny5j0fd895c2c41bk3tw0000gp/T//ccEG44Zu.s 			page 13


  27:../../../mutable-instruments/rings/dsp/fx/reverb.h **** // Reverb.
  28:../../../mutable-instruments/rings/dsp/fx/reverb.h **** 
  29:../../../mutable-instruments/rings/dsp/fx/reverb.h **** #ifndef RINGS_DSP_FX_REVERB_H_
  30:../../../mutable-instruments/rings/dsp/fx/reverb.h **** #define RINGS_DSP_FX_REVERB_H_
  31:../../../mutable-instruments/rings/dsp/fx/reverb.h **** 
  32:../../../mutable-instruments/rings/dsp/fx/reverb.h **** #include "stmlib/stmlib.h"
  33:../../../mutable-instruments/rings/dsp/fx/reverb.h **** 
  34:../../../mutable-instruments/rings/dsp/fx/reverb.h **** #include "rings/dsp/fx/fx_engine.h"
  35:../../../mutable-instruments/rings/dsp/fx/reverb.h **** 
  36:../../../mutable-instruments/rings/dsp/fx/reverb.h **** namespace rings {
  37:../../../mutable-instruments/rings/dsp/fx/reverb.h **** 
  38:../../../mutable-instruments/rings/dsp/fx/reverb.h **** class Reverb {
  39:../../../mutable-instruments/rings/dsp/fx/reverb.h ****  public:
  40:../../../mutable-instruments/rings/dsp/fx/reverb.h ****   Reverb() { }
  41:../../../mutable-instruments/rings/dsp/fx/reverb.h ****   ~Reverb() { }
 157              		.loc 12 41 3 view .LVU23
 158              	.LBB904:
 159              	.LBI904:
 160              		.file 13 "../../../mutable-instruments/rings/dsp/fx/fx_engine.h"
   1:../../../mutable-instruments/rings/dsp/fx/fx_engine.h **** // Copyright 2014 Emilie Gillet.
   2:../../../mutable-instruments/rings/dsp/fx/fx_engine.h **** //
   3:../../../mutable-instruments/rings/dsp/fx/fx_engine.h **** // Author: Emilie Gillet (emilie.o.gillet@gmail.com)
   4:../../../mutable-instruments/rings/dsp/fx/fx_engine.h **** //
   5:../../../mutable-instruments/rings/dsp/fx/fx_engine.h **** // Permission is hereby granted, free of charge, to any person obtaining a copy
   6:../../../mutable-instruments/rings/dsp/fx/fx_engine.h **** // of this software and associated documentation files (the "Software"), to deal
   7:../../../mutable-instruments/rings/dsp/fx/fx_engine.h **** // in the Software without restriction, including without limitation the rights
   8:../../../mutable-instruments/rings/dsp/fx/fx_engine.h **** // to use, copy, modify, merge, publish, distribute, sublicense, and/or sell
   9:../../../mutable-instruments/rings/dsp/fx/fx_engine.h **** // copies of the Software, and to permit persons to whom the Software is
  10:../../../mutable-instruments/rings/dsp/fx/fx_engine.h **** // furnished to do so, subject to the following conditions:
  11:../../../mutable-instruments/rings/dsp/fx/fx_engine.h **** // 
  12:../../../mutable-instruments/rings/dsp/fx/fx_engine.h **** // The above copyright notice and this permission notice shall be included in
  13:../../../mutable-instruments/rings/dsp/fx/fx_engine.h **** // all copies or substantial portions of the Software.
  14:../../../mutable-instruments/rings/dsp/fx/fx_engine.h **** // 
  15:../../../mutable-instruments/rings/dsp/fx/fx_engine.h **** // THE SOFTWARE IS PROVIDED "AS IS", WITHOUT WARRANTY OF ANY KIND, EXPRESS OR
  16:../../../mutable-instruments/rings/dsp/fx/fx_engine.h **** // IMPLIED, INCLUDING BUT NOT LIMITED TO THE WARRANTIES OF MERCHANTABILITY,
  17:../../../mutable-instruments/rings/dsp/fx/fx_engine.h **** // FITNESS FOR A PARTICULAR PURPOSE AND NONINFRINGEMENT. IN NO EVENT SHALL THE
  18:../../../mutable-instruments/rings/dsp/fx/fx_engine.h **** // AUTHORS OR COPYRIGHT HOLDERS BE LIABLE FOR ANY CLAIM, DAMAGES OR OTHER
  19:../../../mutable-instruments/rings/dsp/fx/fx_engine.h **** // LIABILITY, WHETHER IN AN ACTION OF CONTRACT, TORT OR OTHERWISE, ARISING FROM,
  20:../../../mutable-instruments/rings/dsp/fx/fx_engine.h **** // OUT OF OR IN CONNECTION WITH THE SOFTWARE OR THE USE OR OTHER DEALINGS IN
  21:../../../mutable-instruments/rings/dsp/fx/fx_engine.h **** // THE SOFTWARE.
  22:../../../mutable-instruments/rings/dsp/fx/fx_engine.h **** // 
  23:../../../mutable-instruments/rings/dsp/fx/fx_engine.h **** // See http://creativecommons.org/licenses/MIT/ for more information.
  24:../../../mutable-instruments/rings/dsp/fx/fx_engine.h **** //
  25:../../../mutable-instruments/rings/dsp/fx/fx_engine.h **** // -----------------------------------------------------------------------------
  26:../../../mutable-instruments/rings/dsp/fx/fx_engine.h **** //
  27:../../../mutable-instruments/rings/dsp/fx/fx_engine.h **** // Base class for building reverb.
  28:../../../mutable-instruments/rings/dsp/fx/fx_engine.h **** 
  29:../../../mutable-instruments/rings/dsp/fx/fx_engine.h **** #ifndef RINGS_DSP_FX_FX_ENGINE_H_
  30:../../../mutable-instruments/rings/dsp/fx/fx_engine.h **** #define RINGS_DSP_FX_FX_ENGINE_H_
  31:../../../mutable-instruments/rings/dsp/fx/fx_engine.h **** 
  32:../../../mutable-instruments/rings/dsp/fx/fx_engine.h **** #include <algorithm>
  33:../../../mutable-instruments/rings/dsp/fx/fx_engine.h **** 
  34:../../../mutable-instruments/rings/dsp/fx/fx_engine.h **** #include "stmlib/stmlib.h"
  35:../../../mutable-instruments/rings/dsp/fx/fx_engine.h **** 
  36:../../../mutable-instruments/rings/dsp/fx/fx_engine.h **** #include "stmlib/dsp/dsp.h"
  37:../../../mutable-instruments/rings/dsp/fx/fx_engine.h **** #include "stmlib/dsp/cosine_oscillator.h"
  38:../../../mutable-instruments/rings/dsp/fx/fx_engine.h **** 
ARM GAS  /var/folders/hl/qgbwny5j0fd895c2c41bk3tw0000gp/T//ccEG44Zu.s 			page 14


  39:../../../mutable-instruments/rings/dsp/fx/fx_engine.h **** namespace rings {
  40:../../../mutable-instruments/rings/dsp/fx/fx_engine.h **** 
  41:../../../mutable-instruments/rings/dsp/fx/fx_engine.h **** #define TAIL , -1
  42:../../../mutable-instruments/rings/dsp/fx/fx_engine.h **** 
  43:../../../mutable-instruments/rings/dsp/fx/fx_engine.h **** enum Format {
  44:../../../mutable-instruments/rings/dsp/fx/fx_engine.h ****   FORMAT_12_BIT,
  45:../../../mutable-instruments/rings/dsp/fx/fx_engine.h ****   FORMAT_16_BIT,
  46:../../../mutable-instruments/rings/dsp/fx/fx_engine.h ****   FORMAT_32_BIT
  47:../../../mutable-instruments/rings/dsp/fx/fx_engine.h **** };
  48:../../../mutable-instruments/rings/dsp/fx/fx_engine.h **** 
  49:../../../mutable-instruments/rings/dsp/fx/fx_engine.h **** enum LFOIndex {
  50:../../../mutable-instruments/rings/dsp/fx/fx_engine.h ****   LFO_1,
  51:../../../mutable-instruments/rings/dsp/fx/fx_engine.h ****   LFO_2
  52:../../../mutable-instruments/rings/dsp/fx/fx_engine.h **** };
  53:../../../mutable-instruments/rings/dsp/fx/fx_engine.h **** 
  54:../../../mutable-instruments/rings/dsp/fx/fx_engine.h **** template<Format format>
  55:../../../mutable-instruments/rings/dsp/fx/fx_engine.h **** struct DataType { };
  56:../../../mutable-instruments/rings/dsp/fx/fx_engine.h **** 
  57:../../../mutable-instruments/rings/dsp/fx/fx_engine.h **** template<>
  58:../../../mutable-instruments/rings/dsp/fx/fx_engine.h **** struct DataType<FORMAT_12_BIT> {
  59:../../../mutable-instruments/rings/dsp/fx/fx_engine.h ****   typedef uint16_t T;
  60:../../../mutable-instruments/rings/dsp/fx/fx_engine.h ****   
  61:../../../mutable-instruments/rings/dsp/fx/fx_engine.h ****   static inline float Decompress(T value) {
  62:../../../mutable-instruments/rings/dsp/fx/fx_engine.h ****     return static_cast<float>(static_cast<int16_t>(value)) / 4096.0f;
  63:../../../mutable-instruments/rings/dsp/fx/fx_engine.h ****   }
  64:../../../mutable-instruments/rings/dsp/fx/fx_engine.h ****   
  65:../../../mutable-instruments/rings/dsp/fx/fx_engine.h ****   static inline T Compress(float value) {
  66:../../../mutable-instruments/rings/dsp/fx/fx_engine.h ****     return static_cast<uint16_t>(
  67:../../../mutable-instruments/rings/dsp/fx/fx_engine.h ****         stmlib::Clip16(static_cast<int32_t>(value * 4096.0f)));
  68:../../../mutable-instruments/rings/dsp/fx/fx_engine.h ****   }
  69:../../../mutable-instruments/rings/dsp/fx/fx_engine.h **** };
  70:../../../mutable-instruments/rings/dsp/fx/fx_engine.h **** 
  71:../../../mutable-instruments/rings/dsp/fx/fx_engine.h **** template<>
  72:../../../mutable-instruments/rings/dsp/fx/fx_engine.h **** struct DataType<FORMAT_16_BIT> {
  73:../../../mutable-instruments/rings/dsp/fx/fx_engine.h ****   typedef uint16_t T;
  74:../../../mutable-instruments/rings/dsp/fx/fx_engine.h ****   
  75:../../../mutable-instruments/rings/dsp/fx/fx_engine.h ****   static inline float Decompress(T value) {
  76:../../../mutable-instruments/rings/dsp/fx/fx_engine.h ****     return static_cast<float>(static_cast<int16_t>(value)) / 32768.0f;
  77:../../../mutable-instruments/rings/dsp/fx/fx_engine.h ****   }
  78:../../../mutable-instruments/rings/dsp/fx/fx_engine.h ****   
  79:../../../mutable-instruments/rings/dsp/fx/fx_engine.h ****   static inline T Compress(float value) {
  80:../../../mutable-instruments/rings/dsp/fx/fx_engine.h ****     return static_cast<uint16_t>(
  81:../../../mutable-instruments/rings/dsp/fx/fx_engine.h ****         stmlib::Clip16(static_cast<int32_t>(value * 32768.0f)));
  82:../../../mutable-instruments/rings/dsp/fx/fx_engine.h ****   }
  83:../../../mutable-instruments/rings/dsp/fx/fx_engine.h **** };
  84:../../../mutable-instruments/rings/dsp/fx/fx_engine.h **** 
  85:../../../mutable-instruments/rings/dsp/fx/fx_engine.h **** template<>
  86:../../../mutable-instruments/rings/dsp/fx/fx_engine.h **** struct DataType<FORMAT_32_BIT> {
  87:../../../mutable-instruments/rings/dsp/fx/fx_engine.h ****   typedef float T;
  88:../../../mutable-instruments/rings/dsp/fx/fx_engine.h ****   
  89:../../../mutable-instruments/rings/dsp/fx/fx_engine.h ****   static inline float Decompress(T value) {
  90:../../../mutable-instruments/rings/dsp/fx/fx_engine.h ****     return value;;
  91:../../../mutable-instruments/rings/dsp/fx/fx_engine.h ****   }
  92:../../../mutable-instruments/rings/dsp/fx/fx_engine.h ****   
  93:../../../mutable-instruments/rings/dsp/fx/fx_engine.h ****   static inline T Compress(float value) {
  94:../../../mutable-instruments/rings/dsp/fx/fx_engine.h ****     return value;
  95:../../../mutable-instruments/rings/dsp/fx/fx_engine.h ****   }
ARM GAS  /var/folders/hl/qgbwny5j0fd895c2c41bk3tw0000gp/T//ccEG44Zu.s 			page 15


  96:../../../mutable-instruments/rings/dsp/fx/fx_engine.h **** };
  97:../../../mutable-instruments/rings/dsp/fx/fx_engine.h **** 
  98:../../../mutable-instruments/rings/dsp/fx/fx_engine.h **** template<
  99:../../../mutable-instruments/rings/dsp/fx/fx_engine.h ****     size_t size,
 100:../../../mutable-instruments/rings/dsp/fx/fx_engine.h ****     Format format = FORMAT_12_BIT>
 101:../../../mutable-instruments/rings/dsp/fx/fx_engine.h **** class FxEngine {
 102:../../../mutable-instruments/rings/dsp/fx/fx_engine.h ****  public:
 103:../../../mutable-instruments/rings/dsp/fx/fx_engine.h ****   typedef typename DataType<format>::T T;
 104:../../../mutable-instruments/rings/dsp/fx/fx_engine.h ****   FxEngine() { }
 105:../../../mutable-instruments/rings/dsp/fx/fx_engine.h ****   ~FxEngine() { }
 161              		.loc 13 105 3 view .LVU24
 162              		.loc 13 105 3 is_stmt 0 view .LVU25
 163              	.LBE904:
 164              	.LBE903:
 165              		.loc 11 13 7 view .LVU26
 166 0000 7047     		bx	lr
 167              		.cfi_endproc
 168              	.LFE6065:
 170              		.weak	_ZN15EffectsHandlingD1Ev
 171              		.thumb_set _ZN15EffectsHandlingD1Ev,_ZN15EffectsHandlingD2Ev
 172 0002 00BF     		.section	.text._ZN5daisy8patch_sm7InitBedEv,"ax",%progbits
 173              		.align	1
 174              		.p2align 2,,3
 175              		.global	_ZN5daisy8patch_sm7InitBedEv
 176              		.syntax unified
 177              		.thumb
 178              		.thumb_func
 180              	_ZN5daisy8patch_sm7InitBedEv:
 181              	.LFB4793:
 182              		.file 14 "daisy_bed.h"
   1:daisy_bed.h   **** #pragma once
   2:daisy_bed.h   **** 
   3:daisy_bed.h   **** #include "daisy.h"
   4:daisy_bed.h   **** #include "per/gpio.h"
   5:daisy_bed.h   **** #include "daisy_patch_sm.h"
   6:daisy_bed.h   **** 
   7:daisy_bed.h   **** namespace daisy
   8:daisy_bed.h   **** {
   9:daisy_bed.h   **** namespace patch_sm
  10:daisy_bed.h   **** {
  11:daisy_bed.h   ****     // simple stupid led set up
  12:daisy_bed.h   ****     GPIO    gen_led1;
  13:daisy_bed.h   ****     GPIO    gen_led2;
  14:daisy_bed.h   ****     GPIO    cv_led1;
  15:daisy_bed.h   ****     GPIO    cv_led2;
  16:daisy_bed.h   ****     GPIO    gate_in_led1;
  17:daisy_bed.h   ****     GPIO    gate_in_led2;
  18:daisy_bed.h   ****     GPIO    gate_out_led1;
  19:daisy_bed.h   ****     GPIO    gate_out_led2;
  20:daisy_bed.h   **** 
  21:daisy_bed.h   **** 
  22:daisy_bed.h   ****     // generic leds
  23:daisy_bed.h   ****     dsy_gpio_pin oldPinD7 = DaisyPatchSM::D7;
  24:daisy_bed.h   ****     Pin newPinD7 = Pin(static_cast<GPIOPort>(oldPinD7.port), oldPinD7.pin);
  25:daisy_bed.h   ****     dsy_gpio_pin oldPinA9 = DaisyPatchSM::A9;
  26:daisy_bed.h   ****     Pin newPinA9 = Pin(static_cast<GPIOPort>(oldPinA9.port), oldPinA9.pin);
  27:daisy_bed.h   **** 
ARM GAS  /var/folders/hl/qgbwny5j0fd895c2c41bk3tw0000gp/T//ccEG44Zu.s 			page 16


  28:daisy_bed.h   ****     // cv leds
  29:daisy_bed.h   ****     dsy_gpio_pin oldPinD2 = DaisyPatchSM::D2;
  30:daisy_bed.h   ****     Pin newPinD2 = Pin(static_cast<GPIOPort>(oldPinD2.port), oldPinD2.pin);
  31:daisy_bed.h   ****     dsy_gpio_pin oldPinD1 = DaisyPatchSM::D1;
  32:daisy_bed.h   ****     Pin newPinD1 = Pin(static_cast<GPIOPort>(oldPinD1.port), oldPinD1.pin);
  33:daisy_bed.h   ****     // ^^^ {DSY_GPIOB, 4},  /**< D1  - SPI2 CS */
  34:daisy_bed.h   **** 
  35:daisy_bed.h   ****     // gate leds
  36:daisy_bed.h   ****     dsy_gpio_pin oldPinD3 = DaisyPatchSM::D3;
  37:daisy_bed.h   ****     Pin newPinD3 = Pin(static_cast<GPIOPort>(oldPinD3.port), oldPinD3.pin);
  38:daisy_bed.h   ****     dsy_gpio_pin oldPinD6 = DaisyPatchSM::D6;
  39:daisy_bed.h   ****     Pin newPinD6 = Pin(static_cast<GPIOPort>(oldPinD6.port), oldPinD6.pin);
  40:daisy_bed.h   ****     dsy_gpio_pin oldPinD4 = DaisyPatchSM::D4;
  41:daisy_bed.h   ****     Pin newPinD4 = Pin(static_cast<GPIOPort>(oldPinD4.port), oldPinD4.pin);
  42:daisy_bed.h   ****     dsy_gpio_pin oldPinD5 = DaisyPatchSM::D5;
  43:daisy_bed.h   ****     Pin newPinD5 = Pin(static_cast<GPIOPort>(oldPinD5.port), oldPinD5.pin);
  44:daisy_bed.h   **** 
  45:daisy_bed.h   ****     // remap
  46:daisy_bed.h   ****      
  47:daisy_bed.h   ****     // map buttons
  48:daisy_bed.h   ****     Switch      b1,b2;
  49:daisy_bed.h   **** 
  50:daisy_bed.h   ****     void InitBed(){
 183              		.loc 14 50 19 is_stmt 1 view -0
 184              		.cfi_startproc
 185              		@ args = 0, pretend = 0, frame = 8
 186              		@ frame_needed = 0, uses_anonymous_args = 0
  51:daisy_bed.h   ****         // leds
  52:daisy_bed.h   ****         gen_led1.Init(newPinD7, GPIO::Mode::OUTPUT);
 187              		.loc 14 52 9 view .LVU28
  50:daisy_bed.h   ****         // leds
 188              		.loc 14 50 19 is_stmt 0 view .LVU29
 189 0000 10B5     		push	{r4, lr}
 190              		.cfi_def_cfa_offset 8
 191              		.cfi_offset 4, -8
 192              		.cfi_offset 14, -4
 193              		.loc 14 52 22 view .LVU30
 194 0002 2D49     		ldr	r1, .L8
  50:daisy_bed.h   ****         // leds
 195              		.loc 14 50 19 view .LVU31
 196 0004 84B0     		sub	sp, sp, #16
 197              		.cfi_def_cfa_offset 24
 198              		.loc 14 52 22 view .LVU32
 199 0006 0024     		movs	r4, #0
 200 0008 0122     		movs	r2, #1
 201 000a 0968     		ldr	r1, [r1]
 202 000c 2346     		mov	r3, r4
 203 000e 2B48     		ldr	r0, .L8+4
 204 0010 0094     		str	r4, [sp]
 205 0012 FFF7FEFF 		bl	_ZN5daisy4GPIO4InitENS_3PinENS0_4ModeENS0_4PullENS0_5SpeedE
 206              	.LVL4:
  53:daisy_bed.h   ****         gen_led2.Init(newPinA9, GPIO::Mode::OUTPUT);
 207              		.loc 14 53 9 is_stmt 1 view .LVU33
 208              		.loc 14 53 22 is_stmt 0 view .LVU34
 209 0016 2A49     		ldr	r1, .L8+8
 210 0018 2346     		mov	r3, r4
 211 001a 0122     		movs	r2, #1
ARM GAS  /var/folders/hl/qgbwny5j0fd895c2c41bk3tw0000gp/T//ccEG44Zu.s 			page 17


 212 001c 0968     		ldr	r1, [r1]
 213 001e 2948     		ldr	r0, .L8+12
 214 0020 0094     		str	r4, [sp]
 215 0022 FFF7FEFF 		bl	_ZN5daisy4GPIO4InitENS_3PinENS0_4ModeENS0_4PullENS0_5SpeedE
 216              	.LVL5:
  54:daisy_bed.h   ****         cv_led1.Init(newPinD2, GPIO::Mode::OUTPUT);
 217              		.loc 14 54 9 is_stmt 1 view .LVU35
 218              		.loc 14 54 21 is_stmt 0 view .LVU36
 219 0026 2849     		ldr	r1, .L8+16
 220 0028 2346     		mov	r3, r4
 221 002a 0122     		movs	r2, #1
 222 002c 0968     		ldr	r1, [r1]
 223 002e 2748     		ldr	r0, .L8+20
 224 0030 0094     		str	r4, [sp]
 225 0032 FFF7FEFF 		bl	_ZN5daisy4GPIO4InitENS_3PinENS0_4ModeENS0_4PullENS0_5SpeedE
 226              	.LVL6:
  55:daisy_bed.h   ****         cv_led2.Init(newPinD1, GPIO::Mode::OUTPUT);
 227              		.loc 14 55 9 is_stmt 1 view .LVU37
 228              		.loc 14 55 21 is_stmt 0 view .LVU38
 229 0036 2649     		ldr	r1, .L8+24
 230 0038 2346     		mov	r3, r4
 231 003a 0122     		movs	r2, #1
 232 003c 0968     		ldr	r1, [r1]
 233 003e 2548     		ldr	r0, .L8+28
 234 0040 0094     		str	r4, [sp]
 235 0042 FFF7FEFF 		bl	_ZN5daisy4GPIO4InitENS_3PinENS0_4ModeENS0_4PullENS0_5SpeedE
 236              	.LVL7:
  56:daisy_bed.h   ****         gate_in_led1.Init(newPinD3, GPIO::Mode::OUTPUT);
 237              		.loc 14 56 9 is_stmt 1 view .LVU39
 238              		.loc 14 56 26 is_stmt 0 view .LVU40
 239 0046 2449     		ldr	r1, .L8+32
 240 0048 2346     		mov	r3, r4
 241 004a 0122     		movs	r2, #1
 242 004c 0968     		ldr	r1, [r1]
 243 004e 2348     		ldr	r0, .L8+36
 244 0050 0094     		str	r4, [sp]
 245 0052 FFF7FEFF 		bl	_ZN5daisy4GPIO4InitENS_3PinENS0_4ModeENS0_4PullENS0_5SpeedE
 246              	.LVL8:
  57:daisy_bed.h   ****         gate_in_led2.Init(newPinD4, GPIO::Mode::OUTPUT);
 247              		.loc 14 57 9 is_stmt 1 view .LVU41
 248              		.loc 14 57 26 is_stmt 0 view .LVU42
 249 0056 2249     		ldr	r1, .L8+40
 250 0058 2346     		mov	r3, r4
 251 005a 0122     		movs	r2, #1
 252 005c 0968     		ldr	r1, [r1]
 253 005e 2148     		ldr	r0, .L8+44
 254 0060 0094     		str	r4, [sp]
 255 0062 FFF7FEFF 		bl	_ZN5daisy4GPIO4InitENS_3PinENS0_4ModeENS0_4PullENS0_5SpeedE
 256              	.LVL9:
  58:daisy_bed.h   ****         gate_out_led1.Init(newPinD6, GPIO::Mode::OUTPUT);
 257              		.loc 14 58 9 is_stmt 1 view .LVU43
 258              		.loc 14 58 27 is_stmt 0 view .LVU44
 259 0066 2049     		ldr	r1, .L8+48
 260 0068 2346     		mov	r3, r4
 261 006a 0122     		movs	r2, #1
 262 006c 0968     		ldr	r1, [r1]
 263 006e 1F48     		ldr	r0, .L8+52
ARM GAS  /var/folders/hl/qgbwny5j0fd895c2c41bk3tw0000gp/T//ccEG44Zu.s 			page 18


 264 0070 0094     		str	r4, [sp]
 265 0072 FFF7FEFF 		bl	_ZN5daisy4GPIO4InitENS_3PinENS0_4ModeENS0_4PullENS0_5SpeedE
 266              	.LVL10:
  59:daisy_bed.h   ****         gate_out_led2.Init(newPinD5, GPIO::Mode::OUTPUT);
 267              		.loc 14 59 9 is_stmt 1 view .LVU45
 268              		.loc 14 59 27 is_stmt 0 view .LVU46
 269 0076 1E49     		ldr	r1, .L8+56
 270 0078 2346     		mov	r3, r4
 271 007a 0122     		movs	r2, #1
 272 007c 0968     		ldr	r1, [r1]
 273 007e 1D48     		ldr	r0, .L8+60
 274 0080 0094     		str	r4, [sp]
 275 0082 FFF7FEFF 		bl	_ZN5daisy4GPIO4InitENS_3PinENS0_4ModeENS0_4PullENS0_5SpeedE
 276              	.LVL11:
  60:daisy_bed.h   **** 
  61:daisy_bed.h   ****         // buttons
  62:daisy_bed.h   ****         b1.Init(DaisyPatchSM::A8);
 277              		.loc 14 62 9 is_stmt 1 view .LVU47
 278              		.loc 14 62 16 is_stmt 0 view .LVU48
 279 0086 1C4B     		ldr	r3, .L8+64
 280 0088 9FED1C0A 		vldr.32	s0, .L8+68
 281 008c 1A78     		ldrb	r2, [r3]	@ zero_extendqisi2
 282 008e 5978     		ldrb	r1, [r3, #1]	@ zero_extendqisi2
 283 0090 1B48     		ldr	r0, .L8+72
 284 0092 42EA0121 		orr	r1, r2, r1, lsl #8
 285 0096 8DED030A 		vstr.32	s0, [sp, #12]	@ int
 286 009a FFF7FEFF 		bl	_ZN5daisy6Switch4InitE12dsy_gpio_pinf
 287              	.LVL12:
  63:daisy_bed.h   ****         b2.Init(DaisyPatchSM::D10);
 288              		.loc 14 63 9 is_stmt 1 view .LVU49
 289              		.loc 14 63 16 is_stmt 0 view .LVU50
 290 009e 194B     		ldr	r3, .L8+76
 291 00a0 9DED030A 		vldr.32	s0, [sp, #12]	@ int
 292 00a4 1A78     		ldrb	r2, [r3]	@ zero_extendqisi2
 293 00a6 5978     		ldrb	r1, [r3, #1]	@ zero_extendqisi2
 294 00a8 1748     		ldr	r0, .L8+80
 295 00aa 42EA0121 		orr	r1, r2, r1, lsl #8
  64:daisy_bed.h   ****     }
 296              		.loc 14 64 5 view .LVU51
 297 00ae 04B0     		add	sp, sp, #16
 298              		.cfi_def_cfa_offset 8
 299              		@ sp needed
 300 00b0 BDE81040 		pop	{r4, lr}
 301              		.cfi_restore 14
 302              		.cfi_restore 4
 303              		.cfi_def_cfa_offset 0
  63:daisy_bed.h   ****         b2.Init(DaisyPatchSM::D10);
 304              		.loc 14 63 16 view .LVU52
 305 00b4 FFF7FEBF 		b	_ZN5daisy6Switch4InitE12dsy_gpio_pinf
 306              	.LVL13:
 307              	.L9:
 308              		.align	2
 309              	.L8:
 310 00b8 00000000 		.word	.LANCHOR0
 311 00bc 00000000 		.word	.LANCHOR1
 312 00c0 00000000 		.word	.LANCHOR2
 313 00c4 00000000 		.word	.LANCHOR3
ARM GAS  /var/folders/hl/qgbwny5j0fd895c2c41bk3tw0000gp/T//ccEG44Zu.s 			page 19


 314 00c8 00000000 		.word	.LANCHOR4
 315 00cc 00000000 		.word	.LANCHOR5
 316 00d0 00000000 		.word	.LANCHOR6
 317 00d4 00000000 		.word	.LANCHOR7
 318 00d8 00000000 		.word	.LANCHOR8
 319 00dc 00000000 		.word	.LANCHOR9
 320 00e0 00000000 		.word	.LANCHOR10
 321 00e4 00000000 		.word	.LANCHOR11
 322 00e8 00000000 		.word	.LANCHOR12
 323 00ec 00000000 		.word	.LANCHOR13
 324 00f0 00000000 		.word	.LANCHOR14
 325 00f4 00000000 		.word	.LANCHOR15
 326 00f8 00000000 		.word	_ZN5daisy8patch_sm12DaisyPatchSM2A8E
 327 00fc 00000000 		.word	0
 328 0100 00000000 		.word	.LANCHOR16
 329 0104 00000000 		.word	_ZN5daisy8patch_sm12DaisyPatchSM3D10E
 330 0108 00000000 		.word	.LANCHOR17
 331              		.cfi_endproc
 332              	.LFE4793:
 334              		.section	.text._ZN5daisy8patch_sm6ledOffEv,"ax",%progbits
 335              		.align	1
 336              		.p2align 2,,3
 337              		.global	_ZN5daisy8patch_sm6ledOffEv
 338              		.syntax unified
 339              		.thumb
 340              		.thumb_func
 342              	_ZN5daisy8patch_sm6ledOffEv:
 343              	.LFB4794:
  65:daisy_bed.h   **** 
  66:daisy_bed.h   ****     void ledOff(){
 344              		.loc 14 66 18 is_stmt 1 view -0
 345              		.cfi_startproc
 346              		@ args = 0, pretend = 0, frame = 0
 347              		@ frame_needed = 0, uses_anonymous_args = 0
  67:daisy_bed.h   ****         gen_led1.Write(false);
 348              		.loc 14 67 9 view .LVU54
  66:daisy_bed.h   ****         gen_led1.Write(false);
 349              		.loc 14 66 18 is_stmt 0 view .LVU55
 350 0000 08B5     		push	{r3, lr}
 351              		.cfi_def_cfa_offset 8
 352              		.cfi_offset 3, -8
 353              		.cfi_offset 14, -4
 354              		.loc 14 67 23 view .LVU56
 355 0002 0021     		movs	r1, #0
 356 0004 0848     		ldr	r0, .L12
 357 0006 FFF7FEFF 		bl	_ZN5daisy4GPIO5WriteEb
 358              	.LVL14:
  68:daisy_bed.h   ****         gen_led2.Write(false);
 359              		.loc 14 68 9 is_stmt 1 view .LVU57
 360              		.loc 14 68 23 is_stmt 0 view .LVU58
 361 000a 0021     		movs	r1, #0
 362 000c 0748     		ldr	r0, .L12+4
 363 000e FFF7FEFF 		bl	_ZN5daisy4GPIO5WriteEb
 364              	.LVL15:
  69:daisy_bed.h   ****         cv_led1.Write(false);
 365              		.loc 14 69 9 is_stmt 1 view .LVU59
 366              		.loc 14 69 22 is_stmt 0 view .LVU60
ARM GAS  /var/folders/hl/qgbwny5j0fd895c2c41bk3tw0000gp/T//ccEG44Zu.s 			page 20


 367 0012 0021     		movs	r1, #0
 368 0014 0648     		ldr	r0, .L12+8
 369 0016 FFF7FEFF 		bl	_ZN5daisy4GPIO5WriteEb
 370              	.LVL16:
  70:daisy_bed.h   ****         cv_led2.Write(false);
 371              		.loc 14 70 9 is_stmt 1 view .LVU61
 372              		.loc 14 70 22 is_stmt 0 view .LVU62
 373 001a 0021     		movs	r1, #0
 374 001c 0548     		ldr	r0, .L12+12
  71:daisy_bed.h   ****     }
 375              		.loc 14 71 5 view .LVU63
 376 001e BDE80840 		pop	{r3, lr}
 377              		.cfi_restore 14
 378              		.cfi_restore 3
 379              		.cfi_def_cfa_offset 0
  70:daisy_bed.h   ****         cv_led2.Write(false);
 380              		.loc 14 70 22 view .LVU64
 381 0022 FFF7FEBF 		b	_ZN5daisy4GPIO5WriteEb
 382              	.LVL17:
 383              	.L13:
 384 0026 00BF     		.align	2
 385              	.L12:
 386 0028 00000000 		.word	.LANCHOR1
 387 002c 00000000 		.word	.LANCHOR3
 388 0030 00000000 		.word	.LANCHOR5
 389 0034 00000000 		.word	.LANCHOR7
 390              		.cfi_endproc
 391              	.LFE4794:
 393              		.section	.text._ZN5daisy8patch_sm13StartupCheeseEv,"ax",%progbits
 394              		.align	1
 395              		.p2align 2,,3
 396              		.global	_ZN5daisy8patch_sm13StartupCheeseEv
 397              		.syntax unified
 398              		.thumb
 399              		.thumb_func
 401              	_ZN5daisy8patch_sm13StartupCheeseEv:
 402              	.LFB4795:
  72:daisy_bed.h   **** 
  73:daisy_bed.h   ****     void StartupCheese(){
 403              		.loc 14 73 25 is_stmt 1 view -0
 404              		.cfi_startproc
 405              		@ args = 0, pretend = 0, frame = 0
 406              		@ frame_needed = 0, uses_anonymous_args = 0
  74:daisy_bed.h   **** 		gate_in_led1.Toggle();
 407              		.loc 14 74 3 view .LVU66
  73:daisy_bed.h   **** 		gate_in_led1.Toggle();
 408              		.loc 14 73 25 is_stmt 0 view .LVU67
 409 0000 F8B5     		push	{r3, r4, r5, r6, r7, lr}
 410              		.cfi_def_cfa_offset 24
 411              		.cfi_offset 3, -24
 412              		.cfi_offset 4, -20
 413              		.cfi_offset 5, -16
 414              		.cfi_offset 6, -12
 415              		.cfi_offset 7, -8
 416              		.cfi_offset 14, -4
 417              		.loc 14 74 22 view .LVU68
 418 0002 2348     		ldr	r0, .L16
ARM GAS  /var/folders/hl/qgbwny5j0fd895c2c41bk3tw0000gp/T//ccEG44Zu.s 			page 21


 419 0004 FFF7FEFF 		bl	_ZN5daisy4GPIO6ToggleEv
 420              	.LVL18:
  75:daisy_bed.h   **** 		System::Delay(100);
 421              		.loc 14 75 3 is_stmt 1 view .LVU69
 422              		.loc 14 75 16 is_stmt 0 view .LVU70
 423 0008 6420     		movs	r0, #100
 424 000a FFF7FEFF 		bl	_ZN5daisy6System5DelayEm
 425              	.LVL19:
  76:daisy_bed.h   **** 		gate_in_led2.Toggle();
 426              		.loc 14 76 3 is_stmt 1 view .LVU71
  77:daisy_bed.h   **** 		System::Delay(100);
  78:daisy_bed.h   **** 		gen_led1.Toggle();
 427              		.loc 14 78 18 is_stmt 0 view .LVU72
 428 000e 214F     		ldr	r7, .L16+4
  76:daisy_bed.h   **** 		gate_in_led2.Toggle();
 429              		.loc 14 76 22 view .LVU73
 430 0010 2148     		ldr	r0, .L16+8
 431 0012 FFF7FEFF 		bl	_ZN5daisy4GPIO6ToggleEv
 432              	.LVL20:
  77:daisy_bed.h   **** 		System::Delay(100);
 433              		.loc 14 77 3 is_stmt 1 view .LVU74
  77:daisy_bed.h   **** 		System::Delay(100);
 434              		.loc 14 77 16 is_stmt 0 view .LVU75
 435 0016 6420     		movs	r0, #100
 436 0018 FFF7FEFF 		bl	_ZN5daisy6System5DelayEm
 437              	.LVL21:
 438              		.loc 14 78 3 is_stmt 1 view .LVU76
  79:daisy_bed.h   **** 		System::Delay(100);
  80:daisy_bed.h   **** 		gen_led2.Toggle();
 439              		.loc 14 80 18 is_stmt 0 view .LVU77
 440 001c 1F4E     		ldr	r6, .L16+12
  78:daisy_bed.h   **** 		System::Delay(100);
 441              		.loc 14 78 18 view .LVU78
 442 001e 3846     		mov	r0, r7
  81:daisy_bed.h   **** 		System::Delay(100);
  82:daisy_bed.h   **** 		cv_led1.Toggle();
 443              		.loc 14 82 17 view .LVU79
 444 0020 1F4D     		ldr	r5, .L16+16
  78:daisy_bed.h   **** 		System::Delay(100);
 445              		.loc 14 78 18 view .LVU80
 446 0022 FFF7FEFF 		bl	_ZN5daisy4GPIO6ToggleEv
 447              	.LVL22:
  79:daisy_bed.h   **** 		gen_led2.Toggle();
 448              		.loc 14 79 3 is_stmt 1 view .LVU81
  79:daisy_bed.h   **** 		gen_led2.Toggle();
 449              		.loc 14 79 16 is_stmt 0 view .LVU82
 450 0026 6420     		movs	r0, #100
 451 0028 FFF7FEFF 		bl	_ZN5daisy6System5DelayEm
 452              	.LVL23:
  80:daisy_bed.h   **** 		System::Delay(100);
 453              		.loc 14 80 3 is_stmt 1 view .LVU83
  80:daisy_bed.h   **** 		System::Delay(100);
 454              		.loc 14 80 18 is_stmt 0 view .LVU84
 455 002c 3046     		mov	r0, r6
 456 002e FFF7FEFF 		bl	_ZN5daisy4GPIO6ToggleEv
 457              	.LVL24:
  81:daisy_bed.h   **** 		System::Delay(100);
ARM GAS  /var/folders/hl/qgbwny5j0fd895c2c41bk3tw0000gp/T//ccEG44Zu.s 			page 22


 458              		.loc 14 81 3 is_stmt 1 view .LVU85
  81:daisy_bed.h   **** 		System::Delay(100);
 459              		.loc 14 81 16 is_stmt 0 view .LVU86
 460 0032 6420     		movs	r0, #100
 461 0034 FFF7FEFF 		bl	_ZN5daisy6System5DelayEm
 462              	.LVL25:
 463              		.loc 14 82 3 is_stmt 1 view .LVU87
  83:daisy_bed.h   **** 		System::Delay(100);
  84:daisy_bed.h   **** 		cv_led2.Toggle();
 464              		.loc 14 84 17 is_stmt 0 view .LVU88
 465 0038 1A4C     		ldr	r4, .L16+20
  82:daisy_bed.h   **** 		System::Delay(100);
 466              		.loc 14 82 17 view .LVU89
 467 003a 2846     		mov	r0, r5
 468 003c FFF7FEFF 		bl	_ZN5daisy4GPIO6ToggleEv
 469              	.LVL26:
  83:daisy_bed.h   **** 		System::Delay(100);
 470              		.loc 14 83 3 is_stmt 1 view .LVU90
  83:daisy_bed.h   **** 		System::Delay(100);
 471              		.loc 14 83 16 is_stmt 0 view .LVU91
 472 0040 6420     		movs	r0, #100
 473 0042 FFF7FEFF 		bl	_ZN5daisy6System5DelayEm
 474              	.LVL27:
 475              		.loc 14 84 3 is_stmt 1 view .LVU92
 476              		.loc 14 84 17 is_stmt 0 view .LVU93
 477 0046 2046     		mov	r0, r4
 478 0048 FFF7FEFF 		bl	_ZN5daisy4GPIO6ToggleEv
 479              	.LVL28:
  85:daisy_bed.h   **** 		System::Delay(100);
 480              		.loc 14 85 3 is_stmt 1 view .LVU94
 481              		.loc 14 85 16 is_stmt 0 view .LVU95
 482 004c 6420     		movs	r0, #100
 483 004e FFF7FEFF 		bl	_ZN5daisy6System5DelayEm
 484              	.LVL29:
  86:daisy_bed.h   **** 		gate_out_led1.Toggle();
 485              		.loc 14 86 3 is_stmt 1 view .LVU96
 486              		.loc 14 86 23 is_stmt 0 view .LVU97
 487 0052 1548     		ldr	r0, .L16+24
 488 0054 FFF7FEFF 		bl	_ZN5daisy4GPIO6ToggleEv
 489              	.LVL30:
  87:daisy_bed.h   **** 		System::Delay(100);
 490              		.loc 14 87 3 is_stmt 1 view .LVU98
 491              		.loc 14 87 16 is_stmt 0 view .LVU99
 492 0058 6420     		movs	r0, #100
 493 005a FFF7FEFF 		bl	_ZN5daisy6System5DelayEm
 494              	.LVL31:
  88:daisy_bed.h   **** 		gate_out_led2.Toggle();
 495              		.loc 14 88 3 is_stmt 1 view .LVU100
 496              		.loc 14 88 23 is_stmt 0 view .LVU101
 497 005e 1348     		ldr	r0, .L16+28
 498 0060 FFF7FEFF 		bl	_ZN5daisy4GPIO6ToggleEv
 499              	.LVL32:
  89:daisy_bed.h   **** 		System::Delay(100);
 500              		.loc 14 89 3 is_stmt 1 view .LVU102
 501              		.loc 14 89 16 is_stmt 0 view .LVU103
 502 0064 6420     		movs	r0, #100
 503 0066 FFF7FEFF 		bl	_ZN5daisy6System5DelayEm
ARM GAS  /var/folders/hl/qgbwny5j0fd895c2c41bk3tw0000gp/T//ccEG44Zu.s 			page 23


 504              	.LVL33:
  90:daisy_bed.h   ****         ledOff();
 505              		.loc 14 90 9 is_stmt 1 view .LVU104
 506              	.LBB907:
 507              	.LBI907:
  66:daisy_bed.h   ****         gen_led1.Write(false);
 508              		.loc 14 66 10 view .LVU105
 509              	.LBB908:
  67:daisy_bed.h   ****         gen_led2.Write(false);
 510              		.loc 14 67 9 view .LVU106
  67:daisy_bed.h   ****         gen_led2.Write(false);
 511              		.loc 14 67 23 is_stmt 0 view .LVU107
 512 006a 3846     		mov	r0, r7
 513 006c 0021     		movs	r1, #0
 514 006e FFF7FEFF 		bl	_ZN5daisy4GPIO5WriteEb
 515              	.LVL34:
  68:daisy_bed.h   ****         cv_led1.Write(false);
 516              		.loc 14 68 9 is_stmt 1 view .LVU108
  68:daisy_bed.h   ****         cv_led1.Write(false);
 517              		.loc 14 68 23 is_stmt 0 view .LVU109
 518 0072 3046     		mov	r0, r6
 519 0074 0021     		movs	r1, #0
 520 0076 FFF7FEFF 		bl	_ZN5daisy4GPIO5WriteEb
 521              	.LVL35:
  69:daisy_bed.h   ****         cv_led2.Write(false);
 522              		.loc 14 69 9 is_stmt 1 view .LVU110
  69:daisy_bed.h   ****         cv_led2.Write(false);
 523              		.loc 14 69 22 is_stmt 0 view .LVU111
 524 007a 2846     		mov	r0, r5
 525 007c 0021     		movs	r1, #0
 526 007e FFF7FEFF 		bl	_ZN5daisy4GPIO5WriteEb
 527              	.LVL36:
  70:daisy_bed.h   ****     }
 528              		.loc 14 70 9 is_stmt 1 view .LVU112
  70:daisy_bed.h   ****     }
 529              		.loc 14 70 22 is_stmt 0 view .LVU113
 530 0082 2046     		mov	r0, r4
 531 0084 0021     		movs	r1, #0
 532              	.LBE908:
 533              	.LBE907:
  91:daisy_bed.h   ****     }
 534              		.loc 14 91 5 view .LVU114
 535 0086 BDE8F840 		pop	{r3, r4, r5, r6, r7, lr}
 536              		.cfi_restore 14
 537              		.cfi_restore 7
 538              		.cfi_restore 6
 539              		.cfi_restore 5
 540              		.cfi_restore 4
 541              		.cfi_restore 3
 542              		.cfi_def_cfa_offset 0
 543              	.LBB910:
 544              	.LBB909:
  70:daisy_bed.h   ****     }
 545              		.loc 14 70 22 view .LVU115
 546 008a FFF7FEBF 		b	_ZN5daisy4GPIO5WriteEb
 547              	.LVL37:
 548              	.L17:
ARM GAS  /var/folders/hl/qgbwny5j0fd895c2c41bk3tw0000gp/T//ccEG44Zu.s 			page 24


 549 008e 00BF     		.align	2
 550              	.L16:
 551 0090 00000000 		.word	.LANCHOR9
 552 0094 00000000 		.word	.LANCHOR1
 553 0098 00000000 		.word	.LANCHOR11
 554 009c 00000000 		.word	.LANCHOR3
 555 00a0 00000000 		.word	.LANCHOR5
 556 00a4 00000000 		.word	.LANCHOR7
 557 00a8 00000000 		.word	.LANCHOR13
 558 00ac 00000000 		.word	.LANCHOR15
 559              	.LBE909:
 560              	.LBE910:
 561              		.cfi_endproc
 562              	.LFE4795:
 564              		.section	.text._ZN5daisy8patch_sm8gateTestEv,"ax",%progbits
 565              		.align	1
 566              		.p2align 2,,3
 567              		.global	_ZN5daisy8patch_sm8gateTestEv
 568              		.syntax unified
 569              		.thumb
 570              		.thumb_func
 572              	_ZN5daisy8patch_sm8gateTestEv:
 573              	.LFB4796:
  92:daisy_bed.h   **** 
  93:daisy_bed.h   ****     void gateTest()
  94:daisy_bed.h   ****     {
 574              		.loc 14 94 5 is_stmt 1 view -0
 575              		.cfi_startproc
 576              		@ args = 0, pretend = 0, frame = 0
 577              		@ frame_needed = 0, uses_anonymous_args = 0
  95:daisy_bed.h   ****         gate_in_led1.Toggle();
 578              		.loc 14 95 9 view .LVU117
  94:daisy_bed.h   ****         gate_in_led1.Toggle();
 579              		.loc 14 94 5 is_stmt 0 view .LVU118
 580 0000 08B5     		push	{r3, lr}
 581              		.cfi_def_cfa_offset 8
 582              		.cfi_offset 3, -8
 583              		.cfi_offset 14, -4
 584              		.loc 14 95 28 view .LVU119
 585 0002 0F48     		ldr	r0, .L20
 586 0004 FFF7FEFF 		bl	_ZN5daisy4GPIO6ToggleEv
 587              	.LVL38:
  96:daisy_bed.h   ****         System::Delay(1000);
 588              		.loc 14 96 9 is_stmt 1 view .LVU120
 589              		.loc 14 96 22 is_stmt 0 view .LVU121
 590 0008 4FF47A70 		mov	r0, #1000
 591 000c FFF7FEFF 		bl	_ZN5daisy6System5DelayEm
 592              	.LVL39:
  97:daisy_bed.h   ****         gate_in_led2.Toggle();
 593              		.loc 14 97 9 is_stmt 1 view .LVU122
 594              		.loc 14 97 28 is_stmt 0 view .LVU123
 595 0010 0C48     		ldr	r0, .L20+4
 596 0012 FFF7FEFF 		bl	_ZN5daisy4GPIO6ToggleEv
 597              	.LVL40:
  98:daisy_bed.h   ****         System::Delay(1000);
 598              		.loc 14 98 9 is_stmt 1 view .LVU124
 599              		.loc 14 98 22 is_stmt 0 view .LVU125
ARM GAS  /var/folders/hl/qgbwny5j0fd895c2c41bk3tw0000gp/T//ccEG44Zu.s 			page 25


 600 0016 4FF47A70 		mov	r0, #1000
 601 001a FFF7FEFF 		bl	_ZN5daisy6System5DelayEm
 602              	.LVL41:
  99:daisy_bed.h   ****         gate_out_led1.Toggle();
 603              		.loc 14 99 9 is_stmt 1 view .LVU126
 604              		.loc 14 99 29 is_stmt 0 view .LVU127
 605 001e 0A48     		ldr	r0, .L20+8
 606 0020 FFF7FEFF 		bl	_ZN5daisy4GPIO6ToggleEv
 607              	.LVL42:
 100:daisy_bed.h   ****         System::Delay(1000);
 608              		.loc 14 100 9 is_stmt 1 view .LVU128
 609              		.loc 14 100 22 is_stmt 0 view .LVU129
 610 0024 4FF47A70 		mov	r0, #1000
 611 0028 FFF7FEFF 		bl	_ZN5daisy6System5DelayEm
 612              	.LVL43:
 101:daisy_bed.h   ****         gate_out_led2.Toggle();
 613              		.loc 14 101 9 is_stmt 1 view .LVU130
 614              		.loc 14 101 29 is_stmt 0 view .LVU131
 615 002c 0748     		ldr	r0, .L20+12
 616 002e FFF7FEFF 		bl	_ZN5daisy4GPIO6ToggleEv
 617              	.LVL44:
 102:daisy_bed.h   ****         System::Delay(1000);
 618              		.loc 14 102 9 is_stmt 1 view .LVU132
 619              		.loc 14 102 22 is_stmt 0 view .LVU133
 620 0032 4FF47A70 		mov	r0, #1000
 103:daisy_bed.h   ****     }
 621              		.loc 14 103 5 view .LVU134
 622 0036 BDE80840 		pop	{r3, lr}
 623              		.cfi_restore 14
 624              		.cfi_restore 3
 625              		.cfi_def_cfa_offset 0
 102:daisy_bed.h   ****         System::Delay(1000);
 626              		.loc 14 102 22 view .LVU135
 627 003a FFF7FEBF 		b	_ZN5daisy6System5DelayEm
 628              	.LVL45:
 629              	.L21:
 630 003e 00BF     		.align	2
 631              	.L20:
 632 0040 00000000 		.word	.LANCHOR9
 633 0044 00000000 		.word	.LANCHOR11
 634 0048 00000000 		.word	.LANCHOR13
 635 004c 00000000 		.word	.LANCHOR15
 636              		.cfi_endproc
 637              	.LFE4796:
 639              		.section	.text._ZN5rings6Reverb7ProcessEPfS1_j,"axG",%progbits,_ZN5rings6Reverb7ProcessEPfS1_j,com
 640              		.align	1
 641              		.p2align 2,,3
 642              		.weak	_ZN5rings6Reverb7ProcessEPfS1_j
 643              		.syntax unified
 644              		.thumb
 645              		.thumb_func
 647              	_ZN5rings6Reverb7ProcessEPfS1_j:
 648              	.LVL46:
 649              	.LFB4875:
  42:../../../mutable-instruments/rings/dsp/fx/reverb.h ****   
  43:../../../mutable-instruments/rings/dsp/fx/reverb.h ****   void Init(uint16_t* buffer) {
  44:../../../mutable-instruments/rings/dsp/fx/reverb.h ****     engine_.Init(buffer);
ARM GAS  /var/folders/hl/qgbwny5j0fd895c2c41bk3tw0000gp/T//ccEG44Zu.s 			page 26


  45:../../../mutable-instruments/rings/dsp/fx/reverb.h ****     engine_.SetLFOFrequency(LFO_1, 0.5f / 48000.0f);
  46:../../../mutable-instruments/rings/dsp/fx/reverb.h ****     engine_.SetLFOFrequency(LFO_2, 0.3f / 48000.0f);
  47:../../../mutable-instruments/rings/dsp/fx/reverb.h ****     lp_ = 0.7f;
  48:../../../mutable-instruments/rings/dsp/fx/reverb.h ****     diffusion_ = 0.625f;
  49:../../../mutable-instruments/rings/dsp/fx/reverb.h ****   }
  50:../../../mutable-instruments/rings/dsp/fx/reverb.h ****   
  51:../../../mutable-instruments/rings/dsp/fx/reverb.h ****   void Process(float* left, float* right, size_t size) {
 650              		.loc 12 51 8 is_stmt 1 view -0
 651              		.cfi_startproc
 652              		@ args = 0, pretend = 0, frame = 0
 653              		@ frame_needed = 0, uses_anonymous_args = 0
  52:../../../mutable-instruments/rings/dsp/fx/reverb.h ****     // This is the Griesinger topology described in the Dattorro paper
  53:../../../mutable-instruments/rings/dsp/fx/reverb.h ****     // (4 AP diffusers on the input, then a loop of 2x 2AP+1Delay).
  54:../../../mutable-instruments/rings/dsp/fx/reverb.h ****     // Modulation is applied in the loop of the first diffuser AP for additional
  55:../../../mutable-instruments/rings/dsp/fx/reverb.h ****     // smearing; and to the two long delays for a slow shimmer/chorus effect.
  56:../../../mutable-instruments/rings/dsp/fx/reverb.h ****     typedef E::Reserve<150,
 654              		.loc 12 56 5 view .LVU137
  57:../../../mutable-instruments/rings/dsp/fx/reverb.h ****       E::Reserve<214,
  58:../../../mutable-instruments/rings/dsp/fx/reverb.h ****       E::Reserve<319,
  59:../../../mutable-instruments/rings/dsp/fx/reverb.h ****       E::Reserve<527,
  60:../../../mutable-instruments/rings/dsp/fx/reverb.h ****       E::Reserve<2182,
  61:../../../mutable-instruments/rings/dsp/fx/reverb.h ****       E::Reserve<2690,
  62:../../../mutable-instruments/rings/dsp/fx/reverb.h ****       E::Reserve<4501,
  63:../../../mutable-instruments/rings/dsp/fx/reverb.h ****       E::Reserve<2525,
  64:../../../mutable-instruments/rings/dsp/fx/reverb.h ****       E::Reserve<2197,
  65:../../../mutable-instruments/rings/dsp/fx/reverb.h ****       E::Reserve<6312> > > > > > > > > > Memory;
  66:../../../mutable-instruments/rings/dsp/fx/reverb.h ****     E::DelayLine<Memory, 0> ap1;
 655              		.loc 12 66 5 view .LVU138
  67:../../../mutable-instruments/rings/dsp/fx/reverb.h ****     E::DelayLine<Memory, 1> ap2;
 656              		.loc 12 67 5 view .LVU139
  68:../../../mutable-instruments/rings/dsp/fx/reverb.h ****     E::DelayLine<Memory, 2> ap3;
 657              		.loc 12 68 5 view .LVU140
  69:../../../mutable-instruments/rings/dsp/fx/reverb.h ****     E::DelayLine<Memory, 3> ap4;
 658              		.loc 12 69 5 view .LVU141
  70:../../../mutable-instruments/rings/dsp/fx/reverb.h ****     E::DelayLine<Memory, 4> dap1a;
 659              		.loc 12 70 5 view .LVU142
  71:../../../mutable-instruments/rings/dsp/fx/reverb.h ****     E::DelayLine<Memory, 5> dap1b;
 660              		.loc 12 71 5 view .LVU143
  72:../../../mutable-instruments/rings/dsp/fx/reverb.h ****     E::DelayLine<Memory, 6> del1;
 661              		.loc 12 72 5 view .LVU144
  73:../../../mutable-instruments/rings/dsp/fx/reverb.h ****     E::DelayLine<Memory, 7> dap2a;
 662              		.loc 12 73 5 view .LVU145
  74:../../../mutable-instruments/rings/dsp/fx/reverb.h ****     E::DelayLine<Memory, 8> dap2b;
 663              		.loc 12 74 5 view .LVU146
  75:../../../mutable-instruments/rings/dsp/fx/reverb.h ****     E::DelayLine<Memory, 9> del2;
 664              		.loc 12 75 5 view .LVU147
  76:../../../mutable-instruments/rings/dsp/fx/reverb.h ****     E::Context c;
 665              		.loc 12 76 5 view .LVU148
 666              	.LBB1086:
 667              	.LBI1086:
 106:../../../mutable-instruments/rings/dsp/fx/fx_engine.h **** 
 107:../../../mutable-instruments/rings/dsp/fx/fx_engine.h ****   void Init(T* buffer) {
 108:../../../mutable-instruments/rings/dsp/fx/fx_engine.h ****     buffer_ = buffer;
 109:../../../mutable-instruments/rings/dsp/fx/fx_engine.h ****     Clear();
 110:../../../mutable-instruments/rings/dsp/fx/fx_engine.h ****   }
 111:../../../mutable-instruments/rings/dsp/fx/fx_engine.h ****   
 112:../../../mutable-instruments/rings/dsp/fx/fx_engine.h ****   void Clear() {
ARM GAS  /var/folders/hl/qgbwny5j0fd895c2c41bk3tw0000gp/T//ccEG44Zu.s 			page 27


 113:../../../mutable-instruments/rings/dsp/fx/fx_engine.h ****     std::fill(&buffer_[0], &buffer_[size], 0);
 114:../../../mutable-instruments/rings/dsp/fx/fx_engine.h ****     write_ptr_ = 0;
 115:../../../mutable-instruments/rings/dsp/fx/fx_engine.h ****   }
 116:../../../mutable-instruments/rings/dsp/fx/fx_engine.h **** 
 117:../../../mutable-instruments/rings/dsp/fx/fx_engine.h ****   struct Empty { };
 118:../../../mutable-instruments/rings/dsp/fx/fx_engine.h ****   
 119:../../../mutable-instruments/rings/dsp/fx/fx_engine.h ****   template<int32_t l, typename T = Empty>
 120:../../../mutable-instruments/rings/dsp/fx/fx_engine.h ****   struct Reserve {
 121:../../../mutable-instruments/rings/dsp/fx/fx_engine.h ****     typedef T Tail;
 122:../../../mutable-instruments/rings/dsp/fx/fx_engine.h ****     enum {
 123:../../../mutable-instruments/rings/dsp/fx/fx_engine.h ****       length = l
 124:../../../mutable-instruments/rings/dsp/fx/fx_engine.h ****     };
 125:../../../mutable-instruments/rings/dsp/fx/fx_engine.h ****   };
 126:../../../mutable-instruments/rings/dsp/fx/fx_engine.h ****   
 127:../../../mutable-instruments/rings/dsp/fx/fx_engine.h ****   template<typename Memory, int32_t index>
 128:../../../mutable-instruments/rings/dsp/fx/fx_engine.h ****   struct DelayLine {
 129:../../../mutable-instruments/rings/dsp/fx/fx_engine.h ****     enum {
 130:../../../mutable-instruments/rings/dsp/fx/fx_engine.h ****       length = DelayLine<typename Memory::Tail, index - 1>::length,
 131:../../../mutable-instruments/rings/dsp/fx/fx_engine.h ****       base = DelayLine<Memory, index - 1>::base + DelayLine<Memory, index - 1>::length + 1
 132:../../../mutable-instruments/rings/dsp/fx/fx_engine.h ****     };
 133:../../../mutable-instruments/rings/dsp/fx/fx_engine.h ****   };
 134:../../../mutable-instruments/rings/dsp/fx/fx_engine.h **** 
 135:../../../mutable-instruments/rings/dsp/fx/fx_engine.h ****   template<typename Memory>
 136:../../../mutable-instruments/rings/dsp/fx/fx_engine.h ****   struct DelayLine<Memory, 0> {
 137:../../../mutable-instruments/rings/dsp/fx/fx_engine.h ****     enum {
 138:../../../mutable-instruments/rings/dsp/fx/fx_engine.h ****       length = Memory::length,
 139:../../../mutable-instruments/rings/dsp/fx/fx_engine.h ****       base = 0
 140:../../../mutable-instruments/rings/dsp/fx/fx_engine.h ****     };
 141:../../../mutable-instruments/rings/dsp/fx/fx_engine.h ****   };
 142:../../../mutable-instruments/rings/dsp/fx/fx_engine.h **** 
 143:../../../mutable-instruments/rings/dsp/fx/fx_engine.h ****   class Context {
 144:../../../mutable-instruments/rings/dsp/fx/fx_engine.h ****    friend class FxEngine;
 145:../../../mutable-instruments/rings/dsp/fx/fx_engine.h ****    public:
 146:../../../mutable-instruments/rings/dsp/fx/fx_engine.h ****     Context() { }
 668              		.loc 13 146 5 view .LVU149
 669              		.loc 13 146 5 is_stmt 0 view .LVU150
 670              	.LBE1086:
  77:../../../mutable-instruments/rings/dsp/fx/reverb.h **** 
  78:../../../mutable-instruments/rings/dsp/fx/reverb.h ****     const float kap = diffusion_;
 671              		.loc 12 78 5 is_stmt 1 view .LVU151
 672              		.loc 12 78 17 is_stmt 0 view .LVU152
 673 0000 90ED0D6A 		vldr.32	s12, [r0, #52]
 674              	.LVL47:
  79:../../../mutable-instruments/rings/dsp/fx/reverb.h ****     const float klp = lp_;
 675              		.loc 12 79 5 is_stmt 1 view .LVU153
 676              		.loc 12 79 17 is_stmt 0 view .LVU154
 677 0004 90ED0E4A 		vldr.32	s8, [r0, #56]
 678              	.LVL48:
  80:../../../mutable-instruments/rings/dsp/fx/reverb.h ****     const float krt = reverb_time_;
 679              		.loc 12 80 5 is_stmt 1 view .LVU155
 680              		.loc 12 80 17 is_stmt 0 view .LVU156
 681 0008 D0ED0C3A 		vldr.32	s7, [r0, #48]
 682              	.LVL49:
  81:../../../mutable-instruments/rings/dsp/fx/reverb.h ****     const float amount = amount_;
 683              		.loc 12 81 5 is_stmt 1 view .LVU157
 684              		.loc 12 81 17 is_stmt 0 view .LVU158
 685 000c 90ED0A3A 		vldr.32	s6, [r0, #40]
ARM GAS  /var/folders/hl/qgbwny5j0fd895c2c41bk3tw0000gp/T//ccEG44Zu.s 			page 28


 686              	.LVL50:
  82:../../../mutable-instruments/rings/dsp/fx/reverb.h ****     const float gain = input_gain_;
 687              		.loc 12 82 5 is_stmt 1 view .LVU159
 688              		.loc 12 82 17 is_stmt 0 view .LVU160
 689 0010 D0ED0B2A 		vldr.32	s5, [r0, #44]
 690              	.LVL51:
  83:../../../mutable-instruments/rings/dsp/fx/reverb.h **** 
  84:../../../mutable-instruments/rings/dsp/fx/reverb.h ****     float lp_1 = lp_decay_1_;
 691              		.loc 12 84 5 is_stmt 1 view .LVU161
 692              		.loc 12 84 18 is_stmt 0 view .LVU162
 693 0014 D0ED0F4A 		vldr.32	s9, [r0, #60]
 694              	.LVL52:
  85:../../../mutable-instruments/rings/dsp/fx/reverb.h ****     float lp_2 = lp_decay_2_;
 695              		.loc 12 85 5 is_stmt 1 view .LVU163
 696              		.loc 12 85 18 is_stmt 0 view .LVU164
 697 0018 90ED105A 		vldr.32	s10, [r0, #64]
 698              	.LVL53:
  86:../../../mutable-instruments/rings/dsp/fx/reverb.h **** 
  87:../../../mutable-instruments/rings/dsp/fx/reverb.h ****     while (size--) {
 699              		.loc 12 87 5 is_stmt 1 view .LVU165
 700              		.loc 12 87 16 view .LVU166
 701              		.loc 12 87 16 is_stmt 0 view .LVU167
 702 001c 002B     		cmp	r3, #0
 703 001e 00F0DE81 		beq	.L34
 704              	.LBB1087:
  88:../../../mutable-instruments/rings/dsp/fx/reverb.h ****       float wet;
  89:../../../mutable-instruments/rings/dsp/fx/reverb.h ****       float apout = 0.0f;
  90:../../../mutable-instruments/rings/dsp/fx/reverb.h ****       engine_.Start(&c);
  91:../../../mutable-instruments/rings/dsp/fx/reverb.h ****       
  92:../../../mutable-instruments/rings/dsp/fx/reverb.h ****       // Smear AP1 inside the loop.
  93:../../../mutable-instruments/rings/dsp/fx/reverb.h ****       //c.Interpolate(ap1, 10.0f, LFO_1, 80.0f, 1.0f);
  94:../../../mutable-instruments/rings/dsp/fx/reverb.h ****       //c.Write(ap1, 100, 0.0f);
  95:../../../mutable-instruments/rings/dsp/fx/reverb.h ****       
  96:../../../mutable-instruments/rings/dsp/fx/reverb.h ****       c.Read(*left + *right, gain);
  97:../../../mutable-instruments/rings/dsp/fx/reverb.h **** 
  98:../../../mutable-instruments/rings/dsp/fx/reverb.h ****       // Diffuse through 4 allpasses.
  99:../../../mutable-instruments/rings/dsp/fx/reverb.h ****       c.Read(ap1 TAIL, kap);
 100:../../../mutable-instruments/rings/dsp/fx/reverb.h ****       c.WriteAllPass(ap1, -kap);
 705              		.loc 12 100 21 view .LVU168
 706 0022 F1EE465A 		vneg.f32	s11, s12
 707              	.LBE1087:
  51:../../../mutable-instruments/rings/dsp/fx/reverb.h ****     // This is the Griesinger topology described in the Dattorro paper
 708              		.loc 12 51 8 view .LVU169
 709 0026 2DE9F04F 		push	{r4, r5, r6, r7, r8, r9, r10, fp, lr}
 710              		.cfi_def_cfa_offset 36
 711              		.cfi_offset 4, -36
 712              		.cfi_offset 5, -32
 713              		.cfi_offset 6, -28
 714              		.cfi_offset 7, -24
 715              		.cfi_offset 8, -20
 716              		.cfi_offset 9, -16
 717              		.cfi_offset 10, -12
 718              		.cfi_offset 11, -8
 719              		.cfi_offset 14, -4
 720 002a 5D1E     		subs	r5, r3, #1
 721              	.LVL54:
  51:../../../mutable-instruments/rings/dsp/fx/reverb.h ****     // This is the Griesinger topology described in the Dattorro paper
ARM GAS  /var/folders/hl/qgbwny5j0fd895c2c41bk3tw0000gp/T//ccEG44Zu.s 			page 29


 722              		.loc 12 51 8 view .LVU170
 723 002c 0C46     		mov	r4, r1
 724 002e 0368     		ldr	r3, [r0]
 725              	.LBB1724:
 726              	.LBB1088:
 727              	.LBB1089:
 147:../../../mutable-instruments/rings/dsp/fx/fx_engine.h ****     ~Context() { }
 148:../../../mutable-instruments/rings/dsp/fx/fx_engine.h ****     
 149:../../../mutable-instruments/rings/dsp/fx/fx_engine.h ****     inline void Load(float value) {
 150:../../../mutable-instruments/rings/dsp/fx/fx_engine.h ****       accumulator_ = value;
 151:../../../mutable-instruments/rings/dsp/fx/fx_engine.h ****     }
 152:../../../mutable-instruments/rings/dsp/fx/fx_engine.h **** 
 153:../../../mutable-instruments/rings/dsp/fx/fx_engine.h ****     inline void Read(float value, float scale) {
 154:../../../mutable-instruments/rings/dsp/fx/fx_engine.h ****       accumulator_ += value * scale;
 155:../../../mutable-instruments/rings/dsp/fx/fx_engine.h ****     }
 156:../../../mutable-instruments/rings/dsp/fx/fx_engine.h **** 
 157:../../../mutable-instruments/rings/dsp/fx/fx_engine.h ****     inline void Read(float value) {
 158:../../../mutable-instruments/rings/dsp/fx/fx_engine.h ****       accumulator_ += value;
 159:../../../mutable-instruments/rings/dsp/fx/fx_engine.h ****     }
 160:../../../mutable-instruments/rings/dsp/fx/fx_engine.h **** 
 161:../../../mutable-instruments/rings/dsp/fx/fx_engine.h ****     inline void Write(float& value) {
 162:../../../mutable-instruments/rings/dsp/fx/fx_engine.h ****       value = accumulator_;
 163:../../../mutable-instruments/rings/dsp/fx/fx_engine.h ****     }
 164:../../../mutable-instruments/rings/dsp/fx/fx_engine.h **** 
 165:../../../mutable-instruments/rings/dsp/fx/fx_engine.h ****     inline void Write(float& value, float scale) {
 166:../../../mutable-instruments/rings/dsp/fx/fx_engine.h ****       value = accumulator_;
 167:../../../mutable-instruments/rings/dsp/fx/fx_engine.h ****       accumulator_ *= scale;
 168:../../../mutable-instruments/rings/dsp/fx/fx_engine.h ****     }
 169:../../../mutable-instruments/rings/dsp/fx/fx_engine.h ****     
 170:../../../mutable-instruments/rings/dsp/fx/fx_engine.h ****     template<typename D>
 171:../../../mutable-instruments/rings/dsp/fx/fx_engine.h ****     inline void Write(D& d, int32_t offset, float scale) {
 172:../../../mutable-instruments/rings/dsp/fx/fx_engine.h ****       STATIC_ASSERT(D::base + D::length <= size, delay_memory_full);
 173:../../../mutable-instruments/rings/dsp/fx/fx_engine.h ****       T w = DataType<format>::Compress(accumulator_);
 174:../../../mutable-instruments/rings/dsp/fx/fx_engine.h ****       if (offset == -1) {
 175:../../../mutable-instruments/rings/dsp/fx/fx_engine.h ****         buffer_[(write_ptr_ + D::base + D::length - 1) & MASK] = w;
 176:../../../mutable-instruments/rings/dsp/fx/fx_engine.h ****       } else {
 177:../../../mutable-instruments/rings/dsp/fx/fx_engine.h ****         buffer_[(write_ptr_ + D::base + offset) & MASK] = w;
 178:../../../mutable-instruments/rings/dsp/fx/fx_engine.h ****       }
 179:../../../mutable-instruments/rings/dsp/fx/fx_engine.h ****       accumulator_ *= scale;
 180:../../../mutable-instruments/rings/dsp/fx/fx_engine.h ****     }
 181:../../../mutable-instruments/rings/dsp/fx/fx_engine.h ****     
 182:../../../mutable-instruments/rings/dsp/fx/fx_engine.h ****     template<typename D>
 183:../../../mutable-instruments/rings/dsp/fx/fx_engine.h ****     inline void Write(D& d, float scale) {
 184:../../../mutable-instruments/rings/dsp/fx/fx_engine.h ****       Write(d, 0, scale);
 185:../../../mutable-instruments/rings/dsp/fx/fx_engine.h ****     }
 186:../../../mutable-instruments/rings/dsp/fx/fx_engine.h **** 
 187:../../../mutable-instruments/rings/dsp/fx/fx_engine.h ****     template<typename D>
 188:../../../mutable-instruments/rings/dsp/fx/fx_engine.h ****     inline void WriteAllPass(D& d, int32_t offset, float scale) {
 189:../../../mutable-instruments/rings/dsp/fx/fx_engine.h ****       Write(d, offset, scale);
 190:../../../mutable-instruments/rings/dsp/fx/fx_engine.h ****       accumulator_ += previous_read_;
 191:../../../mutable-instruments/rings/dsp/fx/fx_engine.h ****     }
 192:../../../mutable-instruments/rings/dsp/fx/fx_engine.h ****     
 193:../../../mutable-instruments/rings/dsp/fx/fx_engine.h ****     template<typename D>
 194:../../../mutable-instruments/rings/dsp/fx/fx_engine.h ****     inline void WriteAllPass(D& d, float scale) {
 195:../../../mutable-instruments/rings/dsp/fx/fx_engine.h ****       WriteAllPass(d, 0, scale);
 196:../../../mutable-instruments/rings/dsp/fx/fx_engine.h ****     }
 197:../../../mutable-instruments/rings/dsp/fx/fx_engine.h ****     
ARM GAS  /var/folders/hl/qgbwny5j0fd895c2c41bk3tw0000gp/T//ccEG44Zu.s 			page 30


 198:../../../mutable-instruments/rings/dsp/fx/fx_engine.h ****     template<typename D>
 199:../../../mutable-instruments/rings/dsp/fx/fx_engine.h ****     inline void Read(D& d, int32_t offset, float scale) {
 200:../../../mutable-instruments/rings/dsp/fx/fx_engine.h ****       STATIC_ASSERT(D::base + D::length <= size, delay_memory_full);
 201:../../../mutable-instruments/rings/dsp/fx/fx_engine.h ****       T r;
 202:../../../mutable-instruments/rings/dsp/fx/fx_engine.h ****       if (offset == -1) {
 203:../../../mutable-instruments/rings/dsp/fx/fx_engine.h ****         r = buffer_[(write_ptr_ + D::base + D::length - 1) & MASK];
 204:../../../mutable-instruments/rings/dsp/fx/fx_engine.h ****       } else {
 205:../../../mutable-instruments/rings/dsp/fx/fx_engine.h ****         r = buffer_[(write_ptr_ + D::base + offset) & MASK];
 206:../../../mutable-instruments/rings/dsp/fx/fx_engine.h ****       }
 207:../../../mutable-instruments/rings/dsp/fx/fx_engine.h ****       float r_f = DataType<format>::Decompress(r);
 208:../../../mutable-instruments/rings/dsp/fx/fx_engine.h ****       previous_read_ = r_f;
 209:../../../mutable-instruments/rings/dsp/fx/fx_engine.h ****       accumulator_ += r_f * scale;
 210:../../../mutable-instruments/rings/dsp/fx/fx_engine.h ****     }
 211:../../../mutable-instruments/rings/dsp/fx/fx_engine.h ****     
 212:../../../mutable-instruments/rings/dsp/fx/fx_engine.h ****     template<typename D>
 213:../../../mutable-instruments/rings/dsp/fx/fx_engine.h ****     inline void Read(D& d, float scale) {
 214:../../../mutable-instruments/rings/dsp/fx/fx_engine.h ****       Read(d, 0, scale);
 215:../../../mutable-instruments/rings/dsp/fx/fx_engine.h ****     }
 216:../../../mutable-instruments/rings/dsp/fx/fx_engine.h ****     
 217:../../../mutable-instruments/rings/dsp/fx/fx_engine.h ****     inline void Lp(float& state, float coefficient) {
 218:../../../mutable-instruments/rings/dsp/fx/fx_engine.h ****       state += coefficient * (accumulator_ - state);
 219:../../../mutable-instruments/rings/dsp/fx/fx_engine.h ****       accumulator_ = state;
 220:../../../mutable-instruments/rings/dsp/fx/fx_engine.h ****     }
 221:../../../mutable-instruments/rings/dsp/fx/fx_engine.h **** 
 222:../../../mutable-instruments/rings/dsp/fx/fx_engine.h ****     inline void Hp(float& state, float coefficient) {
 223:../../../mutable-instruments/rings/dsp/fx/fx_engine.h ****       state += coefficient * (accumulator_ - state);
 224:../../../mutable-instruments/rings/dsp/fx/fx_engine.h ****       accumulator_ -= state;
 225:../../../mutable-instruments/rings/dsp/fx/fx_engine.h ****     }
 226:../../../mutable-instruments/rings/dsp/fx/fx_engine.h ****     
 227:../../../mutable-instruments/rings/dsp/fx/fx_engine.h ****     template<typename D>
 228:../../../mutable-instruments/rings/dsp/fx/fx_engine.h ****     inline void Interpolate(D& d, float offset, float scale) {
 229:../../../mutable-instruments/rings/dsp/fx/fx_engine.h ****       STATIC_ASSERT(D::base + D::length <= size, delay_memory_full);
 230:../../../mutable-instruments/rings/dsp/fx/fx_engine.h ****       MAKE_INTEGRAL_FRACTIONAL(offset);
 231:../../../mutable-instruments/rings/dsp/fx/fx_engine.h ****       float a = DataType<format>::Decompress(
 232:../../../mutable-instruments/rings/dsp/fx/fx_engine.h ****           buffer_[(write_ptr_ + offset_integral + D::base) & MASK]);
 233:../../../mutable-instruments/rings/dsp/fx/fx_engine.h ****       float b = DataType<format>::Decompress(
 234:../../../mutable-instruments/rings/dsp/fx/fx_engine.h ****           buffer_[(write_ptr_ + offset_integral + D::base + 1) & MASK]);
 235:../../../mutable-instruments/rings/dsp/fx/fx_engine.h ****       float x = a + (b - a) * offset_fractional;
 236:../../../mutable-instruments/rings/dsp/fx/fx_engine.h ****       previous_read_ = x;
 237:../../../mutable-instruments/rings/dsp/fx/fx_engine.h ****       accumulator_ += x * scale;
 238:../../../mutable-instruments/rings/dsp/fx/fx_engine.h ****     }
 239:../../../mutable-instruments/rings/dsp/fx/fx_engine.h ****     
 240:../../../mutable-instruments/rings/dsp/fx/fx_engine.h ****     template<typename D>
 241:../../../mutable-instruments/rings/dsp/fx/fx_engine.h ****     inline void Interpolate(
 242:../../../mutable-instruments/rings/dsp/fx/fx_engine.h ****         D& d, float offset, LFOIndex index, float amplitude, float scale) {
 243:../../../mutable-instruments/rings/dsp/fx/fx_engine.h ****       STATIC_ASSERT(D::base + D::length <= size, delay_memory_full);
 244:../../../mutable-instruments/rings/dsp/fx/fx_engine.h ****       offset += amplitude * lfo_value_[index];
 245:../../../mutable-instruments/rings/dsp/fx/fx_engine.h ****       MAKE_INTEGRAL_FRACTIONAL(offset);
 246:../../../mutable-instruments/rings/dsp/fx/fx_engine.h ****       float a = DataType<format>::Decompress(
 247:../../../mutable-instruments/rings/dsp/fx/fx_engine.h ****           buffer_[(write_ptr_ + offset_integral + D::base) & MASK]);
 248:../../../mutable-instruments/rings/dsp/fx/fx_engine.h ****       float b = DataType<format>::Decompress(
 249:../../../mutable-instruments/rings/dsp/fx/fx_engine.h ****           buffer_[(write_ptr_ + offset_integral + D::base + 1) & MASK]);
 250:../../../mutable-instruments/rings/dsp/fx/fx_engine.h ****       float x = a + (b - a) * offset_fractional;
 251:../../../mutable-instruments/rings/dsp/fx/fx_engine.h ****       previous_read_ = x;
 252:../../../mutable-instruments/rings/dsp/fx/fx_engine.h ****       accumulator_ += x * scale;
 253:../../../mutable-instruments/rings/dsp/fx/fx_engine.h ****     }
 254:../../../mutable-instruments/rings/dsp/fx/fx_engine.h ****     
ARM GAS  /var/folders/hl/qgbwny5j0fd895c2c41bk3tw0000gp/T//ccEG44Zu.s 			page 31


 255:../../../mutable-instruments/rings/dsp/fx/fx_engine.h ****    private:
 256:../../../mutable-instruments/rings/dsp/fx/fx_engine.h ****     float accumulator_;
 257:../../../mutable-instruments/rings/dsp/fx/fx_engine.h ****     float previous_read_;
 258:../../../mutable-instruments/rings/dsp/fx/fx_engine.h ****     float lfo_value_[2];
 259:../../../mutable-instruments/rings/dsp/fx/fx_engine.h ****     T* buffer_;
 260:../../../mutable-instruments/rings/dsp/fx/fx_engine.h ****     int32_t write_ptr_;
 261:../../../mutable-instruments/rings/dsp/fx/fx_engine.h **** 
 262:../../../mutable-instruments/rings/dsp/fx/fx_engine.h ****     DISALLOW_COPY_AND_ASSIGN(Context);
 263:../../../mutable-instruments/rings/dsp/fx/fx_engine.h ****   };
 264:../../../mutable-instruments/rings/dsp/fx/fx_engine.h ****   
 265:../../../mutable-instruments/rings/dsp/fx/fx_engine.h ****   inline void SetLFOFrequency(LFOIndex index, float frequency) {
 266:../../../mutable-instruments/rings/dsp/fx/fx_engine.h ****     lfo_[index].template Init<stmlib::COSINE_OSCILLATOR_APPROXIMATE>(frequency * 32.0f);
 267:../../../mutable-instruments/rings/dsp/fx/fx_engine.h ****   }
 268:../../../mutable-instruments/rings/dsp/fx/fx_engine.h ****   
 269:../../../mutable-instruments/rings/dsp/fx/fx_engine.h ****   inline void Start(Context* c) {
 270:../../../mutable-instruments/rings/dsp/fx/fx_engine.h ****     --write_ptr_;
 271:../../../mutable-instruments/rings/dsp/fx/fx_engine.h ****     if (write_ptr_ < 0) {
 272:../../../mutable-instruments/rings/dsp/fx/fx_engine.h ****       write_ptr_ += size;
 273:../../../mutable-instruments/rings/dsp/fx/fx_engine.h ****     }
 274:../../../mutable-instruments/rings/dsp/fx/fx_engine.h ****     c->accumulator_ = 0.0f;
 275:../../../mutable-instruments/rings/dsp/fx/fx_engine.h ****     c->previous_read_ = 0.0f;
 276:../../../mutable-instruments/rings/dsp/fx/fx_engine.h ****     c->buffer_ = buffer_;
 728              		.loc 13 276 18 view .LVU171
 729 0030 4168     		ldr	r1, [r0, #4]
 730              	.LVL55:
 731              		.loc 13 276 18 view .LVU172
 732              	.LBE1089:
 733              	.LBE1088:
 734              	.LBE1724:
  51:../../../mutable-instruments/rings/dsp/fx/reverb.h ****     // This is the Griesinger topology described in the Dattorro paper
 735              		.loc 12 51 8 view .LVU173
 736 0032 2DED028B 		vpush.64	{d8}
 737              		.cfi_def_cfa_offset 44
 738              		.cfi_offset 80, -44
 739              		.cfi_offset 81, -40
 740 0036 B2E1     		b	.L28
 741              	.LVL56:
 742              	.L38:
 743              	.LBB1725:
 744              	.LBB1127:
 745              	.LBB1124:
 746              	.LBB1090:
 747              	.LBI1090:
 269:../../../mutable-instruments/rings/dsp/fx/fx_engine.h ****     --write_ptr_;
 748              		.loc 13 269 15 is_stmt 1 view .LVU174
 749              	.LBB1091:
 750              	.LBB1092:
 751              	.LBI1092:
 752              		.file 15 "../../../mutable-instruments/stmlib/dsp/cosine_oscillator.h"
   1:../../../mutable-instruments/stmlib/dsp/cosine_oscillator.h **** // Copyright 2014 Emilie Gillet.
   2:../../../mutable-instruments/stmlib/dsp/cosine_oscillator.h **** //
   3:../../../mutable-instruments/stmlib/dsp/cosine_oscillator.h **** // Author: Emilie Gillet (emilie.o.gillet@gmail.com)
   4:../../../mutable-instruments/stmlib/dsp/cosine_oscillator.h **** //
   5:../../../mutable-instruments/stmlib/dsp/cosine_oscillator.h **** // Permission is hereby granted, free of charge, to any person obtaining a copy
   6:../../../mutable-instruments/stmlib/dsp/cosine_oscillator.h **** // of this software and associated documentation files (the "Software"), to deal
   7:../../../mutable-instruments/stmlib/dsp/cosine_oscillator.h **** // in the Software without restriction, including without limitation the rights
   8:../../../mutable-instruments/stmlib/dsp/cosine_oscillator.h **** // to use, copy, modify, merge, publish, distribute, sublicense, and/or sell
ARM GAS  /var/folders/hl/qgbwny5j0fd895c2c41bk3tw0000gp/T//ccEG44Zu.s 			page 32


   9:../../../mutable-instruments/stmlib/dsp/cosine_oscillator.h **** // copies of the Software, and to permit persons to whom the Software is
  10:../../../mutable-instruments/stmlib/dsp/cosine_oscillator.h **** // furnished to do so, subject to the following conditions:
  11:../../../mutable-instruments/stmlib/dsp/cosine_oscillator.h **** // 
  12:../../../mutable-instruments/stmlib/dsp/cosine_oscillator.h **** // The above copyright notice and this permission notice shall be included in
  13:../../../mutable-instruments/stmlib/dsp/cosine_oscillator.h **** // all copies or substantial portions of the Software.
  14:../../../mutable-instruments/stmlib/dsp/cosine_oscillator.h **** // 
  15:../../../mutable-instruments/stmlib/dsp/cosine_oscillator.h **** // THE SOFTWARE IS PROVIDED "AS IS", WITHOUT WARRANTY OF ANY KIND, EXPRESS OR
  16:../../../mutable-instruments/stmlib/dsp/cosine_oscillator.h **** // IMPLIED, INCLUDING BUT NOT LIMITED TO THE WARRANTIES OF MERCHANTABILITY,
  17:../../../mutable-instruments/stmlib/dsp/cosine_oscillator.h **** // FITNESS FOR A PARTICULAR PURPOSE AND NONINFRINGEMENT. IN NO EVENT SHALL THE
  18:../../../mutable-instruments/stmlib/dsp/cosine_oscillator.h **** // AUTHORS OR COPYRIGHT HOLDERS BE LIABLE FOR ANY CLAIM, DAMAGES OR OTHER
  19:../../../mutable-instruments/stmlib/dsp/cosine_oscillator.h **** // LIABILITY, WHETHER IN AN ACTION OF CONTRACT, TORT OR OTHERWISE, ARISING FROM,
  20:../../../mutable-instruments/stmlib/dsp/cosine_oscillator.h **** // OUT OF OR IN CONNECTION WITH THE SOFTWARE OR THE USE OR OTHER DEALINGS IN
  21:../../../mutable-instruments/stmlib/dsp/cosine_oscillator.h **** // THE SOFTWARE.
  22:../../../mutable-instruments/stmlib/dsp/cosine_oscillator.h **** // 
  23:../../../mutable-instruments/stmlib/dsp/cosine_oscillator.h **** // See http://creativecommons.org/licenses/MIT/ for more information.
  24:../../../mutable-instruments/stmlib/dsp/cosine_oscillator.h **** //
  25:../../../mutable-instruments/stmlib/dsp/cosine_oscillator.h **** // -----------------------------------------------------------------------------
  26:../../../mutable-instruments/stmlib/dsp/cosine_oscillator.h **** //
  27:../../../mutable-instruments/stmlib/dsp/cosine_oscillator.h **** // Cosine oscillator. Generates a cosine between 0.0 and 1.0 with minimal
  28:../../../mutable-instruments/stmlib/dsp/cosine_oscillator.h **** // CPU use.
  29:../../../mutable-instruments/stmlib/dsp/cosine_oscillator.h **** 
  30:../../../mutable-instruments/stmlib/dsp/cosine_oscillator.h **** #ifndef STMLIB_DSP_COSINE_OSCILLATOR_H_
  31:../../../mutable-instruments/stmlib/dsp/cosine_oscillator.h **** #define STMLIB_DSP_COSINE_OSCILLATOR_H_
  32:../../../mutable-instruments/stmlib/dsp/cosine_oscillator.h **** 
  33:../../../mutable-instruments/stmlib/dsp/cosine_oscillator.h **** #include "stmlib/stmlib.h"
  34:../../../mutable-instruments/stmlib/dsp/cosine_oscillator.h **** 
  35:../../../mutable-instruments/stmlib/dsp/cosine_oscillator.h **** #include <cmath>
  36:../../../mutable-instruments/stmlib/dsp/cosine_oscillator.h **** 
  37:../../../mutable-instruments/stmlib/dsp/cosine_oscillator.h **** namespace stmlib {
  38:../../../mutable-instruments/stmlib/dsp/cosine_oscillator.h **** 
  39:../../../mutable-instruments/stmlib/dsp/cosine_oscillator.h **** enum CosineOscillatorMode {
  40:../../../mutable-instruments/stmlib/dsp/cosine_oscillator.h ****   COSINE_OSCILLATOR_APPROXIMATE,
  41:../../../mutable-instruments/stmlib/dsp/cosine_oscillator.h ****   COSINE_OSCILLATOR_EXACT
  42:../../../mutable-instruments/stmlib/dsp/cosine_oscillator.h **** };
  43:../../../mutable-instruments/stmlib/dsp/cosine_oscillator.h **** 
  44:../../../mutable-instruments/stmlib/dsp/cosine_oscillator.h **** class CosineOscillator {
  45:../../../mutable-instruments/stmlib/dsp/cosine_oscillator.h ****  public:
  46:../../../mutable-instruments/stmlib/dsp/cosine_oscillator.h ****   CosineOscillator() { }
  47:../../../mutable-instruments/stmlib/dsp/cosine_oscillator.h ****   ~CosineOscillator() { }
  48:../../../mutable-instruments/stmlib/dsp/cosine_oscillator.h **** 
  49:../../../mutable-instruments/stmlib/dsp/cosine_oscillator.h ****   template<CosineOscillatorMode mode>
  50:../../../mutable-instruments/stmlib/dsp/cosine_oscillator.h ****   inline void Init(float frequency) {
  51:../../../mutable-instruments/stmlib/dsp/cosine_oscillator.h ****     if (mode == COSINE_OSCILLATOR_APPROXIMATE) {
  52:../../../mutable-instruments/stmlib/dsp/cosine_oscillator.h ****       InitApproximate(frequency);
  53:../../../mutable-instruments/stmlib/dsp/cosine_oscillator.h ****     } else {
  54:../../../mutable-instruments/stmlib/dsp/cosine_oscillator.h ****       iir_coefficient_ = 2.0f * cosf(2.0f * float(M_PI) * frequency);
  55:../../../mutable-instruments/stmlib/dsp/cosine_oscillator.h ****       initial_amplitude_ = iir_coefficient_ * 0.25f;
  56:../../../mutable-instruments/stmlib/dsp/cosine_oscillator.h ****     }
  57:../../../mutable-instruments/stmlib/dsp/cosine_oscillator.h ****     Start();
  58:../../../mutable-instruments/stmlib/dsp/cosine_oscillator.h ****   }
  59:../../../mutable-instruments/stmlib/dsp/cosine_oscillator.h ****   
  60:../../../mutable-instruments/stmlib/dsp/cosine_oscillator.h ****   inline void InitApproximate(float frequency) {
  61:../../../mutable-instruments/stmlib/dsp/cosine_oscillator.h ****     float sign = 16.0f;
  62:../../../mutable-instruments/stmlib/dsp/cosine_oscillator.h ****     frequency -= 0.25f;
  63:../../../mutable-instruments/stmlib/dsp/cosine_oscillator.h ****     if (frequency < 0.0f) {
  64:../../../mutable-instruments/stmlib/dsp/cosine_oscillator.h ****       frequency = -frequency;
  65:../../../mutable-instruments/stmlib/dsp/cosine_oscillator.h ****     } else {
ARM GAS  /var/folders/hl/qgbwny5j0fd895c2c41bk3tw0000gp/T//ccEG44Zu.s 			page 33


  66:../../../mutable-instruments/stmlib/dsp/cosine_oscillator.h ****       if (frequency > 0.5f) {
  67:../../../mutable-instruments/stmlib/dsp/cosine_oscillator.h ****         frequency -= 0.5f;
  68:../../../mutable-instruments/stmlib/dsp/cosine_oscillator.h ****       } else {
  69:../../../mutable-instruments/stmlib/dsp/cosine_oscillator.h ****         sign = -16.0f;
  70:../../../mutable-instruments/stmlib/dsp/cosine_oscillator.h ****       }
  71:../../../mutable-instruments/stmlib/dsp/cosine_oscillator.h ****     }
  72:../../../mutable-instruments/stmlib/dsp/cosine_oscillator.h ****     iir_coefficient_ = sign * frequency * (1.0f - 2.0f * frequency);
  73:../../../mutable-instruments/stmlib/dsp/cosine_oscillator.h ****     initial_amplitude_ = iir_coefficient_ * 0.25f;
  74:../../../mutable-instruments/stmlib/dsp/cosine_oscillator.h ****   }
  75:../../../mutable-instruments/stmlib/dsp/cosine_oscillator.h ****   
  76:../../../mutable-instruments/stmlib/dsp/cosine_oscillator.h ****   inline void Start() {
  77:../../../mutable-instruments/stmlib/dsp/cosine_oscillator.h ****     y1_ = initial_amplitude_;
  78:../../../mutable-instruments/stmlib/dsp/cosine_oscillator.h ****     y0_ = 0.5f;
  79:../../../mutable-instruments/stmlib/dsp/cosine_oscillator.h ****   }
  80:../../../mutable-instruments/stmlib/dsp/cosine_oscillator.h ****   
  81:../../../mutable-instruments/stmlib/dsp/cosine_oscillator.h ****   inline float value() const {
  82:../../../mutable-instruments/stmlib/dsp/cosine_oscillator.h ****     return y1_ + 0.5f;
  83:../../../mutable-instruments/stmlib/dsp/cosine_oscillator.h ****   }
  84:../../../mutable-instruments/stmlib/dsp/cosine_oscillator.h **** 
  85:../../../mutable-instruments/stmlib/dsp/cosine_oscillator.h ****   inline float Next() {
 753              		.loc 15 85 16 view .LVU175
 754              	.LBB1093:
  86:../../../mutable-instruments/stmlib/dsp/cosine_oscillator.h ****     float temp = y0_;
 755              		.loc 15 86 5 view .LVU176
 756              		.loc 15 86 11 is_stmt 0 view .LVU177
 757 0038 90ED030A 		vldr.32	s0, [r0, #12]
 758              	.LVL57:
  87:../../../mutable-instruments/stmlib/dsp/cosine_oscillator.h ****     y0_ = iir_coefficient_ * y0_ - y1_;
 759              		.loc 15 87 5 is_stmt 1 view .LVU178
  88:../../../mutable-instruments/stmlib/dsp/cosine_oscillator.h ****     y1_ = temp;
  89:../../../mutable-instruments/stmlib/dsp/cosine_oscillator.h ****     return temp + 0.5f;
 760              		.loc 15 89 19 is_stmt 0 view .LVU179
 761 003c F6EE006A 		vmov.f32	s13, #5.0e-1
 762              	.LBE1093:
 763              	.LBE1092:
 764              	.LBB1099:
 765              	.LBB1100:
  86:../../../mutable-instruments/stmlib/dsp/cosine_oscillator.h ****     y0_ = iir_coefficient_ * y0_ - y1_;
 766              		.loc 15 86 11 view .LVU180
 767 0040 90ED072A 		vldr.32	s4, [r0, #28]
 768              	.LBE1100:
 769              	.LBE1099:
 770              	.LBB1106:
 771              	.LBB1094:
  87:../../../mutable-instruments/stmlib/dsp/cosine_oscillator.h ****     y0_ = iir_coefficient_ * y0_ - y1_;
 772              		.loc 15 87 34 view .LVU181
 773 0044 90ED027A 		vldr.32	s14, [r0, #8]
 774              	.LBE1094:
 775              	.LBE1106:
 776              	.LBB1107:
 777              	.LBB1101:
 778 0048 D0ED067A 		vldr.32	s15, [r0, #24]
 779              	.LBE1101:
 780              	.LBE1107:
 781              	.LBB1108:
 782              	.LBB1095:
 783 004c 90ED041A 		vldr.32	s2, [r0, #16]
ARM GAS  /var/folders/hl/qgbwny5j0fd895c2c41bk3tw0000gp/T//ccEG44Zu.s 			page 34


 784              	.LBE1095:
 785              	.LBE1108:
 786              	.LBB1109:
 787              	.LBB1102:
 788 0050 D0ED081A 		vldr.32	s3, [r0, #32]
 789              	.LBE1102:
 790              	.LBE1109:
 791              	.LBB1110:
 792              	.LBB1096:
 793 0054 90EE017A 		vfnms.f32	s14, s0, s2
  88:../../../mutable-instruments/stmlib/dsp/cosine_oscillator.h ****     y1_ = temp;
 794              		.loc 15 88 9 view .LVU182
 795 0058 80ED020A 		vstr.32	s0, [r0, #8]
 796              	.LBE1096:
 797              	.LBE1110:
 798              	.LBB1111:
 799              	.LBB1103:
  87:../../../mutable-instruments/stmlib/dsp/cosine_oscillator.h ****     y0_ = iir_coefficient_ * y0_ - y1_;
 800              		.loc 15 87 34 view .LVU183
 801 005c D2EE217A 		vfnms.f32	s15, s4, s3
  88:../../../mutable-instruments/stmlib/dsp/cosine_oscillator.h ****     y1_ = temp;
 802              		.loc 15 88 9 view .LVU184
 803 0060 80ED062A 		vstr.32	s4, [r0, #24]
 804              	.LBE1103:
 805              	.LBE1111:
 806              	.LBB1112:
 807              	.LBB1097:
 808              		.loc 15 89 19 view .LVU185
 809 0064 30EE260A 		vadd.f32	s0, s0, s13
 810              	.LVL58:
 811              		.loc 15 89 19 view .LVU186
 812              	.LBE1097:
 813              	.LBE1112:
 814              	.LBB1113:
 815              	.LBB1104:
 816 0068 32EE262A 		vadd.f32	s4, s4, s13
 817              	.LBE1104:
 818              	.LBE1113:
 819              	.LBB1114:
 820              	.LBB1098:
  87:../../../mutable-instruments/stmlib/dsp/cosine_oscillator.h ****     y0_ = iir_coefficient_ * y0_ - y1_;
 821              		.loc 15 87 9 view .LVU187
 822 006c 80ED037A 		vstr.32	s14, [r0, #12]
 823              	.LVL59:
  88:../../../mutable-instruments/stmlib/dsp/cosine_oscillator.h ****     y1_ = temp;
 824              		.loc 15 88 5 is_stmt 1 view .LVU188
 825              		.loc 15 89 5 view .LVU189
 826              		.loc 15 89 5 is_stmt 0 view .LVU190
 827              	.LBE1098:
 828              	.LBE1114:
 829              	.LBB1115:
 830              	.LBI1099:
  85:../../../mutable-instruments/stmlib/dsp/cosine_oscillator.h ****     float temp = y0_;
 831              		.loc 15 85 16 is_stmt 1 view .LVU191
 832              	.LBB1105:
  86:../../../mutable-instruments/stmlib/dsp/cosine_oscillator.h ****     y0_ = iir_coefficient_ * y0_ - y1_;
 833              		.loc 15 86 5 view .LVU192
ARM GAS  /var/folders/hl/qgbwny5j0fd895c2c41bk3tw0000gp/T//ccEG44Zu.s 			page 35


  87:../../../mutable-instruments/stmlib/dsp/cosine_oscillator.h ****     y1_ = temp;
 834              		.loc 15 87 5 view .LVU193
  87:../../../mutable-instruments/stmlib/dsp/cosine_oscillator.h ****     y1_ = temp;
 835              		.loc 15 87 9 is_stmt 0 view .LVU194
 836 0070 C0ED077A 		vstr.32	s15, [r0, #28]
 837              	.LVL60:
  88:../../../mutable-instruments/stmlib/dsp/cosine_oscillator.h ****     return temp + 0.5f;
 838              		.loc 15 88 5 is_stmt 1 view .LVU195
 839              		.loc 15 89 5 view .LVU196
 840              	.L27:
 841              		.loc 15 89 5 is_stmt 0 view .LVU197
 842              	.LBE1105:
 843              	.LBE1115:
 844              	.LBE1091:
 845              	.LBE1090:
 846              	.LBE1124:
 847              	.LBE1127:
  96:../../../mutable-instruments/rings/dsp/fx/reverb.h **** 
 848              		.loc 12 96 7 is_stmt 1 view .LVU198
 849              	.LBB1128:
 850              	.LBB1129:
 203:../../../mutable-instruments/rings/dsp/fx/fx_engine.h ****       } else {
 851              		.loc 13 203 55 is_stmt 0 view .LVU199
 852 0074 03F19506 		add	r6, r3, #149
 853              	.LBE1129:
 854              	.LBE1128:
  96:../../../mutable-instruments/rings/dsp/fx/reverb.h **** 
 855              		.loc 12 96 14 view .LVU200
 856 0078 D4ED001A 		vldr.32	s3, [r4]
 857              	.LVL61:
 858              	.LBB1147:
 859              	.LBI1147:
 153:../../../mutable-instruments/rings/dsp/fx/fx_engine.h ****       accumulator_ += value * scale;
 860              		.loc 13 153 17 is_stmt 1 view .LVU201
 861              	.LBE1147:
  96:../../../mutable-instruments/rings/dsp/fx/reverb.h **** 
 862              		.loc 12 96 13 is_stmt 0 view .LVU202
 863 007c 92ED001A 		vldr.32	s2, [r2]
 864              	.LBB1150:
 865              	.LBB1151:
 203:../../../mutable-instruments/rings/dsp/fx/fx_engine.h ****       } else {
 866              		.loc 13 203 55 view .LVU203
 867 0080 03F5B67C 		add	ip, r3, #364
 868              	.LBE1151:
 869              	.LBE1150:
 870              	.LBB1168:
 871              	.LBB1140:
 203:../../../mutable-instruments/rings/dsp/fx/fx_engine.h ****       } else {
 872              		.loc 13 203 60 view .LVU204
 873 0084 C6F30E06 		ubfx	r6, r6, #0, #15
 874              	.LBE1140:
 875              	.LBE1168:
 876              	.LBB1169:
 877              	.LBB1148:
 154:../../../mutable-instruments/rings/dsp/fx/fx_engine.h ****     }
 878              		.loc 13 154 20 view .LVU205
 879 0088 DFEDD76A 		vldr.32	s13, .L39
ARM GAS  /var/folders/hl/qgbwny5j0fd895c2c41bk3tw0000gp/T//ccEG44Zu.s 			page 36


 880              	.LBE1148:
 881              	.LBE1169:
  96:../../../mutable-instruments/rings/dsp/fx/reverb.h **** 
 882              		.loc 12 96 13 view .LVU206
 883 008c 31EE811A 		vadd.f32	s2, s3, s2
 884              	.LVL62:
 885              	.LBB1170:
 886              	.LBB1141:
 887              	.LBB1130:
 888              	.LBB1131:
  76:../../../mutable-instruments/rings/dsp/fx/fx_engine.h ****   }
 889              		.loc 13 76 62 view .LVU207
 890 0090 9FEDD67A 		vldr.32	s14, .L39+4
  76:../../../mutable-instruments/rings/dsp/fx/fx_engine.h ****   }
 891              		.loc 13 76 12 view .LVU208
 892 0094 31F91660 		ldrsh	r6, [r1, r6, lsl #1]
 893              	.LBE1131:
 894              	.LBE1130:
 895              	.LBE1141:
 896              	.LBE1170:
 897              	.LBB1171:
 898              	.LBB1172:
 899              	.LBB1173:
 900              	.LBB1174:
 901              	.LBB1175:
 177:../../../mutable-instruments/rings/dsp/fx/fx_engine.h ****       }
 902              		.loc 13 177 49 view .LVU209
 903 0098 CEF30E0E 		ubfx	lr, lr, #0, #15
 904              	.LBE1175:
 905              	.LBE1174:
 906              	.LBE1173:
 907              	.LBE1172:
 908              	.LBE1171:
 909              	.LBB1206:
 910              	.LBB1207:
 244:../../../mutable-instruments/rings/dsp/fx/fx_engine.h ****       MAKE_INTEGRAL_FRACTIONAL(offset);
 911              		.loc 13 244 14 view .LVU210
 912 009c DFEDD40A 		vldr.32	s1, .L39+8
 913              	.LBE1207:
 914              	.LBE1206:
 915              	.LBB1244:
 916              	.LBB1162:
 203:../../../mutable-instruments/rings/dsp/fx/fx_engine.h ****       } else {
 917              		.loc 13 203 60 view .LVU211
 918 00a0 CCF30E0C 		ubfx	ip, ip, #0, #15
 919              	.LBE1162:
 920              	.LBE1244:
 921              	.LBB1245:
 922              	.LBB1142:
 923              	.LBB1136:
 924              	.LBB1132:
  76:../../../mutable-instruments/rings/dsp/fx/fx_engine.h ****   }
 925              		.loc 13 76 12 view .LVU212
 926 00a4 07EE906A 		vmov	s15, r6	@ int
 927              	.LBE1132:
 928              	.LBE1136:
 929              	.LBE1142:
ARM GAS  /var/folders/hl/qgbwny5j0fd895c2c41bk3tw0000gp/T//ccEG44Zu.s 			page 37


 930              	.LBE1245:
 931              	.LBB1246:
 932              	.LBB1149:
 154:../../../mutable-instruments/rings/dsp/fx/fx_engine.h ****     }
 933              		.loc 13 154 20 view .LVU213
 934 00a8 E1EE226A 		vfma.f32	s13, s2, s5
 935              	.LVL63:
 154:../../../mutable-instruments/rings/dsp/fx/fx_engine.h ****     }
 936              		.loc 13 154 20 view .LVU214
 937              	.LBE1149:
 938              	.LBE1246:
  99:../../../mutable-instruments/rings/dsp/fx/reverb.h ****       c.WriteAllPass(ap1, -kap);
 939              		.loc 12 99 7 is_stmt 1 view .LVU215
 940              	.LBB1247:
 941              	.LBI1128:
 199:../../../mutable-instruments/rings/dsp/fx/fx_engine.h ****       STATIC_ASSERT(D::base + D::length <= size, delay_memory_full);
 942              		.loc 13 199 17 view .LVU216
 943              	.LBB1143:
 944              	.LBB1137:
 945              	.LBI1130:
  75:../../../mutable-instruments/rings/dsp/fx/fx_engine.h ****     return static_cast<float>(static_cast<int16_t>(value)) / 32768.0f;
 946              		.loc 13 75 23 view .LVU217
 947              	.LBB1133:
  76:../../../mutable-instruments/rings/dsp/fx/fx_engine.h ****   }
 948              		.loc 13 76 5 view .LVU218
 949              	.LBE1133:
 950              	.LBE1137:
 951              	.LBE1143:
 952              	.LBE1247:
 953              	.LBB1248:
 954              	.LBB1226:
 244:../../../mutable-instruments/rings/dsp/fx/fx_engine.h ****       MAKE_INTEGRAL_FRACTIONAL(offset);
 955              		.loc 13 244 14 is_stmt 0 view .LVU219
 956 00ac 9FEDD11A 		vldr.32	s2, .L39+12
 957              	.LBE1226:
 958              	.LBE1248:
 959              	.LBB1249:
 960              	.LBB1250:
 961              	.LBB1251:
 962              	.LBB1252:
 963              	.LBB1253:
 177:../../../mutable-instruments/rings/dsp/fx/fx_engine.h ****       }
 964              		.loc 13 177 29 view .LVU220
 965 00b0 03F1970A 		add	r10, r3, #151
 966              	.LBE1253:
 967              	.LBE1252:
 968              	.LBE1251:
 969              	.LBE1250:
 970              	.LBE1249:
 971              	.LBB1272:
 972              	.LBB1144:
 973              	.LBB1138:
 974              	.LBB1134:
  76:../../../mutable-instruments/rings/dsp/fx/fx_engine.h ****   }
 975              		.loc 13 76 12 view .LVU221
 976 00b4 F8EEE77A 		vcvt.f32.s32	s15, s15
 977              	.LBE1134:
ARM GAS  /var/folders/hl/qgbwny5j0fd895c2c41bk3tw0000gp/T//ccEG44Zu.s 			page 38


 978              	.LBE1138:
 979              	.LBE1144:
 980              	.LBE1272:
 981              	.LBB1273:
 982              	.LBB1274:
 244:../../../mutable-instruments/rings/dsp/fx/fx_engine.h ****       MAKE_INTEGRAL_FRACTIONAL(offset);
 983              		.loc 13 244 14 view .LVU222
 984 00b8 9FEDCF8A 		vldr.32	s16, .L39+16
 985              	.LBE1274:
 986              	.LBE1273:
 987              	.LBB1309:
 988              	.LBB1227:
 989 00bc E2EE010A 		vfma.f32	s1, s4, s2
 990              	.LBE1227:
 991              	.LBE1309:
 992              	.LBB1310:
 993              	.LBB1293:
 994 00c0 9FEDCE1A 		vldr.32	s2, .L39+20
 995              	.LBE1293:
 996              	.LBE1310:
 997              	.LBB1311:
 998              	.LBB1312:
 203:../../../mutable-instruments/rings/dsp/fx/fx_engine.h ****       } else {
 999              		.loc 13 203 55 view .LVU223
 1000 00c4 03F52B79 		add	r9, r3, #684
 1001              	.LBE1312:
 1002              	.LBE1311:
 1003              	.LBB1323:
 1004              	.LBB1270:
 1005              	.LBB1268:
 1006              	.LBB1265:
 1007              	.LBB1262:
 177:../../../mutable-instruments/rings/dsp/fx/fx_engine.h ****       }
 1008              		.loc 13 177 49 view .LVU224
 1009 00c8 CAF30E0A 		ubfx	r10, r10, #0, #15
 1010              	.LBE1262:
 1011              	.LBE1265:
 1012              	.LBE1268:
 1013              	.LBE1270:
 1014              	.LBE1323:
 1015              	.LBB1324:
 1016              	.LBB1145:
 1017              	.LBB1139:
 1018              	.LBB1135:
  76:../../../mutable-instruments/rings/dsp/fx/fx_engine.h ****   }
 1019              		.loc 13 76 62 view .LVU225
 1020 00cc 67EE877A 		vmul.f32	s15, s15, s14
 1021              	.LVL64:
  76:../../../mutable-instruments/rings/dsp/fx/fx_engine.h ****   }
 1022              		.loc 13 76 62 view .LVU226
 1023              	.LBE1135:
 1024              	.LBE1139:
 1025              	.LBE1145:
 1026              	.LBE1324:
 1027              	.LBB1325:
 1028              	.LBB1326:
 1029              	.LBB1327:
ARM GAS  /var/folders/hl/qgbwny5j0fd895c2c41bk3tw0000gp/T//ccEG44Zu.s 			page 39


 1030              	.LBB1328:
 1031              	.LBB1329:
 177:../../../mutable-instruments/rings/dsp/fx/fx_engine.h ****       }
 1032              		.loc 13 177 29 view .LVU227
 1033 00d0 03F5B778 		add	r8, r3, #366
 1034              	.LBE1329:
 1035              	.LBE1328:
 1036              	.LBE1327:
 1037              	.LBE1326:
 1038              	.LBE1325:
 1039              	.LBB1348:
 1040              	.LBB1294:
 244:../../../mutable-instruments/rings/dsp/fx/fx_engine.h ****       MAKE_INTEGRAL_FRACTIONAL(offset);
 1041              		.loc 13 244 14 view .LVU228
 1042 00d4 A0EE081A 		vfma.f32	s2, s0, s16
 1043              	.LBE1294:
 1044              	.LBE1348:
 1045              	.LBB1349:
 1046              	.LBB1319:
 203:../../../mutable-instruments/rings/dsp/fx/fx_engine.h ****       } else {
 1047              		.loc 13 203 60 view .LVU229
 1048 00d8 C9F30E09 		ubfx	r9, r9, #0, #15
 1049              	.LBE1319:
 1050              	.LBE1349:
 1051              	.LBB1350:
 1052              	.LBB1351:
 203:../../../mutable-instruments/rings/dsp/fx/fx_engine.h ****       } else {
 1053              		.loc 13 203 55 view .LVU230
 1054 00dc 03F2BC46 		addw	r6, r3, #1212
 1055              	.LBE1351:
 1056              	.LBE1350:
 1057              	.LBB1369:
 1058              	.LBB1346:
 1059              	.LBB1344:
 1060              	.LBB1341:
 1061              	.LBB1338:
 177:../../../mutable-instruments/rings/dsp/fx/fx_engine.h ****       }
 1062              		.loc 13 177 49 view .LVU231
 1063 00e0 C8F30E08 		ubfx	r8, r8, #0, #15
 1064              	.LBE1338:
 1065              	.LBE1341:
 1066              	.LBE1344:
 1067              	.LBE1346:
 1068              	.LBE1369:
 1069              	.LBB1370:
 1070              	.LBB1146:
 209:../../../mutable-instruments/rings/dsp/fx/fx_engine.h ****     }
 1071              		.loc 13 209 20 view .LVU232
 1072 00e4 E6EE276A 		vfma.f32	s13, s12, s15
 1073              	.LVL65:
 209:../../../mutable-instruments/rings/dsp/fx/fx_engine.h ****     }
 1074              		.loc 13 209 20 view .LVU233
 1075              	.LBE1146:
 1076              	.LBE1370:
 1077              		.loc 12 100 7 is_stmt 1 view .LVU234
 1078              	.LBB1371:
 1079              	.LBI1171:
ARM GAS  /var/folders/hl/qgbwny5j0fd895c2c41bk3tw0000gp/T//ccEG44Zu.s 			page 40


 194:../../../mutable-instruments/rings/dsp/fx/fx_engine.h ****       WriteAllPass(d, 0, scale);
 1080              		.loc 13 194 17 view .LVU235
 1081              	.LBB1202:
 1082              	.LBI1172:
 188:../../../mutable-instruments/rings/dsp/fx/fx_engine.h ****       Write(d, offset, scale);
 1083              		.loc 13 188 17 view .LVU236
 1084              	.LBB1198:
 1085              	.LBB1193:
 1086              	.LBI1174:
 171:../../../mutable-instruments/rings/dsp/fx/fx_engine.h ****       STATIC_ASSERT(D::base + D::length <= size, delay_memory_full);
 1087              		.loc 13 171 17 view .LVU237
 1088              	.LBB1188:
 1089              	.LBB1176:
 1090              	.LBI1176:
  79:../../../mutable-instruments/rings/dsp/fx/fx_engine.h ****     return static_cast<uint16_t>(
 1091              		.loc 13 79 19 view .LVU238
 1092              	.LBB1177:
  80:../../../mutable-instruments/rings/dsp/fx/fx_engine.h ****         stmlib::Clip16(static_cast<int32_t>(value * 32768.0f)));
 1093              		.loc 13 80 5 view .LVU239
 1094              	.LBB1178:
 1095              	.LBI1178:
 1096              		.file 16 "../../../mutable-instruments/stmlib/dsp/dsp.h"
   1:../../../mutable-instruments/stmlib/dsp/dsp.h **** // Copyright 2012 Emilie Gillet.
   2:../../../mutable-instruments/stmlib/dsp/dsp.h **** //
   3:../../../mutable-instruments/stmlib/dsp/dsp.h **** // Author: Emilie Gillet (emilie.o.gillet@gmail.com)
   4:../../../mutable-instruments/stmlib/dsp/dsp.h **** //
   5:../../../mutable-instruments/stmlib/dsp/dsp.h **** // Permission is hereby granted, free of charge, to any person obtaining a copy
   6:../../../mutable-instruments/stmlib/dsp/dsp.h **** // of this software and associated documentation files (the "Software"), to deal
   7:../../../mutable-instruments/stmlib/dsp/dsp.h **** // in the Software without restriction, including without limitation the rights
   8:../../../mutable-instruments/stmlib/dsp/dsp.h **** // to use, copy, modify, merge, publish, distribute, sublicense, and/or sell
   9:../../../mutable-instruments/stmlib/dsp/dsp.h **** // copies of the Software, and to permit persons to whom the Software is
  10:../../../mutable-instruments/stmlib/dsp/dsp.h **** // furnished to do so, subject to the following conditions:
  11:../../../mutable-instruments/stmlib/dsp/dsp.h **** // 
  12:../../../mutable-instruments/stmlib/dsp/dsp.h **** // The above copyright notice and this permission notice shall be included in
  13:../../../mutable-instruments/stmlib/dsp/dsp.h **** // all copies or substantial portions of the Software.
  14:../../../mutable-instruments/stmlib/dsp/dsp.h **** // 
  15:../../../mutable-instruments/stmlib/dsp/dsp.h **** // THE SOFTWARE IS PROVIDED "AS IS", WITHOUT WARRANTY OF ANY KIND, EXPRESS OR
  16:../../../mutable-instruments/stmlib/dsp/dsp.h **** // IMPLIED, INCLUDING BUT NOT LIMITED TO THE WARRANTIES OF MERCHANTABILITY,
  17:../../../mutable-instruments/stmlib/dsp/dsp.h **** // FITNESS FOR A PARTICULAR PURPOSE AND NONINFRINGEMENT. IN NO EVENT SHALL THE
  18:../../../mutable-instruments/stmlib/dsp/dsp.h **** // AUTHORS OR COPYRIGHT HOLDERS BE LIABLE FOR ANY CLAIM, DAMAGES OR OTHER
  19:../../../mutable-instruments/stmlib/dsp/dsp.h **** // LIABILITY, WHETHER IN AN ACTION OF CONTRACT, TORT OR OTHERWISE, ARISING FROM,
  20:../../../mutable-instruments/stmlib/dsp/dsp.h **** // OUT OF OR IN CONNECTION WITH THE SOFTWARE OR THE USE OR OTHER DEALINGS IN
  21:../../../mutable-instruments/stmlib/dsp/dsp.h **** // THE SOFTWARE.
  22:../../../mutable-instruments/stmlib/dsp/dsp.h **** // 
  23:../../../mutable-instruments/stmlib/dsp/dsp.h **** // See http://creativecommons.org/licenses/MIT/ for more information.
  24:../../../mutable-instruments/stmlib/dsp/dsp.h **** //
  25:../../../mutable-instruments/stmlib/dsp/dsp.h **** // -----------------------------------------------------------------------------
  26:../../../mutable-instruments/stmlib/dsp/dsp.h **** //
  27:../../../mutable-instruments/stmlib/dsp/dsp.h **** // DSP utility routines.
  28:../../../mutable-instruments/stmlib/dsp/dsp.h **** 
  29:../../../mutable-instruments/stmlib/dsp/dsp.h **** #ifndef STMLIB_UTILS_DSP_DSP_H_
  30:../../../mutable-instruments/stmlib/dsp/dsp.h **** #define STMLIB_UTILS_DSP_DSP_H_
  31:../../../mutable-instruments/stmlib/dsp/dsp.h **** 
  32:../../../mutable-instruments/stmlib/dsp/dsp.h **** #include "stmlib/stmlib.h"
  33:../../../mutable-instruments/stmlib/dsp/dsp.h **** 
  34:../../../mutable-instruments/stmlib/dsp/dsp.h **** #include <cmath>
  35:../../../mutable-instruments/stmlib/dsp/dsp.h **** #include <math.h>
ARM GAS  /var/folders/hl/qgbwny5j0fd895c2c41bk3tw0000gp/T//ccEG44Zu.s 			page 41


  36:../../../mutable-instruments/stmlib/dsp/dsp.h **** 
  37:../../../mutable-instruments/stmlib/dsp/dsp.h **** namespace stmlib {
  38:../../../mutable-instruments/stmlib/dsp/dsp.h **** 
  39:../../../mutable-instruments/stmlib/dsp/dsp.h **** #define MAKE_INTEGRAL_FRACTIONAL(x) \
  40:../../../mutable-instruments/stmlib/dsp/dsp.h ****   int32_t x ## _integral = static_cast<int32_t>(x); \
  41:../../../mutable-instruments/stmlib/dsp/dsp.h ****   float x ## _fractional = x - static_cast<float>(x ## _integral);
  42:../../../mutable-instruments/stmlib/dsp/dsp.h **** 
  43:../../../mutable-instruments/stmlib/dsp/dsp.h **** inline float Interpolate(const float* table, float index, float size) {
  44:../../../mutable-instruments/stmlib/dsp/dsp.h ****   index *= size;
  45:../../../mutable-instruments/stmlib/dsp/dsp.h ****   MAKE_INTEGRAL_FRACTIONAL(index)
  46:../../../mutable-instruments/stmlib/dsp/dsp.h ****   float a = table[index_integral];
  47:../../../mutable-instruments/stmlib/dsp/dsp.h ****   float b = table[index_integral + 1];
  48:../../../mutable-instruments/stmlib/dsp/dsp.h ****   return a + (b - a) * index_fractional;
  49:../../../mutable-instruments/stmlib/dsp/dsp.h **** }
  50:../../../mutable-instruments/stmlib/dsp/dsp.h **** 
  51:../../../mutable-instruments/stmlib/dsp/dsp.h **** 
  52:../../../mutable-instruments/stmlib/dsp/dsp.h **** inline float InterpolateHermite(const float* table, float index, float size) {
  53:../../../mutable-instruments/stmlib/dsp/dsp.h ****   index *= size;
  54:../../../mutable-instruments/stmlib/dsp/dsp.h ****   MAKE_INTEGRAL_FRACTIONAL(index)
  55:../../../mutable-instruments/stmlib/dsp/dsp.h ****   const float xm1 = table[index_integral - 1];
  56:../../../mutable-instruments/stmlib/dsp/dsp.h ****   const float x0 = table[index_integral + 0];
  57:../../../mutable-instruments/stmlib/dsp/dsp.h ****   const float x1 = table[index_integral + 1];
  58:../../../mutable-instruments/stmlib/dsp/dsp.h ****   const float x2 = table[index_integral + 2];
  59:../../../mutable-instruments/stmlib/dsp/dsp.h ****   const float c = (x1 - xm1) * 0.5f;
  60:../../../mutable-instruments/stmlib/dsp/dsp.h ****   const float v = x0 - x1;
  61:../../../mutable-instruments/stmlib/dsp/dsp.h ****   const float w = c + v;
  62:../../../mutable-instruments/stmlib/dsp/dsp.h ****   const float a = w + v + (x2 - x0) * 0.5f;
  63:../../../mutable-instruments/stmlib/dsp/dsp.h ****   const float b_neg = w + a;
  64:../../../mutable-instruments/stmlib/dsp/dsp.h ****   const float f = index_fractional;
  65:../../../mutable-instruments/stmlib/dsp/dsp.h ****   return (((a * f) - b_neg) * f + c) * f + x0;
  66:../../../mutable-instruments/stmlib/dsp/dsp.h **** }
  67:../../../mutable-instruments/stmlib/dsp/dsp.h **** 
  68:../../../mutable-instruments/stmlib/dsp/dsp.h **** inline float InterpolateWrap(const float* table, float index, float size) {
  69:../../../mutable-instruments/stmlib/dsp/dsp.h ****   index -= static_cast<float>(static_cast<int32_t>(index));
  70:../../../mutable-instruments/stmlib/dsp/dsp.h ****   index *= size;
  71:../../../mutable-instruments/stmlib/dsp/dsp.h ****   MAKE_INTEGRAL_FRACTIONAL(index)
  72:../../../mutable-instruments/stmlib/dsp/dsp.h ****   float a = table[index_integral];
  73:../../../mutable-instruments/stmlib/dsp/dsp.h ****   float b = table[index_integral + 1];
  74:../../../mutable-instruments/stmlib/dsp/dsp.h ****   return a + (b - a) * index_fractional;
  75:../../../mutable-instruments/stmlib/dsp/dsp.h **** }
  76:../../../mutable-instruments/stmlib/dsp/dsp.h **** 
  77:../../../mutable-instruments/stmlib/dsp/dsp.h **** inline float SmoothStep(float value) {
  78:../../../mutable-instruments/stmlib/dsp/dsp.h ****   return value * value * (3.0f - 2.0f * value);
  79:../../../mutable-instruments/stmlib/dsp/dsp.h **** }
  80:../../../mutable-instruments/stmlib/dsp/dsp.h **** 
  81:../../../mutable-instruments/stmlib/dsp/dsp.h **** #define ONE_POLE(out, in, coefficient) out += (coefficient) * ((in) - out);
  82:../../../mutable-instruments/stmlib/dsp/dsp.h **** #define SLOPE(out, in, positive, negative) { \
  83:../../../mutable-instruments/stmlib/dsp/dsp.h ****   float error = (in) - out; \
  84:../../../mutable-instruments/stmlib/dsp/dsp.h ****   out += (error > 0 ? positive : negative) * error; \
  85:../../../mutable-instruments/stmlib/dsp/dsp.h **** }
  86:../../../mutable-instruments/stmlib/dsp/dsp.h **** #define SLEW(out, in, delta) { \
  87:../../../mutable-instruments/stmlib/dsp/dsp.h ****   float error = (in) - out; \
  88:../../../mutable-instruments/stmlib/dsp/dsp.h ****   float d = (delta); \
  89:../../../mutable-instruments/stmlib/dsp/dsp.h ****   if (error > d) { \
  90:../../../mutable-instruments/stmlib/dsp/dsp.h ****     error = d; \
  91:../../../mutable-instruments/stmlib/dsp/dsp.h ****   } else if (error < -d) { \
  92:../../../mutable-instruments/stmlib/dsp/dsp.h ****     error = -d; \
ARM GAS  /var/folders/hl/qgbwny5j0fd895c2c41bk3tw0000gp/T//ccEG44Zu.s 			page 42


  93:../../../mutable-instruments/stmlib/dsp/dsp.h ****   } \
  94:../../../mutable-instruments/stmlib/dsp/dsp.h ****   out += error; \
  95:../../../mutable-instruments/stmlib/dsp/dsp.h **** }
  96:../../../mutable-instruments/stmlib/dsp/dsp.h **** 
  97:../../../mutable-instruments/stmlib/dsp/dsp.h **** inline float Crossfade(float a, float b, float fade) {
  98:../../../mutable-instruments/stmlib/dsp/dsp.h ****   return a + (b - a) * fade;
  99:../../../mutable-instruments/stmlib/dsp/dsp.h **** }
 100:../../../mutable-instruments/stmlib/dsp/dsp.h **** 
 101:../../../mutable-instruments/stmlib/dsp/dsp.h **** inline float SoftLimit(float x) {
 102:../../../mutable-instruments/stmlib/dsp/dsp.h ****   return x * (27.0f + x * x) / (27.0f + 9.0f * x * x);
 103:../../../mutable-instruments/stmlib/dsp/dsp.h **** }
 104:../../../mutable-instruments/stmlib/dsp/dsp.h **** 
 105:../../../mutable-instruments/stmlib/dsp/dsp.h **** inline float SoftClip(float x) {
 106:../../../mutable-instruments/stmlib/dsp/dsp.h ****   if (x < -3.0f) {
 107:../../../mutable-instruments/stmlib/dsp/dsp.h ****     return -1.0f;
 108:../../../mutable-instruments/stmlib/dsp/dsp.h ****   } else if (x > 3.0f) {
 109:../../../mutable-instruments/stmlib/dsp/dsp.h ****     return 1.0f;
 110:../../../mutable-instruments/stmlib/dsp/dsp.h ****   } else {
 111:../../../mutable-instruments/stmlib/dsp/dsp.h ****     return SoftLimit(x);
 112:../../../mutable-instruments/stmlib/dsp/dsp.h ****   }
 113:../../../mutable-instruments/stmlib/dsp/dsp.h **** }
 114:../../../mutable-instruments/stmlib/dsp/dsp.h **** 
 115:../../../mutable-instruments/stmlib/dsp/dsp.h **** #ifdef TEST
 116:../../../mutable-instruments/stmlib/dsp/dsp.h ****   inline int32_t Clip16(int32_t x) {
 117:../../../mutable-instruments/stmlib/dsp/dsp.h ****     if (x < -32768) {
 118:../../../mutable-instruments/stmlib/dsp/dsp.h ****       return -32768;
 119:../../../mutable-instruments/stmlib/dsp/dsp.h ****     } else if (x > 32767) {
 120:../../../mutable-instruments/stmlib/dsp/dsp.h ****       return 32767;
 121:../../../mutable-instruments/stmlib/dsp/dsp.h ****     } else {
 122:../../../mutable-instruments/stmlib/dsp/dsp.h ****       return x;
 123:../../../mutable-instruments/stmlib/dsp/dsp.h ****     }
 124:../../../mutable-instruments/stmlib/dsp/dsp.h ****   }
 125:../../../mutable-instruments/stmlib/dsp/dsp.h ****   inline uint16_t ClipU16(int32_t x) {
 126:../../../mutable-instruments/stmlib/dsp/dsp.h ****     if (x < 0) {
 127:../../../mutable-instruments/stmlib/dsp/dsp.h ****       return 0;
 128:../../../mutable-instruments/stmlib/dsp/dsp.h ****     } else if (x > 65535) {
 129:../../../mutable-instruments/stmlib/dsp/dsp.h ****       return 65535;
 130:../../../mutable-instruments/stmlib/dsp/dsp.h ****     } else {
 131:../../../mutable-instruments/stmlib/dsp/dsp.h ****       return x;
 132:../../../mutable-instruments/stmlib/dsp/dsp.h ****     }
 133:../../../mutable-instruments/stmlib/dsp/dsp.h ****   }
 134:../../../mutable-instruments/stmlib/dsp/dsp.h **** #else
 135:../../../mutable-instruments/stmlib/dsp/dsp.h ****   inline int32_t Clip16(int32_t x) {
 1097              		.loc 16 135 18 view .LVU240
 1098              	.LBB1179:
 136:../../../mutable-instruments/stmlib/dsp/dsp.h ****     int32_t result;
 1099              		.loc 16 136 5 view .LVU241
 137:../../../mutable-instruments/stmlib/dsp/dsp.h ****     __asm ("ssat %0, %1, %2" : "=r" (result) :  "I" (16), "r" (x) );
 1100              		.loc 16 137 5 view .LVU242
 1101              	.LBE1179:
 1102              	.LBE1178:
 1103              	.LBE1177:
 1104              	.LBE1176:
 1105              	.LBE1188:
 1106              	.LBE1193:
 1107              	.LBE1198:
 1108              	.LBE1202:
ARM GAS  /var/folders/hl/qgbwny5j0fd895c2c41bk3tw0000gp/T//ccEG44Zu.s 			page 43


 1109              	.LBE1371:
 1110              	.LBB1372:
 1111              	.LBB1373:
 1112              	.LBB1374:
 1113              	.LBB1375:
 1114              	.LBB1376:
 177:../../../mutable-instruments/rings/dsp/fx/fx_engine.h ****       }
 1115              		.loc 13 177 29 is_stmt 0 view .LVU243
 1116 00e8 03F2AE27 		addw	r7, r3, #686
 1117              	.LBE1376:
 1118              	.LBE1375:
 1119              	.LBE1374:
 1120              	.LBE1373:
 1121              	.LBE1372:
 1122              	.LBB1395:
 1123              	.LBB1362:
 203:../../../mutable-instruments/rings/dsp/fx/fx_engine.h ****       } else {
 1124              		.loc 13 203 60 view .LVU244
 1125 00ec C6F30E06 		ubfx	r6, r6, #0, #15
 1126              	.LBE1362:
 1127              	.LBE1395:
 101:../../../mutable-instruments/rings/dsp/fx/reverb.h ****       c.Read(ap2 TAIL, kap);
 102:../../../mutable-instruments/rings/dsp/fx/reverb.h ****       c.WriteAllPass(ap2, -kap);
 103:../../../mutable-instruments/rings/dsp/fx/reverb.h ****       c.Read(ap3 TAIL, kap);
 104:../../../mutable-instruments/rings/dsp/fx/reverb.h ****       c.WriteAllPass(ap3, -kap);
 105:../../../mutable-instruments/rings/dsp/fx/reverb.h ****       c.Read(ap4 TAIL, kap);
 106:../../../mutable-instruments/rings/dsp/fx/reverb.h ****       c.WriteAllPass(ap4, -kap);
 107:../../../mutable-instruments/rings/dsp/fx/reverb.h ****       c.Write(apout);
 108:../../../mutable-instruments/rings/dsp/fx/reverb.h ****       
 109:../../../mutable-instruments/rings/dsp/fx/reverb.h ****       // Main reverb loop.
 110:../../../mutable-instruments/rings/dsp/fx/reverb.h ****       c.Load(apout);
 111:../../../mutable-instruments/rings/dsp/fx/reverb.h ****       c.Interpolate(del2, 6261.0f, LFO_2, 50.0f, krt);
 112:../../../mutable-instruments/rings/dsp/fx/reverb.h ****       c.Lp(lp_1, klp);
 113:../../../mutable-instruments/rings/dsp/fx/reverb.h ****       c.Read(dap1a TAIL, -kap);
 114:../../../mutable-instruments/rings/dsp/fx/reverb.h ****       c.WriteAllPass(dap1a, kap);
 115:../../../mutable-instruments/rings/dsp/fx/reverb.h ****       c.Read(dap1b TAIL, kap);
 116:../../../mutable-instruments/rings/dsp/fx/reverb.h ****       c.WriteAllPass(dap1b, -kap);
 117:../../../mutable-instruments/rings/dsp/fx/reverb.h ****       c.Write(del1, 2.0f);
 118:../../../mutable-instruments/rings/dsp/fx/reverb.h ****       c.Write(wet, 0.0f);
 119:../../../mutable-instruments/rings/dsp/fx/reverb.h **** 
 120:../../../mutable-instruments/rings/dsp/fx/reverb.h ****       *left += (wet - *left) * amount;
 1128              		.loc 12 120 21 view .LVU245
 1129 00f0 B0EE002A 		vmov.f32	s4, #2.0e+0
 1130              	.LVL66:
 1131              	.LBB1396:
 1132              	.LBB1393:
 1133              	.LBB1391:
 1134              	.LBB1388:
 1135              	.LBB1385:
 177:../../../mutable-instruments/rings/dsp/fx/fx_engine.h ****       }
 1136              		.loc 13 177 49 view .LVU246
 1137 00f4 C7F30E07 		ubfx	r7, r7, #0, #15
 1138              	.LBE1385:
 1139              	.LBE1388:
 1140              	.LBE1391:
 1141              	.LBE1393:
 1142              	.LBE1396:
ARM GAS  /var/folders/hl/qgbwny5j0fd895c2c41bk3tw0000gp/T//ccEG44Zu.s 			page 44


 1143              	.LBE1725:
  87:../../../mutable-instruments/rings/dsp/fx/reverb.h ****       float wet;
 1144              		.loc 12 87 16 view .LVU247
 1145 00f8 013D     		subs	r5, r5, #1
 1146              	.LVL67:
 1147              	.LBB1726:
 1148              	.LBB1397:
 1149              	.LBB1295:
 245:../../../mutable-instruments/rings/dsp/fx/fx_engine.h ****       float a = DataType<format>::Decompress(
 1150              		.loc 13 245 7 view .LVU248
 1151 00fa BDEEC18A 		vcvt.s32.f32	s16, s2
 1152              	.LBE1295:
 1153              	.LBE1397:
 1154              	.LBB1398:
 1155              	.LBB1203:
 1156              	.LBB1199:
 1157              	.LBB1194:
 1158              	.LBB1189:
 1159              	.LBB1185:
 1160              	.LBB1182:
  81:../../../mutable-instruments/rings/dsp/fx/fx_engine.h ****   }
 1161              		.loc 13 81 23 view .LVU249
 1162 00fe B0EE660A 		vmov.f32	s0, s13
 1163              	.LVL68:
  81:../../../mutable-instruments/rings/dsp/fx/fx_engine.h ****   }
 1164              		.loc 13 81 23 view .LVU250
 1165              	.LBE1182:
 1166              	.LBE1185:
 1167              	.LBE1189:
 1168              	.LBE1194:
 190:../../../mutable-instruments/rings/dsp/fx/fx_engine.h ****     }
 1169              		.loc 13 190 20 view .LVU251
 1170 0102 E5EEA67A 		vfma.f32	s15, s11, s13
 1171              	.LVL69:
 1172              	.LBB1195:
 1173              	.LBB1190:
 1174              	.LBB1186:
 1175              	.LBB1183:
  81:../../../mutable-instruments/rings/dsp/fx/fx_engine.h ****   }
 1176              		.loc 13 81 23 view .LVU252
 1177 0106 BEEEE80A 		vcvt.s32.f32	s0, s0, #15
 1178 010a 10EE10BA 		vmov	fp, s0	@ int
 1179              	.LBE1183:
 1180              	.LBE1186:
 1181              	.LBE1190:
 1182              	.LBE1195:
 1183              	.LBE1199:
 1184              	.LBE1203:
 1185              	.LBE1398:
 1186              	.LBB1399:
 1187              	.LBB1228:
 245:../../../mutable-instruments/rings/dsp/fx/fx_engine.h ****       float a = DataType<format>::Decompress(
 1188              		.loc 13 245 7 view .LVU253
 1189 010e BDEEE00A 		vcvt.s32.f32	s0, s1
 1190              	.LBE1228:
 1191              	.LBE1399:
 1192              	.LBB1400:
ARM GAS  /var/folders/hl/qgbwny5j0fd895c2c41bk3tw0000gp/T//ccEG44Zu.s 			page 45


 1193              	.LBB1204:
 1194              	.LBB1200:
 1195              	.LBB1196:
 1196              	.LBB1191:
 1197              	.LBB1187:
 1198              	.LBB1184:
 1199              	.LBB1181:
 1200              	.LBB1180:
 1201              		.loc 16 137 5 view .LVU254
 1202              		.syntax unified
 1203              	@ 137 "../../../mutable-instruments/stmlib/dsp/dsp.h" 1
 1204 0112 0BF30F0B 		ssat fp, #16, fp
 1205              	@ 0 "" 2
 1206              	.LVL70:
 138:../../../mutable-instruments/stmlib/dsp/dsp.h ****     return result;
 1207              		.loc 16 138 5 is_stmt 1 view .LVU255
 1208              		.loc 16 138 5 is_stmt 0 view .LVU256
 1209              		.thumb
 1210              		.syntax unified
 1211              	.LBE1180:
 1212              	.LBE1181:
  81:../../../mutable-instruments/rings/dsp/fx/fx_engine.h ****   }
 1213              		.loc 13 81 63 view .LVU257
 1214 0116 21F81EB0 		strh	fp, [r1, lr, lsl #1]	@ movhi
 1215              	.LVL71:
  81:../../../mutable-instruments/rings/dsp/fx/fx_engine.h ****   }
 1216              		.loc 13 81 63 view .LVU258
 1217              	.LBE1184:
 1218              	.LBE1187:
 1219              	.LBE1191:
 1220              	.LBE1196:
 1221              	.LBE1200:
 1222              	.LBE1204:
 1223              	.LBE1400:
 101:../../../mutable-instruments/rings/dsp/fx/reverb.h ****       c.WriteAllPass(ap2, -kap);
 1224              		.loc 12 101 7 is_stmt 1 view .LVU259
 1225              	.LBB1401:
 1226              	.LBI1150:
 199:../../../mutable-instruments/rings/dsp/fx/fx_engine.h ****       STATIC_ASSERT(D::base + D::length <= size, delay_memory_full);
 1227              		.loc 13 199 17 view .LVU260
 1228              	.LBB1163:
 1229              	.LBB1152:
 1230              	.LBI1152:
  75:../../../mutable-instruments/rings/dsp/fx/fx_engine.h ****     return static_cast<float>(static_cast<int16_t>(value)) / 32768.0f;
 1231              		.loc 13 75 23 view .LVU261
 1232              	.LBB1153:
  76:../../../mutable-instruments/rings/dsp/fx/fx_engine.h ****   }
 1233              		.loc 13 76 5 view .LVU262
 1234              	.LBE1153:
 1235              	.LBE1152:
 1236              	.LBE1163:
 1237              	.LBE1401:
 1238              	.LBB1402:
 1239              	.LBB1229:
 247:../../../mutable-instruments/rings/dsp/fx/fx_engine.h ****       float b = DataType<format>::Decompress(
 1240              		.loc 13 247 49 is_stmt 0 view .LVU263
 1241 011a 43F6D23E 		movw	lr, #15314
ARM GAS  /var/folders/hl/qgbwny5j0fd895c2c41bk3tw0000gp/T//ccEG44Zu.s 			page 46


 1242              	.LBE1229:
 1243              	.LBE1402:
 1244              	.LBB1403:
 1245              	.LBB1164:
 1246              	.LBB1158:
 1247              	.LBB1154:
  76:../../../mutable-instruments/rings/dsp/fx/fx_engine.h ****   }
 1248              		.loc 13 76 12 view .LVU264
 1249 011e 31F91CC0 		ldrsh	ip, [r1, ip, lsl #1]
 1250              	.LBE1154:
 1251              	.LBE1158:
 1252              	.LBE1164:
 1253              	.LBE1403:
 1254              	.LBB1404:
 1255              	.LBB1230:
 245:../../../mutable-instruments/rings/dsp/fx/fx_engine.h ****       float a = DataType<format>::Decompress(
 1256              		.loc 13 245 7 view .LVU265
 1257 0122 F8EEC08A 		vcvt.f32.s32	s17, s0
 1258              	.LBE1230:
 1259              	.LBE1404:
 1260              	.LBB1405:
 1261              	.LBB1165:
 1262              	.LBB1159:
 1263              	.LBB1155:
  76:../../../mutable-instruments/rings/dsp/fx/fx_engine.h ****   }
 1264              		.loc 13 76 12 view .LVU266
 1265 0126 06EE90CA 		vmov	s13, ip	@ int
 1266              	.LBE1155:
 1267              	.LBE1159:
 1268              	.LBE1165:
 1269              	.LBE1405:
 1270              	.LBB1406:
 1271              	.LBB1231:
 247:../../../mutable-instruments/rings/dsp/fx/fx_engine.h ****       float b = DataType<format>::Decompress(
 1272              		.loc 13 247 31 view .LVU267
 1273 012a 10EE10CA 		vmov	ip, s0	@ int
 1274              	.LBE1231:
 1275              	.LBE1406:
 1276              	.LBB1407:
 1277              	.LBB1296:
 245:../../../mutable-instruments/rings/dsp/fx/fx_engine.h ****       float a = DataType<format>::Decompress(
 1278              		.loc 13 245 7 view .LVU268
 1279 012e B8EEC80A 		vcvt.f32.s32	s0, s16
 1280              	.LBE1296:
 1281              	.LBE1407:
 1282              	.LBB1408:
 1283              	.LBB1166:
 1284              	.LBB1160:
 1285              	.LBB1156:
  76:../../../mutable-instruments/rings/dsp/fx/fx_engine.h ****   }
 1286              		.loc 13 76 12 view .LVU269
 1287 0132 F8EEE66A 		vcvt.f32.s32	s13, s13
 1288              	.LBE1156:
 1289              	.LBE1160:
 1290              	.LBE1166:
 1291              	.LBE1408:
 1292              	.LBB1409:
ARM GAS  /var/folders/hl/qgbwny5j0fd895c2c41bk3tw0000gp/T//ccEG44Zu.s 			page 47


 1293              	.LBB1232:
 247:../../../mutable-instruments/rings/dsp/fx/fx_engine.h ****       float b = DataType<format>::Decompress(
 1294              		.loc 13 247 31 view .LVU270
 1295 0136 9C44     		add	ip, ip, r3
 245:../../../mutable-instruments/rings/dsp/fx/fx_engine.h ****       float a = DataType<format>::Decompress(
 1296              		.loc 13 245 7 view .LVU271
 1297 0138 70EEE80A 		vsub.f32	s1, s1, s17
 1298              	.LBE1232:
 1299              	.LBE1409:
 1300              	.LBB1410:
 1301              	.LBB1297:
 1302 013c 31EE401A 		vsub.f32	s2, s2, s0
 1303              	.LBE1297:
 1304              	.LBE1410:
 1305              	.LBB1411:
 1306              	.LBB1167:
 1307              	.LBB1161:
 1308              	.LBB1157:
  76:../../../mutable-instruments/rings/dsp/fx/fx_engine.h ****   }
 1309              		.loc 13 76 62 view .LVU272
 1310 0140 66EE876A 		vmul.f32	s13, s13, s14
 1311              	.LVL72:
  76:../../../mutable-instruments/rings/dsp/fx/fx_engine.h ****   }
 1312              		.loc 13 76 62 view .LVU273
 1313              	.LBE1157:
 1314              	.LBE1161:
 209:../../../mutable-instruments/rings/dsp/fx/fx_engine.h ****     }
 1315              		.loc 13 209 20 view .LVU274
 1316 0144 E6EE267A 		vfma.f32	s15, s12, s13
 1317              	.LVL73:
 209:../../../mutable-instruments/rings/dsp/fx/fx_engine.h ****     }
 1318              		.loc 13 209 20 view .LVU275
 1319              	.LBE1167:
 1320              	.LBE1411:
 102:../../../mutable-instruments/rings/dsp/fx/reverb.h ****       c.Read(ap3 TAIL, kap);
 1321              		.loc 12 102 7 is_stmt 1 view .LVU276
 1322              	.LBB1412:
 1323              	.LBI1249:
 194:../../../mutable-instruments/rings/dsp/fx/fx_engine.h ****       WriteAllPass(d, 0, scale);
 1324              		.loc 13 194 17 view .LVU277
 1325              	.LBB1271:
 1326              	.LBI1250:
 188:../../../mutable-instruments/rings/dsp/fx/fx_engine.h ****       Write(d, offset, scale);
 1327              		.loc 13 188 17 view .LVU278
 1328              	.LBB1269:
 1329              	.LBB1266:
 1330              	.LBI1252:
 171:../../../mutable-instruments/rings/dsp/fx/fx_engine.h ****       STATIC_ASSERT(D::base + D::length <= size, delay_memory_full);
 1331              		.loc 13 171 17 view .LVU279
 1332              	.LBB1263:
 1333              	.LBB1254:
 1334              	.LBI1254:
  79:../../../mutable-instruments/rings/dsp/fx/fx_engine.h ****     return static_cast<uint16_t>(
 1335              		.loc 13 79 19 view .LVU280
 1336              	.LBB1255:
  80:../../../mutable-instruments/rings/dsp/fx/fx_engine.h ****         stmlib::Clip16(static_cast<int32_t>(value * 32768.0f)));
 1337              		.loc 13 80 5 view .LVU281
ARM GAS  /var/folders/hl/qgbwny5j0fd895c2c41bk3tw0000gp/T//ccEG44Zu.s 			page 48


 1338              	.LBB1256:
 1339              	.LBI1256:
 135:../../../mutable-instruments/stmlib/dsp/dsp.h ****     int32_t result;
 1340              		.loc 16 135 18 view .LVU282
 1341              	.LBB1257:
 136:../../../mutable-instruments/stmlib/dsp/dsp.h ****     __asm ("ssat %0, %1, %2" : "=r" (result) :  "I" (16), "r" (x) );
 1342              		.loc 16 136 5 view .LVU283
 137:../../../mutable-instruments/stmlib/dsp/dsp.h ****     return result;
 1343              		.loc 16 137 5 view .LVU284
 1344              	.LBE1257:
 1345              	.LBE1256:
  81:../../../mutable-instruments/rings/dsp/fx/fx_engine.h ****   }
 1346              		.loc 13 81 23 is_stmt 0 view .LVU285
 1347 0148 B0EE670A 		vmov.f32	s0, s15
 1348              	.LBE1255:
 1349              	.LBE1254:
 1350              	.LBE1263:
 1351              	.LBE1266:
 190:../../../mutable-instruments/rings/dsp/fx/fx_engine.h ****     }
 1352              		.loc 13 190 20 view .LVU286
 1353 014c E7EEA56A 		vfma.f32	s13, s15, s11
 1354              	.LVL74:
 1355              	.LBB1267:
 1356              	.LBB1264:
 1357              	.LBB1261:
 1358              	.LBB1260:
  81:../../../mutable-instruments/rings/dsp/fx/fx_engine.h ****   }
 1359              		.loc 13 81 23 view .LVU287
 1360 0150 BEEEE80A 		vcvt.s32.f32	s0, s0, #15
 1361 0154 10EE10BA 		vmov	fp, s0	@ int
 1362              	.LVL75:
 1363              	.LBB1259:
 1364              	.LBB1258:
 137:../../../mutable-instruments/stmlib/dsp/dsp.h ****     return result;
 1365              		.loc 16 137 5 view .LVU288
 1366              		.syntax unified
 1367              	@ 137 "../../../mutable-instruments/stmlib/dsp/dsp.h" 1
 1368 0158 0BF30F0B 		ssat fp, #16, fp
 1369              	@ 0 "" 2
 1370              	.LVL76:
 1371              		.loc 16 138 5 is_stmt 1 view .LVU289
 1372              		.loc 16 138 5 is_stmt 0 view .LVU290
 1373              		.thumb
 1374              		.syntax unified
 1375              	.LBE1258:
 1376              	.LBE1259:
  81:../../../mutable-instruments/rings/dsp/fx/fx_engine.h ****   }
 1377              		.loc 13 81 63 view .LVU291
 1378 015c 21F81AB0 		strh	fp, [r1, r10, lsl #1]	@ movhi
 1379              	.LVL77:
  81:../../../mutable-instruments/rings/dsp/fx/fx_engine.h ****   }
 1380              		.loc 13 81 63 view .LVU292
 1381              	.LBE1260:
 1382              	.LBE1261:
 1383              	.LBE1264:
 1384              	.LBE1267:
 1385              	.LBE1269:
ARM GAS  /var/folders/hl/qgbwny5j0fd895c2c41bk3tw0000gp/T//ccEG44Zu.s 			page 49


 1386              	.LBE1271:
 1387              	.LBE1412:
 103:../../../mutable-instruments/rings/dsp/fx/reverb.h ****       c.WriteAllPass(ap3, -kap);
 1388              		.loc 12 103 7 is_stmt 1 view .LVU293
 1389              	.LBB1413:
 1390              	.LBI1311:
 199:../../../mutable-instruments/rings/dsp/fx/fx_engine.h ****       STATIC_ASSERT(D::base + D::length <= size, delay_memory_full);
 1391              		.loc 13 199 17 view .LVU294
 1392              	.LBB1320:
 1393              	.LBB1313:
 1394              	.LBI1313:
  75:../../../mutable-instruments/rings/dsp/fx/fx_engine.h ****     return static_cast<float>(static_cast<int16_t>(value)) / 32768.0f;
 1395              		.loc 13 75 23 view .LVU295
 1396              	.LBB1314:
  76:../../../mutable-instruments/rings/dsp/fx/fx_engine.h ****   }
 1397              		.loc 13 76 5 view .LVU296
 1398              	.LBE1314:
 1399              	.LBE1313:
 1400              	.LBE1320:
 1401              	.LBE1413:
 1402              	.LBB1414:
 1403              	.LBB1415:
 1404              	.LBB1416:
 1405              	.LBB1417:
 1406              	.LBB1418:
 177:../../../mutable-instruments/rings/dsp/fx/fx_engine.h ****       }
 1407              		.loc 13 177 29 is_stmt 0 view .LVU297
 1408 0160 03F2BE4A 		addw	r10, r3, #1214
 1409              	.LBE1418:
 1410              	.LBE1417:
 1411              	.LBE1416:
 1412              	.LBE1415:
 1413              	.LBE1414:
 1414              	.LBB1437:
 1415              	.LBB1321:
 1416              	.LBB1317:
 1417              	.LBB1315:
  76:../../../mutable-instruments/rings/dsp/fx/fx_engine.h ****   }
 1418              		.loc 13 76 12 view .LVU298
 1419 0164 31F91990 		ldrsh	r9, [r1, r9, lsl #1]
 1420              	.LBE1315:
 1421              	.LBE1317:
 1422              	.LBE1321:
 1423              	.LBE1437:
 1424              	.LBB1438:
 1425              	.LBB1435:
 1426              	.LBB1433:
 1427              	.LBB1430:
 1428              	.LBB1427:
 177:../../../mutable-instruments/rings/dsp/fx/fx_engine.h ****       }
 1429              		.loc 13 177 49 view .LVU299
 1430 0168 CAF30E0A 		ubfx	r10, r10, #0, #15
 1431              	.LBE1427:
 1432              	.LBE1430:
 1433              	.LBE1433:
 1434              	.LBE1435:
 1435              	.LBE1438:
ARM GAS  /var/folders/hl/qgbwny5j0fd895c2c41bk3tw0000gp/T//ccEG44Zu.s 			page 50


 1436              	.LBB1439:
 1437              	.LBB1322:
 1438              	.LBB1318:
 1439              	.LBB1316:
  76:../../../mutable-instruments/rings/dsp/fx/fx_engine.h ****   }
 1440              		.loc 13 76 12 view .LVU300
 1441 016c 07EE909A 		vmov	s15, r9	@ int
 1442 0170 F8EEE77A 		vcvt.f32.s32	s15, s15
  76:../../../mutable-instruments/rings/dsp/fx/fx_engine.h ****   }
 1443              		.loc 13 76 62 view .LVU301
 1444 0174 67EE877A 		vmul.f32	s15, s15, s14
 1445              	.LVL78:
  76:../../../mutable-instruments/rings/dsp/fx/fx_engine.h ****   }
 1446              		.loc 13 76 62 view .LVU302
 1447              	.LBE1316:
 1448              	.LBE1318:
 209:../../../mutable-instruments/rings/dsp/fx/fx_engine.h ****     }
 1449              		.loc 13 209 20 view .LVU303
 1450 0178 E6EE276A 		vfma.f32	s13, s12, s15
 1451              	.LVL79:
 209:../../../mutable-instruments/rings/dsp/fx/fx_engine.h ****     }
 1452              		.loc 13 209 20 view .LVU304
 1453              	.LBE1322:
 1454              	.LBE1439:
 104:../../../mutable-instruments/rings/dsp/fx/reverb.h ****       c.Read(ap4 TAIL, kap);
 1455              		.loc 12 104 7 is_stmt 1 view .LVU305
 1456              	.LBB1440:
 1457              	.LBI1325:
 194:../../../mutable-instruments/rings/dsp/fx/fx_engine.h ****       WriteAllPass(d, 0, scale);
 1458              		.loc 13 194 17 view .LVU306
 1459              	.LBB1347:
 1460              	.LBI1326:
 188:../../../mutable-instruments/rings/dsp/fx/fx_engine.h ****       Write(d, offset, scale);
 1461              		.loc 13 188 17 view .LVU307
 1462              	.LBB1345:
 1463              	.LBB1342:
 1464              	.LBI1328:
 171:../../../mutable-instruments/rings/dsp/fx/fx_engine.h ****       STATIC_ASSERT(D::base + D::length <= size, delay_memory_full);
 1465              		.loc 13 171 17 view .LVU308
 1466              	.LBB1339:
 1467              	.LBB1330:
 1468              	.LBI1330:
  79:../../../mutable-instruments/rings/dsp/fx/fx_engine.h ****     return static_cast<uint16_t>(
 1469              		.loc 13 79 19 view .LVU309
 1470              	.LBB1331:
  80:../../../mutable-instruments/rings/dsp/fx/fx_engine.h ****         stmlib::Clip16(static_cast<int32_t>(value * 32768.0f)));
 1471              		.loc 13 80 5 view .LVU310
 1472              	.LBB1332:
 1473              	.LBI1332:
 135:../../../mutable-instruments/stmlib/dsp/dsp.h ****     int32_t result;
 1474              		.loc 16 135 18 view .LVU311
 1475              	.LBB1333:
 136:../../../mutable-instruments/stmlib/dsp/dsp.h ****     __asm ("ssat %0, %1, %2" : "=r" (result) :  "I" (16), "r" (x) );
 1476              		.loc 16 136 5 view .LVU312
 137:../../../mutable-instruments/stmlib/dsp/dsp.h ****     return result;
 1477              		.loc 16 137 5 view .LVU313
 1478              	.LBE1333:
ARM GAS  /var/folders/hl/qgbwny5j0fd895c2c41bk3tw0000gp/T//ccEG44Zu.s 			page 51


 1479              	.LBE1332:
  81:../../../mutable-instruments/rings/dsp/fx/fx_engine.h ****   }
 1480              		.loc 13 81 23 is_stmt 0 view .LVU314
 1481 017c B0EE660A 		vmov.f32	s0, s13
 1482              	.LBE1331:
 1483              	.LBE1330:
 1484              	.LBE1339:
 1485              	.LBE1342:
 190:../../../mutable-instruments/rings/dsp/fx/fx_engine.h ****     }
 1486              		.loc 13 190 20 view .LVU315
 1487 0180 E6EEA57A 		vfma.f32	s15, s13, s11
 1488              	.LVL80:
 1489              	.LBB1343:
 1490              	.LBB1340:
 1491              	.LBB1337:
 1492              	.LBB1336:
  81:../../../mutable-instruments/rings/dsp/fx/fx_engine.h ****   }
 1493              		.loc 13 81 23 view .LVU316
 1494 0184 BEEEE80A 		vcvt.s32.f32	s0, s0, #15
 1495 0188 10EE109A 		vmov	r9, s0	@ int
 1496              	.LVL81:
 1497              	.LBB1335:
 1498              	.LBB1334:
 137:../../../mutable-instruments/stmlib/dsp/dsp.h ****     return result;
 1499              		.loc 16 137 5 view .LVU317
 1500              		.syntax unified
 1501              	@ 137 "../../../mutable-instruments/stmlib/dsp/dsp.h" 1
 1502 018c 09F30F09 		ssat r9, #16, r9
 1503              	@ 0 "" 2
 1504              	.LVL82:
 1505              		.loc 16 138 5 is_stmt 1 view .LVU318
 1506              		.loc 16 138 5 is_stmt 0 view .LVU319
 1507              		.thumb
 1508              		.syntax unified
 1509              	.LBE1334:
 1510              	.LBE1335:
  81:../../../mutable-instruments/rings/dsp/fx/fx_engine.h ****   }
 1511              		.loc 13 81 63 view .LVU320
 1512 0190 21F81890 		strh	r9, [r1, r8, lsl #1]	@ movhi
 1513              	.LVL83:
  81:../../../mutable-instruments/rings/dsp/fx/fx_engine.h ****   }
 1514              		.loc 13 81 63 view .LVU321
 1515              	.LBE1336:
 1516              	.LBE1337:
 1517              	.LBE1340:
 1518              	.LBE1343:
 1519              	.LBE1345:
 1520              	.LBE1347:
 1521              	.LBE1440:
 105:../../../mutable-instruments/rings/dsp/fx/reverb.h ****       c.WriteAllPass(ap4, -kap);
 1522              		.loc 12 105 7 is_stmt 1 view .LVU322
 1523              	.LBB1441:
 1524              	.LBI1350:
 199:../../../mutable-instruments/rings/dsp/fx/fx_engine.h ****       STATIC_ASSERT(D::base + D::length <= size, delay_memory_full);
 1525              		.loc 13 199 17 view .LVU323
 1526              	.LBB1363:
 1527              	.LBB1352:
ARM GAS  /var/folders/hl/qgbwny5j0fd895c2c41bk3tw0000gp/T//ccEG44Zu.s 			page 52


 1528              	.LBI1352:
  75:../../../mutable-instruments/rings/dsp/fx/fx_engine.h ****     return static_cast<float>(static_cast<int16_t>(value)) / 32768.0f;
 1529              		.loc 13 75 23 view .LVU324
 1530              	.LBB1353:
  76:../../../mutable-instruments/rings/dsp/fx/fx_engine.h ****   }
 1531              		.loc 13 76 5 view .LVU325
 1532              	.LBE1353:
 1533              	.LBE1352:
 1534              	.LBE1363:
 1535              	.LBE1441:
 1536              	.LBB1442:
 1537              	.LBB1233:
 249:../../../mutable-instruments/rings/dsp/fx/fx_engine.h ****       float x = a + (b - a) * offset_fractional;
 1538              		.loc 13 249 59 is_stmt 0 view .LVU326
 1539 0194 43F6D338 		movw	r8, #15315
 1540              	.LBE1233:
 1541              	.LBE1442:
 1542              	.LBB1443:
 1543              	.LBB1364:
 1544              	.LBB1358:
 1545              	.LBB1354:
  76:../../../mutable-instruments/rings/dsp/fx/fx_engine.h ****   }
 1546              		.loc 13 76 12 view .LVU327
 1547 0198 31F91660 		ldrsh	r6, [r1, r6, lsl #1]
 1548              	.LBE1354:
 1549              	.LBE1358:
 1550              	.LBE1364:
 1551              	.LBE1443:
 1552              	.LBB1444:
 1553              	.LBB1234:
 247:../../../mutable-instruments/rings/dsp/fx/fx_engine.h ****       float b = DataType<format>::Decompress(
 1554              		.loc 13 247 49 view .LVU328
 1555 019c 0CEB0E09 		add	r9, ip, lr
 1556              	.LVL84:
 249:../../../mutable-instruments/rings/dsp/fx/fx_engine.h ****       float x = a + (b - a) * offset_fractional;
 1557              		.loc 13 249 59 view .LVU329
 1558 01a0 E044     		add	r8, r8, ip
 1559              	.LBE1234:
 1560              	.LBE1444:
 1561              	.LBB1445:
 1562              	.LBB1446:
 203:../../../mutable-instruments/rings/dsp/fx/fx_engine.h ****       } else {
 1563              		.loc 13 203 55 view .LVU330
 1564 01a2 41F2C67C 		movw	ip, #6086
 1565              	.LBE1446:
 1566              	.LBE1445:
 1567              	.LBB1461:
 1568              	.LBB1365:
 1569              	.LBB1359:
 1570              	.LBB1355:
  76:../../../mutable-instruments/rings/dsp/fx/fx_engine.h ****   }
 1571              		.loc 13 76 12 view .LVU331
 1572 01a6 06EE906A 		vmov	s13, r6	@ int
 1573              	.LBE1355:
 1574              	.LBE1359:
 1575              	.LBE1365:
 1576              	.LBE1461:
ARM GAS  /var/folders/hl/qgbwny5j0fd895c2c41bk3tw0000gp/T//ccEG44Zu.s 			page 53


 1577              	.LBB1462:
 1578              	.LBB1235:
 247:../../../mutable-instruments/rings/dsp/fx/fx_engine.h ****       float b = DataType<format>::Decompress(
 1579              		.loc 13 247 60 view .LVU332
 1580 01aa C9F30E09 		ubfx	r9, r9, #0, #15
 249:../../../mutable-instruments/rings/dsp/fx/fx_engine.h ****       float x = a + (b - a) * offset_fractional;
 1581              		.loc 13 249 64 view .LVU333
 1582 01ae C8F30E08 		ubfx	r8, r8, #0, #15
 1583              	.LBE1235:
 1584              	.LBE1462:
 1585              	.LBB1463:
 1586              	.LBB1464:
 203:../../../mutable-instruments/rings/dsp/fx/fx_engine.h ****       } else {
 1587              		.loc 13 203 55 view .LVU334
 1588 01b2 03F64356 		addw	r6, r3, #3395
 1589              	.LBE1464:
 1590              	.LBE1463:
 1591              	.LBB1481:
 1592              	.LBB1366:
 1593              	.LBB1360:
 1594              	.LBB1356:
  76:../../../mutable-instruments/rings/dsp/fx/fx_engine.h ****   }
 1595              		.loc 13 76 12 view .LVU335
 1596 01b6 F8EEE66A 		vcvt.f32.s32	s13, s13
 1597              	.LBE1356:
 1598              	.LBE1360:
 1599              	.LBE1366:
 1600              	.LBE1481:
 1601              	.LBB1482:
 1602              	.LBB1455:
 203:../../../mutable-instruments/rings/dsp/fx/fx_engine.h ****       } else {
 1603              		.loc 13 203 55 view .LVU336
 1604 01ba 9C44     		add	ip, ip, r3
 1605              	.LBE1455:
 1606              	.LBE1482:
 1607              	.LBB1483:
 1608              	.LBB1475:
 203:../../../mutable-instruments/rings/dsp/fx/fx_engine.h ****       } else {
 1609              		.loc 13 203 60 view .LVU337
 1610 01bc C6F30E06 		ubfx	r6, r6, #0, #15
 1611              	.LBE1475:
 1612              	.LBE1483:
 1613              	.LBB1484:
 1614              	.LBB1485:
 1615              	.LBB1486:
 177:../../../mutable-instruments/rings/dsp/fx/fx_engine.h ****       }
 1616              		.loc 13 177 29 view .LVU338
 1617 01c0 9E44     		add	lr, lr, r3
 1618              	.LBE1486:
 1619              	.LBE1485:
 1620              	.LBE1484:
 1621              	.LBB1505:
 1622              	.LBB1456:
 203:../../../mutable-instruments/rings/dsp/fx/fx_engine.h ****       } else {
 1623              		.loc 13 203 60 view .LVU339
 1624 01c2 CCF30E0C 		ubfx	ip, ip, #0, #15
 1625              	.LBE1456:
ARM GAS  /var/folders/hl/qgbwny5j0fd895c2c41bk3tw0000gp/T//ccEG44Zu.s 			page 54


 1626              	.LBE1505:
 1627              	.LBB1506:
 1628              	.LBB1367:
 1629              	.LBB1361:
 1630              	.LBB1357:
  76:../../../mutable-instruments/rings/dsp/fx/fx_engine.h ****   }
 1631              		.loc 13 76 62 view .LVU340
 1632 01c6 66EE876A 		vmul.f32	s13, s13, s14
 1633              	.LVL85:
  76:../../../mutable-instruments/rings/dsp/fx/fx_engine.h ****   }
 1634              		.loc 13 76 62 view .LVU341
 1635              	.LBE1357:
 1636              	.LBE1361:
 1637              	.LBE1367:
 1638              	.LBE1506:
 1639              	.LBB1507:
 1640              	.LBB1501:
 1641              	.LBB1497:
 177:../../../mutable-instruments/rings/dsp/fx/fx_engine.h ****       }
 1642              		.loc 13 177 49 view .LVU342
 1643 01ca CEF30E0E 		ubfx	lr, lr, #0, #15
 1644              	.LBE1497:
 1645              	.LBE1501:
 1646              	.LBE1507:
 1647              	.LBB1508:
 1648              	.LBB1368:
 209:../../../mutable-instruments/rings/dsp/fx/fx_engine.h ****     }
 1649              		.loc 13 209 20 view .LVU343
 1650 01ce E6EE267A 		vfma.f32	s15, s12, s13
 1651              	.LVL86:
 209:../../../mutable-instruments/rings/dsp/fx/fx_engine.h ****     }
 1652              		.loc 13 209 20 view .LVU344
 1653              	.LBE1368:
 1654              	.LBE1508:
 106:../../../mutable-instruments/rings/dsp/fx/reverb.h ****       c.Write(apout);
 1655              		.loc 12 106 7 is_stmt 1 view .LVU345
 1656              	.LBB1509:
 1657              	.LBI1372:
 194:../../../mutable-instruments/rings/dsp/fx/fx_engine.h ****       WriteAllPass(d, 0, scale);
 1658              		.loc 13 194 17 view .LVU346
 1659              	.LBB1394:
 1660              	.LBI1373:
 188:../../../mutable-instruments/rings/dsp/fx/fx_engine.h ****       Write(d, offset, scale);
 1661              		.loc 13 188 17 view .LVU347
 1662              	.LBB1392:
 1663              	.LBB1389:
 1664              	.LBI1375:
 171:../../../mutable-instruments/rings/dsp/fx/fx_engine.h ****       STATIC_ASSERT(D::base + D::length <= size, delay_memory_full);
 1665              		.loc 13 171 17 view .LVU348
 1666              	.LBB1386:
 1667              	.LBB1377:
 1668              	.LBI1377:
  79:../../../mutable-instruments/rings/dsp/fx/fx_engine.h ****     return static_cast<uint16_t>(
 1669              		.loc 13 79 19 view .LVU349
 1670              	.LBB1378:
  80:../../../mutable-instruments/rings/dsp/fx/fx_engine.h ****         stmlib::Clip16(static_cast<int32_t>(value * 32768.0f)));
 1671              		.loc 13 80 5 view .LVU350
ARM GAS  /var/folders/hl/qgbwny5j0fd895c2c41bk3tw0000gp/T//ccEG44Zu.s 			page 55


 1672              	.LBB1379:
 1673              	.LBI1379:
 135:../../../mutable-instruments/stmlib/dsp/dsp.h ****     int32_t result;
 1674              		.loc 16 135 18 view .LVU351
 1675              	.LBB1380:
 136:../../../mutable-instruments/stmlib/dsp/dsp.h ****     __asm ("ssat %0, %1, %2" : "=r" (result) :  "I" (16), "r" (x) );
 1676              		.loc 16 136 5 view .LVU352
 137:../../../mutable-instruments/stmlib/dsp/dsp.h ****     return result;
 1677              		.loc 16 137 5 view .LVU353
 1678              	.LBE1380:
 1679              	.LBE1379:
  81:../../../mutable-instruments/rings/dsp/fx/fx_engine.h ****   }
 1680              		.loc 13 81 23 is_stmt 0 view .LVU354
 1681 01d2 B0EE670A 		vmov.f32	s0, s15
 1682              	.LBE1378:
 1683              	.LBE1377:
 1684              	.LBE1386:
 1685              	.LBE1389:
 190:../../../mutable-instruments/rings/dsp/fx/fx_engine.h ****     }
 1686              		.loc 13 190 20 view .LVU355
 1687 01d6 E7EEA56A 		vfma.f32	s13, s15, s11
 1688              	.LVL87:
 1689              	.LBB1390:
 1690              	.LBB1387:
 1691              	.LBB1384:
 1692              	.LBB1383:
  81:../../../mutable-instruments/rings/dsp/fx/fx_engine.h ****   }
 1693              		.loc 13 81 23 view .LVU356
 1694 01da BEEEE80A 		vcvt.s32.f32	s0, s0, #15
 1695 01de 10EE10BA 		vmov	fp, s0	@ int
 1696              	.LVL88:
 1697              	.LBB1382:
 1698              	.LBB1381:
 137:../../../mutable-instruments/stmlib/dsp/dsp.h ****     return result;
 1699              		.loc 16 137 5 view .LVU357
 1700              		.syntax unified
 1701              	@ 137 "../../../mutable-instruments/stmlib/dsp/dsp.h" 1
 1702 01e2 0BF30F0B 		ssat fp, #16, fp
 1703              	@ 0 "" 2
 1704              	.LVL89:
 1705              		.loc 16 138 5 is_stmt 1 view .LVU358
 1706              		.loc 16 138 5 is_stmt 0 view .LVU359
 1707              		.thumb
 1708              		.syntax unified
 1709              	.LBE1381:
 1710              	.LBE1382:
  81:../../../mutable-instruments/rings/dsp/fx/fx_engine.h ****   }
 1711              		.loc 13 81 63 view .LVU360
 1712 01e6 21F817B0 		strh	fp, [r1, r7, lsl #1]	@ movhi
 1713              	.LVL90:
  81:../../../mutable-instruments/rings/dsp/fx/fx_engine.h ****   }
 1714              		.loc 13 81 63 view .LVU361
 1715              	.LBE1383:
 1716              	.LBE1384:
 1717              	.LBE1387:
 1718              	.LBE1390:
 1719              	.LBE1392:
ARM GAS  /var/folders/hl/qgbwny5j0fd895c2c41bk3tw0000gp/T//ccEG44Zu.s 			page 56


 1720              	.LBE1394:
 1721              	.LBE1509:
 107:../../../mutable-instruments/rings/dsp/fx/reverb.h ****       
 1722              		.loc 12 107 7 is_stmt 1 view .LVU362
 110:../../../mutable-instruments/rings/dsp/fx/reverb.h ****       c.Interpolate(del2, 6261.0f, LFO_2, 50.0f, krt);
 1723              		.loc 12 110 7 view .LVU363
 111:../../../mutable-instruments/rings/dsp/fx/reverb.h ****       c.Lp(lp_1, klp);
 1724              		.loc 12 111 7 view .LVU364
 1725              	.LBB1510:
 1726              	.LBI1206:
 241:../../../mutable-instruments/rings/dsp/fx/fx_engine.h ****         D& d, float offset, LFOIndex index, float amplitude, float scale) {
 1727              		.loc 13 241 17 view .LVU365
 1728              	.LBB1236:
 1729              	.LBB1208:
 1730              	.LBI1208:
  75:../../../mutable-instruments/rings/dsp/fx/fx_engine.h ****     return static_cast<float>(static_cast<int16_t>(value)) / 32768.0f;
 1731              		.loc 13 75 23 view .LVU366
 1732              	.LBB1209:
  76:../../../mutable-instruments/rings/dsp/fx/fx_engine.h ****   }
 1733              		.loc 13 76 5 view .LVU367
 1734              	.LBE1209:
 1735              	.LBE1208:
 1736              	.LBB1213:
 1737              	.LBB1214:
  76:../../../mutable-instruments/rings/dsp/fx/fx_engine.h ****   }
 1738              		.loc 13 76 12 is_stmt 0 view .LVU368
 1739 01ea 31F91870 		ldrsh	r7, [r1, r8, lsl #1]
 1740              	.LBE1214:
 1741              	.LBE1213:
 1742              	.LBE1236:
 1743              	.LBE1510:
 1744              	.LBB1511:
 1745              	.LBB1298:
 249:../../../mutable-instruments/rings/dsp/fx/fx_engine.h ****       float x = a + (b - a) * offset_fractional;
 1746              		.loc 13 249 59 view .LVU369
 1747 01ee 41F2C978 		movw	r8, #6089
 1748              	.LBE1298:
 1749              	.LBE1511:
 1750              	.LBB1512:
 1751              	.LBB1476:
 1752              	.LBB1465:
 1753              	.LBB1466:
  76:../../../mutable-instruments/rings/dsp/fx/fx_engine.h ****   }
 1754              		.loc 13 76 12 view .LVU370
 1755 01f2 31F91660 		ldrsh	r6, [r1, r6, lsl #1]
 1756              	.LBE1466:
 1757              	.LBE1465:
 1758              	.LBE1476:
 1759              	.LBE1512:
 1760              	.LBB1513:
 1761              	.LBB1237:
 1762              	.LBB1219:
 1763              	.LBB1215:
 1764 01f6 00EE107A 		vmov	s0, r7	@ int
 1765              	.LBE1215:
 1766              	.LBE1219:
 1767              	.LBB1220:
ARM GAS  /var/folders/hl/qgbwny5j0fd895c2c41bk3tw0000gp/T//ccEG44Zu.s 			page 57


 1768              	.LBB1210:
 1769 01fa 31F91970 		ldrsh	r7, [r1, r9, lsl #1]
 1770              	.LBE1210:
 1771              	.LBE1220:
 1772              	.LBE1237:
 1773              	.LBE1513:
 1774              	.LBB1514:
 1775              	.LBB1477:
 1776              	.LBB1471:
 1777              	.LBB1467:
 1778 01fe 07EE906A 		vmov	s15, r6	@ int
 1779              	.LBE1467:
 1780              	.LBE1471:
 1781              	.LBE1477:
 1782              	.LBE1514:
 1783              	.LBB1515:
 1784              	.LBB1299:
 247:../../../mutable-instruments/rings/dsp/fx/fx_engine.h ****       float b = DataType<format>::Decompress(
 1785              		.loc 13 247 31 view .LVU371
 1786 0202 18EE106A 		vmov	r6, s16	@ int
 1787              	.LBE1299:
 1788              	.LBE1515:
 1789              	.LBB1516:
 1790              	.LBB1238:
 1791              	.LBB1221:
 1792              	.LBB1216:
  76:../../../mutable-instruments/rings/dsp/fx/fx_engine.h ****   }
 1793              		.loc 13 76 12 view .LVU372
 1794 0206 B8EEC00A 		vcvt.f32.s32	s0, s0
 1795              	.LBE1216:
 1796              	.LBE1221:
 1797              	.LBB1222:
 1798              	.LBB1211:
 1799 020a 08EE907A 		vmov	s17, r7	@ int
 1800              	.LBE1211:
 1801              	.LBE1222:
 1802              	.LBE1238:
 1803              	.LBE1516:
 1804              	.LBB1517:
 1805              	.LBB1478:
 1806              	.LBB1472:
 1807              	.LBB1468:
 1808 020e F8EEE77A 		vcvt.f32.s32	s15, s15
 1809              	.LBE1468:
 1810              	.LBE1472:
 1811              	.LBE1478:
 1812              	.LBE1517:
 1813              	.LBB1518:
 1814              	.LBB1519:
 1815              	.LBB1520:
 177:../../../mutable-instruments/rings/dsp/fx/fx_engine.h ****       }
 1816              		.loc 13 177 29 view .LVU373
 1817 0212 41F2C877 		movw	r7, #6088
 1818              	.LBE1520:
 1819              	.LBE1519:
 1820              	.LBE1518:
 1821              	.LBB1549:
ARM GAS  /var/folders/hl/qgbwny5j0fd895c2c41bk3tw0000gp/T//ccEG44Zu.s 			page 58


 1822              	.LBB1239:
 1823              	.LBB1223:
 1824              	.LBB1212:
  76:../../../mutable-instruments/rings/dsp/fx/fx_engine.h ****   }
 1825              		.loc 13 76 12 view .LVU374
 1826 0216 F8EEE88A 		vcvt.f32.s32	s17, s17
 1827              	.LVL91:
  76:../../../mutable-instruments/rings/dsp/fx/fx_engine.h ****   }
 1828              		.loc 13 76 12 view .LVU375
 1829              	.LBE1212:
 1830              	.LBE1223:
 1831              	.LBB1224:
 1832              	.LBI1213:
  75:../../../mutable-instruments/rings/dsp/fx/fx_engine.h ****     return static_cast<float>(static_cast<int16_t>(value)) / 32768.0f;
 1833              		.loc 13 75 23 is_stmt 1 view .LVU376
 1834              	.LBB1217:
  76:../../../mutable-instruments/rings/dsp/fx/fx_engine.h ****   }
 1835              		.loc 13 76 5 view .LVU377
  76:../../../mutable-instruments/rings/dsp/fx/fx_engine.h ****   }
 1836              		.loc 13 76 5 is_stmt 0 view .LVU378
 1837              	.LBE1217:
 1838              	.LBE1224:
 1839              	.LBE1239:
 1840              	.LBE1549:
 1841              	.LBB1550:
 1842              	.LBB1300:
 247:../../../mutable-instruments/rings/dsp/fx/fx_engine.h ****       float b = DataType<format>::Decompress(
 1843              		.loc 13 247 31 view .LVU379
 1844 021a 1E44     		add	r6, r6, r3
 1845              	.LBE1300:
 1846              	.LBE1550:
 1847              	.LBB1551:
 1848              	.LBB1240:
 1849              	.LBB1225:
 1850              	.LBB1218:
  76:../../../mutable-instruments/rings/dsp/fx/fx_engine.h ****   }
 1851              		.loc 13 76 62 view .LVU380
 1852 021c 20EE070A 		vmul.f32	s0, s0, s14
 1853              	.LBE1218:
 1854              	.LBE1225:
 1855              	.LBE1240:
 1856              	.LBE1551:
 1857              	.LBB1552:
 1858              	.LBB1553:
 1859              	.LBB1554:
 1860              	.LBB1555:
 1861              	.LBB1556:
 177:../../../mutable-instruments/rings/dsp/fx/fx_engine.h ****       }
 1862              		.loc 13 177 29 view .LVU381
 1863 0220 03F64559 		addw	r9, r3, #3397
 1864              	.LBE1556:
 1865              	.LBE1555:
 1866              	.LBE1554:
 1867              	.LBE1553:
 1868              	.LBE1552:
 1869              	.LBB1581:
 1870              	.LBB1479:
ARM GAS  /var/folders/hl/qgbwny5j0fd895c2c41bk3tw0000gp/T//ccEG44Zu.s 			page 59


 1871              	.LBB1473:
 1872              	.LBB1469:
  76:../../../mutable-instruments/rings/dsp/fx/fx_engine.h ****   }
 1873              		.loc 13 76 62 view .LVU382
 1874 0224 67EE877A 		vmul.f32	s15, s15, s14
 1875              	.LBE1469:
 1876              	.LBE1473:
 1877              	.LBE1479:
 1878              	.LBE1581:
 1879              	.LBB1582:
 1880              	.LBB1301:
 249:../../../mutable-instruments/rings/dsp/fx/fx_engine.h ****       float x = a + (b - a) * offset_fractional;
 1881              		.loc 13 249 59 view .LVU383
 1882 0228 B044     		add	r8, r8, r6
 247:../../../mutable-instruments/rings/dsp/fx/fx_engine.h ****       float b = DataType<format>::Decompress(
 1883              		.loc 13 247 49 view .LVU384
 1884 022a 3E44     		add	r6, r6, r7
 1885              	.LBE1301:
 1886              	.LBE1582:
 1887              	.LBB1583:
 1888              	.LBB1542:
 1889              	.LBB1535:
 177:../../../mutable-instruments/rings/dsp/fx/fx_engine.h ****       }
 1890              		.loc 13 177 29 view .LVU385
 1891 022c 1F44     		add	r7, r7, r3
 1892              	.LBE1535:
 1893              	.LBE1542:
 1894              	.LBE1583:
 1895              	.LBB1584:
 1896              	.LBB1241:
 250:../../../mutable-instruments/rings/dsp/fx/fx_engine.h ****       previous_read_ = x;
 1897              		.loc 13 250 24 view .LVU386
 1898 022e A8EEC70A 		vfms.f32	s0, s17, s14
 1899              	.LBE1241:
 1900              	.LBE1584:
 1901              	.LBB1585:
 1902              	.LBB1578:
 1903              	.LBB1575:
 1904              	.LBB1571:
 1905              	.LBB1567:
 177:../../../mutable-instruments/rings/dsp/fx/fx_engine.h ****       }
 1906              		.loc 13 177 49 view .LVU387
 1907 0232 C9F30E09 		ubfx	r9, r9, #0, #15
 1908              	.LBE1567:
 1909              	.LBE1571:
 1910              	.LBE1575:
 1911              	.LBE1578:
 1912              	.LBE1585:
 1913              	.LBB1586:
 1914              	.LBB1543:
 1915              	.LBB1536:
 1916 0236 C7F30E07 		ubfx	r7, r7, #0, #15
 1917              	.LBE1536:
 1918              	.LBE1543:
 1919              	.LBE1586:
 1920              	.LBB1587:
 1921              	.LBB1302:
ARM GAS  /var/folders/hl/qgbwny5j0fd895c2c41bk3tw0000gp/T//ccEG44Zu.s 			page 60


 249:../../../mutable-instruments/rings/dsp/fx/fx_engine.h ****       float x = a + (b - a) * offset_fractional;
 1922              		.loc 13 249 64 view .LVU388
 1923 023a C8F30E08 		ubfx	r8, r8, #0, #15
 247:../../../mutable-instruments/rings/dsp/fx/fx_engine.h ****       float b = DataType<format>::Decompress(
 1924              		.loc 13 247 60 view .LVU389
 1925 023e C6F30E06 		ubfx	r6, r6, #0, #15
 1926              	.LBE1302:
 1927              	.LBE1587:
 1928              	.LBB1588:
 1929              	.LBB1242:
 250:../../../mutable-instruments/rings/dsp/fx/fx_engine.h ****       previous_read_ = x;
 1930              		.loc 13 250 29 view .LVU390
 1931 0242 60EE800A 		vmul.f32	s1, s1, s0
 1932              	.LVL92:
 252:../../../mutable-instruments/rings/dsp/fx/fx_engine.h ****     }
 1933              		.loc 13 252 20 view .LVU391
 1934 0246 B0EE660A 		vmov.f32	s0, s13
 250:../../../mutable-instruments/rings/dsp/fx/fx_engine.h ****       previous_read_ = x;
 1935              		.loc 13 250 13 view .LVU392
 1936 024a E8EE870A 		vfma.f32	s1, s17, s14
 1937              	.LVL93:
 250:../../../mutable-instruments/rings/dsp/fx/fx_engine.h ****       previous_read_ = x;
 1938              		.loc 13 250 13 view .LVU393
 1939              	.LBE1242:
 1940              	.LBE1588:
 1941              		.loc 12 120 21 view .LVU394
 1942 024e F0EE618A 		vmov.f32	s17, s3
 1943              	.LVL94:
 1944              	.LBB1589:
 1945              	.LBB1243:
 252:../../../mutable-instruments/rings/dsp/fx/fx_engine.h ****     }
 1946              		.loc 13 252 20 view .LVU395
 1947 0252 A3EEA00A 		vfma.f32	s0, s7, s1
 1948              	.LVL95:
 252:../../../mutable-instruments/rings/dsp/fx/fx_engine.h ****     }
 1949              		.loc 13 252 20 view .LVU396
 1950              	.LBE1243:
 1951              	.LBE1589:
 112:../../../mutable-instruments/rings/dsp/fx/reverb.h ****       c.Read(dap1a TAIL, -kap);
 1952              		.loc 12 112 7 is_stmt 1 view .LVU397
 1953              	.LBB1590:
 1954              	.LBI1590:
 217:../../../mutable-instruments/rings/dsp/fx/fx_engine.h ****       state += coefficient * (accumulator_ - state);
 1955              		.loc 13 217 17 view .LVU398
 1956              	.LBB1591:
 218:../../../mutable-instruments/rings/dsp/fx/fx_engine.h ****       accumulator_ = state;
 1957              		.loc 13 218 44 is_stmt 0 view .LVU399
 1958 0256 70EE640A 		vsub.f32	s1, s0, s9
 218:../../../mutable-instruments/rings/dsp/fx/fx_engine.h ****       accumulator_ = state;
 1959              		.loc 13 218 13 view .LVU400
 1960 025a E4EE204A 		vfma.f32	s9, s8, s1
 1961              	.LVL96:
 218:../../../mutable-instruments/rings/dsp/fx/fx_engine.h ****       accumulator_ = state;
 1962              		.loc 13 218 13 view .LVU401
 1963              	.LBE1591:
 1964              	.LBE1590:
 113:../../../mutable-instruments/rings/dsp/fx/reverb.h ****       c.WriteAllPass(dap1a, kap);
ARM GAS  /var/folders/hl/qgbwny5j0fd895c2c41bk3tw0000gp/T//ccEG44Zu.s 			page 61


 1965              		.loc 12 113 7 is_stmt 1 view .LVU402
 1966              	.LBB1592:
 1967              	.LBI1463:
 199:../../../mutable-instruments/rings/dsp/fx/fx_engine.h ****       STATIC_ASSERT(D::base + D::length <= size, delay_memory_full);
 1968              		.loc 13 199 17 view .LVU403
 1969              	.LBB1480:
 1970              	.LBB1474:
 1971              	.LBI1465:
  75:../../../mutable-instruments/rings/dsp/fx/fx_engine.h ****     return static_cast<float>(static_cast<int16_t>(value)) / 32768.0f;
 1972              		.loc 13 75 23 view .LVU404
 1973              	.LBB1470:
  76:../../../mutable-instruments/rings/dsp/fx/fx_engine.h ****   }
 1974              		.loc 13 76 5 view .LVU405
  76:../../../mutable-instruments/rings/dsp/fx/fx_engine.h ****   }
 1975              		.loc 13 76 5 is_stmt 0 view .LVU406
 1976              	.LBE1470:
 1977              	.LBE1474:
 209:../../../mutable-instruments/rings/dsp/fx/fx_engine.h ****     }
 1978              		.loc 13 209 20 view .LVU407
 1979 025e F0EE640A 		vmov.f32	s1, s9
 1980 0262 E7EEA50A 		vfma.f32	s1, s15, s11
 1981              	.LVL97:
 209:../../../mutable-instruments/rings/dsp/fx/fx_engine.h ****     }
 1982              		.loc 13 209 20 view .LVU408
 1983              	.LBE1480:
 1984              	.LBE1592:
 114:../../../mutable-instruments/rings/dsp/fx/reverb.h ****       c.Read(dap1b TAIL, kap);
 1985              		.loc 12 114 7 is_stmt 1 view .LVU409
 1986              	.LBB1593:
 1987              	.LBI1414:
 194:../../../mutable-instruments/rings/dsp/fx/fx_engine.h ****       WriteAllPass(d, 0, scale);
 1988              		.loc 13 194 17 view .LVU410
 1989              	.LBB1436:
 1990              	.LBI1415:
 188:../../../mutable-instruments/rings/dsp/fx/fx_engine.h ****       Write(d, offset, scale);
 1991              		.loc 13 188 17 view .LVU411
 1992              	.LBB1434:
 1993              	.LBB1431:
 1994              	.LBI1417:
 171:../../../mutable-instruments/rings/dsp/fx/fx_engine.h ****       STATIC_ASSERT(D::base + D::length <= size, delay_memory_full);
 1995              		.loc 13 171 17 view .LVU412
 1996              	.LBB1428:
 1997              	.LBB1419:
 1998              	.LBI1419:
  79:../../../mutable-instruments/rings/dsp/fx/fx_engine.h ****     return static_cast<uint16_t>(
 1999              		.loc 13 79 19 view .LVU413
 2000              	.LBB1420:
  80:../../../mutable-instruments/rings/dsp/fx/fx_engine.h ****         stmlib::Clip16(static_cast<int32_t>(value * 32768.0f)));
 2001              		.loc 13 80 5 view .LVU414
 2002              	.LBB1421:
 2003              	.LBI1421:
 135:../../../mutable-instruments/stmlib/dsp/dsp.h ****     int32_t result;
 2004              		.loc 16 135 18 view .LVU415
 2005              	.LBB1422:
 136:../../../mutable-instruments/stmlib/dsp/dsp.h ****     __asm ("ssat %0, %1, %2" : "=r" (result) :  "I" (16), "r" (x) );
 2006              		.loc 16 136 5 view .LVU416
 137:../../../mutable-instruments/stmlib/dsp/dsp.h ****     return result;
ARM GAS  /var/folders/hl/qgbwny5j0fd895c2c41bk3tw0000gp/T//ccEG44Zu.s 			page 62


 2007              		.loc 16 137 5 view .LVU417
 2008              	.LBE1422:
 2009              	.LBE1421:
 2010              	.LBE1420:
 2011              	.LBE1419:
 2012              	.LBE1428:
 2013              	.LBE1431:
 190:../../../mutable-instruments/rings/dsp/fx/fx_engine.h ****     }
 2014              		.loc 13 190 20 is_stmt 0 view .LVU418
 2015 0266 E6EE207A 		vfma.f32	s15, s12, s1
 2016              	.LVL98:
 2017              	.LBB1432:
 2018              	.LBB1429:
 2019              	.LBB1426:
 2020              	.LBB1425:
  81:../../../mutable-instruments/rings/dsp/fx/fx_engine.h ****   }
 2021              		.loc 13 81 23 view .LVU419
 2022 026a FEEEE80A 		vcvt.s32.f32	s1, s1, #15
 2023              	.LVL99:
 2024              	.LBB1424:
 2025              	.LBB1423:
 137:../../../mutable-instruments/stmlib/dsp/dsp.h ****     return result;
 2026              		.loc 16 137 5 view .LVU420
 2027 026e 10EE90BA 		vmov	fp, s1	@ int
 2028              	.LVL100:
 137:../../../mutable-instruments/stmlib/dsp/dsp.h ****     return result;
 2029              		.loc 16 137 5 view .LVU421
 2030              		.syntax unified
 2031              	@ 137 "../../../mutable-instruments/stmlib/dsp/dsp.h" 1
 2032 0272 0BF30F0B 		ssat fp, #16, fp
 2033              	@ 0 "" 2
 2034              	.LVL101:
 2035              		.loc 16 138 5 is_stmt 1 view .LVU422
 2036              		.loc 16 138 5 is_stmt 0 view .LVU423
 2037              		.thumb
 2038              		.syntax unified
 2039              	.LBE1423:
 2040              	.LBE1424:
  81:../../../mutable-instruments/rings/dsp/fx/fx_engine.h ****   }
 2041              		.loc 13 81 63 view .LVU424
 2042 0276 21F81AB0 		strh	fp, [r1, r10, lsl #1]	@ movhi
 2043              	.LVL102:
  81:../../../mutable-instruments/rings/dsp/fx/fx_engine.h ****   }
 2044              		.loc 13 81 63 view .LVU425
 2045              	.LBE1425:
 2046              	.LBE1426:
 2047              	.LBE1429:
 2048              	.LBE1432:
 2049              	.LBE1434:
 2050              	.LBE1436:
 2051              	.LBE1593:
 115:../../../mutable-instruments/rings/dsp/fx/reverb.h ****       c.WriteAllPass(dap1b, -kap);
 2052              		.loc 12 115 7 is_stmt 1 view .LVU426
 2053              	.LBB1594:
 2054              	.LBI1445:
 199:../../../mutable-instruments/rings/dsp/fx/fx_engine.h ****       STATIC_ASSERT(D::base + D::length <= size, delay_memory_full);
 2055              		.loc 13 199 17 view .LVU427
ARM GAS  /var/folders/hl/qgbwny5j0fd895c2c41bk3tw0000gp/T//ccEG44Zu.s 			page 63


 2056              	.LBB1457:
 2057              	.LBB1447:
 2058              	.LBI1447:
  75:../../../mutable-instruments/rings/dsp/fx/fx_engine.h ****     return static_cast<float>(static_cast<int16_t>(value)) / 32768.0f;
 2059              		.loc 13 75 23 view .LVU428
 2060              	.LBB1448:
  76:../../../mutable-instruments/rings/dsp/fx/fx_engine.h ****   }
 2061              		.loc 13 76 5 view .LVU429
 2062              	.LBE1448:
 2063              	.LBE1447:
 2064              	.LBE1457:
 2065              	.LBE1594:
 2066              	.LBB1595:
 2067              	.LBB1596:
 203:../../../mutable-instruments/rings/dsp/fx/fx_engine.h ****       } else {
 2068              		.loc 13 203 55 is_stmt 0 view .LVU430
 2069 027a 43F23A3A 		movw	r10, #13114
 2070              	.LBE1596:
 2071              	.LBE1595:
 2072              	.LBB1614:
 2073              	.LBB1458:
 2074              	.LBB1452:
 2075              	.LBB1449:
  76:../../../mutable-instruments/rings/dsp/fx/fx_engine.h ****   }
 2076              		.loc 13 76 12 view .LVU431
 2077 027e 31F91CC0 		ldrsh	ip, [r1, ip, lsl #1]
 2078              	.LBE1449:
 2079              	.LBE1452:
 2080              	.LBE1458:
 2081              	.LBE1614:
 2082              	.LBB1615:
 2083              	.LBB1607:
 203:../../../mutable-instruments/rings/dsp/fx/fx_engine.h ****       } else {
 2084              		.loc 13 203 55 view .LVU432
 2085 0282 9A44     		add	r10, r10, r3
 2086              	.LBE1607:
 2087              	.LBE1615:
 2088              	.LBB1616:
 2089              	.LBB1459:
 2090              	.LBB1453:
 2091              	.LBB1450:
  76:../../../mutable-instruments/rings/dsp/fx/fx_engine.h ****   }
 2092              		.loc 13 76 12 view .LVU433
 2093 0284 00EE90CA 		vmov	s1, ip	@ int
 2094              	.LBE1450:
 2095              	.LBE1453:
 2096              	.LBE1459:
 2097              	.LBE1616:
 2098              	.LBB1617:
 2099              	.LBB1608:
 203:../../../mutable-instruments/rings/dsp/fx/fx_engine.h ****       } else {
 2100              		.loc 13 203 60 view .LVU434
 2101 0288 CAF30E0A 		ubfx	r10, r10, #0, #15
 2102              	.LBE1608:
 2103              	.LBE1617:
 2104              	.LBB1618:
 2105              	.LBB1460:
ARM GAS  /var/folders/hl/qgbwny5j0fd895c2c41bk3tw0000gp/T//ccEG44Zu.s 			page 64


 2106              	.LBB1454:
 2107              	.LBB1451:
  76:../../../mutable-instruments/rings/dsp/fx/fx_engine.h ****   }
 2108              		.loc 13 76 12 view .LVU435
 2109 028c F8EEE00A 		vcvt.f32.s32	s1, s1
  76:../../../mutable-instruments/rings/dsp/fx/fx_engine.h ****   }
 2110              		.loc 13 76 62 view .LVU436
 2111 0290 60EE870A 		vmul.f32	s1, s1, s14
 2112              	.LVL103:
  76:../../../mutable-instruments/rings/dsp/fx/fx_engine.h ****   }
 2113              		.loc 13 76 62 view .LVU437
 2114              	.LBE1451:
 2115              	.LBE1454:
 209:../../../mutable-instruments/rings/dsp/fx/fx_engine.h ****     }
 2116              		.loc 13 209 20 view .LVU438
 2117 0294 E6EE207A 		vfma.f32	s15, s12, s1
 2118              	.LVL104:
 209:../../../mutable-instruments/rings/dsp/fx/fx_engine.h ****     }
 2119              		.loc 13 209 20 view .LVU439
 2120              	.LBE1460:
 2121              	.LBE1618:
 116:../../../mutable-instruments/rings/dsp/fx/reverb.h ****       c.Write(del1, 2.0f);
 2122              		.loc 12 116 7 is_stmt 1 view .LVU440
 2123              	.LBB1619:
 2124              	.LBI1552:
 194:../../../mutable-instruments/rings/dsp/fx/fx_engine.h ****       WriteAllPass(d, 0, scale);
 2125              		.loc 13 194 17 view .LVU441
 2126              	.LBB1579:
 2127              	.LBI1553:
 188:../../../mutable-instruments/rings/dsp/fx/fx_engine.h ****       Write(d, offset, scale);
 2128              		.loc 13 188 17 view .LVU442
 2129              	.LBB1576:
 2130              	.LBB1572:
 2131              	.LBI1555:
 171:../../../mutable-instruments/rings/dsp/fx/fx_engine.h ****       STATIC_ASSERT(D::base + D::length <= size, delay_memory_full);
 2132              		.loc 13 171 17 view .LVU443
 2133              	.LBB1568:
 2134              	.LBB1557:
 2135              	.LBI1557:
  79:../../../mutable-instruments/rings/dsp/fx/fx_engine.h ****     return static_cast<uint16_t>(
 2136              		.loc 13 79 19 view .LVU444
 2137              	.LBB1558:
  80:../../../mutable-instruments/rings/dsp/fx/fx_engine.h ****         stmlib::Clip16(static_cast<int32_t>(value * 32768.0f)));
 2138              		.loc 13 80 5 view .LVU445
 2139              	.LBB1559:
 2140              	.LBI1559:
 135:../../../mutable-instruments/stmlib/dsp/dsp.h ****     int32_t result;
 2141              		.loc 16 135 18 view .LVU446
 2142              	.LBB1560:
 136:../../../mutable-instruments/stmlib/dsp/dsp.h ****     __asm ("ssat %0, %1, %2" : "=r" (result) :  "I" (16), "r" (x) );
 2143              		.loc 16 136 5 view .LVU447
 137:../../../mutable-instruments/stmlib/dsp/dsp.h ****     return result;
 2144              		.loc 16 137 5 view .LVU448
 2145              	.LBE1560:
 2146              	.LBE1559:
 2147              	.LBE1558:
 2148              	.LBE1557:
ARM GAS  /var/folders/hl/qgbwny5j0fd895c2c41bk3tw0000gp/T//ccEG44Zu.s 			page 65


 2149              	.LBE1568:
 2150              	.LBE1572:
 190:../../../mutable-instruments/rings/dsp/fx/fx_engine.h ****     }
 2151              		.loc 13 190 20 is_stmt 0 view .LVU449
 2152 0298 E7EEA50A 		vfma.f32	s1, s15, s11
 2153              	.LVL105:
 2154              	.LBB1573:
 2155              	.LBB1569:
 2156              	.LBB1565:
 2157              	.LBB1563:
  81:../../../mutable-instruments/rings/dsp/fx/fx_engine.h ****   }
 2158              		.loc 13 81 23 view .LVU450
 2159 029c FEEEE87A 		vcvt.s32.f32	s15, s15, #15
 2160              	.LVL106:
 2161              	.LBB1562:
 2162              	.LBB1561:
 137:../../../mutable-instruments/stmlib/dsp/dsp.h ****     return result;
 2163              		.loc 16 137 5 view .LVU451
 2164 02a0 17EE90CA 		vmov	ip, s15	@ int
 2165              	.LVL107:
 137:../../../mutable-instruments/stmlib/dsp/dsp.h ****     return result;
 2166              		.loc 16 137 5 view .LVU452
 2167              		.syntax unified
 2168              	@ 137 "../../../mutable-instruments/stmlib/dsp/dsp.h" 1
 2169 02a4 0CF30F0C 		ssat ip, #16, ip
 2170              	@ 0 "" 2
 2171              	.LVL108:
 2172              		.loc 16 138 5 is_stmt 1 view .LVU453
 2173              		.loc 16 138 5 is_stmt 0 view .LVU454
 2174              		.thumb
 2175              		.syntax unified
 2176              	.LBE1561:
 2177              	.LBE1562:
 2178              	.LBE1563:
 2179              	.LBE1565:
 2180              	.LBE1569:
 2181              	.LBE1573:
 2182              	.LBE1576:
 2183              	.LBE1579:
 2184              	.LBE1619:
 2185              	.LBB1620:
 2186              	.LBB1544:
 2187              	.LBB1537:
 2188              	.LBB1521:
 2189              	.LBB1522:
  81:../../../mutable-instruments/rings/dsp/fx/fx_engine.h ****   }
 2190              		.loc 13 81 23 view .LVU455
 2191 02a8 F0EE607A 		vmov.f32	s15, s1
 2192              	.LBE1522:
 2193              	.LBE1521:
 2194              	.LBE1537:
 2195              	.LBE1544:
 2196              	.LBE1620:
 2197              	.LBB1621:
 2198              	.LBB1580:
 2199              	.LBB1577:
 2200              	.LBB1574:
ARM GAS  /var/folders/hl/qgbwny5j0fd895c2c41bk3tw0000gp/T//ccEG44Zu.s 			page 66


 2201              	.LBB1570:
 2202              	.LBB1566:
 2203              	.LBB1564:
  81:../../../mutable-instruments/rings/dsp/fx/fx_engine.h ****   }
 2204              		.loc 13 81 63 view .LVU456
 2205 02ac 21F819C0 		strh	ip, [r1, r9, lsl #1]	@ movhi
 2206              	.LVL109:
  81:../../../mutable-instruments/rings/dsp/fx/fx_engine.h ****   }
 2207              		.loc 13 81 63 view .LVU457
 2208              	.LBE1564:
 2209              	.LBE1566:
 2210              	.LBE1570:
 2211              	.LBE1574:
 2212              	.LBE1577:
 2213              	.LBE1580:
 2214              	.LBE1621:
 117:../../../mutable-instruments/rings/dsp/fx/reverb.h ****       c.Write(wet, 0.0f);
 2215              		.loc 12 117 7 is_stmt 1 view .LVU458
 2216              	.LBB1622:
 2217              	.LBI1518:
 183:../../../mutable-instruments/rings/dsp/fx/fx_engine.h ****       Write(d, 0, scale);
 2218              		.loc 13 183 17 view .LVU459
 2219              	.LBB1545:
 2220              	.LBI1519:
 171:../../../mutable-instruments/rings/dsp/fx/fx_engine.h ****       STATIC_ASSERT(D::base + D::length <= size, delay_memory_full);
 2221              		.loc 13 171 17 view .LVU460
 2222              	.LBB1538:
 2223              	.LBB1531:
 2224              	.LBI1521:
  79:../../../mutable-instruments/rings/dsp/fx/fx_engine.h ****     return static_cast<uint16_t>(
 2225              		.loc 13 79 19 view .LVU461
 2226              	.LBB1527:
  80:../../../mutable-instruments/rings/dsp/fx/fx_engine.h ****         stmlib::Clip16(static_cast<int32_t>(value * 32768.0f)));
 2227              		.loc 13 80 5 view .LVU462
 2228              	.LBB1523:
 2229              	.LBI1523:
 135:../../../mutable-instruments/stmlib/dsp/dsp.h ****     int32_t result;
 2230              		.loc 16 135 18 view .LVU463
 2231              	.LBB1524:
 136:../../../mutable-instruments/stmlib/dsp/dsp.h ****     __asm ("ssat %0, %1, %2" : "=r" (result) :  "I" (16), "r" (x) );
 2232              		.loc 16 136 5 view .LVU464
 137:../../../mutable-instruments/stmlib/dsp/dsp.h ****     return result;
 2233              		.loc 16 137 5 view .LVU465
 2234              	.LBE1524:
 2235              	.LBE1523:
 2236              	.LBE1527:
 2237              	.LBE1531:
 2238              	.LBE1538:
 2239              	.LBE1545:
 2240              	.LBE1622:
 2241              		.loc 12 120 21 is_stmt 0 view .LVU466
 2242 02b0 D0EE828A 		vfnms.f32	s17, s1, s4
 2243              	.LBB1623:
 2244              	.LBB1624:
 2245              	.LBB1625:
 2246              	.LBB1626:
 2247              	.LBB1627:
ARM GAS  /var/folders/hl/qgbwny5j0fd895c2c41bk3tw0000gp/T//ccEG44Zu.s 			page 67


 177:../../../mutable-instruments/rings/dsp/fx/fx_engine.h ****       }
 2248              		.loc 13 177 29 view .LVU467
 2249 02b4 42F65E19 		movw	r9, #10590
 2250              	.LBE1627:
 2251              	.LBE1626:
 2252              	.LBE1625:
 2253              	.LBE1624:
 2254              	.LBE1623:
 2255              	.LBB1650:
 2256              	.LBB1651:
 203:../../../mutable-instruments/rings/dsp/fx/fx_engine.h ****       } else {
 2257              		.loc 13 203 55 view .LVU468
 2258 02b8 43F6D03C 		movw	ip, #15312
 2259              	.LVL110:
 203:../../../mutable-instruments/rings/dsp/fx/fx_engine.h ****       } else {
 2260              		.loc 13 203 55 view .LVU469
 2261              	.LBE1651:
 2262              	.LBE1650:
 2263              	.LBB1657:
 2264              	.LBB1546:
 2265              	.LBB1539:
 2266              	.LBB1532:
 2267              	.LBB1528:
  81:../../../mutable-instruments/rings/dsp/fx/fx_engine.h ****   }
 2268              		.loc 13 81 23 view .LVU470
 2269 02bc FEEEE87A 		vcvt.s32.f32	s15, s15, #15
 2270              	.LBE1528:
 2271              	.LBE1532:
 2272              	.LBE1539:
 2273              	.LBE1546:
 2274              	.LBE1657:
 2275              	.LBB1658:
 2276              	.LBB1647:
 2277              	.LBB1644:
 2278              	.LBB1640:
 2279              	.LBB1636:
 177:../../../mutable-instruments/rings/dsp/fx/fx_engine.h ****       }
 2280              		.loc 13 177 29 view .LVU471
 2281 02c0 9944     		add	r9, r9, r3
 2282              	.LBE1636:
 2283              	.LBE1640:
 2284              	.LBE1644:
 2285              	.LBE1647:
 2286              	.LBE1658:
 2287              	.LBB1659:
 2288              	.LBB1654:
 203:../../../mutable-instruments/rings/dsp/fx/fx_engine.h ****       } else {
 2289              		.loc 13 203 55 view .LVU472
 2290 02c2 9C44     		add	ip, ip, r3
 2291              	.LBE1654:
 2292              	.LBE1659:
 2293              	.LBB1660:
 2294              	.LBB1648:
 2295              	.LBB1645:
 2296              	.LBB1641:
 2297              	.LBB1637:
 177:../../../mutable-instruments/rings/dsp/fx/fx_engine.h ****       }
ARM GAS  /var/folders/hl/qgbwny5j0fd895c2c41bk3tw0000gp/T//ccEG44Zu.s 			page 68


 2298              		.loc 13 177 49 view .LVU473
 2299 02c4 C9F30E09 		ubfx	r9, r9, #0, #15
 2300              	.LBE1637:
 2301              	.LBE1641:
 2302              	.LBE1645:
 2303              	.LBE1648:
 2304              	.LBE1660:
 2305              	.LBB1661:
 2306              	.LBB1547:
 2307              	.LBB1540:
 2308              	.LBB1533:
 2309              	.LBB1529:
  81:../../../mutable-instruments/rings/dsp/fx/fx_engine.h ****   }
 2310              		.loc 13 81 23 view .LVU474
 2311 02c8 17EE90BA 		vmov	fp, s15	@ int
 2312              	.LVL111:
  81:../../../mutable-instruments/rings/dsp/fx/fx_engine.h ****   }
 2313              		.loc 13 81 23 view .LVU475
 2314              	.LBE1529:
 2315              	.LBE1533:
 2316              	.LBE1540:
 2317              	.LBE1547:
 2318              	.LBE1661:
 2319              	.LBB1662:
 2320              	.LBB1655:
 203:../../../mutable-instruments/rings/dsp/fx/fx_engine.h ****       } else {
 2321              		.loc 13 203 60 view .LVU476
 2322 02cc CCF30E0C 		ubfx	ip, ip, #0, #15
 2323              	.LBE1655:
 2324              	.LBE1662:
 2325              	.LBB1663:
 2326              	.LBB1548:
 2327              	.LBB1541:
 2328              	.LBB1534:
 2329              	.LBB1530:
 2330              	.LBB1526:
 2331              	.LBB1525:
 137:../../../mutable-instruments/stmlib/dsp/dsp.h ****     return result;
 2332              		.loc 16 137 5 view .LVU477
 2333              		.syntax unified
 2334              	@ 137 "../../../mutable-instruments/stmlib/dsp/dsp.h" 1
 2335 02d0 0BF30F0B 		ssat fp, #16, fp
 2336              	@ 0 "" 2
 2337              	.LVL112:
 2338              		.loc 16 138 5 is_stmt 1 view .LVU478
 2339              		.loc 16 138 5 is_stmt 0 view .LVU479
 2340              		.thumb
 2341              		.syntax unified
 2342              	.LBE1525:
 2343              	.LBE1526:
  81:../../../mutable-instruments/rings/dsp/fx/fx_engine.h ****   }
 2344              		.loc 13 81 63 view .LVU480
 2345 02d4 21F817B0 		strh	fp, [r1, r7, lsl #1]	@ movhi
 2346              	.LVL113:
  81:../../../mutable-instruments/rings/dsp/fx/fx_engine.h ****   }
 2347              		.loc 13 81 63 view .LVU481
 2348              	.LBE1530:
ARM GAS  /var/folders/hl/qgbwny5j0fd895c2c41bk3tw0000gp/T//ccEG44Zu.s 			page 69


 2349              	.LBE1534:
 2350              	.LBE1541:
 2351              	.LBE1548:
 2352              	.LBE1663:
 118:../../../mutable-instruments/rings/dsp/fx/reverb.h **** 
 2353              		.loc 12 118 7 is_stmt 1 view .LVU482
 2354              		.loc 12 120 7 view .LVU483
 2355              		.loc 12 120 13 is_stmt 0 view .LVU484
 2356 02d8 E8EE831A 		vfma.f32	s3, s17, s6
 2357              	.LBB1664:
 2358              	.LBB1303:
 2359              	.LBB1275:
 2360              	.LBB1276:
  76:../../../mutable-instruments/rings/dsp/fx/fx_engine.h ****   }
 2361              		.loc 13 76 12 view .LVU485
 2362 02dc 31F91870 		ldrsh	r7, [r1, r8, lsl #1]
 2363              	.LBE1276:
 2364              	.LBE1275:
 2365              	.LBB1281:
 2366              	.LBB1282:
 2367 02e0 31F91660 		ldrsh	r6, [r1, r6, lsl #1]
 2368              	.LBE1282:
 2369              	.LBE1281:
 2370              	.LBB1286:
 2371              	.LBB1277:
 2372 02e4 00EE107A 		vmov	s0, r7	@ int
 2373              	.LBE1277:
 2374              	.LBE1286:
 2375              	.LBB1287:
 2376              	.LBB1283:
 2377 02e8 08EE106A 		vmov	s16, r6	@ int
 2378              	.LBE1283:
 2379              	.LBE1287:
 2380              	.LBE1303:
 2381              	.LBE1664:
 2382              	.LBB1665:
 2383              	.LBB1609:
 2384              	.LBB1597:
 2385              	.LBB1598:
 2386 02ec 31F91A60 		ldrsh	r6, [r1, r10, lsl #1]
 2387              	.LBE1598:
 2388              	.LBE1597:
 2389              	.LBE1609:
 2390              	.LBE1665:
 2391              	.LBB1666:
 2392              	.LBB1304:
 2393              	.LBB1288:
 2394              	.LBB1278:
 2395 02f0 B8EEC00A 		vcvt.f32.s32	s0, s0
 2396              	.LBE1278:
 2397              	.LBE1288:
 2398              	.LBB1289:
 2399              	.LBB1284:
 2400 02f4 B8EEC88A 		vcvt.f32.s32	s16, s16
 2401              	.LBE1284:
 2402              	.LBE1289:
 2403              	.LBE1304:
ARM GAS  /var/folders/hl/qgbwny5j0fd895c2c41bk3tw0000gp/T//ccEG44Zu.s 			page 70


 2404              	.LBE1666:
 2405              	.LBB1667:
 2406              	.LBB1610:
 2407              	.LBB1603:
 2408              	.LBB1599:
 2409 02f8 07EE906A 		vmov	s15, r6	@ int
 2410              	.LBE1599:
 2411              	.LBE1603:
 2412              	.LBE1610:
 2413              	.LBE1667:
 2414              		.loc 12 120 13 view .LVU486
 2415 02fc E4EC011A 		vstmia.32	r4!, {s3}
 2416              	.LVL114:
 2417              	.LBB1668:
 2418              	.LBB1669:
 2419              	.LBB1670:
 2420              	.LBB1671:
 2421              	.LBB1672:
 177:../../../mutable-instruments/rings/dsp/fx/fx_engine.h ****       }
 2422              		.loc 13 177 29 view .LVU487
 2423 0300 43F23C36 		movw	r6, #13116
 2424              	.LBE1672:
 2425              	.LBE1671:
 2426              	.LBE1670:
 2427              	.LBE1669:
 2428              	.LBE1668:
 2429              	.LBB1703:
 2430              	.LBB1305:
 2431              	.LBB1290:
 2432              	.LBB1279:
  76:../../../mutable-instruments/rings/dsp/fx/fx_engine.h ****   }
 2433              		.loc 13 76 62 view .LVU488
 2434 0304 60EE070A 		vmul.f32	s1, s0, s14
 2435              	.LVL115:
  76:../../../mutable-instruments/rings/dsp/fx/fx_engine.h ****   }
 2436              		.loc 13 76 62 view .LVU489
 2437              	.LBE1279:
 2438              	.LBE1290:
 2439              	.LBE1305:
 2440              	.LBE1703:
 121:../../../mutable-instruments/rings/dsp/fx/reverb.h **** 
 122:../../../mutable-instruments/rings/dsp/fx/reverb.h ****       c.Load(apout);
 123:../../../mutable-instruments/rings/dsp/fx/reverb.h ****       c.Interpolate(del1, 4460.0f, LFO_1, 40.0f, krt);
 124:../../../mutable-instruments/rings/dsp/fx/reverb.h ****       c.Lp(lp_2, klp);
 125:../../../mutable-instruments/rings/dsp/fx/reverb.h ****       c.Read(dap2a TAIL, kap);
 126:../../../mutable-instruments/rings/dsp/fx/reverb.h ****       c.WriteAllPass(dap2a, -kap);
 127:../../../mutable-instruments/rings/dsp/fx/reverb.h ****       c.Read(dap2b TAIL, -kap);
 128:../../../mutable-instruments/rings/dsp/fx/reverb.h ****       c.WriteAllPass(dap2b, kap);
 129:../../../mutable-instruments/rings/dsp/fx/reverb.h ****       c.Write(del2, 2.0f);
 130:../../../mutable-instruments/rings/dsp/fx/reverb.h ****       c.Write(wet, 0.0f);
 131:../../../mutable-instruments/rings/dsp/fx/reverb.h **** 
 132:../../../mutable-instruments/rings/dsp/fx/reverb.h ****       *right += (wet - *right) * amount;
 2441              		.loc 12 132 14 view .LVU490
 2442 0308 D2ED001A 		vldr.32	s3, [r2]
 2443              	.LBB1704:
 2444              	.LBB1611:
 2445              	.LBB1604:
ARM GAS  /var/folders/hl/qgbwny5j0fd895c2c41bk3tw0000gp/T//ccEG44Zu.s 			page 71


 2446              	.LBB1600:
  76:../../../mutable-instruments/rings/dsp/fx/fx_engine.h ****   }
 2447              		.loc 13 76 12 view .LVU491
 2448 030c F8EEE77A 		vcvt.f32.s32	s15, s15
 2449              	.LBE1600:
 2450              	.LBE1604:
 2451              	.LBE1611:
 2452              	.LBE1704:
 2453              	.LBB1705:
 2454              	.LBB1699:
 2455              	.LBB1695:
 2456              	.LBB1690:
 2457              	.LBB1685:
 177:../../../mutable-instruments/rings/dsp/fx/fx_engine.h ****       }
 2458              		.loc 13 177 29 view .LVU492
 2459 0310 1E44     		add	r6, r6, r3
 2460              	.LBE1685:
 2461              	.LBE1690:
 2462              	.LBE1695:
 2463              	.LBE1699:
 2464              	.LBE1705:
 2465              	.LBB1706:
 2466              	.LBB1306:
 250:../../../mutable-instruments/rings/dsp/fx/fx_engine.h ****       previous_read_ = x;
 2467              		.loc 13 250 24 view .LVU493
 2468 0312 E8EE470A 		vfms.f32	s1, s16, s14
 2469              	.LBE1306:
 2470              	.LBE1706:
 2471              	.LBB1707:
 2472              	.LBB1700:
 2473              	.LBB1696:
 2474              	.LBB1691:
 2475              	.LBB1686:
 177:../../../mutable-instruments/rings/dsp/fx/fx_engine.h ****       }
 2476              		.loc 13 177 49 view .LVU494
 2477 0316 C6F30E06 		ubfx	r6, r6, #0, #15
 2478              	.LBE1686:
 2479              	.LBE1691:
 2480              	.LBE1696:
 2481              	.LBE1700:
 2482              	.LBE1707:
 122:../../../mutable-instruments/rings/dsp/fx/reverb.h ****       c.Interpolate(del1, 4460.0f, LFO_1, 40.0f, krt);
 2483              		.loc 12 122 7 is_stmt 1 view .LVU495
 123:../../../mutable-instruments/rings/dsp/fx/reverb.h ****       c.Lp(lp_2, klp);
 2484              		.loc 12 123 7 view .LVU496
 2485              	.LVL116:
 2486              	.LBB1708:
 2487              	.LBI1273:
 241:../../../mutable-instruments/rings/dsp/fx/fx_engine.h ****         D& d, float offset, LFOIndex index, float amplitude, float scale) {
 2488              		.loc 13 241 17 view .LVU497
 2489              	.LBB1307:
 2490              	.LBB1291:
 2491              	.LBI1281:
  75:../../../mutable-instruments/rings/dsp/fx/fx_engine.h ****     return static_cast<float>(static_cast<int16_t>(value)) / 32768.0f;
 2492              		.loc 13 75 23 view .LVU498
 2493              	.LBB1285:
  76:../../../mutable-instruments/rings/dsp/fx/fx_engine.h ****   }
ARM GAS  /var/folders/hl/qgbwny5j0fd895c2c41bk3tw0000gp/T//ccEG44Zu.s 			page 72


 2494              		.loc 13 76 5 view .LVU499
  76:../../../mutable-instruments/rings/dsp/fx/fx_engine.h ****   }
 2495              		.loc 13 76 5 is_stmt 0 view .LVU500
 2496              	.LBE1285:
 2497              	.LBE1291:
 2498              	.LBB1292:
 2499              	.LBI1275:
  75:../../../mutable-instruments/rings/dsp/fx/fx_engine.h ****     return static_cast<float>(static_cast<int16_t>(value)) / 32768.0f;
 2500              		.loc 13 75 23 is_stmt 1 view .LVU501
 2501              	.LBB1280:
  76:../../../mutable-instruments/rings/dsp/fx/fx_engine.h ****   }
 2502              		.loc 13 76 5 view .LVU502
  76:../../../mutable-instruments/rings/dsp/fx/fx_engine.h ****   }
 2503              		.loc 13 76 5 is_stmt 0 view .LVU503
 2504              	.LBE1280:
 2505              	.LBE1292:
 2506              	.LBE1307:
 2507              	.LBE1708:
 2508              	.LBB1709:
 2509              	.LBB1612:
 2510              	.LBB1605:
 2511              	.LBB1601:
  76:../../../mutable-instruments/rings/dsp/fx/fx_engine.h ****   }
 2512              		.loc 13 76 62 view .LVU504
 2513 031a 67EE877A 		vmul.f32	s15, s15, s14
 2514              	.LBE1601:
 2515              	.LBE1605:
 2516              	.LBE1612:
 2517              	.LBE1709:
 2518              	.LBB1710:
 2519              	.LBB1308:
 250:../../../mutable-instruments/rings/dsp/fx/fx_engine.h ****       previous_read_ = x;
 2520              		.loc 13 250 29 view .LVU505
 2521 031e 21EE201A 		vmul.f32	s2, s2, s1
 2522              	.LVL117:
 250:../../../mutable-instruments/rings/dsp/fx/fx_engine.h ****       previous_read_ = x;
 2523              		.loc 13 250 13 view .LVU506
 2524 0322 A8EE071A 		vfma.f32	s2, s16, s14
 2525              	.LVL118:
 252:../../../mutable-instruments/rings/dsp/fx/fx_engine.h ****     }
 2526              		.loc 13 252 20 view .LVU507
 2527 0326 E3EE816A 		vfma.f32	s13, s7, s2
 2528              	.LVL119:
 252:../../../mutable-instruments/rings/dsp/fx/fx_engine.h ****     }
 2529              		.loc 13 252 20 view .LVU508
 2530              	.LBE1308:
 2531              	.LBE1710:
 124:../../../mutable-instruments/rings/dsp/fx/reverb.h ****       c.Read(dap2a TAIL, kap);
 2532              		.loc 12 124 7 is_stmt 1 view .LVU509
 2533              	.LBB1711:
 2534              	.LBI1711:
 217:../../../mutable-instruments/rings/dsp/fx/fx_engine.h ****       state += coefficient * (accumulator_ - state);
 2535              		.loc 13 217 17 view .LVU510
 2536              	.LBB1712:
 218:../../../mutable-instruments/rings/dsp/fx/fx_engine.h ****       accumulator_ = state;
 2537              		.loc 13 218 44 is_stmt 0 view .LVU511
 2538 032a 76EEC56A 		vsub.f32	s13, s13, s10
ARM GAS  /var/folders/hl/qgbwny5j0fd895c2c41bk3tw0000gp/T//ccEG44Zu.s 			page 73


 218:../../../mutable-instruments/rings/dsp/fx/fx_engine.h ****       accumulator_ = state;
 2539              		.loc 13 218 13 view .LVU512
 2540 032e A4EE265A 		vfma.f32	s10, s8, s13
 2541              	.LVL120:
 218:../../../mutable-instruments/rings/dsp/fx/fx_engine.h ****       accumulator_ = state;
 2542              		.loc 13 218 13 view .LVU513
 2543              	.LBE1712:
 2544              	.LBE1711:
 125:../../../mutable-instruments/rings/dsp/fx/reverb.h ****       c.WriteAllPass(dap2a, -kap);
 2545              		.loc 12 125 7 is_stmt 1 view .LVU514
 2546              	.LBB1713:
 2547              	.LBI1595:
 199:../../../mutable-instruments/rings/dsp/fx/fx_engine.h ****       STATIC_ASSERT(D::base + D::length <= size, delay_memory_full);
 2548              		.loc 13 199 17 view .LVU515
 2549              	.LBB1613:
 2550              	.LBB1606:
 2551              	.LBI1597:
  75:../../../mutable-instruments/rings/dsp/fx/fx_engine.h ****     return static_cast<float>(static_cast<int16_t>(value)) / 32768.0f;
 2552              		.loc 13 75 23 view .LVU516
 2553              	.LBB1602:
  76:../../../mutable-instruments/rings/dsp/fx/fx_engine.h ****   }
 2554              		.loc 13 76 5 view .LVU517
  76:../../../mutable-instruments/rings/dsp/fx/fx_engine.h ****   }
 2555              		.loc 13 76 5 is_stmt 0 view .LVU518
 2556              	.LBE1602:
 2557              	.LBE1606:
 209:../../../mutable-instruments/rings/dsp/fx/fx_engine.h ****     }
 2558              		.loc 13 209 20 view .LVU519
 2559 0332 F0EE456A 		vmov.f32	s13, s10
 2560 0336 E6EE276A 		vfma.f32	s13, s12, s15
 2561              	.LVL121:
 209:../../../mutable-instruments/rings/dsp/fx/fx_engine.h ****     }
 2562              		.loc 13 209 20 view .LVU520
 2563              	.LBE1613:
 2564              	.LBE1713:
 126:../../../mutable-instruments/rings/dsp/fx/reverb.h ****       c.Read(dap2b TAIL, -kap);
 2565              		.loc 12 126 7 is_stmt 1 view .LVU521
 2566              	.LBB1714:
 2567              	.LBI1623:
 194:../../../mutable-instruments/rings/dsp/fx/fx_engine.h ****       WriteAllPass(d, 0, scale);
 2568              		.loc 13 194 17 view .LVU522
 2569              	.LBB1649:
 2570              	.LBI1624:
 188:../../../mutable-instruments/rings/dsp/fx/fx_engine.h ****       Write(d, offset, scale);
 2571              		.loc 13 188 17 view .LVU523
 2572              	.LBB1646:
 2573              	.LBB1642:
 2574              	.LBI1626:
 171:../../../mutable-instruments/rings/dsp/fx/fx_engine.h ****       STATIC_ASSERT(D::base + D::length <= size, delay_memory_full);
 2575              		.loc 13 171 17 view .LVU524
 2576              	.LBB1638:
 2577              	.LBB1628:
 2578              	.LBI1628:
  79:../../../mutable-instruments/rings/dsp/fx/fx_engine.h ****     return static_cast<uint16_t>(
 2579              		.loc 13 79 19 view .LVU525
 2580              	.LBB1629:
  80:../../../mutable-instruments/rings/dsp/fx/fx_engine.h ****         stmlib::Clip16(static_cast<int32_t>(value * 32768.0f)));
ARM GAS  /var/folders/hl/qgbwny5j0fd895c2c41bk3tw0000gp/T//ccEG44Zu.s 			page 74


 2581              		.loc 13 80 5 view .LVU526
 2582              	.LBB1630:
 2583              	.LBI1630:
 135:../../../mutable-instruments/stmlib/dsp/dsp.h ****     int32_t result;
 2584              		.loc 16 135 18 view .LVU527
 2585              	.LBB1631:
 136:../../../mutable-instruments/stmlib/dsp/dsp.h ****     __asm ("ssat %0, %1, %2" : "=r" (result) :  "I" (16), "r" (x) );
 2586              		.loc 16 136 5 view .LVU528
 137:../../../mutable-instruments/stmlib/dsp/dsp.h ****     return result;
 2587              		.loc 16 137 5 view .LVU529
 2588              	.LBE1631:
 2589              	.LBE1630:
  81:../../../mutable-instruments/rings/dsp/fx/fx_engine.h ****   }
 2590              		.loc 13 81 23 is_stmt 0 view .LVU530
 2591 033a B0EE661A 		vmov.f32	s2, s13
 2592              	.LBE1629:
 2593              	.LBE1628:
 2594              	.LBE1638:
 2595              	.LBE1642:
 190:../../../mutable-instruments/rings/dsp/fx/fx_engine.h ****     }
 2596              		.loc 13 190 20 view .LVU531
 2597 033e E6EEA57A 		vfma.f32	s15, s13, s11
 2598              	.LVL122:
 2599              	.LBB1643:
 2600              	.LBB1639:
 2601              	.LBB1635:
 2602              	.LBB1634:
  81:../../../mutable-instruments/rings/dsp/fx/fx_engine.h ****   }
 2603              		.loc 13 81 23 view .LVU532
 2604 0342 BEEEE81A 		vcvt.s32.f32	s2, s2, #15
 2605 0346 11EE107A 		vmov	r7, s2	@ int
 2606              	.LBB1633:
 2607              	.LBB1632:
 137:../../../mutable-instruments/stmlib/dsp/dsp.h ****     return result;
 2608              		.loc 16 137 5 view .LVU533
 2609              		.syntax unified
 2610              	@ 137 "../../../mutable-instruments/stmlib/dsp/dsp.h" 1
 2611 034a 07F30F07 		ssat r7, #16, r7
 2612              	@ 0 "" 2
 2613              	.LVL123:
 2614              		.loc 16 138 5 is_stmt 1 view .LVU534
 2615              		.loc 16 138 5 is_stmt 0 view .LVU535
 2616              		.thumb
 2617              		.syntax unified
 2618              	.LBE1632:
 2619              	.LBE1633:
  81:../../../mutable-instruments/rings/dsp/fx/fx_engine.h ****   }
 2620              		.loc 13 81 63 view .LVU536
 2621 034e 21F81970 		strh	r7, [r1, r9, lsl #1]	@ movhi
 2622              	.LVL124:
  81:../../../mutable-instruments/rings/dsp/fx/fx_engine.h ****   }
 2623              		.loc 13 81 63 view .LVU537
 2624              	.LBE1634:
 2625              	.LBE1635:
 2626              	.LBE1639:
 2627              	.LBE1643:
 2628              	.LBE1646:
ARM GAS  /var/folders/hl/qgbwny5j0fd895c2c41bk3tw0000gp/T//ccEG44Zu.s 			page 75


 2629              	.LBE1649:
 2630              	.LBE1714:
 127:../../../mutable-instruments/rings/dsp/fx/reverb.h ****       c.WriteAllPass(dap2b, kap);
 2631              		.loc 12 127 7 is_stmt 1 view .LVU538
 2632              	.LBB1715:
 2633              	.LBI1650:
 199:../../../mutable-instruments/rings/dsp/fx/fx_engine.h ****       STATIC_ASSERT(D::base + D::length <= size, delay_memory_full);
 2634              		.loc 13 199 17 view .LVU539
 2635              	.LBB1656:
 2636              	.LBB1652:
 2637              	.LBI1652:
  75:../../../mutable-instruments/rings/dsp/fx/fx_engine.h ****     return static_cast<float>(static_cast<int16_t>(value)) / 32768.0f;
 2638              		.loc 13 75 23 view .LVU540
 2639              	.LBB1653:
  76:../../../mutable-instruments/rings/dsp/fx/fx_engine.h ****   }
 2640              		.loc 13 76 5 view .LVU541
  76:../../../mutable-instruments/rings/dsp/fx/fx_engine.h ****   }
 2641              		.loc 13 76 12 is_stmt 0 view .LVU542
 2642 0352 31F91C70 		ldrsh	r7, [r1, ip, lsl #1]
 2643              	.LVL125:
  76:../../../mutable-instruments/rings/dsp/fx/fx_engine.h ****   }
 2644              		.loc 13 76 12 view .LVU543
 2645 0356 06EE907A 		vmov	s13, r7	@ int
 2646 035a F8EEE66A 		vcvt.f32.s32	s13, s13
  76:../../../mutable-instruments/rings/dsp/fx/fx_engine.h ****   }
 2647              		.loc 13 76 62 view .LVU544
 2648 035e 26EE877A 		vmul.f32	s14, s13, s14
 2649              	.LVL126:
  76:../../../mutable-instruments/rings/dsp/fx/fx_engine.h ****   }
 2650              		.loc 13 76 62 view .LVU545
 2651              	.LBE1653:
 2652              	.LBE1652:
 209:../../../mutable-instruments/rings/dsp/fx/fx_engine.h ****     }
 2653              		.loc 13 209 20 view .LVU546
 2654 0362 E7EE257A 		vfma.f32	s15, s14, s11
 2655              	.LVL127:
 209:../../../mutable-instruments/rings/dsp/fx/fx_engine.h ****     }
 2656              		.loc 13 209 20 view .LVU547
 2657              	.LBE1656:
 2658              	.LBE1715:
 128:../../../mutable-instruments/rings/dsp/fx/reverb.h ****       c.Write(del2, 2.0f);
 2659              		.loc 12 128 7 is_stmt 1 view .LVU548
 2660              	.LBB1716:
 2661              	.LBI1668:
 194:../../../mutable-instruments/rings/dsp/fx/fx_engine.h ****       WriteAllPass(d, 0, scale);
 2662              		.loc 13 194 17 view .LVU549
 2663              	.LBB1701:
 2664              	.LBI1669:
 188:../../../mutable-instruments/rings/dsp/fx/fx_engine.h ****       Write(d, offset, scale);
 2665              		.loc 13 188 17 view .LVU550
 2666              	.LBB1697:
 2667              	.LBB1692:
 2668              	.LBI1671:
 171:../../../mutable-instruments/rings/dsp/fx/fx_engine.h ****       STATIC_ASSERT(D::base + D::length <= size, delay_memory_full);
 2669              		.loc 13 171 17 view .LVU551
 2670              	.LBB1687:
 2671              	.LBB1673:
ARM GAS  /var/folders/hl/qgbwny5j0fd895c2c41bk3tw0000gp/T//ccEG44Zu.s 			page 76


 2672              	.LBI1673:
  79:../../../mutable-instruments/rings/dsp/fx/fx_engine.h ****     return static_cast<uint16_t>(
 2673              		.loc 13 79 19 view .LVU552
 2674              	.LBB1674:
  80:../../../mutable-instruments/rings/dsp/fx/fx_engine.h ****         stmlib::Clip16(static_cast<int32_t>(value * 32768.0f)));
 2675              		.loc 13 80 5 view .LVU553
 2676              	.LBB1675:
 2677              	.LBI1675:
 135:../../../mutable-instruments/stmlib/dsp/dsp.h ****     int32_t result;
 2678              		.loc 16 135 18 view .LVU554
 2679              	.LBB1676:
 136:../../../mutable-instruments/stmlib/dsp/dsp.h ****     __asm ("ssat %0, %1, %2" : "=r" (result) :  "I" (16), "r" (x) );
 2680              		.loc 16 136 5 view .LVU555
 137:../../../mutable-instruments/stmlib/dsp/dsp.h ****     return result;
 2681              		.loc 16 137 5 view .LVU556
 2682              	.LBE1676:
 2683              	.LBE1675:
 2684              	.LBE1674:
 2685              	.LBE1673:
 2686              	.LBE1687:
 2687              	.LBE1692:
 190:../../../mutable-instruments/rings/dsp/fx/fx_engine.h ****     }
 2688              		.loc 13 190 20 is_stmt 0 view .LVU557
 2689 0366 A6EE277A 		vfma.f32	s14, s12, s15
 2690              	.LVL128:
 2691              	.LBB1693:
 2692              	.LBB1688:
 2693              	.LBB1683:
 2694              	.LBB1681:
  81:../../../mutable-instruments/rings/dsp/fx/fx_engine.h ****   }
 2695              		.loc 13 81 23 view .LVU558
 2696 036a FEEEE87A 		vcvt.s32.f32	s15, s15, #15
 2697              	.LVL129:
 2698              	.LBB1679:
 2699              	.LBB1677:
 137:../../../mutable-instruments/stmlib/dsp/dsp.h ****     return result;
 2700              		.loc 16 137 5 view .LVU559
 2701 036e 17EE907A 		vmov	r7, s15	@ int
 2702              	.LBE1677:
 2703              	.LBE1679:
 2704              	.LBE1681:
 2705              	.LBE1683:
 2706              	.LBE1688:
 2707              	.LBE1693:
 2708              	.LBE1697:
 2709              	.LBE1701:
 2710              	.LBE1716:
 2711              		.loc 12 132 22 view .LVU560
 2712 0372 F0EE617A 		vmov.f32	s15, s3
 2713              	.LBB1717:
 2714              	.LBB1702:
 2715              	.LBB1698:
 2716              	.LBB1694:
 2717              	.LBB1689:
 2718              	.LBB1684:
 2719              	.LBB1682:
 2720              	.LBB1680:
ARM GAS  /var/folders/hl/qgbwny5j0fd895c2c41bk3tw0000gp/T//ccEG44Zu.s 			page 77


 2721              	.LBB1678:
 137:../../../mutable-instruments/stmlib/dsp/dsp.h ****     return result;
 2722              		.loc 16 137 5 view .LVU561
 2723              		.syntax unified
 2724              	@ 137 "../../../mutable-instruments/stmlib/dsp/dsp.h" 1
 2725 0376 07F30F0C 		ssat ip, #16, r7
 2726              	@ 0 "" 2
 2727              	.LVL130:
 2728              		.loc 16 138 5 is_stmt 1 view .LVU562
 2729              		.loc 16 138 5 is_stmt 0 view .LVU563
 2730              		.thumb
 2731              		.syntax unified
 2732              	.LBE1678:
 2733              	.LBE1680:
  81:../../../mutable-instruments/rings/dsp/fx/fx_engine.h ****   }
 2734              		.loc 13 81 63 view .LVU564
 2735 037a 21F816C0 		strh	ip, [r1, r6, lsl #1]	@ movhi
 2736              	.LVL131:
  81:../../../mutable-instruments/rings/dsp/fx/fx_engine.h ****   }
 2737              		.loc 13 81 63 view .LVU565
 2738              	.LBE1682:
 2739              	.LBE1684:
 2740              	.LBE1689:
 2741              	.LBE1694:
 2742              	.LBE1698:
 2743              	.LBE1702:
 2744              	.LBE1717:
 129:../../../mutable-instruments/rings/dsp/fx/reverb.h ****       c.Write(wet, 0.0f);
 2745              		.loc 12 129 7 is_stmt 1 view .LVU566
 2746              	.LBB1718:
 2747              	.LBI1484:
 183:../../../mutable-instruments/rings/dsp/fx/fx_engine.h ****       Write(d, 0, scale);
 2748              		.loc 13 183 17 view .LVU567
 2749              	.LBB1502:
 2750              	.LBI1485:
 171:../../../mutable-instruments/rings/dsp/fx/fx_engine.h ****       STATIC_ASSERT(D::base + D::length <= size, delay_memory_full);
 2751              		.loc 13 171 17 view .LVU568
 2752              	.LBB1498:
 2753              	.LBB1487:
 2754              	.LBI1487:
  79:../../../mutable-instruments/rings/dsp/fx/fx_engine.h ****     return static_cast<uint16_t>(
 2755              		.loc 13 79 19 view .LVU569
 2756              	.LBB1488:
  80:../../../mutable-instruments/rings/dsp/fx/fx_engine.h ****         stmlib::Clip16(static_cast<int32_t>(value * 32768.0f)));
 2757              		.loc 13 80 5 view .LVU570
 2758              	.LBB1489:
 2759              	.LBI1489:
 135:../../../mutable-instruments/stmlib/dsp/dsp.h ****     int32_t result;
 2760              		.loc 16 135 18 view .LVU571
 2761              	.LBB1490:
 136:../../../mutable-instruments/stmlib/dsp/dsp.h ****     __asm ("ssat %0, %1, %2" : "=r" (result) :  "I" (16), "r" (x) );
 2762              		.loc 16 136 5 view .LVU572
 137:../../../mutable-instruments/stmlib/dsp/dsp.h ****     return result;
 2763              		.loc 16 137 5 view .LVU573
 2764              	.LBE1490:
 2765              	.LBE1489:
 2766              	.LBE1488:
ARM GAS  /var/folders/hl/qgbwny5j0fd895c2c41bk3tw0000gp/T//ccEG44Zu.s 			page 78


 2767              	.LBE1487:
 2768              	.LBE1498:
 2769              	.LBE1502:
 2770              	.LBE1718:
 2771              		.loc 12 132 22 is_stmt 0 view .LVU574
 2772 037e D7EE027A 		vfnms.f32	s15, s14, s4
 2773              	.LBB1719:
 2774              	.LBB1503:
 2775              	.LBB1499:
 2776              	.LBB1495:
 2777              	.LBB1493:
  81:../../../mutable-instruments/rings/dsp/fx/fx_engine.h ****   }
 2778              		.loc 13 81 23 view .LVU575
 2779 0382 BEEEE87A 		vcvt.s32.f32	s14, s14, #15
 2780              	.LVL132:
 2781              	.LBB1492:
 2782              	.LBB1491:
 137:../../../mutable-instruments/stmlib/dsp/dsp.h ****     return result;
 2783              		.loc 16 137 5 view .LVU576
 2784 0386 17EE106A 		vmov	r6, s14	@ int
 2785              		.syntax unified
 2786              	@ 137 "../../../mutable-instruments/stmlib/dsp/dsp.h" 1
 2787 038a 06F30F0C 		ssat ip, #16, r6
 2788              	@ 0 "" 2
 2789              	.LVL133:
 2790              		.loc 16 138 5 is_stmt 1 view .LVU577
 2791              		.loc 16 138 5 is_stmt 0 view .LVU578
 2792              		.thumb
 2793              		.syntax unified
 2794              	.LBE1491:
 2795              	.LBE1492:
 2796              	.LBE1493:
 2797              	.LBE1495:
 2798              	.LBE1499:
 2799              	.LBE1503:
 2800              	.LBE1719:
 2801              		.loc 12 132 14 view .LVU579
 2802 038e E7EE831A 		vfma.f32	s3, s15, s6
 2803              	.LBE1726:
  87:../../../mutable-instruments/rings/dsp/fx/reverb.h ****       float wet;
 2804              		.loc 12 87 16 view .LVU580
 2805 0392 6E1C     		adds	r6, r5, #1
 2806              	.LBB1727:
 2807              	.LBB1720:
 2808              	.LBB1504:
 2809              	.LBB1500:
 2810              	.LBB1496:
 2811              	.LBB1494:
  81:../../../mutable-instruments/rings/dsp/fx/fx_engine.h ****   }
 2812              		.loc 13 81 63 view .LVU581
 2813 0394 21F81EC0 		strh	ip, [r1, lr, lsl #1]	@ movhi
 2814              	.LVL134:
  81:../../../mutable-instruments/rings/dsp/fx/fx_engine.h ****   }
 2815              		.loc 13 81 63 view .LVU582
 2816              	.LBE1494:
 2817              	.LBE1496:
 2818              	.LBE1500:
ARM GAS  /var/folders/hl/qgbwny5j0fd895c2c41bk3tw0000gp/T//ccEG44Zu.s 			page 79


 2819              	.LBE1504:
 2820              	.LBE1720:
 130:../../../mutable-instruments/rings/dsp/fx/reverb.h **** 
 2821              		.loc 12 130 7 is_stmt 1 view .LVU583
 2822              		.loc 12 132 7 view .LVU584
 2823              		.loc 12 132 14 is_stmt 0 view .LVU585
 2824 0398 E2EC011A 		vstmia.32	r2!, {s3}
 2825              	.LVL135:
 133:../../../mutable-instruments/rings/dsp/fx/reverb.h ****       
 134:../../../mutable-instruments/rings/dsp/fx/reverb.h ****       ++left;
 2826              		.loc 12 134 7 is_stmt 1 view .LVU586
 135:../../../mutable-instruments/rings/dsp/fx/reverb.h ****       ++right;
 2827              		.loc 12 135 7 view .LVU587
 2828              		.loc 12 135 7 is_stmt 0 view .LVU588
 2829              	.LBE1727:
  87:../../../mutable-instruments/rings/dsp/fx/reverb.h ****       float wet;
 2830              		.loc 12 87 5 is_stmt 1 view .LVU589
  87:../../../mutable-instruments/rings/dsp/fx/reverb.h ****       float wet;
 2831              		.loc 12 87 16 view .LVU590
  87:../../../mutable-instruments/rings/dsp/fx/reverb.h ****       float wet;
 2832              		.loc 12 87 16 is_stmt 0 view .LVU591
 2833 039c 16D0     		beq	.L37
 2834              	.LVL136:
 2835              	.L28:
 2836              	.LBB1728:
  88:../../../mutable-instruments/rings/dsp/fx/reverb.h ****       float apout = 0.0f;
 2837              		.loc 12 88 7 is_stmt 1 view .LVU592
  89:../../../mutable-instruments/rings/dsp/fx/reverb.h ****       engine_.Start(&c);
 2838              		.loc 12 89 7 view .LVU593
  90:../../../mutable-instruments/rings/dsp/fx/reverb.h ****       
 2839              		.loc 12 90 7 view .LVU594
 2840              	.LBB1721:
 2841              	.LBI1088:
 269:../../../mutable-instruments/rings/dsp/fx/fx_engine.h ****     --write_ptr_;
 2842              		.loc 13 269 15 view .LVU595
 2843              	.LBB1125:
 271:../../../mutable-instruments/rings/dsp/fx/fx_engine.h ****       write_ptr_ += size;
 2844              		.loc 13 271 5 is_stmt 0 view .LVU596
 2845 039e 5E1E     		subs	r6, r3, #1
 2846 03a0 0FD4     		bmi	.L24
 271:../../../mutable-instruments/rings/dsp/fx/fx_engine.h ****       write_ptr_ += size;
 2847              		.loc 13 271 5 view .LVU597
 2848              	.LBE1125:
 2849              	.LBE1721:
 2850              	.LBB1722:
 2851              	.LBB1205:
 2852              	.LBB1201:
 2853              	.LBB1197:
 2854              	.LBB1192:
 177:../../../mutable-instruments/rings/dsp/fx/fx_engine.h ****       }
 2855              		.loc 13 177 49 view .LVU598
 2856 03a2 3346     		mov	r3, r6
 2857 03a4 B646     		mov	lr, r6
 2858              	.L25:
 2859              	.LBE1192:
 2860              	.LBE1197:
 2861              	.LBE1201:
ARM GAS  /var/folders/hl/qgbwny5j0fd895c2c41bk3tw0000gp/T//ccEG44Zu.s 			page 80


 2862              	.LBE1205:
 2863              	.LBE1722:
 2864              	.LBB1723:
 2865              	.LBB1126:
 277:../../../mutable-instruments/rings/dsp/fx/fx_engine.h ****     c->write_ptr_ = write_ptr_;
 278:../../../mutable-instruments/rings/dsp/fx/fx_engine.h ****     if ((write_ptr_ & 31) == 0) {
 2866              		.loc 13 278 5 view .LVU599
 2867 03a6 DF06     		lsls	r7, r3, #27
 2868 03a8 3FF446AE 		beq	.L38
 2869              	.LVL137:
 2870              	.LBB1116:
 2871              	.LBI1116:
  81:../../../mutable-instruments/stmlib/dsp/cosine_oscillator.h ****     return y1_ + 0.5f;
 2872              		.loc 15 81 16 is_stmt 1 view .LVU600
 2873              	.LBB1117:
  82:../../../mutable-instruments/stmlib/dsp/cosine_oscillator.h ****   }
 2874              		.loc 15 82 5 view .LVU601
  82:../../../mutable-instruments/stmlib/dsp/cosine_oscillator.h ****   }
 2875              		.loc 15 82 18 is_stmt 0 view .LVU602
 2876 03ac F6EE007A 		vmov.f32	s15, #5.0e-1
 2877 03b0 90ED020A 		vldr.32	s0, [r0, #8]
 2878              	.LBE1117:
 2879              	.LBE1116:
 2880              	.LBB1119:
 2881              	.LBB1120:
 2882 03b4 90ED062A 		vldr.32	s4, [r0, #24]
 2883              	.LBE1120:
 2884              	.LBE1119:
 2885              	.LBB1122:
 2886              	.LBB1118:
 2887 03b8 30EE270A 		vadd.f32	s0, s0, s15
 2888              	.LVL138:
  82:../../../mutable-instruments/stmlib/dsp/cosine_oscillator.h ****   }
 2889              		.loc 15 82 18 view .LVU603
 2890              	.LBE1118:
 2891              	.LBE1122:
 2892              	.LBB1123:
 2893              	.LBI1119:
  81:../../../mutable-instruments/stmlib/dsp/cosine_oscillator.h ****     return y1_ + 0.5f;
 2894              		.loc 15 81 16 is_stmt 1 view .LVU604
 2895              	.LBB1121:
  82:../../../mutable-instruments/stmlib/dsp/cosine_oscillator.h ****   }
 2896              		.loc 15 82 5 view .LVU605
  82:../../../mutable-instruments/stmlib/dsp/cosine_oscillator.h ****   }
 2897              		.loc 15 82 18 is_stmt 0 view .LVU606
 2898 03bc 32EE272A 		vadd.f32	s4, s4, s15
 2899              	.LVL139:
  82:../../../mutable-instruments/stmlib/dsp/cosine_oscillator.h ****   }
 2900              		.loc 15 82 18 view .LVU607
 2901 03c0 58E6     		b	.L27
 2902              	.LVL140:
 2903              	.L24:
  82:../../../mutable-instruments/stmlib/dsp/cosine_oscillator.h ****   }
 2904              		.loc 15 82 18 view .LVU608
 2905              	.LBE1121:
 2906              	.LBE1123:
 272:../../../mutable-instruments/rings/dsp/fx/fx_engine.h ****     }
ARM GAS  /var/folders/hl/qgbwny5j0fd895c2c41bk3tw0000gp/T//ccEG44Zu.s 			page 81


 2907              		.loc 13 272 18 view .LVU609
 2908 03c2 03F5FF43 		add	r3, r3, #32640
 2909 03c6 7F33     		adds	r3, r3, #127
 2910 03c8 9E46     		mov	lr, r3
 2911 03ca ECE7     		b	.L25
 2912              	.LVL141:
 2913              	.L37:
 272:../../../mutable-instruments/rings/dsp/fx/fx_engine.h ****     }
 2914              		.loc 13 272 18 view .LVU610
 2915              	.LBE1126:
 2916              	.LBE1723:
 2917              	.LBE1728:
 136:../../../mutable-instruments/rings/dsp/fx/reverb.h ****     }
 137:../../../mutable-instruments/rings/dsp/fx/reverb.h ****     
 138:../../../mutable-instruments/rings/dsp/fx/reverb.h ****     lp_decay_1_ = lp_1;
 139:../../../mutable-instruments/rings/dsp/fx/reverb.h ****     lp_decay_2_ = lp_2;
 140:../../../mutable-instruments/rings/dsp/fx/reverb.h ****   }
 2918              		.loc 12 140 3 view .LVU611
 2919 03cc BDEC028B 		vldm	sp!, {d8}
 2920              		.cfi_restore 80
 2921              		.cfi_restore 81
 2922              		.cfi_def_cfa_offset 36
 2923              	.LVL142:
 2924              		.loc 12 140 3 view .LVU612
 2925 03d0 0360     		str	r3, [r0]
 138:../../../mutable-instruments/rings/dsp/fx/reverb.h ****     lp_decay_2_ = lp_2;
 2926              		.loc 12 138 5 is_stmt 1 view .LVU613
 138:../../../mutable-instruments/rings/dsp/fx/reverb.h ****     lp_decay_2_ = lp_2;
 2927              		.loc 12 138 17 is_stmt 0 view .LVU614
 2928 03d2 C0ED0F4A 		vstr.32	s9, [r0, #60]
 139:../../../mutable-instruments/rings/dsp/fx/reverb.h ****   }
 2929              		.loc 12 139 5 is_stmt 1 view .LVU615
 139:../../../mutable-instruments/rings/dsp/fx/reverb.h ****   }
 2930              		.loc 12 139 17 is_stmt 0 view .LVU616
 2931 03d6 80ED105A 		vstr.32	s10, [r0, #64]
 2932              	.LVL143:
 2933              	.LBB1729:
 2934              	.LBI1729:
 147:../../../mutable-instruments/rings/dsp/fx/fx_engine.h ****     
 2935              		.loc 13 147 5 is_stmt 1 view .LVU617
 147:../../../mutable-instruments/rings/dsp/fx/fx_engine.h ****     
 2936              		.loc 13 147 5 is_stmt 0 view .LVU618
 2937              	.LBE1729:
 2938              		.loc 12 140 3 view .LVU619
 2939 03da BDE8F08F 		pop	{r4, r5, r6, r7, r8, r9, r10, fp, pc}
 2940              	.LVL144:
 2941              	.L34:
 2942              		.cfi_def_cfa_offset 0
 2943              		.cfi_restore 4
 2944              		.cfi_restore 5
 2945              		.cfi_restore 6
 2946              		.cfi_restore 7
 2947              		.cfi_restore 8
 2948              		.cfi_restore 9
 2949              		.cfi_restore 10
 2950              		.cfi_restore 11
 2951              		.cfi_restore 14
ARM GAS  /var/folders/hl/qgbwny5j0fd895c2c41bk3tw0000gp/T//ccEG44Zu.s 			page 82


 138:../../../mutable-instruments/rings/dsp/fx/reverb.h ****     lp_decay_2_ = lp_2;
 2952              		.loc 12 138 5 is_stmt 1 view .LVU620
 138:../../../mutable-instruments/rings/dsp/fx/reverb.h ****     lp_decay_2_ = lp_2;
 2953              		.loc 12 138 17 is_stmt 0 view .LVU621
 2954 03de C0ED0F4A 		vstr.32	s9, [r0, #60]
 139:../../../mutable-instruments/rings/dsp/fx/reverb.h ****   }
 2955              		.loc 12 139 5 is_stmt 1 view .LVU622
 139:../../../mutable-instruments/rings/dsp/fx/reverb.h ****   }
 2956              		.loc 12 139 17 is_stmt 0 view .LVU623
 2957 03e2 80ED105A 		vstr.32	s10, [r0, #64]
 2958              	.LVL145:
 2959              	.LBB1730:
 147:../../../mutable-instruments/rings/dsp/fx/fx_engine.h ****     
 2960              		.loc 13 147 5 is_stmt 1 view .LVU624
 147:../../../mutable-instruments/rings/dsp/fx/fx_engine.h ****     
 2961              		.loc 13 147 5 is_stmt 0 view .LVU625
 2962              	.LBE1730:
 139:../../../mutable-instruments/rings/dsp/fx/reverb.h ****   }
 2963              		.loc 12 139 17 view .LVU626
 2964 03e6 7047     		bx	lr
 2965              	.L40:
 2966              		.align	2
 2967              	.L39:
 2968 03e8 00000000 		.word	0
 2969 03ec 00000038 		.word	939524096
 2970 03f0 00A8C345 		.word	1170450432
 2971 03f4 00004842 		.word	1112014848
 2972 03f8 00002042 		.word	1109393408
 2973 03fc 00608B45 		.word	1166761984
 2974              		.cfi_endproc
 2975              	.LFE4875:
 2977              		.section	.text._Z16UpdateParametersv,"ax",%progbits
 2978              		.align	1
 2979              		.p2align 2,,3
 2980              		.global	_Z16UpdateParametersv
 2981              		.syntax unified
 2982              		.thumb
 2983              		.thumb_func
 2985              	_Z16UpdateParametersv:
 2986              	.LFB5244:
 2987              		.file 17 "Interesting.cpp"
   1:Interesting.cpp **** #include "daisy_patch_sm.h"
   2:Interesting.cpp **** #include "daisy.h"
   3:Interesting.cpp **** #include "daisysp.h"
   4:Interesting.cpp **** #include "daisy_bed.h"
   5:Interesting.cpp **** #include "processor.h"
   6:Interesting.cpp **** #include "effects_handling.h"
   7:Interesting.cpp **** 
   8:Interesting.cpp **** using namespace daisy;
   9:Interesting.cpp **** using namespace patch_sm;
  10:Interesting.cpp **** using namespace daisysp;
  11:Interesting.cpp **** 
  12:Interesting.cpp **** #define MAX_SIZE static_cast<size_t>(48000)
  13:Interesting.cpp **** DaisyPatchSM hw;
  14:Interesting.cpp **** InterestingProcessor<MAX_SIZE> DSY_SDRAM_BSS proc;
  15:Interesting.cpp **** EffectsHandling effects;
  16:Interesting.cpp **** CpuLoadMeter loadMeter;
ARM GAS  /var/folders/hl/qgbwny5j0fd895c2c41bk3tw0000gp/T//ccEG44Zu.s 			page 83


  17:Interesting.cpp **** int mod;
  18:Interesting.cpp **** 
  19:Interesting.cpp **** void ModManager();
  20:Interesting.cpp **** void UpdateParameters()
  21:Interesting.cpp **** {
 2988              		.loc 17 21 1 is_stmt 1 view -0
 2989              		.cfi_startproc
 2990              		@ args = 0, pretend = 0, frame = 0
 2991              		@ frame_needed = 0, uses_anonymous_args = 0
  22:Interesting.cpp **** 	float speed1 = fmap(hw.GetAdcValue(CV_1), 0.1f, 1.0f);
 2992              		.loc 17 22 2 view .LVU628
  21:Interesting.cpp **** 	float speed1 = fmap(hw.GetAdcValue(CV_1), 0.1f, 1.0f);
 2993              		.loc 17 21 1 is_stmt 0 view .LVU629
 2994 0000 10B5     		push	{r4, lr}
 2995              		.cfi_def_cfa_offset 8
 2996              		.cfi_offset 4, -8
 2997              		.cfi_offset 14, -4
 2998 0002 2DED088B 		vpush.64	{d8, d9, d10, d11}
 2999              		.cfi_def_cfa_offset 40
 3000              		.cfi_offset 80, -40
 3001              		.cfi_offset 81, -36
 3002              		.cfi_offset 82, -32
 3003              		.cfi_offset 83, -28
 3004              		.cfi_offset 84, -24
 3005              		.cfi_offset 85, -20
 3006              		.cfi_offset 86, -16
 3007              		.cfi_offset 87, -12
 3008              	.LBB1731:
 3009              	.LBB1732:
 3010              		.file 18 "../../DaisySP//Source/Utility/dsp.h"
   1:../../DaisySP//Source/Utility/dsp.h **** /** Helpful defines, functions, and other utilities for use in/with daisysp modules.
   2:../../DaisySP//Source/Utility/dsp.h **** */
   3:../../DaisySP//Source/Utility/dsp.h **** #pragma once
   4:../../DaisySP//Source/Utility/dsp.h **** #ifndef DSY_CORE_DSP
   5:../../DaisySP//Source/Utility/dsp.h **** #define DSY_CORE_DSP
   6:../../DaisySP//Source/Utility/dsp.h **** #include <cassert>
   7:../../DaisySP//Source/Utility/dsp.h **** #include <cstdint>
   8:../../DaisySP//Source/Utility/dsp.h **** #include <random>
   9:../../DaisySP//Source/Utility/dsp.h **** #include <cmath>
  10:../../DaisySP//Source/Utility/dsp.h **** 
  11:../../DaisySP//Source/Utility/dsp.h **** /** PIs
  12:../../DaisySP//Source/Utility/dsp.h **** */
  13:../../DaisySP//Source/Utility/dsp.h **** #define PI_F 3.1415927410125732421875f
  14:../../DaisySP//Source/Utility/dsp.h **** #define TWOPI_F (2.0f * PI_F)
  15:../../DaisySP//Source/Utility/dsp.h **** #define HALFPI_F (PI_F * 0.5f)
  16:../../DaisySP//Source/Utility/dsp.h **** #define DSY_MIN(in, mn) (in < mn ? in : mn)
  17:../../DaisySP//Source/Utility/dsp.h **** #define DSY_MAX(in, mx) (in > mx ? in : mx)
  18:../../DaisySP//Source/Utility/dsp.h **** #define DSY_CLAMP(in, mn, mx) (DSY_MIN(DSY_MAX(in, mn), mx))
  19:../../DaisySP//Source/Utility/dsp.h **** #define DSY_COUNTOF(_arr) (sizeof(_arr) / sizeof(_arr[0]))
  20:../../DaisySP//Source/Utility/dsp.h **** 
  21:../../DaisySP//Source/Utility/dsp.h **** namespace daisysp
  22:../../DaisySP//Source/Utility/dsp.h **** {
  23:../../DaisySP//Source/Utility/dsp.h **** //Avoids division for random floats. e.g. rand() * kRandFrac
  24:../../DaisySP//Source/Utility/dsp.h **** static constexpr float kRandFrac = 1.f / (float)RAND_MAX;
  25:../../DaisySP//Source/Utility/dsp.h **** 
  26:../../DaisySP//Source/Utility/dsp.h **** //Convert from semitones to other units. e.g. 2 ^ (kOneTwelfth * x)
  27:../../DaisySP//Source/Utility/dsp.h **** static constexpr float kOneTwelfth = 1.f / 12.f;
ARM GAS  /var/folders/hl/qgbwny5j0fd895c2c41bk3tw0000gp/T//ccEG44Zu.s 			page 84


  28:../../DaisySP//Source/Utility/dsp.h **** 
  29:../../DaisySP//Source/Utility/dsp.h **** /** efficient floating point min/max
  30:../../DaisySP//Source/Utility/dsp.h **** c/o stephen mccaul
  31:../../DaisySP//Source/Utility/dsp.h **** */
  32:../../DaisySP//Source/Utility/dsp.h **** inline float fmax(float a, float b)
  33:../../DaisySP//Source/Utility/dsp.h **** {
  34:../../DaisySP//Source/Utility/dsp.h ****     float r;
  35:../../DaisySP//Source/Utility/dsp.h **** #ifdef __arm__
  36:../../DaisySP//Source/Utility/dsp.h ****     asm("vmaxnm.f32 %[d], %[n], %[m]" : [d] "=t"(r) : [n] "t"(a), [m] "t"(b) :);
  37:../../DaisySP//Source/Utility/dsp.h **** #else
  38:../../DaisySP//Source/Utility/dsp.h ****     r = (a > b) ? a : b;
  39:../../DaisySP//Source/Utility/dsp.h **** #endif // __arm__
  40:../../DaisySP//Source/Utility/dsp.h ****     return r;
  41:../../DaisySP//Source/Utility/dsp.h **** }
  42:../../DaisySP//Source/Utility/dsp.h **** 
  43:../../DaisySP//Source/Utility/dsp.h **** inline float fmin(float a, float b)
  44:../../DaisySP//Source/Utility/dsp.h **** {
  45:../../DaisySP//Source/Utility/dsp.h ****     float r;
  46:../../DaisySP//Source/Utility/dsp.h **** #ifdef __arm__
  47:../../DaisySP//Source/Utility/dsp.h ****     asm("vminnm.f32 %[d], %[n], %[m]" : [d] "=t"(r) : [n] "t"(a), [m] "t"(b) :);
  48:../../DaisySP//Source/Utility/dsp.h **** #else
  49:../../DaisySP//Source/Utility/dsp.h ****     r = (a < b) ? a : b;
  50:../../DaisySP//Source/Utility/dsp.h **** #endif // __arm__
  51:../../DaisySP//Source/Utility/dsp.h ****     return r;
  52:../../DaisySP//Source/Utility/dsp.h **** }
  53:../../DaisySP//Source/Utility/dsp.h **** 
  54:../../DaisySP//Source/Utility/dsp.h **** /** quick fp clamp
  55:../../DaisySP//Source/Utility/dsp.h **** */
  56:../../DaisySP//Source/Utility/dsp.h **** inline float fclamp(float in, float min, float max)
  57:../../DaisySP//Source/Utility/dsp.h **** {
  58:../../DaisySP//Source/Utility/dsp.h ****     return fmin(fmax(in, min), max);
  59:../../DaisySP//Source/Utility/dsp.h **** }
  60:../../DaisySP//Source/Utility/dsp.h **** 
  61:../../DaisySP//Source/Utility/dsp.h **** /** From Musicdsp.org "Fast power and root estimates for 32bit floats)
  62:../../DaisySP//Source/Utility/dsp.h **** Original code by Stefan Stenzel
  63:../../DaisySP//Source/Utility/dsp.h **** These are approximations
  64:../../DaisySP//Source/Utility/dsp.h **** */
  65:../../DaisySP//Source/Utility/dsp.h **** inline float fastpower(float f, int n)
  66:../../DaisySP//Source/Utility/dsp.h **** {
  67:../../DaisySP//Source/Utility/dsp.h ****     long *lp, l;
  68:../../DaisySP//Source/Utility/dsp.h ****     lp = (long *)(&f);
  69:../../DaisySP//Source/Utility/dsp.h ****     l  = *lp;
  70:../../DaisySP//Source/Utility/dsp.h ****     l -= 0x3F800000;
  71:../../DaisySP//Source/Utility/dsp.h ****     l <<= (n - 1);
  72:../../DaisySP//Source/Utility/dsp.h ****     l += 0x3F800000;
  73:../../DaisySP//Source/Utility/dsp.h ****     *lp = l;
  74:../../DaisySP//Source/Utility/dsp.h ****     return f;
  75:../../DaisySP//Source/Utility/dsp.h **** }
  76:../../DaisySP//Source/Utility/dsp.h **** 
  77:../../DaisySP//Source/Utility/dsp.h **** inline float fastroot(float f, int n)
  78:../../DaisySP//Source/Utility/dsp.h **** {
  79:../../DaisySP//Source/Utility/dsp.h ****     long *lp, l;
  80:../../DaisySP//Source/Utility/dsp.h ****     lp = (long *)(&f);
  81:../../DaisySP//Source/Utility/dsp.h ****     l  = *lp;
  82:../../DaisySP//Source/Utility/dsp.h ****     l -= 0x3F800000;
  83:../../DaisySP//Source/Utility/dsp.h ****     l >>= (n = 1);
  84:../../DaisySP//Source/Utility/dsp.h ****     l += 0x3F800000;
ARM GAS  /var/folders/hl/qgbwny5j0fd895c2c41bk3tw0000gp/T//ccEG44Zu.s 			page 85


  85:../../DaisySP//Source/Utility/dsp.h ****     *lp = l;
  86:../../DaisySP//Source/Utility/dsp.h ****     return f;
  87:../../DaisySP//Source/Utility/dsp.h **** }
  88:../../DaisySP//Source/Utility/dsp.h **** 
  89:../../DaisySP//Source/Utility/dsp.h **** /** From http://openaudio.blogspot.com/2017/02/faster-log10-and-pow.html
  90:../../DaisySP//Source/Utility/dsp.h **** No approximation, pow10f(x) gives a 90% speed increase over powf(10.f, x)
  91:../../DaisySP//Source/Utility/dsp.h **** */
  92:../../DaisySP//Source/Utility/dsp.h **** inline float pow10f(float f)
  93:../../DaisySP//Source/Utility/dsp.h **** {
  94:../../DaisySP//Source/Utility/dsp.h ****     return expf(2.302585092994046f * f);
  95:../../DaisySP//Source/Utility/dsp.h **** }
  96:../../DaisySP//Source/Utility/dsp.h **** 
  97:../../DaisySP//Source/Utility/dsp.h **** /* Original code for fastlog2f by Dr. Paul Beckmann from the ARM community forum, adapted from the 
  98:../../DaisySP//Source/Utility/dsp.h **** About 25% performance increase over std::log10f
  99:../../DaisySP//Source/Utility/dsp.h **** */
 100:../../DaisySP//Source/Utility/dsp.h **** inline float fastlog2f(float f)
 101:../../DaisySP//Source/Utility/dsp.h **** {
 102:../../DaisySP//Source/Utility/dsp.h ****     float frac;
 103:../../DaisySP//Source/Utility/dsp.h ****     int   exp;
 104:../../DaisySP//Source/Utility/dsp.h ****     frac = frexpf(fabsf(f), &exp);
 105:../../DaisySP//Source/Utility/dsp.h ****     f    = 1.23149591368684f;
 106:../../DaisySP//Source/Utility/dsp.h ****     f *= frac;
 107:../../DaisySP//Source/Utility/dsp.h ****     f += -4.11852516267426f;
 108:../../DaisySP//Source/Utility/dsp.h ****     f *= frac;
 109:../../DaisySP//Source/Utility/dsp.h ****     f += 6.02197014179219f;
 110:../../DaisySP//Source/Utility/dsp.h ****     f *= frac;
 111:../../DaisySP//Source/Utility/dsp.h ****     f += -3.13396450166353f;
 112:../../DaisySP//Source/Utility/dsp.h ****     f += exp;
 113:../../DaisySP//Source/Utility/dsp.h ****     return (f);
 114:../../DaisySP//Source/Utility/dsp.h **** }
 115:../../DaisySP//Source/Utility/dsp.h **** 
 116:../../DaisySP//Source/Utility/dsp.h **** inline float fastlog10f(float f)
 117:../../DaisySP//Source/Utility/dsp.h **** {
 118:../../DaisySP//Source/Utility/dsp.h ****     return fastlog2f(f) * 0.3010299956639812f;
 119:../../DaisySP//Source/Utility/dsp.h **** }
 120:../../DaisySP//Source/Utility/dsp.h **** 
 121:../../DaisySP//Source/Utility/dsp.h **** /** Midi to frequency helper
 122:../../DaisySP//Source/Utility/dsp.h **** */
 123:../../DaisySP//Source/Utility/dsp.h **** inline float mtof(float m)
 124:../../DaisySP//Source/Utility/dsp.h **** {
 125:../../DaisySP//Source/Utility/dsp.h ****     return powf(2, (m - 69.0f) / 12.0f) * 440.0f;
 126:../../DaisySP//Source/Utility/dsp.h **** }
 127:../../DaisySP//Source/Utility/dsp.h **** 
 128:../../DaisySP//Source/Utility/dsp.h **** 
 129:../../DaisySP//Source/Utility/dsp.h **** /** one pole lpf
 130:../../DaisySP//Source/Utility/dsp.h **** out is passed by reference, and must be retained between
 131:../../DaisySP//Source/Utility/dsp.h **** calls to properly filter the signal
 132:../../DaisySP//Source/Utility/dsp.h **** coeff can be calculated:
 133:../../DaisySP//Source/Utility/dsp.h **** coeff = 1.0 / (time * sample_rate) ; where time is in seconds
 134:../../DaisySP//Source/Utility/dsp.h **** */
 135:../../DaisySP//Source/Utility/dsp.h **** inline void fonepole(float &out, float in, float coeff)
 136:../../DaisySP//Source/Utility/dsp.h **** {
 137:../../DaisySP//Source/Utility/dsp.h ****     out += coeff * (in - out);
 138:../../DaisySP//Source/Utility/dsp.h **** }
 139:../../DaisySP//Source/Utility/dsp.h **** 
 140:../../DaisySP//Source/Utility/dsp.h **** /** Curves to use with the fmap function */
 141:../../DaisySP//Source/Utility/dsp.h **** enum class Mapping
ARM GAS  /var/folders/hl/qgbwny5j0fd895c2c41bk3tw0000gp/T//ccEG44Zu.s 			page 86


 142:../../DaisySP//Source/Utility/dsp.h **** {
 143:../../DaisySP//Source/Utility/dsp.h ****     LINEAR,
 144:../../DaisySP//Source/Utility/dsp.h ****     EXP,
 145:../../DaisySP//Source/Utility/dsp.h ****     LOG,
 146:../../DaisySP//Source/Utility/dsp.h **** };
 147:../../DaisySP//Source/Utility/dsp.h **** 
 148:../../DaisySP//Source/Utility/dsp.h **** /** Maps a float between a specified range, using a specified curve. 
 149:../../DaisySP//Source/Utility/dsp.h ****  * 
 150:../../DaisySP//Source/Utility/dsp.h ****  *  \param in a value between 0 to 1 that will be mapped to the new range.
 151:../../DaisySP//Source/Utility/dsp.h ****  *  \param min the new minimum value
 152:../../DaisySP//Source/Utility/dsp.h ****  *  \param max the new maxmimum value
 153:../../DaisySP//Source/Utility/dsp.h ****  *  \param curve a Mapping Value to adjust the response curve of the transformation
 154:../../DaisySP//Source/Utility/dsp.h ****  *               defaults to Linear. @see Mapping
 155:../../DaisySP//Source/Utility/dsp.h ****  * 
 156:../../DaisySP//Source/Utility/dsp.h ****  *  When using the log curve min and max, must be greater than zero.
 157:../../DaisySP//Source/Utility/dsp.h ****  * 
 158:../../DaisySP//Source/Utility/dsp.h ****  *  \retval returns the transformed float within the new range.
 159:../../DaisySP//Source/Utility/dsp.h **** */
 160:../../DaisySP//Source/Utility/dsp.h **** inline float
 161:../../DaisySP//Source/Utility/dsp.h **** fmap(float in, float min, float max, Mapping curve = Mapping::LINEAR)
 162:../../DaisySP//Source/Utility/dsp.h **** {
 163:../../DaisySP//Source/Utility/dsp.h ****     switch(curve)
 164:../../DaisySP//Source/Utility/dsp.h ****     {
 165:../../DaisySP//Source/Utility/dsp.h ****         case Mapping::EXP:
 166:../../DaisySP//Source/Utility/dsp.h ****             return fclamp(min + (in * in) * (max - min), min, max);
 167:../../DaisySP//Source/Utility/dsp.h ****         case Mapping::LOG:
 168:../../DaisySP//Source/Utility/dsp.h ****         {
 169:../../DaisySP//Source/Utility/dsp.h ****             const float a = 1.f / log10f(max / min);
 170:../../DaisySP//Source/Utility/dsp.h ****             return fclamp(min * powf(10, in / a), min, max);
 171:../../DaisySP//Source/Utility/dsp.h ****         }
 172:../../DaisySP//Source/Utility/dsp.h ****         case Mapping::LINEAR:
 173:../../DaisySP//Source/Utility/dsp.h ****         default: return fclamp(min + in * (max - min), min, max);
 3011              		.loc 18 173 31 view .LVU630
 3012 0006 9FED4A8A 		vldr.32	s16, .L45
 3013              	.LBE1732:
 3014              	.LBE1731:
 3015              		.loc 17 22 21 view .LVU631
 3016 000a 0021     		movs	r1, #0
 3017              	.LBB1754:
 3018              	.LBB1748:
 3019              		.loc 18 173 31 view .LVU632
 3020 000c 9FED499A 		vldr.32	s18, .L45+4
 3021              	.LBB1733:
 3022              	.LBB1734:
 3023              	.LBB1735:
  47:../../DaisySP//Source/Utility/dsp.h **** #else
 3024              		.loc 18 47 5 view .LVU633
 3025 0010 F7EE008A 		vmov.f32	s17, #1.0e+0
 3026              	.LBE1735:
 3027              	.LBE1734:
 3028              	.LBE1733:
 3029              		.loc 18 173 31 view .LVU634
 3030 0014 B0EE48AA 		vmov.f32	s20, s16
 3031              	.LBE1748:
 3032              	.LBE1754:
 3033              		.loc 17 22 21 view .LVU635
 3034 0018 4748     		ldr	r0, .L45+8
ARM GAS  /var/folders/hl/qgbwny5j0fd895c2c41bk3tw0000gp/T//ccEG44Zu.s 			page 87


 3035              	.LBB1755:
 3036              	.LBB1756:
 3037              		.loc 18 173 31 view .LVU636
 3038 001a F0EE489A 		vmov.f32	s19, s16
 3039              	.LBE1756:
 3040              	.LBE1755:
 3041              		.loc 17 22 21 view .LVU637
 3042 001e FFF7FEFF 		bl	_ZN5daisy8patch_sm12DaisyPatchSM11GetAdcValueEi
 3043              	.LVL146:
 3044              	.LBB1770:
 3045              	.LBI1731:
 161:../../DaisySP//Source/Utility/dsp.h **** {
 3046              		.loc 18 161 1 is_stmt 1 view .LVU638
 3047              	.LBE1770:
 163:../../DaisySP//Source/Utility/dsp.h ****     {
 3048              		.loc 18 163 5 view .LVU639
 3049              	.LBB1771:
 3050              	.LBB1749:
 172:../../DaisySP//Source/Utility/dsp.h ****         default: return fclamp(min + in * (max - min), min, max);
 3051              		.loc 18 172 9 view .LVU640
 3052              		.loc 18 173 9 view .LVU641
 3053              		.loc 18 173 18 view .LVU642
 3054              	.LBE1749:
 3055              	.LBE1771:
 3056              	.LBB1772:
 3057              	.LBB1773:
 3058              		.loc 18 173 31 is_stmt 0 view .LVU643
 3059 0022 B0EE48BA 		vmov.f32	s22, s16
 3060              	.LBE1773:
 3061              	.LBE1772:
  23:Interesting.cpp **** 	float speed2 = fmap(hw.GetAdcValue(CV_2), 0.1f, 1.0f);
 3062              		.loc 17 23 21 view .LVU644
 3063 0026 0121     		movs	r1, #1
 3064 0028 4348     		ldr	r0, .L45+8
 3065              	.LBB1789:
 3066              	.LBB1750:
 3067              		.loc 18 173 31 view .LVU645
 3068 002a A0EE09AA 		vfma.f32	s20, s0, s18
 3069              	.LVL147:
 3070              	.LBB1744:
 3071              	.LBI1733:
  56:../../DaisySP//Source/Utility/dsp.h **** {
 3072              		.loc 18 56 14 is_stmt 1 view .LVU646
 3073              	.LBE1744:
 3074              	.LBE1750:
 3075              	.LBE1789:
  58:../../DaisySP//Source/Utility/dsp.h **** }
 3076              		.loc 18 58 5 view .LVU647
 3077              	.LBB1790:
 3078              	.LBB1751:
 3079              	.LBB1745:
 3080              	.LBB1738:
 3081              	.LBI1738:
  32:../../DaisySP//Source/Utility/dsp.h **** {
 3082              		.loc 18 32 14 view .LVU648
 3083              	.LBB1739:
  34:../../DaisySP//Source/Utility/dsp.h **** #ifdef __arm__
ARM GAS  /var/folders/hl/qgbwny5j0fd895c2c41bk3tw0000gp/T//ccEG44Zu.s 			page 88


 3084              		.loc 18 34 5 view .LVU649
  36:../../DaisySP//Source/Utility/dsp.h **** #else
 3085              		.loc 18 36 5 view .LVU650
 3086              	.LBE1739:
 3087              	.LBE1738:
 3088              	.LBE1745:
 3089              	.LBE1751:
 3090              	.LBE1790:
 3091              		.loc 17 23 21 is_stmt 0 view .LVU651
 3092 002e FFF7FEFF 		bl	_ZN5daisy8patch_sm12DaisyPatchSM11GetAdcValueEi
 3093              	.LVL148:
  24:Interesting.cpp **** 	float speed3 = fmap(hw.GetAdcValue(CV_3), 0.1f, 1.0f);
 3094              		.loc 17 24 21 view .LVU652
 3095 0032 0221     		movs	r1, #2
 3096 0034 4048     		ldr	r0, .L45+8
 3097              	.LBB1791:
 3098              	.LBB1766:
 3099              		.loc 18 173 31 view .LVU653
 3100 0036 E0EE099A 		vfma.f32	s19, s0, s18
 3101              	.LBE1766:
 3102              	.LBE1791:
 3103              		.loc 17 24 21 view .LVU654
 3104 003a FFF7FEFF 		bl	_ZN5daisy8patch_sm12DaisyPatchSM11GetAdcValueEi
 3105              	.LVL149:
  25:Interesting.cpp **** 	float speed4 = fmap(hw.GetAdcValue(CV_4), 0.1f, 1.0f);
 3106              		.loc 17 25 21 view .LVU655
 3107 003e 0321     		movs	r1, #3
 3108 0040 3D48     		ldr	r0, .L45+8
 3109              	.LBB1792:
 3110              	.LBB1785:
 3111              		.loc 18 173 31 view .LVU656
 3112 0042 A0EE09BA 		vfma.f32	s22, s0, s18
 3113              	.LBE1785:
 3114              	.LBE1792:
 3115              		.loc 17 25 21 view .LVU657
 3116 0046 FFF7FEFF 		bl	_ZN5daisy8patch_sm12DaisyPatchSM11GetAdcValueEi
 3117              	.LVL150:
 3118              	.LBB1793:
 3119              	.LBB1794:
  13:processor.h   **** public:
  14:processor.h   **** 
  15:processor.h   **** void Init(float samplerate)
  16:processor.h   **** {
  17:processor.h   ****     sample_rate_ = samplerate;
  18:processor.h   ****     buffer_size_ = BufferSize;
  19:processor.h   ****     write_index_ = 0;
  20:processor.h   ****     read_position_ = 0;
  21:processor.h   ****     speed_ = 1;
  22:processor.h   ****     freeze_ = false;
  23:processor.h   ****     for (size_t i = 0; i < BufferSize; i++) 
  24:processor.h   ****     {
  25:processor.h   ****         buffer_[i] = 0;
  26:processor.h   ****         playback_buffer_[0][i] = 0;
  27:processor.h   ****         playback_buffer_[1][i] = 0;
  28:processor.h   ****         playback_buffer_[2][i] = 0;
  29:processor.h   ****         playback_buffer_[3][i] = 0;
  30:processor.h   ****     }
ARM GAS  /var/folders/hl/qgbwny5j0fd895c2c41bk3tw0000gp/T//ccEG44Zu.s 			page 89


  31:processor.h   **** 
  32:processor.h   ****     for (size_t i = 0; i < 4; i++)
  33:processor.h   ****     {
  34:processor.h   ****         playback_position_[i] = 0;
  35:processor.h   ****         playback_ready_[i] = false;
  36:processor.h   ****         playback_speed_[i] = 1;
  37:processor.h   ****         env_[i].Init(sample_rate_);
  38:processor.h   ****         env_[i].SetTime(ADENV_SEG_ATTACK, 0.15);
  39:processor.h   ****         env_[i].SetTime(ADENV_SEG_DECAY, 0.35);
  40:processor.h   ****         env_[i].SetMin(0.0);
  41:processor.h   ****         env_[i].SetMax(0.25);
  42:processor.h   ****         env_[i].SetCurve(0); // linear
  43:processor.h   ****     }
  44:processor.h   ****     selected_buffer_ = 0;
  45:processor.h   ****     dc_.Init(sample_rate_);
  46:processor.h   ****     reverse_ = false;
  47:processor.h   **** }
  48:processor.h   **** 
  49:processor.h   **** void Process(const float in)
  50:processor.h   **** {
  51:processor.h   ****     buffer_[write_index_] = in;
  52:processor.h   ****     ++write_index_;
  53:processor.h   ****     write_index_ %= buffer_size_;
  54:processor.h   **** }
  55:processor.h   **** 
  56:processor.h   **** float PlaybackSample(size_t index)
  57:processor.h   **** {
  58:processor.h   ****     float output = 0.0f;
  59:processor.h   ****     if (playback_ready_[index])
  60:processor.h   ****     {
  61:processor.h   ****         env_[index].Trigger();
  62:processor.h   ****         float envelope_factor = env_[index].Process();
  63:processor.h   ****         output += readHermite(playback_position_[index], index) * envelope_factor;
  64:processor.h   ****         playback_position_[index] += playback_speed_[index] * floor(static_cast<float>(buffer_size_
  65:processor.h   ****     }
  66:processor.h   ****     if (playback_position_[index] >= buffer_size_)
  67:processor.h   ****     {
  68:processor.h   ****         ResetBuffer(index);
  69:processor.h   ****     }
  70:processor.h   ****     dc_.Process(output);
  71:processor.h   ****     return output;
  72:processor.h   **** }
  73:processor.h   **** 
  74:processor.h   **** void CaptureForward()
  75:processor.h   **** {
  76:processor.h   ****     playback_ready_[selected_buffer_] = false;
  77:processor.h   ****     ClearBuffer(playback_buffer_[selected_buffer_], buffer_size_);
  78:processor.h   ****     memcpy(playback_buffer_[selected_buffer_], buffer_, buffer_size_ * sizeof(float)); 
  79:processor.h   ****     read_position_ = 0;
  80:processor.h   ****     playback_ready_[selected_buffer_] = true;
  81:processor.h   ****     ++selected_buffer_;
  82:processor.h   ****     if(selected_buffer_ >= 4) {selected_buffer_ = 0;}
  83:processor.h   **** }
  84:processor.h   **** 
  85:processor.h   **** 
  86:processor.h   **** void CaptureBackward()
  87:processor.h   **** {
ARM GAS  /var/folders/hl/qgbwny5j0fd895c2c41bk3tw0000gp/T//ccEG44Zu.s 			page 90


  88:processor.h   ****     playback_ready_[selected_buffer_] = false;
  89:processor.h   ****     ClearBuffer(playback_buffer_[selected_buffer_], buffer_size_);
  90:processor.h   ****     size_t reverse_copy_index = buffer_size_ - 1;
  91:processor.h   ****     for (size_t i = 0; i < buffer_size_; ++i)
  92:processor.h   ****     {
  93:processor.h   ****         playback_buffer_[selected_buffer_][i] = buffer_[reverse_copy_index];
  94:processor.h   ****         --reverse_copy_index;
  95:processor.h   ****     }
  96:processor.h   ****     read_position_ = buffer_size_ - 1;
  97:processor.h   ****     playback_ready_[selected_buffer_] = true;
  98:processor.h   ****     ++selected_buffer_;
  99:processor.h   ****     if (selected_buffer_ >= 4) { selected_buffer_ = 0; }
 100:processor.h   **** }
 101:processor.h   **** 
 102:processor.h   **** void Generate()
 103:processor.h   **** {
 104:processor.h   ****     if(reverse_) { CaptureBackward(); }
 105:processor.h   ****     else { CaptureForward(); }
 106:processor.h   **** }
 107:processor.h   **** 
 108:processor.h   **** void ClearBuffer(float* buffer, size_t bufferSize)
 109:processor.h   **** {
 110:processor.h   ****     for (size_t i = 0; i < bufferSize; i++) {
 111:processor.h   ****         buffer[i] = 0.0f;
 112:processor.h   ****     }
 113:processor.h   **** }
 114:processor.h   **** 
 115:processor.h   **** void ResetBuffer(int bufferIndex)
 116:processor.h   **** {
 117:processor.h   ****     ClearBuffer(playback_buffer_[bufferIndex], buffer_size_);
 118:processor.h   ****     playback_ready_[bufferIndex] = false;
 119:processor.h   ****     playback_position_[bufferIndex] = 0;
 120:processor.h   **** }
 121:processor.h   **** 
 122:processor.h   **** 
 123:processor.h   **** bool GetState(int buffer) { return playback_ready_[buffer]; }
 124:processor.h   **** 
 125:processor.h   **** void FlipDirection() { reverse_ = !reverse_; }
 126:processor.h   **** bool returnState() { return reverse_; }
 127:processor.h   **** 
 128:processor.h   **** inline float readHermite(float position, int bufferIndex)
 129:processor.h   **** {
 130:processor.h   ****     const int32_t t = static_cast<int32_t>(position);
 131:processor.h   ****     const float f = position - static_cast<float>(t);
 132:processor.h   **** 
 133:processor.h   ****     const float xm1 = playback_buffer_[bufferIndex][(t - 1) % buffer_size_];
 134:processor.h   ****     const float x0 = playback_buffer_[bufferIndex][(t) % buffer_size_];
 135:processor.h   ****     const float x1 = playback_buffer_[bufferIndex][(t + 1) % buffer_size_];
 136:processor.h   ****     const float x2 = playback_buffer_[bufferIndex][(t + 2) % buffer_size_];
 137:processor.h   **** 
 138:processor.h   ****     const float c = (x1 - xm1) * 0.5f;
 139:processor.h   ****     const float v = x0 - x1;
 140:processor.h   ****     const float w = c + v;
 141:processor.h   ****     const float a = w + v + (x2 - x0) * 0.5f;
 142:processor.h   ****     const float b_neg = w + a;
 143:processor.h   **** 
 144:processor.h   ****     return (((a * f) - b_neg) * f + c) * f + x0;
ARM GAS  /var/folders/hl/qgbwny5j0fd895c2c41bk3tw0000gp/T//ccEG44Zu.s 			page 91


 145:processor.h   **** }
 146:processor.h   **** 
 147:processor.h   **** 
 148:processor.h   **** 
 149:processor.h   **** void SetSpeed(const float s1, const float s2, const float s3, const float s4) 
 150:processor.h   **** {
 151:processor.h   ****     playback_speed_[0] = s1;
 3120              		.loc 9 151 24 view .LVU658
 3121 004a 3C4B     		ldr	r3, .L45+12
 3122              	.LBE1794:
 3123              	.LBE1793:
 3124              	.LBB1800:
 3125              	.LBB1801:
 3126              		.loc 18 173 31 view .LVU659
 3127 004c F0EE487A 		vmov.f32	s15, s16
 3128              	.LBE1801:
 3129              	.LBE1800:
  26:Interesting.cpp **** 	proc.SetSpeed(speed1, speed2, speed3, speed4);
  27:Interesting.cpp **** 
  28:Interesting.cpp **** 	float amount, diffusion, time, gain;
  29:Interesting.cpp **** 	amount = fmap(hw.GetAdcValue(ADC_9), 0.1f, 1.0f);
 3130              		.loc 17 29 15 view .LVU660
 3131 0050 0821     		movs	r1, #8
 3132              	.LBB1815:
 3133              	.LBB1795:
 3134              		.loc 9 151 24 view .LVU661
 3135 0052 1A46     		mov	r2, r3
 3136              	.LBE1795:
 3137              	.LBE1815:
 3138              		.loc 17 29 15 view .LVU662
 3139 0054 3848     		ldr	r0, .L45+8
 3140              	.LBB1816:
 3141              	.LBB1786:
 3142              	.LBB1774:
 3143              	.LBB1775:
 3144              	.LBB1776:
  36:../../DaisySP//Source/Utility/dsp.h **** #else
 3145              		.loc 18 36 5 view .LVU663
 3146              		.syntax unified
 3147              	@ 36 "../../DaisySP//Source/Utility/dsp.h" 1
 3148 0056 8BFE08BA 		vmaxnm.f32 s22, s22, s16
 3149              	@ 0 "" 2
 3150              		.thumb
 3151              		.syntax unified
 3152              	.LBE1776:
 3153              	.LBE1775:
 3154              	.LBB1778:
 3155              	.LBB1779:
  47:../../DaisySP//Source/Utility/dsp.h **** #else
 3156              		.loc 18 47 5 view .LVU664
 3157              		.syntax unified
 3158              	@ 47 "../../DaisySP//Source/Utility/dsp.h" 1
 3159 005a 8BFE68BA 		vminnm.f32 s22, s22, s17
 3160              	@ 0 "" 2
 3161              		.thumb
 3162              		.syntax unified
 3163              	.LBE1779:
ARM GAS  /var/folders/hl/qgbwny5j0fd895c2c41bk3tw0000gp/T//ccEG44Zu.s 			page 92


 3164              	.LBE1778:
 3165              	.LBE1774:
 3166              	.LBE1786:
 3167              	.LBE1816:
 3168              	.LBB1817:
 3169              	.LBB1796:
 152:processor.h   ****     playback_speed_[1] = s2;
 153:processor.h   ****     playback_speed_[2] = s3;
 3170              		.loc 9 153 24 view .LVU665
 3171 005e 83ED02BA 		vstr.32	s22, [r3, #8]
 3172              	.LBE1796:
 3173              	.LBE1817:
 3174              	.LBB1818:
 3175              	.LBB1819:
 3176              		.loc 18 173 31 view .LVU666
 3177 0062 B0EE48BA 		vmov.f32	s22, s16
 3178              	.LBE1819:
 3179              	.LBE1818:
 3180              	.LBB1837:
 3181              	.LBB1811:
 3182 0066 E0EE097A 		vfma.f32	s15, s0, s18
 3183              	.LBE1811:
 3184              	.LBE1837:
 3185              	.LBB1838:
 3186              	.LBB1839:
 3187              	.LBB1840:
 154:processor.h   ****     playback_speed_[3] = s4;
 155:processor.h   **** }
 156:processor.h   **** 
 157:processor.h   **** 
 158:processor.h   **** void FreezePlayback(size_t index)
 159:processor.h   **** {
 160:processor.h   ****     // Calculate the loop window boundaries
 161:processor.h   ****     size_t loopStart = playback_position_[index];
 162:processor.h   ****     size_t loopEnd = playback_position_[index] + window_;
 163:processor.h   ****     for (size_t i = 0; i < 4; i++)
 164:processor.h   ****     {
 165:processor.h   ****         if(playback_position_[i] >= loopEnd) { playback_position_[i] = loopStart; }
 166:processor.h   ****     }
 167:processor.h   **** }
 168:processor.h   **** 
 169:processor.h   **** void SetWindow(float window) { window_ = window; }
 170:processor.h   **** 
 171:processor.h   **** size_t GetPos() { return playback_position_[selected_buffer_]; }
 172:processor.h   **** 
 173:processor.h   **** void SetFreeze() { freeze_ = !freeze_; }
 174:processor.h   **** 
 175:processor.h   **** bool Freeze() { return freeze_; }
 3188              		.loc 9 175 24 view .LVU667
 3189 006a 354C     		ldr	r4, .L45+16
 3190              	.LBE1840:
 3191              	.LBE1839:
 3192              	.LBE1838:
 3193              	.LBB1880:
 3194              	.LBB1752:
 3195              	.LBB1746:
 3196              	.LBB1741:
ARM GAS  /var/folders/hl/qgbwny5j0fd895c2c41bk3tw0000gp/T//ccEG44Zu.s 			page 93


 3197              	.LBB1740:
  36:../../DaisySP//Source/Utility/dsp.h **** #else
 3198              		.loc 18 36 5 view .LVU668
 3199              		.syntax unified
 3200              	@ 36 "../../DaisySP//Source/Utility/dsp.h" 1
 3201 006c 8AFE08AA 		vmaxnm.f32 s20, s20, s16
 3202              	@ 0 "" 2
 3203              	.LVL151:
  40:../../DaisySP//Source/Utility/dsp.h **** }
 3204              		.loc 18 40 5 is_stmt 1 view .LVU669
  40:../../DaisySP//Source/Utility/dsp.h **** }
 3205              		.loc 18 40 5 is_stmt 0 view .LVU670
 3206              		.thumb
 3207              		.syntax unified
 3208              	.LBE1740:
 3209              	.LBE1741:
 3210              	.LBB1742:
 3211              	.LBI1734:
  43:../../DaisySP//Source/Utility/dsp.h **** {
 3212              		.loc 18 43 14 is_stmt 1 view .LVU671
 3213              	.LBB1736:
  45:../../DaisySP//Source/Utility/dsp.h **** #ifdef __arm__
 3214              		.loc 18 45 5 view .LVU672
  47:../../DaisySP//Source/Utility/dsp.h **** #else
 3215              		.loc 18 47 5 view .LVU673
 3216              	.LBE1736:
 3217              	.LBE1742:
 3218              	.LBE1746:
 3219              	.LBE1752:
 3220              	.LBE1880:
 3221              	.LBB1881:
 3222              	.LBB1767:
 3223              	.LBB1757:
 3224              	.LBB1758:
 3225              	.LBB1759:
  36:../../DaisySP//Source/Utility/dsp.h **** #else
 3226              		.loc 18 36 5 is_stmt 0 view .LVU674
 3227              		.syntax unified
 3228              	@ 36 "../../DaisySP//Source/Utility/dsp.h" 1
 3229 0070 C9FE889A 		vmaxnm.f32 s19, s19, s16
 3230              	@ 0 "" 2
 3231              		.thumb
 3232              		.syntax unified
 3233              	.LBE1759:
 3234              	.LBE1758:
 3235              	.LBE1757:
 3236              	.LBE1767:
 3237              	.LBE1881:
 3238              	.LBB1882:
 3239              	.LBB1753:
 3240              	.LBB1747:
 3241              	.LBB1743:
 3242              	.LBB1737:
  47:../../DaisySP//Source/Utility/dsp.h **** #else
 3243              		.loc 18 47 5 view .LVU675
 3244              		.syntax unified
 3245              	@ 47 "../../DaisySP//Source/Utility/dsp.h" 1
ARM GAS  /var/folders/hl/qgbwny5j0fd895c2c41bk3tw0000gp/T//ccEG44Zu.s 			page 94


 3246 0074 8AFE68AA 		vminnm.f32 s20, s20, s17
 3247              	@ 0 "" 2
 3248              	.LVL152:
  51:../../DaisySP//Source/Utility/dsp.h **** }
 3249              		.loc 18 51 5 is_stmt 1 view .LVU676
  51:../../DaisySP//Source/Utility/dsp.h **** }
 3250              		.loc 18 51 5 is_stmt 0 view .LVU677
 3251              		.thumb
 3252              		.syntax unified
 3253              	.LBE1737:
 3254              	.LBE1743:
 3255              	.LBE1747:
 3256              	.LBE1753:
 3257              	.LBE1882:
  23:Interesting.cpp **** 	float speed3 = fmap(hw.GetAdcValue(CV_3), 0.1f, 1.0f);
 3258              		.loc 17 23 2 is_stmt 1 view .LVU678
 3259              	.LBB1883:
 3260              	.LBI1755:
 161:../../DaisySP//Source/Utility/dsp.h **** {
 3261              		.loc 18 161 1 view .LVU679
 3262              	.LBE1883:
 163:../../DaisySP//Source/Utility/dsp.h ****     {
 3263              		.loc 18 163 5 view .LVU680
 3264              	.LBB1884:
 3265              	.LBB1768:
 172:../../DaisySP//Source/Utility/dsp.h ****         default: return fclamp(min + in * (max - min), min, max);
 3266              		.loc 18 172 9 view .LVU681
 3267              		.loc 18 173 9 view .LVU682
 3268              		.loc 18 173 18 view .LVU683
 3269              	.LBB1764:
 3270              	.LBI1757:
  56:../../DaisySP//Source/Utility/dsp.h **** {
 3271              		.loc 18 56 14 view .LVU684
 3272              	.LBE1764:
 3273              	.LBE1768:
 3274              	.LBE1884:
  58:../../DaisySP//Source/Utility/dsp.h **** }
 3275              		.loc 18 58 5 view .LVU685
 3276              	.LBB1885:
 3277              	.LBB1769:
 3278              	.LBB1765:
 3279              	.LBB1761:
 3280              	.LBI1758:
  32:../../DaisySP//Source/Utility/dsp.h **** {
 3281              		.loc 18 32 14 view .LVU686
 3282              	.LBB1760:
  34:../../DaisySP//Source/Utility/dsp.h **** #ifdef __arm__
 3283              		.loc 18 34 5 view .LVU687
  36:../../DaisySP//Source/Utility/dsp.h **** #else
 3284              		.loc 18 36 5 view .LVU688
  40:../../DaisySP//Source/Utility/dsp.h **** }
 3285              		.loc 18 40 5 view .LVU689
  40:../../DaisySP//Source/Utility/dsp.h **** }
 3286              		.loc 18 40 5 is_stmt 0 view .LVU690
 3287              	.LBE1760:
 3288              	.LBE1761:
 3289              	.LBB1762:
ARM GAS  /var/folders/hl/qgbwny5j0fd895c2c41bk3tw0000gp/T//ccEG44Zu.s 			page 95


 3290              	.LBI1762:
  43:../../DaisySP//Source/Utility/dsp.h **** {
 3291              		.loc 18 43 14 is_stmt 1 view .LVU691
 3292              	.LBB1763:
  45:../../DaisySP//Source/Utility/dsp.h **** #ifdef __arm__
 3293              		.loc 18 45 5 view .LVU692
  47:../../DaisySP//Source/Utility/dsp.h **** #else
 3294              		.loc 18 47 5 view .LVU693
 3295              		.syntax unified
 3296              	@ 47 "../../DaisySP//Source/Utility/dsp.h" 1
 3297 0078 C9FEE89A 		vminnm.f32 s19, s19, s17
 3298              	@ 0 "" 2
 3299              	.LVL153:
  51:../../DaisySP//Source/Utility/dsp.h **** }
 3300              		.loc 18 51 5 view .LVU694
  51:../../DaisySP//Source/Utility/dsp.h **** }
 3301              		.loc 18 51 5 is_stmt 0 view .LVU695
 3302              		.thumb
 3303              		.syntax unified
 3304              	.LBE1763:
 3305              	.LBE1762:
 3306              	.LBE1765:
 3307              	.LBE1769:
 3308              	.LBE1885:
  24:Interesting.cpp **** 	float speed4 = fmap(hw.GetAdcValue(CV_4), 0.1f, 1.0f);
 3309              		.loc 17 24 2 is_stmt 1 view .LVU696
 3310              	.LBB1886:
 3311              	.LBI1772:
 161:../../DaisySP//Source/Utility/dsp.h **** {
 3312              		.loc 18 161 1 view .LVU697
 3313              	.LBE1886:
 163:../../DaisySP//Source/Utility/dsp.h ****     {
 3314              		.loc 18 163 5 view .LVU698
 3315              	.LBB1887:
 3316              	.LBB1787:
 172:../../DaisySP//Source/Utility/dsp.h ****         default: return fclamp(min + in * (max - min), min, max);
 3317              		.loc 18 172 9 view .LVU699
 3318              		.loc 18 173 9 view .LVU700
 3319              		.loc 18 173 18 view .LVU701
 3320              	.LBB1783:
 3321              	.LBI1774:
  56:../../DaisySP//Source/Utility/dsp.h **** {
 3322              		.loc 18 56 14 view .LVU702
 3323              	.LBE1783:
 3324              	.LBE1787:
 3325              	.LBE1887:
  58:../../DaisySP//Source/Utility/dsp.h **** }
 3326              		.loc 18 58 5 view .LVU703
 3327              	.LBB1888:
 3328              	.LBB1788:
 3329              	.LBB1784:
 3330              	.LBB1781:
 3331              	.LBI1775:
  32:../../DaisySP//Source/Utility/dsp.h **** {
 3332              		.loc 18 32 14 view .LVU704
 3333              	.LBB1777:
  34:../../DaisySP//Source/Utility/dsp.h **** #ifdef __arm__
ARM GAS  /var/folders/hl/qgbwny5j0fd895c2c41bk3tw0000gp/T//ccEG44Zu.s 			page 96


 3334              		.loc 18 34 5 view .LVU705
  36:../../DaisySP//Source/Utility/dsp.h **** #else
 3335              		.loc 18 36 5 view .LVU706
  40:../../DaisySP//Source/Utility/dsp.h **** }
 3336              		.loc 18 40 5 view .LVU707
  40:../../DaisySP//Source/Utility/dsp.h **** }
 3337              		.loc 18 40 5 is_stmt 0 view .LVU708
 3338              	.LBE1777:
 3339              	.LBE1781:
 3340              	.LBB1782:
 3341              	.LBI1778:
  43:../../DaisySP//Source/Utility/dsp.h **** {
 3342              		.loc 18 43 14 is_stmt 1 view .LVU709
 3343              	.LBB1780:
  45:../../DaisySP//Source/Utility/dsp.h **** #ifdef __arm__
 3344              		.loc 18 45 5 view .LVU710
  47:../../DaisySP//Source/Utility/dsp.h **** #else
 3345              		.loc 18 47 5 view .LVU711
  51:../../DaisySP//Source/Utility/dsp.h **** }
 3346              		.loc 18 51 5 view .LVU712
  51:../../DaisySP//Source/Utility/dsp.h **** }
 3347              		.loc 18 51 5 is_stmt 0 view .LVU713
 3348              	.LBE1780:
 3349              	.LBE1782:
 3350              	.LBE1784:
 3351              	.LBE1788:
 3352              	.LBE1888:
  25:Interesting.cpp **** 	proc.SetSpeed(speed1, speed2, speed3, speed4);
 3353              		.loc 17 25 2 is_stmt 1 view .LVU714
 3354              	.LBB1889:
 3355              	.LBI1800:
 161:../../DaisySP//Source/Utility/dsp.h **** {
 3356              		.loc 18 161 1 view .LVU715
 3357              	.LBE1889:
 163:../../DaisySP//Source/Utility/dsp.h ****     {
 3358              		.loc 18 163 5 view .LVU716
 3359              	.LBB1890:
 3360              	.LBB1812:
 172:../../DaisySP//Source/Utility/dsp.h ****         default: return fclamp(min + in * (max - min), min, max);
 3361              		.loc 18 172 9 view .LVU717
 3362              		.loc 18 173 9 view .LVU718
 3363              		.loc 18 173 18 view .LVU719
 3364              	.LBB1802:
 3365              	.LBI1802:
  56:../../DaisySP//Source/Utility/dsp.h **** {
 3366              		.loc 18 56 14 view .LVU720
 3367              	.LBE1802:
 3368              	.LBE1812:
 3369              	.LBE1890:
  58:../../DaisySP//Source/Utility/dsp.h **** }
 3370              		.loc 18 58 5 view .LVU721
 3371              	.LBB1891:
 3372              	.LBB1813:
 3373              	.LBB1809:
 3374              	.LBB1803:
 3375              	.LBI1803:
  32:../../DaisySP//Source/Utility/dsp.h **** {
ARM GAS  /var/folders/hl/qgbwny5j0fd895c2c41bk3tw0000gp/T//ccEG44Zu.s 			page 97


 3376              		.loc 18 32 14 view .LVU722
 3377              	.LBB1804:
  34:../../DaisySP//Source/Utility/dsp.h **** #ifdef __arm__
 3378              		.loc 18 34 5 view .LVU723
  36:../../DaisySP//Source/Utility/dsp.h **** #else
 3379              		.loc 18 36 5 view .LVU724
 3380              	.LBE1804:
 3381              	.LBE1803:
 3382              	.LBE1809:
 3383              	.LBE1813:
 3384              	.LBE1891:
 3385              	.LBB1892:
 3386              	.LBB1797:
 151:processor.h   ****     playback_speed_[1] = s2;
 3387              		.loc 9 151 24 is_stmt 0 view .LVU725
 3388 007c A2EC01AA 		vstmia.32	r2!, {s20}
 3389              	.LBE1797:
 3390              	.LBE1892:
 3391              	.LBB1893:
 3392              	.LBB1894:
 3393              		.loc 18 173 31 view .LVU726
 3394 0080 B0EE48AA 		vmov.f32	s20, s16
 3395              	.LVL154:
 3396              		.loc 18 173 31 view .LVU727
 3397              	.LBE1894:
 3398              	.LBE1893:
 3399              	.LBB1908:
 3400              	.LBB1798:
 152:processor.h   ****     playback_speed_[2] = s3;
 3401              		.loc 9 152 24 view .LVU728
 3402 0084 C2ED009A 		vstr.32	s19, [r2]
 3403              	.LBE1798:
 3404              	.LBE1908:
 3405              	.LBB1909:
 3406              	.LBB1910:
 3407              		.loc 18 173 31 view .LVU729
 3408 0088 F0EE489A 		vmov.f32	s19, s16
 3409              	.LVL155:
 3410              		.loc 18 173 31 view .LVU730
 3411              	.LBE1910:
 3412              	.LBE1909:
 3413              	.LBB1924:
 3414              	.LBB1814:
 3415              	.LBB1810:
 3416              	.LBB1806:
 3417              	.LBB1805:
  36:../../DaisySP//Source/Utility/dsp.h **** #else
 3418              		.loc 18 36 5 view .LVU731
 3419              		.syntax unified
 3420              	@ 36 "../../DaisySP//Source/Utility/dsp.h" 1
 3421 008c C7FE887A 		vmaxnm.f32 s15, s15, s16
 3422              	@ 0 "" 2
 3423              	.LVL156:
  40:../../DaisySP//Source/Utility/dsp.h **** }
 3424              		.loc 18 40 5 is_stmt 1 view .LVU732
  40:../../DaisySP//Source/Utility/dsp.h **** }
 3425              		.loc 18 40 5 is_stmt 0 view .LVU733
ARM GAS  /var/folders/hl/qgbwny5j0fd895c2c41bk3tw0000gp/T//ccEG44Zu.s 			page 98


 3426              		.thumb
 3427              		.syntax unified
 3428              	.LBE1805:
 3429              	.LBE1806:
 3430              	.LBB1807:
 3431              	.LBI1807:
  43:../../DaisySP//Source/Utility/dsp.h **** {
 3432              		.loc 18 43 14 is_stmt 1 view .LVU734
 3433              	.LBB1808:
  45:../../DaisySP//Source/Utility/dsp.h **** #ifdef __arm__
 3434              		.loc 18 45 5 view .LVU735
  47:../../DaisySP//Source/Utility/dsp.h **** #else
 3435              		.loc 18 47 5 view .LVU736
 3436              		.syntax unified
 3437              	@ 47 "../../DaisySP//Source/Utility/dsp.h" 1
 3438 0090 C7FEE87A 		vminnm.f32 s15, s15, s17
 3439              	@ 0 "" 2
 3440              	.LVL157:
  51:../../DaisySP//Source/Utility/dsp.h **** }
 3441              		.loc 18 51 5 view .LVU737
  51:../../DaisySP//Source/Utility/dsp.h **** }
 3442              		.loc 18 51 5 is_stmt 0 view .LVU738
 3443              		.thumb
 3444              		.syntax unified
 3445              	.LBE1808:
 3446              	.LBE1807:
 3447              	.LBE1810:
 3448              	.LBE1814:
 3449              	.LBE1924:
  26:Interesting.cpp **** 
 3450              		.loc 17 26 2 is_stmt 1 view .LVU739
 3451              	.LBB1925:
 3452              	.LBI1793:
 149:processor.h   **** {
 3453              		.loc 9 149 6 view .LVU740
 3454              	.LBB1799:
 154:processor.h   **** }
 3455              		.loc 9 154 24 is_stmt 0 view .LVU741
 3456 0094 C3ED037A 		vstr.32	s15, [r3, #12]
 3457              	.LVL158:
 154:processor.h   **** }
 3458              		.loc 9 154 24 view .LVU742
 3459              	.LBE1799:
 3460              	.LBE1925:
  28:Interesting.cpp **** 	amount = fmap(hw.GetAdcValue(ADC_9), 0.1f, 1.0f);
 3461              		.loc 17 28 2 is_stmt 1 view .LVU743
 3462              		.loc 17 29 2 view .LVU744
 3463              		.loc 17 29 15 is_stmt 0 view .LVU745
 3464 0098 FFF7FEFF 		bl	_ZN5daisy8patch_sm12DaisyPatchSM11GetAdcValueEi
 3465              	.LVL159:
 3466              	.LBB1926:
 3467              	.LBI1818:
 161:../../DaisySP//Source/Utility/dsp.h **** {
 3468              		.loc 18 161 1 is_stmt 1 view .LVU746
 3469              	.LBE1926:
 163:../../DaisySP//Source/Utility/dsp.h ****     {
 3470              		.loc 18 163 5 view .LVU747
ARM GAS  /var/folders/hl/qgbwny5j0fd895c2c41bk3tw0000gp/T//ccEG44Zu.s 			page 99


 3471              	.LBB1927:
 3472              	.LBB1832:
 172:../../DaisySP//Source/Utility/dsp.h ****         default: return fclamp(min + in * (max - min), min, max);
 3473              		.loc 18 172 9 view .LVU748
 3474              		.loc 18 173 9 view .LVU749
 3475              		.loc 18 173 18 view .LVU750
 3476              	.LBE1832:
 3477              	.LBE1927:
  30:Interesting.cpp **** 	diffusion = fmap(hw.GetAdcValue(ADC_10), 0.1f, 1.0f);
 3478              		.loc 17 30 18 is_stmt 0 view .LVU751
 3479 009c 0921     		movs	r1, #9
 3480 009e 2648     		ldr	r0, .L45+8
 3481              	.LBB1928:
 3482              	.LBB1833:
 3483              		.loc 18 173 31 view .LVU752
 3484 00a0 A0EE09BA 		vfma.f32	s22, s0, s18
 3485              	.LVL160:
 3486              	.LBB1820:
 3487              	.LBI1820:
  56:../../DaisySP//Source/Utility/dsp.h **** {
 3488              		.loc 18 56 14 is_stmt 1 view .LVU753
 3489              	.LBE1820:
 3490              	.LBE1833:
 3491              	.LBE1928:
  58:../../DaisySP//Source/Utility/dsp.h **** }
 3492              		.loc 18 58 5 view .LVU754
 3493              	.LBB1929:
 3494              	.LBB1834:
 3495              	.LBB1829:
 3496              	.LBB1821:
 3497              	.LBI1821:
  32:../../DaisySP//Source/Utility/dsp.h **** {
 3498              		.loc 18 32 14 view .LVU755
 3499              	.LBB1822:
  34:../../DaisySP//Source/Utility/dsp.h **** #ifdef __arm__
 3500              		.loc 18 34 5 view .LVU756
  36:../../DaisySP//Source/Utility/dsp.h **** #else
 3501              		.loc 18 36 5 view .LVU757
 3502              	.LBE1822:
 3503              	.LBE1821:
 3504              	.LBE1829:
 3505              	.LBE1834:
 3506              	.LBE1929:
 3507              		.loc 17 30 18 is_stmt 0 view .LVU758
 3508 00a4 FFF7FEFF 		bl	_ZN5daisy8patch_sm12DaisyPatchSM11GetAdcValueEi
 3509              	.LVL161:
  31:Interesting.cpp **** 	time = fmap(hw.GetAdcValue(ADC_11), 0.1f, 1.0f);// 0.5f + (0.49f * patch_position));
 3510              		.loc 17 31 13 view .LVU759
 3511 00a8 0A21     		movs	r1, #10
 3512 00aa 2348     		ldr	r0, .L45+8
 3513              	.LBB1930:
 3514              	.LBB1904:
 3515              		.loc 18 173 31 view .LVU760
 3516 00ac A0EE09AA 		vfma.f32	s20, s0, s18
 3517              	.LBE1904:
 3518              	.LBE1930:
 3519              		.loc 17 31 13 view .LVU761
ARM GAS  /var/folders/hl/qgbwny5j0fd895c2c41bk3tw0000gp/T//ccEG44Zu.s 			page 100


 3520 00b0 FFF7FEFF 		bl	_ZN5daisy8patch_sm12DaisyPatchSM11GetAdcValueEi
 3521              	.LVL162:
 3522              	.LBB1931:
  32:Interesting.cpp ****     
  33:Interesting.cpp **** 	if(proc.Freeze()) 
 3523              		.loc 17 33 2 view .LVU762
 3524 00b4 94F8143E 		ldrb	r3, [r4, #3604]	@ zero_extendqisi2
 3525              	.LBE1931:
 3526              	.LBB1932:
 3527              	.LBB1920:
 3528              		.loc 18 173 31 view .LVU763
 3529 00b8 E0EE099A 		vfma.f32	s19, s0, s18
 3530              	.LBE1920:
 3531              	.LBE1932:
 3532              	.LBB1933:
 3533              	.LBB1841:
  34:Interesting.cpp **** 	{
  35:Interesting.cpp **** 		float window = fmap(hw.GetAdcValue(ADC_12), 1.f, 14000.0f);
 3534              		.loc 17 35 22 view .LVU764
 3535 00bc 0B21     		movs	r1, #11
 3536              	.LBE1841:
 3537              	.LBE1933:
 3538              	.LBB1934:
 3539              	.LBB1835:
 3540              	.LBB1830:
 3541              	.LBB1824:
 3542              	.LBB1823:
  36:../../DaisySP//Source/Utility/dsp.h **** #else
 3543              		.loc 18 36 5 view .LVU765
 3544              		.syntax unified
 3545              	@ 36 "../../DaisySP//Source/Utility/dsp.h" 1
 3546 00be 8BFE08BA 		vmaxnm.f32 s22, s22, s16
 3547              	@ 0 "" 2
 3548              	.LVL163:
  40:../../DaisySP//Source/Utility/dsp.h **** }
 3549              		.loc 18 40 5 is_stmt 1 view .LVU766
  40:../../DaisySP//Source/Utility/dsp.h **** }
 3550              		.loc 18 40 5 is_stmt 0 view .LVU767
 3551              		.thumb
 3552              		.syntax unified
 3553              	.LBE1823:
 3554              	.LBE1824:
 3555              	.LBB1825:
 3556              	.LBI1825:
  43:../../DaisySP//Source/Utility/dsp.h **** {
 3557              		.loc 18 43 14 is_stmt 1 view .LVU768
 3558              	.LBB1826:
  45:../../DaisySP//Source/Utility/dsp.h **** #ifdef __arm__
 3559              		.loc 18 45 5 view .LVU769
  47:../../DaisySP//Source/Utility/dsp.h **** #else
 3560              		.loc 18 47 5 view .LVU770
 3561              	.LBE1826:
 3562              	.LBE1825:
 3563              	.LBE1830:
 3564              	.LBE1835:
 3565              	.LBE1934:
 3566              	.LBB1935:
ARM GAS  /var/folders/hl/qgbwny5j0fd895c2c41bk3tw0000gp/T//ccEG44Zu.s 			page 101


 3567              	.LBB1905:
 3568              	.LBB1895:
 3569              	.LBB1896:
 3570              	.LBB1897:
  36:../../DaisySP//Source/Utility/dsp.h **** #else
 3571              		.loc 18 36 5 is_stmt 0 view .LVU771
 3572              		.syntax unified
 3573              	@ 36 "../../DaisySP//Source/Utility/dsp.h" 1
 3574 00c2 8AFE08AA 		vmaxnm.f32 s20, s20, s16
 3575              	@ 0 "" 2
 3576              		.thumb
 3577              		.syntax unified
 3578              	.LBE1897:
 3579              	.LBE1896:
 3580              	.LBE1895:
 3581              	.LBE1905:
 3582              	.LBE1935:
 3583              	.LBB1936:
 3584              	.LBB1921:
 3585              	.LBB1911:
 3586              	.LBB1912:
 3587              	.LBB1913:
 3588              		.syntax unified
 3589              	@ 36 "../../DaisySP//Source/Utility/dsp.h" 1
 3590 00c6 C9FE889A 		vmaxnm.f32 s19, s19, s16
 3591              	@ 0 "" 2
 3592              		.thumb
 3593              		.syntax unified
 3594              	.LBE1913:
 3595              	.LBE1912:
 3596              	.LBE1911:
 3597              	.LBE1921:
 3598              	.LBE1936:
 3599              	.LBB1937:
 3600              	.LBB1862:
 3601              		.loc 17 35 22 view .LVU772
 3602 00ca 1B48     		ldr	r0, .L45+8
 3603              	.LBE1862:
 3604              	.LBE1937:
 3605              	.LBB1938:
 3606              	.LBB1836:
 3607              	.LBB1831:
 3608              	.LBB1828:
 3609              	.LBB1827:
  47:../../DaisySP//Source/Utility/dsp.h **** #else
 3610              		.loc 18 47 5 view .LVU773
 3611              		.syntax unified
 3612              	@ 47 "../../DaisySP//Source/Utility/dsp.h" 1
 3613 00cc 8BFE68BA 		vminnm.f32 s22, s22, s17
 3614              	@ 0 "" 2
 3615              	.LVL164:
  51:../../DaisySP//Source/Utility/dsp.h **** }
 3616              		.loc 18 51 5 is_stmt 1 view .LVU774
  51:../../DaisySP//Source/Utility/dsp.h **** }
 3617              		.loc 18 51 5 is_stmt 0 view .LVU775
 3618              		.thumb
 3619              		.syntax unified
ARM GAS  /var/folders/hl/qgbwny5j0fd895c2c41bk3tw0000gp/T//ccEG44Zu.s 			page 102


 3620              	.LBE1827:
 3621              	.LBE1828:
 3622              	.LBE1831:
 3623              	.LBE1836:
 3624              	.LBE1938:
  30:Interesting.cpp **** 	time = fmap(hw.GetAdcValue(ADC_11), 0.1f, 1.0f);// 0.5f + (0.49f * patch_position));
 3625              		.loc 17 30 2 is_stmt 1 view .LVU776
 3626              	.LBB1939:
 3627              	.LBI1893:
 161:../../DaisySP//Source/Utility/dsp.h **** {
 3628              		.loc 18 161 1 view .LVU777
 3629              	.LBE1939:
 163:../../DaisySP//Source/Utility/dsp.h ****     {
 3630              		.loc 18 163 5 view .LVU778
 3631              	.LBB1940:
 3632              	.LBB1906:
 172:../../DaisySP//Source/Utility/dsp.h ****         default: return fclamp(min + in * (max - min), min, max);
 3633              		.loc 18 172 9 view .LVU779
 3634              		.loc 18 173 9 view .LVU780
 3635              		.loc 18 173 18 view .LVU781
 3636              	.LBB1902:
 3637              	.LBI1895:
  56:../../DaisySP//Source/Utility/dsp.h **** {
 3638              		.loc 18 56 14 view .LVU782
 3639              	.LBE1902:
 3640              	.LBE1906:
 3641              	.LBE1940:
  58:../../DaisySP//Source/Utility/dsp.h **** }
 3642              		.loc 18 58 5 view .LVU783
 3643              	.LBB1941:
 3644              	.LBB1907:
 3645              	.LBB1903:
 3646              	.LBB1899:
 3647              	.LBI1896:
  32:../../DaisySP//Source/Utility/dsp.h **** {
 3648              		.loc 18 32 14 view .LVU784
 3649              	.LBB1898:
  34:../../DaisySP//Source/Utility/dsp.h **** #ifdef __arm__
 3650              		.loc 18 34 5 view .LVU785
  36:../../DaisySP//Source/Utility/dsp.h **** #else
 3651              		.loc 18 36 5 view .LVU786
  40:../../DaisySP//Source/Utility/dsp.h **** }
 3652              		.loc 18 40 5 view .LVU787
  40:../../DaisySP//Source/Utility/dsp.h **** }
 3653              		.loc 18 40 5 is_stmt 0 view .LVU788
 3654              	.LBE1898:
 3655              	.LBE1899:
 3656              	.LBB1900:
 3657              	.LBI1900:
  43:../../DaisySP//Source/Utility/dsp.h **** {
 3658              		.loc 18 43 14 is_stmt 1 view .LVU789
 3659              	.LBB1901:
  45:../../DaisySP//Source/Utility/dsp.h **** #ifdef __arm__
 3660              		.loc 18 45 5 view .LVU790
  47:../../DaisySP//Source/Utility/dsp.h **** #else
 3661              		.loc 18 47 5 view .LVU791
 3662              		.syntax unified
ARM GAS  /var/folders/hl/qgbwny5j0fd895c2c41bk3tw0000gp/T//ccEG44Zu.s 			page 103


 3663              	@ 47 "../../DaisySP//Source/Utility/dsp.h" 1
 3664 00d0 8AFE68AA 		vminnm.f32 s20, s20, s17
 3665              	@ 0 "" 2
 3666              	.LVL165:
  51:../../DaisySP//Source/Utility/dsp.h **** }
 3667              		.loc 18 51 5 view .LVU792
  51:../../DaisySP//Source/Utility/dsp.h **** }
 3668              		.loc 18 51 5 is_stmt 0 view .LVU793
 3669              		.thumb
 3670              		.syntax unified
 3671              	.LBE1901:
 3672              	.LBE1900:
 3673              	.LBE1903:
 3674              	.LBE1907:
 3675              	.LBE1941:
  31:Interesting.cpp ****     
 3676              		.loc 17 31 2 is_stmt 1 view .LVU794
 3677              	.LBB1942:
 3678              	.LBI1909:
 161:../../DaisySP//Source/Utility/dsp.h **** {
 3679              		.loc 18 161 1 view .LVU795
 3680              	.LBE1942:
 163:../../DaisySP//Source/Utility/dsp.h ****     {
 3681              		.loc 18 163 5 view .LVU796
 3682              	.LBB1943:
 3683              	.LBB1922:
 172:../../DaisySP//Source/Utility/dsp.h ****         default: return fclamp(min + in * (max - min), min, max);
 3684              		.loc 18 172 9 view .LVU797
 3685              		.loc 18 173 9 view .LVU798
 3686              		.loc 18 173 18 view .LVU799
 3687              	.LBB1918:
 3688              	.LBI1911:
  56:../../DaisySP//Source/Utility/dsp.h **** {
 3689              		.loc 18 56 14 view .LVU800
 3690              	.LBE1918:
 3691              	.LBE1922:
 3692              	.LBE1943:
  58:../../DaisySP//Source/Utility/dsp.h **** }
 3693              		.loc 18 58 5 view .LVU801
 3694              	.LBB1944:
 3695              	.LBB1923:
 3696              	.LBB1919:
 3697              	.LBB1915:
 3698              	.LBI1912:
  32:../../DaisySP//Source/Utility/dsp.h **** {
 3699              		.loc 18 32 14 view .LVU802
 3700              	.LBB1914:
  34:../../DaisySP//Source/Utility/dsp.h **** #ifdef __arm__
 3701              		.loc 18 34 5 view .LVU803
  36:../../DaisySP//Source/Utility/dsp.h **** #else
 3702              		.loc 18 36 5 view .LVU804
  40:../../DaisySP//Source/Utility/dsp.h **** }
 3703              		.loc 18 40 5 view .LVU805
  40:../../DaisySP//Source/Utility/dsp.h **** }
 3704              		.loc 18 40 5 is_stmt 0 view .LVU806
 3705              	.LBE1914:
 3706              	.LBE1915:
ARM GAS  /var/folders/hl/qgbwny5j0fd895c2c41bk3tw0000gp/T//ccEG44Zu.s 			page 104


 3707              	.LBB1916:
 3708              	.LBI1916:
  43:../../DaisySP//Source/Utility/dsp.h **** {
 3709              		.loc 18 43 14 is_stmt 1 view .LVU807
 3710              	.LBB1917:
  45:../../DaisySP//Source/Utility/dsp.h **** #ifdef __arm__
 3711              		.loc 18 45 5 view .LVU808
  47:../../DaisySP//Source/Utility/dsp.h **** #else
 3712              		.loc 18 47 5 view .LVU809
 3713              		.syntax unified
 3714              	@ 47 "../../DaisySP//Source/Utility/dsp.h" 1
 3715 00d4 C9FEE89A 		vminnm.f32 s19, s19, s17
 3716              	@ 0 "" 2
 3717              	.LVL166:
  51:../../DaisySP//Source/Utility/dsp.h **** }
 3718              		.loc 18 51 5 view .LVU810
  51:../../DaisySP//Source/Utility/dsp.h **** }
 3719              		.loc 18 51 5 is_stmt 0 view .LVU811
 3720              		.thumb
 3721              		.syntax unified
 3722              	.LBE1917:
 3723              	.LBE1916:
 3724              	.LBE1919:
 3725              	.LBE1923:
 3726              	.LBE1944:
  33:Interesting.cpp **** 	{
 3727              		.loc 17 33 2 is_stmt 1 view .LVU812
 3728              	.LBB1945:
 3729              	.LBB1863:
 3730              	.LBI1839:
 3731              		.loc 9 175 6 view .LVU813
 3732              		.loc 9 175 6 is_stmt 0 view .LVU814
 3733              	.LBE1863:
  33:Interesting.cpp **** 	{
 3734              		.loc 17 33 2 view .LVU815
 3735 00d8 FBB1     		cbz	r3, .L42
 3736              	.LBB1864:
 3737              		.loc 17 35 3 is_stmt 1 view .LVU816
 3738              		.loc 17 35 22 is_stmt 0 view .LVU817
 3739 00da FFF7FEFF 		bl	_ZN5daisy8patch_sm12DaisyPatchSM11GetAdcValueEi
 3740              	.LVL167:
 3741              	.LBB1842:
 3742              	.LBI1842:
 161:../../DaisySP//Source/Utility/dsp.h **** {
 3743              		.loc 18 161 1 is_stmt 1 view .LVU818
 3744              	.LBE1842:
 3745              	.LBE1864:
 3746              	.LBE1945:
 163:../../DaisySP//Source/Utility/dsp.h ****     {
 3747              		.loc 18 163 5 view .LVU819
 3748              	.LBB1946:
 3749              	.LBB1865:
 3750              	.LBB1855:
 3751              	.LBB1843:
 172:../../DaisySP//Source/Utility/dsp.h ****         default: return fclamp(min + in * (max - min), min, max);
 3752              		.loc 18 172 9 view .LVU820
 3753              		.loc 18 173 9 view .LVU821
ARM GAS  /var/folders/hl/qgbwny5j0fd895c2c41bk3tw0000gp/T//ccEG44Zu.s 			page 105


 3754              		.loc 18 173 18 view .LVU822
 3755              		.loc 18 173 31 is_stmt 0 view .LVU823
 3756 00de F0EE687A 		vmov.f32	s15, s17
 3757 00e2 DFED186A 		vldr.32	s13, .L45+20
 3758              	.LBE1843:
 3759              	.LBE1855:
 3760              	.LBB1856:
 3761              	.LBB1857:
 169:processor.h   **** 
 3762              		.loc 9 169 40 view .LVU824
 3763 00e6 04F61864 		addw	r4, r4, #3608
 3764              	.LBE1857:
 3765              	.LBE1856:
 3766              	.LBB1859:
 3767              	.LBB1853:
 3768              	.LBB1844:
 3769              	.LBB1845:
 3770              	.LBB1846:
  47:../../DaisySP//Source/Utility/dsp.h **** #else
 3771              		.loc 18 47 5 view .LVU825
 3772 00ea 9FED177A 		vldr.32	s14, .L45+24
 3773              	.LBE1846:
 3774              	.LBE1845:
 3775              	.LBE1844:
 3776              		.loc 18 173 31 view .LVU826
 3777 00ee E0EE267A 		vfma.f32	s15, s0, s13
 3778              	.LVL168:
 3779              	.LBB1851:
 3780              	.LBI1844:
  56:../../DaisySP//Source/Utility/dsp.h **** {
 3781              		.loc 18 56 14 is_stmt 1 view .LVU827
 3782              	.LBE1851:
 3783              	.LBE1853:
 3784              	.LBE1859:
 3785              	.LBE1865:
 3786              	.LBE1946:
  58:../../DaisySP//Source/Utility/dsp.h **** }
 3787              		.loc 18 58 5 view .LVU828
 3788              	.LBB1947:
 3789              	.LBB1866:
 3790              	.LBB1860:
 3791              	.LBB1854:
 3792              	.LBB1852:
 3793              	.LBB1848:
 3794              	.LBI1848:
  32:../../DaisySP//Source/Utility/dsp.h **** {
 3795              		.loc 18 32 14 view .LVU829
 3796              	.LBB1849:
  34:../../DaisySP//Source/Utility/dsp.h **** #ifdef __arm__
 3797              		.loc 18 34 5 view .LVU830
  36:../../DaisySP//Source/Utility/dsp.h **** #else
 3798              		.loc 18 36 5 view .LVU831
 3799              		.syntax unified
 3800              	@ 36 "../../DaisySP//Source/Utility/dsp.h" 1
 3801 00f2 C7FEA87A 		vmaxnm.f32 s15, s15, s17
 3802              	@ 0 "" 2
 3803              	.LVL169:
ARM GAS  /var/folders/hl/qgbwny5j0fd895c2c41bk3tw0000gp/T//ccEG44Zu.s 			page 106


  40:../../DaisySP//Source/Utility/dsp.h **** }
 3804              		.loc 18 40 5 view .LVU832
  40:../../DaisySP//Source/Utility/dsp.h **** }
 3805              		.loc 18 40 5 is_stmt 0 view .LVU833
 3806              		.thumb
 3807              		.syntax unified
 3808              	.LBE1849:
 3809              	.LBE1848:
 3810              	.LBB1850:
 3811              	.LBI1845:
  43:../../DaisySP//Source/Utility/dsp.h **** {
 3812              		.loc 18 43 14 is_stmt 1 view .LVU834
 3813              	.LBB1847:
  45:../../DaisySP//Source/Utility/dsp.h **** #ifdef __arm__
 3814              		.loc 18 45 5 view .LVU835
  47:../../DaisySP//Source/Utility/dsp.h **** #else
 3815              		.loc 18 47 5 view .LVU836
 3816              		.syntax unified
 3817              	@ 47 "../../DaisySP//Source/Utility/dsp.h" 1
 3818 00f6 C7FEC77A 		vminnm.f32 s15, s15, s14
 3819              	@ 0 "" 2
 3820              	.LVL170:
  51:../../DaisySP//Source/Utility/dsp.h **** }
 3821              		.loc 18 51 5 view .LVU837
  51:../../DaisySP//Source/Utility/dsp.h **** }
 3822              		.loc 18 51 5 is_stmt 0 view .LVU838
 3823              		.thumb
 3824              		.syntax unified
 3825              	.LBE1847:
 3826              	.LBE1850:
 3827              	.LBE1852:
 3828              	.LBE1854:
 3829              	.LBE1860:
  36:Interesting.cpp **** 		proc.SetWindow(window);
 3830              		.loc 17 36 3 is_stmt 1 view .LVU839
 3831              	.LBB1861:
 3832              	.LBI1856:
 169:processor.h   **** 
 3833              		.loc 9 169 6 view .LVU840
 3834              	.LBB1858:
 169:processor.h   **** 
 3835              		.loc 9 169 40 is_stmt 0 view .LVU841
 3836 00fa C4ED007A 		vstr.32	s15, [r4]
 3837              	.LVL171:
 3838              	.L43:
 169:processor.h   **** 
 3839              		.loc 9 169 40 view .LVU842
 3840              	.LBE1858:
 3841              	.LBE1861:
 3842              	.LBE1866:
 3843              	.LBE1947:
  37:Interesting.cpp **** 	} else { gain = fmap(hw.GetAdcValue(ADC_12), 0.1f, 1.0f);}
  38:Interesting.cpp **** 
  39:Interesting.cpp **** 	effects.UpdateReverbParams(amount,diffusion,time,gain);
 3844              		.loc 17 39 2 is_stmt 1 view .LVU843
 3845              	.LBB1948:
 3846              	.LBI1948:
ARM GAS  /var/folders/hl/qgbwny5j0fd895c2c41bk3tw0000gp/T//ccEG44Zu.s 			page 107


  14:effects_handling.h **** {
  15:effects_handling.h **** public:
  16:effects_handling.h ****     void UpdateReverbParams(float amount, float diffusion, float time, float input_gain)
 3847              		.loc 11 16 10 view .LVU844
 3848              	.LBE1948:
  17:effects_handling.h ****     {
  18:effects_handling.h ****         clouds_reverb.set_amount(amount);
 3849              		.loc 11 18 9 view .LVU845
 3850              	.LBB1963:
 3851              	.LBB1949:
 3852              	.LBI1949:
 141:../../../mutable-instruments/rings/dsp/fx/reverb.h ****   
 142:../../../mutable-instruments/rings/dsp/fx/reverb.h ****   inline void set_amount(float amount) {
 3853              		.loc 12 142 15 view .LVU846
 3854              	.LBB1950:
 143:../../../mutable-instruments/rings/dsp/fx/reverb.h ****     amount_ = amount;
 3855              		.loc 12 143 5 view .LVU847
 3856              		.loc 12 143 13 is_stmt 0 view .LVU848
 3857 00fe 134B     		ldr	r3, .L45+28
 3858              	.LBE1950:
 3859              	.LBE1949:
 3860              	.LBB1952:
 3861              	.LBB1953:
 144:../../../mutable-instruments/rings/dsp/fx/reverb.h ****   }
 145:../../../mutable-instruments/rings/dsp/fx/reverb.h ****   
 146:../../../mutable-instruments/rings/dsp/fx/reverb.h ****   inline void set_input_gain(float input_gain) {
 147:../../../mutable-instruments/rings/dsp/fx/reverb.h ****     input_gain_ = input_gain;
 148:../../../mutable-instruments/rings/dsp/fx/reverb.h ****   }
 149:../../../mutable-instruments/rings/dsp/fx/reverb.h **** 
 150:../../../mutable-instruments/rings/dsp/fx/reverb.h ****   inline void set_time(float reverb_time) {
 151:../../../mutable-instruments/rings/dsp/fx/reverb.h ****     reverb_time_ = reverb_time;
 152:../../../mutable-instruments/rings/dsp/fx/reverb.h ****   }
 153:../../../mutable-instruments/rings/dsp/fx/reverb.h ****   
 154:../../../mutable-instruments/rings/dsp/fx/reverb.h ****   inline void set_diffusion(float diffusion) {
 155:../../../mutable-instruments/rings/dsp/fx/reverb.h ****     diffusion_ = diffusion;
 156:../../../mutable-instruments/rings/dsp/fx/reverb.h ****   }
 157:../../../mutable-instruments/rings/dsp/fx/reverb.h ****   
 158:../../../mutable-instruments/rings/dsp/fx/reverb.h ****   inline void set_lp(float lp) {
 159:../../../mutable-instruments/rings/dsp/fx/reverb.h ****     lp_ = lp;
 3862              		.loc 12 159 9 view .LVU849
 3863 0100 134A     		ldr	r2, .L45+32
 3864              	.LBE1953:
 3865              	.LBE1952:
 3866              	.LBB1955:
 3867              	.LBB1951:
 143:../../../mutable-instruments/rings/dsp/fx/reverb.h ****     amount_ = amount;
 3868              		.loc 12 143 13 view .LVU850
 3869 0102 83ED0ABA 		vstr.32	s22, [r3, #40]
 3870              	.LVL172:
 143:../../../mutable-instruments/rings/dsp/fx/reverb.h ****     amount_ = amount;
 3871              		.loc 12 143 13 view .LVU851
 3872              	.LBE1951:
 3873              	.LBE1955:
 3874              	.LBE1963:
  19:effects_handling.h ****         clouds_reverb.set_diffusion(diffusion);
 3875              		.loc 11 19 9 is_stmt 1 view .LVU852
 3876              	.LBB1964:
ARM GAS  /var/folders/hl/qgbwny5j0fd895c2c41bk3tw0000gp/T//ccEG44Zu.s 			page 108


 3877              	.LBB1956:
 3878              	.LBI1956:
 154:../../../mutable-instruments/rings/dsp/fx/reverb.h ****     diffusion_ = diffusion;
 3879              		.loc 12 154 15 view .LVU853
 3880              	.LBB1957:
 155:../../../mutable-instruments/rings/dsp/fx/reverb.h ****   }
 3881              		.loc 12 155 5 view .LVU854
 155:../../../mutable-instruments/rings/dsp/fx/reverb.h ****   }
 3882              		.loc 12 155 16 is_stmt 0 view .LVU855
 3883 0106 83ED0DAA 		vstr.32	s20, [r3, #52]
 3884              	.LVL173:
 155:../../../mutable-instruments/rings/dsp/fx/reverb.h ****   }
 3885              		.loc 12 155 16 view .LVU856
 3886              	.LBE1957:
 3887              	.LBE1956:
 3888              	.LBE1964:
  20:effects_handling.h ****         clouds_reverb.set_time(time);// 0.5f + (0.49f * patch_position));
 3889              		.loc 11 20 9 is_stmt 1 view .LVU857
 3890              	.LBB1965:
 3891              	.LBB1958:
 3892              	.LBI1958:
 150:../../../mutable-instruments/rings/dsp/fx/reverb.h ****     reverb_time_ = reverb_time;
 3893              		.loc 12 150 15 view .LVU858
 3894              	.LBB1959:
 151:../../../mutable-instruments/rings/dsp/fx/reverb.h ****   }
 3895              		.loc 12 151 5 view .LVU859
 151:../../../mutable-instruments/rings/dsp/fx/reverb.h ****   }
 3896              		.loc 12 151 18 is_stmt 0 view .LVU860
 3897 010a C3ED0C9A 		vstr.32	s19, [r3, #48]
 3898              	.LVL174:
 151:../../../mutable-instruments/rings/dsp/fx/reverb.h ****   }
 3899              		.loc 12 151 18 view .LVU861
 3900              	.LBE1959:
 3901              	.LBE1958:
 3902              	.LBE1965:
  21:effects_handling.h ****         clouds_reverb.set_input_gain(input_gain);
 3903              		.loc 11 21 9 is_stmt 1 view .LVU862
 3904              	.LBB1966:
 3905              	.LBB1960:
 3906              	.LBI1960:
 146:../../../mutable-instruments/rings/dsp/fx/reverb.h ****     input_gain_ = input_gain;
 3907              		.loc 12 146 15 view .LVU863
 3908              	.LBB1961:
 147:../../../mutable-instruments/rings/dsp/fx/reverb.h ****   }
 3909              		.loc 12 147 5 view .LVU864
 147:../../../mutable-instruments/rings/dsp/fx/reverb.h ****   }
 3910              		.loc 12 147 17 is_stmt 0 view .LVU865
 3911 010e C3ED0BAA 		vstr.32	s21, [r3, #44]
 3912              	.LVL175:
 147:../../../mutable-instruments/rings/dsp/fx/reverb.h ****   }
 3913              		.loc 12 147 17 view .LVU866
 3914              	.LBE1961:
 3915              	.LBE1960:
 3916              	.LBE1966:
  22:effects_handling.h ****         clouds_reverb.set_lp(0.3f);// : 0.6f);
 3917              		.loc 11 22 9 is_stmt 1 view .LVU867
 3918              	.LBB1967:
ARM GAS  /var/folders/hl/qgbwny5j0fd895c2c41bk3tw0000gp/T//ccEG44Zu.s 			page 109


 3919              	.LBB1962:
 3920              	.LBI1952:
 158:../../../mutable-instruments/rings/dsp/fx/reverb.h ****     lp_ = lp;
 3921              		.loc 12 158 15 view .LVU868
 3922              	.LBB1954:
 3923              		.loc 12 159 5 view .LVU869
 3924              		.loc 12 159 9 is_stmt 0 view .LVU870
 3925 0112 9A63     		str	r2, [r3, #56]	@ float
 3926              	.LVL176:
 3927              		.loc 12 159 9 view .LVU871
 3928              	.LBE1954:
 3929              	.LBE1962:
 3930              	.LBE1967:
  40:Interesting.cpp **** }
 3931              		.loc 17 40 1 view .LVU872
 3932 0114 BDEC088B 		vldm	sp!, {d8-d11}
 3933              		.cfi_remember_state
 3934              		.cfi_restore 86
 3935              		.cfi_restore 87
 3936              		.cfi_restore 84
 3937              		.cfi_restore 85
 3938              		.cfi_restore 82
 3939              		.cfi_restore 83
 3940              		.cfi_restore 80
 3941              		.cfi_restore 81
 3942              		.cfi_def_cfa_offset 8
 3943              	.LVL177:
 3944              		.loc 17 40 1 view .LVU873
 3945 0118 10BD     		pop	{r4, pc}
 3946              	.LVL178:
 3947              	.L42:
 3948              		.cfi_restore_state
 3949              	.LBB1968:
  37:Interesting.cpp **** 
 3950              		.loc 17 37 11 is_stmt 1 view .LVU874
 3951              	.LBB1867:
 3952              	.LBB1868:
 3953              		.loc 18 173 31 is_stmt 0 view .LVU875
 3954 011a F0EE48AA 		vmov.f32	s21, s16
 3955              	.LBE1868:
 3956              	.LBE1867:
  37:Interesting.cpp **** 
 3957              		.loc 17 37 22 view .LVU876
 3958 011e FFF7FEFF 		bl	_ZN5daisy8patch_sm12DaisyPatchSM11GetAdcValueEi
 3959              	.LVL179:
 3960              	.LBB1877:
 3961              	.LBI1867:
 161:../../DaisySP//Source/Utility/dsp.h **** {
 3962              		.loc 18 161 1 is_stmt 1 view .LVU877
 3963              	.LBE1877:
 3964              	.LBE1968:
 163:../../DaisySP//Source/Utility/dsp.h ****     {
 3965              		.loc 18 163 5 view .LVU878
 3966              	.LBB1969:
 3967              	.LBB1878:
 3968              	.LBB1875:
 172:../../DaisySP//Source/Utility/dsp.h ****         default: return fclamp(min + in * (max - min), min, max);
ARM GAS  /var/folders/hl/qgbwny5j0fd895c2c41bk3tw0000gp/T//ccEG44Zu.s 			page 110


 3969              		.loc 18 172 9 view .LVU879
 3970              		.loc 18 173 9 view .LVU880
 3971              		.loc 18 173 18 view .LVU881
 3972              		.loc 18 173 31 is_stmt 0 view .LVU882
 3973 0122 E0EE09AA 		vfma.f32	s21, s0, s18
 3974              	.LVL180:
 3975              	.LBB1869:
 3976              	.LBI1869:
  56:../../DaisySP//Source/Utility/dsp.h **** {
 3977              		.loc 18 56 14 is_stmt 1 view .LVU883
 3978              	.LBE1869:
 3979              	.LBE1875:
 3980              	.LBE1878:
 3981              	.LBE1969:
  58:../../DaisySP//Source/Utility/dsp.h **** }
 3982              		.loc 18 58 5 view .LVU884
 3983              	.LBB1970:
 3984              	.LBB1879:
 3985              	.LBB1876:
 3986              	.LBB1874:
 3987              	.LBB1870:
 3988              	.LBI1870:
  32:../../DaisySP//Source/Utility/dsp.h **** {
 3989              		.loc 18 32 14 view .LVU885
 3990              	.LBB1871:
  34:../../DaisySP//Source/Utility/dsp.h **** #ifdef __arm__
 3991              		.loc 18 34 5 view .LVU886
  36:../../DaisySP//Source/Utility/dsp.h **** #else
 3992              		.loc 18 36 5 view .LVU887
 3993              		.syntax unified
 3994              	@ 36 "../../DaisySP//Source/Utility/dsp.h" 1
 3995 0126 CAFE88AA 		vmaxnm.f32 s21, s21, s16
 3996              	@ 0 "" 2
 3997              	.LVL181:
  40:../../DaisySP//Source/Utility/dsp.h **** }
 3998              		.loc 18 40 5 view .LVU888
  40:../../DaisySP//Source/Utility/dsp.h **** }
 3999              		.loc 18 40 5 is_stmt 0 view .LVU889
 4000              		.thumb
 4001              		.syntax unified
 4002              	.LBE1871:
 4003              	.LBE1870:
 4004              	.LBB1872:
 4005              	.LBI1872:
  43:../../DaisySP//Source/Utility/dsp.h **** {
 4006              		.loc 18 43 14 is_stmt 1 view .LVU890
 4007              	.LBB1873:
  45:../../DaisySP//Source/Utility/dsp.h **** #ifdef __arm__
 4008              		.loc 18 45 5 view .LVU891
  47:../../DaisySP//Source/Utility/dsp.h **** #else
 4009              		.loc 18 47 5 view .LVU892
 4010              		.syntax unified
 4011              	@ 47 "../../DaisySP//Source/Utility/dsp.h" 1
 4012 012a CAFEE8AA 		vminnm.f32 s21, s21, s17
 4013              	@ 0 "" 2
 4014              	.LVL182:
  51:../../DaisySP//Source/Utility/dsp.h **** }
ARM GAS  /var/folders/hl/qgbwny5j0fd895c2c41bk3tw0000gp/T//ccEG44Zu.s 			page 111


 4015              		.loc 18 51 5 view .LVU893
  51:../../DaisySP//Source/Utility/dsp.h **** }
 4016              		.loc 18 51 5 is_stmt 0 view .LVU894
 4017              		.thumb
 4018              		.syntax unified
 4019 012e E6E7     		b	.L43
 4020              	.L46:
 4021              		.align	2
 4022              	.L45:
 4023 0130 CDCCCC3D 		.word	1036831949
 4024 0134 6666663F 		.word	1063675494
 4025 0138 00000000 		.word	.LANCHOR18
 4026 013c 20A60E00 		.word	proc+960032
 4027 0140 00E00200 		.word	proc+188416
 4028 0144 00BC5A46 		.word	1180351488
 4029 0148 00C05A46 		.word	1180352512
 4030 014c 00000000 		.word	effects
 4031 0150 9A99993E 		.word	1050253722
 4032              	.LBE1873:
 4033              	.LBE1872:
 4034              	.LBE1874:
 4035              	.LBE1876:
 4036              	.LBE1879:
 4037              	.LBE1970:
 4038              		.cfi_endproc
 4039              	.LFE5244:
 4041              		.section	.text._Z13AudioCallbackPKPKfPPfj,"ax",%progbits
 4042              		.align	1
 4043              		.p2align 2,,3
 4044              		.global	_Z13AudioCallbackPKPKfPPfj
 4045              		.syntax unified
 4046              		.thumb
 4047              		.thumb_func
 4049              	_Z13AudioCallbackPKPKfPPfj:
 4050              	.LVL183:
 4051              	.LFB5245:
  41:Interesting.cpp **** 
  42:Interesting.cpp **** void AudioCallback(AudioHandle::InputBuffer in, AudioHandle::OutputBuffer out, size_t size)
  43:Interesting.cpp **** {
 4052              		.loc 17 43 1 is_stmt 1 view -0
 4053              		.cfi_startproc
 4054              		@ args = 0, pretend = 0, frame = 32
 4055              		@ frame_needed = 0, uses_anonymous_args = 0
  44:Interesting.cpp **** 	hw.ProcessAllControls();
 4056              		.loc 17 44 2 view .LVU896
 4057              	.LBB1999:
 4058              	.LBI1999:
  66:../../libDaisy//src/daisy_patch_sm.h **** 
  67:../../libDaisy//src/daisy_patch_sm.h ****         /** Initializes the memories, and core peripherals for the Daisy Patch SM */
  68:../../libDaisy//src/daisy_patch_sm.h ****         void Init();
  69:../../libDaisy//src/daisy_patch_sm.h **** 
  70:../../libDaisy//src/daisy_patch_sm.h ****         /** Starts a non-interleaving audio callback */
  71:../../libDaisy//src/daisy_patch_sm.h ****         void StartAudio(AudioHandle::AudioCallback cb);
  72:../../libDaisy//src/daisy_patch_sm.h **** 
  73:../../libDaisy//src/daisy_patch_sm.h ****         /** Starts an interleaving audio callback */
  74:../../libDaisy//src/daisy_patch_sm.h ****         void StartAudio(AudioHandle::InterleavingAudioCallback cb);
  75:../../libDaisy//src/daisy_patch_sm.h **** 
ARM GAS  /var/folders/hl/qgbwny5j0fd895c2c41bk3tw0000gp/T//ccEG44Zu.s 			page 112


  76:../../libDaisy//src/daisy_patch_sm.h ****         /** Changes the callback that is executing.
  77:../../libDaisy//src/daisy_patch_sm.h ****          *  This may cause clicks if done while audio is processing.
  78:../../libDaisy//src/daisy_patch_sm.h ****          */
  79:../../libDaisy//src/daisy_patch_sm.h ****         void ChangeAudioCallback(AudioHandle::AudioCallback cb);
  80:../../libDaisy//src/daisy_patch_sm.h **** 
  81:../../libDaisy//src/daisy_patch_sm.h ****         /** Changes the callback that is executing.
  82:../../libDaisy//src/daisy_patch_sm.h ****          *  This may cause clicks if done while audio is processing.
  83:../../libDaisy//src/daisy_patch_sm.h ****          */
  84:../../libDaisy//src/daisy_patch_sm.h ****         void ChangeAudioCallback(AudioHandle::InterleavingAudioCallback cb);
  85:../../libDaisy//src/daisy_patch_sm.h **** 
  86:../../libDaisy//src/daisy_patch_sm.h ****         /** Stops the transmission of audio. */
  87:../../libDaisy//src/daisy_patch_sm.h ****         void StopAudio();
  88:../../libDaisy//src/daisy_patch_sm.h **** 
  89:../../libDaisy//src/daisy_patch_sm.h ****         /** Sets the number of samples processed in an audio callback. 
  90:../../libDaisy//src/daisy_patch_sm.h ****          *  This will only take effect on the next invocation of `StartAudio`
  91:../../libDaisy//src/daisy_patch_sm.h ****          */
  92:../../libDaisy//src/daisy_patch_sm.h ****         void SetAudioBlockSize(size_t size);
  93:../../libDaisy//src/daisy_patch_sm.h **** 
  94:../../libDaisy//src/daisy_patch_sm.h ****         /** Sets the samplerate for the audio engine 
  95:../../libDaisy//src/daisy_patch_sm.h ****          *  This will set it to the closest valid samplerate. Options being:
  96:../../libDaisy//src/daisy_patch_sm.h ****          *  8kHz, 16kHz, 32kHz, 48kHz, and 96kHz
  97:../../libDaisy//src/daisy_patch_sm.h ****          */
  98:../../libDaisy//src/daisy_patch_sm.h ****         void SetAudioSampleRate(float sr);
  99:../../libDaisy//src/daisy_patch_sm.h **** 
 100:../../libDaisy//src/daisy_patch_sm.h ****         void SetAudioSampleRate(SaiHandle::Config::SampleRate sample_rate);
 101:../../libDaisy//src/daisy_patch_sm.h **** 
 102:../../libDaisy//src/daisy_patch_sm.h ****         /** Returns the number of samples processed in an audio callback */
 103:../../libDaisy//src/daisy_patch_sm.h ****         size_t AudioBlockSize();
 104:../../libDaisy//src/daisy_patch_sm.h **** 
 105:../../libDaisy//src/daisy_patch_sm.h ****         /** Returns the audio engine's samplerate in Hz */
 106:../../libDaisy//src/daisy_patch_sm.h ****         float AudioSampleRate();
 107:../../libDaisy//src/daisy_patch_sm.h **** 
 108:../../libDaisy//src/daisy_patch_sm.h ****         /** Returns the rate at which the audio callback will be called in Hz */
 109:../../libDaisy//src/daisy_patch_sm.h ****         float AudioCallbackRate();
 110:../../libDaisy//src/daisy_patch_sm.h **** 
 111:../../libDaisy//src/daisy_patch_sm.h ****         /** Starts the Control ADCs 
 112:../../libDaisy//src/daisy_patch_sm.h ****          * 
 113:../../libDaisy//src/daisy_patch_sm.h ****          *  This is started automatically when Init() is called.
 114:../../libDaisy//src/daisy_patch_sm.h ****          */
 115:../../libDaisy//src/daisy_patch_sm.h ****         void StartAdc();
 116:../../libDaisy//src/daisy_patch_sm.h **** 
 117:../../libDaisy//src/daisy_patch_sm.h ****         /** Stops the Control ADCs */
 118:../../libDaisy//src/daisy_patch_sm.h ****         void StopAdc();
 119:../../libDaisy//src/daisy_patch_sm.h **** 
 120:../../libDaisy//src/daisy_patch_sm.h ****         /** Reads and filters all of the analog control inputs */
 121:../../libDaisy//src/daisy_patch_sm.h ****         void ProcessAnalogControls();
 122:../../libDaisy//src/daisy_patch_sm.h **** 
 123:../../libDaisy//src/daisy_patch_sm.h ****         /** Reads and debounces any of the digital control inputs 
 124:../../libDaisy//src/daisy_patch_sm.h ****          *  This does nothing on this board at this time.
 125:../../libDaisy//src/daisy_patch_sm.h ****          */
 126:../../libDaisy//src/daisy_patch_sm.h ****         void ProcessDigitalControls();
 127:../../libDaisy//src/daisy_patch_sm.h **** 
 128:../../libDaisy//src/daisy_patch_sm.h ****         /** Does both of the above */
 129:../../libDaisy//src/daisy_patch_sm.h ****         void ProcessAllControls()
 4059              		.loc 2 129 14 view .LVU897
 4060              	.LBB2000:
 130:../../libDaisy//src/daisy_patch_sm.h ****         {
ARM GAS  /var/folders/hl/qgbwny5j0fd895c2c41bk3tw0000gp/T//ccEG44Zu.s 			page 113


 131:../../libDaisy//src/daisy_patch_sm.h ****             ProcessAnalogControls();
 4061              		.loc 2 131 13 view .LVU898
 4062              	.LBE2000:
 4063              	.LBE1999:
  43:Interesting.cpp **** 	hw.ProcessAllControls();
 4064              		.loc 17 43 1 is_stmt 0 view .LVU899
 4065 0000 2DE9F04F 		push	{r4, r5, r6, r7, r8, r9, r10, fp, lr}
 4066              		.cfi_def_cfa_offset 36
 4067              		.cfi_offset 4, -36
 4068              		.cfi_offset 5, -32
 4069              		.cfi_offset 6, -28
 4070              		.cfi_offset 7, -24
 4071              		.cfi_offset 8, -20
 4072              		.cfi_offset 9, -16
 4073              		.cfi_offset 10, -12
 4074              		.cfi_offset 11, -8
 4075              		.cfi_offset 14, -4
 4076 0004 0346     		mov	r3, r0
 4077 0006 1446     		mov	r4, r2
 4078              	.LBB2003:
 4079              	.LBB2001:
 4080              		.loc 2 131 34 view .LVU900
 4081 0008 9A48     		ldr	r0, .L74
 4082              	.LVL184:
 4083              		.loc 2 131 34 view .LVU901
 4084              	.LBE2001:
 4085              	.LBE2003:
  43:Interesting.cpp **** 	hw.ProcessAllControls();
 4086              		.loc 17 43 1 view .LVU902
 4087 000a 2DED028B 		vpush.64	{d8}
 4088              		.cfi_def_cfa_offset 44
 4089              		.cfi_offset 80, -44
 4090              		.cfi_offset 81, -40
 4091 000e 89B0     		sub	sp, sp, #36
 4092              		.cfi_def_cfa_offset 80
  43:Interesting.cpp **** 	hw.ProcessAllControls();
 4093              		.loc 17 43 1 view .LVU903
 4094 0010 CDE90412 		strd	r1, r2, [sp, #16]
 4095 0014 0393     		str	r3, [sp, #12]
 4096              	.LBB2004:
 4097              	.LBB2002:
 4098              		.loc 2 131 34 view .LVU904
 4099 0016 FFF7FEFF 		bl	_ZN5daisy8patch_sm12DaisyPatchSM21ProcessAnalogControlsEv
 4100              	.LVL185:
 132:../../libDaisy//src/daisy_patch_sm.h ****             ProcessDigitalControls();
 4101              		.loc 2 132 13 is_stmt 1 view .LVU905
 4102              		.loc 2 132 35 is_stmt 0 view .LVU906
 4103 001a 9648     		ldr	r0, .L74
 4104 001c FFF7FEFF 		bl	_ZN5daisy8patch_sm12DaisyPatchSM22ProcessDigitalControlsEv
 4105              	.LVL186:
 4106              		.loc 2 132 35 view .LVU907
 4107              	.LBE2002:
 4108              	.LBE2004:
  45:Interesting.cpp **** 	UpdateParameters();
 4109              		.loc 17 45 2 is_stmt 1 view .LVU908
 4110              		.loc 17 45 18 is_stmt 0 view .LVU909
 4111 0020 FFF7FEFF 		bl	_Z16UpdateParametersv
ARM GAS  /var/folders/hl/qgbwny5j0fd895c2c41bk3tw0000gp/T//ccEG44Zu.s 			page 114


 4112              	.LVL187:
  46:Interesting.cpp **** 	for (size_t i = 0; i < size; i++)
 4113              		.loc 17 46 2 is_stmt 1 view .LVU910
 4114              	.LBB2005:
 4115              		.loc 17 46 23 view .LVU911
 4116 0024 002C     		cmp	r4, #0
 4117 0026 72D0     		beq	.L47
 4118 0028 DFF86882 		ldr	r8, .L74+32
 4119              		.loc 17 46 14 is_stmt 0 view .LVU912
 4120 002c 0023     		movs	r3, #0
 4121 002e 08F53839 		add	r9, r8, #188416
 4122 0032 0193     		str	r3, [sp, #4]
 4123              	.LVL188:
 4124              	.L48:
 4125              	.LBB2006:
  47:Interesting.cpp **** 	{
  48:Interesting.cpp **** 		float output = 0.f;
 4126              		.loc 17 48 3 is_stmt 1 view .LVU913
  49:Interesting.cpp **** 		float inputs = IN_L[i]+IN_R[i];
 4127              		.loc 17 49 24 is_stmt 0 view .LVU914
 4128 0034 039B     		ldr	r3, [sp, #12]
  48:Interesting.cpp **** 		float inputs = IN_L[i]+IN_R[i];
 4129              		.loc 17 48 9 view .LVU915
 4130 0036 0025     		movs	r5, #0
 4131              	.LBB2007:
 4132              	.LBB2008:
  51:processor.h   ****     ++write_index_;
 4133              		.loc 9 51 13 view .LVU916
 4134 0038 D9F8040E 		ldr	r0, [r9, #3588]
 4135              	.LBE2008:
 4136              	.LBE2007:
 4137              	.LBB2014:
  50:Interesting.cpp **** 
  51:Interesting.cpp **** 		proc.Process(inputs);
  52:Interesting.cpp **** 		for (size_t i = 0; i < 4; i++)
 4138              		.loc 17 52 15 view .LVU917
 4139 003c 4FF0000A 		mov	r10, #0
 4140              	.LBE2014:
  48:Interesting.cpp **** 		float inputs = IN_L[i]+IN_R[i];
 4141              		.loc 17 48 9 view .LVU918
 4142 0040 0795     		str	r5, [sp, #28]	@ float
  49:Interesting.cpp **** 
 4143              		.loc 17 49 3 is_stmt 1 view .LVU919
  49:Interesting.cpp **** 
 4144              		.loc 17 49 24 is_stmt 0 view .LVU920
 4145 0042 019D     		ldr	r5, [sp, #4]
 4146              	.LBB2051:
 4147              	.LBB2009:
  53:processor.h   **** }
 4148              		.loc 9 53 18 view .LVU921
 4149 0044 D9F8004E 		ldr	r4, [r9, #3584]
 4150 0048 8B4E     		ldr	r6, .L74+4
 4151              	.LBE2009:
 4152              	.LBE2051:
  49:Interesting.cpp **** 
 4153              		.loc 17 49 32 view .LVU922
 4154 004a D3E90012 		ldrd	r1, r2, [r3]
ARM GAS  /var/folders/hl/qgbwny5j0fd895c2c41bk3tw0000gp/T//ccEG44Zu.s 			page 115


 4155              	.LBB2052:
 4156              	.LBB2010:
  52:processor.h   ****     write_index_ %= buffer_size_;
 4157              		.loc 9 52 5 view .LVU923
 4158 004e 431C     		adds	r3, r0, #1
 4159 0050 06F10807 		add	r7, r6, #8
 4160              	.LBE2010:
 4161              	.LBE2052:
  49:Interesting.cpp **** 
 4162              		.loc 17 49 24 view .LVU924
 4163 0054 01EB8501 		add	r1, r1, r5, lsl #2
  49:Interesting.cpp **** 
 4164              		.loc 17 49 32 view .LVU925
 4165 0058 02EB8502 		add	r2, r2, r5, lsl #2
 4166 005c 874D     		ldr	r5, .L74+8
  49:Interesting.cpp **** 
 4167              		.loc 17 49 9 view .LVU926
 4168 005e D1ED007A 		vldr.32	s15, [r1]
 4169              	.LBB2053:
 4170              	.LBB2011:
  51:processor.h   ****     ++write_index_;
 4171              		.loc 9 51 27 view .LVU927
 4172 0062 08EB8000 		add	r0, r8, r0, lsl #2
 4173              	.LBE2011:
 4174              	.LBE2053:
  49:Interesting.cpp **** 
 4175              		.loc 17 49 9 view .LVU928
 4176 0066 92ED007A 		vldr.32	s14, [r2]
 4177              	.LBB2054:
 4178              	.LBB2012:
  53:processor.h   **** }
 4179              		.loc 9 53 18 view .LVU929
 4180 006a B3FBF4F1 		udiv	r1, r3, r4
 4181 006e 04FB1133 		mls	r3, r4, r1, r3
 4182              	.LBE2012:
 4183              	.LBE2054:
  49:Interesting.cpp **** 
 4184              		.loc 17 49 9 view .LVU930
 4185 0072 77EE877A 		vadd.f32	s15, s15, s14
 4186              	.LBB2055:
 4187              	.LBB2013:
  53:processor.h   **** }
 4188              		.loc 9 53 18 view .LVU931
 4189 0076 A6F11004 		sub	r4, r6, #16
 4190 007a C9F8043E 		str	r3, [r9, #3588]
 4191 007e 019B     		ldr	r3, [sp, #4]
  51:processor.h   ****     ++write_index_;
 4192              		.loc 9 51 27 view .LVU932
 4193 0080 C0ED007A 		vstr.32	s15, [r0]
 4194 0084 9B00     		lsls	r3, r3, #2
 4195 0086 0293     		str	r3, [sp, #8]
 4196              	.LBE2013:
 4197              	.LBE2055:
  51:Interesting.cpp **** 		for (size_t i = 0; i < 4; i++)
 4198              		.loc 17 51 3 is_stmt 1 view .LVU933
 4199              	.LVL189:
 4200              	.LBB2056:
ARM GAS  /var/folders/hl/qgbwny5j0fd895c2c41bk3tw0000gp/T//ccEG44Zu.s 			page 116


 4201              	.LBI2007:
  49:processor.h   **** {
 4202              		.loc 9 49 6 view .LVU934
  49:processor.h   **** {
 4203              		.loc 9 49 6 is_stmt 0 view .LVU935
 4204              	.LBE2056:
 4205              		.loc 17 52 3 is_stmt 1 view .LVU936
 4206              	.LBB2057:
 4207              		.loc 17 52 24 view .LVU937
 4208              	.L57:
  53:Interesting.cpp **** 		{
  54:Interesting.cpp **** 			output += proc.PlaybackSample(i);
 4209              		.loc 17 54 4 view .LVU938
 4210              	.LBB2015:
 4211              	.LBI2015:
  56:processor.h   **** {
 4212              		.loc 9 56 7 view .LVU939
 4213              	.LBB2016:
 4214              	.LBB2017:
  59:processor.h   ****     {
 4215              		.loc 9 59 30 is_stmt 0 view .LVU940
 4216 0088 16F8013B 		ldrb	r3, [r6], #1	@ zero_extendqisi2
  59:processor.h   ****     {
 4217              		.loc 9 59 5 view .LVU941
 4218 008c 002B     		cmp	r3, #0
 4219 008e 61D1     		bne	.L49
 4220              	.LBE2017:
  66:processor.h   ****     {
 4221              		.loc 9 66 38 view .LVU942
 4222 0090 D9F8002E 		ldr	r2, [r9, #3584]
  66:processor.h   ****     {
 4223              		.loc 9 66 33 view .LVU943
 4224 0094 D4ED007A 		vldr.32	s15, [r4]
  66:processor.h   ****     {
 4225              		.loc 9 66 35 view .LVU944
 4226 0098 07EE102A 		vmov	s14, r2	@ int
  58:processor.h   ****     if (playback_ready_[index])
 4227              		.loc 9 58 11 view .LVU945
 4228 009c 9FED788A 		vldr.32	s16, .L74+12
  66:processor.h   ****     {
 4229              		.loc 9 66 35 view .LVU946
 4230 00a0 B8EE476A 		vcvt.f32.u32	s12, s14
 4231              	.LVL190:
  66:processor.h   ****     {
 4232              		.loc 9 66 5 view .LVU947
 4233 00a4 F4EEC67A 		vcmpe.f32	s15, s12
 4234 00a8 F1EE10FA 		vmrs	APSR_nzcv, FPSCR
 4235 00ac 80F2CC80 		bge	.L72
 4236              	.L51:
  70:processor.h   ****     return output;
 4237              		.loc 9 70 16 view .LVU948
 4238 00b0 B0EE480A 		vmov.f32	s0, s16
 4239 00b4 7348     		ldr	r0, .L74+16
 4240 00b6 FFF7FEFF 		bl	_ZN7daisysp7DcBlock7ProcessEf
 4241              	.LVL191:
  70:processor.h   ****     return output;
 4242              		.loc 9 70 16 view .LVU949
ARM GAS  /var/folders/hl/qgbwny5j0fd895c2c41bk3tw0000gp/T//ccEG44Zu.s 			page 117


 4243              	.LBE2016:
 4244              	.LBE2015:
 4245              		.loc 17 54 11 view .LVU950
 4246 00ba DDED077A 		vldr.32	s15, [sp, #28]
  55:Interesting.cpp **** 			if(proc.Freeze())
 4247              		.loc 17 55 4 view .LVU951
 4248 00be 99F8143E 		ldrb	r3, [r9, #3604]	@ zero_extendqisi2
  54:Interesting.cpp **** 			if(proc.Freeze())
 4249              		.loc 17 54 11 view .LVU952
 4250 00c2 38EE278A 		vadd.f32	s16, s16, s15
 4251 00c6 8DED078A 		vstr.32	s16, [sp, #28]
 4252              		.loc 17 55 4 is_stmt 1 view .LVU953
 4253              	.LVL192:
 4254              	.LBB2045:
 4255              	.LBI2045:
 4256              		.loc 9 175 6 view .LVU954
 4257              		.loc 9 175 6 is_stmt 0 view .LVU955
 4258              	.LBE2045:
 4259              		.loc 17 55 4 view .LVU956
 4260 00ca 2BBB     		cbnz	r3, .L55
 4261              	.L60:
  52:Interesting.cpp **** 		{
 4262              		.loc 17 52 3 is_stmt 1 view .LVU957
 4263 00cc 0AF1010A 		add	r10, r10, #1
 4264              	.LVL193:
  52:Interesting.cpp **** 		{
 4265              		.loc 17 52 24 view .LVU958
 4266 00d0 05F53B35 		add	r5, r5, #191488
 4267 00d4 3837     		adds	r7, r7, #56
 4268 00d6 0434     		adds	r4, r4, #4
 4269 00d8 BAF1040F 		cmp	r10, #4
 4270 00dc 05F50075 		add	r5, r5, #512
 4271 00e0 D2D1     		bne	.L57
 4272              	.LBE2057:
  56:Interesting.cpp **** 			{
  57:Interesting.cpp **** 				proc.FreezePlayback(i);
  58:Interesting.cpp **** 			}
  59:Interesting.cpp **** 		}
  60:Interesting.cpp **** 		effects.Process(&output, &output, 1);
 4273              		.loc 17 60 3 view .LVU959
 4274              	.LVL194:
 4275              	.LBB2058:
 4276              	.LBI2058:
  23:effects_handling.h ****     }
  24:effects_handling.h **** 
  25:effects_handling.h ****     void Init(float sample_rate)
  26:effects_handling.h ****     {
  27:effects_handling.h ****         clouds_reverb.Init(reverb_buffer);
  28:effects_handling.h ****         enabled_ = false;
  29:effects_handling.h ****     }
  30:effects_handling.h **** 
  31:effects_handling.h ****     void Process(float* left, float* right, size_t size)
 4277              		.loc 11 31 10 view .LVU960
 4278              	.LBB2059:
  32:effects_handling.h ****     {
  33:effects_handling.h ****         if(enabled_ == true) { clouds_reverb.Process(left, right, size); }
 4279              		.loc 11 33 9 view .LVU961
ARM GAS  /var/folders/hl/qgbwny5j0fd895c2c41bk3tw0000gp/T//ccEG44Zu.s 			page 118


 4280 00e2 694B     		ldr	r3, .L74+20
 4281 00e4 93F84430 		ldrb	r3, [r3, #68]	@ zero_extendqisi2
 4282 00e8 002B     		cmp	r3, #0
 4283 00ea 40F0B980 		bne	.L73
 4284              	.L62:
 4285              	.LVL195:
 4286              		.loc 11 33 9 is_stmt 0 view .LVU962
 4287              	.LBE2059:
 4288              	.LBE2058:
  61:Interesting.cpp **** 
  62:Interesting.cpp **** 		OUT_L[i] = output;
 4289              		.loc 17 62 3 is_stmt 1 view .LVU963
 4290              		.loc 17 62 12 is_stmt 0 view .LVU964
 4291 00ee 049B     		ldr	r3, [sp, #16]
 4292 00f0 0298     		ldr	r0, [sp, #8]
 4293              	.LBE2006:
  46:Interesting.cpp **** 	{
 4294              		.loc 17 46 2 view .LVU965
 4295 00f2 0199     		ldr	r1, [sp, #4]
 4296              	.LBB2065:
  63:Interesting.cpp **** 		OUT_R[i] = output;
 4297              		.loc 17 63 12 view .LVU966
 4298 00f4 D3E90023 		ldrd	r2, r3, [r3]
 4299              	.LBE2065:
  46:Interesting.cpp **** 	{
 4300              		.loc 17 46 2 view .LVU967
 4301 00f8 0131     		adds	r1, r1, #1
 4302              	.LBB2066:
 4303              		.loc 17 63 12 view .LVU968
 4304 00fa 0344     		add	r3, r3, r0
  62:Interesting.cpp **** 		OUT_R[i] = output;
 4305              		.loc 17 62 12 view .LVU969
 4306 00fc 0244     		add	r2, r2, r0
 4307              	.LBE2066:
  46:Interesting.cpp **** 	{
 4308              		.loc 17 46 2 view .LVU970
 4309 00fe 0191     		str	r1, [sp, #4]
 4310              	.LVL196:
 4311              	.LBB2067:
  62:Interesting.cpp **** 		OUT_R[i] = output;
 4312              		.loc 17 62 12 view .LVU971
 4313 0100 82ED008A 		vstr.32	s16, [r2]
 4314              		.loc 17 63 3 is_stmt 1 view .LVU972
 4315              		.loc 17 63 12 is_stmt 0 view .LVU973
 4316 0104 83ED008A 		vstr.32	s16, [r3]
 4317              	.LBE2067:
  46:Interesting.cpp **** 	{
 4318              		.loc 17 46 2 is_stmt 1 view .LVU974
 4319              	.LVL197:
  46:Interesting.cpp **** 	{
 4320              		.loc 17 46 23 view .LVU975
 4321 0108 059B     		ldr	r3, [sp, #20]
 4322 010a 8B42     		cmp	r3, r1
 4323 010c 92D1     		bne	.L48
 4324              	.LVL198:
 4325              	.L47:
  46:Interesting.cpp **** 	{
ARM GAS  /var/folders/hl/qgbwny5j0fd895c2c41bk3tw0000gp/T//ccEG44Zu.s 			page 119


 4326              		.loc 17 46 23 is_stmt 0 view .LVU976
 4327              	.LBE2005:
  64:Interesting.cpp **** 	}
  65:Interesting.cpp **** }
 4328              		.loc 17 65 1 view .LVU977
 4329 010e 09B0     		add	sp, sp, #36
 4330              		.cfi_remember_state
 4331              		.cfi_def_cfa_offset 44
 4332              		@ sp needed
 4333 0110 BDEC028B 		vldm	sp!, {d8}
 4334              		.cfi_restore 80
 4335              		.cfi_restore 81
 4336              		.cfi_def_cfa_offset 36
 4337 0114 BDE8F08F 		pop	{r4, r5, r6, r7, r8, r9, r10, fp, pc}
 4338              	.LVL199:
 4339              	.L55:
 4340              		.cfi_restore_state
 4341              	.LBB2069:
 4342              	.LBB2068:
 4343              	.LBB2062:
  57:Interesting.cpp **** 			}
 4344              		.loc 17 57 5 is_stmt 1 view .LVU978
 4345              	.LBB2046:
 4346              	.LBI2046:
 158:processor.h   **** {
 4347              		.loc 9 158 6 view .LVU979
 4348              	.LBB2047:
 162:processor.h   ****     for (size_t i = 0; i < 4; i++)
 4349              		.loc 9 162 50 is_stmt 0 view .LVU980
 4350 0118 09F61863 		addw	r3, r9, #3608
 161:processor.h   ****     size_t loopEnd = playback_position_[index] + window_;
 4351              		.loc 9 161 48 view .LVU981
 4352 011c D4ED007A 		vldr.32	s15, [r4]
 162:processor.h   ****     for (size_t i = 0; i < 4; i++)
 4353              		.loc 9 162 48 view .LVU982
 4354 0120 93ED007A 		vldr.32	s14, [r3]
 161:processor.h   ****     size_t loopEnd = playback_position_[index] + window_;
 4355              		.loc 9 161 12 view .LVU983
 4356 0124 FCEEE76A 		vcvt.u32.f32	s13, s15
 4357              	.LVL200:
 4358              	.LBB2048:
 163:processor.h   ****     {
 4359              		.loc 9 163 26 is_stmt 1 view .LVU984
 165:processor.h   ****     }
 4360              		.loc 9 165 34 is_stmt 0 view .LVU985
 4361 0128 584B     		ldr	r3, .L74+24
 4362              	.LBE2048:
 162:processor.h   ****     for (size_t i = 0; i < 4; i++)
 4363              		.loc 9 162 48 view .LVU986
 4364 012a 77EE877A 		vadd.f32	s15, s15, s14
 4365              	.LVL201:
 162:processor.h   ****     for (size_t i = 0; i < 4; i++)
 4366              		.loc 9 162 12 view .LVU987
 4367 012e FCEEE77A 		vcvt.u32.f32	s15, s15
 4368              	.LBB2049:
 165:processor.h   ****     }
 4369              		.loc 9 165 34 view .LVU988
ARM GAS  /var/folders/hl/qgbwny5j0fd895c2c41bk3tw0000gp/T//ccEG44Zu.s 			page 120


 4370 0132 F8EE677A 		vcvt.f32.u32	s15, s15
 4371              	.LVL202:
 4372              	.L61:
 163:processor.h   ****     {
 4373              		.loc 9 163 5 is_stmt 1 view .LVU989
 163:processor.h   ****     {
 4374              		.loc 9 163 26 view .LVU990
 165:processor.h   ****     }
 4375              		.loc 9 165 32 is_stmt 0 view .LVU991
 4376 0136 B3EC017A 		vldmia.32	r3!, {s14}
 165:processor.h   ****     }
 4377              		.loc 9 165 9 view .LVU992
 4378 013a B4EEE77A 		vcmpe.f32	s14, s15
 4379 013e F1EE10FA 		vmrs	APSR_nzcv, FPSCR
 4380 0142 03DB     		blt	.L58
 165:processor.h   ****     }
 4381              		.loc 9 165 70 view .LVU993
 4382 0144 B8EE667A 		vcvt.f32.u32	s14, s13
 4383 0148 03ED017A 		vstr.32	s14, [r3, #-4]
 4384              	.L58:
 163:processor.h   ****     {
 4385              		.loc 9 163 26 view .LVU994
 4386 014c 4A4A     		ldr	r2, .L74+4
 4387 014e 9342     		cmp	r3, r2
 4388 0150 F1D1     		bne	.L61
 4389 0152 BBE7     		b	.L60
 4390              	.LVL203:
 4391              	.L49:
 163:processor.h   ****     {
 4392              		.loc 9 163 26 view .LVU995
 4393              	.LBE2049:
 4394              	.LBE2047:
 4395              	.LBE2046:
 4396              	.LBB2050:
 4397              	.LBB2044:
 4398              	.LBB2038:
 4399              	.LBB2018:
 4400              	.LBB2019:
 4401              	.LBI2019:
 4402              		.file 19 "../../DaisySP//Source/Control/adenv.h"
   1:../../DaisySP//Source/Control/adenv.h **** #pragma once
   2:../../DaisySP//Source/Control/adenv.h **** #ifndef ADENV_H
   3:../../DaisySP//Source/Control/adenv.h **** #define ADENV_H
   4:../../DaisySP//Source/Control/adenv.h **** #include <stdint.h>
   5:../../DaisySP//Source/Control/adenv.h **** #ifdef __cplusplus
   6:../../DaisySP//Source/Control/adenv.h **** 
   7:../../DaisySP//Source/Control/adenv.h **** namespace daisysp
   8:../../DaisySP//Source/Control/adenv.h **** {
   9:../../DaisySP//Source/Control/adenv.h **** /** Distinct stages that the phase of the envelope can be located in.
  10:../../DaisySP//Source/Control/adenv.h ****     @see AdEnv
  11:../../DaisySP//Source/Control/adenv.h **** */
  12:../../DaisySP//Source/Control/adenv.h **** enum AdEnvSegment
  13:../../DaisySP//Source/Control/adenv.h **** {
  14:../../DaisySP//Source/Control/adenv.h ****     /** located at phase location 0, and not currently running */
  15:../../DaisySP//Source/Control/adenv.h ****     ADENV_SEG_IDLE,
  16:../../DaisySP//Source/Control/adenv.h ****     /** First segment of envelope where phase moves from MIN value to MAX value */
  17:../../DaisySP//Source/Control/adenv.h ****     ADENV_SEG_ATTACK,
ARM GAS  /var/folders/hl/qgbwny5j0fd895c2c41bk3tw0000gp/T//ccEG44Zu.s 			page 121


  18:../../DaisySP//Source/Control/adenv.h ****     /** Second segment of envelope where phase moves from MAX to MIN value */
  19:../../DaisySP//Source/Control/adenv.h ****     ADENV_SEG_DECAY,
  20:../../DaisySP//Source/Control/adenv.h ****     /** The final segment of the envelope (currently decay) */
  21:../../DaisySP//Source/Control/adenv.h ****     ADENV_SEG_LAST,
  22:../../DaisySP//Source/Control/adenv.h **** };
  23:../../DaisySP//Source/Control/adenv.h **** 
  24:../../DaisySP//Source/Control/adenv.h **** /** Trigger-able envelope with adjustable min/max, and independent per-segment time control.
  25:../../DaisySP//Source/Control/adenv.h **** 
  26:../../DaisySP//Source/Control/adenv.h ****     \author shensley
  27:../../DaisySP//Source/Control/adenv.h ****     \todo - Add Cycling
  28:../../DaisySP//Source/Control/adenv.h ****     \todo - Implement Curve (its only linear for now).
  29:../../DaisySP//Source/Control/adenv.h ****     \todo - Maybe make this an ADsr_ that has AD/AR/Asr_ modes.
  30:../../DaisySP//Source/Control/adenv.h ****  */
  31:../../DaisySP//Source/Control/adenv.h **** class AdEnv
  32:../../DaisySP//Source/Control/adenv.h **** {
  33:../../DaisySP//Source/Control/adenv.h ****   public:
  34:../../DaisySP//Source/Control/adenv.h ****     AdEnv() {}
  35:../../DaisySP//Source/Control/adenv.h ****     ~AdEnv() {}
  36:../../DaisySP//Source/Control/adenv.h ****     /** Initializes the ad envelope.
  37:../../DaisySP//Source/Control/adenv.h **** 
  38:../../DaisySP//Source/Control/adenv.h ****         Defaults:
  39:../../DaisySP//Source/Control/adenv.h ****             - current segment = idle
  40:../../DaisySP//Source/Control/adenv.h ****             - curve = linear
  41:../../DaisySP//Source/Control/adenv.h ****             - phase = 0
  42:../../DaisySP//Source/Control/adenv.h ****             - min = 0
  43:../../DaisySP//Source/Control/adenv.h ****             - max = 1
  44:../../DaisySP//Source/Control/adenv.h **** 
  45:../../DaisySP//Source/Control/adenv.h ****         \param sample_rate      sample rate of the audio engine being run
  46:../../DaisySP//Source/Control/adenv.h ****     */
  47:../../DaisySP//Source/Control/adenv.h ****     void Init(float sample_rate);
  48:../../DaisySP//Source/Control/adenv.h **** 
  49:../../DaisySP//Source/Control/adenv.h ****     /** Processes the current sample of the envelope. This should be called once
  50:../../DaisySP//Source/Control/adenv.h ****         per sample period.
  51:../../DaisySP//Source/Control/adenv.h ****         \return the current envelope value.
  52:../../DaisySP//Source/Control/adenv.h ****     */
  53:../../DaisySP//Source/Control/adenv.h ****     float Process();
  54:../../DaisySP//Source/Control/adenv.h **** 
  55:../../DaisySP//Source/Control/adenv.h ****     /** Starts or retriggers the envelope.*/
  56:../../DaisySP//Source/Control/adenv.h ****     inline void Trigger() { trigger_ = 1; }
 4403              		.loc 19 56 17 is_stmt 1 view .LVU996
 4404              	.LBB2020:
 4405              		.loc 19 56 29 view .LVU997
 4406              		.loc 19 56 38 is_stmt 0 view .LVU998
 4407 0154 0123     		movs	r3, #1
 4408              	.LBE2020:
 4409              	.LBE2019:
  62:processor.h   ****         output += readHermite(playback_position_[index], index) * envelope_factor;
 4410              		.loc 9 62 52 view .LVU999
 4411 0156 3846     		mov	r0, r7
  63:processor.h   ****         playback_position_[index] += playback_speed_[index] * floor(static_cast<float>(buffer_size_
 4412              		.loc 9 63 16 view .LVU1000
 4413 0158 9FED498A 		vldr.32	s16, .L74+12
 4414              	.LBB2022:
 4415              	.LBB2021:
 4416              		.loc 19 56 38 view .LVU1001
 4417 015c 87F83430 		strb	r3, [r7, #52]
 4418              	.LVL204:
ARM GAS  /var/folders/hl/qgbwny5j0fd895c2c41bk3tw0000gp/T//ccEG44Zu.s 			page 122


 4419              		.loc 19 56 38 view .LVU1002
 4420              	.LBE2021:
 4421              	.LBE2022:
  62:processor.h   ****         output += readHermite(playback_position_[index], index) * envelope_factor;
 4422              		.loc 9 62 52 view .LVU1003
 4423 0160 FFF7FEFF 		bl	_ZN7daisysp5AdEnv7ProcessEv
 4424              	.LVL205:
  63:processor.h   ****         playback_position_[index] += playback_speed_[index] * floor(static_cast<float>(buffer_size_
 4425              		.loc 9 63 30 view .LVU1004
 4426 0164 D4ED007A 		vldr.32	s15, [r4]
 4427              	.LVL206:
 4428              	.LBB2023:
 4429              	.LBI2023:
 128:processor.h   **** {
 4430              		.loc 9 128 14 is_stmt 1 view .LVU1005
 4431              	.LBB2024:
 133:processor.h   ****     const float x0 = playback_buffer_[bufferIndex][(t) % buffer_size_];
 4432              		.loc 9 133 63 is_stmt 0 view .LVU1006
 4433 0168 D9F8002E 		ldr	r2, [r9, #3584]
 134:processor.h   ****     const float x1 = playback_buffer_[bufferIndex][(t + 1) % buffer_size_];
 4434              		.loc 9 134 17 view .LVU1007
 4435 016c 4BF6883E 		movw	lr, #48008
 130:processor.h   ****     const float f = position - static_cast<float>(t);
 4436              		.loc 9 130 19 view .LVU1008
 4437 0170 BDEEE77A 		vcvt.s32.f32	s14, s15
 4438              	.LBE2024:
 4439              	.LBE2023:
  64:processor.h   ****     }
 4440              		.loc 9 64 35 view .LVU1009
 4441 0174 14ED043A 		vldr.32	s6, [r4, #-16]
 4442              	.LBB2030:
 4443              	.LBB2025:
 140:processor.h   ****     const float a = w + v + (x2 - x0) * 0.5f;
 4444              		.loc 9 140 17 view .LVU1010
 4445 0178 B6EE004A 		vmov.f32	s8, #5.0e-1
 130:processor.h   ****     const float f = position - static_cast<float>(t);
 4446              		.loc 9 130 19 view .LVU1011
 4447 017c 17EE103A 		vmov	r3, s14	@ int
 4448              	.LVL207:
 131:processor.h   **** 
 4449              		.loc 9 131 32 view .LVU1012
 4450 0180 B8EEC75A 		vcvt.f32.s32	s10, s14
 4451              	.LBE2025:
 4452              	.LBE2030:
  64:processor.h   ****     }
 4453              		.loc 9 64 69 view .LVU1013
 4454 0184 07EE102A 		vmov	s14, r2	@ int
 4455              	.LBB2031:
 4456              	.LBB2026:
 135:processor.h   ****     const float x2 = playback_buffer_[bufferIndex][(t + 2) % buffer_size_];
 4457              		.loc 9 135 55 view .LVU1014
 4458 0188 03F1010C 		add	ip, r3, #1
 133:processor.h   ****     const float x0 = playback_buffer_[bufferIndex][(t) % buffer_size_];
 4459              		.loc 9 133 56 view .LVU1015
 4460 018c 581E     		subs	r0, r3, #1
 136:processor.h   **** 
 4461              		.loc 9 136 55 view .LVU1016
ARM GAS  /var/folders/hl/qgbwny5j0fd895c2c41bk3tw0000gp/T//ccEG44Zu.s 			page 123


 4462 018e 991C     		adds	r1, r3, #2
 4463              	.LBE2026:
 4464              	.LBE2031:
  64:processor.h   ****     }
 4465              		.loc 9 64 69 view .LVU1017
 4466 0190 B8EE476A 		vcvt.f32.u32	s12, s14
 4467              	.LBB2032:
 4468              	.LBB2027:
 131:processor.h   **** 
 4469              		.loc 9 131 17 view .LVU1018
 4470 0194 37EEC55A 		vsub.f32	s10, s15, s10
 4471              	.LVL208:
 134:processor.h   ****     const float x1 = playback_buffer_[bufferIndex][(t + 1) % buffer_size_];
 4472              		.loc 9 134 56 view .LVU1019
 4473 0198 B3FBF2FB 		udiv	fp, r3, r2
 4474 019c 02FB1B3B 		mls	fp, r2, fp, r3
 135:processor.h   ****     const float x2 = playback_buffer_[bufferIndex][(t + 2) % buffer_size_];
 4475              		.loc 9 135 60 view .LVU1020
 4476 01a0 BCFBF2F3 		udiv	r3, ip, r2
 4477              	.LVL209:
 135:processor.h   ****     const float x2 = playback_buffer_[bufferIndex][(t + 2) % buffer_size_];
 4478              		.loc 9 135 60 view .LVU1021
 4479 01a4 02FB13CC 		mls	ip, r2, r3, ip
 133:processor.h   ****     const float x0 = playback_buffer_[bufferIndex][(t) % buffer_size_];
 4480              		.loc 9 133 61 view .LVU1022
 4481 01a8 B0FBF2F3 		udiv	r3, r0, r2
 4482 01ac 02FB1300 		mls	r0, r2, r3, r0
 134:processor.h   ****     const float x1 = playback_buffer_[bufferIndex][(t + 1) % buffer_size_];
 4483              		.loc 9 134 17 view .LVU1023
 4484 01b0 4BF68033 		movw	r3, #48000
 4485 01b4 03FB0AF3 		mul	r3, r3, r10
 4486 01b8 9B44     		add	fp, fp, r3
 135:processor.h   ****     const float x2 = playback_buffer_[bufferIndex][(t + 2) % buffer_size_];
 4487              		.loc 9 135 17 view .LVU1024
 4488 01ba 9C44     		add	ip, ip, r3
 133:processor.h   ****     const float x0 = playback_buffer_[bufferIndex][(t) % buffer_size_];
 4489              		.loc 9 133 17 view .LVU1025
 4490 01bc 1844     		add	r0, r0, r3
 134:processor.h   ****     const float x1 = playback_buffer_[bufferIndex][(t + 1) % buffer_size_];
 4491              		.loc 9 134 17 view .LVU1026
 4492 01be F344     		add	fp, fp, lr
 135:processor.h   ****     const float x2 = playback_buffer_[bufferIndex][(t + 2) % buffer_size_];
 4493              		.loc 9 135 17 view .LVU1027
 4494 01c0 F444     		add	ip, ip, lr
 133:processor.h   ****     const float x0 = playback_buffer_[bufferIndex][(t) % buffer_size_];
 4495              		.loc 9 133 17 view .LVU1028
 4496 01c2 7044     		add	r0, r0, lr
 134:processor.h   ****     const float x1 = playback_buffer_[bufferIndex][(t + 1) % buffer_size_];
 4497              		.loc 9 134 17 view .LVU1029
 4498 01c4 08EB8B0B 		add	fp, r8, fp, lsl #2
 133:processor.h   ****     const float x0 = playback_buffer_[bufferIndex][(t) % buffer_size_];
 4499              		.loc 9 133 17 view .LVU1030
 4500 01c8 08EB8000 		add	r0, r8, r0, lsl #2
 135:processor.h   ****     const float x2 = playback_buffer_[bufferIndex][(t + 2) % buffer_size_];
 4501              		.loc 9 135 17 view .LVU1031
 4502 01cc 08EB8C0C 		add	ip, r8, ip, lsl #2
 134:processor.h   ****     const float x1 = playback_buffer_[bufferIndex][(t + 1) % buffer_size_];
ARM GAS  /var/folders/hl/qgbwny5j0fd895c2c41bk3tw0000gp/T//ccEG44Zu.s 			page 124


 4503              		.loc 9 134 17 view .LVU1032
 4504 01d0 DBED005A 		vldr.32	s11, [fp]
 4505              	.LVL210:
 138:processor.h   ****     const float v = x0 - x1;
 4506              		.loc 9 138 25 view .LVU1033
 4507 01d4 90ED007A 		vldr.32	s14, [r0]
 135:processor.h   ****     const float x2 = playback_buffer_[bufferIndex][(t + 2) % buffer_size_];
 4508              		.loc 9 135 17 view .LVU1034
 4509 01d8 DCED004A 		vldr.32	s9, [ip]
 4510              	.LVL211:
 136:processor.h   **** 
 4511              		.loc 9 136 60 view .LVU1035
 4512 01dc B1FBF2F0 		udiv	r0, r1, r2
 139:processor.h   ****     const float w = c + v;
 4513              		.loc 9 139 17 view .LVU1036
 4514 01e0 75EEE46A 		vsub.f32	s13, s11, s9
 136:processor.h   **** 
 4515              		.loc 9 136 60 view .LVU1037
 4516 01e4 02FB1011 		mls	r1, r2, r0, r1
 4517              	.LVL212:
 138:processor.h   ****     const float v = x0 - x1;
 4518              		.loc 9 138 25 view .LVU1038
 4519 01e8 74EEC74A 		vsub.f32	s9, s9, s14
 4520              	.LVL213:
 136:processor.h   **** 
 4521              		.loc 9 136 17 view .LVU1039
 4522 01ec 0B44     		add	r3, r3, r1
 140:processor.h   ****     const float a = w + v + (x2 - x0) * 0.5f;
 4523              		.loc 9 140 17 view .LVU1040
 4524 01ee B0EE667A 		vmov.f32	s14, s13
 136:processor.h   **** 
 4525              		.loc 9 136 17 view .LVU1041
 4526 01f2 7344     		add	r3, r3, lr
 140:processor.h   ****     const float a = w + v + (x2 - x0) * 0.5f;
 4527              		.loc 9 140 17 view .LVU1042
 4528 01f4 A4EE847A 		vfma.f32	s14, s9, s8
 136:processor.h   **** 
 4529              		.loc 9 136 17 view .LVU1043
 4530 01f8 08EB8303 		add	r3, r8, r3, lsl #2
 4531 01fc D3ED003A 		vldr.32	s7, [r3]
 4532              	.LVL214:
 136:processor.h   **** 
 4533              		.loc 9 136 17 view .LVU1044
 4534              	.LBE2027:
 4535              	.LBE2032:
  64:processor.h   ****     }
 4536              		.loc 9 64 104 view .LVU1045
 4537 0200 09F60863 		addw	r3, r9, #3592
 4538              	.LBB2033:
 4539              	.LBB2028:
 141:processor.h   ****     const float b_neg = w + a;
 4540              		.loc 9 141 33 view .LVU1046
 4541 0204 73EEE53A 		vsub.f32	s7, s7, s11
 4542              	.LVL215:
 141:processor.h   ****     const float b_neg = w + a;
 4543              		.loc 9 141 23 view .LVU1047
 4544 0208 76EE876A 		vadd.f32	s13, s13, s14
ARM GAS  /var/folders/hl/qgbwny5j0fd895c2c41bk3tw0000gp/T//ccEG44Zu.s 			page 125


 4545              	.LVL216:
 141:processor.h   ****     const float b_neg = w + a;
 4546              		.loc 9 141 17 view .LVU1048
 4547 020c E3EE846A 		vfma.f32	s13, s7, s8
 4548              	.LVL217:
 142:processor.h   **** 
 4549              		.loc 9 142 17 view .LVU1049
 4550 0210 37EE267A 		vadd.f32	s14, s14, s13
 4551              	.LVL218:
 144:processor.h   **** }
 4552              		.loc 9 144 22 view .LVU1050
 4553 0214 95EE267A 		vfnms.f32	s14, s10, s13
 4554              	.LVL219:
 144:processor.h   **** }
 4555              		.loc 9 144 22 view .LVU1051
 4556              	.LBE2028:
 4557              	.LBE2033:
  64:processor.h   ****     }
 4558              		.loc 9 64 68 view .LVU1052
 4559 0218 D3ED006A 		vldr.32	s13, [r3]
 4560              	.LVL220:
 4561              	.LBB2034:
 4562              	.LBB2029:
 144:processor.h   **** }
 4563              		.loc 9 144 31 view .LVU1053
 4564 021c 25EE077A 		vmul.f32	s14, s10, s14
 144:processor.h   **** }
 4565              		.loc 9 144 35 view .LVU1054
 4566 0220 A4EE847A 		vfma.f32	s14, s9, s8
 144:processor.h   **** }
 4567              		.loc 9 144 46 view .LVU1055
 4568 0224 E5EE075A 		vfma.f32	s11, s10, s14
 4569              	.LVL221:
 144:processor.h   **** }
 4570              		.loc 9 144 46 view .LVU1056
 4571              	.LBE2029:
 4572              	.LBE2034:
  64:processor.h   ****     }
 4573              		.loc 9 64 68 view .LVU1057
 4574 0228 86EE267A 		vdiv.f32	s14, s12, s13
  63:processor.h   ****         playback_position_[index] += playback_speed_[index] * floor(static_cast<float>(buffer_size_
 4575              		.loc 9 63 16 view .LVU1058
 4576 022c A0EE258A 		vfma.f32	s16, s0, s11
 4577              	.LVL222:
 4578              	.LBB2035:
 4579              	.LBI2035:
 4580              		.file 20 "/Library/DaisyToolchain/0.2.0/arm/arm-none-eabi/include/c++/10.3.1/cmath"
   1:/Library/DaisyToolchain/0.2.0/arm/arm-none-eabi/include/c++/10.3.1/cmath **** // -*- C++ -*- C forwarding header.
   2:/Library/DaisyToolchain/0.2.0/arm/arm-none-eabi/include/c++/10.3.1/cmath **** 
   3:/Library/DaisyToolchain/0.2.0/arm/arm-none-eabi/include/c++/10.3.1/cmath **** // Copyright (C) 1997-2020 Free Software Foundation, Inc.
   4:/Library/DaisyToolchain/0.2.0/arm/arm-none-eabi/include/c++/10.3.1/cmath **** //
   5:/Library/DaisyToolchain/0.2.0/arm/arm-none-eabi/include/c++/10.3.1/cmath **** // This file is part of the GNU ISO C++ Library.  This library is free
   6:/Library/DaisyToolchain/0.2.0/arm/arm-none-eabi/include/c++/10.3.1/cmath **** // software; you can redistribute it and/or modify it under the
   7:/Library/DaisyToolchain/0.2.0/arm/arm-none-eabi/include/c++/10.3.1/cmath **** // terms of the GNU General Public License as published by the
   8:/Library/DaisyToolchain/0.2.0/arm/arm-none-eabi/include/c++/10.3.1/cmath **** // Free Software Foundation; either version 3, or (at your option)
   9:/Library/DaisyToolchain/0.2.0/arm/arm-none-eabi/include/c++/10.3.1/cmath **** // any later version.
  10:/Library/DaisyToolchain/0.2.0/arm/arm-none-eabi/include/c++/10.3.1/cmath **** 
ARM GAS  /var/folders/hl/qgbwny5j0fd895c2c41bk3tw0000gp/T//ccEG44Zu.s 			page 126


  11:/Library/DaisyToolchain/0.2.0/arm/arm-none-eabi/include/c++/10.3.1/cmath **** // This library is distributed in the hope that it will be useful,
  12:/Library/DaisyToolchain/0.2.0/arm/arm-none-eabi/include/c++/10.3.1/cmath **** // but WITHOUT ANY WARRANTY; without even the implied warranty of
  13:/Library/DaisyToolchain/0.2.0/arm/arm-none-eabi/include/c++/10.3.1/cmath **** // MERCHANTABILITY or FITNESS FOR A PARTICULAR PURPOSE.  See the
  14:/Library/DaisyToolchain/0.2.0/arm/arm-none-eabi/include/c++/10.3.1/cmath **** // GNU General Public License for more details.
  15:/Library/DaisyToolchain/0.2.0/arm/arm-none-eabi/include/c++/10.3.1/cmath **** 
  16:/Library/DaisyToolchain/0.2.0/arm/arm-none-eabi/include/c++/10.3.1/cmath **** // Under Section 7 of GPL version 3, you are granted additional
  17:/Library/DaisyToolchain/0.2.0/arm/arm-none-eabi/include/c++/10.3.1/cmath **** // permissions described in the GCC Runtime Library Exception, version
  18:/Library/DaisyToolchain/0.2.0/arm/arm-none-eabi/include/c++/10.3.1/cmath **** // 3.1, as published by the Free Software Foundation.
  19:/Library/DaisyToolchain/0.2.0/arm/arm-none-eabi/include/c++/10.3.1/cmath **** 
  20:/Library/DaisyToolchain/0.2.0/arm/arm-none-eabi/include/c++/10.3.1/cmath **** // You should have received a copy of the GNU General Public License and
  21:/Library/DaisyToolchain/0.2.0/arm/arm-none-eabi/include/c++/10.3.1/cmath **** // a copy of the GCC Runtime Library Exception along with this program;
  22:/Library/DaisyToolchain/0.2.0/arm/arm-none-eabi/include/c++/10.3.1/cmath **** // see the files COPYING3 and COPYING.RUNTIME respectively.  If not, see
  23:/Library/DaisyToolchain/0.2.0/arm/arm-none-eabi/include/c++/10.3.1/cmath **** // <http://www.gnu.org/licenses/>.
  24:/Library/DaisyToolchain/0.2.0/arm/arm-none-eabi/include/c++/10.3.1/cmath **** 
  25:/Library/DaisyToolchain/0.2.0/arm/arm-none-eabi/include/c++/10.3.1/cmath **** /** @file include/cmath
  26:/Library/DaisyToolchain/0.2.0/arm/arm-none-eabi/include/c++/10.3.1/cmath ****  *  This is a Standard C++ Library file.  You should @c \#include this file
  27:/Library/DaisyToolchain/0.2.0/arm/arm-none-eabi/include/c++/10.3.1/cmath ****  *  in your programs, rather than any of the @a *.h implementation files.
  28:/Library/DaisyToolchain/0.2.0/arm/arm-none-eabi/include/c++/10.3.1/cmath ****  *
  29:/Library/DaisyToolchain/0.2.0/arm/arm-none-eabi/include/c++/10.3.1/cmath ****  *  This is the C++ version of the Standard C Library header @c math.h,
  30:/Library/DaisyToolchain/0.2.0/arm/arm-none-eabi/include/c++/10.3.1/cmath ****  *  and its contents are (mostly) the same as that header, but are all
  31:/Library/DaisyToolchain/0.2.0/arm/arm-none-eabi/include/c++/10.3.1/cmath ****  *  contained in the namespace @c std (except for names which are defined
  32:/Library/DaisyToolchain/0.2.0/arm/arm-none-eabi/include/c++/10.3.1/cmath ****  *  as macros in C).
  33:/Library/DaisyToolchain/0.2.0/arm/arm-none-eabi/include/c++/10.3.1/cmath ****  */
  34:/Library/DaisyToolchain/0.2.0/arm/arm-none-eabi/include/c++/10.3.1/cmath **** 
  35:/Library/DaisyToolchain/0.2.0/arm/arm-none-eabi/include/c++/10.3.1/cmath **** //
  36:/Library/DaisyToolchain/0.2.0/arm/arm-none-eabi/include/c++/10.3.1/cmath **** // ISO C++ 14882: 26.5  C library
  37:/Library/DaisyToolchain/0.2.0/arm/arm-none-eabi/include/c++/10.3.1/cmath **** //
  38:/Library/DaisyToolchain/0.2.0/arm/arm-none-eabi/include/c++/10.3.1/cmath **** 
  39:/Library/DaisyToolchain/0.2.0/arm/arm-none-eabi/include/c++/10.3.1/cmath **** #pragma GCC system_header
  40:/Library/DaisyToolchain/0.2.0/arm/arm-none-eabi/include/c++/10.3.1/cmath **** 
  41:/Library/DaisyToolchain/0.2.0/arm/arm-none-eabi/include/c++/10.3.1/cmath **** #include <bits/c++config.h>
  42:/Library/DaisyToolchain/0.2.0/arm/arm-none-eabi/include/c++/10.3.1/cmath **** #include <bits/cpp_type_traits.h>
  43:/Library/DaisyToolchain/0.2.0/arm/arm-none-eabi/include/c++/10.3.1/cmath **** #include <ext/type_traits.h>
  44:/Library/DaisyToolchain/0.2.0/arm/arm-none-eabi/include/c++/10.3.1/cmath **** #define _GLIBCXX_INCLUDE_NEXT_C_HEADERS
  45:/Library/DaisyToolchain/0.2.0/arm/arm-none-eabi/include/c++/10.3.1/cmath **** #include_next <math.h>
  46:/Library/DaisyToolchain/0.2.0/arm/arm-none-eabi/include/c++/10.3.1/cmath **** #undef _GLIBCXX_INCLUDE_NEXT_C_HEADERS
  47:/Library/DaisyToolchain/0.2.0/arm/arm-none-eabi/include/c++/10.3.1/cmath **** #include <bits/std_abs.h>
  48:/Library/DaisyToolchain/0.2.0/arm/arm-none-eabi/include/c++/10.3.1/cmath **** 
  49:/Library/DaisyToolchain/0.2.0/arm/arm-none-eabi/include/c++/10.3.1/cmath **** #ifndef _GLIBCXX_CMATH
  50:/Library/DaisyToolchain/0.2.0/arm/arm-none-eabi/include/c++/10.3.1/cmath **** #define _GLIBCXX_CMATH 1
  51:/Library/DaisyToolchain/0.2.0/arm/arm-none-eabi/include/c++/10.3.1/cmath **** 
  52:/Library/DaisyToolchain/0.2.0/arm/arm-none-eabi/include/c++/10.3.1/cmath **** // Get rid of those macros defined in <math.h> in lieu of real functions.
  53:/Library/DaisyToolchain/0.2.0/arm/arm-none-eabi/include/c++/10.3.1/cmath **** #undef div
  54:/Library/DaisyToolchain/0.2.0/arm/arm-none-eabi/include/c++/10.3.1/cmath **** #undef acos
  55:/Library/DaisyToolchain/0.2.0/arm/arm-none-eabi/include/c++/10.3.1/cmath **** #undef asin
  56:/Library/DaisyToolchain/0.2.0/arm/arm-none-eabi/include/c++/10.3.1/cmath **** #undef atan
  57:/Library/DaisyToolchain/0.2.0/arm/arm-none-eabi/include/c++/10.3.1/cmath **** #undef atan2
  58:/Library/DaisyToolchain/0.2.0/arm/arm-none-eabi/include/c++/10.3.1/cmath **** #undef ceil
  59:/Library/DaisyToolchain/0.2.0/arm/arm-none-eabi/include/c++/10.3.1/cmath **** #undef cos
  60:/Library/DaisyToolchain/0.2.0/arm/arm-none-eabi/include/c++/10.3.1/cmath **** #undef cosh
  61:/Library/DaisyToolchain/0.2.0/arm/arm-none-eabi/include/c++/10.3.1/cmath **** #undef exp
  62:/Library/DaisyToolchain/0.2.0/arm/arm-none-eabi/include/c++/10.3.1/cmath **** #undef fabs
  63:/Library/DaisyToolchain/0.2.0/arm/arm-none-eabi/include/c++/10.3.1/cmath **** #undef floor
  64:/Library/DaisyToolchain/0.2.0/arm/arm-none-eabi/include/c++/10.3.1/cmath **** #undef fmod
  65:/Library/DaisyToolchain/0.2.0/arm/arm-none-eabi/include/c++/10.3.1/cmath **** #undef frexp
  66:/Library/DaisyToolchain/0.2.0/arm/arm-none-eabi/include/c++/10.3.1/cmath **** #undef ldexp
  67:/Library/DaisyToolchain/0.2.0/arm/arm-none-eabi/include/c++/10.3.1/cmath **** #undef log
ARM GAS  /var/folders/hl/qgbwny5j0fd895c2c41bk3tw0000gp/T//ccEG44Zu.s 			page 127


  68:/Library/DaisyToolchain/0.2.0/arm/arm-none-eabi/include/c++/10.3.1/cmath **** #undef log10
  69:/Library/DaisyToolchain/0.2.0/arm/arm-none-eabi/include/c++/10.3.1/cmath **** #undef modf
  70:/Library/DaisyToolchain/0.2.0/arm/arm-none-eabi/include/c++/10.3.1/cmath **** #undef pow
  71:/Library/DaisyToolchain/0.2.0/arm/arm-none-eabi/include/c++/10.3.1/cmath **** #undef sin
  72:/Library/DaisyToolchain/0.2.0/arm/arm-none-eabi/include/c++/10.3.1/cmath **** #undef sinh
  73:/Library/DaisyToolchain/0.2.0/arm/arm-none-eabi/include/c++/10.3.1/cmath **** #undef sqrt
  74:/Library/DaisyToolchain/0.2.0/arm/arm-none-eabi/include/c++/10.3.1/cmath **** #undef tan
  75:/Library/DaisyToolchain/0.2.0/arm/arm-none-eabi/include/c++/10.3.1/cmath **** #undef tanh
  76:/Library/DaisyToolchain/0.2.0/arm/arm-none-eabi/include/c++/10.3.1/cmath **** 
  77:/Library/DaisyToolchain/0.2.0/arm/arm-none-eabi/include/c++/10.3.1/cmath **** extern "C++"
  78:/Library/DaisyToolchain/0.2.0/arm/arm-none-eabi/include/c++/10.3.1/cmath **** {
  79:/Library/DaisyToolchain/0.2.0/arm/arm-none-eabi/include/c++/10.3.1/cmath **** namespace std _GLIBCXX_VISIBILITY(default)
  80:/Library/DaisyToolchain/0.2.0/arm/arm-none-eabi/include/c++/10.3.1/cmath **** {
  81:/Library/DaisyToolchain/0.2.0/arm/arm-none-eabi/include/c++/10.3.1/cmath **** _GLIBCXX_BEGIN_NAMESPACE_VERSION
  82:/Library/DaisyToolchain/0.2.0/arm/arm-none-eabi/include/c++/10.3.1/cmath **** 
  83:/Library/DaisyToolchain/0.2.0/arm/arm-none-eabi/include/c++/10.3.1/cmath ****   using ::acos;
  84:/Library/DaisyToolchain/0.2.0/arm/arm-none-eabi/include/c++/10.3.1/cmath **** 
  85:/Library/DaisyToolchain/0.2.0/arm/arm-none-eabi/include/c++/10.3.1/cmath **** #ifndef __CORRECT_ISO_CPP_MATH_H_PROTO
  86:/Library/DaisyToolchain/0.2.0/arm/arm-none-eabi/include/c++/10.3.1/cmath ****   inline _GLIBCXX_CONSTEXPR float
  87:/Library/DaisyToolchain/0.2.0/arm/arm-none-eabi/include/c++/10.3.1/cmath ****   acos(float __x)
  88:/Library/DaisyToolchain/0.2.0/arm/arm-none-eabi/include/c++/10.3.1/cmath ****   { return __builtin_acosf(__x); }
  89:/Library/DaisyToolchain/0.2.0/arm/arm-none-eabi/include/c++/10.3.1/cmath **** 
  90:/Library/DaisyToolchain/0.2.0/arm/arm-none-eabi/include/c++/10.3.1/cmath ****   inline _GLIBCXX_CONSTEXPR long double
  91:/Library/DaisyToolchain/0.2.0/arm/arm-none-eabi/include/c++/10.3.1/cmath ****   acos(long double __x)
  92:/Library/DaisyToolchain/0.2.0/arm/arm-none-eabi/include/c++/10.3.1/cmath ****   { return __builtin_acosl(__x); }
  93:/Library/DaisyToolchain/0.2.0/arm/arm-none-eabi/include/c++/10.3.1/cmath **** #endif
  94:/Library/DaisyToolchain/0.2.0/arm/arm-none-eabi/include/c++/10.3.1/cmath **** 
  95:/Library/DaisyToolchain/0.2.0/arm/arm-none-eabi/include/c++/10.3.1/cmath ****   template<typename _Tp>
  96:/Library/DaisyToolchain/0.2.0/arm/arm-none-eabi/include/c++/10.3.1/cmath ****     inline _GLIBCXX_CONSTEXPR
  97:/Library/DaisyToolchain/0.2.0/arm/arm-none-eabi/include/c++/10.3.1/cmath ****     typename __gnu_cxx::__enable_if<__is_integer<_Tp>::__value, 
  98:/Library/DaisyToolchain/0.2.0/arm/arm-none-eabi/include/c++/10.3.1/cmath ****                                     double>::__type
  99:/Library/DaisyToolchain/0.2.0/arm/arm-none-eabi/include/c++/10.3.1/cmath ****     acos(_Tp __x)
 100:/Library/DaisyToolchain/0.2.0/arm/arm-none-eabi/include/c++/10.3.1/cmath ****     { return __builtin_acos(__x); }
 101:/Library/DaisyToolchain/0.2.0/arm/arm-none-eabi/include/c++/10.3.1/cmath **** 
 102:/Library/DaisyToolchain/0.2.0/arm/arm-none-eabi/include/c++/10.3.1/cmath ****   using ::asin;
 103:/Library/DaisyToolchain/0.2.0/arm/arm-none-eabi/include/c++/10.3.1/cmath **** 
 104:/Library/DaisyToolchain/0.2.0/arm/arm-none-eabi/include/c++/10.3.1/cmath **** #ifndef __CORRECT_ISO_CPP_MATH_H_PROTO
 105:/Library/DaisyToolchain/0.2.0/arm/arm-none-eabi/include/c++/10.3.1/cmath ****   inline _GLIBCXX_CONSTEXPR float
 106:/Library/DaisyToolchain/0.2.0/arm/arm-none-eabi/include/c++/10.3.1/cmath ****   asin(float __x)
 107:/Library/DaisyToolchain/0.2.0/arm/arm-none-eabi/include/c++/10.3.1/cmath ****   { return __builtin_asinf(__x); }
 108:/Library/DaisyToolchain/0.2.0/arm/arm-none-eabi/include/c++/10.3.1/cmath **** 
 109:/Library/DaisyToolchain/0.2.0/arm/arm-none-eabi/include/c++/10.3.1/cmath ****   inline _GLIBCXX_CONSTEXPR long double
 110:/Library/DaisyToolchain/0.2.0/arm/arm-none-eabi/include/c++/10.3.1/cmath ****   asin(long double __x)
 111:/Library/DaisyToolchain/0.2.0/arm/arm-none-eabi/include/c++/10.3.1/cmath ****   { return __builtin_asinl(__x); }
 112:/Library/DaisyToolchain/0.2.0/arm/arm-none-eabi/include/c++/10.3.1/cmath **** #endif
 113:/Library/DaisyToolchain/0.2.0/arm/arm-none-eabi/include/c++/10.3.1/cmath **** 
 114:/Library/DaisyToolchain/0.2.0/arm/arm-none-eabi/include/c++/10.3.1/cmath ****   template<typename _Tp>
 115:/Library/DaisyToolchain/0.2.0/arm/arm-none-eabi/include/c++/10.3.1/cmath ****     inline _GLIBCXX_CONSTEXPR
 116:/Library/DaisyToolchain/0.2.0/arm/arm-none-eabi/include/c++/10.3.1/cmath ****     typename __gnu_cxx::__enable_if<__is_integer<_Tp>::__value,
 117:/Library/DaisyToolchain/0.2.0/arm/arm-none-eabi/include/c++/10.3.1/cmath ****                                     double>::__type
 118:/Library/DaisyToolchain/0.2.0/arm/arm-none-eabi/include/c++/10.3.1/cmath ****     asin(_Tp __x)
 119:/Library/DaisyToolchain/0.2.0/arm/arm-none-eabi/include/c++/10.3.1/cmath ****     { return __builtin_asin(__x); }
 120:/Library/DaisyToolchain/0.2.0/arm/arm-none-eabi/include/c++/10.3.1/cmath **** 
 121:/Library/DaisyToolchain/0.2.0/arm/arm-none-eabi/include/c++/10.3.1/cmath ****   using ::atan;
 122:/Library/DaisyToolchain/0.2.0/arm/arm-none-eabi/include/c++/10.3.1/cmath **** 
 123:/Library/DaisyToolchain/0.2.0/arm/arm-none-eabi/include/c++/10.3.1/cmath **** #ifndef __CORRECT_ISO_CPP_MATH_H_PROTO
 124:/Library/DaisyToolchain/0.2.0/arm/arm-none-eabi/include/c++/10.3.1/cmath ****   inline _GLIBCXX_CONSTEXPR float
ARM GAS  /var/folders/hl/qgbwny5j0fd895c2c41bk3tw0000gp/T//ccEG44Zu.s 			page 128


 125:/Library/DaisyToolchain/0.2.0/arm/arm-none-eabi/include/c++/10.3.1/cmath ****   atan(float __x)
 126:/Library/DaisyToolchain/0.2.0/arm/arm-none-eabi/include/c++/10.3.1/cmath ****   { return __builtin_atanf(__x); }
 127:/Library/DaisyToolchain/0.2.0/arm/arm-none-eabi/include/c++/10.3.1/cmath **** 
 128:/Library/DaisyToolchain/0.2.0/arm/arm-none-eabi/include/c++/10.3.1/cmath ****   inline _GLIBCXX_CONSTEXPR long double
 129:/Library/DaisyToolchain/0.2.0/arm/arm-none-eabi/include/c++/10.3.1/cmath ****   atan(long double __x)
 130:/Library/DaisyToolchain/0.2.0/arm/arm-none-eabi/include/c++/10.3.1/cmath ****   { return __builtin_atanl(__x); }
 131:/Library/DaisyToolchain/0.2.0/arm/arm-none-eabi/include/c++/10.3.1/cmath **** #endif
 132:/Library/DaisyToolchain/0.2.0/arm/arm-none-eabi/include/c++/10.3.1/cmath **** 
 133:/Library/DaisyToolchain/0.2.0/arm/arm-none-eabi/include/c++/10.3.1/cmath ****   template<typename _Tp>
 134:/Library/DaisyToolchain/0.2.0/arm/arm-none-eabi/include/c++/10.3.1/cmath ****     inline _GLIBCXX_CONSTEXPR
 135:/Library/DaisyToolchain/0.2.0/arm/arm-none-eabi/include/c++/10.3.1/cmath ****     typename __gnu_cxx::__enable_if<__is_integer<_Tp>::__value,
 136:/Library/DaisyToolchain/0.2.0/arm/arm-none-eabi/include/c++/10.3.1/cmath ****                                     double>::__type
 137:/Library/DaisyToolchain/0.2.0/arm/arm-none-eabi/include/c++/10.3.1/cmath ****     atan(_Tp __x)
 138:/Library/DaisyToolchain/0.2.0/arm/arm-none-eabi/include/c++/10.3.1/cmath ****     { return __builtin_atan(__x); }
 139:/Library/DaisyToolchain/0.2.0/arm/arm-none-eabi/include/c++/10.3.1/cmath **** 
 140:/Library/DaisyToolchain/0.2.0/arm/arm-none-eabi/include/c++/10.3.1/cmath ****   using ::atan2;
 141:/Library/DaisyToolchain/0.2.0/arm/arm-none-eabi/include/c++/10.3.1/cmath **** 
 142:/Library/DaisyToolchain/0.2.0/arm/arm-none-eabi/include/c++/10.3.1/cmath **** #ifndef __CORRECT_ISO_CPP_MATH_H_PROTO
 143:/Library/DaisyToolchain/0.2.0/arm/arm-none-eabi/include/c++/10.3.1/cmath ****   inline _GLIBCXX_CONSTEXPR float
 144:/Library/DaisyToolchain/0.2.0/arm/arm-none-eabi/include/c++/10.3.1/cmath ****   atan2(float __y, float __x)
 145:/Library/DaisyToolchain/0.2.0/arm/arm-none-eabi/include/c++/10.3.1/cmath ****   { return __builtin_atan2f(__y, __x); }
 146:/Library/DaisyToolchain/0.2.0/arm/arm-none-eabi/include/c++/10.3.1/cmath **** 
 147:/Library/DaisyToolchain/0.2.0/arm/arm-none-eabi/include/c++/10.3.1/cmath ****   inline _GLIBCXX_CONSTEXPR long double
 148:/Library/DaisyToolchain/0.2.0/arm/arm-none-eabi/include/c++/10.3.1/cmath ****   atan2(long double __y, long double __x)
 149:/Library/DaisyToolchain/0.2.0/arm/arm-none-eabi/include/c++/10.3.1/cmath ****   { return __builtin_atan2l(__y, __x); }
 150:/Library/DaisyToolchain/0.2.0/arm/arm-none-eabi/include/c++/10.3.1/cmath **** #endif
 151:/Library/DaisyToolchain/0.2.0/arm/arm-none-eabi/include/c++/10.3.1/cmath **** 
 152:/Library/DaisyToolchain/0.2.0/arm/arm-none-eabi/include/c++/10.3.1/cmath ****   template<typename _Tp, typename _Up>
 153:/Library/DaisyToolchain/0.2.0/arm/arm-none-eabi/include/c++/10.3.1/cmath ****     inline _GLIBCXX_CONSTEXPR
 154:/Library/DaisyToolchain/0.2.0/arm/arm-none-eabi/include/c++/10.3.1/cmath ****     typename __gnu_cxx::__promote_2<_Tp, _Up>::__type
 155:/Library/DaisyToolchain/0.2.0/arm/arm-none-eabi/include/c++/10.3.1/cmath ****     atan2(_Tp __y, _Up __x)
 156:/Library/DaisyToolchain/0.2.0/arm/arm-none-eabi/include/c++/10.3.1/cmath ****     {
 157:/Library/DaisyToolchain/0.2.0/arm/arm-none-eabi/include/c++/10.3.1/cmath ****       typedef typename __gnu_cxx::__promote_2<_Tp, _Up>::__type __type;
 158:/Library/DaisyToolchain/0.2.0/arm/arm-none-eabi/include/c++/10.3.1/cmath ****       return atan2(__type(__y), __type(__x));
 159:/Library/DaisyToolchain/0.2.0/arm/arm-none-eabi/include/c++/10.3.1/cmath ****     }
 160:/Library/DaisyToolchain/0.2.0/arm/arm-none-eabi/include/c++/10.3.1/cmath **** 
 161:/Library/DaisyToolchain/0.2.0/arm/arm-none-eabi/include/c++/10.3.1/cmath ****   using ::ceil;
 162:/Library/DaisyToolchain/0.2.0/arm/arm-none-eabi/include/c++/10.3.1/cmath **** 
 163:/Library/DaisyToolchain/0.2.0/arm/arm-none-eabi/include/c++/10.3.1/cmath **** #ifndef __CORRECT_ISO_CPP_MATH_H_PROTO
 164:/Library/DaisyToolchain/0.2.0/arm/arm-none-eabi/include/c++/10.3.1/cmath ****   inline _GLIBCXX_CONSTEXPR float
 165:/Library/DaisyToolchain/0.2.0/arm/arm-none-eabi/include/c++/10.3.1/cmath ****   ceil(float __x)
 166:/Library/DaisyToolchain/0.2.0/arm/arm-none-eabi/include/c++/10.3.1/cmath ****   { return __builtin_ceilf(__x); }
 167:/Library/DaisyToolchain/0.2.0/arm/arm-none-eabi/include/c++/10.3.1/cmath **** 
 168:/Library/DaisyToolchain/0.2.0/arm/arm-none-eabi/include/c++/10.3.1/cmath ****   inline _GLIBCXX_CONSTEXPR long double
 169:/Library/DaisyToolchain/0.2.0/arm/arm-none-eabi/include/c++/10.3.1/cmath ****   ceil(long double __x)
 170:/Library/DaisyToolchain/0.2.0/arm/arm-none-eabi/include/c++/10.3.1/cmath ****   { return __builtin_ceill(__x); }
 171:/Library/DaisyToolchain/0.2.0/arm/arm-none-eabi/include/c++/10.3.1/cmath **** #endif
 172:/Library/DaisyToolchain/0.2.0/arm/arm-none-eabi/include/c++/10.3.1/cmath **** 
 173:/Library/DaisyToolchain/0.2.0/arm/arm-none-eabi/include/c++/10.3.1/cmath ****   template<typename _Tp>
 174:/Library/DaisyToolchain/0.2.0/arm/arm-none-eabi/include/c++/10.3.1/cmath ****     inline _GLIBCXX_CONSTEXPR
 175:/Library/DaisyToolchain/0.2.0/arm/arm-none-eabi/include/c++/10.3.1/cmath ****     typename __gnu_cxx::__enable_if<__is_integer<_Tp>::__value, 
 176:/Library/DaisyToolchain/0.2.0/arm/arm-none-eabi/include/c++/10.3.1/cmath ****                                     double>::__type
 177:/Library/DaisyToolchain/0.2.0/arm/arm-none-eabi/include/c++/10.3.1/cmath ****     ceil(_Tp __x)
 178:/Library/DaisyToolchain/0.2.0/arm/arm-none-eabi/include/c++/10.3.1/cmath ****     { return __builtin_ceil(__x); }
 179:/Library/DaisyToolchain/0.2.0/arm/arm-none-eabi/include/c++/10.3.1/cmath **** 
 180:/Library/DaisyToolchain/0.2.0/arm/arm-none-eabi/include/c++/10.3.1/cmath ****   using ::cos;
 181:/Library/DaisyToolchain/0.2.0/arm/arm-none-eabi/include/c++/10.3.1/cmath **** 
ARM GAS  /var/folders/hl/qgbwny5j0fd895c2c41bk3tw0000gp/T//ccEG44Zu.s 			page 129


 182:/Library/DaisyToolchain/0.2.0/arm/arm-none-eabi/include/c++/10.3.1/cmath **** #ifndef __CORRECT_ISO_CPP_MATH_H_PROTO
 183:/Library/DaisyToolchain/0.2.0/arm/arm-none-eabi/include/c++/10.3.1/cmath ****   inline _GLIBCXX_CONSTEXPR float
 184:/Library/DaisyToolchain/0.2.0/arm/arm-none-eabi/include/c++/10.3.1/cmath ****   cos(float __x)
 185:/Library/DaisyToolchain/0.2.0/arm/arm-none-eabi/include/c++/10.3.1/cmath ****   { return __builtin_cosf(__x); }
 186:/Library/DaisyToolchain/0.2.0/arm/arm-none-eabi/include/c++/10.3.1/cmath **** 
 187:/Library/DaisyToolchain/0.2.0/arm/arm-none-eabi/include/c++/10.3.1/cmath ****   inline _GLIBCXX_CONSTEXPR long double
 188:/Library/DaisyToolchain/0.2.0/arm/arm-none-eabi/include/c++/10.3.1/cmath ****   cos(long double __x)
 189:/Library/DaisyToolchain/0.2.0/arm/arm-none-eabi/include/c++/10.3.1/cmath ****   { return __builtin_cosl(__x); }
 190:/Library/DaisyToolchain/0.2.0/arm/arm-none-eabi/include/c++/10.3.1/cmath **** #endif
 191:/Library/DaisyToolchain/0.2.0/arm/arm-none-eabi/include/c++/10.3.1/cmath **** 
 192:/Library/DaisyToolchain/0.2.0/arm/arm-none-eabi/include/c++/10.3.1/cmath ****   template<typename _Tp>
 193:/Library/DaisyToolchain/0.2.0/arm/arm-none-eabi/include/c++/10.3.1/cmath ****     inline _GLIBCXX_CONSTEXPR
 194:/Library/DaisyToolchain/0.2.0/arm/arm-none-eabi/include/c++/10.3.1/cmath ****     typename __gnu_cxx::__enable_if<__is_integer<_Tp>::__value,
 195:/Library/DaisyToolchain/0.2.0/arm/arm-none-eabi/include/c++/10.3.1/cmath ****                                     double>::__type
 196:/Library/DaisyToolchain/0.2.0/arm/arm-none-eabi/include/c++/10.3.1/cmath ****     cos(_Tp __x)
 197:/Library/DaisyToolchain/0.2.0/arm/arm-none-eabi/include/c++/10.3.1/cmath ****     { return __builtin_cos(__x); }
 198:/Library/DaisyToolchain/0.2.0/arm/arm-none-eabi/include/c++/10.3.1/cmath **** 
 199:/Library/DaisyToolchain/0.2.0/arm/arm-none-eabi/include/c++/10.3.1/cmath ****   using ::cosh;
 200:/Library/DaisyToolchain/0.2.0/arm/arm-none-eabi/include/c++/10.3.1/cmath **** 
 201:/Library/DaisyToolchain/0.2.0/arm/arm-none-eabi/include/c++/10.3.1/cmath **** #ifndef __CORRECT_ISO_CPP_MATH_H_PROTO
 202:/Library/DaisyToolchain/0.2.0/arm/arm-none-eabi/include/c++/10.3.1/cmath ****   inline _GLIBCXX_CONSTEXPR float
 203:/Library/DaisyToolchain/0.2.0/arm/arm-none-eabi/include/c++/10.3.1/cmath ****   cosh(float __x)
 204:/Library/DaisyToolchain/0.2.0/arm/arm-none-eabi/include/c++/10.3.1/cmath ****   { return __builtin_coshf(__x); }
 205:/Library/DaisyToolchain/0.2.0/arm/arm-none-eabi/include/c++/10.3.1/cmath **** 
 206:/Library/DaisyToolchain/0.2.0/arm/arm-none-eabi/include/c++/10.3.1/cmath ****   inline _GLIBCXX_CONSTEXPR long double
 207:/Library/DaisyToolchain/0.2.0/arm/arm-none-eabi/include/c++/10.3.1/cmath ****   cosh(long double __x)
 208:/Library/DaisyToolchain/0.2.0/arm/arm-none-eabi/include/c++/10.3.1/cmath ****   { return __builtin_coshl(__x); }
 209:/Library/DaisyToolchain/0.2.0/arm/arm-none-eabi/include/c++/10.3.1/cmath **** #endif
 210:/Library/DaisyToolchain/0.2.0/arm/arm-none-eabi/include/c++/10.3.1/cmath **** 
 211:/Library/DaisyToolchain/0.2.0/arm/arm-none-eabi/include/c++/10.3.1/cmath ****   template<typename _Tp>
 212:/Library/DaisyToolchain/0.2.0/arm/arm-none-eabi/include/c++/10.3.1/cmath ****     inline _GLIBCXX_CONSTEXPR
 213:/Library/DaisyToolchain/0.2.0/arm/arm-none-eabi/include/c++/10.3.1/cmath ****     typename __gnu_cxx::__enable_if<__is_integer<_Tp>::__value,
 214:/Library/DaisyToolchain/0.2.0/arm/arm-none-eabi/include/c++/10.3.1/cmath ****                                     double>::__type
 215:/Library/DaisyToolchain/0.2.0/arm/arm-none-eabi/include/c++/10.3.1/cmath ****     cosh(_Tp __x)
 216:/Library/DaisyToolchain/0.2.0/arm/arm-none-eabi/include/c++/10.3.1/cmath ****     { return __builtin_cosh(__x); }
 217:/Library/DaisyToolchain/0.2.0/arm/arm-none-eabi/include/c++/10.3.1/cmath **** 
 218:/Library/DaisyToolchain/0.2.0/arm/arm-none-eabi/include/c++/10.3.1/cmath ****   using ::exp;
 219:/Library/DaisyToolchain/0.2.0/arm/arm-none-eabi/include/c++/10.3.1/cmath **** 
 220:/Library/DaisyToolchain/0.2.0/arm/arm-none-eabi/include/c++/10.3.1/cmath **** #ifndef __CORRECT_ISO_CPP_MATH_H_PROTO
 221:/Library/DaisyToolchain/0.2.0/arm/arm-none-eabi/include/c++/10.3.1/cmath ****   inline _GLIBCXX_CONSTEXPR float
 222:/Library/DaisyToolchain/0.2.0/arm/arm-none-eabi/include/c++/10.3.1/cmath ****   exp(float __x)
 223:/Library/DaisyToolchain/0.2.0/arm/arm-none-eabi/include/c++/10.3.1/cmath ****   { return __builtin_expf(__x); }
 224:/Library/DaisyToolchain/0.2.0/arm/arm-none-eabi/include/c++/10.3.1/cmath **** 
 225:/Library/DaisyToolchain/0.2.0/arm/arm-none-eabi/include/c++/10.3.1/cmath ****   inline _GLIBCXX_CONSTEXPR long double
 226:/Library/DaisyToolchain/0.2.0/arm/arm-none-eabi/include/c++/10.3.1/cmath ****   exp(long double __x)
 227:/Library/DaisyToolchain/0.2.0/arm/arm-none-eabi/include/c++/10.3.1/cmath ****   { return __builtin_expl(__x); }
 228:/Library/DaisyToolchain/0.2.0/arm/arm-none-eabi/include/c++/10.3.1/cmath **** #endif
 229:/Library/DaisyToolchain/0.2.0/arm/arm-none-eabi/include/c++/10.3.1/cmath **** 
 230:/Library/DaisyToolchain/0.2.0/arm/arm-none-eabi/include/c++/10.3.1/cmath ****   template<typename _Tp>
 231:/Library/DaisyToolchain/0.2.0/arm/arm-none-eabi/include/c++/10.3.1/cmath ****     inline _GLIBCXX_CONSTEXPR
 232:/Library/DaisyToolchain/0.2.0/arm/arm-none-eabi/include/c++/10.3.1/cmath ****     typename __gnu_cxx::__enable_if<__is_integer<_Tp>::__value,
 233:/Library/DaisyToolchain/0.2.0/arm/arm-none-eabi/include/c++/10.3.1/cmath ****                                     double>::__type
 234:/Library/DaisyToolchain/0.2.0/arm/arm-none-eabi/include/c++/10.3.1/cmath ****     exp(_Tp __x)
 235:/Library/DaisyToolchain/0.2.0/arm/arm-none-eabi/include/c++/10.3.1/cmath ****     { return __builtin_exp(__x); }
 236:/Library/DaisyToolchain/0.2.0/arm/arm-none-eabi/include/c++/10.3.1/cmath **** 
 237:/Library/DaisyToolchain/0.2.0/arm/arm-none-eabi/include/c++/10.3.1/cmath ****   using ::fabs;
 238:/Library/DaisyToolchain/0.2.0/arm/arm-none-eabi/include/c++/10.3.1/cmath **** 
ARM GAS  /var/folders/hl/qgbwny5j0fd895c2c41bk3tw0000gp/T//ccEG44Zu.s 			page 130


 239:/Library/DaisyToolchain/0.2.0/arm/arm-none-eabi/include/c++/10.3.1/cmath **** #ifndef __CORRECT_ISO_CPP_MATH_H_PROTO
 240:/Library/DaisyToolchain/0.2.0/arm/arm-none-eabi/include/c++/10.3.1/cmath ****   inline _GLIBCXX_CONSTEXPR float
 241:/Library/DaisyToolchain/0.2.0/arm/arm-none-eabi/include/c++/10.3.1/cmath ****   fabs(float __x)
 242:/Library/DaisyToolchain/0.2.0/arm/arm-none-eabi/include/c++/10.3.1/cmath ****   { return __builtin_fabsf(__x); }
 243:/Library/DaisyToolchain/0.2.0/arm/arm-none-eabi/include/c++/10.3.1/cmath **** 
 244:/Library/DaisyToolchain/0.2.0/arm/arm-none-eabi/include/c++/10.3.1/cmath ****   inline _GLIBCXX_CONSTEXPR long double
 245:/Library/DaisyToolchain/0.2.0/arm/arm-none-eabi/include/c++/10.3.1/cmath ****   fabs(long double __x)
 246:/Library/DaisyToolchain/0.2.0/arm/arm-none-eabi/include/c++/10.3.1/cmath ****   { return __builtin_fabsl(__x); }
 247:/Library/DaisyToolchain/0.2.0/arm/arm-none-eabi/include/c++/10.3.1/cmath **** #endif
 248:/Library/DaisyToolchain/0.2.0/arm/arm-none-eabi/include/c++/10.3.1/cmath **** 
 249:/Library/DaisyToolchain/0.2.0/arm/arm-none-eabi/include/c++/10.3.1/cmath ****   template<typename _Tp>
 250:/Library/DaisyToolchain/0.2.0/arm/arm-none-eabi/include/c++/10.3.1/cmath ****     inline _GLIBCXX_CONSTEXPR
 251:/Library/DaisyToolchain/0.2.0/arm/arm-none-eabi/include/c++/10.3.1/cmath ****     typename __gnu_cxx::__enable_if<__is_integer<_Tp>::__value,
 252:/Library/DaisyToolchain/0.2.0/arm/arm-none-eabi/include/c++/10.3.1/cmath ****                                     double>::__type
 253:/Library/DaisyToolchain/0.2.0/arm/arm-none-eabi/include/c++/10.3.1/cmath ****     fabs(_Tp __x)
 254:/Library/DaisyToolchain/0.2.0/arm/arm-none-eabi/include/c++/10.3.1/cmath ****     { return __builtin_fabs(__x); }
 255:/Library/DaisyToolchain/0.2.0/arm/arm-none-eabi/include/c++/10.3.1/cmath **** 
 256:/Library/DaisyToolchain/0.2.0/arm/arm-none-eabi/include/c++/10.3.1/cmath ****   using ::floor;
 257:/Library/DaisyToolchain/0.2.0/arm/arm-none-eabi/include/c++/10.3.1/cmath **** 
 258:/Library/DaisyToolchain/0.2.0/arm/arm-none-eabi/include/c++/10.3.1/cmath **** #ifndef __CORRECT_ISO_CPP_MATH_H_PROTO
 259:/Library/DaisyToolchain/0.2.0/arm/arm-none-eabi/include/c++/10.3.1/cmath ****   inline _GLIBCXX_CONSTEXPR float
 260:/Library/DaisyToolchain/0.2.0/arm/arm-none-eabi/include/c++/10.3.1/cmath ****   floor(float __x)
 4581              		.loc 20 260 3 is_stmt 1 view .LVU1059
 4582              	.LBB2036:
 261:/Library/DaisyToolchain/0.2.0/arm/arm-none-eabi/include/c++/10.3.1/cmath ****   { return __builtin_floorf(__x); }
 4583              		.loc 20 261 5 view .LVU1060
 4584              		.loc 20 261 28 is_stmt 0 view .LVU1061
 4585 0230 BBFE477A 		vrintm.f32	s14, s14
 4586              	.LVL223:
 4587              		.loc 20 261 28 view .LVU1062
 4588              	.LBE2036:
 4589              	.LBE2035:
  64:processor.h   ****     }
 4590              		.loc 9 64 35 view .LVU1063
 4591 0234 E3EE077A 		vfma.f32	s15, s6, s14
 4592              	.LBE2018:
 4593              	.LBE2038:
  66:processor.h   ****     {
 4594              		.loc 9 66 5 view .LVU1064
 4595 0238 F4EEC67A 		vcmpe.f32	s15, s12
 4596              	.LBB2039:
 4597              	.LBB2037:
  64:processor.h   ****     }
 4598              		.loc 9 64 35 view .LVU1065
 4599 023c C4ED007A 		vstr.32	s15, [r4]
  64:processor.h   ****     }
 4600              		.loc 9 64 35 view .LVU1066
 4601              	.LBE2037:
 4602              	.LBE2039:
  66:processor.h   ****     {
 4603              		.loc 9 66 5 view .LVU1067
 4604 0240 F1EE10FA 		vmrs	APSR_nzcv, FPSCR
 4605 0244 FFF634AF 		blt	.L51
 4606              	.LVL224:
 4607              	.L72:
 4608              	.LBB2040:
 4609              	.LBI2040:
ARM GAS  /var/folders/hl/qgbwny5j0fd895c2c41bk3tw0000gp/T//ccEG44Zu.s 			page 131


 115:processor.h   **** {
 4610              		.loc 9 115 6 is_stmt 1 view .LVU1068
 4611              	.LBB2041:
 4612              	.LBB2042:
 4613              	.LBI2042:
 108:processor.h   **** {
 4614              		.loc 9 108 6 view .LVU1069
 4615              	.LBB2043:
 110:processor.h   ****         buffer[i] = 0.0f;
 4616              		.loc 9 110 26 view .LVU1070
 4617 0248 22B1     		cbz	r2, .L54
 111:processor.h   ****     }
 4618              		.loc 9 111 19 is_stmt 0 view .LVU1071
 4619 024a 9200     		lsls	r2, r2, #2
 4620 024c 0021     		movs	r1, #0
 4621 024e 2846     		mov	r0, r5
 4622 0250 FFF7FEFF 		bl	memset
 4623              	.LVL225:
 4624              	.L54:
 111:processor.h   ****     }
 4625              		.loc 9 111 19 view .LVU1072
 4626              	.LBE2043:
 4627              	.LBE2042:
 118:processor.h   ****     playback_position_[bufferIndex] = 0;
 4628              		.loc 9 118 34 view .LVU1073
 4629 0254 0023     		movs	r3, #0
 4630 0256 06F8013C 		strb	r3, [r6, #-1]
 119:processor.h   **** }
 4631              		.loc 9 119 37 view .LVU1074
 4632 025a 0023     		movs	r3, #0
 4633 025c 2360     		str	r3, [r4]	@ float
 120:processor.h   **** 
 4634              		.loc 9 120 1 view .LVU1075
 4635 025e 27E7     		b	.L51
 4636              	.LVL226:
 4637              	.L73:
 120:processor.h   **** 
 4638              		.loc 9 120 1 view .LVU1076
 4639              	.LBE2041:
 4640              	.LBE2040:
 4641              	.LBE2044:
 4642              	.LBE2050:
 4643              	.LBE2062:
 4644              	.LBB2063:
 4645              	.LBB2060:
 4646              		.loc 11 33 32 is_stmt 1 view .LVU1077
 4647              		.loc 11 33 53 is_stmt 0 view .LVU1078
 4648 0260 07AA     		add	r2, sp, #28
 4649              	.LVL227:
 4650              		.loc 11 33 53 view .LVU1079
 4651 0262 0123     		movs	r3, #1
 4652 0264 0A48     		ldr	r0, .L74+28
 4653 0266 1146     		mov	r1, r2
 4654 0268 FFF7FEFF 		bl	_ZN5rings6Reverb7ProcessEPfS1_j
 4655              	.LVL228:
 4656              		.loc 11 33 53 view .LVU1080
 4657              	.LBE2060:
ARM GAS  /var/folders/hl/qgbwny5j0fd895c2c41bk3tw0000gp/T//ccEG44Zu.s 			page 132


 4658              	.LBE2063:
  62:Interesting.cpp **** 		OUT_R[i] = output;
 4659              		.loc 17 62 12 view .LVU1081
 4660 026c 9DED078A 		vldr.32	s16, [sp, #28]
 4661              	.LBB2064:
 4662              	.LBB2061:
 4663 0270 3DE7     		b	.L62
 4664              	.L75:
 4665 0272 00BF     		.align	2
 4666              	.L74:
 4667 0274 00000000 		.word	.LANCHOR18
 4668 0278 40A60E00 		.word	proc+960064
 4669 027c 20EE0200 		.word	proc+192032
 4670 0280 00000000 		.word	0
 4671 0284 28A70E00 		.word	proc+960296
 4672 0288 00000200 		.word	effects+131072
 4673 028c 30A60E00 		.word	proc+960048
 4674 0290 00000000 		.word	effects
 4675 0294 00000000 		.word	proc
 4676              	.LBE2061:
 4677              	.LBE2064:
 4678              	.LBE2068:
 4679              	.LBE2069:
 4680              		.cfi_endproc
 4681              	.LFE5245:
 4683              		.section	.text._Z10ModManagerv,"ax",%progbits
 4684              		.align	1
 4685              		.p2align 2,,3
 4686              		.global	_Z10ModManagerv
 4687              		.syntax unified
 4688              		.thumb
 4689              		.thumb_func
 4691              	_Z10ModManagerv:
 4692              	.LFB5247:
  66:Interesting.cpp **** 
  67:Interesting.cpp **** int main(void)
  68:Interesting.cpp **** {
  69:Interesting.cpp **** 	hw.Init();
  70:Interesting.cpp **** 	hw.SetAudioBlockSize(48); // number of samples handled per callback
  71:Interesting.cpp **** 	hw.SetAudioSampleRate(SaiHandle::Config::SampleRate::SAI_48KHZ);
  72:Interesting.cpp **** 	float sample_rate = hw.AudioSampleRate();
  73:Interesting.cpp **** 	
  74:Interesting.cpp **** 	InitBed();
  75:Interesting.cpp **** 	proc.Init(sample_rate);
  76:Interesting.cpp **** 	effects.Init(sample_rate);
  77:Interesting.cpp **** 	
  78:Interesting.cpp **** 	hw.StartAudio(AudioCallback);
  79:Interesting.cpp **** 	while(1) 
  80:Interesting.cpp **** 	{
  81:Interesting.cpp **** 		ModManager();
  82:Interesting.cpp **** 		// used to handle UI for samples
  83:Interesting.cpp **** 		gen_led1.Write(proc.GetState(0));
  84:Interesting.cpp **** 		gen_led2.Write(proc.GetState(1));
  85:Interesting.cpp **** 		cv_led1.Write(proc.GetState(2));
  86:Interesting.cpp **** 		cv_led2.Write(proc.GetState(3));
  87:Interesting.cpp **** 
  88:Interesting.cpp **** 		// handle grain generation
ARM GAS  /var/folders/hl/qgbwny5j0fd895c2c41bk3tw0000gp/T//ccEG44Zu.s 			page 133


  89:Interesting.cpp **** 		if(hw.gate_in_1.Trig())
  90:Interesting.cpp **** 		{
  91:Interesting.cpp **** 			proc.Generate();
  92:Interesting.cpp **** 		}
  93:Interesting.cpp **** 	}
  94:Interesting.cpp **** }
  95:Interesting.cpp **** 
  96:Interesting.cpp **** void ModManager()
  97:Interesting.cpp **** {
 4693              		.loc 17 97 1 is_stmt 1 view -0
 4694              		.cfi_startproc
 4695              		@ args = 0, pretend = 0, frame = 0
 4696              		@ frame_needed = 0, uses_anonymous_args = 0
  98:Interesting.cpp **** 	b1.Debounce();
 4697              		.loc 17 98 2 view .LVU1083
  97:Interesting.cpp **** 	b1.Debounce();
 4698              		.loc 17 97 1 is_stmt 0 view .LVU1084
 4699 0000 70B5     		push	{r4, r5, r6, lr}
 4700              		.cfi_def_cfa_offset 16
 4701              		.cfi_offset 4, -16
 4702              		.cfi_offset 5, -12
 4703              		.cfi_offset 6, -8
 4704              		.cfi_offset 14, -4
 4705              		.loc 17 98 13 view .LVU1085
 4706 0002 434E     		ldr	r6, .L107
  99:Interesting.cpp **** 	b2.Debounce();
 4707              		.loc 17 99 13 view .LVU1086
 4708 0004 434C     		ldr	r4, .L107+4
  98:Interesting.cpp **** 	b1.Debounce();
 4709              		.loc 17 98 13 view .LVU1087
 4710 0006 3046     		mov	r0, r6
 100:Interesting.cpp **** 
 101:Interesting.cpp **** 	// handling setting the mod param
 102:Interesting.cpp **** 	mod = (b2.Pressed() * 0b10) | (b1.Pressed() * 0b01);
 4711              		.loc 17 102 6 view .LVU1088
 4712 0008 434D     		ldr	r5, .L107+8
  98:Interesting.cpp **** 	b2.Debounce();
 4713              		.loc 17 98 13 view .LVU1089
 4714 000a FFF7FEFF 		bl	_ZN5daisy6Switch8DebounceEv
 4715              	.LVL229:
  99:Interesting.cpp **** 	b2.Debounce();
 4716              		.loc 17 99 2 is_stmt 1 view .LVU1090
  99:Interesting.cpp **** 	b2.Debounce();
 4717              		.loc 17 99 13 is_stmt 0 view .LVU1091
 4718 000e 2046     		mov	r0, r4
 4719 0010 FFF7FEFF 		bl	_ZN5daisy6Switch8DebounceEv
 4720              	.LVL230:
 4721              		.loc 17 102 2 is_stmt 1 view .LVU1092
 4722              	.LBB2100:
 4723              	.LBI2100:
  43:../../libDaisy//src/hid/switch.h **** 
  44:../../libDaisy//src/hid/switch.h ****     /** 
  45:../../libDaisy//src/hid/switch.h ****     Initializes the switch object with a given port/pin combo.
  46:../../libDaisy//src/hid/switch.h ****     \param pin port/pin object to tell the switch which hardware pin to use.
  47:../../libDaisy//src/hid/switch.h ****     \param update_rate Does nothing. Backwards compatibility until next breaking update.
  48:../../libDaisy//src/hid/switch.h ****     \param t switch type -- Default: TYPE_MOMENTARY
  49:../../libDaisy//src/hid/switch.h ****     \param pol switch polarity -- Default: POLARITY_INVERTED
ARM GAS  /var/folders/hl/qgbwny5j0fd895c2c41bk3tw0000gp/T//ccEG44Zu.s 			page 134


  50:../../libDaisy//src/hid/switch.h ****     \param pu switch pull up/down -- Default: PULL_UP
  51:../../libDaisy//src/hid/switch.h ****     */
  52:../../libDaisy//src/hid/switch.h ****     void
  53:../../libDaisy//src/hid/switch.h ****     Init(dsy_gpio_pin pin, float update_rate, Type t, Polarity pol, Pull pu);
  54:../../libDaisy//src/hid/switch.h **** 
  55:../../libDaisy//src/hid/switch.h ****     /**
  56:../../libDaisy//src/hid/switch.h ****        Simplified Init.
  57:../../libDaisy//src/hid/switch.h ****        \param pin port/pin object to tell the switch which hardware pin to use.
  58:../../libDaisy//src/hid/switch.h ****        \param update_rate Left for backwards compatibility until next breaking change.
  59:../../libDaisy//src/hid/switch.h ****     */
  60:../../libDaisy//src/hid/switch.h ****     void Init(dsy_gpio_pin pin, float update_rate = 0.f);
  61:../../libDaisy//src/hid/switch.h **** 
  62:../../libDaisy//src/hid/switch.h ****     /** 
  63:../../libDaisy//src/hid/switch.h ****     Called at update_rate to debounce and handle timing for the switch.
  64:../../libDaisy//src/hid/switch.h ****     In order for events not to be missed, its important that the Edge/Pressed checks
  65:../../libDaisy//src/hid/switch.h ****     be made at the same rate as the debounce function is being called.
  66:../../libDaisy//src/hid/switch.h ****     */
  67:../../libDaisy//src/hid/switch.h ****     void Debounce();
  68:../../libDaisy//src/hid/switch.h **** 
  69:../../libDaisy//src/hid/switch.h ****     /** \return true if a button was just pressed. */
  70:../../libDaisy//src/hid/switch.h ****     inline bool RisingEdge() const { return updated_ ? state_ == 0x7f : false; }
  71:../../libDaisy//src/hid/switch.h **** 
  72:../../libDaisy//src/hid/switch.h ****     /** \return true if the button was just released */
  73:../../libDaisy//src/hid/switch.h ****     inline bool FallingEdge() const
  74:../../libDaisy//src/hid/switch.h ****     {
  75:../../libDaisy//src/hid/switch.h ****         return updated_ ? state_ == 0x80 : false;
  76:../../libDaisy//src/hid/switch.h ****     }
  77:../../libDaisy//src/hid/switch.h **** 
  78:../../libDaisy//src/hid/switch.h ****     /** \return true if the button is held down (or if the toggle is on) */
  79:../../libDaisy//src/hid/switch.h ****     inline bool Pressed() const { return state_ == 0xff; }
 4724              		.loc 1 79 17 view .LVU1093
 4725              	.LBB2101:
 4726              		.loc 1 79 35 view .LVU1094
 4727              		.loc 1 79 35 is_stmt 0 view .LVU1095
 4728              	.LBE2101:
 4729              	.LBE2100:
 4730              	.LBB2106:
 4731              	.LBI2106:
 4732              		.loc 1 79 17 is_stmt 1 view .LVU1096
 4733              	.LBB2107:
 4734              		.loc 1 79 35 view .LVU1097
 4735              		.loc 1 79 35 is_stmt 0 view .LVU1098
 4736              	.LBE2107:
 4737              	.LBE2106:
 4738              	.LBB2112:
 4739              	.LBB2102:
 4740              		.loc 1 79 52 view .LVU1099
 4741 0014 A27A     		ldrb	r2, [r4, #10]	@ zero_extendqisi2
 4742              	.LBE2102:
 4743              	.LBE2112:
 4744              	.LBB2113:
 4745              	.LBB2108:
 4746 0016 B37A     		ldrb	r3, [r6, #10]	@ zero_extendqisi2
 4747              	.LBE2108:
 4748              	.LBE2113:
 4749              	.LBB2114:
 4750              	.LBB2103:
ARM GAS  /var/folders/hl/qgbwny5j0fd895c2c41bk3tw0000gp/T//ccEG44Zu.s 			page 135


 4751 0018 A2F1FF02 		sub	r2, #255
 4752              	.LBE2103:
 4753              	.LBE2114:
 103:Interesting.cpp **** 
 104:Interesting.cpp **** 	gate_out_led1.Write(mod & 0b01);
 4754              		.loc 17 104 21 view .LVU1100
 4755 001c 3F48     		ldr	r0, .L107+12
 4756              	.LBB2115:
 4757              	.LBB2109:
 4758              		.loc 1 79 52 view .LVU1101
 4759 001e A3F1FF03 		sub	r3, #255
 4760              	.LBE2109:
 4761              	.LBE2115:
 4762              	.LBB2116:
 4763              	.LBB2104:
 4764 0022 B2FA82F2 		clz	r2, r2
 4765              	.LBE2104:
 4766              	.LBE2116:
 4767              	.LBB2117:
 4768              	.LBB2110:
 4769 0026 B3FA83F3 		clz	r3, r3
 4770              	.LBE2110:
 4771              	.LBE2117:
 4772              	.LBB2118:
 4773              	.LBB2105:
 4774 002a 5209     		lsrs	r2, r2, #5
 4775              	.LBE2105:
 4776              	.LBE2118:
 4777              	.LBB2119:
 4778              	.LBB2111:
 4779 002c 5B09     		lsrs	r3, r3, #5
 4780              	.LBE2111:
 4781              	.LBE2119:
 102:Interesting.cpp **** 
 4782              		.loc 17 102 30 view .LVU1102
 4783 002e 43EA4203 		orr	r3, r3, r2, lsl #1
 4784              		.loc 17 104 21 view .LVU1103
 4785 0032 03F00101 		and	r1, r3, #1
 102:Interesting.cpp **** 
 4786              		.loc 17 102 6 view .LVU1104
 4787 0036 2B60     		str	r3, [r5]
 4788              		.loc 17 104 2 is_stmt 1 view .LVU1105
 4789              		.loc 17 104 21 is_stmt 0 view .LVU1106
 4790 0038 FFF7FEFF 		bl	_ZN5daisy4GPIO5WriteEb
 4791              	.LVL231:
 105:Interesting.cpp **** 	gate_out_led2.Write(mod & 0b10);
 4792              		.loc 17 105 2 is_stmt 1 view .LVU1107
 4793              		.loc 17 105 21 is_stmt 0 view .LVU1108
 4794 003c 2968     		ldr	r1, [r5]
 4795 003e 3848     		ldr	r0, .L107+16
 4796 0040 C1F34001 		ubfx	r1, r1, #1, #1
 4797 0044 FFF7FEFF 		bl	_ZN5daisy4GPIO5WriteEb
 4798              	.LVL232:
 106:Interesting.cpp **** 
 107:Interesting.cpp **** 	// if mod 2, and b1 pressed, toggle forward/reverse
 108:Interesting.cpp **** 	if(mod == 2 && b1.RisingEdge()) {proc.FlipDirection(); }
 4799              		.loc 17 108 2 is_stmt 1 view .LVU1109
ARM GAS  /var/folders/hl/qgbwny5j0fd895c2c41bk3tw0000gp/T//ccEG44Zu.s 			page 136


 4800              		.loc 17 108 9 is_stmt 0 view .LVU1110
 4801 0048 2B68     		ldr	r3, [r5]
 4802              		.loc 17 108 14 view .LVU1111
 4803 004a 022B     		cmp	r3, #2
 4804 004c 45D0     		beq	.L105
 109:Interesting.cpp **** 
 110:Interesting.cpp **** 	// if mod 1 and b2 pressed, toggle reverb
 111:Interesting.cpp **** 	if(mod == 1 && b2.RisingEdge()) { effects.FlipEffects(); }
 4805              		.loc 17 111 2 is_stmt 1 view .LVU1112
 4806              		.loc 17 111 14 is_stmt 0 view .LVU1113
 4807 004e 012B     		cmp	r3, #1
 4808 0050 02D1     		bne	.L104
 4809              	.LVL233:
 4810              	.LBB2120:
 4811              	.LBI2120:
  70:../../libDaisy//src/hid/switch.h **** 
 4812              		.loc 1 70 17 is_stmt 1 view .LVU1114
 4813              	.LBB2121:
  70:../../libDaisy//src/hid/switch.h **** 
 4814              		.loc 1 70 38 view .LVU1115
  70:../../libDaisy//src/hid/switch.h **** 
 4815              		.loc 1 70 54 is_stmt 0 view .LVU1116
 4816 0052 2379     		ldrb	r3, [r4, #4]	@ zero_extendqisi2
 4817 0054 002B     		cmp	r3, #0
 4818 0056 4FD1     		bne	.L101
 4819              	.LVL234:
 4820              	.L104:
  70:../../libDaisy//src/hid/switch.h **** 
 4821              		.loc 1 70 54 view .LVU1117
 4822 0058 324E     		ldr	r6, .L107+20
 4823 005a 334D     		ldr	r5, .L107+24
 4824              	.L78:
 4825              	.LBE2121:
 4826              	.LBE2120:
 112:Interesting.cpp **** 
 113:Interesting.cpp **** 	if(hw.gate_in_2.State()) { proc.SetFreeze(); }
 4827              		.loc 17 113 2 is_stmt 1 view .LVU1118
 4828              	.LVL235:
 4829              	.LBB2122:
 4830              	.LBI2122:
  25:../../libDaisy//src/hid/gatein.h **** 
  26:../../libDaisy//src/hid/gatein.h ****     /** @brief Initializes the gate input with specified hardware pin
  27:../../libDaisy//src/hid/gatein.h ****      *
  28:../../libDaisy//src/hid/gatein.h ****      *  @param pin_cfg pointer to pin to initialize
  29:../../libDaisy//src/hid/gatein.h ****      *  @param invert True if the pin state is HIGH when 0V is present
  30:../../libDaisy//src/hid/gatein.h ****      *         at the input. False if input signal matches the pin state.
  31:../../libDaisy//src/hid/gatein.h ****      *
  32:../../libDaisy//src/hid/gatein.h ****      *  @note the default for invert is true because it is typical to use
  33:../../libDaisy//src/hid/gatein.h ****      *  an inverting input circuit (e.g. a BJT circuit) for eurorack gate inputs.
  34:../../libDaisy//src/hid/gatein.h ****      */
  35:../../libDaisy//src/hid/gatein.h ****     void Init(dsy_gpio_pin *pin_cfg, bool invert = true);
  36:../../libDaisy//src/hid/gatein.h **** 
  37:../../libDaisy//src/hid/gatein.h ****     /** Trig
  38:../../libDaisy//src/hid/gatein.h ****     Checks current state of gate input.
  39:../../libDaisy//src/hid/gatein.h **** 
  40:../../libDaisy//src/hid/gatein.h ****     @return True if the GPIO just transitioned.
  41:../../libDaisy//src/hid/gatein.h ****     */
ARM GAS  /var/folders/hl/qgbwny5j0fd895c2c41bk3tw0000gp/T//ccEG44Zu.s 			page 137


  42:../../libDaisy//src/hid/gatein.h ****     bool Trig();
  43:../../libDaisy//src/hid/gatein.h **** 
  44:../../libDaisy//src/hid/gatein.h ****     /** State
  45:../../libDaisy//src/hid/gatein.h ****     Checks current state of gate input (no state required)
  46:../../libDaisy//src/hid/gatein.h **** 
  47:../../libDaisy//src/hid/gatein.h ****     read function is inverted because of suggested BJT input circuit
  48:../../libDaisy//src/hid/gatein.h ****     */
  49:../../libDaisy//src/hid/gatein.h ****     inline bool State()
 4831              		.loc 3 49 17 view .LVU1119
 4832              	.LBB2123:
  50:../../libDaisy//src/hid/gatein.h ****     {
  51:../../libDaisy//src/hid/gatein.h ****         return invert_ ? !dsy_gpio_read(&pin_) : dsy_gpio_read(&pin_);
 4833              		.loc 3 51 9 view .LVU1120
 4834              		.loc 3 51 16 is_stmt 0 view .LVU1121
 4835 005c 3348     		ldr	r0, .L107+28
 4836              		.loc 3 51 24 view .LVU1122
 4837 005e 90F8BD31 		ldrb	r3, [r0, #445]	@ zero_extendqisi2
 4838              		.loc 3 51 40 view .LVU1123
 4839 0062 00F2B710 		addw	r0, r0, #439
 4840              		.loc 3 51 24 view .LVU1124
 4841 0066 8BB1     		cbz	r3, .L79
 4842              		.loc 3 51 40 view .LVU1125
 4843 0068 FFF7FEFF 		bl	dsy_gpio_read
 4844              	.LVL236:
 4845              		.loc 3 51 40 view .LVU1126
 4846              	.LBE2123:
 4847              	.LBE2122:
 4848              		.loc 17 113 2 view .LVU1127
 4849 006c 90B1     		cbz	r0, .L80
 4850              	.L81:
 114:Interesting.cpp **** 
 115:Interesting.cpp **** 	// eject button
 116:Interesting.cpp **** 	if(b2.TimeHeldMs() >= 3000) {proc.SetFreeze(); }
 4851              		.loc 17 116 2 is_stmt 1 view .LVU1128
 4852              	.LVL237:
 4853              	.LBB2125:
 4854              	.LBI2125:
  80:../../libDaisy//src/hid/switch.h **** 
  81:../../libDaisy//src/hid/switch.h ****     /** \return true if the button is held down, without debouncing */
  82:../../libDaisy//src/hid/switch.h ****     inline bool RawState()
  83:../../libDaisy//src/hid/switch.h ****     {
  84:../../libDaisy//src/hid/switch.h ****         return flip_ ? !dsy_gpio_read(&hw_gpio_) : dsy_gpio_read(&hw_gpio_);
  85:../../libDaisy//src/hid/switch.h ****     }
  86:../../libDaisy//src/hid/switch.h **** 
  87:../../libDaisy//src/hid/switch.h ****     /** \return the time in milliseconds that the button has been held (or toggle has been on) */
  88:../../libDaisy//src/hid/switch.h ****     inline float TimeHeldMs() const
 4855              		.loc 1 88 18 view .LVU1129
 4856              	.LBB2126:
  89:../../libDaisy//src/hid/switch.h ****     {
  90:../../libDaisy//src/hid/switch.h ****         return Pressed() ? System::GetNow() - rising_edge_time_ : 0;
 4857              		.loc 1 90 9 view .LVU1130
 4858              	.LBB2127:
 4859              	.LBI2127:
  79:../../libDaisy//src/hid/switch.h **** 
 4860              		.loc 1 79 17 view .LVU1131
 4861              	.LBB2128:
  79:../../libDaisy//src/hid/switch.h **** 
ARM GAS  /var/folders/hl/qgbwny5j0fd895c2c41bk3tw0000gp/T//ccEG44Zu.s 			page 138


 4862              		.loc 1 79 35 view .LVU1132
  79:../../libDaisy//src/hid/switch.h **** 
 4863              		.loc 1 79 35 is_stmt 0 view .LVU1133
 4864              	.LBE2128:
 4865              	.LBE2127:
 4866              		.loc 1 90 26 view .LVU1134
 4867 006e A37A     		ldrb	r3, [r4, #10]	@ zero_extendqisi2
 4868 0070 FF2B     		cmp	r3, #255
 4869 0072 19D0     		beq	.L106
 4870              	.LVL238:
 4871              	.L84:
 4872              		.loc 1 90 26 view .LVU1135
 4873              	.LBE2126:
 4874              	.LBE2125:
 117:Interesting.cpp **** 
 118:Interesting.cpp **** 	// update leds to reflect modes
 119:Interesting.cpp **** 	gate_in_led1.Write(proc.returnState());
 4875              		.loc 17 119 2 is_stmt 1 view .LVU1136
 4876              	.LBB2137:
 4877              	.LBI2137:
 126:processor.h   **** 
 4878              		.loc 9 126 6 view .LVU1137
 126:processor.h   **** 
 4879              		.loc 9 126 6 is_stmt 0 view .LVU1138
 4880              	.LBE2137:
 4881              		.loc 17 119 20 view .LVU1139
 4882 0074 96F84516 		ldrb	r1, [r6, #1605]	@ zero_extendqisi2
 4883 0078 2D48     		ldr	r0, .L107+32
 4884 007a FFF7FEFF 		bl	_ZN5daisy4GPIO5WriteEb
 4885              	.LVL239:
 120:Interesting.cpp **** 	gate_in_led2.Write(effects.returnState());
 4886              		.loc 17 120 2 is_stmt 1 view .LVU1140
 4887              	.LBB2138:
 4888              	.LBI2138:
  34:effects_handling.h ****     }
  35:effects_handling.h **** 
  36:effects_handling.h ****     void FlipEffects() { enabled_ = !enabled_; }
  37:effects_handling.h **** 
  38:effects_handling.h ****     bool returnState() { return enabled_; }
 4889              		.loc 11 38 10 view .LVU1141
 4890              	.LBB2139:
 4891              		.loc 11 38 26 view .LVU1142
 4892              		.loc 11 38 26 is_stmt 0 view .LVU1143
 4893              	.LBE2139:
 4894              	.LBE2138:
 4895              		.loc 17 120 20 view .LVU1144
 4896 007e 95F84410 		ldrb	r1, [r5, #68]	@ zero_extendqisi2
 4897 0082 2C48     		ldr	r0, .L107+36
 121:Interesting.cpp **** }
 4898              		.loc 17 121 1 view .LVU1145
 4899 0084 BDE87040 		pop	{r4, r5, r6, lr}
 4900              		.cfi_remember_state
 4901              		.cfi_restore 14
 4902              		.cfi_restore 6
 4903              		.cfi_restore 5
 4904              		.cfi_restore 4
 4905              		.cfi_def_cfa_offset 0
ARM GAS  /var/folders/hl/qgbwny5j0fd895c2c41bk3tw0000gp/T//ccEG44Zu.s 			page 139


 120:Interesting.cpp **** 	gate_in_led2.Write(effects.returnState());
 4906              		.loc 17 120 20 view .LVU1146
 4907 0088 FFF7FEBF 		b	_ZN5daisy4GPIO5WriteEb
 4908              	.LVL240:
 4909              	.L79:
 4910              		.cfi_restore_state
 4911              	.LBB2140:
 4912              	.LBB2124:
 4913              		.loc 3 51 63 view .LVU1147
 4914 008c FFF7FEFF 		bl	dsy_gpio_read
 4915              	.LVL241:
 4916              		.loc 3 51 63 view .LVU1148
 4917              	.LBE2124:
 4918              	.LBE2140:
 113:Interesting.cpp **** 
 4919              		.loc 17 113 2 view .LVU1149
 4920 0090 0028     		cmp	r0, #0
 4921 0092 ECD0     		beq	.L81
 4922              	.L80:
 113:Interesting.cpp **** 
 4923              		.loc 17 113 29 is_stmt 1 view .LVU1150
 4924              	.LVL242:
 4925              	.LBB2141:
 4926              	.LBI2141:
 173:processor.h   **** 
 4927              		.loc 9 173 6 view .LVU1151
 4928              	.LBB2142:
 173:processor.h   **** 
 4929              		.loc 9 173 28 is_stmt 0 view .LVU1152
 4930 0094 284A     		ldr	r2, .L107+40
 173:processor.h   **** 
 4931              		.loc 9 173 31 view .LVU1153
 4932 0096 92F8143E 		ldrb	r3, [r2, #3604]	@ zero_extendqisi2
 4933 009a 83F00103 		eor	r3, r3, #1
 173:processor.h   **** 
 4934              		.loc 9 173 28 view .LVU1154
 4935 009e 82F8143E 		strb	r3, [r2, #3604]
 4936              	.LVL243:
 173:processor.h   **** 
 4937              		.loc 9 173 28 view .LVU1155
 4938              	.LBE2142:
 4939              	.LBE2141:
 116:Interesting.cpp **** 
 4940              		.loc 17 116 2 is_stmt 1 view .LVU1156
 4941              	.LBB2143:
  88:../../libDaisy//src/hid/switch.h ****     {
 4942              		.loc 1 88 18 view .LVU1157
 4943              	.LBB2135:
 4944              		.loc 1 90 9 view .LVU1158
 4945              	.LBB2130:
  79:../../libDaisy//src/hid/switch.h **** 
 4946              		.loc 1 79 17 view .LVU1159
 4947              	.LBB2129:
  79:../../libDaisy//src/hid/switch.h **** 
 4948              		.loc 1 79 35 view .LVU1160
  79:../../libDaisy//src/hid/switch.h **** 
 4949              		.loc 1 79 35 is_stmt 0 view .LVU1161
ARM GAS  /var/folders/hl/qgbwny5j0fd895c2c41bk3tw0000gp/T//ccEG44Zu.s 			page 140


 4950              	.LBE2129:
 4951              	.LBE2130:
 4952              		.loc 1 90 26 view .LVU1162
 4953 00a2 A37A     		ldrb	r3, [r4, #10]	@ zero_extendqisi2
 4954 00a4 FF2B     		cmp	r3, #255
 4955 00a6 E5D1     		bne	.L84
 4956              	.L106:
 4957              	.LBB2131:
 4958              	.LBI2131:
  88:../../libDaisy//src/hid/switch.h ****     {
 4959              		.loc 1 88 18 is_stmt 1 view .LVU1163
 4960              	.LVL244:
 4961              	.LBB2132:
 4962              		.loc 1 90 42 is_stmt 0 view .LVU1164
 4963 00a8 FFF7FEFF 		bl	_ZN5daisy6System6GetNowEv
 4964              	.LVL245:
 4965              		.loc 1 90 45 view .LVU1165
 4966 00ac 07EE900A 		vmov	s15, r0	@ int
 4967              		.loc 1 90 26 view .LVU1166
 4968 00b0 D4ED036A 		vldr.32	s13, [r4, #12]
 4969              		.loc 1 90 45 view .LVU1167
 4970 00b4 F8EE677A 		vcvt.f32.u32	s15, s15
 4971              	.LBE2132:
 4972              	.LBE2131:
 4973              	.LBE2135:
 4974              	.LBE2143:
 116:Interesting.cpp **** 
 4975              		.loc 17 116 2 view .LVU1168
 4976 00b8 9FED207A 		vldr.32	s14, .L107+44
 4977              	.LBB2144:
 4978              	.LBB2136:
 4979              	.LBB2134:
 4980              	.LBB2133:
 4981              		.loc 1 90 26 view .LVU1169
 4982 00bc 77EEE67A 		vsub.f32	s15, s15, s13
 4983              	.LBE2133:
 4984              	.LBE2134:
 4985              	.LBE2136:
 4986              	.LBE2144:
 116:Interesting.cpp **** 
 4987              		.loc 17 116 2 view .LVU1170
 4988 00c0 F4EEC77A 		vcmpe.f32	s15, s14
 4989 00c4 F1EE10FA 		vmrs	APSR_nzcv, FPSCR
 4990 00c8 D4DB     		blt	.L84
 116:Interesting.cpp **** 
 4991              		.loc 17 116 31 is_stmt 1 view .LVU1171
 4992              	.LVL246:
 4993              	.LBB2145:
 4994              	.LBI2145:
 173:processor.h   **** 
 4995              		.loc 9 173 6 view .LVU1172
 4996              	.LBB2146:
 173:processor.h   **** 
 4997              		.loc 9 173 28 is_stmt 0 view .LVU1173
 4998 00ca 1B4A     		ldr	r2, .L107+40
 173:processor.h   **** 
 4999              		.loc 9 173 31 view .LVU1174
ARM GAS  /var/folders/hl/qgbwny5j0fd895c2c41bk3tw0000gp/T//ccEG44Zu.s 			page 141


 5000 00cc 92F8143E 		ldrb	r3, [r2, #3604]	@ zero_extendqisi2
 5001 00d0 83F00103 		eor	r3, r3, #1
 173:processor.h   **** 
 5002              		.loc 9 173 28 view .LVU1175
 5003 00d4 82F8143E 		strb	r3, [r2, #3604]
 173:processor.h   **** 
 5004              		.loc 9 173 40 view .LVU1176
 5005 00d8 CCE7     		b	.L84
 5006              	.LVL247:
 5007              	.L105:
 173:processor.h   **** 
 5008              		.loc 9 173 40 view .LVU1177
 5009              	.LBE2146:
 5010              	.LBE2145:
 5011              	.LBB2147:
 5012              	.LBI2147:
  70:../../libDaisy//src/hid/switch.h **** 
 5013              		.loc 1 70 17 is_stmt 1 view .LVU1178
 5014              	.LBB2148:
  70:../../libDaisy//src/hid/switch.h **** 
 5015              		.loc 1 70 38 view .LVU1179
  70:../../libDaisy//src/hid/switch.h **** 
 5016              		.loc 1 70 54 is_stmt 0 view .LVU1180
 5017 00da 3379     		ldrb	r3, [r6, #4]	@ zero_extendqisi2
 5018 00dc 002B     		cmp	r3, #0
 5019 00de BBD0     		beq	.L104
 5020              	.LVL248:
  70:../../libDaisy//src/hid/switch.h **** 
 5021              		.loc 1 70 54 view .LVU1181
 5022              	.LBE2148:
 5023              	.LBE2147:
 108:Interesting.cpp **** 
 5024              		.loc 17 108 14 view .LVU1182
 5025 00e0 B37A     		ldrb	r3, [r6, #10]	@ zero_extendqisi2
 5026 00e2 114D     		ldr	r5, .L107+24
 5027 00e4 7F2B     		cmp	r3, #127
 5028              	.LBB2149:
 5029              	.LBB2150:
 125:processor.h   **** bool returnState() { return reverse_; }
 5030              		.loc 9 125 33 view .LVU1183
 5031 00e6 0F4E     		ldr	r6, .L107+20
 5032              	.LBE2150:
 5033              	.LBE2149:
 108:Interesting.cpp **** 
 5034              		.loc 17 108 14 view .LVU1184
 5035 00e8 B8D1     		bne	.L78
 108:Interesting.cpp **** 
 5036              		.loc 17 108 35 is_stmt 1 view .LVU1185
 5037              	.LVL249:
 5038              	.LBB2152:
 5039              	.LBI2149:
 125:processor.h   **** bool returnState() { return reverse_; }
 5040              		.loc 9 125 6 view .LVU1186
 5041              	.LBB2151:
 125:processor.h   **** bool returnState() { return reverse_; }
 5042              		.loc 9 125 36 is_stmt 0 view .LVU1187
 5043 00ea 96F84536 		ldrb	r3, [r6, #1605]	@ zero_extendqisi2
ARM GAS  /var/folders/hl/qgbwny5j0fd895c2c41bk3tw0000gp/T//ccEG44Zu.s 			page 142


 5044 00ee 83F00103 		eor	r3, r3, #1
 125:processor.h   **** bool returnState() { return reverse_; }
 5045              		.loc 9 125 33 view .LVU1188
 5046 00f2 86F84536 		strb	r3, [r6, #1605]
 125:processor.h   **** bool returnState() { return reverse_; }
 5047              		.loc 9 125 46 view .LVU1189
 5048 00f6 B1E7     		b	.L78
 5049              	.LVL250:
 5050              	.L101:
 125:processor.h   **** bool returnState() { return reverse_; }
 5051              		.loc 9 125 46 view .LVU1190
 5052              	.LBE2151:
 5053              	.LBE2152:
 111:Interesting.cpp **** 
 5054              		.loc 17 111 14 view .LVU1191
 5055 00f8 A37A     		ldrb	r3, [r4, #10]	@ zero_extendqisi2
 5056 00fa 7F2B     		cmp	r3, #127
 5057 00fc ACD1     		bne	.L104
 111:Interesting.cpp **** 
 5058              		.loc 17 111 36 is_stmt 1 view .LVU1192
 5059              	.LVL251:
 5060              	.LBB2153:
 5061              	.LBI2153:
  36:effects_handling.h **** 
 5062              		.loc 11 36 10 view .LVU1193
 5063              	.LBB2154:
  36:effects_handling.h **** 
 5064              		.loc 11 36 26 view .LVU1194
  36:effects_handling.h **** 
 5065              		.loc 11 36 35 is_stmt 0 view .LVU1195
 5066 00fe 0A4D     		ldr	r5, .L107+24
 5067 0100 084E     		ldr	r6, .L107+20
  36:effects_handling.h **** 
 5068              		.loc 11 36 37 view .LVU1196
 5069 0102 95F84430 		ldrb	r3, [r5, #68]	@ zero_extendqisi2
 5070 0106 83F00103 		eor	r3, r3, #1
  36:effects_handling.h **** 
 5071              		.loc 11 36 35 view .LVU1197
 5072 010a 85F84430 		strb	r3, [r5, #68]
  36:effects_handling.h **** 
 5073              		.loc 11 36 48 view .LVU1198
 5074 010e A5E7     		b	.L78
 5075              	.L108:
 5076              		.align	2
 5077              	.L107:
 5078 0110 00000000 		.word	.LANCHOR16
 5079 0114 00000000 		.word	.LANCHOR17
 5080 0118 00000000 		.word	.LANCHOR19
 5081 011c 00000000 		.word	.LANCHOR13
 5082 0120 00000000 		.word	.LANCHOR15
 5083 0124 00A00E00 		.word	proc+958464
 5084 0128 00000200 		.word	effects+131072
 5085 012c 00000000 		.word	.LANCHOR18
 5086 0130 00000000 		.word	.LANCHOR9
 5087 0134 00000000 		.word	.LANCHOR11
 5088 0138 00E00200 		.word	proc+188416
 5089 013c 00803B45 		.word	1161527296
ARM GAS  /var/folders/hl/qgbwny5j0fd895c2c41bk3tw0000gp/T//ccEG44Zu.s 			page 143


 5090              	.LBE2154:
 5091              	.LBE2153:
 5092              		.cfi_endproc
 5093              	.LFE5247:
 5095              		.section	.text.startup.main,"ax",%progbits
 5096              		.align	1
 5097              		.p2align 2,,3
 5098              		.global	main
 5099              		.syntax unified
 5100              		.thumb
 5101              		.thumb_func
 5103              	main:
 5104              	.LFB5246:
  68:Interesting.cpp **** 	hw.Init();
 5105              		.loc 17 68 1 is_stmt 1 view -0
 5106              		.cfi_startproc
 5107              		@ args = 0, pretend = 0, frame = 8
 5108              		@ frame_needed = 0, uses_anonymous_args = 0
  69:Interesting.cpp **** 	hw.SetAudioBlockSize(48); // number of samples handled per callback
 5109              		.loc 17 69 2 view .LVU1200
  68:Interesting.cpp **** 	hw.Init();
 5110              		.loc 17 68 1 is_stmt 0 view .LVU1201
 5111 0000 2DE9F04F 		push	{r4, r5, r6, r7, r8, r9, r10, fp, lr}
 5112              		.cfi_def_cfa_offset 36
 5113              		.cfi_offset 4, -36
 5114              		.cfi_offset 5, -32
 5115              		.cfi_offset 6, -28
 5116              		.cfi_offset 7, -24
 5117              		.cfi_offset 8, -20
 5118              		.cfi_offset 9, -16
 5119              		.cfi_offset 10, -12
 5120              		.cfi_offset 11, -8
 5121              		.cfi_offset 14, -4
  69:Interesting.cpp **** 	hw.SetAudioBlockSize(48); // number of samples handled per callback
 5122              		.loc 17 69 9 view .LVU1202
 5123 0004 8B48     		ldr	r0, .L127
 5124              	.LBB2216:
 5125              	.LBB2217:
  19:processor.h   ****     read_position_ = 0;
 5126              		.loc 9 19 18 view .LVU1203
 5127 0006 0024     		movs	r4, #0
  17:processor.h   ****     buffer_size_ = BufferSize;
 5128              		.loc 9 17 18 view .LVU1204
 5129 0008 8B4E     		ldr	r6, .L127+4
 5130 000a 8C4D     		ldr	r5, .L127+8
 5131 000c 06F53837 		add	r7, r6, #188416
 5132 0010 05F1200A 		add	r10, r5, #32
 5133 0014 05F1100B 		add	fp, r5, #16
 5134              	.LBE2217:
 5135              	.LBE2216:
  68:Interesting.cpp **** 	hw.Init();
 5136              		.loc 17 68 1 view .LVU1205
 5137 0018 2DED028B 		vpush.64	{d8}
 5138              		.cfi_def_cfa_offset 44
 5139              		.cfi_offset 80, -44
 5140              		.cfi_offset 81, -40
 5141 001c 83B0     		sub	sp, sp, #12
ARM GAS  /var/folders/hl/qgbwny5j0fd895c2c41bk3tw0000gp/T//ccEG44Zu.s 			page 144


 5142              		.cfi_def_cfa_offset 56
  69:Interesting.cpp **** 	hw.SetAudioBlockSize(48); // number of samples handled per callback
 5143              		.loc 17 69 9 view .LVU1206
 5144 001e FFF7FEFF 		bl	_ZN5daisy8patch_sm12DaisyPatchSM4InitEv
 5145              	.LVL252:
  70:Interesting.cpp **** 	hw.SetAudioSampleRate(SaiHandle::Config::SampleRate::SAI_48KHZ);
 5146              		.loc 17 70 2 is_stmt 1 view .LVU1207
  70:Interesting.cpp **** 	hw.SetAudioSampleRate(SaiHandle::Config::SampleRate::SAI_48KHZ);
 5147              		.loc 17 70 22 is_stmt 0 view .LVU1208
 5148 0022 3021     		movs	r1, #48
 5149 0024 8348     		ldr	r0, .L127
 5150 0026 FFF7FEFF 		bl	_ZN5daisy8patch_sm12DaisyPatchSM17SetAudioBlockSizeEj
 5151              	.LVL253:
  71:Interesting.cpp **** 	float sample_rate = hw.AudioSampleRate();
 5152              		.loc 17 71 2 is_stmt 1 view .LVU1209
  71:Interesting.cpp **** 	float sample_rate = hw.AudioSampleRate();
 5153              		.loc 17 71 23 is_stmt 0 view .LVU1210
 5154 002a 0321     		movs	r1, #3
 5155 002c 8148     		ldr	r0, .L127
 5156 002e FFF7FEFF 		bl	_ZN5daisy8patch_sm12DaisyPatchSM18SetAudioSampleRateENS_9SaiHandle6Config10SampleRateE
 5157              	.LVL254:
  72:Interesting.cpp **** 	
 5158              		.loc 17 72 2 is_stmt 1 view .LVU1211
  72:Interesting.cpp **** 	
 5159              		.loc 17 72 40 is_stmt 0 view .LVU1212
 5160 0032 8048     		ldr	r0, .L127
 5161 0034 FFF7FEFF 		bl	_ZN5daisy8patch_sm12DaisyPatchSM15AudioSampleRateEv
 5162              	.LVL255:
 5163 0038 B0EE408A 		vmov.f32	s16, s0
 5164              	.LVL256:
  74:Interesting.cpp **** 	proc.Init(sample_rate);
 5165              		.loc 17 74 2 is_stmt 1 view .LVU1213
  74:Interesting.cpp **** 	proc.Init(sample_rate);
 5166              		.loc 17 74 9 is_stmt 0 view .LVU1214
 5167 003c FFF7FEFF 		bl	_ZN5daisy8patch_sm7InitBedEv
 5168              	.LVL257:
  75:Interesting.cpp **** 	effects.Init(sample_rate);
 5169              		.loc 17 75 2 is_stmt 1 view .LVU1215
 5170              	.LBB2251:
 5171              	.LBI2216:
  15:processor.h   **** {
 5172              		.loc 9 15 6 view .LVU1216
 5173              	.LBB2247:
  17:processor.h   ****     buffer_size_ = BufferSize;
 5174              		.loc 9 17 18 is_stmt 0 view .LVU1217
 5175 0040 07F60862 		addw	r2, r7, #3592
  18:processor.h   ****     write_index_ = 0;
 5176              		.loc 9 18 18 view .LVU1218
 5177 0044 4BF68033 		movw	r3, #48000
 5178              	.LBB2218:
  25:processor.h   ****         playback_buffer_[0][i] = 0;
 5179              		.loc 9 25 20 view .LVU1219
 5180 0048 2146     		mov	r1, r4
 5181              	.LBE2218:
  17:processor.h   ****     buffer_size_ = BufferSize;
 5182              		.loc 9 17 18 view .LVU1220
 5183 004a 82ED008A 		vstr.32	s16, [r2]
ARM GAS  /var/folders/hl/qgbwny5j0fd895c2c41bk3tw0000gp/T//ccEG44Zu.s 			page 145


  20:processor.h   ****     speed_ = 1;
 5184              		.loc 9 20 20 view .LVU1221
 5185 004e 0022     		movs	r2, #0
  18:processor.h   ****     write_index_ = 0;
 5186              		.loc 9 18 18 view .LVU1222
 5187 0050 C7F8003E 		str	r3, [r7, #3584]
  20:processor.h   ****     speed_ = 1;
 5188              		.loc 9 20 20 view .LVU1223
 5189 0054 07F56163 		add	r3, r7, #3600
 5190              	.LBB2219:
  25:processor.h   ****         playback_buffer_[0][i] = 0;
 5191              		.loc 9 25 20 view .LVU1224
 5192 0058 3046     		mov	r0, r6
 5193              	.LBE2219:
  19:processor.h   ****     read_position_ = 0;
 5194              		.loc 9 19 18 view .LVU1225
 5195 005a C7F8044E 		str	r4, [r7, #3588]
  20:processor.h   ****     speed_ = 1;
 5196              		.loc 9 20 20 view .LVU1226
 5197 005e 1A60     		str	r2, [r3]	@ float
  21:processor.h   ****     freeze_ = false;
 5198              		.loc 9 21 12 view .LVU1227
 5199 0060 07F60C63 		addw	r3, r7, #3596
 5200 0064 4FF07E52 		mov	r2, #1065353216
  22:processor.h   ****     for (size_t i = 0; i < BufferSize; i++) 
 5201              		.loc 9 22 13 view .LVU1228
 5202 0068 87F8144E 		strb	r4, [r7, #3604]
 5203              	.LVL258:
 5204              	.LBB2220:
  23:processor.h   ****     {
 5205              		.loc 9 23 26 is_stmt 1 view .LVU1229
 5206              	.LBE2220:
  21:processor.h   ****     freeze_ = false;
 5207              		.loc 9 21 12 is_stmt 0 view .LVU1230
 5208 006c 1A60     		str	r2, [r3]	@ float
 5209              	.LBB2221:
  25:processor.h   ****         playback_buffer_[0][i] = 0;
 5210              		.loc 9 25 20 view .LVU1231
 5211 006e 744A     		ldr	r2, .L127+12
 5212 0070 FFF7FEFF 		bl	memset
 5213              	.LVL259:
  26:processor.h   ****         playback_buffer_[1][i] = 0;
 5214              		.loc 9 26 32 view .LVU1232
 5215 0074 2146     		mov	r1, r4
 5216 0076 05F12804 		add	r4, r5, #40
 5217 007a 724A     		ldr	r2, .L127+16
 5218 007c 07F56260 		add	r0, r7, #3616
 5219 0080 FFF7FEFF 		bl	memset
 5220              	.LVL260:
 5221              	.L111:
  26:processor.h   ****         playback_buffer_[1][i] = 0;
 5222              		.loc 9 26 32 view .LVU1233
 5223              	.LBE2221:
 5224              	.LBB2222:
  34:processor.h   ****         playback_ready_[i] = false;
 5225              		.loc 9 34 31 view .LVU1234
 5226 0084 4FF00008 		mov	r8, #0
ARM GAS  /var/folders/hl/qgbwny5j0fd895c2c41bk3tw0000gp/T//ccEG44Zu.s 			page 146


  35:processor.h   ****         playback_speed_[i] = 1;
 5227              		.loc 9 35 28 view .LVU1235
 5228 0088 4FF00009 		mov	r9, #0
  36:processor.h   ****         env_[i].Init(sample_rate_);
 5229              		.loc 9 36 28 view .LVU1236
 5230 008c 4FF07E53 		mov	r3, #1065353216
  37:processor.h   ****         env_[i].SetTime(ADENV_SEG_ATTACK, 0.15);
 5231              		.loc 9 37 21 view .LVU1237
 5232 0090 2046     		mov	r0, r4
  34:processor.h   ****         playback_ready_[i] = false;
 5233              		.loc 9 34 31 view .LVU1238
 5234 0092 C5F81080 		str	r8, [r5, #16]	@ float
  37:processor.h   ****         env_[i].SetTime(ADENV_SEG_ATTACK, 0.15);
 5235              		.loc 9 37 21 view .LVU1239
 5236 0096 B0EE480A 		vmov.f32	s0, s16
  35:processor.h   ****         playback_speed_[i] = 1;
 5237              		.loc 9 35 28 view .LVU1240
 5238 009a 0AF8019B 		strb	r9, [r10], #1
 5239              	.LVL261:
  32:processor.h   ****     {
 5240              		.loc 9 32 26 view .LVU1241
 5241 009e 3834     		adds	r4, r4, #56
  36:processor.h   ****         env_[i].Init(sample_rate_);
 5242              		.loc 9 36 28 view .LVU1242
 5243 00a0 45F8043B 		str	r3, [r5], #4	@ float
  37:processor.h   ****         env_[i].SetTime(ADENV_SEG_ATTACK, 0.15);
 5244              		.loc 9 37 21 view .LVU1243
 5245 00a4 FFF7FEFF 		bl	_ZN7daisysp5AdEnv4InitEf
 5246              	.LVL262:
 5247              	.LBB2223:
 5248              	.LBI2223:
  57:../../DaisySP//Source/Control/adenv.h ****     /** Sets the length of time (in seconds) for a specific segment. */
  58:../../DaisySP//Source/Control/adenv.h ****     inline void SetTime(uint8_t seg, float time) { segment_time_[seg] = time; }
 5249              		.loc 19 58 17 is_stmt 1 view .LVU1244
 5250              	.LBB2224:
 5251              		.loc 19 58 52 view .LVU1245
 5252              	.LBE2224:
 5253              	.LBE2223:
 5254              	.LBB2227:
 5255              	.LBB2228:
  59:../../DaisySP//Source/Control/adenv.h ****     /** Sets the amount of curve applied. A positve value will create a log
  60:../../DaisySP//Source/Control/adenv.h ****         curve. Input range: -100 to 100.  (or more)
  61:../../DaisySP//Source/Control/adenv.h ****     */
  62:../../DaisySP//Source/Control/adenv.h ****     inline void SetCurve(float scalar) { curve_scalar_ = scalar; }
  63:../../DaisySP//Source/Control/adenv.h ****     /** Sets the minimum value of the envelope output.
  64:../../DaisySP//Source/Control/adenv.h ****         Input range: -FLTmax_, to FLTmax_
  65:../../DaisySP//Source/Control/adenv.h ****     */
  66:../../DaisySP//Source/Control/adenv.h ****     inline void SetMin(float min) { min_ = min; }
  67:../../DaisySP//Source/Control/adenv.h ****     /** Sets the maximum value of the envelope output.
  68:../../DaisySP//Source/Control/adenv.h ****         Input range: -FLTmax_, to FLTmax_
  69:../../DaisySP//Source/Control/adenv.h ****     */
  70:../../DaisySP//Source/Control/adenv.h ****     inline void SetMax(float max) { max_ = max; }
 5256              		.loc 19 70 42 is_stmt 0 view .LVU1246
 5257 00a8 4FF07A53 		mov	r3, #1048576000
 5258              	.LBE2228:
 5259              	.LBE2227:
 5260              	.LBB2231:
ARM GAS  /var/folders/hl/qgbwny5j0fd895c2c41bk3tw0000gp/T//ccEG44Zu.s 			page 147


 5261              	.LBB2225:
  58:../../DaisySP//Source/Control/adenv.h ****     /** Sets the amount of curve applied. A positve value will create a log
 5262              		.loc 19 58 71 view .LVU1247
 5263 00ac 6649     		ldr	r1, .L127+20
 5264              	.LBE2225:
 5265              	.LBE2231:
 5266              	.LBB2232:
 5267              	.LBB2233:
 5268 00ae 674A     		ldr	r2, .L127+24
 5269              	.LBE2233:
 5270              	.LBE2232:
  32:processor.h   ****     {
 5271              		.loc 9 32 26 view .LVU1248
 5272 00b0 5D45     		cmp	r5, fp
 5273              	.LBB2235:
 5274              	.LBB2229:
 5275              		.loc 19 70 42 view .LVU1249
 5276 00b2 44F8203C 		str	r3, [r4, #-32]	@ float
 5277              	.LBE2229:
 5278              	.LBE2235:
  37:processor.h   ****         env_[i].SetTime(ADENV_SEG_ATTACK, 0.15);
 5279              		.loc 9 37 21 view .LVU1250
 5280 00b6 07F60863 		addw	r3, r7, #3592
 5281              	.LBB2236:
 5282              	.LBB2237:
  66:../../DaisySP//Source/Control/adenv.h ****     /** Sets the maximum value of the envelope output.
 5283              		.loc 19 66 42 view .LVU1251
 5284 00ba 44F8248C 		str	r8, [r4, #-36]	@ float
 5285              	.LBE2237:
 5286              	.LBE2236:
 5287              	.LBB2239:
 5288              	.LBB2240:
  62:../../DaisySP//Source/Control/adenv.h ****     /** Sets the minimum value of the envelope output.
 5289              		.loc 19 62 56 view .LVU1252
 5290 00be 44F8188C 		str	r8, [r4, #-24]	@ float
 5291              	.LBE2240:
 5292              	.LBE2239:
 5293              	.LBB2242:
 5294              	.LBB2226:
  58:../../DaisySP//Source/Control/adenv.h ****     /** Sets the amount of curve applied. A positve value will create a log
 5295              		.loc 19 58 71 view .LVU1253
 5296 00c2 44F8301C 		str	r1, [r4, #-48]	@ float
 5297              	.LVL263:
  58:../../DaisySP//Source/Control/adenv.h ****     /** Sets the amount of curve applied. A positve value will create a log
 5298              		.loc 19 58 71 view .LVU1254
 5299              	.LBE2226:
 5300              	.LBE2242:
 5301              	.LBB2243:
 5302              	.LBI2232:
  58:../../DaisySP//Source/Control/adenv.h ****     /** Sets the amount of curve applied. A positve value will create a log
 5303              		.loc 19 58 17 is_stmt 1 view .LVU1255
 5304              	.LBB2234:
  58:../../DaisySP//Source/Control/adenv.h ****     /** Sets the amount of curve applied. A positve value will create a log
 5305              		.loc 19 58 52 view .LVU1256
  58:../../DaisySP//Source/Control/adenv.h ****     /** Sets the amount of curve applied. A positve value will create a log
 5306              		.loc 19 58 71 is_stmt 0 view .LVU1257
 5307 00c6 44F82C2C 		str	r2, [r4, #-44]	@ float
ARM GAS  /var/folders/hl/qgbwny5j0fd895c2c41bk3tw0000gp/T//ccEG44Zu.s 			page 148


 5308              	.LVL264:
  58:../../DaisySP//Source/Control/adenv.h ****     /** Sets the amount of curve applied. A positve value will create a log
 5309              		.loc 19 58 71 view .LVU1258
 5310              	.LBE2234:
 5311              	.LBE2243:
 5312              	.LBB2244:
 5313              	.LBI2236:
  66:../../DaisySP//Source/Control/adenv.h ****     /** Sets the maximum value of the envelope output.
 5314              		.loc 19 66 17 is_stmt 1 view .LVU1259
 5315              	.LBB2238:
  66:../../DaisySP//Source/Control/adenv.h ****     /** Sets the maximum value of the envelope output.
 5316              		.loc 19 66 37 view .LVU1260
  66:../../DaisySP//Source/Control/adenv.h ****     /** Sets the maximum value of the envelope output.
 5317              		.loc 19 66 37 is_stmt 0 view .LVU1261
 5318              	.LBE2238:
 5319              	.LBE2244:
 5320              	.LBB2245:
 5321              	.LBI2227:
 5322              		.loc 19 70 17 is_stmt 1 view .LVU1262
 5323              	.LBB2230:
 5324              		.loc 19 70 37 view .LVU1263
 5325              		.loc 19 70 37 is_stmt 0 view .LVU1264
 5326              	.LBE2230:
 5327              	.LBE2245:
 5328              	.LBB2246:
 5329              	.LBI2239:
  62:../../DaisySP//Source/Control/adenv.h ****     /** Sets the minimum value of the envelope output.
 5330              		.loc 19 62 17 is_stmt 1 view .LVU1265
 5331              	.LBB2241:
  62:../../DaisySP//Source/Control/adenv.h ****     /** Sets the minimum value of the envelope output.
 5332              		.loc 19 62 42 view .LVU1266
  62:../../DaisySP//Source/Control/adenv.h ****     /** Sets the minimum value of the envelope output.
 5333              		.loc 19 62 42 is_stmt 0 view .LVU1267
 5334              	.LBE2241:
 5335              	.LBE2246:
  32:processor.h   ****     {
 5336              		.loc 9 32 5 is_stmt 1 view .LVU1268
  32:processor.h   ****     {
 5337              		.loc 9 32 26 view .LVU1269
  32:processor.h   ****     {
 5338              		.loc 9 32 26 is_stmt 0 view .LVU1270
 5339 00ca 02D0     		beq	.L110
  37:processor.h   ****         env_[i].SetTime(ADENV_SEG_ATTACK, 0.15);
 5340              		.loc 9 37 21 view .LVU1271
 5341 00cc 93ED008A 		vldr.32	s16, [r3]
 5342 00d0 D8E7     		b	.L111
 5343              	.L110:
  37:processor.h   ****         env_[i].SetTime(ADENV_SEG_ATTACK, 0.15);
 5344              		.loc 9 37 21 view .LVU1272
 5345              	.LBE2222:
  45:processor.h   ****     reverse_ = false;
 5346              		.loc 9 45 13 view .LVU1273
 5347 00d2 07F60863 		addw	r3, r7, #3592
 5348              	.LBE2247:
 5349              	.LBE2251:
 5350              	.LBB2252:
 5351              	.LBB2253:
ARM GAS  /var/folders/hl/qgbwny5j0fd895c2c41bk3tw0000gp/T//ccEG44Zu.s 			page 149


 5352              	.LBB2254:
 5353              	.LBB2255:
 5354              	.LBB2256:
 5355              	.LBB2257:
 108:../../../mutable-instruments/rings/dsp/fx/fx_engine.h ****     Clear();
 5356              		.loc 13 108 13 view .LVU1274
 5357 00d6 5E4C     		ldr	r4, .L127+28
 5358              	.LBE2257:
 5359              	.LBE2256:
 5360              	.LBE2255:
 5361              	.LBE2254:
 5362              	.LBE2253:
 5363              	.LBE2252:
 5364              	.LBB2335:
 5365              	.LBB2248:
  45:processor.h   ****     reverse_ = false;
 5366              		.loc 9 45 13 view .LVU1275
 5367 00d8 5E48     		ldr	r0, .L127+32
 5368 00da 93ED000A 		vldr.32	s0, [r3]
  44:processor.h   ****     dc_.Init(sample_rate_);
 5369              		.loc 9 44 22 view .LVU1276
 5370 00de C7F81C9E 		str	r9, [r7, #3612]
  45:processor.h   ****     reverse_ = false;
 5371              		.loc 9 45 13 view .LVU1277
 5372 00e2 FFF7FEFF 		bl	_ZN7daisysp7DcBlock4InitEf
 5373              	.LVL265:
  45:processor.h   ****     reverse_ = false;
 5374              		.loc 9 45 13 view .LVU1278
 5375              	.LBE2248:
 5376              	.LBE2335:
 5377              	.LBB2336:
 5378              	.LBB2330:
 5379              	.LBB2325:
 5380              	.LBB2320:
 5381              	.LBB2276:
 5382              	.LBB2272:
 108:../../../mutable-instruments/rings/dsp/fx/fx_engine.h ****     Clear();
 5383              		.loc 13 108 13 view .LVU1279
 5384 00e6 04F14400 		add	r0, r4, #68
 5385              	.LBE2272:
 5386              	.LBE2276:
 5387              	.LBE2320:
 5388              	.LBE2325:
 5389              	.LBE2330:
 5390              	.LBE2336:
 5391              	.LBB2337:
 5392              	.LBB2249:
  46:processor.h   **** }
 5393              		.loc 9 46 14 view .LVU1280
 5394 00ea 5B4D     		ldr	r5, .L127+36
 5395              	.LBE2249:
 5396              	.LBE2337:
 5397              	.LBB2338:
 5398              	.LBB2331:
 5399              	.LBB2326:
 5400              	.LBB2321:
 5401              	.LBB2277:
ARM GAS  /var/folders/hl/qgbwny5j0fd895c2c41bk3tw0000gp/T//ccEG44Zu.s 			page 150


 5402              	.LBB2273:
 5403              	.LBB2258:
 5404              	.LBB2259:
 5405              	.LBB2260:
 5406              	.LBB2261:
 5407              	.LBB2262:
 5408              	.LBB2263:
 5409              		.file 21 "/Library/DaisyToolchain/0.2.0/arm/arm-none-eabi/include/c++/10.3.1/bits/stl_algobase.h"
   1:/Library/DaisyToolchain/0.2.0/arm/arm-none-eabi/include/c++/10.3.1/bits/stl_algobase.h **** // Core algorithmic facilities -*- C++ -*-
   2:/Library/DaisyToolchain/0.2.0/arm/arm-none-eabi/include/c++/10.3.1/bits/stl_algobase.h **** 
   3:/Library/DaisyToolchain/0.2.0/arm/arm-none-eabi/include/c++/10.3.1/bits/stl_algobase.h **** // Copyright (C) 2001-2020 Free Software Foundation, Inc.
   4:/Library/DaisyToolchain/0.2.0/arm/arm-none-eabi/include/c++/10.3.1/bits/stl_algobase.h **** //
   5:/Library/DaisyToolchain/0.2.0/arm/arm-none-eabi/include/c++/10.3.1/bits/stl_algobase.h **** // This file is part of the GNU ISO C++ Library.  This library is free
   6:/Library/DaisyToolchain/0.2.0/arm/arm-none-eabi/include/c++/10.3.1/bits/stl_algobase.h **** // software; you can redistribute it and/or modify it under the
   7:/Library/DaisyToolchain/0.2.0/arm/arm-none-eabi/include/c++/10.3.1/bits/stl_algobase.h **** // terms of the GNU General Public License as published by the
   8:/Library/DaisyToolchain/0.2.0/arm/arm-none-eabi/include/c++/10.3.1/bits/stl_algobase.h **** // Free Software Foundation; either version 3, or (at your option)
   9:/Library/DaisyToolchain/0.2.0/arm/arm-none-eabi/include/c++/10.3.1/bits/stl_algobase.h **** // any later version.
  10:/Library/DaisyToolchain/0.2.0/arm/arm-none-eabi/include/c++/10.3.1/bits/stl_algobase.h **** 
  11:/Library/DaisyToolchain/0.2.0/arm/arm-none-eabi/include/c++/10.3.1/bits/stl_algobase.h **** // This library is distributed in the hope that it will be useful,
  12:/Library/DaisyToolchain/0.2.0/arm/arm-none-eabi/include/c++/10.3.1/bits/stl_algobase.h **** // but WITHOUT ANY WARRANTY; without even the implied warranty of
  13:/Library/DaisyToolchain/0.2.0/arm/arm-none-eabi/include/c++/10.3.1/bits/stl_algobase.h **** // MERCHANTABILITY or FITNESS FOR A PARTICULAR PURPOSE.  See the
  14:/Library/DaisyToolchain/0.2.0/arm/arm-none-eabi/include/c++/10.3.1/bits/stl_algobase.h **** // GNU General Public License for more details.
  15:/Library/DaisyToolchain/0.2.0/arm/arm-none-eabi/include/c++/10.3.1/bits/stl_algobase.h **** 
  16:/Library/DaisyToolchain/0.2.0/arm/arm-none-eabi/include/c++/10.3.1/bits/stl_algobase.h **** // Under Section 7 of GPL version 3, you are granted additional
  17:/Library/DaisyToolchain/0.2.0/arm/arm-none-eabi/include/c++/10.3.1/bits/stl_algobase.h **** // permissions described in the GCC Runtime Library Exception, version
  18:/Library/DaisyToolchain/0.2.0/arm/arm-none-eabi/include/c++/10.3.1/bits/stl_algobase.h **** // 3.1, as published by the Free Software Foundation.
  19:/Library/DaisyToolchain/0.2.0/arm/arm-none-eabi/include/c++/10.3.1/bits/stl_algobase.h **** 
  20:/Library/DaisyToolchain/0.2.0/arm/arm-none-eabi/include/c++/10.3.1/bits/stl_algobase.h **** // You should have received a copy of the GNU General Public License and
  21:/Library/DaisyToolchain/0.2.0/arm/arm-none-eabi/include/c++/10.3.1/bits/stl_algobase.h **** // a copy of the GCC Runtime Library Exception along with this program;
  22:/Library/DaisyToolchain/0.2.0/arm/arm-none-eabi/include/c++/10.3.1/bits/stl_algobase.h **** // see the files COPYING3 and COPYING.RUNTIME respectively.  If not, see
  23:/Library/DaisyToolchain/0.2.0/arm/arm-none-eabi/include/c++/10.3.1/bits/stl_algobase.h **** // <http://www.gnu.org/licenses/>.
  24:/Library/DaisyToolchain/0.2.0/arm/arm-none-eabi/include/c++/10.3.1/bits/stl_algobase.h **** 
  25:/Library/DaisyToolchain/0.2.0/arm/arm-none-eabi/include/c++/10.3.1/bits/stl_algobase.h **** /*
  26:/Library/DaisyToolchain/0.2.0/arm/arm-none-eabi/include/c++/10.3.1/bits/stl_algobase.h ****  *
  27:/Library/DaisyToolchain/0.2.0/arm/arm-none-eabi/include/c++/10.3.1/bits/stl_algobase.h ****  * Copyright (c) 1994
  28:/Library/DaisyToolchain/0.2.0/arm/arm-none-eabi/include/c++/10.3.1/bits/stl_algobase.h ****  * Hewlett-Packard Company
  29:/Library/DaisyToolchain/0.2.0/arm/arm-none-eabi/include/c++/10.3.1/bits/stl_algobase.h ****  *
  30:/Library/DaisyToolchain/0.2.0/arm/arm-none-eabi/include/c++/10.3.1/bits/stl_algobase.h ****  * Permission to use, copy, modify, distribute and sell this software
  31:/Library/DaisyToolchain/0.2.0/arm/arm-none-eabi/include/c++/10.3.1/bits/stl_algobase.h ****  * and its documentation for any purpose is hereby granted without fee,
  32:/Library/DaisyToolchain/0.2.0/arm/arm-none-eabi/include/c++/10.3.1/bits/stl_algobase.h ****  * provided that the above copyright notice appear in all copies and
  33:/Library/DaisyToolchain/0.2.0/arm/arm-none-eabi/include/c++/10.3.1/bits/stl_algobase.h ****  * that both that copyright notice and this permission notice appear
  34:/Library/DaisyToolchain/0.2.0/arm/arm-none-eabi/include/c++/10.3.1/bits/stl_algobase.h ****  * in supporting documentation.  Hewlett-Packard Company makes no
  35:/Library/DaisyToolchain/0.2.0/arm/arm-none-eabi/include/c++/10.3.1/bits/stl_algobase.h ****  * representations about the suitability of this software for any
  36:/Library/DaisyToolchain/0.2.0/arm/arm-none-eabi/include/c++/10.3.1/bits/stl_algobase.h ****  * purpose.  It is provided "as is" without express or implied warranty.
  37:/Library/DaisyToolchain/0.2.0/arm/arm-none-eabi/include/c++/10.3.1/bits/stl_algobase.h ****  *
  38:/Library/DaisyToolchain/0.2.0/arm/arm-none-eabi/include/c++/10.3.1/bits/stl_algobase.h ****  *
  39:/Library/DaisyToolchain/0.2.0/arm/arm-none-eabi/include/c++/10.3.1/bits/stl_algobase.h ****  * Copyright (c) 1996-1998
  40:/Library/DaisyToolchain/0.2.0/arm/arm-none-eabi/include/c++/10.3.1/bits/stl_algobase.h ****  * Silicon Graphics Computer Systems, Inc.
  41:/Library/DaisyToolchain/0.2.0/arm/arm-none-eabi/include/c++/10.3.1/bits/stl_algobase.h ****  *
  42:/Library/DaisyToolchain/0.2.0/arm/arm-none-eabi/include/c++/10.3.1/bits/stl_algobase.h ****  * Permission to use, copy, modify, distribute and sell this software
  43:/Library/DaisyToolchain/0.2.0/arm/arm-none-eabi/include/c++/10.3.1/bits/stl_algobase.h ****  * and its documentation for any purpose is hereby granted without fee,
  44:/Library/DaisyToolchain/0.2.0/arm/arm-none-eabi/include/c++/10.3.1/bits/stl_algobase.h ****  * provided that the above copyright notice appear in all copies and
  45:/Library/DaisyToolchain/0.2.0/arm/arm-none-eabi/include/c++/10.3.1/bits/stl_algobase.h ****  * that both that copyright notice and this permission notice appear
  46:/Library/DaisyToolchain/0.2.0/arm/arm-none-eabi/include/c++/10.3.1/bits/stl_algobase.h ****  * in supporting documentation.  Silicon Graphics makes no
  47:/Library/DaisyToolchain/0.2.0/arm/arm-none-eabi/include/c++/10.3.1/bits/stl_algobase.h ****  * representations about the suitability of this software for any
  48:/Library/DaisyToolchain/0.2.0/arm/arm-none-eabi/include/c++/10.3.1/bits/stl_algobase.h ****  * purpose.  It is provided "as is" without express or implied warranty.
  49:/Library/DaisyToolchain/0.2.0/arm/arm-none-eabi/include/c++/10.3.1/bits/stl_algobase.h ****  */
ARM GAS  /var/folders/hl/qgbwny5j0fd895c2c41bk3tw0000gp/T//ccEG44Zu.s 			page 151


  50:/Library/DaisyToolchain/0.2.0/arm/arm-none-eabi/include/c++/10.3.1/bits/stl_algobase.h **** 
  51:/Library/DaisyToolchain/0.2.0/arm/arm-none-eabi/include/c++/10.3.1/bits/stl_algobase.h **** /** @file bits/stl_algobase.h
  52:/Library/DaisyToolchain/0.2.0/arm/arm-none-eabi/include/c++/10.3.1/bits/stl_algobase.h ****  *  This is an internal header file, included by other library headers.
  53:/Library/DaisyToolchain/0.2.0/arm/arm-none-eabi/include/c++/10.3.1/bits/stl_algobase.h ****  *  Do not attempt to use it directly. @headername{algorithm}
  54:/Library/DaisyToolchain/0.2.0/arm/arm-none-eabi/include/c++/10.3.1/bits/stl_algobase.h ****  */
  55:/Library/DaisyToolchain/0.2.0/arm/arm-none-eabi/include/c++/10.3.1/bits/stl_algobase.h **** 
  56:/Library/DaisyToolchain/0.2.0/arm/arm-none-eabi/include/c++/10.3.1/bits/stl_algobase.h **** #ifndef _STL_ALGOBASE_H
  57:/Library/DaisyToolchain/0.2.0/arm/arm-none-eabi/include/c++/10.3.1/bits/stl_algobase.h **** #define _STL_ALGOBASE_H 1
  58:/Library/DaisyToolchain/0.2.0/arm/arm-none-eabi/include/c++/10.3.1/bits/stl_algobase.h **** 
  59:/Library/DaisyToolchain/0.2.0/arm/arm-none-eabi/include/c++/10.3.1/bits/stl_algobase.h **** #include <bits/c++config.h>
  60:/Library/DaisyToolchain/0.2.0/arm/arm-none-eabi/include/c++/10.3.1/bits/stl_algobase.h **** #include <bits/functexcept.h>
  61:/Library/DaisyToolchain/0.2.0/arm/arm-none-eabi/include/c++/10.3.1/bits/stl_algobase.h **** #include <bits/cpp_type_traits.h>
  62:/Library/DaisyToolchain/0.2.0/arm/arm-none-eabi/include/c++/10.3.1/bits/stl_algobase.h **** #include <ext/type_traits.h>
  63:/Library/DaisyToolchain/0.2.0/arm/arm-none-eabi/include/c++/10.3.1/bits/stl_algobase.h **** #include <ext/numeric_traits.h>
  64:/Library/DaisyToolchain/0.2.0/arm/arm-none-eabi/include/c++/10.3.1/bits/stl_algobase.h **** #include <bits/stl_pair.h>
  65:/Library/DaisyToolchain/0.2.0/arm/arm-none-eabi/include/c++/10.3.1/bits/stl_algobase.h **** #include <bits/stl_iterator_base_types.h>
  66:/Library/DaisyToolchain/0.2.0/arm/arm-none-eabi/include/c++/10.3.1/bits/stl_algobase.h **** #include <bits/stl_iterator_base_funcs.h>
  67:/Library/DaisyToolchain/0.2.0/arm/arm-none-eabi/include/c++/10.3.1/bits/stl_algobase.h **** #include <bits/stl_iterator.h>
  68:/Library/DaisyToolchain/0.2.0/arm/arm-none-eabi/include/c++/10.3.1/bits/stl_algobase.h **** #include <bits/concept_check.h>
  69:/Library/DaisyToolchain/0.2.0/arm/arm-none-eabi/include/c++/10.3.1/bits/stl_algobase.h **** #include <debug/debug.h>
  70:/Library/DaisyToolchain/0.2.0/arm/arm-none-eabi/include/c++/10.3.1/bits/stl_algobase.h **** #include <bits/move.h> // For std::swap
  71:/Library/DaisyToolchain/0.2.0/arm/arm-none-eabi/include/c++/10.3.1/bits/stl_algobase.h **** #include <bits/predefined_ops.h>
  72:/Library/DaisyToolchain/0.2.0/arm/arm-none-eabi/include/c++/10.3.1/bits/stl_algobase.h **** #if __cplusplus >= 201103L
  73:/Library/DaisyToolchain/0.2.0/arm/arm-none-eabi/include/c++/10.3.1/bits/stl_algobase.h **** # include <type_traits>
  74:/Library/DaisyToolchain/0.2.0/arm/arm-none-eabi/include/c++/10.3.1/bits/stl_algobase.h **** #endif
  75:/Library/DaisyToolchain/0.2.0/arm/arm-none-eabi/include/c++/10.3.1/bits/stl_algobase.h **** #if __cplusplus > 201703L
  76:/Library/DaisyToolchain/0.2.0/arm/arm-none-eabi/include/c++/10.3.1/bits/stl_algobase.h **** # include <compare>
  77:/Library/DaisyToolchain/0.2.0/arm/arm-none-eabi/include/c++/10.3.1/bits/stl_algobase.h **** #endif
  78:/Library/DaisyToolchain/0.2.0/arm/arm-none-eabi/include/c++/10.3.1/bits/stl_algobase.h **** 
  79:/Library/DaisyToolchain/0.2.0/arm/arm-none-eabi/include/c++/10.3.1/bits/stl_algobase.h **** namespace std _GLIBCXX_VISIBILITY(default)
  80:/Library/DaisyToolchain/0.2.0/arm/arm-none-eabi/include/c++/10.3.1/bits/stl_algobase.h **** {
  81:/Library/DaisyToolchain/0.2.0/arm/arm-none-eabi/include/c++/10.3.1/bits/stl_algobase.h **** _GLIBCXX_BEGIN_NAMESPACE_VERSION
  82:/Library/DaisyToolchain/0.2.0/arm/arm-none-eabi/include/c++/10.3.1/bits/stl_algobase.h **** 
  83:/Library/DaisyToolchain/0.2.0/arm/arm-none-eabi/include/c++/10.3.1/bits/stl_algobase.h ****   /*
  84:/Library/DaisyToolchain/0.2.0/arm/arm-none-eabi/include/c++/10.3.1/bits/stl_algobase.h ****    * A constexpr wrapper for __builtin_memcmp.
  85:/Library/DaisyToolchain/0.2.0/arm/arm-none-eabi/include/c++/10.3.1/bits/stl_algobase.h ****    * @param __num The number of elements of type _Tp (not bytes).
  86:/Library/DaisyToolchain/0.2.0/arm/arm-none-eabi/include/c++/10.3.1/bits/stl_algobase.h ****    */
  87:/Library/DaisyToolchain/0.2.0/arm/arm-none-eabi/include/c++/10.3.1/bits/stl_algobase.h ****   template<typename _Tp, typename _Up>
  88:/Library/DaisyToolchain/0.2.0/arm/arm-none-eabi/include/c++/10.3.1/bits/stl_algobase.h ****     _GLIBCXX14_CONSTEXPR
  89:/Library/DaisyToolchain/0.2.0/arm/arm-none-eabi/include/c++/10.3.1/bits/stl_algobase.h ****     inline int
  90:/Library/DaisyToolchain/0.2.0/arm/arm-none-eabi/include/c++/10.3.1/bits/stl_algobase.h ****     __memcmp(const _Tp* __first1, const _Up* __first2, size_t __num)
  91:/Library/DaisyToolchain/0.2.0/arm/arm-none-eabi/include/c++/10.3.1/bits/stl_algobase.h ****     {
  92:/Library/DaisyToolchain/0.2.0/arm/arm-none-eabi/include/c++/10.3.1/bits/stl_algobase.h **** #if __cplusplus >= 201103L
  93:/Library/DaisyToolchain/0.2.0/arm/arm-none-eabi/include/c++/10.3.1/bits/stl_algobase.h ****       static_assert(sizeof(_Tp) == sizeof(_Up), "can be compared with memcmp");
  94:/Library/DaisyToolchain/0.2.0/arm/arm-none-eabi/include/c++/10.3.1/bits/stl_algobase.h **** #endif
  95:/Library/DaisyToolchain/0.2.0/arm/arm-none-eabi/include/c++/10.3.1/bits/stl_algobase.h **** #ifdef __cpp_lib_is_constant_evaluated
  96:/Library/DaisyToolchain/0.2.0/arm/arm-none-eabi/include/c++/10.3.1/bits/stl_algobase.h ****       if (std::is_constant_evaluated())
  97:/Library/DaisyToolchain/0.2.0/arm/arm-none-eabi/include/c++/10.3.1/bits/stl_algobase.h **** 	{
  98:/Library/DaisyToolchain/0.2.0/arm/arm-none-eabi/include/c++/10.3.1/bits/stl_algobase.h **** 	  for(; __num > 0; ++__first1, ++__first2, --__num)
  99:/Library/DaisyToolchain/0.2.0/arm/arm-none-eabi/include/c++/10.3.1/bits/stl_algobase.h **** 	    if (*__first1 != *__first2)
 100:/Library/DaisyToolchain/0.2.0/arm/arm-none-eabi/include/c++/10.3.1/bits/stl_algobase.h **** 	      return *__first1 < *__first2 ? -1 : 1;
 101:/Library/DaisyToolchain/0.2.0/arm/arm-none-eabi/include/c++/10.3.1/bits/stl_algobase.h **** 	  return 0;
 102:/Library/DaisyToolchain/0.2.0/arm/arm-none-eabi/include/c++/10.3.1/bits/stl_algobase.h **** 	}
 103:/Library/DaisyToolchain/0.2.0/arm/arm-none-eabi/include/c++/10.3.1/bits/stl_algobase.h ****       else
 104:/Library/DaisyToolchain/0.2.0/arm/arm-none-eabi/include/c++/10.3.1/bits/stl_algobase.h **** #endif
 105:/Library/DaisyToolchain/0.2.0/arm/arm-none-eabi/include/c++/10.3.1/bits/stl_algobase.h **** 	return __builtin_memcmp(__first1, __first2, sizeof(_Tp) * __num);
 106:/Library/DaisyToolchain/0.2.0/arm/arm-none-eabi/include/c++/10.3.1/bits/stl_algobase.h ****     }
ARM GAS  /var/folders/hl/qgbwny5j0fd895c2c41bk3tw0000gp/T//ccEG44Zu.s 			page 152


 107:/Library/DaisyToolchain/0.2.0/arm/arm-none-eabi/include/c++/10.3.1/bits/stl_algobase.h **** 
 108:/Library/DaisyToolchain/0.2.0/arm/arm-none-eabi/include/c++/10.3.1/bits/stl_algobase.h **** #if __cplusplus < 201103L
 109:/Library/DaisyToolchain/0.2.0/arm/arm-none-eabi/include/c++/10.3.1/bits/stl_algobase.h ****   // See http://gcc.gnu.org/ml/libstdc++/2004-08/msg00167.html: in a
 110:/Library/DaisyToolchain/0.2.0/arm/arm-none-eabi/include/c++/10.3.1/bits/stl_algobase.h ****   // nutshell, we are partially implementing the resolution of DR 187,
 111:/Library/DaisyToolchain/0.2.0/arm/arm-none-eabi/include/c++/10.3.1/bits/stl_algobase.h ****   // when it's safe, i.e., the value_types are equal.
 112:/Library/DaisyToolchain/0.2.0/arm/arm-none-eabi/include/c++/10.3.1/bits/stl_algobase.h ****   template<bool _BoolType>
 113:/Library/DaisyToolchain/0.2.0/arm/arm-none-eabi/include/c++/10.3.1/bits/stl_algobase.h ****     struct __iter_swap
 114:/Library/DaisyToolchain/0.2.0/arm/arm-none-eabi/include/c++/10.3.1/bits/stl_algobase.h ****     {
 115:/Library/DaisyToolchain/0.2.0/arm/arm-none-eabi/include/c++/10.3.1/bits/stl_algobase.h ****       template<typename _ForwardIterator1, typename _ForwardIterator2>
 116:/Library/DaisyToolchain/0.2.0/arm/arm-none-eabi/include/c++/10.3.1/bits/stl_algobase.h **** 	static void
 117:/Library/DaisyToolchain/0.2.0/arm/arm-none-eabi/include/c++/10.3.1/bits/stl_algobase.h **** 	iter_swap(_ForwardIterator1 __a, _ForwardIterator2 __b)
 118:/Library/DaisyToolchain/0.2.0/arm/arm-none-eabi/include/c++/10.3.1/bits/stl_algobase.h **** 	{
 119:/Library/DaisyToolchain/0.2.0/arm/arm-none-eabi/include/c++/10.3.1/bits/stl_algobase.h **** 	  typedef typename iterator_traits<_ForwardIterator1>::value_type
 120:/Library/DaisyToolchain/0.2.0/arm/arm-none-eabi/include/c++/10.3.1/bits/stl_algobase.h **** 	    _ValueType1;
 121:/Library/DaisyToolchain/0.2.0/arm/arm-none-eabi/include/c++/10.3.1/bits/stl_algobase.h **** 	  _ValueType1 __tmp = *__a;
 122:/Library/DaisyToolchain/0.2.0/arm/arm-none-eabi/include/c++/10.3.1/bits/stl_algobase.h **** 	  *__a = *__b;
 123:/Library/DaisyToolchain/0.2.0/arm/arm-none-eabi/include/c++/10.3.1/bits/stl_algobase.h **** 	  *__b = __tmp;
 124:/Library/DaisyToolchain/0.2.0/arm/arm-none-eabi/include/c++/10.3.1/bits/stl_algobase.h **** 	}
 125:/Library/DaisyToolchain/0.2.0/arm/arm-none-eabi/include/c++/10.3.1/bits/stl_algobase.h ****     };
 126:/Library/DaisyToolchain/0.2.0/arm/arm-none-eabi/include/c++/10.3.1/bits/stl_algobase.h **** 
 127:/Library/DaisyToolchain/0.2.0/arm/arm-none-eabi/include/c++/10.3.1/bits/stl_algobase.h ****   template<>
 128:/Library/DaisyToolchain/0.2.0/arm/arm-none-eabi/include/c++/10.3.1/bits/stl_algobase.h ****     struct __iter_swap<true>
 129:/Library/DaisyToolchain/0.2.0/arm/arm-none-eabi/include/c++/10.3.1/bits/stl_algobase.h ****     {
 130:/Library/DaisyToolchain/0.2.0/arm/arm-none-eabi/include/c++/10.3.1/bits/stl_algobase.h ****       template<typename _ForwardIterator1, typename _ForwardIterator2>
 131:/Library/DaisyToolchain/0.2.0/arm/arm-none-eabi/include/c++/10.3.1/bits/stl_algobase.h **** 	static void
 132:/Library/DaisyToolchain/0.2.0/arm/arm-none-eabi/include/c++/10.3.1/bits/stl_algobase.h **** 	iter_swap(_ForwardIterator1 __a, _ForwardIterator2 __b)
 133:/Library/DaisyToolchain/0.2.0/arm/arm-none-eabi/include/c++/10.3.1/bits/stl_algobase.h **** 	{
 134:/Library/DaisyToolchain/0.2.0/arm/arm-none-eabi/include/c++/10.3.1/bits/stl_algobase.h **** 	  swap(*__a, *__b);
 135:/Library/DaisyToolchain/0.2.0/arm/arm-none-eabi/include/c++/10.3.1/bits/stl_algobase.h **** 	}
 136:/Library/DaisyToolchain/0.2.0/arm/arm-none-eabi/include/c++/10.3.1/bits/stl_algobase.h ****     };
 137:/Library/DaisyToolchain/0.2.0/arm/arm-none-eabi/include/c++/10.3.1/bits/stl_algobase.h **** #endif // C++03
 138:/Library/DaisyToolchain/0.2.0/arm/arm-none-eabi/include/c++/10.3.1/bits/stl_algobase.h **** 
 139:/Library/DaisyToolchain/0.2.0/arm/arm-none-eabi/include/c++/10.3.1/bits/stl_algobase.h ****   /**
 140:/Library/DaisyToolchain/0.2.0/arm/arm-none-eabi/include/c++/10.3.1/bits/stl_algobase.h ****    *  @brief Swaps the contents of two iterators.
 141:/Library/DaisyToolchain/0.2.0/arm/arm-none-eabi/include/c++/10.3.1/bits/stl_algobase.h ****    *  @ingroup mutating_algorithms
 142:/Library/DaisyToolchain/0.2.0/arm/arm-none-eabi/include/c++/10.3.1/bits/stl_algobase.h ****    *  @param  __a  An iterator.
 143:/Library/DaisyToolchain/0.2.0/arm/arm-none-eabi/include/c++/10.3.1/bits/stl_algobase.h ****    *  @param  __b  Another iterator.
 144:/Library/DaisyToolchain/0.2.0/arm/arm-none-eabi/include/c++/10.3.1/bits/stl_algobase.h ****    *  @return   Nothing.
 145:/Library/DaisyToolchain/0.2.0/arm/arm-none-eabi/include/c++/10.3.1/bits/stl_algobase.h ****    *
 146:/Library/DaisyToolchain/0.2.0/arm/arm-none-eabi/include/c++/10.3.1/bits/stl_algobase.h ****    *  This function swaps the values pointed to by two iterators, not the
 147:/Library/DaisyToolchain/0.2.0/arm/arm-none-eabi/include/c++/10.3.1/bits/stl_algobase.h ****    *  iterators themselves.
 148:/Library/DaisyToolchain/0.2.0/arm/arm-none-eabi/include/c++/10.3.1/bits/stl_algobase.h ****   */
 149:/Library/DaisyToolchain/0.2.0/arm/arm-none-eabi/include/c++/10.3.1/bits/stl_algobase.h ****   template<typename _ForwardIterator1, typename _ForwardIterator2>
 150:/Library/DaisyToolchain/0.2.0/arm/arm-none-eabi/include/c++/10.3.1/bits/stl_algobase.h ****     _GLIBCXX20_CONSTEXPR
 151:/Library/DaisyToolchain/0.2.0/arm/arm-none-eabi/include/c++/10.3.1/bits/stl_algobase.h ****     inline void
 152:/Library/DaisyToolchain/0.2.0/arm/arm-none-eabi/include/c++/10.3.1/bits/stl_algobase.h ****     iter_swap(_ForwardIterator1 __a, _ForwardIterator2 __b)
 153:/Library/DaisyToolchain/0.2.0/arm/arm-none-eabi/include/c++/10.3.1/bits/stl_algobase.h ****     {
 154:/Library/DaisyToolchain/0.2.0/arm/arm-none-eabi/include/c++/10.3.1/bits/stl_algobase.h ****       // concept requirements
 155:/Library/DaisyToolchain/0.2.0/arm/arm-none-eabi/include/c++/10.3.1/bits/stl_algobase.h ****       __glibcxx_function_requires(_Mutable_ForwardIteratorConcept<
 156:/Library/DaisyToolchain/0.2.0/arm/arm-none-eabi/include/c++/10.3.1/bits/stl_algobase.h **** 				  _ForwardIterator1>)
 157:/Library/DaisyToolchain/0.2.0/arm/arm-none-eabi/include/c++/10.3.1/bits/stl_algobase.h ****       __glibcxx_function_requires(_Mutable_ForwardIteratorConcept<
 158:/Library/DaisyToolchain/0.2.0/arm/arm-none-eabi/include/c++/10.3.1/bits/stl_algobase.h **** 				  _ForwardIterator2>)
 159:/Library/DaisyToolchain/0.2.0/arm/arm-none-eabi/include/c++/10.3.1/bits/stl_algobase.h **** 
 160:/Library/DaisyToolchain/0.2.0/arm/arm-none-eabi/include/c++/10.3.1/bits/stl_algobase.h **** #if __cplusplus < 201103L
 161:/Library/DaisyToolchain/0.2.0/arm/arm-none-eabi/include/c++/10.3.1/bits/stl_algobase.h ****       typedef typename iterator_traits<_ForwardIterator1>::value_type
 162:/Library/DaisyToolchain/0.2.0/arm/arm-none-eabi/include/c++/10.3.1/bits/stl_algobase.h **** 	_ValueType1;
 163:/Library/DaisyToolchain/0.2.0/arm/arm-none-eabi/include/c++/10.3.1/bits/stl_algobase.h ****       typedef typename iterator_traits<_ForwardIterator2>::value_type
ARM GAS  /var/folders/hl/qgbwny5j0fd895c2c41bk3tw0000gp/T//ccEG44Zu.s 			page 153


 164:/Library/DaisyToolchain/0.2.0/arm/arm-none-eabi/include/c++/10.3.1/bits/stl_algobase.h **** 	_ValueType2;
 165:/Library/DaisyToolchain/0.2.0/arm/arm-none-eabi/include/c++/10.3.1/bits/stl_algobase.h **** 
 166:/Library/DaisyToolchain/0.2.0/arm/arm-none-eabi/include/c++/10.3.1/bits/stl_algobase.h ****       __glibcxx_function_requires(_ConvertibleConcept<_ValueType1,
 167:/Library/DaisyToolchain/0.2.0/arm/arm-none-eabi/include/c++/10.3.1/bits/stl_algobase.h **** 				  _ValueType2>)
 168:/Library/DaisyToolchain/0.2.0/arm/arm-none-eabi/include/c++/10.3.1/bits/stl_algobase.h ****       __glibcxx_function_requires(_ConvertibleConcept<_ValueType2,
 169:/Library/DaisyToolchain/0.2.0/arm/arm-none-eabi/include/c++/10.3.1/bits/stl_algobase.h **** 				  _ValueType1>)
 170:/Library/DaisyToolchain/0.2.0/arm/arm-none-eabi/include/c++/10.3.1/bits/stl_algobase.h **** 
 171:/Library/DaisyToolchain/0.2.0/arm/arm-none-eabi/include/c++/10.3.1/bits/stl_algobase.h ****       typedef typename iterator_traits<_ForwardIterator1>::reference
 172:/Library/DaisyToolchain/0.2.0/arm/arm-none-eabi/include/c++/10.3.1/bits/stl_algobase.h **** 	_ReferenceType1;
 173:/Library/DaisyToolchain/0.2.0/arm/arm-none-eabi/include/c++/10.3.1/bits/stl_algobase.h ****       typedef typename iterator_traits<_ForwardIterator2>::reference
 174:/Library/DaisyToolchain/0.2.0/arm/arm-none-eabi/include/c++/10.3.1/bits/stl_algobase.h **** 	_ReferenceType2;
 175:/Library/DaisyToolchain/0.2.0/arm/arm-none-eabi/include/c++/10.3.1/bits/stl_algobase.h ****       std::__iter_swap<__are_same<_ValueType1, _ValueType2>::__value
 176:/Library/DaisyToolchain/0.2.0/arm/arm-none-eabi/include/c++/10.3.1/bits/stl_algobase.h **** 	&& __are_same<_ValueType1&, _ReferenceType1>::__value
 177:/Library/DaisyToolchain/0.2.0/arm/arm-none-eabi/include/c++/10.3.1/bits/stl_algobase.h **** 	&& __are_same<_ValueType2&, _ReferenceType2>::__value>::
 178:/Library/DaisyToolchain/0.2.0/arm/arm-none-eabi/include/c++/10.3.1/bits/stl_algobase.h **** 	iter_swap(__a, __b);
 179:/Library/DaisyToolchain/0.2.0/arm/arm-none-eabi/include/c++/10.3.1/bits/stl_algobase.h **** #else
 180:/Library/DaisyToolchain/0.2.0/arm/arm-none-eabi/include/c++/10.3.1/bits/stl_algobase.h ****       // _GLIBCXX_RESOLVE_LIB_DEFECTS
 181:/Library/DaisyToolchain/0.2.0/arm/arm-none-eabi/include/c++/10.3.1/bits/stl_algobase.h ****       // 187. iter_swap underspecified
 182:/Library/DaisyToolchain/0.2.0/arm/arm-none-eabi/include/c++/10.3.1/bits/stl_algobase.h ****       swap(*__a, *__b);
 183:/Library/DaisyToolchain/0.2.0/arm/arm-none-eabi/include/c++/10.3.1/bits/stl_algobase.h **** #endif
 184:/Library/DaisyToolchain/0.2.0/arm/arm-none-eabi/include/c++/10.3.1/bits/stl_algobase.h ****     }
 185:/Library/DaisyToolchain/0.2.0/arm/arm-none-eabi/include/c++/10.3.1/bits/stl_algobase.h **** 
 186:/Library/DaisyToolchain/0.2.0/arm/arm-none-eabi/include/c++/10.3.1/bits/stl_algobase.h ****   /**
 187:/Library/DaisyToolchain/0.2.0/arm/arm-none-eabi/include/c++/10.3.1/bits/stl_algobase.h ****    *  @brief Swap the elements of two sequences.
 188:/Library/DaisyToolchain/0.2.0/arm/arm-none-eabi/include/c++/10.3.1/bits/stl_algobase.h ****    *  @ingroup mutating_algorithms
 189:/Library/DaisyToolchain/0.2.0/arm/arm-none-eabi/include/c++/10.3.1/bits/stl_algobase.h ****    *  @param  __first1  A forward iterator.
 190:/Library/DaisyToolchain/0.2.0/arm/arm-none-eabi/include/c++/10.3.1/bits/stl_algobase.h ****    *  @param  __last1   A forward iterator.
 191:/Library/DaisyToolchain/0.2.0/arm/arm-none-eabi/include/c++/10.3.1/bits/stl_algobase.h ****    *  @param  __first2  A forward iterator.
 192:/Library/DaisyToolchain/0.2.0/arm/arm-none-eabi/include/c++/10.3.1/bits/stl_algobase.h ****    *  @return   An iterator equal to @p first2+(last1-first1).
 193:/Library/DaisyToolchain/0.2.0/arm/arm-none-eabi/include/c++/10.3.1/bits/stl_algobase.h ****    *
 194:/Library/DaisyToolchain/0.2.0/arm/arm-none-eabi/include/c++/10.3.1/bits/stl_algobase.h ****    *  Swaps each element in the range @p [first1,last1) with the
 195:/Library/DaisyToolchain/0.2.0/arm/arm-none-eabi/include/c++/10.3.1/bits/stl_algobase.h ****    *  corresponding element in the range @p [first2,(last1-first1)).
 196:/Library/DaisyToolchain/0.2.0/arm/arm-none-eabi/include/c++/10.3.1/bits/stl_algobase.h ****    *  The ranges must not overlap.
 197:/Library/DaisyToolchain/0.2.0/arm/arm-none-eabi/include/c++/10.3.1/bits/stl_algobase.h ****   */
 198:/Library/DaisyToolchain/0.2.0/arm/arm-none-eabi/include/c++/10.3.1/bits/stl_algobase.h ****   template<typename _ForwardIterator1, typename _ForwardIterator2>
 199:/Library/DaisyToolchain/0.2.0/arm/arm-none-eabi/include/c++/10.3.1/bits/stl_algobase.h ****     _GLIBCXX20_CONSTEXPR
 200:/Library/DaisyToolchain/0.2.0/arm/arm-none-eabi/include/c++/10.3.1/bits/stl_algobase.h ****     _ForwardIterator2
 201:/Library/DaisyToolchain/0.2.0/arm/arm-none-eabi/include/c++/10.3.1/bits/stl_algobase.h ****     swap_ranges(_ForwardIterator1 __first1, _ForwardIterator1 __last1,
 202:/Library/DaisyToolchain/0.2.0/arm/arm-none-eabi/include/c++/10.3.1/bits/stl_algobase.h **** 		_ForwardIterator2 __first2)
 203:/Library/DaisyToolchain/0.2.0/arm/arm-none-eabi/include/c++/10.3.1/bits/stl_algobase.h ****     {
 204:/Library/DaisyToolchain/0.2.0/arm/arm-none-eabi/include/c++/10.3.1/bits/stl_algobase.h ****       // concept requirements
 205:/Library/DaisyToolchain/0.2.0/arm/arm-none-eabi/include/c++/10.3.1/bits/stl_algobase.h ****       __glibcxx_function_requires(_Mutable_ForwardIteratorConcept<
 206:/Library/DaisyToolchain/0.2.0/arm/arm-none-eabi/include/c++/10.3.1/bits/stl_algobase.h **** 				  _ForwardIterator1>)
 207:/Library/DaisyToolchain/0.2.0/arm/arm-none-eabi/include/c++/10.3.1/bits/stl_algobase.h ****       __glibcxx_function_requires(_Mutable_ForwardIteratorConcept<
 208:/Library/DaisyToolchain/0.2.0/arm/arm-none-eabi/include/c++/10.3.1/bits/stl_algobase.h **** 				  _ForwardIterator2>)
 209:/Library/DaisyToolchain/0.2.0/arm/arm-none-eabi/include/c++/10.3.1/bits/stl_algobase.h ****       __glibcxx_requires_valid_range(__first1, __last1);
 210:/Library/DaisyToolchain/0.2.0/arm/arm-none-eabi/include/c++/10.3.1/bits/stl_algobase.h **** 
 211:/Library/DaisyToolchain/0.2.0/arm/arm-none-eabi/include/c++/10.3.1/bits/stl_algobase.h ****       for (; __first1 != __last1; ++__first1, (void)++__first2)
 212:/Library/DaisyToolchain/0.2.0/arm/arm-none-eabi/include/c++/10.3.1/bits/stl_algobase.h **** 	std::iter_swap(__first1, __first2);
 213:/Library/DaisyToolchain/0.2.0/arm/arm-none-eabi/include/c++/10.3.1/bits/stl_algobase.h ****       return __first2;
 214:/Library/DaisyToolchain/0.2.0/arm/arm-none-eabi/include/c++/10.3.1/bits/stl_algobase.h ****     }
 215:/Library/DaisyToolchain/0.2.0/arm/arm-none-eabi/include/c++/10.3.1/bits/stl_algobase.h **** 
 216:/Library/DaisyToolchain/0.2.0/arm/arm-none-eabi/include/c++/10.3.1/bits/stl_algobase.h ****   /**
 217:/Library/DaisyToolchain/0.2.0/arm/arm-none-eabi/include/c++/10.3.1/bits/stl_algobase.h ****    *  @brief This does what you think it does.
 218:/Library/DaisyToolchain/0.2.0/arm/arm-none-eabi/include/c++/10.3.1/bits/stl_algobase.h ****    *  @ingroup sorting_algorithms
 219:/Library/DaisyToolchain/0.2.0/arm/arm-none-eabi/include/c++/10.3.1/bits/stl_algobase.h ****    *  @param  __a  A thing of arbitrary type.
 220:/Library/DaisyToolchain/0.2.0/arm/arm-none-eabi/include/c++/10.3.1/bits/stl_algobase.h ****    *  @param  __b  Another thing of arbitrary type.
ARM GAS  /var/folders/hl/qgbwny5j0fd895c2c41bk3tw0000gp/T//ccEG44Zu.s 			page 154


 221:/Library/DaisyToolchain/0.2.0/arm/arm-none-eabi/include/c++/10.3.1/bits/stl_algobase.h ****    *  @return   The lesser of the parameters.
 222:/Library/DaisyToolchain/0.2.0/arm/arm-none-eabi/include/c++/10.3.1/bits/stl_algobase.h ****    *
 223:/Library/DaisyToolchain/0.2.0/arm/arm-none-eabi/include/c++/10.3.1/bits/stl_algobase.h ****    *  This is the simple classic generic implementation.  It will work on
 224:/Library/DaisyToolchain/0.2.0/arm/arm-none-eabi/include/c++/10.3.1/bits/stl_algobase.h ****    *  temporary expressions, since they are only evaluated once, unlike a
 225:/Library/DaisyToolchain/0.2.0/arm/arm-none-eabi/include/c++/10.3.1/bits/stl_algobase.h ****    *  preprocessor macro.
 226:/Library/DaisyToolchain/0.2.0/arm/arm-none-eabi/include/c++/10.3.1/bits/stl_algobase.h ****   */
 227:/Library/DaisyToolchain/0.2.0/arm/arm-none-eabi/include/c++/10.3.1/bits/stl_algobase.h ****   template<typename _Tp>
 228:/Library/DaisyToolchain/0.2.0/arm/arm-none-eabi/include/c++/10.3.1/bits/stl_algobase.h ****     _GLIBCXX14_CONSTEXPR
 229:/Library/DaisyToolchain/0.2.0/arm/arm-none-eabi/include/c++/10.3.1/bits/stl_algobase.h ****     inline const _Tp&
 230:/Library/DaisyToolchain/0.2.0/arm/arm-none-eabi/include/c++/10.3.1/bits/stl_algobase.h ****     min(const _Tp& __a, const _Tp& __b)
 231:/Library/DaisyToolchain/0.2.0/arm/arm-none-eabi/include/c++/10.3.1/bits/stl_algobase.h ****     {
 232:/Library/DaisyToolchain/0.2.0/arm/arm-none-eabi/include/c++/10.3.1/bits/stl_algobase.h ****       // concept requirements
 233:/Library/DaisyToolchain/0.2.0/arm/arm-none-eabi/include/c++/10.3.1/bits/stl_algobase.h ****       __glibcxx_function_requires(_LessThanComparableConcept<_Tp>)
 234:/Library/DaisyToolchain/0.2.0/arm/arm-none-eabi/include/c++/10.3.1/bits/stl_algobase.h ****       //return __b < __a ? __b : __a;
 235:/Library/DaisyToolchain/0.2.0/arm/arm-none-eabi/include/c++/10.3.1/bits/stl_algobase.h ****       if (__b < __a)
 236:/Library/DaisyToolchain/0.2.0/arm/arm-none-eabi/include/c++/10.3.1/bits/stl_algobase.h **** 	return __b;
 237:/Library/DaisyToolchain/0.2.0/arm/arm-none-eabi/include/c++/10.3.1/bits/stl_algobase.h ****       return __a;
 238:/Library/DaisyToolchain/0.2.0/arm/arm-none-eabi/include/c++/10.3.1/bits/stl_algobase.h ****     }
 239:/Library/DaisyToolchain/0.2.0/arm/arm-none-eabi/include/c++/10.3.1/bits/stl_algobase.h **** 
 240:/Library/DaisyToolchain/0.2.0/arm/arm-none-eabi/include/c++/10.3.1/bits/stl_algobase.h ****   /**
 241:/Library/DaisyToolchain/0.2.0/arm/arm-none-eabi/include/c++/10.3.1/bits/stl_algobase.h ****    *  @brief This does what you think it does.
 242:/Library/DaisyToolchain/0.2.0/arm/arm-none-eabi/include/c++/10.3.1/bits/stl_algobase.h ****    *  @ingroup sorting_algorithms
 243:/Library/DaisyToolchain/0.2.0/arm/arm-none-eabi/include/c++/10.3.1/bits/stl_algobase.h ****    *  @param  __a  A thing of arbitrary type.
 244:/Library/DaisyToolchain/0.2.0/arm/arm-none-eabi/include/c++/10.3.1/bits/stl_algobase.h ****    *  @param  __b  Another thing of arbitrary type.
 245:/Library/DaisyToolchain/0.2.0/arm/arm-none-eabi/include/c++/10.3.1/bits/stl_algobase.h ****    *  @return   The greater of the parameters.
 246:/Library/DaisyToolchain/0.2.0/arm/arm-none-eabi/include/c++/10.3.1/bits/stl_algobase.h ****    *
 247:/Library/DaisyToolchain/0.2.0/arm/arm-none-eabi/include/c++/10.3.1/bits/stl_algobase.h ****    *  This is the simple classic generic implementation.  It will work on
 248:/Library/DaisyToolchain/0.2.0/arm/arm-none-eabi/include/c++/10.3.1/bits/stl_algobase.h ****    *  temporary expressions, since they are only evaluated once, unlike a
 249:/Library/DaisyToolchain/0.2.0/arm/arm-none-eabi/include/c++/10.3.1/bits/stl_algobase.h ****    *  preprocessor macro.
 250:/Library/DaisyToolchain/0.2.0/arm/arm-none-eabi/include/c++/10.3.1/bits/stl_algobase.h ****   */
 251:/Library/DaisyToolchain/0.2.0/arm/arm-none-eabi/include/c++/10.3.1/bits/stl_algobase.h ****   template<typename _Tp>
 252:/Library/DaisyToolchain/0.2.0/arm/arm-none-eabi/include/c++/10.3.1/bits/stl_algobase.h ****     _GLIBCXX14_CONSTEXPR
 253:/Library/DaisyToolchain/0.2.0/arm/arm-none-eabi/include/c++/10.3.1/bits/stl_algobase.h ****     inline const _Tp&
 254:/Library/DaisyToolchain/0.2.0/arm/arm-none-eabi/include/c++/10.3.1/bits/stl_algobase.h ****     max(const _Tp& __a, const _Tp& __b)
 255:/Library/DaisyToolchain/0.2.0/arm/arm-none-eabi/include/c++/10.3.1/bits/stl_algobase.h ****     {
 256:/Library/DaisyToolchain/0.2.0/arm/arm-none-eabi/include/c++/10.3.1/bits/stl_algobase.h ****       // concept requirements
 257:/Library/DaisyToolchain/0.2.0/arm/arm-none-eabi/include/c++/10.3.1/bits/stl_algobase.h ****       __glibcxx_function_requires(_LessThanComparableConcept<_Tp>)
 258:/Library/DaisyToolchain/0.2.0/arm/arm-none-eabi/include/c++/10.3.1/bits/stl_algobase.h ****       //return  __a < __b ? __b : __a;
 259:/Library/DaisyToolchain/0.2.0/arm/arm-none-eabi/include/c++/10.3.1/bits/stl_algobase.h ****       if (__a < __b)
 260:/Library/DaisyToolchain/0.2.0/arm/arm-none-eabi/include/c++/10.3.1/bits/stl_algobase.h **** 	return __b;
 261:/Library/DaisyToolchain/0.2.0/arm/arm-none-eabi/include/c++/10.3.1/bits/stl_algobase.h ****       return __a;
 262:/Library/DaisyToolchain/0.2.0/arm/arm-none-eabi/include/c++/10.3.1/bits/stl_algobase.h ****     }
 263:/Library/DaisyToolchain/0.2.0/arm/arm-none-eabi/include/c++/10.3.1/bits/stl_algobase.h **** 
 264:/Library/DaisyToolchain/0.2.0/arm/arm-none-eabi/include/c++/10.3.1/bits/stl_algobase.h ****   /**
 265:/Library/DaisyToolchain/0.2.0/arm/arm-none-eabi/include/c++/10.3.1/bits/stl_algobase.h ****    *  @brief This does what you think it does.
 266:/Library/DaisyToolchain/0.2.0/arm/arm-none-eabi/include/c++/10.3.1/bits/stl_algobase.h ****    *  @ingroup sorting_algorithms
 267:/Library/DaisyToolchain/0.2.0/arm/arm-none-eabi/include/c++/10.3.1/bits/stl_algobase.h ****    *  @param  __a  A thing of arbitrary type.
 268:/Library/DaisyToolchain/0.2.0/arm/arm-none-eabi/include/c++/10.3.1/bits/stl_algobase.h ****    *  @param  __b  Another thing of arbitrary type.
 269:/Library/DaisyToolchain/0.2.0/arm/arm-none-eabi/include/c++/10.3.1/bits/stl_algobase.h ****    *  @param  __comp  A @link comparison_functors comparison functor@endlink.
 270:/Library/DaisyToolchain/0.2.0/arm/arm-none-eabi/include/c++/10.3.1/bits/stl_algobase.h ****    *  @return   The lesser of the parameters.
 271:/Library/DaisyToolchain/0.2.0/arm/arm-none-eabi/include/c++/10.3.1/bits/stl_algobase.h ****    *
 272:/Library/DaisyToolchain/0.2.0/arm/arm-none-eabi/include/c++/10.3.1/bits/stl_algobase.h ****    *  This will work on temporary expressions, since they are only evaluated
 273:/Library/DaisyToolchain/0.2.0/arm/arm-none-eabi/include/c++/10.3.1/bits/stl_algobase.h ****    *  once, unlike a preprocessor macro.
 274:/Library/DaisyToolchain/0.2.0/arm/arm-none-eabi/include/c++/10.3.1/bits/stl_algobase.h ****   */
 275:/Library/DaisyToolchain/0.2.0/arm/arm-none-eabi/include/c++/10.3.1/bits/stl_algobase.h ****   template<typename _Tp, typename _Compare>
 276:/Library/DaisyToolchain/0.2.0/arm/arm-none-eabi/include/c++/10.3.1/bits/stl_algobase.h ****     _GLIBCXX14_CONSTEXPR
 277:/Library/DaisyToolchain/0.2.0/arm/arm-none-eabi/include/c++/10.3.1/bits/stl_algobase.h ****     inline const _Tp&
ARM GAS  /var/folders/hl/qgbwny5j0fd895c2c41bk3tw0000gp/T//ccEG44Zu.s 			page 155


 278:/Library/DaisyToolchain/0.2.0/arm/arm-none-eabi/include/c++/10.3.1/bits/stl_algobase.h ****     min(const _Tp& __a, const _Tp& __b, _Compare __comp)
 279:/Library/DaisyToolchain/0.2.0/arm/arm-none-eabi/include/c++/10.3.1/bits/stl_algobase.h ****     {
 280:/Library/DaisyToolchain/0.2.0/arm/arm-none-eabi/include/c++/10.3.1/bits/stl_algobase.h ****       //return __comp(__b, __a) ? __b : __a;
 281:/Library/DaisyToolchain/0.2.0/arm/arm-none-eabi/include/c++/10.3.1/bits/stl_algobase.h ****       if (__comp(__b, __a))
 282:/Library/DaisyToolchain/0.2.0/arm/arm-none-eabi/include/c++/10.3.1/bits/stl_algobase.h **** 	return __b;
 283:/Library/DaisyToolchain/0.2.0/arm/arm-none-eabi/include/c++/10.3.1/bits/stl_algobase.h ****       return __a;
 284:/Library/DaisyToolchain/0.2.0/arm/arm-none-eabi/include/c++/10.3.1/bits/stl_algobase.h ****     }
 285:/Library/DaisyToolchain/0.2.0/arm/arm-none-eabi/include/c++/10.3.1/bits/stl_algobase.h **** 
 286:/Library/DaisyToolchain/0.2.0/arm/arm-none-eabi/include/c++/10.3.1/bits/stl_algobase.h ****   /**
 287:/Library/DaisyToolchain/0.2.0/arm/arm-none-eabi/include/c++/10.3.1/bits/stl_algobase.h ****    *  @brief This does what you think it does.
 288:/Library/DaisyToolchain/0.2.0/arm/arm-none-eabi/include/c++/10.3.1/bits/stl_algobase.h ****    *  @ingroup sorting_algorithms
 289:/Library/DaisyToolchain/0.2.0/arm/arm-none-eabi/include/c++/10.3.1/bits/stl_algobase.h ****    *  @param  __a  A thing of arbitrary type.
 290:/Library/DaisyToolchain/0.2.0/arm/arm-none-eabi/include/c++/10.3.1/bits/stl_algobase.h ****    *  @param  __b  Another thing of arbitrary type.
 291:/Library/DaisyToolchain/0.2.0/arm/arm-none-eabi/include/c++/10.3.1/bits/stl_algobase.h ****    *  @param  __comp  A @link comparison_functors comparison functor@endlink.
 292:/Library/DaisyToolchain/0.2.0/arm/arm-none-eabi/include/c++/10.3.1/bits/stl_algobase.h ****    *  @return   The greater of the parameters.
 293:/Library/DaisyToolchain/0.2.0/arm/arm-none-eabi/include/c++/10.3.1/bits/stl_algobase.h ****    *
 294:/Library/DaisyToolchain/0.2.0/arm/arm-none-eabi/include/c++/10.3.1/bits/stl_algobase.h ****    *  This will work on temporary expressions, since they are only evaluated
 295:/Library/DaisyToolchain/0.2.0/arm/arm-none-eabi/include/c++/10.3.1/bits/stl_algobase.h ****    *  once, unlike a preprocessor macro.
 296:/Library/DaisyToolchain/0.2.0/arm/arm-none-eabi/include/c++/10.3.1/bits/stl_algobase.h ****   */
 297:/Library/DaisyToolchain/0.2.0/arm/arm-none-eabi/include/c++/10.3.1/bits/stl_algobase.h ****   template<typename _Tp, typename _Compare>
 298:/Library/DaisyToolchain/0.2.0/arm/arm-none-eabi/include/c++/10.3.1/bits/stl_algobase.h ****     _GLIBCXX14_CONSTEXPR
 299:/Library/DaisyToolchain/0.2.0/arm/arm-none-eabi/include/c++/10.3.1/bits/stl_algobase.h ****     inline const _Tp&
 300:/Library/DaisyToolchain/0.2.0/arm/arm-none-eabi/include/c++/10.3.1/bits/stl_algobase.h ****     max(const _Tp& __a, const _Tp& __b, _Compare __comp)
 301:/Library/DaisyToolchain/0.2.0/arm/arm-none-eabi/include/c++/10.3.1/bits/stl_algobase.h ****     {
 302:/Library/DaisyToolchain/0.2.0/arm/arm-none-eabi/include/c++/10.3.1/bits/stl_algobase.h ****       //return __comp(__a, __b) ? __b : __a;
 303:/Library/DaisyToolchain/0.2.0/arm/arm-none-eabi/include/c++/10.3.1/bits/stl_algobase.h ****       if (__comp(__a, __b))
 304:/Library/DaisyToolchain/0.2.0/arm/arm-none-eabi/include/c++/10.3.1/bits/stl_algobase.h **** 	return __b;
 305:/Library/DaisyToolchain/0.2.0/arm/arm-none-eabi/include/c++/10.3.1/bits/stl_algobase.h ****       return __a;
 306:/Library/DaisyToolchain/0.2.0/arm/arm-none-eabi/include/c++/10.3.1/bits/stl_algobase.h ****     }
 307:/Library/DaisyToolchain/0.2.0/arm/arm-none-eabi/include/c++/10.3.1/bits/stl_algobase.h **** 
 308:/Library/DaisyToolchain/0.2.0/arm/arm-none-eabi/include/c++/10.3.1/bits/stl_algobase.h ****   // Fallback implementation of the function in bits/stl_iterator.h used to
 309:/Library/DaisyToolchain/0.2.0/arm/arm-none-eabi/include/c++/10.3.1/bits/stl_algobase.h ****   // remove the __normal_iterator wrapper. See copy, fill, ...
 310:/Library/DaisyToolchain/0.2.0/arm/arm-none-eabi/include/c++/10.3.1/bits/stl_algobase.h ****   template<typename _Iterator>
 311:/Library/DaisyToolchain/0.2.0/arm/arm-none-eabi/include/c++/10.3.1/bits/stl_algobase.h ****     _GLIBCXX20_CONSTEXPR
 312:/Library/DaisyToolchain/0.2.0/arm/arm-none-eabi/include/c++/10.3.1/bits/stl_algobase.h ****     inline _Iterator
 313:/Library/DaisyToolchain/0.2.0/arm/arm-none-eabi/include/c++/10.3.1/bits/stl_algobase.h ****     __niter_base(_Iterator __it)
 314:/Library/DaisyToolchain/0.2.0/arm/arm-none-eabi/include/c++/10.3.1/bits/stl_algobase.h ****     _GLIBCXX_NOEXCEPT_IF(std::is_nothrow_copy_constructible<_Iterator>::value)
 315:/Library/DaisyToolchain/0.2.0/arm/arm-none-eabi/include/c++/10.3.1/bits/stl_algobase.h ****     { return __it; }
 316:/Library/DaisyToolchain/0.2.0/arm/arm-none-eabi/include/c++/10.3.1/bits/stl_algobase.h **** 
 317:/Library/DaisyToolchain/0.2.0/arm/arm-none-eabi/include/c++/10.3.1/bits/stl_algobase.h ****   // Reverse the __niter_base transformation to get a
 318:/Library/DaisyToolchain/0.2.0/arm/arm-none-eabi/include/c++/10.3.1/bits/stl_algobase.h ****   // __normal_iterator back again (this assumes that __normal_iterator
 319:/Library/DaisyToolchain/0.2.0/arm/arm-none-eabi/include/c++/10.3.1/bits/stl_algobase.h ****   // is only used to wrap random access iterators, like pointers).
 320:/Library/DaisyToolchain/0.2.0/arm/arm-none-eabi/include/c++/10.3.1/bits/stl_algobase.h ****   template<typename _From, typename _To>
 321:/Library/DaisyToolchain/0.2.0/arm/arm-none-eabi/include/c++/10.3.1/bits/stl_algobase.h ****     _GLIBCXX20_CONSTEXPR
 322:/Library/DaisyToolchain/0.2.0/arm/arm-none-eabi/include/c++/10.3.1/bits/stl_algobase.h ****     inline _From
 323:/Library/DaisyToolchain/0.2.0/arm/arm-none-eabi/include/c++/10.3.1/bits/stl_algobase.h ****     __niter_wrap(_From __from, _To __res)
 324:/Library/DaisyToolchain/0.2.0/arm/arm-none-eabi/include/c++/10.3.1/bits/stl_algobase.h ****     { return __from + (__res - std::__niter_base(__from)); }
 325:/Library/DaisyToolchain/0.2.0/arm/arm-none-eabi/include/c++/10.3.1/bits/stl_algobase.h **** 
 326:/Library/DaisyToolchain/0.2.0/arm/arm-none-eabi/include/c++/10.3.1/bits/stl_algobase.h ****   // No need to wrap, iterator already has the right type.
 327:/Library/DaisyToolchain/0.2.0/arm/arm-none-eabi/include/c++/10.3.1/bits/stl_algobase.h ****   template<typename _Iterator>
 328:/Library/DaisyToolchain/0.2.0/arm/arm-none-eabi/include/c++/10.3.1/bits/stl_algobase.h ****     _GLIBCXX20_CONSTEXPR
 329:/Library/DaisyToolchain/0.2.0/arm/arm-none-eabi/include/c++/10.3.1/bits/stl_algobase.h ****     inline _Iterator
 330:/Library/DaisyToolchain/0.2.0/arm/arm-none-eabi/include/c++/10.3.1/bits/stl_algobase.h ****     __niter_wrap(const _Iterator&, _Iterator __res)
 331:/Library/DaisyToolchain/0.2.0/arm/arm-none-eabi/include/c++/10.3.1/bits/stl_algobase.h ****     { return __res; }
 332:/Library/DaisyToolchain/0.2.0/arm/arm-none-eabi/include/c++/10.3.1/bits/stl_algobase.h **** 
 333:/Library/DaisyToolchain/0.2.0/arm/arm-none-eabi/include/c++/10.3.1/bits/stl_algobase.h ****   // All of these auxiliary structs serve two purposes.  (1) Replace
 334:/Library/DaisyToolchain/0.2.0/arm/arm-none-eabi/include/c++/10.3.1/bits/stl_algobase.h ****   // calls to copy with memmove whenever possible.  (Memmove, not memcpy,
ARM GAS  /var/folders/hl/qgbwny5j0fd895c2c41bk3tw0000gp/T//ccEG44Zu.s 			page 156


 335:/Library/DaisyToolchain/0.2.0/arm/arm-none-eabi/include/c++/10.3.1/bits/stl_algobase.h ****   // because the input and output ranges are permitted to overlap.)
 336:/Library/DaisyToolchain/0.2.0/arm/arm-none-eabi/include/c++/10.3.1/bits/stl_algobase.h ****   // (2) If we're using random access iterators, then write the loop as
 337:/Library/DaisyToolchain/0.2.0/arm/arm-none-eabi/include/c++/10.3.1/bits/stl_algobase.h ****   // a for loop with an explicit count.
 338:/Library/DaisyToolchain/0.2.0/arm/arm-none-eabi/include/c++/10.3.1/bits/stl_algobase.h **** 
 339:/Library/DaisyToolchain/0.2.0/arm/arm-none-eabi/include/c++/10.3.1/bits/stl_algobase.h ****   template<bool _IsMove, bool _IsSimple, typename _Category>
 340:/Library/DaisyToolchain/0.2.0/arm/arm-none-eabi/include/c++/10.3.1/bits/stl_algobase.h ****     struct __copy_move
 341:/Library/DaisyToolchain/0.2.0/arm/arm-none-eabi/include/c++/10.3.1/bits/stl_algobase.h ****     {
 342:/Library/DaisyToolchain/0.2.0/arm/arm-none-eabi/include/c++/10.3.1/bits/stl_algobase.h ****       template<typename _II, typename _OI>
 343:/Library/DaisyToolchain/0.2.0/arm/arm-none-eabi/include/c++/10.3.1/bits/stl_algobase.h **** 	_GLIBCXX20_CONSTEXPR
 344:/Library/DaisyToolchain/0.2.0/arm/arm-none-eabi/include/c++/10.3.1/bits/stl_algobase.h **** 	static _OI
 345:/Library/DaisyToolchain/0.2.0/arm/arm-none-eabi/include/c++/10.3.1/bits/stl_algobase.h **** 	__copy_m(_II __first, _II __last, _OI __result)
 346:/Library/DaisyToolchain/0.2.0/arm/arm-none-eabi/include/c++/10.3.1/bits/stl_algobase.h **** 	{
 347:/Library/DaisyToolchain/0.2.0/arm/arm-none-eabi/include/c++/10.3.1/bits/stl_algobase.h **** 	  for (; __first != __last; ++__result, (void)++__first)
 348:/Library/DaisyToolchain/0.2.0/arm/arm-none-eabi/include/c++/10.3.1/bits/stl_algobase.h **** 	    *__result = *__first;
 349:/Library/DaisyToolchain/0.2.0/arm/arm-none-eabi/include/c++/10.3.1/bits/stl_algobase.h **** 	  return __result;
 350:/Library/DaisyToolchain/0.2.0/arm/arm-none-eabi/include/c++/10.3.1/bits/stl_algobase.h **** 	}
 351:/Library/DaisyToolchain/0.2.0/arm/arm-none-eabi/include/c++/10.3.1/bits/stl_algobase.h ****     };
 352:/Library/DaisyToolchain/0.2.0/arm/arm-none-eabi/include/c++/10.3.1/bits/stl_algobase.h **** 
 353:/Library/DaisyToolchain/0.2.0/arm/arm-none-eabi/include/c++/10.3.1/bits/stl_algobase.h **** #if __cplusplus >= 201103L
 354:/Library/DaisyToolchain/0.2.0/arm/arm-none-eabi/include/c++/10.3.1/bits/stl_algobase.h ****   template<typename _Category>
 355:/Library/DaisyToolchain/0.2.0/arm/arm-none-eabi/include/c++/10.3.1/bits/stl_algobase.h ****     struct __copy_move<true, false, _Category>
 356:/Library/DaisyToolchain/0.2.0/arm/arm-none-eabi/include/c++/10.3.1/bits/stl_algobase.h ****     {
 357:/Library/DaisyToolchain/0.2.0/arm/arm-none-eabi/include/c++/10.3.1/bits/stl_algobase.h ****       template<typename _II, typename _OI>
 358:/Library/DaisyToolchain/0.2.0/arm/arm-none-eabi/include/c++/10.3.1/bits/stl_algobase.h **** 	_GLIBCXX20_CONSTEXPR
 359:/Library/DaisyToolchain/0.2.0/arm/arm-none-eabi/include/c++/10.3.1/bits/stl_algobase.h **** 	static _OI
 360:/Library/DaisyToolchain/0.2.0/arm/arm-none-eabi/include/c++/10.3.1/bits/stl_algobase.h **** 	__copy_m(_II __first, _II __last, _OI __result)
 361:/Library/DaisyToolchain/0.2.0/arm/arm-none-eabi/include/c++/10.3.1/bits/stl_algobase.h **** 	{
 362:/Library/DaisyToolchain/0.2.0/arm/arm-none-eabi/include/c++/10.3.1/bits/stl_algobase.h **** 	  for (; __first != __last; ++__result, (void)++__first)
 363:/Library/DaisyToolchain/0.2.0/arm/arm-none-eabi/include/c++/10.3.1/bits/stl_algobase.h **** 	    *__result = std::move(*__first);
 364:/Library/DaisyToolchain/0.2.0/arm/arm-none-eabi/include/c++/10.3.1/bits/stl_algobase.h **** 	  return __result;
 365:/Library/DaisyToolchain/0.2.0/arm/arm-none-eabi/include/c++/10.3.1/bits/stl_algobase.h **** 	}
 366:/Library/DaisyToolchain/0.2.0/arm/arm-none-eabi/include/c++/10.3.1/bits/stl_algobase.h ****     };
 367:/Library/DaisyToolchain/0.2.0/arm/arm-none-eabi/include/c++/10.3.1/bits/stl_algobase.h **** #endif
 368:/Library/DaisyToolchain/0.2.0/arm/arm-none-eabi/include/c++/10.3.1/bits/stl_algobase.h **** 
 369:/Library/DaisyToolchain/0.2.0/arm/arm-none-eabi/include/c++/10.3.1/bits/stl_algobase.h ****   template<>
 370:/Library/DaisyToolchain/0.2.0/arm/arm-none-eabi/include/c++/10.3.1/bits/stl_algobase.h ****     struct __copy_move<false, false, random_access_iterator_tag>
 371:/Library/DaisyToolchain/0.2.0/arm/arm-none-eabi/include/c++/10.3.1/bits/stl_algobase.h ****     {
 372:/Library/DaisyToolchain/0.2.0/arm/arm-none-eabi/include/c++/10.3.1/bits/stl_algobase.h ****       template<typename _II, typename _OI>
 373:/Library/DaisyToolchain/0.2.0/arm/arm-none-eabi/include/c++/10.3.1/bits/stl_algobase.h **** 	_GLIBCXX20_CONSTEXPR
 374:/Library/DaisyToolchain/0.2.0/arm/arm-none-eabi/include/c++/10.3.1/bits/stl_algobase.h **** 	static _OI
 375:/Library/DaisyToolchain/0.2.0/arm/arm-none-eabi/include/c++/10.3.1/bits/stl_algobase.h **** 	__copy_m(_II __first, _II __last, _OI __result)
 376:/Library/DaisyToolchain/0.2.0/arm/arm-none-eabi/include/c++/10.3.1/bits/stl_algobase.h **** 	{
 377:/Library/DaisyToolchain/0.2.0/arm/arm-none-eabi/include/c++/10.3.1/bits/stl_algobase.h **** 	  typedef typename iterator_traits<_II>::difference_type _Distance;
 378:/Library/DaisyToolchain/0.2.0/arm/arm-none-eabi/include/c++/10.3.1/bits/stl_algobase.h **** 	  for(_Distance __n = __last - __first; __n > 0; --__n)
 379:/Library/DaisyToolchain/0.2.0/arm/arm-none-eabi/include/c++/10.3.1/bits/stl_algobase.h **** 	    {
 380:/Library/DaisyToolchain/0.2.0/arm/arm-none-eabi/include/c++/10.3.1/bits/stl_algobase.h **** 	      *__result = *__first;
 381:/Library/DaisyToolchain/0.2.0/arm/arm-none-eabi/include/c++/10.3.1/bits/stl_algobase.h **** 	      ++__first;
 382:/Library/DaisyToolchain/0.2.0/arm/arm-none-eabi/include/c++/10.3.1/bits/stl_algobase.h **** 	      ++__result;
 383:/Library/DaisyToolchain/0.2.0/arm/arm-none-eabi/include/c++/10.3.1/bits/stl_algobase.h **** 	    }
 384:/Library/DaisyToolchain/0.2.0/arm/arm-none-eabi/include/c++/10.3.1/bits/stl_algobase.h **** 	  return __result;
 385:/Library/DaisyToolchain/0.2.0/arm/arm-none-eabi/include/c++/10.3.1/bits/stl_algobase.h **** 	}
 386:/Library/DaisyToolchain/0.2.0/arm/arm-none-eabi/include/c++/10.3.1/bits/stl_algobase.h ****     };
 387:/Library/DaisyToolchain/0.2.0/arm/arm-none-eabi/include/c++/10.3.1/bits/stl_algobase.h **** 
 388:/Library/DaisyToolchain/0.2.0/arm/arm-none-eabi/include/c++/10.3.1/bits/stl_algobase.h **** #if __cplusplus >= 201103L
 389:/Library/DaisyToolchain/0.2.0/arm/arm-none-eabi/include/c++/10.3.1/bits/stl_algobase.h ****   template<>
 390:/Library/DaisyToolchain/0.2.0/arm/arm-none-eabi/include/c++/10.3.1/bits/stl_algobase.h ****     struct __copy_move<true, false, random_access_iterator_tag>
 391:/Library/DaisyToolchain/0.2.0/arm/arm-none-eabi/include/c++/10.3.1/bits/stl_algobase.h ****     {
ARM GAS  /var/folders/hl/qgbwny5j0fd895c2c41bk3tw0000gp/T//ccEG44Zu.s 			page 157


 392:/Library/DaisyToolchain/0.2.0/arm/arm-none-eabi/include/c++/10.3.1/bits/stl_algobase.h ****       template<typename _II, typename _OI>
 393:/Library/DaisyToolchain/0.2.0/arm/arm-none-eabi/include/c++/10.3.1/bits/stl_algobase.h **** 	_GLIBCXX20_CONSTEXPR
 394:/Library/DaisyToolchain/0.2.0/arm/arm-none-eabi/include/c++/10.3.1/bits/stl_algobase.h **** 	static _OI
 395:/Library/DaisyToolchain/0.2.0/arm/arm-none-eabi/include/c++/10.3.1/bits/stl_algobase.h **** 	__copy_m(_II __first, _II __last, _OI __result)
 396:/Library/DaisyToolchain/0.2.0/arm/arm-none-eabi/include/c++/10.3.1/bits/stl_algobase.h **** 	{
 397:/Library/DaisyToolchain/0.2.0/arm/arm-none-eabi/include/c++/10.3.1/bits/stl_algobase.h **** 	  typedef typename iterator_traits<_II>::difference_type _Distance;
 398:/Library/DaisyToolchain/0.2.0/arm/arm-none-eabi/include/c++/10.3.1/bits/stl_algobase.h **** 	  for(_Distance __n = __last - __first; __n > 0; --__n)
 399:/Library/DaisyToolchain/0.2.0/arm/arm-none-eabi/include/c++/10.3.1/bits/stl_algobase.h **** 	    {
 400:/Library/DaisyToolchain/0.2.0/arm/arm-none-eabi/include/c++/10.3.1/bits/stl_algobase.h **** 	      *__result = std::move(*__first);
 401:/Library/DaisyToolchain/0.2.0/arm/arm-none-eabi/include/c++/10.3.1/bits/stl_algobase.h **** 	      ++__first;
 402:/Library/DaisyToolchain/0.2.0/arm/arm-none-eabi/include/c++/10.3.1/bits/stl_algobase.h **** 	      ++__result;
 403:/Library/DaisyToolchain/0.2.0/arm/arm-none-eabi/include/c++/10.3.1/bits/stl_algobase.h **** 	    }
 404:/Library/DaisyToolchain/0.2.0/arm/arm-none-eabi/include/c++/10.3.1/bits/stl_algobase.h **** 	  return __result;
 405:/Library/DaisyToolchain/0.2.0/arm/arm-none-eabi/include/c++/10.3.1/bits/stl_algobase.h **** 	}
 406:/Library/DaisyToolchain/0.2.0/arm/arm-none-eabi/include/c++/10.3.1/bits/stl_algobase.h ****     };
 407:/Library/DaisyToolchain/0.2.0/arm/arm-none-eabi/include/c++/10.3.1/bits/stl_algobase.h **** #endif
 408:/Library/DaisyToolchain/0.2.0/arm/arm-none-eabi/include/c++/10.3.1/bits/stl_algobase.h **** 
 409:/Library/DaisyToolchain/0.2.0/arm/arm-none-eabi/include/c++/10.3.1/bits/stl_algobase.h ****   template<bool _IsMove>
 410:/Library/DaisyToolchain/0.2.0/arm/arm-none-eabi/include/c++/10.3.1/bits/stl_algobase.h ****     struct __copy_move<_IsMove, true, random_access_iterator_tag>
 411:/Library/DaisyToolchain/0.2.0/arm/arm-none-eabi/include/c++/10.3.1/bits/stl_algobase.h ****     {
 412:/Library/DaisyToolchain/0.2.0/arm/arm-none-eabi/include/c++/10.3.1/bits/stl_algobase.h ****       template<typename _Tp>
 413:/Library/DaisyToolchain/0.2.0/arm/arm-none-eabi/include/c++/10.3.1/bits/stl_algobase.h **** 	_GLIBCXX20_CONSTEXPR
 414:/Library/DaisyToolchain/0.2.0/arm/arm-none-eabi/include/c++/10.3.1/bits/stl_algobase.h **** 	static _Tp*
 415:/Library/DaisyToolchain/0.2.0/arm/arm-none-eabi/include/c++/10.3.1/bits/stl_algobase.h **** 	__copy_m(const _Tp* __first, const _Tp* __last, _Tp* __result)
 416:/Library/DaisyToolchain/0.2.0/arm/arm-none-eabi/include/c++/10.3.1/bits/stl_algobase.h **** 	{
 417:/Library/DaisyToolchain/0.2.0/arm/arm-none-eabi/include/c++/10.3.1/bits/stl_algobase.h **** #if __cplusplus >= 201103L
 418:/Library/DaisyToolchain/0.2.0/arm/arm-none-eabi/include/c++/10.3.1/bits/stl_algobase.h **** 	  using __assignable = conditional<_IsMove,
 419:/Library/DaisyToolchain/0.2.0/arm/arm-none-eabi/include/c++/10.3.1/bits/stl_algobase.h **** 					   is_move_assignable<_Tp>,
 420:/Library/DaisyToolchain/0.2.0/arm/arm-none-eabi/include/c++/10.3.1/bits/stl_algobase.h **** 					   is_copy_assignable<_Tp>>;
 421:/Library/DaisyToolchain/0.2.0/arm/arm-none-eabi/include/c++/10.3.1/bits/stl_algobase.h **** 	  // trivial types can have deleted assignment
 422:/Library/DaisyToolchain/0.2.0/arm/arm-none-eabi/include/c++/10.3.1/bits/stl_algobase.h **** 	  static_assert( __assignable::type::value, "type is not assignable" );
 423:/Library/DaisyToolchain/0.2.0/arm/arm-none-eabi/include/c++/10.3.1/bits/stl_algobase.h **** #endif
 424:/Library/DaisyToolchain/0.2.0/arm/arm-none-eabi/include/c++/10.3.1/bits/stl_algobase.h **** 	  const ptrdiff_t _Num = __last - __first;
 425:/Library/DaisyToolchain/0.2.0/arm/arm-none-eabi/include/c++/10.3.1/bits/stl_algobase.h **** 	  if (_Num)
 426:/Library/DaisyToolchain/0.2.0/arm/arm-none-eabi/include/c++/10.3.1/bits/stl_algobase.h **** 	    __builtin_memmove(__result, __first, sizeof(_Tp) * _Num);
 427:/Library/DaisyToolchain/0.2.0/arm/arm-none-eabi/include/c++/10.3.1/bits/stl_algobase.h **** 	  return __result + _Num;
 428:/Library/DaisyToolchain/0.2.0/arm/arm-none-eabi/include/c++/10.3.1/bits/stl_algobase.h **** 	}
 429:/Library/DaisyToolchain/0.2.0/arm/arm-none-eabi/include/c++/10.3.1/bits/stl_algobase.h ****     };
 430:/Library/DaisyToolchain/0.2.0/arm/arm-none-eabi/include/c++/10.3.1/bits/stl_algobase.h **** 
 431:/Library/DaisyToolchain/0.2.0/arm/arm-none-eabi/include/c++/10.3.1/bits/stl_algobase.h ****   // Helpers for streambuf iterators (either istream or ostream).
 432:/Library/DaisyToolchain/0.2.0/arm/arm-none-eabi/include/c++/10.3.1/bits/stl_algobase.h ****   // NB: avoid including <iosfwd>, relatively large.
 433:/Library/DaisyToolchain/0.2.0/arm/arm-none-eabi/include/c++/10.3.1/bits/stl_algobase.h ****   template<typename _CharT>
 434:/Library/DaisyToolchain/0.2.0/arm/arm-none-eabi/include/c++/10.3.1/bits/stl_algobase.h ****     struct char_traits;
 435:/Library/DaisyToolchain/0.2.0/arm/arm-none-eabi/include/c++/10.3.1/bits/stl_algobase.h **** 
 436:/Library/DaisyToolchain/0.2.0/arm/arm-none-eabi/include/c++/10.3.1/bits/stl_algobase.h ****   template<typename _CharT, typename _Traits>
 437:/Library/DaisyToolchain/0.2.0/arm/arm-none-eabi/include/c++/10.3.1/bits/stl_algobase.h ****     class istreambuf_iterator;
 438:/Library/DaisyToolchain/0.2.0/arm/arm-none-eabi/include/c++/10.3.1/bits/stl_algobase.h **** 
 439:/Library/DaisyToolchain/0.2.0/arm/arm-none-eabi/include/c++/10.3.1/bits/stl_algobase.h ****   template<typename _CharT, typename _Traits>
 440:/Library/DaisyToolchain/0.2.0/arm/arm-none-eabi/include/c++/10.3.1/bits/stl_algobase.h ****     class ostreambuf_iterator;
 441:/Library/DaisyToolchain/0.2.0/arm/arm-none-eabi/include/c++/10.3.1/bits/stl_algobase.h **** 
 442:/Library/DaisyToolchain/0.2.0/arm/arm-none-eabi/include/c++/10.3.1/bits/stl_algobase.h ****   template<bool _IsMove, typename _CharT>
 443:/Library/DaisyToolchain/0.2.0/arm/arm-none-eabi/include/c++/10.3.1/bits/stl_algobase.h ****     typename __gnu_cxx::__enable_if<__is_char<_CharT>::__value,
 444:/Library/DaisyToolchain/0.2.0/arm/arm-none-eabi/include/c++/10.3.1/bits/stl_algobase.h **** 	     ostreambuf_iterator<_CharT, char_traits<_CharT> > >::__type
 445:/Library/DaisyToolchain/0.2.0/arm/arm-none-eabi/include/c++/10.3.1/bits/stl_algobase.h ****     __copy_move_a2(_CharT*, _CharT*,
 446:/Library/DaisyToolchain/0.2.0/arm/arm-none-eabi/include/c++/10.3.1/bits/stl_algobase.h **** 		   ostreambuf_iterator<_CharT, char_traits<_CharT> >);
 447:/Library/DaisyToolchain/0.2.0/arm/arm-none-eabi/include/c++/10.3.1/bits/stl_algobase.h **** 
 448:/Library/DaisyToolchain/0.2.0/arm/arm-none-eabi/include/c++/10.3.1/bits/stl_algobase.h ****   template<bool _IsMove, typename _CharT>
ARM GAS  /var/folders/hl/qgbwny5j0fd895c2c41bk3tw0000gp/T//ccEG44Zu.s 			page 158


 449:/Library/DaisyToolchain/0.2.0/arm/arm-none-eabi/include/c++/10.3.1/bits/stl_algobase.h ****     typename __gnu_cxx::__enable_if<__is_char<_CharT>::__value,
 450:/Library/DaisyToolchain/0.2.0/arm/arm-none-eabi/include/c++/10.3.1/bits/stl_algobase.h **** 	     ostreambuf_iterator<_CharT, char_traits<_CharT> > >::__type
 451:/Library/DaisyToolchain/0.2.0/arm/arm-none-eabi/include/c++/10.3.1/bits/stl_algobase.h ****     __copy_move_a2(const _CharT*, const _CharT*,
 452:/Library/DaisyToolchain/0.2.0/arm/arm-none-eabi/include/c++/10.3.1/bits/stl_algobase.h **** 		   ostreambuf_iterator<_CharT, char_traits<_CharT> >);
 453:/Library/DaisyToolchain/0.2.0/arm/arm-none-eabi/include/c++/10.3.1/bits/stl_algobase.h **** 
 454:/Library/DaisyToolchain/0.2.0/arm/arm-none-eabi/include/c++/10.3.1/bits/stl_algobase.h ****   template<bool _IsMove, typename _CharT>
 455:/Library/DaisyToolchain/0.2.0/arm/arm-none-eabi/include/c++/10.3.1/bits/stl_algobase.h ****     typename __gnu_cxx::__enable_if<__is_char<_CharT>::__value,
 456:/Library/DaisyToolchain/0.2.0/arm/arm-none-eabi/include/c++/10.3.1/bits/stl_algobase.h **** 				    _CharT*>::__type
 457:/Library/DaisyToolchain/0.2.0/arm/arm-none-eabi/include/c++/10.3.1/bits/stl_algobase.h ****     __copy_move_a2(istreambuf_iterator<_CharT, char_traits<_CharT> >,
 458:/Library/DaisyToolchain/0.2.0/arm/arm-none-eabi/include/c++/10.3.1/bits/stl_algobase.h **** 		   istreambuf_iterator<_CharT, char_traits<_CharT> >, _CharT*);
 459:/Library/DaisyToolchain/0.2.0/arm/arm-none-eabi/include/c++/10.3.1/bits/stl_algobase.h **** 
 460:/Library/DaisyToolchain/0.2.0/arm/arm-none-eabi/include/c++/10.3.1/bits/stl_algobase.h ****   template<bool _IsMove, typename _II, typename _OI>
 461:/Library/DaisyToolchain/0.2.0/arm/arm-none-eabi/include/c++/10.3.1/bits/stl_algobase.h ****     _GLIBCXX20_CONSTEXPR
 462:/Library/DaisyToolchain/0.2.0/arm/arm-none-eabi/include/c++/10.3.1/bits/stl_algobase.h ****     inline _OI
 463:/Library/DaisyToolchain/0.2.0/arm/arm-none-eabi/include/c++/10.3.1/bits/stl_algobase.h ****     __copy_move_a2(_II __first, _II __last, _OI __result)
 464:/Library/DaisyToolchain/0.2.0/arm/arm-none-eabi/include/c++/10.3.1/bits/stl_algobase.h ****     {
 465:/Library/DaisyToolchain/0.2.0/arm/arm-none-eabi/include/c++/10.3.1/bits/stl_algobase.h ****       typedef typename iterator_traits<_II>::iterator_category _Category;
 466:/Library/DaisyToolchain/0.2.0/arm/arm-none-eabi/include/c++/10.3.1/bits/stl_algobase.h **** #ifdef __cpp_lib_is_constant_evaluated
 467:/Library/DaisyToolchain/0.2.0/arm/arm-none-eabi/include/c++/10.3.1/bits/stl_algobase.h ****       if (std::is_constant_evaluated())
 468:/Library/DaisyToolchain/0.2.0/arm/arm-none-eabi/include/c++/10.3.1/bits/stl_algobase.h **** 	return std::__copy_move<_IsMove, false, _Category>::
 469:/Library/DaisyToolchain/0.2.0/arm/arm-none-eabi/include/c++/10.3.1/bits/stl_algobase.h **** 	  __copy_m(__first, __last, __result);
 470:/Library/DaisyToolchain/0.2.0/arm/arm-none-eabi/include/c++/10.3.1/bits/stl_algobase.h **** #endif
 471:/Library/DaisyToolchain/0.2.0/arm/arm-none-eabi/include/c++/10.3.1/bits/stl_algobase.h ****       return std::__copy_move<_IsMove, __memcpyable<_OI, _II>::__value,
 472:/Library/DaisyToolchain/0.2.0/arm/arm-none-eabi/include/c++/10.3.1/bits/stl_algobase.h **** 			      _Category>::__copy_m(__first, __last, __result);
 473:/Library/DaisyToolchain/0.2.0/arm/arm-none-eabi/include/c++/10.3.1/bits/stl_algobase.h ****     }
 474:/Library/DaisyToolchain/0.2.0/arm/arm-none-eabi/include/c++/10.3.1/bits/stl_algobase.h **** 
 475:/Library/DaisyToolchain/0.2.0/arm/arm-none-eabi/include/c++/10.3.1/bits/stl_algobase.h **** _GLIBCXX_BEGIN_NAMESPACE_CONTAINER
 476:/Library/DaisyToolchain/0.2.0/arm/arm-none-eabi/include/c++/10.3.1/bits/stl_algobase.h **** 
 477:/Library/DaisyToolchain/0.2.0/arm/arm-none-eabi/include/c++/10.3.1/bits/stl_algobase.h ****   template<typename _Tp, typename _Ref, typename _Ptr>
 478:/Library/DaisyToolchain/0.2.0/arm/arm-none-eabi/include/c++/10.3.1/bits/stl_algobase.h ****     struct _Deque_iterator;
 479:/Library/DaisyToolchain/0.2.0/arm/arm-none-eabi/include/c++/10.3.1/bits/stl_algobase.h **** 
 480:/Library/DaisyToolchain/0.2.0/arm/arm-none-eabi/include/c++/10.3.1/bits/stl_algobase.h **** _GLIBCXX_END_NAMESPACE_CONTAINER
 481:/Library/DaisyToolchain/0.2.0/arm/arm-none-eabi/include/c++/10.3.1/bits/stl_algobase.h **** 
 482:/Library/DaisyToolchain/0.2.0/arm/arm-none-eabi/include/c++/10.3.1/bits/stl_algobase.h ****   template<bool _IsMove,
 483:/Library/DaisyToolchain/0.2.0/arm/arm-none-eabi/include/c++/10.3.1/bits/stl_algobase.h **** 	   typename _Tp, typename _Ref, typename _Ptr, typename _OI>
 484:/Library/DaisyToolchain/0.2.0/arm/arm-none-eabi/include/c++/10.3.1/bits/stl_algobase.h ****     _OI
 485:/Library/DaisyToolchain/0.2.0/arm/arm-none-eabi/include/c++/10.3.1/bits/stl_algobase.h ****     __copy_move_a1(_GLIBCXX_STD_C::_Deque_iterator<_Tp, _Ref, _Ptr>,
 486:/Library/DaisyToolchain/0.2.0/arm/arm-none-eabi/include/c++/10.3.1/bits/stl_algobase.h **** 		   _GLIBCXX_STD_C::_Deque_iterator<_Tp, _Ref, _Ptr>,
 487:/Library/DaisyToolchain/0.2.0/arm/arm-none-eabi/include/c++/10.3.1/bits/stl_algobase.h **** 		   _OI);
 488:/Library/DaisyToolchain/0.2.0/arm/arm-none-eabi/include/c++/10.3.1/bits/stl_algobase.h **** 
 489:/Library/DaisyToolchain/0.2.0/arm/arm-none-eabi/include/c++/10.3.1/bits/stl_algobase.h ****   template<bool _IsMove,
 490:/Library/DaisyToolchain/0.2.0/arm/arm-none-eabi/include/c++/10.3.1/bits/stl_algobase.h **** 	   typename _ITp, typename _IRef, typename _IPtr, typename _OTp>
 491:/Library/DaisyToolchain/0.2.0/arm/arm-none-eabi/include/c++/10.3.1/bits/stl_algobase.h ****     _GLIBCXX_STD_C::_Deque_iterator<_OTp, _OTp&, _OTp*>
 492:/Library/DaisyToolchain/0.2.0/arm/arm-none-eabi/include/c++/10.3.1/bits/stl_algobase.h ****     __copy_move_a1(_GLIBCXX_STD_C::_Deque_iterator<_ITp, _IRef, _IPtr>,
 493:/Library/DaisyToolchain/0.2.0/arm/arm-none-eabi/include/c++/10.3.1/bits/stl_algobase.h **** 		   _GLIBCXX_STD_C::_Deque_iterator<_ITp, _IRef, _IPtr>,
 494:/Library/DaisyToolchain/0.2.0/arm/arm-none-eabi/include/c++/10.3.1/bits/stl_algobase.h **** 		   _GLIBCXX_STD_C::_Deque_iterator<_OTp, _OTp&, _OTp*>);
 495:/Library/DaisyToolchain/0.2.0/arm/arm-none-eabi/include/c++/10.3.1/bits/stl_algobase.h **** 
 496:/Library/DaisyToolchain/0.2.0/arm/arm-none-eabi/include/c++/10.3.1/bits/stl_algobase.h ****   template<bool _IsMove, typename _II, typename _Tp>
 497:/Library/DaisyToolchain/0.2.0/arm/arm-none-eabi/include/c++/10.3.1/bits/stl_algobase.h ****     typename __gnu_cxx::__enable_if<
 498:/Library/DaisyToolchain/0.2.0/arm/arm-none-eabi/include/c++/10.3.1/bits/stl_algobase.h ****       __is_random_access_iter<_II>::__value,
 499:/Library/DaisyToolchain/0.2.0/arm/arm-none-eabi/include/c++/10.3.1/bits/stl_algobase.h ****       _GLIBCXX_STD_C::_Deque_iterator<_Tp, _Tp&, _Tp*> >::__type
 500:/Library/DaisyToolchain/0.2.0/arm/arm-none-eabi/include/c++/10.3.1/bits/stl_algobase.h ****     __copy_move_a1(_II, _II, _GLIBCXX_STD_C::_Deque_iterator<_Tp, _Tp&, _Tp*>);
 501:/Library/DaisyToolchain/0.2.0/arm/arm-none-eabi/include/c++/10.3.1/bits/stl_algobase.h **** 
 502:/Library/DaisyToolchain/0.2.0/arm/arm-none-eabi/include/c++/10.3.1/bits/stl_algobase.h ****   template<bool _IsMove, typename _II, typename _OI>
 503:/Library/DaisyToolchain/0.2.0/arm/arm-none-eabi/include/c++/10.3.1/bits/stl_algobase.h ****     _GLIBCXX20_CONSTEXPR
 504:/Library/DaisyToolchain/0.2.0/arm/arm-none-eabi/include/c++/10.3.1/bits/stl_algobase.h ****     inline _OI
 505:/Library/DaisyToolchain/0.2.0/arm/arm-none-eabi/include/c++/10.3.1/bits/stl_algobase.h ****     __copy_move_a1(_II __first, _II __last, _OI __result)
ARM GAS  /var/folders/hl/qgbwny5j0fd895c2c41bk3tw0000gp/T//ccEG44Zu.s 			page 159


 506:/Library/DaisyToolchain/0.2.0/arm/arm-none-eabi/include/c++/10.3.1/bits/stl_algobase.h ****     { return std::__copy_move_a2<_IsMove>(__first, __last, __result); }
 507:/Library/DaisyToolchain/0.2.0/arm/arm-none-eabi/include/c++/10.3.1/bits/stl_algobase.h **** 
 508:/Library/DaisyToolchain/0.2.0/arm/arm-none-eabi/include/c++/10.3.1/bits/stl_algobase.h ****   template<bool _IsMove, typename _II, typename _OI>
 509:/Library/DaisyToolchain/0.2.0/arm/arm-none-eabi/include/c++/10.3.1/bits/stl_algobase.h ****     _GLIBCXX20_CONSTEXPR
 510:/Library/DaisyToolchain/0.2.0/arm/arm-none-eabi/include/c++/10.3.1/bits/stl_algobase.h ****     inline _OI
 511:/Library/DaisyToolchain/0.2.0/arm/arm-none-eabi/include/c++/10.3.1/bits/stl_algobase.h ****     __copy_move_a(_II __first, _II __last, _OI __result)
 512:/Library/DaisyToolchain/0.2.0/arm/arm-none-eabi/include/c++/10.3.1/bits/stl_algobase.h ****     {
 513:/Library/DaisyToolchain/0.2.0/arm/arm-none-eabi/include/c++/10.3.1/bits/stl_algobase.h ****       return std::__niter_wrap(__result,
 514:/Library/DaisyToolchain/0.2.0/arm/arm-none-eabi/include/c++/10.3.1/bits/stl_algobase.h **** 		std::__copy_move_a1<_IsMove>(std::__niter_base(__first),
 515:/Library/DaisyToolchain/0.2.0/arm/arm-none-eabi/include/c++/10.3.1/bits/stl_algobase.h **** 					     std::__niter_base(__last),
 516:/Library/DaisyToolchain/0.2.0/arm/arm-none-eabi/include/c++/10.3.1/bits/stl_algobase.h **** 					     std::__niter_base(__result)));
 517:/Library/DaisyToolchain/0.2.0/arm/arm-none-eabi/include/c++/10.3.1/bits/stl_algobase.h ****     }
 518:/Library/DaisyToolchain/0.2.0/arm/arm-none-eabi/include/c++/10.3.1/bits/stl_algobase.h **** 
 519:/Library/DaisyToolchain/0.2.0/arm/arm-none-eabi/include/c++/10.3.1/bits/stl_algobase.h ****   template<bool _IsMove,
 520:/Library/DaisyToolchain/0.2.0/arm/arm-none-eabi/include/c++/10.3.1/bits/stl_algobase.h **** 	   typename _Ite, typename _Seq, typename _Cat, typename _OI>
 521:/Library/DaisyToolchain/0.2.0/arm/arm-none-eabi/include/c++/10.3.1/bits/stl_algobase.h ****     _OI
 522:/Library/DaisyToolchain/0.2.0/arm/arm-none-eabi/include/c++/10.3.1/bits/stl_algobase.h ****     __copy_move_a(const ::__gnu_debug::_Safe_iterator<_Ite, _Seq, _Cat>&,
 523:/Library/DaisyToolchain/0.2.0/arm/arm-none-eabi/include/c++/10.3.1/bits/stl_algobase.h **** 		  const ::__gnu_debug::_Safe_iterator<_Ite, _Seq, _Cat>&,
 524:/Library/DaisyToolchain/0.2.0/arm/arm-none-eabi/include/c++/10.3.1/bits/stl_algobase.h **** 		  _OI);
 525:/Library/DaisyToolchain/0.2.0/arm/arm-none-eabi/include/c++/10.3.1/bits/stl_algobase.h **** 
 526:/Library/DaisyToolchain/0.2.0/arm/arm-none-eabi/include/c++/10.3.1/bits/stl_algobase.h ****   template<bool _IsMove,
 527:/Library/DaisyToolchain/0.2.0/arm/arm-none-eabi/include/c++/10.3.1/bits/stl_algobase.h **** 	   typename _II, typename _Ite, typename _Seq, typename _Cat>
 528:/Library/DaisyToolchain/0.2.0/arm/arm-none-eabi/include/c++/10.3.1/bits/stl_algobase.h ****     __gnu_debug::_Safe_iterator<_Ite, _Seq, _Cat>
 529:/Library/DaisyToolchain/0.2.0/arm/arm-none-eabi/include/c++/10.3.1/bits/stl_algobase.h ****     __copy_move_a(_II, _II,
 530:/Library/DaisyToolchain/0.2.0/arm/arm-none-eabi/include/c++/10.3.1/bits/stl_algobase.h **** 		  const ::__gnu_debug::_Safe_iterator<_Ite, _Seq, _Cat>&);
 531:/Library/DaisyToolchain/0.2.0/arm/arm-none-eabi/include/c++/10.3.1/bits/stl_algobase.h **** 
 532:/Library/DaisyToolchain/0.2.0/arm/arm-none-eabi/include/c++/10.3.1/bits/stl_algobase.h ****   template<bool _IsMove,
 533:/Library/DaisyToolchain/0.2.0/arm/arm-none-eabi/include/c++/10.3.1/bits/stl_algobase.h **** 	   typename _IIte, typename _ISeq, typename _ICat,
 534:/Library/DaisyToolchain/0.2.0/arm/arm-none-eabi/include/c++/10.3.1/bits/stl_algobase.h **** 	   typename _OIte, typename _OSeq, typename _OCat>
 535:/Library/DaisyToolchain/0.2.0/arm/arm-none-eabi/include/c++/10.3.1/bits/stl_algobase.h ****     ::__gnu_debug::_Safe_iterator<_OIte, _OSeq, _OCat>
 536:/Library/DaisyToolchain/0.2.0/arm/arm-none-eabi/include/c++/10.3.1/bits/stl_algobase.h ****     __copy_move_a(const ::__gnu_debug::_Safe_iterator<_IIte, _ISeq, _ICat>&,
 537:/Library/DaisyToolchain/0.2.0/arm/arm-none-eabi/include/c++/10.3.1/bits/stl_algobase.h **** 		  const ::__gnu_debug::_Safe_iterator<_IIte, _ISeq, _ICat>&,
 538:/Library/DaisyToolchain/0.2.0/arm/arm-none-eabi/include/c++/10.3.1/bits/stl_algobase.h **** 		  const ::__gnu_debug::_Safe_iterator<_OIte, _OSeq, _OCat>&);
 539:/Library/DaisyToolchain/0.2.0/arm/arm-none-eabi/include/c++/10.3.1/bits/stl_algobase.h **** 
 540:/Library/DaisyToolchain/0.2.0/arm/arm-none-eabi/include/c++/10.3.1/bits/stl_algobase.h ****   /**
 541:/Library/DaisyToolchain/0.2.0/arm/arm-none-eabi/include/c++/10.3.1/bits/stl_algobase.h ****    *  @brief Copies the range [first,last) into result.
 542:/Library/DaisyToolchain/0.2.0/arm/arm-none-eabi/include/c++/10.3.1/bits/stl_algobase.h ****    *  @ingroup mutating_algorithms
 543:/Library/DaisyToolchain/0.2.0/arm/arm-none-eabi/include/c++/10.3.1/bits/stl_algobase.h ****    *  @param  __first  An input iterator.
 544:/Library/DaisyToolchain/0.2.0/arm/arm-none-eabi/include/c++/10.3.1/bits/stl_algobase.h ****    *  @param  __last   An input iterator.
 545:/Library/DaisyToolchain/0.2.0/arm/arm-none-eabi/include/c++/10.3.1/bits/stl_algobase.h ****    *  @param  __result An output iterator.
 546:/Library/DaisyToolchain/0.2.0/arm/arm-none-eabi/include/c++/10.3.1/bits/stl_algobase.h ****    *  @return   result + (last - first)
 547:/Library/DaisyToolchain/0.2.0/arm/arm-none-eabi/include/c++/10.3.1/bits/stl_algobase.h ****    *
 548:/Library/DaisyToolchain/0.2.0/arm/arm-none-eabi/include/c++/10.3.1/bits/stl_algobase.h ****    *  This inline function will boil down to a call to @c memmove whenever
 549:/Library/DaisyToolchain/0.2.0/arm/arm-none-eabi/include/c++/10.3.1/bits/stl_algobase.h ****    *  possible.  Failing that, if random access iterators are passed, then the
 550:/Library/DaisyToolchain/0.2.0/arm/arm-none-eabi/include/c++/10.3.1/bits/stl_algobase.h ****    *  loop count will be known (and therefore a candidate for compiler
 551:/Library/DaisyToolchain/0.2.0/arm/arm-none-eabi/include/c++/10.3.1/bits/stl_algobase.h ****    *  optimizations such as unrolling).  Result may not be contained within
 552:/Library/DaisyToolchain/0.2.0/arm/arm-none-eabi/include/c++/10.3.1/bits/stl_algobase.h ****    *  [first,last); the copy_backward function should be used instead.
 553:/Library/DaisyToolchain/0.2.0/arm/arm-none-eabi/include/c++/10.3.1/bits/stl_algobase.h ****    *
 554:/Library/DaisyToolchain/0.2.0/arm/arm-none-eabi/include/c++/10.3.1/bits/stl_algobase.h ****    *  Note that the end of the output range is permitted to be contained
 555:/Library/DaisyToolchain/0.2.0/arm/arm-none-eabi/include/c++/10.3.1/bits/stl_algobase.h ****    *  within [first,last).
 556:/Library/DaisyToolchain/0.2.0/arm/arm-none-eabi/include/c++/10.3.1/bits/stl_algobase.h ****   */
 557:/Library/DaisyToolchain/0.2.0/arm/arm-none-eabi/include/c++/10.3.1/bits/stl_algobase.h ****   template<typename _II, typename _OI>
 558:/Library/DaisyToolchain/0.2.0/arm/arm-none-eabi/include/c++/10.3.1/bits/stl_algobase.h ****     _GLIBCXX20_CONSTEXPR
 559:/Library/DaisyToolchain/0.2.0/arm/arm-none-eabi/include/c++/10.3.1/bits/stl_algobase.h ****     inline _OI
 560:/Library/DaisyToolchain/0.2.0/arm/arm-none-eabi/include/c++/10.3.1/bits/stl_algobase.h ****     copy(_II __first, _II __last, _OI __result)
 561:/Library/DaisyToolchain/0.2.0/arm/arm-none-eabi/include/c++/10.3.1/bits/stl_algobase.h ****     {
 562:/Library/DaisyToolchain/0.2.0/arm/arm-none-eabi/include/c++/10.3.1/bits/stl_algobase.h ****       // concept requirements
ARM GAS  /var/folders/hl/qgbwny5j0fd895c2c41bk3tw0000gp/T//ccEG44Zu.s 			page 160


 563:/Library/DaisyToolchain/0.2.0/arm/arm-none-eabi/include/c++/10.3.1/bits/stl_algobase.h ****       __glibcxx_function_requires(_InputIteratorConcept<_II>)
 564:/Library/DaisyToolchain/0.2.0/arm/arm-none-eabi/include/c++/10.3.1/bits/stl_algobase.h ****       __glibcxx_function_requires(_OutputIteratorConcept<_OI,
 565:/Library/DaisyToolchain/0.2.0/arm/arm-none-eabi/include/c++/10.3.1/bits/stl_algobase.h **** 	    typename iterator_traits<_II>::value_type>)
 566:/Library/DaisyToolchain/0.2.0/arm/arm-none-eabi/include/c++/10.3.1/bits/stl_algobase.h ****       __glibcxx_requires_can_increment_range(__first, __last, __result);
 567:/Library/DaisyToolchain/0.2.0/arm/arm-none-eabi/include/c++/10.3.1/bits/stl_algobase.h **** 
 568:/Library/DaisyToolchain/0.2.0/arm/arm-none-eabi/include/c++/10.3.1/bits/stl_algobase.h ****       return std::__copy_move_a<__is_move_iterator<_II>::__value>
 569:/Library/DaisyToolchain/0.2.0/arm/arm-none-eabi/include/c++/10.3.1/bits/stl_algobase.h **** 	     (std::__miter_base(__first), std::__miter_base(__last), __result);
 570:/Library/DaisyToolchain/0.2.0/arm/arm-none-eabi/include/c++/10.3.1/bits/stl_algobase.h ****     }
 571:/Library/DaisyToolchain/0.2.0/arm/arm-none-eabi/include/c++/10.3.1/bits/stl_algobase.h **** 
 572:/Library/DaisyToolchain/0.2.0/arm/arm-none-eabi/include/c++/10.3.1/bits/stl_algobase.h **** #if __cplusplus >= 201103L
 573:/Library/DaisyToolchain/0.2.0/arm/arm-none-eabi/include/c++/10.3.1/bits/stl_algobase.h ****   /**
 574:/Library/DaisyToolchain/0.2.0/arm/arm-none-eabi/include/c++/10.3.1/bits/stl_algobase.h ****    *  @brief Moves the range [first,last) into result.
 575:/Library/DaisyToolchain/0.2.0/arm/arm-none-eabi/include/c++/10.3.1/bits/stl_algobase.h ****    *  @ingroup mutating_algorithms
 576:/Library/DaisyToolchain/0.2.0/arm/arm-none-eabi/include/c++/10.3.1/bits/stl_algobase.h ****    *  @param  __first  An input iterator.
 577:/Library/DaisyToolchain/0.2.0/arm/arm-none-eabi/include/c++/10.3.1/bits/stl_algobase.h ****    *  @param  __last   An input iterator.
 578:/Library/DaisyToolchain/0.2.0/arm/arm-none-eabi/include/c++/10.3.1/bits/stl_algobase.h ****    *  @param  __result An output iterator.
 579:/Library/DaisyToolchain/0.2.0/arm/arm-none-eabi/include/c++/10.3.1/bits/stl_algobase.h ****    *  @return   result + (last - first)
 580:/Library/DaisyToolchain/0.2.0/arm/arm-none-eabi/include/c++/10.3.1/bits/stl_algobase.h ****    *
 581:/Library/DaisyToolchain/0.2.0/arm/arm-none-eabi/include/c++/10.3.1/bits/stl_algobase.h ****    *  This inline function will boil down to a call to @c memmove whenever
 582:/Library/DaisyToolchain/0.2.0/arm/arm-none-eabi/include/c++/10.3.1/bits/stl_algobase.h ****    *  possible.  Failing that, if random access iterators are passed, then the
 583:/Library/DaisyToolchain/0.2.0/arm/arm-none-eabi/include/c++/10.3.1/bits/stl_algobase.h ****    *  loop count will be known (and therefore a candidate for compiler
 584:/Library/DaisyToolchain/0.2.0/arm/arm-none-eabi/include/c++/10.3.1/bits/stl_algobase.h ****    *  optimizations such as unrolling).  Result may not be contained within
 585:/Library/DaisyToolchain/0.2.0/arm/arm-none-eabi/include/c++/10.3.1/bits/stl_algobase.h ****    *  [first,last); the move_backward function should be used instead.
 586:/Library/DaisyToolchain/0.2.0/arm/arm-none-eabi/include/c++/10.3.1/bits/stl_algobase.h ****    *
 587:/Library/DaisyToolchain/0.2.0/arm/arm-none-eabi/include/c++/10.3.1/bits/stl_algobase.h ****    *  Note that the end of the output range is permitted to be contained
 588:/Library/DaisyToolchain/0.2.0/arm/arm-none-eabi/include/c++/10.3.1/bits/stl_algobase.h ****    *  within [first,last).
 589:/Library/DaisyToolchain/0.2.0/arm/arm-none-eabi/include/c++/10.3.1/bits/stl_algobase.h ****   */
 590:/Library/DaisyToolchain/0.2.0/arm/arm-none-eabi/include/c++/10.3.1/bits/stl_algobase.h ****   template<typename _II, typename _OI>
 591:/Library/DaisyToolchain/0.2.0/arm/arm-none-eabi/include/c++/10.3.1/bits/stl_algobase.h ****     _GLIBCXX20_CONSTEXPR
 592:/Library/DaisyToolchain/0.2.0/arm/arm-none-eabi/include/c++/10.3.1/bits/stl_algobase.h ****     inline _OI
 593:/Library/DaisyToolchain/0.2.0/arm/arm-none-eabi/include/c++/10.3.1/bits/stl_algobase.h ****     move(_II __first, _II __last, _OI __result)
 594:/Library/DaisyToolchain/0.2.0/arm/arm-none-eabi/include/c++/10.3.1/bits/stl_algobase.h ****     {
 595:/Library/DaisyToolchain/0.2.0/arm/arm-none-eabi/include/c++/10.3.1/bits/stl_algobase.h ****       // concept requirements
 596:/Library/DaisyToolchain/0.2.0/arm/arm-none-eabi/include/c++/10.3.1/bits/stl_algobase.h ****       __glibcxx_function_requires(_InputIteratorConcept<_II>)
 597:/Library/DaisyToolchain/0.2.0/arm/arm-none-eabi/include/c++/10.3.1/bits/stl_algobase.h ****       __glibcxx_function_requires(_OutputIteratorConcept<_OI,
 598:/Library/DaisyToolchain/0.2.0/arm/arm-none-eabi/include/c++/10.3.1/bits/stl_algobase.h **** 	    typename iterator_traits<_II>::value_type>)
 599:/Library/DaisyToolchain/0.2.0/arm/arm-none-eabi/include/c++/10.3.1/bits/stl_algobase.h ****       __glibcxx_requires_can_increment_range(__first, __last, __result);
 600:/Library/DaisyToolchain/0.2.0/arm/arm-none-eabi/include/c++/10.3.1/bits/stl_algobase.h **** 
 601:/Library/DaisyToolchain/0.2.0/arm/arm-none-eabi/include/c++/10.3.1/bits/stl_algobase.h ****       return std::__copy_move_a<true>(std::__miter_base(__first),
 602:/Library/DaisyToolchain/0.2.0/arm/arm-none-eabi/include/c++/10.3.1/bits/stl_algobase.h **** 				      std::__miter_base(__last), __result);
 603:/Library/DaisyToolchain/0.2.0/arm/arm-none-eabi/include/c++/10.3.1/bits/stl_algobase.h ****     }
 604:/Library/DaisyToolchain/0.2.0/arm/arm-none-eabi/include/c++/10.3.1/bits/stl_algobase.h **** 
 605:/Library/DaisyToolchain/0.2.0/arm/arm-none-eabi/include/c++/10.3.1/bits/stl_algobase.h **** #define _GLIBCXX_MOVE3(_Tp, _Up, _Vp) std::move(_Tp, _Up, _Vp)
 606:/Library/DaisyToolchain/0.2.0/arm/arm-none-eabi/include/c++/10.3.1/bits/stl_algobase.h **** #else
 607:/Library/DaisyToolchain/0.2.0/arm/arm-none-eabi/include/c++/10.3.1/bits/stl_algobase.h **** #define _GLIBCXX_MOVE3(_Tp, _Up, _Vp) std::copy(_Tp, _Up, _Vp)
 608:/Library/DaisyToolchain/0.2.0/arm/arm-none-eabi/include/c++/10.3.1/bits/stl_algobase.h **** #endif
 609:/Library/DaisyToolchain/0.2.0/arm/arm-none-eabi/include/c++/10.3.1/bits/stl_algobase.h **** 
 610:/Library/DaisyToolchain/0.2.0/arm/arm-none-eabi/include/c++/10.3.1/bits/stl_algobase.h ****   template<bool _IsMove, bool _IsSimple, typename _Category>
 611:/Library/DaisyToolchain/0.2.0/arm/arm-none-eabi/include/c++/10.3.1/bits/stl_algobase.h ****     struct __copy_move_backward
 612:/Library/DaisyToolchain/0.2.0/arm/arm-none-eabi/include/c++/10.3.1/bits/stl_algobase.h ****     {
 613:/Library/DaisyToolchain/0.2.0/arm/arm-none-eabi/include/c++/10.3.1/bits/stl_algobase.h ****       template<typename _BI1, typename _BI2>
 614:/Library/DaisyToolchain/0.2.0/arm/arm-none-eabi/include/c++/10.3.1/bits/stl_algobase.h **** 	_GLIBCXX20_CONSTEXPR
 615:/Library/DaisyToolchain/0.2.0/arm/arm-none-eabi/include/c++/10.3.1/bits/stl_algobase.h **** 	static _BI2
 616:/Library/DaisyToolchain/0.2.0/arm/arm-none-eabi/include/c++/10.3.1/bits/stl_algobase.h **** 	__copy_move_b(_BI1 __first, _BI1 __last, _BI2 __result)
 617:/Library/DaisyToolchain/0.2.0/arm/arm-none-eabi/include/c++/10.3.1/bits/stl_algobase.h **** 	{
 618:/Library/DaisyToolchain/0.2.0/arm/arm-none-eabi/include/c++/10.3.1/bits/stl_algobase.h **** 	  while (__first != __last)
 619:/Library/DaisyToolchain/0.2.0/arm/arm-none-eabi/include/c++/10.3.1/bits/stl_algobase.h **** 	    *--__result = *--__last;
ARM GAS  /var/folders/hl/qgbwny5j0fd895c2c41bk3tw0000gp/T//ccEG44Zu.s 			page 161


 620:/Library/DaisyToolchain/0.2.0/arm/arm-none-eabi/include/c++/10.3.1/bits/stl_algobase.h **** 	  return __result;
 621:/Library/DaisyToolchain/0.2.0/arm/arm-none-eabi/include/c++/10.3.1/bits/stl_algobase.h **** 	}
 622:/Library/DaisyToolchain/0.2.0/arm/arm-none-eabi/include/c++/10.3.1/bits/stl_algobase.h ****     };
 623:/Library/DaisyToolchain/0.2.0/arm/arm-none-eabi/include/c++/10.3.1/bits/stl_algobase.h **** 
 624:/Library/DaisyToolchain/0.2.0/arm/arm-none-eabi/include/c++/10.3.1/bits/stl_algobase.h **** #if __cplusplus >= 201103L
 625:/Library/DaisyToolchain/0.2.0/arm/arm-none-eabi/include/c++/10.3.1/bits/stl_algobase.h ****   template<typename _Category>
 626:/Library/DaisyToolchain/0.2.0/arm/arm-none-eabi/include/c++/10.3.1/bits/stl_algobase.h ****     struct __copy_move_backward<true, false, _Category>
 627:/Library/DaisyToolchain/0.2.0/arm/arm-none-eabi/include/c++/10.3.1/bits/stl_algobase.h ****     {
 628:/Library/DaisyToolchain/0.2.0/arm/arm-none-eabi/include/c++/10.3.1/bits/stl_algobase.h ****       template<typename _BI1, typename _BI2>
 629:/Library/DaisyToolchain/0.2.0/arm/arm-none-eabi/include/c++/10.3.1/bits/stl_algobase.h **** 	_GLIBCXX20_CONSTEXPR
 630:/Library/DaisyToolchain/0.2.0/arm/arm-none-eabi/include/c++/10.3.1/bits/stl_algobase.h **** 	static _BI2
 631:/Library/DaisyToolchain/0.2.0/arm/arm-none-eabi/include/c++/10.3.1/bits/stl_algobase.h **** 	__copy_move_b(_BI1 __first, _BI1 __last, _BI2 __result)
 632:/Library/DaisyToolchain/0.2.0/arm/arm-none-eabi/include/c++/10.3.1/bits/stl_algobase.h **** 	{
 633:/Library/DaisyToolchain/0.2.0/arm/arm-none-eabi/include/c++/10.3.1/bits/stl_algobase.h **** 	  while (__first != __last)
 634:/Library/DaisyToolchain/0.2.0/arm/arm-none-eabi/include/c++/10.3.1/bits/stl_algobase.h **** 	    *--__result = std::move(*--__last);
 635:/Library/DaisyToolchain/0.2.0/arm/arm-none-eabi/include/c++/10.3.1/bits/stl_algobase.h **** 	  return __result;
 636:/Library/DaisyToolchain/0.2.0/arm/arm-none-eabi/include/c++/10.3.1/bits/stl_algobase.h **** 	}
 637:/Library/DaisyToolchain/0.2.0/arm/arm-none-eabi/include/c++/10.3.1/bits/stl_algobase.h ****     };
 638:/Library/DaisyToolchain/0.2.0/arm/arm-none-eabi/include/c++/10.3.1/bits/stl_algobase.h **** #endif
 639:/Library/DaisyToolchain/0.2.0/arm/arm-none-eabi/include/c++/10.3.1/bits/stl_algobase.h **** 
 640:/Library/DaisyToolchain/0.2.0/arm/arm-none-eabi/include/c++/10.3.1/bits/stl_algobase.h ****   template<>
 641:/Library/DaisyToolchain/0.2.0/arm/arm-none-eabi/include/c++/10.3.1/bits/stl_algobase.h ****     struct __copy_move_backward<false, false, random_access_iterator_tag>
 642:/Library/DaisyToolchain/0.2.0/arm/arm-none-eabi/include/c++/10.3.1/bits/stl_algobase.h ****     {
 643:/Library/DaisyToolchain/0.2.0/arm/arm-none-eabi/include/c++/10.3.1/bits/stl_algobase.h ****       template<typename _BI1, typename _BI2>
 644:/Library/DaisyToolchain/0.2.0/arm/arm-none-eabi/include/c++/10.3.1/bits/stl_algobase.h **** 	_GLIBCXX20_CONSTEXPR
 645:/Library/DaisyToolchain/0.2.0/arm/arm-none-eabi/include/c++/10.3.1/bits/stl_algobase.h **** 	static _BI2
 646:/Library/DaisyToolchain/0.2.0/arm/arm-none-eabi/include/c++/10.3.1/bits/stl_algobase.h **** 	__copy_move_b(_BI1 __first, _BI1 __last, _BI2 __result)
 647:/Library/DaisyToolchain/0.2.0/arm/arm-none-eabi/include/c++/10.3.1/bits/stl_algobase.h **** 	{
 648:/Library/DaisyToolchain/0.2.0/arm/arm-none-eabi/include/c++/10.3.1/bits/stl_algobase.h **** 	  typename iterator_traits<_BI1>::difference_type
 649:/Library/DaisyToolchain/0.2.0/arm/arm-none-eabi/include/c++/10.3.1/bits/stl_algobase.h **** 	    __n = __last - __first;
 650:/Library/DaisyToolchain/0.2.0/arm/arm-none-eabi/include/c++/10.3.1/bits/stl_algobase.h **** 	  for (; __n > 0; --__n)
 651:/Library/DaisyToolchain/0.2.0/arm/arm-none-eabi/include/c++/10.3.1/bits/stl_algobase.h **** 	    *--__result = *--__last;
 652:/Library/DaisyToolchain/0.2.0/arm/arm-none-eabi/include/c++/10.3.1/bits/stl_algobase.h **** 	  return __result;
 653:/Library/DaisyToolchain/0.2.0/arm/arm-none-eabi/include/c++/10.3.1/bits/stl_algobase.h **** 	}
 654:/Library/DaisyToolchain/0.2.0/arm/arm-none-eabi/include/c++/10.3.1/bits/stl_algobase.h ****     };
 655:/Library/DaisyToolchain/0.2.0/arm/arm-none-eabi/include/c++/10.3.1/bits/stl_algobase.h **** 
 656:/Library/DaisyToolchain/0.2.0/arm/arm-none-eabi/include/c++/10.3.1/bits/stl_algobase.h **** #if __cplusplus >= 201103L
 657:/Library/DaisyToolchain/0.2.0/arm/arm-none-eabi/include/c++/10.3.1/bits/stl_algobase.h ****   template<>
 658:/Library/DaisyToolchain/0.2.0/arm/arm-none-eabi/include/c++/10.3.1/bits/stl_algobase.h ****     struct __copy_move_backward<true, false, random_access_iterator_tag>
 659:/Library/DaisyToolchain/0.2.0/arm/arm-none-eabi/include/c++/10.3.1/bits/stl_algobase.h ****     {
 660:/Library/DaisyToolchain/0.2.0/arm/arm-none-eabi/include/c++/10.3.1/bits/stl_algobase.h ****       template<typename _BI1, typename _BI2>
 661:/Library/DaisyToolchain/0.2.0/arm/arm-none-eabi/include/c++/10.3.1/bits/stl_algobase.h **** 	_GLIBCXX20_CONSTEXPR
 662:/Library/DaisyToolchain/0.2.0/arm/arm-none-eabi/include/c++/10.3.1/bits/stl_algobase.h **** 	static _BI2
 663:/Library/DaisyToolchain/0.2.0/arm/arm-none-eabi/include/c++/10.3.1/bits/stl_algobase.h **** 	__copy_move_b(_BI1 __first, _BI1 __last, _BI2 __result)
 664:/Library/DaisyToolchain/0.2.0/arm/arm-none-eabi/include/c++/10.3.1/bits/stl_algobase.h **** 	{
 665:/Library/DaisyToolchain/0.2.0/arm/arm-none-eabi/include/c++/10.3.1/bits/stl_algobase.h **** 	  typename iterator_traits<_BI1>::difference_type
 666:/Library/DaisyToolchain/0.2.0/arm/arm-none-eabi/include/c++/10.3.1/bits/stl_algobase.h **** 	    __n = __last - __first;
 667:/Library/DaisyToolchain/0.2.0/arm/arm-none-eabi/include/c++/10.3.1/bits/stl_algobase.h **** 	  for (; __n > 0; --__n)
 668:/Library/DaisyToolchain/0.2.0/arm/arm-none-eabi/include/c++/10.3.1/bits/stl_algobase.h **** 	    *--__result = std::move(*--__last);
 669:/Library/DaisyToolchain/0.2.0/arm/arm-none-eabi/include/c++/10.3.1/bits/stl_algobase.h **** 	  return __result;
 670:/Library/DaisyToolchain/0.2.0/arm/arm-none-eabi/include/c++/10.3.1/bits/stl_algobase.h **** 	}
 671:/Library/DaisyToolchain/0.2.0/arm/arm-none-eabi/include/c++/10.3.1/bits/stl_algobase.h ****     };
 672:/Library/DaisyToolchain/0.2.0/arm/arm-none-eabi/include/c++/10.3.1/bits/stl_algobase.h **** #endif
 673:/Library/DaisyToolchain/0.2.0/arm/arm-none-eabi/include/c++/10.3.1/bits/stl_algobase.h **** 
 674:/Library/DaisyToolchain/0.2.0/arm/arm-none-eabi/include/c++/10.3.1/bits/stl_algobase.h ****   template<bool _IsMove>
 675:/Library/DaisyToolchain/0.2.0/arm/arm-none-eabi/include/c++/10.3.1/bits/stl_algobase.h ****     struct __copy_move_backward<_IsMove, true, random_access_iterator_tag>
 676:/Library/DaisyToolchain/0.2.0/arm/arm-none-eabi/include/c++/10.3.1/bits/stl_algobase.h ****     {
ARM GAS  /var/folders/hl/qgbwny5j0fd895c2c41bk3tw0000gp/T//ccEG44Zu.s 			page 162


 677:/Library/DaisyToolchain/0.2.0/arm/arm-none-eabi/include/c++/10.3.1/bits/stl_algobase.h ****       template<typename _Tp>
 678:/Library/DaisyToolchain/0.2.0/arm/arm-none-eabi/include/c++/10.3.1/bits/stl_algobase.h **** 	_GLIBCXX20_CONSTEXPR
 679:/Library/DaisyToolchain/0.2.0/arm/arm-none-eabi/include/c++/10.3.1/bits/stl_algobase.h **** 	static _Tp*
 680:/Library/DaisyToolchain/0.2.0/arm/arm-none-eabi/include/c++/10.3.1/bits/stl_algobase.h **** 	__copy_move_b(const _Tp* __first, const _Tp* __last, _Tp* __result)
 681:/Library/DaisyToolchain/0.2.0/arm/arm-none-eabi/include/c++/10.3.1/bits/stl_algobase.h **** 	{
 682:/Library/DaisyToolchain/0.2.0/arm/arm-none-eabi/include/c++/10.3.1/bits/stl_algobase.h **** #if __cplusplus >= 201103L
 683:/Library/DaisyToolchain/0.2.0/arm/arm-none-eabi/include/c++/10.3.1/bits/stl_algobase.h **** 	  using __assignable = conditional<_IsMove,
 684:/Library/DaisyToolchain/0.2.0/arm/arm-none-eabi/include/c++/10.3.1/bits/stl_algobase.h **** 					   is_move_assignable<_Tp>,
 685:/Library/DaisyToolchain/0.2.0/arm/arm-none-eabi/include/c++/10.3.1/bits/stl_algobase.h **** 					   is_copy_assignable<_Tp>>;
 686:/Library/DaisyToolchain/0.2.0/arm/arm-none-eabi/include/c++/10.3.1/bits/stl_algobase.h **** 	  // trivial types can have deleted assignment
 687:/Library/DaisyToolchain/0.2.0/arm/arm-none-eabi/include/c++/10.3.1/bits/stl_algobase.h **** 	  static_assert( __assignable::type::value, "type is not assignable" );
 688:/Library/DaisyToolchain/0.2.0/arm/arm-none-eabi/include/c++/10.3.1/bits/stl_algobase.h **** #endif
 689:/Library/DaisyToolchain/0.2.0/arm/arm-none-eabi/include/c++/10.3.1/bits/stl_algobase.h **** 	  const ptrdiff_t _Num = __last - __first;
 690:/Library/DaisyToolchain/0.2.0/arm/arm-none-eabi/include/c++/10.3.1/bits/stl_algobase.h **** 	  if (_Num)
 691:/Library/DaisyToolchain/0.2.0/arm/arm-none-eabi/include/c++/10.3.1/bits/stl_algobase.h **** 	    __builtin_memmove(__result - _Num, __first, sizeof(_Tp) * _Num);
 692:/Library/DaisyToolchain/0.2.0/arm/arm-none-eabi/include/c++/10.3.1/bits/stl_algobase.h **** 	  return __result - _Num;
 693:/Library/DaisyToolchain/0.2.0/arm/arm-none-eabi/include/c++/10.3.1/bits/stl_algobase.h **** 	}
 694:/Library/DaisyToolchain/0.2.0/arm/arm-none-eabi/include/c++/10.3.1/bits/stl_algobase.h ****     };
 695:/Library/DaisyToolchain/0.2.0/arm/arm-none-eabi/include/c++/10.3.1/bits/stl_algobase.h **** 
 696:/Library/DaisyToolchain/0.2.0/arm/arm-none-eabi/include/c++/10.3.1/bits/stl_algobase.h ****   template<bool _IsMove, typename _BI1, typename _BI2>
 697:/Library/DaisyToolchain/0.2.0/arm/arm-none-eabi/include/c++/10.3.1/bits/stl_algobase.h ****     _GLIBCXX20_CONSTEXPR
 698:/Library/DaisyToolchain/0.2.0/arm/arm-none-eabi/include/c++/10.3.1/bits/stl_algobase.h ****     inline _BI2
 699:/Library/DaisyToolchain/0.2.0/arm/arm-none-eabi/include/c++/10.3.1/bits/stl_algobase.h ****     __copy_move_backward_a2(_BI1 __first, _BI1 __last, _BI2 __result)
 700:/Library/DaisyToolchain/0.2.0/arm/arm-none-eabi/include/c++/10.3.1/bits/stl_algobase.h ****     {
 701:/Library/DaisyToolchain/0.2.0/arm/arm-none-eabi/include/c++/10.3.1/bits/stl_algobase.h ****       typedef typename iterator_traits<_BI1>::iterator_category _Category;
 702:/Library/DaisyToolchain/0.2.0/arm/arm-none-eabi/include/c++/10.3.1/bits/stl_algobase.h **** #ifdef __cpp_lib_is_constant_evaluated
 703:/Library/DaisyToolchain/0.2.0/arm/arm-none-eabi/include/c++/10.3.1/bits/stl_algobase.h ****       if (std::is_constant_evaluated())
 704:/Library/DaisyToolchain/0.2.0/arm/arm-none-eabi/include/c++/10.3.1/bits/stl_algobase.h **** 	return std::__copy_move_backward<_IsMove, false, _Category>::
 705:/Library/DaisyToolchain/0.2.0/arm/arm-none-eabi/include/c++/10.3.1/bits/stl_algobase.h **** 	  __copy_move_b(__first, __last, __result);
 706:/Library/DaisyToolchain/0.2.0/arm/arm-none-eabi/include/c++/10.3.1/bits/stl_algobase.h **** #endif
 707:/Library/DaisyToolchain/0.2.0/arm/arm-none-eabi/include/c++/10.3.1/bits/stl_algobase.h ****       return std::__copy_move_backward<_IsMove,
 708:/Library/DaisyToolchain/0.2.0/arm/arm-none-eabi/include/c++/10.3.1/bits/stl_algobase.h **** 				       __memcpyable<_BI2, _BI1>::__value,
 709:/Library/DaisyToolchain/0.2.0/arm/arm-none-eabi/include/c++/10.3.1/bits/stl_algobase.h **** 				       _Category>::__copy_move_b(__first,
 710:/Library/DaisyToolchain/0.2.0/arm/arm-none-eabi/include/c++/10.3.1/bits/stl_algobase.h **** 								 __last,
 711:/Library/DaisyToolchain/0.2.0/arm/arm-none-eabi/include/c++/10.3.1/bits/stl_algobase.h **** 								 __result);
 712:/Library/DaisyToolchain/0.2.0/arm/arm-none-eabi/include/c++/10.3.1/bits/stl_algobase.h ****     }
 713:/Library/DaisyToolchain/0.2.0/arm/arm-none-eabi/include/c++/10.3.1/bits/stl_algobase.h **** 
 714:/Library/DaisyToolchain/0.2.0/arm/arm-none-eabi/include/c++/10.3.1/bits/stl_algobase.h ****   template<bool _IsMove, typename _BI1, typename _BI2>
 715:/Library/DaisyToolchain/0.2.0/arm/arm-none-eabi/include/c++/10.3.1/bits/stl_algobase.h ****     _GLIBCXX20_CONSTEXPR
 716:/Library/DaisyToolchain/0.2.0/arm/arm-none-eabi/include/c++/10.3.1/bits/stl_algobase.h ****     inline _BI2
 717:/Library/DaisyToolchain/0.2.0/arm/arm-none-eabi/include/c++/10.3.1/bits/stl_algobase.h ****     __copy_move_backward_a1(_BI1 __first, _BI1 __last, _BI2 __result)
 718:/Library/DaisyToolchain/0.2.0/arm/arm-none-eabi/include/c++/10.3.1/bits/stl_algobase.h ****     { return std::__copy_move_backward_a2<_IsMove>(__first, __last, __result); }
 719:/Library/DaisyToolchain/0.2.0/arm/arm-none-eabi/include/c++/10.3.1/bits/stl_algobase.h **** 
 720:/Library/DaisyToolchain/0.2.0/arm/arm-none-eabi/include/c++/10.3.1/bits/stl_algobase.h ****   template<bool _IsMove,
 721:/Library/DaisyToolchain/0.2.0/arm/arm-none-eabi/include/c++/10.3.1/bits/stl_algobase.h **** 	   typename _Tp, typename _Ref, typename _Ptr, typename _OI>
 722:/Library/DaisyToolchain/0.2.0/arm/arm-none-eabi/include/c++/10.3.1/bits/stl_algobase.h ****     _OI
 723:/Library/DaisyToolchain/0.2.0/arm/arm-none-eabi/include/c++/10.3.1/bits/stl_algobase.h ****     __copy_move_backward_a1(_GLIBCXX_STD_C::_Deque_iterator<_Tp, _Ref, _Ptr>,
 724:/Library/DaisyToolchain/0.2.0/arm/arm-none-eabi/include/c++/10.3.1/bits/stl_algobase.h **** 			    _GLIBCXX_STD_C::_Deque_iterator<_Tp, _Ref, _Ptr>,
 725:/Library/DaisyToolchain/0.2.0/arm/arm-none-eabi/include/c++/10.3.1/bits/stl_algobase.h **** 			    _OI);
 726:/Library/DaisyToolchain/0.2.0/arm/arm-none-eabi/include/c++/10.3.1/bits/stl_algobase.h **** 
 727:/Library/DaisyToolchain/0.2.0/arm/arm-none-eabi/include/c++/10.3.1/bits/stl_algobase.h ****   template<bool _IsMove,
 728:/Library/DaisyToolchain/0.2.0/arm/arm-none-eabi/include/c++/10.3.1/bits/stl_algobase.h **** 	   typename _ITp, typename _IRef, typename _IPtr, typename _OTp>
 729:/Library/DaisyToolchain/0.2.0/arm/arm-none-eabi/include/c++/10.3.1/bits/stl_algobase.h ****     _GLIBCXX_STD_C::_Deque_iterator<_OTp, _OTp&, _OTp*>
 730:/Library/DaisyToolchain/0.2.0/arm/arm-none-eabi/include/c++/10.3.1/bits/stl_algobase.h ****     __copy_move_backward_a1(
 731:/Library/DaisyToolchain/0.2.0/arm/arm-none-eabi/include/c++/10.3.1/bits/stl_algobase.h **** 			_GLIBCXX_STD_C::_Deque_iterator<_ITp, _IRef, _IPtr>,
 732:/Library/DaisyToolchain/0.2.0/arm/arm-none-eabi/include/c++/10.3.1/bits/stl_algobase.h **** 			_GLIBCXX_STD_C::_Deque_iterator<_ITp, _IRef, _IPtr>,
 733:/Library/DaisyToolchain/0.2.0/arm/arm-none-eabi/include/c++/10.3.1/bits/stl_algobase.h **** 			_GLIBCXX_STD_C::_Deque_iterator<_OTp, _OTp&, _OTp*>);
ARM GAS  /var/folders/hl/qgbwny5j0fd895c2c41bk3tw0000gp/T//ccEG44Zu.s 			page 163


 734:/Library/DaisyToolchain/0.2.0/arm/arm-none-eabi/include/c++/10.3.1/bits/stl_algobase.h **** 
 735:/Library/DaisyToolchain/0.2.0/arm/arm-none-eabi/include/c++/10.3.1/bits/stl_algobase.h ****   template<bool _IsMove, typename _II, typename _Tp>
 736:/Library/DaisyToolchain/0.2.0/arm/arm-none-eabi/include/c++/10.3.1/bits/stl_algobase.h ****     typename __gnu_cxx::__enable_if<
 737:/Library/DaisyToolchain/0.2.0/arm/arm-none-eabi/include/c++/10.3.1/bits/stl_algobase.h ****       __is_random_access_iter<_II>::__value,
 738:/Library/DaisyToolchain/0.2.0/arm/arm-none-eabi/include/c++/10.3.1/bits/stl_algobase.h ****       _GLIBCXX_STD_C::_Deque_iterator<_Tp, _Tp&, _Tp*> >::__type
 739:/Library/DaisyToolchain/0.2.0/arm/arm-none-eabi/include/c++/10.3.1/bits/stl_algobase.h ****     __copy_move_backward_a1(_II, _II,
 740:/Library/DaisyToolchain/0.2.0/arm/arm-none-eabi/include/c++/10.3.1/bits/stl_algobase.h **** 			    _GLIBCXX_STD_C::_Deque_iterator<_Tp, _Tp&, _Tp*>);
 741:/Library/DaisyToolchain/0.2.0/arm/arm-none-eabi/include/c++/10.3.1/bits/stl_algobase.h **** 
 742:/Library/DaisyToolchain/0.2.0/arm/arm-none-eabi/include/c++/10.3.1/bits/stl_algobase.h ****   template<bool _IsMove, typename _II, typename _OI>
 743:/Library/DaisyToolchain/0.2.0/arm/arm-none-eabi/include/c++/10.3.1/bits/stl_algobase.h ****     _GLIBCXX20_CONSTEXPR
 744:/Library/DaisyToolchain/0.2.0/arm/arm-none-eabi/include/c++/10.3.1/bits/stl_algobase.h ****     inline _OI
 745:/Library/DaisyToolchain/0.2.0/arm/arm-none-eabi/include/c++/10.3.1/bits/stl_algobase.h ****     __copy_move_backward_a(_II __first, _II __last, _OI __result)
 746:/Library/DaisyToolchain/0.2.0/arm/arm-none-eabi/include/c++/10.3.1/bits/stl_algobase.h ****     {
 747:/Library/DaisyToolchain/0.2.0/arm/arm-none-eabi/include/c++/10.3.1/bits/stl_algobase.h ****       return std::__niter_wrap(__result,
 748:/Library/DaisyToolchain/0.2.0/arm/arm-none-eabi/include/c++/10.3.1/bits/stl_algobase.h **** 		std::__copy_move_backward_a1<_IsMove>
 749:/Library/DaisyToolchain/0.2.0/arm/arm-none-eabi/include/c++/10.3.1/bits/stl_algobase.h **** 		  (std::__niter_base(__first), std::__niter_base(__last),
 750:/Library/DaisyToolchain/0.2.0/arm/arm-none-eabi/include/c++/10.3.1/bits/stl_algobase.h **** 		   std::__niter_base(__result)));
 751:/Library/DaisyToolchain/0.2.0/arm/arm-none-eabi/include/c++/10.3.1/bits/stl_algobase.h ****     }
 752:/Library/DaisyToolchain/0.2.0/arm/arm-none-eabi/include/c++/10.3.1/bits/stl_algobase.h **** 
 753:/Library/DaisyToolchain/0.2.0/arm/arm-none-eabi/include/c++/10.3.1/bits/stl_algobase.h ****   template<bool _IsMove,
 754:/Library/DaisyToolchain/0.2.0/arm/arm-none-eabi/include/c++/10.3.1/bits/stl_algobase.h **** 	   typename _Ite, typename _Seq, typename _Cat, typename _OI>
 755:/Library/DaisyToolchain/0.2.0/arm/arm-none-eabi/include/c++/10.3.1/bits/stl_algobase.h ****     _OI
 756:/Library/DaisyToolchain/0.2.0/arm/arm-none-eabi/include/c++/10.3.1/bits/stl_algobase.h ****     __copy_move_backward_a(
 757:/Library/DaisyToolchain/0.2.0/arm/arm-none-eabi/include/c++/10.3.1/bits/stl_algobase.h **** 		const ::__gnu_debug::_Safe_iterator<_Ite, _Seq, _Cat>&,
 758:/Library/DaisyToolchain/0.2.0/arm/arm-none-eabi/include/c++/10.3.1/bits/stl_algobase.h **** 		const ::__gnu_debug::_Safe_iterator<_Ite, _Seq, _Cat>&,
 759:/Library/DaisyToolchain/0.2.0/arm/arm-none-eabi/include/c++/10.3.1/bits/stl_algobase.h **** 		_OI);
 760:/Library/DaisyToolchain/0.2.0/arm/arm-none-eabi/include/c++/10.3.1/bits/stl_algobase.h **** 
 761:/Library/DaisyToolchain/0.2.0/arm/arm-none-eabi/include/c++/10.3.1/bits/stl_algobase.h ****   template<bool _IsMove,
 762:/Library/DaisyToolchain/0.2.0/arm/arm-none-eabi/include/c++/10.3.1/bits/stl_algobase.h **** 	   typename _II, typename _Ite, typename _Seq, typename _Cat>
 763:/Library/DaisyToolchain/0.2.0/arm/arm-none-eabi/include/c++/10.3.1/bits/stl_algobase.h ****     __gnu_debug::_Safe_iterator<_Ite, _Seq, _Cat>
 764:/Library/DaisyToolchain/0.2.0/arm/arm-none-eabi/include/c++/10.3.1/bits/stl_algobase.h ****     __copy_move_backward_a(_II, _II,
 765:/Library/DaisyToolchain/0.2.0/arm/arm-none-eabi/include/c++/10.3.1/bits/stl_algobase.h **** 		const ::__gnu_debug::_Safe_iterator<_Ite, _Seq, _Cat>&);
 766:/Library/DaisyToolchain/0.2.0/arm/arm-none-eabi/include/c++/10.3.1/bits/stl_algobase.h **** 
 767:/Library/DaisyToolchain/0.2.0/arm/arm-none-eabi/include/c++/10.3.1/bits/stl_algobase.h ****   template<bool _IsMove,
 768:/Library/DaisyToolchain/0.2.0/arm/arm-none-eabi/include/c++/10.3.1/bits/stl_algobase.h **** 	   typename _IIte, typename _ISeq, typename _ICat,
 769:/Library/DaisyToolchain/0.2.0/arm/arm-none-eabi/include/c++/10.3.1/bits/stl_algobase.h **** 	   typename _OIte, typename _OSeq, typename _OCat>
 770:/Library/DaisyToolchain/0.2.0/arm/arm-none-eabi/include/c++/10.3.1/bits/stl_algobase.h ****     ::__gnu_debug::_Safe_iterator<_OIte, _OSeq, _OCat>
 771:/Library/DaisyToolchain/0.2.0/arm/arm-none-eabi/include/c++/10.3.1/bits/stl_algobase.h ****     __copy_move_backward_a(
 772:/Library/DaisyToolchain/0.2.0/arm/arm-none-eabi/include/c++/10.3.1/bits/stl_algobase.h **** 		const ::__gnu_debug::_Safe_iterator<_IIte, _ISeq, _ICat>&,
 773:/Library/DaisyToolchain/0.2.0/arm/arm-none-eabi/include/c++/10.3.1/bits/stl_algobase.h **** 		const ::__gnu_debug::_Safe_iterator<_IIte, _ISeq, _ICat>&,
 774:/Library/DaisyToolchain/0.2.0/arm/arm-none-eabi/include/c++/10.3.1/bits/stl_algobase.h **** 		const ::__gnu_debug::_Safe_iterator<_OIte, _OSeq, _OCat>&);
 775:/Library/DaisyToolchain/0.2.0/arm/arm-none-eabi/include/c++/10.3.1/bits/stl_algobase.h **** 
 776:/Library/DaisyToolchain/0.2.0/arm/arm-none-eabi/include/c++/10.3.1/bits/stl_algobase.h ****   /**
 777:/Library/DaisyToolchain/0.2.0/arm/arm-none-eabi/include/c++/10.3.1/bits/stl_algobase.h ****    *  @brief Copies the range [first,last) into result.
 778:/Library/DaisyToolchain/0.2.0/arm/arm-none-eabi/include/c++/10.3.1/bits/stl_algobase.h ****    *  @ingroup mutating_algorithms
 779:/Library/DaisyToolchain/0.2.0/arm/arm-none-eabi/include/c++/10.3.1/bits/stl_algobase.h ****    *  @param  __first  A bidirectional iterator.
 780:/Library/DaisyToolchain/0.2.0/arm/arm-none-eabi/include/c++/10.3.1/bits/stl_algobase.h ****    *  @param  __last   A bidirectional iterator.
 781:/Library/DaisyToolchain/0.2.0/arm/arm-none-eabi/include/c++/10.3.1/bits/stl_algobase.h ****    *  @param  __result A bidirectional iterator.
 782:/Library/DaisyToolchain/0.2.0/arm/arm-none-eabi/include/c++/10.3.1/bits/stl_algobase.h ****    *  @return   result - (last - first)
 783:/Library/DaisyToolchain/0.2.0/arm/arm-none-eabi/include/c++/10.3.1/bits/stl_algobase.h ****    *
 784:/Library/DaisyToolchain/0.2.0/arm/arm-none-eabi/include/c++/10.3.1/bits/stl_algobase.h ****    *  The function has the same effect as copy, but starts at the end of the
 785:/Library/DaisyToolchain/0.2.0/arm/arm-none-eabi/include/c++/10.3.1/bits/stl_algobase.h ****    *  range and works its way to the start, returning the start of the result.
 786:/Library/DaisyToolchain/0.2.0/arm/arm-none-eabi/include/c++/10.3.1/bits/stl_algobase.h ****    *  This inline function will boil down to a call to @c memmove whenever
 787:/Library/DaisyToolchain/0.2.0/arm/arm-none-eabi/include/c++/10.3.1/bits/stl_algobase.h ****    *  possible.  Failing that, if random access iterators are passed, then the
 788:/Library/DaisyToolchain/0.2.0/arm/arm-none-eabi/include/c++/10.3.1/bits/stl_algobase.h ****    *  loop count will be known (and therefore a candidate for compiler
 789:/Library/DaisyToolchain/0.2.0/arm/arm-none-eabi/include/c++/10.3.1/bits/stl_algobase.h ****    *  optimizations such as unrolling).
 790:/Library/DaisyToolchain/0.2.0/arm/arm-none-eabi/include/c++/10.3.1/bits/stl_algobase.h ****    *
ARM GAS  /var/folders/hl/qgbwny5j0fd895c2c41bk3tw0000gp/T//ccEG44Zu.s 			page 164


 791:/Library/DaisyToolchain/0.2.0/arm/arm-none-eabi/include/c++/10.3.1/bits/stl_algobase.h ****    *  Result may not be in the range (first,last].  Use copy instead.  Note
 792:/Library/DaisyToolchain/0.2.0/arm/arm-none-eabi/include/c++/10.3.1/bits/stl_algobase.h ****    *  that the start of the output range may overlap [first,last).
 793:/Library/DaisyToolchain/0.2.0/arm/arm-none-eabi/include/c++/10.3.1/bits/stl_algobase.h ****   */
 794:/Library/DaisyToolchain/0.2.0/arm/arm-none-eabi/include/c++/10.3.1/bits/stl_algobase.h ****   template<typename _BI1, typename _BI2>
 795:/Library/DaisyToolchain/0.2.0/arm/arm-none-eabi/include/c++/10.3.1/bits/stl_algobase.h ****     _GLIBCXX20_CONSTEXPR
 796:/Library/DaisyToolchain/0.2.0/arm/arm-none-eabi/include/c++/10.3.1/bits/stl_algobase.h ****     inline _BI2
 797:/Library/DaisyToolchain/0.2.0/arm/arm-none-eabi/include/c++/10.3.1/bits/stl_algobase.h ****     copy_backward(_BI1 __first, _BI1 __last, _BI2 __result)
 798:/Library/DaisyToolchain/0.2.0/arm/arm-none-eabi/include/c++/10.3.1/bits/stl_algobase.h ****     {
 799:/Library/DaisyToolchain/0.2.0/arm/arm-none-eabi/include/c++/10.3.1/bits/stl_algobase.h ****       // concept requirements
 800:/Library/DaisyToolchain/0.2.0/arm/arm-none-eabi/include/c++/10.3.1/bits/stl_algobase.h ****       __glibcxx_function_requires(_BidirectionalIteratorConcept<_BI1>)
 801:/Library/DaisyToolchain/0.2.0/arm/arm-none-eabi/include/c++/10.3.1/bits/stl_algobase.h ****       __glibcxx_function_requires(_Mutable_BidirectionalIteratorConcept<_BI2>)
 802:/Library/DaisyToolchain/0.2.0/arm/arm-none-eabi/include/c++/10.3.1/bits/stl_algobase.h ****       __glibcxx_function_requires(_ConvertibleConcept<
 803:/Library/DaisyToolchain/0.2.0/arm/arm-none-eabi/include/c++/10.3.1/bits/stl_algobase.h **** 	    typename iterator_traits<_BI1>::value_type,
 804:/Library/DaisyToolchain/0.2.0/arm/arm-none-eabi/include/c++/10.3.1/bits/stl_algobase.h **** 	    typename iterator_traits<_BI2>::value_type>)
 805:/Library/DaisyToolchain/0.2.0/arm/arm-none-eabi/include/c++/10.3.1/bits/stl_algobase.h ****       __glibcxx_requires_can_decrement_range(__first, __last, __result);
 806:/Library/DaisyToolchain/0.2.0/arm/arm-none-eabi/include/c++/10.3.1/bits/stl_algobase.h **** 
 807:/Library/DaisyToolchain/0.2.0/arm/arm-none-eabi/include/c++/10.3.1/bits/stl_algobase.h ****       return std::__copy_move_backward_a<__is_move_iterator<_BI1>::__value>
 808:/Library/DaisyToolchain/0.2.0/arm/arm-none-eabi/include/c++/10.3.1/bits/stl_algobase.h **** 	     (std::__miter_base(__first), std::__miter_base(__last), __result);
 809:/Library/DaisyToolchain/0.2.0/arm/arm-none-eabi/include/c++/10.3.1/bits/stl_algobase.h ****     }
 810:/Library/DaisyToolchain/0.2.0/arm/arm-none-eabi/include/c++/10.3.1/bits/stl_algobase.h **** 
 811:/Library/DaisyToolchain/0.2.0/arm/arm-none-eabi/include/c++/10.3.1/bits/stl_algobase.h **** #if __cplusplus >= 201103L
 812:/Library/DaisyToolchain/0.2.0/arm/arm-none-eabi/include/c++/10.3.1/bits/stl_algobase.h ****   /**
 813:/Library/DaisyToolchain/0.2.0/arm/arm-none-eabi/include/c++/10.3.1/bits/stl_algobase.h ****    *  @brief Moves the range [first,last) into result.
 814:/Library/DaisyToolchain/0.2.0/arm/arm-none-eabi/include/c++/10.3.1/bits/stl_algobase.h ****    *  @ingroup mutating_algorithms
 815:/Library/DaisyToolchain/0.2.0/arm/arm-none-eabi/include/c++/10.3.1/bits/stl_algobase.h ****    *  @param  __first  A bidirectional iterator.
 816:/Library/DaisyToolchain/0.2.0/arm/arm-none-eabi/include/c++/10.3.1/bits/stl_algobase.h ****    *  @param  __last   A bidirectional iterator.
 817:/Library/DaisyToolchain/0.2.0/arm/arm-none-eabi/include/c++/10.3.1/bits/stl_algobase.h ****    *  @param  __result A bidirectional iterator.
 818:/Library/DaisyToolchain/0.2.0/arm/arm-none-eabi/include/c++/10.3.1/bits/stl_algobase.h ****    *  @return   result - (last - first)
 819:/Library/DaisyToolchain/0.2.0/arm/arm-none-eabi/include/c++/10.3.1/bits/stl_algobase.h ****    *
 820:/Library/DaisyToolchain/0.2.0/arm/arm-none-eabi/include/c++/10.3.1/bits/stl_algobase.h ****    *  The function has the same effect as move, but starts at the end of the
 821:/Library/DaisyToolchain/0.2.0/arm/arm-none-eabi/include/c++/10.3.1/bits/stl_algobase.h ****    *  range and works its way to the start, returning the start of the result.
 822:/Library/DaisyToolchain/0.2.0/arm/arm-none-eabi/include/c++/10.3.1/bits/stl_algobase.h ****    *  This inline function will boil down to a call to @c memmove whenever
 823:/Library/DaisyToolchain/0.2.0/arm/arm-none-eabi/include/c++/10.3.1/bits/stl_algobase.h ****    *  possible.  Failing that, if random access iterators are passed, then the
 824:/Library/DaisyToolchain/0.2.0/arm/arm-none-eabi/include/c++/10.3.1/bits/stl_algobase.h ****    *  loop count will be known (and therefore a candidate for compiler
 825:/Library/DaisyToolchain/0.2.0/arm/arm-none-eabi/include/c++/10.3.1/bits/stl_algobase.h ****    *  optimizations such as unrolling).
 826:/Library/DaisyToolchain/0.2.0/arm/arm-none-eabi/include/c++/10.3.1/bits/stl_algobase.h ****    *
 827:/Library/DaisyToolchain/0.2.0/arm/arm-none-eabi/include/c++/10.3.1/bits/stl_algobase.h ****    *  Result may not be in the range (first,last].  Use move instead.  Note
 828:/Library/DaisyToolchain/0.2.0/arm/arm-none-eabi/include/c++/10.3.1/bits/stl_algobase.h ****    *  that the start of the output range may overlap [first,last).
 829:/Library/DaisyToolchain/0.2.0/arm/arm-none-eabi/include/c++/10.3.1/bits/stl_algobase.h ****   */
 830:/Library/DaisyToolchain/0.2.0/arm/arm-none-eabi/include/c++/10.3.1/bits/stl_algobase.h ****   template<typename _BI1, typename _BI2>
 831:/Library/DaisyToolchain/0.2.0/arm/arm-none-eabi/include/c++/10.3.1/bits/stl_algobase.h ****     _GLIBCXX20_CONSTEXPR
 832:/Library/DaisyToolchain/0.2.0/arm/arm-none-eabi/include/c++/10.3.1/bits/stl_algobase.h ****     inline _BI2
 833:/Library/DaisyToolchain/0.2.0/arm/arm-none-eabi/include/c++/10.3.1/bits/stl_algobase.h ****     move_backward(_BI1 __first, _BI1 __last, _BI2 __result)
 834:/Library/DaisyToolchain/0.2.0/arm/arm-none-eabi/include/c++/10.3.1/bits/stl_algobase.h ****     {
 835:/Library/DaisyToolchain/0.2.0/arm/arm-none-eabi/include/c++/10.3.1/bits/stl_algobase.h ****       // concept requirements
 836:/Library/DaisyToolchain/0.2.0/arm/arm-none-eabi/include/c++/10.3.1/bits/stl_algobase.h ****       __glibcxx_function_requires(_BidirectionalIteratorConcept<_BI1>)
 837:/Library/DaisyToolchain/0.2.0/arm/arm-none-eabi/include/c++/10.3.1/bits/stl_algobase.h ****       __glibcxx_function_requires(_Mutable_BidirectionalIteratorConcept<_BI2>)
 838:/Library/DaisyToolchain/0.2.0/arm/arm-none-eabi/include/c++/10.3.1/bits/stl_algobase.h ****       __glibcxx_function_requires(_ConvertibleConcept<
 839:/Library/DaisyToolchain/0.2.0/arm/arm-none-eabi/include/c++/10.3.1/bits/stl_algobase.h **** 	    typename iterator_traits<_BI1>::value_type,
 840:/Library/DaisyToolchain/0.2.0/arm/arm-none-eabi/include/c++/10.3.1/bits/stl_algobase.h **** 	    typename iterator_traits<_BI2>::value_type>)
 841:/Library/DaisyToolchain/0.2.0/arm/arm-none-eabi/include/c++/10.3.1/bits/stl_algobase.h ****       __glibcxx_requires_can_decrement_range(__first, __last, __result);
 842:/Library/DaisyToolchain/0.2.0/arm/arm-none-eabi/include/c++/10.3.1/bits/stl_algobase.h **** 
 843:/Library/DaisyToolchain/0.2.0/arm/arm-none-eabi/include/c++/10.3.1/bits/stl_algobase.h ****       return std::__copy_move_backward_a<true>(std::__miter_base(__first),
 844:/Library/DaisyToolchain/0.2.0/arm/arm-none-eabi/include/c++/10.3.1/bits/stl_algobase.h **** 					       std::__miter_base(__last),
 845:/Library/DaisyToolchain/0.2.0/arm/arm-none-eabi/include/c++/10.3.1/bits/stl_algobase.h **** 					       __result);
 846:/Library/DaisyToolchain/0.2.0/arm/arm-none-eabi/include/c++/10.3.1/bits/stl_algobase.h ****     }
 847:/Library/DaisyToolchain/0.2.0/arm/arm-none-eabi/include/c++/10.3.1/bits/stl_algobase.h **** 
ARM GAS  /var/folders/hl/qgbwny5j0fd895c2c41bk3tw0000gp/T//ccEG44Zu.s 			page 165


 848:/Library/DaisyToolchain/0.2.0/arm/arm-none-eabi/include/c++/10.3.1/bits/stl_algobase.h **** #define _GLIBCXX_MOVE_BACKWARD3(_Tp, _Up, _Vp) std::move_backward(_Tp, _Up, _Vp)
 849:/Library/DaisyToolchain/0.2.0/arm/arm-none-eabi/include/c++/10.3.1/bits/stl_algobase.h **** #else
 850:/Library/DaisyToolchain/0.2.0/arm/arm-none-eabi/include/c++/10.3.1/bits/stl_algobase.h **** #define _GLIBCXX_MOVE_BACKWARD3(_Tp, _Up, _Vp) std::copy_backward(_Tp, _Up, _Vp)
 851:/Library/DaisyToolchain/0.2.0/arm/arm-none-eabi/include/c++/10.3.1/bits/stl_algobase.h **** #endif
 852:/Library/DaisyToolchain/0.2.0/arm/arm-none-eabi/include/c++/10.3.1/bits/stl_algobase.h **** 
 853:/Library/DaisyToolchain/0.2.0/arm/arm-none-eabi/include/c++/10.3.1/bits/stl_algobase.h ****   template<typename _ForwardIterator, typename _Tp>
 854:/Library/DaisyToolchain/0.2.0/arm/arm-none-eabi/include/c++/10.3.1/bits/stl_algobase.h ****     _GLIBCXX20_CONSTEXPR
 855:/Library/DaisyToolchain/0.2.0/arm/arm-none-eabi/include/c++/10.3.1/bits/stl_algobase.h ****     inline typename
 856:/Library/DaisyToolchain/0.2.0/arm/arm-none-eabi/include/c++/10.3.1/bits/stl_algobase.h ****     __gnu_cxx::__enable_if<!__is_scalar<_Tp>::__value, void>::__type
 857:/Library/DaisyToolchain/0.2.0/arm/arm-none-eabi/include/c++/10.3.1/bits/stl_algobase.h ****     __fill_a1(_ForwardIterator __first, _ForwardIterator __last,
 858:/Library/DaisyToolchain/0.2.0/arm/arm-none-eabi/include/c++/10.3.1/bits/stl_algobase.h **** 	      const _Tp& __value)
 859:/Library/DaisyToolchain/0.2.0/arm/arm-none-eabi/include/c++/10.3.1/bits/stl_algobase.h ****     {
 860:/Library/DaisyToolchain/0.2.0/arm/arm-none-eabi/include/c++/10.3.1/bits/stl_algobase.h ****       for (; __first != __last; ++__first)
 861:/Library/DaisyToolchain/0.2.0/arm/arm-none-eabi/include/c++/10.3.1/bits/stl_algobase.h **** 	*__first = __value;
 862:/Library/DaisyToolchain/0.2.0/arm/arm-none-eabi/include/c++/10.3.1/bits/stl_algobase.h ****     }
 863:/Library/DaisyToolchain/0.2.0/arm/arm-none-eabi/include/c++/10.3.1/bits/stl_algobase.h **** 
 864:/Library/DaisyToolchain/0.2.0/arm/arm-none-eabi/include/c++/10.3.1/bits/stl_algobase.h ****   template<typename _ForwardIterator, typename _Tp>
 865:/Library/DaisyToolchain/0.2.0/arm/arm-none-eabi/include/c++/10.3.1/bits/stl_algobase.h ****     _GLIBCXX20_CONSTEXPR
 866:/Library/DaisyToolchain/0.2.0/arm/arm-none-eabi/include/c++/10.3.1/bits/stl_algobase.h ****     inline typename
 867:/Library/DaisyToolchain/0.2.0/arm/arm-none-eabi/include/c++/10.3.1/bits/stl_algobase.h ****     __gnu_cxx::__enable_if<__is_scalar<_Tp>::__value, void>::__type
 868:/Library/DaisyToolchain/0.2.0/arm/arm-none-eabi/include/c++/10.3.1/bits/stl_algobase.h ****     __fill_a1(_ForwardIterator __first, _ForwardIterator __last,
 869:/Library/DaisyToolchain/0.2.0/arm/arm-none-eabi/include/c++/10.3.1/bits/stl_algobase.h **** 	      const _Tp& __value)
 870:/Library/DaisyToolchain/0.2.0/arm/arm-none-eabi/include/c++/10.3.1/bits/stl_algobase.h ****     {
 871:/Library/DaisyToolchain/0.2.0/arm/arm-none-eabi/include/c++/10.3.1/bits/stl_algobase.h ****       const _Tp __tmp = __value;
 872:/Library/DaisyToolchain/0.2.0/arm/arm-none-eabi/include/c++/10.3.1/bits/stl_algobase.h ****       for (; __first != __last; ++__first)
 873:/Library/DaisyToolchain/0.2.0/arm/arm-none-eabi/include/c++/10.3.1/bits/stl_algobase.h **** 	*__first = __tmp;
 5410              		.loc 21 873 11 view .LVU1281
 5411 00ec 4946     		mov	r1, r9
 5412 00ee 4FF48032 		mov	r2, #65536
 5413              	.LBE2263:
 5414              	.LBE2262:
 5415              	.LBE2261:
 5416              	.LBE2260:
 5417              	.LBE2259:
 5418              	.LBE2258:
 108:../../../mutable-instruments/rings/dsp/fx/fx_engine.h ****     Clear();
 5419              		.loc 13 108 13 view .LVU1282
 5420 00f2 6060     		str	r0, [r4, #4]
 5421              	.LBE2273:
 5422              	.LBE2277:
 5423              	.LBE2321:
 5424              	.LBE2326:
 5425              	.LBE2331:
 5426              	.LBE2338:
 5427              	.LBB2339:
 5428              	.LBB2250:
  46:processor.h   **** }
 5429              		.loc 9 46 14 view .LVU1283
 5430 00f4 85F84596 		strb	r9, [r5, #1605]
 5431              	.LVL266:
  46:processor.h   **** }
 5432              		.loc 9 46 14 view .LVU1284
 5433              	.LBE2250:
 5434              	.LBE2339:
  76:Interesting.cpp **** 	
 5435              		.loc 17 76 2 is_stmt 1 view .LVU1285
 5436              	.LBB2340:
ARM GAS  /var/folders/hl/qgbwny5j0fd895c2c41bk3tw0000gp/T//ccEG44Zu.s 			page 166


 5437              	.LBI2252:
  25:effects_handling.h ****     {
 5438              		.loc 11 25 10 view .LVU1286
 5439              	.LBB2332:
  27:effects_handling.h ****         enabled_ = false;
 5440              		.loc 11 27 9 view .LVU1287
 5441              	.LBB2327:
 5442              	.LBI2254:
  43:../../../mutable-instruments/rings/dsp/fx/reverb.h ****     engine_.Init(buffer);
 5443              		.loc 12 43 8 view .LVU1288
 5444              	.LBB2322:
  44:../../../mutable-instruments/rings/dsp/fx/reverb.h ****     engine_.SetLFOFrequency(LFO_1, 0.5f / 48000.0f);
 5445              		.loc 12 44 5 view .LVU1289
 5446              	.LBB2278:
 5447              	.LBI2256:
 107:../../../mutable-instruments/rings/dsp/fx/fx_engine.h ****     buffer_ = buffer;
 5448              		.loc 13 107 8 view .LVU1290
 5449              	.LBB2274:
 5450              	.LBB2270:
 5451              	.LBI2258:
 112:../../../mutable-instruments/rings/dsp/fx/fx_engine.h ****     std::fill(&buffer_[0], &buffer_[size], 0);
 5452              		.loc 13 112 8 view .LVU1291
 5453              	.LBB2268:
 5454              	.LBB2267:
 5455              	.LBI2260:
 874:/Library/DaisyToolchain/0.2.0/arm/arm-none-eabi/include/c++/10.3.1/bits/stl_algobase.h ****     }
 875:/Library/DaisyToolchain/0.2.0/arm/arm-none-eabi/include/c++/10.3.1/bits/stl_algobase.h **** 
 876:/Library/DaisyToolchain/0.2.0/arm/arm-none-eabi/include/c++/10.3.1/bits/stl_algobase.h ****   // Specialization: for char types we can use memset.
 877:/Library/DaisyToolchain/0.2.0/arm/arm-none-eabi/include/c++/10.3.1/bits/stl_algobase.h ****   template<typename _Tp>
 878:/Library/DaisyToolchain/0.2.0/arm/arm-none-eabi/include/c++/10.3.1/bits/stl_algobase.h ****     _GLIBCXX20_CONSTEXPR
 879:/Library/DaisyToolchain/0.2.0/arm/arm-none-eabi/include/c++/10.3.1/bits/stl_algobase.h ****     inline typename
 880:/Library/DaisyToolchain/0.2.0/arm/arm-none-eabi/include/c++/10.3.1/bits/stl_algobase.h ****     __gnu_cxx::__enable_if<__is_byte<_Tp>::__value, void>::__type
 881:/Library/DaisyToolchain/0.2.0/arm/arm-none-eabi/include/c++/10.3.1/bits/stl_algobase.h ****     __fill_a1(_Tp* __first, _Tp* __last, const _Tp& __c)
 882:/Library/DaisyToolchain/0.2.0/arm/arm-none-eabi/include/c++/10.3.1/bits/stl_algobase.h ****     {
 883:/Library/DaisyToolchain/0.2.0/arm/arm-none-eabi/include/c++/10.3.1/bits/stl_algobase.h ****       const _Tp __tmp = __c;
 884:/Library/DaisyToolchain/0.2.0/arm/arm-none-eabi/include/c++/10.3.1/bits/stl_algobase.h **** #if __cpp_lib_is_constant_evaluated
 885:/Library/DaisyToolchain/0.2.0/arm/arm-none-eabi/include/c++/10.3.1/bits/stl_algobase.h ****       if (std::is_constant_evaluated())
 886:/Library/DaisyToolchain/0.2.0/arm/arm-none-eabi/include/c++/10.3.1/bits/stl_algobase.h **** 	{
 887:/Library/DaisyToolchain/0.2.0/arm/arm-none-eabi/include/c++/10.3.1/bits/stl_algobase.h **** 	  for (; __first != __last; ++__first)
 888:/Library/DaisyToolchain/0.2.0/arm/arm-none-eabi/include/c++/10.3.1/bits/stl_algobase.h **** 	    *__first = __tmp;
 889:/Library/DaisyToolchain/0.2.0/arm/arm-none-eabi/include/c++/10.3.1/bits/stl_algobase.h **** 	  return;
 890:/Library/DaisyToolchain/0.2.0/arm/arm-none-eabi/include/c++/10.3.1/bits/stl_algobase.h **** 	}
 891:/Library/DaisyToolchain/0.2.0/arm/arm-none-eabi/include/c++/10.3.1/bits/stl_algobase.h **** #endif
 892:/Library/DaisyToolchain/0.2.0/arm/arm-none-eabi/include/c++/10.3.1/bits/stl_algobase.h ****       if (const size_t __len = __last - __first)
 893:/Library/DaisyToolchain/0.2.0/arm/arm-none-eabi/include/c++/10.3.1/bits/stl_algobase.h **** 	__builtin_memset(__first, static_cast<unsigned char>(__tmp), __len);
 894:/Library/DaisyToolchain/0.2.0/arm/arm-none-eabi/include/c++/10.3.1/bits/stl_algobase.h ****     }
 895:/Library/DaisyToolchain/0.2.0/arm/arm-none-eabi/include/c++/10.3.1/bits/stl_algobase.h **** 
 896:/Library/DaisyToolchain/0.2.0/arm/arm-none-eabi/include/c++/10.3.1/bits/stl_algobase.h ****   template<typename _Ite, typename _Cont, typename _Tp>
 897:/Library/DaisyToolchain/0.2.0/arm/arm-none-eabi/include/c++/10.3.1/bits/stl_algobase.h ****     _GLIBCXX20_CONSTEXPR
 898:/Library/DaisyToolchain/0.2.0/arm/arm-none-eabi/include/c++/10.3.1/bits/stl_algobase.h ****     inline void
 899:/Library/DaisyToolchain/0.2.0/arm/arm-none-eabi/include/c++/10.3.1/bits/stl_algobase.h ****     __fill_a1(::__gnu_cxx::__normal_iterator<_Ite, _Cont> __first,
 900:/Library/DaisyToolchain/0.2.0/arm/arm-none-eabi/include/c++/10.3.1/bits/stl_algobase.h **** 	      ::__gnu_cxx::__normal_iterator<_Ite, _Cont> __last,
 901:/Library/DaisyToolchain/0.2.0/arm/arm-none-eabi/include/c++/10.3.1/bits/stl_algobase.h **** 	      const _Tp& __value)
 902:/Library/DaisyToolchain/0.2.0/arm/arm-none-eabi/include/c++/10.3.1/bits/stl_algobase.h ****     { std::__fill_a1(__first.base(), __last.base(), __value); }
 903:/Library/DaisyToolchain/0.2.0/arm/arm-none-eabi/include/c++/10.3.1/bits/stl_algobase.h **** 
 904:/Library/DaisyToolchain/0.2.0/arm/arm-none-eabi/include/c++/10.3.1/bits/stl_algobase.h ****   template<typename _Tp, typename _VTp>
 905:/Library/DaisyToolchain/0.2.0/arm/arm-none-eabi/include/c++/10.3.1/bits/stl_algobase.h ****     void
ARM GAS  /var/folders/hl/qgbwny5j0fd895c2c41bk3tw0000gp/T//ccEG44Zu.s 			page 167


 906:/Library/DaisyToolchain/0.2.0/arm/arm-none-eabi/include/c++/10.3.1/bits/stl_algobase.h ****     __fill_a1(const _GLIBCXX_STD_C::_Deque_iterator<_Tp, _Tp&, _Tp*>&,
 907:/Library/DaisyToolchain/0.2.0/arm/arm-none-eabi/include/c++/10.3.1/bits/stl_algobase.h **** 	      const _GLIBCXX_STD_C::_Deque_iterator<_Tp, _Tp&, _Tp*>&,
 908:/Library/DaisyToolchain/0.2.0/arm/arm-none-eabi/include/c++/10.3.1/bits/stl_algobase.h **** 	      const _VTp&);
 909:/Library/DaisyToolchain/0.2.0/arm/arm-none-eabi/include/c++/10.3.1/bits/stl_algobase.h **** 
 910:/Library/DaisyToolchain/0.2.0/arm/arm-none-eabi/include/c++/10.3.1/bits/stl_algobase.h ****   template<typename _FIte, typename _Tp>
 911:/Library/DaisyToolchain/0.2.0/arm/arm-none-eabi/include/c++/10.3.1/bits/stl_algobase.h ****     _GLIBCXX20_CONSTEXPR
 912:/Library/DaisyToolchain/0.2.0/arm/arm-none-eabi/include/c++/10.3.1/bits/stl_algobase.h ****     inline void
 913:/Library/DaisyToolchain/0.2.0/arm/arm-none-eabi/include/c++/10.3.1/bits/stl_algobase.h ****     __fill_a(_FIte __first, _FIte __last, const _Tp& __value)
 914:/Library/DaisyToolchain/0.2.0/arm/arm-none-eabi/include/c++/10.3.1/bits/stl_algobase.h ****     { std::__fill_a1(__first, __last, __value); }
 915:/Library/DaisyToolchain/0.2.0/arm/arm-none-eabi/include/c++/10.3.1/bits/stl_algobase.h **** 
 916:/Library/DaisyToolchain/0.2.0/arm/arm-none-eabi/include/c++/10.3.1/bits/stl_algobase.h ****   template<typename _Ite, typename _Seq, typename _Cat, typename _Tp>
 917:/Library/DaisyToolchain/0.2.0/arm/arm-none-eabi/include/c++/10.3.1/bits/stl_algobase.h ****     void
 918:/Library/DaisyToolchain/0.2.0/arm/arm-none-eabi/include/c++/10.3.1/bits/stl_algobase.h ****     __fill_a(const ::__gnu_debug::_Safe_iterator<_Ite, _Seq, _Cat>&,
 919:/Library/DaisyToolchain/0.2.0/arm/arm-none-eabi/include/c++/10.3.1/bits/stl_algobase.h **** 	     const ::__gnu_debug::_Safe_iterator<_Ite, _Seq, _Cat>&,
 920:/Library/DaisyToolchain/0.2.0/arm/arm-none-eabi/include/c++/10.3.1/bits/stl_algobase.h **** 	     const _Tp&);
 921:/Library/DaisyToolchain/0.2.0/arm/arm-none-eabi/include/c++/10.3.1/bits/stl_algobase.h **** 
 922:/Library/DaisyToolchain/0.2.0/arm/arm-none-eabi/include/c++/10.3.1/bits/stl_algobase.h ****   /**
 923:/Library/DaisyToolchain/0.2.0/arm/arm-none-eabi/include/c++/10.3.1/bits/stl_algobase.h ****    *  @brief Fills the range [first,last) with copies of value.
 924:/Library/DaisyToolchain/0.2.0/arm/arm-none-eabi/include/c++/10.3.1/bits/stl_algobase.h ****    *  @ingroup mutating_algorithms
 925:/Library/DaisyToolchain/0.2.0/arm/arm-none-eabi/include/c++/10.3.1/bits/stl_algobase.h ****    *  @param  __first  A forward iterator.
 926:/Library/DaisyToolchain/0.2.0/arm/arm-none-eabi/include/c++/10.3.1/bits/stl_algobase.h ****    *  @param  __last   A forward iterator.
 927:/Library/DaisyToolchain/0.2.0/arm/arm-none-eabi/include/c++/10.3.1/bits/stl_algobase.h ****    *  @param  __value  A reference-to-const of arbitrary type.
 928:/Library/DaisyToolchain/0.2.0/arm/arm-none-eabi/include/c++/10.3.1/bits/stl_algobase.h ****    *  @return   Nothing.
 929:/Library/DaisyToolchain/0.2.0/arm/arm-none-eabi/include/c++/10.3.1/bits/stl_algobase.h ****    *
 930:/Library/DaisyToolchain/0.2.0/arm/arm-none-eabi/include/c++/10.3.1/bits/stl_algobase.h ****    *  This function fills a range with copies of the same value.  For char
 931:/Library/DaisyToolchain/0.2.0/arm/arm-none-eabi/include/c++/10.3.1/bits/stl_algobase.h ****    *  types filling contiguous areas of memory, this becomes an inline call
 932:/Library/DaisyToolchain/0.2.0/arm/arm-none-eabi/include/c++/10.3.1/bits/stl_algobase.h ****    *  to @c memset or @c wmemset.
 933:/Library/DaisyToolchain/0.2.0/arm/arm-none-eabi/include/c++/10.3.1/bits/stl_algobase.h ****   */
 934:/Library/DaisyToolchain/0.2.0/arm/arm-none-eabi/include/c++/10.3.1/bits/stl_algobase.h ****   template<typename _ForwardIterator, typename _Tp>
 935:/Library/DaisyToolchain/0.2.0/arm/arm-none-eabi/include/c++/10.3.1/bits/stl_algobase.h ****     _GLIBCXX20_CONSTEXPR
 936:/Library/DaisyToolchain/0.2.0/arm/arm-none-eabi/include/c++/10.3.1/bits/stl_algobase.h ****     inline void
 937:/Library/DaisyToolchain/0.2.0/arm/arm-none-eabi/include/c++/10.3.1/bits/stl_algobase.h ****     fill(_ForwardIterator __first, _ForwardIterator __last, const _Tp& __value)
 5456              		.loc 21 937 5 view .LVU1292
 5457              	.LBB2266:
 5458              	.LBI2261:
 913:/Library/DaisyToolchain/0.2.0/arm/arm-none-eabi/include/c++/10.3.1/bits/stl_algobase.h ****     { std::__fill_a1(__first, __last, __value); }
 5459              		.loc 21 913 5 view .LVU1293
 5460              	.LBB2265:
 5461              	.LBI2262:
 868:/Library/DaisyToolchain/0.2.0/arm/arm-none-eabi/include/c++/10.3.1/bits/stl_algobase.h **** 	      const _Tp& __value)
 5462              		.loc 21 868 5 view .LVU1294
 5463              	.LBB2264:
 872:/Library/DaisyToolchain/0.2.0/arm/arm-none-eabi/include/c++/10.3.1/bits/stl_algobase.h **** 	*__first = __tmp;
 5464              		.loc 21 872 22 view .LVU1295
 873:/Library/DaisyToolchain/0.2.0/arm/arm-none-eabi/include/c++/10.3.1/bits/stl_algobase.h ****     }
 5465              		.loc 21 873 11 is_stmt 0 view .LVU1296
 5466 00f8 FFF7FEFF 		bl	memset
 5467              	.LVL267:
 873:/Library/DaisyToolchain/0.2.0/arm/arm-none-eabi/include/c++/10.3.1/bits/stl_algobase.h ****     }
 5468              		.loc 21 873 11 view .LVU1297
 5469              	.LBE2264:
 5470              	.LBE2265:
 5471              	.LBE2266:
 5472              	.LBE2267:
 5473              	.LBE2268:
 5474              	.LBE2270:
 5475              	.LBE2274:
ARM GAS  /var/folders/hl/qgbwny5j0fd895c2c41bk3tw0000gp/T//ccEG44Zu.s 			page 168


 5476              	.LBE2278:
 5477              	.LBB2279:
 5478              	.LBB2280:
 5479              	.LBB2281:
 5480              	.LBB2282:
  78:../../../mutable-instruments/stmlib/dsp/cosine_oscillator.h ****   }
 5481              		.loc 15 78 9 view .LVU1298
 5482 00fc 4FF07C53 		mov	r3, #1056964608
 5483              	.LBE2282:
 5484              	.LBE2281:
 5485              	.LBE2280:
 5486              	.LBE2279:
 5487              	.LBB2299:
 5488              	.LBB2275:
 5489              	.LBB2271:
 5490              	.LBB2269:
 114:../../../mutable-instruments/rings/dsp/fx/fx_engine.h ****   }
 5491              		.loc 13 114 16 view .LVU1299
 5492 0100 C4F80090 		str	r9, [r4]
 5493              	.LVL268:
 114:../../../mutable-instruments/rings/dsp/fx/fx_engine.h ****   }
 5494              		.loc 13 114 16 view .LVU1300
 5495              	.LBE2269:
 5496              	.LBE2271:
 5497              	.LBE2275:
 5498              	.LBE2299:
  45:../../../mutable-instruments/rings/dsp/fx/reverb.h ****     engine_.SetLFOFrequency(LFO_2, 0.3f / 48000.0f);
 5499              		.loc 12 45 5 is_stmt 1 view .LVU1301
 5500              	.LBB2300:
 5501              	.LBI2279:
 265:../../../mutable-instruments/rings/dsp/fx/fx_engine.h ****     lfo_[index].template Init<stmlib::COSINE_OSCILLATOR_APPROXIMATE>(frequency * 32.0f);
 5502              		.loc 13 265 15 view .LVU1302
 5503              	.LBB2295:
 5504              	.LBI2280:
  50:../../../mutable-instruments/stmlib/dsp/cosine_oscillator.h ****     if (mode == COSINE_OSCILLATOR_APPROXIMATE) {
 5505              		.loc 15 50 15 view .LVU1303
 5506              	.LBB2286:
 5507              	.LBI2286:
  60:../../../mutable-instruments/stmlib/dsp/cosine_oscillator.h ****     float sign = 16.0f;
 5508              		.loc 15 60 15 view .LVU1304
 5509              	.LBB2287:
  61:../../../mutable-instruments/stmlib/dsp/cosine_oscillator.h ****     frequency -= 0.25f;
 5510              		.loc 15 61 5 view .LVU1305
  62:../../../mutable-instruments/stmlib/dsp/cosine_oscillator.h ****     if (frequency < 0.0f) {
 5511              		.loc 15 62 5 view .LVU1306
  63:../../../mutable-instruments/stmlib/dsp/cosine_oscillator.h ****       frequency = -frequency;
 5512              		.loc 15 63 5 view .LVU1307
  64:../../../mutable-instruments/stmlib/dsp/cosine_oscillator.h ****     } else {
 5513              		.loc 15 64 7 view .LVU1308
  72:../../../mutable-instruments/stmlib/dsp/cosine_oscillator.h ****     initial_amplitude_ = iir_coefficient_ * 0.25f;
 5514              		.loc 15 72 5 view .LVU1309
 5515              	.LBE2287:
 5516              	.LBE2286:
 5517              	.LBE2295:
 5518              	.LBE2300:
 5519              	.LBE2322:
 5520              	.LBE2327:
ARM GAS  /var/folders/hl/qgbwny5j0fd895c2c41bk3tw0000gp/T//ccEG44Zu.s 			page 169


 5521              	.LBE2332:
 5522              	.LBE2340:
  78:Interesting.cpp **** 	while(1) 
 5523              		.loc 17 78 15 is_stmt 0 view .LVU1310
 5524 0104 5549     		ldr	r1, .L127+40
 5525              	.LBB2341:
 5526              	.LBB2333:
 5527              	.LBB2328:
 5528              	.LBB2323:
 5529              	.LBB2301:
 5530              	.LBB2296:
 5531              	.LBB2290:
 5532              	.LBB2283:
  78:../../../mutable-instruments/stmlib/dsp/cosine_oscillator.h ****   }
 5533              		.loc 15 78 9 view .LVU1311
 5534 0106 E360     		str	r3, [r4, #12]	@ float
 5535              	.LBE2283:
 5536              	.LBE2290:
 5537              	.LBE2296:
 5538              	.LBE2301:
 5539              	.LBB2302:
 5540              	.LBB2303:
 5541              	.LBB2304:
 5542              	.LBB2305:
 5543 0108 E361     		str	r3, [r4, #28]	@ float
 5544              	.LBE2305:
 5545              	.LBE2304:
 5546              	.LBE2303:
 5547              	.LBE2302:
  48:../../../mutable-instruments/rings/dsp/fx/reverb.h ****   }
 5548              		.loc 12 48 16 view .LVU1312
 5549 010a 554B     		ldr	r3, .L127+44
 5550              	.LBE2323:
 5551              	.LBE2328:
 5552              	.LBE2333:
 5553              	.LBE2341:
  78:Interesting.cpp **** 	while(1) 
 5554              		.loc 17 78 15 view .LVU1313
 5555 010c 4948     		ldr	r0, .L127
 5556              	.LBB2342:
 5557              	.LBB2334:
 5558              	.LBB2329:
 5559              	.LBB2324:
  48:../../../mutable-instruments/rings/dsp/fx/reverb.h ****   }
 5560              		.loc 12 48 16 view .LVU1314
 5561 010e 6363     		str	r3, [r4, #52]	@ float
 5562              	.LBB2316:
 5563              	.LBB2297:
 5564              	.LBB2291:
 5565              	.LBB2288:
  73:../../../mutable-instruments/stmlib/dsp/cosine_oscillator.h ****   }
 5566              		.loc 15 73 24 view .LVU1315
 5567 0110 544B     		ldr	r3, .L127+48
 5568 0112 6361     		str	r3, [r4, #20]	@ float
 5569              	.LBE2288:
 5570              	.LBE2291:
 5571              	.LBB2292:
ARM GAS  /var/folders/hl/qgbwny5j0fd895c2c41bk3tw0000gp/T//ccEG44Zu.s 			page 170


 5572              	.LBB2284:
  77:../../../mutable-instruments/stmlib/dsp/cosine_oscillator.h ****     y0_ = 0.5f;
 5573              		.loc 15 77 9 view .LVU1316
 5574 0114 A360     		str	r3, [r4, #8]	@ float
 5575              	.LBE2284:
 5576              	.LBE2292:
 5577              	.LBE2297:
 5578              	.LBE2316:
 5579              	.LBB2317:
 5580              	.LBB2314:
 5581              	.LBB2308:
 5582              	.LBB2309:
  73:../../../mutable-instruments/stmlib/dsp/cosine_oscillator.h ****   }
 5583              		.loc 15 73 24 view .LVU1317
 5584 0116 544B     		ldr	r3, .L127+52
 5585 0118 6362     		str	r3, [r4, #36]	@ float
 5586              	.LBE2309:
 5587              	.LBE2308:
 5588              	.LBB2311:
 5589              	.LBB2306:
  77:../../../mutable-instruments/stmlib/dsp/cosine_oscillator.h ****     y0_ = 0.5f;
 5590              		.loc 15 77 9 view .LVU1318
 5591 011a A361     		str	r3, [r4, #24]	@ float
 5592              	.LBE2306:
 5593              	.LBE2311:
 5594              	.LBE2314:
 5595              	.LBE2317:
 5596              	.LBB2318:
 5597              	.LBB2298:
 5598              	.LBB2293:
 5599              	.LBB2289:
  72:../../../mutable-instruments/stmlib/dsp/cosine_oscillator.h ****     initial_amplitude_ = iir_coefficient_ * 0.25f;
 5600              		.loc 15 72 22 view .LVU1319
 5601 011c 534B     		ldr	r3, .L127+56
 5602 011e 2361     		str	r3, [r4, #16]	@ float
  73:../../../mutable-instruments/stmlib/dsp/cosine_oscillator.h ****   }
 5603              		.loc 15 73 5 is_stmt 1 view .LVU1320
 5604              	.LVL269:
  73:../../../mutable-instruments/stmlib/dsp/cosine_oscillator.h ****   }
 5605              		.loc 15 73 5 is_stmt 0 view .LVU1321
 5606              	.LBE2289:
 5607              	.LBE2293:
 5608              	.LBB2294:
 5609              	.LBI2281:
  76:../../../mutable-instruments/stmlib/dsp/cosine_oscillator.h ****     y1_ = initial_amplitude_;
 5610              		.loc 15 76 15 is_stmt 1 view .LVU1322
 5611              	.LBB2285:
  77:../../../mutable-instruments/stmlib/dsp/cosine_oscillator.h ****     y0_ = 0.5f;
 5612              		.loc 15 77 5 view .LVU1323
  78:../../../mutable-instruments/stmlib/dsp/cosine_oscillator.h ****   }
 5613              		.loc 15 78 5 view .LVU1324
  78:../../../mutable-instruments/stmlib/dsp/cosine_oscillator.h ****   }
 5614              		.loc 15 78 5 is_stmt 0 view .LVU1325
 5615              	.LBE2285:
 5616              	.LBE2294:
 5617              	.LBE2298:
 5618              	.LBE2318:
ARM GAS  /var/folders/hl/qgbwny5j0fd895c2c41bk3tw0000gp/T//ccEG44Zu.s 			page 171


  46:../../../mutable-instruments/rings/dsp/fx/reverb.h ****     lp_ = 0.7f;
 5619              		.loc 12 46 5 is_stmt 1 view .LVU1326
 5620              	.LBB2319:
 5621              	.LBI2302:
 265:../../../mutable-instruments/rings/dsp/fx/fx_engine.h ****     lfo_[index].template Init<stmlib::COSINE_OSCILLATOR_APPROXIMATE>(frequency * 32.0f);
 5622              		.loc 13 265 15 view .LVU1327
 5623              	.LBB2315:
 5624              	.LBI2303:
  50:../../../mutable-instruments/stmlib/dsp/cosine_oscillator.h ****     if (mode == COSINE_OSCILLATOR_APPROXIMATE) {
 5625              		.loc 15 50 15 view .LVU1328
 5626              	.LBB2312:
 5627              	.LBI2308:
  60:../../../mutable-instruments/stmlib/dsp/cosine_oscillator.h ****     float sign = 16.0f;
 5628              		.loc 15 60 15 view .LVU1329
 5629              	.LBB2310:
  61:../../../mutable-instruments/stmlib/dsp/cosine_oscillator.h ****     frequency -= 0.25f;
 5630              		.loc 15 61 5 view .LVU1330
  62:../../../mutable-instruments/stmlib/dsp/cosine_oscillator.h ****     if (frequency < 0.0f) {
 5631              		.loc 15 62 5 view .LVU1331
  63:../../../mutable-instruments/stmlib/dsp/cosine_oscillator.h ****       frequency = -frequency;
 5632              		.loc 15 63 5 view .LVU1332
  64:../../../mutable-instruments/stmlib/dsp/cosine_oscillator.h ****     } else {
 5633              		.loc 15 64 7 view .LVU1333
  72:../../../mutable-instruments/stmlib/dsp/cosine_oscillator.h ****     initial_amplitude_ = iir_coefficient_ * 0.25f;
 5634              		.loc 15 72 5 view .LVU1334
  72:../../../mutable-instruments/stmlib/dsp/cosine_oscillator.h ****     initial_amplitude_ = iir_coefficient_ * 0.25f;
 5635              		.loc 15 72 22 is_stmt 0 view .LVU1335
 5636 0120 534B     		ldr	r3, .L127+60
 5637 0122 2362     		str	r3, [r4, #32]	@ float
  73:../../../mutable-instruments/stmlib/dsp/cosine_oscillator.h ****   }
 5638              		.loc 15 73 5 is_stmt 1 view .LVU1336
 5639              	.LVL270:
  73:../../../mutable-instruments/stmlib/dsp/cosine_oscillator.h ****   }
 5640              		.loc 15 73 5 is_stmt 0 view .LVU1337
 5641              	.LBE2310:
 5642              	.LBE2312:
 5643              	.LBB2313:
 5644              	.LBI2304:
  76:../../../mutable-instruments/stmlib/dsp/cosine_oscillator.h ****     y1_ = initial_amplitude_;
 5645              		.loc 15 76 15 is_stmt 1 view .LVU1338
 5646              	.LBB2307:
  77:../../../mutable-instruments/stmlib/dsp/cosine_oscillator.h ****     y0_ = 0.5f;
 5647              		.loc 15 77 5 view .LVU1339
  78:../../../mutable-instruments/stmlib/dsp/cosine_oscillator.h ****   }
 5648              		.loc 15 78 5 view .LVU1340
  78:../../../mutable-instruments/stmlib/dsp/cosine_oscillator.h ****   }
 5649              		.loc 15 78 5 is_stmt 0 view .LVU1341
 5650              	.LBE2307:
 5651              	.LBE2313:
 5652              	.LBE2315:
 5653              	.LBE2319:
  47:../../../mutable-instruments/rings/dsp/fx/reverb.h ****     diffusion_ = 0.625f;
 5654              		.loc 12 47 5 is_stmt 1 view .LVU1342
  47:../../../mutable-instruments/rings/dsp/fx/reverb.h ****     diffusion_ = 0.625f;
 5655              		.loc 12 47 9 is_stmt 0 view .LVU1343
 5656 0124 534B     		ldr	r3, .L127+64
 5657 0126 A363     		str	r3, [r4, #56]	@ float
ARM GAS  /var/folders/hl/qgbwny5j0fd895c2c41bk3tw0000gp/T//ccEG44Zu.s 			page 172


  48:../../../mutable-instruments/rings/dsp/fx/reverb.h ****   }
 5658              		.loc 12 48 5 is_stmt 1 view .LVU1344
 5659              	.LVL271:
  48:../../../mutable-instruments/rings/dsp/fx/reverb.h ****   }
 5660              		.loc 12 48 5 is_stmt 0 view .LVU1345
 5661              	.LBE2324:
 5662              	.LBE2329:
  28:effects_handling.h ****     }
 5663              		.loc 11 28 9 is_stmt 1 view .LVU1346
  28:effects_handling.h ****     }
 5664              		.loc 11 28 18 is_stmt 0 view .LVU1347
 5665 0128 04F50034 		add	r4, r4, #131072
 5666 012c 84F84490 		strb	r9, [r4, #68]
 5667              	.LVL272:
  28:effects_handling.h ****     }
 5668              		.loc 11 28 18 view .LVU1348
 5669              	.LBE2334:
 5670              	.LBE2342:
  78:Interesting.cpp **** 	while(1) 
 5671              		.loc 17 78 2 is_stmt 1 view .LVU1349
  78:Interesting.cpp **** 	while(1) 
 5672              		.loc 17 78 15 is_stmt 0 view .LVU1350
 5673 0130 FFF7FEFF 		bl	_ZN5daisy8patch_sm12DaisyPatchSM10StartAudioEPFvPKPKfPPfjE
 5674              	.LVL273:
 5675              	.L113:
  79:Interesting.cpp **** 	{
 5676              		.loc 17 79 2 is_stmt 1 view .LVU1351
  81:Interesting.cpp **** 		// used to handle UI for samples
 5677              		.loc 17 81 3 view .LVU1352
  81:Interesting.cpp **** 		// used to handle UI for samples
 5678              		.loc 17 81 13 is_stmt 0 view .LVU1353
 5679 0134 FFF7FEFF 		bl	_Z10ModManagerv
 5680              	.LVL274:
  83:Interesting.cpp **** 		gen_led2.Write(proc.GetState(1));
 5681              		.loc 17 83 3 is_stmt 1 view .LVU1354
 5682              	.LBB2343:
 5683              	.LBI2343:
 123:processor.h   **** 
 5684              		.loc 9 123 6 view .LVU1355
 123:processor.h   **** 
 5685              		.loc 9 123 6 is_stmt 0 view .LVU1356
 5686              	.LBE2343:
  83:Interesting.cpp **** 		gen_led2.Write(proc.GetState(1));
 5687              		.loc 17 83 17 view .LVU1357
 5688 0138 95F84016 		ldrb	r1, [r5, #1600]	@ zero_extendqisi2
 5689 013c 4E48     		ldr	r0, .L127+68
 5690 013e FFF7FEFF 		bl	_ZN5daisy4GPIO5WriteEb
 5691              	.LVL275:
  84:Interesting.cpp **** 		cv_led1.Write(proc.GetState(2));
 5692              		.loc 17 84 3 is_stmt 1 view .LVU1358
 5693              	.LBB2344:
 5694              	.LBI2344:
 123:processor.h   **** 
 5695              		.loc 9 123 6 view .LVU1359
 123:processor.h   **** 
 5696              		.loc 9 123 6 is_stmt 0 view .LVU1360
 5697              	.LBE2344:
ARM GAS  /var/folders/hl/qgbwny5j0fd895c2c41bk3tw0000gp/T//ccEG44Zu.s 			page 173


  84:Interesting.cpp **** 		cv_led1.Write(proc.GetState(2));
 5698              		.loc 17 84 17 view .LVU1361
 5699 0142 95F84116 		ldrb	r1, [r5, #1601]	@ zero_extendqisi2
 5700 0146 4D48     		ldr	r0, .L127+72
 5701 0148 FFF7FEFF 		bl	_ZN5daisy4GPIO5WriteEb
 5702              	.LVL276:
  85:Interesting.cpp **** 		cv_led2.Write(proc.GetState(3));
 5703              		.loc 17 85 3 is_stmt 1 view .LVU1362
 5704              	.LBB2345:
 5705              	.LBI2345:
 123:processor.h   **** 
 5706              		.loc 9 123 6 view .LVU1363
 123:processor.h   **** 
 5707              		.loc 9 123 6 is_stmt 0 view .LVU1364
 5708              	.LBE2345:
  85:Interesting.cpp **** 		cv_led2.Write(proc.GetState(3));
 5709              		.loc 17 85 16 view .LVU1365
 5710 014c 95F84216 		ldrb	r1, [r5, #1602]	@ zero_extendqisi2
 5711 0150 4B48     		ldr	r0, .L127+76
 5712 0152 FFF7FEFF 		bl	_ZN5daisy4GPIO5WriteEb
 5713              	.LVL277:
  86:Interesting.cpp **** 
 5714              		.loc 17 86 3 is_stmt 1 view .LVU1366
 5715              	.LBB2346:
 5716              	.LBI2346:
 123:processor.h   **** 
 5717              		.loc 9 123 6 view .LVU1367
 123:processor.h   **** 
 5718              		.loc 9 123 6 is_stmt 0 view .LVU1368
 5719              	.LBE2346:
  86:Interesting.cpp **** 
 5720              		.loc 17 86 16 view .LVU1369
 5721 0156 4B48     		ldr	r0, .L127+80
 5722 0158 95F84316 		ldrb	r1, [r5, #1603]	@ zero_extendqisi2
 5723 015c FFF7FEFF 		bl	_ZN5daisy4GPIO5WriteEb
 5724              	.LVL278:
  89:Interesting.cpp **** 		{
 5725              		.loc 17 89 3 is_stmt 1 view .LVU1370
  89:Interesting.cpp **** 		{
 5726              		.loc 17 89 23 is_stmt 0 view .LVU1371
 5727 0160 4948     		ldr	r0, .L127+84
 5728 0162 FFF7FEFF 		bl	_ZN5daisy6GateIn4TrigEv
 5729              	.LVL279:
  89:Interesting.cpp **** 		{
 5730              		.loc 17 89 3 view .LVU1372
 5731 0166 0028     		cmp	r0, #0
 5732 0168 E4D0     		beq	.L113
  91:Interesting.cpp **** 		}
 5733              		.loc 17 91 4 is_stmt 1 view .LVU1373
 5734              	.LVL280:
 5735              	.LBB2347:
 5736              	.LBI2347:
 102:processor.h   **** {
 5737              		.loc 9 102 6 view .LVU1374
 5738              	.LBB2348:
 104:processor.h   ****     else { CaptureForward(); }
 5739              		.loc 9 104 5 is_stmt 0 view .LVU1375
ARM GAS  /var/folders/hl/qgbwny5j0fd895c2c41bk3tw0000gp/T//ccEG44Zu.s 			page 174


 5740 016a 95F84516 		ldrb	r1, [r5, #1605]	@ zero_extendqisi2
 5741 016e 91B3     		cbz	r1, .L114
 5742              	.LVL281:
 5743              	.LBB2349:
 5744              	.LBI2349:
  86:processor.h   **** {
 5745              		.loc 9 86 6 is_stmt 1 view .LVU1376
 5746              	.LBB2350:
  88:processor.h   ****     ClearBuffer(playback_buffer_[selected_buffer_], buffer_size_);
 5747              		.loc 9 88 21 is_stmt 0 view .LVU1377
 5748 0170 D7F81C8E 		ldr	r8, [r7, #3612]
  89:processor.h   ****     size_t reverse_copy_index = buffer_size_ - 1;
 5749              		.loc 9 89 33 view .LVU1378
 5750 0174 324A     		ldr	r2, .L127+12
 5751 0176 454B     		ldr	r3, .L127+88
 5752 0178 02FB0862 		mla	r2, r2, r8, r6
  89:processor.h   ****     size_t reverse_copy_index = buffer_size_ - 1;
 5753              		.loc 9 89 16 view .LVU1379
 5754 017c D7F8009E 		ldr	r9, [r7, #3584]
 5755              	.LVL282:
  89:processor.h   ****     size_t reverse_copy_index = buffer_size_ - 1;
 5756              		.loc 9 89 33 view .LVU1380
 5757 0180 1344     		add	r3, r3, r2
 5758              	.LVL283:
 5759              	.LBB2351:
 5760              	.LBI2351:
 108:processor.h   **** {
 5761              		.loc 9 108 6 is_stmt 1 view .LVU1381
 5762              	.LBB2352:
 110:processor.h   ****         buffer[i] = 0.0f;
 5763              		.loc 9 110 26 view .LVU1382
 5764 0182 B9F1000F 		cmp	r9, #0
 5765 0186 51D0     		beq	.L122
 111:processor.h   ****     }
 5766              		.loc 9 111 19 is_stmt 0 view .LVU1383
 5767 0188 4FEA8904 		lsl	r4, r9, #2
 5768 018c 0021     		movs	r1, #0
 5769 018e 1846     		mov	r0, r3
 5770 0190 2246     		mov	r2, r4
 5771 0192 FFF7FEFF 		bl	memset
 5772              	.LVL284:
 111:processor.h   ****     }
 5773              		.loc 9 111 19 view .LVU1384
 5774              	.LBE2352:
 5775              	.LBE2351:
  90:processor.h   ****     for (size_t i = 0; i < buffer_size_; ++i)
 5776              		.loc 9 90 12 view .LVU1385
 5777 0196 09F1FF32 		add	r2, r9, #-1
 5778 019a 07EE902A 		vmov	s15, r2	@ int
 5779              	.LVL285:
 5780              	.LBB2353:
  91:processor.h   ****     {
 5781              		.loc 9 91 26 is_stmt 1 view .LVU1386
 5782 019e 3219     		adds	r2, r6, r4
 5783              	.LVL286:
 5784              	.L116:
  93:processor.h   ****         --reverse_copy_index;
ARM GAS  /var/folders/hl/qgbwny5j0fd895c2c41bk3tw0000gp/T//ccEG44Zu.s 			page 175


 5785              		.loc 9 93 56 is_stmt 0 view .LVU1387
 5786 01a0 52F8043D 		ldr	r3, [r2, #-4]!	@ float
  91:processor.h   ****     {
 5787              		.loc 9 91 26 view .LVU1388
 5788 01a4 B242     		cmp	r2, r6
  93:processor.h   ****         --reverse_copy_index;
 5789              		.loc 9 93 47 view .LVU1389
 5790 01a6 40F8043B 		str	r3, [r0], #4	@ float
  91:processor.h   ****     {
 5791              		.loc 9 91 5 is_stmt 1 view .LVU1390
  91:processor.h   ****     {
 5792              		.loc 9 91 26 view .LVU1391
 5793 01aa F9D1     		bne	.L116
 5794              	.L115:
  91:processor.h   ****     {
 5795              		.loc 9 91 26 is_stmt 0 view .LVU1392
 5796              	.LBE2353:
  97:processor.h   ****     ++selected_buffer_;
 5797              		.loc 9 97 39 view .LVU1393
 5798 01ac 0124     		movs	r4, #1
  96:processor.h   ****     playback_ready_[selected_buffer_] = true;
 5799              		.loc 9 96 20 view .LVU1394
 5800 01ae F8EE677A 		vcvt.f32.u32	s15, s15
 5801 01b2 07F56162 		add	r2, r7, #3600
  97:processor.h   ****     ++selected_buffer_;
 5802              		.loc 9 97 39 view .LVU1395
 5803 01b6 06EB0800 		add	r0, r6, r8
  98:processor.h   ****     if (selected_buffer_ >= 4) { selected_buffer_ = 0; }
 5804              		.loc 9 98 5 view .LVU1396
 5805 01ba 08EB0403 		add	r3, r8, r4
  97:processor.h   ****     ++selected_buffer_;
 5806              		.loc 9 97 39 view .LVU1397
 5807 01be 3449     		ldr	r1, .L127+92
  96:processor.h   ****     playback_ready_[selected_buffer_] = true;
 5808              		.loc 9 96 20 view .LVU1398
 5809 01c0 C2ED007A 		vstr.32	s15, [r2]
  99:processor.h   **** }
 5810              		.loc 9 99 5 view .LVU1399
 5811 01c4 032B     		cmp	r3, #3
  97:processor.h   ****     ++selected_buffer_;
 5812              		.loc 9 97 39 view .LVU1400
 5813 01c6 4454     		strb	r4, [r0, r1]
  98:processor.h   ****     if (selected_buffer_ >= 4) { selected_buffer_ = 0; }
 5814              		.loc 9 98 5 view .LVU1401
 5815 01c8 C7F81C3E 		str	r3, [r7, #3612]
  99:processor.h   **** }
 5816              		.loc 9 99 5 view .LVU1402
 5817 01cc B2DD     		ble	.L113
 5818              	.LVL287:
 5819              	.L120:
  99:processor.h   **** }
 5820              		.loc 9 99 51 view .LVU1403
 5821 01ce 0023     		movs	r3, #0
 5822 01d0 C7F81C3E 		str	r3, [r7, #3612]
 5823 01d4 AEE7     		b	.L113
 5824              	.L114:
 5825              	.LVL288:
ARM GAS  /var/folders/hl/qgbwny5j0fd895c2c41bk3tw0000gp/T//ccEG44Zu.s 			page 176


  99:processor.h   **** }
 5826              		.loc 9 99 51 view .LVU1404
 5827              	.LBE2350:
 5828              	.LBE2349:
 5829              	.LBB2355:
 5830              	.LBI2355:
  74:processor.h   **** {
 5831              		.loc 9 74 6 is_stmt 1 view .LVU1405
 5832              	.LBB2356:
  76:processor.h   ****     ClearBuffer(playback_buffer_[selected_buffer_], buffer_size_);
 5833              		.loc 9 76 21 is_stmt 0 view .LVU1406
 5834 01d6 D7F81C3E 		ldr	r3, [r7, #3612]
  77:processor.h   ****     memcpy(playback_buffer_[selected_buffer_], buffer_, buffer_size_ * sizeof(float)); 
 5835              		.loc 9 77 33 view .LVU1407
 5836 01da 194A     		ldr	r2, .L127+12
  76:processor.h   ****     ClearBuffer(playback_buffer_[selected_buffer_], buffer_size_);
 5837              		.loc 9 76 39 view .LVU1408
 5838 01dc 06EB030C 		add	ip, r6, r3
 5839 01e0 2B48     		ldr	r0, .L127+92
  77:processor.h   ****     memcpy(playback_buffer_[selected_buffer_], buffer_, buffer_size_ * sizeof(float)); 
 5840              		.loc 9 77 33 view .LVU1409
 5841 01e2 02FB0363 		mla	r3, r2, r3, r6
 5842 01e6 294C     		ldr	r4, .L127+88
  77:processor.h   ****     memcpy(playback_buffer_[selected_buffer_], buffer_, buffer_size_ * sizeof(float)); 
 5843              		.loc 9 77 16 view .LVU1410
 5844 01e8 D7F8002E 		ldr	r2, [r7, #3584]
 5845              	.LVL289:
  77:processor.h   ****     memcpy(playback_buffer_[selected_buffer_], buffer_, buffer_size_ * sizeof(float)); 
 5846              		.loc 9 77 33 view .LVU1411
 5847 01ec 1C44     		add	r4, r4, r3
 5848              	.LVL290:
 5849              	.LBB2357:
 5850              	.LBI2357:
 108:processor.h   **** {
 5851              		.loc 9 108 6 is_stmt 1 view .LVU1412
 5852              	.LBB2358:
 110:processor.h   ****         buffer[i] = 0.0f;
 5853              		.loc 9 110 26 view .LVU1413
 5854              	.LBE2358:
 5855              	.LBE2357:
  76:processor.h   ****     ClearBuffer(playback_buffer_[selected_buffer_], buffer_size_);
 5856              		.loc 9 76 39 is_stmt 0 view .LVU1414
 5857 01ee 0CF80010 		strb	r1, [ip, r0]
 5858              	.LBB2360:
 5859              	.LBB2359:
 110:processor.h   ****         buffer[i] = 0.0f;
 5860              		.loc 9 110 26 view .LVU1415
 5861 01f2 2AB1     		cbz	r2, .L121
 111:processor.h   ****     }
 5862              		.loc 9 111 19 view .LVU1416
 5863 01f4 9200     		lsls	r2, r2, #2
 5864              	.LVL291:
 111:processor.h   ****     }
 5865              		.loc 9 111 19 view .LVU1417
 5866 01f6 2046     		mov	r0, r4
 5867 01f8 0192     		str	r2, [sp, #4]
 5868 01fa FFF7FEFF 		bl	memset
ARM GAS  /var/folders/hl/qgbwny5j0fd895c2c41bk3tw0000gp/T//ccEG44Zu.s 			page 177


 5869              	.LVL292:
 111:processor.h   ****     }
 5870              		.loc 9 111 19 view .LVU1418
 5871 01fe 019A     		ldr	r2, [sp, #4]
 5872              	.L121:
 5873              	.LVL293:
 111:processor.h   ****     }
 5874              		.loc 9 111 19 view .LVU1419
 5875              	.LBE2359:
 5876              	.LBE2360:
  78:processor.h   ****     read_position_ = 0;
 5877              		.loc 9 78 11 view .LVU1420
 5878 0200 0D49     		ldr	r1, .L127+4
 5879 0202 2046     		mov	r0, r4
 5880 0204 FFF7FEFF 		bl	memcpy
 5881              	.LVL294:
  80:processor.h   ****     ++selected_buffer_;
 5882              		.loc 9 80 39 view .LVU1421
 5883 0208 0124     		movs	r4, #1
  80:processor.h   ****     ++selected_buffer_;
 5884              		.loc 9 80 21 view .LVU1422
 5885 020a D7F81C3E 		ldr	r3, [r7, #3612]
  79:processor.h   ****     playback_ready_[selected_buffer_] = true;
 5886              		.loc 9 79 20 view .LVU1423
 5887 020e 07F56162 		add	r2, r7, #3600
 5888 0212 4FF0000C 		mov	ip, #0
  80:processor.h   ****     ++selected_buffer_;
 5889              		.loc 9 80 39 view .LVU1424
 5890 0216 1E49     		ldr	r1, .L127+92
 5891 0218 F018     		adds	r0, r6, r3
  81:processor.h   ****     if(selected_buffer_ >= 4) {selected_buffer_ = 0;}
 5892              		.loc 9 81 5 view .LVU1425
 5893 021a 2344     		add	r3, r3, r4
  79:processor.h   ****     playback_ready_[selected_buffer_] = true;
 5894              		.loc 9 79 20 view .LVU1426
 5895 021c C2F800C0 		str	ip, [r2]	@ float
  82:processor.h   **** }
 5896              		.loc 9 82 5 view .LVU1427
 5897 0220 032B     		cmp	r3, #3
  80:processor.h   ****     ++selected_buffer_;
 5898              		.loc 9 80 39 view .LVU1428
 5899 0222 4454     		strb	r4, [r0, r1]
  81:processor.h   ****     if(selected_buffer_ >= 4) {selected_buffer_ = 0;}
 5900              		.loc 9 81 5 view .LVU1429
 5901 0224 C7F81C3E 		str	r3, [r7, #3612]
  82:processor.h   **** }
 5902              		.loc 9 82 5 view .LVU1430
 5903 0228 D1DC     		bgt	.L120
 5904 022a 83E7     		b	.L113
 5905              	.LVL295:
 5906              	.L122:
  82:processor.h   **** }
 5907              		.loc 9 82 5 view .LVU1431
 5908              	.LBE2356:
 5909              	.LBE2355:
 5910              	.LBB2361:
 5911              	.LBB2354:
ARM GAS  /var/folders/hl/qgbwny5j0fd895c2c41bk3tw0000gp/T//ccEG44Zu.s 			page 178


  90:processor.h   ****     for (size_t i = 0; i < buffer_size_; ++i)
 5912              		.loc 9 90 12 view .LVU1432
 5913 022c DFED197A 		vldr.32	s15, .L127+96	@ int
 5914 0230 BCE7     		b	.L115
 5915              	.L128:
 5916 0232 00BF     		.align	2
 5917              	.L127:
 5918 0234 00000000 		.word	.LANCHOR18
 5919 0238 00000000 		.word	proc
 5920 023c 20A60E00 		.word	proc+960032
 5921 0240 00EE0200 		.word	192000
 5922 0244 00B80B00 		.word	768000
 5923 0248 9A99193E 		.word	1041865114
 5924 024c 3333B33E 		.word	1051931443
 5925 0250 00000000 		.word	effects
 5926 0254 28A70E00 		.word	proc+960296
 5927 0258 00A00E00 		.word	proc+958464
 5928 025c 00000000 		.word	_Z13AudioCallbackPKPKfPPfj
 5929 0260 0000203F 		.word	1059061760
 5930 0264 E2FFFF3E 		.word	1056964578
 5931 0268 F5FFFF3E 		.word	1056964597
 5932 026c E2FFFF3F 		.word	1073741794
 5933 0270 F5FFFF3F 		.word	1073741813
 5934 0274 3333333F 		.word	1060320051
 5935 0278 00000000 		.word	.LANCHOR1
 5936 027c 00000000 		.word	.LANCHOR3
 5937 0280 00000000 		.word	.LANCHOR5
 5938 0284 00000000 		.word	.LANCHOR7
 5939 0288 B0010000 		.word	.LANCHOR18+432
 5940 028c 20EE0200 		.word	192032
 5941 0290 40A60E00 		.word	960064
 5942 0294 FFFFFFFF 		.word	-1
 5943              	.LBE2354:
 5944              	.LBE2361:
 5945              	.LBE2348:
 5946              	.LBE2347:
 5947              		.cfi_endproc
 5948              	.LFE5246:
 5950              		.section	.text.startup._GLOBAL__sub_I__ZN5daisy8patch_sm8gen_led1E,"ax",%progbits
 5951              		.align	1
 5952              		.p2align 2,,3
 5953              		.syntax unified
 5954              		.thumb
 5955              		.thumb_func
 5957              	_GLOBAL__sub_I__ZN5daisy8patch_sm8gen_led1E:
 5958              	.LFB6067:
 5959              		.loc 17 121 1 is_stmt 1 view -0
 5960              		.cfi_startproc
 5961              		@ args = 0, pretend = 0, frame = 0
 5962              		@ frame_needed = 0, uses_anonymous_args = 0
 5963              	.LBB2494:
 5964              	.LBI2494:
 5965              		.loc 17 121 1 view .LVU1434
 5966              	.LVL296:
 5967              	.LBB2495:
 5968              	.LBB2496:
 5969              	.LBI2496:
ARM GAS  /var/folders/hl/qgbwny5j0fd895c2c41bk3tw0000gp/T//ccEG44Zu.s 			page 179


 5970              		.file 22 "../../libDaisy//src/per/gpio.h"
   1:../../libDaisy//src/per/gpio.h **** #pragma once
   2:../../libDaisy//src/per/gpio.h **** #ifndef DSY_GPIO_H
   3:../../libDaisy//src/per/gpio.h **** #define DSY_GPIO_H
   4:../../libDaisy//src/per/gpio.h **** #include "daisy_core.h"
   5:../../libDaisy//src/per/gpio.h **** 
   6:../../libDaisy//src/per/gpio.h **** #ifdef __cplusplus
   7:../../libDaisy//src/per/gpio.h **** 
   8:../../libDaisy//src/per/gpio.h **** namespace daisy
   9:../../libDaisy//src/per/gpio.h **** {
  10:../../libDaisy//src/per/gpio.h **** /** @brief General Purpose I/O control 
  11:../../libDaisy//src/per/gpio.h ****  *  @details peripheral control over a single GPIO
  12:../../libDaisy//src/per/gpio.h ****  *  @ingroup peripheral
  13:../../libDaisy//src/per/gpio.h ****  *   
  14:../../libDaisy//src/per/gpio.h ****  *  Button Input (with internal Pullup resistor)
  15:../../libDaisy//src/per/gpio.h ****  *  @include GPIO_Input.cpp 
  16:../../libDaisy//src/per/gpio.h ****  * 
  17:../../libDaisy//src/per/gpio.h ****  *  Output Example (perfect for blinking an LED)
  18:../../libDaisy//src/per/gpio.h ****  *  @include GPIO_Output.cpp
  19:../../libDaisy//src/per/gpio.h ****  * 
  20:../../libDaisy//src/per/gpio.h **** */
  21:../../libDaisy//src/per/gpio.h **** class GPIO
  22:../../libDaisy//src/per/gpio.h **** {
  23:../../libDaisy//src/per/gpio.h ****   public:
  24:../../libDaisy//src/per/gpio.h ****     /** @brief Mode of operation for the specified GPIO */
  25:../../libDaisy//src/per/gpio.h ****     enum class Mode
  26:../../libDaisy//src/per/gpio.h ****     {
  27:../../libDaisy//src/per/gpio.h ****         INPUT,     /**< Input for reading state of pin */
  28:../../libDaisy//src/per/gpio.h ****         OUTPUT,    /**< Output w/ push-pull configuration */
  29:../../libDaisy//src/per/gpio.h ****         OUTPUT_OD, /**< Output w/ open-drain configuration */
  30:../../libDaisy//src/per/gpio.h ****         ANALOG,    /**< Analog for connection to ADC or DAC peripheral */
  31:../../libDaisy//src/per/gpio.h ****     };
  32:../../libDaisy//src/per/gpio.h **** 
  33:../../libDaisy//src/per/gpio.h ****     /** @brief Configures whether an internal Pull up or Pull down resistor is used. 
  34:../../libDaisy//src/per/gpio.h ****      *  
  35:../../libDaisy//src/per/gpio.h ****      * Internal Pull up/down resistors are typically 40k ohms, and will be between
  36:../../libDaisy//src/per/gpio.h ****      * 30k and 50k
  37:../../libDaisy//src/per/gpio.h ****      * 
  38:../../libDaisy//src/per/gpio.h ****      * When the Pin is configured in Analog mode, the pull up/down resistors are
  39:../../libDaisy//src/per/gpio.h ****      * disabled by hardware. 
  40:../../libDaisy//src/per/gpio.h ****      */
  41:../../libDaisy//src/per/gpio.h ****     enum class Pull
  42:../../libDaisy//src/per/gpio.h ****     {
  43:../../libDaisy//src/per/gpio.h ****         NOPULL,   /**< No pull up resistor */
  44:../../libDaisy//src/per/gpio.h ****         PULLUP,   /**< Internal pull up enabled */
  45:../../libDaisy//src/per/gpio.h ****         PULLDOWN, /**< Internal pull down enabled*/
  46:../../libDaisy//src/per/gpio.h ****     };
  47:../../libDaisy//src/per/gpio.h **** 
  48:../../libDaisy//src/per/gpio.h ****     /** @brief Output speed controls the drive strength, and slew rate of the pin */
  49:../../libDaisy//src/per/gpio.h ****     enum class Speed
  50:../../libDaisy//src/per/gpio.h ****     {
  51:../../libDaisy//src/per/gpio.h ****         LOW,
  52:../../libDaisy//src/per/gpio.h ****         MEDIUM,
  53:../../libDaisy//src/per/gpio.h ****         HIGH,
  54:../../libDaisy//src/per/gpio.h ****         VERY_HIGH,
  55:../../libDaisy//src/per/gpio.h ****     };
  56:../../libDaisy//src/per/gpio.h **** 
ARM GAS  /var/folders/hl/qgbwny5j0fd895c2c41bk3tw0000gp/T//ccEG44Zu.s 			page 180


  57:../../libDaisy//src/per/gpio.h ****     /** @brief Configuration for a given GPIO */
  58:../../libDaisy//src/per/gpio.h ****     struct Config
  59:../../libDaisy//src/per/gpio.h ****     {
  60:../../libDaisy//src/per/gpio.h ****         Pin   pin;
  61:../../libDaisy//src/per/gpio.h ****         Mode  mode;
  62:../../libDaisy//src/per/gpio.h ****         Pull  pull;
  63:../../libDaisy//src/per/gpio.h ****         Speed speed;
  64:../../libDaisy//src/per/gpio.h **** 
  65:../../libDaisy//src/per/gpio.h ****         /** Constructor with no arguments will prepare an invalid GPIO set as
  66:../../libDaisy//src/per/gpio.h ****          *  an input, with no pullup. 
  67:../../libDaisy//src/per/gpio.h ****          */
  68:../../libDaisy//src/per/gpio.h ****         Config()
  69:../../libDaisy//src/per/gpio.h ****         : pin(), mode(Mode::INPUT), pull(Pull::NOPULL), speed(Speed::LOW)
  70:../../libDaisy//src/per/gpio.h ****         {
  71:../../libDaisy//src/per/gpio.h ****         }
  72:../../libDaisy//src/per/gpio.h ****     };
  73:../../libDaisy//src/per/gpio.h **** 
  74:../../libDaisy//src/per/gpio.h ****     GPIO() {}
 5971              		.loc 22 74 5 view .LVU1435
 5972              	.LBB2497:
 5973              	.LBB2498:
 5974              	.LBI2498:
  68:../../libDaisy//src/per/gpio.h ****         : pin(), mode(Mode::INPUT), pull(Pull::NOPULL), speed(Speed::LOW)
 5975              		.loc 22 68 9 view .LVU1436
 5976              	.LBB2499:
 5977              	.LBB2500:
 5978              	.LBB2501:
 5979              	.LBI2501:
 5980              		.file 23 "../../libDaisy//src/daisy_core.h"
   1:../../libDaisy//src/daisy_core.h **** #pragma once
   2:../../libDaisy//src/daisy_core.h **** #ifndef DSY_CORE_HW_H
   3:../../libDaisy//src/daisy_core.h **** #define DSY_CORE_HW_H /**< & */
   4:../../libDaisy//src/daisy_core.h **** #include <stdint.h>
   5:../../libDaisy//src/daisy_core.h **** #include <stdlib.h>
   6:../../libDaisy//src/daisy_core.h **** 
   7:../../libDaisy//src/daisy_core.h **** #if defined(_MSC_VER)
   8:../../libDaisy//src/daisy_core.h **** #define FORCE_INLINE __forceinline /**< & */
   9:../../libDaisy//src/daisy_core.h **** #elif defined(__clang__)
  10:../../libDaisy//src/daisy_core.h **** #define FORCE_INLINE inline __attribute__((always_inline)) /**< & */
  11:../../libDaisy//src/daisy_core.h **** #pragma clang diagnostic ignored "-Wduplicate-decl-specifier"
  12:../../libDaisy//src/daisy_core.h **** #elif defined(__GNUC__)
  13:../../libDaisy//src/daisy_core.h **** #define FORCE_INLINE inline __attribute__((always_inline)) /**< & */
  14:../../libDaisy//src/daisy_core.h **** #else
  15:../../libDaisy//src/daisy_core.h **** #error unknown compiler
  16:../../libDaisy//src/daisy_core.h **** #endif
  17:../../libDaisy//src/daisy_core.h **** 
  18:../../libDaisy//src/daisy_core.h **** /** @addtogroup utility
  19:../../libDaisy//src/daisy_core.h ****     @{
  20:../../libDaisy//src/daisy_core.h **** */
  21:../../libDaisy//src/daisy_core.h **** 
  22:../../libDaisy//src/daisy_core.h **** /** Macro for area of memory that is configured as cacheless
  23:../../libDaisy//src/daisy_core.h **** This should be used primarily for DMA buffers, and the like.
  24:../../libDaisy//src/daisy_core.h **** */
  25:../../libDaisy//src/daisy_core.h **** #define DMA_BUFFER_MEM_SECTION __attribute__((section(".sram1_bss")))
  26:../../libDaisy//src/daisy_core.h **** /** 
  27:../../libDaisy//src/daisy_core.h **** THE DTCM RAM section is also non-cached. However, is not suitable 
  28:../../libDaisy//src/daisy_core.h **** for DMA transfers. Performance is on par with internal SRAM w/ 
ARM GAS  /var/folders/hl/qgbwny5j0fd895c2c41bk3tw0000gp/T//ccEG44Zu.s 			page 181


  29:../../libDaisy//src/daisy_core.h **** cache enabled.
  30:../../libDaisy//src/daisy_core.h **** */
  31:../../libDaisy//src/daisy_core.h **** #define DTCM_MEM_SECTION __attribute__((section(".dtcmram_bss")))
  32:../../libDaisy//src/daisy_core.h **** 
  33:../../libDaisy//src/daisy_core.h **** #define FBIPMAX 0.999985f             /**< close to 1.0f-LSB at 16 bit */
  34:../../libDaisy//src/daisy_core.h **** #define FBIPMIN (-FBIPMAX)            /**< - (1 - LSB) */
  35:../../libDaisy//src/daisy_core.h **** #define U82F_SCALE 0.0078740f         /**< 1 / 127 */
  36:../../libDaisy//src/daisy_core.h **** #define F2U8_SCALE 127.0f             /**< 128 - 1 */
  37:../../libDaisy//src/daisy_core.h **** #define S82F_SCALE 0.0078125f         /**< 1 / (2**7) */
  38:../../libDaisy//src/daisy_core.h **** #define F2S8_SCALE 127.0f             /**< (2 ** 7) - 1 */
  39:../../libDaisy//src/daisy_core.h **** #define S162F_SCALE 3.0517578125e-05f /**< 1 / (2** 15) */
  40:../../libDaisy//src/daisy_core.h **** #define F2S16_SCALE 32767.0f          /**< (2 ** 15) - 1 */
  41:../../libDaisy//src/daisy_core.h **** #define F2S24_SCALE 8388608.0f        /**< 2 ** 23 */
  42:../../libDaisy//src/daisy_core.h **** #define S242F_SCALE 1.192092896e-07f  /**< 1 / (2 ** 23) */
  43:../../libDaisy//src/daisy_core.h **** #define S24SIGN 0x800000              /**< 2 ** 23 */
  44:../../libDaisy//src/daisy_core.h **** #define S322F_SCALE 4.6566129e-10f    /**< 1 / (2** 31) */
  45:../../libDaisy//src/daisy_core.h **** #define F2S32_SCALE 2147483647.f      /**< (2 ** 31) - 1 */
  46:../../libDaisy//src/daisy_core.h **** 
  47:../../libDaisy//src/daisy_core.h **** 
  48:../../libDaisy//src/daisy_core.h **** /** shorthand macro for simplifying the reading of the left 
  49:../../libDaisy//src/daisy_core.h ****  *  channel of a non-interleaved output buffer named out */
  50:../../libDaisy//src/daisy_core.h **** #define OUT_L out[0]
  51:../../libDaisy//src/daisy_core.h **** 
  52:../../libDaisy//src/daisy_core.h **** /** shorthand macro for simplifying the reading of the right 
  53:../../libDaisy//src/daisy_core.h ****  *  channel of a non-interleaved output buffer named out */
  54:../../libDaisy//src/daisy_core.h **** #define OUT_R out[1]
  55:../../libDaisy//src/daisy_core.h **** 
  56:../../libDaisy//src/daisy_core.h **** /** shorthand macro for simplifying the reading of the left 
  57:../../libDaisy//src/daisy_core.h ****  *  channel of a non-interleaved input buffer named in */
  58:../../libDaisy//src/daisy_core.h **** #define IN_L in[0]
  59:../../libDaisy//src/daisy_core.h **** 
  60:../../libDaisy//src/daisy_core.h **** /** shorthand macro for simplifying the reading of the right 
  61:../../libDaisy//src/daisy_core.h ****  *  channel of a non-interleaved input buffer named in */
  62:../../libDaisy//src/daisy_core.h **** #define IN_R in[1]
  63:../../libDaisy//src/daisy_core.h **** 
  64:../../libDaisy//src/daisy_core.h **** /** 
  65:../../libDaisy//src/daisy_core.h ****     Computes cube.
  66:../../libDaisy//src/daisy_core.h ****     \param x Number to be cubed
  67:../../libDaisy//src/daisy_core.h ****     \return x ^ 3
  68:../../libDaisy//src/daisy_core.h **** */
  69:../../libDaisy//src/daisy_core.h **** FORCE_INLINE float cube(float x)
  70:../../libDaisy//src/daisy_core.h **** {
  71:../../libDaisy//src/daisy_core.h ****     return (x * x) * x;
  72:../../libDaisy//src/daisy_core.h **** }
  73:../../libDaisy//src/daisy_core.h **** 
  74:../../libDaisy//src/daisy_core.h **** /** 
  75:../../libDaisy//src/daisy_core.h ****     Converts unsigned 8-bit to float
  76:../../libDaisy//src/daisy_core.h ****     \param x Number to be scaled.
  77:../../libDaisy//src/daisy_core.h ****     \return Scaled number.
  78:../../libDaisy//src/daisy_core.h **** */
  79:../../libDaisy//src/daisy_core.h **** FORCE_INLINE float u82f(uint8_t x)
  80:../../libDaisy//src/daisy_core.h **** {
  81:../../libDaisy//src/daisy_core.h ****     return ((float)x - 127.f) * U82F_SCALE;
  82:../../libDaisy//src/daisy_core.h **** }
  83:../../libDaisy//src/daisy_core.h **** 
  84:../../libDaisy//src/daisy_core.h **** /**
  85:../../libDaisy//src/daisy_core.h ****     Converts float to unsigned 8-bit
ARM GAS  /var/folders/hl/qgbwny5j0fd895c2c41bk3tw0000gp/T//ccEG44Zu.s 			page 182


  86:../../libDaisy//src/daisy_core.h **** */
  87:../../libDaisy//src/daisy_core.h **** FORCE_INLINE uint8_t f2u8(float x)
  88:../../libDaisy//src/daisy_core.h **** {
  89:../../libDaisy//src/daisy_core.h ****     x = x <= FBIPMIN ? FBIPMIN : x;
  90:../../libDaisy//src/daisy_core.h ****     x = x >= FBIPMAX ? FBIPMAX : x;
  91:../../libDaisy//src/daisy_core.h ****     return (uint8_t)((x * F2U8_SCALE) + F2U8_SCALE);
  92:../../libDaisy//src/daisy_core.h **** }
  93:../../libDaisy//src/daisy_core.h **** 
  94:../../libDaisy//src/daisy_core.h **** 
  95:../../libDaisy//src/daisy_core.h **** /** 
  96:../../libDaisy//src/daisy_core.h ****     Converts Signed 8-bit to float
  97:../../libDaisy//src/daisy_core.h ****     \param x Number to be scaled.
  98:../../libDaisy//src/daisy_core.h ****     \return Scaled number.
  99:../../libDaisy//src/daisy_core.h **** */
 100:../../libDaisy//src/daisy_core.h **** FORCE_INLINE float s82f(int8_t x)
 101:../../libDaisy//src/daisy_core.h **** {
 102:../../libDaisy//src/daisy_core.h ****     return (float)x * S82F_SCALE;
 103:../../libDaisy//src/daisy_core.h **** }
 104:../../libDaisy//src/daisy_core.h **** 
 105:../../libDaisy//src/daisy_core.h **** /**
 106:../../libDaisy//src/daisy_core.h ****     Converts float to Signed 8-bit
 107:../../libDaisy//src/daisy_core.h **** */
 108:../../libDaisy//src/daisy_core.h **** FORCE_INLINE int8_t f2s8(float x)
 109:../../libDaisy//src/daisy_core.h **** {
 110:../../libDaisy//src/daisy_core.h ****     x = x <= FBIPMIN ? FBIPMIN : x;
 111:../../libDaisy//src/daisy_core.h ****     x = x >= FBIPMAX ? FBIPMAX : x;
 112:../../libDaisy//src/daisy_core.h ****     return (int32_t)(x * F2S8_SCALE);
 113:../../libDaisy//src/daisy_core.h **** }
 114:../../libDaisy//src/daisy_core.h **** 
 115:../../libDaisy//src/daisy_core.h **** /** 
 116:../../libDaisy//src/daisy_core.h ****     Converts Signed 16-bit to float
 117:../../libDaisy//src/daisy_core.h ****     \param x Number to be scaled.
 118:../../libDaisy//src/daisy_core.h ****     \return Scaled number.
 119:../../libDaisy//src/daisy_core.h **** */
 120:../../libDaisy//src/daisy_core.h **** FORCE_INLINE float s162f(int16_t x)
 121:../../libDaisy//src/daisy_core.h **** {
 122:../../libDaisy//src/daisy_core.h ****     return (float)x * S162F_SCALE;
 123:../../libDaisy//src/daisy_core.h **** }
 124:../../libDaisy//src/daisy_core.h **** 
 125:../../libDaisy//src/daisy_core.h **** /**
 126:../../libDaisy//src/daisy_core.h ****     Converts float to Signed 16-bit
 127:../../libDaisy//src/daisy_core.h **** */
 128:../../libDaisy//src/daisy_core.h **** FORCE_INLINE int16_t f2s16(float x)
 129:../../libDaisy//src/daisy_core.h **** {
 130:../../libDaisy//src/daisy_core.h ****     x = x <= FBIPMIN ? FBIPMIN : x;
 131:../../libDaisy//src/daisy_core.h ****     x = x >= FBIPMAX ? FBIPMAX : x;
 132:../../libDaisy//src/daisy_core.h ****     return (int32_t)(x * F2S16_SCALE);
 133:../../libDaisy//src/daisy_core.h **** }
 134:../../libDaisy//src/daisy_core.h **** 
 135:../../libDaisy//src/daisy_core.h **** /**
 136:../../libDaisy//src/daisy_core.h ****     Converts Signed 24-bit to float
 137:../../libDaisy//src/daisy_core.h ****  */
 138:../../libDaisy//src/daisy_core.h **** FORCE_INLINE float s242f(int32_t x)
 139:../../libDaisy//src/daisy_core.h **** {
 140:../../libDaisy//src/daisy_core.h ****     x = (x ^ S24SIGN) - S24SIGN; //sign extend aka ((x<<8)>>8)
 141:../../libDaisy//src/daisy_core.h ****     return (float)x * S242F_SCALE;
 142:../../libDaisy//src/daisy_core.h **** }
ARM GAS  /var/folders/hl/qgbwny5j0fd895c2c41bk3tw0000gp/T//ccEG44Zu.s 			page 183


 143:../../libDaisy//src/daisy_core.h **** /**
 144:../../libDaisy//src/daisy_core.h ****     Converts float to Signed 24-bit
 145:../../libDaisy//src/daisy_core.h ****  */
 146:../../libDaisy//src/daisy_core.h **** FORCE_INLINE int32_t f2s24(float x)
 147:../../libDaisy//src/daisy_core.h **** {
 148:../../libDaisy//src/daisy_core.h ****     x = x <= FBIPMIN ? FBIPMIN : x;
 149:../../libDaisy//src/daisy_core.h ****     x = x >= FBIPMAX ? FBIPMAX : x;
 150:../../libDaisy//src/daisy_core.h ****     return (int32_t)(x * F2S24_SCALE);
 151:../../libDaisy//src/daisy_core.h **** }
 152:../../libDaisy//src/daisy_core.h **** 
 153:../../libDaisy//src/daisy_core.h **** /**
 154:../../libDaisy//src/daisy_core.h ****     Converts Signed 32-bit to float
 155:../../libDaisy//src/daisy_core.h ****  */
 156:../../libDaisy//src/daisy_core.h **** FORCE_INLINE float s322f(int32_t x)
 157:../../libDaisy//src/daisy_core.h **** {
 158:../../libDaisy//src/daisy_core.h ****     return (float)x * S322F_SCALE;
 159:../../libDaisy//src/daisy_core.h **** }
 160:../../libDaisy//src/daisy_core.h **** /**
 161:../../libDaisy//src/daisy_core.h ****     Converts float to Signed 24-bit
 162:../../libDaisy//src/daisy_core.h ****  */
 163:../../libDaisy//src/daisy_core.h **** FORCE_INLINE int32_t f2s32(float x)
 164:../../libDaisy//src/daisy_core.h **** {
 165:../../libDaisy//src/daisy_core.h ****     x = x <= FBIPMIN ? FBIPMIN : x;
 166:../../libDaisy//src/daisy_core.h ****     x = x >= FBIPMAX ? FBIPMAX : x;
 167:../../libDaisy//src/daisy_core.h ****     return (int32_t)(x * F2S32_SCALE);
 168:../../libDaisy//src/daisy_core.h **** }
 169:../../libDaisy//src/daisy_core.h **** 
 170:../../libDaisy//src/daisy_core.h **** 
 171:../../libDaisy//src/daisy_core.h **** /** Enums and a simple struct for defining a hardware pin on the MCU
 172:../../libDaisy//src/daisy_core.h ****  *  These correlate with the stm32 datasheet, and are used to configure
 173:../../libDaisy//src/daisy_core.h ****  *  the hardware.
 174:../../libDaisy//src/daisy_core.h ****  * 
 175:../../libDaisy//src/daisy_core.h ****  *  This along with the dsy_gpio_pin class should no longer be used.
 176:../../libDaisy//src/daisy_core.h ****  *  They are available for backwards compatability. 
 177:../../libDaisy//src/daisy_core.h ****  * 
 178:../../libDaisy//src/daisy_core.h ****  *  Please use GPIOPort enum and the Pin struct instead.
 179:../../libDaisy//src/daisy_core.h ****  */
 180:../../libDaisy//src/daisy_core.h **** typedef enum
 181:../../libDaisy//src/daisy_core.h **** {
 182:../../libDaisy//src/daisy_core.h ****     DSY_GPIOA, /**< & */
 183:../../libDaisy//src/daisy_core.h ****     DSY_GPIOB, /**< & */
 184:../../libDaisy//src/daisy_core.h ****     DSY_GPIOC, /**< & */
 185:../../libDaisy//src/daisy_core.h ****     DSY_GPIOD, /**< & */
 186:../../libDaisy//src/daisy_core.h ****     DSY_GPIOE, /**< & */
 187:../../libDaisy//src/daisy_core.h ****     DSY_GPIOF, /**< & */
 188:../../libDaisy//src/daisy_core.h ****     DSY_GPIOG, /**< & */
 189:../../libDaisy//src/daisy_core.h ****     DSY_GPIOH, /**< & */
 190:../../libDaisy//src/daisy_core.h ****     DSY_GPIOI, /**< & */
 191:../../libDaisy//src/daisy_core.h ****     DSY_GPIOJ, /**< & */
 192:../../libDaisy//src/daisy_core.h ****     DSY_GPIOK, /**< & */
 193:../../libDaisy//src/daisy_core.h ****     DSY_GPIOX, /** This is a non-existant port for unsupported bits of hardware. */
 194:../../libDaisy//src/daisy_core.h ****     DSY_GPIO_LAST, /** Final enum member */
 195:../../libDaisy//src/daisy_core.h **** } dsy_gpio_port;
 196:../../libDaisy//src/daisy_core.h **** 
 197:../../libDaisy//src/daisy_core.h **** /** Hardware define pins 
 198:../../libDaisy//src/daisy_core.h ****  *  
 199:../../libDaisy//src/daisy_core.h ****  *  The dsy_gpio_pin struct should no longer be used, and is only available for
ARM GAS  /var/folders/hl/qgbwny5j0fd895c2c41bk3tw0000gp/T//ccEG44Zu.s 			page 184


 200:../../libDaisy//src/daisy_core.h ****  *  backwards compatability.
 201:../../libDaisy//src/daisy_core.h ****  * 
 202:../../libDaisy//src/daisy_core.h ****  *  Please use Pin struct instead.
 203:../../libDaisy//src/daisy_core.h ****  */
 204:../../libDaisy//src/daisy_core.h **** typedef struct
 205:../../libDaisy//src/daisy_core.h **** {
 206:../../libDaisy//src/daisy_core.h ****     dsy_gpio_port port; /**< & */
 207:../../libDaisy//src/daisy_core.h ****     uint8_t       pin;  /**< number 0-15 */
 208:../../libDaisy//src/daisy_core.h **** } dsy_gpio_pin;
 209:../../libDaisy//src/daisy_core.h **** 
 210:../../libDaisy//src/daisy_core.h **** /** Helper for creating pins from port/pin combos easily
 211:../../libDaisy//src/daisy_core.h ****  * 
 212:../../libDaisy//src/daisy_core.h ****  *  The dsy_gpio_pin struct should no longer be used, and is only available for
 213:../../libDaisy//src/daisy_core.h ****  *  backwards compatability.
 214:../../libDaisy//src/daisy_core.h ****  * 
 215:../../libDaisy//src/daisy_core.h ****  *  Please use Pin struct instead.
 216:../../libDaisy//src/daisy_core.h **** */
 217:../../libDaisy//src/daisy_core.h **** FORCE_INLINE dsy_gpio_pin dsy_pin(dsy_gpio_port port, uint8_t pin)
 218:../../libDaisy//src/daisy_core.h **** {
 219:../../libDaisy//src/daisy_core.h ****     dsy_gpio_pin p;
 220:../../libDaisy//src/daisy_core.h ****     p.port = port;
 221:../../libDaisy//src/daisy_core.h ****     p.pin  = pin;
 222:../../libDaisy//src/daisy_core.h ****     return p;
 223:../../libDaisy//src/daisy_core.h **** }
 224:../../libDaisy//src/daisy_core.h **** 
 225:../../libDaisy//src/daisy_core.h **** /** Helper for testing sameness of two dsy_gpio_pins
 226:../../libDaisy//src/daisy_core.h ****  *  \return    1 if same, 0 if different
 227:../../libDaisy//src/daisy_core.h ****  * 
 228:../../libDaisy//src/daisy_core.h ****  *  The dsy_gpio_pin struct should no longer be used, and is only available for
 229:../../libDaisy//src/daisy_core.h ****  *  backwards compatability.
 230:../../libDaisy//src/daisy_core.h ****  * 
 231:../../libDaisy//src/daisy_core.h ****  *  Please use Pin struct instead.
 232:../../libDaisy//src/daisy_core.h ****  */
 233:../../libDaisy//src/daisy_core.h **** FORCE_INLINE uint8_t dsy_pin_cmp(dsy_gpio_pin *a, dsy_gpio_pin *b)
 234:../../libDaisy//src/daisy_core.h **** {
 235:../../libDaisy//src/daisy_core.h ****     return ((a->port == b->port) && (a->pin == b->pin));
 236:../../libDaisy//src/daisy_core.h **** }
 237:../../libDaisy//src/daisy_core.h **** 
 238:../../libDaisy//src/daisy_core.h **** #ifdef __cplusplus
 239:../../libDaisy//src/daisy_core.h **** 
 240:../../libDaisy//src/daisy_core.h **** namespace daisy
 241:../../libDaisy//src/daisy_core.h **** {
 242:../../libDaisy//src/daisy_core.h **** /** @brief GPIO Port names */
 243:../../libDaisy//src/daisy_core.h **** enum GPIOPort
 244:../../libDaisy//src/daisy_core.h **** {
 245:../../libDaisy//src/daisy_core.h ****     PORTA, /**< Port A */
 246:../../libDaisy//src/daisy_core.h ****     PORTB, /**< Port B */
 247:../../libDaisy//src/daisy_core.h ****     PORTC, /**< Port C */
 248:../../libDaisy//src/daisy_core.h ****     PORTD, /**< Port D */
 249:../../libDaisy//src/daisy_core.h ****     PORTE, /**< Port E */
 250:../../libDaisy//src/daisy_core.h ****     PORTF, /**< Port F */
 251:../../libDaisy//src/daisy_core.h ****     PORTG, /**< Port G */
 252:../../libDaisy//src/daisy_core.h ****     PORTH, /**< Port H */
 253:../../libDaisy//src/daisy_core.h ****     PORTI, /**< Port I */
 254:../../libDaisy//src/daisy_core.h ****     PORTJ, /**< Port J */
 255:../../libDaisy//src/daisy_core.h ****     PORTK, /**< Port K */
 256:../../libDaisy//src/daisy_core.h ****     PORTX, /**< Used as a dummy port to signal an invalid pin. */
ARM GAS  /var/folders/hl/qgbwny5j0fd895c2c41bk3tw0000gp/T//ccEG44Zu.s 			page 185


 257:../../libDaisy//src/daisy_core.h **** };
 258:../../libDaisy//src/daisy_core.h **** 
 259:../../libDaisy//src/daisy_core.h **** /** @brief representation of hardware port/pin combination */
 260:../../libDaisy//src/daisy_core.h **** struct Pin
 261:../../libDaisy//src/daisy_core.h **** {
 262:../../libDaisy//src/daisy_core.h ****     GPIOPort port;
 263:../../libDaisy//src/daisy_core.h ****     uint8_t  pin;
 264:../../libDaisy//src/daisy_core.h **** 
 265:../../libDaisy//src/daisy_core.h ****     /** @brief Constructor creates a valid pin. 
 266:../../libDaisy//src/daisy_core.h ****      *  @param pt GPIOPort between PA, and PK corresponding to STM32 Port.
 267:../../libDaisy//src/daisy_core.h ****      *  @param pn pin number in range of 0-15
 268:../../libDaisy//src/daisy_core.h ****     */
 269:../../libDaisy//src/daisy_core.h ****     constexpr Pin(const GPIOPort pt, const uint8_t pn) : port(pt), pin(pn) {}
 270:../../libDaisy//src/daisy_core.h **** 
 271:../../libDaisy//src/daisy_core.h ****     /** @brief Basic Constructor creates an invalid Pin object */
 272:../../libDaisy//src/daisy_core.h ****     constexpr Pin() : port(PORTX), pin(255) {}
 5981              		.loc 23 272 15 view .LVU1437
 5982              		.loc 23 272 15 is_stmt 0 view .LVU1438
 5983              	.LBE2501:
 5984              	.LBE2500:
 5985              	.LBE2499:
 5986              	.LBE2498:
 5987              	.LBE2497:
 5988              	.LBE2496:
 5989              	.LBE2495:
 5990              	.LBE2494:
 5991              		.loc 17 121 1 view .LVU1439
 5992 0000 38B5     		push	{r3, r4, r5, lr}
 5993              		.cfi_def_cfa_offset 16
 5994              		.cfi_offset 3, -16
 5995              		.cfi_offset 4, -12
 5996              		.cfi_offset 5, -8
 5997              		.cfi_offset 14, -4
 5998              	.LBB2704:
 5999              	.LBB2699:
 6000              	.LBB2514:
 6001              	.LBB2515:
 6002              		.loc 22 74 12 view .LVU1440
 6003 0002 454A     		ldr	r2, .L131
 6004              	.LBE2515:
 6005              	.LBE2514:
 6006              	.LBB2525:
 6007              	.LBB2511:
 6008              	.LBB2508:
 6009              	.LBB2505:
 6010              	.LBB2502:
  69:../../libDaisy//src/per/gpio.h ****         {
 6011              		.loc 22 69 73 view .LVU1441
 6012 0004 0024     		movs	r4, #0
 6013              	.LBE2502:
 6014              	.LBE2505:
 6015              	.LBE2508:
 6016              		.loc 22 74 12 view .LVU1442
 6017 0006 4FF60B73 		movw	r3, #65291
 6018 000a 4448     		ldr	r0, .L131+4
 6019              	.LBE2511:
 6020              	.LBE2525:
ARM GAS  /var/folders/hl/qgbwny5j0fd895c2c41bk3tw0000gp/T//ccEG44Zu.s 			page 186


 6021              	.LBB2526:
 6022              	.LBB2527:
 6023 000c 4449     		ldr	r1, .L131+8
 6024              	.LBE2527:
 6025              	.LBE2526:
 6026              	.LBB2537:
 6027              	.LBB2523:
 6028              	.LBB2516:
 6029              	.LBB2517:
 6030              	.LBB2518:
  69:../../libDaisy//src/per/gpio.h ****         {
 6031              		.loc 22 69 73 view .LVU1443
 6032 000e C2E90034 		strd	r3, r4, [r2]
 6033 0012 C2E90244 		strd	r4, r4, [r2, #8]
 6034              	.LBE2518:
 6035              	.LBE2517:
 6036              	.LBE2516:
 6037              	.LBE2523:
 6038              	.LBE2537:
 6039              	.LBB2538:
 6040              	.LBB2539:
 6041              		.loc 22 74 12 view .LVU1444
 6042 0016 434A     		ldr	r2, .L131+12
 6043              	.LBB2540:
 6044              	.LBB2541:
 6045              	.LBB2542:
  69:../../libDaisy//src/per/gpio.h ****         {
 6046              		.loc 22 69 73 view .LVU1445
 6047 0018 C2E90034 		strd	r3, r4, [r2]
 6048 001c C2E90244 		strd	r4, r4, [r2, #8]
 6049              	.LBE2542:
 6050              	.LBE2541:
 6051              	.LBE2540:
 6052              	.LBE2539:
 6053              	.LBE2538:
 6054              	.LBB2548:
 6055              	.LBB2549:
 6056              		.loc 22 74 12 view .LVU1446
 6057 0020 414A     		ldr	r2, .L131+16
 6058              	.LBE2549:
 6059              	.LBE2548:
 6060              	.LBB2563:
 6061              	.LBB2512:
 6062              	.LBB2509:
 6063              	.LBB2506:
 6064              	.LBB2503:
  69:../../libDaisy//src/per/gpio.h ****         {
 6065              		.loc 22 69 73 view .LVU1447
 6066 0022 C0E90034 		strd	r3, r4, [r0]
 6067              	.LBE2503:
 6068              	.LBE2506:
 6069              	.LBE2509:
 6070              	.LBE2512:
 6071              	.LBE2563:
 6072              	.LBB2564:
 6073              	.LBB2560:
 6074              	.LBB2550:
ARM GAS  /var/folders/hl/qgbwny5j0fd895c2c41bk3tw0000gp/T//ccEG44Zu.s 			page 187


 6075              	.LBB2551:
 6076              	.LBB2552:
 6077 0026 C2E90034 		strd	r3, r4, [r2]
 6078              	.LBE2552:
 6079              	.LBE2551:
 6080              	.LBE2550:
 6081              	.LBE2560:
 6082              	.LBE2564:
 6083              	.LBB2565:
 6084              	.LBB2535:
 6085              	.LBB2528:
 6086              	.LBB2529:
 6087              	.LBB2530:
 6088 002a C1E90034 		strd	r3, r4, [r1]
 6089              	.LBE2530:
 6090              	.LBE2529:
 6091              	.LBE2528:
 6092              	.LBE2535:
 6093              	.LBE2565:
 6094              	.LBB2566:
 6095              	.LBB2513:
 6096              	.LBB2510:
 6097              	.LBB2507:
 6098              	.LBB2504:
 6099 002e C0E90244 		strd	r4, r4, [r0, #8]
 6100              	.LVL297:
  69:../../libDaisy//src/per/gpio.h ****         {
 6101              		.loc 22 69 73 view .LVU1448
 6102              	.LBE2504:
 6103              	.LBE2507:
 6104              	.LBE2510:
 6105              	.LBE2513:
 6106              	.LBE2566:
 6107              	.LBB2567:
 6108              	.LBI2514:
 6109              		.loc 22 74 5 is_stmt 1 view .LVU1449
 6110              	.LBB2524:
 6111              	.LBB2522:
 6112              	.LBI2516:
  68:../../libDaisy//src/per/gpio.h ****         : pin(), mode(Mode::INPUT), pull(Pull::NOPULL), speed(Speed::LOW)
 6113              		.loc 22 68 9 view .LVU1450
 6114              	.LBB2521:
 6115              	.LBB2520:
 6116              	.LBB2519:
 6117              	.LBI2519:
 6118              		.loc 23 272 15 view .LVU1451
 6119              		.loc 23 272 15 is_stmt 0 view .LVU1452
 6120              	.LBE2519:
 6121              	.LBE2520:
 6122              	.LBE2521:
 6123              	.LBE2522:
 6124              	.LBE2524:
 6125              	.LBE2567:
 6126              	.LBB2568:
 6127              	.LBI2526:
 6128              		.loc 22 74 5 is_stmt 1 view .LVU1453
 6129              	.LBB2536:
ARM GAS  /var/folders/hl/qgbwny5j0fd895c2c41bk3tw0000gp/T//ccEG44Zu.s 			page 188


 6130              	.LBB2534:
 6131              	.LBI2528:
  68:../../libDaisy//src/per/gpio.h ****         : pin(), mode(Mode::INPUT), pull(Pull::NOPULL), speed(Speed::LOW)
 6132              		.loc 22 68 9 view .LVU1454
 6133              	.LBB2533:
 6134              	.LBB2532:
 6135              	.LBB2531:
 6136              	.LBI2531:
 6137              		.loc 23 272 15 view .LVU1455
 6138              		.loc 23 272 15 is_stmt 0 view .LVU1456
 6139              	.LBE2531:
  69:../../libDaisy//src/per/gpio.h ****         {
 6140              		.loc 22 69 73 view .LVU1457
 6141 0032 C1E90244 		strd	r4, r4, [r1, #8]
 6142              	.LVL298:
  69:../../libDaisy//src/per/gpio.h ****         {
 6143              		.loc 22 69 73 view .LVU1458
 6144              	.LBE2532:
 6145              	.LBE2533:
 6146              	.LBE2534:
 6147              	.LBE2536:
 6148              	.LBE2568:
 6149              	.LBB2569:
 6150              	.LBI2538:
 6151              		.loc 22 74 5 is_stmt 1 view .LVU1459
 6152              	.LBB2547:
 6153              	.LBB2546:
 6154              	.LBI2540:
  68:../../libDaisy//src/per/gpio.h ****         : pin(), mode(Mode::INPUT), pull(Pull::NOPULL), speed(Speed::LOW)
 6155              		.loc 22 68 9 view .LVU1460
 6156              	.LBB2545:
 6157              	.LBB2544:
 6158              	.LBB2543:
 6159              	.LBI2543:
 6160              		.loc 23 272 15 view .LVU1461
 6161              		.loc 23 272 15 is_stmt 0 view .LVU1462
 6162              	.LBE2543:
 6163              	.LBE2544:
 6164              	.LBE2545:
 6165              	.LBE2546:
 6166              	.LBE2547:
 6167              	.LBE2569:
 6168              	.LBB2570:
 6169              	.LBI2570:
 6170              		.loc 22 74 5 is_stmt 1 view .LVU1463
 6171              	.LBB2571:
 6172              	.LBB2572:
 6173              	.LBI2572:
  68:../../libDaisy//src/per/gpio.h ****         : pin(), mode(Mode::INPUT), pull(Pull::NOPULL), speed(Speed::LOW)
 6174              		.loc 22 68 9 view .LVU1464
 6175              	.LBB2573:
 6176              	.LBB2574:
 6177              	.LBB2575:
 6178              	.LBI2575:
 6179              		.loc 23 272 15 view .LVU1465
 6180              		.loc 23 272 15 is_stmt 0 view .LVU1466
 6181              	.LBE2575:
ARM GAS  /var/folders/hl/qgbwny5j0fd895c2c41bk3tw0000gp/T//ccEG44Zu.s 			page 189


 6182              	.LBE2574:
 6183              	.LBE2573:
 6184              	.LBE2572:
 6185              	.LBE2571:
 6186              	.LBE2570:
 6187              	.LBB2585:
 6188              	.LBB2561:
 6189              	.LBB2558:
 6190              	.LBB2556:
 6191              	.LBB2554:
  69:../../libDaisy//src/per/gpio.h ****         {
 6192              		.loc 22 69 73 view .LVU1467
 6193 0036 C2E90244 		strd	r4, r4, [r2, #8]
 6194              	.LBE2554:
 6195              	.LBE2556:
 6196              	.LBE2558:
 6197              	.LBE2561:
 6198              	.LBE2585:
 6199              	.LBB2586:
 6200              	.LBB2582:
 6201              		.loc 22 74 12 view .LVU1468
 6202 003a 3C48     		ldr	r0, .L131+20
 6203              	.LBE2582:
 6204              	.LBE2586:
 6205              	.LBB2587:
 6206              	.LBB2588:
 6207 003c 3C4A     		ldr	r2, .L131+24
 6208              	.LBE2588:
 6209              	.LBE2587:
 6210              	.LBB2599:
 6211              	.LBB2600:
 6212 003e 3D49     		ldr	r1, .L131+28
 6213              	.LBE2600:
 6214              	.LBE2599:
 6215              	.LBB2610:
 6216              	.LBB2596:
 6217 0040 1360     		str	r3, [r2]
 6218              	.LBE2596:
 6219              	.LBE2610:
 6220              	.LBB2611:
 6221              	.LBB2583:
 6222              	.LBB2580:
 6223              	.LBB2578:
 6224              	.LBB2576:
  69:../../libDaisy//src/per/gpio.h ****         {
 6225              		.loc 22 69 73 view .LVU1469
 6226 0042 C0E90034 		strd	r3, r4, [r0]
 6227              	.LBE2576:
 6228              	.LBE2578:
 6229              	.LBE2580:
 6230              	.LBE2583:
 6231              	.LBE2611:
 6232              	.LBB2612:
 6233              	.LBB2608:
 6234              	.LBB2601:
 6235              	.LBB2602:
 6236              	.LBB2603:
ARM GAS  /var/folders/hl/qgbwny5j0fd895c2c41bk3tw0000gp/T//ccEG44Zu.s 			page 190


 6237 0046 C1E90034 		strd	r3, r4, [r1]
 6238 004a C1E90244 		strd	r4, r4, [r1, #8]
 6239              	.LBE2603:
 6240              	.LBE2602:
 6241              	.LBE2601:
 6242              	.LBE2608:
 6243              	.LBE2612:
  23:daisy_bed.h   ****     Pin newPinD7 = Pin(static_cast<GPIOPort>(oldPinD7.port), oldPinD7.pin);
 6244              		.loc 14 23 18 view .LVU1470
 6245 004e 3A4B     		ldr	r3, .L131+32
  25:daisy_bed.h   ****     Pin newPinA9 = Pin(static_cast<GPIOPort>(oldPinA9.port), oldPinA9.pin);
 6246              		.loc 14 25 18 view .LVU1471
 6247 0050 3A49     		ldr	r1, .L131+36
 6248              	.LBB2613:
 6249              	.LBB2584:
 6250              	.LBB2581:
 6251              	.LBB2579:
 6252              	.LBB2577:
  69:../../libDaisy//src/per/gpio.h ****         {
 6253              		.loc 22 69 73 view .LVU1472
 6254 0052 C0E90244 		strd	r4, r4, [r0, #8]
 6255              	.LVL299:
  69:../../libDaisy//src/per/gpio.h ****         {
 6256              		.loc 22 69 73 view .LVU1473
 6257              	.LBE2577:
 6258              	.LBE2579:
 6259              	.LBE2581:
 6260              	.LBE2584:
 6261              	.LBE2613:
 6262              	.LBB2614:
 6263              	.LBI2548:
 6264              		.loc 22 74 5 is_stmt 1 view .LVU1474
 6265              	.LBB2562:
 6266              	.LBB2559:
 6267              	.LBI2550:
  68:../../libDaisy//src/per/gpio.h ****         : pin(), mode(Mode::INPUT), pull(Pull::NOPULL), speed(Speed::LOW)
 6268              		.loc 22 68 9 view .LVU1475
 6269              	.LBB2557:
 6270              	.LBB2555:
 6271              	.LBB2553:
 6272              	.LBI2553:
 6273              		.loc 23 272 15 view .LVU1476
 6274              		.loc 23 272 15 is_stmt 0 view .LVU1477
 6275              	.LBE2553:
 6276              	.LBE2555:
 6277              	.LBE2557:
 6278              	.LBE2559:
 6279              	.LBE2562:
 6280              	.LBE2614:
 6281              	.LBB2615:
 6282              	.LBI2599:
 6283              		.loc 22 74 5 is_stmt 1 view .LVU1478
 6284              	.LBB2609:
 6285              	.LBB2607:
 6286              	.LBI2601:
  68:../../libDaisy//src/per/gpio.h ****         : pin(), mode(Mode::INPUT), pull(Pull::NOPULL), speed(Speed::LOW)
 6287              		.loc 22 68 9 view .LVU1479
ARM GAS  /var/folders/hl/qgbwny5j0fd895c2c41bk3tw0000gp/T//ccEG44Zu.s 			page 191


 6288              	.LBB2606:
 6289              	.LBB2605:
 6290              	.LBB2604:
 6291              	.LBI2604:
 6292              		.loc 23 272 15 view .LVU1480
 6293              		.loc 23 272 15 is_stmt 0 view .LVU1481
 6294              	.LBE2604:
 6295              	.LBE2605:
 6296              	.LBE2606:
 6297              	.LBE2607:
 6298              	.LBE2609:
 6299              	.LBE2615:
 6300              	.LBB2616:
 6301              	.LBI2587:
 6302              		.loc 22 74 5 is_stmt 1 view .LVU1482
 6303              	.LBB2597:
 6304              	.LBB2589:
 6305              	.LBI2589:
  68:../../libDaisy//src/per/gpio.h ****         : pin(), mode(Mode::INPUT), pull(Pull::NOPULL), speed(Speed::LOW)
 6306              		.loc 22 68 9 view .LVU1483
 6307              	.LBB2590:
 6308              	.LBB2591:
 6309              	.LBB2592:
 6310              	.LBI2592:
 6311              		.loc 23 272 15 view .LVU1484
 6312              		.loc 23 272 15 is_stmt 0 view .LVU1485
 6313              	.LBE2592:
  69:../../libDaisy//src/per/gpio.h ****         {
 6314              		.loc 22 69 73 view .LVU1486
 6315 0056 C2E90144 		strd	r4, r4, [r2, #4]
 6316              	.LBE2591:
 6317              	.LBE2590:
 6318              	.LBE2589:
 6319              	.LBE2597:
 6320              	.LBE2616:
  23:daisy_bed.h   ****     Pin newPinD7 = Pin(static_cast<GPIOPort>(oldPinD7.port), oldPinD7.pin);
 6321              		.loc 14 23 18 view .LVU1487
 6322 005a 3948     		ldr	r0, .L131+40
 6323              	.LBB2617:
 6324              	.LBB2598:
 6325              	.LBB2595:
 6326              	.LBB2594:
 6327              	.LBB2593:
  69:../../libDaisy//src/per/gpio.h ****         {
 6328              		.loc 22 69 73 view .LVU1488
 6329 005c D460     		str	r4, [r2, #12]
 6330              	.LVL300:
  69:../../libDaisy//src/per/gpio.h ****         {
 6331              		.loc 22 69 73 view .LVU1489
 6332              	.LBE2593:
 6333              	.LBE2594:
 6334              	.LBE2595:
 6335              	.LBE2598:
 6336              	.LBE2617:
  23:daisy_bed.h   ****     Pin newPinD7 = Pin(static_cast<GPIOPort>(oldPinD7.port), oldPinD7.pin);
 6337              		.loc 14 23 18 view .LVU1490
 6338 005e 1D88     		ldrh	r5, [r3]	@ unaligned
ARM GAS  /var/folders/hl/qgbwny5j0fd895c2c41bk3tw0000gp/T//ccEG44Zu.s 			page 192


  25:daisy_bed.h   ****     Pin newPinA9 = Pin(static_cast<GPIOPort>(oldPinA9.port), oldPinA9.pin);
 6339              		.loc 14 25 18 view .LVU1491
 6340 0060 0988     		ldrh	r1, [r1]	@ unaligned
 6341 0062 384B     		ldr	r3, .L131+44
  23:daisy_bed.h   ****     Pin newPinD7 = Pin(static_cast<GPIOPort>(oldPinD7.port), oldPinD7.pin);
 6342              		.loc 14 23 18 view .LVU1492
 6343 0064 0580     		strh	r5, [r0]	@ unaligned
  25:daisy_bed.h   ****     Pin newPinA9 = Pin(static_cast<GPIOPort>(oldPinA9.port), oldPinA9.pin);
 6344              		.loc 14 25 18 view .LVU1493
 6345 0066 1980     		strh	r1, [r3]	@ unaligned
 6346              	.LBB2618:
 6347              	.LBB2619:
 6348              	.LBB2620:
 269:../../libDaisy//src/daisy_core.h **** 
 6349              		.loc 23 269 74 view .LVU1494
 6350 0068 374A     		ldr	r2, .L131+48
 6351              	.LBE2620:
 6352              	.LBE2619:
 6353              	.LBE2618:
  24:daisy_bed.h   ****     dsy_gpio_pin oldPinA9 = DaisyPatchSM::A9;
 6354              		.loc 14 24 55 view .LVU1495
 6355 006a 0188     		ldrh	r1, [r0]
 6356              	.LVL301:
 6357              	.LBB2623:
 6358              	.LBI2618:
 269:../../libDaisy//src/daisy_core.h **** 
 6359              		.loc 23 269 15 is_stmt 1 view .LVU1496
 6360              	.LBE2623:
  31:daisy_bed.h   ****     Pin newPinD1 = Pin(static_cast<GPIOPort>(oldPinD1.port), oldPinD1.pin);
 6361              		.loc 14 31 18 is_stmt 0 view .LVU1497
 6362 006c 3748     		ldr	r0, .L131+52
 6363              	.LBB2624:
 6364              	.LBB2622:
 6365              	.LBB2621:
 269:../../libDaisy//src/daisy_core.h **** 
 6366              		.loc 23 269 74 view .LVU1498
 6367 006e 1180     		strh	r1, [r2]	@ movhi
 6368              	.LVL302:
 269:../../libDaisy//src/daisy_core.h **** 
 6369              		.loc 23 269 74 view .LVU1499
 6370              	.LBE2621:
 6371              	.LBE2622:
 6372              	.LBE2624:
  29:daisy_bed.h   ****     Pin newPinD2 = Pin(static_cast<GPIOPort>(oldPinD2.port), oldPinD2.pin);
 6373              		.loc 14 29 18 view .LVU1500
 6374 0070 3749     		ldr	r1, .L131+56
  31:daisy_bed.h   ****     Pin newPinD1 = Pin(static_cast<GPIOPort>(oldPinD1.port), oldPinD1.pin);
 6375              		.loc 14 31 18 view .LVU1501
 6376 0072 0088     		ldrh	r0, [r0]	@ unaligned
  29:daisy_bed.h   ****     Pin newPinD2 = Pin(static_cast<GPIOPort>(oldPinD2.port), oldPinD2.pin);
 6377              		.loc 14 29 18 view .LVU1502
 6378 0074 0D88     		ldrh	r5, [r1]	@ unaligned
  26:daisy_bed.h   **** 
 6379              		.loc 14 26 55 view .LVU1503
 6380 0076 1988     		ldrh	r1, [r3]
 6381              	.LVL303:
 6382              	.LBB2625:
ARM GAS  /var/folders/hl/qgbwny5j0fd895c2c41bk3tw0000gp/T//ccEG44Zu.s 			page 193


 6383              	.LBI2625:
 269:../../libDaisy//src/daisy_core.h **** 
 6384              		.loc 23 269 15 is_stmt 1 view .LVU1504
 6385              	.LBB2626:
 6386              	.LBB2627:
 269:../../libDaisy//src/daisy_core.h **** 
 6387              		.loc 23 269 74 is_stmt 0 view .LVU1505
 6388 0078 364B     		ldr	r3, .L131+60
 6389              	.LBE2627:
 6390              	.LBE2626:
 6391              	.LBE2625:
  29:daisy_bed.h   ****     Pin newPinD2 = Pin(static_cast<GPIOPort>(oldPinD2.port), oldPinD2.pin);
 6392              		.loc 14 29 18 view .LVU1506
 6393 007a 374A     		ldr	r2, .L131+64
 6394              	.LBB2630:
 6395              	.LBB2629:
 6396              	.LBB2628:
 269:../../libDaisy//src/daisy_core.h **** 
 6397              		.loc 23 269 74 view .LVU1507
 6398 007c 1980     		strh	r1, [r3]	@ movhi
 6399              	.LVL304:
 269:../../libDaisy//src/daisy_core.h **** 
 6400              		.loc 23 269 74 view .LVU1508
 6401              	.LBE2628:
 6402              	.LBE2629:
 6403              	.LBE2630:
  31:daisy_bed.h   ****     Pin newPinD1 = Pin(static_cast<GPIOPort>(oldPinD1.port), oldPinD1.pin);
 6404              		.loc 14 31 18 view .LVU1509
 6405 007e 374B     		ldr	r3, .L131+68
  29:daisy_bed.h   ****     Pin newPinD2 = Pin(static_cast<GPIOPort>(oldPinD2.port), oldPinD2.pin);
 6406              		.loc 14 29 18 view .LVU1510
 6407 0080 1580     		strh	r5, [r2]	@ unaligned
  31:daisy_bed.h   ****     Pin newPinD1 = Pin(static_cast<GPIOPort>(oldPinD1.port), oldPinD1.pin);
 6408              		.loc 14 31 18 view .LVU1511
 6409 0082 1880     		strh	r0, [r3]	@ unaligned
  30:daisy_bed.h   ****     dsy_gpio_pin oldPinD1 = DaisyPatchSM::D1;
 6410              		.loc 14 30 55 view .LVU1512
 6411 0084 1288     		ldrh	r2, [r2]
 6412              	.LVL305:
 6413              	.LBB2631:
 6414              	.LBI2631:
 269:../../libDaisy//src/daisy_core.h **** 
 6415              		.loc 23 269 15 is_stmt 1 view .LVU1513
 6416              	.LBE2631:
  32:daisy_bed.h   ****     // ^^^ {DSY_GPIOB, 4},  /**< D1  - SPI2 CS */
 6417              		.loc 14 32 55 is_stmt 0 view .LVU1514
 6418 0086 1D88     		ldrh	r5, [r3]
 6419              	.LBB2636:
 6420              	.LBB2632:
 6421              	.LBB2633:
 269:../../libDaisy//src/daisy_core.h **** 
 6422              		.loc 23 269 74 view .LVU1515
 6423 0088 354B     		ldr	r3, .L131+72
 6424              	.LBE2633:
 6425              	.LBE2632:
 6426              	.LBE2636:
  36:daisy_bed.h   ****     Pin newPinD3 = Pin(static_cast<GPIOPort>(oldPinD3.port), oldPinD3.pin);
ARM GAS  /var/folders/hl/qgbwny5j0fd895c2c41bk3tw0000gp/T//ccEG44Zu.s 			page 194


 6427              		.loc 14 36 18 view .LVU1516
 6428 008a 3649     		ldr	r1, .L131+76
 6429              	.LBB2637:
 6430              	.LBB2635:
 6431              	.LBB2634:
 269:../../libDaisy//src/daisy_core.h **** 
 6432              		.loc 23 269 74 view .LVU1517
 6433 008c 1A80     		strh	r2, [r3]	@ movhi
 6434              	.LVL306:
 269:../../libDaisy//src/daisy_core.h **** 
 6435              		.loc 23 269 74 view .LVU1518
 6436              	.LBE2634:
 6437              	.LBE2635:
 6438              	.LBE2637:
 6439              	.LBB2638:
 6440              	.LBI2638:
 269:../../libDaisy//src/daisy_core.h **** 
 6441              		.loc 23 269 15 is_stmt 1 view .LVU1519
 6442              	.LBE2638:
  38:daisy_bed.h   ****     Pin newPinD6 = Pin(static_cast<GPIOPort>(oldPinD6.port), oldPinD6.pin);
 6443              		.loc 14 38 18 is_stmt 0 view .LVU1520
 6444 008e 364B     		ldr	r3, .L131+80
  36:daisy_bed.h   ****     Pin newPinD3 = Pin(static_cast<GPIOPort>(oldPinD3.port), oldPinD3.pin);
 6445              		.loc 14 36 18 view .LVU1521
 6446 0090 B1F800E0 		ldrh	lr, [r1]	@ unaligned
  38:daisy_bed.h   ****     Pin newPinD6 = Pin(static_cast<GPIOPort>(oldPinD6.port), oldPinD6.pin);
 6447              		.loc 14 38 18 view .LVU1522
 6448 0094 B3F800C0 		ldrh	ip, [r3]	@ unaligned
  40:daisy_bed.h   ****     Pin newPinD4 = Pin(static_cast<GPIOPort>(oldPinD4.port), oldPinD4.pin);
 6449              		.loc 14 40 18 view .LVU1523
 6450 0098 344B     		ldr	r3, .L131+84
 6451              	.LBB2643:
 6452              	.LBB2644:
 6453              	.LBB2645:
 269:../../libDaisy//src/daisy_core.h **** 
 6454              		.loc 23 269 74 view .LVU1524
 6455 009a 3548     		ldr	r0, .L131+88
 6456              	.LBE2645:
 6457              	.LBE2644:
 6458              	.LBE2643:
  40:daisy_bed.h   ****     Pin newPinD4 = Pin(static_cast<GPIOPort>(oldPinD4.port), oldPinD4.pin);
 6459              		.loc 14 40 18 view .LVU1525
 6460 009c 1988     		ldrh	r1, [r3]	@ unaligned
  42:daisy_bed.h   ****     Pin newPinD5 = Pin(static_cast<GPIOPort>(oldPinD5.port), oldPinD5.pin);
 6461              		.loc 14 42 18 view .LVU1526
 6462 009e 354B     		ldr	r3, .L131+92
 6463 00a0 1A88     		ldrh	r2, [r3]	@ unaligned
  36:daisy_bed.h   ****     Pin newPinD3 = Pin(static_cast<GPIOPort>(oldPinD3.port), oldPinD3.pin);
 6464              		.loc 14 36 18 view .LVU1527
 6465 00a2 354B     		ldr	r3, .L131+96
 6466 00a4 A3F800E0 		strh	lr, [r3]	@ unaligned
  37:daisy_bed.h   ****     dsy_gpio_pin oldPinD6 = DaisyPatchSM::D6;
 6467              		.loc 14 37 55 view .LVU1528
 6468 00a8 B3F800E0 		ldrh	lr, [r3]
  38:daisy_bed.h   ****     Pin newPinD6 = Pin(static_cast<GPIOPort>(oldPinD6.port), oldPinD6.pin);
 6469              		.loc 14 38 18 view .LVU1529
 6470 00ac 334B     		ldr	r3, .L131+100
ARM GAS  /var/folders/hl/qgbwny5j0fd895c2c41bk3tw0000gp/T//ccEG44Zu.s 			page 195


 6471 00ae A3F800C0 		strh	ip, [r3]	@ unaligned
  39:daisy_bed.h   ****     dsy_gpio_pin oldPinD4 = DaisyPatchSM::D4;
 6472              		.loc 14 39 55 view .LVU1530
 6473 00b2 1B88     		ldrh	r3, [r3]
 6474              	.LBB2648:
 6475              	.LBB2647:
 6476              	.LBB2646:
 269:../../libDaisy//src/daisy_core.h **** 
 6477              		.loc 23 269 74 view .LVU1531
 6478 00b4 0380     		strh	r3, [r0]	@ movhi
 6479              	.LBE2646:
 6480              	.LBE2647:
 6481              	.LBE2648:
  40:daisy_bed.h   ****     Pin newPinD4 = Pin(static_cast<GPIOPort>(oldPinD4.port), oldPinD4.pin);
 6482              		.loc 14 40 18 view .LVU1532
 6483 00b6 324B     		ldr	r3, .L131+104
 6484 00b8 1980     		strh	r1, [r3]	@ unaligned
  41:daisy_bed.h   ****     dsy_gpio_pin oldPinD5 = DaisyPatchSM::D5;
 6485              		.loc 14 41 55 view .LVU1533
 6486 00ba B3F800C0 		ldrh	ip, [r3]
  42:daisy_bed.h   ****     Pin newPinD5 = Pin(static_cast<GPIOPort>(oldPinD5.port), oldPinD5.pin);
 6487              		.loc 14 42 18 view .LVU1534
 6488 00be 314B     		ldr	r3, .L131+108
  48:daisy_bed.h   **** 
 6489              		.loc 14 48 17 view .LVU1535
 6490 00c0 3149     		ldr	r1, .L131+112
  42:daisy_bed.h   ****     Pin newPinD5 = Pin(static_cast<GPIOPort>(oldPinD5.port), oldPinD5.pin);
 6491              		.loc 14 42 18 view .LVU1536
 6492 00c2 1A80     		strh	r2, [r3]	@ unaligned
  43:daisy_bed.h   **** 
 6493              		.loc 14 43 55 view .LVU1537
 6494 00c4 1888     		ldrh	r0, [r3]
 6495              	.LBB2649:
 6496              	.LBB2639:
 6497              	.LBB2640:
 269:../../libDaisy//src/daisy_core.h **** 
 6498              		.loc 23 269 74 view .LVU1538
 6499 00c6 314B     		ldr	r3, .L131+116
 6500              	.LBE2640:
 6501              	.LBE2639:
 6502              	.LBE2649:
  48:daisy_bed.h   **** 
 6503              		.loc 14 48 17 view .LVU1539
 6504 00c8 314A     		ldr	r2, .L131+120
 6505              	.LBB2650:
 6506              	.LBB2642:
 6507              	.LBB2641:
 269:../../libDaisy//src/daisy_core.h **** 
 6508              		.loc 23 269 74 view .LVU1540
 6509 00ca 1D80     		strh	r5, [r3]	@ movhi
 6510              	.LVL307:
 269:../../libDaisy//src/daisy_core.h **** 
 6511              		.loc 23 269 74 view .LVU1541
 6512              	.LBE2641:
 6513              	.LBE2642:
 6514              	.LBE2650:
 6515              	.LBB2651:
ARM GAS  /var/folders/hl/qgbwny5j0fd895c2c41bk3tw0000gp/T//ccEG44Zu.s 			page 196


 6516              	.LBI2651:
 269:../../libDaisy//src/daisy_core.h **** 
 6517              		.loc 23 269 15 is_stmt 1 view .LVU1542
 6518              	.LBB2652:
 6519              	.LBB2653:
 269:../../libDaisy//src/daisy_core.h **** 
 6520              		.loc 23 269 74 is_stmt 0 view .LVU1543
 6521 00cc 314B     		ldr	r3, .L131+124
 6522 00ce A3F800E0 		strh	lr, [r3]	@ movhi
 6523              	.LVL308:
 269:../../libDaisy//src/daisy_core.h **** 
 6524              		.loc 23 269 74 view .LVU1544
 6525              	.LBE2653:
 6526              	.LBE2652:
 6527              	.LBE2651:
 6528              	.LBB2654:
 6529              	.LBI2643:
 269:../../libDaisy//src/daisy_core.h **** 
 6530              		.loc 23 269 15 is_stmt 1 view .LVU1545
 269:../../libDaisy//src/daisy_core.h **** 
 6531              		.loc 23 269 15 is_stmt 0 view .LVU1546
 6532              	.LBE2654:
 6533              	.LBB2655:
 6534              	.LBI2655:
 269:../../libDaisy//src/daisy_core.h **** 
 6535              		.loc 23 269 15 is_stmt 1 view .LVU1547
 6536              	.LBB2656:
 6537              	.LBB2657:
 269:../../libDaisy//src/daisy_core.h **** 
 6538              		.loc 23 269 74 is_stmt 0 view .LVU1548
 6539 00d2 314B     		ldr	r3, .L131+128
 6540 00d4 A3F800C0 		strh	ip, [r3]	@ movhi
 6541              	.LVL309:
 269:../../libDaisy//src/daisy_core.h **** 
 6542              		.loc 23 269 74 view .LVU1549
 6543              	.LBE2657:
 6544              	.LBE2656:
 6545              	.LBE2655:
 6546              	.LBB2658:
 6547              	.LBI2658:
 269:../../libDaisy//src/daisy_core.h **** 
 6548              		.loc 23 269 15 is_stmt 1 view .LVU1550
 6549              	.LBB2659:
 6550              	.LBB2660:
 269:../../libDaisy//src/daisy_core.h **** 
 6551              		.loc 23 269 74 is_stmt 0 view .LVU1551
 6552 00d8 304B     		ldr	r3, .L131+132
 6553 00da 1880     		strh	r0, [r3]	@ movhi
 6554              	.LVL310:
 269:../../libDaisy//src/daisy_core.h **** 
 6555              		.loc 23 269 74 view .LVU1552
 6556              	.LBE2660:
 6557              	.LBE2659:
 6558              	.LBE2658:
 6559              	.LBB2661:
 6560              	.LBI2661:
  41:../../libDaisy//src/hid/switch.h ****     ~Switch() {}
ARM GAS  /var/folders/hl/qgbwny5j0fd895c2c41bk3tw0000gp/T//ccEG44Zu.s 			page 197


 6561              		.loc 1 41 5 is_stmt 1 view .LVU1553
  41:../../libDaisy//src/hid/switch.h ****     ~Switch() {}
 6562              		.loc 1 41 5 is_stmt 0 view .LVU1554
 6563              	.LBE2661:
  48:daisy_bed.h   **** 
 6564              		.loc 14 48 17 view .LVU1555
 6565 00dc 3048     		ldr	r0, .L131+136
 6566 00de FFF7FEFF 		bl	__aeabi_atexit
 6567              	.LVL311:
 6568              	.LBB2662:
 6569              	.LBI2662:
  41:../../libDaisy//src/hid/switch.h ****     ~Switch() {}
 6570              		.loc 1 41 5 is_stmt 1 view .LVU1556
  41:../../libDaisy//src/hid/switch.h ****     ~Switch() {}
 6571              		.loc 1 41 5 is_stmt 0 view .LVU1557
 6572              	.LBE2662:
  48:daisy_bed.h   **** 
 6573              		.loc 14 48 20 view .LVU1558
 6574 00e2 2B4A     		ldr	r2, .L131+120
 6575 00e4 2849     		ldr	r1, .L131+112
 6576 00e6 2F48     		ldr	r0, .L131+140
 6577 00e8 FFF7FEFF 		bl	__aeabi_atexit
 6578              	.LVL312:
 6579              	.LBB2663:
 6580              	.LBI2663:
  64:../../libDaisy//src/daisy_patch_sm.h ****         ~DaisyPatchSM() {}
 6581              		.loc 2 64 9 is_stmt 1 view .LVU1559
 6582              	.LBB2664:
 6583              	.LBB2665:
 6584              	.LBI2665:
  77:../../libDaisy//src/sys/system.h ****     ~System() {}
 6585              		.loc 8 77 5 view .LVU1560
  77:../../libDaisy//src/sys/system.h ****     ~System() {}
 6586              		.loc 8 77 5 is_stmt 0 view .LVU1561
 6587              	.LBE2665:
 6588              	.LBB2666:
 6589              	.LBI2666:
 6590              		.file 24 "../../libDaisy//src/per/qspi.h"
   1:../../libDaisy//src/per/qspi.h **** #ifndef DSY_QSPI
   2:../../libDaisy//src/per/qspi.h **** #define DSY_QSPI /**< Macro */
   3:../../libDaisy//src/per/qspi.h **** 
   4:../../libDaisy//src/per/qspi.h **** #ifndef UNIT_TEST // for unit tests, a dummy implementation
   5:../../libDaisy//src/per/qspi.h **** 
   6:../../libDaisy//src/per/qspi.h **** #include <cstdint>
   7:../../libDaisy//src/per/qspi.h **** #include "daisy_core.h" // Added for dsy_gpio_pin typedef
   8:../../libDaisy//src/per/qspi.h **** 
   9:../../libDaisy//src/per/qspi.h **** #define DSY_QSPI_TEXT       \
  10:../../libDaisy//src/per/qspi.h ****     __attribute__((section( \
  11:../../libDaisy//src/per/qspi.h ****         ".qspiflash_text"))) /**< used for reading memory in memory_mapped mode. */
  12:../../libDaisy//src/per/qspi.h **** #define DSY_QSPI_DATA       \
  13:../../libDaisy//src/per/qspi.h ****     __attribute__((section( \
  14:../../libDaisy//src/per/qspi.h ****         ".qspiflash_data"))) /**< used for reading memory in memory_mapped mode. */
  15:../../libDaisy//src/per/qspi.h **** #define DSY_QSPI_BSS        \
  16:../../libDaisy//src/per/qspi.h ****     __attribute__((section( \
  17:../../libDaisy//src/per/qspi.h ****         ".qspiflash_bss"))) /**< used for reading memory in memory_mapped mode. */
  18:../../libDaisy//src/per/qspi.h **** 
  19:../../libDaisy//src/per/qspi.h **** namespace daisy
ARM GAS  /var/folders/hl/qgbwny5j0fd895c2c41bk3tw0000gp/T//ccEG44Zu.s 			page 198


  20:../../libDaisy//src/per/qspi.h **** {
  21:../../libDaisy//src/per/qspi.h **** /** @addtogroup serial
  22:../../libDaisy//src/per/qspi.h **** @{
  23:../../libDaisy//src/per/qspi.h **** */
  24:../../libDaisy//src/per/qspi.h **** 
  25:../../libDaisy//src/per/qspi.h **** /** 
  26:../../libDaisy//src/per/qspi.h ****  Driver for QSPI peripheral to interface with external flash memory. \n 
  27:../../libDaisy//src/per/qspi.h ****     Currently supported QSPI Devices: \n 
  28:../../libDaisy//src/per/qspi.h ****     * IS25LP080D
  29:../../libDaisy//src/per/qspi.h **** */
  30:../../libDaisy//src/per/qspi.h **** class QSPIHandle
  31:../../libDaisy//src/per/qspi.h **** {
  32:../../libDaisy//src/per/qspi.h ****   public:
  33:../../libDaisy//src/per/qspi.h ****     enum Result
  34:../../libDaisy//src/per/qspi.h ****     {
  35:../../libDaisy//src/per/qspi.h ****         OK = 0,
  36:../../libDaisy//src/per/qspi.h ****         ERR
  37:../../libDaisy//src/per/qspi.h ****     };
  38:../../libDaisy//src/per/qspi.h **** 
  39:../../libDaisy//src/per/qspi.h ****     /** Indicates the current status of the module. 
  40:../../libDaisy//src/per/qspi.h ****          *  Warnings are indicated by a leading W.
  41:../../libDaisy//src/per/qspi.h ****          *  Errors are indicated by a leading E and cause an immediate exit.
  42:../../libDaisy//src/per/qspi.h ****          * 
  43:../../libDaisy//src/per/qspi.h ****          *  \param GOOD - No errors have been reported.
  44:../../libDaisy//src/per/qspi.h ****          *  \param E_HAL_ERROR - HAL code did not return HAL_OK.
  45:../../libDaisy//src/per/qspi.h ****          *  \param E_SWITCHING_MODES - An error was encountered while switching QSPI peripheral mod
  46:../../libDaisy//src/per/qspi.h ****          *  \param E_INVALID_MODE - QSPI should not be written to while the program is executing fr
  47:../../libDaisy//src/per/qspi.h ****          */
  48:../../libDaisy//src/per/qspi.h ****     enum Status
  49:../../libDaisy//src/per/qspi.h ****     {
  50:../../libDaisy//src/per/qspi.h ****         GOOD = 0,
  51:../../libDaisy//src/per/qspi.h ****         E_HAL_ERROR,
  52:../../libDaisy//src/per/qspi.h ****         E_SWITCHING_MODES,
  53:../../libDaisy//src/per/qspi.h ****         E_INVALID_MODE,
  54:../../libDaisy//src/per/qspi.h ****     };
  55:../../libDaisy//src/per/qspi.h **** 
  56:../../libDaisy//src/per/qspi.h ****     /** Configuration structure for interfacing with QSPI Driver */
  57:../../libDaisy//src/per/qspi.h ****     struct Config
  58:../../libDaisy//src/per/qspi.h ****     {
  59:../../libDaisy//src/per/qspi.h ****         /** Flash Devices supported. (Both of these are more-or-less the same, just different sizes
  60:../../libDaisy//src/per/qspi.h ****         enum Device
  61:../../libDaisy//src/per/qspi.h ****         {
  62:../../libDaisy//src/per/qspi.h ****             IS25LP080D,  /**< & */
  63:../../libDaisy//src/per/qspi.h ****             IS25LP064A,  /**< & */
  64:../../libDaisy//src/per/qspi.h ****             DEVICE_LAST, /**< & */
  65:../../libDaisy//src/per/qspi.h ****         };
  66:../../libDaisy//src/per/qspi.h **** 
  67:../../libDaisy//src/per/qspi.h ****         /** 
  68:../../libDaisy//src/per/qspi.h ****         Modes of operation.
  69:../../libDaisy//src/per/qspi.h ****         Memory Mapped mode: QSPI configured so that the QSPI can be
  70:../../libDaisy//src/per/qspi.h ****         read from starting address 0x90000000. Writing is not
  71:../../libDaisy//src/per/qspi.h ****         possible in this mode. \n 
  72:../../libDaisy//src/per/qspi.h ****         Indirect Polling mode: Device driver enabled. 
  73:../../libDaisy//src/per/qspi.h ****         */
  74:../../libDaisy//src/per/qspi.h ****         enum Mode
  75:../../libDaisy//src/per/qspi.h ****         {
  76:../../libDaisy//src/per/qspi.h ****             MEMORY_MAPPED,    /**< & */
ARM GAS  /var/folders/hl/qgbwny5j0fd895c2c41bk3tw0000gp/T//ccEG44Zu.s 			page 199


  77:../../libDaisy//src/per/qspi.h ****             INDIRECT_POLLING, /**< & */
  78:../../libDaisy//src/per/qspi.h ****             MODE_LAST,
  79:../../libDaisy//src/per/qspi.h ****         };
  80:../../libDaisy//src/per/qspi.h **** 
  81:../../libDaisy//src/per/qspi.h ****         //SCK,  CE# (active low)
  82:../../libDaisy//src/per/qspi.h ****         struct
  83:../../libDaisy//src/per/qspi.h ****         {
  84:../../libDaisy//src/per/qspi.h ****             dsy_gpio_pin io0; /**< & */
  85:../../libDaisy//src/per/qspi.h ****             dsy_gpio_pin io1; /**< & */
  86:../../libDaisy//src/per/qspi.h ****             dsy_gpio_pin io2; /**< & */
  87:../../libDaisy//src/per/qspi.h ****             dsy_gpio_pin io3; /**< & */
  88:../../libDaisy//src/per/qspi.h ****             dsy_gpio_pin clk; /**< & */
  89:../../libDaisy//src/per/qspi.h ****             dsy_gpio_pin ncs; /**< & */
  90:../../libDaisy//src/per/qspi.h ****         } pin_config;
  91:../../libDaisy//src/per/qspi.h **** 
  92:../../libDaisy//src/per/qspi.h ****         Device device;
  93:../../libDaisy//src/per/qspi.h ****         Mode   mode;
  94:../../libDaisy//src/per/qspi.h ****     };
  95:../../libDaisy//src/per/qspi.h **** 
  96:../../libDaisy//src/per/qspi.h ****     /** 
  97:../../libDaisy//src/per/qspi.h ****         Initializes QSPI peripheral, and Resets, and prepares memory for access.
  98:../../libDaisy//src/per/qspi.h ****         \param config should be populated with the mode, device and pin_config before calling this 
  99:../../libDaisy//src/per/qspi.h ****         \return Result::OK or Result::ERR
 100:../../libDaisy//src/per/qspi.h ****         */
 101:../../libDaisy//src/per/qspi.h ****     Result Init(const Config& config);
 102:../../libDaisy//src/per/qspi.h **** 
 103:../../libDaisy//src/per/qspi.h ****     /** Returns the current config. */
 104:../../libDaisy//src/per/qspi.h ****     const Config& GetConfig() const;
 105:../../libDaisy//src/per/qspi.h **** 
 106:../../libDaisy//src/per/qspi.h ****     // Couldn't this just be called before anything else in init? That
 107:../../libDaisy//src/per/qspi.h ****     // would make manually calling it unnecessary.
 108:../../libDaisy//src/per/qspi.h ****     /** 
 109:../../libDaisy//src/per/qspi.h ****         Deinitializes the peripheral
 110:../../libDaisy//src/per/qspi.h ****         This should be called before reinitializing QSPI in a different mode.
 111:../../libDaisy//src/per/qspi.h ****         \return Result::OK or Result::ERR
 112:../../libDaisy//src/per/qspi.h ****         */
 113:../../libDaisy//src/per/qspi.h ****     Result DeInit();
 114:../../libDaisy//src/per/qspi.h **** 
 115:../../libDaisy//src/per/qspi.h ****     /** 
 116:../../libDaisy//src/per/qspi.h ****         Writes a single page to to the specified address on the QSPI chip.
 117:../../libDaisy//src/per/qspi.h ****         For IS25LP*, page size is 256 bytes.
 118:../../libDaisy//src/per/qspi.h ****         \param address Address to write to
 119:../../libDaisy//src/per/qspi.h ****         \param size Buffer size
 120:../../libDaisy//src/per/qspi.h ****         \param buffer Buffer to write
 121:../../libDaisy//src/per/qspi.h ****         \return Result::OK or Result::ERR
 122:../../libDaisy//src/per/qspi.h ****         */
 123:../../libDaisy//src/per/qspi.h ****     Result WritePage(uint32_t address, uint32_t size, uint8_t* buffer);
 124:../../libDaisy//src/per/qspi.h **** 
 125:../../libDaisy//src/per/qspi.h ****     /** 
 126:../../libDaisy//src/per/qspi.h ****         Writes data in buffer to to the QSPI. Starting at address to address+size 
 127:../../libDaisy//src/per/qspi.h ****         \param address Address to write to
 128:../../libDaisy//src/per/qspi.h ****         \param size Buffer size
 129:../../libDaisy//src/per/qspi.h ****         \param buffer Buffer to write
 130:../../libDaisy//src/per/qspi.h ****         \return Result::OK or Result::ERR
 131:../../libDaisy//src/per/qspi.h ****         */
 132:../../libDaisy//src/per/qspi.h ****     Result Write(uint32_t address, uint32_t size, uint8_t* buffer);
 133:../../libDaisy//src/per/qspi.h **** 
ARM GAS  /var/folders/hl/qgbwny5j0fd895c2c41bk3tw0000gp/T//ccEG44Zu.s 			page 200


 134:../../libDaisy//src/per/qspi.h ****     /** 
 135:../../libDaisy//src/per/qspi.h ****         Erases the area specified on the chip.
 136:../../libDaisy//src/per/qspi.h ****         Erasures will happen by 4K, 32K or 64K increments.
 137:../../libDaisy//src/per/qspi.h ****         Smallest erase possible is 4kB at a time. (on IS25LP*)
 138:../../libDaisy//src/per/qspi.h ****         \param start_addr Address to begin erasing from
 139:../../libDaisy//src/per/qspi.h ****         \param end_addr  Address to stop erasing at
 140:../../libDaisy//src/per/qspi.h ****         \return Result::OK or Result::ERR
 141:../../libDaisy//src/per/qspi.h ****         */
 142:../../libDaisy//src/per/qspi.h ****     Result Erase(uint32_t start_addr, uint32_t end_addr);
 143:../../libDaisy//src/per/qspi.h **** 
 144:../../libDaisy//src/per/qspi.h ****     /**  
 145:../../libDaisy//src/per/qspi.h ****          Erases a single sector of the chip.  
 146:../../libDaisy//src/per/qspi.h ****         TODO: Document the size of this function. 
 147:../../libDaisy//src/per/qspi.h ****         \param address Address of sector to erase
 148:../../libDaisy//src/per/qspi.h ****         \return Result::OK or Result::ERR
 149:../../libDaisy//src/per/qspi.h ****         */
 150:../../libDaisy//src/per/qspi.h ****     Result EraseSector(uint32_t address);
 151:../../libDaisy//src/per/qspi.h **** 
 152:../../libDaisy//src/per/qspi.h ****     /** Returns the current class status. Useful for debugging.
 153:../../libDaisy//src/per/qspi.h ****      *  \returns Status
 154:../../libDaisy//src/per/qspi.h ****      */
 155:../../libDaisy//src/per/qspi.h ****     Status GetStatus();
 156:../../libDaisy//src/per/qspi.h **** 
 157:../../libDaisy//src/per/qspi.h ****     /** Returns a pointer to the actual memory used 
 158:../../libDaisy//src/per/qspi.h ****      *  The memory at this address is read-only
 159:../../libDaisy//src/per/qspi.h ****      *  to write to it use the Write function.
 160:../../libDaisy//src/per/qspi.h ****      * 
 161:../../libDaisy//src/per/qspi.h ****      *  \param offset returns the pointer starting this 
 162:../../libDaisy//src/per/qspi.h ****      *                many bytes into the memory
 163:../../libDaisy//src/per/qspi.h ****     */
 164:../../libDaisy//src/per/qspi.h ****     void* GetData(uint32_t offset = 0);
 165:../../libDaisy//src/per/qspi.h **** 
 166:../../libDaisy//src/per/qspi.h ****     QSPIHandle() : pimpl_(nullptr) {}
 6591              		.loc 24 166 5 is_stmt 1 view .LVU1562
 6592              	.LBB2667:
 6593              	.LBB2668:
 6594              		.loc 24 166 34 is_stmt 0 view .LVU1563
 6595 00ec 2E48     		ldr	r0, .L131+144
 6596              	.LBE2668:
 6597              	.LBE2667:
 6598              	.LBE2666:
 6599              	.LBE2664:
 6600              	.LBE2663:
  13:Interesting.cpp **** InterestingProcessor<MAX_SIZE> DSY_SDRAM_BSS proc;
 6601              		.loc 17 13 14 view .LVU1564
 6602 00ee 2F49     		ldr	r1, .L131+148
 6603 00f0 274A     		ldr	r2, .L131+120
 6604              	.LBB2690:
 6605              	.LBB2688:
 6606              	.LBB2669:
 6607              	.LBB2670:
 6608              	.LBB2671:
 6609              	.LBB2672:
 6610              	.LBB2673:
 6611              		.file 25 "../../libDaisy//src/per/i2c.h"
   1:../../libDaisy//src/per/i2c.h **** #pragma once
   2:../../libDaisy//src/per/i2c.h **** #include "daisy_core.h"
ARM GAS  /var/folders/hl/qgbwny5j0fd895c2c41bk3tw0000gp/T//ccEG44Zu.s 			page 201


   3:../../libDaisy//src/per/i2c.h **** 
   4:../../libDaisy//src/per/i2c.h **** namespace daisy
   5:../../libDaisy//src/per/i2c.h **** {
   6:../../libDaisy//src/per/i2c.h **** /** A handle for interacting with an I2C peripheral. This is a dumb
   7:../../libDaisy//src/per/i2c.h ****  *  gateway that internally points to one of the four I2C peripherals
   8:../../libDaisy//src/per/i2c.h ****  *  after it was initialised. It can then be copied and passed around.
   9:../../libDaisy//src/per/i2c.h ****  *  Use an I2CHandle like this:
  10:../../libDaisy//src/per/i2c.h ****  *  
  11:../../libDaisy//src/per/i2c.h ****  *      // setup the configuration
  12:../../libDaisy//src/per/i2c.h ****  *      I2CHandle::Config i2c_conf;
  13:../../libDaisy//src/per/i2c.h ****  *      i2c_conf.periph = I2CHandle::Config::Peripheral::I2C_1;
  14:../../libDaisy//src/per/i2c.h ****  *      i2c_conf.speed  = I2CHandle::Config::Speed::I2C_400KHZ;
  15:../../libDaisy//src/per/i2c.h ****  *      i2c_conf.mode   = I2CHandle::Config::Mode::Master;
  16:../../libDaisy//src/per/i2c.h ****  *      i2c_conf.pin_config.scl  = {DSY_GPIOB, 8};
  17:../../libDaisy//src/per/i2c.h ****  *      i2c_conf.pin_config.sda  = {DSY_GPIOB, 9};
  18:../../libDaisy//src/per/i2c.h ****  *      // initialise the peripheral
  19:../../libDaisy//src/per/i2c.h ****  *      I2CHandle i2c;
  20:../../libDaisy//src/per/i2c.h ****  *      i2c.Init(i2c_conf);
  21:../../libDaisy//src/per/i2c.h ****  *      // now i2c points to the corresponding peripheral and can be used.
  22:../../libDaisy//src/per/i2c.h ****  *      i2c.TransmitBlocking( ... );
  23:../../libDaisy//src/per/i2c.h ****  */
  24:../../libDaisy//src/per/i2c.h **** class I2CHandle
  25:../../libDaisy//src/per/i2c.h **** {
  26:../../libDaisy//src/per/i2c.h ****   public:
  27:../../libDaisy//src/per/i2c.h ****     /** Contains settings for initialising an I2C interface. */
  28:../../libDaisy//src/per/i2c.h ****     struct Config
  29:../../libDaisy//src/per/i2c.h ****     {
  30:../../libDaisy//src/per/i2c.h ****         /** Specifies whether the interface will operate in master or slave mode. */
  31:../../libDaisy//src/per/i2c.h ****         enum class Mode
  32:../../libDaisy//src/per/i2c.h ****         {
  33:../../libDaisy//src/per/i2c.h ****             I2C_MASTER,
  34:../../libDaisy//src/per/i2c.h ****             I2C_SLAVE,
  35:../../libDaisy//src/per/i2c.h ****         };
  36:../../libDaisy//src/per/i2c.h **** 
  37:../../libDaisy//src/per/i2c.h ****         /** Specifices the internal peripheral to use (these are mapped to different pins on the ha
  38:../../libDaisy//src/per/i2c.h ****         enum class Peripheral
  39:../../libDaisy//src/per/i2c.h ****         {
  40:../../libDaisy//src/per/i2c.h ****             I2C_1 = 0, /**< & */
  41:../../libDaisy//src/per/i2c.h ****             I2C_2,     /**< & */
  42:../../libDaisy//src/per/i2c.h ****             I2C_3,     /**< & */
  43:../../libDaisy//src/per/i2c.h ****             I2C_4,     /**< & */
  44:../../libDaisy//src/per/i2c.h ****         };
  45:../../libDaisy//src/per/i2c.h **** 
  46:../../libDaisy//src/per/i2c.h ****         /** Rate at which the clock/data will be sent/received. The device being used will have max
  47:../../libDaisy//src/per/i2c.h ****          *  1MHZ Mode is currently 886kHz
  48:../../libDaisy//src/per/i2c.h ****          */
  49:../../libDaisy//src/per/i2c.h ****         enum class Speed
  50:../../libDaisy//src/per/i2c.h ****         {
  51:../../libDaisy//src/per/i2c.h ****             I2C_100KHZ, /**< & */
  52:../../libDaisy//src/per/i2c.h ****             I2C_400KHZ, /**< & */
  53:../../libDaisy//src/per/i2c.h ****             I2C_1MHZ,   /**< & */
  54:../../libDaisy//src/per/i2c.h ****         };
  55:../../libDaisy//src/per/i2c.h **** 
  56:../../libDaisy//src/per/i2c.h ****         Peripheral periph; /**< & */
  57:../../libDaisy//src/per/i2c.h ****         struct
  58:../../libDaisy//src/per/i2c.h ****         {
  59:../../libDaisy//src/per/i2c.h ****             dsy_gpio_pin scl; /**< & */
ARM GAS  /var/folders/hl/qgbwny5j0fd895c2c41bk3tw0000gp/T//ccEG44Zu.s 			page 202


  60:../../libDaisy//src/per/i2c.h ****             dsy_gpio_pin sda; /**< & */
  61:../../libDaisy//src/per/i2c.h ****         } pin_config;         /**< & */
  62:../../libDaisy//src/per/i2c.h **** 
  63:../../libDaisy//src/per/i2c.h ****         Speed speed; /**< & */
  64:../../libDaisy//src/per/i2c.h ****         Mode  mode;  /**< & */
  65:../../libDaisy//src/per/i2c.h ****         // 0x10 is chosen as a default to avoid conflicts with reserved addresses
  66:../../libDaisy//src/per/i2c.h ****         uint8_t address = 0x10; /**< & */
  67:../../libDaisy//src/per/i2c.h ****     };
  68:../../libDaisy//src/per/i2c.h **** 
  69:../../libDaisy//src/per/i2c.h ****     /** Return values for I2C functions. */
  70:../../libDaisy//src/per/i2c.h ****     enum class Result
  71:../../libDaisy//src/per/i2c.h ****     {
  72:../../libDaisy//src/per/i2c.h ****         OK, /**< & */
  73:../../libDaisy//src/per/i2c.h ****         ERR /**< & */
  74:../../libDaisy//src/per/i2c.h ****     };
  75:../../libDaisy//src/per/i2c.h **** 
  76:../../libDaisy//src/per/i2c.h ****     enum class Direction
  77:../../libDaisy//src/per/i2c.h ****     {
  78:../../libDaisy//src/per/i2c.h ****         TRANSMIT, /**< & */
  79:../../libDaisy//src/per/i2c.h ****         RECEIVE,  /**< & */
  80:../../libDaisy//src/per/i2c.h ****     };
  81:../../libDaisy//src/per/i2c.h **** 
  82:../../libDaisy//src/per/i2c.h ****     I2CHandle() : pimpl_(nullptr) {}
 6612              		.loc 25 82 33 view .LVU1565
 6613 00f2 0462     		str	r4, [r0, #32]
 6614              	.LBE2673:
 6615              	.LBE2672:
 6616              	.LBE2671:
 6617              	.LBE2670:
 6618              	.LBE2669:
 6619              	.LBB2676:
 6620              	.LBB2677:
 6621              	.LBB2678:
 6622              		.file 26 "../../libDaisy//src/per/dac.h"
   1:../../libDaisy//src/per/dac.h **** #pragma once
   2:../../libDaisy//src/per/dac.h **** #ifndef DSY_DAC_H
   3:../../libDaisy//src/per/dac.h **** #define DSY_DAC_H
   4:../../libDaisy//src/per/dac.h **** 
   5:../../libDaisy//src/per/dac.h **** #include "daisy_core.h"
   6:../../libDaisy//src/per/dac.h **** 
   7:../../libDaisy//src/per/dac.h **** namespace daisy
   8:../../libDaisy//src/per/dac.h **** {
   9:../../libDaisy//src/per/dac.h **** /** @brief DAC handle for Built-in DAC Peripheral 
  10:../../libDaisy//src/per/dac.h ****  *  @ingroup per_analog
  11:../../libDaisy//src/per/dac.h ****  ** 
  12:../../libDaisy//src/per/dac.h ****  ** For now only Normal Mode is supported,
  13:../../libDaisy//src/per/dac.h ****  ** Sample and hold mode provides reduced power consumption, but requires a bit more setup.
  14:../../libDaisy//src/per/dac.h ****  **
  15:../../libDaisy//src/per/dac.h ****  ** For now connecting the DAC through other internal peripherals is also not supported.
  16:../../libDaisy//src/per/dac.h ****  **
  17:../../libDaisy//src/per/dac.h ****  ** Since the DAC channels have dedicated pins we don't need to pass in a pin config like with
  18:../../libDaisy//src/per/dac.h ****  ** other modules. However, it is still important to not try to use the DAC pins for anything else.
  19:../../libDaisy//src/per/dac.h ****  ** DAC Channel 1 is on PA4, and DAC Channel 2 is on PA5
  20:../../libDaisy//src/per/dac.h ****  ***/
  21:../../libDaisy//src/per/dac.h **** class DacHandle
  22:../../libDaisy//src/per/dac.h **** {
  23:../../libDaisy//src/per/dac.h ****   public:
ARM GAS  /var/folders/hl/qgbwny5j0fd895c2c41bk3tw0000gp/T//ccEG44Zu.s 			page 203


  24:../../libDaisy//src/per/dac.h ****     /** Return Values for the DacHandle class */
  25:../../libDaisy//src/per/dac.h ****     enum class Result
  26:../../libDaisy//src/per/dac.h ****     {
  27:../../libDaisy//src/per/dac.h ****         OK,
  28:../../libDaisy//src/per/dac.h ****         ERR,
  29:../../libDaisy//src/per/dac.h ****     };
  30:../../libDaisy//src/per/dac.h **** 
  31:../../libDaisy//src/per/dac.h ****     /** Selects which channel(s) will be configured for use. */
  32:../../libDaisy//src/per/dac.h ****     enum class Channel
  33:../../libDaisy//src/per/dac.h ****     {
  34:../../libDaisy//src/per/dac.h ****         ONE,
  35:../../libDaisy//src/per/dac.h ****         TWO,
  36:../../libDaisy//src/per/dac.h ****         BOTH,
  37:../../libDaisy//src/per/dac.h ****     };
  38:../../libDaisy//src/per/dac.h **** 
  39:../../libDaisy//src/per/dac.h ****     /** Sets the Mode for the DAC channels.
  40:../../libDaisy//src/per/dac.h ****      **
  41:../../libDaisy//src/per/dac.h ****      ** Polling mode uses the blocking mode to transmit a single value at a time.
  42:../../libDaisy//src/per/dac.h ****      **
  43:../../libDaisy//src/per/dac.h ****      ** DMA mode uses a buffer, and periodically transmits it triggering a 
  44:../../libDaisy//src/per/dac.h ****      ** callback to fill the buffer when it is ready for more samples.
  45:../../libDaisy//src/per/dac.h ****      ***/
  46:../../libDaisy//src/per/dac.h ****     enum class Mode
  47:../../libDaisy//src/per/dac.h ****     {
  48:../../libDaisy//src/per/dac.h ****         POLLING,
  49:../../libDaisy//src/per/dac.h ****         DMA,
  50:../../libDaisy//src/per/dac.h ****     };
  51:../../libDaisy//src/per/dac.h **** 
  52:../../libDaisy//src/per/dac.h ****     /** Sets the number of bits per sample transmitted out of the DAC.
  53:../../libDaisy//src/per/dac.h ****      ** The output range will be: 0V - VDDA
  54:../../libDaisy//src/per/dac.h ****      ** The resolution will be roughly: bitdepth / (VDDA - 0V) 
  55:../../libDaisy//src/per/dac.h ****      ***/
  56:../../libDaisy//src/per/dac.h ****     enum class BitDepth
  57:../../libDaisy//src/per/dac.h ****     {
  58:../../libDaisy//src/per/dac.h ****         BITS_8,
  59:../../libDaisy//src/per/dac.h ****         BITS_12
  60:../../libDaisy//src/per/dac.h ****     };
  61:../../libDaisy//src/per/dac.h **** 
  62:../../libDaisy//src/per/dac.h ****     /** Sets whether the DAC output is buffered for higher drive ability. */
  63:../../libDaisy//src/per/dac.h ****     enum class BufferState
  64:../../libDaisy//src/per/dac.h ****     {
  65:../../libDaisy//src/per/dac.h ****         ENABLED,
  66:../../libDaisy//src/per/dac.h ****         DISABLED,
  67:../../libDaisy//src/per/dac.h ****     };
  68:../../libDaisy//src/per/dac.h **** 
  69:../../libDaisy//src/per/dac.h ****     /** Configuration structure for initializing the DAC structure. */
  70:../../libDaisy//src/per/dac.h ****     struct Config
  71:../../libDaisy//src/per/dac.h ****     {
  72:../../libDaisy//src/per/dac.h ****         /** Target Samplerate in Hz used to configure the internal 
  73:../../libDaisy//src/per/dac.h ****          ** timebase for DMA mode. Does nothing in POLLING mode.
  74:../../libDaisy//src/per/dac.h ****          ** If the value is 0 at Init time this will default to 48000Hz 
  75:../../libDaisy//src/per/dac.h ****          ** otherwise the driver will attempt meet the target.*/
  76:../../libDaisy//src/per/dac.h ****         uint32_t target_samplerate;
  77:../../libDaisy//src/per/dac.h **** 
  78:../../libDaisy//src/per/dac.h ****         Channel     chn;
  79:../../libDaisy//src/per/dac.h ****         Mode        mode;
  80:../../libDaisy//src/per/dac.h ****         BitDepth    bitdepth;
ARM GAS  /var/folders/hl/qgbwny5j0fd895c2c41bk3tw0000gp/T//ccEG44Zu.s 			page 204


  81:../../libDaisy//src/per/dac.h ****         BufferState buff_state;
  82:../../libDaisy//src/per/dac.h ****     };
  83:../../libDaisy//src/per/dac.h **** 
  84:../../libDaisy//src/per/dac.h ****     DacHandle() : pimpl_(nullptr) {}
 6623              		.loc 26 84 33 view .LVU1566
 6624 00f4 8462     		str	r4, [r0, #40]
 6625              	.LBE2678:
 6626              	.LBE2677:
 6627              	.LBE2676:
 6628              	.LBB2679:
 6629              	.LBB2680:
 6630              	.LBB2681:
  95:../../libDaisy//src/hid/audio.h ****     ~AudioHandle() {}
 6631              		.loc 7 95 35 view .LVU1567
 6632 00f6 C0E90344 		strd	r4, r4, [r0, #12]
 6633              	.LVL313:
  95:../../libDaisy//src/hid/audio.h ****     ~AudioHandle() {}
 6634              		.loc 7 95 35 view .LVU1568
 6635              	.LBE2681:
 6636              	.LBE2680:
 6637              	.LBE2679:
 6638              	.LBB2682:
 6639              	.LBI2682:
  92:../../libDaisy//src/per/adc.h ****     ~AdcHandle() {}
 6640              		.loc 6 92 5 is_stmt 1 view .LVU1569
  92:../../libDaisy//src/per/adc.h ****     ~AdcHandle() {}
 6641              		.loc 6 92 5 is_stmt 0 view .LVU1570
 6642              	.LBE2682:
 6643              	.LBB2683:
 6644              	.LBI2683:
  40:../../libDaisy//src/hid/usb.h **** 
 6645              		.loc 5 40 5 is_stmt 1 view .LVU1571
  40:../../libDaisy//src/hid/usb.h **** 
 6646              		.loc 5 40 5 is_stmt 0 view .LVU1572
 6647              	.LBE2683:
 6648              	.LBB2684:
 6649              	.LBI2669:
  28:../../libDaisy//src/dev/codec_pcm3060.h ****     ~Pcm3060() {}
 6650              		.loc 4 28 5 is_stmt 1 view .LVU1573
 6651              	.LBB2675:
 6652              	.LBB2674:
 6653              	.LBI2671:
 6654              		.loc 25 82 5 view .LVU1574
 6655              		.loc 25 82 5 is_stmt 0 view .LVU1575
 6656              	.LBE2674:
 6657              	.LBE2675:
 6658              	.LBE2684:
 6659              	.LBB2685:
 6660              	.LBI2676:
 6661              		.loc 26 84 5 is_stmt 1 view .LVU1576
 6662              		.loc 26 84 5 is_stmt 0 view .LVU1577
 6663              	.LBE2685:
 6664              	.LBE2688:
 6665              	.LBE2690:
 6666              	.LBE2699:
 6667              	.LBE2704:
  64:../../libDaisy//src/daisy_patch_sm.h ****         ~DaisyPatchSM() {}
ARM GAS  /var/folders/hl/qgbwny5j0fd895c2c41bk3tw0000gp/T//ccEG44Zu.s 			page 205


 6668              		.loc 2 64 24 is_stmt 1 view .LVU1578
 6669              	.LBB2705:
 6670              	.LBB2700:
 6671              	.LBB2691:
 6672              	.LBB2689:
 6673              	.LBB2686:
 6674              	.LBI2686:
  20:../../libDaisy//src/hid/gatein.h ****     /** GateIn~
 6675              		.loc 3 20 5 view .LVU1579
  20:../../libDaisy//src/hid/gatein.h ****     /** GateIn~
 6676              		.loc 3 20 5 is_stmt 0 view .LVU1580
 6677              	.LBE2686:
 6678              	.LBB2687:
 6679              	.LBI2687:
  20:../../libDaisy//src/hid/gatein.h ****     /** GateIn~
 6680              		.loc 3 20 5 is_stmt 1 view .LVU1581
  20:../../libDaisy//src/hid/gatein.h ****     /** GateIn~
 6681              		.loc 3 20 5 is_stmt 0 view .LVU1582
 6682              	.LBE2687:
 6683              	.LBE2689:
 6684              	.LBE2691:
  13:Interesting.cpp **** InterestingProcessor<MAX_SIZE> DSY_SDRAM_BSS proc;
 6685              		.loc 17 13 14 view .LVU1583
 6686 00fa FFF7FEFF 		bl	__aeabi_atexit
 6687              	.LVL314:
 6688              	.LBB2692:
 6689              	.LBI2692:
  12:processor.h   **** public:
 6690              		.loc 9 12 7 is_stmt 1 view .LVU1584
 6691              	.LBE2692:
 6692              	.LBE2700:
 6693              	.LBE2705:
  12:processor.h   **** public:
 6694              		.loc 9 12 7 view .LVU1585
 6695              	.LBB2706:
 6696              	.LBB2701:
 6697              	.LBB2694:
 6698              	.LBB2693:
 6699              	.LBI2693:
  14:../../DaisySP//Source/Utility/dcblock.h ****     ~DcBlock(){};
 6700              		.loc 10 14 5 view .LVU1586
  14:../../DaisySP//Source/Utility/dcblock.h ****     ~DcBlock(){};
 6701              		.loc 10 14 5 is_stmt 0 view .LVU1587
 6702              	.LBE2693:
 6703              	.LBE2694:
  14:Interesting.cpp **** EffectsHandling effects;
 6704              		.loc 17 14 46 view .LVU1588
 6705 00fe 244A     		ldr	r2, .L131+120
 6706 0100 2B49     		ldr	r1, .L131+152
 6707 0102 2C48     		ldr	r0, .L131+156
 6708 0104 FFF7FEFF 		bl	__aeabi_atexit
 6709              	.LVL315:
 6710              	.LBB2695:
 6711              	.LBI2695:
  13:effects_handling.h **** {
 6712              		.loc 11 13 7 is_stmt 1 view .LVU1589
 6713              	.LBB2696:
ARM GAS  /var/folders/hl/qgbwny5j0fd895c2c41bk3tw0000gp/T//ccEG44Zu.s 			page 206


 6714              	.LBI2696:
  40:../../../mutable-instruments/rings/dsp/fx/reverb.h ****   ~Reverb() { }
 6715              		.loc 12 40 3 view .LVU1590
 6716              	.LBB2697:
 6717              	.LBB2698:
 6718              	.LBI2698:
 104:../../../mutable-instruments/rings/dsp/fx/fx_engine.h ****   ~FxEngine() { }
 6719              		.loc 13 104 3 view .LVU1591
 6720              	.LBE2698:
 6721              	.LBE2697:
 6722              	.LBE2696:
 6723              	.LBE2695:
 6724              	.LBE2701:
 6725              	.LBE2706:
 104:../../../mutable-instruments/rings/dsp/fx/fx_engine.h ****   ~FxEngine() { }
 6726              		.loc 13 104 14 view .LVU1592
 6727              	.LBB2707:
 6728              	.LBB2702:
  15:Interesting.cpp **** CpuLoadMeter loadMeter;
 6729              		.loc 17 15 17 is_stmt 0 view .LVU1593
 6730 0108 214A     		ldr	r2, .L131+120
 6731 010a 2B49     		ldr	r1, .L131+160
 6732 010c 2B48     		ldr	r0, .L131+164
 6733              	.LBE2702:
 6734              	.LBE2707:
 6735              		.loc 17 121 1 view .LVU1594
 6736 010e BDE83840 		pop	{r3, r4, r5, lr}
 6737              		.cfi_restore 14
 6738              		.cfi_restore 5
 6739              		.cfi_restore 4
 6740              		.cfi_restore 3
 6741              		.cfi_def_cfa_offset 0
 6742              	.LBB2708:
 6743              	.LBB2703:
  15:Interesting.cpp **** CpuLoadMeter loadMeter;
 6744              		.loc 17 15 17 view .LVU1595
 6745 0112 FFF7FEBF 		b	__aeabi_atexit
 6746              	.LVL316:
 6747              	.L132:
 6748 0116 00BF     		.align	2
 6749              	.L131:
 6750 0118 00000000 		.word	.LANCHOR3
 6751 011c 00000000 		.word	.LANCHOR1
 6752 0120 00000000 		.word	.LANCHOR5
 6753 0124 00000000 		.word	.LANCHOR7
 6754 0128 00000000 		.word	.LANCHOR11
 6755 012c 00000000 		.word	.LANCHOR9
 6756 0130 00000000 		.word	.LANCHOR15
 6757 0134 00000000 		.word	.LANCHOR13
 6758 0138 00000000 		.word	_ZN5daisy8patch_sm12DaisyPatchSM2D7E
 6759 013c 00000000 		.word	_ZN5daisy8patch_sm12DaisyPatchSM2A9E
 6760 0140 00000000 		.word	.LANCHOR20
 6761 0144 00000000 		.word	.LANCHOR21
 6762 0148 00000000 		.word	.LANCHOR0
 6763 014c 00000000 		.word	_ZN5daisy8patch_sm12DaisyPatchSM2D1E
 6764 0150 00000000 		.word	_ZN5daisy8patch_sm12DaisyPatchSM2D2E
 6765 0154 00000000 		.word	.LANCHOR2
ARM GAS  /var/folders/hl/qgbwny5j0fd895c2c41bk3tw0000gp/T//ccEG44Zu.s 			page 207


 6766 0158 00000000 		.word	.LANCHOR22
 6767 015c 00000000 		.word	.LANCHOR23
 6768 0160 00000000 		.word	.LANCHOR4
 6769 0164 00000000 		.word	_ZN5daisy8patch_sm12DaisyPatchSM2D3E
 6770 0168 00000000 		.word	_ZN5daisy8patch_sm12DaisyPatchSM2D6E
 6771 016c 00000000 		.word	_ZN5daisy8patch_sm12DaisyPatchSM2D4E
 6772 0170 00000000 		.word	.LANCHOR12
 6773 0174 00000000 		.word	_ZN5daisy8patch_sm12DaisyPatchSM2D5E
 6774 0178 00000000 		.word	.LANCHOR24
 6775 017c 00000000 		.word	.LANCHOR25
 6776 0180 00000000 		.word	.LANCHOR26
 6777 0184 00000000 		.word	.LANCHOR27
 6778 0188 00000000 		.word	_ZN5daisy6SwitchD1Ev
 6779 018c 00000000 		.word	.LANCHOR6
 6780 0190 00000000 		.word	__dso_handle
 6781 0194 00000000 		.word	.LANCHOR8
 6782 0198 00000000 		.word	.LANCHOR10
 6783 019c 00000000 		.word	.LANCHOR14
 6784 01a0 00000000 		.word	.LANCHOR16
 6785 01a4 00000000 		.word	.LANCHOR17
 6786 01a8 00000000 		.word	.LANCHOR18
 6787 01ac 00000000 		.word	_ZN5daisy8patch_sm12DaisyPatchSMD1Ev
 6788 01b0 00000000 		.word	_ZN20InterestingProcessorILj48000EED1Ev
 6789 01b4 00000000 		.word	proc
 6790 01b8 00000000 		.word	_ZN15EffectsHandlingD1Ev
 6791 01bc 00000000 		.word	effects
 6792              	.LBE2703:
 6793              	.LBE2708:
 6794              		.cfi_endproc
 6795              	.LFE6067:
 6797              		.section	.init_array,"aw",%init_array
 6798              		.align	2
 6799 0000 00000000 		.word	_GLOBAL__sub_I__ZN5daisy8patch_sm8gen_led1E(target1)
 6800              		.global	mod
 6801              		.global	loadMeter
 6802              		.global	effects
 6803              		.global	proc
 6804              		.global	hw
 6805              		.global	_ZN5daisy8patch_sm2b2E
 6806              		.global	_ZN5daisy8patch_sm2b1E
 6807              		.global	_ZN5daisy8patch_sm8newPinD5E
 6808              		.global	_ZN5daisy8patch_sm8oldPinD5E
 6809              		.global	_ZN5daisy8patch_sm8newPinD4E
 6810              		.global	_ZN5daisy8patch_sm8oldPinD4E
 6811              		.global	_ZN5daisy8patch_sm8newPinD6E
 6812              		.global	_ZN5daisy8patch_sm8oldPinD6E
 6813              		.global	_ZN5daisy8patch_sm8newPinD3E
 6814              		.global	_ZN5daisy8patch_sm8oldPinD3E
 6815              		.global	_ZN5daisy8patch_sm8newPinD1E
 6816              		.global	_ZN5daisy8patch_sm8oldPinD1E
 6817              		.global	_ZN5daisy8patch_sm8newPinD2E
 6818              		.global	_ZN5daisy8patch_sm8oldPinD2E
 6819              		.global	_ZN5daisy8patch_sm8newPinA9E
 6820              		.global	_ZN5daisy8patch_sm8oldPinA9E
 6821              		.global	_ZN5daisy8patch_sm8newPinD7E
 6822              		.global	_ZN5daisy8patch_sm8oldPinD7E
 6823              		.global	_ZN5daisy8patch_sm13gate_out_led2E
ARM GAS  /var/folders/hl/qgbwny5j0fd895c2c41bk3tw0000gp/T//ccEG44Zu.s 			page 208


 6824              		.global	_ZN5daisy8patch_sm13gate_out_led1E
 6825              		.global	_ZN5daisy8patch_sm12gate_in_led2E
 6826              		.global	_ZN5daisy8patch_sm12gate_in_led1E
 6827              		.global	_ZN5daisy8patch_sm7cv_led2E
 6828              		.global	_ZN5daisy8patch_sm7cv_led1E
 6829              		.global	_ZN5daisy8patch_sm8gen_led2E
 6830              		.global	_ZN5daisy8patch_sm8gen_led1E
 6831              		.section	.bss._ZN5daisy8patch_sm12gate_in_led1E,"aw",%nobits
 6832              		.align	2
 6833              		.set	.LANCHOR9,. + 0
 6836              	_ZN5daisy8patch_sm12gate_in_led1E:
 6837 0000 00000000 		.space	20
 6837      00000000 
 6837      00000000 
 6837      00000000 
 6837      00000000 
 6838              		.section	.bss._ZN5daisy8patch_sm12gate_in_led2E,"aw",%nobits
 6839              		.align	2
 6840              		.set	.LANCHOR11,. + 0
 6843              	_ZN5daisy8patch_sm12gate_in_led2E:
 6844 0000 00000000 		.space	20
 6844      00000000 
 6844      00000000 
 6844      00000000 
 6844      00000000 
 6845              		.section	.bss._ZN5daisy8patch_sm13gate_out_led1E,"aw",%nobits
 6846              		.align	2
 6847              		.set	.LANCHOR13,. + 0
 6850              	_ZN5daisy8patch_sm13gate_out_led1E:
 6851 0000 00000000 		.space	20
 6851      00000000 
 6851      00000000 
 6851      00000000 
 6851      00000000 
 6852              		.section	.bss._ZN5daisy8patch_sm13gate_out_led2E,"aw",%nobits
 6853              		.align	2
 6854              		.set	.LANCHOR15,. + 0
 6857              	_ZN5daisy8patch_sm13gate_out_led2E:
 6858 0000 00000000 		.space	20
 6858      00000000 
 6858      00000000 
 6858      00000000 
 6858      00000000 
 6859              		.section	.bss._ZN5daisy8patch_sm2b1E,"aw",%nobits
 6860              		.align	2
 6861              		.set	.LANCHOR16,. + 0
 6864              	_ZN5daisy8patch_sm2b1E:
 6865 0000 00000000 		.space	16
 6865      00000000 
 6865      00000000 
 6865      00000000 
 6866              		.section	.bss._ZN5daisy8patch_sm2b2E,"aw",%nobits
 6867              		.align	2
 6868              		.set	.LANCHOR17,. + 0
 6871              	_ZN5daisy8patch_sm2b2E:
 6872 0000 00000000 		.space	16
 6872      00000000 
ARM GAS  /var/folders/hl/qgbwny5j0fd895c2c41bk3tw0000gp/T//ccEG44Zu.s 			page 209


 6872      00000000 
 6872      00000000 
 6873              		.section	.bss._ZN5daisy8patch_sm7cv_led1E,"aw",%nobits
 6874              		.align	2
 6875              		.set	.LANCHOR5,. + 0
 6878              	_ZN5daisy8patch_sm7cv_led1E:
 6879 0000 00000000 		.space	20
 6879      00000000 
 6879      00000000 
 6879      00000000 
 6879      00000000 
 6880              		.section	.bss._ZN5daisy8patch_sm7cv_led2E,"aw",%nobits
 6881              		.align	2
 6882              		.set	.LANCHOR7,. + 0
 6885              	_ZN5daisy8patch_sm7cv_led2E:
 6886 0000 00000000 		.space	20
 6886      00000000 
 6886      00000000 
 6886      00000000 
 6886      00000000 
 6887              		.section	.bss._ZN5daisy8patch_sm8gen_led1E,"aw",%nobits
 6888              		.align	2
 6889              		.set	.LANCHOR1,. + 0
 6892              	_ZN5daisy8patch_sm8gen_led1E:
 6893 0000 00000000 		.space	20
 6893      00000000 
 6893      00000000 
 6893      00000000 
 6893      00000000 
 6894              		.section	.bss._ZN5daisy8patch_sm8gen_led2E,"aw",%nobits
 6895              		.align	2
 6896              		.set	.LANCHOR3,. + 0
 6899              	_ZN5daisy8patch_sm8gen_led2E:
 6900 0000 00000000 		.space	20
 6900      00000000 
 6900      00000000 
 6900      00000000 
 6900      00000000 
 6901              		.section	.bss._ZN5daisy8patch_sm8newPinA9E,"aw",%nobits
 6902              		.align	2
 6903              		.set	.LANCHOR2,. + 0
 6906              	_ZN5daisy8patch_sm8newPinA9E:
 6907 0000 0000     		.space	2
 6908              		.section	.bss._ZN5daisy8patch_sm8newPinD1E,"aw",%nobits
 6909              		.align	2
 6910              		.set	.LANCHOR6,. + 0
 6913              	_ZN5daisy8patch_sm8newPinD1E:
 6914 0000 0000     		.space	2
 6915              		.section	.bss._ZN5daisy8patch_sm8newPinD2E,"aw",%nobits
 6916              		.align	2
 6917              		.set	.LANCHOR4,. + 0
 6920              	_ZN5daisy8patch_sm8newPinD2E:
 6921 0000 0000     		.space	2
 6922              		.section	.bss._ZN5daisy8patch_sm8newPinD3E,"aw",%nobits
 6923              		.align	2
 6924              		.set	.LANCHOR8,. + 0
 6927              	_ZN5daisy8patch_sm8newPinD3E:
ARM GAS  /var/folders/hl/qgbwny5j0fd895c2c41bk3tw0000gp/T//ccEG44Zu.s 			page 210


 6928 0000 0000     		.space	2
 6929              		.section	.bss._ZN5daisy8patch_sm8newPinD4E,"aw",%nobits
 6930              		.align	2
 6931              		.set	.LANCHOR10,. + 0
 6934              	_ZN5daisy8patch_sm8newPinD4E:
 6935 0000 0000     		.space	2
 6936              		.section	.bss._ZN5daisy8patch_sm8newPinD5E,"aw",%nobits
 6937              		.align	2
 6938              		.set	.LANCHOR14,. + 0
 6941              	_ZN5daisy8patch_sm8newPinD5E:
 6942 0000 0000     		.space	2
 6943              		.section	.bss._ZN5daisy8patch_sm8newPinD6E,"aw",%nobits
 6944              		.align	2
 6945              		.set	.LANCHOR12,. + 0
 6948              	_ZN5daisy8patch_sm8newPinD6E:
 6949 0000 0000     		.space	2
 6950              		.section	.bss._ZN5daisy8patch_sm8newPinD7E,"aw",%nobits
 6951              		.align	2
 6952              		.set	.LANCHOR0,. + 0
 6955              	_ZN5daisy8patch_sm8newPinD7E:
 6956 0000 0000     		.space	2
 6957              		.section	.bss._ZN5daisy8patch_sm8oldPinA9E,"aw",%nobits
 6958              		.align	2
 6959              		.set	.LANCHOR21,. + 0
 6962              	_ZN5daisy8patch_sm8oldPinA9E:
 6963 0000 0000     		.space	2
 6964              		.section	.bss._ZN5daisy8patch_sm8oldPinD1E,"aw",%nobits
 6965              		.align	2
 6966              		.set	.LANCHOR23,. + 0
 6969              	_ZN5daisy8patch_sm8oldPinD1E:
 6970 0000 0000     		.space	2
 6971              		.section	.bss._ZN5daisy8patch_sm8oldPinD2E,"aw",%nobits
 6972              		.align	2
 6973              		.set	.LANCHOR22,. + 0
 6976              	_ZN5daisy8patch_sm8oldPinD2E:
 6977 0000 0000     		.space	2
 6978              		.section	.bss._ZN5daisy8patch_sm8oldPinD3E,"aw",%nobits
 6979              		.align	2
 6980              		.set	.LANCHOR24,. + 0
 6983              	_ZN5daisy8patch_sm8oldPinD3E:
 6984 0000 0000     		.space	2
 6985              		.section	.bss._ZN5daisy8patch_sm8oldPinD4E,"aw",%nobits
 6986              		.align	2
 6987              		.set	.LANCHOR26,. + 0
 6990              	_ZN5daisy8patch_sm8oldPinD4E:
 6991 0000 0000     		.space	2
 6992              		.section	.bss._ZN5daisy8patch_sm8oldPinD5E,"aw",%nobits
 6993              		.align	2
 6994              		.set	.LANCHOR27,. + 0
 6997              	_ZN5daisy8patch_sm8oldPinD5E:
 6998 0000 0000     		.space	2
 6999              		.section	.bss._ZN5daisy8patch_sm8oldPinD6E,"aw",%nobits
 7000              		.align	2
 7001              		.set	.LANCHOR25,. + 0
 7004              	_ZN5daisy8patch_sm8oldPinD6E:
 7005 0000 0000     		.space	2
 7006              		.section	.bss._ZN5daisy8patch_sm8oldPinD7E,"aw",%nobits
ARM GAS  /var/folders/hl/qgbwny5j0fd895c2c41bk3tw0000gp/T//ccEG44Zu.s 			page 211


 7007              		.align	2
 7008              		.set	.LANCHOR20,. + 0
 7011              	_ZN5daisy8patch_sm8oldPinD7E:
 7012 0000 0000     		.space	2
 7013              		.section	.bss.effects,"aw",%nobits
 7014              		.align	2
 7017              	effects:
 7018 0000 00000000 		.space	131144
 7018      00000000 
 7018      00000000 
 7018      00000000 
 7018      00000000 
 7019              		.section	.bss.hw,"aw",%nobits
 7020              		.align	2
 7021              		.set	.LANCHOR18,. + 0
 7024              	hw:
 7025 0000 00000000 		.space	464
 7025      00000000 
 7025      00000000 
 7025      00000000 
 7025      00000000 
 7026              		.section	.bss.loadMeter,"aw",%nobits
 7027              		.align	2
 7030              	loadMeter:
 7031 0000 00000000 		.space	28
 7031      00000000 
 7031      00000000 
 7031      00000000 
 7031      00000000 
 7032              		.section	.bss.mod,"aw",%nobits
 7033              		.align	2
 7034              		.set	.LANCHOR19,. + 0
 7037              	mod:
 7038 0000 00000000 		.space	4
 7039              		.section	.sdram_bss,"aw"
 7040              		.align	2
 7043              	proc:
 7044 0000 00000000 		.space	960308
 7044      00000000 
 7044      00000000 
 7044      00000000 
 7044      00000000 
 7045              		.text
 7046              	.Letext0:
 7047              		.file 27 "/Library/DaisyToolchain/0.2.0/arm/arm-none-eabi/include/machine/_default_types.h"
 7048              		.file 28 "/Library/DaisyToolchain/0.2.0/arm/arm-none-eabi/include/sys/_stdint.h"
 7049              		.file 29 "/Library/DaisyToolchain/0.2.0/arm/arm-none-eabi/include/stdint.h"
 7050              		.file 30 "/Library/DaisyToolchain/0.2.0/arm/lib/gcc/arm-none-eabi/10.3.1/include/stddef.h"
 7051              		.file 31 "/Library/DaisyToolchain/0.2.0/arm/arm-none-eabi/include/c++/10.3.1/bits/std_abs.h"
 7052              		.file 32 "/Library/DaisyToolchain/0.2.0/arm/arm-none-eabi/include/c++/10.3.1/cstdlib"
 7053              		.file 33 "/Library/DaisyToolchain/0.2.0/arm/arm-none-eabi/include/c++/10.3.1/cstdint"
 7054              		.file 34 "/Library/DaisyToolchain/0.2.0/arm/arm-none-eabi/include/c++/10.3.1/type_traits"
 7055              		.file 35 "/Library/DaisyToolchain/0.2.0/arm/arm-none-eabi/include/c++/10.3.1/debug/debug.h"
 7056              		.file 36 "/Library/DaisyToolchain/0.2.0/arm/arm-none-eabi/include/c++/10.3.1/arm-none-eabi/thumb/v
 7057              		.file 37 "/Library/DaisyToolchain/0.2.0/arm/arm-none-eabi/include/c++/10.3.1/bits/algorithmfwd.h"
 7058              		.file 38 "/Library/DaisyToolchain/0.2.0/arm/arm-none-eabi/include/c++/10.3.1/bits/stl_pair.h"
 7059              		.file 39 "/Library/DaisyToolchain/0.2.0/arm/arm-none-eabi/include/c++/10.3.1/bits/exception_ptr.h"
ARM GAS  /var/folders/hl/qgbwny5j0fd895c2c41bk3tw0000gp/T//ccEG44Zu.s 			page 212


 7060              		.file 40 "/Library/DaisyToolchain/0.2.0/arm/arm-none-eabi/include/c++/10.3.1/cstdarg"
 7061              		.file 41 "/Library/DaisyToolchain/0.2.0/arm/arm-none-eabi/include/c++/10.3.1/cstdio"
 7062              		.file 42 "/Library/DaisyToolchain/0.2.0/arm/arm-none-eabi/include/c++/10.3.1/cstring"
 7063              		.file 43 "/Library/DaisyToolchain/0.2.0/arm/arm-none-eabi/include/c++/10.3.1/cwchar"
 7064              		.file 44 "/Library/DaisyToolchain/0.2.0/arm/arm-none-eabi/include/c++/10.3.1/clocale"
 7065              		.file 45 "/Library/DaisyToolchain/0.2.0/arm/arm-none-eabi/include/c++/10.3.1/bits/basic_string.h"
 7066              		.file 46 "/Library/DaisyToolchain/0.2.0/arm/arm-none-eabi/include/c++/10.3.1/bits/stl_iterator.h"
 7067              		.file 47 "/Library/DaisyToolchain/0.2.0/arm/arm-none-eabi/include/c++/10.3.1/bits/predefined_ops.h
 7068              		.file 48 "/Library/DaisyToolchain/0.2.0/arm/arm-none-eabi/include/sys/_types.h"
 7069              		.file 49 "/Library/DaisyToolchain/0.2.0/arm/arm-none-eabi/include/sys/reent.h"
 7070              		.file 50 "/Library/DaisyToolchain/0.2.0/arm/arm-none-eabi/include/sys/lock.h"
 7071              		.file 51 "/Library/DaisyToolchain/0.2.0/arm/arm-none-eabi/include/math.h"
 7072              		.file 52 "/Library/DaisyToolchain/0.2.0/arm/arm-none-eabi/include/stdlib.h"
 7073              		.file 53 "/Library/DaisyToolchain/0.2.0/arm/arm-none-eabi/include/c++/10.3.1/math.h"
 7074              		.file 54 "/Library/DaisyToolchain/0.2.0/arm/arm-none-eabi/include/c++/10.3.1/stdlib.h"
 7075              		.file 55 "../../libDaisy//src/per/tim.h"
 7076              		.file 56 "../../libDaisy//src/per/sai.h"
 7077              		.file 57 "../../libDaisy//src/hid/ctrl.h"
 7078              		.file 58 "../../libDaisy//src/util/wav_format.h"
 7079              		.file 59 "../../libDaisy//src/dev/max11300.h"
 7080              		.file 60 "../../libDaisy//src/util/CpuLoadMeter.h"
 7081              		.file 61 "../../libDaisy//src/dev/sdram.h"
 7082              		.file 62 "/Library/DaisyToolchain/0.2.0/arm/lib/gcc/arm-none-eabi/10.3.1/include/stdarg.h"
 7083              		.file 63 "/Library/DaisyToolchain/0.2.0/arm/arm-none-eabi/include/stdio.h"
 7084              		.file 64 "/Library/DaisyToolchain/0.2.0/arm/arm-none-eabi/include/string.h"
 7085              		.file 65 "/Library/DaisyToolchain/0.2.0/arm/arm-none-eabi/include/wchar.h"
 7086              		.file 66 "/Library/DaisyToolchain/0.2.0/arm/arm-none-eabi/include/locale.h"
 7087              		.file 67 "../../../mutable-instruments/stmlib/stmlib.h"
 7088              		.file 68 "../../../mutable-instruments/clouds/dsp/correlator.h"
 7089              		.file 69 "../../../mutable-instruments/clouds/dsp/frame.h"
 7090              		.file 70 "../../../mutable-instruments/clouds/dsp/audio_buffer.h"
 7091              		.file 71 "../../../mutable-instruments/clouds/dsp/granular_sample_player.h"
 7092              		.file 72 "../../../mutable-instruments/clouds/dsp/looping_sample_player.h"
 7093              		.file 73 "../../../mutable-instruments/clouds/dsp/pvoc/stft.h"
 7094              		.file 74 "../../../mutable-instruments/clouds/dsp/pvoc/frame_transformation.h"
 7095              		.file 75 "../../../mutable-instruments/clouds/dsp/wsola_sample_player.h"
 7096              		.file 76 "../../../mutable-instruments/clouds/dsp/granular_processor.h"
 7097              		.file 77 "../../libDaisy//src/dev/sr_595.h"
 7098              		.file 78 "<built-in>"
ARM GAS  /var/folders/hl/qgbwny5j0fd895c2c41bk3tw0000gp/T//ccEG44Zu.s 			page 213


DEFINED SYMBOLS
                            *ABS*:0000000000000000 Interesting.cpp
/var/folders/hl/qgbwny5j0fd895c2c41bk3tw0000gp/T//ccEG44Zu.s:19     .text._ZN5daisy6SwitchD2Ev:0000000000000000 $t
/var/folders/hl/qgbwny5j0fd895c2c41bk3tw0000gp/T//ccEG44Zu.s:26     .text._ZN5daisy6SwitchD2Ev:0000000000000000 _ZN5daisy6SwitchD2Ev
/var/folders/hl/qgbwny5j0fd895c2c41bk3tw0000gp/T//ccEG44Zu.s:26     .text._ZN5daisy6SwitchD2Ev:0000000000000000 _ZN5daisy6SwitchD1Ev
/var/folders/hl/qgbwny5j0fd895c2c41bk3tw0000gp/T//ccEG44Zu.s:43     .text._ZN5daisy8patch_sm12DaisyPatchSMD2Ev:0000000000000000 $t
/var/folders/hl/qgbwny5j0fd895c2c41bk3tw0000gp/T//ccEG44Zu.s:50     .text._ZN5daisy8patch_sm12DaisyPatchSMD2Ev:0000000000000000 _ZN5daisy8patch_sm12DaisyPatchSMD2Ev
/var/folders/hl/qgbwny5j0fd895c2c41bk3tw0000gp/T//ccEG44Zu.s:50     .text._ZN5daisy8patch_sm12DaisyPatchSMD2Ev:0000000000000000 _ZN5daisy8patch_sm12DaisyPatchSMD1Ev
/var/folders/hl/qgbwny5j0fd895c2c41bk3tw0000gp/T//ccEG44Zu.s:108    .text._ZN20InterestingProcessorILj48000EED2Ev:0000000000000000 $t
/var/folders/hl/qgbwny5j0fd895c2c41bk3tw0000gp/T//ccEG44Zu.s:115    .text._ZN20InterestingProcessorILj48000EED2Ev:0000000000000000 _ZN20InterestingProcessorILj48000EED2Ev
/var/folders/hl/qgbwny5j0fd895c2c41bk3tw0000gp/T//ccEG44Zu.s:115    .text._ZN20InterestingProcessorILj48000EED2Ev:0000000000000000 _ZN20InterestingProcessorILj48000EED1Ev
/var/folders/hl/qgbwny5j0fd895c2c41bk3tw0000gp/T//ccEG44Zu.s:138    .text._ZN15EffectsHandlingD2Ev:0000000000000000 $t
/var/folders/hl/qgbwny5j0fd895c2c41bk3tw0000gp/T//ccEG44Zu.s:145    .text._ZN15EffectsHandlingD2Ev:0000000000000000 _ZN15EffectsHandlingD2Ev
/var/folders/hl/qgbwny5j0fd895c2c41bk3tw0000gp/T//ccEG44Zu.s:145    .text._ZN15EffectsHandlingD2Ev:0000000000000000 _ZN15EffectsHandlingD1Ev
/var/folders/hl/qgbwny5j0fd895c2c41bk3tw0000gp/T//ccEG44Zu.s:173    .text._ZN5daisy8patch_sm7InitBedEv:0000000000000000 $t
/var/folders/hl/qgbwny5j0fd895c2c41bk3tw0000gp/T//ccEG44Zu.s:180    .text._ZN5daisy8patch_sm7InitBedEv:0000000000000000 _ZN5daisy8patch_sm7InitBedEv
/var/folders/hl/qgbwny5j0fd895c2c41bk3tw0000gp/T//ccEG44Zu.s:310    .text._ZN5daisy8patch_sm7InitBedEv:00000000000000b8 $d
/var/folders/hl/qgbwny5j0fd895c2c41bk3tw0000gp/T//ccEG44Zu.s:335    .text._ZN5daisy8patch_sm6ledOffEv:0000000000000000 $t
/var/folders/hl/qgbwny5j0fd895c2c41bk3tw0000gp/T//ccEG44Zu.s:342    .text._ZN5daisy8patch_sm6ledOffEv:0000000000000000 _ZN5daisy8patch_sm6ledOffEv
/var/folders/hl/qgbwny5j0fd895c2c41bk3tw0000gp/T//ccEG44Zu.s:386    .text._ZN5daisy8patch_sm6ledOffEv:0000000000000028 $d
/var/folders/hl/qgbwny5j0fd895c2c41bk3tw0000gp/T//ccEG44Zu.s:394    .text._ZN5daisy8patch_sm13StartupCheeseEv:0000000000000000 $t
/var/folders/hl/qgbwny5j0fd895c2c41bk3tw0000gp/T//ccEG44Zu.s:401    .text._ZN5daisy8patch_sm13StartupCheeseEv:0000000000000000 _ZN5daisy8patch_sm13StartupCheeseEv
/var/folders/hl/qgbwny5j0fd895c2c41bk3tw0000gp/T//ccEG44Zu.s:551    .text._ZN5daisy8patch_sm13StartupCheeseEv:0000000000000090 $d
/var/folders/hl/qgbwny5j0fd895c2c41bk3tw0000gp/T//ccEG44Zu.s:565    .text._ZN5daisy8patch_sm8gateTestEv:0000000000000000 $t
/var/folders/hl/qgbwny5j0fd895c2c41bk3tw0000gp/T//ccEG44Zu.s:572    .text._ZN5daisy8patch_sm8gateTestEv:0000000000000000 _ZN5daisy8patch_sm8gateTestEv
/var/folders/hl/qgbwny5j0fd895c2c41bk3tw0000gp/T//ccEG44Zu.s:632    .text._ZN5daisy8patch_sm8gateTestEv:0000000000000040 $d
/var/folders/hl/qgbwny5j0fd895c2c41bk3tw0000gp/T//ccEG44Zu.s:640    .text._ZN5rings6Reverb7ProcessEPfS1_j:0000000000000000 $t
/var/folders/hl/qgbwny5j0fd895c2c41bk3tw0000gp/T//ccEG44Zu.s:647    .text._ZN5rings6Reverb7ProcessEPfS1_j:0000000000000000 _ZN5rings6Reverb7ProcessEPfS1_j
/var/folders/hl/qgbwny5j0fd895c2c41bk3tw0000gp/T//ccEG44Zu.s:2968   .text._ZN5rings6Reverb7ProcessEPfS1_j:00000000000003e8 $d
/var/folders/hl/qgbwny5j0fd895c2c41bk3tw0000gp/T//ccEG44Zu.s:2978   .text._Z16UpdateParametersv:0000000000000000 $t
/var/folders/hl/qgbwny5j0fd895c2c41bk3tw0000gp/T//ccEG44Zu.s:2985   .text._Z16UpdateParametersv:0000000000000000 _Z16UpdateParametersv
/var/folders/hl/qgbwny5j0fd895c2c41bk3tw0000gp/T//ccEG44Zu.s:4023   .text._Z16UpdateParametersv:0000000000000130 $d
/var/folders/hl/qgbwny5j0fd895c2c41bk3tw0000gp/T//ccEG44Zu.s:7043   .sdram_bss:0000000000000000 proc
/var/folders/hl/qgbwny5j0fd895c2c41bk3tw0000gp/T//ccEG44Zu.s:7017   .bss.effects:0000000000000000 effects
/var/folders/hl/qgbwny5j0fd895c2c41bk3tw0000gp/T//ccEG44Zu.s:4042   .text._Z13AudioCallbackPKPKfPPfj:0000000000000000 $t
/var/folders/hl/qgbwny5j0fd895c2c41bk3tw0000gp/T//ccEG44Zu.s:4049   .text._Z13AudioCallbackPKPKfPPfj:0000000000000000 _Z13AudioCallbackPKPKfPPfj
/var/folders/hl/qgbwny5j0fd895c2c41bk3tw0000gp/T//ccEG44Zu.s:4667   .text._Z13AudioCallbackPKPKfPPfj:0000000000000274 $d
/var/folders/hl/qgbwny5j0fd895c2c41bk3tw0000gp/T//ccEG44Zu.s:4684   .text._Z10ModManagerv:0000000000000000 $t
/var/folders/hl/qgbwny5j0fd895c2c41bk3tw0000gp/T//ccEG44Zu.s:4691   .text._Z10ModManagerv:0000000000000000 _Z10ModManagerv
/var/folders/hl/qgbwny5j0fd895c2c41bk3tw0000gp/T//ccEG44Zu.s:5078   .text._Z10ModManagerv:0000000000000110 $d
/var/folders/hl/qgbwny5j0fd895c2c41bk3tw0000gp/T//ccEG44Zu.s:5096   .text.startup.main:0000000000000000 $t
/var/folders/hl/qgbwny5j0fd895c2c41bk3tw0000gp/T//ccEG44Zu.s:5103   .text.startup.main:0000000000000000 main
/var/folders/hl/qgbwny5j0fd895c2c41bk3tw0000gp/T//ccEG44Zu.s:5918   .text.startup.main:0000000000000234 $d
/var/folders/hl/qgbwny5j0fd895c2c41bk3tw0000gp/T//ccEG44Zu.s:5951   .text.startup._GLOBAL__sub_I__ZN5daisy8patch_sm8gen_led1E:0000000000000000 $t
/var/folders/hl/qgbwny5j0fd895c2c41bk3tw0000gp/T//ccEG44Zu.s:5957   .text.startup._GLOBAL__sub_I__ZN5daisy8patch_sm8gen_led1E:0000000000000000 _GLOBAL__sub_I__ZN5daisy8patch_sm8gen_led1E
/var/folders/hl/qgbwny5j0fd895c2c41bk3tw0000gp/T//ccEG44Zu.s:6750   .text.startup._GLOBAL__sub_I__ZN5daisy8patch_sm8gen_led1E:0000000000000118 $d
/var/folders/hl/qgbwny5j0fd895c2c41bk3tw0000gp/T//ccEG44Zu.s:6798   .init_array:0000000000000000 $d
/var/folders/hl/qgbwny5j0fd895c2c41bk3tw0000gp/T//ccEG44Zu.s:7037   .bss.mod:0000000000000000 mod
/var/folders/hl/qgbwny5j0fd895c2c41bk3tw0000gp/T//ccEG44Zu.s:7030   .bss.loadMeter:0000000000000000 loadMeter
/var/folders/hl/qgbwny5j0fd895c2c41bk3tw0000gp/T//ccEG44Zu.s:7024   .bss.hw:0000000000000000 hw
/var/folders/hl/qgbwny5j0fd895c2c41bk3tw0000gp/T//ccEG44Zu.s:6871   .bss._ZN5daisy8patch_sm2b2E:0000000000000000 _ZN5daisy8patch_sm2b2E
/var/folders/hl/qgbwny5j0fd895c2c41bk3tw0000gp/T//ccEG44Zu.s:6864   .bss._ZN5daisy8patch_sm2b1E:0000000000000000 _ZN5daisy8patch_sm2b1E
/var/folders/hl/qgbwny5j0fd895c2c41bk3tw0000gp/T//ccEG44Zu.s:6941   .bss._ZN5daisy8patch_sm8newPinD5E:0000000000000000 _ZN5daisy8patch_sm8newPinD5E
/var/folders/hl/qgbwny5j0fd895c2c41bk3tw0000gp/T//ccEG44Zu.s:6997   .bss._ZN5daisy8patch_sm8oldPinD5E:0000000000000000 _ZN5daisy8patch_sm8oldPinD5E
/var/folders/hl/qgbwny5j0fd895c2c41bk3tw0000gp/T//ccEG44Zu.s:6934   .bss._ZN5daisy8patch_sm8newPinD4E:0000000000000000 _ZN5daisy8patch_sm8newPinD4E
/var/folders/hl/qgbwny5j0fd895c2c41bk3tw0000gp/T//ccEG44Zu.s:6990   .bss._ZN5daisy8patch_sm8oldPinD4E:0000000000000000 _ZN5daisy8patch_sm8oldPinD4E
/var/folders/hl/qgbwny5j0fd895c2c41bk3tw0000gp/T//ccEG44Zu.s:6948   .bss._ZN5daisy8patch_sm8newPinD6E:0000000000000000 _ZN5daisy8patch_sm8newPinD6E
ARM GAS  /var/folders/hl/qgbwny5j0fd895c2c41bk3tw0000gp/T//ccEG44Zu.s 			page 214


/var/folders/hl/qgbwny5j0fd895c2c41bk3tw0000gp/T//ccEG44Zu.s:7004   .bss._ZN5daisy8patch_sm8oldPinD6E:0000000000000000 _ZN5daisy8patch_sm8oldPinD6E
/var/folders/hl/qgbwny5j0fd895c2c41bk3tw0000gp/T//ccEG44Zu.s:6927   .bss._ZN5daisy8patch_sm8newPinD3E:0000000000000000 _ZN5daisy8patch_sm8newPinD3E
/var/folders/hl/qgbwny5j0fd895c2c41bk3tw0000gp/T//ccEG44Zu.s:6983   .bss._ZN5daisy8patch_sm8oldPinD3E:0000000000000000 _ZN5daisy8patch_sm8oldPinD3E
/var/folders/hl/qgbwny5j0fd895c2c41bk3tw0000gp/T//ccEG44Zu.s:6913   .bss._ZN5daisy8patch_sm8newPinD1E:0000000000000000 _ZN5daisy8patch_sm8newPinD1E
/var/folders/hl/qgbwny5j0fd895c2c41bk3tw0000gp/T//ccEG44Zu.s:6969   .bss._ZN5daisy8patch_sm8oldPinD1E:0000000000000000 _ZN5daisy8patch_sm8oldPinD1E
/var/folders/hl/qgbwny5j0fd895c2c41bk3tw0000gp/T//ccEG44Zu.s:6920   .bss._ZN5daisy8patch_sm8newPinD2E:0000000000000000 _ZN5daisy8patch_sm8newPinD2E
/var/folders/hl/qgbwny5j0fd895c2c41bk3tw0000gp/T//ccEG44Zu.s:6976   .bss._ZN5daisy8patch_sm8oldPinD2E:0000000000000000 _ZN5daisy8patch_sm8oldPinD2E
/var/folders/hl/qgbwny5j0fd895c2c41bk3tw0000gp/T//ccEG44Zu.s:6906   .bss._ZN5daisy8patch_sm8newPinA9E:0000000000000000 _ZN5daisy8patch_sm8newPinA9E
/var/folders/hl/qgbwny5j0fd895c2c41bk3tw0000gp/T//ccEG44Zu.s:6962   .bss._ZN5daisy8patch_sm8oldPinA9E:0000000000000000 _ZN5daisy8patch_sm8oldPinA9E
/var/folders/hl/qgbwny5j0fd895c2c41bk3tw0000gp/T//ccEG44Zu.s:6955   .bss._ZN5daisy8patch_sm8newPinD7E:0000000000000000 _ZN5daisy8patch_sm8newPinD7E
/var/folders/hl/qgbwny5j0fd895c2c41bk3tw0000gp/T//ccEG44Zu.s:7011   .bss._ZN5daisy8patch_sm8oldPinD7E:0000000000000000 _ZN5daisy8patch_sm8oldPinD7E
/var/folders/hl/qgbwny5j0fd895c2c41bk3tw0000gp/T//ccEG44Zu.s:6857   .bss._ZN5daisy8patch_sm13gate_out_led2E:0000000000000000 _ZN5daisy8patch_sm13gate_out_led2E
/var/folders/hl/qgbwny5j0fd895c2c41bk3tw0000gp/T//ccEG44Zu.s:6850   .bss._ZN5daisy8patch_sm13gate_out_led1E:0000000000000000 _ZN5daisy8patch_sm13gate_out_led1E
/var/folders/hl/qgbwny5j0fd895c2c41bk3tw0000gp/T//ccEG44Zu.s:6843   .bss._ZN5daisy8patch_sm12gate_in_led2E:0000000000000000 _ZN5daisy8patch_sm12gate_in_led2E
/var/folders/hl/qgbwny5j0fd895c2c41bk3tw0000gp/T//ccEG44Zu.s:6836   .bss._ZN5daisy8patch_sm12gate_in_led1E:0000000000000000 _ZN5daisy8patch_sm12gate_in_led1E
/var/folders/hl/qgbwny5j0fd895c2c41bk3tw0000gp/T//ccEG44Zu.s:6885   .bss._ZN5daisy8patch_sm7cv_led2E:0000000000000000 _ZN5daisy8patch_sm7cv_led2E
/var/folders/hl/qgbwny5j0fd895c2c41bk3tw0000gp/T//ccEG44Zu.s:6878   .bss._ZN5daisy8patch_sm7cv_led1E:0000000000000000 _ZN5daisy8patch_sm7cv_led1E
/var/folders/hl/qgbwny5j0fd895c2c41bk3tw0000gp/T//ccEG44Zu.s:6899   .bss._ZN5daisy8patch_sm8gen_led2E:0000000000000000 _ZN5daisy8patch_sm8gen_led2E
/var/folders/hl/qgbwny5j0fd895c2c41bk3tw0000gp/T//ccEG44Zu.s:6892   .bss._ZN5daisy8patch_sm8gen_led1E:0000000000000000 _ZN5daisy8patch_sm8gen_led1E
/var/folders/hl/qgbwny5j0fd895c2c41bk3tw0000gp/T//ccEG44Zu.s:6832   .bss._ZN5daisy8patch_sm12gate_in_led1E:0000000000000000 $d
/var/folders/hl/qgbwny5j0fd895c2c41bk3tw0000gp/T//ccEG44Zu.s:6839   .bss._ZN5daisy8patch_sm12gate_in_led2E:0000000000000000 $d
/var/folders/hl/qgbwny5j0fd895c2c41bk3tw0000gp/T//ccEG44Zu.s:6846   .bss._ZN5daisy8patch_sm13gate_out_led1E:0000000000000000 $d
/var/folders/hl/qgbwny5j0fd895c2c41bk3tw0000gp/T//ccEG44Zu.s:6853   .bss._ZN5daisy8patch_sm13gate_out_led2E:0000000000000000 $d
/var/folders/hl/qgbwny5j0fd895c2c41bk3tw0000gp/T//ccEG44Zu.s:6860   .bss._ZN5daisy8patch_sm2b1E:0000000000000000 $d
/var/folders/hl/qgbwny5j0fd895c2c41bk3tw0000gp/T//ccEG44Zu.s:6867   .bss._ZN5daisy8patch_sm2b2E:0000000000000000 $d
/var/folders/hl/qgbwny5j0fd895c2c41bk3tw0000gp/T//ccEG44Zu.s:6874   .bss._ZN5daisy8patch_sm7cv_led1E:0000000000000000 $d
/var/folders/hl/qgbwny5j0fd895c2c41bk3tw0000gp/T//ccEG44Zu.s:6881   .bss._ZN5daisy8patch_sm7cv_led2E:0000000000000000 $d
/var/folders/hl/qgbwny5j0fd895c2c41bk3tw0000gp/T//ccEG44Zu.s:6888   .bss._ZN5daisy8patch_sm8gen_led1E:0000000000000000 $d
/var/folders/hl/qgbwny5j0fd895c2c41bk3tw0000gp/T//ccEG44Zu.s:6895   .bss._ZN5daisy8patch_sm8gen_led2E:0000000000000000 $d
/var/folders/hl/qgbwny5j0fd895c2c41bk3tw0000gp/T//ccEG44Zu.s:6902   .bss._ZN5daisy8patch_sm8newPinA9E:0000000000000000 $d
/var/folders/hl/qgbwny5j0fd895c2c41bk3tw0000gp/T//ccEG44Zu.s:6909   .bss._ZN5daisy8patch_sm8newPinD1E:0000000000000000 $d
/var/folders/hl/qgbwny5j0fd895c2c41bk3tw0000gp/T//ccEG44Zu.s:6916   .bss._ZN5daisy8patch_sm8newPinD2E:0000000000000000 $d
/var/folders/hl/qgbwny5j0fd895c2c41bk3tw0000gp/T//ccEG44Zu.s:6923   .bss._ZN5daisy8patch_sm8newPinD3E:0000000000000000 $d
/var/folders/hl/qgbwny5j0fd895c2c41bk3tw0000gp/T//ccEG44Zu.s:6930   .bss._ZN5daisy8patch_sm8newPinD4E:0000000000000000 $d
/var/folders/hl/qgbwny5j0fd895c2c41bk3tw0000gp/T//ccEG44Zu.s:6937   .bss._ZN5daisy8patch_sm8newPinD5E:0000000000000000 $d
/var/folders/hl/qgbwny5j0fd895c2c41bk3tw0000gp/T//ccEG44Zu.s:6944   .bss._ZN5daisy8patch_sm8newPinD6E:0000000000000000 $d
/var/folders/hl/qgbwny5j0fd895c2c41bk3tw0000gp/T//ccEG44Zu.s:6951   .bss._ZN5daisy8patch_sm8newPinD7E:0000000000000000 $d
/var/folders/hl/qgbwny5j0fd895c2c41bk3tw0000gp/T//ccEG44Zu.s:6958   .bss._ZN5daisy8patch_sm8oldPinA9E:0000000000000000 $d
/var/folders/hl/qgbwny5j0fd895c2c41bk3tw0000gp/T//ccEG44Zu.s:6965   .bss._ZN5daisy8patch_sm8oldPinD1E:0000000000000000 $d
/var/folders/hl/qgbwny5j0fd895c2c41bk3tw0000gp/T//ccEG44Zu.s:6972   .bss._ZN5daisy8patch_sm8oldPinD2E:0000000000000000 $d
/var/folders/hl/qgbwny5j0fd895c2c41bk3tw0000gp/T//ccEG44Zu.s:6979   .bss._ZN5daisy8patch_sm8oldPinD3E:0000000000000000 $d
/var/folders/hl/qgbwny5j0fd895c2c41bk3tw0000gp/T//ccEG44Zu.s:6986   .bss._ZN5daisy8patch_sm8oldPinD4E:0000000000000000 $d
/var/folders/hl/qgbwny5j0fd895c2c41bk3tw0000gp/T//ccEG44Zu.s:6993   .bss._ZN5daisy8patch_sm8oldPinD5E:0000000000000000 $d
/var/folders/hl/qgbwny5j0fd895c2c41bk3tw0000gp/T//ccEG44Zu.s:7000   .bss._ZN5daisy8patch_sm8oldPinD6E:0000000000000000 $d
/var/folders/hl/qgbwny5j0fd895c2c41bk3tw0000gp/T//ccEG44Zu.s:7007   .bss._ZN5daisy8patch_sm8oldPinD7E:0000000000000000 $d
/var/folders/hl/qgbwny5j0fd895c2c41bk3tw0000gp/T//ccEG44Zu.s:7014   .bss.effects:0000000000000000 $d
/var/folders/hl/qgbwny5j0fd895c2c41bk3tw0000gp/T//ccEG44Zu.s:7020   .bss.hw:0000000000000000 $d
/var/folders/hl/qgbwny5j0fd895c2c41bk3tw0000gp/T//ccEG44Zu.s:7027   .bss.loadMeter:0000000000000000 $d
/var/folders/hl/qgbwny5j0fd895c2c41bk3tw0000gp/T//ccEG44Zu.s:7033   .bss.mod:0000000000000000 $d
/var/folders/hl/qgbwny5j0fd895c2c41bk3tw0000gp/T//ccEG44Zu.s:7040   .sdram_bss:0000000000000000 $d
                           .group:0000000000000000 _ZN5daisy6SwitchD5Ev
                           .group:0000000000000000 _ZN5daisy8patch_sm12DaisyPatchSMD5Ev
                           .group:0000000000000000 _ZN20InterestingProcessorILj48000EED5Ev
                           .group:0000000000000000 _ZN15EffectsHandlingD5Ev

UNDEFINED SYMBOLS
_ZN5daisy4GPIO4InitENS_3PinENS0_4ModeENS0_4PullENS0_5SpeedE
ARM GAS  /var/folders/hl/qgbwny5j0fd895c2c41bk3tw0000gp/T//ccEG44Zu.s 			page 215


_ZN5daisy6Switch4InitE12dsy_gpio_pinf
_ZN5daisy8patch_sm12DaisyPatchSM2A8E
_ZN5daisy8patch_sm12DaisyPatchSM3D10E
_ZN5daisy4GPIO5WriteEb
_ZN5daisy4GPIO6ToggleEv
_ZN5daisy6System5DelayEm
_ZN5daisy8patch_sm12DaisyPatchSM11GetAdcValueEi
_ZN5daisy8patch_sm12DaisyPatchSM21ProcessAnalogControlsEv
_ZN5daisy8patch_sm12DaisyPatchSM22ProcessDigitalControlsEv
_ZN7daisysp7DcBlock7ProcessEf
_ZN7daisysp5AdEnv7ProcessEv
memset
_ZN5daisy6Switch8DebounceEv
dsy_gpio_read
_ZN5daisy6System6GetNowEv
_ZN5daisy8patch_sm12DaisyPatchSM4InitEv
_ZN5daisy8patch_sm12DaisyPatchSM17SetAudioBlockSizeEj
_ZN5daisy8patch_sm12DaisyPatchSM18SetAudioSampleRateENS_9SaiHandle6Config10SampleRateE
_ZN5daisy8patch_sm12DaisyPatchSM15AudioSampleRateEv
_ZN7daisysp5AdEnv4InitEf
_ZN7daisysp7DcBlock4InitEf
_ZN5daisy8patch_sm12DaisyPatchSM10StartAudioEPFvPKPKfPPfjE
_ZN5daisy6GateIn4TrigEv
memcpy
__aeabi_atexit
_ZN5daisy8patch_sm12DaisyPatchSM2D7E
_ZN5daisy8patch_sm12DaisyPatchSM2A9E
_ZN5daisy8patch_sm12DaisyPatchSM2D1E
_ZN5daisy8patch_sm12DaisyPatchSM2D2E
_ZN5daisy8patch_sm12DaisyPatchSM2D3E
_ZN5daisy8patch_sm12DaisyPatchSM2D6E
_ZN5daisy8patch_sm12DaisyPatchSM2D4E
_ZN5daisy8patch_sm12DaisyPatchSM2D5E
__dso_handle
