ARM GAS  C:\Users\daniel\AppData\Local\Temp\ccXSGLh5.s 			page 1


   1              		.cpu cortex-m7
   2              		.eabi_attribute 28, 1
   3              		.eabi_attribute 20, 1
   4              		.eabi_attribute 21, 1
   5              		.eabi_attribute 23, 3
   6              		.eabi_attribute 24, 1
   7              		.eabi_attribute 25, 1
   8              		.eabi_attribute 26, 1
   9              		.eabi_attribute 30, 4
  10              		.eabi_attribute 34, 1
  11              		.eabi_attribute 18, 4
  12              		.file	"string_synth_part.cpp"
  13              		.text
  14              	.Ltext0:
  15              		.cfi_sections	.debug_frame
  16              		.section	.text._ZSt13__adjust_heapIPfifN9__gnu_cxx5__ops15_Iter_less_iterEEvT_T0_S5_T1_T2_.isra.0,
  17              		.align	1
  18              		.arch armv7e-m
  19              		.syntax unified
  20              		.thumb
  21              		.thumb_func
  22              		.fpu fpv5-d16
  24              	_ZSt13__adjust_heapIPfifN9__gnu_cxx5__ops15_Iter_less_iterEEvT_T0_S5_T1_T2_.isra.0:
  25              	.LVL0:
  26              	.LFB1915:
  27              		.file 1 "c:\\programdata\\chocolatey\\lib\\gcc-arm-embedded\\tools\\gcc-arm-none-eabi-10-2020-q4-m
   1:c:\programdata\chocolatey\lib\gcc-arm-embedded\tools\gcc-arm-none-eabi-10-2020-q4-major\arm-none-eabi\include\c++\10.2.1\bits\stl_heap.h **** // Heap implementation -*- C++ -*-
   2:c:\programdata\chocolatey\lib\gcc-arm-embedded\tools\gcc-arm-none-eabi-10-2020-q4-major\arm-none-eabi\include\c++\10.2.1\bits\stl_heap.h **** 
   3:c:\programdata\chocolatey\lib\gcc-arm-embedded\tools\gcc-arm-none-eabi-10-2020-q4-major\arm-none-eabi\include\c++\10.2.1\bits\stl_heap.h **** // Copyright (C) 2001-2020 Free Software Foundation, Inc.
   4:c:\programdata\chocolatey\lib\gcc-arm-embedded\tools\gcc-arm-none-eabi-10-2020-q4-major\arm-none-eabi\include\c++\10.2.1\bits\stl_heap.h **** //
   5:c:\programdata\chocolatey\lib\gcc-arm-embedded\tools\gcc-arm-none-eabi-10-2020-q4-major\arm-none-eabi\include\c++\10.2.1\bits\stl_heap.h **** // This file is part of the GNU ISO C++ Library.  This library is free
   6:c:\programdata\chocolatey\lib\gcc-arm-embedded\tools\gcc-arm-none-eabi-10-2020-q4-major\arm-none-eabi\include\c++\10.2.1\bits\stl_heap.h **** // software; you can redistribute it and/or modify it under the
   7:c:\programdata\chocolatey\lib\gcc-arm-embedded\tools\gcc-arm-none-eabi-10-2020-q4-major\arm-none-eabi\include\c++\10.2.1\bits\stl_heap.h **** // terms of the GNU General Public License as published by the
   8:c:\programdata\chocolatey\lib\gcc-arm-embedded\tools\gcc-arm-none-eabi-10-2020-q4-major\arm-none-eabi\include\c++\10.2.1\bits\stl_heap.h **** // Free Software Foundation; either version 3, or (at your option)
   9:c:\programdata\chocolatey\lib\gcc-arm-embedded\tools\gcc-arm-none-eabi-10-2020-q4-major\arm-none-eabi\include\c++\10.2.1\bits\stl_heap.h **** // any later version.
  10:c:\programdata\chocolatey\lib\gcc-arm-embedded\tools\gcc-arm-none-eabi-10-2020-q4-major\arm-none-eabi\include\c++\10.2.1\bits\stl_heap.h **** 
  11:c:\programdata\chocolatey\lib\gcc-arm-embedded\tools\gcc-arm-none-eabi-10-2020-q4-major\arm-none-eabi\include\c++\10.2.1\bits\stl_heap.h **** // This library is distributed in the hope that it will be useful,
  12:c:\programdata\chocolatey\lib\gcc-arm-embedded\tools\gcc-arm-none-eabi-10-2020-q4-major\arm-none-eabi\include\c++\10.2.1\bits\stl_heap.h **** // but WITHOUT ANY WARRANTY; without even the implied warranty of
  13:c:\programdata\chocolatey\lib\gcc-arm-embedded\tools\gcc-arm-none-eabi-10-2020-q4-major\arm-none-eabi\include\c++\10.2.1\bits\stl_heap.h **** // MERCHANTABILITY or FITNESS FOR A PARTICULAR PURPOSE.  See the
  14:c:\programdata\chocolatey\lib\gcc-arm-embedded\tools\gcc-arm-none-eabi-10-2020-q4-major\arm-none-eabi\include\c++\10.2.1\bits\stl_heap.h **** // GNU General Public License for more details.
  15:c:\programdata\chocolatey\lib\gcc-arm-embedded\tools\gcc-arm-none-eabi-10-2020-q4-major\arm-none-eabi\include\c++\10.2.1\bits\stl_heap.h **** 
  16:c:\programdata\chocolatey\lib\gcc-arm-embedded\tools\gcc-arm-none-eabi-10-2020-q4-major\arm-none-eabi\include\c++\10.2.1\bits\stl_heap.h **** // Under Section 7 of GPL version 3, you are granted additional
  17:c:\programdata\chocolatey\lib\gcc-arm-embedded\tools\gcc-arm-none-eabi-10-2020-q4-major\arm-none-eabi\include\c++\10.2.1\bits\stl_heap.h **** // permissions described in the GCC Runtime Library Exception, version
  18:c:\programdata\chocolatey\lib\gcc-arm-embedded\tools\gcc-arm-none-eabi-10-2020-q4-major\arm-none-eabi\include\c++\10.2.1\bits\stl_heap.h **** // 3.1, as published by the Free Software Foundation.
  19:c:\programdata\chocolatey\lib\gcc-arm-embedded\tools\gcc-arm-none-eabi-10-2020-q4-major\arm-none-eabi\include\c++\10.2.1\bits\stl_heap.h **** 
  20:c:\programdata\chocolatey\lib\gcc-arm-embedded\tools\gcc-arm-none-eabi-10-2020-q4-major\arm-none-eabi\include\c++\10.2.1\bits\stl_heap.h **** // You should have received a copy of the GNU General Public License and
  21:c:\programdata\chocolatey\lib\gcc-arm-embedded\tools\gcc-arm-none-eabi-10-2020-q4-major\arm-none-eabi\include\c++\10.2.1\bits\stl_heap.h **** // a copy of the GCC Runtime Library Exception along with this program;
  22:c:\programdata\chocolatey\lib\gcc-arm-embedded\tools\gcc-arm-none-eabi-10-2020-q4-major\arm-none-eabi\include\c++\10.2.1\bits\stl_heap.h **** // see the files COPYING3 and COPYING.RUNTIME respectively.  If not, see
  23:c:\programdata\chocolatey\lib\gcc-arm-embedded\tools\gcc-arm-none-eabi-10-2020-q4-major\arm-none-eabi\include\c++\10.2.1\bits\stl_heap.h **** // <http://www.gnu.org/licenses/>.
  24:c:\programdata\chocolatey\lib\gcc-arm-embedded\tools\gcc-arm-none-eabi-10-2020-q4-major\arm-none-eabi\include\c++\10.2.1\bits\stl_heap.h **** 
  25:c:\programdata\chocolatey\lib\gcc-arm-embedded\tools\gcc-arm-none-eabi-10-2020-q4-major\arm-none-eabi\include\c++\10.2.1\bits\stl_heap.h **** /*
  26:c:\programdata\chocolatey\lib\gcc-arm-embedded\tools\gcc-arm-none-eabi-10-2020-q4-major\arm-none-eabi\include\c++\10.2.1\bits\stl_heap.h ****  *
  27:c:\programdata\chocolatey\lib\gcc-arm-embedded\tools\gcc-arm-none-eabi-10-2020-q4-major\arm-none-eabi\include\c++\10.2.1\bits\stl_heap.h ****  * Copyright (c) 1994
  28:c:\programdata\chocolatey\lib\gcc-arm-embedded\tools\gcc-arm-none-eabi-10-2020-q4-major\arm-none-eabi\include\c++\10.2.1\bits\stl_heap.h ****  * Hewlett-Packard Company
  29:c:\programdata\chocolatey\lib\gcc-arm-embedded\tools\gcc-arm-none-eabi-10-2020-q4-major\arm-none-eabi\include\c++\10.2.1\bits\stl_heap.h ****  *
  30:c:\programdata\chocolatey\lib\gcc-arm-embedded\tools\gcc-arm-none-eabi-10-2020-q4-major\arm-none-eabi\include\c++\10.2.1\bits\stl_heap.h ****  * Permission to use, copy, modify, distribute and sell this software
  31:c:\programdata\chocolatey\lib\gcc-arm-embedded\tools\gcc-arm-none-eabi-10-2020-q4-major\arm-none-eabi\include\c++\10.2.1\bits\stl_heap.h ****  * and its documentation for any purpose is hereby granted without fee,
ARM GAS  C:\Users\daniel\AppData\Local\Temp\ccXSGLh5.s 			page 2


  32:c:\programdata\chocolatey\lib\gcc-arm-embedded\tools\gcc-arm-none-eabi-10-2020-q4-major\arm-none-eabi\include\c++\10.2.1\bits\stl_heap.h ****  * provided that the above copyright notice appear in all copies and
  33:c:\programdata\chocolatey\lib\gcc-arm-embedded\tools\gcc-arm-none-eabi-10-2020-q4-major\arm-none-eabi\include\c++\10.2.1\bits\stl_heap.h ****  * that both that copyright notice and this permission notice appear
  34:c:\programdata\chocolatey\lib\gcc-arm-embedded\tools\gcc-arm-none-eabi-10-2020-q4-major\arm-none-eabi\include\c++\10.2.1\bits\stl_heap.h ****  * in supporting documentation.  Hewlett-Packard Company makes no
  35:c:\programdata\chocolatey\lib\gcc-arm-embedded\tools\gcc-arm-none-eabi-10-2020-q4-major\arm-none-eabi\include\c++\10.2.1\bits\stl_heap.h ****  * representations about the suitability of this software for any
  36:c:\programdata\chocolatey\lib\gcc-arm-embedded\tools\gcc-arm-none-eabi-10-2020-q4-major\arm-none-eabi\include\c++\10.2.1\bits\stl_heap.h ****  * purpose.  It is provided "as is" without express or implied warranty.
  37:c:\programdata\chocolatey\lib\gcc-arm-embedded\tools\gcc-arm-none-eabi-10-2020-q4-major\arm-none-eabi\include\c++\10.2.1\bits\stl_heap.h ****  *
  38:c:\programdata\chocolatey\lib\gcc-arm-embedded\tools\gcc-arm-none-eabi-10-2020-q4-major\arm-none-eabi\include\c++\10.2.1\bits\stl_heap.h ****  * Copyright (c) 1997
  39:c:\programdata\chocolatey\lib\gcc-arm-embedded\tools\gcc-arm-none-eabi-10-2020-q4-major\arm-none-eabi\include\c++\10.2.1\bits\stl_heap.h ****  * Silicon Graphics Computer Systems, Inc.
  40:c:\programdata\chocolatey\lib\gcc-arm-embedded\tools\gcc-arm-none-eabi-10-2020-q4-major\arm-none-eabi\include\c++\10.2.1\bits\stl_heap.h ****  *
  41:c:\programdata\chocolatey\lib\gcc-arm-embedded\tools\gcc-arm-none-eabi-10-2020-q4-major\arm-none-eabi\include\c++\10.2.1\bits\stl_heap.h ****  * Permission to use, copy, modify, distribute and sell this software
  42:c:\programdata\chocolatey\lib\gcc-arm-embedded\tools\gcc-arm-none-eabi-10-2020-q4-major\arm-none-eabi\include\c++\10.2.1\bits\stl_heap.h ****  * and its documentation for any purpose is hereby granted without fee,
  43:c:\programdata\chocolatey\lib\gcc-arm-embedded\tools\gcc-arm-none-eabi-10-2020-q4-major\arm-none-eabi\include\c++\10.2.1\bits\stl_heap.h ****  * provided that the above copyright notice appear in all copies and
  44:c:\programdata\chocolatey\lib\gcc-arm-embedded\tools\gcc-arm-none-eabi-10-2020-q4-major\arm-none-eabi\include\c++\10.2.1\bits\stl_heap.h ****  * that both that copyright notice and this permission notice appear
  45:c:\programdata\chocolatey\lib\gcc-arm-embedded\tools\gcc-arm-none-eabi-10-2020-q4-major\arm-none-eabi\include\c++\10.2.1\bits\stl_heap.h ****  * in supporting documentation.  Silicon Graphics makes no
  46:c:\programdata\chocolatey\lib\gcc-arm-embedded\tools\gcc-arm-none-eabi-10-2020-q4-major\arm-none-eabi\include\c++\10.2.1\bits\stl_heap.h ****  * representations about the suitability of this software for any
  47:c:\programdata\chocolatey\lib\gcc-arm-embedded\tools\gcc-arm-none-eabi-10-2020-q4-major\arm-none-eabi\include\c++\10.2.1\bits\stl_heap.h ****  * purpose.  It is provided "as is" without express or implied warranty.
  48:c:\programdata\chocolatey\lib\gcc-arm-embedded\tools\gcc-arm-none-eabi-10-2020-q4-major\arm-none-eabi\include\c++\10.2.1\bits\stl_heap.h ****  */
  49:c:\programdata\chocolatey\lib\gcc-arm-embedded\tools\gcc-arm-none-eabi-10-2020-q4-major\arm-none-eabi\include\c++\10.2.1\bits\stl_heap.h **** 
  50:c:\programdata\chocolatey\lib\gcc-arm-embedded\tools\gcc-arm-none-eabi-10-2020-q4-major\arm-none-eabi\include\c++\10.2.1\bits\stl_heap.h **** /** @file bits/stl_heap.h
  51:c:\programdata\chocolatey\lib\gcc-arm-embedded\tools\gcc-arm-none-eabi-10-2020-q4-major\arm-none-eabi\include\c++\10.2.1\bits\stl_heap.h ****  *  This is an internal header file, included by other library headers.
  52:c:\programdata\chocolatey\lib\gcc-arm-embedded\tools\gcc-arm-none-eabi-10-2020-q4-major\arm-none-eabi\include\c++\10.2.1\bits\stl_heap.h ****  *  Do not attempt to use it directly. @headername{queue}
  53:c:\programdata\chocolatey\lib\gcc-arm-embedded\tools\gcc-arm-none-eabi-10-2020-q4-major\arm-none-eabi\include\c++\10.2.1\bits\stl_heap.h ****  */
  54:c:\programdata\chocolatey\lib\gcc-arm-embedded\tools\gcc-arm-none-eabi-10-2020-q4-major\arm-none-eabi\include\c++\10.2.1\bits\stl_heap.h **** 
  55:c:\programdata\chocolatey\lib\gcc-arm-embedded\tools\gcc-arm-none-eabi-10-2020-q4-major\arm-none-eabi\include\c++\10.2.1\bits\stl_heap.h **** #ifndef _STL_HEAP_H
  56:c:\programdata\chocolatey\lib\gcc-arm-embedded\tools\gcc-arm-none-eabi-10-2020-q4-major\arm-none-eabi\include\c++\10.2.1\bits\stl_heap.h **** #define _STL_HEAP_H 1
  57:c:\programdata\chocolatey\lib\gcc-arm-embedded\tools\gcc-arm-none-eabi-10-2020-q4-major\arm-none-eabi\include\c++\10.2.1\bits\stl_heap.h **** 
  58:c:\programdata\chocolatey\lib\gcc-arm-embedded\tools\gcc-arm-none-eabi-10-2020-q4-major\arm-none-eabi\include\c++\10.2.1\bits\stl_heap.h **** #include <debug/debug.h>
  59:c:\programdata\chocolatey\lib\gcc-arm-embedded\tools\gcc-arm-none-eabi-10-2020-q4-major\arm-none-eabi\include\c++\10.2.1\bits\stl_heap.h **** #include <bits/move.h>
  60:c:\programdata\chocolatey\lib\gcc-arm-embedded\tools\gcc-arm-none-eabi-10-2020-q4-major\arm-none-eabi\include\c++\10.2.1\bits\stl_heap.h **** #include <bits/predefined_ops.h>
  61:c:\programdata\chocolatey\lib\gcc-arm-embedded\tools\gcc-arm-none-eabi-10-2020-q4-major\arm-none-eabi\include\c++\10.2.1\bits\stl_heap.h **** 
  62:c:\programdata\chocolatey\lib\gcc-arm-embedded\tools\gcc-arm-none-eabi-10-2020-q4-major\arm-none-eabi\include\c++\10.2.1\bits\stl_heap.h **** namespace std _GLIBCXX_VISIBILITY(default)
  63:c:\programdata\chocolatey\lib\gcc-arm-embedded\tools\gcc-arm-none-eabi-10-2020-q4-major\arm-none-eabi\include\c++\10.2.1\bits\stl_heap.h **** {
  64:c:\programdata\chocolatey\lib\gcc-arm-embedded\tools\gcc-arm-none-eabi-10-2020-q4-major\arm-none-eabi\include\c++\10.2.1\bits\stl_heap.h **** _GLIBCXX_BEGIN_NAMESPACE_VERSION
  65:c:\programdata\chocolatey\lib\gcc-arm-embedded\tools\gcc-arm-none-eabi-10-2020-q4-major\arm-none-eabi\include\c++\10.2.1\bits\stl_heap.h **** 
  66:c:\programdata\chocolatey\lib\gcc-arm-embedded\tools\gcc-arm-none-eabi-10-2020-q4-major\arm-none-eabi\include\c++\10.2.1\bits\stl_heap.h ****   /**
  67:c:\programdata\chocolatey\lib\gcc-arm-embedded\tools\gcc-arm-none-eabi-10-2020-q4-major\arm-none-eabi\include\c++\10.2.1\bits\stl_heap.h ****    * @defgroup heap_algorithms Heap
  68:c:\programdata\chocolatey\lib\gcc-arm-embedded\tools\gcc-arm-none-eabi-10-2020-q4-major\arm-none-eabi\include\c++\10.2.1\bits\stl_heap.h ****    * @ingroup sorting_algorithms
  69:c:\programdata\chocolatey\lib\gcc-arm-embedded\tools\gcc-arm-none-eabi-10-2020-q4-major\arm-none-eabi\include\c++\10.2.1\bits\stl_heap.h ****    */
  70:c:\programdata\chocolatey\lib\gcc-arm-embedded\tools\gcc-arm-none-eabi-10-2020-q4-major\arm-none-eabi\include\c++\10.2.1\bits\stl_heap.h **** 
  71:c:\programdata\chocolatey\lib\gcc-arm-embedded\tools\gcc-arm-none-eabi-10-2020-q4-major\arm-none-eabi\include\c++\10.2.1\bits\stl_heap.h ****   template<typename _RandomAccessIterator, typename _Distance,
  72:c:\programdata\chocolatey\lib\gcc-arm-embedded\tools\gcc-arm-none-eabi-10-2020-q4-major\arm-none-eabi\include\c++\10.2.1\bits\stl_heap.h **** 	   typename _Compare>
  73:c:\programdata\chocolatey\lib\gcc-arm-embedded\tools\gcc-arm-none-eabi-10-2020-q4-major\arm-none-eabi\include\c++\10.2.1\bits\stl_heap.h ****     _GLIBCXX20_CONSTEXPR
  74:c:\programdata\chocolatey\lib\gcc-arm-embedded\tools\gcc-arm-none-eabi-10-2020-q4-major\arm-none-eabi\include\c++\10.2.1\bits\stl_heap.h ****     _Distance
  75:c:\programdata\chocolatey\lib\gcc-arm-embedded\tools\gcc-arm-none-eabi-10-2020-q4-major\arm-none-eabi\include\c++\10.2.1\bits\stl_heap.h ****     __is_heap_until(_RandomAccessIterator __first, _Distance __n,
  76:c:\programdata\chocolatey\lib\gcc-arm-embedded\tools\gcc-arm-none-eabi-10-2020-q4-major\arm-none-eabi\include\c++\10.2.1\bits\stl_heap.h **** 		    _Compare& __comp)
  77:c:\programdata\chocolatey\lib\gcc-arm-embedded\tools\gcc-arm-none-eabi-10-2020-q4-major\arm-none-eabi\include\c++\10.2.1\bits\stl_heap.h ****     {
  78:c:\programdata\chocolatey\lib\gcc-arm-embedded\tools\gcc-arm-none-eabi-10-2020-q4-major\arm-none-eabi\include\c++\10.2.1\bits\stl_heap.h ****       _Distance __parent = 0;
  79:c:\programdata\chocolatey\lib\gcc-arm-embedded\tools\gcc-arm-none-eabi-10-2020-q4-major\arm-none-eabi\include\c++\10.2.1\bits\stl_heap.h ****       for (_Distance __child = 1; __child < __n; ++__child)
  80:c:\programdata\chocolatey\lib\gcc-arm-embedded\tools\gcc-arm-none-eabi-10-2020-q4-major\arm-none-eabi\include\c++\10.2.1\bits\stl_heap.h **** 	{
  81:c:\programdata\chocolatey\lib\gcc-arm-embedded\tools\gcc-arm-none-eabi-10-2020-q4-major\arm-none-eabi\include\c++\10.2.1\bits\stl_heap.h **** 	  if (__comp(__first + __parent, __first + __child))
  82:c:\programdata\chocolatey\lib\gcc-arm-embedded\tools\gcc-arm-none-eabi-10-2020-q4-major\arm-none-eabi\include\c++\10.2.1\bits\stl_heap.h **** 	    return __child;
  83:c:\programdata\chocolatey\lib\gcc-arm-embedded\tools\gcc-arm-none-eabi-10-2020-q4-major\arm-none-eabi\include\c++\10.2.1\bits\stl_heap.h **** 	  if ((__child & 1) == 0)
  84:c:\programdata\chocolatey\lib\gcc-arm-embedded\tools\gcc-arm-none-eabi-10-2020-q4-major\arm-none-eabi\include\c++\10.2.1\bits\stl_heap.h **** 	    ++__parent;
  85:c:\programdata\chocolatey\lib\gcc-arm-embedded\tools\gcc-arm-none-eabi-10-2020-q4-major\arm-none-eabi\include\c++\10.2.1\bits\stl_heap.h **** 	}
  86:c:\programdata\chocolatey\lib\gcc-arm-embedded\tools\gcc-arm-none-eabi-10-2020-q4-major\arm-none-eabi\include\c++\10.2.1\bits\stl_heap.h ****       return __n;
  87:c:\programdata\chocolatey\lib\gcc-arm-embedded\tools\gcc-arm-none-eabi-10-2020-q4-major\arm-none-eabi\include\c++\10.2.1\bits\stl_heap.h ****     }
  88:c:\programdata\chocolatey\lib\gcc-arm-embedded\tools\gcc-arm-none-eabi-10-2020-q4-major\arm-none-eabi\include\c++\10.2.1\bits\stl_heap.h **** 
ARM GAS  C:\Users\daniel\AppData\Local\Temp\ccXSGLh5.s 			page 3


  89:c:\programdata\chocolatey\lib\gcc-arm-embedded\tools\gcc-arm-none-eabi-10-2020-q4-major\arm-none-eabi\include\c++\10.2.1\bits\stl_heap.h ****   // __is_heap, a predicate testing whether or not a range is a heap.
  90:c:\programdata\chocolatey\lib\gcc-arm-embedded\tools\gcc-arm-none-eabi-10-2020-q4-major\arm-none-eabi\include\c++\10.2.1\bits\stl_heap.h ****   // This function is an extension, not part of the C++ standard.
  91:c:\programdata\chocolatey\lib\gcc-arm-embedded\tools\gcc-arm-none-eabi-10-2020-q4-major\arm-none-eabi\include\c++\10.2.1\bits\stl_heap.h ****   template<typename _RandomAccessIterator, typename _Distance>
  92:c:\programdata\chocolatey\lib\gcc-arm-embedded\tools\gcc-arm-none-eabi-10-2020-q4-major\arm-none-eabi\include\c++\10.2.1\bits\stl_heap.h ****     _GLIBCXX20_CONSTEXPR
  93:c:\programdata\chocolatey\lib\gcc-arm-embedded\tools\gcc-arm-none-eabi-10-2020-q4-major\arm-none-eabi\include\c++\10.2.1\bits\stl_heap.h ****     inline bool
  94:c:\programdata\chocolatey\lib\gcc-arm-embedded\tools\gcc-arm-none-eabi-10-2020-q4-major\arm-none-eabi\include\c++\10.2.1\bits\stl_heap.h ****     __is_heap(_RandomAccessIterator __first, _Distance __n)
  95:c:\programdata\chocolatey\lib\gcc-arm-embedded\tools\gcc-arm-none-eabi-10-2020-q4-major\arm-none-eabi\include\c++\10.2.1\bits\stl_heap.h ****     {
  96:c:\programdata\chocolatey\lib\gcc-arm-embedded\tools\gcc-arm-none-eabi-10-2020-q4-major\arm-none-eabi\include\c++\10.2.1\bits\stl_heap.h ****       __gnu_cxx::__ops::_Iter_less_iter __comp;
  97:c:\programdata\chocolatey\lib\gcc-arm-embedded\tools\gcc-arm-none-eabi-10-2020-q4-major\arm-none-eabi\include\c++\10.2.1\bits\stl_heap.h ****       return std::__is_heap_until(__first, __n, __comp) == __n;
  98:c:\programdata\chocolatey\lib\gcc-arm-embedded\tools\gcc-arm-none-eabi-10-2020-q4-major\arm-none-eabi\include\c++\10.2.1\bits\stl_heap.h ****     }
  99:c:\programdata\chocolatey\lib\gcc-arm-embedded\tools\gcc-arm-none-eabi-10-2020-q4-major\arm-none-eabi\include\c++\10.2.1\bits\stl_heap.h **** 
 100:c:\programdata\chocolatey\lib\gcc-arm-embedded\tools\gcc-arm-none-eabi-10-2020-q4-major\arm-none-eabi\include\c++\10.2.1\bits\stl_heap.h ****   template<typename _RandomAccessIterator, typename _Compare,
 101:c:\programdata\chocolatey\lib\gcc-arm-embedded\tools\gcc-arm-none-eabi-10-2020-q4-major\arm-none-eabi\include\c++\10.2.1\bits\stl_heap.h **** 	   typename _Distance>
 102:c:\programdata\chocolatey\lib\gcc-arm-embedded\tools\gcc-arm-none-eabi-10-2020-q4-major\arm-none-eabi\include\c++\10.2.1\bits\stl_heap.h ****     _GLIBCXX20_CONSTEXPR
 103:c:\programdata\chocolatey\lib\gcc-arm-embedded\tools\gcc-arm-none-eabi-10-2020-q4-major\arm-none-eabi\include\c++\10.2.1\bits\stl_heap.h ****     inline bool
 104:c:\programdata\chocolatey\lib\gcc-arm-embedded\tools\gcc-arm-none-eabi-10-2020-q4-major\arm-none-eabi\include\c++\10.2.1\bits\stl_heap.h ****     __is_heap(_RandomAccessIterator __first, _Compare __comp, _Distance __n)
 105:c:\programdata\chocolatey\lib\gcc-arm-embedded\tools\gcc-arm-none-eabi-10-2020-q4-major\arm-none-eabi\include\c++\10.2.1\bits\stl_heap.h ****     {
 106:c:\programdata\chocolatey\lib\gcc-arm-embedded\tools\gcc-arm-none-eabi-10-2020-q4-major\arm-none-eabi\include\c++\10.2.1\bits\stl_heap.h ****       typedef __decltype(__comp) _Cmp;
 107:c:\programdata\chocolatey\lib\gcc-arm-embedded\tools\gcc-arm-none-eabi-10-2020-q4-major\arm-none-eabi\include\c++\10.2.1\bits\stl_heap.h ****       __gnu_cxx::__ops::_Iter_comp_iter<_Cmp> __cmp(_GLIBCXX_MOVE(__comp));
 108:c:\programdata\chocolatey\lib\gcc-arm-embedded\tools\gcc-arm-none-eabi-10-2020-q4-major\arm-none-eabi\include\c++\10.2.1\bits\stl_heap.h ****       return std::__is_heap_until(__first, __n, __cmp) == __n;
 109:c:\programdata\chocolatey\lib\gcc-arm-embedded\tools\gcc-arm-none-eabi-10-2020-q4-major\arm-none-eabi\include\c++\10.2.1\bits\stl_heap.h ****     }
 110:c:\programdata\chocolatey\lib\gcc-arm-embedded\tools\gcc-arm-none-eabi-10-2020-q4-major\arm-none-eabi\include\c++\10.2.1\bits\stl_heap.h **** 
 111:c:\programdata\chocolatey\lib\gcc-arm-embedded\tools\gcc-arm-none-eabi-10-2020-q4-major\arm-none-eabi\include\c++\10.2.1\bits\stl_heap.h ****   template<typename _RandomAccessIterator>
 112:c:\programdata\chocolatey\lib\gcc-arm-embedded\tools\gcc-arm-none-eabi-10-2020-q4-major\arm-none-eabi\include\c++\10.2.1\bits\stl_heap.h ****     _GLIBCXX20_CONSTEXPR
 113:c:\programdata\chocolatey\lib\gcc-arm-embedded\tools\gcc-arm-none-eabi-10-2020-q4-major\arm-none-eabi\include\c++\10.2.1\bits\stl_heap.h ****     inline bool
 114:c:\programdata\chocolatey\lib\gcc-arm-embedded\tools\gcc-arm-none-eabi-10-2020-q4-major\arm-none-eabi\include\c++\10.2.1\bits\stl_heap.h ****     __is_heap(_RandomAccessIterator __first, _RandomAccessIterator __last)
 115:c:\programdata\chocolatey\lib\gcc-arm-embedded\tools\gcc-arm-none-eabi-10-2020-q4-major\arm-none-eabi\include\c++\10.2.1\bits\stl_heap.h ****     { return std::__is_heap(__first, std::distance(__first, __last)); }
 116:c:\programdata\chocolatey\lib\gcc-arm-embedded\tools\gcc-arm-none-eabi-10-2020-q4-major\arm-none-eabi\include\c++\10.2.1\bits\stl_heap.h **** 
 117:c:\programdata\chocolatey\lib\gcc-arm-embedded\tools\gcc-arm-none-eabi-10-2020-q4-major\arm-none-eabi\include\c++\10.2.1\bits\stl_heap.h ****   template<typename _RandomAccessIterator, typename _Compare>
 118:c:\programdata\chocolatey\lib\gcc-arm-embedded\tools\gcc-arm-none-eabi-10-2020-q4-major\arm-none-eabi\include\c++\10.2.1\bits\stl_heap.h ****     _GLIBCXX20_CONSTEXPR
 119:c:\programdata\chocolatey\lib\gcc-arm-embedded\tools\gcc-arm-none-eabi-10-2020-q4-major\arm-none-eabi\include\c++\10.2.1\bits\stl_heap.h ****     inline bool
 120:c:\programdata\chocolatey\lib\gcc-arm-embedded\tools\gcc-arm-none-eabi-10-2020-q4-major\arm-none-eabi\include\c++\10.2.1\bits\stl_heap.h ****     __is_heap(_RandomAccessIterator __first, _RandomAccessIterator __last,
 121:c:\programdata\chocolatey\lib\gcc-arm-embedded\tools\gcc-arm-none-eabi-10-2020-q4-major\arm-none-eabi\include\c++\10.2.1\bits\stl_heap.h **** 	      _Compare __comp)
 122:c:\programdata\chocolatey\lib\gcc-arm-embedded\tools\gcc-arm-none-eabi-10-2020-q4-major\arm-none-eabi\include\c++\10.2.1\bits\stl_heap.h ****     {
 123:c:\programdata\chocolatey\lib\gcc-arm-embedded\tools\gcc-arm-none-eabi-10-2020-q4-major\arm-none-eabi\include\c++\10.2.1\bits\stl_heap.h ****       return std::__is_heap(__first, _GLIBCXX_MOVE(__comp),
 124:c:\programdata\chocolatey\lib\gcc-arm-embedded\tools\gcc-arm-none-eabi-10-2020-q4-major\arm-none-eabi\include\c++\10.2.1\bits\stl_heap.h **** 			    std::distance(__first, __last));
 125:c:\programdata\chocolatey\lib\gcc-arm-embedded\tools\gcc-arm-none-eabi-10-2020-q4-major\arm-none-eabi\include\c++\10.2.1\bits\stl_heap.h ****     }
 126:c:\programdata\chocolatey\lib\gcc-arm-embedded\tools\gcc-arm-none-eabi-10-2020-q4-major\arm-none-eabi\include\c++\10.2.1\bits\stl_heap.h **** 
 127:c:\programdata\chocolatey\lib\gcc-arm-embedded\tools\gcc-arm-none-eabi-10-2020-q4-major\arm-none-eabi\include\c++\10.2.1\bits\stl_heap.h ****   // Heap-manipulation functions: push_heap, pop_heap, make_heap, sort_heap,
 128:c:\programdata\chocolatey\lib\gcc-arm-embedded\tools\gcc-arm-none-eabi-10-2020-q4-major\arm-none-eabi\include\c++\10.2.1\bits\stl_heap.h ****   // + is_heap and is_heap_until in C++0x.
 129:c:\programdata\chocolatey\lib\gcc-arm-embedded\tools\gcc-arm-none-eabi-10-2020-q4-major\arm-none-eabi\include\c++\10.2.1\bits\stl_heap.h **** 
 130:c:\programdata\chocolatey\lib\gcc-arm-embedded\tools\gcc-arm-none-eabi-10-2020-q4-major\arm-none-eabi\include\c++\10.2.1\bits\stl_heap.h ****   template<typename _RandomAccessIterator, typename _Distance, typename _Tp,
 131:c:\programdata\chocolatey\lib\gcc-arm-embedded\tools\gcc-arm-none-eabi-10-2020-q4-major\arm-none-eabi\include\c++\10.2.1\bits\stl_heap.h **** 	   typename _Compare>
 132:c:\programdata\chocolatey\lib\gcc-arm-embedded\tools\gcc-arm-none-eabi-10-2020-q4-major\arm-none-eabi\include\c++\10.2.1\bits\stl_heap.h ****     _GLIBCXX20_CONSTEXPR
 133:c:\programdata\chocolatey\lib\gcc-arm-embedded\tools\gcc-arm-none-eabi-10-2020-q4-major\arm-none-eabi\include\c++\10.2.1\bits\stl_heap.h ****     void
 134:c:\programdata\chocolatey\lib\gcc-arm-embedded\tools\gcc-arm-none-eabi-10-2020-q4-major\arm-none-eabi\include\c++\10.2.1\bits\stl_heap.h ****     __push_heap(_RandomAccessIterator __first,
 135:c:\programdata\chocolatey\lib\gcc-arm-embedded\tools\gcc-arm-none-eabi-10-2020-q4-major\arm-none-eabi\include\c++\10.2.1\bits\stl_heap.h **** 		_Distance __holeIndex, _Distance __topIndex, _Tp __value,
 136:c:\programdata\chocolatey\lib\gcc-arm-embedded\tools\gcc-arm-none-eabi-10-2020-q4-major\arm-none-eabi\include\c++\10.2.1\bits\stl_heap.h **** 		_Compare& __comp)
 137:c:\programdata\chocolatey\lib\gcc-arm-embedded\tools\gcc-arm-none-eabi-10-2020-q4-major\arm-none-eabi\include\c++\10.2.1\bits\stl_heap.h ****     {
 138:c:\programdata\chocolatey\lib\gcc-arm-embedded\tools\gcc-arm-none-eabi-10-2020-q4-major\arm-none-eabi\include\c++\10.2.1\bits\stl_heap.h ****       _Distance __parent = (__holeIndex - 1) / 2;
 139:c:\programdata\chocolatey\lib\gcc-arm-embedded\tools\gcc-arm-none-eabi-10-2020-q4-major\arm-none-eabi\include\c++\10.2.1\bits\stl_heap.h ****       while (__holeIndex > __topIndex && __comp(__first + __parent, __value))
 140:c:\programdata\chocolatey\lib\gcc-arm-embedded\tools\gcc-arm-none-eabi-10-2020-q4-major\arm-none-eabi\include\c++\10.2.1\bits\stl_heap.h **** 	{
 141:c:\programdata\chocolatey\lib\gcc-arm-embedded\tools\gcc-arm-none-eabi-10-2020-q4-major\arm-none-eabi\include\c++\10.2.1\bits\stl_heap.h **** 	  *(__first + __holeIndex) = _GLIBCXX_MOVE(*(__first + __parent));
 142:c:\programdata\chocolatey\lib\gcc-arm-embedded\tools\gcc-arm-none-eabi-10-2020-q4-major\arm-none-eabi\include\c++\10.2.1\bits\stl_heap.h **** 	  __holeIndex = __parent;
 143:c:\programdata\chocolatey\lib\gcc-arm-embedded\tools\gcc-arm-none-eabi-10-2020-q4-major\arm-none-eabi\include\c++\10.2.1\bits\stl_heap.h **** 	  __parent = (__holeIndex - 1) / 2;
 144:c:\programdata\chocolatey\lib\gcc-arm-embedded\tools\gcc-arm-none-eabi-10-2020-q4-major\arm-none-eabi\include\c++\10.2.1\bits\stl_heap.h **** 	}
 145:c:\programdata\chocolatey\lib\gcc-arm-embedded\tools\gcc-arm-none-eabi-10-2020-q4-major\arm-none-eabi\include\c++\10.2.1\bits\stl_heap.h ****       *(__first + __holeIndex) = _GLIBCXX_MOVE(__value);
ARM GAS  C:\Users\daniel\AppData\Local\Temp\ccXSGLh5.s 			page 4


 146:c:\programdata\chocolatey\lib\gcc-arm-embedded\tools\gcc-arm-none-eabi-10-2020-q4-major\arm-none-eabi\include\c++\10.2.1\bits\stl_heap.h ****     }
 147:c:\programdata\chocolatey\lib\gcc-arm-embedded\tools\gcc-arm-none-eabi-10-2020-q4-major\arm-none-eabi\include\c++\10.2.1\bits\stl_heap.h **** 
 148:c:\programdata\chocolatey\lib\gcc-arm-embedded\tools\gcc-arm-none-eabi-10-2020-q4-major\arm-none-eabi\include\c++\10.2.1\bits\stl_heap.h ****   /**
 149:c:\programdata\chocolatey\lib\gcc-arm-embedded\tools\gcc-arm-none-eabi-10-2020-q4-major\arm-none-eabi\include\c++\10.2.1\bits\stl_heap.h ****    *  @brief  Push an element onto a heap.
 150:c:\programdata\chocolatey\lib\gcc-arm-embedded\tools\gcc-arm-none-eabi-10-2020-q4-major\arm-none-eabi\include\c++\10.2.1\bits\stl_heap.h ****    *  @param  __first  Start of heap.
 151:c:\programdata\chocolatey\lib\gcc-arm-embedded\tools\gcc-arm-none-eabi-10-2020-q4-major\arm-none-eabi\include\c++\10.2.1\bits\stl_heap.h ****    *  @param  __last   End of heap + element.
 152:c:\programdata\chocolatey\lib\gcc-arm-embedded\tools\gcc-arm-none-eabi-10-2020-q4-major\arm-none-eabi\include\c++\10.2.1\bits\stl_heap.h ****    *  @ingroup heap_algorithms
 153:c:\programdata\chocolatey\lib\gcc-arm-embedded\tools\gcc-arm-none-eabi-10-2020-q4-major\arm-none-eabi\include\c++\10.2.1\bits\stl_heap.h ****    *
 154:c:\programdata\chocolatey\lib\gcc-arm-embedded\tools\gcc-arm-none-eabi-10-2020-q4-major\arm-none-eabi\include\c++\10.2.1\bits\stl_heap.h ****    *  This operation pushes the element at last-1 onto the valid heap
 155:c:\programdata\chocolatey\lib\gcc-arm-embedded\tools\gcc-arm-none-eabi-10-2020-q4-major\arm-none-eabi\include\c++\10.2.1\bits\stl_heap.h ****    *  over the range [__first,__last-1).  After completion,
 156:c:\programdata\chocolatey\lib\gcc-arm-embedded\tools\gcc-arm-none-eabi-10-2020-q4-major\arm-none-eabi\include\c++\10.2.1\bits\stl_heap.h ****    *  [__first,__last) is a valid heap.
 157:c:\programdata\chocolatey\lib\gcc-arm-embedded\tools\gcc-arm-none-eabi-10-2020-q4-major\arm-none-eabi\include\c++\10.2.1\bits\stl_heap.h ****   */
 158:c:\programdata\chocolatey\lib\gcc-arm-embedded\tools\gcc-arm-none-eabi-10-2020-q4-major\arm-none-eabi\include\c++\10.2.1\bits\stl_heap.h ****   template<typename _RandomAccessIterator>
 159:c:\programdata\chocolatey\lib\gcc-arm-embedded\tools\gcc-arm-none-eabi-10-2020-q4-major\arm-none-eabi\include\c++\10.2.1\bits\stl_heap.h ****     _GLIBCXX20_CONSTEXPR
 160:c:\programdata\chocolatey\lib\gcc-arm-embedded\tools\gcc-arm-none-eabi-10-2020-q4-major\arm-none-eabi\include\c++\10.2.1\bits\stl_heap.h ****     inline void
 161:c:\programdata\chocolatey\lib\gcc-arm-embedded\tools\gcc-arm-none-eabi-10-2020-q4-major\arm-none-eabi\include\c++\10.2.1\bits\stl_heap.h ****     push_heap(_RandomAccessIterator __first, _RandomAccessIterator __last)
 162:c:\programdata\chocolatey\lib\gcc-arm-embedded\tools\gcc-arm-none-eabi-10-2020-q4-major\arm-none-eabi\include\c++\10.2.1\bits\stl_heap.h ****     {
 163:c:\programdata\chocolatey\lib\gcc-arm-embedded\tools\gcc-arm-none-eabi-10-2020-q4-major\arm-none-eabi\include\c++\10.2.1\bits\stl_heap.h ****       typedef typename iterator_traits<_RandomAccessIterator>::value_type
 164:c:\programdata\chocolatey\lib\gcc-arm-embedded\tools\gcc-arm-none-eabi-10-2020-q4-major\arm-none-eabi\include\c++\10.2.1\bits\stl_heap.h **** 	  _ValueType;
 165:c:\programdata\chocolatey\lib\gcc-arm-embedded\tools\gcc-arm-none-eabi-10-2020-q4-major\arm-none-eabi\include\c++\10.2.1\bits\stl_heap.h ****       typedef typename iterator_traits<_RandomAccessIterator>::difference_type
 166:c:\programdata\chocolatey\lib\gcc-arm-embedded\tools\gcc-arm-none-eabi-10-2020-q4-major\arm-none-eabi\include\c++\10.2.1\bits\stl_heap.h **** 	  _DistanceType;
 167:c:\programdata\chocolatey\lib\gcc-arm-embedded\tools\gcc-arm-none-eabi-10-2020-q4-major\arm-none-eabi\include\c++\10.2.1\bits\stl_heap.h **** 
 168:c:\programdata\chocolatey\lib\gcc-arm-embedded\tools\gcc-arm-none-eabi-10-2020-q4-major\arm-none-eabi\include\c++\10.2.1\bits\stl_heap.h ****       // concept requirements
 169:c:\programdata\chocolatey\lib\gcc-arm-embedded\tools\gcc-arm-none-eabi-10-2020-q4-major\arm-none-eabi\include\c++\10.2.1\bits\stl_heap.h ****       __glibcxx_function_requires(_Mutable_RandomAccessIteratorConcept<
 170:c:\programdata\chocolatey\lib\gcc-arm-embedded\tools\gcc-arm-none-eabi-10-2020-q4-major\arm-none-eabi\include\c++\10.2.1\bits\stl_heap.h **** 	    _RandomAccessIterator>)
 171:c:\programdata\chocolatey\lib\gcc-arm-embedded\tools\gcc-arm-none-eabi-10-2020-q4-major\arm-none-eabi\include\c++\10.2.1\bits\stl_heap.h ****       __glibcxx_function_requires(_LessThanComparableConcept<_ValueType>)
 172:c:\programdata\chocolatey\lib\gcc-arm-embedded\tools\gcc-arm-none-eabi-10-2020-q4-major\arm-none-eabi\include\c++\10.2.1\bits\stl_heap.h ****       __glibcxx_requires_valid_range(__first, __last);
 173:c:\programdata\chocolatey\lib\gcc-arm-embedded\tools\gcc-arm-none-eabi-10-2020-q4-major\arm-none-eabi\include\c++\10.2.1\bits\stl_heap.h ****       __glibcxx_requires_irreflexive(__first, __last);
 174:c:\programdata\chocolatey\lib\gcc-arm-embedded\tools\gcc-arm-none-eabi-10-2020-q4-major\arm-none-eabi\include\c++\10.2.1\bits\stl_heap.h ****       __glibcxx_requires_heap(__first, __last - 1);
 175:c:\programdata\chocolatey\lib\gcc-arm-embedded\tools\gcc-arm-none-eabi-10-2020-q4-major\arm-none-eabi\include\c++\10.2.1\bits\stl_heap.h **** 
 176:c:\programdata\chocolatey\lib\gcc-arm-embedded\tools\gcc-arm-none-eabi-10-2020-q4-major\arm-none-eabi\include\c++\10.2.1\bits\stl_heap.h ****       __gnu_cxx::__ops::_Iter_less_val __comp;
 177:c:\programdata\chocolatey\lib\gcc-arm-embedded\tools\gcc-arm-none-eabi-10-2020-q4-major\arm-none-eabi\include\c++\10.2.1\bits\stl_heap.h ****       _ValueType __value = _GLIBCXX_MOVE(*(__last - 1));
 178:c:\programdata\chocolatey\lib\gcc-arm-embedded\tools\gcc-arm-none-eabi-10-2020-q4-major\arm-none-eabi\include\c++\10.2.1\bits\stl_heap.h ****       std::__push_heap(__first, _DistanceType((__last - __first) - 1),
 179:c:\programdata\chocolatey\lib\gcc-arm-embedded\tools\gcc-arm-none-eabi-10-2020-q4-major\arm-none-eabi\include\c++\10.2.1\bits\stl_heap.h **** 		       _DistanceType(0), _GLIBCXX_MOVE(__value), __comp);
 180:c:\programdata\chocolatey\lib\gcc-arm-embedded\tools\gcc-arm-none-eabi-10-2020-q4-major\arm-none-eabi\include\c++\10.2.1\bits\stl_heap.h ****     }
 181:c:\programdata\chocolatey\lib\gcc-arm-embedded\tools\gcc-arm-none-eabi-10-2020-q4-major\arm-none-eabi\include\c++\10.2.1\bits\stl_heap.h **** 
 182:c:\programdata\chocolatey\lib\gcc-arm-embedded\tools\gcc-arm-none-eabi-10-2020-q4-major\arm-none-eabi\include\c++\10.2.1\bits\stl_heap.h ****   /**
 183:c:\programdata\chocolatey\lib\gcc-arm-embedded\tools\gcc-arm-none-eabi-10-2020-q4-major\arm-none-eabi\include\c++\10.2.1\bits\stl_heap.h ****    *  @brief  Push an element onto a heap using comparison functor.
 184:c:\programdata\chocolatey\lib\gcc-arm-embedded\tools\gcc-arm-none-eabi-10-2020-q4-major\arm-none-eabi\include\c++\10.2.1\bits\stl_heap.h ****    *  @param  __first  Start of heap.
 185:c:\programdata\chocolatey\lib\gcc-arm-embedded\tools\gcc-arm-none-eabi-10-2020-q4-major\arm-none-eabi\include\c++\10.2.1\bits\stl_heap.h ****    *  @param  __last   End of heap + element.
 186:c:\programdata\chocolatey\lib\gcc-arm-embedded\tools\gcc-arm-none-eabi-10-2020-q4-major\arm-none-eabi\include\c++\10.2.1\bits\stl_heap.h ****    *  @param  __comp   Comparison functor.
 187:c:\programdata\chocolatey\lib\gcc-arm-embedded\tools\gcc-arm-none-eabi-10-2020-q4-major\arm-none-eabi\include\c++\10.2.1\bits\stl_heap.h ****    *  @ingroup heap_algorithms
 188:c:\programdata\chocolatey\lib\gcc-arm-embedded\tools\gcc-arm-none-eabi-10-2020-q4-major\arm-none-eabi\include\c++\10.2.1\bits\stl_heap.h ****    *
 189:c:\programdata\chocolatey\lib\gcc-arm-embedded\tools\gcc-arm-none-eabi-10-2020-q4-major\arm-none-eabi\include\c++\10.2.1\bits\stl_heap.h ****    *  This operation pushes the element at __last-1 onto the valid
 190:c:\programdata\chocolatey\lib\gcc-arm-embedded\tools\gcc-arm-none-eabi-10-2020-q4-major\arm-none-eabi\include\c++\10.2.1\bits\stl_heap.h ****    *  heap over the range [__first,__last-1).  After completion,
 191:c:\programdata\chocolatey\lib\gcc-arm-embedded\tools\gcc-arm-none-eabi-10-2020-q4-major\arm-none-eabi\include\c++\10.2.1\bits\stl_heap.h ****    *  [__first,__last) is a valid heap.  Compare operations are
 192:c:\programdata\chocolatey\lib\gcc-arm-embedded\tools\gcc-arm-none-eabi-10-2020-q4-major\arm-none-eabi\include\c++\10.2.1\bits\stl_heap.h ****    *  performed using comp.
 193:c:\programdata\chocolatey\lib\gcc-arm-embedded\tools\gcc-arm-none-eabi-10-2020-q4-major\arm-none-eabi\include\c++\10.2.1\bits\stl_heap.h ****   */
 194:c:\programdata\chocolatey\lib\gcc-arm-embedded\tools\gcc-arm-none-eabi-10-2020-q4-major\arm-none-eabi\include\c++\10.2.1\bits\stl_heap.h ****   template<typename _RandomAccessIterator, typename _Compare>
 195:c:\programdata\chocolatey\lib\gcc-arm-embedded\tools\gcc-arm-none-eabi-10-2020-q4-major\arm-none-eabi\include\c++\10.2.1\bits\stl_heap.h ****     _GLIBCXX20_CONSTEXPR
 196:c:\programdata\chocolatey\lib\gcc-arm-embedded\tools\gcc-arm-none-eabi-10-2020-q4-major\arm-none-eabi\include\c++\10.2.1\bits\stl_heap.h ****     inline void
 197:c:\programdata\chocolatey\lib\gcc-arm-embedded\tools\gcc-arm-none-eabi-10-2020-q4-major\arm-none-eabi\include\c++\10.2.1\bits\stl_heap.h ****     push_heap(_RandomAccessIterator __first, _RandomAccessIterator __last,
 198:c:\programdata\chocolatey\lib\gcc-arm-embedded\tools\gcc-arm-none-eabi-10-2020-q4-major\arm-none-eabi\include\c++\10.2.1\bits\stl_heap.h **** 	      _Compare __comp)
 199:c:\programdata\chocolatey\lib\gcc-arm-embedded\tools\gcc-arm-none-eabi-10-2020-q4-major\arm-none-eabi\include\c++\10.2.1\bits\stl_heap.h ****     {
 200:c:\programdata\chocolatey\lib\gcc-arm-embedded\tools\gcc-arm-none-eabi-10-2020-q4-major\arm-none-eabi\include\c++\10.2.1\bits\stl_heap.h ****       typedef typename iterator_traits<_RandomAccessIterator>::value_type
 201:c:\programdata\chocolatey\lib\gcc-arm-embedded\tools\gcc-arm-none-eabi-10-2020-q4-major\arm-none-eabi\include\c++\10.2.1\bits\stl_heap.h **** 	  _ValueType;
 202:c:\programdata\chocolatey\lib\gcc-arm-embedded\tools\gcc-arm-none-eabi-10-2020-q4-major\arm-none-eabi\include\c++\10.2.1\bits\stl_heap.h ****       typedef typename iterator_traits<_RandomAccessIterator>::difference_type
ARM GAS  C:\Users\daniel\AppData\Local\Temp\ccXSGLh5.s 			page 5


 203:c:\programdata\chocolatey\lib\gcc-arm-embedded\tools\gcc-arm-none-eabi-10-2020-q4-major\arm-none-eabi\include\c++\10.2.1\bits\stl_heap.h **** 	  _DistanceType;
 204:c:\programdata\chocolatey\lib\gcc-arm-embedded\tools\gcc-arm-none-eabi-10-2020-q4-major\arm-none-eabi\include\c++\10.2.1\bits\stl_heap.h **** 
 205:c:\programdata\chocolatey\lib\gcc-arm-embedded\tools\gcc-arm-none-eabi-10-2020-q4-major\arm-none-eabi\include\c++\10.2.1\bits\stl_heap.h ****       // concept requirements
 206:c:\programdata\chocolatey\lib\gcc-arm-embedded\tools\gcc-arm-none-eabi-10-2020-q4-major\arm-none-eabi\include\c++\10.2.1\bits\stl_heap.h ****       __glibcxx_function_requires(_Mutable_RandomAccessIteratorConcept<
 207:c:\programdata\chocolatey\lib\gcc-arm-embedded\tools\gcc-arm-none-eabi-10-2020-q4-major\arm-none-eabi\include\c++\10.2.1\bits\stl_heap.h **** 	    _RandomAccessIterator>)
 208:c:\programdata\chocolatey\lib\gcc-arm-embedded\tools\gcc-arm-none-eabi-10-2020-q4-major\arm-none-eabi\include\c++\10.2.1\bits\stl_heap.h ****       __glibcxx_requires_valid_range(__first, __last);
 209:c:\programdata\chocolatey\lib\gcc-arm-embedded\tools\gcc-arm-none-eabi-10-2020-q4-major\arm-none-eabi\include\c++\10.2.1\bits\stl_heap.h ****       __glibcxx_requires_irreflexive_pred(__first, __last, __comp);
 210:c:\programdata\chocolatey\lib\gcc-arm-embedded\tools\gcc-arm-none-eabi-10-2020-q4-major\arm-none-eabi\include\c++\10.2.1\bits\stl_heap.h ****       __glibcxx_requires_heap_pred(__first, __last - 1, __comp);
 211:c:\programdata\chocolatey\lib\gcc-arm-embedded\tools\gcc-arm-none-eabi-10-2020-q4-major\arm-none-eabi\include\c++\10.2.1\bits\stl_heap.h **** 
 212:c:\programdata\chocolatey\lib\gcc-arm-embedded\tools\gcc-arm-none-eabi-10-2020-q4-major\arm-none-eabi\include\c++\10.2.1\bits\stl_heap.h ****       __decltype(__gnu_cxx::__ops::__iter_comp_val(_GLIBCXX_MOVE(__comp)))
 213:c:\programdata\chocolatey\lib\gcc-arm-embedded\tools\gcc-arm-none-eabi-10-2020-q4-major\arm-none-eabi\include\c++\10.2.1\bits\stl_heap.h **** 	__cmp(_GLIBCXX_MOVE(__comp));
 214:c:\programdata\chocolatey\lib\gcc-arm-embedded\tools\gcc-arm-none-eabi-10-2020-q4-major\arm-none-eabi\include\c++\10.2.1\bits\stl_heap.h ****       _ValueType __value = _GLIBCXX_MOVE(*(__last - 1));
 215:c:\programdata\chocolatey\lib\gcc-arm-embedded\tools\gcc-arm-none-eabi-10-2020-q4-major\arm-none-eabi\include\c++\10.2.1\bits\stl_heap.h ****       std::__push_heap(__first, _DistanceType((__last - __first) - 1),
 216:c:\programdata\chocolatey\lib\gcc-arm-embedded\tools\gcc-arm-none-eabi-10-2020-q4-major\arm-none-eabi\include\c++\10.2.1\bits\stl_heap.h **** 		       _DistanceType(0), _GLIBCXX_MOVE(__value), __cmp);
 217:c:\programdata\chocolatey\lib\gcc-arm-embedded\tools\gcc-arm-none-eabi-10-2020-q4-major\arm-none-eabi\include\c++\10.2.1\bits\stl_heap.h ****     }
 218:c:\programdata\chocolatey\lib\gcc-arm-embedded\tools\gcc-arm-none-eabi-10-2020-q4-major\arm-none-eabi\include\c++\10.2.1\bits\stl_heap.h **** 
 219:c:\programdata\chocolatey\lib\gcc-arm-embedded\tools\gcc-arm-none-eabi-10-2020-q4-major\arm-none-eabi\include\c++\10.2.1\bits\stl_heap.h ****   template<typename _RandomAccessIterator, typename _Distance,
 220:c:\programdata\chocolatey\lib\gcc-arm-embedded\tools\gcc-arm-none-eabi-10-2020-q4-major\arm-none-eabi\include\c++\10.2.1\bits\stl_heap.h **** 	   typename _Tp, typename _Compare>
 221:c:\programdata\chocolatey\lib\gcc-arm-embedded\tools\gcc-arm-none-eabi-10-2020-q4-major\arm-none-eabi\include\c++\10.2.1\bits\stl_heap.h ****     _GLIBCXX20_CONSTEXPR
 222:c:\programdata\chocolatey\lib\gcc-arm-embedded\tools\gcc-arm-none-eabi-10-2020-q4-major\arm-none-eabi\include\c++\10.2.1\bits\stl_heap.h ****     void
 223:c:\programdata\chocolatey\lib\gcc-arm-embedded\tools\gcc-arm-none-eabi-10-2020-q4-major\arm-none-eabi\include\c++\10.2.1\bits\stl_heap.h ****     __adjust_heap(_RandomAccessIterator __first, _Distance __holeIndex,
  28              		.loc 1 223 5 view -0
  29              		.cfi_startproc
  30              		@ args = 0, pretend = 0, frame = 0
  31              		@ frame_needed = 0, uses_anonymous_args = 0
 224:c:\programdata\chocolatey\lib\gcc-arm-embedded\tools\gcc-arm-none-eabi-10-2020-q4-major\arm-none-eabi\include\c++\10.2.1\bits\stl_heap.h **** 		  _Distance __len, _Tp __value, _Compare __comp)
 225:c:\programdata\chocolatey\lib\gcc-arm-embedded\tools\gcc-arm-none-eabi-10-2020-q4-major\arm-none-eabi\include\c++\10.2.1\bits\stl_heap.h ****     {
 226:c:\programdata\chocolatey\lib\gcc-arm-embedded\tools\gcc-arm-none-eabi-10-2020-q4-major\arm-none-eabi\include\c++\10.2.1\bits\stl_heap.h ****       const _Distance __topIndex = __holeIndex;
 227:c:\programdata\chocolatey\lib\gcc-arm-embedded\tools\gcc-arm-none-eabi-10-2020-q4-major\arm-none-eabi\include\c++\10.2.1\bits\stl_heap.h ****       _Distance __secondChild = __holeIndex;
 228:c:\programdata\chocolatey\lib\gcc-arm-embedded\tools\gcc-arm-none-eabi-10-2020-q4-major\arm-none-eabi\include\c++\10.2.1\bits\stl_heap.h ****       while (__secondChild < (__len - 1) / 2)
  32              		.loc 1 228 37 is_stmt 0 view .LVU1
  33 0000 531E     		subs	r3, r2, #1
  34              		.loc 1 228 42 view .LVU2
  35 0002 03EBD373 		add	r3, r3, r3, lsr #31
 223:c:\programdata\chocolatey\lib\gcc-arm-embedded\tools\gcc-arm-none-eabi-10-2020-q4-major\arm-none-eabi\include\c++\10.2.1\bits\stl_heap.h **** 		  _Distance __len, _Tp __value, _Compare __comp)
  36              		.loc 1 223 5 view .LVU3
  37 0006 F0B5     		push	{r4, r5, r6, r7, lr}
  38              		.cfi_def_cfa_offset 20
  39              		.cfi_offset 4, -20
  40              		.cfi_offset 5, -16
  41              		.cfi_offset 6, -12
  42              		.cfi_offset 7, -8
  43              		.cfi_offset 14, -4
  44              		.loc 1 228 42 view .LVU4
  45 0008 5D10     		asrs	r5, r3, #1
  46 000a 0B46     		mov	r3, r1
  47              	.LVL1:
  48              	.L5:
  49              		.loc 1 228 28 is_stmt 1 view .LVU5
  50 000c 9D42     		cmp	r5, r3
  51 000e 4FEA8304 		lsl	r4, r3, #2
  52 0012 14DD     		ble	.L2
 229:c:\programdata\chocolatey\lib\gcc-arm-embedded\tools\gcc-arm-none-eabi-10-2020-q4-major\arm-none-eabi\include\c++\10.2.1\bits\stl_heap.h **** 	{
 230:c:\programdata\chocolatey\lib\gcc-arm-embedded\tools\gcc-arm-none-eabi-10-2020-q4-major\arm-none-eabi\include\c++\10.2.1\bits\stl_heap.h **** 	  __secondChild = 2 * (__secondChild + 1);
  53              		.loc 1 230 39 is_stmt 0 view .LVU6
  54 0014 5E1C     		adds	r6, r3, #1
 231:c:\programdata\chocolatey\lib\gcc-arm-embedded\tools\gcc-arm-none-eabi-10-2020-q4-major\arm-none-eabi\include\c++\10.2.1\bits\stl_heap.h **** 	  if (__comp(__first + __secondChild,
ARM GAS  C:\Users\daniel\AppData\Local\Temp\ccXSGLh5.s 			page 6


 232:c:\programdata\chocolatey\lib\gcc-arm-embedded\tools\gcc-arm-none-eabi-10-2020-q4-major\arm-none-eabi\include\c++\10.2.1\bits\stl_heap.h **** 		     __first + (__secondChild - 1)))
 233:c:\programdata\chocolatey\lib\gcc-arm-embedded\tools\gcc-arm-none-eabi-10-2020-q4-major\arm-none-eabi\include\c++\10.2.1\bits\stl_heap.h **** 	    __secondChild--;
 234:c:\programdata\chocolatey\lib\gcc-arm-embedded\tools\gcc-arm-none-eabi-10-2020-q4-major\arm-none-eabi\include\c++\10.2.1\bits\stl_heap.h **** 	  *(__first + __holeIndex) = _GLIBCXX_MOVE(*(__first + __secondChild));
  55              		.loc 1 234 29 view .LVU7
  56 0016 0444     		add	r4, r4, r0
  57              	.LBB790:
  58              	.LBB791:
  59              		.file 2 "c:\\programdata\\chocolatey\\lib\\gcc-arm-embedded\\tools\\gcc-arm-none-eabi-10-2020-q4-m
   1:c:\programdata\chocolatey\lib\gcc-arm-embedded\tools\gcc-arm-none-eabi-10-2020-q4-major\arm-none-eabi\include\c++\10.2.1\bits\predefined_ops.h **** // Default predicates for internal use -*- C++ -*-
   2:c:\programdata\chocolatey\lib\gcc-arm-embedded\tools\gcc-arm-none-eabi-10-2020-q4-major\arm-none-eabi\include\c++\10.2.1\bits\predefined_ops.h **** 
   3:c:\programdata\chocolatey\lib\gcc-arm-embedded\tools\gcc-arm-none-eabi-10-2020-q4-major\arm-none-eabi\include\c++\10.2.1\bits\predefined_ops.h **** // Copyright (C) 2013-2020 Free Software Foundation, Inc.
   4:c:\programdata\chocolatey\lib\gcc-arm-embedded\tools\gcc-arm-none-eabi-10-2020-q4-major\arm-none-eabi\include\c++\10.2.1\bits\predefined_ops.h **** //
   5:c:\programdata\chocolatey\lib\gcc-arm-embedded\tools\gcc-arm-none-eabi-10-2020-q4-major\arm-none-eabi\include\c++\10.2.1\bits\predefined_ops.h **** // This file is part of the GNU ISO C++ Library.  This library is free
   6:c:\programdata\chocolatey\lib\gcc-arm-embedded\tools\gcc-arm-none-eabi-10-2020-q4-major\arm-none-eabi\include\c++\10.2.1\bits\predefined_ops.h **** // software; you can redistribute it and/or modify it under the
   7:c:\programdata\chocolatey\lib\gcc-arm-embedded\tools\gcc-arm-none-eabi-10-2020-q4-major\arm-none-eabi\include\c++\10.2.1\bits\predefined_ops.h **** // terms of the GNU General Public License as published by the
   8:c:\programdata\chocolatey\lib\gcc-arm-embedded\tools\gcc-arm-none-eabi-10-2020-q4-major\arm-none-eabi\include\c++\10.2.1\bits\predefined_ops.h **** // Free Software Foundation; either version 3, or (at your option)
   9:c:\programdata\chocolatey\lib\gcc-arm-embedded\tools\gcc-arm-none-eabi-10-2020-q4-major\arm-none-eabi\include\c++\10.2.1\bits\predefined_ops.h **** // any later version.
  10:c:\programdata\chocolatey\lib\gcc-arm-embedded\tools\gcc-arm-none-eabi-10-2020-q4-major\arm-none-eabi\include\c++\10.2.1\bits\predefined_ops.h **** 
  11:c:\programdata\chocolatey\lib\gcc-arm-embedded\tools\gcc-arm-none-eabi-10-2020-q4-major\arm-none-eabi\include\c++\10.2.1\bits\predefined_ops.h **** // This library is distributed in the hope that it will be useful,
  12:c:\programdata\chocolatey\lib\gcc-arm-embedded\tools\gcc-arm-none-eabi-10-2020-q4-major\arm-none-eabi\include\c++\10.2.1\bits\predefined_ops.h **** // but WITHOUT ANY WARRANTY; without even the implied warranty of
  13:c:\programdata\chocolatey\lib\gcc-arm-embedded\tools\gcc-arm-none-eabi-10-2020-q4-major\arm-none-eabi\include\c++\10.2.1\bits\predefined_ops.h **** // MERCHANTABILITY or FITNESS FOR A PARTICULAR PURPOSE.  See the
  14:c:\programdata\chocolatey\lib\gcc-arm-embedded\tools\gcc-arm-none-eabi-10-2020-q4-major\arm-none-eabi\include\c++\10.2.1\bits\predefined_ops.h **** // GNU General Public License for more details.
  15:c:\programdata\chocolatey\lib\gcc-arm-embedded\tools\gcc-arm-none-eabi-10-2020-q4-major\arm-none-eabi\include\c++\10.2.1\bits\predefined_ops.h **** 
  16:c:\programdata\chocolatey\lib\gcc-arm-embedded\tools\gcc-arm-none-eabi-10-2020-q4-major\arm-none-eabi\include\c++\10.2.1\bits\predefined_ops.h **** // Under Section 7 of GPL version 3, you are granted additional
  17:c:\programdata\chocolatey\lib\gcc-arm-embedded\tools\gcc-arm-none-eabi-10-2020-q4-major\arm-none-eabi\include\c++\10.2.1\bits\predefined_ops.h **** // permissions described in the GCC Runtime Library Exception, version
  18:c:\programdata\chocolatey\lib\gcc-arm-embedded\tools\gcc-arm-none-eabi-10-2020-q4-major\arm-none-eabi\include\c++\10.2.1\bits\predefined_ops.h **** // 3.1, as published by the Free Software Foundation.
  19:c:\programdata\chocolatey\lib\gcc-arm-embedded\tools\gcc-arm-none-eabi-10-2020-q4-major\arm-none-eabi\include\c++\10.2.1\bits\predefined_ops.h **** 
  20:c:\programdata\chocolatey\lib\gcc-arm-embedded\tools\gcc-arm-none-eabi-10-2020-q4-major\arm-none-eabi\include\c++\10.2.1\bits\predefined_ops.h **** // You should have received a copy of the GNU General Public License and
  21:c:\programdata\chocolatey\lib\gcc-arm-embedded\tools\gcc-arm-none-eabi-10-2020-q4-major\arm-none-eabi\include\c++\10.2.1\bits\predefined_ops.h **** // a copy of the GCC Runtime Library Exception along with this program;
  22:c:\programdata\chocolatey\lib\gcc-arm-embedded\tools\gcc-arm-none-eabi-10-2020-q4-major\arm-none-eabi\include\c++\10.2.1\bits\predefined_ops.h **** // see the files COPYING3 and COPYING.RUNTIME respectively.  If not, see
  23:c:\programdata\chocolatey\lib\gcc-arm-embedded\tools\gcc-arm-none-eabi-10-2020-q4-major\arm-none-eabi\include\c++\10.2.1\bits\predefined_ops.h **** // <http://www.gnu.org/licenses/>.
  24:c:\programdata\chocolatey\lib\gcc-arm-embedded\tools\gcc-arm-none-eabi-10-2020-q4-major\arm-none-eabi\include\c++\10.2.1\bits\predefined_ops.h **** 
  25:c:\programdata\chocolatey\lib\gcc-arm-embedded\tools\gcc-arm-none-eabi-10-2020-q4-major\arm-none-eabi\include\c++\10.2.1\bits\predefined_ops.h **** /** @file predefined_ops.h
  26:c:\programdata\chocolatey\lib\gcc-arm-embedded\tools\gcc-arm-none-eabi-10-2020-q4-major\arm-none-eabi\include\c++\10.2.1\bits\predefined_ops.h ****  *  This is an internal header file, included by other library headers.
  27:c:\programdata\chocolatey\lib\gcc-arm-embedded\tools\gcc-arm-none-eabi-10-2020-q4-major\arm-none-eabi\include\c++\10.2.1\bits\predefined_ops.h ****  *  You should not attempt to use it directly. @headername{algorithm}
  28:c:\programdata\chocolatey\lib\gcc-arm-embedded\tools\gcc-arm-none-eabi-10-2020-q4-major\arm-none-eabi\include\c++\10.2.1\bits\predefined_ops.h ****  */
  29:c:\programdata\chocolatey\lib\gcc-arm-embedded\tools\gcc-arm-none-eabi-10-2020-q4-major\arm-none-eabi\include\c++\10.2.1\bits\predefined_ops.h **** 
  30:c:\programdata\chocolatey\lib\gcc-arm-embedded\tools\gcc-arm-none-eabi-10-2020-q4-major\arm-none-eabi\include\c++\10.2.1\bits\predefined_ops.h **** #ifndef _GLIBCXX_PREDEFINED_OPS_H
  31:c:\programdata\chocolatey\lib\gcc-arm-embedded\tools\gcc-arm-none-eabi-10-2020-q4-major\arm-none-eabi\include\c++\10.2.1\bits\predefined_ops.h **** #define _GLIBCXX_PREDEFINED_OPS_H	1
  32:c:\programdata\chocolatey\lib\gcc-arm-embedded\tools\gcc-arm-none-eabi-10-2020-q4-major\arm-none-eabi\include\c++\10.2.1\bits\predefined_ops.h **** 
  33:c:\programdata\chocolatey\lib\gcc-arm-embedded\tools\gcc-arm-none-eabi-10-2020-q4-major\arm-none-eabi\include\c++\10.2.1\bits\predefined_ops.h **** namespace __gnu_cxx
  34:c:\programdata\chocolatey\lib\gcc-arm-embedded\tools\gcc-arm-none-eabi-10-2020-q4-major\arm-none-eabi\include\c++\10.2.1\bits\predefined_ops.h **** {
  35:c:\programdata\chocolatey\lib\gcc-arm-embedded\tools\gcc-arm-none-eabi-10-2020-q4-major\arm-none-eabi\include\c++\10.2.1\bits\predefined_ops.h **** namespace __ops
  36:c:\programdata\chocolatey\lib\gcc-arm-embedded\tools\gcc-arm-none-eabi-10-2020-q4-major\arm-none-eabi\include\c++\10.2.1\bits\predefined_ops.h **** {
  37:c:\programdata\chocolatey\lib\gcc-arm-embedded\tools\gcc-arm-none-eabi-10-2020-q4-major\arm-none-eabi\include\c++\10.2.1\bits\predefined_ops.h ****   struct _Iter_less_iter
  38:c:\programdata\chocolatey\lib\gcc-arm-embedded\tools\gcc-arm-none-eabi-10-2020-q4-major\arm-none-eabi\include\c++\10.2.1\bits\predefined_ops.h ****   {
  39:c:\programdata\chocolatey\lib\gcc-arm-embedded\tools\gcc-arm-none-eabi-10-2020-q4-major\arm-none-eabi\include\c++\10.2.1\bits\predefined_ops.h ****     template<typename _Iterator1, typename _Iterator2>
  40:c:\programdata\chocolatey\lib\gcc-arm-embedded\tools\gcc-arm-none-eabi-10-2020-q4-major\arm-none-eabi\include\c++\10.2.1\bits\predefined_ops.h ****       _GLIBCXX14_CONSTEXPR
  41:c:\programdata\chocolatey\lib\gcc-arm-embedded\tools\gcc-arm-none-eabi-10-2020-q4-major\arm-none-eabi\include\c++\10.2.1\bits\predefined_ops.h ****       bool
  42:c:\programdata\chocolatey\lib\gcc-arm-embedded\tools\gcc-arm-none-eabi-10-2020-q4-major\arm-none-eabi\include\c++\10.2.1\bits\predefined_ops.h ****       operator()(_Iterator1 __it1, _Iterator2 __it2) const
  43:c:\programdata\chocolatey\lib\gcc-arm-embedded\tools\gcc-arm-none-eabi-10-2020-q4-major\arm-none-eabi\include\c++\10.2.1\bits\predefined_ops.h ****       { return *__it1 < *__it2; }
  60              		.loc 2 43 23 view .LVU8
  61 0018 00EBC607 		add	r7, r0, r6, lsl #3
  62              	.LBE791:
  63              	.LBE790:
 230:c:\programdata\chocolatey\lib\gcc-arm-embedded\tools\gcc-arm-none-eabi-10-2020-q4-major\arm-none-eabi\include\c++\10.2.1\bits\stl_heap.h **** 	  if (__comp(__first + __secondChild,
  64              		.loc 1 230 18 view .LVU9
ARM GAS  C:\Users\daniel\AppData\Local\Temp\ccXSGLh5.s 			page 7


  65 001c 7300     		lsls	r3, r6, #1
  66              	.LVL2:
  67              	.LBB792:
  68              	.LBI790:
  42:c:\programdata\chocolatey\lib\gcc-arm-embedded\tools\gcc-arm-none-eabi-10-2020-q4-major\arm-none-eabi\include\c++\10.2.1\bits\predefined_ops.h ****       { return *__it1 < *__it2; }
  69              		.loc 2 42 7 is_stmt 1 view .LVU10
  42:c:\programdata\chocolatey\lib\gcc-arm-embedded\tools\gcc-arm-none-eabi-10-2020-q4-major\arm-none-eabi\include\c++\10.2.1\bits\predefined_ops.h ****       { return *__it1 < *__it2; }
  70              		.loc 2 42 7 is_stmt 0 view .LVU11
  71              	.LBE792:
 231:c:\programdata\chocolatey\lib\gcc-arm-embedded\tools\gcc-arm-none-eabi-10-2020-q4-major\arm-none-eabi\include\c++\10.2.1\bits\stl_heap.h **** 		     __first + (__secondChild - 1)))
  72              		.loc 1 231 4 view .LVU12
  73 001e 97ED007A 		vldr.32	s14, [r7]
  74 0022 57ED017A 		vldr.32	s15, [r7, #-4]
  75 0026 B4EEE77A 		vcmpe.f32	s14, s15
  76 002a F1EE10FA 		vmrs	APSR_nzcv, FPSCR
 233:c:\programdata\chocolatey\lib\gcc-arm-embedded\tools\gcc-arm-none-eabi-10-2020-q4-major\arm-none-eabi\include\c++\10.2.1\bits\stl_heap.h **** 	  *(__first + __holeIndex) = _GLIBCXX_MOVE(*(__first + __secondChild));
  77              		.loc 1 233 6 view .LVU13
  78 002e 48BF     		it	mi
  79 0030 03F1FF33 		addmi	r3, r3, #-1
  80              	.LVL3:
  81              		.loc 1 234 29 view .LVU14
  82 0034 00EB8306 		add	r6, r0, r3, lsl #2
  83              	.LVL4:
  84              		.loc 1 234 29 view .LVU15
  85 0038 3668     		ldr	r6, [r6]	@ float
  86 003a 2660     		str	r6, [r4]	@ float
  87              	.LVL5:
 228:c:\programdata\chocolatey\lib\gcc-arm-embedded\tools\gcc-arm-none-eabi-10-2020-q4-major\arm-none-eabi\include\c++\10.2.1\bits\stl_heap.h **** 	{
  88              		.loc 1 228 7 view .LVU16
  89 003c E6E7     		b	.L5
  90              	.LVL6:
  91              	.L2:
 235:c:\programdata\chocolatey\lib\gcc-arm-embedded\tools\gcc-arm-none-eabi-10-2020-q4-major\arm-none-eabi\include\c++\10.2.1\bits\stl_heap.h **** 	  __holeIndex = __secondChild;
 236:c:\programdata\chocolatey\lib\gcc-arm-embedded\tools\gcc-arm-none-eabi-10-2020-q4-major\arm-none-eabi\include\c++\10.2.1\bits\stl_heap.h **** 	}
 237:c:\programdata\chocolatey\lib\gcc-arm-embedded\tools\gcc-arm-none-eabi-10-2020-q4-major\arm-none-eabi\include\c++\10.2.1\bits\stl_heap.h ****       if ((__len & 1) == 0 && __secondChild == (__len - 2) / 2)
  92              		.loc 1 237 7 view .LVU17
  93 003e D507     		lsls	r5, r2, #31
  94 0040 0ED4     		bmi	.L6
  95              		.loc 1 237 55 view .LVU18
  96 0042 023A     		subs	r2, r2, #2
  97              	.LVL7:
  98              		.loc 1 237 60 view .LVU19
  99 0044 02EBD272 		add	r2, r2, r2, lsr #31
 100              	.LVL8:
 101              		.loc 1 237 28 view .LVU20
 102 0048 B3EB620F 		cmp	r3, r2, asr #1
 103 004c 08D1     		bne	.L6
 238:c:\programdata\chocolatey\lib\gcc-arm-embedded\tools\gcc-arm-none-eabi-10-2020-q4-major\arm-none-eabi\include\c++\10.2.1\bits\stl_heap.h **** 	{
 239:c:\programdata\chocolatey\lib\gcc-arm-embedded\tools\gcc-arm-none-eabi-10-2020-q4-major\arm-none-eabi\include\c++\10.2.1\bits\stl_heap.h **** 	  __secondChild = 2 * (__secondChild + 1);
 104              		.loc 1 239 39 view .LVU21
 105 004e 0133     		adds	r3, r3, #1
 106              	.LVL9:
 240:c:\programdata\chocolatey\lib\gcc-arm-embedded\tools\gcc-arm-none-eabi-10-2020-q4-major\arm-none-eabi\include\c++\10.2.1\bits\stl_heap.h **** 	  *(__first + __holeIndex) = _GLIBCXX_MOVE(*(__first
 107              		.loc 1 240 29 view .LVU22
 108 0050 0444     		add	r4, r4, r0
 239:c:\programdata\chocolatey\lib\gcc-arm-embedded\tools\gcc-arm-none-eabi-10-2020-q4-major\arm-none-eabi\include\c++\10.2.1\bits\stl_heap.h **** 	  *(__first + __holeIndex) = _GLIBCXX_MOVE(*(__first
 109              		.loc 1 239 18 view .LVU23
ARM GAS  C:\Users\daniel\AppData\Local\Temp\ccXSGLh5.s 			page 8


 110 0052 5A00     		lsls	r2, r3, #1
 111              	.LVL10:
 112              		.loc 1 240 29 view .LVU24
 113 0054 00EBC303 		add	r3, r0, r3, lsl #3
 114              	.LVL11:
 115              		.loc 1 240 29 view .LVU25
 116 0058 53F8043C 		ldr	r3, [r3, #-4]	@ float
 117 005c 2360     		str	r3, [r4]	@ float
 241:c:\programdata\chocolatey\lib\gcc-arm-embedded\tools\gcc-arm-none-eabi-10-2020-q4-major\arm-none-eabi\include\c++\10.2.1\bits\stl_heap.h **** 						     + (__secondChild - 1)));
 242:c:\programdata\chocolatey\lib\gcc-arm-embedded\tools\gcc-arm-none-eabi-10-2020-q4-major\arm-none-eabi\include\c++\10.2.1\bits\stl_heap.h **** 	  __holeIndex = __secondChild - 1;
 118              		.loc 1 242 16 view .LVU26
 119 005e 531E     		subs	r3, r2, #1
 120              	.LVL12:
 121              	.L6:
 122              	.LBB793:
 123              	.LBI793:
  44:c:\programdata\chocolatey\lib\gcc-arm-embedded\tools\gcc-arm-none-eabi-10-2020-q4-major\arm-none-eabi\include\c++\10.2.1\bits\predefined_ops.h ****   };
  45:c:\programdata\chocolatey\lib\gcc-arm-embedded\tools\gcc-arm-none-eabi-10-2020-q4-major\arm-none-eabi\include\c++\10.2.1\bits\predefined_ops.h **** 
  46:c:\programdata\chocolatey\lib\gcc-arm-embedded\tools\gcc-arm-none-eabi-10-2020-q4-major\arm-none-eabi\include\c++\10.2.1\bits\predefined_ops.h ****   _GLIBCXX14_CONSTEXPR
  47:c:\programdata\chocolatey\lib\gcc-arm-embedded\tools\gcc-arm-none-eabi-10-2020-q4-major\arm-none-eabi\include\c++\10.2.1\bits\predefined_ops.h ****   inline _Iter_less_iter
  48:c:\programdata\chocolatey\lib\gcc-arm-embedded\tools\gcc-arm-none-eabi-10-2020-q4-major\arm-none-eabi\include\c++\10.2.1\bits\predefined_ops.h ****   __iter_less_iter()
  49:c:\programdata\chocolatey\lib\gcc-arm-embedded\tools\gcc-arm-none-eabi-10-2020-q4-major\arm-none-eabi\include\c++\10.2.1\bits\predefined_ops.h ****   { return _Iter_less_iter(); }
  50:c:\programdata\chocolatey\lib\gcc-arm-embedded\tools\gcc-arm-none-eabi-10-2020-q4-major\arm-none-eabi\include\c++\10.2.1\bits\predefined_ops.h **** 
  51:c:\programdata\chocolatey\lib\gcc-arm-embedded\tools\gcc-arm-none-eabi-10-2020-q4-major\arm-none-eabi\include\c++\10.2.1\bits\predefined_ops.h ****   struct _Iter_less_val
  52:c:\programdata\chocolatey\lib\gcc-arm-embedded\tools\gcc-arm-none-eabi-10-2020-q4-major\arm-none-eabi\include\c++\10.2.1\bits\predefined_ops.h ****   {
  53:c:\programdata\chocolatey\lib\gcc-arm-embedded\tools\gcc-arm-none-eabi-10-2020-q4-major\arm-none-eabi\include\c++\10.2.1\bits\predefined_ops.h **** #if __cplusplus >= 201103L
  54:c:\programdata\chocolatey\lib\gcc-arm-embedded\tools\gcc-arm-none-eabi-10-2020-q4-major\arm-none-eabi\include\c++\10.2.1\bits\predefined_ops.h ****     constexpr _Iter_less_val() = default;
  55:c:\programdata\chocolatey\lib\gcc-arm-embedded\tools\gcc-arm-none-eabi-10-2020-q4-major\arm-none-eabi\include\c++\10.2.1\bits\predefined_ops.h **** #else
  56:c:\programdata\chocolatey\lib\gcc-arm-embedded\tools\gcc-arm-none-eabi-10-2020-q4-major\arm-none-eabi\include\c++\10.2.1\bits\predefined_ops.h ****     _Iter_less_val() { }
  57:c:\programdata\chocolatey\lib\gcc-arm-embedded\tools\gcc-arm-none-eabi-10-2020-q4-major\arm-none-eabi\include\c++\10.2.1\bits\predefined_ops.h **** #endif
  58:c:\programdata\chocolatey\lib\gcc-arm-embedded\tools\gcc-arm-none-eabi-10-2020-q4-major\arm-none-eabi\include\c++\10.2.1\bits\predefined_ops.h **** 
  59:c:\programdata\chocolatey\lib\gcc-arm-embedded\tools\gcc-arm-none-eabi-10-2020-q4-major\arm-none-eabi\include\c++\10.2.1\bits\predefined_ops.h ****     _GLIBCXX20_CONSTEXPR
  60:c:\programdata\chocolatey\lib\gcc-arm-embedded\tools\gcc-arm-none-eabi-10-2020-q4-major\arm-none-eabi\include\c++\10.2.1\bits\predefined_ops.h ****     explicit
  61:c:\programdata\chocolatey\lib\gcc-arm-embedded\tools\gcc-arm-none-eabi-10-2020-q4-major\arm-none-eabi\include\c++\10.2.1\bits\predefined_ops.h ****     _Iter_less_val(_Iter_less_iter) { }
 124              		.loc 2 61 5 is_stmt 1 view .LVU27
 125              		.loc 2 61 5 is_stmt 0 view .LVU28
 126              	.LBE793:
 127              	.LBB794:
 128              	.LBI794:
 134:c:\programdata\chocolatey\lib\gcc-arm-embedded\tools\gcc-arm-none-eabi-10-2020-q4-major\arm-none-eabi\include\c++\10.2.1\bits\stl_heap.h **** 		_Distance __holeIndex, _Distance __topIndex, _Tp __value,
 129              		.loc 1 134 5 is_stmt 1 view .LVU29
 130              	.LBB795:
 138:c:\programdata\chocolatey\lib\gcc-arm-embedded\tools\gcc-arm-none-eabi-10-2020-q4-major\arm-none-eabi\include\c++\10.2.1\bits\stl_heap.h ****       while (__holeIndex > __topIndex && __comp(__first + __parent, __value))
 131              		.loc 1 138 41 is_stmt 0 view .LVU30
 132 0060 5A1E     		subs	r2, r3, #1
 138:c:\programdata\chocolatey\lib\gcc-arm-embedded\tools\gcc-arm-none-eabi-10-2020-q4-major\arm-none-eabi\include\c++\10.2.1\bits\stl_heap.h ****       while (__holeIndex > __topIndex && __comp(__first + __parent, __value))
 133              		.loc 1 138 17 view .LVU31
 134 0062 02EBD272 		add	r2, r2, r2, lsr #31
 135 0066 5210     		asrs	r2, r2, #1
 136              	.LVL13:
 137              	.L9:
 139:c:\programdata\chocolatey\lib\gcc-arm-embedded\tools\gcc-arm-none-eabi-10-2020-q4-major\arm-none-eabi\include\c++\10.2.1\bits\stl_heap.h **** 	{
 138              		.loc 1 139 39 is_stmt 1 view .LVU32
 139 0068 9942     		cmp	r1, r3
 141:c:\programdata\chocolatey\lib\gcc-arm-embedded\tools\gcc-arm-none-eabi-10-2020-q4-major\arm-none-eabi\include\c++\10.2.1\bits\stl_heap.h **** 	  __holeIndex = __parent;
 140              		.loc 1 141 14 is_stmt 0 view .LVU33
 141 006a 00EB8304 		add	r4, r0, r3, lsl #2
ARM GAS  C:\Users\daniel\AppData\Local\Temp\ccXSGLh5.s 			page 9


 139:c:\programdata\chocolatey\lib\gcc-arm-embedded\tools\gcc-arm-none-eabi-10-2020-q4-major\arm-none-eabi\include\c++\10.2.1\bits\stl_heap.h **** 	{
 142              		.loc 1 139 39 view .LVU34
 143 006e 10DA     		bge	.L7
 144              	.LVL14:
 145              	.LBB796:
 146              	.LBI796:
  62:c:\programdata\chocolatey\lib\gcc-arm-embedded\tools\gcc-arm-none-eabi-10-2020-q4-major\arm-none-eabi\include\c++\10.2.1\bits\predefined_ops.h **** 
  63:c:\programdata\chocolatey\lib\gcc-arm-embedded\tools\gcc-arm-none-eabi-10-2020-q4-major\arm-none-eabi\include\c++\10.2.1\bits\predefined_ops.h ****     template<typename _Iterator, typename _Value>
  64:c:\programdata\chocolatey\lib\gcc-arm-embedded\tools\gcc-arm-none-eabi-10-2020-q4-major\arm-none-eabi\include\c++\10.2.1\bits\predefined_ops.h ****       _GLIBCXX20_CONSTEXPR
  65:c:\programdata\chocolatey\lib\gcc-arm-embedded\tools\gcc-arm-none-eabi-10-2020-q4-major\arm-none-eabi\include\c++\10.2.1\bits\predefined_ops.h ****       bool
  66:c:\programdata\chocolatey\lib\gcc-arm-embedded\tools\gcc-arm-none-eabi-10-2020-q4-major\arm-none-eabi\include\c++\10.2.1\bits\predefined_ops.h ****       operator()(_Iterator __it, _Value& __val) const
 147              		.loc 2 66 7 is_stmt 1 view .LVU35
 148              	.LBB797:
  67:c:\programdata\chocolatey\lib\gcc-arm-embedded\tools\gcc-arm-none-eabi-10-2020-q4-major\arm-none-eabi\include\c++\10.2.1\bits\predefined_ops.h ****       { return *__it < __val; }
 149              		.loc 2 67 22 is_stmt 0 view .LVU36
 150 0070 00EB8203 		add	r3, r0, r2, lsl #2
 151              	.LVL15:
 152              		.loc 2 67 22 view .LVU37
 153 0074 D3ED007A 		vldr.32	s15, [r3]
 154              	.LVL16:
 155              		.loc 2 67 22 view .LVU38
 156              	.LBE797:
 157              	.LBE796:
 139:c:\programdata\chocolatey\lib\gcc-arm-embedded\tools\gcc-arm-none-eabi-10-2020-q4-major\arm-none-eabi\include\c++\10.2.1\bits\stl_heap.h **** 	{
 158              		.loc 1 139 39 view .LVU39
 159 0078 B4EEE70A 		vcmpe.f32	s0, s15
 160 007c F1EE10FA 		vmrs	APSR_nzcv, FPSCR
 161 0080 07DD     		ble	.L7
 143:c:\programdata\chocolatey\lib\gcc-arm-embedded\tools\gcc-arm-none-eabi-10-2020-q4-major\arm-none-eabi\include\c++\10.2.1\bits\stl_heap.h **** 	}
 162              		.loc 1 143 28 view .LVU40
 163 0082 531E     		subs	r3, r2, #1
 141:c:\programdata\chocolatey\lib\gcc-arm-embedded\tools\gcc-arm-none-eabi-10-2020-q4-major\arm-none-eabi\include\c++\10.2.1\bits\stl_heap.h **** 	  __holeIndex = __parent;
 164              		.loc 1 141 29 view .LVU41
 165 0084 C4ED007A 		vstr.32	s15, [r4]
 166              	.LVL17:
 143:c:\programdata\chocolatey\lib\gcc-arm-embedded\tools\gcc-arm-none-eabi-10-2020-q4-major\arm-none-eabi\include\c++\10.2.1\bits\stl_heap.h **** 	}
 167              		.loc 1 143 13 view .LVU42
 168 0088 03EBD374 		add	r4, r3, r3, lsr #31
 169              	.LVL18:
 142:c:\programdata\chocolatey\lib\gcc-arm-embedded\tools\gcc-arm-none-eabi-10-2020-q4-major\arm-none-eabi\include\c++\10.2.1\bits\stl_heap.h **** 	  __parent = (__holeIndex - 1) / 2;
 170              		.loc 1 142 16 view .LVU43
 171 008c 1346     		mov	r3, r2
 143:c:\programdata\chocolatey\lib\gcc-arm-embedded\tools\gcc-arm-none-eabi-10-2020-q4-major\arm-none-eabi\include\c++\10.2.1\bits\stl_heap.h **** 	}
 172              		.loc 1 143 13 view .LVU44
 173 008e 6210     		asrs	r2, r4, #1
 174              	.LVL19:
 139:c:\programdata\chocolatey\lib\gcc-arm-embedded\tools\gcc-arm-none-eabi-10-2020-q4-major\arm-none-eabi\include\c++\10.2.1\bits\stl_heap.h **** 	{
 175              		.loc 1 139 7 view .LVU45
 176 0090 EAE7     		b	.L9
 177              	.LVL20:
 178              	.L7:
 145:c:\programdata\chocolatey\lib\gcc-arm-embedded\tools\gcc-arm-none-eabi-10-2020-q4-major\arm-none-eabi\include\c++\10.2.1\bits\stl_heap.h ****     }
 179              		.loc 1 145 32 view .LVU46
 180 0092 84ED000A 		vstr.32	s0, [r4]
 181              	.LVL21:
 145:c:\programdata\chocolatey\lib\gcc-arm-embedded\tools\gcc-arm-none-eabi-10-2020-q4-major\arm-none-eabi\include\c++\10.2.1\bits\stl_heap.h ****     }
 182              		.loc 1 145 32 view .LVU47
ARM GAS  C:\Users\daniel\AppData\Local\Temp\ccXSGLh5.s 			page 10


 183              	.LBE795:
 184              	.LBE794:
 243:c:\programdata\chocolatey\lib\gcc-arm-embedded\tools\gcc-arm-none-eabi-10-2020-q4-major\arm-none-eabi\include\c++\10.2.1\bits\stl_heap.h **** 	}
 244:c:\programdata\chocolatey\lib\gcc-arm-embedded\tools\gcc-arm-none-eabi-10-2020-q4-major\arm-none-eabi\include\c++\10.2.1\bits\stl_heap.h ****       __decltype(__gnu_cxx::__ops::__iter_comp_val(_GLIBCXX_MOVE(__comp)))
 245:c:\programdata\chocolatey\lib\gcc-arm-embedded\tools\gcc-arm-none-eabi-10-2020-q4-major\arm-none-eabi\include\c++\10.2.1\bits\stl_heap.h **** 	__cmp(_GLIBCXX_MOVE(__comp));
 246:c:\programdata\chocolatey\lib\gcc-arm-embedded\tools\gcc-arm-none-eabi-10-2020-q4-major\arm-none-eabi\include\c++\10.2.1\bits\stl_heap.h ****       std::__push_heap(__first, __holeIndex, __topIndex,
 247:c:\programdata\chocolatey\lib\gcc-arm-embedded\tools\gcc-arm-none-eabi-10-2020-q4-major\arm-none-eabi\include\c++\10.2.1\bits\stl_heap.h **** 		       _GLIBCXX_MOVE(__value), __cmp);
 248:c:\programdata\chocolatey\lib\gcc-arm-embedded\tools\gcc-arm-none-eabi-10-2020-q4-major\arm-none-eabi\include\c++\10.2.1\bits\stl_heap.h ****     }
 185              		.loc 1 248 5 view .LVU48
 186 0096 F0BD     		pop	{r4, r5, r6, r7, pc}
 187              		.cfi_endproc
 188              	.LFE1915:
 190              		.section	.text._ZN5torus8FxEngineILj4096ELNS_6FormatE1EE7Context11InterpolateINS2_9DelayLineINS2_7
 191              		.align	1
 192              		.syntax unified
 193              		.thumb
 194              		.thumb_func
 195              		.fpu fpv5-d16
 197              	_ZN5torus8FxEngineILj4096ELNS_6FormatE1EE7Context11InterpolateINS2_9DelayLineINS2_7ReserveILl2047EN
 198              	.LVL22:
 199              	.LFB1848:
 200              		.file 3 "./dsp/fx/fx_engine.h"
   1:./dsp/fx/fx_engine.h **** // Copyright 2014 Emilie Gillet.
   2:./dsp/fx/fx_engine.h **** //
   3:./dsp/fx/fx_engine.h **** // Author: Emilie Gillet (emilie.o.gillet@gmail.com)
   4:./dsp/fx/fx_engine.h **** //
   5:./dsp/fx/fx_engine.h **** // Permission is hereby granted, free of charge, to any person obtaining a copy
   6:./dsp/fx/fx_engine.h **** // of this software and associated documentation files (the "Software"), to deal
   7:./dsp/fx/fx_engine.h **** // in the Software without restriction, including without limitation the rights
   8:./dsp/fx/fx_engine.h **** // to use, copy, modify, merge, publish, distribute, sublicense, and/or sell
   9:./dsp/fx/fx_engine.h **** // copies of the Software, and to permit persons to whom the Software is
  10:./dsp/fx/fx_engine.h **** // furnished to do so, subject to the following conditions:
  11:./dsp/fx/fx_engine.h **** //
  12:./dsp/fx/fx_engine.h **** // The above copyright notice and this permission notice shall be included in
  13:./dsp/fx/fx_engine.h **** // all copies or substantial portions of the Software.
  14:./dsp/fx/fx_engine.h **** //
  15:./dsp/fx/fx_engine.h **** // THE SOFTWARE IS PROVIDED "AS IS", WITHOUT WARRANTY OF ANY KIND, EXPRESS OR
  16:./dsp/fx/fx_engine.h **** // IMPLIED, INCLUDING BUT NOT LIMITED TO THE WARRANTIES OF MERCHANTABILITY,
  17:./dsp/fx/fx_engine.h **** // FITNESS FOR A PARTICULAR PURPOSE AND NONINFRINGEMENT. IN NO EVENT SHALL THE
  18:./dsp/fx/fx_engine.h **** // AUTHORS OR COPYRIGHT HOLDERS BE LIABLE FOR ANY CLAIM, DAMAGES OR OTHER
  19:./dsp/fx/fx_engine.h **** // LIABILITY, WHETHER IN AN ACTION OF CONTRACT, TORT OR OTHERWISE, ARISING FROM,
  20:./dsp/fx/fx_engine.h **** // OUT OF OR IN CONNECTION WITH THE SOFTWARE OR THE USE OR OTHER DEALINGS IN
  21:./dsp/fx/fx_engine.h **** // THE SOFTWARE.
  22:./dsp/fx/fx_engine.h **** //
  23:./dsp/fx/fx_engine.h **** // See http://creativecommons.org/licenses/MIT/ for more information.
  24:./dsp/fx/fx_engine.h **** //
  25:./dsp/fx/fx_engine.h **** // -----------------------------------------------------------------------------
  26:./dsp/fx/fx_engine.h **** //
  27:./dsp/fx/fx_engine.h **** // Base class for building reverb.
  28:./dsp/fx/fx_engine.h **** 
  29:./dsp/fx/fx_engine.h **** #ifndef TORUS_DSP_FX_FX_ENGINE_H_
  30:./dsp/fx/fx_engine.h **** #define TORUS_DSP_FX_FX_ENGINE_H_
  31:./dsp/fx/fx_engine.h **** 
  32:./dsp/fx/fx_engine.h **** #include <algorithm>
  33:./dsp/fx/fx_engine.h **** 
  34:./dsp/fx/fx_engine.h **** #include "stmlib/stmlib.h"
  35:./dsp/fx/fx_engine.h **** 
ARM GAS  C:\Users\daniel\AppData\Local\Temp\ccXSGLh5.s 			page 11


  36:./dsp/fx/fx_engine.h **** #include "stmlib/dsp/dsp.h"
  37:./dsp/fx/fx_engine.h **** #include "stmlib/dsp/cosine_oscillator.h"
  38:./dsp/fx/fx_engine.h **** 
  39:./dsp/fx/fx_engine.h **** namespace torus
  40:./dsp/fx/fx_engine.h **** {
  41:./dsp/fx/fx_engine.h **** #define TAIL , -1
  42:./dsp/fx/fx_engine.h **** 
  43:./dsp/fx/fx_engine.h **** enum Format
  44:./dsp/fx/fx_engine.h **** {
  45:./dsp/fx/fx_engine.h ****     FORMAT_12_BIT,
  46:./dsp/fx/fx_engine.h ****     FORMAT_16_BIT,
  47:./dsp/fx/fx_engine.h ****     FORMAT_32_BIT
  48:./dsp/fx/fx_engine.h **** };
  49:./dsp/fx/fx_engine.h **** 
  50:./dsp/fx/fx_engine.h **** enum LFOIndex
  51:./dsp/fx/fx_engine.h **** {
  52:./dsp/fx/fx_engine.h ****     LFO_1,
  53:./dsp/fx/fx_engine.h ****     LFO_2
  54:./dsp/fx/fx_engine.h **** };
  55:./dsp/fx/fx_engine.h **** 
  56:./dsp/fx/fx_engine.h **** template <Format format>
  57:./dsp/fx/fx_engine.h **** struct DataType
  58:./dsp/fx/fx_engine.h **** {
  59:./dsp/fx/fx_engine.h **** };
  60:./dsp/fx/fx_engine.h **** 
  61:./dsp/fx/fx_engine.h **** template <>
  62:./dsp/fx/fx_engine.h **** struct DataType<FORMAT_12_BIT>
  63:./dsp/fx/fx_engine.h **** {
  64:./dsp/fx/fx_engine.h ****     typedef uint16_t T;
  65:./dsp/fx/fx_engine.h **** 
  66:./dsp/fx/fx_engine.h ****     static inline float Decompress(T value)
  67:./dsp/fx/fx_engine.h ****     {
  68:./dsp/fx/fx_engine.h ****         return static_cast<float>(static_cast<int16_t>(value)) / 4096.0f;
  69:./dsp/fx/fx_engine.h ****     }
  70:./dsp/fx/fx_engine.h **** 
  71:./dsp/fx/fx_engine.h ****     static inline T Compress(float value)
  72:./dsp/fx/fx_engine.h ****     {
  73:./dsp/fx/fx_engine.h ****         return static_cast<uint16_t>(
  74:./dsp/fx/fx_engine.h ****             stmlib::Clip16(static_cast<int32_t>(value * 4096.0f)));
  75:./dsp/fx/fx_engine.h ****     }
  76:./dsp/fx/fx_engine.h **** };
  77:./dsp/fx/fx_engine.h **** 
  78:./dsp/fx/fx_engine.h **** template <>
  79:./dsp/fx/fx_engine.h **** struct DataType<FORMAT_16_BIT>
  80:./dsp/fx/fx_engine.h **** {
  81:./dsp/fx/fx_engine.h ****     typedef uint16_t T;
  82:./dsp/fx/fx_engine.h **** 
  83:./dsp/fx/fx_engine.h ****     static inline float Decompress(T value)
  84:./dsp/fx/fx_engine.h ****     {
  85:./dsp/fx/fx_engine.h ****         return static_cast<float>(static_cast<int16_t>(value)) / 32768.0f;
  86:./dsp/fx/fx_engine.h ****     }
  87:./dsp/fx/fx_engine.h **** 
  88:./dsp/fx/fx_engine.h ****     static inline T Compress(float value)
  89:./dsp/fx/fx_engine.h ****     {
  90:./dsp/fx/fx_engine.h ****         return static_cast<uint16_t>(
  91:./dsp/fx/fx_engine.h ****             stmlib::Clip16(static_cast<int32_t>(value * 32768.0f)));
  92:./dsp/fx/fx_engine.h ****     }
ARM GAS  C:\Users\daniel\AppData\Local\Temp\ccXSGLh5.s 			page 12


  93:./dsp/fx/fx_engine.h **** };
  94:./dsp/fx/fx_engine.h **** 
  95:./dsp/fx/fx_engine.h **** template <>
  96:./dsp/fx/fx_engine.h **** struct DataType<FORMAT_32_BIT>
  97:./dsp/fx/fx_engine.h **** {
  98:./dsp/fx/fx_engine.h ****     typedef float T;
  99:./dsp/fx/fx_engine.h **** 
 100:./dsp/fx/fx_engine.h ****     static inline float Decompress(T value)
 101:./dsp/fx/fx_engine.h ****     {
 102:./dsp/fx/fx_engine.h ****         return value;
 103:./dsp/fx/fx_engine.h ****         ;
 104:./dsp/fx/fx_engine.h ****     }
 105:./dsp/fx/fx_engine.h **** 
 106:./dsp/fx/fx_engine.h ****     static inline T Compress(float value) { return value; }
 107:./dsp/fx/fx_engine.h **** };
 108:./dsp/fx/fx_engine.h **** 
 109:./dsp/fx/fx_engine.h **** template <size_t size, Format format = FORMAT_12_BIT>
 110:./dsp/fx/fx_engine.h **** class FxEngine
 111:./dsp/fx/fx_engine.h **** {
 112:./dsp/fx/fx_engine.h ****   public:
 113:./dsp/fx/fx_engine.h ****     typedef typename DataType<format>::T T;
 114:./dsp/fx/fx_engine.h ****     FxEngine() {}
 115:./dsp/fx/fx_engine.h ****     ~FxEngine() {}
 116:./dsp/fx/fx_engine.h **** 
 117:./dsp/fx/fx_engine.h ****     void Init(T* buffer)
 118:./dsp/fx/fx_engine.h ****     {
 119:./dsp/fx/fx_engine.h ****         buffer_ = buffer;
 120:./dsp/fx/fx_engine.h ****         Clear();
 121:./dsp/fx/fx_engine.h ****     }
 122:./dsp/fx/fx_engine.h **** 
 123:./dsp/fx/fx_engine.h ****     void Clear()
 124:./dsp/fx/fx_engine.h ****     {
 125:./dsp/fx/fx_engine.h ****         std::fill(&buffer_[0], &buffer_[size], 0);
 126:./dsp/fx/fx_engine.h ****         write_ptr_ = 0;
 127:./dsp/fx/fx_engine.h ****     }
 128:./dsp/fx/fx_engine.h **** 
 129:./dsp/fx/fx_engine.h ****     struct Empty
 130:./dsp/fx/fx_engine.h ****     {
 131:./dsp/fx/fx_engine.h ****     };
 132:./dsp/fx/fx_engine.h **** 
 133:./dsp/fx/fx_engine.h ****     template <int32_t l, typename T = Empty>
 134:./dsp/fx/fx_engine.h ****     struct Reserve
 135:./dsp/fx/fx_engine.h ****     {
 136:./dsp/fx/fx_engine.h ****         typedef T Tail;
 137:./dsp/fx/fx_engine.h ****         enum
 138:./dsp/fx/fx_engine.h ****         {
 139:./dsp/fx/fx_engine.h ****             length = l
 140:./dsp/fx/fx_engine.h ****         };
 141:./dsp/fx/fx_engine.h ****     };
 142:./dsp/fx/fx_engine.h **** 
 143:./dsp/fx/fx_engine.h ****     template <typename Memory, int32_t index>
 144:./dsp/fx/fx_engine.h ****     struct DelayLine
 145:./dsp/fx/fx_engine.h ****     {
 146:./dsp/fx/fx_engine.h ****         enum
 147:./dsp/fx/fx_engine.h ****         {
 148:./dsp/fx/fx_engine.h ****             length = DelayLine<typename Memory::Tail, index - 1>::length,
 149:./dsp/fx/fx_engine.h ****             base   = DelayLine<Memory, index - 1>::base
ARM GAS  C:\Users\daniel\AppData\Local\Temp\ccXSGLh5.s 			page 13


 150:./dsp/fx/fx_engine.h ****                    + DelayLine<Memory, index - 1>::length + 1
 151:./dsp/fx/fx_engine.h ****         };
 152:./dsp/fx/fx_engine.h ****     };
 153:./dsp/fx/fx_engine.h **** 
 154:./dsp/fx/fx_engine.h ****     template <typename Memory>
 155:./dsp/fx/fx_engine.h ****     struct DelayLine<Memory, 0>
 156:./dsp/fx/fx_engine.h ****     {
 157:./dsp/fx/fx_engine.h ****         enum
 158:./dsp/fx/fx_engine.h ****         {
 159:./dsp/fx/fx_engine.h ****             length = Memory::length,
 160:./dsp/fx/fx_engine.h ****             base   = 0
 161:./dsp/fx/fx_engine.h ****         };
 162:./dsp/fx/fx_engine.h ****     };
 163:./dsp/fx/fx_engine.h **** 
 164:./dsp/fx/fx_engine.h ****     class Context
 165:./dsp/fx/fx_engine.h ****     {
 166:./dsp/fx/fx_engine.h ****         friend class FxEngine;
 167:./dsp/fx/fx_engine.h **** 
 168:./dsp/fx/fx_engine.h ****       public:
 169:./dsp/fx/fx_engine.h ****         Context() {}
 170:./dsp/fx/fx_engine.h ****         ~Context() {}
 171:./dsp/fx/fx_engine.h **** 
 172:./dsp/fx/fx_engine.h ****         inline void Load(float value) { accumulator_ = value; }
 173:./dsp/fx/fx_engine.h **** 
 174:./dsp/fx/fx_engine.h ****         inline void Read(float value, float scale)
 175:./dsp/fx/fx_engine.h ****         {
 176:./dsp/fx/fx_engine.h ****             accumulator_ += value * scale;
 177:./dsp/fx/fx_engine.h ****         }
 178:./dsp/fx/fx_engine.h **** 
 179:./dsp/fx/fx_engine.h ****         inline void Read(float value) { accumulator_ += value; }
 180:./dsp/fx/fx_engine.h **** 
 181:./dsp/fx/fx_engine.h ****         inline void Write(float& value) { value = accumulator_; }
 182:./dsp/fx/fx_engine.h **** 
 183:./dsp/fx/fx_engine.h ****         inline void Write(float& value, float scale)
 184:./dsp/fx/fx_engine.h ****         {
 185:./dsp/fx/fx_engine.h ****             value = accumulator_;
 186:./dsp/fx/fx_engine.h ****             accumulator_ *= scale;
 187:./dsp/fx/fx_engine.h ****         }
 188:./dsp/fx/fx_engine.h **** 
 189:./dsp/fx/fx_engine.h ****         template <typename D>
 190:./dsp/fx/fx_engine.h ****         inline void Write(D& d, int32_t offset, float scale)
 191:./dsp/fx/fx_engine.h ****         {
 192:./dsp/fx/fx_engine.h ****             STATIC_ASSERT(D::base + D::length <= size, delay_memory_full);
 193:./dsp/fx/fx_engine.h ****             T w = DataType<format>::Compress(accumulator_);
 194:./dsp/fx/fx_engine.h ****             if(offset == -1)
 195:./dsp/fx/fx_engine.h ****             {
 196:./dsp/fx/fx_engine.h ****                 buffer_[(write_ptr_ + D::base + D::length - 1) & MASK] = w;
 197:./dsp/fx/fx_engine.h ****             }
 198:./dsp/fx/fx_engine.h ****             else
 199:./dsp/fx/fx_engine.h ****             {
 200:./dsp/fx/fx_engine.h ****                 buffer_[(write_ptr_ + D::base + offset) & MASK] = w;
 201:./dsp/fx/fx_engine.h ****             }
 202:./dsp/fx/fx_engine.h ****             accumulator_ *= scale;
 203:./dsp/fx/fx_engine.h ****         }
 204:./dsp/fx/fx_engine.h **** 
 205:./dsp/fx/fx_engine.h ****         template <typename D>
 206:./dsp/fx/fx_engine.h ****         inline void Write(D& d, float scale)
ARM GAS  C:\Users\daniel\AppData\Local\Temp\ccXSGLh5.s 			page 14


 207:./dsp/fx/fx_engine.h ****         {
 208:./dsp/fx/fx_engine.h ****             Write(d, 0, scale);
 209:./dsp/fx/fx_engine.h ****         }
 210:./dsp/fx/fx_engine.h **** 
 211:./dsp/fx/fx_engine.h ****         template <typename D>
 212:./dsp/fx/fx_engine.h ****         inline void WriteAllPass(D& d, int32_t offset, float scale)
 213:./dsp/fx/fx_engine.h ****         {
 214:./dsp/fx/fx_engine.h ****             Write(d, offset, scale);
 215:./dsp/fx/fx_engine.h ****             accumulator_ += previous_read_;
 216:./dsp/fx/fx_engine.h ****         }
 217:./dsp/fx/fx_engine.h **** 
 218:./dsp/fx/fx_engine.h ****         template <typename D>
 219:./dsp/fx/fx_engine.h ****         inline void WriteAllPass(D& d, float scale)
 220:./dsp/fx/fx_engine.h ****         {
 221:./dsp/fx/fx_engine.h ****             WriteAllPass(d, 0, scale);
 222:./dsp/fx/fx_engine.h ****         }
 223:./dsp/fx/fx_engine.h **** 
 224:./dsp/fx/fx_engine.h ****         template <typename D>
 225:./dsp/fx/fx_engine.h ****         inline void Read(D& d, int32_t offset, float scale)
 226:./dsp/fx/fx_engine.h ****         {
 227:./dsp/fx/fx_engine.h ****             STATIC_ASSERT(D::base + D::length <= size, delay_memory_full);
 228:./dsp/fx/fx_engine.h ****             T r;
 229:./dsp/fx/fx_engine.h ****             if(offset == -1)
 230:./dsp/fx/fx_engine.h ****             {
 231:./dsp/fx/fx_engine.h ****                 r = buffer_[(write_ptr_ + D::base + D::length - 1) & MASK];
 232:./dsp/fx/fx_engine.h ****             }
 233:./dsp/fx/fx_engine.h ****             else
 234:./dsp/fx/fx_engine.h ****             {
 235:./dsp/fx/fx_engine.h ****                 r = buffer_[(write_ptr_ + D::base + offset) & MASK];
 236:./dsp/fx/fx_engine.h ****             }
 237:./dsp/fx/fx_engine.h ****             float r_f      = DataType<format>::Decompress(r);
 238:./dsp/fx/fx_engine.h ****             previous_read_ = r_f;
 239:./dsp/fx/fx_engine.h ****             accumulator_ += r_f * scale;
 240:./dsp/fx/fx_engine.h ****         }
 241:./dsp/fx/fx_engine.h **** 
 242:./dsp/fx/fx_engine.h ****         template <typename D>
 243:./dsp/fx/fx_engine.h ****         inline void Read(D& d, float scale)
 244:./dsp/fx/fx_engine.h ****         {
 245:./dsp/fx/fx_engine.h ****             Read(d, 0, scale);
 246:./dsp/fx/fx_engine.h ****         }
 247:./dsp/fx/fx_engine.h **** 
 248:./dsp/fx/fx_engine.h ****         inline void Lp(float& state, float coefficient)
 249:./dsp/fx/fx_engine.h ****         {
 250:./dsp/fx/fx_engine.h ****             state += coefficient * (accumulator_ - state);
 251:./dsp/fx/fx_engine.h ****             accumulator_ = state;
 252:./dsp/fx/fx_engine.h ****         }
 253:./dsp/fx/fx_engine.h **** 
 254:./dsp/fx/fx_engine.h ****         inline void Hp(float& state, float coefficient)
 255:./dsp/fx/fx_engine.h ****         {
 256:./dsp/fx/fx_engine.h ****             state += coefficient * (accumulator_ - state);
 257:./dsp/fx/fx_engine.h ****             accumulator_ -= state;
 258:./dsp/fx/fx_engine.h ****         }
 259:./dsp/fx/fx_engine.h **** 
 260:./dsp/fx/fx_engine.h ****         template <typename D>
 261:./dsp/fx/fx_engine.h ****         inline void Interpolate(D& d, float offset, float scale)
 201              		.loc 3 261 21 is_stmt 1 view -0
 202              		.cfi_startproc
ARM GAS  C:\Users\daniel\AppData\Local\Temp\ccXSGLh5.s 			page 15


 203              		@ args = 0, pretend = 0, frame = 0
 204              		@ frame_needed = 0, uses_anonymous_args = 0
 205              		@ link register save eliminated.
 262:./dsp/fx/fx_engine.h ****         {
 263:./dsp/fx/fx_engine.h ****             STATIC_ASSERT(D::base + D::length <= size, delay_memory_full);
 264:./dsp/fx/fx_engine.h ****             MAKE_INTEGRAL_FRACTIONAL(offset);
 206              		.loc 3 264 13 is_stmt 0 view .LVU50
 207 0000 BDEEC07A 		vcvt.s32.f32	s14, s0
 208              	.LVL23:
 209              	.LBB798:
 210              	.LBB799:
  85:./dsp/fx/fx_engine.h ****     }
 211              		.loc 3 85 66 view .LVU51
 212 0004 DFED186A 		vldr.32	s13, .L13
 213              	.LBE799:
 214              	.LBE798:
 265:./dsp/fx/fx_engine.h ****             float a = DataType<format>::Decompress(
 266:./dsp/fx/fx_engine.h ****                 buffer_[(write_ptr_ + offset_integral + D::base) & MASK]);
 215              		.loc 3 266 37 view .LVU52
 216 0008 D0E90413 		ldrd	r1, r3, [r0, #16]
 217 000c 17EE102A 		vmov	r2, s14	@ int
 264:./dsp/fx/fx_engine.h ****             float a = DataType<format>::Decompress(
 218              		.loc 3 264 13 view .LVU53
 219 0010 F8EEC77A 		vcvt.f32.s32	s15, s14
 220              		.loc 3 266 37 view .LVU54
 221 0014 1A44     		add	r2, r2, r3
 264:./dsp/fx/fx_engine.h ****             float a = DataType<format>::Decompress(
 222              		.loc 3 264 13 view .LVU55
 223 0016 70EE677A 		vsub.f32	s15, s0, s15
 224              	.LVL24:
 225              		.loc 3 266 37 view .LVU56
 226 001a 1346     		mov	r3, r2
 227              	.LVL25:
 228              	.LBB803:
 229              	.LBI803:
  83:./dsp/fx/fx_engine.h ****     {
 230              		.loc 3 83 25 is_stmt 1 view .LVU57
 231              	.LBB804:
  85:./dsp/fx/fx_engine.h ****     }
 232              		.loc 3 85 9 view .LVU58
 233              	.LBE804:
 234              	.LBE803:
 235              		.loc 3 266 55 is_stmt 0 view .LVU59
 236 001c 02F50062 		add	r2, r2, #2048
 237              	.LVL26:
 267:./dsp/fx/fx_engine.h ****             float b = DataType<format>::Decompress(
 268:./dsp/fx/fx_engine.h ****                 buffer_[(write_ptr_ + offset_integral + D::base + 1) & MASK]);
 238              		.loc 3 268 65 view .LVU60
 239 0020 03F60103 		addw	r3, r3, #2049
 266:./dsp/fx/fx_engine.h ****             float b = DataType<format>::Decompress(
 240              		.loc 3 266 66 view .LVU61
 241 0024 C2F30B02 		ubfx	r2, r2, #0, #12
 242              	.LVL27:
 243              		.loc 3 268 70 view .LVU62
 244 0028 C3F30B03 		ubfx	r3, r3, #0, #12
 245              	.LVL28:
 246              	.LBB808:
ARM GAS  C:\Users\daniel\AppData\Local\Temp\ccXSGLh5.s 			page 16


 247              	.LBB805:
  85:./dsp/fx/fx_engine.h ****     }
 248              		.loc 3 85 16 view .LVU63
 249 002c 31F91220 		ldrsh	r2, [r1, r2, lsl #1]
 250              	.LBE805:
 251              	.LBE808:
 252              	.LBB809:
 253              	.LBB800:
 254 0030 31F91330 		ldrsh	r3, [r1, r3, lsl #1]
 255              	.LBE800:
 256              	.LBE809:
 257              	.LBB810:
 258              	.LBB806:
 259 0034 07EE102A 		vmov	s14, r2	@ int
 260              	.LVL29:
  85:./dsp/fx/fx_engine.h ****     }
 261              		.loc 3 85 16 view .LVU64
 262              	.LBE806:
 263              	.LBE810:
 264              	.LBB811:
 265              	.LBB801:
 266 0038 00EE103A 		vmov	s0, r3	@ int
 267              	.LVL30:
  85:./dsp/fx/fx_engine.h ****     }
 268              		.loc 3 85 16 view .LVU65
 269              	.LBE801:
 270              	.LBE811:
 271              	.LBB812:
 272              	.LBB807:
 273 003c B8EEC77A 		vcvt.f32.s32	s14, s14
 274              	.LVL31:
  85:./dsp/fx/fx_engine.h ****     }
 275              		.loc 3 85 16 view .LVU66
 276              	.LBE807:
 277              	.LBE812:
 278              	.LBB813:
 279              	.LBI798:
  83:./dsp/fx/fx_engine.h ****     {
 280              		.loc 3 83 25 is_stmt 1 view .LVU67
 281              	.LBB802:
  85:./dsp/fx/fx_engine.h ****     }
 282              		.loc 3 85 9 view .LVU68
  85:./dsp/fx/fx_engine.h ****     }
 283              		.loc 3 85 16 is_stmt 0 view .LVU69
 284 0040 B8EEC00A 		vcvt.f32.s32	s0, s0
  85:./dsp/fx/fx_engine.h ****     }
 285              		.loc 3 85 66 view .LVU70
 286 0044 20EE260A 		vmul.f32	s0, s0, s13
 287              	.LBE802:
 288              	.LBE813:
 269:./dsp/fx/fx_engine.h ****             float x        = a + (b - a) * offset_fractional;
 289              		.loc 3 269 37 view .LVU71
 290 0048 A7EE660A 		vfms.f32	s0, s14, s13
 291              		.loc 3 269 42 view .LVU72
 292 004c 27EE800A 		vmul.f32	s0, s15, s0
 270:./dsp/fx/fx_engine.h ****             previous_read_ = x;
 271:./dsp/fx/fx_engine.h ****             accumulator_ += x * scale;
ARM GAS  C:\Users\daniel\AppData\Local\Temp\ccXSGLh5.s 			page 17


 293              		.loc 3 271 26 view .LVU73
 294 0050 D0ED007A 		vldr.32	s15, [r0]
 295              	.LVL32:
 269:./dsp/fx/fx_engine.h ****             float x        = a + (b - a) * offset_fractional;
 296              		.loc 3 269 19 view .LVU74
 297 0054 A7EE260A 		vfma.f32	s0, s14, s13
 298              	.LVL33:
 299              		.loc 3 271 26 view .LVU75
 300 0058 E0EE207A 		vfma.f32	s15, s0, s1
 270:./dsp/fx/fx_engine.h ****             previous_read_ = x;
 301              		.loc 3 270 28 view .LVU76
 302 005c 80ED010A 		vstr.32	s0, [r0, #4]
 303              		.loc 3 271 26 view .LVU77
 304 0060 C0ED007A 		vstr.32	s15, [r0]
 272:./dsp/fx/fx_engine.h ****         }
 305              		.loc 3 272 9 view .LVU78
 306 0064 7047     		bx	lr
 307              	.L14:
 308 0066 00BF     		.align	2
 309              	.L13:
 310 0068 00000038 		.word	939524096
 311              		.cfi_endproc
 312              	.LFE1848:
 314              		.section	.text._ZN5torus8FxEngineILj4096ELNS_6FormatE1EE7Context11InterpolateINS2_9DelayLineINS2_7
 315              		.align	1
 316              		.syntax unified
 317              		.thumb
 318              		.thumb_func
 319              		.fpu fpv5-d16
 321              	_ZN5torus8FxEngineILj4096ELNS_6FormatE1EE7Context11InterpolateINS2_9DelayLineINS2_7ReserveILl2047EN
 322              	.LVL34:
 323              	.LFB1847:
 261:./dsp/fx/fx_engine.h ****         {
 324              		.loc 3 261 21 is_stmt 1 view -0
 325              		.cfi_startproc
 326              		@ args = 0, pretend = 0, frame = 0
 327              		@ frame_needed = 0, uses_anonymous_args = 0
 328              		@ link register save eliminated.
 264:./dsp/fx/fx_engine.h ****             float a = DataType<format>::Decompress(
 329              		.loc 3 264 13 is_stmt 0 view .LVU80
 330 0000 BDEEC07A 		vcvt.s32.f32	s14, s0
 331              	.LVL35:
 332              	.LBB814:
 333              	.LBB815:
  85:./dsp/fx/fx_engine.h ****     }
 334              		.loc 3 85 66 view .LVU81
 335 0004 DFED166A 		vldr.32	s13, .L16
 336              	.LBE815:
 337              	.LBE814:
 266:./dsp/fx/fx_engine.h ****             float b = DataType<format>::Decompress(
 338              		.loc 3 266 37 view .LVU82
 339 0008 D0E90423 		ldrd	r2, r3, [r0, #16]
 340 000c 17EE101A 		vmov	r1, s14	@ int
 264:./dsp/fx/fx_engine.h ****             float a = DataType<format>::Decompress(
 341              		.loc 3 264 13 view .LVU83
 342 0010 F8EEC77A 		vcvt.f32.s32	s15, s14
 266:./dsp/fx/fx_engine.h ****             float b = DataType<format>::Decompress(
ARM GAS  C:\Users\daniel\AppData\Local\Temp\ccXSGLh5.s 			page 18


 343              		.loc 3 266 37 view .LVU84
 344 0014 1944     		add	r1, r1, r3
 264:./dsp/fx/fx_engine.h ****             float a = DataType<format>::Decompress(
 345              		.loc 3 264 13 view .LVU85
 346 0016 70EE677A 		vsub.f32	s15, s0, s15
 347              	.LVL36:
 266:./dsp/fx/fx_engine.h ****             float b = DataType<format>::Decompress(
 348              		.loc 3 266 37 view .LVU86
 349 001a 0B46     		mov	r3, r1
 350              	.LVL37:
 351              	.LBB818:
 352              	.LBI818:
  83:./dsp/fx/fx_engine.h ****     {
 353              		.loc 3 83 25 is_stmt 1 view .LVU87
 354              	.LBB819:
  85:./dsp/fx/fx_engine.h ****     }
 355              		.loc 3 85 9 view .LVU88
 356              	.LBE819:
 357              	.LBE818:
 266:./dsp/fx/fx_engine.h ****             float b = DataType<format>::Decompress(
 358              		.loc 3 266 66 is_stmt 0 view .LVU89
 359 001c C1F30B01 		ubfx	r1, r1, #0, #12
 360              	.LVL38:
 268:./dsp/fx/fx_engine.h ****             float x        = a + (b - a) * offset_fractional;
 361              		.loc 3 268 65 view .LVU90
 362 0020 0133     		adds	r3, r3, #1
 363              	.LVL39:
 364              	.LBB823:
 365              	.LBB820:
  85:./dsp/fx/fx_engine.h ****     }
 366              		.loc 3 85 16 view .LVU91
 367 0022 32F91110 		ldrsh	r1, [r2, r1, lsl #1]
 368              	.LBE820:
 369              	.LBE823:
 268:./dsp/fx/fx_engine.h ****             float x        = a + (b - a) * offset_fractional;
 370              		.loc 3 268 70 view .LVU92
 371 0026 C3F30B03 		ubfx	r3, r3, #0, #12
 372              	.LVL40:
 373              	.LBB824:
 374              	.LBB821:
  85:./dsp/fx/fx_engine.h ****     }
 375              		.loc 3 85 16 view .LVU93
 376 002a 07EE101A 		vmov	s14, r1	@ int
 377              	.LVL41:
  85:./dsp/fx/fx_engine.h ****     }
 378              		.loc 3 85 16 view .LVU94
 379              	.LBE821:
 380              	.LBE824:
 381              	.LBB825:
 382              	.LBB816:
 383 002e 32F91330 		ldrsh	r3, [r2, r3, lsl #1]
 384              	.LBE816:
 385              	.LBE825:
 386              	.LBB826:
 387              	.LBB822:
 388 0032 B8EEC77A 		vcvt.f32.s32	s14, s14
 389              	.LVL42:
ARM GAS  C:\Users\daniel\AppData\Local\Temp\ccXSGLh5.s 			page 19


  85:./dsp/fx/fx_engine.h ****     }
 390              		.loc 3 85 16 view .LVU95
 391              	.LBE822:
 392              	.LBE826:
 393              	.LBB827:
 394              	.LBI814:
  83:./dsp/fx/fx_engine.h ****     {
 395              		.loc 3 83 25 is_stmt 1 view .LVU96
 396              	.LBB817:
  85:./dsp/fx/fx_engine.h ****     }
 397              		.loc 3 85 9 view .LVU97
  85:./dsp/fx/fx_engine.h ****     }
 398              		.loc 3 85 16 is_stmt 0 view .LVU98
 399 0036 00EE103A 		vmov	s0, r3	@ int
 400              	.LVL43:
  85:./dsp/fx/fx_engine.h ****     }
 401              		.loc 3 85 16 view .LVU99
 402 003a B8EEC00A 		vcvt.f32.s32	s0, s0
  85:./dsp/fx/fx_engine.h ****     }
 403              		.loc 3 85 66 view .LVU100
 404 003e 20EE260A 		vmul.f32	s0, s0, s13
 405              	.LBE817:
 406              	.LBE827:
 269:./dsp/fx/fx_engine.h ****             previous_read_ = x;
 407              		.loc 3 269 37 view .LVU101
 408 0042 A7EE660A 		vfms.f32	s0, s14, s13
 269:./dsp/fx/fx_engine.h ****             previous_read_ = x;
 409              		.loc 3 269 42 view .LVU102
 410 0046 27EE800A 		vmul.f32	s0, s15, s0
 271:./dsp/fx/fx_engine.h ****         }
 411              		.loc 3 271 26 view .LVU103
 412 004a D0ED007A 		vldr.32	s15, [r0]
 413              	.LVL44:
 269:./dsp/fx/fx_engine.h ****             previous_read_ = x;
 414              		.loc 3 269 19 view .LVU104
 415 004e A7EE260A 		vfma.f32	s0, s14, s13
 416              	.LVL45:
 271:./dsp/fx/fx_engine.h ****         }
 417              		.loc 3 271 26 view .LVU105
 418 0052 E0EE207A 		vfma.f32	s15, s0, s1
 270:./dsp/fx/fx_engine.h ****             accumulator_ += x * scale;
 419              		.loc 3 270 28 view .LVU106
 420 0056 80ED010A 		vstr.32	s0, [r0, #4]
 271:./dsp/fx/fx_engine.h ****         }
 421              		.loc 3 271 26 view .LVU107
 422 005a C0ED007A 		vstr.32	s15, [r0]
 423              		.loc 3 272 9 view .LVU108
 424 005e 7047     		bx	lr
 425              	.L17:
 426              		.align	2
 427              	.L16:
 428 0060 00000038 		.word	939524096
 429              		.cfi_endproc
 430              	.LFE1847:
 432              		.section	.text._ZN5torus8FxEngineILj2048ELNS_6FormatE1EE7Context11InterpolateINS2_9DelayLineINS2_7
 433              		.align	1
 434              		.syntax unified
ARM GAS  C:\Users\daniel\AppData\Local\Temp\ccXSGLh5.s 			page 20


 435              		.thumb
 436              		.thumb_func
 437              		.fpu fpv5-d16
 439              	_ZN5torus8FxEngineILj2048ELNS_6FormatE1EE7Context11InterpolateINS2_9DelayLineINS2_7ReserveILl2047EN
 440              	.LVL46:
 441              	.LFB1844:
 261:./dsp/fx/fx_engine.h ****         {
 442              		.loc 3 261 21 is_stmt 1 view -0
 443              		.cfi_startproc
 444              		@ args = 0, pretend = 0, frame = 0
 445              		@ frame_needed = 0, uses_anonymous_args = 0
 446              		@ link register save eliminated.
 264:./dsp/fx/fx_engine.h ****             float a = DataType<format>::Decompress(
 447              		.loc 3 264 13 is_stmt 0 view .LVU110
 448 0000 BDEEC07A 		vcvt.s32.f32	s14, s0
 449              	.LVL47:
 450              	.LBB828:
 451              	.LBB829:
  85:./dsp/fx/fx_engine.h ****     }
 452              		.loc 3 85 66 view .LVU111
 453 0004 DFED166A 		vldr.32	s13, .L19
 454              	.LBE829:
 455              	.LBE828:
 266:./dsp/fx/fx_engine.h ****             float b = DataType<format>::Decompress(
 456              		.loc 3 266 37 view .LVU112
 457 0008 D0E90423 		ldrd	r2, r3, [r0, #16]
 458 000c 17EE101A 		vmov	r1, s14	@ int
 264:./dsp/fx/fx_engine.h ****             float a = DataType<format>::Decompress(
 459              		.loc 3 264 13 view .LVU113
 460 0010 F8EEC77A 		vcvt.f32.s32	s15, s14
 266:./dsp/fx/fx_engine.h ****             float b = DataType<format>::Decompress(
 461              		.loc 3 266 37 view .LVU114
 462 0014 1944     		add	r1, r1, r3
 264:./dsp/fx/fx_engine.h ****             float a = DataType<format>::Decompress(
 463              		.loc 3 264 13 view .LVU115
 464 0016 70EE677A 		vsub.f32	s15, s0, s15
 465              	.LVL48:
 266:./dsp/fx/fx_engine.h ****             float b = DataType<format>::Decompress(
 466              		.loc 3 266 37 view .LVU116
 467 001a 0B46     		mov	r3, r1
 468              	.LVL49:
 469              	.LBB832:
 470              	.LBI832:
  83:./dsp/fx/fx_engine.h ****     {
 471              		.loc 3 83 25 is_stmt 1 view .LVU117
 472              	.LBB833:
  85:./dsp/fx/fx_engine.h ****     }
 473              		.loc 3 85 9 view .LVU118
 474              	.LBE833:
 475              	.LBE832:
 266:./dsp/fx/fx_engine.h ****             float b = DataType<format>::Decompress(
 476              		.loc 3 266 66 is_stmt 0 view .LVU119
 477 001c C1F30A01 		ubfx	r1, r1, #0, #11
 478              	.LVL50:
 268:./dsp/fx/fx_engine.h ****             float x        = a + (b - a) * offset_fractional;
 479              		.loc 3 268 65 view .LVU120
 480 0020 0133     		adds	r3, r3, #1
ARM GAS  C:\Users\daniel\AppData\Local\Temp\ccXSGLh5.s 			page 21


 481              	.LVL51:
 482              	.LBB837:
 483              	.LBB834:
  85:./dsp/fx/fx_engine.h ****     }
 484              		.loc 3 85 16 view .LVU121
 485 0022 32F91110 		ldrsh	r1, [r2, r1, lsl #1]
 486              	.LBE834:
 487              	.LBE837:
 268:./dsp/fx/fx_engine.h ****             float x        = a + (b - a) * offset_fractional;
 488              		.loc 3 268 70 view .LVU122
 489 0026 C3F30A03 		ubfx	r3, r3, #0, #11
 490              	.LVL52:
 491              	.LBB838:
 492              	.LBB835:
  85:./dsp/fx/fx_engine.h ****     }
 493              		.loc 3 85 16 view .LVU123
 494 002a 07EE101A 		vmov	s14, r1	@ int
 495              	.LVL53:
  85:./dsp/fx/fx_engine.h ****     }
 496              		.loc 3 85 16 view .LVU124
 497              	.LBE835:
 498              	.LBE838:
 499              	.LBB839:
 500              	.LBB830:
 501 002e 32F91330 		ldrsh	r3, [r2, r3, lsl #1]
 502              	.LBE830:
 503              	.LBE839:
 504              	.LBB840:
 505              	.LBB836:
 506 0032 B8EEC77A 		vcvt.f32.s32	s14, s14
 507              	.LVL54:
  85:./dsp/fx/fx_engine.h ****     }
 508              		.loc 3 85 16 view .LVU125
 509              	.LBE836:
 510              	.LBE840:
 511              	.LBB841:
 512              	.LBI828:
  83:./dsp/fx/fx_engine.h ****     {
 513              		.loc 3 83 25 is_stmt 1 view .LVU126
 514              	.LBB831:
  85:./dsp/fx/fx_engine.h ****     }
 515              		.loc 3 85 9 view .LVU127
  85:./dsp/fx/fx_engine.h ****     }
 516              		.loc 3 85 16 is_stmt 0 view .LVU128
 517 0036 00EE103A 		vmov	s0, r3	@ int
 518              	.LVL55:
  85:./dsp/fx/fx_engine.h ****     }
 519              		.loc 3 85 16 view .LVU129
 520 003a B8EEC00A 		vcvt.f32.s32	s0, s0
  85:./dsp/fx/fx_engine.h ****     }
 521              		.loc 3 85 66 view .LVU130
 522 003e 20EE260A 		vmul.f32	s0, s0, s13
 523              	.LBE831:
 524              	.LBE841:
 269:./dsp/fx/fx_engine.h ****             previous_read_ = x;
 525              		.loc 3 269 37 view .LVU131
 526 0042 A7EE660A 		vfms.f32	s0, s14, s13
ARM GAS  C:\Users\daniel\AppData\Local\Temp\ccXSGLh5.s 			page 22


 269:./dsp/fx/fx_engine.h ****             previous_read_ = x;
 527              		.loc 3 269 42 view .LVU132
 528 0046 27EE800A 		vmul.f32	s0, s15, s0
 271:./dsp/fx/fx_engine.h ****         }
 529              		.loc 3 271 26 view .LVU133
 530 004a D0ED007A 		vldr.32	s15, [r0]
 531              	.LVL56:
 269:./dsp/fx/fx_engine.h ****             previous_read_ = x;
 532              		.loc 3 269 19 view .LVU134
 533 004e A7EE260A 		vfma.f32	s0, s14, s13
 534              	.LVL57:
 271:./dsp/fx/fx_engine.h ****         }
 535              		.loc 3 271 26 view .LVU135
 536 0052 E0EE207A 		vfma.f32	s15, s0, s1
 270:./dsp/fx/fx_engine.h ****             accumulator_ += x * scale;
 537              		.loc 3 270 28 view .LVU136
 538 0056 80ED010A 		vstr.32	s0, [r0, #4]
 271:./dsp/fx/fx_engine.h ****         }
 539              		.loc 3 271 26 view .LVU137
 540 005a C0ED007A 		vstr.32	s15, [r0]
 541              		.loc 3 272 9 view .LVU138
 542 005e 7047     		bx	lr
 543              	.L20:
 544              		.align	2
 545              	.L19:
 546 0060 00000038 		.word	939524096
 547              		.cfi_endproc
 548              	.LFE1844:
 550              		.section	.text._ZSt16__introsort_loopIPfiN9__gnu_cxx5__ops15_Iter_less_iterEEvT_S4_T0_T1_.isra.0,"
 551              		.align	1
 552              		.syntax unified
 553              		.thumb
 554              		.thumb_func
 555              		.fpu fpv5-d16
 557              	_ZSt16__introsort_loopIPfiN9__gnu_cxx5__ops15_Iter_less_iterEEvT_S4_T0_T1_.isra.0:
 558              	.LVL58:
 559              	.LFB1899:
 560              		.file 4 "c:\\programdata\\chocolatey\\lib\\gcc-arm-embedded\\tools\\gcc-arm-none-eabi-10-2020-q4-m
   1:c:\programdata\chocolatey\lib\gcc-arm-embedded\tools\gcc-arm-none-eabi-10-2020-q4-major\arm-none-eabi\include\c++\10.2.1\bits\stl_algo.h **** // Algorithm implementation -*- C++ -*-
   2:c:\programdata\chocolatey\lib\gcc-arm-embedded\tools\gcc-arm-none-eabi-10-2020-q4-major\arm-none-eabi\include\c++\10.2.1\bits\stl_algo.h **** 
   3:c:\programdata\chocolatey\lib\gcc-arm-embedded\tools\gcc-arm-none-eabi-10-2020-q4-major\arm-none-eabi\include\c++\10.2.1\bits\stl_algo.h **** // Copyright (C) 2001-2020 Free Software Foundation, Inc.
   4:c:\programdata\chocolatey\lib\gcc-arm-embedded\tools\gcc-arm-none-eabi-10-2020-q4-major\arm-none-eabi\include\c++\10.2.1\bits\stl_algo.h **** //
   5:c:\programdata\chocolatey\lib\gcc-arm-embedded\tools\gcc-arm-none-eabi-10-2020-q4-major\arm-none-eabi\include\c++\10.2.1\bits\stl_algo.h **** // This file is part of the GNU ISO C++ Library.  This library is free
   6:c:\programdata\chocolatey\lib\gcc-arm-embedded\tools\gcc-arm-none-eabi-10-2020-q4-major\arm-none-eabi\include\c++\10.2.1\bits\stl_algo.h **** // software; you can redistribute it and/or modify it under the
   7:c:\programdata\chocolatey\lib\gcc-arm-embedded\tools\gcc-arm-none-eabi-10-2020-q4-major\arm-none-eabi\include\c++\10.2.1\bits\stl_algo.h **** // terms of the GNU General Public License as published by the
   8:c:\programdata\chocolatey\lib\gcc-arm-embedded\tools\gcc-arm-none-eabi-10-2020-q4-major\arm-none-eabi\include\c++\10.2.1\bits\stl_algo.h **** // Free Software Foundation; either version 3, or (at your option)
   9:c:\programdata\chocolatey\lib\gcc-arm-embedded\tools\gcc-arm-none-eabi-10-2020-q4-major\arm-none-eabi\include\c++\10.2.1\bits\stl_algo.h **** // any later version.
  10:c:\programdata\chocolatey\lib\gcc-arm-embedded\tools\gcc-arm-none-eabi-10-2020-q4-major\arm-none-eabi\include\c++\10.2.1\bits\stl_algo.h **** 
  11:c:\programdata\chocolatey\lib\gcc-arm-embedded\tools\gcc-arm-none-eabi-10-2020-q4-major\arm-none-eabi\include\c++\10.2.1\bits\stl_algo.h **** // This library is distributed in the hope that it will be useful,
  12:c:\programdata\chocolatey\lib\gcc-arm-embedded\tools\gcc-arm-none-eabi-10-2020-q4-major\arm-none-eabi\include\c++\10.2.1\bits\stl_algo.h **** // but WITHOUT ANY WARRANTY; without even the implied warranty of
  13:c:\programdata\chocolatey\lib\gcc-arm-embedded\tools\gcc-arm-none-eabi-10-2020-q4-major\arm-none-eabi\include\c++\10.2.1\bits\stl_algo.h **** // MERCHANTABILITY or FITNESS FOR A PARTICULAR PURPOSE.  See the
  14:c:\programdata\chocolatey\lib\gcc-arm-embedded\tools\gcc-arm-none-eabi-10-2020-q4-major\arm-none-eabi\include\c++\10.2.1\bits\stl_algo.h **** // GNU General Public License for more details.
  15:c:\programdata\chocolatey\lib\gcc-arm-embedded\tools\gcc-arm-none-eabi-10-2020-q4-major\arm-none-eabi\include\c++\10.2.1\bits\stl_algo.h **** 
  16:c:\programdata\chocolatey\lib\gcc-arm-embedded\tools\gcc-arm-none-eabi-10-2020-q4-major\arm-none-eabi\include\c++\10.2.1\bits\stl_algo.h **** // Under Section 7 of GPL version 3, you are granted additional
  17:c:\programdata\chocolatey\lib\gcc-arm-embedded\tools\gcc-arm-none-eabi-10-2020-q4-major\arm-none-eabi\include\c++\10.2.1\bits\stl_algo.h **** // permissions described in the GCC Runtime Library Exception, version
  18:c:\programdata\chocolatey\lib\gcc-arm-embedded\tools\gcc-arm-none-eabi-10-2020-q4-major\arm-none-eabi\include\c++\10.2.1\bits\stl_algo.h **** // 3.1, as published by the Free Software Foundation.
  19:c:\programdata\chocolatey\lib\gcc-arm-embedded\tools\gcc-arm-none-eabi-10-2020-q4-major\arm-none-eabi\include\c++\10.2.1\bits\stl_algo.h **** 
ARM GAS  C:\Users\daniel\AppData\Local\Temp\ccXSGLh5.s 			page 23


  20:c:\programdata\chocolatey\lib\gcc-arm-embedded\tools\gcc-arm-none-eabi-10-2020-q4-major\arm-none-eabi\include\c++\10.2.1\bits\stl_algo.h **** // You should have received a copy of the GNU General Public License and
  21:c:\programdata\chocolatey\lib\gcc-arm-embedded\tools\gcc-arm-none-eabi-10-2020-q4-major\arm-none-eabi\include\c++\10.2.1\bits\stl_algo.h **** // a copy of the GCC Runtime Library Exception along with this program;
  22:c:\programdata\chocolatey\lib\gcc-arm-embedded\tools\gcc-arm-none-eabi-10-2020-q4-major\arm-none-eabi\include\c++\10.2.1\bits\stl_algo.h **** // see the files COPYING3 and COPYING.RUNTIME respectively.  If not, see
  23:c:\programdata\chocolatey\lib\gcc-arm-embedded\tools\gcc-arm-none-eabi-10-2020-q4-major\arm-none-eabi\include\c++\10.2.1\bits\stl_algo.h **** // <http://www.gnu.org/licenses/>.
  24:c:\programdata\chocolatey\lib\gcc-arm-embedded\tools\gcc-arm-none-eabi-10-2020-q4-major\arm-none-eabi\include\c++\10.2.1\bits\stl_algo.h **** 
  25:c:\programdata\chocolatey\lib\gcc-arm-embedded\tools\gcc-arm-none-eabi-10-2020-q4-major\arm-none-eabi\include\c++\10.2.1\bits\stl_algo.h **** /*
  26:c:\programdata\chocolatey\lib\gcc-arm-embedded\tools\gcc-arm-none-eabi-10-2020-q4-major\arm-none-eabi\include\c++\10.2.1\bits\stl_algo.h ****  *
  27:c:\programdata\chocolatey\lib\gcc-arm-embedded\tools\gcc-arm-none-eabi-10-2020-q4-major\arm-none-eabi\include\c++\10.2.1\bits\stl_algo.h ****  * Copyright (c) 1994
  28:c:\programdata\chocolatey\lib\gcc-arm-embedded\tools\gcc-arm-none-eabi-10-2020-q4-major\arm-none-eabi\include\c++\10.2.1\bits\stl_algo.h ****  * Hewlett-Packard Company
  29:c:\programdata\chocolatey\lib\gcc-arm-embedded\tools\gcc-arm-none-eabi-10-2020-q4-major\arm-none-eabi\include\c++\10.2.1\bits\stl_algo.h ****  *
  30:c:\programdata\chocolatey\lib\gcc-arm-embedded\tools\gcc-arm-none-eabi-10-2020-q4-major\arm-none-eabi\include\c++\10.2.1\bits\stl_algo.h ****  * Permission to use, copy, modify, distribute and sell this software
  31:c:\programdata\chocolatey\lib\gcc-arm-embedded\tools\gcc-arm-none-eabi-10-2020-q4-major\arm-none-eabi\include\c++\10.2.1\bits\stl_algo.h ****  * and its documentation for any purpose is hereby granted without fee,
  32:c:\programdata\chocolatey\lib\gcc-arm-embedded\tools\gcc-arm-none-eabi-10-2020-q4-major\arm-none-eabi\include\c++\10.2.1\bits\stl_algo.h ****  * provided that the above copyright notice appear in all copies and
  33:c:\programdata\chocolatey\lib\gcc-arm-embedded\tools\gcc-arm-none-eabi-10-2020-q4-major\arm-none-eabi\include\c++\10.2.1\bits\stl_algo.h ****  * that both that copyright notice and this permission notice appear
  34:c:\programdata\chocolatey\lib\gcc-arm-embedded\tools\gcc-arm-none-eabi-10-2020-q4-major\arm-none-eabi\include\c++\10.2.1\bits\stl_algo.h ****  * in supporting documentation.  Hewlett-Packard Company makes no
  35:c:\programdata\chocolatey\lib\gcc-arm-embedded\tools\gcc-arm-none-eabi-10-2020-q4-major\arm-none-eabi\include\c++\10.2.1\bits\stl_algo.h ****  * representations about the suitability of this software for any
  36:c:\programdata\chocolatey\lib\gcc-arm-embedded\tools\gcc-arm-none-eabi-10-2020-q4-major\arm-none-eabi\include\c++\10.2.1\bits\stl_algo.h ****  * purpose.  It is provided "as is" without express or implied warranty.
  37:c:\programdata\chocolatey\lib\gcc-arm-embedded\tools\gcc-arm-none-eabi-10-2020-q4-major\arm-none-eabi\include\c++\10.2.1\bits\stl_algo.h ****  *
  38:c:\programdata\chocolatey\lib\gcc-arm-embedded\tools\gcc-arm-none-eabi-10-2020-q4-major\arm-none-eabi\include\c++\10.2.1\bits\stl_algo.h ****  *
  39:c:\programdata\chocolatey\lib\gcc-arm-embedded\tools\gcc-arm-none-eabi-10-2020-q4-major\arm-none-eabi\include\c++\10.2.1\bits\stl_algo.h ****  * Copyright (c) 1996
  40:c:\programdata\chocolatey\lib\gcc-arm-embedded\tools\gcc-arm-none-eabi-10-2020-q4-major\arm-none-eabi\include\c++\10.2.1\bits\stl_algo.h ****  * Silicon Graphics Computer Systems, Inc.
  41:c:\programdata\chocolatey\lib\gcc-arm-embedded\tools\gcc-arm-none-eabi-10-2020-q4-major\arm-none-eabi\include\c++\10.2.1\bits\stl_algo.h ****  *
  42:c:\programdata\chocolatey\lib\gcc-arm-embedded\tools\gcc-arm-none-eabi-10-2020-q4-major\arm-none-eabi\include\c++\10.2.1\bits\stl_algo.h ****  * Permission to use, copy, modify, distribute and sell this software
  43:c:\programdata\chocolatey\lib\gcc-arm-embedded\tools\gcc-arm-none-eabi-10-2020-q4-major\arm-none-eabi\include\c++\10.2.1\bits\stl_algo.h ****  * and its documentation for any purpose is hereby granted without fee,
  44:c:\programdata\chocolatey\lib\gcc-arm-embedded\tools\gcc-arm-none-eabi-10-2020-q4-major\arm-none-eabi\include\c++\10.2.1\bits\stl_algo.h ****  * provided that the above copyright notice appear in all copies and
  45:c:\programdata\chocolatey\lib\gcc-arm-embedded\tools\gcc-arm-none-eabi-10-2020-q4-major\arm-none-eabi\include\c++\10.2.1\bits\stl_algo.h ****  * that both that copyright notice and this permission notice appear
  46:c:\programdata\chocolatey\lib\gcc-arm-embedded\tools\gcc-arm-none-eabi-10-2020-q4-major\arm-none-eabi\include\c++\10.2.1\bits\stl_algo.h ****  * in supporting documentation.  Silicon Graphics makes no
  47:c:\programdata\chocolatey\lib\gcc-arm-embedded\tools\gcc-arm-none-eabi-10-2020-q4-major\arm-none-eabi\include\c++\10.2.1\bits\stl_algo.h ****  * representations about the suitability of this software for any
  48:c:\programdata\chocolatey\lib\gcc-arm-embedded\tools\gcc-arm-none-eabi-10-2020-q4-major\arm-none-eabi\include\c++\10.2.1\bits\stl_algo.h ****  * purpose.  It is provided "as is" without express or implied warranty.
  49:c:\programdata\chocolatey\lib\gcc-arm-embedded\tools\gcc-arm-none-eabi-10-2020-q4-major\arm-none-eabi\include\c++\10.2.1\bits\stl_algo.h ****  */
  50:c:\programdata\chocolatey\lib\gcc-arm-embedded\tools\gcc-arm-none-eabi-10-2020-q4-major\arm-none-eabi\include\c++\10.2.1\bits\stl_algo.h **** 
  51:c:\programdata\chocolatey\lib\gcc-arm-embedded\tools\gcc-arm-none-eabi-10-2020-q4-major\arm-none-eabi\include\c++\10.2.1\bits\stl_algo.h **** /** @file bits/stl_algo.h
  52:c:\programdata\chocolatey\lib\gcc-arm-embedded\tools\gcc-arm-none-eabi-10-2020-q4-major\arm-none-eabi\include\c++\10.2.1\bits\stl_algo.h ****  *  This is an internal header file, included by other library headers.
  53:c:\programdata\chocolatey\lib\gcc-arm-embedded\tools\gcc-arm-none-eabi-10-2020-q4-major\arm-none-eabi\include\c++\10.2.1\bits\stl_algo.h ****  *  Do not attempt to use it directly. @headername{algorithm}
  54:c:\programdata\chocolatey\lib\gcc-arm-embedded\tools\gcc-arm-none-eabi-10-2020-q4-major\arm-none-eabi\include\c++\10.2.1\bits\stl_algo.h ****  */
  55:c:\programdata\chocolatey\lib\gcc-arm-embedded\tools\gcc-arm-none-eabi-10-2020-q4-major\arm-none-eabi\include\c++\10.2.1\bits\stl_algo.h **** 
  56:c:\programdata\chocolatey\lib\gcc-arm-embedded\tools\gcc-arm-none-eabi-10-2020-q4-major\arm-none-eabi\include\c++\10.2.1\bits\stl_algo.h **** #ifndef _STL_ALGO_H
  57:c:\programdata\chocolatey\lib\gcc-arm-embedded\tools\gcc-arm-none-eabi-10-2020-q4-major\arm-none-eabi\include\c++\10.2.1\bits\stl_algo.h **** #define _STL_ALGO_H 1
  58:c:\programdata\chocolatey\lib\gcc-arm-embedded\tools\gcc-arm-none-eabi-10-2020-q4-major\arm-none-eabi\include\c++\10.2.1\bits\stl_algo.h **** 
  59:c:\programdata\chocolatey\lib\gcc-arm-embedded\tools\gcc-arm-none-eabi-10-2020-q4-major\arm-none-eabi\include\c++\10.2.1\bits\stl_algo.h **** #include <cstdlib>	     // for rand
  60:c:\programdata\chocolatey\lib\gcc-arm-embedded\tools\gcc-arm-none-eabi-10-2020-q4-major\arm-none-eabi\include\c++\10.2.1\bits\stl_algo.h **** #include <bits/algorithmfwd.h>
  61:c:\programdata\chocolatey\lib\gcc-arm-embedded\tools\gcc-arm-none-eabi-10-2020-q4-major\arm-none-eabi\include\c++\10.2.1\bits\stl_algo.h **** #include <bits/stl_heap.h>
  62:c:\programdata\chocolatey\lib\gcc-arm-embedded\tools\gcc-arm-none-eabi-10-2020-q4-major\arm-none-eabi\include\c++\10.2.1\bits\stl_algo.h **** #include <bits/stl_tempbuf.h>  // for _Temporary_buffer
  63:c:\programdata\chocolatey\lib\gcc-arm-embedded\tools\gcc-arm-none-eabi-10-2020-q4-major\arm-none-eabi\include\c++\10.2.1\bits\stl_algo.h **** #include <bits/predefined_ops.h>
  64:c:\programdata\chocolatey\lib\gcc-arm-embedded\tools\gcc-arm-none-eabi-10-2020-q4-major\arm-none-eabi\include\c++\10.2.1\bits\stl_algo.h **** 
  65:c:\programdata\chocolatey\lib\gcc-arm-embedded\tools\gcc-arm-none-eabi-10-2020-q4-major\arm-none-eabi\include\c++\10.2.1\bits\stl_algo.h **** #if __cplusplus >= 201103L
  66:c:\programdata\chocolatey\lib\gcc-arm-embedded\tools\gcc-arm-none-eabi-10-2020-q4-major\arm-none-eabi\include\c++\10.2.1\bits\stl_algo.h **** #include <bits/uniform_int_dist.h>
  67:c:\programdata\chocolatey\lib\gcc-arm-embedded\tools\gcc-arm-none-eabi-10-2020-q4-major\arm-none-eabi\include\c++\10.2.1\bits\stl_algo.h **** #endif
  68:c:\programdata\chocolatey\lib\gcc-arm-embedded\tools\gcc-arm-none-eabi-10-2020-q4-major\arm-none-eabi\include\c++\10.2.1\bits\stl_algo.h **** 
  69:c:\programdata\chocolatey\lib\gcc-arm-embedded\tools\gcc-arm-none-eabi-10-2020-q4-major\arm-none-eabi\include\c++\10.2.1\bits\stl_algo.h **** // See concept_check.h for the __glibcxx_*_requires macros.
  70:c:\programdata\chocolatey\lib\gcc-arm-embedded\tools\gcc-arm-none-eabi-10-2020-q4-major\arm-none-eabi\include\c++\10.2.1\bits\stl_algo.h **** 
  71:c:\programdata\chocolatey\lib\gcc-arm-embedded\tools\gcc-arm-none-eabi-10-2020-q4-major\arm-none-eabi\include\c++\10.2.1\bits\stl_algo.h **** namespace std _GLIBCXX_VISIBILITY(default)
  72:c:\programdata\chocolatey\lib\gcc-arm-embedded\tools\gcc-arm-none-eabi-10-2020-q4-major\arm-none-eabi\include\c++\10.2.1\bits\stl_algo.h **** {
  73:c:\programdata\chocolatey\lib\gcc-arm-embedded\tools\gcc-arm-none-eabi-10-2020-q4-major\arm-none-eabi\include\c++\10.2.1\bits\stl_algo.h **** _GLIBCXX_BEGIN_NAMESPACE_VERSION
  74:c:\programdata\chocolatey\lib\gcc-arm-embedded\tools\gcc-arm-none-eabi-10-2020-q4-major\arm-none-eabi\include\c++\10.2.1\bits\stl_algo.h **** 
  75:c:\programdata\chocolatey\lib\gcc-arm-embedded\tools\gcc-arm-none-eabi-10-2020-q4-major\arm-none-eabi\include\c++\10.2.1\bits\stl_algo.h ****   /// Swaps the median value of *__a, *__b and *__c under __comp to *__result
  76:c:\programdata\chocolatey\lib\gcc-arm-embedded\tools\gcc-arm-none-eabi-10-2020-q4-major\arm-none-eabi\include\c++\10.2.1\bits\stl_algo.h ****   template<typename _Iterator, typename _Compare>
ARM GAS  C:\Users\daniel\AppData\Local\Temp\ccXSGLh5.s 			page 24


  77:c:\programdata\chocolatey\lib\gcc-arm-embedded\tools\gcc-arm-none-eabi-10-2020-q4-major\arm-none-eabi\include\c++\10.2.1\bits\stl_algo.h ****     _GLIBCXX20_CONSTEXPR
  78:c:\programdata\chocolatey\lib\gcc-arm-embedded\tools\gcc-arm-none-eabi-10-2020-q4-major\arm-none-eabi\include\c++\10.2.1\bits\stl_algo.h ****     void
  79:c:\programdata\chocolatey\lib\gcc-arm-embedded\tools\gcc-arm-none-eabi-10-2020-q4-major\arm-none-eabi\include\c++\10.2.1\bits\stl_algo.h ****     __move_median_to_first(_Iterator __result,_Iterator __a, _Iterator __b,
  80:c:\programdata\chocolatey\lib\gcc-arm-embedded\tools\gcc-arm-none-eabi-10-2020-q4-major\arm-none-eabi\include\c++\10.2.1\bits\stl_algo.h **** 			   _Iterator __c, _Compare __comp)
  81:c:\programdata\chocolatey\lib\gcc-arm-embedded\tools\gcc-arm-none-eabi-10-2020-q4-major\arm-none-eabi\include\c++\10.2.1\bits\stl_algo.h ****     {
  82:c:\programdata\chocolatey\lib\gcc-arm-embedded\tools\gcc-arm-none-eabi-10-2020-q4-major\arm-none-eabi\include\c++\10.2.1\bits\stl_algo.h ****       if (__comp(__a, __b))
  83:c:\programdata\chocolatey\lib\gcc-arm-embedded\tools\gcc-arm-none-eabi-10-2020-q4-major\arm-none-eabi\include\c++\10.2.1\bits\stl_algo.h **** 	{
  84:c:\programdata\chocolatey\lib\gcc-arm-embedded\tools\gcc-arm-none-eabi-10-2020-q4-major\arm-none-eabi\include\c++\10.2.1\bits\stl_algo.h **** 	  if (__comp(__b, __c))
  85:c:\programdata\chocolatey\lib\gcc-arm-embedded\tools\gcc-arm-none-eabi-10-2020-q4-major\arm-none-eabi\include\c++\10.2.1\bits\stl_algo.h **** 	    std::iter_swap(__result, __b);
  86:c:\programdata\chocolatey\lib\gcc-arm-embedded\tools\gcc-arm-none-eabi-10-2020-q4-major\arm-none-eabi\include\c++\10.2.1\bits\stl_algo.h **** 	  else if (__comp(__a, __c))
  87:c:\programdata\chocolatey\lib\gcc-arm-embedded\tools\gcc-arm-none-eabi-10-2020-q4-major\arm-none-eabi\include\c++\10.2.1\bits\stl_algo.h **** 	    std::iter_swap(__result, __c);
  88:c:\programdata\chocolatey\lib\gcc-arm-embedded\tools\gcc-arm-none-eabi-10-2020-q4-major\arm-none-eabi\include\c++\10.2.1\bits\stl_algo.h **** 	  else
  89:c:\programdata\chocolatey\lib\gcc-arm-embedded\tools\gcc-arm-none-eabi-10-2020-q4-major\arm-none-eabi\include\c++\10.2.1\bits\stl_algo.h **** 	    std::iter_swap(__result, __a);
  90:c:\programdata\chocolatey\lib\gcc-arm-embedded\tools\gcc-arm-none-eabi-10-2020-q4-major\arm-none-eabi\include\c++\10.2.1\bits\stl_algo.h **** 	}
  91:c:\programdata\chocolatey\lib\gcc-arm-embedded\tools\gcc-arm-none-eabi-10-2020-q4-major\arm-none-eabi\include\c++\10.2.1\bits\stl_algo.h ****       else if (__comp(__a, __c))
  92:c:\programdata\chocolatey\lib\gcc-arm-embedded\tools\gcc-arm-none-eabi-10-2020-q4-major\arm-none-eabi\include\c++\10.2.1\bits\stl_algo.h **** 	std::iter_swap(__result, __a);
  93:c:\programdata\chocolatey\lib\gcc-arm-embedded\tools\gcc-arm-none-eabi-10-2020-q4-major\arm-none-eabi\include\c++\10.2.1\bits\stl_algo.h ****       else if (__comp(__b, __c))
  94:c:\programdata\chocolatey\lib\gcc-arm-embedded\tools\gcc-arm-none-eabi-10-2020-q4-major\arm-none-eabi\include\c++\10.2.1\bits\stl_algo.h **** 	std::iter_swap(__result, __c);
  95:c:\programdata\chocolatey\lib\gcc-arm-embedded\tools\gcc-arm-none-eabi-10-2020-q4-major\arm-none-eabi\include\c++\10.2.1\bits\stl_algo.h ****       else
  96:c:\programdata\chocolatey\lib\gcc-arm-embedded\tools\gcc-arm-none-eabi-10-2020-q4-major\arm-none-eabi\include\c++\10.2.1\bits\stl_algo.h **** 	std::iter_swap(__result, __b);
  97:c:\programdata\chocolatey\lib\gcc-arm-embedded\tools\gcc-arm-none-eabi-10-2020-q4-major\arm-none-eabi\include\c++\10.2.1\bits\stl_algo.h ****     }
  98:c:\programdata\chocolatey\lib\gcc-arm-embedded\tools\gcc-arm-none-eabi-10-2020-q4-major\arm-none-eabi\include\c++\10.2.1\bits\stl_algo.h **** 
  99:c:\programdata\chocolatey\lib\gcc-arm-embedded\tools\gcc-arm-none-eabi-10-2020-q4-major\arm-none-eabi\include\c++\10.2.1\bits\stl_algo.h ****   /// Provided for stable_partition to use.
 100:c:\programdata\chocolatey\lib\gcc-arm-embedded\tools\gcc-arm-none-eabi-10-2020-q4-major\arm-none-eabi\include\c++\10.2.1\bits\stl_algo.h ****   template<typename _InputIterator, typename _Predicate>
 101:c:\programdata\chocolatey\lib\gcc-arm-embedded\tools\gcc-arm-none-eabi-10-2020-q4-major\arm-none-eabi\include\c++\10.2.1\bits\stl_algo.h ****     _GLIBCXX20_CONSTEXPR
 102:c:\programdata\chocolatey\lib\gcc-arm-embedded\tools\gcc-arm-none-eabi-10-2020-q4-major\arm-none-eabi\include\c++\10.2.1\bits\stl_algo.h ****     inline _InputIterator
 103:c:\programdata\chocolatey\lib\gcc-arm-embedded\tools\gcc-arm-none-eabi-10-2020-q4-major\arm-none-eabi\include\c++\10.2.1\bits\stl_algo.h ****     __find_if_not(_InputIterator __first, _InputIterator __last,
 104:c:\programdata\chocolatey\lib\gcc-arm-embedded\tools\gcc-arm-none-eabi-10-2020-q4-major\arm-none-eabi\include\c++\10.2.1\bits\stl_algo.h **** 		  _Predicate __pred)
 105:c:\programdata\chocolatey\lib\gcc-arm-embedded\tools\gcc-arm-none-eabi-10-2020-q4-major\arm-none-eabi\include\c++\10.2.1\bits\stl_algo.h ****     {
 106:c:\programdata\chocolatey\lib\gcc-arm-embedded\tools\gcc-arm-none-eabi-10-2020-q4-major\arm-none-eabi\include\c++\10.2.1\bits\stl_algo.h ****       return std::__find_if(__first, __last,
 107:c:\programdata\chocolatey\lib\gcc-arm-embedded\tools\gcc-arm-none-eabi-10-2020-q4-major\arm-none-eabi\include\c++\10.2.1\bits\stl_algo.h **** 			    __gnu_cxx::__ops::__negate(__pred),
 108:c:\programdata\chocolatey\lib\gcc-arm-embedded\tools\gcc-arm-none-eabi-10-2020-q4-major\arm-none-eabi\include\c++\10.2.1\bits\stl_algo.h **** 			    std::__iterator_category(__first));
 109:c:\programdata\chocolatey\lib\gcc-arm-embedded\tools\gcc-arm-none-eabi-10-2020-q4-major\arm-none-eabi\include\c++\10.2.1\bits\stl_algo.h ****     }
 110:c:\programdata\chocolatey\lib\gcc-arm-embedded\tools\gcc-arm-none-eabi-10-2020-q4-major\arm-none-eabi\include\c++\10.2.1\bits\stl_algo.h **** 
 111:c:\programdata\chocolatey\lib\gcc-arm-embedded\tools\gcc-arm-none-eabi-10-2020-q4-major\arm-none-eabi\include\c++\10.2.1\bits\stl_algo.h ****   /// Like find_if_not(), but uses and updates a count of the
 112:c:\programdata\chocolatey\lib\gcc-arm-embedded\tools\gcc-arm-none-eabi-10-2020-q4-major\arm-none-eabi\include\c++\10.2.1\bits\stl_algo.h ****   /// remaining range length instead of comparing against an end
 113:c:\programdata\chocolatey\lib\gcc-arm-embedded\tools\gcc-arm-none-eabi-10-2020-q4-major\arm-none-eabi\include\c++\10.2.1\bits\stl_algo.h ****   /// iterator.
 114:c:\programdata\chocolatey\lib\gcc-arm-embedded\tools\gcc-arm-none-eabi-10-2020-q4-major\arm-none-eabi\include\c++\10.2.1\bits\stl_algo.h ****   template<typename _InputIterator, typename _Predicate, typename _Distance>
 115:c:\programdata\chocolatey\lib\gcc-arm-embedded\tools\gcc-arm-none-eabi-10-2020-q4-major\arm-none-eabi\include\c++\10.2.1\bits\stl_algo.h ****     _GLIBCXX20_CONSTEXPR
 116:c:\programdata\chocolatey\lib\gcc-arm-embedded\tools\gcc-arm-none-eabi-10-2020-q4-major\arm-none-eabi\include\c++\10.2.1\bits\stl_algo.h ****     _InputIterator
 117:c:\programdata\chocolatey\lib\gcc-arm-embedded\tools\gcc-arm-none-eabi-10-2020-q4-major\arm-none-eabi\include\c++\10.2.1\bits\stl_algo.h ****     __find_if_not_n(_InputIterator __first, _Distance& __len, _Predicate __pred)
 118:c:\programdata\chocolatey\lib\gcc-arm-embedded\tools\gcc-arm-none-eabi-10-2020-q4-major\arm-none-eabi\include\c++\10.2.1\bits\stl_algo.h ****     {
 119:c:\programdata\chocolatey\lib\gcc-arm-embedded\tools\gcc-arm-none-eabi-10-2020-q4-major\arm-none-eabi\include\c++\10.2.1\bits\stl_algo.h ****       for (; __len; --__len,  (void) ++__first)
 120:c:\programdata\chocolatey\lib\gcc-arm-embedded\tools\gcc-arm-none-eabi-10-2020-q4-major\arm-none-eabi\include\c++\10.2.1\bits\stl_algo.h **** 	if (!__pred(__first))
 121:c:\programdata\chocolatey\lib\gcc-arm-embedded\tools\gcc-arm-none-eabi-10-2020-q4-major\arm-none-eabi\include\c++\10.2.1\bits\stl_algo.h **** 	  break;
 122:c:\programdata\chocolatey\lib\gcc-arm-embedded\tools\gcc-arm-none-eabi-10-2020-q4-major\arm-none-eabi\include\c++\10.2.1\bits\stl_algo.h ****       return __first;
 123:c:\programdata\chocolatey\lib\gcc-arm-embedded\tools\gcc-arm-none-eabi-10-2020-q4-major\arm-none-eabi\include\c++\10.2.1\bits\stl_algo.h ****     }
 124:c:\programdata\chocolatey\lib\gcc-arm-embedded\tools\gcc-arm-none-eabi-10-2020-q4-major\arm-none-eabi\include\c++\10.2.1\bits\stl_algo.h **** 
 125:c:\programdata\chocolatey\lib\gcc-arm-embedded\tools\gcc-arm-none-eabi-10-2020-q4-major\arm-none-eabi\include\c++\10.2.1\bits\stl_algo.h ****   // set_difference
 126:c:\programdata\chocolatey\lib\gcc-arm-embedded\tools\gcc-arm-none-eabi-10-2020-q4-major\arm-none-eabi\include\c++\10.2.1\bits\stl_algo.h ****   // set_intersection
 127:c:\programdata\chocolatey\lib\gcc-arm-embedded\tools\gcc-arm-none-eabi-10-2020-q4-major\arm-none-eabi\include\c++\10.2.1\bits\stl_algo.h ****   // set_symmetric_difference
 128:c:\programdata\chocolatey\lib\gcc-arm-embedded\tools\gcc-arm-none-eabi-10-2020-q4-major\arm-none-eabi\include\c++\10.2.1\bits\stl_algo.h ****   // set_union
 129:c:\programdata\chocolatey\lib\gcc-arm-embedded\tools\gcc-arm-none-eabi-10-2020-q4-major\arm-none-eabi\include\c++\10.2.1\bits\stl_algo.h ****   // for_each
 130:c:\programdata\chocolatey\lib\gcc-arm-embedded\tools\gcc-arm-none-eabi-10-2020-q4-major\arm-none-eabi\include\c++\10.2.1\bits\stl_algo.h ****   // find
 131:c:\programdata\chocolatey\lib\gcc-arm-embedded\tools\gcc-arm-none-eabi-10-2020-q4-major\arm-none-eabi\include\c++\10.2.1\bits\stl_algo.h ****   // find_if
 132:c:\programdata\chocolatey\lib\gcc-arm-embedded\tools\gcc-arm-none-eabi-10-2020-q4-major\arm-none-eabi\include\c++\10.2.1\bits\stl_algo.h ****   // find_first_of
 133:c:\programdata\chocolatey\lib\gcc-arm-embedded\tools\gcc-arm-none-eabi-10-2020-q4-major\arm-none-eabi\include\c++\10.2.1\bits\stl_algo.h ****   // adjacent_find
ARM GAS  C:\Users\daniel\AppData\Local\Temp\ccXSGLh5.s 			page 25


 134:c:\programdata\chocolatey\lib\gcc-arm-embedded\tools\gcc-arm-none-eabi-10-2020-q4-major\arm-none-eabi\include\c++\10.2.1\bits\stl_algo.h ****   // count
 135:c:\programdata\chocolatey\lib\gcc-arm-embedded\tools\gcc-arm-none-eabi-10-2020-q4-major\arm-none-eabi\include\c++\10.2.1\bits\stl_algo.h ****   // count_if
 136:c:\programdata\chocolatey\lib\gcc-arm-embedded\tools\gcc-arm-none-eabi-10-2020-q4-major\arm-none-eabi\include\c++\10.2.1\bits\stl_algo.h ****   // search
 137:c:\programdata\chocolatey\lib\gcc-arm-embedded\tools\gcc-arm-none-eabi-10-2020-q4-major\arm-none-eabi\include\c++\10.2.1\bits\stl_algo.h **** 
 138:c:\programdata\chocolatey\lib\gcc-arm-embedded\tools\gcc-arm-none-eabi-10-2020-q4-major\arm-none-eabi\include\c++\10.2.1\bits\stl_algo.h ****   template<typename _ForwardIterator1, typename _ForwardIterator2,
 139:c:\programdata\chocolatey\lib\gcc-arm-embedded\tools\gcc-arm-none-eabi-10-2020-q4-major\arm-none-eabi\include\c++\10.2.1\bits\stl_algo.h **** 	   typename _BinaryPredicate>
 140:c:\programdata\chocolatey\lib\gcc-arm-embedded\tools\gcc-arm-none-eabi-10-2020-q4-major\arm-none-eabi\include\c++\10.2.1\bits\stl_algo.h ****     _GLIBCXX20_CONSTEXPR
 141:c:\programdata\chocolatey\lib\gcc-arm-embedded\tools\gcc-arm-none-eabi-10-2020-q4-major\arm-none-eabi\include\c++\10.2.1\bits\stl_algo.h ****     _ForwardIterator1
 142:c:\programdata\chocolatey\lib\gcc-arm-embedded\tools\gcc-arm-none-eabi-10-2020-q4-major\arm-none-eabi\include\c++\10.2.1\bits\stl_algo.h ****     __search(_ForwardIterator1 __first1, _ForwardIterator1 __last1,
 143:c:\programdata\chocolatey\lib\gcc-arm-embedded\tools\gcc-arm-none-eabi-10-2020-q4-major\arm-none-eabi\include\c++\10.2.1\bits\stl_algo.h **** 	     _ForwardIterator2 __first2, _ForwardIterator2 __last2,
 144:c:\programdata\chocolatey\lib\gcc-arm-embedded\tools\gcc-arm-none-eabi-10-2020-q4-major\arm-none-eabi\include\c++\10.2.1\bits\stl_algo.h **** 	     _BinaryPredicate  __predicate)
 145:c:\programdata\chocolatey\lib\gcc-arm-embedded\tools\gcc-arm-none-eabi-10-2020-q4-major\arm-none-eabi\include\c++\10.2.1\bits\stl_algo.h ****     {
 146:c:\programdata\chocolatey\lib\gcc-arm-embedded\tools\gcc-arm-none-eabi-10-2020-q4-major\arm-none-eabi\include\c++\10.2.1\bits\stl_algo.h ****       // Test for empty ranges
 147:c:\programdata\chocolatey\lib\gcc-arm-embedded\tools\gcc-arm-none-eabi-10-2020-q4-major\arm-none-eabi\include\c++\10.2.1\bits\stl_algo.h ****       if (__first1 == __last1 || __first2 == __last2)
 148:c:\programdata\chocolatey\lib\gcc-arm-embedded\tools\gcc-arm-none-eabi-10-2020-q4-major\arm-none-eabi\include\c++\10.2.1\bits\stl_algo.h **** 	return __first1;
 149:c:\programdata\chocolatey\lib\gcc-arm-embedded\tools\gcc-arm-none-eabi-10-2020-q4-major\arm-none-eabi\include\c++\10.2.1\bits\stl_algo.h **** 
 150:c:\programdata\chocolatey\lib\gcc-arm-embedded\tools\gcc-arm-none-eabi-10-2020-q4-major\arm-none-eabi\include\c++\10.2.1\bits\stl_algo.h ****       // Test for a pattern of length 1.
 151:c:\programdata\chocolatey\lib\gcc-arm-embedded\tools\gcc-arm-none-eabi-10-2020-q4-major\arm-none-eabi\include\c++\10.2.1\bits\stl_algo.h ****       _ForwardIterator2 __p1(__first2);
 152:c:\programdata\chocolatey\lib\gcc-arm-embedded\tools\gcc-arm-none-eabi-10-2020-q4-major\arm-none-eabi\include\c++\10.2.1\bits\stl_algo.h ****       if (++__p1 == __last2)
 153:c:\programdata\chocolatey\lib\gcc-arm-embedded\tools\gcc-arm-none-eabi-10-2020-q4-major\arm-none-eabi\include\c++\10.2.1\bits\stl_algo.h **** 	return std::__find_if(__first1, __last1,
 154:c:\programdata\chocolatey\lib\gcc-arm-embedded\tools\gcc-arm-none-eabi-10-2020-q4-major\arm-none-eabi\include\c++\10.2.1\bits\stl_algo.h **** 		__gnu_cxx::__ops::__iter_comp_iter(__predicate, __first2));
 155:c:\programdata\chocolatey\lib\gcc-arm-embedded\tools\gcc-arm-none-eabi-10-2020-q4-major\arm-none-eabi\include\c++\10.2.1\bits\stl_algo.h **** 
 156:c:\programdata\chocolatey\lib\gcc-arm-embedded\tools\gcc-arm-none-eabi-10-2020-q4-major\arm-none-eabi\include\c++\10.2.1\bits\stl_algo.h ****       // General case.
 157:c:\programdata\chocolatey\lib\gcc-arm-embedded\tools\gcc-arm-none-eabi-10-2020-q4-major\arm-none-eabi\include\c++\10.2.1\bits\stl_algo.h ****       _ForwardIterator1 __current = __first1;
 158:c:\programdata\chocolatey\lib\gcc-arm-embedded\tools\gcc-arm-none-eabi-10-2020-q4-major\arm-none-eabi\include\c++\10.2.1\bits\stl_algo.h **** 
 159:c:\programdata\chocolatey\lib\gcc-arm-embedded\tools\gcc-arm-none-eabi-10-2020-q4-major\arm-none-eabi\include\c++\10.2.1\bits\stl_algo.h ****       for (;;)
 160:c:\programdata\chocolatey\lib\gcc-arm-embedded\tools\gcc-arm-none-eabi-10-2020-q4-major\arm-none-eabi\include\c++\10.2.1\bits\stl_algo.h **** 	{
 161:c:\programdata\chocolatey\lib\gcc-arm-embedded\tools\gcc-arm-none-eabi-10-2020-q4-major\arm-none-eabi\include\c++\10.2.1\bits\stl_algo.h **** 	  __first1 =
 162:c:\programdata\chocolatey\lib\gcc-arm-embedded\tools\gcc-arm-none-eabi-10-2020-q4-major\arm-none-eabi\include\c++\10.2.1\bits\stl_algo.h **** 	    std::__find_if(__first1, __last1,
 163:c:\programdata\chocolatey\lib\gcc-arm-embedded\tools\gcc-arm-none-eabi-10-2020-q4-major\arm-none-eabi\include\c++\10.2.1\bits\stl_algo.h **** 		__gnu_cxx::__ops::__iter_comp_iter(__predicate, __first2));
 164:c:\programdata\chocolatey\lib\gcc-arm-embedded\tools\gcc-arm-none-eabi-10-2020-q4-major\arm-none-eabi\include\c++\10.2.1\bits\stl_algo.h **** 
 165:c:\programdata\chocolatey\lib\gcc-arm-embedded\tools\gcc-arm-none-eabi-10-2020-q4-major\arm-none-eabi\include\c++\10.2.1\bits\stl_algo.h **** 	  if (__first1 == __last1)
 166:c:\programdata\chocolatey\lib\gcc-arm-embedded\tools\gcc-arm-none-eabi-10-2020-q4-major\arm-none-eabi\include\c++\10.2.1\bits\stl_algo.h **** 	    return __last1;
 167:c:\programdata\chocolatey\lib\gcc-arm-embedded\tools\gcc-arm-none-eabi-10-2020-q4-major\arm-none-eabi\include\c++\10.2.1\bits\stl_algo.h **** 
 168:c:\programdata\chocolatey\lib\gcc-arm-embedded\tools\gcc-arm-none-eabi-10-2020-q4-major\arm-none-eabi\include\c++\10.2.1\bits\stl_algo.h **** 	  _ForwardIterator2 __p = __p1;
 169:c:\programdata\chocolatey\lib\gcc-arm-embedded\tools\gcc-arm-none-eabi-10-2020-q4-major\arm-none-eabi\include\c++\10.2.1\bits\stl_algo.h **** 	  __current = __first1;
 170:c:\programdata\chocolatey\lib\gcc-arm-embedded\tools\gcc-arm-none-eabi-10-2020-q4-major\arm-none-eabi\include\c++\10.2.1\bits\stl_algo.h **** 	  if (++__current == __last1)
 171:c:\programdata\chocolatey\lib\gcc-arm-embedded\tools\gcc-arm-none-eabi-10-2020-q4-major\arm-none-eabi\include\c++\10.2.1\bits\stl_algo.h **** 	    return __last1;
 172:c:\programdata\chocolatey\lib\gcc-arm-embedded\tools\gcc-arm-none-eabi-10-2020-q4-major\arm-none-eabi\include\c++\10.2.1\bits\stl_algo.h **** 
 173:c:\programdata\chocolatey\lib\gcc-arm-embedded\tools\gcc-arm-none-eabi-10-2020-q4-major\arm-none-eabi\include\c++\10.2.1\bits\stl_algo.h **** 	  while (__predicate(__current, __p))
 174:c:\programdata\chocolatey\lib\gcc-arm-embedded\tools\gcc-arm-none-eabi-10-2020-q4-major\arm-none-eabi\include\c++\10.2.1\bits\stl_algo.h **** 	    {
 175:c:\programdata\chocolatey\lib\gcc-arm-embedded\tools\gcc-arm-none-eabi-10-2020-q4-major\arm-none-eabi\include\c++\10.2.1\bits\stl_algo.h **** 	      if (++__p == __last2)
 176:c:\programdata\chocolatey\lib\gcc-arm-embedded\tools\gcc-arm-none-eabi-10-2020-q4-major\arm-none-eabi\include\c++\10.2.1\bits\stl_algo.h **** 		return __first1;
 177:c:\programdata\chocolatey\lib\gcc-arm-embedded\tools\gcc-arm-none-eabi-10-2020-q4-major\arm-none-eabi\include\c++\10.2.1\bits\stl_algo.h **** 	      if (++__current == __last1)
 178:c:\programdata\chocolatey\lib\gcc-arm-embedded\tools\gcc-arm-none-eabi-10-2020-q4-major\arm-none-eabi\include\c++\10.2.1\bits\stl_algo.h **** 		return __last1;
 179:c:\programdata\chocolatey\lib\gcc-arm-embedded\tools\gcc-arm-none-eabi-10-2020-q4-major\arm-none-eabi\include\c++\10.2.1\bits\stl_algo.h **** 	    }
 180:c:\programdata\chocolatey\lib\gcc-arm-embedded\tools\gcc-arm-none-eabi-10-2020-q4-major\arm-none-eabi\include\c++\10.2.1\bits\stl_algo.h **** 	  ++__first1;
 181:c:\programdata\chocolatey\lib\gcc-arm-embedded\tools\gcc-arm-none-eabi-10-2020-q4-major\arm-none-eabi\include\c++\10.2.1\bits\stl_algo.h **** 	}
 182:c:\programdata\chocolatey\lib\gcc-arm-embedded\tools\gcc-arm-none-eabi-10-2020-q4-major\arm-none-eabi\include\c++\10.2.1\bits\stl_algo.h ****       return __first1;
 183:c:\programdata\chocolatey\lib\gcc-arm-embedded\tools\gcc-arm-none-eabi-10-2020-q4-major\arm-none-eabi\include\c++\10.2.1\bits\stl_algo.h ****     }
 184:c:\programdata\chocolatey\lib\gcc-arm-embedded\tools\gcc-arm-none-eabi-10-2020-q4-major\arm-none-eabi\include\c++\10.2.1\bits\stl_algo.h **** 
 185:c:\programdata\chocolatey\lib\gcc-arm-embedded\tools\gcc-arm-none-eabi-10-2020-q4-major\arm-none-eabi\include\c++\10.2.1\bits\stl_algo.h ****   // search_n
 186:c:\programdata\chocolatey\lib\gcc-arm-embedded\tools\gcc-arm-none-eabi-10-2020-q4-major\arm-none-eabi\include\c++\10.2.1\bits\stl_algo.h **** 
 187:c:\programdata\chocolatey\lib\gcc-arm-embedded\tools\gcc-arm-none-eabi-10-2020-q4-major\arm-none-eabi\include\c++\10.2.1\bits\stl_algo.h ****   /**
 188:c:\programdata\chocolatey\lib\gcc-arm-embedded\tools\gcc-arm-none-eabi-10-2020-q4-major\arm-none-eabi\include\c++\10.2.1\bits\stl_algo.h ****    *  This is an helper function for search_n overloaded for forward iterators.
 189:c:\programdata\chocolatey\lib\gcc-arm-embedded\tools\gcc-arm-none-eabi-10-2020-q4-major\arm-none-eabi\include\c++\10.2.1\bits\stl_algo.h ****   */
 190:c:\programdata\chocolatey\lib\gcc-arm-embedded\tools\gcc-arm-none-eabi-10-2020-q4-major\arm-none-eabi\include\c++\10.2.1\bits\stl_algo.h ****   template<typename _ForwardIterator, typename _Integer,
ARM GAS  C:\Users\daniel\AppData\Local\Temp\ccXSGLh5.s 			page 26


 191:c:\programdata\chocolatey\lib\gcc-arm-embedded\tools\gcc-arm-none-eabi-10-2020-q4-major\arm-none-eabi\include\c++\10.2.1\bits\stl_algo.h **** 	   typename _UnaryPredicate>
 192:c:\programdata\chocolatey\lib\gcc-arm-embedded\tools\gcc-arm-none-eabi-10-2020-q4-major\arm-none-eabi\include\c++\10.2.1\bits\stl_algo.h ****     _GLIBCXX20_CONSTEXPR
 193:c:\programdata\chocolatey\lib\gcc-arm-embedded\tools\gcc-arm-none-eabi-10-2020-q4-major\arm-none-eabi\include\c++\10.2.1\bits\stl_algo.h ****     _ForwardIterator
 194:c:\programdata\chocolatey\lib\gcc-arm-embedded\tools\gcc-arm-none-eabi-10-2020-q4-major\arm-none-eabi\include\c++\10.2.1\bits\stl_algo.h ****     __search_n_aux(_ForwardIterator __first, _ForwardIterator __last,
 195:c:\programdata\chocolatey\lib\gcc-arm-embedded\tools\gcc-arm-none-eabi-10-2020-q4-major\arm-none-eabi\include\c++\10.2.1\bits\stl_algo.h **** 		   _Integer __count, _UnaryPredicate __unary_pred,
 196:c:\programdata\chocolatey\lib\gcc-arm-embedded\tools\gcc-arm-none-eabi-10-2020-q4-major\arm-none-eabi\include\c++\10.2.1\bits\stl_algo.h **** 		   std::forward_iterator_tag)
 197:c:\programdata\chocolatey\lib\gcc-arm-embedded\tools\gcc-arm-none-eabi-10-2020-q4-major\arm-none-eabi\include\c++\10.2.1\bits\stl_algo.h ****     {
 198:c:\programdata\chocolatey\lib\gcc-arm-embedded\tools\gcc-arm-none-eabi-10-2020-q4-major\arm-none-eabi\include\c++\10.2.1\bits\stl_algo.h ****       __first = std::__find_if(__first, __last, __unary_pred);
 199:c:\programdata\chocolatey\lib\gcc-arm-embedded\tools\gcc-arm-none-eabi-10-2020-q4-major\arm-none-eabi\include\c++\10.2.1\bits\stl_algo.h ****       while (__first != __last)
 200:c:\programdata\chocolatey\lib\gcc-arm-embedded\tools\gcc-arm-none-eabi-10-2020-q4-major\arm-none-eabi\include\c++\10.2.1\bits\stl_algo.h **** 	{
 201:c:\programdata\chocolatey\lib\gcc-arm-embedded\tools\gcc-arm-none-eabi-10-2020-q4-major\arm-none-eabi\include\c++\10.2.1\bits\stl_algo.h **** 	  typename iterator_traits<_ForwardIterator>::difference_type
 202:c:\programdata\chocolatey\lib\gcc-arm-embedded\tools\gcc-arm-none-eabi-10-2020-q4-major\arm-none-eabi\include\c++\10.2.1\bits\stl_algo.h **** 	    __n = __count;
 203:c:\programdata\chocolatey\lib\gcc-arm-embedded\tools\gcc-arm-none-eabi-10-2020-q4-major\arm-none-eabi\include\c++\10.2.1\bits\stl_algo.h **** 	  _ForwardIterator __i = __first;
 204:c:\programdata\chocolatey\lib\gcc-arm-embedded\tools\gcc-arm-none-eabi-10-2020-q4-major\arm-none-eabi\include\c++\10.2.1\bits\stl_algo.h **** 	  ++__i;
 205:c:\programdata\chocolatey\lib\gcc-arm-embedded\tools\gcc-arm-none-eabi-10-2020-q4-major\arm-none-eabi\include\c++\10.2.1\bits\stl_algo.h **** 	  while (__i != __last && __n != 1 && __unary_pred(__i))
 206:c:\programdata\chocolatey\lib\gcc-arm-embedded\tools\gcc-arm-none-eabi-10-2020-q4-major\arm-none-eabi\include\c++\10.2.1\bits\stl_algo.h **** 	    {
 207:c:\programdata\chocolatey\lib\gcc-arm-embedded\tools\gcc-arm-none-eabi-10-2020-q4-major\arm-none-eabi\include\c++\10.2.1\bits\stl_algo.h **** 	      ++__i;
 208:c:\programdata\chocolatey\lib\gcc-arm-embedded\tools\gcc-arm-none-eabi-10-2020-q4-major\arm-none-eabi\include\c++\10.2.1\bits\stl_algo.h **** 	      --__n;
 209:c:\programdata\chocolatey\lib\gcc-arm-embedded\tools\gcc-arm-none-eabi-10-2020-q4-major\arm-none-eabi\include\c++\10.2.1\bits\stl_algo.h **** 	    }
 210:c:\programdata\chocolatey\lib\gcc-arm-embedded\tools\gcc-arm-none-eabi-10-2020-q4-major\arm-none-eabi\include\c++\10.2.1\bits\stl_algo.h **** 	  if (__n == 1)
 211:c:\programdata\chocolatey\lib\gcc-arm-embedded\tools\gcc-arm-none-eabi-10-2020-q4-major\arm-none-eabi\include\c++\10.2.1\bits\stl_algo.h **** 	    return __first;
 212:c:\programdata\chocolatey\lib\gcc-arm-embedded\tools\gcc-arm-none-eabi-10-2020-q4-major\arm-none-eabi\include\c++\10.2.1\bits\stl_algo.h **** 	  if (__i == __last)
 213:c:\programdata\chocolatey\lib\gcc-arm-embedded\tools\gcc-arm-none-eabi-10-2020-q4-major\arm-none-eabi\include\c++\10.2.1\bits\stl_algo.h **** 	    return __last;
 214:c:\programdata\chocolatey\lib\gcc-arm-embedded\tools\gcc-arm-none-eabi-10-2020-q4-major\arm-none-eabi\include\c++\10.2.1\bits\stl_algo.h **** 	  __first = std::__find_if(++__i, __last, __unary_pred);
 215:c:\programdata\chocolatey\lib\gcc-arm-embedded\tools\gcc-arm-none-eabi-10-2020-q4-major\arm-none-eabi\include\c++\10.2.1\bits\stl_algo.h **** 	}
 216:c:\programdata\chocolatey\lib\gcc-arm-embedded\tools\gcc-arm-none-eabi-10-2020-q4-major\arm-none-eabi\include\c++\10.2.1\bits\stl_algo.h ****       return __last;
 217:c:\programdata\chocolatey\lib\gcc-arm-embedded\tools\gcc-arm-none-eabi-10-2020-q4-major\arm-none-eabi\include\c++\10.2.1\bits\stl_algo.h ****     }
 218:c:\programdata\chocolatey\lib\gcc-arm-embedded\tools\gcc-arm-none-eabi-10-2020-q4-major\arm-none-eabi\include\c++\10.2.1\bits\stl_algo.h **** 
 219:c:\programdata\chocolatey\lib\gcc-arm-embedded\tools\gcc-arm-none-eabi-10-2020-q4-major\arm-none-eabi\include\c++\10.2.1\bits\stl_algo.h ****   /**
 220:c:\programdata\chocolatey\lib\gcc-arm-embedded\tools\gcc-arm-none-eabi-10-2020-q4-major\arm-none-eabi\include\c++\10.2.1\bits\stl_algo.h ****    *  This is an helper function for search_n overloaded for random access
 221:c:\programdata\chocolatey\lib\gcc-arm-embedded\tools\gcc-arm-none-eabi-10-2020-q4-major\arm-none-eabi\include\c++\10.2.1\bits\stl_algo.h ****    *  iterators.
 222:c:\programdata\chocolatey\lib\gcc-arm-embedded\tools\gcc-arm-none-eabi-10-2020-q4-major\arm-none-eabi\include\c++\10.2.1\bits\stl_algo.h ****   */
 223:c:\programdata\chocolatey\lib\gcc-arm-embedded\tools\gcc-arm-none-eabi-10-2020-q4-major\arm-none-eabi\include\c++\10.2.1\bits\stl_algo.h ****   template<typename _RandomAccessIter, typename _Integer,
 224:c:\programdata\chocolatey\lib\gcc-arm-embedded\tools\gcc-arm-none-eabi-10-2020-q4-major\arm-none-eabi\include\c++\10.2.1\bits\stl_algo.h **** 	   typename _UnaryPredicate>
 225:c:\programdata\chocolatey\lib\gcc-arm-embedded\tools\gcc-arm-none-eabi-10-2020-q4-major\arm-none-eabi\include\c++\10.2.1\bits\stl_algo.h ****     _GLIBCXX20_CONSTEXPR
 226:c:\programdata\chocolatey\lib\gcc-arm-embedded\tools\gcc-arm-none-eabi-10-2020-q4-major\arm-none-eabi\include\c++\10.2.1\bits\stl_algo.h ****     _RandomAccessIter
 227:c:\programdata\chocolatey\lib\gcc-arm-embedded\tools\gcc-arm-none-eabi-10-2020-q4-major\arm-none-eabi\include\c++\10.2.1\bits\stl_algo.h ****     __search_n_aux(_RandomAccessIter __first, _RandomAccessIter __last,
 228:c:\programdata\chocolatey\lib\gcc-arm-embedded\tools\gcc-arm-none-eabi-10-2020-q4-major\arm-none-eabi\include\c++\10.2.1\bits\stl_algo.h **** 		   _Integer __count, _UnaryPredicate __unary_pred,
 229:c:\programdata\chocolatey\lib\gcc-arm-embedded\tools\gcc-arm-none-eabi-10-2020-q4-major\arm-none-eabi\include\c++\10.2.1\bits\stl_algo.h **** 		   std::random_access_iterator_tag)
 230:c:\programdata\chocolatey\lib\gcc-arm-embedded\tools\gcc-arm-none-eabi-10-2020-q4-major\arm-none-eabi\include\c++\10.2.1\bits\stl_algo.h ****     {
 231:c:\programdata\chocolatey\lib\gcc-arm-embedded\tools\gcc-arm-none-eabi-10-2020-q4-major\arm-none-eabi\include\c++\10.2.1\bits\stl_algo.h ****       typedef typename std::iterator_traits<_RandomAccessIter>::difference_type
 232:c:\programdata\chocolatey\lib\gcc-arm-embedded\tools\gcc-arm-none-eabi-10-2020-q4-major\arm-none-eabi\include\c++\10.2.1\bits\stl_algo.h **** 	_DistanceType;
 233:c:\programdata\chocolatey\lib\gcc-arm-embedded\tools\gcc-arm-none-eabi-10-2020-q4-major\arm-none-eabi\include\c++\10.2.1\bits\stl_algo.h **** 
 234:c:\programdata\chocolatey\lib\gcc-arm-embedded\tools\gcc-arm-none-eabi-10-2020-q4-major\arm-none-eabi\include\c++\10.2.1\bits\stl_algo.h ****       _DistanceType __tailSize = __last - __first;
 235:c:\programdata\chocolatey\lib\gcc-arm-embedded\tools\gcc-arm-none-eabi-10-2020-q4-major\arm-none-eabi\include\c++\10.2.1\bits\stl_algo.h ****       _DistanceType __remainder = __count;
 236:c:\programdata\chocolatey\lib\gcc-arm-embedded\tools\gcc-arm-none-eabi-10-2020-q4-major\arm-none-eabi\include\c++\10.2.1\bits\stl_algo.h **** 
 237:c:\programdata\chocolatey\lib\gcc-arm-embedded\tools\gcc-arm-none-eabi-10-2020-q4-major\arm-none-eabi\include\c++\10.2.1\bits\stl_algo.h ****       while (__remainder <= __tailSize) // the main loop...
 238:c:\programdata\chocolatey\lib\gcc-arm-embedded\tools\gcc-arm-none-eabi-10-2020-q4-major\arm-none-eabi\include\c++\10.2.1\bits\stl_algo.h **** 	{
 239:c:\programdata\chocolatey\lib\gcc-arm-embedded\tools\gcc-arm-none-eabi-10-2020-q4-major\arm-none-eabi\include\c++\10.2.1\bits\stl_algo.h **** 	  __first += __remainder;
 240:c:\programdata\chocolatey\lib\gcc-arm-embedded\tools\gcc-arm-none-eabi-10-2020-q4-major\arm-none-eabi\include\c++\10.2.1\bits\stl_algo.h **** 	  __tailSize -= __remainder;
 241:c:\programdata\chocolatey\lib\gcc-arm-embedded\tools\gcc-arm-none-eabi-10-2020-q4-major\arm-none-eabi\include\c++\10.2.1\bits\stl_algo.h **** 	  // __first here is always pointing to one past the last element of
 242:c:\programdata\chocolatey\lib\gcc-arm-embedded\tools\gcc-arm-none-eabi-10-2020-q4-major\arm-none-eabi\include\c++\10.2.1\bits\stl_algo.h **** 	  // next possible match.
 243:c:\programdata\chocolatey\lib\gcc-arm-embedded\tools\gcc-arm-none-eabi-10-2020-q4-major\arm-none-eabi\include\c++\10.2.1\bits\stl_algo.h **** 	  _RandomAccessIter __backTrack = __first; 
 244:c:\programdata\chocolatey\lib\gcc-arm-embedded\tools\gcc-arm-none-eabi-10-2020-q4-major\arm-none-eabi\include\c++\10.2.1\bits\stl_algo.h **** 	  while (__unary_pred(--__backTrack))
 245:c:\programdata\chocolatey\lib\gcc-arm-embedded\tools\gcc-arm-none-eabi-10-2020-q4-major\arm-none-eabi\include\c++\10.2.1\bits\stl_algo.h **** 	    {
 246:c:\programdata\chocolatey\lib\gcc-arm-embedded\tools\gcc-arm-none-eabi-10-2020-q4-major\arm-none-eabi\include\c++\10.2.1\bits\stl_algo.h **** 	      if (--__remainder == 0)
 247:c:\programdata\chocolatey\lib\gcc-arm-embedded\tools\gcc-arm-none-eabi-10-2020-q4-major\arm-none-eabi\include\c++\10.2.1\bits\stl_algo.h **** 		return (__first - __count); // Success
ARM GAS  C:\Users\daniel\AppData\Local\Temp\ccXSGLh5.s 			page 27


 248:c:\programdata\chocolatey\lib\gcc-arm-embedded\tools\gcc-arm-none-eabi-10-2020-q4-major\arm-none-eabi\include\c++\10.2.1\bits\stl_algo.h **** 	    }
 249:c:\programdata\chocolatey\lib\gcc-arm-embedded\tools\gcc-arm-none-eabi-10-2020-q4-major\arm-none-eabi\include\c++\10.2.1\bits\stl_algo.h **** 	  __remainder = __count + 1 - (__first - __backTrack);
 250:c:\programdata\chocolatey\lib\gcc-arm-embedded\tools\gcc-arm-none-eabi-10-2020-q4-major\arm-none-eabi\include\c++\10.2.1\bits\stl_algo.h **** 	}
 251:c:\programdata\chocolatey\lib\gcc-arm-embedded\tools\gcc-arm-none-eabi-10-2020-q4-major\arm-none-eabi\include\c++\10.2.1\bits\stl_algo.h ****       return __last; // Failure
 252:c:\programdata\chocolatey\lib\gcc-arm-embedded\tools\gcc-arm-none-eabi-10-2020-q4-major\arm-none-eabi\include\c++\10.2.1\bits\stl_algo.h ****     }
 253:c:\programdata\chocolatey\lib\gcc-arm-embedded\tools\gcc-arm-none-eabi-10-2020-q4-major\arm-none-eabi\include\c++\10.2.1\bits\stl_algo.h **** 
 254:c:\programdata\chocolatey\lib\gcc-arm-embedded\tools\gcc-arm-none-eabi-10-2020-q4-major\arm-none-eabi\include\c++\10.2.1\bits\stl_algo.h ****   template<typename _ForwardIterator, typename _Integer,
 255:c:\programdata\chocolatey\lib\gcc-arm-embedded\tools\gcc-arm-none-eabi-10-2020-q4-major\arm-none-eabi\include\c++\10.2.1\bits\stl_algo.h **** 	   typename _UnaryPredicate>
 256:c:\programdata\chocolatey\lib\gcc-arm-embedded\tools\gcc-arm-none-eabi-10-2020-q4-major\arm-none-eabi\include\c++\10.2.1\bits\stl_algo.h ****     _GLIBCXX20_CONSTEXPR
 257:c:\programdata\chocolatey\lib\gcc-arm-embedded\tools\gcc-arm-none-eabi-10-2020-q4-major\arm-none-eabi\include\c++\10.2.1\bits\stl_algo.h ****     _ForwardIterator
 258:c:\programdata\chocolatey\lib\gcc-arm-embedded\tools\gcc-arm-none-eabi-10-2020-q4-major\arm-none-eabi\include\c++\10.2.1\bits\stl_algo.h ****     __search_n(_ForwardIterator __first, _ForwardIterator __last,
 259:c:\programdata\chocolatey\lib\gcc-arm-embedded\tools\gcc-arm-none-eabi-10-2020-q4-major\arm-none-eabi\include\c++\10.2.1\bits\stl_algo.h **** 	       _Integer __count,
 260:c:\programdata\chocolatey\lib\gcc-arm-embedded\tools\gcc-arm-none-eabi-10-2020-q4-major\arm-none-eabi\include\c++\10.2.1\bits\stl_algo.h **** 	       _UnaryPredicate __unary_pred)
 261:c:\programdata\chocolatey\lib\gcc-arm-embedded\tools\gcc-arm-none-eabi-10-2020-q4-major\arm-none-eabi\include\c++\10.2.1\bits\stl_algo.h ****     {
 262:c:\programdata\chocolatey\lib\gcc-arm-embedded\tools\gcc-arm-none-eabi-10-2020-q4-major\arm-none-eabi\include\c++\10.2.1\bits\stl_algo.h ****       if (__count <= 0)
 263:c:\programdata\chocolatey\lib\gcc-arm-embedded\tools\gcc-arm-none-eabi-10-2020-q4-major\arm-none-eabi\include\c++\10.2.1\bits\stl_algo.h **** 	return __first;
 264:c:\programdata\chocolatey\lib\gcc-arm-embedded\tools\gcc-arm-none-eabi-10-2020-q4-major\arm-none-eabi\include\c++\10.2.1\bits\stl_algo.h **** 
 265:c:\programdata\chocolatey\lib\gcc-arm-embedded\tools\gcc-arm-none-eabi-10-2020-q4-major\arm-none-eabi\include\c++\10.2.1\bits\stl_algo.h ****       if (__count == 1)
 266:c:\programdata\chocolatey\lib\gcc-arm-embedded\tools\gcc-arm-none-eabi-10-2020-q4-major\arm-none-eabi\include\c++\10.2.1\bits\stl_algo.h **** 	return std::__find_if(__first, __last, __unary_pred);
 267:c:\programdata\chocolatey\lib\gcc-arm-embedded\tools\gcc-arm-none-eabi-10-2020-q4-major\arm-none-eabi\include\c++\10.2.1\bits\stl_algo.h **** 
 268:c:\programdata\chocolatey\lib\gcc-arm-embedded\tools\gcc-arm-none-eabi-10-2020-q4-major\arm-none-eabi\include\c++\10.2.1\bits\stl_algo.h ****       return std::__search_n_aux(__first, __last, __count, __unary_pred,
 269:c:\programdata\chocolatey\lib\gcc-arm-embedded\tools\gcc-arm-none-eabi-10-2020-q4-major\arm-none-eabi\include\c++\10.2.1\bits\stl_algo.h **** 				 std::__iterator_category(__first));
 270:c:\programdata\chocolatey\lib\gcc-arm-embedded\tools\gcc-arm-none-eabi-10-2020-q4-major\arm-none-eabi\include\c++\10.2.1\bits\stl_algo.h ****     }
 271:c:\programdata\chocolatey\lib\gcc-arm-embedded\tools\gcc-arm-none-eabi-10-2020-q4-major\arm-none-eabi\include\c++\10.2.1\bits\stl_algo.h **** 
 272:c:\programdata\chocolatey\lib\gcc-arm-embedded\tools\gcc-arm-none-eabi-10-2020-q4-major\arm-none-eabi\include\c++\10.2.1\bits\stl_algo.h ****   // find_end for forward iterators.
 273:c:\programdata\chocolatey\lib\gcc-arm-embedded\tools\gcc-arm-none-eabi-10-2020-q4-major\arm-none-eabi\include\c++\10.2.1\bits\stl_algo.h ****   template<typename _ForwardIterator1, typename _ForwardIterator2,
 274:c:\programdata\chocolatey\lib\gcc-arm-embedded\tools\gcc-arm-none-eabi-10-2020-q4-major\arm-none-eabi\include\c++\10.2.1\bits\stl_algo.h **** 	   typename _BinaryPredicate>
 275:c:\programdata\chocolatey\lib\gcc-arm-embedded\tools\gcc-arm-none-eabi-10-2020-q4-major\arm-none-eabi\include\c++\10.2.1\bits\stl_algo.h ****     _GLIBCXX20_CONSTEXPR
 276:c:\programdata\chocolatey\lib\gcc-arm-embedded\tools\gcc-arm-none-eabi-10-2020-q4-major\arm-none-eabi\include\c++\10.2.1\bits\stl_algo.h ****     _ForwardIterator1
 277:c:\programdata\chocolatey\lib\gcc-arm-embedded\tools\gcc-arm-none-eabi-10-2020-q4-major\arm-none-eabi\include\c++\10.2.1\bits\stl_algo.h ****     __find_end(_ForwardIterator1 __first1, _ForwardIterator1 __last1,
 278:c:\programdata\chocolatey\lib\gcc-arm-embedded\tools\gcc-arm-none-eabi-10-2020-q4-major\arm-none-eabi\include\c++\10.2.1\bits\stl_algo.h **** 	       _ForwardIterator2 __first2, _ForwardIterator2 __last2,
 279:c:\programdata\chocolatey\lib\gcc-arm-embedded\tools\gcc-arm-none-eabi-10-2020-q4-major\arm-none-eabi\include\c++\10.2.1\bits\stl_algo.h **** 	       forward_iterator_tag, forward_iterator_tag,
 280:c:\programdata\chocolatey\lib\gcc-arm-embedded\tools\gcc-arm-none-eabi-10-2020-q4-major\arm-none-eabi\include\c++\10.2.1\bits\stl_algo.h **** 	       _BinaryPredicate __comp)
 281:c:\programdata\chocolatey\lib\gcc-arm-embedded\tools\gcc-arm-none-eabi-10-2020-q4-major\arm-none-eabi\include\c++\10.2.1\bits\stl_algo.h ****     {
 282:c:\programdata\chocolatey\lib\gcc-arm-embedded\tools\gcc-arm-none-eabi-10-2020-q4-major\arm-none-eabi\include\c++\10.2.1\bits\stl_algo.h ****       if (__first2 == __last2)
 283:c:\programdata\chocolatey\lib\gcc-arm-embedded\tools\gcc-arm-none-eabi-10-2020-q4-major\arm-none-eabi\include\c++\10.2.1\bits\stl_algo.h **** 	return __last1;
 284:c:\programdata\chocolatey\lib\gcc-arm-embedded\tools\gcc-arm-none-eabi-10-2020-q4-major\arm-none-eabi\include\c++\10.2.1\bits\stl_algo.h **** 
 285:c:\programdata\chocolatey\lib\gcc-arm-embedded\tools\gcc-arm-none-eabi-10-2020-q4-major\arm-none-eabi\include\c++\10.2.1\bits\stl_algo.h ****       _ForwardIterator1 __result = __last1;
 286:c:\programdata\chocolatey\lib\gcc-arm-embedded\tools\gcc-arm-none-eabi-10-2020-q4-major\arm-none-eabi\include\c++\10.2.1\bits\stl_algo.h ****       while (1)
 287:c:\programdata\chocolatey\lib\gcc-arm-embedded\tools\gcc-arm-none-eabi-10-2020-q4-major\arm-none-eabi\include\c++\10.2.1\bits\stl_algo.h **** 	{
 288:c:\programdata\chocolatey\lib\gcc-arm-embedded\tools\gcc-arm-none-eabi-10-2020-q4-major\arm-none-eabi\include\c++\10.2.1\bits\stl_algo.h **** 	  _ForwardIterator1 __new_result
 289:c:\programdata\chocolatey\lib\gcc-arm-embedded\tools\gcc-arm-none-eabi-10-2020-q4-major\arm-none-eabi\include\c++\10.2.1\bits\stl_algo.h **** 	    = std::__search(__first1, __last1, __first2, __last2, __comp);
 290:c:\programdata\chocolatey\lib\gcc-arm-embedded\tools\gcc-arm-none-eabi-10-2020-q4-major\arm-none-eabi\include\c++\10.2.1\bits\stl_algo.h **** 	  if (__new_result == __last1)
 291:c:\programdata\chocolatey\lib\gcc-arm-embedded\tools\gcc-arm-none-eabi-10-2020-q4-major\arm-none-eabi\include\c++\10.2.1\bits\stl_algo.h **** 	    return __result;
 292:c:\programdata\chocolatey\lib\gcc-arm-embedded\tools\gcc-arm-none-eabi-10-2020-q4-major\arm-none-eabi\include\c++\10.2.1\bits\stl_algo.h **** 	  else
 293:c:\programdata\chocolatey\lib\gcc-arm-embedded\tools\gcc-arm-none-eabi-10-2020-q4-major\arm-none-eabi\include\c++\10.2.1\bits\stl_algo.h **** 	    {
 294:c:\programdata\chocolatey\lib\gcc-arm-embedded\tools\gcc-arm-none-eabi-10-2020-q4-major\arm-none-eabi\include\c++\10.2.1\bits\stl_algo.h **** 	      __result = __new_result;
 295:c:\programdata\chocolatey\lib\gcc-arm-embedded\tools\gcc-arm-none-eabi-10-2020-q4-major\arm-none-eabi\include\c++\10.2.1\bits\stl_algo.h **** 	      __first1 = __new_result;
 296:c:\programdata\chocolatey\lib\gcc-arm-embedded\tools\gcc-arm-none-eabi-10-2020-q4-major\arm-none-eabi\include\c++\10.2.1\bits\stl_algo.h **** 	      ++__first1;
 297:c:\programdata\chocolatey\lib\gcc-arm-embedded\tools\gcc-arm-none-eabi-10-2020-q4-major\arm-none-eabi\include\c++\10.2.1\bits\stl_algo.h **** 	    }
 298:c:\programdata\chocolatey\lib\gcc-arm-embedded\tools\gcc-arm-none-eabi-10-2020-q4-major\arm-none-eabi\include\c++\10.2.1\bits\stl_algo.h **** 	}
 299:c:\programdata\chocolatey\lib\gcc-arm-embedded\tools\gcc-arm-none-eabi-10-2020-q4-major\arm-none-eabi\include\c++\10.2.1\bits\stl_algo.h ****     }
 300:c:\programdata\chocolatey\lib\gcc-arm-embedded\tools\gcc-arm-none-eabi-10-2020-q4-major\arm-none-eabi\include\c++\10.2.1\bits\stl_algo.h **** 
 301:c:\programdata\chocolatey\lib\gcc-arm-embedded\tools\gcc-arm-none-eabi-10-2020-q4-major\arm-none-eabi\include\c++\10.2.1\bits\stl_algo.h ****   // find_end for bidirectional iterators (much faster).
 302:c:\programdata\chocolatey\lib\gcc-arm-embedded\tools\gcc-arm-none-eabi-10-2020-q4-major\arm-none-eabi\include\c++\10.2.1\bits\stl_algo.h ****   template<typename _BidirectionalIterator1, typename _BidirectionalIterator2,
 303:c:\programdata\chocolatey\lib\gcc-arm-embedded\tools\gcc-arm-none-eabi-10-2020-q4-major\arm-none-eabi\include\c++\10.2.1\bits\stl_algo.h **** 	   typename _BinaryPredicate>
 304:c:\programdata\chocolatey\lib\gcc-arm-embedded\tools\gcc-arm-none-eabi-10-2020-q4-major\arm-none-eabi\include\c++\10.2.1\bits\stl_algo.h ****     _GLIBCXX20_CONSTEXPR
ARM GAS  C:\Users\daniel\AppData\Local\Temp\ccXSGLh5.s 			page 28


 305:c:\programdata\chocolatey\lib\gcc-arm-embedded\tools\gcc-arm-none-eabi-10-2020-q4-major\arm-none-eabi\include\c++\10.2.1\bits\stl_algo.h ****     _BidirectionalIterator1
 306:c:\programdata\chocolatey\lib\gcc-arm-embedded\tools\gcc-arm-none-eabi-10-2020-q4-major\arm-none-eabi\include\c++\10.2.1\bits\stl_algo.h ****     __find_end(_BidirectionalIterator1 __first1,
 307:c:\programdata\chocolatey\lib\gcc-arm-embedded\tools\gcc-arm-none-eabi-10-2020-q4-major\arm-none-eabi\include\c++\10.2.1\bits\stl_algo.h **** 	       _BidirectionalIterator1 __last1,
 308:c:\programdata\chocolatey\lib\gcc-arm-embedded\tools\gcc-arm-none-eabi-10-2020-q4-major\arm-none-eabi\include\c++\10.2.1\bits\stl_algo.h **** 	       _BidirectionalIterator2 __first2,
 309:c:\programdata\chocolatey\lib\gcc-arm-embedded\tools\gcc-arm-none-eabi-10-2020-q4-major\arm-none-eabi\include\c++\10.2.1\bits\stl_algo.h **** 	       _BidirectionalIterator2 __last2,
 310:c:\programdata\chocolatey\lib\gcc-arm-embedded\tools\gcc-arm-none-eabi-10-2020-q4-major\arm-none-eabi\include\c++\10.2.1\bits\stl_algo.h **** 	       bidirectional_iterator_tag, bidirectional_iterator_tag,
 311:c:\programdata\chocolatey\lib\gcc-arm-embedded\tools\gcc-arm-none-eabi-10-2020-q4-major\arm-none-eabi\include\c++\10.2.1\bits\stl_algo.h **** 	       _BinaryPredicate __comp)
 312:c:\programdata\chocolatey\lib\gcc-arm-embedded\tools\gcc-arm-none-eabi-10-2020-q4-major\arm-none-eabi\include\c++\10.2.1\bits\stl_algo.h ****     {
 313:c:\programdata\chocolatey\lib\gcc-arm-embedded\tools\gcc-arm-none-eabi-10-2020-q4-major\arm-none-eabi\include\c++\10.2.1\bits\stl_algo.h ****       // concept requirements
 314:c:\programdata\chocolatey\lib\gcc-arm-embedded\tools\gcc-arm-none-eabi-10-2020-q4-major\arm-none-eabi\include\c++\10.2.1\bits\stl_algo.h ****       __glibcxx_function_requires(_BidirectionalIteratorConcept<
 315:c:\programdata\chocolatey\lib\gcc-arm-embedded\tools\gcc-arm-none-eabi-10-2020-q4-major\arm-none-eabi\include\c++\10.2.1\bits\stl_algo.h **** 				  _BidirectionalIterator1>)
 316:c:\programdata\chocolatey\lib\gcc-arm-embedded\tools\gcc-arm-none-eabi-10-2020-q4-major\arm-none-eabi\include\c++\10.2.1\bits\stl_algo.h ****       __glibcxx_function_requires(_BidirectionalIteratorConcept<
 317:c:\programdata\chocolatey\lib\gcc-arm-embedded\tools\gcc-arm-none-eabi-10-2020-q4-major\arm-none-eabi\include\c++\10.2.1\bits\stl_algo.h **** 				  _BidirectionalIterator2>)
 318:c:\programdata\chocolatey\lib\gcc-arm-embedded\tools\gcc-arm-none-eabi-10-2020-q4-major\arm-none-eabi\include\c++\10.2.1\bits\stl_algo.h **** 
 319:c:\programdata\chocolatey\lib\gcc-arm-embedded\tools\gcc-arm-none-eabi-10-2020-q4-major\arm-none-eabi\include\c++\10.2.1\bits\stl_algo.h ****       typedef reverse_iterator<_BidirectionalIterator1> _RevIterator1;
 320:c:\programdata\chocolatey\lib\gcc-arm-embedded\tools\gcc-arm-none-eabi-10-2020-q4-major\arm-none-eabi\include\c++\10.2.1\bits\stl_algo.h ****       typedef reverse_iterator<_BidirectionalIterator2> _RevIterator2;
 321:c:\programdata\chocolatey\lib\gcc-arm-embedded\tools\gcc-arm-none-eabi-10-2020-q4-major\arm-none-eabi\include\c++\10.2.1\bits\stl_algo.h **** 
 322:c:\programdata\chocolatey\lib\gcc-arm-embedded\tools\gcc-arm-none-eabi-10-2020-q4-major\arm-none-eabi\include\c++\10.2.1\bits\stl_algo.h ****       _RevIterator1 __rlast1(__first1);
 323:c:\programdata\chocolatey\lib\gcc-arm-embedded\tools\gcc-arm-none-eabi-10-2020-q4-major\arm-none-eabi\include\c++\10.2.1\bits\stl_algo.h ****       _RevIterator2 __rlast2(__first2);
 324:c:\programdata\chocolatey\lib\gcc-arm-embedded\tools\gcc-arm-none-eabi-10-2020-q4-major\arm-none-eabi\include\c++\10.2.1\bits\stl_algo.h ****       _RevIterator1 __rresult = std::__search(_RevIterator1(__last1), __rlast1,
 325:c:\programdata\chocolatey\lib\gcc-arm-embedded\tools\gcc-arm-none-eabi-10-2020-q4-major\arm-none-eabi\include\c++\10.2.1\bits\stl_algo.h **** 					      _RevIterator2(__last2), __rlast2,
 326:c:\programdata\chocolatey\lib\gcc-arm-embedded\tools\gcc-arm-none-eabi-10-2020-q4-major\arm-none-eabi\include\c++\10.2.1\bits\stl_algo.h **** 					      __comp);
 327:c:\programdata\chocolatey\lib\gcc-arm-embedded\tools\gcc-arm-none-eabi-10-2020-q4-major\arm-none-eabi\include\c++\10.2.1\bits\stl_algo.h **** 
 328:c:\programdata\chocolatey\lib\gcc-arm-embedded\tools\gcc-arm-none-eabi-10-2020-q4-major\arm-none-eabi\include\c++\10.2.1\bits\stl_algo.h ****       if (__rresult == __rlast1)
 329:c:\programdata\chocolatey\lib\gcc-arm-embedded\tools\gcc-arm-none-eabi-10-2020-q4-major\arm-none-eabi\include\c++\10.2.1\bits\stl_algo.h **** 	return __last1;
 330:c:\programdata\chocolatey\lib\gcc-arm-embedded\tools\gcc-arm-none-eabi-10-2020-q4-major\arm-none-eabi\include\c++\10.2.1\bits\stl_algo.h ****       else
 331:c:\programdata\chocolatey\lib\gcc-arm-embedded\tools\gcc-arm-none-eabi-10-2020-q4-major\arm-none-eabi\include\c++\10.2.1\bits\stl_algo.h **** 	{
 332:c:\programdata\chocolatey\lib\gcc-arm-embedded\tools\gcc-arm-none-eabi-10-2020-q4-major\arm-none-eabi\include\c++\10.2.1\bits\stl_algo.h **** 	  _BidirectionalIterator1 __result = __rresult.base();
 333:c:\programdata\chocolatey\lib\gcc-arm-embedded\tools\gcc-arm-none-eabi-10-2020-q4-major\arm-none-eabi\include\c++\10.2.1\bits\stl_algo.h **** 	  std::advance(__result, -std::distance(__first2, __last2));
 334:c:\programdata\chocolatey\lib\gcc-arm-embedded\tools\gcc-arm-none-eabi-10-2020-q4-major\arm-none-eabi\include\c++\10.2.1\bits\stl_algo.h **** 	  return __result;
 335:c:\programdata\chocolatey\lib\gcc-arm-embedded\tools\gcc-arm-none-eabi-10-2020-q4-major\arm-none-eabi\include\c++\10.2.1\bits\stl_algo.h **** 	}
 336:c:\programdata\chocolatey\lib\gcc-arm-embedded\tools\gcc-arm-none-eabi-10-2020-q4-major\arm-none-eabi\include\c++\10.2.1\bits\stl_algo.h ****     }
 337:c:\programdata\chocolatey\lib\gcc-arm-embedded\tools\gcc-arm-none-eabi-10-2020-q4-major\arm-none-eabi\include\c++\10.2.1\bits\stl_algo.h **** 
 338:c:\programdata\chocolatey\lib\gcc-arm-embedded\tools\gcc-arm-none-eabi-10-2020-q4-major\arm-none-eabi\include\c++\10.2.1\bits\stl_algo.h ****   /**
 339:c:\programdata\chocolatey\lib\gcc-arm-embedded\tools\gcc-arm-none-eabi-10-2020-q4-major\arm-none-eabi\include\c++\10.2.1\bits\stl_algo.h ****    *  @brief  Find last matching subsequence in a sequence.
 340:c:\programdata\chocolatey\lib\gcc-arm-embedded\tools\gcc-arm-none-eabi-10-2020-q4-major\arm-none-eabi\include\c++\10.2.1\bits\stl_algo.h ****    *  @ingroup non_mutating_algorithms
 341:c:\programdata\chocolatey\lib\gcc-arm-embedded\tools\gcc-arm-none-eabi-10-2020-q4-major\arm-none-eabi\include\c++\10.2.1\bits\stl_algo.h ****    *  @param  __first1  Start of range to search.
 342:c:\programdata\chocolatey\lib\gcc-arm-embedded\tools\gcc-arm-none-eabi-10-2020-q4-major\arm-none-eabi\include\c++\10.2.1\bits\stl_algo.h ****    *  @param  __last1   End of range to search.
 343:c:\programdata\chocolatey\lib\gcc-arm-embedded\tools\gcc-arm-none-eabi-10-2020-q4-major\arm-none-eabi\include\c++\10.2.1\bits\stl_algo.h ****    *  @param  __first2  Start of sequence to match.
 344:c:\programdata\chocolatey\lib\gcc-arm-embedded\tools\gcc-arm-none-eabi-10-2020-q4-major\arm-none-eabi\include\c++\10.2.1\bits\stl_algo.h ****    *  @param  __last2   End of sequence to match.
 345:c:\programdata\chocolatey\lib\gcc-arm-embedded\tools\gcc-arm-none-eabi-10-2020-q4-major\arm-none-eabi\include\c++\10.2.1\bits\stl_algo.h ****    *  @return   The last iterator @c i in the range
 346:c:\programdata\chocolatey\lib\gcc-arm-embedded\tools\gcc-arm-none-eabi-10-2020-q4-major\arm-none-eabi\include\c++\10.2.1\bits\stl_algo.h ****    *  @p [__first1,__last1-(__last2-__first2)) such that @c *(i+N) ==
 347:c:\programdata\chocolatey\lib\gcc-arm-embedded\tools\gcc-arm-none-eabi-10-2020-q4-major\arm-none-eabi\include\c++\10.2.1\bits\stl_algo.h ****    *  @p *(__first2+N) for each @c N in the range @p
 348:c:\programdata\chocolatey\lib\gcc-arm-embedded\tools\gcc-arm-none-eabi-10-2020-q4-major\arm-none-eabi\include\c++\10.2.1\bits\stl_algo.h ****    *  [0,__last2-__first2), or @p __last1 if no such iterator exists.
 349:c:\programdata\chocolatey\lib\gcc-arm-embedded\tools\gcc-arm-none-eabi-10-2020-q4-major\arm-none-eabi\include\c++\10.2.1\bits\stl_algo.h ****    *
 350:c:\programdata\chocolatey\lib\gcc-arm-embedded\tools\gcc-arm-none-eabi-10-2020-q4-major\arm-none-eabi\include\c++\10.2.1\bits\stl_algo.h ****    *  Searches the range @p [__first1,__last1) for a sub-sequence that
 351:c:\programdata\chocolatey\lib\gcc-arm-embedded\tools\gcc-arm-none-eabi-10-2020-q4-major\arm-none-eabi\include\c++\10.2.1\bits\stl_algo.h ****    *  compares equal value-by-value with the sequence given by @p
 352:c:\programdata\chocolatey\lib\gcc-arm-embedded\tools\gcc-arm-none-eabi-10-2020-q4-major\arm-none-eabi\include\c++\10.2.1\bits\stl_algo.h ****    *  [__first2,__last2) and returns an iterator to the __first
 353:c:\programdata\chocolatey\lib\gcc-arm-embedded\tools\gcc-arm-none-eabi-10-2020-q4-major\arm-none-eabi\include\c++\10.2.1\bits\stl_algo.h ****    *  element of the sub-sequence, or @p __last1 if the sub-sequence
 354:c:\programdata\chocolatey\lib\gcc-arm-embedded\tools\gcc-arm-none-eabi-10-2020-q4-major\arm-none-eabi\include\c++\10.2.1\bits\stl_algo.h ****    *  is not found.  The sub-sequence will be the last such
 355:c:\programdata\chocolatey\lib\gcc-arm-embedded\tools\gcc-arm-none-eabi-10-2020-q4-major\arm-none-eabi\include\c++\10.2.1\bits\stl_algo.h ****    *  subsequence contained in [__first1,__last1).
 356:c:\programdata\chocolatey\lib\gcc-arm-embedded\tools\gcc-arm-none-eabi-10-2020-q4-major\arm-none-eabi\include\c++\10.2.1\bits\stl_algo.h ****    *
 357:c:\programdata\chocolatey\lib\gcc-arm-embedded\tools\gcc-arm-none-eabi-10-2020-q4-major\arm-none-eabi\include\c++\10.2.1\bits\stl_algo.h ****    *  Because the sub-sequence must lie completely within the range @p
 358:c:\programdata\chocolatey\lib\gcc-arm-embedded\tools\gcc-arm-none-eabi-10-2020-q4-major\arm-none-eabi\include\c++\10.2.1\bits\stl_algo.h ****    *  [__first1,__last1) it must start at a position less than @p
 359:c:\programdata\chocolatey\lib\gcc-arm-embedded\tools\gcc-arm-none-eabi-10-2020-q4-major\arm-none-eabi\include\c++\10.2.1\bits\stl_algo.h ****    *  __last1-(__last2-__first2) where @p __last2-__first2 is the
 360:c:\programdata\chocolatey\lib\gcc-arm-embedded\tools\gcc-arm-none-eabi-10-2020-q4-major\arm-none-eabi\include\c++\10.2.1\bits\stl_algo.h ****    *  length of the sub-sequence.  This means that the returned
 361:c:\programdata\chocolatey\lib\gcc-arm-embedded\tools\gcc-arm-none-eabi-10-2020-q4-major\arm-none-eabi\include\c++\10.2.1\bits\stl_algo.h ****    *  iterator @c i will be in the range @p
ARM GAS  C:\Users\daniel\AppData\Local\Temp\ccXSGLh5.s 			page 29


 362:c:\programdata\chocolatey\lib\gcc-arm-embedded\tools\gcc-arm-none-eabi-10-2020-q4-major\arm-none-eabi\include\c++\10.2.1\bits\stl_algo.h ****    *  [__first1,__last1-(__last2-__first2))
 363:c:\programdata\chocolatey\lib\gcc-arm-embedded\tools\gcc-arm-none-eabi-10-2020-q4-major\arm-none-eabi\include\c++\10.2.1\bits\stl_algo.h ****   */
 364:c:\programdata\chocolatey\lib\gcc-arm-embedded\tools\gcc-arm-none-eabi-10-2020-q4-major\arm-none-eabi\include\c++\10.2.1\bits\stl_algo.h ****   template<typename _ForwardIterator1, typename _ForwardIterator2>
 365:c:\programdata\chocolatey\lib\gcc-arm-embedded\tools\gcc-arm-none-eabi-10-2020-q4-major\arm-none-eabi\include\c++\10.2.1\bits\stl_algo.h ****     _GLIBCXX20_CONSTEXPR
 366:c:\programdata\chocolatey\lib\gcc-arm-embedded\tools\gcc-arm-none-eabi-10-2020-q4-major\arm-none-eabi\include\c++\10.2.1\bits\stl_algo.h ****     inline _ForwardIterator1
 367:c:\programdata\chocolatey\lib\gcc-arm-embedded\tools\gcc-arm-none-eabi-10-2020-q4-major\arm-none-eabi\include\c++\10.2.1\bits\stl_algo.h ****     find_end(_ForwardIterator1 __first1, _ForwardIterator1 __last1,
 368:c:\programdata\chocolatey\lib\gcc-arm-embedded\tools\gcc-arm-none-eabi-10-2020-q4-major\arm-none-eabi\include\c++\10.2.1\bits\stl_algo.h **** 	     _ForwardIterator2 __first2, _ForwardIterator2 __last2)
 369:c:\programdata\chocolatey\lib\gcc-arm-embedded\tools\gcc-arm-none-eabi-10-2020-q4-major\arm-none-eabi\include\c++\10.2.1\bits\stl_algo.h ****     {
 370:c:\programdata\chocolatey\lib\gcc-arm-embedded\tools\gcc-arm-none-eabi-10-2020-q4-major\arm-none-eabi\include\c++\10.2.1\bits\stl_algo.h ****       // concept requirements
 371:c:\programdata\chocolatey\lib\gcc-arm-embedded\tools\gcc-arm-none-eabi-10-2020-q4-major\arm-none-eabi\include\c++\10.2.1\bits\stl_algo.h ****       __glibcxx_function_requires(_ForwardIteratorConcept<_ForwardIterator1>)
 372:c:\programdata\chocolatey\lib\gcc-arm-embedded\tools\gcc-arm-none-eabi-10-2020-q4-major\arm-none-eabi\include\c++\10.2.1\bits\stl_algo.h ****       __glibcxx_function_requires(_ForwardIteratorConcept<_ForwardIterator2>)
 373:c:\programdata\chocolatey\lib\gcc-arm-embedded\tools\gcc-arm-none-eabi-10-2020-q4-major\arm-none-eabi\include\c++\10.2.1\bits\stl_algo.h ****       __glibcxx_function_requires(_EqualOpConcept<
 374:c:\programdata\chocolatey\lib\gcc-arm-embedded\tools\gcc-arm-none-eabi-10-2020-q4-major\arm-none-eabi\include\c++\10.2.1\bits\stl_algo.h **** 	    typename iterator_traits<_ForwardIterator1>::value_type,
 375:c:\programdata\chocolatey\lib\gcc-arm-embedded\tools\gcc-arm-none-eabi-10-2020-q4-major\arm-none-eabi\include\c++\10.2.1\bits\stl_algo.h **** 	    typename iterator_traits<_ForwardIterator2>::value_type>)
 376:c:\programdata\chocolatey\lib\gcc-arm-embedded\tools\gcc-arm-none-eabi-10-2020-q4-major\arm-none-eabi\include\c++\10.2.1\bits\stl_algo.h ****       __glibcxx_requires_valid_range(__first1, __last1);
 377:c:\programdata\chocolatey\lib\gcc-arm-embedded\tools\gcc-arm-none-eabi-10-2020-q4-major\arm-none-eabi\include\c++\10.2.1\bits\stl_algo.h ****       __glibcxx_requires_valid_range(__first2, __last2);
 378:c:\programdata\chocolatey\lib\gcc-arm-embedded\tools\gcc-arm-none-eabi-10-2020-q4-major\arm-none-eabi\include\c++\10.2.1\bits\stl_algo.h **** 
 379:c:\programdata\chocolatey\lib\gcc-arm-embedded\tools\gcc-arm-none-eabi-10-2020-q4-major\arm-none-eabi\include\c++\10.2.1\bits\stl_algo.h ****       return std::__find_end(__first1, __last1, __first2, __last2,
 380:c:\programdata\chocolatey\lib\gcc-arm-embedded\tools\gcc-arm-none-eabi-10-2020-q4-major\arm-none-eabi\include\c++\10.2.1\bits\stl_algo.h **** 			     std::__iterator_category(__first1),
 381:c:\programdata\chocolatey\lib\gcc-arm-embedded\tools\gcc-arm-none-eabi-10-2020-q4-major\arm-none-eabi\include\c++\10.2.1\bits\stl_algo.h **** 			     std::__iterator_category(__first2),
 382:c:\programdata\chocolatey\lib\gcc-arm-embedded\tools\gcc-arm-none-eabi-10-2020-q4-major\arm-none-eabi\include\c++\10.2.1\bits\stl_algo.h **** 			     __gnu_cxx::__ops::__iter_equal_to_iter());
 383:c:\programdata\chocolatey\lib\gcc-arm-embedded\tools\gcc-arm-none-eabi-10-2020-q4-major\arm-none-eabi\include\c++\10.2.1\bits\stl_algo.h ****     }
 384:c:\programdata\chocolatey\lib\gcc-arm-embedded\tools\gcc-arm-none-eabi-10-2020-q4-major\arm-none-eabi\include\c++\10.2.1\bits\stl_algo.h **** 
 385:c:\programdata\chocolatey\lib\gcc-arm-embedded\tools\gcc-arm-none-eabi-10-2020-q4-major\arm-none-eabi\include\c++\10.2.1\bits\stl_algo.h ****   /**
 386:c:\programdata\chocolatey\lib\gcc-arm-embedded\tools\gcc-arm-none-eabi-10-2020-q4-major\arm-none-eabi\include\c++\10.2.1\bits\stl_algo.h ****    *  @brief  Find last matching subsequence in a sequence using a predicate.
 387:c:\programdata\chocolatey\lib\gcc-arm-embedded\tools\gcc-arm-none-eabi-10-2020-q4-major\arm-none-eabi\include\c++\10.2.1\bits\stl_algo.h ****    *  @ingroup non_mutating_algorithms
 388:c:\programdata\chocolatey\lib\gcc-arm-embedded\tools\gcc-arm-none-eabi-10-2020-q4-major\arm-none-eabi\include\c++\10.2.1\bits\stl_algo.h ****    *  @param  __first1  Start of range to search.
 389:c:\programdata\chocolatey\lib\gcc-arm-embedded\tools\gcc-arm-none-eabi-10-2020-q4-major\arm-none-eabi\include\c++\10.2.1\bits\stl_algo.h ****    *  @param  __last1   End of range to search.
 390:c:\programdata\chocolatey\lib\gcc-arm-embedded\tools\gcc-arm-none-eabi-10-2020-q4-major\arm-none-eabi\include\c++\10.2.1\bits\stl_algo.h ****    *  @param  __first2  Start of sequence to match.
 391:c:\programdata\chocolatey\lib\gcc-arm-embedded\tools\gcc-arm-none-eabi-10-2020-q4-major\arm-none-eabi\include\c++\10.2.1\bits\stl_algo.h ****    *  @param  __last2   End of sequence to match.
 392:c:\programdata\chocolatey\lib\gcc-arm-embedded\tools\gcc-arm-none-eabi-10-2020-q4-major\arm-none-eabi\include\c++\10.2.1\bits\stl_algo.h ****    *  @param  __comp    The predicate to use.
 393:c:\programdata\chocolatey\lib\gcc-arm-embedded\tools\gcc-arm-none-eabi-10-2020-q4-major\arm-none-eabi\include\c++\10.2.1\bits\stl_algo.h ****    *  @return The last iterator @c i in the range @p
 394:c:\programdata\chocolatey\lib\gcc-arm-embedded\tools\gcc-arm-none-eabi-10-2020-q4-major\arm-none-eabi\include\c++\10.2.1\bits\stl_algo.h ****    *  [__first1,__last1-(__last2-__first2)) such that @c
 395:c:\programdata\chocolatey\lib\gcc-arm-embedded\tools\gcc-arm-none-eabi-10-2020-q4-major\arm-none-eabi\include\c++\10.2.1\bits\stl_algo.h ****    *  predicate(*(i+N), @p (__first2+N)) is true for each @c N in the
 396:c:\programdata\chocolatey\lib\gcc-arm-embedded\tools\gcc-arm-none-eabi-10-2020-q4-major\arm-none-eabi\include\c++\10.2.1\bits\stl_algo.h ****    *  range @p [0,__last2-__first2), or @p __last1 if no such iterator
 397:c:\programdata\chocolatey\lib\gcc-arm-embedded\tools\gcc-arm-none-eabi-10-2020-q4-major\arm-none-eabi\include\c++\10.2.1\bits\stl_algo.h ****    *  exists.
 398:c:\programdata\chocolatey\lib\gcc-arm-embedded\tools\gcc-arm-none-eabi-10-2020-q4-major\arm-none-eabi\include\c++\10.2.1\bits\stl_algo.h ****    *
 399:c:\programdata\chocolatey\lib\gcc-arm-embedded\tools\gcc-arm-none-eabi-10-2020-q4-major\arm-none-eabi\include\c++\10.2.1\bits\stl_algo.h ****    *  Searches the range @p [__first1,__last1) for a sub-sequence that
 400:c:\programdata\chocolatey\lib\gcc-arm-embedded\tools\gcc-arm-none-eabi-10-2020-q4-major\arm-none-eabi\include\c++\10.2.1\bits\stl_algo.h ****    *  compares equal value-by-value with the sequence given by @p
 401:c:\programdata\chocolatey\lib\gcc-arm-embedded\tools\gcc-arm-none-eabi-10-2020-q4-major\arm-none-eabi\include\c++\10.2.1\bits\stl_algo.h ****    *  [__first2,__last2) using comp as a predicate and returns an
 402:c:\programdata\chocolatey\lib\gcc-arm-embedded\tools\gcc-arm-none-eabi-10-2020-q4-major\arm-none-eabi\include\c++\10.2.1\bits\stl_algo.h ****    *  iterator to the first element of the sub-sequence, or @p __last1
 403:c:\programdata\chocolatey\lib\gcc-arm-embedded\tools\gcc-arm-none-eabi-10-2020-q4-major\arm-none-eabi\include\c++\10.2.1\bits\stl_algo.h ****    *  if the sub-sequence is not found.  The sub-sequence will be the
 404:c:\programdata\chocolatey\lib\gcc-arm-embedded\tools\gcc-arm-none-eabi-10-2020-q4-major\arm-none-eabi\include\c++\10.2.1\bits\stl_algo.h ****    *  last such subsequence contained in [__first,__last1).
 405:c:\programdata\chocolatey\lib\gcc-arm-embedded\tools\gcc-arm-none-eabi-10-2020-q4-major\arm-none-eabi\include\c++\10.2.1\bits\stl_algo.h ****    *
 406:c:\programdata\chocolatey\lib\gcc-arm-embedded\tools\gcc-arm-none-eabi-10-2020-q4-major\arm-none-eabi\include\c++\10.2.1\bits\stl_algo.h ****    *  Because the sub-sequence must lie completely within the range @p
 407:c:\programdata\chocolatey\lib\gcc-arm-embedded\tools\gcc-arm-none-eabi-10-2020-q4-major\arm-none-eabi\include\c++\10.2.1\bits\stl_algo.h ****    *  [__first1,__last1) it must start at a position less than @p
 408:c:\programdata\chocolatey\lib\gcc-arm-embedded\tools\gcc-arm-none-eabi-10-2020-q4-major\arm-none-eabi\include\c++\10.2.1\bits\stl_algo.h ****    *  __last1-(__last2-__first2) where @p __last2-__first2 is the
 409:c:\programdata\chocolatey\lib\gcc-arm-embedded\tools\gcc-arm-none-eabi-10-2020-q4-major\arm-none-eabi\include\c++\10.2.1\bits\stl_algo.h ****    *  length of the sub-sequence.  This means that the returned
 410:c:\programdata\chocolatey\lib\gcc-arm-embedded\tools\gcc-arm-none-eabi-10-2020-q4-major\arm-none-eabi\include\c++\10.2.1\bits\stl_algo.h ****    *  iterator @c i will be in the range @p
 411:c:\programdata\chocolatey\lib\gcc-arm-embedded\tools\gcc-arm-none-eabi-10-2020-q4-major\arm-none-eabi\include\c++\10.2.1\bits\stl_algo.h ****    *  [__first1,__last1-(__last2-__first2))
 412:c:\programdata\chocolatey\lib\gcc-arm-embedded\tools\gcc-arm-none-eabi-10-2020-q4-major\arm-none-eabi\include\c++\10.2.1\bits\stl_algo.h ****   */
 413:c:\programdata\chocolatey\lib\gcc-arm-embedded\tools\gcc-arm-none-eabi-10-2020-q4-major\arm-none-eabi\include\c++\10.2.1\bits\stl_algo.h ****   template<typename _ForwardIterator1, typename _ForwardIterator2,
 414:c:\programdata\chocolatey\lib\gcc-arm-embedded\tools\gcc-arm-none-eabi-10-2020-q4-major\arm-none-eabi\include\c++\10.2.1\bits\stl_algo.h **** 	   typename _BinaryPredicate>
 415:c:\programdata\chocolatey\lib\gcc-arm-embedded\tools\gcc-arm-none-eabi-10-2020-q4-major\arm-none-eabi\include\c++\10.2.1\bits\stl_algo.h ****     _GLIBCXX20_CONSTEXPR
 416:c:\programdata\chocolatey\lib\gcc-arm-embedded\tools\gcc-arm-none-eabi-10-2020-q4-major\arm-none-eabi\include\c++\10.2.1\bits\stl_algo.h ****     inline _ForwardIterator1
 417:c:\programdata\chocolatey\lib\gcc-arm-embedded\tools\gcc-arm-none-eabi-10-2020-q4-major\arm-none-eabi\include\c++\10.2.1\bits\stl_algo.h ****     find_end(_ForwardIterator1 __first1, _ForwardIterator1 __last1,
 418:c:\programdata\chocolatey\lib\gcc-arm-embedded\tools\gcc-arm-none-eabi-10-2020-q4-major\arm-none-eabi\include\c++\10.2.1\bits\stl_algo.h **** 	     _ForwardIterator2 __first2, _ForwardIterator2 __last2,
ARM GAS  C:\Users\daniel\AppData\Local\Temp\ccXSGLh5.s 			page 30


 419:c:\programdata\chocolatey\lib\gcc-arm-embedded\tools\gcc-arm-none-eabi-10-2020-q4-major\arm-none-eabi\include\c++\10.2.1\bits\stl_algo.h **** 	     _BinaryPredicate __comp)
 420:c:\programdata\chocolatey\lib\gcc-arm-embedded\tools\gcc-arm-none-eabi-10-2020-q4-major\arm-none-eabi\include\c++\10.2.1\bits\stl_algo.h ****     {
 421:c:\programdata\chocolatey\lib\gcc-arm-embedded\tools\gcc-arm-none-eabi-10-2020-q4-major\arm-none-eabi\include\c++\10.2.1\bits\stl_algo.h ****       // concept requirements
 422:c:\programdata\chocolatey\lib\gcc-arm-embedded\tools\gcc-arm-none-eabi-10-2020-q4-major\arm-none-eabi\include\c++\10.2.1\bits\stl_algo.h ****       __glibcxx_function_requires(_ForwardIteratorConcept<_ForwardIterator1>)
 423:c:\programdata\chocolatey\lib\gcc-arm-embedded\tools\gcc-arm-none-eabi-10-2020-q4-major\arm-none-eabi\include\c++\10.2.1\bits\stl_algo.h ****       __glibcxx_function_requires(_ForwardIteratorConcept<_ForwardIterator2>)
 424:c:\programdata\chocolatey\lib\gcc-arm-embedded\tools\gcc-arm-none-eabi-10-2020-q4-major\arm-none-eabi\include\c++\10.2.1\bits\stl_algo.h ****       __glibcxx_function_requires(_BinaryPredicateConcept<_BinaryPredicate,
 425:c:\programdata\chocolatey\lib\gcc-arm-embedded\tools\gcc-arm-none-eabi-10-2020-q4-major\arm-none-eabi\include\c++\10.2.1\bits\stl_algo.h **** 	    typename iterator_traits<_ForwardIterator1>::value_type,
 426:c:\programdata\chocolatey\lib\gcc-arm-embedded\tools\gcc-arm-none-eabi-10-2020-q4-major\arm-none-eabi\include\c++\10.2.1\bits\stl_algo.h **** 	    typename iterator_traits<_ForwardIterator2>::value_type>)
 427:c:\programdata\chocolatey\lib\gcc-arm-embedded\tools\gcc-arm-none-eabi-10-2020-q4-major\arm-none-eabi\include\c++\10.2.1\bits\stl_algo.h ****       __glibcxx_requires_valid_range(__first1, __last1);
 428:c:\programdata\chocolatey\lib\gcc-arm-embedded\tools\gcc-arm-none-eabi-10-2020-q4-major\arm-none-eabi\include\c++\10.2.1\bits\stl_algo.h ****       __glibcxx_requires_valid_range(__first2, __last2);
 429:c:\programdata\chocolatey\lib\gcc-arm-embedded\tools\gcc-arm-none-eabi-10-2020-q4-major\arm-none-eabi\include\c++\10.2.1\bits\stl_algo.h **** 
 430:c:\programdata\chocolatey\lib\gcc-arm-embedded\tools\gcc-arm-none-eabi-10-2020-q4-major\arm-none-eabi\include\c++\10.2.1\bits\stl_algo.h ****       return std::__find_end(__first1, __last1, __first2, __last2,
 431:c:\programdata\chocolatey\lib\gcc-arm-embedded\tools\gcc-arm-none-eabi-10-2020-q4-major\arm-none-eabi\include\c++\10.2.1\bits\stl_algo.h **** 			     std::__iterator_category(__first1),
 432:c:\programdata\chocolatey\lib\gcc-arm-embedded\tools\gcc-arm-none-eabi-10-2020-q4-major\arm-none-eabi\include\c++\10.2.1\bits\stl_algo.h **** 			     std::__iterator_category(__first2),
 433:c:\programdata\chocolatey\lib\gcc-arm-embedded\tools\gcc-arm-none-eabi-10-2020-q4-major\arm-none-eabi\include\c++\10.2.1\bits\stl_algo.h **** 			     __gnu_cxx::__ops::__iter_comp_iter(__comp));
 434:c:\programdata\chocolatey\lib\gcc-arm-embedded\tools\gcc-arm-none-eabi-10-2020-q4-major\arm-none-eabi\include\c++\10.2.1\bits\stl_algo.h ****     }
 435:c:\programdata\chocolatey\lib\gcc-arm-embedded\tools\gcc-arm-none-eabi-10-2020-q4-major\arm-none-eabi\include\c++\10.2.1\bits\stl_algo.h **** 
 436:c:\programdata\chocolatey\lib\gcc-arm-embedded\tools\gcc-arm-none-eabi-10-2020-q4-major\arm-none-eabi\include\c++\10.2.1\bits\stl_algo.h **** #if __cplusplus >= 201103L
 437:c:\programdata\chocolatey\lib\gcc-arm-embedded\tools\gcc-arm-none-eabi-10-2020-q4-major\arm-none-eabi\include\c++\10.2.1\bits\stl_algo.h ****   /**
 438:c:\programdata\chocolatey\lib\gcc-arm-embedded\tools\gcc-arm-none-eabi-10-2020-q4-major\arm-none-eabi\include\c++\10.2.1\bits\stl_algo.h ****    *  @brief  Checks that a predicate is true for all the elements
 439:c:\programdata\chocolatey\lib\gcc-arm-embedded\tools\gcc-arm-none-eabi-10-2020-q4-major\arm-none-eabi\include\c++\10.2.1\bits\stl_algo.h ****    *          of a sequence.
 440:c:\programdata\chocolatey\lib\gcc-arm-embedded\tools\gcc-arm-none-eabi-10-2020-q4-major\arm-none-eabi\include\c++\10.2.1\bits\stl_algo.h ****    *  @ingroup non_mutating_algorithms
 441:c:\programdata\chocolatey\lib\gcc-arm-embedded\tools\gcc-arm-none-eabi-10-2020-q4-major\arm-none-eabi\include\c++\10.2.1\bits\stl_algo.h ****    *  @param  __first   An input iterator.
 442:c:\programdata\chocolatey\lib\gcc-arm-embedded\tools\gcc-arm-none-eabi-10-2020-q4-major\arm-none-eabi\include\c++\10.2.1\bits\stl_algo.h ****    *  @param  __last    An input iterator.
 443:c:\programdata\chocolatey\lib\gcc-arm-embedded\tools\gcc-arm-none-eabi-10-2020-q4-major\arm-none-eabi\include\c++\10.2.1\bits\stl_algo.h ****    *  @param  __pred    A predicate.
 444:c:\programdata\chocolatey\lib\gcc-arm-embedded\tools\gcc-arm-none-eabi-10-2020-q4-major\arm-none-eabi\include\c++\10.2.1\bits\stl_algo.h ****    *  @return  True if the check is true, false otherwise.
 445:c:\programdata\chocolatey\lib\gcc-arm-embedded\tools\gcc-arm-none-eabi-10-2020-q4-major\arm-none-eabi\include\c++\10.2.1\bits\stl_algo.h ****    *
 446:c:\programdata\chocolatey\lib\gcc-arm-embedded\tools\gcc-arm-none-eabi-10-2020-q4-major\arm-none-eabi\include\c++\10.2.1\bits\stl_algo.h ****    *  Returns true if @p __pred is true for each element in the range
 447:c:\programdata\chocolatey\lib\gcc-arm-embedded\tools\gcc-arm-none-eabi-10-2020-q4-major\arm-none-eabi\include\c++\10.2.1\bits\stl_algo.h ****    *  @p [__first,__last), and false otherwise.
 448:c:\programdata\chocolatey\lib\gcc-arm-embedded\tools\gcc-arm-none-eabi-10-2020-q4-major\arm-none-eabi\include\c++\10.2.1\bits\stl_algo.h ****   */
 449:c:\programdata\chocolatey\lib\gcc-arm-embedded\tools\gcc-arm-none-eabi-10-2020-q4-major\arm-none-eabi\include\c++\10.2.1\bits\stl_algo.h ****   template<typename _InputIterator, typename _Predicate>
 450:c:\programdata\chocolatey\lib\gcc-arm-embedded\tools\gcc-arm-none-eabi-10-2020-q4-major\arm-none-eabi\include\c++\10.2.1\bits\stl_algo.h ****     _GLIBCXX20_CONSTEXPR
 451:c:\programdata\chocolatey\lib\gcc-arm-embedded\tools\gcc-arm-none-eabi-10-2020-q4-major\arm-none-eabi\include\c++\10.2.1\bits\stl_algo.h ****     inline bool
 452:c:\programdata\chocolatey\lib\gcc-arm-embedded\tools\gcc-arm-none-eabi-10-2020-q4-major\arm-none-eabi\include\c++\10.2.1\bits\stl_algo.h ****     all_of(_InputIterator __first, _InputIterator __last, _Predicate __pred)
 453:c:\programdata\chocolatey\lib\gcc-arm-embedded\tools\gcc-arm-none-eabi-10-2020-q4-major\arm-none-eabi\include\c++\10.2.1\bits\stl_algo.h ****     { return __last == std::find_if_not(__first, __last, __pred); }
 454:c:\programdata\chocolatey\lib\gcc-arm-embedded\tools\gcc-arm-none-eabi-10-2020-q4-major\arm-none-eabi\include\c++\10.2.1\bits\stl_algo.h **** 
 455:c:\programdata\chocolatey\lib\gcc-arm-embedded\tools\gcc-arm-none-eabi-10-2020-q4-major\arm-none-eabi\include\c++\10.2.1\bits\stl_algo.h ****   /**
 456:c:\programdata\chocolatey\lib\gcc-arm-embedded\tools\gcc-arm-none-eabi-10-2020-q4-major\arm-none-eabi\include\c++\10.2.1\bits\stl_algo.h ****    *  @brief  Checks that a predicate is false for all the elements
 457:c:\programdata\chocolatey\lib\gcc-arm-embedded\tools\gcc-arm-none-eabi-10-2020-q4-major\arm-none-eabi\include\c++\10.2.1\bits\stl_algo.h ****    *          of a sequence.
 458:c:\programdata\chocolatey\lib\gcc-arm-embedded\tools\gcc-arm-none-eabi-10-2020-q4-major\arm-none-eabi\include\c++\10.2.1\bits\stl_algo.h ****    *  @ingroup non_mutating_algorithms
 459:c:\programdata\chocolatey\lib\gcc-arm-embedded\tools\gcc-arm-none-eabi-10-2020-q4-major\arm-none-eabi\include\c++\10.2.1\bits\stl_algo.h ****    *  @param  __first   An input iterator.
 460:c:\programdata\chocolatey\lib\gcc-arm-embedded\tools\gcc-arm-none-eabi-10-2020-q4-major\arm-none-eabi\include\c++\10.2.1\bits\stl_algo.h ****    *  @param  __last    An input iterator.
 461:c:\programdata\chocolatey\lib\gcc-arm-embedded\tools\gcc-arm-none-eabi-10-2020-q4-major\arm-none-eabi\include\c++\10.2.1\bits\stl_algo.h ****    *  @param  __pred    A predicate.
 462:c:\programdata\chocolatey\lib\gcc-arm-embedded\tools\gcc-arm-none-eabi-10-2020-q4-major\arm-none-eabi\include\c++\10.2.1\bits\stl_algo.h ****    *  @return  True if the check is true, false otherwise.
 463:c:\programdata\chocolatey\lib\gcc-arm-embedded\tools\gcc-arm-none-eabi-10-2020-q4-major\arm-none-eabi\include\c++\10.2.1\bits\stl_algo.h ****    *
 464:c:\programdata\chocolatey\lib\gcc-arm-embedded\tools\gcc-arm-none-eabi-10-2020-q4-major\arm-none-eabi\include\c++\10.2.1\bits\stl_algo.h ****    *  Returns true if @p __pred is false for each element in the range
 465:c:\programdata\chocolatey\lib\gcc-arm-embedded\tools\gcc-arm-none-eabi-10-2020-q4-major\arm-none-eabi\include\c++\10.2.1\bits\stl_algo.h ****    *  @p [__first,__last), and false otherwise.
 466:c:\programdata\chocolatey\lib\gcc-arm-embedded\tools\gcc-arm-none-eabi-10-2020-q4-major\arm-none-eabi\include\c++\10.2.1\bits\stl_algo.h ****   */
 467:c:\programdata\chocolatey\lib\gcc-arm-embedded\tools\gcc-arm-none-eabi-10-2020-q4-major\arm-none-eabi\include\c++\10.2.1\bits\stl_algo.h ****   template<typename _InputIterator, typename _Predicate>
 468:c:\programdata\chocolatey\lib\gcc-arm-embedded\tools\gcc-arm-none-eabi-10-2020-q4-major\arm-none-eabi\include\c++\10.2.1\bits\stl_algo.h ****     _GLIBCXX20_CONSTEXPR
 469:c:\programdata\chocolatey\lib\gcc-arm-embedded\tools\gcc-arm-none-eabi-10-2020-q4-major\arm-none-eabi\include\c++\10.2.1\bits\stl_algo.h ****     inline bool
 470:c:\programdata\chocolatey\lib\gcc-arm-embedded\tools\gcc-arm-none-eabi-10-2020-q4-major\arm-none-eabi\include\c++\10.2.1\bits\stl_algo.h ****     none_of(_InputIterator __first, _InputIterator __last, _Predicate __pred)
 471:c:\programdata\chocolatey\lib\gcc-arm-embedded\tools\gcc-arm-none-eabi-10-2020-q4-major\arm-none-eabi\include\c++\10.2.1\bits\stl_algo.h ****     { return __last == _GLIBCXX_STD_A::find_if(__first, __last, __pred); }
 472:c:\programdata\chocolatey\lib\gcc-arm-embedded\tools\gcc-arm-none-eabi-10-2020-q4-major\arm-none-eabi\include\c++\10.2.1\bits\stl_algo.h **** 
 473:c:\programdata\chocolatey\lib\gcc-arm-embedded\tools\gcc-arm-none-eabi-10-2020-q4-major\arm-none-eabi\include\c++\10.2.1\bits\stl_algo.h ****   /**
 474:c:\programdata\chocolatey\lib\gcc-arm-embedded\tools\gcc-arm-none-eabi-10-2020-q4-major\arm-none-eabi\include\c++\10.2.1\bits\stl_algo.h ****    *  @brief  Checks that a predicate is true for at least one element
 475:c:\programdata\chocolatey\lib\gcc-arm-embedded\tools\gcc-arm-none-eabi-10-2020-q4-major\arm-none-eabi\include\c++\10.2.1\bits\stl_algo.h ****    *          of a sequence.
ARM GAS  C:\Users\daniel\AppData\Local\Temp\ccXSGLh5.s 			page 31


 476:c:\programdata\chocolatey\lib\gcc-arm-embedded\tools\gcc-arm-none-eabi-10-2020-q4-major\arm-none-eabi\include\c++\10.2.1\bits\stl_algo.h ****    *  @ingroup non_mutating_algorithms
 477:c:\programdata\chocolatey\lib\gcc-arm-embedded\tools\gcc-arm-none-eabi-10-2020-q4-major\arm-none-eabi\include\c++\10.2.1\bits\stl_algo.h ****    *  @param  __first   An input iterator.
 478:c:\programdata\chocolatey\lib\gcc-arm-embedded\tools\gcc-arm-none-eabi-10-2020-q4-major\arm-none-eabi\include\c++\10.2.1\bits\stl_algo.h ****    *  @param  __last    An input iterator.
 479:c:\programdata\chocolatey\lib\gcc-arm-embedded\tools\gcc-arm-none-eabi-10-2020-q4-major\arm-none-eabi\include\c++\10.2.1\bits\stl_algo.h ****    *  @param  __pred    A predicate.
 480:c:\programdata\chocolatey\lib\gcc-arm-embedded\tools\gcc-arm-none-eabi-10-2020-q4-major\arm-none-eabi\include\c++\10.2.1\bits\stl_algo.h ****    *  @return  True if the check is true, false otherwise.
 481:c:\programdata\chocolatey\lib\gcc-arm-embedded\tools\gcc-arm-none-eabi-10-2020-q4-major\arm-none-eabi\include\c++\10.2.1\bits\stl_algo.h ****    *
 482:c:\programdata\chocolatey\lib\gcc-arm-embedded\tools\gcc-arm-none-eabi-10-2020-q4-major\arm-none-eabi\include\c++\10.2.1\bits\stl_algo.h ****    *  Returns true if an element exists in the range @p
 483:c:\programdata\chocolatey\lib\gcc-arm-embedded\tools\gcc-arm-none-eabi-10-2020-q4-major\arm-none-eabi\include\c++\10.2.1\bits\stl_algo.h ****    *  [__first,__last) such that @p __pred is true, and false
 484:c:\programdata\chocolatey\lib\gcc-arm-embedded\tools\gcc-arm-none-eabi-10-2020-q4-major\arm-none-eabi\include\c++\10.2.1\bits\stl_algo.h ****    *  otherwise.
 485:c:\programdata\chocolatey\lib\gcc-arm-embedded\tools\gcc-arm-none-eabi-10-2020-q4-major\arm-none-eabi\include\c++\10.2.1\bits\stl_algo.h ****   */
 486:c:\programdata\chocolatey\lib\gcc-arm-embedded\tools\gcc-arm-none-eabi-10-2020-q4-major\arm-none-eabi\include\c++\10.2.1\bits\stl_algo.h ****   template<typename _InputIterator, typename _Predicate>
 487:c:\programdata\chocolatey\lib\gcc-arm-embedded\tools\gcc-arm-none-eabi-10-2020-q4-major\arm-none-eabi\include\c++\10.2.1\bits\stl_algo.h ****     _GLIBCXX20_CONSTEXPR
 488:c:\programdata\chocolatey\lib\gcc-arm-embedded\tools\gcc-arm-none-eabi-10-2020-q4-major\arm-none-eabi\include\c++\10.2.1\bits\stl_algo.h ****     inline bool
 489:c:\programdata\chocolatey\lib\gcc-arm-embedded\tools\gcc-arm-none-eabi-10-2020-q4-major\arm-none-eabi\include\c++\10.2.1\bits\stl_algo.h ****     any_of(_InputIterator __first, _InputIterator __last, _Predicate __pred)
 490:c:\programdata\chocolatey\lib\gcc-arm-embedded\tools\gcc-arm-none-eabi-10-2020-q4-major\arm-none-eabi\include\c++\10.2.1\bits\stl_algo.h ****     { return !std::none_of(__first, __last, __pred); }
 491:c:\programdata\chocolatey\lib\gcc-arm-embedded\tools\gcc-arm-none-eabi-10-2020-q4-major\arm-none-eabi\include\c++\10.2.1\bits\stl_algo.h **** 
 492:c:\programdata\chocolatey\lib\gcc-arm-embedded\tools\gcc-arm-none-eabi-10-2020-q4-major\arm-none-eabi\include\c++\10.2.1\bits\stl_algo.h ****   /**
 493:c:\programdata\chocolatey\lib\gcc-arm-embedded\tools\gcc-arm-none-eabi-10-2020-q4-major\arm-none-eabi\include\c++\10.2.1\bits\stl_algo.h ****    *  @brief  Find the first element in a sequence for which a
 494:c:\programdata\chocolatey\lib\gcc-arm-embedded\tools\gcc-arm-none-eabi-10-2020-q4-major\arm-none-eabi\include\c++\10.2.1\bits\stl_algo.h ****    *          predicate is false.
 495:c:\programdata\chocolatey\lib\gcc-arm-embedded\tools\gcc-arm-none-eabi-10-2020-q4-major\arm-none-eabi\include\c++\10.2.1\bits\stl_algo.h ****    *  @ingroup non_mutating_algorithms
 496:c:\programdata\chocolatey\lib\gcc-arm-embedded\tools\gcc-arm-none-eabi-10-2020-q4-major\arm-none-eabi\include\c++\10.2.1\bits\stl_algo.h ****    *  @param  __first  An input iterator.
 497:c:\programdata\chocolatey\lib\gcc-arm-embedded\tools\gcc-arm-none-eabi-10-2020-q4-major\arm-none-eabi\include\c++\10.2.1\bits\stl_algo.h ****    *  @param  __last   An input iterator.
 498:c:\programdata\chocolatey\lib\gcc-arm-embedded\tools\gcc-arm-none-eabi-10-2020-q4-major\arm-none-eabi\include\c++\10.2.1\bits\stl_algo.h ****    *  @param  __pred   A predicate.
 499:c:\programdata\chocolatey\lib\gcc-arm-embedded\tools\gcc-arm-none-eabi-10-2020-q4-major\arm-none-eabi\include\c++\10.2.1\bits\stl_algo.h ****    *  @return   The first iterator @c i in the range @p [__first,__last)
 500:c:\programdata\chocolatey\lib\gcc-arm-embedded\tools\gcc-arm-none-eabi-10-2020-q4-major\arm-none-eabi\include\c++\10.2.1\bits\stl_algo.h ****    *  such that @p __pred(*i) is false, or @p __last if no such iterator exists.
 501:c:\programdata\chocolatey\lib\gcc-arm-embedded\tools\gcc-arm-none-eabi-10-2020-q4-major\arm-none-eabi\include\c++\10.2.1\bits\stl_algo.h ****   */
 502:c:\programdata\chocolatey\lib\gcc-arm-embedded\tools\gcc-arm-none-eabi-10-2020-q4-major\arm-none-eabi\include\c++\10.2.1\bits\stl_algo.h ****   template<typename _InputIterator, typename _Predicate>
 503:c:\programdata\chocolatey\lib\gcc-arm-embedded\tools\gcc-arm-none-eabi-10-2020-q4-major\arm-none-eabi\include\c++\10.2.1\bits\stl_algo.h ****     _GLIBCXX20_CONSTEXPR
 504:c:\programdata\chocolatey\lib\gcc-arm-embedded\tools\gcc-arm-none-eabi-10-2020-q4-major\arm-none-eabi\include\c++\10.2.1\bits\stl_algo.h ****     inline _InputIterator
 505:c:\programdata\chocolatey\lib\gcc-arm-embedded\tools\gcc-arm-none-eabi-10-2020-q4-major\arm-none-eabi\include\c++\10.2.1\bits\stl_algo.h ****     find_if_not(_InputIterator __first, _InputIterator __last,
 506:c:\programdata\chocolatey\lib\gcc-arm-embedded\tools\gcc-arm-none-eabi-10-2020-q4-major\arm-none-eabi\include\c++\10.2.1\bits\stl_algo.h **** 		_Predicate __pred)
 507:c:\programdata\chocolatey\lib\gcc-arm-embedded\tools\gcc-arm-none-eabi-10-2020-q4-major\arm-none-eabi\include\c++\10.2.1\bits\stl_algo.h ****     {
 508:c:\programdata\chocolatey\lib\gcc-arm-embedded\tools\gcc-arm-none-eabi-10-2020-q4-major\arm-none-eabi\include\c++\10.2.1\bits\stl_algo.h ****       // concept requirements
 509:c:\programdata\chocolatey\lib\gcc-arm-embedded\tools\gcc-arm-none-eabi-10-2020-q4-major\arm-none-eabi\include\c++\10.2.1\bits\stl_algo.h ****       __glibcxx_function_requires(_InputIteratorConcept<_InputIterator>)
 510:c:\programdata\chocolatey\lib\gcc-arm-embedded\tools\gcc-arm-none-eabi-10-2020-q4-major\arm-none-eabi\include\c++\10.2.1\bits\stl_algo.h ****       __glibcxx_function_requires(_UnaryPredicateConcept<_Predicate,
 511:c:\programdata\chocolatey\lib\gcc-arm-embedded\tools\gcc-arm-none-eabi-10-2020-q4-major\arm-none-eabi\include\c++\10.2.1\bits\stl_algo.h **** 	      typename iterator_traits<_InputIterator>::value_type>)
 512:c:\programdata\chocolatey\lib\gcc-arm-embedded\tools\gcc-arm-none-eabi-10-2020-q4-major\arm-none-eabi\include\c++\10.2.1\bits\stl_algo.h ****       __glibcxx_requires_valid_range(__first, __last);
 513:c:\programdata\chocolatey\lib\gcc-arm-embedded\tools\gcc-arm-none-eabi-10-2020-q4-major\arm-none-eabi\include\c++\10.2.1\bits\stl_algo.h ****       return std::__find_if_not(__first, __last,
 514:c:\programdata\chocolatey\lib\gcc-arm-embedded\tools\gcc-arm-none-eabi-10-2020-q4-major\arm-none-eabi\include\c++\10.2.1\bits\stl_algo.h **** 				__gnu_cxx::__ops::__pred_iter(__pred));
 515:c:\programdata\chocolatey\lib\gcc-arm-embedded\tools\gcc-arm-none-eabi-10-2020-q4-major\arm-none-eabi\include\c++\10.2.1\bits\stl_algo.h ****     }
 516:c:\programdata\chocolatey\lib\gcc-arm-embedded\tools\gcc-arm-none-eabi-10-2020-q4-major\arm-none-eabi\include\c++\10.2.1\bits\stl_algo.h **** 
 517:c:\programdata\chocolatey\lib\gcc-arm-embedded\tools\gcc-arm-none-eabi-10-2020-q4-major\arm-none-eabi\include\c++\10.2.1\bits\stl_algo.h ****   /**
 518:c:\programdata\chocolatey\lib\gcc-arm-embedded\tools\gcc-arm-none-eabi-10-2020-q4-major\arm-none-eabi\include\c++\10.2.1\bits\stl_algo.h ****    *  @brief  Checks whether the sequence is partitioned.
 519:c:\programdata\chocolatey\lib\gcc-arm-embedded\tools\gcc-arm-none-eabi-10-2020-q4-major\arm-none-eabi\include\c++\10.2.1\bits\stl_algo.h ****    *  @ingroup mutating_algorithms
 520:c:\programdata\chocolatey\lib\gcc-arm-embedded\tools\gcc-arm-none-eabi-10-2020-q4-major\arm-none-eabi\include\c++\10.2.1\bits\stl_algo.h ****    *  @param  __first  An input iterator.
 521:c:\programdata\chocolatey\lib\gcc-arm-embedded\tools\gcc-arm-none-eabi-10-2020-q4-major\arm-none-eabi\include\c++\10.2.1\bits\stl_algo.h ****    *  @param  __last   An input iterator.
 522:c:\programdata\chocolatey\lib\gcc-arm-embedded\tools\gcc-arm-none-eabi-10-2020-q4-major\arm-none-eabi\include\c++\10.2.1\bits\stl_algo.h ****    *  @param  __pred   A predicate.
 523:c:\programdata\chocolatey\lib\gcc-arm-embedded\tools\gcc-arm-none-eabi-10-2020-q4-major\arm-none-eabi\include\c++\10.2.1\bits\stl_algo.h ****    *  @return  True if the range @p [__first,__last) is partioned by @p __pred,
 524:c:\programdata\chocolatey\lib\gcc-arm-embedded\tools\gcc-arm-none-eabi-10-2020-q4-major\arm-none-eabi\include\c++\10.2.1\bits\stl_algo.h ****    *  i.e. if all elements that satisfy @p __pred appear before those that
 525:c:\programdata\chocolatey\lib\gcc-arm-embedded\tools\gcc-arm-none-eabi-10-2020-q4-major\arm-none-eabi\include\c++\10.2.1\bits\stl_algo.h ****    *  do not.
 526:c:\programdata\chocolatey\lib\gcc-arm-embedded\tools\gcc-arm-none-eabi-10-2020-q4-major\arm-none-eabi\include\c++\10.2.1\bits\stl_algo.h ****   */
 527:c:\programdata\chocolatey\lib\gcc-arm-embedded\tools\gcc-arm-none-eabi-10-2020-q4-major\arm-none-eabi\include\c++\10.2.1\bits\stl_algo.h ****   template<typename _InputIterator, typename _Predicate>
 528:c:\programdata\chocolatey\lib\gcc-arm-embedded\tools\gcc-arm-none-eabi-10-2020-q4-major\arm-none-eabi\include\c++\10.2.1\bits\stl_algo.h ****     _GLIBCXX20_CONSTEXPR
 529:c:\programdata\chocolatey\lib\gcc-arm-embedded\tools\gcc-arm-none-eabi-10-2020-q4-major\arm-none-eabi\include\c++\10.2.1\bits\stl_algo.h ****     inline bool
 530:c:\programdata\chocolatey\lib\gcc-arm-embedded\tools\gcc-arm-none-eabi-10-2020-q4-major\arm-none-eabi\include\c++\10.2.1\bits\stl_algo.h ****     is_partitioned(_InputIterator __first, _InputIterator __last,
 531:c:\programdata\chocolatey\lib\gcc-arm-embedded\tools\gcc-arm-none-eabi-10-2020-q4-major\arm-none-eabi\include\c++\10.2.1\bits\stl_algo.h **** 		   _Predicate __pred)
 532:c:\programdata\chocolatey\lib\gcc-arm-embedded\tools\gcc-arm-none-eabi-10-2020-q4-major\arm-none-eabi\include\c++\10.2.1\bits\stl_algo.h ****     {
ARM GAS  C:\Users\daniel\AppData\Local\Temp\ccXSGLh5.s 			page 32


 533:c:\programdata\chocolatey\lib\gcc-arm-embedded\tools\gcc-arm-none-eabi-10-2020-q4-major\arm-none-eabi\include\c++\10.2.1\bits\stl_algo.h ****       __first = std::find_if_not(__first, __last, __pred);
 534:c:\programdata\chocolatey\lib\gcc-arm-embedded\tools\gcc-arm-none-eabi-10-2020-q4-major\arm-none-eabi\include\c++\10.2.1\bits\stl_algo.h ****       if (__first == __last)
 535:c:\programdata\chocolatey\lib\gcc-arm-embedded\tools\gcc-arm-none-eabi-10-2020-q4-major\arm-none-eabi\include\c++\10.2.1\bits\stl_algo.h **** 	return true;
 536:c:\programdata\chocolatey\lib\gcc-arm-embedded\tools\gcc-arm-none-eabi-10-2020-q4-major\arm-none-eabi\include\c++\10.2.1\bits\stl_algo.h ****       ++__first;
 537:c:\programdata\chocolatey\lib\gcc-arm-embedded\tools\gcc-arm-none-eabi-10-2020-q4-major\arm-none-eabi\include\c++\10.2.1\bits\stl_algo.h ****       return std::none_of(__first, __last, __pred);
 538:c:\programdata\chocolatey\lib\gcc-arm-embedded\tools\gcc-arm-none-eabi-10-2020-q4-major\arm-none-eabi\include\c++\10.2.1\bits\stl_algo.h ****     }
 539:c:\programdata\chocolatey\lib\gcc-arm-embedded\tools\gcc-arm-none-eabi-10-2020-q4-major\arm-none-eabi\include\c++\10.2.1\bits\stl_algo.h **** 
 540:c:\programdata\chocolatey\lib\gcc-arm-embedded\tools\gcc-arm-none-eabi-10-2020-q4-major\arm-none-eabi\include\c++\10.2.1\bits\stl_algo.h ****   /**
 541:c:\programdata\chocolatey\lib\gcc-arm-embedded\tools\gcc-arm-none-eabi-10-2020-q4-major\arm-none-eabi\include\c++\10.2.1\bits\stl_algo.h ****    *  @brief  Find the partition point of a partitioned range.
 542:c:\programdata\chocolatey\lib\gcc-arm-embedded\tools\gcc-arm-none-eabi-10-2020-q4-major\arm-none-eabi\include\c++\10.2.1\bits\stl_algo.h ****    *  @ingroup mutating_algorithms
 543:c:\programdata\chocolatey\lib\gcc-arm-embedded\tools\gcc-arm-none-eabi-10-2020-q4-major\arm-none-eabi\include\c++\10.2.1\bits\stl_algo.h ****    *  @param  __first   An iterator.
 544:c:\programdata\chocolatey\lib\gcc-arm-embedded\tools\gcc-arm-none-eabi-10-2020-q4-major\arm-none-eabi\include\c++\10.2.1\bits\stl_algo.h ****    *  @param  __last    Another iterator.
 545:c:\programdata\chocolatey\lib\gcc-arm-embedded\tools\gcc-arm-none-eabi-10-2020-q4-major\arm-none-eabi\include\c++\10.2.1\bits\stl_algo.h ****    *  @param  __pred    A predicate.
 546:c:\programdata\chocolatey\lib\gcc-arm-embedded\tools\gcc-arm-none-eabi-10-2020-q4-major\arm-none-eabi\include\c++\10.2.1\bits\stl_algo.h ****    *  @return  An iterator @p mid such that @p all_of(__first, mid, __pred)
 547:c:\programdata\chocolatey\lib\gcc-arm-embedded\tools\gcc-arm-none-eabi-10-2020-q4-major\arm-none-eabi\include\c++\10.2.1\bits\stl_algo.h ****    *           and @p none_of(mid, __last, __pred) are both true.
 548:c:\programdata\chocolatey\lib\gcc-arm-embedded\tools\gcc-arm-none-eabi-10-2020-q4-major\arm-none-eabi\include\c++\10.2.1\bits\stl_algo.h ****   */
 549:c:\programdata\chocolatey\lib\gcc-arm-embedded\tools\gcc-arm-none-eabi-10-2020-q4-major\arm-none-eabi\include\c++\10.2.1\bits\stl_algo.h ****   template<typename _ForwardIterator, typename _Predicate>
 550:c:\programdata\chocolatey\lib\gcc-arm-embedded\tools\gcc-arm-none-eabi-10-2020-q4-major\arm-none-eabi\include\c++\10.2.1\bits\stl_algo.h ****     _GLIBCXX20_CONSTEXPR
 551:c:\programdata\chocolatey\lib\gcc-arm-embedded\tools\gcc-arm-none-eabi-10-2020-q4-major\arm-none-eabi\include\c++\10.2.1\bits\stl_algo.h ****     _ForwardIterator
 552:c:\programdata\chocolatey\lib\gcc-arm-embedded\tools\gcc-arm-none-eabi-10-2020-q4-major\arm-none-eabi\include\c++\10.2.1\bits\stl_algo.h ****     partition_point(_ForwardIterator __first, _ForwardIterator __last,
 553:c:\programdata\chocolatey\lib\gcc-arm-embedded\tools\gcc-arm-none-eabi-10-2020-q4-major\arm-none-eabi\include\c++\10.2.1\bits\stl_algo.h **** 		    _Predicate __pred)
 554:c:\programdata\chocolatey\lib\gcc-arm-embedded\tools\gcc-arm-none-eabi-10-2020-q4-major\arm-none-eabi\include\c++\10.2.1\bits\stl_algo.h ****     {
 555:c:\programdata\chocolatey\lib\gcc-arm-embedded\tools\gcc-arm-none-eabi-10-2020-q4-major\arm-none-eabi\include\c++\10.2.1\bits\stl_algo.h ****       // concept requirements
 556:c:\programdata\chocolatey\lib\gcc-arm-embedded\tools\gcc-arm-none-eabi-10-2020-q4-major\arm-none-eabi\include\c++\10.2.1\bits\stl_algo.h ****       __glibcxx_function_requires(_ForwardIteratorConcept<_ForwardIterator>)
 557:c:\programdata\chocolatey\lib\gcc-arm-embedded\tools\gcc-arm-none-eabi-10-2020-q4-major\arm-none-eabi\include\c++\10.2.1\bits\stl_algo.h ****       __glibcxx_function_requires(_UnaryPredicateConcept<_Predicate,
 558:c:\programdata\chocolatey\lib\gcc-arm-embedded\tools\gcc-arm-none-eabi-10-2020-q4-major\arm-none-eabi\include\c++\10.2.1\bits\stl_algo.h **** 	      typename iterator_traits<_ForwardIterator>::value_type>)
 559:c:\programdata\chocolatey\lib\gcc-arm-embedded\tools\gcc-arm-none-eabi-10-2020-q4-major\arm-none-eabi\include\c++\10.2.1\bits\stl_algo.h **** 
 560:c:\programdata\chocolatey\lib\gcc-arm-embedded\tools\gcc-arm-none-eabi-10-2020-q4-major\arm-none-eabi\include\c++\10.2.1\bits\stl_algo.h ****       // A specific debug-mode test will be necessary...
 561:c:\programdata\chocolatey\lib\gcc-arm-embedded\tools\gcc-arm-none-eabi-10-2020-q4-major\arm-none-eabi\include\c++\10.2.1\bits\stl_algo.h ****       __glibcxx_requires_valid_range(__first, __last);
 562:c:\programdata\chocolatey\lib\gcc-arm-embedded\tools\gcc-arm-none-eabi-10-2020-q4-major\arm-none-eabi\include\c++\10.2.1\bits\stl_algo.h **** 
 563:c:\programdata\chocolatey\lib\gcc-arm-embedded\tools\gcc-arm-none-eabi-10-2020-q4-major\arm-none-eabi\include\c++\10.2.1\bits\stl_algo.h ****       typedef typename iterator_traits<_ForwardIterator>::difference_type
 564:c:\programdata\chocolatey\lib\gcc-arm-embedded\tools\gcc-arm-none-eabi-10-2020-q4-major\arm-none-eabi\include\c++\10.2.1\bits\stl_algo.h **** 	_DistanceType;
 565:c:\programdata\chocolatey\lib\gcc-arm-embedded\tools\gcc-arm-none-eabi-10-2020-q4-major\arm-none-eabi\include\c++\10.2.1\bits\stl_algo.h **** 
 566:c:\programdata\chocolatey\lib\gcc-arm-embedded\tools\gcc-arm-none-eabi-10-2020-q4-major\arm-none-eabi\include\c++\10.2.1\bits\stl_algo.h ****       _DistanceType __len = std::distance(__first, __last);
 567:c:\programdata\chocolatey\lib\gcc-arm-embedded\tools\gcc-arm-none-eabi-10-2020-q4-major\arm-none-eabi\include\c++\10.2.1\bits\stl_algo.h **** 
 568:c:\programdata\chocolatey\lib\gcc-arm-embedded\tools\gcc-arm-none-eabi-10-2020-q4-major\arm-none-eabi\include\c++\10.2.1\bits\stl_algo.h ****       while (__len > 0)
 569:c:\programdata\chocolatey\lib\gcc-arm-embedded\tools\gcc-arm-none-eabi-10-2020-q4-major\arm-none-eabi\include\c++\10.2.1\bits\stl_algo.h **** 	{
 570:c:\programdata\chocolatey\lib\gcc-arm-embedded\tools\gcc-arm-none-eabi-10-2020-q4-major\arm-none-eabi\include\c++\10.2.1\bits\stl_algo.h **** 	  _DistanceType __half = __len >> 1;
 571:c:\programdata\chocolatey\lib\gcc-arm-embedded\tools\gcc-arm-none-eabi-10-2020-q4-major\arm-none-eabi\include\c++\10.2.1\bits\stl_algo.h **** 	  _ForwardIterator __middle = __first;
 572:c:\programdata\chocolatey\lib\gcc-arm-embedded\tools\gcc-arm-none-eabi-10-2020-q4-major\arm-none-eabi\include\c++\10.2.1\bits\stl_algo.h **** 	  std::advance(__middle, __half);
 573:c:\programdata\chocolatey\lib\gcc-arm-embedded\tools\gcc-arm-none-eabi-10-2020-q4-major\arm-none-eabi\include\c++\10.2.1\bits\stl_algo.h **** 	  if (__pred(*__middle))
 574:c:\programdata\chocolatey\lib\gcc-arm-embedded\tools\gcc-arm-none-eabi-10-2020-q4-major\arm-none-eabi\include\c++\10.2.1\bits\stl_algo.h **** 	    {
 575:c:\programdata\chocolatey\lib\gcc-arm-embedded\tools\gcc-arm-none-eabi-10-2020-q4-major\arm-none-eabi\include\c++\10.2.1\bits\stl_algo.h **** 	      __first = __middle;
 576:c:\programdata\chocolatey\lib\gcc-arm-embedded\tools\gcc-arm-none-eabi-10-2020-q4-major\arm-none-eabi\include\c++\10.2.1\bits\stl_algo.h **** 	      ++__first;
 577:c:\programdata\chocolatey\lib\gcc-arm-embedded\tools\gcc-arm-none-eabi-10-2020-q4-major\arm-none-eabi\include\c++\10.2.1\bits\stl_algo.h **** 	      __len = __len - __half - 1;
 578:c:\programdata\chocolatey\lib\gcc-arm-embedded\tools\gcc-arm-none-eabi-10-2020-q4-major\arm-none-eabi\include\c++\10.2.1\bits\stl_algo.h **** 	    }
 579:c:\programdata\chocolatey\lib\gcc-arm-embedded\tools\gcc-arm-none-eabi-10-2020-q4-major\arm-none-eabi\include\c++\10.2.1\bits\stl_algo.h **** 	  else
 580:c:\programdata\chocolatey\lib\gcc-arm-embedded\tools\gcc-arm-none-eabi-10-2020-q4-major\arm-none-eabi\include\c++\10.2.1\bits\stl_algo.h **** 	    __len = __half;
 581:c:\programdata\chocolatey\lib\gcc-arm-embedded\tools\gcc-arm-none-eabi-10-2020-q4-major\arm-none-eabi\include\c++\10.2.1\bits\stl_algo.h **** 	}
 582:c:\programdata\chocolatey\lib\gcc-arm-embedded\tools\gcc-arm-none-eabi-10-2020-q4-major\arm-none-eabi\include\c++\10.2.1\bits\stl_algo.h ****       return __first;
 583:c:\programdata\chocolatey\lib\gcc-arm-embedded\tools\gcc-arm-none-eabi-10-2020-q4-major\arm-none-eabi\include\c++\10.2.1\bits\stl_algo.h ****     }
 584:c:\programdata\chocolatey\lib\gcc-arm-embedded\tools\gcc-arm-none-eabi-10-2020-q4-major\arm-none-eabi\include\c++\10.2.1\bits\stl_algo.h **** #endif
 585:c:\programdata\chocolatey\lib\gcc-arm-embedded\tools\gcc-arm-none-eabi-10-2020-q4-major\arm-none-eabi\include\c++\10.2.1\bits\stl_algo.h **** 
 586:c:\programdata\chocolatey\lib\gcc-arm-embedded\tools\gcc-arm-none-eabi-10-2020-q4-major\arm-none-eabi\include\c++\10.2.1\bits\stl_algo.h ****   template<typename _InputIterator, typename _OutputIterator,
 587:c:\programdata\chocolatey\lib\gcc-arm-embedded\tools\gcc-arm-none-eabi-10-2020-q4-major\arm-none-eabi\include\c++\10.2.1\bits\stl_algo.h **** 	   typename _Predicate>
 588:c:\programdata\chocolatey\lib\gcc-arm-embedded\tools\gcc-arm-none-eabi-10-2020-q4-major\arm-none-eabi\include\c++\10.2.1\bits\stl_algo.h ****     _GLIBCXX20_CONSTEXPR
 589:c:\programdata\chocolatey\lib\gcc-arm-embedded\tools\gcc-arm-none-eabi-10-2020-q4-major\arm-none-eabi\include\c++\10.2.1\bits\stl_algo.h ****     _OutputIterator
ARM GAS  C:\Users\daniel\AppData\Local\Temp\ccXSGLh5.s 			page 33


 590:c:\programdata\chocolatey\lib\gcc-arm-embedded\tools\gcc-arm-none-eabi-10-2020-q4-major\arm-none-eabi\include\c++\10.2.1\bits\stl_algo.h ****     __remove_copy_if(_InputIterator __first, _InputIterator __last,
 591:c:\programdata\chocolatey\lib\gcc-arm-embedded\tools\gcc-arm-none-eabi-10-2020-q4-major\arm-none-eabi\include\c++\10.2.1\bits\stl_algo.h **** 		     _OutputIterator __result, _Predicate __pred)
 592:c:\programdata\chocolatey\lib\gcc-arm-embedded\tools\gcc-arm-none-eabi-10-2020-q4-major\arm-none-eabi\include\c++\10.2.1\bits\stl_algo.h ****     {
 593:c:\programdata\chocolatey\lib\gcc-arm-embedded\tools\gcc-arm-none-eabi-10-2020-q4-major\arm-none-eabi\include\c++\10.2.1\bits\stl_algo.h ****       for (; __first != __last; ++__first)
 594:c:\programdata\chocolatey\lib\gcc-arm-embedded\tools\gcc-arm-none-eabi-10-2020-q4-major\arm-none-eabi\include\c++\10.2.1\bits\stl_algo.h **** 	if (!__pred(__first))
 595:c:\programdata\chocolatey\lib\gcc-arm-embedded\tools\gcc-arm-none-eabi-10-2020-q4-major\arm-none-eabi\include\c++\10.2.1\bits\stl_algo.h **** 	  {
 596:c:\programdata\chocolatey\lib\gcc-arm-embedded\tools\gcc-arm-none-eabi-10-2020-q4-major\arm-none-eabi\include\c++\10.2.1\bits\stl_algo.h **** 	    *__result = *__first;
 597:c:\programdata\chocolatey\lib\gcc-arm-embedded\tools\gcc-arm-none-eabi-10-2020-q4-major\arm-none-eabi\include\c++\10.2.1\bits\stl_algo.h **** 	    ++__result;
 598:c:\programdata\chocolatey\lib\gcc-arm-embedded\tools\gcc-arm-none-eabi-10-2020-q4-major\arm-none-eabi\include\c++\10.2.1\bits\stl_algo.h **** 	  }
 599:c:\programdata\chocolatey\lib\gcc-arm-embedded\tools\gcc-arm-none-eabi-10-2020-q4-major\arm-none-eabi\include\c++\10.2.1\bits\stl_algo.h ****       return __result;
 600:c:\programdata\chocolatey\lib\gcc-arm-embedded\tools\gcc-arm-none-eabi-10-2020-q4-major\arm-none-eabi\include\c++\10.2.1\bits\stl_algo.h ****     }
 601:c:\programdata\chocolatey\lib\gcc-arm-embedded\tools\gcc-arm-none-eabi-10-2020-q4-major\arm-none-eabi\include\c++\10.2.1\bits\stl_algo.h **** 
 602:c:\programdata\chocolatey\lib\gcc-arm-embedded\tools\gcc-arm-none-eabi-10-2020-q4-major\arm-none-eabi\include\c++\10.2.1\bits\stl_algo.h ****   /**
 603:c:\programdata\chocolatey\lib\gcc-arm-embedded\tools\gcc-arm-none-eabi-10-2020-q4-major\arm-none-eabi\include\c++\10.2.1\bits\stl_algo.h ****    *  @brief Copy a sequence, removing elements of a given value.
 604:c:\programdata\chocolatey\lib\gcc-arm-embedded\tools\gcc-arm-none-eabi-10-2020-q4-major\arm-none-eabi\include\c++\10.2.1\bits\stl_algo.h ****    *  @ingroup mutating_algorithms
 605:c:\programdata\chocolatey\lib\gcc-arm-embedded\tools\gcc-arm-none-eabi-10-2020-q4-major\arm-none-eabi\include\c++\10.2.1\bits\stl_algo.h ****    *  @param  __first   An input iterator.
 606:c:\programdata\chocolatey\lib\gcc-arm-embedded\tools\gcc-arm-none-eabi-10-2020-q4-major\arm-none-eabi\include\c++\10.2.1\bits\stl_algo.h ****    *  @param  __last    An input iterator.
 607:c:\programdata\chocolatey\lib\gcc-arm-embedded\tools\gcc-arm-none-eabi-10-2020-q4-major\arm-none-eabi\include\c++\10.2.1\bits\stl_algo.h ****    *  @param  __result  An output iterator.
 608:c:\programdata\chocolatey\lib\gcc-arm-embedded\tools\gcc-arm-none-eabi-10-2020-q4-major\arm-none-eabi\include\c++\10.2.1\bits\stl_algo.h ****    *  @param  __value   The value to be removed.
 609:c:\programdata\chocolatey\lib\gcc-arm-embedded\tools\gcc-arm-none-eabi-10-2020-q4-major\arm-none-eabi\include\c++\10.2.1\bits\stl_algo.h ****    *  @return   An iterator designating the end of the resulting sequence.
 610:c:\programdata\chocolatey\lib\gcc-arm-embedded\tools\gcc-arm-none-eabi-10-2020-q4-major\arm-none-eabi\include\c++\10.2.1\bits\stl_algo.h ****    *
 611:c:\programdata\chocolatey\lib\gcc-arm-embedded\tools\gcc-arm-none-eabi-10-2020-q4-major\arm-none-eabi\include\c++\10.2.1\bits\stl_algo.h ****    *  Copies each element in the range @p [__first,__last) not equal
 612:c:\programdata\chocolatey\lib\gcc-arm-embedded\tools\gcc-arm-none-eabi-10-2020-q4-major\arm-none-eabi\include\c++\10.2.1\bits\stl_algo.h ****    *  to @p __value to the range beginning at @p __result.
 613:c:\programdata\chocolatey\lib\gcc-arm-embedded\tools\gcc-arm-none-eabi-10-2020-q4-major\arm-none-eabi\include\c++\10.2.1\bits\stl_algo.h ****    *  remove_copy() is stable, so the relative order of elements that
 614:c:\programdata\chocolatey\lib\gcc-arm-embedded\tools\gcc-arm-none-eabi-10-2020-q4-major\arm-none-eabi\include\c++\10.2.1\bits\stl_algo.h ****    *  are copied is unchanged.
 615:c:\programdata\chocolatey\lib\gcc-arm-embedded\tools\gcc-arm-none-eabi-10-2020-q4-major\arm-none-eabi\include\c++\10.2.1\bits\stl_algo.h ****   */
 616:c:\programdata\chocolatey\lib\gcc-arm-embedded\tools\gcc-arm-none-eabi-10-2020-q4-major\arm-none-eabi\include\c++\10.2.1\bits\stl_algo.h ****   template<typename _InputIterator, typename _OutputIterator, typename _Tp>
 617:c:\programdata\chocolatey\lib\gcc-arm-embedded\tools\gcc-arm-none-eabi-10-2020-q4-major\arm-none-eabi\include\c++\10.2.1\bits\stl_algo.h ****     _GLIBCXX20_CONSTEXPR
 618:c:\programdata\chocolatey\lib\gcc-arm-embedded\tools\gcc-arm-none-eabi-10-2020-q4-major\arm-none-eabi\include\c++\10.2.1\bits\stl_algo.h ****     inline _OutputIterator
 619:c:\programdata\chocolatey\lib\gcc-arm-embedded\tools\gcc-arm-none-eabi-10-2020-q4-major\arm-none-eabi\include\c++\10.2.1\bits\stl_algo.h ****     remove_copy(_InputIterator __first, _InputIterator __last,
 620:c:\programdata\chocolatey\lib\gcc-arm-embedded\tools\gcc-arm-none-eabi-10-2020-q4-major\arm-none-eabi\include\c++\10.2.1\bits\stl_algo.h **** 		_OutputIterator __result, const _Tp& __value)
 621:c:\programdata\chocolatey\lib\gcc-arm-embedded\tools\gcc-arm-none-eabi-10-2020-q4-major\arm-none-eabi\include\c++\10.2.1\bits\stl_algo.h ****     {
 622:c:\programdata\chocolatey\lib\gcc-arm-embedded\tools\gcc-arm-none-eabi-10-2020-q4-major\arm-none-eabi\include\c++\10.2.1\bits\stl_algo.h ****       // concept requirements
 623:c:\programdata\chocolatey\lib\gcc-arm-embedded\tools\gcc-arm-none-eabi-10-2020-q4-major\arm-none-eabi\include\c++\10.2.1\bits\stl_algo.h ****       __glibcxx_function_requires(_InputIteratorConcept<_InputIterator>)
 624:c:\programdata\chocolatey\lib\gcc-arm-embedded\tools\gcc-arm-none-eabi-10-2020-q4-major\arm-none-eabi\include\c++\10.2.1\bits\stl_algo.h ****       __glibcxx_function_requires(_OutputIteratorConcept<_OutputIterator,
 625:c:\programdata\chocolatey\lib\gcc-arm-embedded\tools\gcc-arm-none-eabi-10-2020-q4-major\arm-none-eabi\include\c++\10.2.1\bits\stl_algo.h **** 	    typename iterator_traits<_InputIterator>::value_type>)
 626:c:\programdata\chocolatey\lib\gcc-arm-embedded\tools\gcc-arm-none-eabi-10-2020-q4-major\arm-none-eabi\include\c++\10.2.1\bits\stl_algo.h ****       __glibcxx_function_requires(_EqualOpConcept<
 627:c:\programdata\chocolatey\lib\gcc-arm-embedded\tools\gcc-arm-none-eabi-10-2020-q4-major\arm-none-eabi\include\c++\10.2.1\bits\stl_algo.h **** 	    typename iterator_traits<_InputIterator>::value_type, _Tp>)
 628:c:\programdata\chocolatey\lib\gcc-arm-embedded\tools\gcc-arm-none-eabi-10-2020-q4-major\arm-none-eabi\include\c++\10.2.1\bits\stl_algo.h ****       __glibcxx_requires_valid_range(__first, __last);
 629:c:\programdata\chocolatey\lib\gcc-arm-embedded\tools\gcc-arm-none-eabi-10-2020-q4-major\arm-none-eabi\include\c++\10.2.1\bits\stl_algo.h **** 
 630:c:\programdata\chocolatey\lib\gcc-arm-embedded\tools\gcc-arm-none-eabi-10-2020-q4-major\arm-none-eabi\include\c++\10.2.1\bits\stl_algo.h ****       return std::__remove_copy_if(__first, __last, __result,
 631:c:\programdata\chocolatey\lib\gcc-arm-embedded\tools\gcc-arm-none-eabi-10-2020-q4-major\arm-none-eabi\include\c++\10.2.1\bits\stl_algo.h **** 	__gnu_cxx::__ops::__iter_equals_val(__value));
 632:c:\programdata\chocolatey\lib\gcc-arm-embedded\tools\gcc-arm-none-eabi-10-2020-q4-major\arm-none-eabi\include\c++\10.2.1\bits\stl_algo.h ****     }
 633:c:\programdata\chocolatey\lib\gcc-arm-embedded\tools\gcc-arm-none-eabi-10-2020-q4-major\arm-none-eabi\include\c++\10.2.1\bits\stl_algo.h **** 
 634:c:\programdata\chocolatey\lib\gcc-arm-embedded\tools\gcc-arm-none-eabi-10-2020-q4-major\arm-none-eabi\include\c++\10.2.1\bits\stl_algo.h ****   /**
 635:c:\programdata\chocolatey\lib\gcc-arm-embedded\tools\gcc-arm-none-eabi-10-2020-q4-major\arm-none-eabi\include\c++\10.2.1\bits\stl_algo.h ****    *  @brief Copy a sequence, removing elements for which a predicate is true.
 636:c:\programdata\chocolatey\lib\gcc-arm-embedded\tools\gcc-arm-none-eabi-10-2020-q4-major\arm-none-eabi\include\c++\10.2.1\bits\stl_algo.h ****    *  @ingroup mutating_algorithms
 637:c:\programdata\chocolatey\lib\gcc-arm-embedded\tools\gcc-arm-none-eabi-10-2020-q4-major\arm-none-eabi\include\c++\10.2.1\bits\stl_algo.h ****    *  @param  __first   An input iterator.
 638:c:\programdata\chocolatey\lib\gcc-arm-embedded\tools\gcc-arm-none-eabi-10-2020-q4-major\arm-none-eabi\include\c++\10.2.1\bits\stl_algo.h ****    *  @param  __last    An input iterator.
 639:c:\programdata\chocolatey\lib\gcc-arm-embedded\tools\gcc-arm-none-eabi-10-2020-q4-major\arm-none-eabi\include\c++\10.2.1\bits\stl_algo.h ****    *  @param  __result  An output iterator.
 640:c:\programdata\chocolatey\lib\gcc-arm-embedded\tools\gcc-arm-none-eabi-10-2020-q4-major\arm-none-eabi\include\c++\10.2.1\bits\stl_algo.h ****    *  @param  __pred    A predicate.
 641:c:\programdata\chocolatey\lib\gcc-arm-embedded\tools\gcc-arm-none-eabi-10-2020-q4-major\arm-none-eabi\include\c++\10.2.1\bits\stl_algo.h ****    *  @return   An iterator designating the end of the resulting sequence.
 642:c:\programdata\chocolatey\lib\gcc-arm-embedded\tools\gcc-arm-none-eabi-10-2020-q4-major\arm-none-eabi\include\c++\10.2.1\bits\stl_algo.h ****    *
 643:c:\programdata\chocolatey\lib\gcc-arm-embedded\tools\gcc-arm-none-eabi-10-2020-q4-major\arm-none-eabi\include\c++\10.2.1\bits\stl_algo.h ****    *  Copies each element in the range @p [__first,__last) for which
 644:c:\programdata\chocolatey\lib\gcc-arm-embedded\tools\gcc-arm-none-eabi-10-2020-q4-major\arm-none-eabi\include\c++\10.2.1\bits\stl_algo.h ****    *  @p __pred returns false to the range beginning at @p __result.
 645:c:\programdata\chocolatey\lib\gcc-arm-embedded\tools\gcc-arm-none-eabi-10-2020-q4-major\arm-none-eabi\include\c++\10.2.1\bits\stl_algo.h ****    *
 646:c:\programdata\chocolatey\lib\gcc-arm-embedded\tools\gcc-arm-none-eabi-10-2020-q4-major\arm-none-eabi\include\c++\10.2.1\bits\stl_algo.h ****    *  remove_copy_if() is stable, so the relative order of elements that are
ARM GAS  C:\Users\daniel\AppData\Local\Temp\ccXSGLh5.s 			page 34


 647:c:\programdata\chocolatey\lib\gcc-arm-embedded\tools\gcc-arm-none-eabi-10-2020-q4-major\arm-none-eabi\include\c++\10.2.1\bits\stl_algo.h ****    *  copied is unchanged.
 648:c:\programdata\chocolatey\lib\gcc-arm-embedded\tools\gcc-arm-none-eabi-10-2020-q4-major\arm-none-eabi\include\c++\10.2.1\bits\stl_algo.h ****   */
 649:c:\programdata\chocolatey\lib\gcc-arm-embedded\tools\gcc-arm-none-eabi-10-2020-q4-major\arm-none-eabi\include\c++\10.2.1\bits\stl_algo.h ****   template<typename _InputIterator, typename _OutputIterator,
 650:c:\programdata\chocolatey\lib\gcc-arm-embedded\tools\gcc-arm-none-eabi-10-2020-q4-major\arm-none-eabi\include\c++\10.2.1\bits\stl_algo.h **** 	   typename _Predicate>
 651:c:\programdata\chocolatey\lib\gcc-arm-embedded\tools\gcc-arm-none-eabi-10-2020-q4-major\arm-none-eabi\include\c++\10.2.1\bits\stl_algo.h ****     _GLIBCXX20_CONSTEXPR
 652:c:\programdata\chocolatey\lib\gcc-arm-embedded\tools\gcc-arm-none-eabi-10-2020-q4-major\arm-none-eabi\include\c++\10.2.1\bits\stl_algo.h ****     inline _OutputIterator
 653:c:\programdata\chocolatey\lib\gcc-arm-embedded\tools\gcc-arm-none-eabi-10-2020-q4-major\arm-none-eabi\include\c++\10.2.1\bits\stl_algo.h ****     remove_copy_if(_InputIterator __first, _InputIterator __last,
 654:c:\programdata\chocolatey\lib\gcc-arm-embedded\tools\gcc-arm-none-eabi-10-2020-q4-major\arm-none-eabi\include\c++\10.2.1\bits\stl_algo.h **** 		   _OutputIterator __result, _Predicate __pred)
 655:c:\programdata\chocolatey\lib\gcc-arm-embedded\tools\gcc-arm-none-eabi-10-2020-q4-major\arm-none-eabi\include\c++\10.2.1\bits\stl_algo.h ****     {
 656:c:\programdata\chocolatey\lib\gcc-arm-embedded\tools\gcc-arm-none-eabi-10-2020-q4-major\arm-none-eabi\include\c++\10.2.1\bits\stl_algo.h ****       // concept requirements
 657:c:\programdata\chocolatey\lib\gcc-arm-embedded\tools\gcc-arm-none-eabi-10-2020-q4-major\arm-none-eabi\include\c++\10.2.1\bits\stl_algo.h ****       __glibcxx_function_requires(_InputIteratorConcept<_InputIterator>)
 658:c:\programdata\chocolatey\lib\gcc-arm-embedded\tools\gcc-arm-none-eabi-10-2020-q4-major\arm-none-eabi\include\c++\10.2.1\bits\stl_algo.h ****       __glibcxx_function_requires(_OutputIteratorConcept<_OutputIterator,
 659:c:\programdata\chocolatey\lib\gcc-arm-embedded\tools\gcc-arm-none-eabi-10-2020-q4-major\arm-none-eabi\include\c++\10.2.1\bits\stl_algo.h **** 	    typename iterator_traits<_InputIterator>::value_type>)
 660:c:\programdata\chocolatey\lib\gcc-arm-embedded\tools\gcc-arm-none-eabi-10-2020-q4-major\arm-none-eabi\include\c++\10.2.1\bits\stl_algo.h ****       __glibcxx_function_requires(_UnaryPredicateConcept<_Predicate,
 661:c:\programdata\chocolatey\lib\gcc-arm-embedded\tools\gcc-arm-none-eabi-10-2020-q4-major\arm-none-eabi\include\c++\10.2.1\bits\stl_algo.h **** 	    typename iterator_traits<_InputIterator>::value_type>)
 662:c:\programdata\chocolatey\lib\gcc-arm-embedded\tools\gcc-arm-none-eabi-10-2020-q4-major\arm-none-eabi\include\c++\10.2.1\bits\stl_algo.h ****       __glibcxx_requires_valid_range(__first, __last);
 663:c:\programdata\chocolatey\lib\gcc-arm-embedded\tools\gcc-arm-none-eabi-10-2020-q4-major\arm-none-eabi\include\c++\10.2.1\bits\stl_algo.h **** 
 664:c:\programdata\chocolatey\lib\gcc-arm-embedded\tools\gcc-arm-none-eabi-10-2020-q4-major\arm-none-eabi\include\c++\10.2.1\bits\stl_algo.h ****       return std::__remove_copy_if(__first, __last, __result,
 665:c:\programdata\chocolatey\lib\gcc-arm-embedded\tools\gcc-arm-none-eabi-10-2020-q4-major\arm-none-eabi\include\c++\10.2.1\bits\stl_algo.h **** 				   __gnu_cxx::__ops::__pred_iter(__pred));
 666:c:\programdata\chocolatey\lib\gcc-arm-embedded\tools\gcc-arm-none-eabi-10-2020-q4-major\arm-none-eabi\include\c++\10.2.1\bits\stl_algo.h ****     }
 667:c:\programdata\chocolatey\lib\gcc-arm-embedded\tools\gcc-arm-none-eabi-10-2020-q4-major\arm-none-eabi\include\c++\10.2.1\bits\stl_algo.h **** 
 668:c:\programdata\chocolatey\lib\gcc-arm-embedded\tools\gcc-arm-none-eabi-10-2020-q4-major\arm-none-eabi\include\c++\10.2.1\bits\stl_algo.h **** #if __cplusplus >= 201103L
 669:c:\programdata\chocolatey\lib\gcc-arm-embedded\tools\gcc-arm-none-eabi-10-2020-q4-major\arm-none-eabi\include\c++\10.2.1\bits\stl_algo.h ****   /**
 670:c:\programdata\chocolatey\lib\gcc-arm-embedded\tools\gcc-arm-none-eabi-10-2020-q4-major\arm-none-eabi\include\c++\10.2.1\bits\stl_algo.h ****    *  @brief Copy the elements of a sequence for which a predicate is true.
 671:c:\programdata\chocolatey\lib\gcc-arm-embedded\tools\gcc-arm-none-eabi-10-2020-q4-major\arm-none-eabi\include\c++\10.2.1\bits\stl_algo.h ****    *  @ingroup mutating_algorithms
 672:c:\programdata\chocolatey\lib\gcc-arm-embedded\tools\gcc-arm-none-eabi-10-2020-q4-major\arm-none-eabi\include\c++\10.2.1\bits\stl_algo.h ****    *  @param  __first   An input iterator.
 673:c:\programdata\chocolatey\lib\gcc-arm-embedded\tools\gcc-arm-none-eabi-10-2020-q4-major\arm-none-eabi\include\c++\10.2.1\bits\stl_algo.h ****    *  @param  __last    An input iterator.
 674:c:\programdata\chocolatey\lib\gcc-arm-embedded\tools\gcc-arm-none-eabi-10-2020-q4-major\arm-none-eabi\include\c++\10.2.1\bits\stl_algo.h ****    *  @param  __result  An output iterator.
 675:c:\programdata\chocolatey\lib\gcc-arm-embedded\tools\gcc-arm-none-eabi-10-2020-q4-major\arm-none-eabi\include\c++\10.2.1\bits\stl_algo.h ****    *  @param  __pred    A predicate.
 676:c:\programdata\chocolatey\lib\gcc-arm-embedded\tools\gcc-arm-none-eabi-10-2020-q4-major\arm-none-eabi\include\c++\10.2.1\bits\stl_algo.h ****    *  @return   An iterator designating the end of the resulting sequence.
 677:c:\programdata\chocolatey\lib\gcc-arm-embedded\tools\gcc-arm-none-eabi-10-2020-q4-major\arm-none-eabi\include\c++\10.2.1\bits\stl_algo.h ****    *
 678:c:\programdata\chocolatey\lib\gcc-arm-embedded\tools\gcc-arm-none-eabi-10-2020-q4-major\arm-none-eabi\include\c++\10.2.1\bits\stl_algo.h ****    *  Copies each element in the range @p [__first,__last) for which
 679:c:\programdata\chocolatey\lib\gcc-arm-embedded\tools\gcc-arm-none-eabi-10-2020-q4-major\arm-none-eabi\include\c++\10.2.1\bits\stl_algo.h ****    *  @p __pred returns true to the range beginning at @p __result.
 680:c:\programdata\chocolatey\lib\gcc-arm-embedded\tools\gcc-arm-none-eabi-10-2020-q4-major\arm-none-eabi\include\c++\10.2.1\bits\stl_algo.h ****    *
 681:c:\programdata\chocolatey\lib\gcc-arm-embedded\tools\gcc-arm-none-eabi-10-2020-q4-major\arm-none-eabi\include\c++\10.2.1\bits\stl_algo.h ****    *  copy_if() is stable, so the relative order of elements that are
 682:c:\programdata\chocolatey\lib\gcc-arm-embedded\tools\gcc-arm-none-eabi-10-2020-q4-major\arm-none-eabi\include\c++\10.2.1\bits\stl_algo.h ****    *  copied is unchanged.
 683:c:\programdata\chocolatey\lib\gcc-arm-embedded\tools\gcc-arm-none-eabi-10-2020-q4-major\arm-none-eabi\include\c++\10.2.1\bits\stl_algo.h ****   */
 684:c:\programdata\chocolatey\lib\gcc-arm-embedded\tools\gcc-arm-none-eabi-10-2020-q4-major\arm-none-eabi\include\c++\10.2.1\bits\stl_algo.h ****   template<typename _InputIterator, typename _OutputIterator,
 685:c:\programdata\chocolatey\lib\gcc-arm-embedded\tools\gcc-arm-none-eabi-10-2020-q4-major\arm-none-eabi\include\c++\10.2.1\bits\stl_algo.h **** 	   typename _Predicate>
 686:c:\programdata\chocolatey\lib\gcc-arm-embedded\tools\gcc-arm-none-eabi-10-2020-q4-major\arm-none-eabi\include\c++\10.2.1\bits\stl_algo.h ****     _GLIBCXX20_CONSTEXPR
 687:c:\programdata\chocolatey\lib\gcc-arm-embedded\tools\gcc-arm-none-eabi-10-2020-q4-major\arm-none-eabi\include\c++\10.2.1\bits\stl_algo.h ****     _OutputIterator
 688:c:\programdata\chocolatey\lib\gcc-arm-embedded\tools\gcc-arm-none-eabi-10-2020-q4-major\arm-none-eabi\include\c++\10.2.1\bits\stl_algo.h ****     copy_if(_InputIterator __first, _InputIterator __last,
 689:c:\programdata\chocolatey\lib\gcc-arm-embedded\tools\gcc-arm-none-eabi-10-2020-q4-major\arm-none-eabi\include\c++\10.2.1\bits\stl_algo.h **** 	    _OutputIterator __result, _Predicate __pred)
 690:c:\programdata\chocolatey\lib\gcc-arm-embedded\tools\gcc-arm-none-eabi-10-2020-q4-major\arm-none-eabi\include\c++\10.2.1\bits\stl_algo.h ****     {
 691:c:\programdata\chocolatey\lib\gcc-arm-embedded\tools\gcc-arm-none-eabi-10-2020-q4-major\arm-none-eabi\include\c++\10.2.1\bits\stl_algo.h ****       // concept requirements
 692:c:\programdata\chocolatey\lib\gcc-arm-embedded\tools\gcc-arm-none-eabi-10-2020-q4-major\arm-none-eabi\include\c++\10.2.1\bits\stl_algo.h ****       __glibcxx_function_requires(_InputIteratorConcept<_InputIterator>)
 693:c:\programdata\chocolatey\lib\gcc-arm-embedded\tools\gcc-arm-none-eabi-10-2020-q4-major\arm-none-eabi\include\c++\10.2.1\bits\stl_algo.h ****       __glibcxx_function_requires(_OutputIteratorConcept<_OutputIterator,
 694:c:\programdata\chocolatey\lib\gcc-arm-embedded\tools\gcc-arm-none-eabi-10-2020-q4-major\arm-none-eabi\include\c++\10.2.1\bits\stl_algo.h **** 	    typename iterator_traits<_InputIterator>::value_type>)
 695:c:\programdata\chocolatey\lib\gcc-arm-embedded\tools\gcc-arm-none-eabi-10-2020-q4-major\arm-none-eabi\include\c++\10.2.1\bits\stl_algo.h ****       __glibcxx_function_requires(_UnaryPredicateConcept<_Predicate,
 696:c:\programdata\chocolatey\lib\gcc-arm-embedded\tools\gcc-arm-none-eabi-10-2020-q4-major\arm-none-eabi\include\c++\10.2.1\bits\stl_algo.h **** 	    typename iterator_traits<_InputIterator>::value_type>)
 697:c:\programdata\chocolatey\lib\gcc-arm-embedded\tools\gcc-arm-none-eabi-10-2020-q4-major\arm-none-eabi\include\c++\10.2.1\bits\stl_algo.h ****       __glibcxx_requires_valid_range(__first, __last);
 698:c:\programdata\chocolatey\lib\gcc-arm-embedded\tools\gcc-arm-none-eabi-10-2020-q4-major\arm-none-eabi\include\c++\10.2.1\bits\stl_algo.h **** 
 699:c:\programdata\chocolatey\lib\gcc-arm-embedded\tools\gcc-arm-none-eabi-10-2020-q4-major\arm-none-eabi\include\c++\10.2.1\bits\stl_algo.h ****       for (; __first != __last; ++__first)
 700:c:\programdata\chocolatey\lib\gcc-arm-embedded\tools\gcc-arm-none-eabi-10-2020-q4-major\arm-none-eabi\include\c++\10.2.1\bits\stl_algo.h **** 	if (__pred(*__first))
 701:c:\programdata\chocolatey\lib\gcc-arm-embedded\tools\gcc-arm-none-eabi-10-2020-q4-major\arm-none-eabi\include\c++\10.2.1\bits\stl_algo.h **** 	  {
 702:c:\programdata\chocolatey\lib\gcc-arm-embedded\tools\gcc-arm-none-eabi-10-2020-q4-major\arm-none-eabi\include\c++\10.2.1\bits\stl_algo.h **** 	    *__result = *__first;
 703:c:\programdata\chocolatey\lib\gcc-arm-embedded\tools\gcc-arm-none-eabi-10-2020-q4-major\arm-none-eabi\include\c++\10.2.1\bits\stl_algo.h **** 	    ++__result;
ARM GAS  C:\Users\daniel\AppData\Local\Temp\ccXSGLh5.s 			page 35


 704:c:\programdata\chocolatey\lib\gcc-arm-embedded\tools\gcc-arm-none-eabi-10-2020-q4-major\arm-none-eabi\include\c++\10.2.1\bits\stl_algo.h **** 	  }
 705:c:\programdata\chocolatey\lib\gcc-arm-embedded\tools\gcc-arm-none-eabi-10-2020-q4-major\arm-none-eabi\include\c++\10.2.1\bits\stl_algo.h ****       return __result;
 706:c:\programdata\chocolatey\lib\gcc-arm-embedded\tools\gcc-arm-none-eabi-10-2020-q4-major\arm-none-eabi\include\c++\10.2.1\bits\stl_algo.h ****     }
 707:c:\programdata\chocolatey\lib\gcc-arm-embedded\tools\gcc-arm-none-eabi-10-2020-q4-major\arm-none-eabi\include\c++\10.2.1\bits\stl_algo.h **** 
 708:c:\programdata\chocolatey\lib\gcc-arm-embedded\tools\gcc-arm-none-eabi-10-2020-q4-major\arm-none-eabi\include\c++\10.2.1\bits\stl_algo.h ****   template<typename _InputIterator, typename _Size, typename _OutputIterator>
 709:c:\programdata\chocolatey\lib\gcc-arm-embedded\tools\gcc-arm-none-eabi-10-2020-q4-major\arm-none-eabi\include\c++\10.2.1\bits\stl_algo.h ****     _GLIBCXX20_CONSTEXPR
 710:c:\programdata\chocolatey\lib\gcc-arm-embedded\tools\gcc-arm-none-eabi-10-2020-q4-major\arm-none-eabi\include\c++\10.2.1\bits\stl_algo.h ****     _OutputIterator
 711:c:\programdata\chocolatey\lib\gcc-arm-embedded\tools\gcc-arm-none-eabi-10-2020-q4-major\arm-none-eabi\include\c++\10.2.1\bits\stl_algo.h ****     __copy_n_a(_InputIterator __first, _Size __n, _OutputIterator __result)
 712:c:\programdata\chocolatey\lib\gcc-arm-embedded\tools\gcc-arm-none-eabi-10-2020-q4-major\arm-none-eabi\include\c++\10.2.1\bits\stl_algo.h ****     {
 713:c:\programdata\chocolatey\lib\gcc-arm-embedded\tools\gcc-arm-none-eabi-10-2020-q4-major\arm-none-eabi\include\c++\10.2.1\bits\stl_algo.h ****       if (__n > 0)
 714:c:\programdata\chocolatey\lib\gcc-arm-embedded\tools\gcc-arm-none-eabi-10-2020-q4-major\arm-none-eabi\include\c++\10.2.1\bits\stl_algo.h **** 	{
 715:c:\programdata\chocolatey\lib\gcc-arm-embedded\tools\gcc-arm-none-eabi-10-2020-q4-major\arm-none-eabi\include\c++\10.2.1\bits\stl_algo.h **** 	  while (true)
 716:c:\programdata\chocolatey\lib\gcc-arm-embedded\tools\gcc-arm-none-eabi-10-2020-q4-major\arm-none-eabi\include\c++\10.2.1\bits\stl_algo.h **** 	    {
 717:c:\programdata\chocolatey\lib\gcc-arm-embedded\tools\gcc-arm-none-eabi-10-2020-q4-major\arm-none-eabi\include\c++\10.2.1\bits\stl_algo.h **** 	      *__result = *__first;
 718:c:\programdata\chocolatey\lib\gcc-arm-embedded\tools\gcc-arm-none-eabi-10-2020-q4-major\arm-none-eabi\include\c++\10.2.1\bits\stl_algo.h **** 	      ++__result;
 719:c:\programdata\chocolatey\lib\gcc-arm-embedded\tools\gcc-arm-none-eabi-10-2020-q4-major\arm-none-eabi\include\c++\10.2.1\bits\stl_algo.h **** 	      if (--__n > 0)
 720:c:\programdata\chocolatey\lib\gcc-arm-embedded\tools\gcc-arm-none-eabi-10-2020-q4-major\arm-none-eabi\include\c++\10.2.1\bits\stl_algo.h **** 		++__first;
 721:c:\programdata\chocolatey\lib\gcc-arm-embedded\tools\gcc-arm-none-eabi-10-2020-q4-major\arm-none-eabi\include\c++\10.2.1\bits\stl_algo.h **** 	      else
 722:c:\programdata\chocolatey\lib\gcc-arm-embedded\tools\gcc-arm-none-eabi-10-2020-q4-major\arm-none-eabi\include\c++\10.2.1\bits\stl_algo.h **** 		break;
 723:c:\programdata\chocolatey\lib\gcc-arm-embedded\tools\gcc-arm-none-eabi-10-2020-q4-major\arm-none-eabi\include\c++\10.2.1\bits\stl_algo.h **** 	    }
 724:c:\programdata\chocolatey\lib\gcc-arm-embedded\tools\gcc-arm-none-eabi-10-2020-q4-major\arm-none-eabi\include\c++\10.2.1\bits\stl_algo.h **** 	}
 725:c:\programdata\chocolatey\lib\gcc-arm-embedded\tools\gcc-arm-none-eabi-10-2020-q4-major\arm-none-eabi\include\c++\10.2.1\bits\stl_algo.h ****       return __result;
 726:c:\programdata\chocolatey\lib\gcc-arm-embedded\tools\gcc-arm-none-eabi-10-2020-q4-major\arm-none-eabi\include\c++\10.2.1\bits\stl_algo.h ****     }
 727:c:\programdata\chocolatey\lib\gcc-arm-embedded\tools\gcc-arm-none-eabi-10-2020-q4-major\arm-none-eabi\include\c++\10.2.1\bits\stl_algo.h ****  
 728:c:\programdata\chocolatey\lib\gcc-arm-embedded\tools\gcc-arm-none-eabi-10-2020-q4-major\arm-none-eabi\include\c++\10.2.1\bits\stl_algo.h ****   template<typename _CharT, typename _Size>
 729:c:\programdata\chocolatey\lib\gcc-arm-embedded\tools\gcc-arm-none-eabi-10-2020-q4-major\arm-none-eabi\include\c++\10.2.1\bits\stl_algo.h ****     __enable_if_t<__is_char<_CharT>::__value, _CharT*>
 730:c:\programdata\chocolatey\lib\gcc-arm-embedded\tools\gcc-arm-none-eabi-10-2020-q4-major\arm-none-eabi\include\c++\10.2.1\bits\stl_algo.h ****     __copy_n_a(istreambuf_iterator<_CharT, char_traits<_CharT>>,
 731:c:\programdata\chocolatey\lib\gcc-arm-embedded\tools\gcc-arm-none-eabi-10-2020-q4-major\arm-none-eabi\include\c++\10.2.1\bits\stl_algo.h **** 	       _Size, _CharT*);
 732:c:\programdata\chocolatey\lib\gcc-arm-embedded\tools\gcc-arm-none-eabi-10-2020-q4-major\arm-none-eabi\include\c++\10.2.1\bits\stl_algo.h **** 
 733:c:\programdata\chocolatey\lib\gcc-arm-embedded\tools\gcc-arm-none-eabi-10-2020-q4-major\arm-none-eabi\include\c++\10.2.1\bits\stl_algo.h ****   template<typename _InputIterator, typename _Size, typename _OutputIterator>
 734:c:\programdata\chocolatey\lib\gcc-arm-embedded\tools\gcc-arm-none-eabi-10-2020-q4-major\arm-none-eabi\include\c++\10.2.1\bits\stl_algo.h ****     _GLIBCXX20_CONSTEXPR
 735:c:\programdata\chocolatey\lib\gcc-arm-embedded\tools\gcc-arm-none-eabi-10-2020-q4-major\arm-none-eabi\include\c++\10.2.1\bits\stl_algo.h ****     _OutputIterator
 736:c:\programdata\chocolatey\lib\gcc-arm-embedded\tools\gcc-arm-none-eabi-10-2020-q4-major\arm-none-eabi\include\c++\10.2.1\bits\stl_algo.h ****     __copy_n(_InputIterator __first, _Size __n,
 737:c:\programdata\chocolatey\lib\gcc-arm-embedded\tools\gcc-arm-none-eabi-10-2020-q4-major\arm-none-eabi\include\c++\10.2.1\bits\stl_algo.h **** 	     _OutputIterator __result, input_iterator_tag)
 738:c:\programdata\chocolatey\lib\gcc-arm-embedded\tools\gcc-arm-none-eabi-10-2020-q4-major\arm-none-eabi\include\c++\10.2.1\bits\stl_algo.h ****     {
 739:c:\programdata\chocolatey\lib\gcc-arm-embedded\tools\gcc-arm-none-eabi-10-2020-q4-major\arm-none-eabi\include\c++\10.2.1\bits\stl_algo.h ****       return std::__niter_wrap(__result,
 740:c:\programdata\chocolatey\lib\gcc-arm-embedded\tools\gcc-arm-none-eabi-10-2020-q4-major\arm-none-eabi\include\c++\10.2.1\bits\stl_algo.h **** 			       __copy_n_a(__first, __n,
 741:c:\programdata\chocolatey\lib\gcc-arm-embedded\tools\gcc-arm-none-eabi-10-2020-q4-major\arm-none-eabi\include\c++\10.2.1\bits\stl_algo.h **** 					  std::__niter_base(__result)));
 742:c:\programdata\chocolatey\lib\gcc-arm-embedded\tools\gcc-arm-none-eabi-10-2020-q4-major\arm-none-eabi\include\c++\10.2.1\bits\stl_algo.h ****     }
 743:c:\programdata\chocolatey\lib\gcc-arm-embedded\tools\gcc-arm-none-eabi-10-2020-q4-major\arm-none-eabi\include\c++\10.2.1\bits\stl_algo.h **** 
 744:c:\programdata\chocolatey\lib\gcc-arm-embedded\tools\gcc-arm-none-eabi-10-2020-q4-major\arm-none-eabi\include\c++\10.2.1\bits\stl_algo.h ****   template<typename _RandomAccessIterator, typename _Size,
 745:c:\programdata\chocolatey\lib\gcc-arm-embedded\tools\gcc-arm-none-eabi-10-2020-q4-major\arm-none-eabi\include\c++\10.2.1\bits\stl_algo.h **** 	   typename _OutputIterator>
 746:c:\programdata\chocolatey\lib\gcc-arm-embedded\tools\gcc-arm-none-eabi-10-2020-q4-major\arm-none-eabi\include\c++\10.2.1\bits\stl_algo.h ****     _GLIBCXX20_CONSTEXPR
 747:c:\programdata\chocolatey\lib\gcc-arm-embedded\tools\gcc-arm-none-eabi-10-2020-q4-major\arm-none-eabi\include\c++\10.2.1\bits\stl_algo.h ****     inline _OutputIterator
 748:c:\programdata\chocolatey\lib\gcc-arm-embedded\tools\gcc-arm-none-eabi-10-2020-q4-major\arm-none-eabi\include\c++\10.2.1\bits\stl_algo.h ****     __copy_n(_RandomAccessIterator __first, _Size __n,
 749:c:\programdata\chocolatey\lib\gcc-arm-embedded\tools\gcc-arm-none-eabi-10-2020-q4-major\arm-none-eabi\include\c++\10.2.1\bits\stl_algo.h **** 	     _OutputIterator __result, random_access_iterator_tag)
 750:c:\programdata\chocolatey\lib\gcc-arm-embedded\tools\gcc-arm-none-eabi-10-2020-q4-major\arm-none-eabi\include\c++\10.2.1\bits\stl_algo.h ****     { return std::copy(__first, __first + __n, __result); }
 751:c:\programdata\chocolatey\lib\gcc-arm-embedded\tools\gcc-arm-none-eabi-10-2020-q4-major\arm-none-eabi\include\c++\10.2.1\bits\stl_algo.h **** 
 752:c:\programdata\chocolatey\lib\gcc-arm-embedded\tools\gcc-arm-none-eabi-10-2020-q4-major\arm-none-eabi\include\c++\10.2.1\bits\stl_algo.h ****   /**
 753:c:\programdata\chocolatey\lib\gcc-arm-embedded\tools\gcc-arm-none-eabi-10-2020-q4-major\arm-none-eabi\include\c++\10.2.1\bits\stl_algo.h ****    *  @brief Copies the range [first,first+n) into [result,result+n).
 754:c:\programdata\chocolatey\lib\gcc-arm-embedded\tools\gcc-arm-none-eabi-10-2020-q4-major\arm-none-eabi\include\c++\10.2.1\bits\stl_algo.h ****    *  @ingroup mutating_algorithms
 755:c:\programdata\chocolatey\lib\gcc-arm-embedded\tools\gcc-arm-none-eabi-10-2020-q4-major\arm-none-eabi\include\c++\10.2.1\bits\stl_algo.h ****    *  @param  __first  An input iterator.
 756:c:\programdata\chocolatey\lib\gcc-arm-embedded\tools\gcc-arm-none-eabi-10-2020-q4-major\arm-none-eabi\include\c++\10.2.1\bits\stl_algo.h ****    *  @param  __n      The number of elements to copy.
 757:c:\programdata\chocolatey\lib\gcc-arm-embedded\tools\gcc-arm-none-eabi-10-2020-q4-major\arm-none-eabi\include\c++\10.2.1\bits\stl_algo.h ****    *  @param  __result An output iterator.
 758:c:\programdata\chocolatey\lib\gcc-arm-embedded\tools\gcc-arm-none-eabi-10-2020-q4-major\arm-none-eabi\include\c++\10.2.1\bits\stl_algo.h ****    *  @return  result+n.
 759:c:\programdata\chocolatey\lib\gcc-arm-embedded\tools\gcc-arm-none-eabi-10-2020-q4-major\arm-none-eabi\include\c++\10.2.1\bits\stl_algo.h ****    *
 760:c:\programdata\chocolatey\lib\gcc-arm-embedded\tools\gcc-arm-none-eabi-10-2020-q4-major\arm-none-eabi\include\c++\10.2.1\bits\stl_algo.h ****    *  This inline function will boil down to a call to @c memmove whenever
ARM GAS  C:\Users\daniel\AppData\Local\Temp\ccXSGLh5.s 			page 36


 761:c:\programdata\chocolatey\lib\gcc-arm-embedded\tools\gcc-arm-none-eabi-10-2020-q4-major\arm-none-eabi\include\c++\10.2.1\bits\stl_algo.h ****    *  possible.  Failing that, if random access iterators are passed, then the
 762:c:\programdata\chocolatey\lib\gcc-arm-embedded\tools\gcc-arm-none-eabi-10-2020-q4-major\arm-none-eabi\include\c++\10.2.1\bits\stl_algo.h ****    *  loop count will be known (and therefore a candidate for compiler
 763:c:\programdata\chocolatey\lib\gcc-arm-embedded\tools\gcc-arm-none-eabi-10-2020-q4-major\arm-none-eabi\include\c++\10.2.1\bits\stl_algo.h ****    *  optimizations such as unrolling).
 764:c:\programdata\chocolatey\lib\gcc-arm-embedded\tools\gcc-arm-none-eabi-10-2020-q4-major\arm-none-eabi\include\c++\10.2.1\bits\stl_algo.h ****   */
 765:c:\programdata\chocolatey\lib\gcc-arm-embedded\tools\gcc-arm-none-eabi-10-2020-q4-major\arm-none-eabi\include\c++\10.2.1\bits\stl_algo.h ****   template<typename _InputIterator, typename _Size, typename _OutputIterator>
 766:c:\programdata\chocolatey\lib\gcc-arm-embedded\tools\gcc-arm-none-eabi-10-2020-q4-major\arm-none-eabi\include\c++\10.2.1\bits\stl_algo.h ****     _GLIBCXX20_CONSTEXPR
 767:c:\programdata\chocolatey\lib\gcc-arm-embedded\tools\gcc-arm-none-eabi-10-2020-q4-major\arm-none-eabi\include\c++\10.2.1\bits\stl_algo.h ****     inline _OutputIterator
 768:c:\programdata\chocolatey\lib\gcc-arm-embedded\tools\gcc-arm-none-eabi-10-2020-q4-major\arm-none-eabi\include\c++\10.2.1\bits\stl_algo.h ****     copy_n(_InputIterator __first, _Size __n, _OutputIterator __result)
 769:c:\programdata\chocolatey\lib\gcc-arm-embedded\tools\gcc-arm-none-eabi-10-2020-q4-major\arm-none-eabi\include\c++\10.2.1\bits\stl_algo.h ****     {
 770:c:\programdata\chocolatey\lib\gcc-arm-embedded\tools\gcc-arm-none-eabi-10-2020-q4-major\arm-none-eabi\include\c++\10.2.1\bits\stl_algo.h ****       // concept requirements
 771:c:\programdata\chocolatey\lib\gcc-arm-embedded\tools\gcc-arm-none-eabi-10-2020-q4-major\arm-none-eabi\include\c++\10.2.1\bits\stl_algo.h ****       __glibcxx_function_requires(_InputIteratorConcept<_InputIterator>)
 772:c:\programdata\chocolatey\lib\gcc-arm-embedded\tools\gcc-arm-none-eabi-10-2020-q4-major\arm-none-eabi\include\c++\10.2.1\bits\stl_algo.h ****       __glibcxx_function_requires(_OutputIteratorConcept<_OutputIterator,
 773:c:\programdata\chocolatey\lib\gcc-arm-embedded\tools\gcc-arm-none-eabi-10-2020-q4-major\arm-none-eabi\include\c++\10.2.1\bits\stl_algo.h **** 	    typename iterator_traits<_InputIterator>::value_type>)
 774:c:\programdata\chocolatey\lib\gcc-arm-embedded\tools\gcc-arm-none-eabi-10-2020-q4-major\arm-none-eabi\include\c++\10.2.1\bits\stl_algo.h ****       __glibcxx_requires_can_increment(__first, __n);
 775:c:\programdata\chocolatey\lib\gcc-arm-embedded\tools\gcc-arm-none-eabi-10-2020-q4-major\arm-none-eabi\include\c++\10.2.1\bits\stl_algo.h ****       __glibcxx_requires_can_increment(__result, __n);
 776:c:\programdata\chocolatey\lib\gcc-arm-embedded\tools\gcc-arm-none-eabi-10-2020-q4-major\arm-none-eabi\include\c++\10.2.1\bits\stl_algo.h **** 
 777:c:\programdata\chocolatey\lib\gcc-arm-embedded\tools\gcc-arm-none-eabi-10-2020-q4-major\arm-none-eabi\include\c++\10.2.1\bits\stl_algo.h ****       return std::__copy_n(__first, __n, __result,
 778:c:\programdata\chocolatey\lib\gcc-arm-embedded\tools\gcc-arm-none-eabi-10-2020-q4-major\arm-none-eabi\include\c++\10.2.1\bits\stl_algo.h **** 			   std::__iterator_category(__first));
 779:c:\programdata\chocolatey\lib\gcc-arm-embedded\tools\gcc-arm-none-eabi-10-2020-q4-major\arm-none-eabi\include\c++\10.2.1\bits\stl_algo.h ****     }
 780:c:\programdata\chocolatey\lib\gcc-arm-embedded\tools\gcc-arm-none-eabi-10-2020-q4-major\arm-none-eabi\include\c++\10.2.1\bits\stl_algo.h **** 
 781:c:\programdata\chocolatey\lib\gcc-arm-embedded\tools\gcc-arm-none-eabi-10-2020-q4-major\arm-none-eabi\include\c++\10.2.1\bits\stl_algo.h ****   /**
 782:c:\programdata\chocolatey\lib\gcc-arm-embedded\tools\gcc-arm-none-eabi-10-2020-q4-major\arm-none-eabi\include\c++\10.2.1\bits\stl_algo.h ****    *  @brief Copy the elements of a sequence to separate output sequences
 783:c:\programdata\chocolatey\lib\gcc-arm-embedded\tools\gcc-arm-none-eabi-10-2020-q4-major\arm-none-eabi\include\c++\10.2.1\bits\stl_algo.h ****    *         depending on the truth value of a predicate.
 784:c:\programdata\chocolatey\lib\gcc-arm-embedded\tools\gcc-arm-none-eabi-10-2020-q4-major\arm-none-eabi\include\c++\10.2.1\bits\stl_algo.h ****    *  @ingroup mutating_algorithms
 785:c:\programdata\chocolatey\lib\gcc-arm-embedded\tools\gcc-arm-none-eabi-10-2020-q4-major\arm-none-eabi\include\c++\10.2.1\bits\stl_algo.h ****    *  @param  __first   An input iterator.
 786:c:\programdata\chocolatey\lib\gcc-arm-embedded\tools\gcc-arm-none-eabi-10-2020-q4-major\arm-none-eabi\include\c++\10.2.1\bits\stl_algo.h ****    *  @param  __last    An input iterator.
 787:c:\programdata\chocolatey\lib\gcc-arm-embedded\tools\gcc-arm-none-eabi-10-2020-q4-major\arm-none-eabi\include\c++\10.2.1\bits\stl_algo.h ****    *  @param  __out_true   An output iterator.
 788:c:\programdata\chocolatey\lib\gcc-arm-embedded\tools\gcc-arm-none-eabi-10-2020-q4-major\arm-none-eabi\include\c++\10.2.1\bits\stl_algo.h ****    *  @param  __out_false  An output iterator.
 789:c:\programdata\chocolatey\lib\gcc-arm-embedded\tools\gcc-arm-none-eabi-10-2020-q4-major\arm-none-eabi\include\c++\10.2.1\bits\stl_algo.h ****    *  @param  __pred    A predicate.
 790:c:\programdata\chocolatey\lib\gcc-arm-embedded\tools\gcc-arm-none-eabi-10-2020-q4-major\arm-none-eabi\include\c++\10.2.1\bits\stl_algo.h ****    *  @return   A pair designating the ends of the resulting sequences.
 791:c:\programdata\chocolatey\lib\gcc-arm-embedded\tools\gcc-arm-none-eabi-10-2020-q4-major\arm-none-eabi\include\c++\10.2.1\bits\stl_algo.h ****    *
 792:c:\programdata\chocolatey\lib\gcc-arm-embedded\tools\gcc-arm-none-eabi-10-2020-q4-major\arm-none-eabi\include\c++\10.2.1\bits\stl_algo.h ****    *  Copies each element in the range @p [__first,__last) for which
 793:c:\programdata\chocolatey\lib\gcc-arm-embedded\tools\gcc-arm-none-eabi-10-2020-q4-major\arm-none-eabi\include\c++\10.2.1\bits\stl_algo.h ****    *  @p __pred returns true to the range beginning at @p out_true
