ARM GAS  C:\Users\daniel\AppData\Local\Temp\ccLc35Ca.s 			page 1


   1              		.cpu cortex-m7
   2              		.eabi_attribute 28, 1
   3              		.eabi_attribute 20, 1
   4              		.eabi_attribute 21, 1
   5              		.eabi_attribute 23, 3
   6              		.eabi_attribute 24, 1
   7              		.eabi_attribute 25, 1
   8              		.eabi_attribute 26, 1
   9              		.eabi_attribute 30, 4
  10              		.eabi_attribute 34, 1
  11              		.eabi_attribute 18, 4
  12              		.file	"torus.cpp"
  13              		.text
  14              	.Ltext0:
  15              		.cfi_sections	.debug_frame
  16              		.section	.text._ZN5torus4PartD2Ev,"axG",%progbits,_ZN5torus4PartD5Ev,comdat
  17              		.align	1
  18              		.weak	_ZN5torus4PartD2Ev
  19              		.arch armv7e-m
  20              		.syntax unified
  21              		.thumb
  22              		.thumb_func
  23              		.fpu fpv5-d16
  25              	_ZN5torus4PartD2Ev:
  26              	.LVL0:
  27              	.LFB1635:
  28              		.file 1 "dsp/part.h"
   1:dsp/part.h    **** // Copyright 2015 Emilie Gillet.
   2:dsp/part.h    **** //
   3:dsp/part.h    **** // Author: Emilie Gillet (emilie.o.gillet@gmail.com)
   4:dsp/part.h    **** //
   5:dsp/part.h    **** // Permission is hereby granted, free of charge, to any person obtaining a copy
   6:dsp/part.h    **** // of this software and associated documentation files (the "Software"), to deal
   7:dsp/part.h    **** // in the Software without restriction, including without limitation the rights
   8:dsp/part.h    **** // to use, copy, modify, merge, publish, distribute, sublicense, and/or sell
   9:dsp/part.h    **** // copies of the Software, and to permit persons to whom the Software is
  10:dsp/part.h    **** // furnished to do so, subject to the following conditions:
  11:dsp/part.h    **** //
  12:dsp/part.h    **** // The above copyright notice and this permission notice shall be included in
  13:dsp/part.h    **** // all copies or substantial portions of the Software.
  14:dsp/part.h    **** //
  15:dsp/part.h    **** // THE SOFTWARE IS PROVIDED "AS IS", WITHOUT WARRANTY OF ANY KIND, EXPRESS OR
  16:dsp/part.h    **** // IMPLIED, INCLUDING BUT NOT LIMITED TO THE WARRANTIES OF MERCHANTABILITY,
  17:dsp/part.h    **** // FITNESS FOR A PARTICULAR PURPOSE AND NONINFRINGEMENT. IN NO EVENT SHALL THE
  18:dsp/part.h    **** // AUTHORS OR COPYRIGHT HOLDERS BE LIABLE FOR ANY CLAIM, DAMAGES OR OTHER
  19:dsp/part.h    **** // LIABILITY, WHETHER IN AN ACTION OF CONTRACT, TORT OR OTHERWISE, ARISING FROM,
  20:dsp/part.h    **** // OUT OF OR IN CONNECTION WITH THE SOFTWARE OR THE USE OR OTHER DEALINGS IN
  21:dsp/part.h    **** // THE SOFTWARE.
  22:dsp/part.h    **** //
  23:dsp/part.h    **** // See http://creativecommons.org/licenses/MIT/ for more information.
  24:dsp/part.h    **** //
  25:dsp/part.h    **** // -----------------------------------------------------------------------------
  26:dsp/part.h    **** //
  27:dsp/part.h    **** // Group of voices.
  28:dsp/part.h    **** 
  29:dsp/part.h    **** #ifndef TORUS_DSP_PART_H_
  30:dsp/part.h    **** #define TORUS_DSP_PART_H_
ARM GAS  C:\Users\daniel\AppData\Local\Temp\ccLc35Ca.s 			page 2


  31:dsp/part.h    **** 
  32:dsp/part.h    **** #include <algorithm>
  33:dsp/part.h    **** 
  34:dsp/part.h    **** #include "stmlib/stmlib.h"
  35:dsp/part.h    **** #include "stmlib/dsp/cosine_oscillator.h"
  36:dsp/part.h    **** #include "stmlib/dsp/delay_line.h"
  37:dsp/part.h    **** 
  38:dsp/part.h    **** #include "dsp/dsp.h"
  39:dsp/part.h    **** #include "dsp/fm_voice.h"
  40:dsp/part.h    **** #include "dsp/fx/reverb.h"
  41:dsp/part.h    **** #include "dsp/limiter.h"
  42:dsp/part.h    **** #include "dsp/note_filter.h"
  43:dsp/part.h    **** #include "dsp/patch.h"
  44:dsp/part.h    **** #include "dsp/performance_state.h"
  45:dsp/part.h    **** #include "dsp/plucker.h"
  46:dsp/part.h    **** #include "dsp/resonator.h"
  47:dsp/part.h    **** #include "dsp/string.h"
  48:dsp/part.h    **** 
  49:dsp/part.h    **** namespace torus
  50:dsp/part.h    **** {
  51:dsp/part.h    **** enum ResonatorModel
  52:dsp/part.h    **** {
  53:dsp/part.h    ****     RESONATOR_MODEL_MODAL,
  54:dsp/part.h    ****     RESONATOR_MODEL_SYMPATHETIC_STRING,
  55:dsp/part.h    ****     RESONATOR_MODEL_STRING,
  56:dsp/part.h    **** 
  57:dsp/part.h    ****     // Bonus!
  58:dsp/part.h    ****     RESONATOR_MODEL_FM_VOICE,
  59:dsp/part.h    ****     RESONATOR_MODEL_SYMPATHETIC_STRING_QUANTIZED,
  60:dsp/part.h    ****     RESONATOR_MODEL_STRING_AND_REVERB,
  61:dsp/part.h    ****     RESONATOR_MODEL_LAST
  62:dsp/part.h    **** };
  63:dsp/part.h    **** 
  64:dsp/part.h    **** const int32_t kMaxPolyphony = 4;
  65:dsp/part.h    **** const int32_t kNumStrings   = kMaxPolyphony * 2;
  66:dsp/part.h    **** 
  67:dsp/part.h    **** class Part
  68:dsp/part.h    **** {
  69:dsp/part.h    ****   public:
  70:dsp/part.h    ****     Part() {}
  71:dsp/part.h    ****     ~Part() {}
  29              		.loc 1 71 5 view -0
  30              		.cfi_startproc
  31              		@ args = 0, pretend = 0, frame = 0
  32              		@ frame_needed = 0, uses_anonymous_args = 0
  33              		@ link register save eliminated.
  34              	.LBB1013:
  35              	.LBI1013:
  36              		.file 2 "./dsp/limiter.h"
   1:./dsp/limiter.h **** // Copyright 2015 Emilie Gillet.
   2:./dsp/limiter.h **** //
   3:./dsp/limiter.h **** // Author: Emilie Gillet (emilie.o.gillet@gmail.com)
   4:./dsp/limiter.h **** //
   5:./dsp/limiter.h **** // Permission is hereby granted, free of charge, to any person obtaining a copy
   6:./dsp/limiter.h **** // of this software and associated documentation files (the "Software"), to deal
   7:./dsp/limiter.h **** // in the Software without restriction, including without limitation the rights
   8:./dsp/limiter.h **** // to use, copy, modify, merge, publish, distribute, sublicense, and/or sell
ARM GAS  C:\Users\daniel\AppData\Local\Temp\ccLc35Ca.s 			page 3


   9:./dsp/limiter.h **** // copies of the Software, and to permit persons to whom the Software is
  10:./dsp/limiter.h **** // furnished to do so, subject to the following conditions:
  11:./dsp/limiter.h **** //
  12:./dsp/limiter.h **** // The above copyright notice and this permission notice shall be included in
  13:./dsp/limiter.h **** // all copies or substantial portions of the Software.
  14:./dsp/limiter.h **** //
  15:./dsp/limiter.h **** // THE SOFTWARE IS PROVIDED "AS IS", WITHOUT WARRANTY OF ANY KIND, EXPRESS OR
  16:./dsp/limiter.h **** // IMPLIED, INCLUDING BUT NOT LIMITED TO THE WARRANTIES OF MERCHANTABILITY,
  17:./dsp/limiter.h **** // FITNESS FOR A PARTICULAR PURPOSE AND NONINFRINGEMENT. IN NO EVENT SHALL THE
  18:./dsp/limiter.h **** // AUTHORS OR COPYRIGHT HOLDERS BE LIABLE FOR ANY CLAIM, DAMAGES OR OTHER
  19:./dsp/limiter.h **** // LIABILITY, WHETHER IN AN ACTION OF CONTRACT, TORT OR OTHERWISE, ARISING FROM,
  20:./dsp/limiter.h **** // OUT OF OR IN CONNECTION WITH THE SOFTWARE OR THE USE OR OTHER DEALINGS IN
  21:./dsp/limiter.h **** // THE SOFTWARE.
  22:./dsp/limiter.h **** //
  23:./dsp/limiter.h **** // See http://creativecommons.org/licenses/MIT/ for more information.
  24:./dsp/limiter.h **** //
  25:./dsp/limiter.h **** // -----------------------------------------------------------------------------
  26:./dsp/limiter.h **** //
  27:./dsp/limiter.h **** // Limiter.
  28:./dsp/limiter.h **** 
  29:./dsp/limiter.h **** #ifndef TORUS_DSP_LIMITER_H_
  30:./dsp/limiter.h **** #define TORUS_DSP_LIMITER_H_
  31:./dsp/limiter.h **** 
  32:./dsp/limiter.h **** #include "stmlib/stmlib.h"
  33:./dsp/limiter.h **** 
  34:./dsp/limiter.h **** #include <algorithm>
  35:./dsp/limiter.h **** 
  36:./dsp/limiter.h **** #include "stmlib/dsp/dsp.h"
  37:./dsp/limiter.h **** #include "stmlib/dsp/filter.h"
  38:./dsp/limiter.h **** 
  39:./dsp/limiter.h **** namespace torus
  40:./dsp/limiter.h **** {
  41:./dsp/limiter.h **** class Limiter
  42:./dsp/limiter.h **** {
  43:./dsp/limiter.h ****   public:
  44:./dsp/limiter.h ****     Limiter() {}
  45:./dsp/limiter.h ****     ~Limiter() {}
  37              		.loc 2 45 5 view .LVU1
  38              		.loc 2 45 5 is_stmt 0 view .LVU2
  39              	.LBE1013:
  40              	.LBB1014:
  41              	.LBI1014:
  42              		.file 3 "./dsp/fx/reverb.h"
   1:./dsp/fx/reverb.h **** // Copyright 2014 Emilie Gillet.
   2:./dsp/fx/reverb.h **** //
   3:./dsp/fx/reverb.h **** // Author: Emilie Gillet (emilie.o.gillet@gmail.com)
   4:./dsp/fx/reverb.h **** //
   5:./dsp/fx/reverb.h **** // Permission is hereby granted, free of charge, to any person obtaining a copy
   6:./dsp/fx/reverb.h **** // of this software and associated documentation files (the "Software"), to deal
   7:./dsp/fx/reverb.h **** // in the Software without restriction, including without limitation the rights
   8:./dsp/fx/reverb.h **** // to use, copy, modify, merge, publish, distribute, sublicense, and/or sell
   9:./dsp/fx/reverb.h **** // copies of the Software, and to permit persons to whom the Software is
  10:./dsp/fx/reverb.h **** // furnished to do so, subject to the following conditions:
  11:./dsp/fx/reverb.h **** //
  12:./dsp/fx/reverb.h **** // The above copyright notice and this permission notice shall be included in
  13:./dsp/fx/reverb.h **** // all copies or substantial portions of the Software.
  14:./dsp/fx/reverb.h **** //
ARM GAS  C:\Users\daniel\AppData\Local\Temp\ccLc35Ca.s 			page 4


  15:./dsp/fx/reverb.h **** // THE SOFTWARE IS PROVIDED "AS IS", WITHOUT WARRANTY OF ANY KIND, EXPRESS OR
  16:./dsp/fx/reverb.h **** // IMPLIED, INCLUDING BUT NOT LIMITED TO THE WARRANTIES OF MERCHANTABILITY,
  17:./dsp/fx/reverb.h **** // FITNESS FOR A PARTICULAR PURPOSE AND NONINFRINGEMENT. IN NO EVENT SHALL THE
  18:./dsp/fx/reverb.h **** // AUTHORS OR COPYRIGHT HOLDERS BE LIABLE FOR ANY CLAIM, DAMAGES OR OTHER
  19:./dsp/fx/reverb.h **** // LIABILITY, WHETHER IN AN ACTION OF CONTRACT, TORT OR OTHERWISE, ARISING FROM,
  20:./dsp/fx/reverb.h **** // OUT OF OR IN CONNECTION WITH THE SOFTWARE OR THE USE OR OTHER DEALINGS IN
  21:./dsp/fx/reverb.h **** // THE SOFTWARE.
  22:./dsp/fx/reverb.h **** //
  23:./dsp/fx/reverb.h **** // See http://creativecommons.org/licenses/MIT/ for more information.
  24:./dsp/fx/reverb.h **** //
  25:./dsp/fx/reverb.h **** // -----------------------------------------------------------------------------
  26:./dsp/fx/reverb.h **** //
  27:./dsp/fx/reverb.h **** // Reverb.
  28:./dsp/fx/reverb.h **** 
  29:./dsp/fx/reverb.h **** #ifndef TORUS_DSP_FX_REVERB_H_
  30:./dsp/fx/reverb.h **** #define TORUS_DSP_FX_REVERB_H_
  31:./dsp/fx/reverb.h **** 
  32:./dsp/fx/reverb.h **** #include "stmlib/stmlib.h"
  33:./dsp/fx/reverb.h **** 
  34:./dsp/fx/reverb.h **** #include "dsp/fx/fx_engine.h"
  35:./dsp/fx/reverb.h **** 
  36:./dsp/fx/reverb.h **** namespace torus
  37:./dsp/fx/reverb.h **** {
  38:./dsp/fx/reverb.h **** class Reverb
  39:./dsp/fx/reverb.h **** {
  40:./dsp/fx/reverb.h ****   public:
  41:./dsp/fx/reverb.h ****     Reverb() {}
  42:./dsp/fx/reverb.h ****     ~Reverb() {}
  43              		.loc 3 42 5 is_stmt 1 view .LVU3
  44              	.LBB1015:
  45              	.LBI1015:
  46              		.file 4 "./dsp/fx/fx_engine.h"
   1:./dsp/fx/fx_engine.h **** // Copyright 2014 Emilie Gillet.
   2:./dsp/fx/fx_engine.h **** //
   3:./dsp/fx/fx_engine.h **** // Author: Emilie Gillet (emilie.o.gillet@gmail.com)
   4:./dsp/fx/fx_engine.h **** //
   5:./dsp/fx/fx_engine.h **** // Permission is hereby granted, free of charge, to any person obtaining a copy
   6:./dsp/fx/fx_engine.h **** // of this software and associated documentation files (the "Software"), to deal
   7:./dsp/fx/fx_engine.h **** // in the Software without restriction, including without limitation the rights
   8:./dsp/fx/fx_engine.h **** // to use, copy, modify, merge, publish, distribute, sublicense, and/or sell
   9:./dsp/fx/fx_engine.h **** // copies of the Software, and to permit persons to whom the Software is
  10:./dsp/fx/fx_engine.h **** // furnished to do so, subject to the following conditions:
  11:./dsp/fx/fx_engine.h **** //
  12:./dsp/fx/fx_engine.h **** // The above copyright notice and this permission notice shall be included in
  13:./dsp/fx/fx_engine.h **** // all copies or substantial portions of the Software.
  14:./dsp/fx/fx_engine.h **** //
  15:./dsp/fx/fx_engine.h **** // THE SOFTWARE IS PROVIDED "AS IS", WITHOUT WARRANTY OF ANY KIND, EXPRESS OR
  16:./dsp/fx/fx_engine.h **** // IMPLIED, INCLUDING BUT NOT LIMITED TO THE WARRANTIES OF MERCHANTABILITY,
  17:./dsp/fx/fx_engine.h **** // FITNESS FOR A PARTICULAR PURPOSE AND NONINFRINGEMENT. IN NO EVENT SHALL THE
  18:./dsp/fx/fx_engine.h **** // AUTHORS OR COPYRIGHT HOLDERS BE LIABLE FOR ANY CLAIM, DAMAGES OR OTHER
  19:./dsp/fx/fx_engine.h **** // LIABILITY, WHETHER IN AN ACTION OF CONTRACT, TORT OR OTHERWISE, ARISING FROM,
  20:./dsp/fx/fx_engine.h **** // OUT OF OR IN CONNECTION WITH THE SOFTWARE OR THE USE OR OTHER DEALINGS IN
  21:./dsp/fx/fx_engine.h **** // THE SOFTWARE.
  22:./dsp/fx/fx_engine.h **** //
  23:./dsp/fx/fx_engine.h **** // See http://creativecommons.org/licenses/MIT/ for more information.
  24:./dsp/fx/fx_engine.h **** //
  25:./dsp/fx/fx_engine.h **** // -----------------------------------------------------------------------------
ARM GAS  C:\Users\daniel\AppData\Local\Temp\ccLc35Ca.s 			page 5


  26:./dsp/fx/fx_engine.h **** //
  27:./dsp/fx/fx_engine.h **** // Base class for building reverb.
  28:./dsp/fx/fx_engine.h **** 
  29:./dsp/fx/fx_engine.h **** #ifndef TORUS_DSP_FX_FX_ENGINE_H_
  30:./dsp/fx/fx_engine.h **** #define TORUS_DSP_FX_FX_ENGINE_H_
  31:./dsp/fx/fx_engine.h **** 
  32:./dsp/fx/fx_engine.h **** #include <algorithm>
  33:./dsp/fx/fx_engine.h **** 
  34:./dsp/fx/fx_engine.h **** #include "stmlib/stmlib.h"
  35:./dsp/fx/fx_engine.h **** 
  36:./dsp/fx/fx_engine.h **** #include "stmlib/dsp/dsp.h"
  37:./dsp/fx/fx_engine.h **** #include "stmlib/dsp/cosine_oscillator.h"
  38:./dsp/fx/fx_engine.h **** 
  39:./dsp/fx/fx_engine.h **** namespace torus
  40:./dsp/fx/fx_engine.h **** {
  41:./dsp/fx/fx_engine.h **** #define TAIL , -1
  42:./dsp/fx/fx_engine.h **** 
  43:./dsp/fx/fx_engine.h **** enum Format
  44:./dsp/fx/fx_engine.h **** {
  45:./dsp/fx/fx_engine.h ****     FORMAT_12_BIT,
  46:./dsp/fx/fx_engine.h ****     FORMAT_16_BIT,
  47:./dsp/fx/fx_engine.h ****     FORMAT_32_BIT
  48:./dsp/fx/fx_engine.h **** };
  49:./dsp/fx/fx_engine.h **** 
  50:./dsp/fx/fx_engine.h **** enum LFOIndex
  51:./dsp/fx/fx_engine.h **** {
  52:./dsp/fx/fx_engine.h ****     LFO_1,
  53:./dsp/fx/fx_engine.h ****     LFO_2
  54:./dsp/fx/fx_engine.h **** };
  55:./dsp/fx/fx_engine.h **** 
  56:./dsp/fx/fx_engine.h **** template <Format format>
  57:./dsp/fx/fx_engine.h **** struct DataType
  58:./dsp/fx/fx_engine.h **** {
  59:./dsp/fx/fx_engine.h **** };
  60:./dsp/fx/fx_engine.h **** 
  61:./dsp/fx/fx_engine.h **** template <>
  62:./dsp/fx/fx_engine.h **** struct DataType<FORMAT_12_BIT>
  63:./dsp/fx/fx_engine.h **** {
  64:./dsp/fx/fx_engine.h ****     typedef uint16_t T;
  65:./dsp/fx/fx_engine.h **** 
  66:./dsp/fx/fx_engine.h ****     static inline float Decompress(T value)
  67:./dsp/fx/fx_engine.h ****     {
  68:./dsp/fx/fx_engine.h ****         return static_cast<float>(static_cast<int16_t>(value)) / 4096.0f;
  69:./dsp/fx/fx_engine.h ****     }
  70:./dsp/fx/fx_engine.h **** 
  71:./dsp/fx/fx_engine.h ****     static inline T Compress(float value)
  72:./dsp/fx/fx_engine.h ****     {
  73:./dsp/fx/fx_engine.h ****         return static_cast<uint16_t>(
  74:./dsp/fx/fx_engine.h ****             stmlib::Clip16(static_cast<int32_t>(value * 4096.0f)));
  75:./dsp/fx/fx_engine.h ****     }
  76:./dsp/fx/fx_engine.h **** };
  77:./dsp/fx/fx_engine.h **** 
  78:./dsp/fx/fx_engine.h **** template <>
  79:./dsp/fx/fx_engine.h **** struct DataType<FORMAT_16_BIT>
  80:./dsp/fx/fx_engine.h **** {
  81:./dsp/fx/fx_engine.h ****     typedef uint16_t T;
  82:./dsp/fx/fx_engine.h **** 
ARM GAS  C:\Users\daniel\AppData\Local\Temp\ccLc35Ca.s 			page 6


  83:./dsp/fx/fx_engine.h ****     static inline float Decompress(T value)
  84:./dsp/fx/fx_engine.h ****     {
  85:./dsp/fx/fx_engine.h ****         return static_cast<float>(static_cast<int16_t>(value)) / 32768.0f;
  86:./dsp/fx/fx_engine.h ****     }
  87:./dsp/fx/fx_engine.h **** 
  88:./dsp/fx/fx_engine.h ****     static inline T Compress(float value)
  89:./dsp/fx/fx_engine.h ****     {
  90:./dsp/fx/fx_engine.h ****         return static_cast<uint16_t>(
  91:./dsp/fx/fx_engine.h ****             stmlib::Clip16(static_cast<int32_t>(value * 32768.0f)));
  92:./dsp/fx/fx_engine.h ****     }
  93:./dsp/fx/fx_engine.h **** };
  94:./dsp/fx/fx_engine.h **** 
  95:./dsp/fx/fx_engine.h **** template <>
  96:./dsp/fx/fx_engine.h **** struct DataType<FORMAT_32_BIT>
  97:./dsp/fx/fx_engine.h **** {
  98:./dsp/fx/fx_engine.h ****     typedef float T;
  99:./dsp/fx/fx_engine.h **** 
 100:./dsp/fx/fx_engine.h ****     static inline float Decompress(T value)
 101:./dsp/fx/fx_engine.h ****     {
 102:./dsp/fx/fx_engine.h ****         return value;
 103:./dsp/fx/fx_engine.h ****         ;
 104:./dsp/fx/fx_engine.h ****     }
 105:./dsp/fx/fx_engine.h **** 
 106:./dsp/fx/fx_engine.h ****     static inline T Compress(float value) { return value; }
 107:./dsp/fx/fx_engine.h **** };
 108:./dsp/fx/fx_engine.h **** 
 109:./dsp/fx/fx_engine.h **** template <size_t size, Format format = FORMAT_12_BIT>
 110:./dsp/fx/fx_engine.h **** class FxEngine
 111:./dsp/fx/fx_engine.h **** {
 112:./dsp/fx/fx_engine.h ****   public:
 113:./dsp/fx/fx_engine.h ****     typedef typename DataType<format>::T T;
 114:./dsp/fx/fx_engine.h ****     FxEngine() {}
 115:./dsp/fx/fx_engine.h ****     ~FxEngine() {}
  47              		.loc 4 115 5 view .LVU4
  48              		.loc 4 115 5 is_stmt 0 view .LVU5
  49              	.LBE1015:
  50              	.LBE1014:
  51              	.LBB1016:
  52              	.LBI1016:
  53              		.file 5 "./dsp/note_filter.h"
   1:./dsp/note_filter.h **** // Copyright 2015 Emilie Gillet.
   2:./dsp/note_filter.h **** //
   3:./dsp/note_filter.h **** // Author: Emilie Gillet (emilie.o.gillet@gmail.com)
   4:./dsp/note_filter.h **** //
   5:./dsp/note_filter.h **** // Permission is hereby granted, free of charge, to any person obtaining a copy
   6:./dsp/note_filter.h **** // of this software and associated documentation files (the "Software"), to deal
   7:./dsp/note_filter.h **** // in the Software without restriction, including without limitation the rights
   8:./dsp/note_filter.h **** // to use, copy, modify, merge, publish, distribute, sublicense, and/or sell
   9:./dsp/note_filter.h **** // copies of the Software, and to permit persons to whom the Software is
  10:./dsp/note_filter.h **** // furnished to do so, subject to the following conditions:
  11:./dsp/note_filter.h **** //
  12:./dsp/note_filter.h **** // The above copyright notice and this permission notice shall be included in
  13:./dsp/note_filter.h **** // all copies or substantial portions of the Software.
  14:./dsp/note_filter.h **** //
  15:./dsp/note_filter.h **** // THE SOFTWARE IS PROVIDED "AS IS", WITHOUT WARRANTY OF ANY KIND, EXPRESS OR
  16:./dsp/note_filter.h **** // IMPLIED, INCLUDING BUT NOT LIMITED TO THE WARRANTIES OF MERCHANTABILITY,
  17:./dsp/note_filter.h **** // FITNESS FOR A PARTICULAR PURPOSE AND NONINFRINGEMENT. IN NO EVENT SHALL THE
ARM GAS  C:\Users\daniel\AppData\Local\Temp\ccLc35Ca.s 			page 7


  18:./dsp/note_filter.h **** // AUTHORS OR COPYRIGHT HOLDERS BE LIABLE FOR ANY CLAIM, DAMAGES OR OTHER
  19:./dsp/note_filter.h **** // LIABILITY, WHETHER IN AN ACTION OF CONTRACT, TORT OR OTHERWISE, ARISING FROM,
  20:./dsp/note_filter.h **** // OUT OF OR IN CONNECTION WITH THE SOFTWARE OR THE USE OR OTHER DEALINGS IN
  21:./dsp/note_filter.h **** // THE SOFTWARE.
  22:./dsp/note_filter.h **** //
  23:./dsp/note_filter.h **** // See http://creativecommons.org/licenses/MIT/ for more information.
  24:./dsp/note_filter.h **** //
  25:./dsp/note_filter.h **** // -----------------------------------------------------------------------------
  26:./dsp/note_filter.h **** //
  27:./dsp/note_filter.h **** // Low pass filter for getting stable pitch data.
  28:./dsp/note_filter.h **** 
  29:./dsp/note_filter.h **** #ifndef TORUS_DSP_NOTE_FILTER_H_
  30:./dsp/note_filter.h **** #define TORUS_DSP_NOTE_FILTER_H_
  31:./dsp/note_filter.h **** 
  32:./dsp/note_filter.h **** #include "stmlib/dsp/dsp.h"
  33:./dsp/note_filter.h **** #include "stmlib/dsp/delay_line.h"
  34:./dsp/note_filter.h **** 
  35:./dsp/note_filter.h **** namespace torus
  36:./dsp/note_filter.h **** {
  37:./dsp/note_filter.h **** class NoteFilter
  38:./dsp/note_filter.h **** {
  39:./dsp/note_filter.h ****   public:
  40:./dsp/note_filter.h ****     enum
  41:./dsp/note_filter.h ****     {
  42:./dsp/note_filter.h ****         N = 4 // Median filter order
  43:./dsp/note_filter.h ****     };
  44:./dsp/note_filter.h ****     NoteFilter() {}
  45:./dsp/note_filter.h ****     ~NoteFilter() {}
  54              		.loc 5 45 5 is_stmt 1 view .LVU6
  55              	.LBB1017:
  56              	.LBI1017:
  57              		.file 6 "../../stmlib/dsp/delay_line.h"
   1:../../stmlib/dsp/delay_line.h **** // Copyright 2014 Emilie Gillet.
   2:../../stmlib/dsp/delay_line.h **** //
   3:../../stmlib/dsp/delay_line.h **** // Author: Emilie Gillet (emilie.o.gillet@gmail.com)
   4:../../stmlib/dsp/delay_line.h **** //
   5:../../stmlib/dsp/delay_line.h **** // Permission is hereby granted, free of charge, to any person obtaining a copy
   6:../../stmlib/dsp/delay_line.h **** // of this software and associated documentation files (the "Software"), to deal
   7:../../stmlib/dsp/delay_line.h **** // in the Software without restriction, including without limitation the rights
   8:../../stmlib/dsp/delay_line.h **** // to use, copy, modify, merge, publish, distribute, sublicense, and/or sell
   9:../../stmlib/dsp/delay_line.h **** // copies of the Software, and to permit persons to whom the Software is
  10:../../stmlib/dsp/delay_line.h **** // furnished to do so, subject to the following conditions:
  11:../../stmlib/dsp/delay_line.h **** // 
  12:../../stmlib/dsp/delay_line.h **** // The above copyright notice and this permission notice shall be included in
  13:../../stmlib/dsp/delay_line.h **** // all copies or substantial portions of the Software.
  14:../../stmlib/dsp/delay_line.h **** // 
  15:../../stmlib/dsp/delay_line.h **** // THE SOFTWARE IS PROVIDED "AS IS", WITHOUT WARRANTY OF ANY KIND, EXPRESS OR
  16:../../stmlib/dsp/delay_line.h **** // IMPLIED, INCLUDING BUT NOT LIMITED TO THE WARRANTIES OF MERCHANTABILITY,
  17:../../stmlib/dsp/delay_line.h **** // FITNESS FOR A PARTICULAR PURPOSE AND NONINFRINGEMENT. IN NO EVENT SHALL THE
  18:../../stmlib/dsp/delay_line.h **** // AUTHORS OR COPYRIGHT HOLDERS BE LIABLE FOR ANY CLAIM, DAMAGES OR OTHER
  19:../../stmlib/dsp/delay_line.h **** // LIABILITY, WHETHER IN AN ACTION OF CONTRACT, TORT OR OTHERWISE, ARISING FROM,
  20:../../stmlib/dsp/delay_line.h **** // OUT OF OR IN CONNECTION WITH THE SOFTWARE OR THE USE OR OTHER DEALINGS IN
  21:../../stmlib/dsp/delay_line.h **** // THE SOFTWARE.
  22:../../stmlib/dsp/delay_line.h **** // 
  23:../../stmlib/dsp/delay_line.h **** // See http://creativecommons.org/licenses/MIT/ for more information.
  24:../../stmlib/dsp/delay_line.h **** //
  25:../../stmlib/dsp/delay_line.h **** // -----------------------------------------------------------------------------
ARM GAS  C:\Users\daniel\AppData\Local\Temp\ccLc35Ca.s 			page 8


  26:../../stmlib/dsp/delay_line.h **** //
  27:../../stmlib/dsp/delay_line.h **** // Delay line.
  28:../../stmlib/dsp/delay_line.h **** 
  29:../../stmlib/dsp/delay_line.h **** #ifndef STMLIB_DSP_DELAY_LINE_H_
  30:../../stmlib/dsp/delay_line.h **** #define STMLIB_DSP_DELAY_LINE_H_
  31:../../stmlib/dsp/delay_line.h **** 
  32:../../stmlib/dsp/delay_line.h **** #include "stmlib/stmlib.h"
  33:../../stmlib/dsp/delay_line.h **** #include "stmlib/dsp/dsp.h"
  34:../../stmlib/dsp/delay_line.h **** 
  35:../../stmlib/dsp/delay_line.h **** #include <algorithm>
  36:../../stmlib/dsp/delay_line.h **** 
  37:../../stmlib/dsp/delay_line.h **** namespace stmlib {
  38:../../stmlib/dsp/delay_line.h **** 
  39:../../stmlib/dsp/delay_line.h **** template<typename T, size_t max_delay>
  40:../../stmlib/dsp/delay_line.h **** class DelayLine {
  41:../../stmlib/dsp/delay_line.h ****  public:
  42:../../stmlib/dsp/delay_line.h ****   DelayLine() { }
  43:../../stmlib/dsp/delay_line.h ****   ~DelayLine() { }
  58              		.loc 6 43 3 view .LVU7
  59              		.loc 6 43 3 is_stmt 0 view .LVU8
  60              	.LBE1017:
  61              	.LBE1016:
  62              		.loc 1 71 14 view .LVU9
  63 0000 7047     		bx	lr
  64              		.cfi_endproc
  65              	.LFE1635:
  67              		.weak	_ZN5torus4PartD1Ev
  68              		.thumb_set _ZN5torus4PartD1Ev,_ZN5torus4PartD2Ev
  69              		.section	.text._ZN5torus8StrummerD2Ev,"axG",%progbits,_ZN5torus8StrummerD5Ev,comdat
  70              		.align	1
  71              		.weak	_ZN5torus8StrummerD2Ev
  72              		.syntax unified
  73              		.thumb
  74              		.thumb_func
  75              		.fpu fpv5-d16
  77              	_ZN5torus8StrummerD2Ev:
  78              	.LVL1:
  79              	.LFB1675:
  80              		.file 7 "dsp/strummer.h"
   1:dsp/strummer.h **** // Copyright 2015 Emilie Gillet.
   2:dsp/strummer.h **** //
   3:dsp/strummer.h **** // Author: Emilie Gillet (emilie.o.gillet@gmail.com)
   4:dsp/strummer.h **** //
   5:dsp/strummer.h **** // Permission is hereby granted, free of charge, to any person obtaining a copy
   6:dsp/strummer.h **** // of this software and associated documentation files (the "Software"), to deal
   7:dsp/strummer.h **** // in the Software without restriction, including without limitation the rights
   8:dsp/strummer.h **** // to use, copy, modify, merge, publish, distribute, sublicense, and/or sell
   9:dsp/strummer.h **** // copies of the Software, and to permit persons to whom the Software is
  10:dsp/strummer.h **** // furnished to do so, subject to the following conditions:
  11:dsp/strummer.h **** //
  12:dsp/strummer.h **** // The above copyright notice and this permission notice shall be included in
  13:dsp/strummer.h **** // all copies or substantial portions of the Software.
  14:dsp/strummer.h **** //
  15:dsp/strummer.h **** // THE SOFTWARE IS PROVIDED "AS IS", WITHOUT WARRANTY OF ANY KIND, EXPRESS OR
  16:dsp/strummer.h **** // IMPLIED, INCLUDING BUT NOT LIMITED TO THE WARRANTIES OF MERCHANTABILITY,
  17:dsp/strummer.h **** // FITNESS FOR A PARTICULAR PURPOSE AND NONINFRINGEMENT. IN NO EVENT SHALL THE
  18:dsp/strummer.h **** // AUTHORS OR COPYRIGHT HOLDERS BE LIABLE FOR ANY CLAIM, DAMAGES OR OTHER
ARM GAS  C:\Users\daniel\AppData\Local\Temp\ccLc35Ca.s 			page 9


  19:dsp/strummer.h **** // LIABILITY, WHETHER IN AN ACTION OF CONTRACT, TORT OR OTHERWISE, ARISING FROM,
  20:dsp/strummer.h **** // OUT OF OR IN CONNECTION WITH THE SOFTWARE OR THE USE OR OTHER DEALINGS IN
  21:dsp/strummer.h **** // THE SOFTWARE.
  22:dsp/strummer.h **** //
  23:dsp/strummer.h **** // See http://creativecommons.org/licenses/MIT/ for more information.
  24:dsp/strummer.h **** //
  25:dsp/strummer.h **** // -----------------------------------------------------------------------------
  26:dsp/strummer.h **** //
  27:dsp/strummer.h **** // Strumming logic.
  28:dsp/strummer.h **** 
  29:dsp/strummer.h **** #ifndef TORUS_DSP_STRUMMER_H_
  30:dsp/strummer.h **** #define TORUS_DSP_STRUMMER_H_
  31:dsp/strummer.h **** 
  32:dsp/strummer.h **** #include "stmlib/stmlib.h"
  33:dsp/strummer.h **** 
  34:dsp/strummer.h **** #include "dsp/onset_detector.h"
  35:dsp/strummer.h **** #include "dsp/part.h"
  36:dsp/strummer.h **** 
  37:dsp/strummer.h **** namespace torus
  38:dsp/strummer.h **** {
  39:dsp/strummer.h **** class Strummer
  40:dsp/strummer.h **** {
  41:dsp/strummer.h ****   public:
  42:dsp/strummer.h ****     Strummer() {}
  43:dsp/strummer.h ****     ~Strummer() {}
  81              		.loc 7 43 5 is_stmt 1 view -0
  82              		.cfi_startproc
  83              		@ args = 0, pretend = 0, frame = 0
  84              		@ frame_needed = 0, uses_anonymous_args = 0
  85              		@ link register save eliminated.
  86              	.LBB1018:
  87              	.LBI1018:
  88              		.file 8 "./dsp/onset_detector.h"
   1:./dsp/onset_detector.h **** // Copyright 2015 Emilie Gillet.
   2:./dsp/onset_detector.h **** //
   3:./dsp/onset_detector.h **** // Author: Emilie Gillet (emilie.o.gillet@gmail.com)
   4:./dsp/onset_detector.h **** //
   5:./dsp/onset_detector.h **** // Permission is hereby granted, free of charge, to any person obtaining a copy
   6:./dsp/onset_detector.h **** // of this software and associated documentation files (the "Software"), to deal
   7:./dsp/onset_detector.h **** // in the Software without restriction, including without limitation the rights
   8:./dsp/onset_detector.h **** // to use, copy, modify, merge, publish, distribute, sublicense, and/or sell
   9:./dsp/onset_detector.h **** // copies of the Software, and to permit persons to whom the Software is
  10:./dsp/onset_detector.h **** // furnished to do so, subject to the following conditions:
  11:./dsp/onset_detector.h **** //
  12:./dsp/onset_detector.h **** // The above copyright notice and this permission notice shall be included in
  13:./dsp/onset_detector.h **** // all copies or substantial portions of the Software.
  14:./dsp/onset_detector.h **** //
  15:./dsp/onset_detector.h **** // THE SOFTWARE IS PROVIDED "AS IS", WITHOUT WARRANTY OF ANY KIND, EXPRESS OR
  16:./dsp/onset_detector.h **** // IMPLIED, INCLUDING BUT NOT LIMITED TO THE WARRANTIES OF MERCHANTABILITY,
  17:./dsp/onset_detector.h **** // FITNESS FOR A PARTICULAR PURPOSE AND NONINFRINGEMENT. IN NO EVENT SHALL THE
  18:./dsp/onset_detector.h **** // AUTHORS OR COPYRIGHT HOLDERS BE LIABLE FOR ANY CLAIM, DAMAGES OR OTHER
  19:./dsp/onset_detector.h **** // LIABILITY, WHETHER IN AN ACTION OF CONTRACT, TORT OR OTHERWISE, ARISING FROM,
  20:./dsp/onset_detector.h **** // OUT OF OR IN CONNECTION WITH THE SOFTWARE OR THE USE OR OTHER DEALINGS IN
  21:./dsp/onset_detector.h **** // THE SOFTWARE.
  22:./dsp/onset_detector.h **** //
  23:./dsp/onset_detector.h **** // See http://creativecommons.org/licenses/MIT/ for more information.
  24:./dsp/onset_detector.h **** //
ARM GAS  C:\Users\daniel\AppData\Local\Temp\ccLc35Ca.s 			page 10


  25:./dsp/onset_detector.h **** // -----------------------------------------------------------------------------
  26:./dsp/onset_detector.h **** //
  27:./dsp/onset_detector.h **** // Onset detector.
  28:./dsp/onset_detector.h **** 
  29:./dsp/onset_detector.h **** #ifndef TORUS_DSP_ONSET_DETECTOR_H_
  30:./dsp/onset_detector.h **** #define TORUS_DSP_ONSET_DETECTOR_H_
  31:./dsp/onset_detector.h **** 
  32:./dsp/onset_detector.h **** #include "stmlib/stmlib.h"
  33:./dsp/onset_detector.h **** 
  34:./dsp/onset_detector.h **** #include <algorithm>
  35:./dsp/onset_detector.h **** 
  36:./dsp/onset_detector.h **** #include "stmlib/dsp/dsp.h"
  37:./dsp/onset_detector.h **** #include "stmlib/dsp/filter.h"
  38:./dsp/onset_detector.h **** 
  39:./dsp/onset_detector.h **** namespace torus
  40:./dsp/onset_detector.h **** {
  41:./dsp/onset_detector.h **** using namespace std;
  42:./dsp/onset_detector.h **** using namespace stmlib;
  43:./dsp/onset_detector.h **** 
  44:./dsp/onset_detector.h **** class ZScorer
  45:./dsp/onset_detector.h **** {
  46:./dsp/onset_detector.h ****   public:
  47:./dsp/onset_detector.h ****     ZScorer() {}
  48:./dsp/onset_detector.h ****     ~ZScorer() {}
  49:./dsp/onset_detector.h **** 
  50:./dsp/onset_detector.h ****     void Init(float cutoff)
  51:./dsp/onset_detector.h ****     {
  52:./dsp/onset_detector.h ****         coefficient_ = cutoff;
  53:./dsp/onset_detector.h ****         mean_        = 0.0f;
  54:./dsp/onset_detector.h ****         variance_    = 0.00f;
  55:./dsp/onset_detector.h ****     }
  56:./dsp/onset_detector.h **** 
  57:./dsp/onset_detector.h ****     inline float Normalize(float sample)
  58:./dsp/onset_detector.h ****     {
  59:./dsp/onset_detector.h ****         return Update(sample) / Sqrt(variance_);
  60:./dsp/onset_detector.h ****     }
  61:./dsp/onset_detector.h **** 
  62:./dsp/onset_detector.h ****     inline bool Test(float sample, float threshold)
  63:./dsp/onset_detector.h ****     {
  64:./dsp/onset_detector.h ****         float value = Update(sample);
  65:./dsp/onset_detector.h ****         return value > Sqrt(variance_) * threshold;
  66:./dsp/onset_detector.h ****     }
  67:./dsp/onset_detector.h **** 
  68:./dsp/onset_detector.h ****     inline bool Test(float sample, float threshold, float absolute_threshold)
  69:./dsp/onset_detector.h ****     {
  70:./dsp/onset_detector.h ****         float value = Update(sample);
  71:./dsp/onset_detector.h ****         return value > Sqrt(variance_) * threshold
  72:./dsp/onset_detector.h ****                && value > absolute_threshold;
  73:./dsp/onset_detector.h ****     }
  74:./dsp/onset_detector.h **** 
  75:./dsp/onset_detector.h ****   private:
  76:./dsp/onset_detector.h ****     inline float Update(float sample)
  77:./dsp/onset_detector.h ****     {
  78:./dsp/onset_detector.h ****         float centered = sample - mean_;
  79:./dsp/onset_detector.h ****         mean_ += coefficient_ * centered;
  80:./dsp/onset_detector.h ****         variance_ += coefficient_ * (centered * centered - variance_);
  81:./dsp/onset_detector.h ****         return centered;
ARM GAS  C:\Users\daniel\AppData\Local\Temp\ccLc35Ca.s 			page 11


  82:./dsp/onset_detector.h ****     }
  83:./dsp/onset_detector.h **** 
  84:./dsp/onset_detector.h ****     float coefficient_;
  85:./dsp/onset_detector.h ****     float mean_;
  86:./dsp/onset_detector.h ****     float variance_;
  87:./dsp/onset_detector.h **** 
  88:./dsp/onset_detector.h ****     DISALLOW_COPY_AND_ASSIGN(ZScorer);
  89:./dsp/onset_detector.h **** };
  90:./dsp/onset_detector.h **** 
  91:./dsp/onset_detector.h **** class Compressor
  92:./dsp/onset_detector.h **** {
  93:./dsp/onset_detector.h ****   public:
  94:./dsp/onset_detector.h ****     Compressor() {}
  95:./dsp/onset_detector.h ****     ~Compressor() {}
  96:./dsp/onset_detector.h **** 
  97:./dsp/onset_detector.h ****     void Init(float attack, float decay, float max_gain)
  98:./dsp/onset_detector.h ****     {
  99:./dsp/onset_detector.h ****         attack_ = attack;
 100:./dsp/onset_detector.h ****         decay_  = decay;
 101:./dsp/onset_detector.h ****         level_  = 0.0f;
 102:./dsp/onset_detector.h ****         skew_   = 1.0f / max_gain;
 103:./dsp/onset_detector.h ****     }
 104:./dsp/onset_detector.h **** 
 105:./dsp/onset_detector.h ****     void Process(const float* in, float* out, size_t size)
 106:./dsp/onset_detector.h ****     {
 107:./dsp/onset_detector.h ****         float level = level_;
 108:./dsp/onset_detector.h ****         while(size--)
 109:./dsp/onset_detector.h ****         {
 110:./dsp/onset_detector.h ****             SLOPE(level, fabs(*in), attack_, decay_);
 111:./dsp/onset_detector.h ****             *out++ = *in++ / (skew_ + level);
 112:./dsp/onset_detector.h ****         }
 113:./dsp/onset_detector.h ****         level_ = level;
 114:./dsp/onset_detector.h ****     }
 115:./dsp/onset_detector.h **** 
 116:./dsp/onset_detector.h ****   private:
 117:./dsp/onset_detector.h ****     float attack_;
 118:./dsp/onset_detector.h ****     float decay_;
 119:./dsp/onset_detector.h ****     float level_;
 120:./dsp/onset_detector.h ****     float skew_;
 121:./dsp/onset_detector.h **** 
 122:./dsp/onset_detector.h ****     DISALLOW_COPY_AND_ASSIGN(Compressor);
 123:./dsp/onset_detector.h **** };
 124:./dsp/onset_detector.h **** 
 125:./dsp/onset_detector.h **** class OnsetDetector
 126:./dsp/onset_detector.h **** {
 127:./dsp/onset_detector.h ****   public:
 128:./dsp/onset_detector.h ****     OnsetDetector() {}
 129:./dsp/onset_detector.h ****     ~OnsetDetector() {}
  89              		.loc 8 129 5 view .LVU11
  90              	.LBB1019:
  91              	.LBI1019:
  48:./dsp/onset_detector.h **** 
  92              		.loc 8 48 5 view .LVU12
  48:./dsp/onset_detector.h **** 
  93              		.loc 8 48 5 is_stmt 0 view .LVU13
  94              	.LBE1019:
  95              	.LBB1020:
ARM GAS  C:\Users\daniel\AppData\Local\Temp\ccLc35Ca.s 			page 12


  96              	.LBI1020:
  97              		.file 9 "../../stmlib/dsp/filter.h"
   1:../../stmlib/dsp/filter.h **** // Copyright 2014 Emilie Gillet.
   2:../../stmlib/dsp/filter.h **** //
   3:../../stmlib/dsp/filter.h **** // Author: Emilie Gillet (emilie.o.gillet@gmail.com)
   4:../../stmlib/dsp/filter.h **** //
   5:../../stmlib/dsp/filter.h **** // Permission is hereby granted, free of charge, to any person obtaining a copy
   6:../../stmlib/dsp/filter.h **** // of this software and associated documentation files (the "Software"), to deal
   7:../../stmlib/dsp/filter.h **** // in the Software without restriction, including without limitation the rights
   8:../../stmlib/dsp/filter.h **** // to use, copy, modify, merge, publish, distribute, sublicense, and/or sell
   9:../../stmlib/dsp/filter.h **** // copies of the Software, and to permit persons to whom the Software is
  10:../../stmlib/dsp/filter.h **** // furnished to do so, subject to the following conditions:
  11:../../stmlib/dsp/filter.h **** // 
  12:../../stmlib/dsp/filter.h **** // The above copyright notice and this permission notice shall be included in
  13:../../stmlib/dsp/filter.h **** // all copies or substantial portions of the Software.
  14:../../stmlib/dsp/filter.h **** // 
  15:../../stmlib/dsp/filter.h **** // THE SOFTWARE IS PROVIDED "AS IS", WITHOUT WARRANTY OF ANY KIND, EXPRESS OR
  16:../../stmlib/dsp/filter.h **** // IMPLIED, INCLUDING BUT NOT LIMITED TO THE WARRANTIES OF MERCHANTABILITY,
  17:../../stmlib/dsp/filter.h **** // FITNESS FOR A PARTICULAR PURPOSE AND NONINFRINGEMENT. IN NO EVENT SHALL THE
  18:../../stmlib/dsp/filter.h **** // AUTHORS OR COPYRIGHT HOLDERS BE LIABLE FOR ANY CLAIM, DAMAGES OR OTHER
  19:../../stmlib/dsp/filter.h **** // LIABILITY, WHETHER IN AN ACTION OF CONTRACT, TORT OR OTHERWISE, ARISING FROM,
  20:../../stmlib/dsp/filter.h **** // OUT OF OR IN CONNECTION WITH THE SOFTWARE OR THE USE OR OTHER DEALINGS IN
  21:../../stmlib/dsp/filter.h **** // THE SOFTWARE.
  22:../../stmlib/dsp/filter.h **** // 
  23:../../stmlib/dsp/filter.h **** // See http://creativecommons.org/licenses/MIT/ for more information.
  24:../../stmlib/dsp/filter.h **** //
  25:../../stmlib/dsp/filter.h **** // -----------------------------------------------------------------------------
  26:../../stmlib/dsp/filter.h **** //
  27:../../stmlib/dsp/filter.h **** // Zero-delay-feedback filters (one pole and SVF).
  28:../../stmlib/dsp/filter.h **** // Naive SVF.
  29:../../stmlib/dsp/filter.h **** 
  30:../../stmlib/dsp/filter.h **** #ifndef STMLIB_DSP_FILTER_H_
  31:../../stmlib/dsp/filter.h **** #define STMLIB_DSP_FILTER_H_
  32:../../stmlib/dsp/filter.h **** 
  33:../../stmlib/dsp/filter.h **** #include "stmlib/stmlib.h"
  34:../../stmlib/dsp/filter.h **** 
  35:../../stmlib/dsp/filter.h **** #include <cmath>
  36:../../stmlib/dsp/filter.h **** #include <algorithm>
  37:../../stmlib/dsp/filter.h **** 
  38:../../stmlib/dsp/filter.h **** namespace stmlib {
  39:../../stmlib/dsp/filter.h **** 
  40:../../stmlib/dsp/filter.h **** enum FilterMode {
  41:../../stmlib/dsp/filter.h ****   FILTER_MODE_LOW_PASS,
  42:../../stmlib/dsp/filter.h ****   FILTER_MODE_BAND_PASS,
  43:../../stmlib/dsp/filter.h ****   FILTER_MODE_BAND_PASS_NORMALIZED,
  44:../../stmlib/dsp/filter.h ****   FILTER_MODE_HIGH_PASS
  45:../../stmlib/dsp/filter.h **** };
  46:../../stmlib/dsp/filter.h **** 
  47:../../stmlib/dsp/filter.h **** enum FrequencyApproximation {
  48:../../stmlib/dsp/filter.h ****   FREQUENCY_EXACT,
  49:../../stmlib/dsp/filter.h ****   FREQUENCY_ACCURATE,
  50:../../stmlib/dsp/filter.h ****   FREQUENCY_FAST,
  51:../../stmlib/dsp/filter.h ****   FREQUENCY_DIRTY
  52:../../stmlib/dsp/filter.h **** };
  53:../../stmlib/dsp/filter.h **** 
  54:../../stmlib/dsp/filter.h **** #define M_PI_F float(M_PI)
  55:../../stmlib/dsp/filter.h **** #define M_PI_POW_2 M_PI * M_PI
ARM GAS  C:\Users\daniel\AppData\Local\Temp\ccLc35Ca.s 			page 13


  56:../../stmlib/dsp/filter.h **** #define M_PI_POW_3 M_PI_POW_2 * M_PI
  57:../../stmlib/dsp/filter.h **** #define M_PI_POW_5 M_PI_POW_3 * M_PI_POW_2
  58:../../stmlib/dsp/filter.h **** #define M_PI_POW_7 M_PI_POW_5 * M_PI_POW_2
  59:../../stmlib/dsp/filter.h **** #define M_PI_POW_9 M_PI_POW_7 * M_PI_POW_2
  60:../../stmlib/dsp/filter.h **** #define M_PI_POW_11 M_PI_POW_9 * M_PI_POW_2
  61:../../stmlib/dsp/filter.h **** 
  62:../../stmlib/dsp/filter.h **** class DCBlocker {
  63:../../stmlib/dsp/filter.h ****  public:
  64:../../stmlib/dsp/filter.h ****   DCBlocker() { }
  65:../../stmlib/dsp/filter.h ****   ~DCBlocker() { }
  66:../../stmlib/dsp/filter.h ****   
  67:../../stmlib/dsp/filter.h ****   void Init(float pole) {
  68:../../stmlib/dsp/filter.h ****     x_ = 0.0f;
  69:../../stmlib/dsp/filter.h ****     y_ = 0.0f;
  70:../../stmlib/dsp/filter.h ****     pole_ = pole;
  71:../../stmlib/dsp/filter.h ****   }
  72:../../stmlib/dsp/filter.h ****   
  73:../../stmlib/dsp/filter.h ****   inline void Process(float* in_out, size_t size) {
  74:../../stmlib/dsp/filter.h ****     float x = x_;
  75:../../stmlib/dsp/filter.h ****     float y = y_;
  76:../../stmlib/dsp/filter.h ****     const float pole = pole_;
  77:../../stmlib/dsp/filter.h ****     while (size--) {
  78:../../stmlib/dsp/filter.h ****       float old_x = x;
  79:../../stmlib/dsp/filter.h ****       x = *in_out;
  80:../../stmlib/dsp/filter.h ****       *in_out++ = y = y * pole + x - old_x;
  81:../../stmlib/dsp/filter.h ****     }
  82:../../stmlib/dsp/filter.h ****     x_ = x;
  83:../../stmlib/dsp/filter.h ****     y_ = y;
  84:../../stmlib/dsp/filter.h ****   }
  85:../../stmlib/dsp/filter.h ****   
  86:../../stmlib/dsp/filter.h ****  private:
  87:../../stmlib/dsp/filter.h ****   float pole_;
  88:../../stmlib/dsp/filter.h ****   float x_;
  89:../../stmlib/dsp/filter.h ****   float y_;
  90:../../stmlib/dsp/filter.h **** };
  91:../../stmlib/dsp/filter.h **** 
  92:../../stmlib/dsp/filter.h **** class OnePole {
  93:../../stmlib/dsp/filter.h ****  public:
  94:../../stmlib/dsp/filter.h ****   OnePole() { }
  95:../../stmlib/dsp/filter.h ****   ~OnePole() { }
  96:../../stmlib/dsp/filter.h ****   
  97:../../stmlib/dsp/filter.h ****   void Init() {
  98:../../stmlib/dsp/filter.h ****     set_f<FREQUENCY_DIRTY>(0.01f);
  99:../../stmlib/dsp/filter.h ****     Reset();
 100:../../stmlib/dsp/filter.h ****   }
 101:../../stmlib/dsp/filter.h ****   
 102:../../stmlib/dsp/filter.h ****   void Reset() {
 103:../../stmlib/dsp/filter.h ****     state_ = 0.0f;
 104:../../stmlib/dsp/filter.h ****   }
 105:../../stmlib/dsp/filter.h ****   
 106:../../stmlib/dsp/filter.h ****   template<FrequencyApproximation approximation>
 107:../../stmlib/dsp/filter.h ****   static inline float tan(float f) {
 108:../../stmlib/dsp/filter.h ****     if (approximation == FREQUENCY_EXACT) {
 109:../../stmlib/dsp/filter.h ****       // Clip coefficient to about 100.
 110:../../stmlib/dsp/filter.h ****       f = f < 0.497f ? f : 0.497f;
 111:../../stmlib/dsp/filter.h ****       return tanf(M_PI * f);
 112:../../stmlib/dsp/filter.h ****     } else if (approximation == FREQUENCY_DIRTY) {
ARM GAS  C:\Users\daniel\AppData\Local\Temp\ccLc35Ca.s 			page 14


 113:../../stmlib/dsp/filter.h ****       // Optimized for frequencies below 8kHz.
 114:../../stmlib/dsp/filter.h ****       const float a = 3.736e-01 * M_PI_POW_3;
 115:../../stmlib/dsp/filter.h ****       return f * (M_PI_F + a * f * f);
 116:../../stmlib/dsp/filter.h ****     } else if (approximation == FREQUENCY_FAST) {
 117:../../stmlib/dsp/filter.h ****       // The usual tangent approximation uses 3.1755e-01 and 2.033e-01, but
 118:../../stmlib/dsp/filter.h ****       // the coefficients used here are optimized to minimize error for the
 119:../../stmlib/dsp/filter.h ****       // 16Hz to 16kHz range, with a sample rate of 48kHz.
 120:../../stmlib/dsp/filter.h ****       const float a = 3.260e-01 * M_PI_POW_3;
 121:../../stmlib/dsp/filter.h ****       const float b = 1.823e-01 * M_PI_POW_5;
 122:../../stmlib/dsp/filter.h ****       float f2 = f * f;
 123:../../stmlib/dsp/filter.h ****       return f * (M_PI_F + f2 * (a + b * f2));
 124:../../stmlib/dsp/filter.h ****     } else if (approximation == FREQUENCY_ACCURATE) {
 125:../../stmlib/dsp/filter.h ****       // These coefficients don't need to be tweaked for the audio range.
 126:../../stmlib/dsp/filter.h ****       const float a = 3.333314036e-01 * M_PI_POW_3;
 127:../../stmlib/dsp/filter.h ****       const float b = 1.333923995e-01 * M_PI_POW_5;
 128:../../stmlib/dsp/filter.h ****       const float c = 5.33740603e-02 * M_PI_POW_7;
 129:../../stmlib/dsp/filter.h ****       const float d = 2.900525e-03 * M_PI_POW_9;
 130:../../stmlib/dsp/filter.h ****       const float e = 9.5168091e-03 * M_PI_POW_11;
 131:../../stmlib/dsp/filter.h ****       float f2 = f * f;
 132:../../stmlib/dsp/filter.h ****       return f * (M_PI_F + f2 * (a + f2 * (b + f2 * (c + f2 * (d + f2 * e)))));
 133:../../stmlib/dsp/filter.h ****     }
 134:../../stmlib/dsp/filter.h ****   }
 135:../../stmlib/dsp/filter.h ****   
 136:../../stmlib/dsp/filter.h ****   // Set frequency and resonance from true units. Various approximations
 137:../../stmlib/dsp/filter.h ****   // are available to avoid the cost of tanf.
 138:../../stmlib/dsp/filter.h ****   template<FrequencyApproximation approximation>
 139:../../stmlib/dsp/filter.h ****   inline void set_f(float f) {
 140:../../stmlib/dsp/filter.h ****     g_ = tan<approximation>(f);
 141:../../stmlib/dsp/filter.h ****     gi_ = 1.0f / (1.0f + g_);
 142:../../stmlib/dsp/filter.h ****   }
 143:../../stmlib/dsp/filter.h ****   
 144:../../stmlib/dsp/filter.h ****   template<FilterMode mode>
 145:../../stmlib/dsp/filter.h ****   inline float Process(float in) {
 146:../../stmlib/dsp/filter.h ****     float lp;
 147:../../stmlib/dsp/filter.h ****     lp = (g_ * in + state_) * gi_;
 148:../../stmlib/dsp/filter.h ****     state_ = g_ * (in - lp) + lp;
 149:../../stmlib/dsp/filter.h **** 
 150:../../stmlib/dsp/filter.h ****     if (mode == FILTER_MODE_LOW_PASS) {
 151:../../stmlib/dsp/filter.h ****       return lp;
 152:../../stmlib/dsp/filter.h ****     } else if (mode == FILTER_MODE_HIGH_PASS) {
 153:../../stmlib/dsp/filter.h ****       return in - lp;
 154:../../stmlib/dsp/filter.h ****     } else {
 155:../../stmlib/dsp/filter.h ****       return 0.0f;
 156:../../stmlib/dsp/filter.h ****     }
 157:../../stmlib/dsp/filter.h ****   }
 158:../../stmlib/dsp/filter.h ****   
 159:../../stmlib/dsp/filter.h ****   template<FilterMode mode>
 160:../../stmlib/dsp/filter.h ****   inline void Process(float* in_out, size_t size) {
 161:../../stmlib/dsp/filter.h ****     while (size--) {
 162:../../stmlib/dsp/filter.h ****       *in_out = Process<mode>(*in_out);
 163:../../stmlib/dsp/filter.h ****       ++in_out;
 164:../../stmlib/dsp/filter.h ****     }
 165:../../stmlib/dsp/filter.h ****   }
 166:../../stmlib/dsp/filter.h ****   
 167:../../stmlib/dsp/filter.h ****  private:
 168:../../stmlib/dsp/filter.h ****   float g_;
 169:../../stmlib/dsp/filter.h ****   float gi_;
ARM GAS  C:\Users\daniel\AppData\Local\Temp\ccLc35Ca.s 			page 15


 170:../../stmlib/dsp/filter.h ****   float state_;
 171:../../stmlib/dsp/filter.h ****   
 172:../../stmlib/dsp/filter.h ****   DISALLOW_COPY_AND_ASSIGN(OnePole);
 173:../../stmlib/dsp/filter.h **** };
 174:../../stmlib/dsp/filter.h **** 
 175:../../stmlib/dsp/filter.h **** 
 176:../../stmlib/dsp/filter.h **** 
 177:../../stmlib/dsp/filter.h **** class Svf {
 178:../../stmlib/dsp/filter.h ****  public:
 179:../../stmlib/dsp/filter.h ****   Svf() { }
 180:../../stmlib/dsp/filter.h ****   ~Svf() { }
 181:../../stmlib/dsp/filter.h ****   
 182:../../stmlib/dsp/filter.h ****   void Init() {
 183:../../stmlib/dsp/filter.h ****     set_f_q<FREQUENCY_DIRTY>(0.01f, 100.0f);
 184:../../stmlib/dsp/filter.h ****     Reset();
 185:../../stmlib/dsp/filter.h ****   }
 186:../../stmlib/dsp/filter.h ****   
 187:../../stmlib/dsp/filter.h ****   void Reset() {
 188:../../stmlib/dsp/filter.h ****     state_1_ = state_2_ = 0.0f;
 189:../../stmlib/dsp/filter.h ****   }
 190:../../stmlib/dsp/filter.h ****   
 191:../../stmlib/dsp/filter.h ****   // Copy settings from another filter.
 192:../../stmlib/dsp/filter.h ****   inline void set(const Svf& f) {
 193:../../stmlib/dsp/filter.h ****     g_ = f.g();
 194:../../stmlib/dsp/filter.h ****     r_ = f.r();
 195:../../stmlib/dsp/filter.h ****     h_ = f.h();
 196:../../stmlib/dsp/filter.h ****   }
 197:../../stmlib/dsp/filter.h **** 
 198:../../stmlib/dsp/filter.h ****   // Set all parameters from LUT.
 199:../../stmlib/dsp/filter.h ****   inline void set_g_r_h(float g, float r, float h) {
 200:../../stmlib/dsp/filter.h ****     g_ = g;
 201:../../stmlib/dsp/filter.h ****     r_ = r;
 202:../../stmlib/dsp/filter.h ****     h_ = h;
 203:../../stmlib/dsp/filter.h ****   }
 204:../../stmlib/dsp/filter.h ****   
 205:../../stmlib/dsp/filter.h ****   // Set frequency and resonance coefficients from LUT, adjust remaining
 206:../../stmlib/dsp/filter.h ****   // parameter.
 207:../../stmlib/dsp/filter.h ****   inline void set_g_r(float g, float r) {
 208:../../stmlib/dsp/filter.h ****     g_ = g;
 209:../../stmlib/dsp/filter.h ****     r_ = r;
 210:../../stmlib/dsp/filter.h ****     h_ = 1.0f / (1.0f + r_ * g_ + g_ * g_);
 211:../../stmlib/dsp/filter.h ****   }
 212:../../stmlib/dsp/filter.h **** 
 213:../../stmlib/dsp/filter.h ****   // Set frequency from LUT, resonance in true units, adjust the rest.
 214:../../stmlib/dsp/filter.h ****   inline void set_g_q(float g, float resonance) {
 215:../../stmlib/dsp/filter.h ****     g_ = g;
 216:../../stmlib/dsp/filter.h ****     r_ = 1.0f / resonance;
 217:../../stmlib/dsp/filter.h ****     h_ = 1.0f / (1.0f + r_ * g_ + g_ * g_);
 218:../../stmlib/dsp/filter.h ****   }
 219:../../stmlib/dsp/filter.h **** 
 220:../../stmlib/dsp/filter.h ****   // Set frequency and resonance from true units. Various approximations
 221:../../stmlib/dsp/filter.h ****   // are available to avoid the cost of tanf.
 222:../../stmlib/dsp/filter.h ****   template<FrequencyApproximation approximation>
 223:../../stmlib/dsp/filter.h ****   inline void set_f_q(float f, float resonance) {
 224:../../stmlib/dsp/filter.h ****     g_ = OnePole::tan<approximation>(f);
 225:../../stmlib/dsp/filter.h ****     r_ = 1.0f / resonance;
 226:../../stmlib/dsp/filter.h ****     h_ = 1.0f / (1.0f + r_ * g_ + g_ * g_);
ARM GAS  C:\Users\daniel\AppData\Local\Temp\ccLc35Ca.s 			page 16


 227:../../stmlib/dsp/filter.h ****   }
 228:../../stmlib/dsp/filter.h ****   
 229:../../stmlib/dsp/filter.h ****   template<FilterMode mode>
 230:../../stmlib/dsp/filter.h ****   inline float Process(float in) {
 231:../../stmlib/dsp/filter.h ****     float hp, bp, lp;
 232:../../stmlib/dsp/filter.h ****     hp = (in - r_ * state_1_ - g_ * state_1_ - state_2_) * h_;
 233:../../stmlib/dsp/filter.h ****     bp = g_ * hp + state_1_;
 234:../../stmlib/dsp/filter.h ****     state_1_ = g_ * hp + bp;
 235:../../stmlib/dsp/filter.h ****     lp = g_ * bp + state_2_;
 236:../../stmlib/dsp/filter.h ****     state_2_ = g_ * bp + lp;
 237:../../stmlib/dsp/filter.h ****     
 238:../../stmlib/dsp/filter.h ****     if (mode == FILTER_MODE_LOW_PASS) {
 239:../../stmlib/dsp/filter.h ****       return lp;
 240:../../stmlib/dsp/filter.h ****     } else if (mode == FILTER_MODE_BAND_PASS) {
 241:../../stmlib/dsp/filter.h ****       return bp;
 242:../../stmlib/dsp/filter.h ****     } else if (mode == FILTER_MODE_BAND_PASS_NORMALIZED) {
 243:../../stmlib/dsp/filter.h ****       return bp * r_;
 244:../../stmlib/dsp/filter.h ****     } else if (mode == FILTER_MODE_HIGH_PASS) {
 245:../../stmlib/dsp/filter.h ****       return hp;
 246:../../stmlib/dsp/filter.h ****     }
 247:../../stmlib/dsp/filter.h ****   }
 248:../../stmlib/dsp/filter.h ****   
 249:../../stmlib/dsp/filter.h ****   template<FilterMode mode_1, FilterMode mode_2>
 250:../../stmlib/dsp/filter.h ****   inline void Process(float in, float* out_1, float* out_2) {
 251:../../stmlib/dsp/filter.h ****     float hp, bp, lp;
 252:../../stmlib/dsp/filter.h ****     hp = (in - r_ * state_1_ - g_ * state_1_ - state_2_) * h_;
 253:../../stmlib/dsp/filter.h ****     bp = g_ * hp + state_1_;
 254:../../stmlib/dsp/filter.h ****     state_1_ = g_ * hp + bp;
 255:../../stmlib/dsp/filter.h ****     lp = g_ * bp + state_2_;
 256:../../stmlib/dsp/filter.h ****     state_2_ = g_ * bp + lp;
 257:../../stmlib/dsp/filter.h ****     
 258:../../stmlib/dsp/filter.h ****     if (mode_1 == FILTER_MODE_LOW_PASS) {
 259:../../stmlib/dsp/filter.h ****       *out_1 = lp;
 260:../../stmlib/dsp/filter.h ****     } else if (mode_1 == FILTER_MODE_BAND_PASS) {
 261:../../stmlib/dsp/filter.h ****       *out_1 = bp;
 262:../../stmlib/dsp/filter.h ****     } else if (mode_1 == FILTER_MODE_BAND_PASS_NORMALIZED) {
 263:../../stmlib/dsp/filter.h ****       *out_1 = bp * r_;
 264:../../stmlib/dsp/filter.h ****     } else if (mode_1 == FILTER_MODE_HIGH_PASS) {
 265:../../stmlib/dsp/filter.h ****       *out_1 = hp;
 266:../../stmlib/dsp/filter.h ****     }
 267:../../stmlib/dsp/filter.h **** 
 268:../../stmlib/dsp/filter.h ****     if (mode_2 == FILTER_MODE_LOW_PASS) {
 269:../../stmlib/dsp/filter.h ****       *out_2 = lp;
 270:../../stmlib/dsp/filter.h ****     } else if (mode_2 == FILTER_MODE_BAND_PASS) {
 271:../../stmlib/dsp/filter.h ****       *out_2 = bp;
 272:../../stmlib/dsp/filter.h ****     } else if (mode_2 == FILTER_MODE_BAND_PASS_NORMALIZED) {
 273:../../stmlib/dsp/filter.h ****       *out_2 = bp * r_;
 274:../../stmlib/dsp/filter.h ****     } else if (mode_2 == FILTER_MODE_HIGH_PASS) {
 275:../../stmlib/dsp/filter.h ****       *out_2 = hp;
 276:../../stmlib/dsp/filter.h ****     }
 277:../../stmlib/dsp/filter.h ****   }
 278:../../stmlib/dsp/filter.h ****   
 279:../../stmlib/dsp/filter.h ****   template<FilterMode mode>
 280:../../stmlib/dsp/filter.h ****   inline void Process(const float* in, float* out, size_t size) {
 281:../../stmlib/dsp/filter.h ****     float hp, bp, lp;
 282:../../stmlib/dsp/filter.h ****     float state_1 = state_1_;
 283:../../stmlib/dsp/filter.h ****     float state_2 = state_2_;
ARM GAS  C:\Users\daniel\AppData\Local\Temp\ccLc35Ca.s 			page 17


 284:../../stmlib/dsp/filter.h ****     
 285:../../stmlib/dsp/filter.h ****     while (size--) {
 286:../../stmlib/dsp/filter.h ****       hp = (*in - r_ * state_1 - g_ * state_1 - state_2) * h_;
 287:../../stmlib/dsp/filter.h ****       bp = g_ * hp + state_1;
 288:../../stmlib/dsp/filter.h ****       state_1 = g_ * hp + bp;
 289:../../stmlib/dsp/filter.h ****       lp = g_ * bp + state_2;
 290:../../stmlib/dsp/filter.h ****       state_2 = g_ * bp + lp;
 291:../../stmlib/dsp/filter.h ****     
 292:../../stmlib/dsp/filter.h ****       float value;
 293:../../stmlib/dsp/filter.h ****       if (mode == FILTER_MODE_LOW_PASS) {
 294:../../stmlib/dsp/filter.h ****         value = lp;
 295:../../stmlib/dsp/filter.h ****       } else if (mode == FILTER_MODE_BAND_PASS) {
 296:../../stmlib/dsp/filter.h ****         value = bp;
 297:../../stmlib/dsp/filter.h ****       } else if (mode == FILTER_MODE_BAND_PASS_NORMALIZED) {
 298:../../stmlib/dsp/filter.h ****         value = bp * r_;
 299:../../stmlib/dsp/filter.h ****       } else if (mode == FILTER_MODE_HIGH_PASS) {
 300:../../stmlib/dsp/filter.h ****         value = hp;
 301:../../stmlib/dsp/filter.h ****       }
 302:../../stmlib/dsp/filter.h ****       
 303:../../stmlib/dsp/filter.h ****       *out = value;
 304:../../stmlib/dsp/filter.h ****       ++out;
 305:../../stmlib/dsp/filter.h ****       ++in;
 306:../../stmlib/dsp/filter.h ****     }
 307:../../stmlib/dsp/filter.h ****     state_1_ = state_1;
 308:../../stmlib/dsp/filter.h ****     state_2_ = state_2;
 309:../../stmlib/dsp/filter.h ****   }
 310:../../stmlib/dsp/filter.h ****   
 311:../../stmlib/dsp/filter.h ****   template<FilterMode mode>
 312:../../stmlib/dsp/filter.h ****   inline void ProcessAdd(const float* in, float* out, size_t size, float gain) {
 313:../../stmlib/dsp/filter.h ****     float hp, bp, lp;
 314:../../stmlib/dsp/filter.h ****     float state_1 = state_1_;
 315:../../stmlib/dsp/filter.h ****     float state_2 = state_2_;
 316:../../stmlib/dsp/filter.h ****     
 317:../../stmlib/dsp/filter.h ****     while (size--) {
 318:../../stmlib/dsp/filter.h ****       hp = (*in - r_ * state_1 - g_ * state_1 - state_2) * h_;
 319:../../stmlib/dsp/filter.h ****       bp = g_ * hp + state_1;
 320:../../stmlib/dsp/filter.h ****       state_1 = g_ * hp + bp;
 321:../../stmlib/dsp/filter.h ****       lp = g_ * bp + state_2;
 322:../../stmlib/dsp/filter.h ****       state_2 = g_ * bp + lp;
 323:../../stmlib/dsp/filter.h ****     
 324:../../stmlib/dsp/filter.h ****       float value;
 325:../../stmlib/dsp/filter.h ****       if (mode == FILTER_MODE_LOW_PASS) {
 326:../../stmlib/dsp/filter.h ****         value = lp;
 327:../../stmlib/dsp/filter.h ****       } else if (mode == FILTER_MODE_BAND_PASS) {
 328:../../stmlib/dsp/filter.h ****         value = bp;
 329:../../stmlib/dsp/filter.h ****       } else if (mode == FILTER_MODE_BAND_PASS_NORMALIZED) {
 330:../../stmlib/dsp/filter.h ****         value = bp * r_;
 331:../../stmlib/dsp/filter.h ****       } else if (mode == FILTER_MODE_HIGH_PASS) {
 332:../../stmlib/dsp/filter.h ****         value = hp;
 333:../../stmlib/dsp/filter.h ****       }
 334:../../stmlib/dsp/filter.h ****       
 335:../../stmlib/dsp/filter.h ****       *out += gain * value;
 336:../../stmlib/dsp/filter.h ****       ++out;
 337:../../stmlib/dsp/filter.h ****       ++in;
 338:../../stmlib/dsp/filter.h ****     }
 339:../../stmlib/dsp/filter.h ****     state_1_ = state_1;
 340:../../stmlib/dsp/filter.h ****     state_2_ = state_2;
ARM GAS  C:\Users\daniel\AppData\Local\Temp\ccLc35Ca.s 			page 18


 341:../../stmlib/dsp/filter.h ****   }
 342:../../stmlib/dsp/filter.h ****   
 343:../../stmlib/dsp/filter.h ****   template<FilterMode mode>
 344:../../stmlib/dsp/filter.h ****   inline void Process(const float* in, float* out, size_t size, size_t stride) {
 345:../../stmlib/dsp/filter.h ****     float hp, bp, lp;
 346:../../stmlib/dsp/filter.h ****     float state_1 = state_1_;
 347:../../stmlib/dsp/filter.h ****     float state_2 = state_2_;
 348:../../stmlib/dsp/filter.h ****     
 349:../../stmlib/dsp/filter.h ****     while (size--) {
 350:../../stmlib/dsp/filter.h ****       hp = (*in - r_ * state_1 - g_ * state_1 - state_2) * h_;
 351:../../stmlib/dsp/filter.h ****       bp = g_ * hp + state_1;
 352:../../stmlib/dsp/filter.h ****       state_1 = g_ * hp + bp;
 353:../../stmlib/dsp/filter.h ****       lp = g_ * bp + state_2;
 354:../../stmlib/dsp/filter.h ****       state_2 = g_ * bp + lp;
 355:../../stmlib/dsp/filter.h ****     
 356:../../stmlib/dsp/filter.h ****       float value;
 357:../../stmlib/dsp/filter.h ****       if (mode == FILTER_MODE_LOW_PASS) {
 358:../../stmlib/dsp/filter.h ****         value = lp;
 359:../../stmlib/dsp/filter.h ****       } else if (mode == FILTER_MODE_BAND_PASS) {
 360:../../stmlib/dsp/filter.h ****         value = bp;
 361:../../stmlib/dsp/filter.h ****       } else if (mode == FILTER_MODE_BAND_PASS_NORMALIZED) {
 362:../../stmlib/dsp/filter.h ****         value = bp * r_;
 363:../../stmlib/dsp/filter.h ****       } else if (mode == FILTER_MODE_HIGH_PASS) {
 364:../../stmlib/dsp/filter.h ****         value = hp;
 365:../../stmlib/dsp/filter.h ****       }
 366:../../stmlib/dsp/filter.h ****       
 367:../../stmlib/dsp/filter.h ****       *out = value;
 368:../../stmlib/dsp/filter.h ****       out += stride;
 369:../../stmlib/dsp/filter.h ****       in += stride;
 370:../../stmlib/dsp/filter.h ****     }
 371:../../stmlib/dsp/filter.h ****     state_1_ = state_1;
 372:../../stmlib/dsp/filter.h ****     state_2_ = state_2;
 373:../../stmlib/dsp/filter.h ****   }
 374:../../stmlib/dsp/filter.h ****   
 375:../../stmlib/dsp/filter.h ****   inline void ProcessMultimode(
 376:../../stmlib/dsp/filter.h ****       const float* in,
 377:../../stmlib/dsp/filter.h ****       float* out,
 378:../../stmlib/dsp/filter.h ****       size_t size,
 379:../../stmlib/dsp/filter.h ****       float mode) {
 380:../../stmlib/dsp/filter.h ****     float hp, bp, lp;
 381:../../stmlib/dsp/filter.h ****     float state_1 = state_1_;
 382:../../stmlib/dsp/filter.h ****     float state_2 = state_2_;
 383:../../stmlib/dsp/filter.h ****     float hp_gain = mode < 0.5f ? -mode * 2.0f : -2.0f + mode * 2.0f;
 384:../../stmlib/dsp/filter.h ****     float lp_gain = mode < 0.5f ? 1.0f - mode * 2.0f : 0.0f;
 385:../../stmlib/dsp/filter.h ****     float bp_gain = mode < 0.5f ? 0.0f : mode * 2.0f - 1.0f;
 386:../../stmlib/dsp/filter.h ****     while (size--) {
 387:../../stmlib/dsp/filter.h ****       hp = (*in - r_ * state_1 - g_ * state_1 - state_2) * h_;
 388:../../stmlib/dsp/filter.h ****       bp = g_ * hp + state_1;
 389:../../stmlib/dsp/filter.h ****       state_1 = g_ * hp + bp;
 390:../../stmlib/dsp/filter.h ****       lp = g_ * bp + state_2;
 391:../../stmlib/dsp/filter.h ****       state_2 = g_ * bp + lp;
 392:../../stmlib/dsp/filter.h ****       *out = hp_gain * hp + bp_gain * bp + lp_gain * lp;
 393:../../stmlib/dsp/filter.h ****       ++in;
 394:../../stmlib/dsp/filter.h ****       ++out;
 395:../../stmlib/dsp/filter.h ****     }
 396:../../stmlib/dsp/filter.h ****     state_1_ = state_1;
 397:../../stmlib/dsp/filter.h ****     state_2_ = state_2;
ARM GAS  C:\Users\daniel\AppData\Local\Temp\ccLc35Ca.s 			page 19


 398:../../stmlib/dsp/filter.h ****   }
 399:../../stmlib/dsp/filter.h ****   
 400:../../stmlib/dsp/filter.h ****   inline void ProcessMultimodeLPtoHP(
 401:../../stmlib/dsp/filter.h ****       const float* in,
 402:../../stmlib/dsp/filter.h ****       float* out,
 403:../../stmlib/dsp/filter.h ****       size_t size,
 404:../../stmlib/dsp/filter.h ****       float mode) {
 405:../../stmlib/dsp/filter.h ****     float hp, bp, lp;
 406:../../stmlib/dsp/filter.h ****     float state_1 = state_1_;
 407:../../stmlib/dsp/filter.h ****     float state_2 = state_2_;
 408:../../stmlib/dsp/filter.h ****     float hp_gain = std::min(-mode * 2.0f + 1.0f, 0.0f);
 409:../../stmlib/dsp/filter.h ****     float bp_gain = 1.0f - 2.0f * fabsf(mode - 0.5f);
 410:../../stmlib/dsp/filter.h ****     float lp_gain = std::max(1.0f - mode * 2.0f, 0.0f);
 411:../../stmlib/dsp/filter.h ****     while (size--) {
 412:../../stmlib/dsp/filter.h ****       hp = (*in - r_ * state_1 - g_ * state_1 - state_2) * h_;
 413:../../stmlib/dsp/filter.h ****       bp = g_ * hp + state_1;
 414:../../stmlib/dsp/filter.h ****       state_1 = g_ * hp + bp;
 415:../../stmlib/dsp/filter.h ****       lp = g_ * bp + state_2;
 416:../../stmlib/dsp/filter.h ****       state_2 = g_ * bp + lp;
 417:../../stmlib/dsp/filter.h ****       *out = hp_gain * hp + bp_gain * bp + lp_gain * lp;
 418:../../stmlib/dsp/filter.h ****       ++in;
 419:../../stmlib/dsp/filter.h ****       ++out;
 420:../../stmlib/dsp/filter.h ****     }
 421:../../stmlib/dsp/filter.h ****     state_1_ = state_1;
 422:../../stmlib/dsp/filter.h ****     state_2_ = state_2;
 423:../../stmlib/dsp/filter.h ****   }
 424:../../stmlib/dsp/filter.h ****   
 425:../../stmlib/dsp/filter.h ****   template<FilterMode mode>
 426:../../stmlib/dsp/filter.h ****   inline void Process(
 427:../../stmlib/dsp/filter.h ****       const float* in, float* out_1, float* out_2, size_t size,
 428:../../stmlib/dsp/filter.h ****       float gain_1, float gain_2) {
 429:../../stmlib/dsp/filter.h ****     float hp, bp, lp;
 430:../../stmlib/dsp/filter.h ****     float state_1 = state_1_;
 431:../../stmlib/dsp/filter.h ****     float state_2 = state_2_;
 432:../../stmlib/dsp/filter.h ****     
 433:../../stmlib/dsp/filter.h ****     while (size--) {
 434:../../stmlib/dsp/filter.h ****       hp = (*in - r_ * state_1 - g_ * state_1 - state_2) * h_;
 435:../../stmlib/dsp/filter.h ****       bp = g_ * hp + state_1;
 436:../../stmlib/dsp/filter.h ****       state_1 = g_ * hp + bp;
 437:../../stmlib/dsp/filter.h ****       lp = g_ * bp + state_2;
 438:../../stmlib/dsp/filter.h ****       state_2 = g_ * bp + lp;
 439:../../stmlib/dsp/filter.h ****     
 440:../../stmlib/dsp/filter.h ****       float value;
 441:../../stmlib/dsp/filter.h ****       if (mode == FILTER_MODE_LOW_PASS) {
 442:../../stmlib/dsp/filter.h ****         value = lp;
 443:../../stmlib/dsp/filter.h ****       } else if (mode == FILTER_MODE_BAND_PASS) {
 444:../../stmlib/dsp/filter.h ****         value = bp;
 445:../../stmlib/dsp/filter.h ****       } else if (mode == FILTER_MODE_BAND_PASS_NORMALIZED) {
 446:../../stmlib/dsp/filter.h ****         value = bp * r_;
 447:../../stmlib/dsp/filter.h ****       } else if (mode == FILTER_MODE_HIGH_PASS) {
 448:../../stmlib/dsp/filter.h ****         value = hp;
 449:../../stmlib/dsp/filter.h ****       }
 450:../../stmlib/dsp/filter.h ****       
 451:../../stmlib/dsp/filter.h ****       *out_1 += value * gain_1;
 452:../../stmlib/dsp/filter.h ****       *out_2 += value * gain_2;
 453:../../stmlib/dsp/filter.h ****       ++out_1;
 454:../../stmlib/dsp/filter.h ****       ++out_2;
ARM GAS  C:\Users\daniel\AppData\Local\Temp\ccLc35Ca.s 			page 20


 455:../../stmlib/dsp/filter.h ****       ++in;
 456:../../stmlib/dsp/filter.h ****     }
 457:../../stmlib/dsp/filter.h ****     state_1_ = state_1;
 458:../../stmlib/dsp/filter.h ****     state_2_ = state_2;
 459:../../stmlib/dsp/filter.h ****   }
 460:../../stmlib/dsp/filter.h ****   
 461:../../stmlib/dsp/filter.h ****   inline float g() const { return g_; }
 462:../../stmlib/dsp/filter.h ****   inline float r() const { return r_; }
 463:../../stmlib/dsp/filter.h ****   inline float h() const { return h_; }
 464:../../stmlib/dsp/filter.h ****   
 465:../../stmlib/dsp/filter.h ****  private:
 466:../../stmlib/dsp/filter.h ****   float g_;
 467:../../stmlib/dsp/filter.h ****   float r_;
 468:../../stmlib/dsp/filter.h ****   float h_;
 469:../../stmlib/dsp/filter.h **** 
 470:../../stmlib/dsp/filter.h ****   float state_1_;
 471:../../stmlib/dsp/filter.h ****   float state_2_;
 472:../../stmlib/dsp/filter.h ****   
 473:../../stmlib/dsp/filter.h ****   DISALLOW_COPY_AND_ASSIGN(Svf);
 474:../../stmlib/dsp/filter.h **** };
 475:../../stmlib/dsp/filter.h **** 
 476:../../stmlib/dsp/filter.h **** 
 477:../../stmlib/dsp/filter.h **** 
 478:../../stmlib/dsp/filter.h **** // Naive Chamberlin SVF.
 479:../../stmlib/dsp/filter.h **** class NaiveSvf {
 480:../../stmlib/dsp/filter.h ****  public:
 481:../../stmlib/dsp/filter.h ****   NaiveSvf() { }
 482:../../stmlib/dsp/filter.h ****   ~NaiveSvf() { }
  98              		.loc 9 482 3 is_stmt 1 view .LVU14
  99              		.loc 9 482 3 is_stmt 0 view .LVU15
 100              	.LBE1020:
 101              	.LBB1021:
 102              	.LBI1021:
 103              		.loc 9 482 3 is_stmt 1 view .LVU16
 104              		.loc 9 482 3 is_stmt 0 view .LVU17
 105              	.LBE1021:
 106              	.LBB1022:
 107              	.LBI1022:
  95:./dsp/onset_detector.h **** 
 108              		.loc 8 95 5 is_stmt 1 view .LVU18
  95:./dsp/onset_detector.h **** 
 109              		.loc 8 95 5 is_stmt 0 view .LVU19
 110              	.LBE1022:
 111              	.LBE1018:
 112              		.loc 7 43 18 view .LVU20
 113 0000 7047     		bx	lr
 114              		.cfi_endproc
 115              	.LFE1675:
 117              		.weak	_ZN5torus8StrummerD1Ev
 118              		.thumb_set _ZN5torus8StrummerD1Ev,_ZN5torus8StrummerD2Ev
 119              		.section	.text._ZN5torus15StringSynthPartD2Ev,"axG",%progbits,_ZN5torus15StringSynthPartD5Ev,comda
 120              		.align	1
 121              		.weak	_ZN5torus15StringSynthPartD2Ev
 122              		.syntax unified
 123              		.thumb
 124              		.thumb_func
 125              		.fpu fpv5-d16
ARM GAS  C:\Users\daniel\AppData\Local\Temp\ccLc35Ca.s 			page 21


 127              	_ZN5torus15StringSynthPartD2Ev:
 128              	.LVL2:
 129              	.LFB1749:
 130              		.file 10 "dsp/string_synth_part.h"
   1:dsp/string_synth_part.h **** // Copyright 2015 Emilie Gillet.
   2:dsp/string_synth_part.h **** //
   3:dsp/string_synth_part.h **** // Author: Emilie Gillet (emilie.o.gillet@gmail.com)
   4:dsp/string_synth_part.h **** //
   5:dsp/string_synth_part.h **** // Permission is hereby granted, free of charge, to any person obtaining a copy
   6:dsp/string_synth_part.h **** // of this software and associated documentation files (the "Software"), to deal
   7:dsp/string_synth_part.h **** // in the Software without restriction, including without limitation the rights
   8:dsp/string_synth_part.h **** // to use, copy, modify, merge, publish, distribute, sublicense, and/or sell
   9:dsp/string_synth_part.h **** // copies of the Software, and to permit persons to whom the Software is
  10:dsp/string_synth_part.h **** // furnished to do so, subject to the following conditions:
  11:dsp/string_synth_part.h **** //
  12:dsp/string_synth_part.h **** // The above copyright notice and this permission notice shall be included in
  13:dsp/string_synth_part.h **** // all copies or substantial portions of the Software.
  14:dsp/string_synth_part.h **** //
  15:dsp/string_synth_part.h **** // THE SOFTWARE IS PROVIDED "AS IS", WITHOUT WARRANTY OF ANY KIND, EXPRESS OR
  16:dsp/string_synth_part.h **** // IMPLIED, INCLUDING BUT NOT LIMITED TO THE WARRANTIES OF MERCHANTABILITY,
  17:dsp/string_synth_part.h **** // FITNESS FOR A PARTICULAR PURPOSE AND NONINFRINGEMENT. IN NO EVENT SHALL THE
  18:dsp/string_synth_part.h **** // AUTHORS OR COPYRIGHT HOLDERS BE LIABLE FOR ANY CLAIM, DAMAGES OR OTHER
  19:dsp/string_synth_part.h **** // LIABILITY, WHETHER IN AN ACTION OF CONTRACT, TORT OR OTHERWISE, ARISING FROM,
  20:dsp/string_synth_part.h **** // OUT OF OR IN CONNECTION WITH THE SOFTWARE OR THE USE OR OTHER DEALINGS IN
  21:dsp/string_synth_part.h **** // THE SOFTWARE.
  22:dsp/string_synth_part.h **** //
  23:dsp/string_synth_part.h **** // See http://creativecommons.org/licenses/MIT/ for more information.
  24:dsp/string_synth_part.h **** //
  25:dsp/string_synth_part.h **** // -----------------------------------------------------------------------------
  26:dsp/string_synth_part.h **** //
  27:dsp/string_synth_part.h **** // Part for the string synth easter egg.
  28:dsp/string_synth_part.h **** 
  29:dsp/string_synth_part.h **** #ifndef TORUS_DSP_STRING_SYNTH_PART_H_
  30:dsp/string_synth_part.h **** #define TORUS_DSP_STRING_SYNTH_PART_H_
  31:dsp/string_synth_part.h **** 
  32:dsp/string_synth_part.h **** #include "stmlib/stmlib.h"
  33:dsp/string_synth_part.h **** 
  34:dsp/string_synth_part.h **** #include "stmlib/dsp/filter.h"
  35:dsp/string_synth_part.h **** 
  36:dsp/string_synth_part.h **** #include "dsp/dsp.h"
  37:dsp/string_synth_part.h **** #include "dsp/fx/chorus.h"
  38:dsp/string_synth_part.h **** #include "dsp/fx/ensemble.h"
  39:dsp/string_synth_part.h **** #include "dsp/fx/reverb.h"
  40:dsp/string_synth_part.h **** #include "dsp/limiter.h"
  41:dsp/string_synth_part.h **** #include "dsp/note_filter.h"
  42:dsp/string_synth_part.h **** #include "dsp/patch.h"
  43:dsp/string_synth_part.h **** #include "dsp/performance_state.h"
  44:dsp/string_synth_part.h **** #include "dsp/string_synth_envelope.h"
  45:dsp/string_synth_part.h **** #include "dsp/string_synth_voice.h"
  46:dsp/string_synth_part.h **** 
  47:dsp/string_synth_part.h **** namespace torus
  48:dsp/string_synth_part.h **** {
  49:dsp/string_synth_part.h **** const int32_t kMaxStringSynthPolyphony = 4;
  50:dsp/string_synth_part.h **** const int32_t kStringSynthVoices       = 12;
  51:dsp/string_synth_part.h **** const int32_t kMaxChordSize            = 8;
  52:dsp/string_synth_part.h **** const int32_t kNumHarmonics            = 3;
  53:dsp/string_synth_part.h **** const int32_t kNumFormants             = 3;
ARM GAS  C:\Users\daniel\AppData\Local\Temp\ccLc35Ca.s 			page 22


  54:dsp/string_synth_part.h **** 
  55:dsp/string_synth_part.h **** enum FxType
  56:dsp/string_synth_part.h **** {
  57:dsp/string_synth_part.h ****     FX_FORMANT,
  58:dsp/string_synth_part.h ****     FX_CHORUS,
  59:dsp/string_synth_part.h ****     FX_REVERB,
  60:dsp/string_synth_part.h ****     FX_FORMANT_2,
  61:dsp/string_synth_part.h ****     FX_ENSEMBLE,
  62:dsp/string_synth_part.h ****     FX_REVERB_2,
  63:dsp/string_synth_part.h ****     FX_LAST
  64:dsp/string_synth_part.h **** };
  65:dsp/string_synth_part.h **** 
  66:dsp/string_synth_part.h **** struct VoiceGroup
  67:dsp/string_synth_part.h **** {
  68:dsp/string_synth_part.h ****     float               tonic;
  69:dsp/string_synth_part.h ****     StringSynthEnvelope envelope;
  70:dsp/string_synth_part.h ****     int32_t             chord;
  71:dsp/string_synth_part.h ****     float               structure;
  72:dsp/string_synth_part.h **** };
  73:dsp/string_synth_part.h **** 
  74:dsp/string_synth_part.h **** class StringSynthPart
  75:dsp/string_synth_part.h **** {
  76:dsp/string_synth_part.h ****   public:
  77:dsp/string_synth_part.h ****     StringSynthPart() {}
  78:dsp/string_synth_part.h ****     ~StringSynthPart() {}
 131              		.loc 10 78 5 is_stmt 1 view -0
 132              		.cfi_startproc
 133              		@ args = 0, pretend = 0, frame = 0
 134              		@ frame_needed = 0, uses_anonymous_args = 0
 135              		@ link register save eliminated.
 136              	.LBB1023:
 137              	.LBI1023:
 138              		.loc 5 45 5 view .LVU22
 139              	.LBB1024:
 140              	.LBI1024:
 141              		.loc 6 43 3 view .LVU23
 142              		.loc 6 43 3 is_stmt 0 view .LVU24
 143              	.LBE1024:
 144              	.LBE1023:
 145              	.LBB1025:
 146              	.LBI1025:
 147              		.loc 2 45 5 is_stmt 1 view .LVU25
 148              		.loc 2 45 5 is_stmt 0 view .LVU26
 149              	.LBE1025:
 150              	.LBB1026:
 151              	.LBI1026:
 152              		.file 11 "./dsp/fx/chorus.h"
   1:./dsp/fx/chorus.h **** // Copyright 2014 Emilie Gillet.
   2:./dsp/fx/chorus.h **** //
   3:./dsp/fx/chorus.h **** // Author: Emilie Gillet (emilie.o.gillet@gmail.com)
   4:./dsp/fx/chorus.h **** //
   5:./dsp/fx/chorus.h **** // Permission is hereby granted, free of charge, to any person obtaining a copy
   6:./dsp/fx/chorus.h **** // of this software and associated documentation files (the "Software"), to deal
   7:./dsp/fx/chorus.h **** // in the Software without restriction, including without limitation the rights
   8:./dsp/fx/chorus.h **** // to use, copy, modify, merge, publish, distribute, sublicense, and/or sell
   9:./dsp/fx/chorus.h **** // copies of the Software, and to permit persons to whom the Software is
  10:./dsp/fx/chorus.h **** // furnished to do so, subject to the following conditions:
ARM GAS  C:\Users\daniel\AppData\Local\Temp\ccLc35Ca.s 			page 23


  11:./dsp/fx/chorus.h **** //
  12:./dsp/fx/chorus.h **** // The above copyright notice and this permission notice shall be included in
  13:./dsp/fx/chorus.h **** // all copies or substantial portions of the Software.
  14:./dsp/fx/chorus.h **** //
  15:./dsp/fx/chorus.h **** // THE SOFTWARE IS PROVIDED "AS IS", WITHOUT WARRANTY OF ANY KIND, EXPRESS OR
  16:./dsp/fx/chorus.h **** // IMPLIED, INCLUDING BUT NOT LIMITED TO THE WARRANTIES OF MERCHANTABILITY,
  17:./dsp/fx/chorus.h **** // FITNESS FOR A PARTICULAR PURPOSE AND NONINFRINGEMENT. IN NO EVENT SHALL THE
  18:./dsp/fx/chorus.h **** // AUTHORS OR COPYRIGHT HOLDERS BE LIABLE FOR ANY CLAIM, DAMAGES OR OTHER
  19:./dsp/fx/chorus.h **** // LIABILITY, WHETHER IN AN ACTION OF CONTRACT, TORT OR OTHERWISE, ARISING FROM,
  20:./dsp/fx/chorus.h **** // OUT OF OR IN CONNECTION WITH THE SOFTWARE OR THE USE OR OTHER DEALINGS IN
  21:./dsp/fx/chorus.h **** // THE SOFTWARE.
  22:./dsp/fx/chorus.h **** //
  23:./dsp/fx/chorus.h **** // See http://creativecommons.org/licenses/MIT/ for more information.
  24:./dsp/fx/chorus.h **** //
  25:./dsp/fx/chorus.h **** // -----------------------------------------------------------------------------
  26:./dsp/fx/chorus.h **** //
  27:./dsp/fx/chorus.h **** // Chorus.
  28:./dsp/fx/chorus.h **** 
  29:./dsp/fx/chorus.h **** #ifndef TORUS_DSP_FX_CHORUS_H_
  30:./dsp/fx/chorus.h **** #define TORUS_DSP_FX_CHORUS_H_
  31:./dsp/fx/chorus.h **** 
  32:./dsp/fx/chorus.h **** #include "stmlib/stmlib.h"
  33:./dsp/fx/chorus.h **** 
  34:./dsp/fx/chorus.h **** #include "stmlib/dsp/dsp.h"
  35:./dsp/fx/chorus.h **** 
  36:./dsp/fx/chorus.h **** #include "dsp/fx/fx_engine.h"
  37:./dsp/fx/chorus.h **** #include "resources.h"
  38:./dsp/fx/chorus.h **** 
  39:./dsp/fx/chorus.h **** namespace torus
  40:./dsp/fx/chorus.h **** {
  41:./dsp/fx/chorus.h **** class Chorus
  42:./dsp/fx/chorus.h **** {
  43:./dsp/fx/chorus.h ****   public:
  44:./dsp/fx/chorus.h ****     Chorus() {}
  45:./dsp/fx/chorus.h ****     ~Chorus() {}
 153              		.loc 11 45 5 is_stmt 1 view .LVU27
 154              	.LBB1027:
 155              	.LBI1027:
 156              		.loc 4 115 5 view .LVU28
 157              		.loc 4 115 5 is_stmt 0 view .LVU29
 158              	.LBE1027:
 159              	.LBE1026:
 160              	.LBB1028:
 161              	.LBI1028:
 162              		.loc 3 42 5 is_stmt 1 view .LVU30
 163              	.LBB1029:
 164              	.LBI1029:
 165              		.loc 4 115 5 view .LVU31
 166              		.loc 4 115 5 is_stmt 0 view .LVU32
 167              	.LBE1029:
 168              	.LBE1028:
 169              	.LBB1030:
 170              	.LBI1030:
 171              		.file 12 "./dsp/fx/ensemble.h"
   1:./dsp/fx/ensemble.h **** // Copyright 2014 Emilie Gillet.
   2:./dsp/fx/ensemble.h **** //
   3:./dsp/fx/ensemble.h **** // Author: Emilie Gillet (emilie.o.gillet@gmail.com)
ARM GAS  C:\Users\daniel\AppData\Local\Temp\ccLc35Ca.s 			page 24


   4:./dsp/fx/ensemble.h **** //
   5:./dsp/fx/ensemble.h **** // Permission is hereby granted, free of charge, to any person obtaining a copy
   6:./dsp/fx/ensemble.h **** // of this software and associated documentation files (the "Software"), to deal
   7:./dsp/fx/ensemble.h **** // in the Software without restriction, including without limitation the rights
   8:./dsp/fx/ensemble.h **** // to use, copy, modify, merge, publish, distribute, sublicense, and/or sell
   9:./dsp/fx/ensemble.h **** // copies of the Software, and to permit persons to whom the Software is
  10:./dsp/fx/ensemble.h **** // furnished to do so, subject to the following conditions:
  11:./dsp/fx/ensemble.h **** //
  12:./dsp/fx/ensemble.h **** // The above copyright notice and this permission notice shall be included in
  13:./dsp/fx/ensemble.h **** // all copies or substantial portions of the Software.
  14:./dsp/fx/ensemble.h **** //
  15:./dsp/fx/ensemble.h **** // THE SOFTWARE IS PROVIDED "AS IS", WITHOUT WARRANTY OF ANY KIND, EXPRESS OR
  16:./dsp/fx/ensemble.h **** // IMPLIED, INCLUDING BUT NOT LIMITED TO THE WARRANTIES OF MERCHANTABILITY,
  17:./dsp/fx/ensemble.h **** // FITNESS FOR A PARTICULAR PURPOSE AND NONINFRINGEMENT. IN NO EVENT SHALL THE
  18:./dsp/fx/ensemble.h **** // AUTHORS OR COPYRIGHT HOLDERS BE LIABLE FOR ANY CLAIM, DAMAGES OR OTHER
  19:./dsp/fx/ensemble.h **** // LIABILITY, WHETHER IN AN ACTION OF CONTRACT, TORT OR OTHERWISE, ARISING FROM,
  20:./dsp/fx/ensemble.h **** // OUT OF OR IN CONNECTION WITH THE SOFTWARE OR THE USE OR OTHER DEALINGS IN
  21:./dsp/fx/ensemble.h **** // THE SOFTWARE.
  22:./dsp/fx/ensemble.h **** //
  23:./dsp/fx/ensemble.h **** // See http://creativecommons.org/licenses/MIT/ for more information.
  24:./dsp/fx/ensemble.h **** //
  25:./dsp/fx/ensemble.h **** // -----------------------------------------------------------------------------
  26:./dsp/fx/ensemble.h **** //
  27:./dsp/fx/ensemble.h **** // Ensemble FX.
  28:./dsp/fx/ensemble.h **** 
  29:./dsp/fx/ensemble.h **** #ifndef TORUS_DSP_FX_ENSEMBLE_H_
  30:./dsp/fx/ensemble.h **** #define TORUS_DSP_FX_ENSEMBLE_H_
  31:./dsp/fx/ensemble.h **** 
  32:./dsp/fx/ensemble.h **** #include "stmlib/stmlib.h"
  33:./dsp/fx/ensemble.h **** 
  34:./dsp/fx/ensemble.h **** #include "stmlib/dsp/dsp.h"
  35:./dsp/fx/ensemble.h **** 
  36:./dsp/fx/ensemble.h **** #include "dsp/fx/fx_engine.h"
  37:./dsp/fx/ensemble.h **** #include "resources.h"
  38:./dsp/fx/ensemble.h **** 
  39:./dsp/fx/ensemble.h **** namespace torus
  40:./dsp/fx/ensemble.h **** {
  41:./dsp/fx/ensemble.h **** class Ensemble
  42:./dsp/fx/ensemble.h **** {
  43:./dsp/fx/ensemble.h ****   public:
  44:./dsp/fx/ensemble.h ****     Ensemble() {}
  45:./dsp/fx/ensemble.h ****     ~Ensemble() {}
 172              		.loc 12 45 5 is_stmt 1 view .LVU33
 173              	.LBB1031:
 174              	.LBI1031:
 175              		.loc 4 115 5 view .LVU34
 176              		.loc 4 115 5 is_stmt 0 view .LVU35
 177              	.LBE1031:
 178              	.LBE1030:
 179              		.loc 10 78 25 view .LVU36
 180 0000 7047     		bx	lr
 181              		.cfi_endproc
 182              	.LFE1749:
 184              		.weak	_ZN5torus15StringSynthPartD1Ev
 185              		.thumb_set _ZN5torus15StringSynthPartD1Ev,_ZN5torus15StringSynthPartD2Ev
 186              		.section	.text._ZN5torus8CvScalerD2Ev,"axG",%progbits,_ZN5torus8CvScalerD5Ev,comdat
 187              		.align	1
ARM GAS  C:\Users\daniel\AppData\Local\Temp\ccLc35Ca.s 			page 25


 188              		.weak	_ZN5torus8CvScalerD2Ev
 189              		.syntax unified
 190              		.thumb
 191              		.thumb_func
 192              		.fpu fpv5-d16
 194              	_ZN5torus8CvScalerD2Ev:
 195              	.LVL3:
 196              	.LFB1757:
 197              		.file 13 "cv_scaler.h"
   1:cv_scaler.h   **** // Copyright 2015 Emilie Gillet.
   2:cv_scaler.h   **** //
   3:cv_scaler.h   **** // Author: Emilie Gillet (emilie.o.gillet@gmail.com)
   4:cv_scaler.h   **** //
   5:cv_scaler.h   **** // Permission is hereby granted, free of charge, to any person obtaining a copy
   6:cv_scaler.h   **** // of this software and associated documentation files (the "Software"), to deal
   7:cv_scaler.h   **** // in the Software without restriction, including without limitation the rights
   8:cv_scaler.h   **** // to use, copy, modify, merge, publish, distribute, sublicense, and/or sell
   9:cv_scaler.h   **** // copies of the Software, and to permit persons to whom the Software is
  10:cv_scaler.h   **** // furnished to do so, subject to the following conditions:
  11:cv_scaler.h   **** //
  12:cv_scaler.h   **** // The above copyright notice and this permission notice shall be included in
  13:cv_scaler.h   **** // all copies or substantial portions of the Software.
  14:cv_scaler.h   **** //
  15:cv_scaler.h   **** // THE SOFTWARE IS PROVIDED "AS IS", WITHOUT WARRANTY OF ANY KIND, EXPRESS OR
  16:cv_scaler.h   **** // IMPLIED, INCLUDING BUT NOT LIMITED TO THE WARRANTIES OF MERCHANTABILITY,
  17:cv_scaler.h   **** // FITNESS FOR A PARTICULAR PURPOSE AND NONINFRINGEMENT. IN NO EVENT SHALL THE
  18:cv_scaler.h   **** // AUTHORS OR COPYRIGHT HOLDERS BE LIABLE FOR ANY CLAIM, DAMAGES OR OTHER
  19:cv_scaler.h   **** // LIABILITY, WHETHER IN AN ACTION OF CONTRACT, TORT OR OTHERWISE, ARISING FROM,
  20:cv_scaler.h   **** // OUT OF OR IN CONNECTION WITH THE SOFTWARE OR THE USE OR OTHER DEALINGS IN
  21:cv_scaler.h   **** // THE SOFTWARE.
  22:cv_scaler.h   **** //
  23:cv_scaler.h   **** // See http://creativecommons.org/licenses/MIT/ for more information.
  24:cv_scaler.h   **** //
  25:cv_scaler.h   **** // -----------------------------------------------------------------------------
  26:cv_scaler.h   **** //
  27:cv_scaler.h   **** // Filtering and scaling of ADC values + input calibration.
  28:cv_scaler.h   **** 
  29:cv_scaler.h   **** #ifndef TORUS_CV_SCALER_H_
  30:cv_scaler.h   **** #define TORUS_CV_SCALER_H_
  31:cv_scaler.h   **** 
  32:cv_scaler.h   **** #include "stmlib/stmlib.h"
  33:cv_scaler.h   **** 
  34:cv_scaler.h   **** namespace torus
  35:cv_scaler.h   **** {
  36:cv_scaler.h   **** enum Law
  37:cv_scaler.h   **** {
  38:cv_scaler.h   ****     LAW_LINEAR,
  39:cv_scaler.h   ****     LAW_QUADRATIC_BIPOLAR,
  40:cv_scaler.h   ****     LAW_QUARTIC_BIPOLAR
  41:cv_scaler.h   **** };
  42:cv_scaler.h   **** 
  43:cv_scaler.h   **** struct ChannelSettings
  44:cv_scaler.h   **** {
  45:cv_scaler.h   ****     Law   law;
  46:cv_scaler.h   ****     bool  remove_offset;
  47:cv_scaler.h   ****     float lp_coefficient;
  48:cv_scaler.h   **** };
ARM GAS  C:\Users\daniel\AppData\Local\Temp\ccLc35Ca.s 			page 26


  49:cv_scaler.h   **** 
  50:cv_scaler.h   **** enum Channels
  51:cv_scaler.h   **** {
  52:cv_scaler.h   ****     POT_FREQUENCY,
  53:cv_scaler.h   ****     POT_STRUCTURE,
  54:cv_scaler.h   ****     POT_BRIGHTNESS,
  55:cv_scaler.h   ****     POT_DAMPING,
  56:cv_scaler.h   ****     POT_POSITION,
  57:cv_scaler.h   ****     CHAN_LAST
  58:cv_scaler.h   **** };
  59:cv_scaler.h   **** 
  60:cv_scaler.h   **** struct Patch;
  61:cv_scaler.h   **** struct PerformanceState;
  62:cv_scaler.h   **** 
  63:cv_scaler.h   **** class CvScaler
  64:cv_scaler.h   **** {
  65:cv_scaler.h   ****   public:
  66:cv_scaler.h   ****     CvScaler() {}
  67:cv_scaler.h   ****     ~CvScaler() {}
 198              		.loc 13 67 5 is_stmt 1 view -0
 199              		.cfi_startproc
 200              		@ args = 0, pretend = 0, frame = 0
 201              		@ frame_needed = 0, uses_anonymous_args = 0
 202              		@ link register save eliminated.
 203              		.loc 13 67 18 is_stmt 0 view .LVU38
 204 0000 7047     		bx	lr
 205              		.cfi_endproc
 206              	.LFE1757:
 208              		.weak	_ZN5torus8CvScalerD1Ev
 209              		.thumb_set _ZN5torus8CvScalerD1Ev,_ZN5torus8CvScalerD2Ev
 210              		.section	.text._ZN5daisy7EncoderD2Ev,"axG",%progbits,_ZN5daisy7EncoderD5Ev,comdat
 211              		.align	1
 212              		.weak	_ZN5daisy7EncoderD2Ev
 213              		.syntax unified
 214              		.thumb
 215              		.thumb_func
 216              		.fpu fpv5-d16
 218              	_ZN5daisy7EncoderD2Ev:
 219              	.LVL4:
 220              	.LFB1995:
 221              		.file 14 "../../libDaisy/src/hid/encoder.h"
   1:../../libDaisy/src/hid/encoder.h **** #pragma once
   2:../../libDaisy/src/hid/encoder.h **** #ifndef DSY_ENCODER_H
   3:../../libDaisy/src/hid/encoder.h **** #define DSY_ENCODER_H
   4:../../libDaisy/src/hid/encoder.h **** #include "daisy_core.h"
   5:../../libDaisy/src/hid/encoder.h **** #include "per/gpio.h"
   6:../../libDaisy/src/hid/encoder.h **** #include "hid/switch.h"
   7:../../libDaisy/src/hid/encoder.h **** 
   8:../../libDaisy/src/hid/encoder.h **** namespace daisy
   9:../../libDaisy/src/hid/encoder.h **** {
  10:../../libDaisy/src/hid/encoder.h **** /** 
  11:../../libDaisy/src/hid/encoder.h ****     @brief Generic Class for handling Quadrature Encoders \n 
  12:../../libDaisy/src/hid/encoder.h ****     Inspired/influenced by Mutable Instruments (pichenettes) Encoder classes
  13:../../libDaisy/src/hid/encoder.h ****     @author Stephen Hensley
  14:../../libDaisy/src/hid/encoder.h ****     @date December 2019
  15:../../libDaisy/src/hid/encoder.h ****     @ingroup controls
  16:../../libDaisy/src/hid/encoder.h **** */
ARM GAS  C:\Users\daniel\AppData\Local\Temp\ccLc35Ca.s 			page 27


  17:../../libDaisy/src/hid/encoder.h **** class Encoder
  18:../../libDaisy/src/hid/encoder.h **** {
  19:../../libDaisy/src/hid/encoder.h ****   public:
  20:../../libDaisy/src/hid/encoder.h ****     Encoder() {}
  21:../../libDaisy/src/hid/encoder.h ****     ~Encoder() {}
 222              		.loc 14 21 5 is_stmt 1 view -0
 223              		.cfi_startproc
 224              		@ args = 0, pretend = 0, frame = 0
 225              		@ frame_needed = 0, uses_anonymous_args = 0
 226              		@ link register save eliminated.
 227              	.LBB1032:
 228              	.LBI1032:
 229              		.file 15 "../../libDaisy/src/hid/switch.h"
   1:../../libDaisy/src/hid/switch.h **** #pragma once
   2:../../libDaisy/src/hid/switch.h **** #ifndef DSY_SWITCH_H
   3:../../libDaisy/src/hid/switch.h **** #define DSY_SWITCH_H
   4:../../libDaisy/src/hid/switch.h **** #include "daisy_core.h"
   5:../../libDaisy/src/hid/switch.h **** #include "per/gpio.h"
   6:../../libDaisy/src/hid/switch.h **** #include "sys/system.h"
   7:../../libDaisy/src/hid/switch.h **** 
   8:../../libDaisy/src/hid/switch.h **** namespace daisy
   9:../../libDaisy/src/hid/switch.h **** {
  10:../../libDaisy/src/hid/switch.h **** /** 
  11:../../libDaisy/src/hid/switch.h ****     Generic Class for handling momentary/latching switches \n 
  12:../../libDaisy/src/hid/switch.h ****     Inspired/influenced by Mutable Instruments (pichenettes) Switch classes
  13:../../libDaisy/src/hid/switch.h ****     @author Stephen Hensley
  14:../../libDaisy/src/hid/switch.h ****     @date December 2019
  15:../../libDaisy/src/hid/switch.h ****     @ingroup controls
  16:../../libDaisy/src/hid/switch.h **** */
  17:../../libDaisy/src/hid/switch.h **** class Switch
  18:../../libDaisy/src/hid/switch.h **** {
  19:../../libDaisy/src/hid/switch.h ****   public:
  20:../../libDaisy/src/hid/switch.h ****     /** Specifies the expected behavior of the switch */
  21:../../libDaisy/src/hid/switch.h ****     enum Type
  22:../../libDaisy/src/hid/switch.h ****     {
  23:../../libDaisy/src/hid/switch.h ****         TYPE_TOGGLE,    /**< & */
  24:../../libDaisy/src/hid/switch.h ****         TYPE_MOMENTARY, /**< & */
  25:../../libDaisy/src/hid/switch.h ****     };
  26:../../libDaisy/src/hid/switch.h ****     /** Specifies whether the pressed is HIGH or LOW. */
  27:../../libDaisy/src/hid/switch.h ****     enum Polarity
  28:../../libDaisy/src/hid/switch.h ****     {
  29:../../libDaisy/src/hid/switch.h ****         POLARITY_NORMAL,   /**< & */
  30:../../libDaisy/src/hid/switch.h ****         POLARITY_INVERTED, /**< & */
  31:../../libDaisy/src/hid/switch.h ****     };
  32:../../libDaisy/src/hid/switch.h **** 
  33:../../libDaisy/src/hid/switch.h ****     /** Specifies whether to use built-in Pull Up/Down resistors to hold button at a given state wh
  34:../../libDaisy/src/hid/switch.h ****     enum Pull
  35:../../libDaisy/src/hid/switch.h ****     {
  36:../../libDaisy/src/hid/switch.h ****         PULL_UP,   /**< & */
  37:../../libDaisy/src/hid/switch.h ****         PULL_DOWN, /**< & */
  38:../../libDaisy/src/hid/switch.h ****         PULL_NONE, /**< & */
  39:../../libDaisy/src/hid/switch.h ****     };
  40:../../libDaisy/src/hid/switch.h **** 
  41:../../libDaisy/src/hid/switch.h ****     Switch() {}
  42:../../libDaisy/src/hid/switch.h ****     ~Switch() {}
 230              		.loc 15 42 5 view .LVU40
 231              		.loc 15 42 5 is_stmt 0 view .LVU41
ARM GAS  C:\Users\daniel\AppData\Local\Temp\ccLc35Ca.s 			page 28


 232              	.LBE1032:
 233              		.loc 14 21 17 view .LVU42
 234 0000 7047     		bx	lr
 235              		.cfi_endproc
 236              	.LFE1995:
 238              		.weak	_ZN5daisy7EncoderD1Ev
 239              		.thumb_set _ZN5daisy7EncoderD1Ev,_ZN5daisy7EncoderD2Ev
 240              		.section	.text._ZN5daisy12UiEventQueueD2Ev,"axG",%progbits,_ZN5daisy12UiEventQueueD5Ev,comdat
 241              		.align	1
 242              		.weak	_ZN5daisy12UiEventQueueD2Ev
 243              		.syntax unified
 244              		.thumb
 245              		.thumb_func
 246              		.fpu fpv5-d16
 248              	_ZN5daisy12UiEventQueueD2Ev:
 249              	.LVL5:
 250              	.LFB2670:
 251              		.file 16 "../../libDaisy/src/ui/UiEventQueue.h"
   1:../../libDaisy/src/ui/UiEventQueue.h **** #pragma once
   2:../../libDaisy/src/ui/UiEventQueue.h **** #include <stdint.h>
   3:../../libDaisy/src/ui/UiEventQueue.h **** #include "../util/FIFO.h"
   4:../../libDaisy/src/ui/UiEventQueue.h **** #include "../util/scopedirqblocker.h"
   5:../../libDaisy/src/ui/UiEventQueue.h **** 
   6:../../libDaisy/src/ui/UiEventQueue.h **** namespace daisy
   7:../../libDaisy/src/ui/UiEventQueue.h **** {
   8:../../libDaisy/src/ui/UiEventQueue.h **** /** @brief A queue that holds user input events in the UI system.
   9:../../libDaisy/src/ui/UiEventQueue.h ****  *  @author jelliesen
  10:../../libDaisy/src/ui/UiEventQueue.h ****  *  @ingroup ui 
  11:../../libDaisy/src/ui/UiEventQueue.h ****  * 
  12:../../libDaisy/src/ui/UiEventQueue.h ****  * A queue that holds user interface events such as button presses or encoder turns.
  13:../../libDaisy/src/ui/UiEventQueue.h ****  * The queue can be filled from hardware drivers and read from a UI object.
  14:../../libDaisy/src/ui/UiEventQueue.h ****  * Access to the queue is protected by a ScopedIrqBlocker - that means it's safe to add
  15:../../libDaisy/src/ui/UiEventQueue.h ****  * events from interrupt handlers.
  16:../../libDaisy/src/ui/UiEventQueue.h ****  */
  17:../../libDaisy/src/ui/UiEventQueue.h **** class UiEventQueue
  18:../../libDaisy/src/ui/UiEventQueue.h **** {
  19:../../libDaisy/src/ui/UiEventQueue.h ****   public:
  20:../../libDaisy/src/ui/UiEventQueue.h ****     /** A button ID used to indicate an invalid or non existing button. */
  21:../../libDaisy/src/ui/UiEventQueue.h ****     static constexpr uint16_t invalidButtonId = UINT16_MAX;
  22:../../libDaisy/src/ui/UiEventQueue.h **** 
  23:../../libDaisy/src/ui/UiEventQueue.h ****     /** An encoder ID used to indicate an invalid or non existing encoder. */
  24:../../libDaisy/src/ui/UiEventQueue.h ****     static constexpr uint16_t invalidEncoderId = UINT16_MAX;
  25:../../libDaisy/src/ui/UiEventQueue.h **** 
  26:../../libDaisy/src/ui/UiEventQueue.h ****     /** A potentiometer ID used to indicate an invalid or non existing potentiometer. */
  27:../../libDaisy/src/ui/UiEventQueue.h ****     static constexpr uint16_t invalidPotId = UINT16_MAX;
  28:../../libDaisy/src/ui/UiEventQueue.h **** 
  29:../../libDaisy/src/ui/UiEventQueue.h ****     /** An event in the queue */
  30:../../libDaisy/src/ui/UiEventQueue.h ****     struct __attribute__((packed)) Event
  31:../../libDaisy/src/ui/UiEventQueue.h ****     {
  32:../../libDaisy/src/ui/UiEventQueue.h ****         /** The type of event */
  33:../../libDaisy/src/ui/UiEventQueue.h ****         enum class EventType : uint8_t
  34:../../libDaisy/src/ui/UiEventQueue.h ****         {
  35:../../libDaisy/src/ui/UiEventQueue.h ****             /** An invalid event. Returned to indicate that no events are left in the queue. */
  36:../../libDaisy/src/ui/UiEventQueue.h ****             invalid,
  37:../../libDaisy/src/ui/UiEventQueue.h ****             /** A button was pressed. */
  38:../../libDaisy/src/ui/UiEventQueue.h ****             buttonPressed,
  39:../../libDaisy/src/ui/UiEventQueue.h ****             /** A button was released. */
ARM GAS  C:\Users\daniel\AppData\Local\Temp\ccLc35Ca.s 			page 29


  40:../../libDaisy/src/ui/UiEventQueue.h ****             buttonReleased,
  41:../../libDaisy/src/ui/UiEventQueue.h ****             /** An encoder was turned. */
  42:../../libDaisy/src/ui/UiEventQueue.h ****             encoderTurned,
  43:../../libDaisy/src/ui/UiEventQueue.h ****             /** The user has started or stopped turning an encoder. */
  44:../../libDaisy/src/ui/UiEventQueue.h ****             encoderActivityChanged,
  45:../../libDaisy/src/ui/UiEventQueue.h ****             /** A potentiometer was moved. */
  46:../../libDaisy/src/ui/UiEventQueue.h ****             potMoved,
  47:../../libDaisy/src/ui/UiEventQueue.h ****             /** The user has started or stopped moving a potentiometer. */
  48:../../libDaisy/src/ui/UiEventQueue.h ****             potActivityChanged,
  49:../../libDaisy/src/ui/UiEventQueue.h ****         };
  50:../../libDaisy/src/ui/UiEventQueue.h **** 
  51:../../libDaisy/src/ui/UiEventQueue.h ****         /** Used to indicate if a control is currently being used. */
  52:../../libDaisy/src/ui/UiEventQueue.h ****         enum class ActivityType : uint8_t
  53:../../libDaisy/src/ui/UiEventQueue.h ****         {
  54:../../libDaisy/src/ui/UiEventQueue.h ****             /** The control is not in use at the moment. */
  55:../../libDaisy/src/ui/UiEventQueue.h ****             inactive,
  56:../../libDaisy/src/ui/UiEventQueue.h ****             /** The control is actively used at the moment. */
  57:../../libDaisy/src/ui/UiEventQueue.h ****             active
  58:../../libDaisy/src/ui/UiEventQueue.h ****         };
  59:../../libDaisy/src/ui/UiEventQueue.h **** 
  60:../../libDaisy/src/ui/UiEventQueue.h ****         /** The type of event that this Event object represents. */
  61:../../libDaisy/src/ui/UiEventQueue.h ****         EventType type;
  62:../../libDaisy/src/ui/UiEventQueue.h **** 
  63:../../libDaisy/src/ui/UiEventQueue.h ****         union
  64:../../libDaisy/src/ui/UiEventQueue.h ****         {
  65:../../libDaisy/src/ui/UiEventQueue.h ****             struct __attribute__((packed))
  66:../../libDaisy/src/ui/UiEventQueue.h ****             {
  67:../../libDaisy/src/ui/UiEventQueue.h ****                 /** The unique ID of the button that was pressed. */
  68:../../libDaisy/src/ui/UiEventQueue.h ****                 uint16_t id;
  69:../../libDaisy/src/ui/UiEventQueue.h ****                 /** The number of successive button presses (e.g. double click). */
  70:../../libDaisy/src/ui/UiEventQueue.h ****                 uint16_t numSuccessivePresses;
  71:../../libDaisy/src/ui/UiEventQueue.h ****                 /** True if the event was generated because a button was retriggered 
  72:../../libDaisy/src/ui/UiEventQueue.h ****                  *  automatically while being held down. */
  73:../../libDaisy/src/ui/UiEventQueue.h ****                 bool isRetriggering;
  74:../../libDaisy/src/ui/UiEventQueue.h ****             } asButtonPressed;
  75:../../libDaisy/src/ui/UiEventQueue.h ****             struct __attribute__((packed))
  76:../../libDaisy/src/ui/UiEventQueue.h ****             {
  77:../../libDaisy/src/ui/UiEventQueue.h ****                 /** The unique ID of the button that was released. */
  78:../../libDaisy/src/ui/UiEventQueue.h ****                 uint16_t id;
  79:../../libDaisy/src/ui/UiEventQueue.h ****             } asButtonReleased;
  80:../../libDaisy/src/ui/UiEventQueue.h ****             struct __attribute__((packed))
  81:../../libDaisy/src/ui/UiEventQueue.h ****             {
  82:../../libDaisy/src/ui/UiEventQueue.h ****                 /** The unique ID of the encoder that was turned. */
  83:../../libDaisy/src/ui/UiEventQueue.h ****                 uint16_t id;
  84:../../libDaisy/src/ui/UiEventQueue.h ****                 /** The number of increments detected. */
  85:../../libDaisy/src/ui/UiEventQueue.h ****                 int16_t increments;
  86:../../libDaisy/src/ui/UiEventQueue.h ****                 /** The total number of increments per revolution. */
  87:../../libDaisy/src/ui/UiEventQueue.h ****                 uint16_t stepsPerRev;
  88:../../libDaisy/src/ui/UiEventQueue.h ****             } asEncoderTurned;
  89:../../libDaisy/src/ui/UiEventQueue.h ****             struct __attribute__((packed))
  90:../../libDaisy/src/ui/UiEventQueue.h ****             {
  91:../../libDaisy/src/ui/UiEventQueue.h ****                 /** The unique ID of the encoder that is affected. */
  92:../../libDaisy/src/ui/UiEventQueue.h ****                 uint16_t id;
  93:../../libDaisy/src/ui/UiEventQueue.h ****                 /** The new activity type. */
  94:../../libDaisy/src/ui/UiEventQueue.h ****                 ActivityType newActivityType;
  95:../../libDaisy/src/ui/UiEventQueue.h ****             } asEncoderActivityChanged;
  96:../../libDaisy/src/ui/UiEventQueue.h ****             struct __attribute__((packed))
ARM GAS  C:\Users\daniel\AppData\Local\Temp\ccLc35Ca.s 			page 30


  97:../../libDaisy/src/ui/UiEventQueue.h ****             {
  98:../../libDaisy/src/ui/UiEventQueue.h ****                 /** The unique ID of the pot that was moved. */
  99:../../libDaisy/src/ui/UiEventQueue.h ****                 uint16_t id;
 100:../../libDaisy/src/ui/UiEventQueue.h ****                 /** The new position of the pot. */
 101:../../libDaisy/src/ui/UiEventQueue.h ****                 float newPosition;
 102:../../libDaisy/src/ui/UiEventQueue.h ****             } asPotMoved;
 103:../../libDaisy/src/ui/UiEventQueue.h ****             struct __attribute__((packed))
 104:../../libDaisy/src/ui/UiEventQueue.h ****             {
 105:../../libDaisy/src/ui/UiEventQueue.h ****                 /** The unique ID of the pot that is affected. */
 106:../../libDaisy/src/ui/UiEventQueue.h ****                 uint16_t id;
 107:../../libDaisy/src/ui/UiEventQueue.h ****                 /** The new activity type. */
 108:../../libDaisy/src/ui/UiEventQueue.h ****                 ActivityType newActivityType;
 109:../../libDaisy/src/ui/UiEventQueue.h ****             } asPotActivityChanged;
 110:../../libDaisy/src/ui/UiEventQueue.h ****         };
 111:../../libDaisy/src/ui/UiEventQueue.h ****     };
 112:../../libDaisy/src/ui/UiEventQueue.h **** 
 113:../../libDaisy/src/ui/UiEventQueue.h ****     UiEventQueue() {}
 114:../../libDaisy/src/ui/UiEventQueue.h ****     ~UiEventQueue() {}
 252              		.loc 16 114 5 is_stmt 1 view -0
 253              		.cfi_startproc
 254              		@ args = 0, pretend = 0, frame = 0
 255              		@ frame_needed = 0, uses_anonymous_args = 0
 256              		@ link register save eliminated.
 257              	.LBB1033:
 258              	.LBI1033:
 259              		.file 17 "../../libDaisy/src/ui/../util/FIFO.h"
   1:../../libDaisy/src/ui/../util/FIFO.h **** #pragma once
   2:../../libDaisy/src/ui/../util/FIFO.h **** 
   3:../../libDaisy/src/ui/../util/FIFO.h **** #include <stdint.h>
   4:../../libDaisy/src/ui/../util/FIFO.h **** #include <stddef.h>
   5:../../libDaisy/src/ui/../util/FIFO.h **** #include <initializer_list>
   6:../../libDaisy/src/ui/../util/FIFO.h **** 
   7:../../libDaisy/src/ui/../util/FIFO.h **** namespace daisy
   8:../../libDaisy/src/ui/../util/FIFO.h **** {
   9:../../libDaisy/src/ui/../util/FIFO.h **** /** Capacity-independent base class for FIFO. Use FIFO instead. */
  10:../../libDaisy/src/ui/../util/FIFO.h **** template <typename T>
  11:../../libDaisy/src/ui/../util/FIFO.h **** class FIFOBase
  12:../../libDaisy/src/ui/../util/FIFO.h **** {
  13:../../libDaisy/src/ui/../util/FIFO.h ****   protected:
  14:../../libDaisy/src/ui/../util/FIFO.h ****     FIFOBase(T* buffer, size_t bufferSize)
  15:../../libDaisy/src/ui/../util/FIFO.h ****     : buffer_(buffer), bufferSize_(bufferSize), bufferIn_(0), bufferOut_(0)
  16:../../libDaisy/src/ui/../util/FIFO.h ****     {
  17:../../libDaisy/src/ui/../util/FIFO.h ****     }
  18:../../libDaisy/src/ui/../util/FIFO.h **** 
  19:../../libDaisy/src/ui/../util/FIFO.h ****     FIFOBase(T* buffer, size_t bufferSize, std::initializer_list<T> valuesToAdd)
  20:../../libDaisy/src/ui/../util/FIFO.h ****     : buffer_(buffer), bufferSize_(bufferSize), bufferIn_(0), bufferOut_(0)
  21:../../libDaisy/src/ui/../util/FIFO.h ****     {
  22:../../libDaisy/src/ui/../util/FIFO.h ****         PushBack(valuesToAdd);
  23:../../libDaisy/src/ui/../util/FIFO.h ****     }
  24:../../libDaisy/src/ui/../util/FIFO.h **** 
  25:../../libDaisy/src/ui/../util/FIFO.h ****   public:
  26:../../libDaisy/src/ui/../util/FIFO.h ****     /** Copies all elements from another FIFO */
  27:../../libDaisy/src/ui/../util/FIFO.h ****     FIFOBase<T>& operator=(const FIFOBase<T>& other)
  28:../../libDaisy/src/ui/../util/FIFO.h ****     {
  29:../../libDaisy/src/ui/../util/FIFO.h ****         bufferIn_ = bufferOut_ = 0;
  30:../../libDaisy/src/ui/../util/FIFO.h ****         if(!other.IsEmpty())
  31:../../libDaisy/src/ui/../util/FIFO.h ****         {
ARM GAS  C:\Users\daniel\AppData\Local\Temp\ccLc35Ca.s 			page 31


  32:../../libDaisy/src/ui/../util/FIFO.h ****             int readPtr = other.bufferOut_;
  33:../../libDaisy/src/ui/../util/FIFO.h ****             while((readPtr != other.bufferIn_) && (bufferIn_ < bufferSize_))
  34:../../libDaisy/src/ui/../util/FIFO.h ****             {
  35:../../libDaisy/src/ui/../util/FIFO.h ****                 buffer_[bufferIn_++] = other.buffer_[readPtr++];
  36:../../libDaisy/src/ui/../util/FIFO.h ****                 if(readPtr >= other.bufferSize_)
  37:../../libDaisy/src/ui/../util/FIFO.h ****                     readPtr -= other.bufferSize_;
  38:../../libDaisy/src/ui/../util/FIFO.h ****             }
  39:../../libDaisy/src/ui/../util/FIFO.h ****         }
  40:../../libDaisy/src/ui/../util/FIFO.h ****         return *this;
  41:../../libDaisy/src/ui/../util/FIFO.h ****     }
  42:../../libDaisy/src/ui/../util/FIFO.h ****     ~FIFOBase() {}
  43:../../libDaisy/src/ui/../util/FIFO.h **** 
  44:../../libDaisy/src/ui/../util/FIFO.h ****     /** Removes all elements from the FIFO */
  45:../../libDaisy/src/ui/../util/FIFO.h ****     void Clear() { bufferIn_ = bufferOut_ = 0; }
  46:../../libDaisy/src/ui/../util/FIFO.h **** 
  47:../../libDaisy/src/ui/../util/FIFO.h ****     /** Adds an element to the back of the buffer, returning true on
  48:../../libDaisy/src/ui/../util/FIFO.h ****         success */
  49:../../libDaisy/src/ui/../util/FIFO.h ****     bool PushBack(const T& elementToAdd)
  50:../../libDaisy/src/ui/../util/FIFO.h ****     {
  51:../../libDaisy/src/ui/../util/FIFO.h ****         if(!IsFull())
  52:../../libDaisy/src/ui/../util/FIFO.h ****         {
  53:../../libDaisy/src/ui/../util/FIFO.h ****             buffer_[bufferIn_++] = elementToAdd;
  54:../../libDaisy/src/ui/../util/FIFO.h ****             if(bufferIn_ >= bufferSize_)
  55:../../libDaisy/src/ui/../util/FIFO.h ****                 bufferIn_ -= bufferSize_;
  56:../../libDaisy/src/ui/../util/FIFO.h ****             return true;
  57:../../libDaisy/src/ui/../util/FIFO.h ****         }
  58:../../libDaisy/src/ui/../util/FIFO.h ****         return false;
  59:../../libDaisy/src/ui/../util/FIFO.h ****     }
  60:../../libDaisy/src/ui/../util/FIFO.h **** 
  61:../../libDaisy/src/ui/../util/FIFO.h ****     /** Adds multiple elements and returns the number of elements that were added */
  62:../../libDaisy/src/ui/../util/FIFO.h ****     int PushBack(std::initializer_list<T> valuesToAdd)
  63:../../libDaisy/src/ui/../util/FIFO.h ****     {
  64:../../libDaisy/src/ui/../util/FIFO.h ****         int numAdded = 0;
  65:../../libDaisy/src/ui/../util/FIFO.h ****         for(const auto& v : valuesToAdd)
  66:../../libDaisy/src/ui/../util/FIFO.h ****         {
  67:../../libDaisy/src/ui/../util/FIFO.h ****             if(IsFull())
  68:../../libDaisy/src/ui/../util/FIFO.h ****                 return numAdded;
  69:../../libDaisy/src/ui/../util/FIFO.h **** 
  70:../../libDaisy/src/ui/../util/FIFO.h ****             PushBack(v);
  71:../../libDaisy/src/ui/../util/FIFO.h ****             numAdded++;
  72:../../libDaisy/src/ui/../util/FIFO.h ****         }
  73:../../libDaisy/src/ui/../util/FIFO.h ****         return numAdded;
  74:../../libDaisy/src/ui/../util/FIFO.h ****     }
  75:../../libDaisy/src/ui/../util/FIFO.h **** 
  76:../../libDaisy/src/ui/../util/FIFO.h ****     /** returns a reference to the last element */
  77:../../libDaisy/src/ui/../util/FIFO.h ****     T& Back()
  78:../../libDaisy/src/ui/../util/FIFO.h ****     {
  79:../../libDaisy/src/ui/../util/FIFO.h ****         if(IsEmpty())
  80:../../libDaisy/src/ui/../util/FIFO.h ****             // invalid, but better not pass a temporary T() object as a reference...
  81:../../libDaisy/src/ui/../util/FIFO.h ****             return buffer_[0];
  82:../../libDaisy/src/ui/../util/FIFO.h ****         int idx = bufferIn_ - 1;
  83:../../libDaisy/src/ui/../util/FIFO.h ****         if(idx < 0)
  84:../../libDaisy/src/ui/../util/FIFO.h ****             idx += bufferSize_;
  85:../../libDaisy/src/ui/../util/FIFO.h ****         return buffer_[idx];
  86:../../libDaisy/src/ui/../util/FIFO.h ****     }
  87:../../libDaisy/src/ui/../util/FIFO.h **** 
  88:../../libDaisy/src/ui/../util/FIFO.h ****     /** returns a reference to the last element */
ARM GAS  C:\Users\daniel\AppData\Local\Temp\ccLc35Ca.s 			page 32


  89:../../libDaisy/src/ui/../util/FIFO.h ****     const T& Back() const
  90:../../libDaisy/src/ui/../util/FIFO.h ****     {
  91:../../libDaisy/src/ui/../util/FIFO.h ****         if(IsEmpty())
  92:../../libDaisy/src/ui/../util/FIFO.h ****             // invalid, but better not pass a temporary T() object as a reference...
  93:../../libDaisy/src/ui/../util/FIFO.h ****             return buffer_[0];
  94:../../libDaisy/src/ui/../util/FIFO.h ****         int idx = bufferIn_ - 1;
  95:../../libDaisy/src/ui/../util/FIFO.h ****         if(idx < 0)
  96:../../libDaisy/src/ui/../util/FIFO.h ****             idx += bufferSize_;
  97:../../libDaisy/src/ui/../util/FIFO.h ****         return buffer_[idx];
  98:../../libDaisy/src/ui/../util/FIFO.h ****     }
  99:../../libDaisy/src/ui/../util/FIFO.h **** 
 100:../../libDaisy/src/ui/../util/FIFO.h ****     /** removes and returns an element from the front of the buffer */
 101:../../libDaisy/src/ui/../util/FIFO.h ****     T PopFront()
 102:../../libDaisy/src/ui/../util/FIFO.h ****     {
 103:../../libDaisy/src/ui/../util/FIFO.h ****         if(IsEmpty())
 104:../../libDaisy/src/ui/../util/FIFO.h ****             return T();
 105:../../libDaisy/src/ui/../util/FIFO.h ****         else
 106:../../libDaisy/src/ui/../util/FIFO.h ****         {
 107:../../libDaisy/src/ui/../util/FIFO.h ****             const auto result = buffer_[bufferOut_];
 108:../../libDaisy/src/ui/../util/FIFO.h ****             bufferOut_++;
 109:../../libDaisy/src/ui/../util/FIFO.h ****             if(bufferOut_ >= bufferSize_)
 110:../../libDaisy/src/ui/../util/FIFO.h ****                 bufferOut_ -= bufferSize_;
 111:../../libDaisy/src/ui/../util/FIFO.h ****             return result;
 112:../../libDaisy/src/ui/../util/FIFO.h ****         }
 113:../../libDaisy/src/ui/../util/FIFO.h ****     }
 114:../../libDaisy/src/ui/../util/FIFO.h **** 
 115:../../libDaisy/src/ui/../util/FIFO.h ****     /** returns a copy of the first element */
 116:../../libDaisy/src/ui/../util/FIFO.h ****     T& Front()
 117:../../libDaisy/src/ui/../util/FIFO.h ****     {
 118:../../libDaisy/src/ui/../util/FIFO.h ****         if(IsEmpty())
 119:../../libDaisy/src/ui/../util/FIFO.h ****             // invalid, but better not pass a temporary T() object as a reference...
 120:../../libDaisy/src/ui/../util/FIFO.h ****             return buffer_[0];
 121:../../libDaisy/src/ui/../util/FIFO.h ****         return buffer_[bufferOut_];
 122:../../libDaisy/src/ui/../util/FIFO.h ****     }
 123:../../libDaisy/src/ui/../util/FIFO.h **** 
 124:../../libDaisy/src/ui/../util/FIFO.h ****     /** returns a reference to the first element */
 125:../../libDaisy/src/ui/../util/FIFO.h ****     const T& Front() const
 126:../../libDaisy/src/ui/../util/FIFO.h ****     {
 127:../../libDaisy/src/ui/../util/FIFO.h ****         if(IsEmpty())
 128:../../libDaisy/src/ui/../util/FIFO.h ****             // invalid, but better not pass a temporary T() object as a reference...
 129:../../libDaisy/src/ui/../util/FIFO.h ****             return buffer_[0];
 130:../../libDaisy/src/ui/../util/FIFO.h ****         return buffer_[bufferOut_];
 131:../../libDaisy/src/ui/../util/FIFO.h ****     }
 132:../../libDaisy/src/ui/../util/FIFO.h **** 
 133:../../libDaisy/src/ui/../util/FIFO.h ****     /** Returns true if the buffer contains an element equal to the provided value */
 134:../../libDaisy/src/ui/../util/FIFO.h ****     bool Contains(const T& element)
 135:../../libDaisy/src/ui/../util/FIFO.h ****     {
 136:../../libDaisy/src/ui/../util/FIFO.h ****         auto idx = bufferOut_;
 137:../../libDaisy/src/ui/../util/FIFO.h ****         while(idx != bufferIn_)
 138:../../libDaisy/src/ui/../util/FIFO.h ****         {
 139:../../libDaisy/src/ui/../util/FIFO.h ****             if(buffer_[idx] == element)
 140:../../libDaisy/src/ui/../util/FIFO.h ****                 return true;
 141:../../libDaisy/src/ui/../util/FIFO.h ****             idx++;
 142:../../libDaisy/src/ui/../util/FIFO.h ****             if(idx >= bufferSize_)
 143:../../libDaisy/src/ui/../util/FIFO.h ****                 idx -= bufferSize_;
 144:../../libDaisy/src/ui/../util/FIFO.h ****         }
 145:../../libDaisy/src/ui/../util/FIFO.h ****         return false;
ARM GAS  C:\Users\daniel\AppData\Local\Temp\ccLc35Ca.s 			page 33


 146:../../libDaisy/src/ui/../util/FIFO.h ****     }
 147:../../libDaisy/src/ui/../util/FIFO.h **** 
 148:../../libDaisy/src/ui/../util/FIFO.h ****     /** Returns the number of elements in the buffer that are equal to the provided value */
 149:../../libDaisy/src/ui/../util/FIFO.h ****     size_t CountEqualTo(const T& element)
 150:../../libDaisy/src/ui/../util/FIFO.h ****     {
 151:../../libDaisy/src/ui/../util/FIFO.h ****         size_t result = 0;
 152:../../libDaisy/src/ui/../util/FIFO.h ****         size_t idx    = bufferOut_;
 153:../../libDaisy/src/ui/../util/FIFO.h ****         while(idx != bufferIn_)
 154:../../libDaisy/src/ui/../util/FIFO.h ****         {
 155:../../libDaisy/src/ui/../util/FIFO.h ****             if(buffer_[idx] == element)
 156:../../libDaisy/src/ui/../util/FIFO.h ****                 result++;
 157:../../libDaisy/src/ui/../util/FIFO.h ****             idx++;
 158:../../libDaisy/src/ui/../util/FIFO.h ****             if(idx >= bufferSize_)
 159:../../libDaisy/src/ui/../util/FIFO.h ****                 idx -= bufferSize_;
 160:../../libDaisy/src/ui/../util/FIFO.h ****         }
 161:../../libDaisy/src/ui/../util/FIFO.h ****         return result;
 162:../../libDaisy/src/ui/../util/FIFO.h ****     }
 163:../../libDaisy/src/ui/../util/FIFO.h **** 
 164:../../libDaisy/src/ui/../util/FIFO.h ****     /** returns true, if the buffer is empty */
 165:../../libDaisy/src/ui/../util/FIFO.h ****     bool IsEmpty() const { return bufferIn_ == bufferOut_; }
 166:../../libDaisy/src/ui/../util/FIFO.h **** 
 167:../../libDaisy/src/ui/../util/FIFO.h ****     /** returns true, if the buffer is Full */
 168:../../libDaisy/src/ui/../util/FIFO.h ****     bool IsFull() const { return GetNumElements() == bufferSize_ - 1; }
 169:../../libDaisy/src/ui/../util/FIFO.h **** 
 170:../../libDaisy/src/ui/../util/FIFO.h ****     /** returns the number of elements in the buffer */
 171:../../libDaisy/src/ui/../util/FIFO.h ****     size_t GetNumElements() const
 172:../../libDaisy/src/ui/../util/FIFO.h ****     {
 173:../../libDaisy/src/ui/../util/FIFO.h ****         int32_t numElements = bufferIn_ - bufferOut_;
 174:../../libDaisy/src/ui/../util/FIFO.h ****         if(numElements < 0)
 175:../../libDaisy/src/ui/../util/FIFO.h ****             numElements += bufferSize_;
 176:../../libDaisy/src/ui/../util/FIFO.h ****         return size_t(numElements);
 177:../../libDaisy/src/ui/../util/FIFO.h ****     }
 178:../../libDaisy/src/ui/../util/FIFO.h **** 
 179:../../libDaisy/src/ui/../util/FIFO.h ****     /** inserts an element "idx" positions behind the first element and returns true if successful 
 180:../../libDaisy/src/ui/../util/FIFO.h ****     bool Insert(size_t idx, const T& element)
 181:../../libDaisy/src/ui/../util/FIFO.h ****     {
 182:../../libDaisy/src/ui/../util/FIFO.h ****         if(idx > GetNumElements())
 183:../../libDaisy/src/ui/../util/FIFO.h ****             return false;
 184:../../libDaisy/src/ui/../util/FIFO.h ****         if(IsFull())
 185:../../libDaisy/src/ui/../util/FIFO.h ****             return false;
 186:../../libDaisy/src/ui/../util/FIFO.h ****         if(idx == GetNumElements())
 187:../../libDaisy/src/ui/../util/FIFO.h ****         {
 188:../../libDaisy/src/ui/../util/FIFO.h ****             PushBack(element);
 189:../../libDaisy/src/ui/../util/FIFO.h ****             return true;
 190:../../libDaisy/src/ui/../util/FIFO.h ****         }
 191:../../libDaisy/src/ui/../util/FIFO.h ****         // copy last element
 192:../../libDaisy/src/ui/../util/FIFO.h ****         PushBack(Back());
 193:../../libDaisy/src/ui/../util/FIFO.h ****         // move remaining elements: n => n+1
 194:../../libDaisy/src/ui/../util/FIFO.h ****         for(int i = GetNumElements() - 2; i > int(idx); i--)
 195:../../libDaisy/src/ui/../util/FIFO.h ****             (*this)[i] = (*this)[i - 1];
 196:../../libDaisy/src/ui/../util/FIFO.h ****         // insert element
 197:../../libDaisy/src/ui/../util/FIFO.h ****         (*this)[idx] = element;
 198:../../libDaisy/src/ui/../util/FIFO.h ****         return true;
 199:../../libDaisy/src/ui/../util/FIFO.h ****     }
 200:../../libDaisy/src/ui/../util/FIFO.h **** 
 201:../../libDaisy/src/ui/../util/FIFO.h ****     /** removes the element "idx" positions behind the first element 
 202:../../libDaisy/src/ui/../util/FIFO.h ****      *  and returns true if successful */
ARM GAS  C:\Users\daniel\AppData\Local\Temp\ccLc35Ca.s 			page 34


 203:../../libDaisy/src/ui/../util/FIFO.h ****     bool Remove(size_t idx)
 204:../../libDaisy/src/ui/../util/FIFO.h ****     {
 205:../../libDaisy/src/ui/../util/FIFO.h ****         if(idx >= GetNumElements())
 206:../../libDaisy/src/ui/../util/FIFO.h ****             return false;
 207:../../libDaisy/src/ui/../util/FIFO.h **** 
 208:../../libDaisy/src/ui/../util/FIFO.h ****         size_t index = bufferOut_ + idx;
 209:../../libDaisy/src/ui/../util/FIFO.h ****         if(index >= bufferSize_)
 210:../../libDaisy/src/ui/../util/FIFO.h ****             index -= bufferSize_;
 211:../../libDaisy/src/ui/../util/FIFO.h ****         size_t nextIndex = index + 1;
 212:../../libDaisy/src/ui/../util/FIFO.h ****         if(nextIndex >= bufferSize_)
 213:../../libDaisy/src/ui/../util/FIFO.h ****             nextIndex -= bufferSize_;
 214:../../libDaisy/src/ui/../util/FIFO.h **** 
 215:../../libDaisy/src/ui/../util/FIFO.h ****         while(nextIndex != bufferIn_)
 216:../../libDaisy/src/ui/../util/FIFO.h ****         {
 217:../../libDaisy/src/ui/../util/FIFO.h ****             buffer_[index] = buffer_[nextIndex];
 218:../../libDaisy/src/ui/../util/FIFO.h ****             index++;
 219:../../libDaisy/src/ui/../util/FIFO.h ****             nextIndex++;
 220:../../libDaisy/src/ui/../util/FIFO.h ****             if(index >= bufferSize_)
 221:../../libDaisy/src/ui/../util/FIFO.h ****                 index -= bufferSize_;
 222:../../libDaisy/src/ui/../util/FIFO.h ****             if(nextIndex >= bufferSize_)
 223:../../libDaisy/src/ui/../util/FIFO.h ****                 nextIndex -= bufferSize_;
 224:../../libDaisy/src/ui/../util/FIFO.h ****         }
 225:../../libDaisy/src/ui/../util/FIFO.h **** 
 226:../../libDaisy/src/ui/../util/FIFO.h ****         int32_t nextBufferIn = int32_t(bufferIn_) - 1;
 227:../../libDaisy/src/ui/../util/FIFO.h ****         if(nextBufferIn < 0)
 228:../../libDaisy/src/ui/../util/FIFO.h ****             nextBufferIn += bufferSize_;
 229:../../libDaisy/src/ui/../util/FIFO.h ****         bufferIn_ = size_t(nextBufferIn);
 230:../../libDaisy/src/ui/../util/FIFO.h **** 
 231:../../libDaisy/src/ui/../util/FIFO.h ****         return true;
 232:../../libDaisy/src/ui/../util/FIFO.h ****     }
 233:../../libDaisy/src/ui/../util/FIFO.h **** 
 234:../../libDaisy/src/ui/../util/FIFO.h ****     /** removes all elements from the buffer for which
 235:../../libDaisy/src/ui/../util/FIFO.h ****         (buffer(index) == element) returns true and returns the number of
 236:../../libDaisy/src/ui/../util/FIFO.h ****         elements that were removed. */
 237:../../libDaisy/src/ui/../util/FIFO.h ****     size_t RemoveAllEqualTo(const T& element)
 238:../../libDaisy/src/ui/../util/FIFO.h ****     {
 239:../../libDaisy/src/ui/../util/FIFO.h ****         size_t numRemoved = 0;
 240:../../libDaisy/src/ui/../util/FIFO.h ****         int    idx        = GetNumElements() - 1;
 241:../../libDaisy/src/ui/../util/FIFO.h ****         while(idx >= 0)
 242:../../libDaisy/src/ui/../util/FIFO.h ****         {
 243:../../libDaisy/src/ui/../util/FIFO.h ****             if((*this)[idx] == element)
 244:../../libDaisy/src/ui/../util/FIFO.h ****             {
 245:../../libDaisy/src/ui/../util/FIFO.h ****                 numRemoved++;
 246:../../libDaisy/src/ui/../util/FIFO.h ****                 Remove(idx);
 247:../../libDaisy/src/ui/../util/FIFO.h ****                 // was that the last element?
 248:../../libDaisy/src/ui/../util/FIFO.h ****                 if(idx == int(GetNumElements()) - 1)
 249:../../libDaisy/src/ui/../util/FIFO.h ****                     idx--;
 250:../../libDaisy/src/ui/../util/FIFO.h ****             }
 251:../../libDaisy/src/ui/../util/FIFO.h ****             else
 252:../../libDaisy/src/ui/../util/FIFO.h ****                 idx--;
 253:../../libDaisy/src/ui/../util/FIFO.h ****         }
 254:../../libDaisy/src/ui/../util/FIFO.h ****         return numRemoved;
 255:../../libDaisy/src/ui/../util/FIFO.h ****     }
 256:../../libDaisy/src/ui/../util/FIFO.h **** 
 257:../../libDaisy/src/ui/../util/FIFO.h ****     /** returns the element "idx" positions behind the first element */
 258:../../libDaisy/src/ui/../util/FIFO.h ****     T& operator[](size_t idx)
 259:../../libDaisy/src/ui/../util/FIFO.h ****     {
ARM GAS  C:\Users\daniel\AppData\Local\Temp\ccLc35Ca.s 			page 35


 260:../../libDaisy/src/ui/../util/FIFO.h ****         if(idx >= GetNumElements())
 261:../../libDaisy/src/ui/../util/FIFO.h ****             // invalid, but better not pass a temporary T() object as a reference...
 262:../../libDaisy/src/ui/../util/FIFO.h ****             return buffer_[0];
 263:../../libDaisy/src/ui/../util/FIFO.h **** 
 264:../../libDaisy/src/ui/../util/FIFO.h ****         size_t index = bufferOut_ + idx;
 265:../../libDaisy/src/ui/../util/FIFO.h ****         if(index >= bufferSize_)
 266:../../libDaisy/src/ui/../util/FIFO.h ****             index -= bufferSize_;
 267:../../libDaisy/src/ui/../util/FIFO.h ****         return buffer_[index];
 268:../../libDaisy/src/ui/../util/FIFO.h ****     }
 269:../../libDaisy/src/ui/../util/FIFO.h **** 
 270:../../libDaisy/src/ui/../util/FIFO.h ****     /** returns the element "idx" positions behind the first element */
 271:../../libDaisy/src/ui/../util/FIFO.h ****     const T& operator[](size_t idx) const
 272:../../libDaisy/src/ui/../util/FIFO.h ****     {
 273:../../libDaisy/src/ui/../util/FIFO.h ****         if(idx >= GetNumElements())
 274:../../libDaisy/src/ui/../util/FIFO.h ****             // invalid, but better not pass a temporary T() object as a reference...
 275:../../libDaisy/src/ui/../util/FIFO.h ****             return buffer_[0];
 276:../../libDaisy/src/ui/../util/FIFO.h **** 
 277:../../libDaisy/src/ui/../util/FIFO.h ****         size_t index = bufferOut_ + idx;
 278:../../libDaisy/src/ui/../util/FIFO.h ****         if(index >= bufferSize_)
 279:../../libDaisy/src/ui/../util/FIFO.h ****             index -= bufferSize_;
 280:../../libDaisy/src/ui/../util/FIFO.h ****         return buffer_[index];
 281:../../libDaisy/src/ui/../util/FIFO.h ****     }
 282:../../libDaisy/src/ui/../util/FIFO.h **** 
 283:../../libDaisy/src/ui/../util/FIFO.h ****     /** returns the total capacity */
 284:../../libDaisy/src/ui/../util/FIFO.h ****     size_t GetCapacity() const { return bufferSize_ - 1; }
 285:../../libDaisy/src/ui/../util/FIFO.h **** 
 286:../../libDaisy/src/ui/../util/FIFO.h ****   private:
 287:../../libDaisy/src/ui/../util/FIFO.h ****     FIFOBase(const FIFOBase<T>&) {} // non copyable
 288:../../libDaisy/src/ui/../util/FIFO.h **** 
 289:../../libDaisy/src/ui/../util/FIFO.h ****   private:
 290:../../libDaisy/src/ui/../util/FIFO.h ****     T*           buffer_;
 291:../../libDaisy/src/ui/../util/FIFO.h ****     const size_t bufferSize_;
 292:../../libDaisy/src/ui/../util/FIFO.h ****     size_t       bufferIn_;
 293:../../libDaisy/src/ui/../util/FIFO.h ****     size_t       bufferOut_;
 294:../../libDaisy/src/ui/../util/FIFO.h **** };
 295:../../libDaisy/src/ui/../util/FIFO.h **** 
 296:../../libDaisy/src/ui/../util/FIFO.h **** /** A simple FIFO ring buffer with a fixed size. */
 297:../../libDaisy/src/ui/../util/FIFO.h **** template <typename T, size_t capacity>
 298:../../libDaisy/src/ui/../util/FIFO.h **** class FIFO : public FIFOBase<T>
 260              		.loc 17 298 7 view .LVU44
 261              	.LBB1034:
 262              	.LBI1034:
  42:../../libDaisy/src/ui/../util/FIFO.h **** 
 263              		.loc 17 42 5 view .LVU45
  42:../../libDaisy/src/ui/../util/FIFO.h **** 
 264              		.loc 17 42 5 is_stmt 0 view .LVU46
 265              	.LBE1034:
 266              	.LBE1033:
 267              		.loc 16 114 22 view .LVU47
 268 0000 7047     		bx	lr
 269              		.cfi_endproc
 270              	.LFE2670:
 272              		.weak	_ZN5daisy12UiEventQueueD1Ev
 273              		.thumb_set _ZN5daisy12UiEventQueueD1Ev,_ZN5daisy12UiEventQueueD2Ev
 274              		.section	.text._ZN5daisy21MappedStringListValueD2Ev,"axG",%progbits,_ZN5daisy21MappedStringListVal
 275              		.align	1
 276              		.weak	_ZN5daisy21MappedStringListValueD2Ev
ARM GAS  C:\Users\daniel\AppData\Local\Temp\ccLc35Ca.s 			page 36


 277              		.syntax unified
 278              		.thumb
 279              		.thumb_func
 280              		.fpu fpv5-d16
 282              	_ZN5daisy21MappedStringListValueD2Ev:
 283              	.LVL6:
 284              	.LFB2822:
 285              		.file 18 "../../libDaisy/src/util/MappedValue.h"
   1:../../libDaisy/src/util/MappedValue.h **** #pragma once
   2:../../libDaisy/src/util/MappedValue.h **** #include <stdint.h>
   3:../../libDaisy/src/util/MappedValue.h **** #include "FixedCapStr.h"
   4:../../libDaisy/src/util/MappedValue.h **** 
   5:../../libDaisy/src/util/MappedValue.h **** namespace daisy
   6:../../libDaisy/src/util/MappedValue.h **** {
   7:../../libDaisy/src/util/MappedValue.h **** /** @brief Abstract base class for a value that is mapped to a 0..1 normalized range.
   8:../../libDaisy/src/util/MappedValue.h ****  *  @author jelliesen
   9:../../libDaisy/src/util/MappedValue.h ****  *  @addtogroup utility
  10:../../libDaisy/src/util/MappedValue.h ****  */
  11:../../libDaisy/src/util/MappedValue.h **** class MappedValue
  12:../../libDaisy/src/util/MappedValue.h **** {
  13:../../libDaisy/src/util/MappedValue.h ****   public:
  14:../../libDaisy/src/util/MappedValue.h ****     virtual ~MappedValue() {}
  15:../../libDaisy/src/util/MappedValue.h **** 
  16:../../libDaisy/src/util/MappedValue.h ****     /** Generates a string representation and adds it to an existing string.
  17:../../libDaisy/src/util/MappedValue.h ****      * @param string    The string to add to
  18:../../libDaisy/src/util/MappedValue.h ****      */
  19:../../libDaisy/src/util/MappedValue.h ****     virtual void AppentToString(FixedCapStrBase<char>& string) const = 0;
  20:../../libDaisy/src/util/MappedValue.h **** 
  21:../../libDaisy/src/util/MappedValue.h ****     /** Resets the value to its default. */
  22:../../libDaisy/src/util/MappedValue.h ****     virtual void ResetToDefault() = 0;
  23:../../libDaisy/src/util/MappedValue.h **** 
  24:../../libDaisy/src/util/MappedValue.h ****     /** Returns the 0..1 normalized representation of the value, 
  25:../../libDaisy/src/util/MappedValue.h ****      *  e.g. to display a slider/knob on a UI. */
  26:../../libDaisy/src/util/MappedValue.h ****     virtual float GetAs0to1() const = 0;
  27:../../libDaisy/src/util/MappedValue.h **** 
  28:../../libDaisy/src/util/MappedValue.h ****     /** Sets the value so that `GetAs0to1()` returns `normalizedValue0to1`. */
  29:../../libDaisy/src/util/MappedValue.h ****     virtual void SetFrom0to1(float normalizedValue0to1) = 0;
  30:../../libDaisy/src/util/MappedValue.h **** 
  31:../../libDaisy/src/util/MappedValue.h ****     /** Steps the value up by whatever is appropriate. This function can be used
  32:../../libDaisy/src/util/MappedValue.h ****      *  to increment/decrement the value with buttons/encoders while making use 
  33:../../libDaisy/src/util/MappedValue.h ****      *  of the specific mapping. */
  34:../../libDaisy/src/util/MappedValue.h ****     virtual void Step(int16_t numStepsUp, bool useCoarseStepSize) = 0;
  35:../../libDaisy/src/util/MappedValue.h **** };
  36:../../libDaisy/src/util/MappedValue.h **** 
  37:../../libDaisy/src/util/MappedValue.h **** /** @brief A `MappedValue` that maps a float value using various mapping functions.
  38:../../libDaisy/src/util/MappedValue.h ****  *  @author jelliesen
  39:../../libDaisy/src/util/MappedValue.h ****  *  @addtogroup utility
  40:../../libDaisy/src/util/MappedValue.h ****  */
  41:../../libDaisy/src/util/MappedValue.h **** class MappedFloatValue : public MappedValue
  42:../../libDaisy/src/util/MappedValue.h **** {
  43:../../libDaisy/src/util/MappedValue.h ****   public:
  44:../../libDaisy/src/util/MappedValue.h ****     /** The availablke mapping functions */
  45:../../libDaisy/src/util/MappedValue.h ****     enum class Mapping
  46:../../libDaisy/src/util/MappedValue.h ****     {
  47:../../libDaisy/src/util/MappedValue.h ****         /** The value is mapped linearly between min and max. */
  48:../../libDaisy/src/util/MappedValue.h ****         lin,
  49:../../libDaisy/src/util/MappedValue.h ****         /** The value is mapped logarithmically. Note that the valid 
ARM GAS  C:\Users\daniel\AppData\Local\Temp\ccLc35Ca.s 			page 37


  50:../../libDaisy/src/util/MappedValue.h ****          *  values must be strictly larger than zero, so: min > 0, max > 0
  51:../../libDaisy/src/util/MappedValue.h ****          */
  52:../../libDaisy/src/util/MappedValue.h ****         log,
  53:../../libDaisy/src/util/MappedValue.h ****         /** The value is mapped with a square law */
  54:../../libDaisy/src/util/MappedValue.h ****         pow2
  55:../../libDaisy/src/util/MappedValue.h ****     };
  56:../../libDaisy/src/util/MappedValue.h **** 
  57:../../libDaisy/src/util/MappedValue.h ****     /** Creates a MappedFloatValue.
  58:../../libDaisy/src/util/MappedValue.h ****      * @param min           The lower end of the range of possible values
  59:../../libDaisy/src/util/MappedValue.h ****      * @param max           The upper end of the range of possible values
  60:../../libDaisy/src/util/MappedValue.h ****      * @param defaultValue  The default value
  61:../../libDaisy/src/util/MappedValue.h ****      * @param mapping       The `Mapping` to use. Note that for `Mapping::log`
  62:../../libDaisy/src/util/MappedValue.h ****      *                      `min`, `max` and ``defaultValue` must be > 0
  63:../../libDaisy/src/util/MappedValue.h ****      * @param unitStr       A string for the unit, e.g. "Hz"
  64:../../libDaisy/src/util/MappedValue.h ****      * @param numDecimals   Controls the number of decimals in `AppendToString()`
  65:../../libDaisy/src/util/MappedValue.h ****      * @param forceSign     Controls whether `AppendToString()` always prints the sign, 
  66:../../libDaisy/src/util/MappedValue.h ****      *                      even for positive numbers
  67:../../libDaisy/src/util/MappedValue.h ****     */
  68:../../libDaisy/src/util/MappedValue.h ****     MappedFloatValue(float       min,
  69:../../libDaisy/src/util/MappedValue.h ****                      float       max,
  70:../../libDaisy/src/util/MappedValue.h ****                      float       defaultValue,
  71:../../libDaisy/src/util/MappedValue.h ****                      Mapping     mapping     = Mapping::lin,
  72:../../libDaisy/src/util/MappedValue.h ****                      const char* unitStr     = "",
  73:../../libDaisy/src/util/MappedValue.h ****                      uint8_t     numDecimals = 1,
  74:../../libDaisy/src/util/MappedValue.h ****                      bool        forceSign   = false);
  75:../../libDaisy/src/util/MappedValue.h **** 
  76:../../libDaisy/src/util/MappedValue.h ****     ~MappedFloatValue() override {}
  77:../../libDaisy/src/util/MappedValue.h **** 
  78:../../libDaisy/src/util/MappedValue.h ****     /** Returns the current value. */
  79:../../libDaisy/src/util/MappedValue.h ****     float Get() const { return value_; }
  80:../../libDaisy/src/util/MappedValue.h **** 
  81:../../libDaisy/src/util/MappedValue.h ****     /** Returns a const pointer to the current value. */
  82:../../libDaisy/src/util/MappedValue.h ****     const float* GetPtr() const { return &value_; }
  83:../../libDaisy/src/util/MappedValue.h **** 
  84:../../libDaisy/src/util/MappedValue.h ****     /** Sets the value, clamping it to the valid range. */
  85:../../libDaisy/src/util/MappedValue.h ****     void Set(float newValue);
  86:../../libDaisy/src/util/MappedValue.h **** 
  87:../../libDaisy/src/util/MappedValue.h ****     /** Returns the current value. */
  88:../../libDaisy/src/util/MappedValue.h ****     operator float() const { return value_; }
  89:../../libDaisy/src/util/MappedValue.h **** 
  90:../../libDaisy/src/util/MappedValue.h ****     /** Sets the value, clamping it to the valid range. */
  91:../../libDaisy/src/util/MappedValue.h ****     MappedFloatValue& operator=(float val)
  92:../../libDaisy/src/util/MappedValue.h ****     {
  93:../../libDaisy/src/util/MappedValue.h ****         Set(val);
  94:../../libDaisy/src/util/MappedValue.h ****         return *this;
  95:../../libDaisy/src/util/MappedValue.h ****     }
  96:../../libDaisy/src/util/MappedValue.h **** 
  97:../../libDaisy/src/util/MappedValue.h ****     // inherited form MappedValue
  98:../../libDaisy/src/util/MappedValue.h ****     void AppentToString(FixedCapStrBase<char>& string) const override;
  99:../../libDaisy/src/util/MappedValue.h **** 
 100:../../libDaisy/src/util/MappedValue.h ****     // inherited form MappedValue
 101:../../libDaisy/src/util/MappedValue.h ****     void ResetToDefault() override;
 102:../../libDaisy/src/util/MappedValue.h **** 
 103:../../libDaisy/src/util/MappedValue.h ****     // inherited form MappedValue
 104:../../libDaisy/src/util/MappedValue.h ****     float GetAs0to1() const override;
 105:../../libDaisy/src/util/MappedValue.h **** 
 106:../../libDaisy/src/util/MappedValue.h ****     // inherited form MappedValue
ARM GAS  C:\Users\daniel\AppData\Local\Temp\ccLc35Ca.s 			page 38


 107:../../libDaisy/src/util/MappedValue.h ****     void SetFrom0to1(float normalizedValue0to1) override;
 108:../../libDaisy/src/util/MappedValue.h **** 
 109:../../libDaisy/src/util/MappedValue.h ****     /** Steps the 0..1 normalized representation of the value up or down
 110:../../libDaisy/src/util/MappedValue.h ****      *  in 1% or 5% steps.
 111:../../libDaisy/src/util/MappedValue.h ****      */
 112:../../libDaisy/src/util/MappedValue.h ****     void Step(int16_t numStepsUp, bool useCoarseStepSize) override;
 113:../../libDaisy/src/util/MappedValue.h **** 
 114:../../libDaisy/src/util/MappedValue.h ****   private:
 115:../../libDaisy/src/util/MappedValue.h ****     float                  value_;
 116:../../libDaisy/src/util/MappedValue.h ****     const float            min_;
 117:../../libDaisy/src/util/MappedValue.h ****     const float            max_;
 118:../../libDaisy/src/util/MappedValue.h ****     const float            default_;
 119:../../libDaisy/src/util/MappedValue.h ****     Mapping                mapping_;
 120:../../libDaisy/src/util/MappedValue.h ****     const char*            unitStr_;
 121:../../libDaisy/src/util/MappedValue.h ****     const uint8_t          numDecimals_;
 122:../../libDaisy/src/util/MappedValue.h ****     const bool             forceSign_;
 123:../../libDaisy/src/util/MappedValue.h ****     static constexpr float coarseStepSize0to1_ = 0.05f;
 124:../../libDaisy/src/util/MappedValue.h ****     static constexpr float fineStepSize0to1_   = 0.01f;
 125:../../libDaisy/src/util/MappedValue.h **** };
 126:../../libDaisy/src/util/MappedValue.h **** 
 127:../../libDaisy/src/util/MappedValue.h **** /** @brief A `MappedValue` that maps an int value linearly.
 128:../../libDaisy/src/util/MappedValue.h ****  *  @author jelliesen
 129:../../libDaisy/src/util/MappedValue.h ****  *  @addtogroup utility
 130:../../libDaisy/src/util/MappedValue.h ****  */
 131:../../libDaisy/src/util/MappedValue.h **** class MappedIntValue : public MappedValue
 132:../../libDaisy/src/util/MappedValue.h **** {
 133:../../libDaisy/src/util/MappedValue.h ****   public:
 134:../../libDaisy/src/util/MappedValue.h ****     /** Creates a MappedIntValue.
 135:../../libDaisy/src/util/MappedValue.h ****      * @param min             The lower end of the range of possible values
 136:../../libDaisy/src/util/MappedValue.h ****      * @param max             The upper end of the range of possible values
 137:../../libDaisy/src/util/MappedValue.h ****      * @param defaultValue    The default value
 138:../../libDaisy/src/util/MappedValue.h ****      * @param stepSizeFine    A fine step size to use in the `Step()` function
 139:../../libDaisy/src/util/MappedValue.h ****      * @param stepSizeCoarse  A coarse step size to use in the `Step()` function
 140:../../libDaisy/src/util/MappedValue.h ****      * @param unitStr         A string for the unit, e.g. "Hz"
 141:../../libDaisy/src/util/MappedValue.h ****      * @param forceSign       Controls whether `AppendToString()` always prints the sign, 
 142:../../libDaisy/src/util/MappedValue.h ****      *                        even for positive numbers
 143:../../libDaisy/src/util/MappedValue.h ****      */
 144:../../libDaisy/src/util/MappedValue.h ****     MappedIntValue(int         min,
 145:../../libDaisy/src/util/MappedValue.h ****                    int         max,
 146:../../libDaisy/src/util/MappedValue.h ****                    int         defaultValue,
 147:../../libDaisy/src/util/MappedValue.h ****                    int         stepSizeFine,
 148:../../libDaisy/src/util/MappedValue.h ****                    int         stepSizeCoarse,
 149:../../libDaisy/src/util/MappedValue.h ****                    const char* unitStr   = "",
 150:../../libDaisy/src/util/MappedValue.h ****                    bool        forceSign = false);
 151:../../libDaisy/src/util/MappedValue.h **** 
 152:../../libDaisy/src/util/MappedValue.h ****     ~MappedIntValue() override {}
 153:../../libDaisy/src/util/MappedValue.h **** 
 154:../../libDaisy/src/util/MappedValue.h ****     /** Returns the current value. */
 155:../../libDaisy/src/util/MappedValue.h ****     int Get() const { return value_; }
 156:../../libDaisy/src/util/MappedValue.h **** 
 157:../../libDaisy/src/util/MappedValue.h ****     /** Returns a const pointer to the current value. */
 158:../../libDaisy/src/util/MappedValue.h ****     const int* GetPtr() const { return &value_; }
 159:../../libDaisy/src/util/MappedValue.h **** 
 160:../../libDaisy/src/util/MappedValue.h ****     /** Sets the value, clamping it to the valid range. */
 161:../../libDaisy/src/util/MappedValue.h ****     void Set(int newValue);
 162:../../libDaisy/src/util/MappedValue.h **** 
 163:../../libDaisy/src/util/MappedValue.h ****     /** Returns the current value. */
ARM GAS  C:\Users\daniel\AppData\Local\Temp\ccLc35Ca.s 			page 39


 164:../../libDaisy/src/util/MappedValue.h ****     operator int() const { return value_; }
 165:../../libDaisy/src/util/MappedValue.h **** 
 166:../../libDaisy/src/util/MappedValue.h ****     /** Sets the value, clamping it to the valid range. */
 167:../../libDaisy/src/util/MappedValue.h ****     MappedIntValue& operator=(int val)
 168:../../libDaisy/src/util/MappedValue.h ****     {
 169:../../libDaisy/src/util/MappedValue.h ****         Set(val);
 170:../../libDaisy/src/util/MappedValue.h ****         return *this;
 171:../../libDaisy/src/util/MappedValue.h ****     }
 172:../../libDaisy/src/util/MappedValue.h **** 
 173:../../libDaisy/src/util/MappedValue.h ****     // inherited form MappedValue
 174:../../libDaisy/src/util/MappedValue.h ****     void AppentToString(FixedCapStrBase<char>& string) const override;
 175:../../libDaisy/src/util/MappedValue.h **** 
 176:../../libDaisy/src/util/MappedValue.h ****     // inherited form MappedValue
 177:../../libDaisy/src/util/MappedValue.h ****     void ResetToDefault() override;
 178:../../libDaisy/src/util/MappedValue.h **** 
 179:../../libDaisy/src/util/MappedValue.h ****     // inherited form MappedValue
 180:../../libDaisy/src/util/MappedValue.h ****     float GetAs0to1() const override;
 181:../../libDaisy/src/util/MappedValue.h **** 
 182:../../libDaisy/src/util/MappedValue.h ****     // inherited form MappedValue
 183:../../libDaisy/src/util/MappedValue.h ****     void SetFrom0to1(float normalizedValue0to1) override;
 184:../../libDaisy/src/util/MappedValue.h **** 
 185:../../libDaisy/src/util/MappedValue.h ****     /** Steps the value up or down using the step sizes specified in the constructor. */
 186:../../libDaisy/src/util/MappedValue.h ****     void Step(int16_t numStepsUp, bool useCoarseStepSize) override;
 187:../../libDaisy/src/util/MappedValue.h **** 
 188:../../libDaisy/src/util/MappedValue.h ****   private:
 189:../../libDaisy/src/util/MappedValue.h ****     int         value_;
 190:../../libDaisy/src/util/MappedValue.h ****     const int   min_;
 191:../../libDaisy/src/util/MappedValue.h ****     const int   max_;
 192:../../libDaisy/src/util/MappedValue.h ****     const int   default_;
 193:../../libDaisy/src/util/MappedValue.h ****     const int   stepSizeFine_;
 194:../../libDaisy/src/util/MappedValue.h ****     const int   stepSizeCoarse_;
 195:../../libDaisy/src/util/MappedValue.h ****     const char* unitStr_;
 196:../../libDaisy/src/util/MappedValue.h ****     const bool  forceSign_;
 197:../../libDaisy/src/util/MappedValue.h **** };
 198:../../libDaisy/src/util/MappedValue.h **** /** @brief A `MappedValue` that maps an list of strings linearly.
 199:../../libDaisy/src/util/MappedValue.h ****  *  @author jelliesen
 200:../../libDaisy/src/util/MappedValue.h ****  *  @addtogroup utility
 201:../../libDaisy/src/util/MappedValue.h ****  */
 202:../../libDaisy/src/util/MappedValue.h **** class MappedStringListValue : public MappedValue
 203:../../libDaisy/src/util/MappedValue.h **** {
 204:../../libDaisy/src/util/MappedValue.h ****   public:
 205:../../libDaisy/src/util/MappedValue.h ****     /** Creates a MappedStringListValue.
 206:../../libDaisy/src/util/MappedValue.h ****      * @param itemStrings     An Array of strings, one for each possible item.
 207:../../libDaisy/src/util/MappedValue.h ****      * @param numItems        The number of possible items
 208:../../libDaisy/src/util/MappedValue.h ****      * @param defaultIndex    The default index
 209:../../libDaisy/src/util/MappedValue.h ****      */
 210:../../libDaisy/src/util/MappedValue.h ****     MappedStringListValue(const char** itemStrings,
 211:../../libDaisy/src/util/MappedValue.h ****                           uint16_t     numItems,
 212:../../libDaisy/src/util/MappedValue.h ****                           uint32_t     defaultIndex);
 213:../../libDaisy/src/util/MappedValue.h **** 
 214:../../libDaisy/src/util/MappedValue.h ****     ~MappedStringListValue() override {}
 286              		.loc 18 214 5 is_stmt 1 view -0
 287              		.cfi_startproc
 288              		@ args = 0, pretend = 0, frame = 0
 289              		@ frame_needed = 0, uses_anonymous_args = 0
 290              		@ link register save eliminated.
 291              	.LBB1035:
ARM GAS  C:\Users\daniel\AppData\Local\Temp\ccLc35Ca.s 			page 40


 292              	.LBI1035:
  14:../../libDaisy/src/util/MappedValue.h **** 
 293              		.loc 18 14 13 view .LVU49
  14:../../libDaisy/src/util/MappedValue.h **** 
 294              		.loc 18 14 13 is_stmt 0 view .LVU50
 295              	.LBE1035:
 296              		.loc 18 214 40 view .LVU51
 297 0000 7047     		bx	lr
 298              		.cfi_endproc
 299              	.LFE2822:
 301              		.weak	_ZN5daisy21MappedStringListValueD1Ev
 302              		.thumb_set _ZN5daisy21MappedStringListValueD1Ev,_ZN5daisy21MappedStringListValueD2Ev
 303              		.section	.text._ZN5daisy8patch_sm12DaisyPatchSMD2Ev,"axG",%progbits,_ZN5daisy8patch_sm12DaisyPatch
 304              		.align	1
 305              		.weak	_ZN5daisy8patch_sm12DaisyPatchSMD2Ev
 306              		.syntax unified
 307              		.thumb
 308              		.thumb_func
 309              		.fpu fpv5-d16
 311              	_ZN5daisy8patch_sm12DaisyPatchSMD2Ev:
 312              	.LVL7:
 313              	.LFB2906:
 314              		.file 19 "../../libDaisy/src/daisy_patch_sm.h"
   1:../../libDaisy/src/daisy_patch_sm.h **** #pragma once
   2:../../libDaisy/src/daisy_patch_sm.h **** 
   3:../../libDaisy/src/daisy_patch_sm.h **** #include "daisy.h"
   4:../../libDaisy/src/daisy_patch_sm.h **** 
   5:../../libDaisy/src/daisy_patch_sm.h **** namespace daisy
   6:../../libDaisy/src/daisy_patch_sm.h **** {
   7:../../libDaisy/src/daisy_patch_sm.h **** namespace patch_sm
   8:../../libDaisy/src/daisy_patch_sm.h **** {
   9:../../libDaisy/src/daisy_patch_sm.h ****     /** Accessors for the Analog Controls. 
  10:../../libDaisy/src/daisy_patch_sm.h ****      *  These cover the 8x Bipolar CV inputs
  11:../../libDaisy/src/daisy_patch_sm.h ****      *  as well as the 4x 0-3V3 ADC inputs on
  12:../../libDaisy/src/daisy_patch_sm.h ****      *  the hardware 
  13:../../libDaisy/src/daisy_patch_sm.h ****      * 
  14:../../libDaisy/src/daisy_patch_sm.h ****      *  When reading a value with DaisyPatchSM::GetAdcValue()
  15:../../libDaisy/src/daisy_patch_sm.h ****      * 
  16:../../libDaisy/src/daisy_patch_sm.h ****      *  patch.GetAdcValue(patch_sm::CV_1);
  17:../../libDaisy/src/daisy_patch_sm.h ****      */
  18:../../libDaisy/src/daisy_patch_sm.h ****     enum
  19:../../libDaisy/src/daisy_patch_sm.h ****     {
  20:../../libDaisy/src/daisy_patch_sm.h ****         CV_1 = 0,
  21:../../libDaisy/src/daisy_patch_sm.h ****         CV_2,
  22:../../libDaisy/src/daisy_patch_sm.h ****         CV_3,
  23:../../libDaisy/src/daisy_patch_sm.h ****         CV_4,
  24:../../libDaisy/src/daisy_patch_sm.h ****         CV_5,
  25:../../libDaisy/src/daisy_patch_sm.h ****         CV_6,
  26:../../libDaisy/src/daisy_patch_sm.h ****         CV_7,
  27:../../libDaisy/src/daisy_patch_sm.h ****         CV_8,
  28:../../libDaisy/src/daisy_patch_sm.h ****         ADC_9,
  29:../../libDaisy/src/daisy_patch_sm.h ****         ADC_10,
  30:../../libDaisy/src/daisy_patch_sm.h ****         ADC_11,
  31:../../libDaisy/src/daisy_patch_sm.h ****         ADC_12,
  32:../../libDaisy/src/daisy_patch_sm.h ****         ADC_LAST,
  33:../../libDaisy/src/daisy_patch_sm.h ****     };
  34:../../libDaisy/src/daisy_patch_sm.h **** 
ARM GAS  C:\Users\daniel\AppData\Local\Temp\ccLc35Ca.s 			page 41


  35:../../libDaisy/src/daisy_patch_sm.h ****     /** Enum for addressing the CV Outputs via the WriteCvOut function. */
  36:../../libDaisy/src/daisy_patch_sm.h ****     enum
  37:../../libDaisy/src/daisy_patch_sm.h ****     {
  38:../../libDaisy/src/daisy_patch_sm.h ****         CV_OUT_BOTH = 0,
  39:../../libDaisy/src/daisy_patch_sm.h ****         CV_OUT_1,
  40:../../libDaisy/src/daisy_patch_sm.h ****         CV_OUT_2,
  41:../../libDaisy/src/daisy_patch_sm.h ****     };
  42:../../libDaisy/src/daisy_patch_sm.h **** 
  43:../../libDaisy/src/daisy_patch_sm.h **** 
  44:../../libDaisy/src/daisy_patch_sm.h ****     /** @brief Board support file for DaisyPatchSM hardware
  45:../../libDaisy/src/daisy_patch_sm.h ****      *  @author shensley
  46:../../libDaisy/src/daisy_patch_sm.h ****      *  @ingroup boards
  47:../../libDaisy/src/daisy_patch_sm.h ****      * 
  48:../../libDaisy/src/daisy_patch_sm.h ****      *  Daisy Patch SM is a complete Eurorack module DSP engine.
  49:../../libDaisy/src/daisy_patch_sm.h ****      *  Based on the Daisy Seed, with circuits added for 
  50:../../libDaisy/src/daisy_patch_sm.h ****      *  interfacing directly with eurorack modular synthesizers.
  51:../../libDaisy/src/daisy_patch_sm.h ****      */
  52:../../libDaisy/src/daisy_patch_sm.h ****     class DaisyPatchSM
  53:../../libDaisy/src/daisy_patch_sm.h ****     {
  54:../../libDaisy/src/daisy_patch_sm.h ****       public:
  55:../../libDaisy/src/daisy_patch_sm.h ****         /** Helper for mapping pins, and accessing them using the `GetPin` function */
  56:../../libDaisy/src/daisy_patch_sm.h ****         enum class PinBank
  57:../../libDaisy/src/daisy_patch_sm.h ****         {
  58:../../libDaisy/src/daisy_patch_sm.h ****             A,
  59:../../libDaisy/src/daisy_patch_sm.h ****             B,
  60:../../libDaisy/src/daisy_patch_sm.h ****             C,
  61:../../libDaisy/src/daisy_patch_sm.h ****             D
  62:../../libDaisy/src/daisy_patch_sm.h ****         };
  63:../../libDaisy/src/daisy_patch_sm.h **** 
  64:../../libDaisy/src/daisy_patch_sm.h ****         DaisyPatchSM() {}
  65:../../libDaisy/src/daisy_patch_sm.h ****         ~DaisyPatchSM() {}
 315              		.loc 19 65 9 is_stmt 1 view -0
 316              		.cfi_startproc
 317              		@ args = 0, pretend = 0, frame = 0
 318              		@ frame_needed = 0, uses_anonymous_args = 0
 319              		@ link register save eliminated.
 320              	.LBB1036:
 321              	.LBI1036:
 322              		.file 20 "../../libDaisy/src/hid/gatein.h"
   1:../../libDaisy/src/hid/gatein.h **** #pragma once
   2:../../libDaisy/src/hid/gatein.h **** #ifndef DSY_GATEIN_H
   3:../../libDaisy/src/hid/gatein.h **** #define DSY_GATEIN_H
   4:../../libDaisy/src/hid/gatein.h **** #include "per/gpio.h"
   5:../../libDaisy/src/hid/gatein.h **** 
   6:../../libDaisy/src/hid/gatein.h **** namespace daisy
   7:../../libDaisy/src/hid/gatein.h **** {
   8:../../libDaisy/src/hid/gatein.h **** /**
   9:../../libDaisy/src/hid/gatein.h ****    @brief Generic Class for handling gate inputs through GPIO.
  10:../../libDaisy/src/hid/gatein.h ****    @author Stephen Hensley
  11:../../libDaisy/src/hid/gatein.h ****    @date    March 2020
  12:../../libDaisy/src/hid/gatein.h ****    @ingroup controls
  13:../../libDaisy/src/hid/gatein.h **** */
  14:../../libDaisy/src/hid/gatein.h **** class GateIn
  15:../../libDaisy/src/hid/gatein.h **** {
  16:../../libDaisy/src/hid/gatein.h ****   public:
  17:../../libDaisy/src/hid/gatein.h ****     /** GateIn 
  18:../../libDaisy/src/hid/gatein.h ****     Constructor 
ARM GAS  C:\Users\daniel\AppData\Local\Temp\ccLc35Ca.s 			page 42


  19:../../libDaisy/src/hid/gatein.h ****     */
  20:../../libDaisy/src/hid/gatein.h ****     GateIn() {}
  21:../../libDaisy/src/hid/gatein.h ****     /** GateIn~
  22:../../libDaisy/src/hid/gatein.h ****     Destructor 
  23:../../libDaisy/src/hid/gatein.h ****     */
  24:../../libDaisy/src/hid/gatein.h ****     ~GateIn() {}
 323              		.loc 20 24 5 view .LVU53
 324              		.loc 20 24 5 is_stmt 0 view .LVU54
 325              	.LBE1036:
 326              	.LBB1037:
 327              	.LBI1037:
 328              		.loc 20 24 5 is_stmt 1 view .LVU55
 329              		.loc 20 24 5 is_stmt 0 view .LVU56
 330              	.LBE1037:
 331              	.LBB1038:
 332              	.LBI1038:
 333              		.file 21 "../../libDaisy/src/dev/codec_pcm3060.h"
   1:../../libDaisy/src/dev/codec_pcm3060.h **** #pragma once
   2:../../libDaisy/src/dev/codec_pcm3060.h **** #ifndef DSY_CODEC_PCM3060_H
   3:../../libDaisy/src/dev/codec_pcm3060.h **** #define DSY_CODEC_PCM3060_H
   4:../../libDaisy/src/dev/codec_pcm3060.h **** #include "per/i2c.h"
   5:../../libDaisy/src/dev/codec_pcm3060.h **** namespace daisy
   6:../../libDaisy/src/dev/codec_pcm3060.h **** {
   7:../../libDaisy/src/dev/codec_pcm3060.h **** /**
   8:../../libDaisy/src/dev/codec_pcm3060.h ****  * @brief Driver for the TI PCM3060 Audio Codec.
   9:../../libDaisy/src/dev/codec_pcm3060.h ****  * @addtogroup codec
  10:../../libDaisy/src/dev/codec_pcm3060.h ****  * 
  11:../../libDaisy/src/dev/codec_pcm3060.h ****  * For now this is a limited interface that uses I2C to communicate with the PCM3060
  12:../../libDaisy/src/dev/codec_pcm3060.h ****  * The device can also be accessed with SPI, which is not yet supported.
  13:../../libDaisy/src/dev/codec_pcm3060.h ****  * 
  14:../../libDaisy/src/dev/codec_pcm3060.h ****  * For now all registers are set to their defaults, and the Init function will 
  15:../../libDaisy/src/dev/codec_pcm3060.h ****  * perform a MRST and SRST before setting the format to 24bit LJ, and disabling 
  16:../../libDaisy/src/dev/codec_pcm3060.h ****  * power save for both the ADC and DAC.
  17:../../libDaisy/src/dev/codec_pcm3060.h ****  *
  18:../../libDaisy/src/dev/codec_pcm3060.h ****  */
  19:../../libDaisy/src/dev/codec_pcm3060.h **** class Pcm3060
  20:../../libDaisy/src/dev/codec_pcm3060.h **** {
  21:../../libDaisy/src/dev/codec_pcm3060.h ****   public:
  22:../../libDaisy/src/dev/codec_pcm3060.h ****     enum class Result
  23:../../libDaisy/src/dev/codec_pcm3060.h ****     {
  24:../../libDaisy/src/dev/codec_pcm3060.h ****         OK,
  25:../../libDaisy/src/dev/codec_pcm3060.h ****         ERR,
  26:../../libDaisy/src/dev/codec_pcm3060.h ****     };
  27:../../libDaisy/src/dev/codec_pcm3060.h **** 
  28:../../libDaisy/src/dev/codec_pcm3060.h ****     Pcm3060() {}
  29:../../libDaisy/src/dev/codec_pcm3060.h ****     ~Pcm3060() {}
 334              		.loc 21 29 5 is_stmt 1 view .LVU57
 335              		.loc 21 29 5 is_stmt 0 view .LVU58
 336              	.LBE1038:
 337              	.LBB1039:
 338              	.LBI1039:
 339              		.file 22 "../../libDaisy/src/hid/usb.h"
   1:../../libDaisy/src/hid/usb.h **** #pragma once
   2:../../libDaisy/src/hid/usb.h **** #ifndef DSY_HID_USB_H
   3:../../libDaisy/src/hid/usb.h **** #define DSY_HID_USB_H
   4:../../libDaisy/src/hid/usb.h **** #include <stdint.h>
   5:../../libDaisy/src/hid/usb.h **** #include <stdlib.h>
ARM GAS  C:\Users\daniel\AppData\Local\Temp\ccLc35Ca.s 			page 43


   6:../../libDaisy/src/hid/usb.h **** 
   7:../../libDaisy/src/hid/usb.h **** namespace daisy
   8:../../libDaisy/src/hid/usb.h **** /** @addtogroup human_interface
   9:../../libDaisy/src/hid/usb.h ****     @{
  10:../../libDaisy/src/hid/usb.h **** */
  11:../../libDaisy/src/hid/usb.h **** 
  12:../../libDaisy/src/hid/usb.h **** {
  13:../../libDaisy/src/hid/usb.h **** /** 
  14:../../libDaisy/src/hid/usb.h ****     @brief Interface for initializing and using the USB Peripherals on the daisy
  15:../../libDaisy/src/hid/usb.h ****     @author Stephen Hensley
  16:../../libDaisy/src/hid/usb.h ****     @date December 2019
  17:../../libDaisy/src/hid/usb.h **** */
  18:../../libDaisy/src/hid/usb.h **** class UsbHandle
  19:../../libDaisy/src/hid/usb.h **** {
  20:../../libDaisy/src/hid/usb.h ****   public:
  21:../../libDaisy/src/hid/usb.h ****     /** Return values for USBHandle Functions */
  22:../../libDaisy/src/hid/usb.h ****     enum class Result
  23:../../libDaisy/src/hid/usb.h ****     {
  24:../../libDaisy/src/hid/usb.h ****         OK,
  25:../../libDaisy/src/hid/usb.h ****         ERR,
  26:../../libDaisy/src/hid/usb.h ****     };
  27:../../libDaisy/src/hid/usb.h **** 
  28:../../libDaisy/src/hid/usb.h ****     /** Specified which of the two USB Peripherals to initialize. */
  29:../../libDaisy/src/hid/usb.h ****     enum UsbPeriph
  30:../../libDaisy/src/hid/usb.h ****     {
  31:../../libDaisy/src/hid/usb.h ****         FS_INTERNAL, /**< Internal pin */
  32:../../libDaisy/src/hid/usb.h ****         FS_EXTERNAL, /**< FS External D+ pin is Pin 38 (GPIO32). FS External D- pin is Pin 37 (GPIO
  33:../../libDaisy/src/hid/usb.h ****         FS_BOTH,     /**< Both */
  34:../../libDaisy/src/hid/usb.h ****     };
  35:../../libDaisy/src/hid/usb.h **** 
  36:../../libDaisy/src/hid/usb.h **** 
  37:../../libDaisy/src/hid/usb.h ****     /** Function called upon reception of a buffer */
  38:../../libDaisy/src/hid/usb.h ****     typedef void (*ReceiveCallback)(uint8_t* buff, uint32_t* len);
  39:../../libDaisy/src/hid/usb.h **** 
  40:../../libDaisy/src/hid/usb.h ****     UsbHandle() {}
  41:../../libDaisy/src/hid/usb.h **** 
  42:../../libDaisy/src/hid/usb.h ****     ~UsbHandle() {}
 340              		.loc 22 42 5 is_stmt 1 view .LVU59
 341              		.loc 22 42 5 is_stmt 0 view .LVU60
 342              	.LBE1039:
 343              	.LBB1040:
 344              	.LBI1040:
 345              		.file 23 "../../libDaisy/src/per/adc.h"
   1:../../libDaisy/src/per/adc.h **** #pragma once
   2:../../libDaisy/src/per/adc.h **** #ifndef DSY_ADC_H
   3:../../libDaisy/src/per/adc.h **** #define DSY_ADC_H /**< Macro */
   4:../../libDaisy/src/per/adc.h **** #include <stdint.h>
   5:../../libDaisy/src/per/adc.h **** #include <stdlib.h>
   6:../../libDaisy/src/per/adc.h **** #include "daisy_core.h"
   7:../../libDaisy/src/per/adc.h **** #include "per/gpio.h"
   8:../../libDaisy/src/per/adc.h **** 
   9:../../libDaisy/src/per/adc.h **** #define DSY_ADC_MAX_CHANNELS 16 /**< Maximum number of ADC channels */
  10:../../libDaisy/src/per/adc.h **** 
  11:../../libDaisy/src/per/adc.h **** namespace daisy
  12:../../libDaisy/src/per/adc.h **** {
  13:../../libDaisy/src/per/adc.h **** /** @addtogroup per_analog
  14:../../libDaisy/src/per/adc.h ****     @{
ARM GAS  C:\Users\daniel\AppData\Local\Temp\ccLc35Ca.s 			page 44


  15:../../libDaisy/src/per/adc.h **** */
  16:../../libDaisy/src/per/adc.h **** 
  17:../../libDaisy/src/per/adc.h **** /* While there may not be many configuration options here,
  18:../../libDaisy/src/per/adc.h **** using a struct like this allows us to add more configuration
  19:../../libDaisy/src/per/adc.h **** later without breaking existing functionality.
  20:../../libDaisy/src/per/adc.h **** */
  21:../../libDaisy/src/per/adc.h **** 
  22:../../libDaisy/src/per/adc.h **** /** @brief   Configuration Structure for an ADC Channel 
  23:../../libDaisy/src/per/adc.h ****  *  @details This can be used to configure a a single input, 
  24:../../libDaisy/src/per/adc.h ****  *           or a multiplexed input, allowing up to 8 inputs on 
  25:../../libDaisy/src/per/adc.h ****  *           one channel.
  26:../../libDaisy/src/per/adc.h ****  *  @note    Sharing data lines to multiple muxes _is_ possible, but
  27:../../libDaisy/src/per/adc.h ****  *           each channel sharing data lines must be set to the maximum
  28:../../libDaisy/src/per/adc.h ****  *           number of channels, even if some multiplexers have fewer
  29:../../libDaisy/src/per/adc.h ****  *           inputs connected.
  30:../../libDaisy/src/per/adc.h **** */
  31:../../libDaisy/src/per/adc.h **** struct AdcChannelConfig
  32:../../libDaisy/src/per/adc.h **** {
  33:../../libDaisy/src/per/adc.h ****     /** Which pin to use for multiplexing */
  34:../../libDaisy/src/per/adc.h ****     enum MuxPin
  35:../../libDaisy/src/per/adc.h ****     {
  36:../../libDaisy/src/per/adc.h ****         MUX_SEL_0,    /**< & */
  37:../../libDaisy/src/per/adc.h ****         MUX_SEL_1,    /**< & */
  38:../../libDaisy/src/per/adc.h ****         MUX_SEL_2,    /**< & */
  39:../../libDaisy/src/per/adc.h ****         MUX_SEL_LAST, /**< & */
  40:../../libDaisy/src/per/adc.h ****     };
  41:../../libDaisy/src/per/adc.h **** 
  42:../../libDaisy/src/per/adc.h ****     /** Initializes a single ADC pin as an ADC. 
  43:../../libDaisy/src/per/adc.h ****     \param pin Pin to init.
  44:../../libDaisy/src/per/adc.h ****      */
  45:../../libDaisy/src/per/adc.h ****     void InitSingle(dsy_gpio_pin pin);
  46:../../libDaisy/src/per/adc.h **** 
  47:../../libDaisy/src/per/adc.h ****     /** 
  48:../../libDaisy/src/per/adc.h ****     Initializes a single ADC pin as a Multiplexed ADC.
  49:../../libDaisy/src/per/adc.h ****     Requires a CD405X Multiplexer connected to the pin.
  50:../../libDaisy/src/per/adc.h ****     You only need to supply the mux pins that are required,
  51:../../libDaisy/src/per/adc.h ****     e.g. a 4052 mux would only require mux_0 and mux_1.
  52:../../libDaisy/src/per/adc.h ****     Internal Callbacks handle the pin addressing.
  53:../../libDaisy/src/per/adc.h ****     \param mux_channels must be 1-8
  54:../../libDaisy/src/per/adc.h ****     \param mux_0 First mux pin
  55:../../libDaisy/src/per/adc.h ****     \param mux_1 Second mux pin
  56:../../libDaisy/src/per/adc.h ****     \param mux_2 Third mux pin
  57:../../libDaisy/src/per/adc.h ****     \param adc_pin &
  58:../../libDaisy/src/per/adc.h ****     */
  59:../../libDaisy/src/per/adc.h ****     void InitMux(dsy_gpio_pin adc_pin,
  60:../../libDaisy/src/per/adc.h ****                  size_t       mux_channels,
  61:../../libDaisy/src/per/adc.h ****                  dsy_gpio_pin mux_0,
  62:../../libDaisy/src/per/adc.h ****                  dsy_gpio_pin mux_1 = {DSY_GPIOX, 0},
  63:../../libDaisy/src/per/adc.h ****                  dsy_gpio_pin mux_2 = {DSY_GPIOX, 0});
  64:../../libDaisy/src/per/adc.h **** 
  65:../../libDaisy/src/per/adc.h ****     dsy_gpio pin_;                   /**< & */
  66:../../libDaisy/src/per/adc.h ****     dsy_gpio mux_pin_[MUX_SEL_LAST]; /**< & */
  67:../../libDaisy/src/per/adc.h ****     uint8_t  mux_channels_;          /**< & */
  68:../../libDaisy/src/per/adc.h **** };
  69:../../libDaisy/src/per/adc.h **** 
  70:../../libDaisy/src/per/adc.h **** /**
  71:../../libDaisy/src/per/adc.h ****    @brief Handler for analog to digital conversion
ARM GAS  C:\Users\daniel\AppData\Local\Temp\ccLc35Ca.s 			page 45


  72:../../libDaisy/src/per/adc.h **** */
  73:../../libDaisy/src/per/adc.h **** class AdcHandle
  74:../../libDaisy/src/per/adc.h **** {
  75:../../libDaisy/src/per/adc.h ****   public:
  76:../../libDaisy/src/per/adc.h ****     /** Supported oversampling amounts */
  77:../../libDaisy/src/per/adc.h ****     enum OverSampling
  78:../../libDaisy/src/per/adc.h ****     {
  79:../../libDaisy/src/per/adc.h ****         OVS_NONE, /**< & */
  80:../../libDaisy/src/per/adc.h ****         OVS_4,    /**< & */
  81:../../libDaisy/src/per/adc.h ****         OVS_8,    /**< & */
  82:../../libDaisy/src/per/adc.h ****         OVS_16,   /**< & */
  83:../../libDaisy/src/per/adc.h ****         OVS_32,   /**< & */
  84:../../libDaisy/src/per/adc.h ****         OVS_64,   /**< & */
  85:../../libDaisy/src/per/adc.h ****         OVS_128,  /**< & */
  86:../../libDaisy/src/per/adc.h ****         OVS_256,  /**< & */
  87:../../libDaisy/src/per/adc.h ****         OVS_512,  /**< & */
  88:../../libDaisy/src/per/adc.h ****         OVS_1024, /**< & */
  89:../../libDaisy/src/per/adc.h ****         OVS_LAST, /**< & */
  90:../../libDaisy/src/per/adc.h ****     };
  91:../../libDaisy/src/per/adc.h **** 
  92:../../libDaisy/src/per/adc.h ****     AdcHandle() {}
  93:../../libDaisy/src/per/adc.h ****     ~AdcHandle() {}
 346              		.loc 23 93 5 is_stmt 1 view .LVU61
 347              		.loc 23 93 5 is_stmt 0 view .LVU62
 348              	.LBE1040:
 349              	.LBB1041:
 350              	.LBI1041:
 351              		.file 24 "../../libDaisy/src/hid/audio.h"
   1:../../libDaisy/src/hid/audio.h **** #ifndef DSY_AUDIO_H
   2:../../libDaisy/src/hid/audio.h **** #define DSY_AUDIO_H /**< & */
   3:../../libDaisy/src/hid/audio.h **** 
   4:../../libDaisy/src/hid/audio.h **** #include "per/sai.h"
   5:../../libDaisy/src/hid/audio.h **** 
   6:../../libDaisy/src/hid/audio.h **** namespace daisy
   7:../../libDaisy/src/hid/audio.h **** {
   8:../../libDaisy/src/hid/audio.h **** /** @brief Audio Engine Handle
   9:../../libDaisy/src/hid/audio.h ****  *  @ingroup audio 
  10:../../libDaisy/src/hid/audio.h ****  *  @details This class allows for higher level access to an audio engine.
  11:../../libDaisy/src/hid/audio.h ****  *           If you're using a SOM like the DaisySeed or DaisyPatchSM (or any 
  12:../../libDaisy/src/hid/audio.h ****  *            board that includes one of those objects) then the intialization
  13:../../libDaisy/src/hid/audio.h ****  *            is already taken  care of.
  14:../../libDaisy/src/hid/audio.h ****  *           If you're setting up your own custom hardware, or need to make changes
  15:../../libDaisy/src/hid/audio.h ****  *           you will have to take the following steps:
  16:../../libDaisy/src/hid/audio.h ****  *             1. Create and Initialize an SaiHandle or two depending on your requirements
  17:../../libDaisy/src/hid/audio.h ****  *             2. Initialize the Audio Handle with the desired settings and the Initialized SaiHand
  18:../../libDaisy/src/hid/audio.h ****  *             3. If the connected codec requires special configuration or initialization, do so
  19:../../libDaisy/src/hid/audio.h ****  *             4. Write a callback method using either the AudioCallback or the InterleavingAudioCa
  20:../../libDaisy/src/hid/audio.h ****  *             5. Start the Audio using one of the StartAudio function
  21:../../libDaisy/src/hid/audio.h ****  */
  22:../../libDaisy/src/hid/audio.h **** class AudioHandle
  23:../../libDaisy/src/hid/audio.h **** {
  24:../../libDaisy/src/hid/audio.h ****   public:
  25:../../libDaisy/src/hid/audio.h ****     /** Manually configurable details about the Audio Engine */
  26:../../libDaisy/src/hid/audio.h ****     /** TODO: Figure out how to get samplerate in here. */
  27:../../libDaisy/src/hid/audio.h ****     struct Config
  28:../../libDaisy/src/hid/audio.h ****     {
  29:../../libDaisy/src/hid/audio.h ****         /** number of samples to process per callback */
ARM GAS  C:\Users\daniel\AppData\Local\Temp\ccLc35Ca.s 			page 46


  30:../../libDaisy/src/hid/audio.h ****         size_t blocksize;
  31:../../libDaisy/src/hid/audio.h **** 
  32:../../libDaisy/src/hid/audio.h ****         /**< Sample rate of audio */
  33:../../libDaisy/src/hid/audio.h ****         SaiHandle::Config::SampleRate samplerate;
  34:../../libDaisy/src/hid/audio.h **** 
  35:../../libDaisy/src/hid/audio.h ****         /** factor for adjustment before and after callback for hardware that may have extra headro
  36:../../libDaisy/src/hid/audio.h ****         float postgain;
  37:../../libDaisy/src/hid/audio.h **** 
  38:../../libDaisy/src/hid/audio.h ****         /** factor for additional one-sided compensation to audio path for hardware that may
  39:../../libDaisy/src/hid/audio.h ****          *  have unequal input/output ranges
  40:../../libDaisy/src/hid/audio.h ****          */
  41:../../libDaisy/src/hid/audio.h ****         float output_compensation;
  42:../../libDaisy/src/hid/audio.h **** 
  43:../../libDaisy/src/hid/audio.h ****         /** Sets default values for config struct */
  44:../../libDaisy/src/hid/audio.h ****         Config()
  45:../../libDaisy/src/hid/audio.h ****         : blocksize(48),
  46:../../libDaisy/src/hid/audio.h ****           samplerate(SaiHandle::Config::SampleRate::SAI_48KHZ),
  47:../../libDaisy/src/hid/audio.h ****           postgain(1.f),
  48:../../libDaisy/src/hid/audio.h ****           output_compensation(1.f)
  49:../../libDaisy/src/hid/audio.h ****         {
  50:../../libDaisy/src/hid/audio.h ****         }
  51:../../libDaisy/src/hid/audio.h ****     };
  52:../../libDaisy/src/hid/audio.h **** 
  53:../../libDaisy/src/hid/audio.h ****     enum class Result
  54:../../libDaisy/src/hid/audio.h ****     {
  55:../../libDaisy/src/hid/audio.h ****         OK,
  56:../../libDaisy/src/hid/audio.h ****         ERR,
  57:../../libDaisy/src/hid/audio.h ****     };
  58:../../libDaisy/src/hid/audio.h **** 
  59:../../libDaisy/src/hid/audio.h ****     /** Non-Interleaving input buffer
  60:../../libDaisy/src/hid/audio.h ****      * Buffer arranged by float[chn][sample] 
  61:../../libDaisy/src/hid/audio.h ****      * const so that the user can't modify the input
  62:../../libDaisy/src/hid/audio.h ****      */
  63:../../libDaisy/src/hid/audio.h ****     typedef const float* const* InputBuffer;
  64:../../libDaisy/src/hid/audio.h **** 
  65:../../libDaisy/src/hid/audio.h ****     /** Non-Interleaving output buffer
  66:../../libDaisy/src/hid/audio.h ****      * Arranged by float[chn][sample] 
  67:../../libDaisy/src/hid/audio.h ****      */
  68:../../libDaisy/src/hid/audio.h ****     typedef float** OutputBuffer;
  69:../../libDaisy/src/hid/audio.h **** 
  70:../../libDaisy/src/hid/audio.h ****     /** Type for a Non-Interleaving audio callback 
  71:../../libDaisy/src/hid/audio.h ****      * Non-Interleaving audio callbacks in daisy will be of this type
  72:../../libDaisy/src/hid/audio.h ****      */
  73:../../libDaisy/src/hid/audio.h ****     typedef void (*AudioCallback)(InputBuffer  in,
  74:../../libDaisy/src/hid/audio.h ****                                   OutputBuffer out,
  75:../../libDaisy/src/hid/audio.h ****                                   size_t       size);
  76:../../libDaisy/src/hid/audio.h **** 
  77:../../libDaisy/src/hid/audio.h ****     /** Interleaving Input buffer
  78:../../libDaisy/src/hid/audio.h ****      ** audio is prepared as { L0, R0, L1, R1, . . . LN, RN }]
  79:../../libDaisy/src/hid/audio.h ****      ** this is const, as the user shouldn't modify it
  80:../../libDaisy/src/hid/audio.h ****     */
  81:../../libDaisy/src/hid/audio.h ****     typedef const float* InterleavingInputBuffer;
  82:../../libDaisy/src/hid/audio.h **** 
  83:../../libDaisy/src/hid/audio.h ****     /** Interleaving Output buffer 
  84:../../libDaisy/src/hid/audio.h ****      ** audio is prepared as { L0, R0, L1, R1, . . . LN, RN }
  85:../../libDaisy/src/hid/audio.h ****     */
  86:../../libDaisy/src/hid/audio.h ****     typedef float* InterleavingOutputBuffer;
ARM GAS  C:\Users\daniel\AppData\Local\Temp\ccLc35Ca.s 			page 47


  87:../../libDaisy/src/hid/audio.h **** 
  88:../../libDaisy/src/hid/audio.h ****     /** Interleaving Audio Callback 
  89:../../libDaisy/src/hid/audio.h ****      * Interleaving audio callbacks in daisy must be of this type
  90:../../libDaisy/src/hid/audio.h ****      */
  91:../../libDaisy/src/hid/audio.h ****     typedef void (*InterleavingAudioCallback)(InterleavingInputBuffer  in,
  92:../../libDaisy/src/hid/audio.h ****                                               InterleavingOutputBuffer out,
  93:../../libDaisy/src/hid/audio.h ****                                               size_t                   size);
  94:../../libDaisy/src/hid/audio.h **** 
  95:../../libDaisy/src/hid/audio.h ****     AudioHandle() : pimpl_(nullptr) {}
  96:../../libDaisy/src/hid/audio.h ****     ~AudioHandle() {}
 352              		.loc 24 96 5 is_stmt 1 view .LVU63
 353              		.loc 24 96 5 is_stmt 0 view .LVU64
 354              	.LBE1041:
 355              	.LBB1042:
 356              	.LBI1042:
 357              		.file 25 "../../libDaisy/src/sys/system.h"
   1:../../libDaisy/src/sys/system.h **** #ifndef DSY_SYSTEM_H
   2:../../libDaisy/src/sys/system.h **** #define DSY_SYSTEM_H
   3:../../libDaisy/src/sys/system.h **** 
   4:../../libDaisy/src/sys/system.h **** #ifndef UNIT_TEST // for unit tests, a dummy implementation is provided below
   5:../../libDaisy/src/sys/system.h **** 
   6:../../libDaisy/src/sys/system.h **** #include <cstdint>
   7:../../libDaisy/src/sys/system.h **** #include "per/tim.h"
   8:../../libDaisy/src/sys/system.h **** 
   9:../../libDaisy/src/sys/system.h **** namespace daisy
  10:../../libDaisy/src/sys/system.h **** {
  11:../../libDaisy/src/sys/system.h **** /** A handle for interacting with the Core System. 
  12:../../libDaisy/src/sys/system.h ****  ** This includes the Clock tree, MPU, global DMA initialization,
  13:../../libDaisy/src/sys/system.h ****  ** cache handling, and any other necessary global initiailzation
  14:../../libDaisy/src/sys/system.h ****  **
  15:../../libDaisy/src/sys/system.h ****  ** @author shensley
  16:../../libDaisy/src/sys/system.h ****  ** @ingroup system
  17:../../libDaisy/src/sys/system.h ****  */
  18:../../libDaisy/src/sys/system.h **** class System
  19:../../libDaisy/src/sys/system.h **** {
  20:../../libDaisy/src/sys/system.h ****   public:
  21:../../libDaisy/src/sys/system.h ****     /** Contains settings for initializing the System */
  22:../../libDaisy/src/sys/system.h ****     struct Config
  23:../../libDaisy/src/sys/system.h ****     {
  24:../../libDaisy/src/sys/system.h ****         /** Specifies the system clock frequency that feeds APB/AHB clocks, etc. */
  25:../../libDaisy/src/sys/system.h ****         enum class SysClkFreq
  26:../../libDaisy/src/sys/system.h ****         {
  27:../../libDaisy/src/sys/system.h ****             FREQ_400MHZ,
  28:../../libDaisy/src/sys/system.h ****             FREQ_480MHZ,
  29:../../libDaisy/src/sys/system.h ****         };
  30:../../libDaisy/src/sys/system.h **** 
  31:../../libDaisy/src/sys/system.h ****         /** Method to call on the struct to set to defaults
  32:../../libDaisy/src/sys/system.h ****          ** CPU Freq set to 400MHz
  33:../../libDaisy/src/sys/system.h ****          ** Cache Enabled 
  34:../../libDaisy/src/sys/system.h ****          ** */
  35:../../libDaisy/src/sys/system.h ****         void Defaults()
  36:../../libDaisy/src/sys/system.h ****         {
  37:../../libDaisy/src/sys/system.h ****             cpu_freq    = SysClkFreq::FREQ_400MHZ;
  38:../../libDaisy/src/sys/system.h ****             use_dcache  = true;
  39:../../libDaisy/src/sys/system.h ****             use_icache  = true;
  40:../../libDaisy/src/sys/system.h ****             skip_clocks = false;
  41:../../libDaisy/src/sys/system.h ****         }
ARM GAS  C:\Users\daniel\AppData\Local\Temp\ccLc35Ca.s 			page 48


  42:../../libDaisy/src/sys/system.h **** 
  43:../../libDaisy/src/sys/system.h ****         /** Method to call on the struct to set to boost mode:
  44:../../libDaisy/src/sys/system.h ****          ** CPU Freq set to 480MHz
  45:../../libDaisy/src/sys/system.h ****          ** Cache Enabled 
  46:../../libDaisy/src/sys/system.h ****          ** */
  47:../../libDaisy/src/sys/system.h ****         void Boost()
  48:../../libDaisy/src/sys/system.h ****         {
  49:../../libDaisy/src/sys/system.h ****             cpu_freq    = SysClkFreq::FREQ_480MHZ;
  50:../../libDaisy/src/sys/system.h ****             use_dcache  = true;
  51:../../libDaisy/src/sys/system.h ****             use_icache  = true;
  52:../../libDaisy/src/sys/system.h ****             skip_clocks = false;
  53:../../libDaisy/src/sys/system.h ****         }
  54:../../libDaisy/src/sys/system.h **** 
  55:../../libDaisy/src/sys/system.h ****         SysClkFreq cpu_freq;
  56:../../libDaisy/src/sys/system.h ****         bool       use_dcache;
  57:../../libDaisy/src/sys/system.h ****         bool       use_icache;
  58:../../libDaisy/src/sys/system.h ****         bool       skip_clocks;
  59:../../libDaisy/src/sys/system.h ****     };
  60:../../libDaisy/src/sys/system.h **** 
  61:../../libDaisy/src/sys/system.h ****     /** Describes the different regions of memory available to the Daisy
  62:../../libDaisy/src/sys/system.h ****      * 
  63:../../libDaisy/src/sys/system.h ****      */
  64:../../libDaisy/src/sys/system.h ****     enum MemoryRegion
  65:../../libDaisy/src/sys/system.h ****     {
  66:../../libDaisy/src/sys/system.h ****         INTERNAL_FLASH = 0,
  67:../../libDaisy/src/sys/system.h ****         ITCMRAM,
  68:../../libDaisy/src/sys/system.h ****         DTCMRAM,
  69:../../libDaisy/src/sys/system.h ****         SRAM_D1,
  70:../../libDaisy/src/sys/system.h ****         SRAM_D2,
  71:../../libDaisy/src/sys/system.h ****         SRAM_D3,
  72:../../libDaisy/src/sys/system.h ****         SDRAM,
  73:../../libDaisy/src/sys/system.h ****         QSPI,
  74:../../libDaisy/src/sys/system.h ****         INVALID_ADDRESS,
  75:../../libDaisy/src/sys/system.h ****     };
  76:../../libDaisy/src/sys/system.h **** 
  77:../../libDaisy/src/sys/system.h ****     System() {}
  78:../../libDaisy/src/sys/system.h ****     ~System() {}
 358              		.loc 25 78 5 is_stmt 1 view .LVU65
 359              		.loc 25 78 5 is_stmt 0 view .LVU66
 360              	.LBE1042:
 361              		.loc 19 65 26 view .LVU67
 362 0000 7047     		bx	lr
 363              		.cfi_endproc
 364              	.LFE2906:
 366              		.weak	_ZN5daisy8patch_sm12DaisyPatchSMD1Ev
 367              		.thumb_set _ZN5daisy8patch_sm12DaisyPatchSMD1Ev,_ZN5daisy8patch_sm12DaisyPatchSMD2Ev
 368              		.section	.text._ZN5daisy11OledDisplayINS_13SSD130xDriverILj128ELj64ENS_24SSD130x4WireSpiTransportE
 369              		.align	1
 370              		.weak	_ZN5daisy11OledDisplayINS_13SSD130xDriverILj128ELj64ENS_24SSD130x4WireSpiTransportEEEE4FillE
 371              		.syntax unified
 372              		.thumb
 373              		.thumb_func
 374              		.fpu fpv5-d16
 376              	_ZN5daisy11OledDisplayINS_13SSD130xDriverILj128ELj64ENS_24SSD130x4WireSpiTransportEEEE4FillEb:
 377              	.LVL8:
 378              	.LFB3094:
 379              		.file 26 "../../libDaisy/src/hid/disp/oled_display.h"
ARM GAS  C:\Users\daniel\AppData\Local\Temp\ccLc35Ca.s 			page 49


   1:../../libDaisy/src/hid/disp/oled_display.h **** #pragma once
   2:../../libDaisy/src/hid/disp/oled_display.h **** #ifndef DSY_OLED_DISPLAY_H
   3:../../libDaisy/src/hid/disp/oled_display.h **** #define DSY_OLED_DISPLAY_H /**< Macro */
   4:../../libDaisy/src/hid/disp/oled_display.h **** 
   5:../../libDaisy/src/hid/disp/oled_display.h **** #include "display.h"
   6:../../libDaisy/src/hid/disp/oled_display.h **** 
   7:../../libDaisy/src/hid/disp/oled_display.h **** namespace daisy
   8:../../libDaisy/src/hid/disp/oled_display.h **** {
   9:../../libDaisy/src/hid/disp/oled_display.h **** /** 
  10:../../libDaisy/src/hid/disp/oled_display.h ****  * This class is for drawing to a monochrome OLED display. 
  11:../../libDaisy/src/hid/disp/oled_display.h ****  * @ingroup device
  12:../../libDaisy/src/hid/disp/oled_display.h **** */
  13:../../libDaisy/src/hid/disp/oled_display.h **** template <typename DisplayDriver>
  14:../../libDaisy/src/hid/disp/oled_display.h **** class OledDisplay : public OneBitGraphicsDisplayImpl<OledDisplay<DisplayDriver>>
  15:../../libDaisy/src/hid/disp/oled_display.h **** {
  16:../../libDaisy/src/hid/disp/oled_display.h ****   public:
  17:../../libDaisy/src/hid/disp/oled_display.h ****     OledDisplay() {}
  18:../../libDaisy/src/hid/disp/oled_display.h ****     virtual ~OledDisplay() {}
  19:../../libDaisy/src/hid/disp/oled_display.h **** 
  20:../../libDaisy/src/hid/disp/oled_display.h ****     struct Config
  21:../../libDaisy/src/hid/disp/oled_display.h ****     {
  22:../../libDaisy/src/hid/disp/oled_display.h ****         typename DisplayDriver::Config driver_config;
  23:../../libDaisy/src/hid/disp/oled_display.h ****     };
  24:../../libDaisy/src/hid/disp/oled_display.h **** 
  25:../../libDaisy/src/hid/disp/oled_display.h ****     void Init(Config config) { driver_.Init(config.driver_config); }
  26:../../libDaisy/src/hid/disp/oled_display.h **** 
  27:../../libDaisy/src/hid/disp/oled_display.h ****     uint16_t Height() const override { return driver_.Height(); }
  28:../../libDaisy/src/hid/disp/oled_display.h ****     uint16_t Width() const override { return driver_.Width(); }
  29:../../libDaisy/src/hid/disp/oled_display.h **** 
  30:../../libDaisy/src/hid/disp/oled_display.h ****     /** 
  31:../../libDaisy/src/hid/disp/oled_display.h ****     Fills the entire display with either on/off.
  32:../../libDaisy/src/hid/disp/oled_display.h ****     \param on Sets on or off.
  33:../../libDaisy/src/hid/disp/oled_display.h ****     */
  34:../../libDaisy/src/hid/disp/oled_display.h ****     void Fill(bool on) override { driver_.Fill(on); }
 380              		.loc 26 34 10 is_stmt 1 view -0
 381              		.cfi_startproc
 382              		@ args = 0, pretend = 0, frame = 0
 383              		@ frame_needed = 0, uses_anonymous_args = 0
 384              		@ link register save eliminated.
 385              	.LBB1046:
 386              	.LBI1046:
 387              		.file 27 "../../libDaisy/src/dev/oled_ssd130x.h"
   1:../../libDaisy/src/dev/oled_ssd130x.h **** #pragma once
   2:../../libDaisy/src/dev/oled_ssd130x.h **** #ifndef SA_OLED_SSD130X_H
   3:../../libDaisy/src/dev/oled_ssd130x.h **** #define SA_OLED_SSD130X_H /**< & */
   4:../../libDaisy/src/dev/oled_ssd130x.h **** 
   5:../../libDaisy/src/dev/oled_ssd130x.h **** #include "per/i2c.h"
   6:../../libDaisy/src/dev/oled_ssd130x.h **** #include "per/spi.h"
   7:../../libDaisy/src/dev/oled_ssd130x.h **** #include "per/gpio.h"
   8:../../libDaisy/src/dev/oled_ssd130x.h **** #include "sys/system.h"
   9:../../libDaisy/src/dev/oled_ssd130x.h **** 
  10:../../libDaisy/src/dev/oled_ssd130x.h **** namespace daisy
  11:../../libDaisy/src/dev/oled_ssd130x.h **** {
  12:../../libDaisy/src/dev/oled_ssd130x.h **** /**
  13:../../libDaisy/src/dev/oled_ssd130x.h ****  * I2C Transport for SSD1306 / SSD1309 OLED display devices
  14:../../libDaisy/src/dev/oled_ssd130x.h ****  */
  15:../../libDaisy/src/dev/oled_ssd130x.h **** class SSD130xI2CTransport
ARM GAS  C:\Users\daniel\AppData\Local\Temp\ccLc35Ca.s 			page 50


  16:../../libDaisy/src/dev/oled_ssd130x.h **** {
  17:../../libDaisy/src/dev/oled_ssd130x.h ****   public:
  18:../../libDaisy/src/dev/oled_ssd130x.h ****     struct Config
  19:../../libDaisy/src/dev/oled_ssd130x.h ****     {
  20:../../libDaisy/src/dev/oled_ssd130x.h ****         Config()
  21:../../libDaisy/src/dev/oled_ssd130x.h ****         {
  22:../../libDaisy/src/dev/oled_ssd130x.h ****             // Intialize using defaults
  23:../../libDaisy/src/dev/oled_ssd130x.h ****             Defaults();
  24:../../libDaisy/src/dev/oled_ssd130x.h ****         }
  25:../../libDaisy/src/dev/oled_ssd130x.h ****         I2CHandle::Config i2c_config;
  26:../../libDaisy/src/dev/oled_ssd130x.h ****         uint8_t           i2c_address;
  27:../../libDaisy/src/dev/oled_ssd130x.h ****         void              Defaults()
  28:../../libDaisy/src/dev/oled_ssd130x.h ****         {
  29:../../libDaisy/src/dev/oled_ssd130x.h ****             i2c_config.periph         = I2CHandle::Config::Peripheral::I2C_1;
  30:../../libDaisy/src/dev/oled_ssd130x.h ****             i2c_config.speed          = I2CHandle::Config::Speed::I2C_1MHZ;
  31:../../libDaisy/src/dev/oled_ssd130x.h ****             i2c_config.mode           = I2CHandle::Config::Mode::I2C_MASTER;
  32:../../libDaisy/src/dev/oled_ssd130x.h ****             i2c_config.pin_config.scl = {DSY_GPIOB, 8};
  33:../../libDaisy/src/dev/oled_ssd130x.h ****             i2c_config.pin_config.sda = {DSY_GPIOB, 9};
  34:../../libDaisy/src/dev/oled_ssd130x.h ****             i2c_address               = 0x3C;
  35:../../libDaisy/src/dev/oled_ssd130x.h ****         }
  36:../../libDaisy/src/dev/oled_ssd130x.h ****     };
  37:../../libDaisy/src/dev/oled_ssd130x.h ****     void Init(const Config& config)
  38:../../libDaisy/src/dev/oled_ssd130x.h ****     {
  39:../../libDaisy/src/dev/oled_ssd130x.h ****         i2c_address_ = config.i2c_address;
  40:../../libDaisy/src/dev/oled_ssd130x.h ****         i2c_.Init(config.i2c_config);
  41:../../libDaisy/src/dev/oled_ssd130x.h ****     };
  42:../../libDaisy/src/dev/oled_ssd130x.h ****     void SendCommand(uint8_t cmd)
  43:../../libDaisy/src/dev/oled_ssd130x.h ****     {
  44:../../libDaisy/src/dev/oled_ssd130x.h ****         uint8_t buf[2] = {0X00, cmd};
  45:../../libDaisy/src/dev/oled_ssd130x.h ****         i2c_.TransmitBlocking(i2c_address_, buf, 2, 1000);
  46:../../libDaisy/src/dev/oled_ssd130x.h ****     };
  47:../../libDaisy/src/dev/oled_ssd130x.h **** 
  48:../../libDaisy/src/dev/oled_ssd130x.h ****     void SendData(uint8_t* buff, size_t size)
  49:../../libDaisy/src/dev/oled_ssd130x.h ****     {
  50:../../libDaisy/src/dev/oled_ssd130x.h ****         for(size_t i = 0; i < size; i++)
  51:../../libDaisy/src/dev/oled_ssd130x.h ****         {
  52:../../libDaisy/src/dev/oled_ssd130x.h ****             uint8_t buf[2] = {0X40, buff[i]};
  53:../../libDaisy/src/dev/oled_ssd130x.h ****             i2c_.TransmitBlocking(i2c_address_, buf, 2, 1000);
  54:../../libDaisy/src/dev/oled_ssd130x.h ****         }
  55:../../libDaisy/src/dev/oled_ssd130x.h ****     };
  56:../../libDaisy/src/dev/oled_ssd130x.h **** 
  57:../../libDaisy/src/dev/oled_ssd130x.h ****   private:
  58:../../libDaisy/src/dev/oled_ssd130x.h ****     daisy::I2CHandle i2c_;
  59:../../libDaisy/src/dev/oled_ssd130x.h ****     uint8_t          i2c_address_;
  60:../../libDaisy/src/dev/oled_ssd130x.h **** };
  61:../../libDaisy/src/dev/oled_ssd130x.h **** 
  62:../../libDaisy/src/dev/oled_ssd130x.h **** /**
  63:../../libDaisy/src/dev/oled_ssd130x.h ****  * 4 Wire SPI Transport for SSD1306 / SSD1309 OLED display devices
  64:../../libDaisy/src/dev/oled_ssd130x.h ****  */
  65:../../libDaisy/src/dev/oled_ssd130x.h **** class SSD130x4WireSpiTransport
  66:../../libDaisy/src/dev/oled_ssd130x.h **** {
  67:../../libDaisy/src/dev/oled_ssd130x.h ****   public:
  68:../../libDaisy/src/dev/oled_ssd130x.h ****     struct Config
  69:../../libDaisy/src/dev/oled_ssd130x.h ****     {
  70:../../libDaisy/src/dev/oled_ssd130x.h ****         Config()
  71:../../libDaisy/src/dev/oled_ssd130x.h ****         {
  72:../../libDaisy/src/dev/oled_ssd130x.h ****             // Initialize using defaults
ARM GAS  C:\Users\daniel\AppData\Local\Temp\ccLc35Ca.s 			page 51


  73:../../libDaisy/src/dev/oled_ssd130x.h ****             Defaults();
  74:../../libDaisy/src/dev/oled_ssd130x.h ****         }
  75:../../libDaisy/src/dev/oled_ssd130x.h ****         SpiHandle::Config spi_config;
  76:../../libDaisy/src/dev/oled_ssd130x.h ****         struct
  77:../../libDaisy/src/dev/oled_ssd130x.h ****         {
  78:../../libDaisy/src/dev/oled_ssd130x.h ****             dsy_gpio_pin dc;    /**< & */
  79:../../libDaisy/src/dev/oled_ssd130x.h ****             dsy_gpio_pin reset; /**< & */
  80:../../libDaisy/src/dev/oled_ssd130x.h ****         } pin_config;
  81:../../libDaisy/src/dev/oled_ssd130x.h ****         void Defaults()
  82:../../libDaisy/src/dev/oled_ssd130x.h ****         {
  83:../../libDaisy/src/dev/oled_ssd130x.h ****             // SPI peripheral config
  84:../../libDaisy/src/dev/oled_ssd130x.h ****             spi_config.periph = SpiHandle::Config::Peripheral::SPI_1;
  85:../../libDaisy/src/dev/oled_ssd130x.h ****             spi_config.mode   = SpiHandle::Config::Mode::MASTER;
  86:../../libDaisy/src/dev/oled_ssd130x.h ****             spi_config.direction
  87:../../libDaisy/src/dev/oled_ssd130x.h ****                 = SpiHandle::Config::Direction::TWO_LINES_TX_ONLY;
  88:../../libDaisy/src/dev/oled_ssd130x.h ****             spi_config.datasize       = 8;
  89:../../libDaisy/src/dev/oled_ssd130x.h ****             spi_config.clock_polarity = SpiHandle::Config::ClockPolarity::LOW;
  90:../../libDaisy/src/dev/oled_ssd130x.h ****             spi_config.clock_phase    = SpiHandle::Config::ClockPhase::ONE_EDGE;
  91:../../libDaisy/src/dev/oled_ssd130x.h ****             spi_config.nss            = SpiHandle::Config::NSS::HARD_OUTPUT;
  92:../../libDaisy/src/dev/oled_ssd130x.h ****             spi_config.baud_prescaler = SpiHandle::Config::BaudPrescaler::PS_8;
  93:../../libDaisy/src/dev/oled_ssd130x.h ****             // SPI pin config
  94:../../libDaisy/src/dev/oled_ssd130x.h ****             spi_config.pin_config.sclk = {DSY_GPIOG, 11};
  95:../../libDaisy/src/dev/oled_ssd130x.h ****             spi_config.pin_config.miso = {DSY_GPIOX, 0};
  96:../../libDaisy/src/dev/oled_ssd130x.h ****             spi_config.pin_config.mosi = {DSY_GPIOB, 5};
  97:../../libDaisy/src/dev/oled_ssd130x.h ****             spi_config.pin_config.nss  = {DSY_GPIOG, 10};
  98:../../libDaisy/src/dev/oled_ssd130x.h ****             // SSD130x control pin config
  99:../../libDaisy/src/dev/oled_ssd130x.h ****             pin_config.dc    = {DSY_GPIOB, 4};
 100:../../libDaisy/src/dev/oled_ssd130x.h ****             pin_config.reset = {DSY_GPIOB, 15};
 101:../../libDaisy/src/dev/oled_ssd130x.h ****         }
 102:../../libDaisy/src/dev/oled_ssd130x.h ****     };
 103:../../libDaisy/src/dev/oled_ssd130x.h ****     void Init(const Config& config)
 104:../../libDaisy/src/dev/oled_ssd130x.h ****     {
 105:../../libDaisy/src/dev/oled_ssd130x.h ****         // Initialize both GPIO
 106:../../libDaisy/src/dev/oled_ssd130x.h ****         pin_dc_.mode = DSY_GPIO_MODE_OUTPUT_PP;
 107:../../libDaisy/src/dev/oled_ssd130x.h ****         pin_dc_.pin  = config.pin_config.dc;
 108:../../libDaisy/src/dev/oled_ssd130x.h ****         dsy_gpio_init(&pin_dc_);
 109:../../libDaisy/src/dev/oled_ssd130x.h ****         pin_reset_.mode = DSY_GPIO_MODE_OUTPUT_PP;
 110:../../libDaisy/src/dev/oled_ssd130x.h ****         pin_reset_.pin  = config.pin_config.reset;
 111:../../libDaisy/src/dev/oled_ssd130x.h ****         dsy_gpio_init(&pin_reset_);
 112:../../libDaisy/src/dev/oled_ssd130x.h **** 
 113:../../libDaisy/src/dev/oled_ssd130x.h ****         // Initialize SPI
 114:../../libDaisy/src/dev/oled_ssd130x.h ****         spi_.Init(config.spi_config);
 115:../../libDaisy/src/dev/oled_ssd130x.h **** 
 116:../../libDaisy/src/dev/oled_ssd130x.h ****         // Reset and Configure OLED.
 117:../../libDaisy/src/dev/oled_ssd130x.h ****         dsy_gpio_write(&pin_reset_, 0);
 118:../../libDaisy/src/dev/oled_ssd130x.h ****         System::Delay(10);
 119:../../libDaisy/src/dev/oled_ssd130x.h ****         dsy_gpio_write(&pin_reset_, 1);
 120:../../libDaisy/src/dev/oled_ssd130x.h ****         System::Delay(10);
 121:../../libDaisy/src/dev/oled_ssd130x.h ****     };
 122:../../libDaisy/src/dev/oled_ssd130x.h ****     void SendCommand(uint8_t cmd)
 123:../../libDaisy/src/dev/oled_ssd130x.h ****     {
 124:../../libDaisy/src/dev/oled_ssd130x.h ****         dsy_gpio_write(&pin_dc_, 0);
 125:../../libDaisy/src/dev/oled_ssd130x.h ****         spi_.BlockingTransmit(&cmd, 1);
 126:../../libDaisy/src/dev/oled_ssd130x.h ****     };
 127:../../libDaisy/src/dev/oled_ssd130x.h **** 
 128:../../libDaisy/src/dev/oled_ssd130x.h ****     void SendData(uint8_t* buff, size_t size)
 129:../../libDaisy/src/dev/oled_ssd130x.h ****     {
ARM GAS  C:\Users\daniel\AppData\Local\Temp\ccLc35Ca.s 			page 52


 130:../../libDaisy/src/dev/oled_ssd130x.h ****         dsy_gpio_write(&pin_dc_, 1);
 131:../../libDaisy/src/dev/oled_ssd130x.h ****         spi_.BlockingTransmit(buff, size);
 132:../../libDaisy/src/dev/oled_ssd130x.h ****     };
 133:../../libDaisy/src/dev/oled_ssd130x.h **** 
 134:../../libDaisy/src/dev/oled_ssd130x.h ****   private:
 135:../../libDaisy/src/dev/oled_ssd130x.h ****     SpiHandle spi_;
 136:../../libDaisy/src/dev/oled_ssd130x.h ****     dsy_gpio  pin_reset_;
 137:../../libDaisy/src/dev/oled_ssd130x.h ****     dsy_gpio  pin_dc_;
 138:../../libDaisy/src/dev/oled_ssd130x.h **** };
 139:../../libDaisy/src/dev/oled_ssd130x.h **** 
 140:../../libDaisy/src/dev/oled_ssd130x.h **** 
 141:../../libDaisy/src/dev/oled_ssd130x.h **** /**
 142:../../libDaisy/src/dev/oled_ssd130x.h ****  * A driver implementation for the SSD1306/SSD1309
 143:../../libDaisy/src/dev/oled_ssd130x.h ****  */
 144:../../libDaisy/src/dev/oled_ssd130x.h **** template <size_t width, size_t height, typename Transport>
 145:../../libDaisy/src/dev/oled_ssd130x.h **** class SSD130xDriver
 146:../../libDaisy/src/dev/oled_ssd130x.h **** {
 147:../../libDaisy/src/dev/oled_ssd130x.h ****   public:
 148:../../libDaisy/src/dev/oled_ssd130x.h ****     struct Config
 149:../../libDaisy/src/dev/oled_ssd130x.h ****     {
 150:../../libDaisy/src/dev/oled_ssd130x.h ****         typename Transport::Config transport_config;
 151:../../libDaisy/src/dev/oled_ssd130x.h ****     };
 152:../../libDaisy/src/dev/oled_ssd130x.h **** 
 153:../../libDaisy/src/dev/oled_ssd130x.h ****     void Init(Config config)
 154:../../libDaisy/src/dev/oled_ssd130x.h ****     {
 155:../../libDaisy/src/dev/oled_ssd130x.h ****         transport_.Init(config.transport_config);
 156:../../libDaisy/src/dev/oled_ssd130x.h **** 
 157:../../libDaisy/src/dev/oled_ssd130x.h ****         // Init routine...
 158:../../libDaisy/src/dev/oled_ssd130x.h **** 
 159:../../libDaisy/src/dev/oled_ssd130x.h ****         // Display Off
 160:../../libDaisy/src/dev/oled_ssd130x.h ****         transport_.SendCommand(0xaE);
 161:../../libDaisy/src/dev/oled_ssd130x.h ****         // Dimension dependent commands...
 162:../../libDaisy/src/dev/oled_ssd130x.h ****         switch(height)
 163:../../libDaisy/src/dev/oled_ssd130x.h ****         {
 164:../../libDaisy/src/dev/oled_ssd130x.h ****             case 16:
 165:../../libDaisy/src/dev/oled_ssd130x.h ****                 // Display Clock Divide Ratio
 166:../../libDaisy/src/dev/oled_ssd130x.h ****                 transport_.SendCommand(0xD5);
 167:../../libDaisy/src/dev/oled_ssd130x.h ****                 transport_.SendCommand(0x60);
 168:../../libDaisy/src/dev/oled_ssd130x.h ****                 // Multiplex Ratio
 169:../../libDaisy/src/dev/oled_ssd130x.h ****                 transport_.SendCommand(0xA8);
 170:../../libDaisy/src/dev/oled_ssd130x.h ****                 transport_.SendCommand(0x0F);
 171:../../libDaisy/src/dev/oled_ssd130x.h ****                 // COM Pins
 172:../../libDaisy/src/dev/oled_ssd130x.h ****                 transport_.SendCommand(0xDA);
 173:../../libDaisy/src/dev/oled_ssd130x.h ****                 transport_.SendCommand(0x02);
 174:../../libDaisy/src/dev/oled_ssd130x.h ****                 break;
 175:../../libDaisy/src/dev/oled_ssd130x.h ****             case 32:
 176:../../libDaisy/src/dev/oled_ssd130x.h ****                 // Display Clock Divide Ratio
 177:../../libDaisy/src/dev/oled_ssd130x.h ****                 transport_.SendCommand(0xD5);
 178:../../libDaisy/src/dev/oled_ssd130x.h ****                 transport_.SendCommand(0x80);
 179:../../libDaisy/src/dev/oled_ssd130x.h ****                 // Multiplex Ratio
 180:../../libDaisy/src/dev/oled_ssd130x.h ****                 transport_.SendCommand(0xA8);
 181:../../libDaisy/src/dev/oled_ssd130x.h ****                 transport_.SendCommand(0x1F);
 182:../../libDaisy/src/dev/oled_ssd130x.h ****                 // COM Pins
 183:../../libDaisy/src/dev/oled_ssd130x.h ****                 transport_.SendCommand(0xDA);
 184:../../libDaisy/src/dev/oled_ssd130x.h ****                 if(width == 64)
 185:../../libDaisy/src/dev/oled_ssd130x.h ****                 {
 186:../../libDaisy/src/dev/oled_ssd130x.h ****                     transport_.SendCommand(0x12);
ARM GAS  C:\Users\daniel\AppData\Local\Temp\ccLc35Ca.s 			page 53


 187:../../libDaisy/src/dev/oled_ssd130x.h ****                 }
 188:../../libDaisy/src/dev/oled_ssd130x.h ****                 else
 189:../../libDaisy/src/dev/oled_ssd130x.h ****                 {
 190:../../libDaisy/src/dev/oled_ssd130x.h ****                     transport_.SendCommand(0x02);
 191:../../libDaisy/src/dev/oled_ssd130x.h ****                 }
 192:../../libDaisy/src/dev/oled_ssd130x.h **** 
 193:../../libDaisy/src/dev/oled_ssd130x.h ****                 break;
 194:../../libDaisy/src/dev/oled_ssd130x.h ****             case 48:
 195:../../libDaisy/src/dev/oled_ssd130x.h ****                 // Display Clock Divide Ratio
 196:../../libDaisy/src/dev/oled_ssd130x.h ****                 transport_.SendCommand(0xD5);
 197:../../libDaisy/src/dev/oled_ssd130x.h ****                 transport_.SendCommand(0x80);
 198:../../libDaisy/src/dev/oled_ssd130x.h ****                 // Multiplex Ratio
 199:../../libDaisy/src/dev/oled_ssd130x.h ****                 transport_.SendCommand(0xA8);
 200:../../libDaisy/src/dev/oled_ssd130x.h ****                 transport_.SendCommand(0x2F);
 201:../../libDaisy/src/dev/oled_ssd130x.h ****                 // COM Pins
 202:../../libDaisy/src/dev/oled_ssd130x.h ****                 transport_.SendCommand(0xDA);
 203:../../libDaisy/src/dev/oled_ssd130x.h ****                 transport_.SendCommand(0x12);
 204:../../libDaisy/src/dev/oled_ssd130x.h ****                 break;
 205:../../libDaisy/src/dev/oled_ssd130x.h ****             default: // 128
 206:../../libDaisy/src/dev/oled_ssd130x.h ****                 // Display Clock Divide Ratio
 207:../../libDaisy/src/dev/oled_ssd130x.h ****                 transport_.SendCommand(0xD5);
 208:../../libDaisy/src/dev/oled_ssd130x.h ****                 transport_.SendCommand(0x80);
 209:../../libDaisy/src/dev/oled_ssd130x.h ****                 // Multiplex Ratio
 210:../../libDaisy/src/dev/oled_ssd130x.h ****                 transport_.SendCommand(0xA8);
 211:../../libDaisy/src/dev/oled_ssd130x.h ****                 transport_.SendCommand(0x3F);
 212:../../libDaisy/src/dev/oled_ssd130x.h ****                 // COM Pins
 213:../../libDaisy/src/dev/oled_ssd130x.h ****                 transport_.SendCommand(0xDA);
 214:../../libDaisy/src/dev/oled_ssd130x.h ****                 transport_.SendCommand(0x12);
 215:../../libDaisy/src/dev/oled_ssd130x.h ****                 break;
 216:../../libDaisy/src/dev/oled_ssd130x.h ****         }
 217:../../libDaisy/src/dev/oled_ssd130x.h **** 
 218:../../libDaisy/src/dev/oled_ssd130x.h ****         // Display Offset
 219:../../libDaisy/src/dev/oled_ssd130x.h ****         transport_.SendCommand(0xD3);
 220:../../libDaisy/src/dev/oled_ssd130x.h ****         transport_.SendCommand(0x00);
 221:../../libDaisy/src/dev/oled_ssd130x.h ****         // Start Line Address
 222:../../libDaisy/src/dev/oled_ssd130x.h ****         transport_.SendCommand(0x40);
 223:../../libDaisy/src/dev/oled_ssd130x.h ****         // Normal Display
 224:../../libDaisy/src/dev/oled_ssd130x.h ****         transport_.SendCommand(0xA6);
 225:../../libDaisy/src/dev/oled_ssd130x.h ****         // All On Resume
 226:../../libDaisy/src/dev/oled_ssd130x.h ****         transport_.SendCommand(0xA4);
 227:../../libDaisy/src/dev/oled_ssd130x.h ****         // Charge Pump
 228:../../libDaisy/src/dev/oled_ssd130x.h ****         transport_.SendCommand(0x8D);
 229:../../libDaisy/src/dev/oled_ssd130x.h ****         transport_.SendCommand(0x14);
 230:../../libDaisy/src/dev/oled_ssd130x.h ****         // Set Segment Remap
 231:../../libDaisy/src/dev/oled_ssd130x.h ****         transport_.SendCommand(0xA1);
 232:../../libDaisy/src/dev/oled_ssd130x.h ****         // COM Output Scan Direction
 233:../../libDaisy/src/dev/oled_ssd130x.h ****         transport_.SendCommand(0xC8);
 234:../../libDaisy/src/dev/oled_ssd130x.h ****         // Contrast Control
 235:../../libDaisy/src/dev/oled_ssd130x.h ****         transport_.SendCommand(0x81);
 236:../../libDaisy/src/dev/oled_ssd130x.h ****         transport_.SendCommand(0x8F);
 237:../../libDaisy/src/dev/oled_ssd130x.h ****         // Pre Charge
 238:../../libDaisy/src/dev/oled_ssd130x.h ****         transport_.SendCommand(0xD9);
 239:../../libDaisy/src/dev/oled_ssd130x.h ****         transport_.SendCommand(0x25);
 240:../../libDaisy/src/dev/oled_ssd130x.h ****         // VCOM Detect
 241:../../libDaisy/src/dev/oled_ssd130x.h ****         transport_.SendCommand(0xDB);
 242:../../libDaisy/src/dev/oled_ssd130x.h ****         transport_.SendCommand(0x34);
 243:../../libDaisy/src/dev/oled_ssd130x.h **** 
ARM GAS  C:\Users\daniel\AppData\Local\Temp\ccLc35Ca.s 			page 54


 244:../../libDaisy/src/dev/oled_ssd130x.h **** 
 245:../../libDaisy/src/dev/oled_ssd130x.h ****         // Display On
 246:../../libDaisy/src/dev/oled_ssd130x.h ****         transport_.SendCommand(0xAF); //--turn on oled panel
 247:../../libDaisy/src/dev/oled_ssd130x.h ****     };
 248:../../libDaisy/src/dev/oled_ssd130x.h **** 
 249:../../libDaisy/src/dev/oled_ssd130x.h ****     size_t Width() const { return width; };
 250:../../libDaisy/src/dev/oled_ssd130x.h ****     size_t Height() const { return height; };
 251:../../libDaisy/src/dev/oled_ssd130x.h **** 
 252:../../libDaisy/src/dev/oled_ssd130x.h ****     void DrawPixel(uint_fast8_t x, uint_fast8_t y, bool on)
 253:../../libDaisy/src/dev/oled_ssd130x.h ****     {
 254:../../libDaisy/src/dev/oled_ssd130x.h ****         if(x >= width || y >= height)
 255:../../libDaisy/src/dev/oled_ssd130x.h ****             return;
 256:../../libDaisy/src/dev/oled_ssd130x.h ****         if(on)
 257:../../libDaisy/src/dev/oled_ssd130x.h ****             buffer_[x + (y / 8) * width] |= (1 << (y % 8));
 258:../../libDaisy/src/dev/oled_ssd130x.h ****         else
 259:../../libDaisy/src/dev/oled_ssd130x.h ****             buffer_[x + (y / 8) * width] &= ~(1 << (y % 8));
 260:../../libDaisy/src/dev/oled_ssd130x.h ****     }
 261:../../libDaisy/src/dev/oled_ssd130x.h **** 
 262:../../libDaisy/src/dev/oled_ssd130x.h ****     void Fill(bool on)
 388              		.loc 27 262 10 view .LVU69
 389              	.LBB1047:
 263:../../libDaisy/src/dev/oled_ssd130x.h ****     {
 264:../../libDaisy/src/dev/oled_ssd130x.h ****         for(size_t i = 0; i < sizeof(buffer_); i++)
 390              		.loc 27 264 29 view .LVU70
 391 0000 00F11403 		add	r3, r0, #20
 392 0004 00F21440 		addw	r0, r0, #1044
 393              	.LVL9:
 394              	.L10:
 265:../../libDaisy/src/dev/oled_ssd130x.h ****         {
 266:../../libDaisy/src/dev/oled_ssd130x.h ****             buffer_[i] = on ? 0xff : 0x00;
 395              		.loc 27 266 24 is_stmt 0 view .LVU71
 396 0008 4A42     		rsbs	r2, r1, #0
 397 000a 03F8012B 		strb	r2, [r3], #1
 398              	.LVL10:
 264:../../libDaisy/src/dev/oled_ssd130x.h ****         {
 399              		.loc 27 264 9 is_stmt 1 view .LVU72
 264:../../libDaisy/src/dev/oled_ssd130x.h ****         {
 400              		.loc 27 264 29 view .LVU73
 401 000e 8342     		cmp	r3, r0
 402 0010 FAD1     		bne	.L10
 403              	.LBE1047:
 404              	.LBE1046:
 405              		.loc 26 34 53 is_stmt 0 view .LVU74
 406 0012 7047     		bx	lr
 407              		.cfi_endproc
 408              	.LFE3094:
 410              		.section	.text._ZN5daisy18FullScreenItemMenuD2Ev,"axG",%progbits,_ZN5daisy18FullScreenItemMenuD5Ev
 411              		.align	1
 412              		.weak	_ZN5daisy18FullScreenItemMenuD2Ev
 413              		.syntax unified
 414              		.thumb
 415              		.thumb_func
 416              		.fpu fpv5-d16
 418              	_ZN5daisy18FullScreenItemMenuD2Ev:
 419              	.LVL11:
 420              	.LFB3200:
 421              		.file 28 "../../libDaisy/src/ui/FullScreenItemMenu.h"
ARM GAS  C:\Users\daniel\AppData\Local\Temp\ccLc35Ca.s 			page 55


   1:../../libDaisy/src/ui/FullScreenItemMenu.h **** #pragma once
   2:../../libDaisy/src/ui/FullScreenItemMenu.h **** 
   3:../../libDaisy/src/ui/FullScreenItemMenu.h **** #include "AbstractMenu.h"
   4:../../libDaisy/src/ui/FullScreenItemMenu.h **** 
   5:../../libDaisy/src/ui/FullScreenItemMenu.h **** namespace daisy
   6:../../libDaisy/src/ui/FullScreenItemMenu.h **** {
   7:../../libDaisy/src/ui/FullScreenItemMenu.h **** /** @brief A menu page for small screens
   8:../../libDaisy/src/ui/FullScreenItemMenu.h ****  *  @author jelliesen
   9:../../libDaisy/src/ui/FullScreenItemMenu.h ****  *  @ingroup ui
  10:../../libDaisy/src/ui/FullScreenItemMenu.h ****  * 
  11:../../libDaisy/src/ui/FullScreenItemMenu.h ****  *  This class builds upon the menu logic of AbstractMenu and adds 
  12:../../libDaisy/src/ui/FullScreenItemMenu.h ****  *  drawing routines that are suitable for small screens.
  13:../../libDaisy/src/ui/FullScreenItemMenu.h ****  * 
  14:../../libDaisy/src/ui/FullScreenItemMenu.h ****  *  By default, it will paint to the canvas returned by 
  15:../../libDaisy/src/ui/FullScreenItemMenu.h ****  *  `UI::GetPrimaryOneBitGraphicsDisplayId()`. It can also be 
  16:../../libDaisy/src/ui/FullScreenItemMenu.h ****  *  configured to paint to a different canvas.
  17:../../libDaisy/src/ui/FullScreenItemMenu.h ****  * 
  18:../../libDaisy/src/ui/FullScreenItemMenu.h ****  *  Each item will occupy the entire display.
  19:../../libDaisy/src/ui/FullScreenItemMenu.h ****  *  FullScreenItemMenu uses the LookAndFeel system to draw draw the
  20:../../libDaisy/src/ui/FullScreenItemMenu.h ****  *  items. This means that you can create your own graphics design 
  21:../../libDaisy/src/ui/FullScreenItemMenu.h ****  *  by creating your own LookAndFeel based on the OneBitGraphicsLookAndFeel
  22:../../libDaisy/src/ui/FullScreenItemMenu.h ****  *  class and apply that either globally (UI::SetOneBitGraphicsLookAndFeel())
  23:../../libDaisy/src/ui/FullScreenItemMenu.h ****  *  or to this page only (UiPage::SetOneBitGraphicsLookAndFeel()).
  24:../../libDaisy/src/ui/FullScreenItemMenu.h ****  */
  25:../../libDaisy/src/ui/FullScreenItemMenu.h **** class FullScreenItemMenu : public AbstractMenu
 422              		.loc 28 25 7 is_stmt 1 view -0
 423              		.cfi_startproc
 424              		@ args = 0, pretend = 0, frame = 0
 425              		@ frame_needed = 0, uses_anonymous_args = 0
 426              		@ link register save eliminated.
 427              	.LBB1048:
 428              	.LBI1048:
 429              		.file 29 "../../libDaisy/src/ui/AbstractMenu.h"
   1:../../libDaisy/src/ui/AbstractMenu.h **** #pragma once
   2:../../libDaisy/src/ui/AbstractMenu.h **** 
   3:../../libDaisy/src/ui/AbstractMenu.h **** #include "hid/disp/display.h"
   4:../../libDaisy/src/ui/AbstractMenu.h **** #include "util/MappedValue.h"
   5:../../libDaisy/src/ui/AbstractMenu.h **** #include "UI.h"
   6:../../libDaisy/src/ui/AbstractMenu.h **** 
   7:../../libDaisy/src/ui/AbstractMenu.h **** namespace daisy
   8:../../libDaisy/src/ui/AbstractMenu.h **** {
   9:../../libDaisy/src/ui/AbstractMenu.h **** /** @brief Base class for complex menus.
  10:../../libDaisy/src/ui/AbstractMenu.h ****  *  @author jelliesen
  11:../../libDaisy/src/ui/AbstractMenu.h ****  *  @ingroup ui
  12:../../libDaisy/src/ui/AbstractMenu.h ****  * 
  13:../../libDaisy/src/ui/AbstractMenu.h ****  * This is the base class for any form of UiPage that displays a menu with multiple items.
  14:../../libDaisy/src/ui/AbstractMenu.h ****  * It handles all the logic behind a menu (selecting items, editing items, etc.) but doesn't
  15:../../libDaisy/src/ui/AbstractMenu.h ****  * implement any form of drawing. Implement your own drawing routines by overriding
  16:../../libDaisy/src/ui/AbstractMenu.h ****  * UiPage::Draw() or use `FullScreenItemMenu`
  17:../../libDaisy/src/ui/AbstractMenu.h ****  * 
  18:../../libDaisy/src/ui/AbstractMenu.h ****  * Vaious types of items can be added to the menu, e.g. 
  19:../../libDaisy/src/ui/AbstractMenu.h ****  * - Checkbox items to toggle something on/off,
  20:../../libDaisy/src/ui/AbstractMenu.h ****  * - Generic action items that call a function when activated,
  21:../../libDaisy/src/ui/AbstractMenu.h ****  * - Value editing items for editing int/float/enum values,
  22:../../libDaisy/src/ui/AbstractMenu.h ****  * - Close items that close the menu when activated (useful when no cancel button is available),
  23:../../libDaisy/src/ui/AbstractMenu.h ****  * - Custom items that do whatever you want them to do, by providing a CustomItem object that 
  24:../../libDaisy/src/ui/AbstractMenu.h ****  *   handles the item-specific functionality.
ARM GAS  C:\Users\daniel\AppData\Local\Temp\ccLc35Ca.s 			page 56


  25:../../libDaisy/src/ui/AbstractMenu.h ****  * 
  26:../../libDaisy/src/ui/AbstractMenu.h ****  * The Abstract Menu can work with a wide variety of physical controls, here are a couple 
  27:../../libDaisy/src/ui/AbstractMenu.h ****  * of combinations that are possible:
  28:../../libDaisy/src/ui/AbstractMenu.h ****  * - 3 buttons: Left/Right to select and edit items, Ok to activate or enter/leave editing mode
  29:../../libDaisy/src/ui/AbstractMenu.h ****  * - 5 buttons: Up/Down to select, Ok to activate/enter/leave, Cancel to close menu, function 
  30:../../libDaisy/src/ui/AbstractMenu.h ****  *              button to use coarse step size when editing
  31:../../libDaisy/src/ui/AbstractMenu.h ****  * - 6 buttons: Left/Right to select, Up/Down to quickly edit selected items, Ok/Cancel to enter/le
  32:../../libDaisy/src/ui/AbstractMenu.h ****  * - 1 encoder with pushbutton
  33:../../libDaisy/src/ui/AbstractMenu.h ****  * - 1 encoder for selecting items, another one for editing their values
  34:../../libDaisy/src/ui/AbstractMenu.h ****  * - 1 encoder for selecting items and a value slider potentiometer for editing
  35:../../libDaisy/src/ui/AbstractMenu.h ****  * - ... any other combination of the above
  36:../../libDaisy/src/ui/AbstractMenu.h ****  * 
  37:../../libDaisy/src/ui/AbstractMenu.h ****  * These are the controls that the AbstractMenu will react to and their associated function:
  38:../../libDaisy/src/ui/AbstractMenu.h ****  * - Left/Right buttons: Select items when `Orientation::leftRightSelectUpDownModify`,
  39:../../libDaisy/src/ui/AbstractMenu.h ****  *                       directly edit value of the selected item when 
  40:../../libDaisy/src/ui/AbstractMenu.h ****  *                       `Orientation::upDownSelectLeftRightModify`.
  41:../../libDaisy/src/ui/AbstractMenu.h ****  * - Up/Down buttons: Select items when `Orientation::upDownSelectLeftRightModify`,
  42:../../libDaisy/src/ui/AbstractMenu.h ****  *                    directly edit value of the selected item when 
  43:../../libDaisy/src/ui/AbstractMenu.h ****  *                    `Orientation::leftRightSelectUpDownModify`.
  44:../../libDaisy/src/ui/AbstractMenu.h ****  * - Ok button: Activate the action of the selected item (if it has an action, e.g. 
  45:../../libDaisy/src/ui/AbstractMenu.h ****  *              `ItemType::closeMenuItem`) otherwise enter/leave editing mode where the 
  46:../../libDaisy/src/ui/AbstractMenu.h ****  *              arrow buttons used for selection will now edit the value instead (only 
  47:../../libDaisy/src/ui/AbstractMenu.h ****  *              possible if `allowEntering` is set to `true`).
  48:../../libDaisy/src/ui/AbstractMenu.h ****  * - Cancel button: Closes the menu page or leaves editing mode
  49:../../libDaisy/src/ui/AbstractMenu.h ****  * - Menu encoder: Selects items; edits item value when in editing mode
  50:../../libDaisy/src/ui/AbstractMenu.h ****  * - Value Encoder: Edits value of selected item
  51:../../libDaisy/src/ui/AbstractMenu.h ****  * - Value potentiometer/slider: Edits value of selected item
  52:../../libDaisy/src/ui/AbstractMenu.h ****  * - Function button: Uses an alternate step size when modifying the value with encoders
  53:../../libDaisy/src/ui/AbstractMenu.h ****  *                    or buttons while pressed
  54:../../libDaisy/src/ui/AbstractMenu.h ****  */
  55:../../libDaisy/src/ui/AbstractMenu.h **** class AbstractMenu : public UiPage
  56:../../libDaisy/src/ui/AbstractMenu.h **** {
  57:../../libDaisy/src/ui/AbstractMenu.h ****   public:
  58:../../libDaisy/src/ui/AbstractMenu.h ****     /** Controls which buttons are used to navigate back and forth between the menu 
  59:../../libDaisy/src/ui/AbstractMenu.h ****      *  items (selection buttons) and which buttons can be used to modify their value 
  60:../../libDaisy/src/ui/AbstractMenu.h ****      *  directly without pressing the enter button first (modify buttons; these don't
  61:../../libDaisy/src/ui/AbstractMenu.h ****      *  have to be available).
  62:../../libDaisy/src/ui/AbstractMenu.h ****      *  @see AbstractMenuPage
  63:../../libDaisy/src/ui/AbstractMenu.h ****      */
  64:../../libDaisy/src/ui/AbstractMenu.h ****     enum class Orientation
  65:../../libDaisy/src/ui/AbstractMenu.h ****     {
  66:../../libDaisy/src/ui/AbstractMenu.h ****         /** left/right buttons => selection buttons, up/down => value buttons */
  67:../../libDaisy/src/ui/AbstractMenu.h ****         leftRightSelectUpDownModify,
  68:../../libDaisy/src/ui/AbstractMenu.h ****         /** up/down buttons => selection buttons, left/right => value buttons */
  69:../../libDaisy/src/ui/AbstractMenu.h ****         upDownSelectLeftRightModify,
  70:../../libDaisy/src/ui/AbstractMenu.h ****     };
  71:../../libDaisy/src/ui/AbstractMenu.h **** 
  72:../../libDaisy/src/ui/AbstractMenu.h ****     /** The types of entries that can be added to the menu. */
  73:../../libDaisy/src/ui/AbstractMenu.h ****     enum class ItemType
  74:../../libDaisy/src/ui/AbstractMenu.h ****     {
  75:../../libDaisy/src/ui/AbstractMenu.h ****         /** Displays a text and calls a callback function when activated with the enter button */
  76:../../libDaisy/src/ui/AbstractMenu.h ****         callbackFunctionItem,
  77:../../libDaisy/src/ui/AbstractMenu.h ****         /** Displays a name and a checkbox. When selected, the modify keys will allow
  78:../../libDaisy/src/ui/AbstractMenu.h ****          *  to change the value directly. Pressing the enter button toggles the value. */
  79:../../libDaisy/src/ui/AbstractMenu.h ****         checkboxItem,
  80:../../libDaisy/src/ui/AbstractMenu.h ****         /** Displays a name and a value (with unit) from a MappedValue. When selected, the modify k
  81:../../libDaisy/src/ui/AbstractMenu.h ****          *  to change the value directly. Pressing the enter button allows to change the value with
ARM GAS  C:\Users\daniel\AppData\Local\Temp\ccLc35Ca.s 			page 57


  82:../../libDaisy/src/ui/AbstractMenu.h ****          *  the selection buttons as well. */
  83:../../libDaisy/src/ui/AbstractMenu.h ****         valueItem,
  84:../../libDaisy/src/ui/AbstractMenu.h ****         /** Displays a name and opens another UiPage when selected. */
  85:../../libDaisy/src/ui/AbstractMenu.h ****         openUiPageItem,
  86:../../libDaisy/src/ui/AbstractMenu.h ****         /** Displays a text and closes the menu page when selected. This is useful when no cancel 
  87:../../libDaisy/src/ui/AbstractMenu.h ****          *  button is available to close a menu and return to the page below. */
  88:../../libDaisy/src/ui/AbstractMenu.h ****         closeMenuItem,
  89:../../libDaisy/src/ui/AbstractMenu.h ****         /** A custom item. @see CustomItem */
  90:../../libDaisy/src/ui/AbstractMenu.h ****         customItem,
  91:../../libDaisy/src/ui/AbstractMenu.h ****     };
  92:../../libDaisy/src/ui/AbstractMenu.h **** 
  93:../../libDaisy/src/ui/AbstractMenu.h ****     /** Base class for a custom menu item */
  94:../../libDaisy/src/ui/AbstractMenu.h ****     class CustomItem
  95:../../libDaisy/src/ui/AbstractMenu.h ****     {
  96:../../libDaisy/src/ui/AbstractMenu.h ****       public:
  97:../../libDaisy/src/ui/AbstractMenu.h ****         virtual ~CustomItem() {}
  98:../../libDaisy/src/ui/AbstractMenu.h **** 
  99:../../libDaisy/src/ui/AbstractMenu.h ****         /** Draws the item to a OneBitGraphicsDisplay.
 100:../../libDaisy/src/ui/AbstractMenu.h ****          * @param display           The display to draw to
 101:../../libDaisy/src/ui/AbstractMenu.h ****          * @param currentIndex      The index in the menu
 102:../../libDaisy/src/ui/AbstractMenu.h ****          * @param numItemsTotal     The total number of items in the menu
 103:../../libDaisy/src/ui/AbstractMenu.h ****          * @param boundsToDrawIn    The Rectangle to draw the item into
 104:../../libDaisy/src/ui/AbstractMenu.h ****          * @param isEditing         True if the enter button was pressed and the value is being edi
 105:../../libDaisy/src/ui/AbstractMenu.h ****          */
 106:../../libDaisy/src/ui/AbstractMenu.h ****         virtual void Draw(OneBitGraphicsDisplay& display,
 107:../../libDaisy/src/ui/AbstractMenu.h ****                           int                    currentIndex,
 108:../../libDaisy/src/ui/AbstractMenu.h ****                           int                    numItemsTotal,
 109:../../libDaisy/src/ui/AbstractMenu.h ****                           Rectangle              boundsToDrawIn,
 110:../../libDaisy/src/ui/AbstractMenu.h ****                           bool                   isEditing)
 111:../../libDaisy/src/ui/AbstractMenu.h ****             = 0;
 112:../../libDaisy/src/ui/AbstractMenu.h **** 
 113:../../libDaisy/src/ui/AbstractMenu.h ****         /** Returns true, if this item can be entered for direct editing of the value. */
 114:../../libDaisy/src/ui/AbstractMenu.h ****         virtual bool CanBeEnteredForEditing() const { return false; }
 115:../../libDaisy/src/ui/AbstractMenu.h **** 
 116:../../libDaisy/src/ui/AbstractMenu.h ****         /** Called when the encoder of the buttons are used to modify the value. */
 117:../../libDaisy/src/ui/AbstractMenu.h ****         virtual void ModifyValue(int16_t  increments,
 118:../../libDaisy/src/ui/AbstractMenu.h ****                                  uint16_t stepsPerRevolution,
 119:../../libDaisy/src/ui/AbstractMenu.h ****                                  bool     isFunctionButtonPressed)
 120:../../libDaisy/src/ui/AbstractMenu.h ****         {
 121:../../libDaisy/src/ui/AbstractMenu.h ****             (void)(increments);              // silence unused variable warnings
 122:../../libDaisy/src/ui/AbstractMenu.h ****             (void)(stepsPerRevolution);      // silence unused variable warnings
 123:../../libDaisy/src/ui/AbstractMenu.h ****             (void)(isFunctionButtonPressed); // silence unused variable warnings
 124:../../libDaisy/src/ui/AbstractMenu.h ****         };
 125:../../libDaisy/src/ui/AbstractMenu.h **** 
 126:../../libDaisy/src/ui/AbstractMenu.h ****         /** Called when the value slider is used to modify the value. */
 127:../../libDaisy/src/ui/AbstractMenu.h ****         virtual void ModifyValue(float valueSliderPosition0To1,
 128:../../libDaisy/src/ui/AbstractMenu.h ****                                  bool  isFunctionButtonPressed)
 129:../../libDaisy/src/ui/AbstractMenu.h ****         {
 130:../../libDaisy/src/ui/AbstractMenu.h ****             (void)(valueSliderPosition0To1); // silence unused variable warnings
 131:../../libDaisy/src/ui/AbstractMenu.h ****             (void)(isFunctionButtonPressed); // silence unused variable warnings
 132:../../libDaisy/src/ui/AbstractMenu.h ****         };
 133:../../libDaisy/src/ui/AbstractMenu.h **** 
 134:../../libDaisy/src/ui/AbstractMenu.h ****         /** Called when the okay button is pressed (and CanBeEnteredForEditing() returns false). */
 135:../../libDaisy/src/ui/AbstractMenu.h ****         virtual void OnOkayButton(){};
 136:../../libDaisy/src/ui/AbstractMenu.h ****     };
 137:../../libDaisy/src/ui/AbstractMenu.h **** 
 138:../../libDaisy/src/ui/AbstractMenu.h ****     struct ItemConfig
ARM GAS  C:\Users\daniel\AppData\Local\Temp\ccLc35Ca.s 			page 58


 139:../../libDaisy/src/ui/AbstractMenu.h ****     {
 140:../../libDaisy/src/ui/AbstractMenu.h ****         /** The type of item */
 141:../../libDaisy/src/ui/AbstractMenu.h ****         ItemType type = ItemType::closeMenuItem;
 142:../../libDaisy/src/ui/AbstractMenu.h ****         /** The name/text to display */
 143:../../libDaisy/src/ui/AbstractMenu.h ****         const char* text = "";
 144:../../libDaisy/src/ui/AbstractMenu.h **** 
 145:../../libDaisy/src/ui/AbstractMenu.h ****         /** additional properties that depend on the value of `type` */
 146:../../libDaisy/src/ui/AbstractMenu.h ****         union
 147:../../libDaisy/src/ui/AbstractMenu.h ****         {
 148:../../libDaisy/src/ui/AbstractMenu.h ****             /** Properties for type == ItemType::callbackFunctionItem */
 149:../../libDaisy/src/ui/AbstractMenu.h ****             struct
 150:../../libDaisy/src/ui/AbstractMenu.h ****             {
 151:../../libDaisy/src/ui/AbstractMenu.h ****                 void (*callbackFunction)(void* context);
 152:../../libDaisy/src/ui/AbstractMenu.h ****                 void* context;
 153:../../libDaisy/src/ui/AbstractMenu.h ****             } asCallbackFunctionItem;
 154:../../libDaisy/src/ui/AbstractMenu.h **** 
 155:../../libDaisy/src/ui/AbstractMenu.h ****             /** Properties for type == ItemType::checkboxItem */
 156:../../libDaisy/src/ui/AbstractMenu.h ****             struct
 157:../../libDaisy/src/ui/AbstractMenu.h ****             {
 158:../../libDaisy/src/ui/AbstractMenu.h ****                 /** The variable to modify. */
 159:../../libDaisy/src/ui/AbstractMenu.h ****                 bool* valueToModify;
 160:../../libDaisy/src/ui/AbstractMenu.h ****             } asCheckboxItem;
 161:../../libDaisy/src/ui/AbstractMenu.h **** 
 162:../../libDaisy/src/ui/AbstractMenu.h ****             /** Properties for type == ItemType::valueItem */
 163:../../libDaisy/src/ui/AbstractMenu.h ****             struct
 164:../../libDaisy/src/ui/AbstractMenu.h ****             {
 165:../../libDaisy/src/ui/AbstractMenu.h ****                 /** The variable to modify. */
 166:../../libDaisy/src/ui/AbstractMenu.h ****                 MappedValue* valueToModify;
 167:../../libDaisy/src/ui/AbstractMenu.h ****             } asMappedValueItem;
 168:../../libDaisy/src/ui/AbstractMenu.h **** 
 169:../../libDaisy/src/ui/AbstractMenu.h ****             /** Properties for type == ItemType::openUiPageItem */
 170:../../libDaisy/src/ui/AbstractMenu.h ****             struct
 171:../../libDaisy/src/ui/AbstractMenu.h ****             {
 172:../../libDaisy/src/ui/AbstractMenu.h ****                 /** The UiPage to open when the okay button is pressed.
 173:../../libDaisy/src/ui/AbstractMenu.h ****                  *  The object must stay alive longer than the MenuPage, 
 174:../../libDaisy/src/ui/AbstractMenu.h ****                  *  e.g. as a global variable. */
 175:../../libDaisy/src/ui/AbstractMenu.h ****                 UiPage* pageToOpen;
 176:../../libDaisy/src/ui/AbstractMenu.h ****             } asOpenUiPageItem;
 177:../../libDaisy/src/ui/AbstractMenu.h **** 
 178:../../libDaisy/src/ui/AbstractMenu.h ****             /** Properties for type == ItemType::customItem */
 179:../../libDaisy/src/ui/AbstractMenu.h ****             struct
 180:../../libDaisy/src/ui/AbstractMenu.h ****             {
 181:../../libDaisy/src/ui/AbstractMenu.h ****                 /** The CustomItem to display. The object provided here must 
 182:../../libDaisy/src/ui/AbstractMenu.h ****                  *  stay alive longer than the MenuPage, e.g. as a global variable. */
 183:../../libDaisy/src/ui/AbstractMenu.h ****                 CustomItem* itemObject;
 184:../../libDaisy/src/ui/AbstractMenu.h ****             } asCustomItem;
 185:../../libDaisy/src/ui/AbstractMenu.h ****         };
 186:../../libDaisy/src/ui/AbstractMenu.h ****     };
 187:../../libDaisy/src/ui/AbstractMenu.h **** 
 188:../../libDaisy/src/ui/AbstractMenu.h ****     AbstractMenu() = default;
 189:../../libDaisy/src/ui/AbstractMenu.h ****     virtual ~AbstractMenu() override {}
 430              		.loc 29 189 13 view .LVU76
 431              	.LBB1049:
 432              	.LBI1049:
 433              		.file 30 "../../libDaisy/src/ui/UI.h"
   1:../../libDaisy/src/ui/UI.h **** #pragma once
   2:../../libDaisy/src/ui/UI.h **** #include <initializer_list>
ARM GAS  C:\Users\daniel\AppData\Local\Temp\ccLc35Ca.s 			page 59


   3:../../libDaisy/src/ui/UI.h **** #include "UiEventQueue.h"
   4:../../libDaisy/src/ui/UI.h **** #include "../util/Stack.h"
   5:../../libDaisy/src/ui/UI.h **** 
   6:../../libDaisy/src/ui/UI.h **** namespace daisy
   7:../../libDaisy/src/ui/UI.h **** {
   8:../../libDaisy/src/ui/UI.h **** class UI;
   9:../../libDaisy/src/ui/UI.h **** 
  10:../../libDaisy/src/ui/UI.h **** /** @brief The type of arrow button in the UI system.
  11:../../libDaisy/src/ui/UI.h ****  *  @author jelliesen
  12:../../libDaisy/src/ui/UI.h ****  *  @ingroup ui
  13:../../libDaisy/src/ui/UI.h ****  */
  14:../../libDaisy/src/ui/UI.h **** enum class ArrowButtonType
  15:../../libDaisy/src/ui/UI.h **** {
  16:../../libDaisy/src/ui/UI.h ****     /** The left arrow button. */
  17:../../libDaisy/src/ui/UI.h ****     left = 0,
  18:../../libDaisy/src/ui/UI.h ****     /** The right arrow button. */
  19:../../libDaisy/src/ui/UI.h ****     right,
  20:../../libDaisy/src/ui/UI.h ****     /** The up arrow button. */
  21:../../libDaisy/src/ui/UI.h ****     up,
  22:../../libDaisy/src/ui/UI.h ****     /** The down arrow button. */
  23:../../libDaisy/src/ui/UI.h ****     down
  24:../../libDaisy/src/ui/UI.h **** };
  25:../../libDaisy/src/ui/UI.h **** 
  26:../../libDaisy/src/ui/UI.h **** /** @brief A descriptor for a canvas in the UI system.
  27:../../libDaisy/src/ui/UI.h ****  *  @author jelliesen
  28:../../libDaisy/src/ui/UI.h ****  *  @ingroup ui
  29:../../libDaisy/src/ui/UI.h ****  * 
  30:../../libDaisy/src/ui/UI.h ****  *  A descriptor for a generic display / led / output device 
  31:../../libDaisy/src/ui/UI.h ****  *  that's used in the UI system.
  32:../../libDaisy/src/ui/UI.h ****  */
  33:../../libDaisy/src/ui/UI.h **** struct UiCanvasDescriptor
  34:../../libDaisy/src/ui/UI.h **** {
  35:../../libDaisy/src/ui/UI.h ****     /** An id number to tell apart various types of canvases that 
  36:../../libDaisy/src/ui/UI.h ****      *  are used concurrently in your system. */
  37:../../libDaisy/src/ui/UI.h ****     uint8_t id_;
  38:../../libDaisy/src/ui/UI.h **** 
  39:../../libDaisy/src/ui/UI.h ****     /** A pointer to some object that allows to draw to the canvas. 
  40:../../libDaisy/src/ui/UI.h ****      *  In your UI pages, you will use the id_ to identify which canvas this is, 
  41:../../libDaisy/src/ui/UI.h ****      *  and then cast this pointer to whatever object it represents, e.g. OledDisplay.
  42:../../libDaisy/src/ui/UI.h ****      */
  43:../../libDaisy/src/ui/UI.h ****     void* handle_;
  44:../../libDaisy/src/ui/UI.h **** 
  45:../../libDaisy/src/ui/UI.h ****     /** The desired update rate in ms */
  46:../../libDaisy/src/ui/UI.h ****     uint32_t updateRateMs_;
  47:../../libDaisy/src/ui/UI.h **** 
  48:../../libDaisy/src/ui/UI.h ****     /** The desired timeout in ms before a display will shut off. 
  49:../../libDaisy/src/ui/UI.h ****      *  This defaults to 0, which will keep the display on all the time.
  50:../../libDaisy/src/ui/UI.h ****      *  Nonzero values are useful for displays that can suffer from burn-in,
  51:../../libDaisy/src/ui/UI.h ****      *  such as OLEDs. 
  52:../../libDaisy/src/ui/UI.h ****      */
  53:../../libDaisy/src/ui/UI.h ****     uint32_t screenSaverTimeOut = 0;
  54:../../libDaisy/src/ui/UI.h **** 
  55:../../libDaisy/src/ui/UI.h ****     bool screenSaverOn = false;
  56:../../libDaisy/src/ui/UI.h **** 
  57:../../libDaisy/src/ui/UI.h ****     /** A function to clear the display before the UiPages are drawn. */
  58:../../libDaisy/src/ui/UI.h ****     using ClearFuncPtr = void (*)(const UiCanvasDescriptor& canvasToClear);
  59:../../libDaisy/src/ui/UI.h ****     ClearFuncPtr clearFunction_;
ARM GAS  C:\Users\daniel\AppData\Local\Temp\ccLc35Ca.s 			page 60


  60:../../libDaisy/src/ui/UI.h **** 
  61:../../libDaisy/src/ui/UI.h ****     /** A function to call when all UIPages have finished the drawing procedure 
  62:../../libDaisy/src/ui/UI.h ****      *  and the results can be flushed out to the device.
  63:../../libDaisy/src/ui/UI.h ****      */
  64:../../libDaisy/src/ui/UI.h ****     using FlushFuncPtr = void (*)(const UiCanvasDescriptor& canvasToFlush);
  65:../../libDaisy/src/ui/UI.h ****     FlushFuncPtr flushFunction_;
  66:../../libDaisy/src/ui/UI.h **** };
  67:../../libDaisy/src/ui/UI.h **** 
  68:../../libDaisy/src/ui/UI.h **** class OneBitGraphicsLookAndFeel;
  69:../../libDaisy/src/ui/UI.h **** 
  70:../../libDaisy/src/ui/UI.h **** /** @brief The base class for a page in the UI system.
  71:../../libDaisy/src/ui/UI.h ****  *  @author jelliesen
  72:../../libDaisy/src/ui/UI.h ****  *  @ingroup ui
  73:../../libDaisy/src/ui/UI.h ****  */
  74:../../libDaisy/src/ui/UI.h **** class UiPage
  75:../../libDaisy/src/ui/UI.h **** {
  76:../../libDaisy/src/ui/UI.h ****   public:
  77:../../libDaisy/src/ui/UI.h ****     UiPage() : parent_(nullptr) {}
  78:../../libDaisy/src/ui/UI.h **** 
  79:../../libDaisy/src/ui/UI.h ****     virtual ~UiPage() {}
 434              		.loc 30 79 13 view .LVU77
 435              		.loc 30 79 13 is_stmt 0 view .LVU78
 436              	.LBE1049:
 437              	.LBE1048:
 438              		.loc 28 25 7 view .LVU79
 439 0000 7047     		bx	lr
 440              		.cfi_endproc
 441              	.LFE3200:
 443              		.weak	_ZN5daisy18FullScreenItemMenuD1Ev
 444              		.thumb_set _ZN5daisy18FullScreenItemMenuD1Ev,_ZN5daisy18FullScreenItemMenuD2Ev
 445              		.section	.text._ZN5daisy11OledDisplayINS_13SSD130xDriverILj128ELj64ENS_24SSD130x4WireSpiTransportE
 446              		.align	1
 447              		.weak	_ZN5daisy11OledDisplayINS_13SSD130xDriverILj128ELj64ENS_24SSD130x4WireSpiTransportEEEED2Ev
 448              		.syntax unified
 449              		.thumb
 450              		.thumb_func
 451              		.fpu fpv5-d16
 453              	_ZN5daisy11OledDisplayINS_13SSD130xDriverILj128ELj64ENS_24SSD130x4WireSpiTransportEEEED2Ev:
 454              	.LVL12:
 455              	.LFB3204:
  18:../../libDaisy/src/hid/disp/oled_display.h **** 
 456              		.loc 26 18 13 is_stmt 1 view -0
 457              		.cfi_startproc
 458              		@ args = 0, pretend = 0, frame = 0
 459              		@ frame_needed = 0, uses_anonymous_args = 0
 460              		@ link register save eliminated.
 461              	.LBB1050:
 462              	.LBI1050:
 463              		.file 31 "../../libDaisy/src/hid/disp/display.h"
   1:../../libDaisy/src/hid/disp/display.h **** #pragma once
   2:../../libDaisy/src/hid/disp/display.h **** #ifndef DSY_DISPLAY_H
   3:../../libDaisy/src/hid/disp/display.h **** #define DSY_DISPLAY_H /**< Macro */
   4:../../libDaisy/src/hid/disp/display.h **** #include <cmath>
   5:../../libDaisy/src/hid/disp/display.h **** #include "util/oled_fonts.h"
   6:../../libDaisy/src/hid/disp/display.h **** #include "daisy_core.h"
   7:../../libDaisy/src/hid/disp/display.h **** #include "graphics_common.h"
   8:../../libDaisy/src/hid/disp/display.h **** 
ARM GAS  C:\Users\daniel\AppData\Local\Temp\ccLc35Ca.s 			page 61


   9:../../libDaisy/src/hid/disp/display.h **** #ifndef deg2rad
  10:../../libDaisy/src/hid/disp/display.h **** #define deg2rad(deg) ((deg)*3.141592 / 180.0)
  11:../../libDaisy/src/hid/disp/display.h **** #endif
  12:../../libDaisy/src/hid/disp/display.h **** 
  13:../../libDaisy/src/hid/disp/display.h **** namespace daisy
  14:../../libDaisy/src/hid/disp/display.h **** {
  15:../../libDaisy/src/hid/disp/display.h **** /** 
  16:../../libDaisy/src/hid/disp/display.h ****  * This interface is used as a base class for all types of 1bit-per-pixel
  17:../../libDaisy/src/hid/disp/display.h ****  * graphics displays.
  18:../../libDaisy/src/hid/disp/display.h **** */
  19:../../libDaisy/src/hid/disp/display.h **** class OneBitGraphicsDisplay
  20:../../libDaisy/src/hid/disp/display.h **** {
  21:../../libDaisy/src/hid/disp/display.h ****   public:
  22:../../libDaisy/src/hid/disp/display.h ****     OneBitGraphicsDisplay() {}
  23:../../libDaisy/src/hid/disp/display.h ****     virtual ~OneBitGraphicsDisplay() {}
  24:../../libDaisy/src/hid/disp/display.h **** 
  25:../../libDaisy/src/hid/disp/display.h ****     virtual uint16_t Height() const = 0;
  26:../../libDaisy/src/hid/disp/display.h ****     virtual uint16_t Width() const  = 0;
  27:../../libDaisy/src/hid/disp/display.h **** 
  28:../../libDaisy/src/hid/disp/display.h ****     Rectangle GetBounds() const
  29:../../libDaisy/src/hid/disp/display.h ****     {
  30:../../libDaisy/src/hid/disp/display.h ****         return Rectangle(int16_t(Width()), int16_t(Height()));
  31:../../libDaisy/src/hid/disp/display.h ****     }
  32:../../libDaisy/src/hid/disp/display.h **** 
  33:../../libDaisy/src/hid/disp/display.h **** 
  34:../../libDaisy/src/hid/disp/display.h ****     size_t CurrentX() { return currentX_; };
  35:../../libDaisy/src/hid/disp/display.h ****     size_t CurrentY() { return currentY_; };
  36:../../libDaisy/src/hid/disp/display.h **** 
  37:../../libDaisy/src/hid/disp/display.h ****     /** 
  38:../../libDaisy/src/hid/disp/display.h ****     Fills the entire display with either on/off.
  39:../../libDaisy/src/hid/disp/display.h ****     \param on Sets on or off.
  40:../../libDaisy/src/hid/disp/display.h ****     */
  41:../../libDaisy/src/hid/disp/display.h ****     virtual void Fill(bool on) = 0;
  42:../../libDaisy/src/hid/disp/display.h **** 
  43:../../libDaisy/src/hid/disp/display.h ****     /**
  44:../../libDaisy/src/hid/disp/display.h ****     Sets the pixel at the specified coordinate to be on/off.
  45:../../libDaisy/src/hid/disp/display.h ****     \param x   x Coordinate
  46:../../libDaisy/src/hid/disp/display.h ****     \param y   y coordinate
  47:../../libDaisy/src/hid/disp/display.h ****     \param on  on or off
  48:../../libDaisy/src/hid/disp/display.h ****     */
  49:../../libDaisy/src/hid/disp/display.h ****     virtual void DrawPixel(uint_fast8_t x, uint_fast8_t y, bool on) = 0;
  50:../../libDaisy/src/hid/disp/display.h **** 
  51:../../libDaisy/src/hid/disp/display.h ****     /**
  52:../../libDaisy/src/hid/disp/display.h ****     Draws a line from (x1, y1) to (y1, y2)
  53:../../libDaisy/src/hid/disp/display.h ****     \param x1  x Coordinate of the starting point
  54:../../libDaisy/src/hid/disp/display.h ****     \param y1  y Coordinate of the starting point
  55:../../libDaisy/src/hid/disp/display.h ****     \param x2  x Coordinate of the ending point
  56:../../libDaisy/src/hid/disp/display.h ****     \param y2  y Coordinate of the ending point
  57:../../libDaisy/src/hid/disp/display.h ****     \param on  on or off
  58:../../libDaisy/src/hid/disp/display.h ****     */
  59:../../libDaisy/src/hid/disp/display.h ****     virtual void DrawLine(uint_fast8_t x1,
  60:../../libDaisy/src/hid/disp/display.h ****                           uint_fast8_t y1,
  61:../../libDaisy/src/hid/disp/display.h ****                           uint_fast8_t x2,
  62:../../libDaisy/src/hid/disp/display.h ****                           uint_fast8_t y2,
  63:../../libDaisy/src/hid/disp/display.h ****                           bool         on)
  64:../../libDaisy/src/hid/disp/display.h ****         = 0;
  65:../../libDaisy/src/hid/disp/display.h **** 
ARM GAS  C:\Users\daniel\AppData\Local\Temp\ccLc35Ca.s 			page 62


  66:../../libDaisy/src/hid/disp/display.h ****     /**
  67:../../libDaisy/src/hid/disp/display.h ****     Draws a rectangle based on two coordinates.
  68:../../libDaisy/src/hid/disp/display.h ****     \param x1 x Coordinate of the first point
  69:../../libDaisy/src/hid/disp/display.h ****     \param y1 y Coordinate of the first point
  70:../../libDaisy/src/hid/disp/display.h ****     \param x2 x Coordinate of the second point
  71:../../libDaisy/src/hid/disp/display.h ****     \param y2 y Coordinate of the second point
  72:../../libDaisy/src/hid/disp/display.h ****     \param on on or off
  73:../../libDaisy/src/hid/disp/display.h ****     \param fill fill the rectangle or draw only the outline
  74:../../libDaisy/src/hid/disp/display.h ****     */
  75:../../libDaisy/src/hid/disp/display.h ****     virtual void DrawRect(uint_fast8_t x1,
  76:../../libDaisy/src/hid/disp/display.h ****                           uint_fast8_t y1,
  77:../../libDaisy/src/hid/disp/display.h ****                           uint_fast8_t x2,
  78:../../libDaisy/src/hid/disp/display.h ****                           uint_fast8_t y2,
  79:../../libDaisy/src/hid/disp/display.h ****                           bool         on,
  80:../../libDaisy/src/hid/disp/display.h ****                           bool         fill = false)
  81:../../libDaisy/src/hid/disp/display.h ****         = 0;
  82:../../libDaisy/src/hid/disp/display.h **** 
  83:../../libDaisy/src/hid/disp/display.h ****     /**
  84:../../libDaisy/src/hid/disp/display.h ****     Draws a rectangle.
  85:../../libDaisy/src/hid/disp/display.h ****     \param rect the rectangle
  86:../../libDaisy/src/hid/disp/display.h ****     \param on   on or off
  87:../../libDaisy/src/hid/disp/display.h ****     \param fill fill the rectangle or draw only the outline
  88:../../libDaisy/src/hid/disp/display.h ****     */
  89:../../libDaisy/src/hid/disp/display.h ****     void DrawRect(const Rectangle& rect, bool on, bool fill = false)
  90:../../libDaisy/src/hid/disp/display.h ****     {
  91:../../libDaisy/src/hid/disp/display.h ****         DrawRect(rect.GetX(),
  92:../../libDaisy/src/hid/disp/display.h ****                  rect.GetY(),
  93:../../libDaisy/src/hid/disp/display.h ****                  rect.GetRight(),
  94:../../libDaisy/src/hid/disp/display.h ****                  rect.GetBottom(),
  95:../../libDaisy/src/hid/disp/display.h ****                  on,
  96:../../libDaisy/src/hid/disp/display.h ****                  fill);
  97:../../libDaisy/src/hid/disp/display.h ****     }
  98:../../libDaisy/src/hid/disp/display.h **** 
  99:../../libDaisy/src/hid/disp/display.h ****     /**
 100:../../libDaisy/src/hid/disp/display.h ****     Draws an arc around the specified coordinate
 101:../../libDaisy/src/hid/disp/display.h ****     \param x           x Coordinate of the center of the arc
 102:../../libDaisy/src/hid/disp/display.h ****     \param y           y Coordinate of the center of the arc
 103:../../libDaisy/src/hid/disp/display.h ****     \param radius      radius of the arc
 104:../../libDaisy/src/hid/disp/display.h ****     \param start_angle angle where to start the arc
 105:../../libDaisy/src/hid/disp/display.h ****     \param sweep       total angle of the arc
 106:../../libDaisy/src/hid/disp/display.h ****     \param on  on or off
 107:../../libDaisy/src/hid/disp/display.h ****     */
 108:../../libDaisy/src/hid/disp/display.h ****     virtual void DrawArc(uint_fast8_t x,
 109:../../libDaisy/src/hid/disp/display.h ****                          uint_fast8_t y,
 110:../../libDaisy/src/hid/disp/display.h ****                          uint_fast8_t radius,
 111:../../libDaisy/src/hid/disp/display.h ****                          int_fast16_t start_angle,
 112:../../libDaisy/src/hid/disp/display.h ****                          int_fast16_t sweep,
 113:../../libDaisy/src/hid/disp/display.h ****                          bool         on)
 114:../../libDaisy/src/hid/disp/display.h ****         = 0;
 115:../../libDaisy/src/hid/disp/display.h **** 
 116:../../libDaisy/src/hid/disp/display.h ****     /**
 117:../../libDaisy/src/hid/disp/display.h ****     Draws a circle around the specified coordinate
 118:../../libDaisy/src/hid/disp/display.h ****     \param x           x Coordinate of the center of the circle
 119:../../libDaisy/src/hid/disp/display.h ****     \param y           y Coordinate of the center of the circle
 120:../../libDaisy/src/hid/disp/display.h ****     \param radius      radius of the circle
 121:../../libDaisy/src/hid/disp/display.h ****     \param on  on or off
 122:../../libDaisy/src/hid/disp/display.h ****     */
ARM GAS  C:\Users\daniel\AppData\Local\Temp\ccLc35Ca.s 			page 63


 123:../../libDaisy/src/hid/disp/display.h ****     void
 124:../../libDaisy/src/hid/disp/display.h ****     DrawCircle(uint_fast8_t x, uint_fast8_t y, uint_fast8_t radius, bool on)
 125:../../libDaisy/src/hid/disp/display.h ****     {
 126:../../libDaisy/src/hid/disp/display.h ****         DrawArc(x, y, radius, 0, 360, on);
 127:../../libDaisy/src/hid/disp/display.h ****     };
 128:../../libDaisy/src/hid/disp/display.h **** 
 129:../../libDaisy/src/hid/disp/display.h ****     /** 
 130:../../libDaisy/src/hid/disp/display.h ****     Writes the character with the specific FontDef
 131:../../libDaisy/src/hid/disp/display.h ****     to the display buffer at the current Cursor position.
 132:../../libDaisy/src/hid/disp/display.h ****     \param ch character to be written
 133:../../libDaisy/src/hid/disp/display.h ****     \param font font to be written in
 134:../../libDaisy/src/hid/disp/display.h ****     \param on    on or off
 135:../../libDaisy/src/hid/disp/display.h ****     \return &
 136:../../libDaisy/src/hid/disp/display.h ****     */
 137:../../libDaisy/src/hid/disp/display.h ****     virtual char WriteChar(char ch, FontDef font, bool on) = 0;
 138:../../libDaisy/src/hid/disp/display.h **** 
 139:../../libDaisy/src/hid/disp/display.h ****     /** 
 140:../../libDaisy/src/hid/disp/display.h ****     Similar to WriteChar, except it will handle an entire String.
 141:../../libDaisy/src/hid/disp/display.h ****     Wrapping does not happen automatically, so the width
 142:../../libDaisy/src/hid/disp/display.h ****     of the string must be kept within the dimensions of the screen.
 143:../../libDaisy/src/hid/disp/display.h ****     \param str string to be written
 144:../../libDaisy/src/hid/disp/display.h ****     \param font font to use
 145:../../libDaisy/src/hid/disp/display.h ****     \param on  on or off
 146:../../libDaisy/src/hid/disp/display.h ****     \return &
 147:../../libDaisy/src/hid/disp/display.h ****     */
 148:../../libDaisy/src/hid/disp/display.h ****     virtual char WriteString(const char* str, FontDef font, bool on) = 0;
 149:../../libDaisy/src/hid/disp/display.h **** 
 150:../../libDaisy/src/hid/disp/display.h ****     /** 
 151:../../libDaisy/src/hid/disp/display.h ****     Similar to WriteString but justified within a bounding box.
 152:../../libDaisy/src/hid/disp/display.h ****     \param str          string to be written
 153:../../libDaisy/src/hid/disp/display.h ****     \param font         font to use
 154:../../libDaisy/src/hid/disp/display.h ****     \param boundingBox  the bounding box to draw the text in
 155:../../libDaisy/src/hid/disp/display.h ****     \param alignment    the alignment to use
 156:../../libDaisy/src/hid/disp/display.h ****     \param on           on or off
 157:../../libDaisy/src/hid/disp/display.h ****     \return The rectangle that was drawn to
 158:../../libDaisy/src/hid/disp/display.h ****     */
 159:../../libDaisy/src/hid/disp/display.h ****     virtual Rectangle WriteStringAligned(const char*    str,
 160:../../libDaisy/src/hid/disp/display.h ****                                          const FontDef& font,
 161:../../libDaisy/src/hid/disp/display.h ****                                          Rectangle      boundingBox,
 162:../../libDaisy/src/hid/disp/display.h ****                                          Alignment      alignment,
 163:../../libDaisy/src/hid/disp/display.h ****                                          bool           on)
 164:../../libDaisy/src/hid/disp/display.h ****         = 0;
 165:../../libDaisy/src/hid/disp/display.h **** 
 166:../../libDaisy/src/hid/disp/display.h ****     /** 
 167:../../libDaisy/src/hid/disp/display.h ****     Moves the 'Cursor' position used for WriteChar, and WriteStr to the specified coordinate.
 168:../../libDaisy/src/hid/disp/display.h ****     \param x x pos
 169:../../libDaisy/src/hid/disp/display.h ****     \param y y pos
 170:../../libDaisy/src/hid/disp/display.h ****     */
 171:../../libDaisy/src/hid/disp/display.h ****     void SetCursor(uint16_t x, uint16_t y)
 172:../../libDaisy/src/hid/disp/display.h ****     {
 173:../../libDaisy/src/hid/disp/display.h ****         currentX_ = (x >= Width()) ? Width() - 1 : x;
 174:../../libDaisy/src/hid/disp/display.h ****         currentY_ = (y >= Height()) ? Height() - 1 : y;
 175:../../libDaisy/src/hid/disp/display.h ****     }
 176:../../libDaisy/src/hid/disp/display.h **** 
 177:../../libDaisy/src/hid/disp/display.h ****     /** 
 178:../../libDaisy/src/hid/disp/display.h ****     Writes the current display buffer to the OLED device using SPI or I2C depending on 
 179:../../libDaisy/src/hid/disp/display.h ****     how the object was initialized.
ARM GAS  C:\Users\daniel\AppData\Local\Temp\ccLc35Ca.s 			page 64


 180:../../libDaisy/src/hid/disp/display.h ****     */
 181:../../libDaisy/src/hid/disp/display.h ****     virtual void Update() = 0;
 182:../../libDaisy/src/hid/disp/display.h **** 
 183:../../libDaisy/src/hid/disp/display.h ****   protected:
 184:../../libDaisy/src/hid/disp/display.h ****     uint16_t currentX_;
 185:../../libDaisy/src/hid/disp/display.h ****     uint16_t currentY_;
 186:../../libDaisy/src/hid/disp/display.h **** };
 187:../../libDaisy/src/hid/disp/display.h **** 
 188:../../libDaisy/src/hid/disp/display.h **** /** This class is intended as a intermediary class for your actual implementation of the OneBitGrap
 189:../../libDaisy/src/hid/disp/display.h ****  *  interface. It uses the CRTP design pattern where the template argument is the child class. It p
 190:../../libDaisy/src/hid/disp/display.h ****  *  implementations for most of the functions, except DrawPixel(), Update() and Fill(), which you'l
 191:../../libDaisy/src/hid/disp/display.h ****  *  to provide in your child class.
 192:../../libDaisy/src/hid/disp/display.h ****  *  The main goal of this class is to provide common drawing functions without relying on massive a
 193:../../libDaisy/src/hid/disp/display.h ****  *  virtual function calls that would result in a performance loss. To achieve this, any drawing fu
 194:../../libDaisy/src/hid/disp/display.h ****  *  is implemented here and internally calls other drawing functions (e.g. DrawRect() which interna
 195:../../libDaisy/src/hid/disp/display.h ****  *  DrawPixel() and DrawLine()) makes these calls via the qualified name of these functions to expl
 196:../../libDaisy/src/hid/disp/display.h ****  *  suppress the virtual dispatch mechanism like this:
 197:../../libDaisy/src/hid/disp/display.h ****  * 
 198:../../libDaisy/src/hid/disp/display.h ****  *      ChildType::DrawPixel(...); // no virtual function call; direct call into the child class fu
 199:../../libDaisy/src/hid/disp/display.h ****  *  
 200:../../libDaisy/src/hid/disp/display.h ****  *  To create a custom OneBitGraphicsDisplay implementation, you can 
 201:../../libDaisy/src/hid/disp/display.h ****  *  A) inherit from OneBitGraphicsDisplay directly and provide all the drawing functions yourself
 202:../../libDaisy/src/hid/disp/display.h ****  *  B) Inherit from OneBitGraphicsDisplayImpl and only provide DrawPixel(), Fill() and Update()
 203:../../libDaisy/src/hid/disp/display.h ****  *     like this:
 204:../../libDaisy/src/hid/disp/display.h ****  *  
 205:../../libDaisy/src/hid/disp/display.h ****  *      class MyDisplayClass : public OneBitGraphicsDisplayImpl<MyDisplayClass> 
 206:../../libDaisy/src/hid/disp/display.h ****  *      {
 207:../../libDaisy/src/hid/disp/display.h ****  *      public:
 208:../../libDaisy/src/hid/disp/display.h ****  *          void Fill() override { ... };
 209:../../libDaisy/src/hid/disp/display.h ****  *          void DrawPixel(uint_fast8_t x, uint_fast8_t y, bool on) override { ... };
 210:../../libDaisy/src/hid/disp/display.h ****  *          void Update() override { ... }
 211:../../libDaisy/src/hid/disp/display.h ****  *      };
 212:../../libDaisy/src/hid/disp/display.h ****  *  
 213:../../libDaisy/src/hid/disp/display.h ****  */
 214:../../libDaisy/src/hid/disp/display.h **** template <class ChildType>
 215:../../libDaisy/src/hid/disp/display.h **** class OneBitGraphicsDisplayImpl : public OneBitGraphicsDisplay
 216:../../libDaisy/src/hid/disp/display.h **** {
 217:../../libDaisy/src/hid/disp/display.h ****   public:
 218:../../libDaisy/src/hid/disp/display.h ****     OneBitGraphicsDisplayImpl() {}
 219:../../libDaisy/src/hid/disp/display.h ****     virtual ~OneBitGraphicsDisplayImpl() {}
 464              		.loc 31 219 13 view .LVU81
 465              	.LBB1051:
 466              	.LBI1051:
  23:../../libDaisy/src/hid/disp/display.h **** 
 467              		.loc 31 23 13 view .LVU82
  23:../../libDaisy/src/hid/disp/display.h **** 
 468              		.loc 31 23 13 is_stmt 0 view .LVU83
 469              	.LBE1051:
 470              	.LBE1050:
  18:../../libDaisy/src/hid/disp/oled_display.h **** 
 471              		.loc 26 18 29 view .LVU84
 472 0000 7047     		bx	lr
 473              		.cfi_endproc
 474              	.LFE3204:
 476              		.weak	_ZN5daisy11OledDisplayINS_13SSD130xDriverILj128ELj64ENS_24SSD130x4WireSpiTransportEEEED1Ev
 477              		.thumb_set _ZN5daisy11OledDisplayINS_13SSD130xDriverILj128ELj64ENS_24SSD130x4WireSpiTransportEEEED
 478              		.section	.text._ZNK5daisy11OledDisplayINS_13SSD130xDriverILj128ELj64ENS_24SSD130x4WireSpiTransport
ARM GAS  C:\Users\daniel\AppData\Local\Temp\ccLc35Ca.s 			page 65


 479              		.align	1
