ARM GAS  C:\Users\daniel\AppData\Local\Temp\ccyWpYN0.s 			page 1


   1              		.cpu cortex-m7
   2              		.eabi_attribute 28, 1
   3              		.eabi_attribute 20, 1
   4              		.eabi_attribute 21, 1
   5              		.eabi_attribute 23, 3
   6              		.eabi_attribute 24, 1
   7              		.eabi_attribute 25, 1
   8              		.eabi_attribute 26, 1
   9              		.eabi_attribute 30, 2
  10              		.eabi_attribute 34, 1
  11              		.eabi_attribute 18, 4
  12              		.file	"Proliferation.cpp"
  13              		.text
  14              	.Ltext0:
  15              		.cfi_sections	.debug_frame
  16              		.section	.text._ZN5daisy6SwitchD2Ev,"axG",%progbits,_ZN5daisy6SwitchD5Ev,comdat
  17              		.align	1
  18              		.p2align 2,,3
  19              		.weak	_ZN5daisy6SwitchD2Ev
  20              		.arch armv7e-m
  21              		.syntax unified
  22              		.thumb
  23              		.thumb_func
  24              		.fpu fpv5-d16
  26              	_ZN5daisy6SwitchD2Ev:
  27              	.LVL0:
  28              	.LFB1605:
  29              		.file 1 "../../libDaisy//src/hid/switch.h"
   1:../../libDaisy//src/hid/switch.h **** #pragma once
   2:../../libDaisy//src/hid/switch.h **** #ifndef DSY_SWITCH_H
   3:../../libDaisy//src/hid/switch.h **** #define DSY_SWITCH_H
   4:../../libDaisy//src/hid/switch.h **** #include "daisy_core.h"
   5:../../libDaisy//src/hid/switch.h **** #include "per/gpio.h"
   6:../../libDaisy//src/hid/switch.h **** #include "sys/system.h"
   7:../../libDaisy//src/hid/switch.h **** 
   8:../../libDaisy//src/hid/switch.h **** namespace daisy
   9:../../libDaisy//src/hid/switch.h **** {
  10:../../libDaisy//src/hid/switch.h **** /** 
  11:../../libDaisy//src/hid/switch.h ****     Generic Class for handling momentary/latching switches \n 
  12:../../libDaisy//src/hid/switch.h ****     Inspired/influenced by Mutable Instruments (pichenettes) Switch classes
  13:../../libDaisy//src/hid/switch.h ****     @author Stephen Hensley
  14:../../libDaisy//src/hid/switch.h ****     @date December 2019
  15:../../libDaisy//src/hid/switch.h ****     @ingroup controls
  16:../../libDaisy//src/hid/switch.h **** */
  17:../../libDaisy//src/hid/switch.h **** class Switch
  18:../../libDaisy//src/hid/switch.h **** {
  19:../../libDaisy//src/hid/switch.h ****   public:
  20:../../libDaisy//src/hid/switch.h ****     /** Specifies the expected behavior of the switch */
  21:../../libDaisy//src/hid/switch.h ****     enum Type
  22:../../libDaisy//src/hid/switch.h ****     {
  23:../../libDaisy//src/hid/switch.h ****         TYPE_TOGGLE,    /**< & */
  24:../../libDaisy//src/hid/switch.h ****         TYPE_MOMENTARY, /**< & */
  25:../../libDaisy//src/hid/switch.h ****     };
  26:../../libDaisy//src/hid/switch.h ****     /** Specifies whether the pressed is HIGH or LOW. */
  27:../../libDaisy//src/hid/switch.h ****     enum Polarity
  28:../../libDaisy//src/hid/switch.h ****     {
  29:../../libDaisy//src/hid/switch.h ****         POLARITY_NORMAL,   /**< & */
ARM GAS  C:\Users\daniel\AppData\Local\Temp\ccyWpYN0.s 			page 2


  30:../../libDaisy//src/hid/switch.h ****         POLARITY_INVERTED, /**< & */
  31:../../libDaisy//src/hid/switch.h ****     };
  32:../../libDaisy//src/hid/switch.h **** 
  33:../../libDaisy//src/hid/switch.h ****     /** Specifies whether to use built-in Pull Up/Down resistors to hold button at a given state wh
  34:../../libDaisy//src/hid/switch.h ****     enum Pull
  35:../../libDaisy//src/hid/switch.h ****     {
  36:../../libDaisy//src/hid/switch.h ****         PULL_UP,   /**< & */
  37:../../libDaisy//src/hid/switch.h ****         PULL_DOWN, /**< & */
  38:../../libDaisy//src/hid/switch.h ****         PULL_NONE, /**< & */
  39:../../libDaisy//src/hid/switch.h ****     };
  40:../../libDaisy//src/hid/switch.h **** 
  41:../../libDaisy//src/hid/switch.h ****     Switch() {}
  42:../../libDaisy//src/hid/switch.h ****     ~Switch() {}
  30              		.loc 1 42 5 view -0
  31              		.cfi_startproc
  32              		@ args = 0, pretend = 0, frame = 0
  33              		@ frame_needed = 0, uses_anonymous_args = 0
  34              		@ link register save eliminated.
  35              		.loc 1 42 16 is_stmt 0 view .LVU1
  36 0000 7047     		bx	lr
  37              		.cfi_endproc
  38              	.LFE1605:
  40              		.weak	_ZN5daisy6SwitchD1Ev
  41              		.thumb_set _ZN5daisy6SwitchD1Ev,_ZN5daisy6SwitchD2Ev
  42 0002 00BF     		.section	.text._ZN5daisy8patch_sm12DaisyPatchSMD2Ev,"axG",%progbits,_ZN5daisy8patch_sm12DaisyPatch
  43              		.align	1
  44              		.p2align 2,,3
  45              		.weak	_ZN5daisy8patch_sm12DaisyPatchSMD2Ev
  46              		.syntax unified
  47              		.thumb
  48              		.thumb_func
  49              		.fpu fpv5-d16
  51              	_ZN5daisy8patch_sm12DaisyPatchSMD2Ev:
  52              	.LVL1:
  53              	.LFB2528:
  54              		.file 2 "../../libDaisy//src/daisy_patch_sm.h"
   1:../../libDaisy//src/daisy_patch_sm.h **** #pragma once
   2:../../libDaisy//src/daisy_patch_sm.h **** 
   3:../../libDaisy//src/daisy_patch_sm.h **** #include "daisy.h"
   4:../../libDaisy//src/daisy_patch_sm.h **** 
   5:../../libDaisy//src/daisy_patch_sm.h **** namespace daisy
   6:../../libDaisy//src/daisy_patch_sm.h **** {
   7:../../libDaisy//src/daisy_patch_sm.h **** namespace patch_sm
   8:../../libDaisy//src/daisy_patch_sm.h **** {
   9:../../libDaisy//src/daisy_patch_sm.h ****     /** Accessors for the Analog Controls. 
  10:../../libDaisy//src/daisy_patch_sm.h ****      *  These cover the 8x Bipolar CV inputs
  11:../../libDaisy//src/daisy_patch_sm.h ****      *  as well as the 4x 0-3V3 ADC inputs on
  12:../../libDaisy//src/daisy_patch_sm.h ****      *  the hardware 
  13:../../libDaisy//src/daisy_patch_sm.h ****      * 
  14:../../libDaisy//src/daisy_patch_sm.h ****      *  When reading a value with DaisyPatchSM::GetAdcValue()
  15:../../libDaisy//src/daisy_patch_sm.h ****      * 
  16:../../libDaisy//src/daisy_patch_sm.h ****      *  patch.GetAdcValue(patch_sm::CV_1);
  17:../../libDaisy//src/daisy_patch_sm.h ****      */
  18:../../libDaisy//src/daisy_patch_sm.h ****     enum
  19:../../libDaisy//src/daisy_patch_sm.h ****     {
  20:../../libDaisy//src/daisy_patch_sm.h ****         CV_1 = 0,
  21:../../libDaisy//src/daisy_patch_sm.h ****         CV_2,
ARM GAS  C:\Users\daniel\AppData\Local\Temp\ccyWpYN0.s 			page 3


  22:../../libDaisy//src/daisy_patch_sm.h ****         CV_3,
  23:../../libDaisy//src/daisy_patch_sm.h ****         CV_4,
  24:../../libDaisy//src/daisy_patch_sm.h ****         CV_5,
  25:../../libDaisy//src/daisy_patch_sm.h ****         CV_6,
  26:../../libDaisy//src/daisy_patch_sm.h ****         CV_7,
  27:../../libDaisy//src/daisy_patch_sm.h ****         CV_8,
  28:../../libDaisy//src/daisy_patch_sm.h ****         ADC_9,
  29:../../libDaisy//src/daisy_patch_sm.h ****         ADC_10,
  30:../../libDaisy//src/daisy_patch_sm.h ****         ADC_11,
  31:../../libDaisy//src/daisy_patch_sm.h ****         ADC_12,
  32:../../libDaisy//src/daisy_patch_sm.h ****         ADC_LAST,
  33:../../libDaisy//src/daisy_patch_sm.h ****     };
  34:../../libDaisy//src/daisy_patch_sm.h **** 
  35:../../libDaisy//src/daisy_patch_sm.h ****     /** Enum for addressing the CV Outputs via the WriteCvOut function. */
  36:../../libDaisy//src/daisy_patch_sm.h ****     enum
  37:../../libDaisy//src/daisy_patch_sm.h ****     {
  38:../../libDaisy//src/daisy_patch_sm.h ****         CV_OUT_BOTH = 0,
  39:../../libDaisy//src/daisy_patch_sm.h ****         CV_OUT_1,
  40:../../libDaisy//src/daisy_patch_sm.h ****         CV_OUT_2,
  41:../../libDaisy//src/daisy_patch_sm.h ****     };
  42:../../libDaisy//src/daisy_patch_sm.h **** 
  43:../../libDaisy//src/daisy_patch_sm.h **** 
  44:../../libDaisy//src/daisy_patch_sm.h ****     /** @brief Board support file for DaisyPatchSM hardware
  45:../../libDaisy//src/daisy_patch_sm.h ****      *  @author shensley
  46:../../libDaisy//src/daisy_patch_sm.h ****      *  @ingroup boards
  47:../../libDaisy//src/daisy_patch_sm.h ****      * 
  48:../../libDaisy//src/daisy_patch_sm.h ****      *  Daisy Patch SM is a complete Eurorack module DSP engine.
  49:../../libDaisy//src/daisy_patch_sm.h ****      *  Based on the Daisy Seed, with circuits added for 
  50:../../libDaisy//src/daisy_patch_sm.h ****      *  interfacing directly with eurorack modular synthesizers.
  51:../../libDaisy//src/daisy_patch_sm.h ****      */
  52:../../libDaisy//src/daisy_patch_sm.h ****     class DaisyPatchSM
  53:../../libDaisy//src/daisy_patch_sm.h ****     {
  54:../../libDaisy//src/daisy_patch_sm.h ****       public:
  55:../../libDaisy//src/daisy_patch_sm.h ****         /** Helper for mapping pins, and accessing them using the `GetPin` function */
  56:../../libDaisy//src/daisy_patch_sm.h ****         enum class PinBank
  57:../../libDaisy//src/daisy_patch_sm.h ****         {
  58:../../libDaisy//src/daisy_patch_sm.h ****             A,
  59:../../libDaisy//src/daisy_patch_sm.h ****             B,
  60:../../libDaisy//src/daisy_patch_sm.h ****             C,
  61:../../libDaisy//src/daisy_patch_sm.h ****             D
  62:../../libDaisy//src/daisy_patch_sm.h ****         };
  63:../../libDaisy//src/daisy_patch_sm.h **** 
  64:../../libDaisy//src/daisy_patch_sm.h ****         DaisyPatchSM() {}
  65:../../libDaisy//src/daisy_patch_sm.h ****         ~DaisyPatchSM() {}
  55              		.loc 2 65 9 is_stmt 1 view -0
  56              		.cfi_startproc
  57              		@ args = 0, pretend = 0, frame = 0
  58              		@ frame_needed = 0, uses_anonymous_args = 0
  59              		@ link register save eliminated.
  60              	.LBB442:
  61              	.LBI442:
  62              		.file 3 "../../libDaisy//src/hid/gatein.h"
   1:../../libDaisy//src/hid/gatein.h **** #pragma once
   2:../../libDaisy//src/hid/gatein.h **** #ifndef DSY_GATEIN_H
   3:../../libDaisy//src/hid/gatein.h **** #define DSY_GATEIN_H
   4:../../libDaisy//src/hid/gatein.h **** #include "per/gpio.h"
   5:../../libDaisy//src/hid/gatein.h **** 
ARM GAS  C:\Users\daniel\AppData\Local\Temp\ccyWpYN0.s 			page 4


   6:../../libDaisy//src/hid/gatein.h **** namespace daisy
   7:../../libDaisy//src/hid/gatein.h **** {
   8:../../libDaisy//src/hid/gatein.h **** /**
   9:../../libDaisy//src/hid/gatein.h ****    @brief Generic Class for handling gate inputs through GPIO.
  10:../../libDaisy//src/hid/gatein.h ****    @author Stephen Hensley
  11:../../libDaisy//src/hid/gatein.h ****    @date    March 2020
  12:../../libDaisy//src/hid/gatein.h ****    @ingroup controls
  13:../../libDaisy//src/hid/gatein.h **** */
  14:../../libDaisy//src/hid/gatein.h **** class GateIn
  15:../../libDaisy//src/hid/gatein.h **** {
  16:../../libDaisy//src/hid/gatein.h ****   public:
  17:../../libDaisy//src/hid/gatein.h ****     /** GateIn 
  18:../../libDaisy//src/hid/gatein.h ****     Constructor 
  19:../../libDaisy//src/hid/gatein.h ****     */
  20:../../libDaisy//src/hid/gatein.h ****     GateIn() {}
  21:../../libDaisy//src/hid/gatein.h ****     /** GateIn~
  22:../../libDaisy//src/hid/gatein.h ****     Destructor 
  23:../../libDaisy//src/hid/gatein.h ****     */
  24:../../libDaisy//src/hid/gatein.h ****     ~GateIn() {}
  63              		.loc 3 24 5 view .LVU3
  64              		.loc 3 24 5 is_stmt 0 view .LVU4
  65              	.LBE442:
  66              	.LBB443:
  67              	.LBI443:
  68              		.loc 3 24 5 is_stmt 1 view .LVU5
  69              		.loc 3 24 5 is_stmt 0 view .LVU6
  70              	.LBE443:
  71              	.LBB444:
  72              	.LBI444:
  73              		.file 4 "../../libDaisy//src/dev/codec_pcm3060.h"
   1:../../libDaisy//src/dev/codec_pcm3060.h **** #pragma once
   2:../../libDaisy//src/dev/codec_pcm3060.h **** #ifndef DSY_CODEC_PCM3060_H
   3:../../libDaisy//src/dev/codec_pcm3060.h **** #define DSY_CODEC_PCM3060_H
   4:../../libDaisy//src/dev/codec_pcm3060.h **** #include "per/i2c.h"
   5:../../libDaisy//src/dev/codec_pcm3060.h **** namespace daisy
   6:../../libDaisy//src/dev/codec_pcm3060.h **** {
   7:../../libDaisy//src/dev/codec_pcm3060.h **** /**
   8:../../libDaisy//src/dev/codec_pcm3060.h ****  * @brief Driver for the TI PCM3060 Audio Codec.
   9:../../libDaisy//src/dev/codec_pcm3060.h ****  * @addtogroup codec
  10:../../libDaisy//src/dev/codec_pcm3060.h ****  * 
  11:../../libDaisy//src/dev/codec_pcm3060.h ****  * For now this is a limited interface that uses I2C to communicate with the PCM3060
  12:../../libDaisy//src/dev/codec_pcm3060.h ****  * The device can also be accessed with SPI, which is not yet supported.
  13:../../libDaisy//src/dev/codec_pcm3060.h ****  * 
  14:../../libDaisy//src/dev/codec_pcm3060.h ****  * For now all registers are set to their defaults, and the Init function will 
  15:../../libDaisy//src/dev/codec_pcm3060.h ****  * perform a MRST and SRST before setting the format to 24bit LJ, and disabling 
  16:../../libDaisy//src/dev/codec_pcm3060.h ****  * power save for both the ADC and DAC.
  17:../../libDaisy//src/dev/codec_pcm3060.h ****  *
  18:../../libDaisy//src/dev/codec_pcm3060.h ****  */
  19:../../libDaisy//src/dev/codec_pcm3060.h **** class Pcm3060
  20:../../libDaisy//src/dev/codec_pcm3060.h **** {
  21:../../libDaisy//src/dev/codec_pcm3060.h ****   public:
  22:../../libDaisy//src/dev/codec_pcm3060.h ****     enum class Result
  23:../../libDaisy//src/dev/codec_pcm3060.h ****     {
  24:../../libDaisy//src/dev/codec_pcm3060.h ****         OK,
  25:../../libDaisy//src/dev/codec_pcm3060.h ****         ERR,
  26:../../libDaisy//src/dev/codec_pcm3060.h ****     };
  27:../../libDaisy//src/dev/codec_pcm3060.h **** 
ARM GAS  C:\Users\daniel\AppData\Local\Temp\ccyWpYN0.s 			page 5


  28:../../libDaisy//src/dev/codec_pcm3060.h ****     Pcm3060() {}
  29:../../libDaisy//src/dev/codec_pcm3060.h ****     ~Pcm3060() {}
  74              		.loc 4 29 5 is_stmt 1 view .LVU7
  75              		.loc 4 29 5 is_stmt 0 view .LVU8
  76              	.LBE444:
  77              	.LBB445:
  78              	.LBI445:
  79              		.file 5 "../../libDaisy//src/hid/usb.h"
   1:../../libDaisy//src/hid/usb.h **** #pragma once
   2:../../libDaisy//src/hid/usb.h **** #ifndef DSY_HID_USB_H
   3:../../libDaisy//src/hid/usb.h **** #define DSY_HID_USB_H
   4:../../libDaisy//src/hid/usb.h **** #include <stdint.h>
   5:../../libDaisy//src/hid/usb.h **** #include <stdlib.h>
   6:../../libDaisy//src/hid/usb.h **** 
   7:../../libDaisy//src/hid/usb.h **** namespace daisy
   8:../../libDaisy//src/hid/usb.h **** /** @addtogroup human_interface
   9:../../libDaisy//src/hid/usb.h ****     @{
  10:../../libDaisy//src/hid/usb.h **** */
  11:../../libDaisy//src/hid/usb.h **** 
  12:../../libDaisy//src/hid/usb.h **** {
  13:../../libDaisy//src/hid/usb.h **** /** 
  14:../../libDaisy//src/hid/usb.h ****     @brief Interface for initializing and using the USB Peripherals on the daisy
  15:../../libDaisy//src/hid/usb.h ****     @author Stephen Hensley
  16:../../libDaisy//src/hid/usb.h ****     @date December 2019
  17:../../libDaisy//src/hid/usb.h **** */
  18:../../libDaisy//src/hid/usb.h **** class UsbHandle
  19:../../libDaisy//src/hid/usb.h **** {
  20:../../libDaisy//src/hid/usb.h ****   public:
  21:../../libDaisy//src/hid/usb.h ****     /** Return values for USBHandle Functions */
  22:../../libDaisy//src/hid/usb.h ****     enum class Result
  23:../../libDaisy//src/hid/usb.h ****     {
  24:../../libDaisy//src/hid/usb.h ****         OK,
  25:../../libDaisy//src/hid/usb.h ****         ERR,
  26:../../libDaisy//src/hid/usb.h ****     };
  27:../../libDaisy//src/hid/usb.h **** 
  28:../../libDaisy//src/hid/usb.h ****     /** Specified which of the two USB Peripherals to initialize. */
  29:../../libDaisy//src/hid/usb.h ****     enum UsbPeriph
  30:../../libDaisy//src/hid/usb.h ****     {
  31:../../libDaisy//src/hid/usb.h ****         FS_INTERNAL, /**< Internal pin */
  32:../../libDaisy//src/hid/usb.h ****         FS_EXTERNAL, /**< FS External D+ pin is Pin 38 (GPIO32). FS External D- pin is Pin 37 (GPIO
  33:../../libDaisy//src/hid/usb.h ****         FS_BOTH,     /**< Both */
  34:../../libDaisy//src/hid/usb.h ****     };
  35:../../libDaisy//src/hid/usb.h **** 
  36:../../libDaisy//src/hid/usb.h **** 
  37:../../libDaisy//src/hid/usb.h ****     /** Function called upon reception of a buffer */
  38:../../libDaisy//src/hid/usb.h ****     typedef void (*ReceiveCallback)(uint8_t* buff, uint32_t* len);
  39:../../libDaisy//src/hid/usb.h **** 
  40:../../libDaisy//src/hid/usb.h ****     UsbHandle() {}
  41:../../libDaisy//src/hid/usb.h **** 
  42:../../libDaisy//src/hid/usb.h ****     ~UsbHandle() {}
  80              		.loc 5 42 5 is_stmt 1 view .LVU9
  81              		.loc 5 42 5 is_stmt 0 view .LVU10
  82              	.LBE445:
  83              	.LBB446:
  84              	.LBI446:
  85              		.file 6 "../../libDaisy//src/per/adc.h"
   1:../../libDaisy//src/per/adc.h **** #pragma once
ARM GAS  C:\Users\daniel\AppData\Local\Temp\ccyWpYN0.s 			page 6


   2:../../libDaisy//src/per/adc.h **** #ifndef DSY_ADC_H
   3:../../libDaisy//src/per/adc.h **** #define DSY_ADC_H /**< Macro */
   4:../../libDaisy//src/per/adc.h **** #include <stdint.h>
   5:../../libDaisy//src/per/adc.h **** #include <stdlib.h>
   6:../../libDaisy//src/per/adc.h **** #include "daisy_core.h"
   7:../../libDaisy//src/per/adc.h **** #include "per/gpio.h"
   8:../../libDaisy//src/per/adc.h **** 
   9:../../libDaisy//src/per/adc.h **** #define DSY_ADC_MAX_CHANNELS 16 /**< Maximum number of ADC channels */
  10:../../libDaisy//src/per/adc.h **** 
  11:../../libDaisy//src/per/adc.h **** namespace daisy
  12:../../libDaisy//src/per/adc.h **** {
  13:../../libDaisy//src/per/adc.h **** /** @addtogroup per_analog
  14:../../libDaisy//src/per/adc.h ****     @{
  15:../../libDaisy//src/per/adc.h **** */
  16:../../libDaisy//src/per/adc.h **** 
  17:../../libDaisy//src/per/adc.h **** /* While there may not be many configuration options here,
  18:../../libDaisy//src/per/adc.h **** using a struct like this allows us to add more configuration
  19:../../libDaisy//src/per/adc.h **** later without breaking existing functionality.
  20:../../libDaisy//src/per/adc.h **** */
  21:../../libDaisy//src/per/adc.h **** 
  22:../../libDaisy//src/per/adc.h **** /** @brief   Configuration Structure for an ADC Channel 
  23:../../libDaisy//src/per/adc.h ****  *  @details This can be used to configure a a single input, 
  24:../../libDaisy//src/per/adc.h ****  *           or a multiplexed input, allowing up to 8 inputs on 
  25:../../libDaisy//src/per/adc.h ****  *           one channel.
  26:../../libDaisy//src/per/adc.h ****  *  @note    Sharing data lines to multiple muxes _is_ possible, but
  27:../../libDaisy//src/per/adc.h ****  *           each channel sharing data lines must be set to the maximum
  28:../../libDaisy//src/per/adc.h ****  *           number of channels, even if some multiplexers have fewer
  29:../../libDaisy//src/per/adc.h ****  *           inputs connected.
  30:../../libDaisy//src/per/adc.h **** */
  31:../../libDaisy//src/per/adc.h **** struct AdcChannelConfig
  32:../../libDaisy//src/per/adc.h **** {
  33:../../libDaisy//src/per/adc.h ****     /** Which pin to use for multiplexing */
  34:../../libDaisy//src/per/adc.h ****     enum MuxPin
  35:../../libDaisy//src/per/adc.h ****     {
  36:../../libDaisy//src/per/adc.h ****         MUX_SEL_0,    /**< & */
  37:../../libDaisy//src/per/adc.h ****         MUX_SEL_1,    /**< & */
  38:../../libDaisy//src/per/adc.h ****         MUX_SEL_2,    /**< & */
  39:../../libDaisy//src/per/adc.h ****         MUX_SEL_LAST, /**< & */
  40:../../libDaisy//src/per/adc.h ****     };
  41:../../libDaisy//src/per/adc.h **** 
  42:../../libDaisy//src/per/adc.h ****     /** Initializes a single ADC pin as an ADC. 
  43:../../libDaisy//src/per/adc.h ****     \param pin Pin to init.
  44:../../libDaisy//src/per/adc.h ****      */
  45:../../libDaisy//src/per/adc.h ****     void InitSingle(dsy_gpio_pin pin);
  46:../../libDaisy//src/per/adc.h **** 
  47:../../libDaisy//src/per/adc.h ****     /** 
  48:../../libDaisy//src/per/adc.h ****     Initializes a single ADC pin as a Multiplexed ADC.
  49:../../libDaisy//src/per/adc.h ****     Requires a CD405X Multiplexer connected to the pin.
  50:../../libDaisy//src/per/adc.h ****     You only need to supply the mux pins that are required,
  51:../../libDaisy//src/per/adc.h ****     e.g. a 4052 mux would only require mux_0 and mux_1.
  52:../../libDaisy//src/per/adc.h ****     Internal Callbacks handle the pin addressing.
  53:../../libDaisy//src/per/adc.h ****     \param mux_channels must be 1-8
  54:../../libDaisy//src/per/adc.h ****     \param mux_0 First mux pin
  55:../../libDaisy//src/per/adc.h ****     \param mux_1 Second mux pin
  56:../../libDaisy//src/per/adc.h ****     \param mux_2 Third mux pin
  57:../../libDaisy//src/per/adc.h ****     \param adc_pin &
  58:../../libDaisy//src/per/adc.h ****     */
ARM GAS  C:\Users\daniel\AppData\Local\Temp\ccyWpYN0.s 			page 7


  59:../../libDaisy//src/per/adc.h ****     void InitMux(dsy_gpio_pin adc_pin,
  60:../../libDaisy//src/per/adc.h ****                  size_t       mux_channels,
  61:../../libDaisy//src/per/adc.h ****                  dsy_gpio_pin mux_0,
  62:../../libDaisy//src/per/adc.h ****                  dsy_gpio_pin mux_1 = {DSY_GPIOX, 0},
  63:../../libDaisy//src/per/adc.h ****                  dsy_gpio_pin mux_2 = {DSY_GPIOX, 0});
  64:../../libDaisy//src/per/adc.h **** 
  65:../../libDaisy//src/per/adc.h ****     dsy_gpio pin_;                   /**< & */
  66:../../libDaisy//src/per/adc.h ****     dsy_gpio mux_pin_[MUX_SEL_LAST]; /**< & */
  67:../../libDaisy//src/per/adc.h ****     uint8_t  mux_channels_;          /**< & */
  68:../../libDaisy//src/per/adc.h **** };
  69:../../libDaisy//src/per/adc.h **** 
  70:../../libDaisy//src/per/adc.h **** /**
  71:../../libDaisy//src/per/adc.h ****    @brief Handler for analog to digital conversion
  72:../../libDaisy//src/per/adc.h **** */
  73:../../libDaisy//src/per/adc.h **** class AdcHandle
  74:../../libDaisy//src/per/adc.h **** {
  75:../../libDaisy//src/per/adc.h ****   public:
  76:../../libDaisy//src/per/adc.h ****     /** Supported oversampling amounts */
  77:../../libDaisy//src/per/adc.h ****     enum OverSampling
  78:../../libDaisy//src/per/adc.h ****     {
  79:../../libDaisy//src/per/adc.h ****         OVS_NONE, /**< & */
  80:../../libDaisy//src/per/adc.h ****         OVS_4,    /**< & */
  81:../../libDaisy//src/per/adc.h ****         OVS_8,    /**< & */
  82:../../libDaisy//src/per/adc.h ****         OVS_16,   /**< & */
  83:../../libDaisy//src/per/adc.h ****         OVS_32,   /**< & */
  84:../../libDaisy//src/per/adc.h ****         OVS_64,   /**< & */
  85:../../libDaisy//src/per/adc.h ****         OVS_128,  /**< & */
  86:../../libDaisy//src/per/adc.h ****         OVS_256,  /**< & */
  87:../../libDaisy//src/per/adc.h ****         OVS_512,  /**< & */
  88:../../libDaisy//src/per/adc.h ****         OVS_1024, /**< & */
  89:../../libDaisy//src/per/adc.h ****         OVS_LAST, /**< & */
  90:../../libDaisy//src/per/adc.h ****     };
  91:../../libDaisy//src/per/adc.h **** 
  92:../../libDaisy//src/per/adc.h ****     AdcHandle() {}
  93:../../libDaisy//src/per/adc.h ****     ~AdcHandle() {}
  86              		.loc 6 93 5 is_stmt 1 view .LVU11
  87              		.loc 6 93 5 is_stmt 0 view .LVU12
  88              	.LBE446:
  89              	.LBB447:
  90              	.LBI447:
  91              		.file 7 "../../libDaisy//src/hid/audio.h"
   1:../../libDaisy//src/hid/audio.h **** #ifndef DSY_AUDIO_H
   2:../../libDaisy//src/hid/audio.h **** #define DSY_AUDIO_H /**< & */
   3:../../libDaisy//src/hid/audio.h **** 
   4:../../libDaisy//src/hid/audio.h **** #include "per/sai.h"
   5:../../libDaisy//src/hid/audio.h **** 
   6:../../libDaisy//src/hid/audio.h **** namespace daisy
   7:../../libDaisy//src/hid/audio.h **** {
   8:../../libDaisy//src/hid/audio.h **** /** @brief Audio Engine Handle
   9:../../libDaisy//src/hid/audio.h ****  *  @ingroup audio 
  10:../../libDaisy//src/hid/audio.h ****  *  @details This class allows for higher level access to an audio engine.
  11:../../libDaisy//src/hid/audio.h ****  *           If you're using a SOM like the DaisySeed or DaisyPatchSM (or any 
  12:../../libDaisy//src/hid/audio.h ****  *            board that includes one of those objects) then the intialization
  13:../../libDaisy//src/hid/audio.h ****  *            is already taken  care of.
  14:../../libDaisy//src/hid/audio.h ****  *           If you're setting up your own custom hardware, or need to make changes
  15:../../libDaisy//src/hid/audio.h ****  *           you will have to take the following steps:
  16:../../libDaisy//src/hid/audio.h ****  *             1. Create and Initialize an SaiHandle or two depending on your requirements
ARM GAS  C:\Users\daniel\AppData\Local\Temp\ccyWpYN0.s 			page 8


  17:../../libDaisy//src/hid/audio.h ****  *             2. Initialize the Audio Handle with the desired settings and the Initialized SaiHand
  18:../../libDaisy//src/hid/audio.h ****  *             3. If the connected codec requires special configuration or initialization, do so
  19:../../libDaisy//src/hid/audio.h ****  *             4. Write a callback method using either the AudioCallback or the InterleavingAudioCa
  20:../../libDaisy//src/hid/audio.h ****  *             5. Start the Audio using one of the StartAudio function
  21:../../libDaisy//src/hid/audio.h ****  */
  22:../../libDaisy//src/hid/audio.h **** class AudioHandle
  23:../../libDaisy//src/hid/audio.h **** {
  24:../../libDaisy//src/hid/audio.h ****   public:
  25:../../libDaisy//src/hid/audio.h ****     /** Manually configurable details about the Audio Engine */
  26:../../libDaisy//src/hid/audio.h ****     /** TODO: Figure out how to get samplerate in here. */
  27:../../libDaisy//src/hid/audio.h ****     struct Config
  28:../../libDaisy//src/hid/audio.h ****     {
  29:../../libDaisy//src/hid/audio.h ****         /** number of samples to process per callback */
  30:../../libDaisy//src/hid/audio.h ****         size_t blocksize;
  31:../../libDaisy//src/hid/audio.h **** 
  32:../../libDaisy//src/hid/audio.h ****         /**< Sample rate of audio */
  33:../../libDaisy//src/hid/audio.h ****         SaiHandle::Config::SampleRate samplerate;
  34:../../libDaisy//src/hid/audio.h **** 
  35:../../libDaisy//src/hid/audio.h ****         /** factor for adjustment before and after callback for hardware that may have extra headro
  36:../../libDaisy//src/hid/audio.h ****         float postgain;
  37:../../libDaisy//src/hid/audio.h **** 
  38:../../libDaisy//src/hid/audio.h ****         /** factor for additional one-sided compensation to audio path for hardware that may
  39:../../libDaisy//src/hid/audio.h ****          *  have unequal input/output ranges
  40:../../libDaisy//src/hid/audio.h ****          */
  41:../../libDaisy//src/hid/audio.h ****         float output_compensation;
  42:../../libDaisy//src/hid/audio.h **** 
  43:../../libDaisy//src/hid/audio.h ****         /** Sets default values for config struct */
  44:../../libDaisy//src/hid/audio.h ****         Config()
  45:../../libDaisy//src/hid/audio.h ****         : blocksize(48),
  46:../../libDaisy//src/hid/audio.h ****           samplerate(SaiHandle::Config::SampleRate::SAI_48KHZ),
  47:../../libDaisy//src/hid/audio.h ****           postgain(1.f),
  48:../../libDaisy//src/hid/audio.h ****           output_compensation(1.f)
  49:../../libDaisy//src/hid/audio.h ****         {
  50:../../libDaisy//src/hid/audio.h ****         }
  51:../../libDaisy//src/hid/audio.h ****     };
  52:../../libDaisy//src/hid/audio.h **** 
  53:../../libDaisy//src/hid/audio.h ****     enum class Result
  54:../../libDaisy//src/hid/audio.h ****     {
  55:../../libDaisy//src/hid/audio.h ****         OK,
  56:../../libDaisy//src/hid/audio.h ****         ERR,
  57:../../libDaisy//src/hid/audio.h ****     };
  58:../../libDaisy//src/hid/audio.h **** 
  59:../../libDaisy//src/hid/audio.h ****     /** Non-Interleaving input buffer
  60:../../libDaisy//src/hid/audio.h ****      * Buffer arranged by float[chn][sample] 
  61:../../libDaisy//src/hid/audio.h ****      * const so that the user can't modify the input
  62:../../libDaisy//src/hid/audio.h ****      */
  63:../../libDaisy//src/hid/audio.h ****     typedef const float* const* InputBuffer;
  64:../../libDaisy//src/hid/audio.h **** 
  65:../../libDaisy//src/hid/audio.h ****     /** Non-Interleaving output buffer
  66:../../libDaisy//src/hid/audio.h ****      * Arranged by float[chn][sample] 
  67:../../libDaisy//src/hid/audio.h ****      */
  68:../../libDaisy//src/hid/audio.h ****     typedef float** OutputBuffer;
  69:../../libDaisy//src/hid/audio.h **** 
  70:../../libDaisy//src/hid/audio.h ****     /** Type for a Non-Interleaving audio callback 
  71:../../libDaisy//src/hid/audio.h ****      * Non-Interleaving audio callbacks in daisy will be of this type
  72:../../libDaisy//src/hid/audio.h ****      */
  73:../../libDaisy//src/hid/audio.h ****     typedef void (*AudioCallback)(InputBuffer  in,
ARM GAS  C:\Users\daniel\AppData\Local\Temp\ccyWpYN0.s 			page 9


  74:../../libDaisy//src/hid/audio.h ****                                   OutputBuffer out,
  75:../../libDaisy//src/hid/audio.h ****                                   size_t       size);
  76:../../libDaisy//src/hid/audio.h **** 
  77:../../libDaisy//src/hid/audio.h ****     /** Interleaving Input buffer
  78:../../libDaisy//src/hid/audio.h ****      ** audio is prepared as { L0, R0, L1, R1, . . . LN, RN }]
  79:../../libDaisy//src/hid/audio.h ****      ** this is const, as the user shouldn't modify it
  80:../../libDaisy//src/hid/audio.h ****     */
  81:../../libDaisy//src/hid/audio.h ****     typedef const float* InterleavingInputBuffer;
  82:../../libDaisy//src/hid/audio.h **** 
  83:../../libDaisy//src/hid/audio.h ****     /** Interleaving Output buffer 
  84:../../libDaisy//src/hid/audio.h ****      ** audio is prepared as { L0, R0, L1, R1, . . . LN, RN }
  85:../../libDaisy//src/hid/audio.h ****     */
  86:../../libDaisy//src/hid/audio.h ****     typedef float* InterleavingOutputBuffer;
  87:../../libDaisy//src/hid/audio.h **** 
  88:../../libDaisy//src/hid/audio.h ****     /** Interleaving Audio Callback 
  89:../../libDaisy//src/hid/audio.h ****      * Interleaving audio callbacks in daisy must be of this type
  90:../../libDaisy//src/hid/audio.h ****      */
  91:../../libDaisy//src/hid/audio.h ****     typedef void (*InterleavingAudioCallback)(InterleavingInputBuffer  in,
  92:../../libDaisy//src/hid/audio.h ****                                               InterleavingOutputBuffer out,
  93:../../libDaisy//src/hid/audio.h ****                                               size_t                   size);
  94:../../libDaisy//src/hid/audio.h **** 
  95:../../libDaisy//src/hid/audio.h ****     AudioHandle() : pimpl_(nullptr) {}
  96:../../libDaisy//src/hid/audio.h ****     ~AudioHandle() {}
  92              		.loc 7 96 5 is_stmt 1 view .LVU13
  93              		.loc 7 96 5 is_stmt 0 view .LVU14
  94              	.LBE447:
  95              	.LBB448:
  96              	.LBI448:
  97              		.file 8 "../../libDaisy//src/sys/system.h"
   1:../../libDaisy//src/sys/system.h **** #ifndef DSY_SYSTEM_H
   2:../../libDaisy//src/sys/system.h **** #define DSY_SYSTEM_H
   3:../../libDaisy//src/sys/system.h **** 
   4:../../libDaisy//src/sys/system.h **** #ifndef UNIT_TEST // for unit tests, a dummy implementation is provided below
   5:../../libDaisy//src/sys/system.h **** 
   6:../../libDaisy//src/sys/system.h **** #include <cstdint>
   7:../../libDaisy//src/sys/system.h **** #include "per/tim.h"
   8:../../libDaisy//src/sys/system.h **** 
   9:../../libDaisy//src/sys/system.h **** namespace daisy
  10:../../libDaisy//src/sys/system.h **** {
  11:../../libDaisy//src/sys/system.h **** /** A handle for interacting with the Core System. 
  12:../../libDaisy//src/sys/system.h ****  ** This includes the Clock tree, MPU, global DMA initialization,
  13:../../libDaisy//src/sys/system.h ****  ** cache handling, and any other necessary global initiailzation
  14:../../libDaisy//src/sys/system.h ****  **
  15:../../libDaisy//src/sys/system.h ****  ** @author shensley
  16:../../libDaisy//src/sys/system.h ****  ** @ingroup system
  17:../../libDaisy//src/sys/system.h ****  */
  18:../../libDaisy//src/sys/system.h **** class System
  19:../../libDaisy//src/sys/system.h **** {
  20:../../libDaisy//src/sys/system.h ****   public:
  21:../../libDaisy//src/sys/system.h ****     /** Contains settings for initializing the System */
  22:../../libDaisy//src/sys/system.h ****     struct Config
  23:../../libDaisy//src/sys/system.h ****     {
  24:../../libDaisy//src/sys/system.h ****         /** Specifies the system clock frequency that feeds APB/AHB clocks, etc. */
  25:../../libDaisy//src/sys/system.h ****         enum class SysClkFreq
  26:../../libDaisy//src/sys/system.h ****         {
  27:../../libDaisy//src/sys/system.h ****             FREQ_400MHZ,
  28:../../libDaisy//src/sys/system.h ****             FREQ_480MHZ,
ARM GAS  C:\Users\daniel\AppData\Local\Temp\ccyWpYN0.s 			page 10


  29:../../libDaisy//src/sys/system.h ****         };
  30:../../libDaisy//src/sys/system.h **** 
  31:../../libDaisy//src/sys/system.h ****         /** Method to call on the struct to set to defaults
  32:../../libDaisy//src/sys/system.h ****          ** CPU Freq set to 400MHz
  33:../../libDaisy//src/sys/system.h ****          ** Cache Enabled 
  34:../../libDaisy//src/sys/system.h ****          ** */
  35:../../libDaisy//src/sys/system.h ****         void Defaults()
  36:../../libDaisy//src/sys/system.h ****         {
  37:../../libDaisy//src/sys/system.h ****             cpu_freq    = SysClkFreq::FREQ_400MHZ;
  38:../../libDaisy//src/sys/system.h ****             use_dcache  = true;
  39:../../libDaisy//src/sys/system.h ****             use_icache  = true;
  40:../../libDaisy//src/sys/system.h ****             skip_clocks = false;
  41:../../libDaisy//src/sys/system.h ****         }
  42:../../libDaisy//src/sys/system.h **** 
  43:../../libDaisy//src/sys/system.h ****         /** Method to call on the struct to set to boost mode:
  44:../../libDaisy//src/sys/system.h ****          ** CPU Freq set to 480MHz
  45:../../libDaisy//src/sys/system.h ****          ** Cache Enabled 
  46:../../libDaisy//src/sys/system.h ****          ** */
  47:../../libDaisy//src/sys/system.h ****         void Boost()
  48:../../libDaisy//src/sys/system.h ****         {
  49:../../libDaisy//src/sys/system.h ****             cpu_freq    = SysClkFreq::FREQ_480MHZ;
  50:../../libDaisy//src/sys/system.h ****             use_dcache  = true;
  51:../../libDaisy//src/sys/system.h ****             use_icache  = true;
  52:../../libDaisy//src/sys/system.h ****             skip_clocks = false;
  53:../../libDaisy//src/sys/system.h ****         }
  54:../../libDaisy//src/sys/system.h **** 
  55:../../libDaisy//src/sys/system.h ****         SysClkFreq cpu_freq;
  56:../../libDaisy//src/sys/system.h ****         bool       use_dcache;
  57:../../libDaisy//src/sys/system.h ****         bool       use_icache;
  58:../../libDaisy//src/sys/system.h ****         bool       skip_clocks;
  59:../../libDaisy//src/sys/system.h ****     };
  60:../../libDaisy//src/sys/system.h **** 
  61:../../libDaisy//src/sys/system.h ****     /** Describes the different regions of memory available to the Daisy
  62:../../libDaisy//src/sys/system.h ****      * 
  63:../../libDaisy//src/sys/system.h ****      */
  64:../../libDaisy//src/sys/system.h ****     enum MemoryRegion
  65:../../libDaisy//src/sys/system.h ****     {
  66:../../libDaisy//src/sys/system.h ****         INTERNAL_FLASH = 0,
  67:../../libDaisy//src/sys/system.h ****         ITCMRAM,
  68:../../libDaisy//src/sys/system.h ****         DTCMRAM,
  69:../../libDaisy//src/sys/system.h ****         SRAM_D1,
  70:../../libDaisy//src/sys/system.h ****         SRAM_D2,
  71:../../libDaisy//src/sys/system.h ****         SRAM_D3,
  72:../../libDaisy//src/sys/system.h ****         SDRAM,
  73:../../libDaisy//src/sys/system.h ****         QSPI,
  74:../../libDaisy//src/sys/system.h ****         INVALID_ADDRESS,
  75:../../libDaisy//src/sys/system.h ****     };
  76:../../libDaisy//src/sys/system.h **** 
  77:../../libDaisy//src/sys/system.h ****     System() {}
  78:../../libDaisy//src/sys/system.h ****     ~System() {}
  98              		.loc 8 78 5 is_stmt 1 view .LVU15
  99              		.loc 8 78 5 is_stmt 0 view .LVU16
 100              	.LBE448:
 101              		.loc 2 65 26 view .LVU17
 102 0000 7047     		bx	lr
 103              		.cfi_endproc
 104              	.LFE2528:
ARM GAS  C:\Users\daniel\AppData\Local\Temp\ccyWpYN0.s 			page 11


 106              		.weak	_ZN5daisy8patch_sm12DaisyPatchSMD1Ev
 107              		.thumb_set _ZN5daisy8patch_sm12DaisyPatchSMD1Ev,_ZN5daisy8patch_sm12DaisyPatchSMD2Ev
 108 0002 00BF     		.section	.text._ZNSt5arrayI12SampleBufferILj240000EELj8EED2Ev,"axG",%progbits,_ZNSt5arrayI12Sample
 109              		.align	1
 110              		.p2align 2,,3
 111              		.weak	_ZNSt5arrayI12SampleBufferILj240000EELj8EED2Ev
 112              		.syntax unified
 113              		.thumb
 114              		.thumb_func
 115              		.fpu fpv5-d16
 117              	_ZNSt5arrayI12SampleBufferILj240000EELj8EED2Ev:
 118              	.LVL2:
 119              	.LFB5427:
 120              		.file 9 "c:\\programdata\\chocolatey\\lib\\gcc-arm-embedded\\tools\\gcc-arm-none-eabi-10-2020-q4-m
   1:c:\programdata\chocolatey\lib\gcc-arm-embedded\tools\gcc-arm-none-eabi-10-2020-q4-major\arm-none-eabi\include\c++\10.2.1\array **** // <array> -*- C++ -*-
   2:c:\programdata\chocolatey\lib\gcc-arm-embedded\tools\gcc-arm-none-eabi-10-2020-q4-major\arm-none-eabi\include\c++\10.2.1\array **** 
   3:c:\programdata\chocolatey\lib\gcc-arm-embedded\tools\gcc-arm-none-eabi-10-2020-q4-major\arm-none-eabi\include\c++\10.2.1\array **** // Copyright (C) 2007-2020 Free Software Foundation, Inc.
   4:c:\programdata\chocolatey\lib\gcc-arm-embedded\tools\gcc-arm-none-eabi-10-2020-q4-major\arm-none-eabi\include\c++\10.2.1\array **** //
   5:c:\programdata\chocolatey\lib\gcc-arm-embedded\tools\gcc-arm-none-eabi-10-2020-q4-major\arm-none-eabi\include\c++\10.2.1\array **** // This file is part of the GNU ISO C++ Library.  This library is free
   6:c:\programdata\chocolatey\lib\gcc-arm-embedded\tools\gcc-arm-none-eabi-10-2020-q4-major\arm-none-eabi\include\c++\10.2.1\array **** // software; you can redistribute it and/or modify it under the
   7:c:\programdata\chocolatey\lib\gcc-arm-embedded\tools\gcc-arm-none-eabi-10-2020-q4-major\arm-none-eabi\include\c++\10.2.1\array **** // terms of the GNU General Public License as published by the
   8:c:\programdata\chocolatey\lib\gcc-arm-embedded\tools\gcc-arm-none-eabi-10-2020-q4-major\arm-none-eabi\include\c++\10.2.1\array **** // Free Software Foundation; either version 3, or (at your option)
   9:c:\programdata\chocolatey\lib\gcc-arm-embedded\tools\gcc-arm-none-eabi-10-2020-q4-major\arm-none-eabi\include\c++\10.2.1\array **** // any later version.
  10:c:\programdata\chocolatey\lib\gcc-arm-embedded\tools\gcc-arm-none-eabi-10-2020-q4-major\arm-none-eabi\include\c++\10.2.1\array **** 
  11:c:\programdata\chocolatey\lib\gcc-arm-embedded\tools\gcc-arm-none-eabi-10-2020-q4-major\arm-none-eabi\include\c++\10.2.1\array **** // This library is distributed in the hope that it will be useful,
  12:c:\programdata\chocolatey\lib\gcc-arm-embedded\tools\gcc-arm-none-eabi-10-2020-q4-major\arm-none-eabi\include\c++\10.2.1\array **** // but WITHOUT ANY WARRANTY; without even the implied warranty of
  13:c:\programdata\chocolatey\lib\gcc-arm-embedded\tools\gcc-arm-none-eabi-10-2020-q4-major\arm-none-eabi\include\c++\10.2.1\array **** // MERCHANTABILITY or FITNESS FOR A PARTICULAR PURPOSE.  See the
  14:c:\programdata\chocolatey\lib\gcc-arm-embedded\tools\gcc-arm-none-eabi-10-2020-q4-major\arm-none-eabi\include\c++\10.2.1\array **** // GNU General Public License for more details.
  15:c:\programdata\chocolatey\lib\gcc-arm-embedded\tools\gcc-arm-none-eabi-10-2020-q4-major\arm-none-eabi\include\c++\10.2.1\array **** 
  16:c:\programdata\chocolatey\lib\gcc-arm-embedded\tools\gcc-arm-none-eabi-10-2020-q4-major\arm-none-eabi\include\c++\10.2.1\array **** // Under Section 7 of GPL version 3, you are granted additional
  17:c:\programdata\chocolatey\lib\gcc-arm-embedded\tools\gcc-arm-none-eabi-10-2020-q4-major\arm-none-eabi\include\c++\10.2.1\array **** // permissions described in the GCC Runtime Library Exception, version
  18:c:\programdata\chocolatey\lib\gcc-arm-embedded\tools\gcc-arm-none-eabi-10-2020-q4-major\arm-none-eabi\include\c++\10.2.1\array **** // 3.1, as published by the Free Software Foundation.
  19:c:\programdata\chocolatey\lib\gcc-arm-embedded\tools\gcc-arm-none-eabi-10-2020-q4-major\arm-none-eabi\include\c++\10.2.1\array **** 
  20:c:\programdata\chocolatey\lib\gcc-arm-embedded\tools\gcc-arm-none-eabi-10-2020-q4-major\arm-none-eabi\include\c++\10.2.1\array **** // You should have received a copy of the GNU General Public License and
  21:c:\programdata\chocolatey\lib\gcc-arm-embedded\tools\gcc-arm-none-eabi-10-2020-q4-major\arm-none-eabi\include\c++\10.2.1\array **** // a copy of the GCC Runtime Library Exception along with this program;
  22:c:\programdata\chocolatey\lib\gcc-arm-embedded\tools\gcc-arm-none-eabi-10-2020-q4-major\arm-none-eabi\include\c++\10.2.1\array **** // see the files COPYING3 and COPYING.RUNTIME respectively.  If not, see
  23:c:\programdata\chocolatey\lib\gcc-arm-embedded\tools\gcc-arm-none-eabi-10-2020-q4-major\arm-none-eabi\include\c++\10.2.1\array **** // <http://www.gnu.org/licenses/>.
  24:c:\programdata\chocolatey\lib\gcc-arm-embedded\tools\gcc-arm-none-eabi-10-2020-q4-major\arm-none-eabi\include\c++\10.2.1\array **** 
  25:c:\programdata\chocolatey\lib\gcc-arm-embedded\tools\gcc-arm-none-eabi-10-2020-q4-major\arm-none-eabi\include\c++\10.2.1\array **** /** @file include/array
  26:c:\programdata\chocolatey\lib\gcc-arm-embedded\tools\gcc-arm-none-eabi-10-2020-q4-major\arm-none-eabi\include\c++\10.2.1\array ****  *  This is a Standard C++ Library header.
  27:c:\programdata\chocolatey\lib\gcc-arm-embedded\tools\gcc-arm-none-eabi-10-2020-q4-major\arm-none-eabi\include\c++\10.2.1\array ****  */
  28:c:\programdata\chocolatey\lib\gcc-arm-embedded\tools\gcc-arm-none-eabi-10-2020-q4-major\arm-none-eabi\include\c++\10.2.1\array **** 
  29:c:\programdata\chocolatey\lib\gcc-arm-embedded\tools\gcc-arm-none-eabi-10-2020-q4-major\arm-none-eabi\include\c++\10.2.1\array **** #ifndef _GLIBCXX_ARRAY
  30:c:\programdata\chocolatey\lib\gcc-arm-embedded\tools\gcc-arm-none-eabi-10-2020-q4-major\arm-none-eabi\include\c++\10.2.1\array **** #define _GLIBCXX_ARRAY 1
  31:c:\programdata\chocolatey\lib\gcc-arm-embedded\tools\gcc-arm-none-eabi-10-2020-q4-major\arm-none-eabi\include\c++\10.2.1\array **** 
  32:c:\programdata\chocolatey\lib\gcc-arm-embedded\tools\gcc-arm-none-eabi-10-2020-q4-major\arm-none-eabi\include\c++\10.2.1\array **** #pragma GCC system_header
  33:c:\programdata\chocolatey\lib\gcc-arm-embedded\tools\gcc-arm-none-eabi-10-2020-q4-major\arm-none-eabi\include\c++\10.2.1\array **** 
  34:c:\programdata\chocolatey\lib\gcc-arm-embedded\tools\gcc-arm-none-eabi-10-2020-q4-major\arm-none-eabi\include\c++\10.2.1\array **** #if __cplusplus < 201103L
  35:c:\programdata\chocolatey\lib\gcc-arm-embedded\tools\gcc-arm-none-eabi-10-2020-q4-major\arm-none-eabi\include\c++\10.2.1\array **** # include <bits/c++0x_warning.h>
  36:c:\programdata\chocolatey\lib\gcc-arm-embedded\tools\gcc-arm-none-eabi-10-2020-q4-major\arm-none-eabi\include\c++\10.2.1\array **** #else
  37:c:\programdata\chocolatey\lib\gcc-arm-embedded\tools\gcc-arm-none-eabi-10-2020-q4-major\arm-none-eabi\include\c++\10.2.1\array **** 
  38:c:\programdata\chocolatey\lib\gcc-arm-embedded\tools\gcc-arm-none-eabi-10-2020-q4-major\arm-none-eabi\include\c++\10.2.1\array **** #include <utility>
  39:c:\programdata\chocolatey\lib\gcc-arm-embedded\tools\gcc-arm-none-eabi-10-2020-q4-major\arm-none-eabi\include\c++\10.2.1\array **** #include <bits/functexcept.h>
  40:c:\programdata\chocolatey\lib\gcc-arm-embedded\tools\gcc-arm-none-eabi-10-2020-q4-major\arm-none-eabi\include\c++\10.2.1\array **** #include <bits/stl_algobase.h>
  41:c:\programdata\chocolatey\lib\gcc-arm-embedded\tools\gcc-arm-none-eabi-10-2020-q4-major\arm-none-eabi\include\c++\10.2.1\array **** #include <bits/range_access.h>
  42:c:\programdata\chocolatey\lib\gcc-arm-embedded\tools\gcc-arm-none-eabi-10-2020-q4-major\arm-none-eabi\include\c++\10.2.1\array **** 
  43:c:\programdata\chocolatey\lib\gcc-arm-embedded\tools\gcc-arm-none-eabi-10-2020-q4-major\arm-none-eabi\include\c++\10.2.1\array **** namespace std _GLIBCXX_VISIBILITY(default)
ARM GAS  C:\Users\daniel\AppData\Local\Temp\ccyWpYN0.s 			page 12


  44:c:\programdata\chocolatey\lib\gcc-arm-embedded\tools\gcc-arm-none-eabi-10-2020-q4-major\arm-none-eabi\include\c++\10.2.1\array **** {
  45:c:\programdata\chocolatey\lib\gcc-arm-embedded\tools\gcc-arm-none-eabi-10-2020-q4-major\arm-none-eabi\include\c++\10.2.1\array **** _GLIBCXX_BEGIN_NAMESPACE_CONTAINER
  46:c:\programdata\chocolatey\lib\gcc-arm-embedded\tools\gcc-arm-none-eabi-10-2020-q4-major\arm-none-eabi\include\c++\10.2.1\array **** 
  47:c:\programdata\chocolatey\lib\gcc-arm-embedded\tools\gcc-arm-none-eabi-10-2020-q4-major\arm-none-eabi\include\c++\10.2.1\array ****   template<typename _Tp, std::size_t _Nm>
  48:c:\programdata\chocolatey\lib\gcc-arm-embedded\tools\gcc-arm-none-eabi-10-2020-q4-major\arm-none-eabi\include\c++\10.2.1\array ****     struct __array_traits
  49:c:\programdata\chocolatey\lib\gcc-arm-embedded\tools\gcc-arm-none-eabi-10-2020-q4-major\arm-none-eabi\include\c++\10.2.1\array ****     {
  50:c:\programdata\chocolatey\lib\gcc-arm-embedded\tools\gcc-arm-none-eabi-10-2020-q4-major\arm-none-eabi\include\c++\10.2.1\array ****       typedef _Tp _Type[_Nm];
  51:c:\programdata\chocolatey\lib\gcc-arm-embedded\tools\gcc-arm-none-eabi-10-2020-q4-major\arm-none-eabi\include\c++\10.2.1\array ****       typedef __is_swappable<_Tp> _Is_swappable;
  52:c:\programdata\chocolatey\lib\gcc-arm-embedded\tools\gcc-arm-none-eabi-10-2020-q4-major\arm-none-eabi\include\c++\10.2.1\array ****       typedef __is_nothrow_swappable<_Tp> _Is_nothrow_swappable;
  53:c:\programdata\chocolatey\lib\gcc-arm-embedded\tools\gcc-arm-none-eabi-10-2020-q4-major\arm-none-eabi\include\c++\10.2.1\array **** 
  54:c:\programdata\chocolatey\lib\gcc-arm-embedded\tools\gcc-arm-none-eabi-10-2020-q4-major\arm-none-eabi\include\c++\10.2.1\array ****       static constexpr _Tp&
  55:c:\programdata\chocolatey\lib\gcc-arm-embedded\tools\gcc-arm-none-eabi-10-2020-q4-major\arm-none-eabi\include\c++\10.2.1\array ****       _S_ref(const _Type& __t, std::size_t __n) noexcept
  56:c:\programdata\chocolatey\lib\gcc-arm-embedded\tools\gcc-arm-none-eabi-10-2020-q4-major\arm-none-eabi\include\c++\10.2.1\array ****       { return const_cast<_Tp&>(__t[__n]); }
  57:c:\programdata\chocolatey\lib\gcc-arm-embedded\tools\gcc-arm-none-eabi-10-2020-q4-major\arm-none-eabi\include\c++\10.2.1\array **** 
  58:c:\programdata\chocolatey\lib\gcc-arm-embedded\tools\gcc-arm-none-eabi-10-2020-q4-major\arm-none-eabi\include\c++\10.2.1\array ****       static constexpr _Tp*
  59:c:\programdata\chocolatey\lib\gcc-arm-embedded\tools\gcc-arm-none-eabi-10-2020-q4-major\arm-none-eabi\include\c++\10.2.1\array ****       _S_ptr(const _Type& __t) noexcept
  60:c:\programdata\chocolatey\lib\gcc-arm-embedded\tools\gcc-arm-none-eabi-10-2020-q4-major\arm-none-eabi\include\c++\10.2.1\array ****       { return const_cast<_Tp*>(__t); }
  61:c:\programdata\chocolatey\lib\gcc-arm-embedded\tools\gcc-arm-none-eabi-10-2020-q4-major\arm-none-eabi\include\c++\10.2.1\array ****     };
  62:c:\programdata\chocolatey\lib\gcc-arm-embedded\tools\gcc-arm-none-eabi-10-2020-q4-major\arm-none-eabi\include\c++\10.2.1\array **** 
  63:c:\programdata\chocolatey\lib\gcc-arm-embedded\tools\gcc-arm-none-eabi-10-2020-q4-major\arm-none-eabi\include\c++\10.2.1\array ****  template<typename _Tp>
  64:c:\programdata\chocolatey\lib\gcc-arm-embedded\tools\gcc-arm-none-eabi-10-2020-q4-major\arm-none-eabi\include\c++\10.2.1\array ****    struct __array_traits<_Tp, 0>
  65:c:\programdata\chocolatey\lib\gcc-arm-embedded\tools\gcc-arm-none-eabi-10-2020-q4-major\arm-none-eabi\include\c++\10.2.1\array ****    {
  66:c:\programdata\chocolatey\lib\gcc-arm-embedded\tools\gcc-arm-none-eabi-10-2020-q4-major\arm-none-eabi\include\c++\10.2.1\array ****      struct _Type { };
  67:c:\programdata\chocolatey\lib\gcc-arm-embedded\tools\gcc-arm-none-eabi-10-2020-q4-major\arm-none-eabi\include\c++\10.2.1\array ****      typedef true_type _Is_swappable;
  68:c:\programdata\chocolatey\lib\gcc-arm-embedded\tools\gcc-arm-none-eabi-10-2020-q4-major\arm-none-eabi\include\c++\10.2.1\array ****      typedef true_type _Is_nothrow_swappable;
  69:c:\programdata\chocolatey\lib\gcc-arm-embedded\tools\gcc-arm-none-eabi-10-2020-q4-major\arm-none-eabi\include\c++\10.2.1\array **** 
  70:c:\programdata\chocolatey\lib\gcc-arm-embedded\tools\gcc-arm-none-eabi-10-2020-q4-major\arm-none-eabi\include\c++\10.2.1\array ****      static constexpr _Tp&
  71:c:\programdata\chocolatey\lib\gcc-arm-embedded\tools\gcc-arm-none-eabi-10-2020-q4-major\arm-none-eabi\include\c++\10.2.1\array ****      _S_ref(const _Type&, std::size_t) noexcept
  72:c:\programdata\chocolatey\lib\gcc-arm-embedded\tools\gcc-arm-none-eabi-10-2020-q4-major\arm-none-eabi\include\c++\10.2.1\array ****      { return *static_cast<_Tp*>(nullptr); }
  73:c:\programdata\chocolatey\lib\gcc-arm-embedded\tools\gcc-arm-none-eabi-10-2020-q4-major\arm-none-eabi\include\c++\10.2.1\array **** 
  74:c:\programdata\chocolatey\lib\gcc-arm-embedded\tools\gcc-arm-none-eabi-10-2020-q4-major\arm-none-eabi\include\c++\10.2.1\array ****      static constexpr _Tp*
  75:c:\programdata\chocolatey\lib\gcc-arm-embedded\tools\gcc-arm-none-eabi-10-2020-q4-major\arm-none-eabi\include\c++\10.2.1\array ****      _S_ptr(const _Type&) noexcept
  76:c:\programdata\chocolatey\lib\gcc-arm-embedded\tools\gcc-arm-none-eabi-10-2020-q4-major\arm-none-eabi\include\c++\10.2.1\array ****      { return nullptr; }
  77:c:\programdata\chocolatey\lib\gcc-arm-embedded\tools\gcc-arm-none-eabi-10-2020-q4-major\arm-none-eabi\include\c++\10.2.1\array ****    };
  78:c:\programdata\chocolatey\lib\gcc-arm-embedded\tools\gcc-arm-none-eabi-10-2020-q4-major\arm-none-eabi\include\c++\10.2.1\array **** 
  79:c:\programdata\chocolatey\lib\gcc-arm-embedded\tools\gcc-arm-none-eabi-10-2020-q4-major\arm-none-eabi\include\c++\10.2.1\array ****   /**
  80:c:\programdata\chocolatey\lib\gcc-arm-embedded\tools\gcc-arm-none-eabi-10-2020-q4-major\arm-none-eabi\include\c++\10.2.1\array ****    *  @brief A standard container for storing a fixed size sequence of elements.
  81:c:\programdata\chocolatey\lib\gcc-arm-embedded\tools\gcc-arm-none-eabi-10-2020-q4-major\arm-none-eabi\include\c++\10.2.1\array ****    *
  82:c:\programdata\chocolatey\lib\gcc-arm-embedded\tools\gcc-arm-none-eabi-10-2020-q4-major\arm-none-eabi\include\c++\10.2.1\array ****    *  @ingroup sequences
  83:c:\programdata\chocolatey\lib\gcc-arm-embedded\tools\gcc-arm-none-eabi-10-2020-q4-major\arm-none-eabi\include\c++\10.2.1\array ****    *
  84:c:\programdata\chocolatey\lib\gcc-arm-embedded\tools\gcc-arm-none-eabi-10-2020-q4-major\arm-none-eabi\include\c++\10.2.1\array ****    *  Meets the requirements of a <a href="tables.html#65">container</a>, a
  85:c:\programdata\chocolatey\lib\gcc-arm-embedded\tools\gcc-arm-none-eabi-10-2020-q4-major\arm-none-eabi\include\c++\10.2.1\array ****    *  <a href="tables.html#66">reversible container</a>, and a
  86:c:\programdata\chocolatey\lib\gcc-arm-embedded\tools\gcc-arm-none-eabi-10-2020-q4-major\arm-none-eabi\include\c++\10.2.1\array ****    *  <a href="tables.html#67">sequence</a>.
  87:c:\programdata\chocolatey\lib\gcc-arm-embedded\tools\gcc-arm-none-eabi-10-2020-q4-major\arm-none-eabi\include\c++\10.2.1\array ****    *
  88:c:\programdata\chocolatey\lib\gcc-arm-embedded\tools\gcc-arm-none-eabi-10-2020-q4-major\arm-none-eabi\include\c++\10.2.1\array ****    *  Sets support random access iterators.
  89:c:\programdata\chocolatey\lib\gcc-arm-embedded\tools\gcc-arm-none-eabi-10-2020-q4-major\arm-none-eabi\include\c++\10.2.1\array ****    *
  90:c:\programdata\chocolatey\lib\gcc-arm-embedded\tools\gcc-arm-none-eabi-10-2020-q4-major\arm-none-eabi\include\c++\10.2.1\array ****    *  @tparam  Tp  Type of element. Required to be a complete type.
  91:c:\programdata\chocolatey\lib\gcc-arm-embedded\tools\gcc-arm-none-eabi-10-2020-q4-major\arm-none-eabi\include\c++\10.2.1\array ****    *  @tparam  Nm  Number of elements.
  92:c:\programdata\chocolatey\lib\gcc-arm-embedded\tools\gcc-arm-none-eabi-10-2020-q4-major\arm-none-eabi\include\c++\10.2.1\array ****   */
  93:c:\programdata\chocolatey\lib\gcc-arm-embedded\tools\gcc-arm-none-eabi-10-2020-q4-major\arm-none-eabi\include\c++\10.2.1\array ****   template<typename _Tp, std::size_t _Nm>
  94:c:\programdata\chocolatey\lib\gcc-arm-embedded\tools\gcc-arm-none-eabi-10-2020-q4-major\arm-none-eabi\include\c++\10.2.1\array ****     struct array
 121              		.loc 9 94 12 is_stmt 1 view -0
 122              		.cfi_startproc
 123              		@ args = 0, pretend = 0, frame = 0
 124              		@ frame_needed = 0, uses_anonymous_args = 0
 125              		@ link register save eliminated.
 126              		.loc 9 94 12 is_stmt 0 view .LVU19
ARM GAS  C:\Users\daniel\AppData\Local\Temp\ccyWpYN0.s 			page 13


 127 0000 7047     		bx	lr
 128              		.cfi_endproc
 129              	.LFE5427:
 131              		.weak	_ZNSt5arrayI12SampleBufferILj240000EELj8EED1Ev
 132              		.thumb_set _ZNSt5arrayI12SampleBufferILj240000EELj8EED1Ev,_ZNSt5arrayI12SampleBufferILj240000EELj8
 133              		.section	.text._Z10getSamplesv,"ax",%progbits
 134              		.align	1
 135              		.p2align 2,,3
 136              		.global	_Z10getSamplesv
 137              		.syntax unified
 138              		.thumb
 139              		.thumb_func
 140              		.fpu fpv5-d16
 142              	_Z10getSamplesv:
 143              	.LFB4842:
 144              		.file 10 "Proliferation.cpp"
   1:Proliferation.cpp **** #include "daisy_patch_sm.h"
   2:Proliferation.cpp **** #include "daisysp.h"
   3:Proliferation.cpp **** #include "samplebuffer.h"
   4:Proliferation.cpp **** #include <array>
   5:Proliferation.cpp **** 
   6:Proliferation.cpp **** using namespace daisy;
   7:Proliferation.cpp **** using namespace patch_sm;
   8:Proliferation.cpp **** using namespace daisysp;
   9:Proliferation.cpp **** 
  10:Proliferation.cpp **** DaisyPatchSM    hw;
  11:Proliferation.cpp **** Switch          toggle;
  12:Proliferation.cpp **** Switch          button;
  13:Proliferation.cpp **** 
  14:Proliferation.cpp **** //sample setup 
  15:Proliferation.cpp **** #define NUM_BUFFERS 8
  16:Proliferation.cpp **** // 5 second sample buffers at 48kHz
  17:Proliferation.cpp **** #define BUFFER_SIZE (48000 * 5)
  18:Proliferation.cpp **** std::array<SampleBuffer<BUFFER_SIZE>, NUM_BUFFERS> DSY_SDRAM_BSS buffers;
  19:Proliferation.cpp **** int s = 0;
  20:Proliferation.cpp **** 
  21:Proliferation.cpp **** void getSamples(){
 145              		.loc 10 21 18 is_stmt 1 view -0
 146              		.cfi_startproc
 147              		@ args = 0, pretend = 0, frame = 0
 148              		@ frame_needed = 0, uses_anonymous_args = 0
  22:Proliferation.cpp **** 	hw.ProcessAllControls();
 149              		.loc 10 22 2 view .LVU21
 150              	.LVL3:
 151              	.LBB449:
 152              	.LBI449:
  66:../../libDaisy//src/daisy_patch_sm.h **** 
  67:../../libDaisy//src/daisy_patch_sm.h ****         /** Initializes the memories, and core peripherals for the Daisy Patch SM */
  68:../../libDaisy//src/daisy_patch_sm.h ****         void Init();
  69:../../libDaisy//src/daisy_patch_sm.h **** 
  70:../../libDaisy//src/daisy_patch_sm.h ****         /** Starts a non-interleaving audio callback */
  71:../../libDaisy//src/daisy_patch_sm.h ****         void StartAudio(AudioHandle::AudioCallback cb);
  72:../../libDaisy//src/daisy_patch_sm.h **** 
  73:../../libDaisy//src/daisy_patch_sm.h ****         /** Starts an interleaving audio callback */
  74:../../libDaisy//src/daisy_patch_sm.h ****         void StartAudio(AudioHandle::InterleavingAudioCallback cb);
  75:../../libDaisy//src/daisy_patch_sm.h **** 
  76:../../libDaisy//src/daisy_patch_sm.h ****         /** Changes the callback that is executing.
ARM GAS  C:\Users\daniel\AppData\Local\Temp\ccyWpYN0.s 			page 14


  77:../../libDaisy//src/daisy_patch_sm.h ****          *  This may cause clicks if done while audio is processing.
  78:../../libDaisy//src/daisy_patch_sm.h ****          */
  79:../../libDaisy//src/daisy_patch_sm.h ****         void ChangeAudioCallback(AudioHandle::AudioCallback cb);
  80:../../libDaisy//src/daisy_patch_sm.h **** 
  81:../../libDaisy//src/daisy_patch_sm.h ****         /** Changes the callback that is executing.
  82:../../libDaisy//src/daisy_patch_sm.h ****          *  This may cause clicks if done while audio is processing.
  83:../../libDaisy//src/daisy_patch_sm.h ****          */
  84:../../libDaisy//src/daisy_patch_sm.h ****         void ChangeAudioCallback(AudioHandle::InterleavingAudioCallback cb);
  85:../../libDaisy//src/daisy_patch_sm.h **** 
  86:../../libDaisy//src/daisy_patch_sm.h ****         /** Stops the transmission of audio. */
  87:../../libDaisy//src/daisy_patch_sm.h ****         void StopAudio();
  88:../../libDaisy//src/daisy_patch_sm.h **** 
  89:../../libDaisy//src/daisy_patch_sm.h ****         /** Sets the number of samples processed in an audio callback. 
  90:../../libDaisy//src/daisy_patch_sm.h ****          *  This will only take effect on the next invocation of `StartAudio`
  91:../../libDaisy//src/daisy_patch_sm.h ****          */
  92:../../libDaisy//src/daisy_patch_sm.h ****         void SetAudioBlockSize(size_t size);
  93:../../libDaisy//src/daisy_patch_sm.h **** 
  94:../../libDaisy//src/daisy_patch_sm.h ****         /** Sets the samplerate for the audio engine 
  95:../../libDaisy//src/daisy_patch_sm.h ****          *  This will set it to the closest valid samplerate. Options being:
  96:../../libDaisy//src/daisy_patch_sm.h ****          *  8kHz, 16kHz, 32kHz, 48kHz, and 96kHz
  97:../../libDaisy//src/daisy_patch_sm.h ****          */
  98:../../libDaisy//src/daisy_patch_sm.h ****         void SetAudioSampleRate(float sr);
  99:../../libDaisy//src/daisy_patch_sm.h **** 
 100:../../libDaisy//src/daisy_patch_sm.h ****         void SetAudioSampleRate(SaiHandle::Config::SampleRate sample_rate);
 101:../../libDaisy//src/daisy_patch_sm.h **** 
 102:../../libDaisy//src/daisy_patch_sm.h ****         /** Returns the number of samples processed in an audio callback */
 103:../../libDaisy//src/daisy_patch_sm.h ****         size_t AudioBlockSize();
 104:../../libDaisy//src/daisy_patch_sm.h **** 
 105:../../libDaisy//src/daisy_patch_sm.h ****         /** Returns the audio engine's samplerate in Hz */
 106:../../libDaisy//src/daisy_patch_sm.h ****         float AudioSampleRate();
 107:../../libDaisy//src/daisy_patch_sm.h **** 
 108:../../libDaisy//src/daisy_patch_sm.h ****         /** Returns the rate at which the audio callback will be called in Hz */
 109:../../libDaisy//src/daisy_patch_sm.h ****         float AudioCallbackRate();
 110:../../libDaisy//src/daisy_patch_sm.h **** 
 111:../../libDaisy//src/daisy_patch_sm.h ****         /** Starts the Control ADCs 
 112:../../libDaisy//src/daisy_patch_sm.h ****          * 
 113:../../libDaisy//src/daisy_patch_sm.h ****          *  This is started automatically when Init() is called.
 114:../../libDaisy//src/daisy_patch_sm.h ****          */
 115:../../libDaisy//src/daisy_patch_sm.h ****         void StartAdc();
 116:../../libDaisy//src/daisy_patch_sm.h **** 
 117:../../libDaisy//src/daisy_patch_sm.h ****         /** Stops the Control ADCs */
 118:../../libDaisy//src/daisy_patch_sm.h ****         void StopAdc();
 119:../../libDaisy//src/daisy_patch_sm.h **** 
 120:../../libDaisy//src/daisy_patch_sm.h ****         /** Reads and filters all of the analog control inputs */
 121:../../libDaisy//src/daisy_patch_sm.h ****         void ProcessAnalogControls();
 122:../../libDaisy//src/daisy_patch_sm.h **** 
 123:../../libDaisy//src/daisy_patch_sm.h ****         /** Reads and debounces any of the digital control inputs 
 124:../../libDaisy//src/daisy_patch_sm.h ****          *  This does nothing on this board at this time.
 125:../../libDaisy//src/daisy_patch_sm.h ****          */
 126:../../libDaisy//src/daisy_patch_sm.h ****         void ProcessDigitalControls();
 127:../../libDaisy//src/daisy_patch_sm.h **** 
 128:../../libDaisy//src/daisy_patch_sm.h ****         /** Does both of the above */
 129:../../libDaisy//src/daisy_patch_sm.h ****         void ProcessAllControls()
 153              		.loc 2 129 14 view .LVU22
 154              	.LBB450:
 130:../../libDaisy//src/daisy_patch_sm.h ****         {
 131:../../libDaisy//src/daisy_patch_sm.h ****             ProcessAnalogControls();
ARM GAS  C:\Users\daniel\AppData\Local\Temp\ccyWpYN0.s 			page 15


 155              		.loc 2 131 13 view .LVU23
 156              	.LBE450:
 157              	.LBE449:
  21:Proliferation.cpp **** 	hw.ProcessAllControls();
 158              		.loc 10 21 18 is_stmt 0 view .LVU24
 159 0000 F8B5     		push	{r3, r4, r5, r6, r7, lr}
 160              		.cfi_def_cfa_offset 24
 161              		.cfi_offset 3, -24
 162              		.cfi_offset 4, -20
 163              		.cfi_offset 5, -16
 164              		.cfi_offset 6, -12
 165              		.cfi_offset 7, -8
 166              		.cfi_offset 14, -4
 167              	.LBB452:
 168              	.LBB451:
 169              		.loc 2 131 34 view .LVU25
 170 0002 AD48     		ldr	r0, .L90
 171 0004 FFF7FEFF 		bl	_ZN5daisy8patch_sm12DaisyPatchSM21ProcessAnalogControlsEv
 172              	.LVL4:
 132:../../libDaisy//src/daisy_patch_sm.h ****             ProcessDigitalControls();
 173              		.loc 2 132 13 is_stmt 1 view .LVU26
 174              		.loc 2 132 35 is_stmt 0 view .LVU27
 175 0008 AB48     		ldr	r0, .L90
 176 000a FFF7FEFF 		bl	_ZN5daisy8patch_sm12DaisyPatchSM22ProcessDigitalControlsEv
 177              	.LVL5:
 178              		.loc 2 132 35 view .LVU28
 179              	.LBE451:
 180              	.LBE452:
  23:Proliferation.cpp **** 	button.Debounce();
 181              		.loc 10 23 2 is_stmt 1 view .LVU29
 182              		.loc 10 23 17 is_stmt 0 view .LVU30
 183 000e AB48     		ldr	r0, .L90+4
 184 0010 FFF7FEFF 		bl	_ZN5daisy6Switch8DebounceEv
 185              	.LVL6:
  24:Proliferation.cpp ****     toggle.Debounce(); 
 186              		.loc 10 24 5 is_stmt 1 view .LVU31
 187              		.loc 10 24 20 is_stmt 0 view .LVU32
 188 0014 AA48     		ldr	r0, .L90+8
 189 0016 FFF7FEFF 		bl	_ZN5daisy6Switch8DebounceEv
 190              	.LVL7:
  25:Proliferation.cpp ****     
  26:Proliferation.cpp **** 	int randSamp = rand() % NUM_BUFFERS;
 191              		.loc 10 26 2 is_stmt 1 view .LVU33
 192 001a AA4E     		ldr	r6, .L90+12
 193              		.loc 10 26 21 is_stmt 0 view .LVU34
 194 001c FFF7FEFF 		bl	rand
 195              	.LVL8:
 196              		.loc 10 26 26 view .LVU35
 197 0020 4342     		rsbs	r3, r0, #0
 198 0022 00F00705 		and	r5, r0, #7
 199 0026 3446     		mov	r4, r6
 200 0028 03F00703 		and	r3, r3, #7
 201 002c A64F     		ldr	r7, .L90+16
 202 002e 58BF     		it	pl
 203 0030 5D42     		rsbpl	r5, r3, #0
 204              	.LVL9:
  27:Proliferation.cpp **** 
ARM GAS  C:\Users\daniel\AppData\Local\Temp\ccyWpYN0.s 			page 16


  28:Proliferation.cpp ****     for(size_t i = 0; i < buffers.size(); i++)
 205              		.loc 10 28 5 is_stmt 1 view .LVU36
 206              	.LBB453:
 207              		.loc 10 28 25 view .LVU37
 208              	.L8:
  29:Proliferation.cpp ****     {
  30:Proliferation.cpp ****         if(hw.gate_in_1.Trig()){
 209              		.loc 10 30 9 view .LVU38
 210              		.loc 10 30 29 is_stmt 0 view .LVU39
 211 0032 A648     		ldr	r0, .L90+20
 212 0034 FFF7FEFF 		bl	_ZN5daisy6GateIn4TrigEv
 213              	.LVL10:
  31:Proliferation.cpp ****             buffers[i].Play();
 214              		.loc 10 31 13 is_stmt 1 view .LVU40
 215              	.LBB454:
 216              	.LBI454:
 217              		.file 11 "samplebuffer.h"
   1:samplebuffer.h **** #pragma once
   2:samplebuffer.h **** #ifndef SAMPLEBUFFER_H
   3:samplebuffer.h **** #define SAMPLEBUFFER_H
   4:samplebuffer.h **** 
   5:samplebuffer.h **** #include <stddef.h>
   6:samplebuffer.h **** 
   7:samplebuffer.h **** /** Sample buffer with record and playback.
   8:samplebuffer.h **** 
   9:samplebuffer.h **** By: Alex Virgona
  10:samplebuffer.h **** */
  11:samplebuffer.h **** template <size_t kBufferSize>
  12:samplebuffer.h **** class SampleBuffer
  13:samplebuffer.h **** {
  14:samplebuffer.h ****   public:
  15:samplebuffer.h ****     SampleBuffer() {}
  16:samplebuffer.h ****     ~SampleBuffer() {}
  17:samplebuffer.h **** 
  18:samplebuffer.h ****     void Init()
  19:samplebuffer.h ****     {
  20:samplebuffer.h ****         Clear();
  21:samplebuffer.h ****         recording_ = false;
  22:samplebuffer.h ****         write_ptr_ = 0;
  23:samplebuffer.h ****         playing_   = false;
  24:samplebuffer.h ****         read_ptr_  = 0;
  25:samplebuffer.h ****     }
  26:samplebuffer.h **** 
  27:samplebuffer.h ****     void Clear()
  28:samplebuffer.h ****     {
  29:samplebuffer.h ****         for(size_t i = 0; i < kBufferSize; i++)
  30:samplebuffer.h ****         {
  31:samplebuffer.h ****             buffer_[i] = 0.f;
  32:samplebuffer.h ****         }
  33:samplebuffer.h ****     }
  34:samplebuffer.h **** 
  35:samplebuffer.h ****     void Record(bool start = true)
  36:samplebuffer.h ****     {
  37:samplebuffer.h ****         if(start)
  38:samplebuffer.h ****         {
  39:samplebuffer.h ****             Clear();
  40:samplebuffer.h ****         }
ARM GAS  C:\Users\daniel\AppData\Local\Temp\ccyWpYN0.s 			page 17


  41:samplebuffer.h ****         recording_ = start;
  42:samplebuffer.h ****         write_ptr_ = 0;
  43:samplebuffer.h ****     }
  44:samplebuffer.h **** 
  45:samplebuffer.h ****     void Play(bool start = true)
 218              		.loc 11 45 10 view .LVU41
 219              		.loc 11 45 10 is_stmt 0 view .LVU42
 220              	.LBE454:
  32:Proliferation.cpp ****         }
  33:Proliferation.cpp ****         if(hw.gate_in_2.Trig()) {
 221              		.loc 10 33 9 is_stmt 1 view .LVU43
  30:Proliferation.cpp ****             buffers[i].Play();
 222              		.loc 10 30 29 is_stmt 0 view .LVU44
 223 0038 0346     		mov	r3, r0
 224              	.LBB458:
 225              	.LBB455:
  46:samplebuffer.h ****     {
  47:samplebuffer.h ****         playing_  = start;
 226              		.loc 11 47 19 view .LVU45
 227 003a 0121     		movs	r1, #1
 228              	.LBE455:
 229              	.LBE458:
 230              		.loc 10 33 29 view .LVU46
 231 003c A448     		ldr	r0, .L90+24
 232              	.LBB459:
 233              	.LBB456:
  48:samplebuffer.h ****         read_ptr_ = 0;
 234              		.loc 11 48 19 view .LVU47
 235 003e 0022     		movs	r2, #0
 236              	.LBE456:
 237              	.LBE459:
  30:Proliferation.cpp ****             buffers[i].Play();
 238              		.loc 10 30 9 view .LVU48
 239 0040 0BB1     		cbz	r3, .L6
 240              	.LBB460:
 241              	.LBB457:
  47:samplebuffer.h ****         read_ptr_ = 0;
 242              		.loc 11 47 19 view .LVU49
 243 0042 2173     		strb	r1, [r4, #12]
 244              		.loc 11 48 19 view .LVU50
 245 0044 6260     		str	r2, [r4, #4]
 246              	.L6:
 247              	.LBE457:
 248              	.LBE460:
 249              		.loc 10 33 29 view .LVU51
 250 0046 FFF7FEFF 		bl	_ZN5daisy6GateIn4TrigEv
 251              	.LVL11:
  34:Proliferation.cpp ****             buffers[randSamp].Play();
 252              		.loc 10 34 13 is_stmt 1 view .LVU52
 253              	.LBB461:
 254              	.LBI461:
  95:c:\programdata\chocolatey\lib\gcc-arm-embedded\tools\gcc-arm-none-eabi-10-2020-q4-major\arm-none-eabi\include\c++\10.2.1\array ****     {
  96:c:\programdata\chocolatey\lib\gcc-arm-embedded\tools\gcc-arm-none-eabi-10-2020-q4-major\arm-none-eabi\include\c++\10.2.1\array ****       typedef _Tp 	    			      value_type;
  97:c:\programdata\chocolatey\lib\gcc-arm-embedded\tools\gcc-arm-none-eabi-10-2020-q4-major\arm-none-eabi\include\c++\10.2.1\array ****       typedef value_type*			      pointer;
  98:c:\programdata\chocolatey\lib\gcc-arm-embedded\tools\gcc-arm-none-eabi-10-2020-q4-major\arm-none-eabi\include\c++\10.2.1\array ****       typedef const value_type*                       const_pointer;
  99:c:\programdata\chocolatey\lib\gcc-arm-embedded\tools\gcc-arm-none-eabi-10-2020-q4-major\arm-none-eabi\include\c++\10.2.1\array ****       typedef value_type&                   	      reference;
 100:c:\programdata\chocolatey\lib\gcc-arm-embedded\tools\gcc-arm-none-eabi-10-2020-q4-major\arm-none-eabi\include\c++\10.2.1\array ****       typedef const value_type&             	      const_reference;
ARM GAS  C:\Users\daniel\AppData\Local\Temp\ccyWpYN0.s 			page 18


 101:c:\programdata\chocolatey\lib\gcc-arm-embedded\tools\gcc-arm-none-eabi-10-2020-q4-major\arm-none-eabi\include\c++\10.2.1\array ****       typedef value_type*          		      iterator;
 102:c:\programdata\chocolatey\lib\gcc-arm-embedded\tools\gcc-arm-none-eabi-10-2020-q4-major\arm-none-eabi\include\c++\10.2.1\array ****       typedef const value_type*			      const_iterator;
 103:c:\programdata\chocolatey\lib\gcc-arm-embedded\tools\gcc-arm-none-eabi-10-2020-q4-major\arm-none-eabi\include\c++\10.2.1\array ****       typedef std::size_t                    	      size_type;
 104:c:\programdata\chocolatey\lib\gcc-arm-embedded\tools\gcc-arm-none-eabi-10-2020-q4-major\arm-none-eabi\include\c++\10.2.1\array ****       typedef std::ptrdiff_t                   	      difference_type;
 105:c:\programdata\chocolatey\lib\gcc-arm-embedded\tools\gcc-arm-none-eabi-10-2020-q4-major\arm-none-eabi\include\c++\10.2.1\array ****       typedef std::reverse_iterator<iterator>	      reverse_iterator;
 106:c:\programdata\chocolatey\lib\gcc-arm-embedded\tools\gcc-arm-none-eabi-10-2020-q4-major\arm-none-eabi\include\c++\10.2.1\array ****       typedef std::reverse_iterator<const_iterator>   const_reverse_iterator;
 107:c:\programdata\chocolatey\lib\gcc-arm-embedded\tools\gcc-arm-none-eabi-10-2020-q4-major\arm-none-eabi\include\c++\10.2.1\array **** 
 108:c:\programdata\chocolatey\lib\gcc-arm-embedded\tools\gcc-arm-none-eabi-10-2020-q4-major\arm-none-eabi\include\c++\10.2.1\array ****       // Support for zero-sized arrays mandatory.
 109:c:\programdata\chocolatey\lib\gcc-arm-embedded\tools\gcc-arm-none-eabi-10-2020-q4-major\arm-none-eabi\include\c++\10.2.1\array ****       typedef _GLIBCXX_STD_C::__array_traits<_Tp, _Nm> _AT_Type;
 110:c:\programdata\chocolatey\lib\gcc-arm-embedded\tools\gcc-arm-none-eabi-10-2020-q4-major\arm-none-eabi\include\c++\10.2.1\array ****       typename _AT_Type::_Type                         _M_elems;
 111:c:\programdata\chocolatey\lib\gcc-arm-embedded\tools\gcc-arm-none-eabi-10-2020-q4-major\arm-none-eabi\include\c++\10.2.1\array **** 
 112:c:\programdata\chocolatey\lib\gcc-arm-embedded\tools\gcc-arm-none-eabi-10-2020-q4-major\arm-none-eabi\include\c++\10.2.1\array ****       // No explicit construct/copy/destroy for aggregate type.
 113:c:\programdata\chocolatey\lib\gcc-arm-embedded\tools\gcc-arm-none-eabi-10-2020-q4-major\arm-none-eabi\include\c++\10.2.1\array **** 
 114:c:\programdata\chocolatey\lib\gcc-arm-embedded\tools\gcc-arm-none-eabi-10-2020-q4-major\arm-none-eabi\include\c++\10.2.1\array ****       // DR 776.
 115:c:\programdata\chocolatey\lib\gcc-arm-embedded\tools\gcc-arm-none-eabi-10-2020-q4-major\arm-none-eabi\include\c++\10.2.1\array ****       _GLIBCXX20_CONSTEXPR void
 116:c:\programdata\chocolatey\lib\gcc-arm-embedded\tools\gcc-arm-none-eabi-10-2020-q4-major\arm-none-eabi\include\c++\10.2.1\array ****       fill(const value_type& __u)
 117:c:\programdata\chocolatey\lib\gcc-arm-embedded\tools\gcc-arm-none-eabi-10-2020-q4-major\arm-none-eabi\include\c++\10.2.1\array ****       { std::fill_n(begin(), size(), __u); }
 118:c:\programdata\chocolatey\lib\gcc-arm-embedded\tools\gcc-arm-none-eabi-10-2020-q4-major\arm-none-eabi\include\c++\10.2.1\array **** 
 119:c:\programdata\chocolatey\lib\gcc-arm-embedded\tools\gcc-arm-none-eabi-10-2020-q4-major\arm-none-eabi\include\c++\10.2.1\array ****       _GLIBCXX20_CONSTEXPR void
 120:c:\programdata\chocolatey\lib\gcc-arm-embedded\tools\gcc-arm-none-eabi-10-2020-q4-major\arm-none-eabi\include\c++\10.2.1\array ****       swap(array& __other)
 121:c:\programdata\chocolatey\lib\gcc-arm-embedded\tools\gcc-arm-none-eabi-10-2020-q4-major\arm-none-eabi\include\c++\10.2.1\array ****       noexcept(_AT_Type::_Is_nothrow_swappable::value)
 122:c:\programdata\chocolatey\lib\gcc-arm-embedded\tools\gcc-arm-none-eabi-10-2020-q4-major\arm-none-eabi\include\c++\10.2.1\array ****       { std::swap_ranges(begin(), end(), __other.begin()); }
 123:c:\programdata\chocolatey\lib\gcc-arm-embedded\tools\gcc-arm-none-eabi-10-2020-q4-major\arm-none-eabi\include\c++\10.2.1\array **** 
 124:c:\programdata\chocolatey\lib\gcc-arm-embedded\tools\gcc-arm-none-eabi-10-2020-q4-major\arm-none-eabi\include\c++\10.2.1\array ****       // Iterators.
 125:c:\programdata\chocolatey\lib\gcc-arm-embedded\tools\gcc-arm-none-eabi-10-2020-q4-major\arm-none-eabi\include\c++\10.2.1\array ****       _GLIBCXX17_CONSTEXPR iterator
 126:c:\programdata\chocolatey\lib\gcc-arm-embedded\tools\gcc-arm-none-eabi-10-2020-q4-major\arm-none-eabi\include\c++\10.2.1\array ****       begin() noexcept
 127:c:\programdata\chocolatey\lib\gcc-arm-embedded\tools\gcc-arm-none-eabi-10-2020-q4-major\arm-none-eabi\include\c++\10.2.1\array ****       { return iterator(data()); }
 128:c:\programdata\chocolatey\lib\gcc-arm-embedded\tools\gcc-arm-none-eabi-10-2020-q4-major\arm-none-eabi\include\c++\10.2.1\array **** 
 129:c:\programdata\chocolatey\lib\gcc-arm-embedded\tools\gcc-arm-none-eabi-10-2020-q4-major\arm-none-eabi\include\c++\10.2.1\array ****       _GLIBCXX17_CONSTEXPR const_iterator
 130:c:\programdata\chocolatey\lib\gcc-arm-embedded\tools\gcc-arm-none-eabi-10-2020-q4-major\arm-none-eabi\include\c++\10.2.1\array ****       begin() const noexcept
 131:c:\programdata\chocolatey\lib\gcc-arm-embedded\tools\gcc-arm-none-eabi-10-2020-q4-major\arm-none-eabi\include\c++\10.2.1\array ****       { return const_iterator(data()); }
 132:c:\programdata\chocolatey\lib\gcc-arm-embedded\tools\gcc-arm-none-eabi-10-2020-q4-major\arm-none-eabi\include\c++\10.2.1\array **** 
 133:c:\programdata\chocolatey\lib\gcc-arm-embedded\tools\gcc-arm-none-eabi-10-2020-q4-major\arm-none-eabi\include\c++\10.2.1\array ****       _GLIBCXX17_CONSTEXPR iterator
 134:c:\programdata\chocolatey\lib\gcc-arm-embedded\tools\gcc-arm-none-eabi-10-2020-q4-major\arm-none-eabi\include\c++\10.2.1\array ****       end() noexcept
 135:c:\programdata\chocolatey\lib\gcc-arm-embedded\tools\gcc-arm-none-eabi-10-2020-q4-major\arm-none-eabi\include\c++\10.2.1\array ****       { return iterator(data() + _Nm); }
 136:c:\programdata\chocolatey\lib\gcc-arm-embedded\tools\gcc-arm-none-eabi-10-2020-q4-major\arm-none-eabi\include\c++\10.2.1\array **** 
 137:c:\programdata\chocolatey\lib\gcc-arm-embedded\tools\gcc-arm-none-eabi-10-2020-q4-major\arm-none-eabi\include\c++\10.2.1\array ****       _GLIBCXX17_CONSTEXPR const_iterator
 138:c:\programdata\chocolatey\lib\gcc-arm-embedded\tools\gcc-arm-none-eabi-10-2020-q4-major\arm-none-eabi\include\c++\10.2.1\array ****       end() const noexcept
 139:c:\programdata\chocolatey\lib\gcc-arm-embedded\tools\gcc-arm-none-eabi-10-2020-q4-major\arm-none-eabi\include\c++\10.2.1\array ****       { return const_iterator(data() + _Nm); }
 140:c:\programdata\chocolatey\lib\gcc-arm-embedded\tools\gcc-arm-none-eabi-10-2020-q4-major\arm-none-eabi\include\c++\10.2.1\array **** 
 141:c:\programdata\chocolatey\lib\gcc-arm-embedded\tools\gcc-arm-none-eabi-10-2020-q4-major\arm-none-eabi\include\c++\10.2.1\array ****       _GLIBCXX17_CONSTEXPR reverse_iterator
 142:c:\programdata\chocolatey\lib\gcc-arm-embedded\tools\gcc-arm-none-eabi-10-2020-q4-major\arm-none-eabi\include\c++\10.2.1\array ****       rbegin() noexcept
 143:c:\programdata\chocolatey\lib\gcc-arm-embedded\tools\gcc-arm-none-eabi-10-2020-q4-major\arm-none-eabi\include\c++\10.2.1\array ****       { return reverse_iterator(end()); }
 144:c:\programdata\chocolatey\lib\gcc-arm-embedded\tools\gcc-arm-none-eabi-10-2020-q4-major\arm-none-eabi\include\c++\10.2.1\array **** 
 145:c:\programdata\chocolatey\lib\gcc-arm-embedded\tools\gcc-arm-none-eabi-10-2020-q4-major\arm-none-eabi\include\c++\10.2.1\array ****       _GLIBCXX17_CONSTEXPR const_reverse_iterator
 146:c:\programdata\chocolatey\lib\gcc-arm-embedded\tools\gcc-arm-none-eabi-10-2020-q4-major\arm-none-eabi\include\c++\10.2.1\array ****       rbegin() const noexcept
 147:c:\programdata\chocolatey\lib\gcc-arm-embedded\tools\gcc-arm-none-eabi-10-2020-q4-major\arm-none-eabi\include\c++\10.2.1\array ****       { return const_reverse_iterator(end()); }
 148:c:\programdata\chocolatey\lib\gcc-arm-embedded\tools\gcc-arm-none-eabi-10-2020-q4-major\arm-none-eabi\include\c++\10.2.1\array **** 
 149:c:\programdata\chocolatey\lib\gcc-arm-embedded\tools\gcc-arm-none-eabi-10-2020-q4-major\arm-none-eabi\include\c++\10.2.1\array ****       _GLIBCXX17_CONSTEXPR reverse_iterator
 150:c:\programdata\chocolatey\lib\gcc-arm-embedded\tools\gcc-arm-none-eabi-10-2020-q4-major\arm-none-eabi\include\c++\10.2.1\array ****       rend() noexcept
 151:c:\programdata\chocolatey\lib\gcc-arm-embedded\tools\gcc-arm-none-eabi-10-2020-q4-major\arm-none-eabi\include\c++\10.2.1\array ****       { return reverse_iterator(begin()); }
 152:c:\programdata\chocolatey\lib\gcc-arm-embedded\tools\gcc-arm-none-eabi-10-2020-q4-major\arm-none-eabi\include\c++\10.2.1\array **** 
 153:c:\programdata\chocolatey\lib\gcc-arm-embedded\tools\gcc-arm-none-eabi-10-2020-q4-major\arm-none-eabi\include\c++\10.2.1\array ****       _GLIBCXX17_CONSTEXPR const_reverse_iterator
 154:c:\programdata\chocolatey\lib\gcc-arm-embedded\tools\gcc-arm-none-eabi-10-2020-q4-major\arm-none-eabi\include\c++\10.2.1\array ****       rend() const noexcept
 155:c:\programdata\chocolatey\lib\gcc-arm-embedded\tools\gcc-arm-none-eabi-10-2020-q4-major\arm-none-eabi\include\c++\10.2.1\array ****       { return const_reverse_iterator(begin()); }
 156:c:\programdata\chocolatey\lib\gcc-arm-embedded\tools\gcc-arm-none-eabi-10-2020-q4-major\arm-none-eabi\include\c++\10.2.1\array **** 
 157:c:\programdata\chocolatey\lib\gcc-arm-embedded\tools\gcc-arm-none-eabi-10-2020-q4-major\arm-none-eabi\include\c++\10.2.1\array ****       _GLIBCXX17_CONSTEXPR const_iterator
ARM GAS  C:\Users\daniel\AppData\Local\Temp\ccyWpYN0.s 			page 19


 158:c:\programdata\chocolatey\lib\gcc-arm-embedded\tools\gcc-arm-none-eabi-10-2020-q4-major\arm-none-eabi\include\c++\10.2.1\array ****       cbegin() const noexcept
 159:c:\programdata\chocolatey\lib\gcc-arm-embedded\tools\gcc-arm-none-eabi-10-2020-q4-major\arm-none-eabi\include\c++\10.2.1\array ****       { return const_iterator(data()); }
 160:c:\programdata\chocolatey\lib\gcc-arm-embedded\tools\gcc-arm-none-eabi-10-2020-q4-major\arm-none-eabi\include\c++\10.2.1\array **** 
 161:c:\programdata\chocolatey\lib\gcc-arm-embedded\tools\gcc-arm-none-eabi-10-2020-q4-major\arm-none-eabi\include\c++\10.2.1\array ****       _GLIBCXX17_CONSTEXPR const_iterator
 162:c:\programdata\chocolatey\lib\gcc-arm-embedded\tools\gcc-arm-none-eabi-10-2020-q4-major\arm-none-eabi\include\c++\10.2.1\array ****       cend() const noexcept
 163:c:\programdata\chocolatey\lib\gcc-arm-embedded\tools\gcc-arm-none-eabi-10-2020-q4-major\arm-none-eabi\include\c++\10.2.1\array ****       { return const_iterator(data() + _Nm); }
 164:c:\programdata\chocolatey\lib\gcc-arm-embedded\tools\gcc-arm-none-eabi-10-2020-q4-major\arm-none-eabi\include\c++\10.2.1\array **** 
 165:c:\programdata\chocolatey\lib\gcc-arm-embedded\tools\gcc-arm-none-eabi-10-2020-q4-major\arm-none-eabi\include\c++\10.2.1\array ****       _GLIBCXX17_CONSTEXPR const_reverse_iterator
 166:c:\programdata\chocolatey\lib\gcc-arm-embedded\tools\gcc-arm-none-eabi-10-2020-q4-major\arm-none-eabi\include\c++\10.2.1\array ****       crbegin() const noexcept
 167:c:\programdata\chocolatey\lib\gcc-arm-embedded\tools\gcc-arm-none-eabi-10-2020-q4-major\arm-none-eabi\include\c++\10.2.1\array ****       { return const_reverse_iterator(end()); }
 168:c:\programdata\chocolatey\lib\gcc-arm-embedded\tools\gcc-arm-none-eabi-10-2020-q4-major\arm-none-eabi\include\c++\10.2.1\array **** 
 169:c:\programdata\chocolatey\lib\gcc-arm-embedded\tools\gcc-arm-none-eabi-10-2020-q4-major\arm-none-eabi\include\c++\10.2.1\array ****       _GLIBCXX17_CONSTEXPR const_reverse_iterator
 170:c:\programdata\chocolatey\lib\gcc-arm-embedded\tools\gcc-arm-none-eabi-10-2020-q4-major\arm-none-eabi\include\c++\10.2.1\array ****       crend() const noexcept
 171:c:\programdata\chocolatey\lib\gcc-arm-embedded\tools\gcc-arm-none-eabi-10-2020-q4-major\arm-none-eabi\include\c++\10.2.1\array ****       { return const_reverse_iterator(begin()); }
 172:c:\programdata\chocolatey\lib\gcc-arm-embedded\tools\gcc-arm-none-eabi-10-2020-q4-major\arm-none-eabi\include\c++\10.2.1\array **** 
 173:c:\programdata\chocolatey\lib\gcc-arm-embedded\tools\gcc-arm-none-eabi-10-2020-q4-major\arm-none-eabi\include\c++\10.2.1\array ****       // Capacity.
 174:c:\programdata\chocolatey\lib\gcc-arm-embedded\tools\gcc-arm-none-eabi-10-2020-q4-major\arm-none-eabi\include\c++\10.2.1\array ****       constexpr size_type
 175:c:\programdata\chocolatey\lib\gcc-arm-embedded\tools\gcc-arm-none-eabi-10-2020-q4-major\arm-none-eabi\include\c++\10.2.1\array ****       size() const noexcept { return _Nm; }
 176:c:\programdata\chocolatey\lib\gcc-arm-embedded\tools\gcc-arm-none-eabi-10-2020-q4-major\arm-none-eabi\include\c++\10.2.1\array **** 
 177:c:\programdata\chocolatey\lib\gcc-arm-embedded\tools\gcc-arm-none-eabi-10-2020-q4-major\arm-none-eabi\include\c++\10.2.1\array ****       constexpr size_type
 178:c:\programdata\chocolatey\lib\gcc-arm-embedded\tools\gcc-arm-none-eabi-10-2020-q4-major\arm-none-eabi\include\c++\10.2.1\array ****       max_size() const noexcept { return _Nm; }
 179:c:\programdata\chocolatey\lib\gcc-arm-embedded\tools\gcc-arm-none-eabi-10-2020-q4-major\arm-none-eabi\include\c++\10.2.1\array **** 
 180:c:\programdata\chocolatey\lib\gcc-arm-embedded\tools\gcc-arm-none-eabi-10-2020-q4-major\arm-none-eabi\include\c++\10.2.1\array ****       _GLIBCXX_NODISCARD constexpr bool
 181:c:\programdata\chocolatey\lib\gcc-arm-embedded\tools\gcc-arm-none-eabi-10-2020-q4-major\arm-none-eabi\include\c++\10.2.1\array ****       empty() const noexcept { return size() == 0; }
 182:c:\programdata\chocolatey\lib\gcc-arm-embedded\tools\gcc-arm-none-eabi-10-2020-q4-major\arm-none-eabi\include\c++\10.2.1\array **** 
 183:c:\programdata\chocolatey\lib\gcc-arm-embedded\tools\gcc-arm-none-eabi-10-2020-q4-major\arm-none-eabi\include\c++\10.2.1\array ****       // Element access.
 184:c:\programdata\chocolatey\lib\gcc-arm-embedded\tools\gcc-arm-none-eabi-10-2020-q4-major\arm-none-eabi\include\c++\10.2.1\array ****       _GLIBCXX17_CONSTEXPR reference
 185:c:\programdata\chocolatey\lib\gcc-arm-embedded\tools\gcc-arm-none-eabi-10-2020-q4-major\arm-none-eabi\include\c++\10.2.1\array ****       operator[](size_type __n) noexcept
 255              		.loc 9 185 7 view .LVU53
 256              	.LBB462:
 257              	.LBI462:
  55:c:\programdata\chocolatey\lib\gcc-arm-embedded\tools\gcc-arm-none-eabi-10-2020-q4-major\arm-none-eabi\include\c++\10.2.1\array ****       { return const_cast<_Tp&>(__t[__n]); }
 258              		.loc 9 55 7 view .LVU54
  55:c:\programdata\chocolatey\lib\gcc-arm-embedded\tools\gcc-arm-none-eabi-10-2020-q4-major\arm-none-eabi\include\c++\10.2.1\array ****       { return const_cast<_Tp&>(__t[__n]); }
 259              		.loc 9 55 7 is_stmt 0 view .LVU55
 260              	.LBE462:
 261              	.LBE461:
 262              	.LBB463:
 263              	.LBI463:
  45:samplebuffer.h ****     {
 264              		.loc 11 45 10 is_stmt 1 view .LVU56
  45:samplebuffer.h ****     {
 265              		.loc 11 45 10 is_stmt 0 view .LVU57
 266              	.LBE463:
  28:Proliferation.cpp ****     {
 267              		.loc 10 28 5 is_stmt 1 view .LVU58
  28:Proliferation.cpp ****     {
 268              		.loc 10 28 25 view .LVU59
 269 004a 04F56A24 		add	r4, r4, #958464
 270              	.LBB467:
 271              	.LBB464:
  47:samplebuffer.h ****         read_ptr_ = 0;
 272              		.loc 11 47 19 is_stmt 0 view .LVU60
 273 004e A14B     		ldr	r3, .L90+28
 274 0050 0121     		movs	r1, #1
 275              	.LBE464:
 276              	.LBE467:
ARM GAS  C:\Users\daniel\AppData\Local\Temp\ccyWpYN0.s 			page 20


  28:Proliferation.cpp ****     {
 277              		.loc 10 28 25 view .LVU61
 278 0052 04F5C264 		add	r4, r4, #1552
 279              	.LBB468:
 280              	.LBB465:
 281              		.loc 11 48 19 view .LVU62
 282 0056 0022     		movs	r2, #0
  47:samplebuffer.h ****         read_ptr_ = 0;
 283              		.loc 11 47 19 view .LVU63
 284 0058 03FB0563 		mla	r3, r3, r5, r6
 285              	.LBE465:
 286              	.LBE468:
  33:Proliferation.cpp ****             buffers[randSamp].Play();
 287              		.loc 10 33 9 view .LVU64
 288 005c 08B1     		cbz	r0, .L7
 289              	.LBB469:
 290              	.LBB466:
  47:samplebuffer.h ****         read_ptr_ = 0;
 291              		.loc 11 47 19 view .LVU65
 292 005e 1973     		strb	r1, [r3, #12]
 293              		.loc 11 48 19 view .LVU66
 294 0060 5A60     		str	r2, [r3, #4]
 295              	.L7:
 296              	.LBE466:
 297              	.LBE469:
  28:Proliferation.cpp ****     {
 298              		.loc 10 28 25 discriminator 2 view .LVU67
 299 0062 A742     		cmp	r7, r4
 300 0064 E5D1     		bne	.L8
 301              	.LBE453:
  35:Proliferation.cpp ****         }
  36:Proliferation.cpp ****     }
  37:Proliferation.cpp ****     
  38:Proliferation.cpp ****     switch(s) {
 302              		.loc 10 38 5 is_stmt 1 view .LVU68
 303 0066 9C4A     		ldr	r2, .L90+32
 304 0068 1368     		ldr	r3, [r2]
 305 006a 072B     		cmp	r3, #7
 306 006c 16D8     		bhi	.L5
 307 006e DFE803F0 		tbb	[pc, r3]
 308              	.L11:
 309 0072 04       		.byte	(.L18-.L11)/2
 310 0073 2D       		.byte	(.L17-.L11)/2
 311 0074 44       		.byte	(.L16-.L11)/2
 312 0075 5B       		.byte	(.L15-.L11)/2
 313 0076 72       		.byte	(.L14-.L11)/2
 314 0077 89       		.byte	(.L13-.L11)/2
 315 0078 A1       		.byte	(.L12-.L11)/2
 316 0079 16       		.byte	(.L10-.L11)/2
 317              		.p2align 1
 318              	.L18:
  39:Proliferation.cpp ****         case 0:
 319              		.loc 10 39 9 view .LVU69
  40:Proliferation.cpp ****             if(button.RisingEdge() && !buffers[0].IsRecording()) {
 320              		.loc 10 40 13 view .LVU70
 321              	.LVL12:
 322              	.LBB470:
ARM GAS  C:\Users\daniel\AppData\Local\Temp\ccyWpYN0.s 			page 21


 323              	.LBI470:
  43:../../libDaisy//src/hid/switch.h **** 
  44:../../libDaisy//src/hid/switch.h ****     /** 
  45:../../libDaisy//src/hid/switch.h ****     Initializes the switch object with a given port/pin combo.
  46:../../libDaisy//src/hid/switch.h ****     \param pin port/pin object to tell the switch which hardware pin to use.
  47:../../libDaisy//src/hid/switch.h ****     \param update_rate Does nothing. Backwards compatibility until next breaking update.
  48:../../libDaisy//src/hid/switch.h ****     \param t switch type -- Default: TYPE_MOMENTARY
  49:../../libDaisy//src/hid/switch.h ****     \param pol switch polarity -- Default: POLARITY_INVERTED
  50:../../libDaisy//src/hid/switch.h ****     \param pu switch pull up/down -- Default: PULL_UP
  51:../../libDaisy//src/hid/switch.h ****     */
  52:../../libDaisy//src/hid/switch.h ****     void
  53:../../libDaisy//src/hid/switch.h ****     Init(dsy_gpio_pin pin, float update_rate, Type t, Polarity pol, Pull pu);
  54:../../libDaisy//src/hid/switch.h **** 
  55:../../libDaisy//src/hid/switch.h ****     /**
  56:../../libDaisy//src/hid/switch.h ****        Simplified Init.
  57:../../libDaisy//src/hid/switch.h ****        \param pin port/pin object to tell the switch which hardware pin to use.
  58:../../libDaisy//src/hid/switch.h ****        \param update_rate Left for backwards compatibility until next breaking change.
  59:../../libDaisy//src/hid/switch.h ****     */
  60:../../libDaisy//src/hid/switch.h ****     void Init(dsy_gpio_pin pin, float update_rate = 0.f);
  61:../../libDaisy//src/hid/switch.h **** 
  62:../../libDaisy//src/hid/switch.h ****     /** 
  63:../../libDaisy//src/hid/switch.h ****     Called at update_rate to debounce and handle timing for the switch.
  64:../../libDaisy//src/hid/switch.h ****     In order for events not to be missed, its important that the Edge/Pressed checks
  65:../../libDaisy//src/hid/switch.h ****     be made at the same rate as the debounce function is being called.
  66:../../libDaisy//src/hid/switch.h ****     */
  67:../../libDaisy//src/hid/switch.h ****     void Debounce();
  68:../../libDaisy//src/hid/switch.h **** 
  69:../../libDaisy//src/hid/switch.h ****     /** \return true if a button was just pressed. */
  70:../../libDaisy//src/hid/switch.h ****     inline bool RisingEdge() const { return updated_ ? state_ == 0x7f : false; }
 324              		.loc 1 70 17 view .LVU71
 325              	.LBB471:
 326              		.loc 1 70 38 view .LVU72
 327              		.loc 1 70 45 is_stmt 0 view .LVU73
 328 007a 904B     		ldr	r3, .L90+4
 329              		.loc 1 70 54 view .LVU74
 330 007c 1979     		ldrb	r1, [r3, #4]	@ zero_extendqisi2
 331 007e 69B1     		cbz	r1, .L5
 332              		.loc 1 70 56 view .LVU75
 333 0080 9B7A     		ldrb	r3, [r3, #10]	@ zero_extendqisi2
 334              	.LVL13:
 335              		.loc 1 70 56 view .LVU76
 336              	.LBE471:
 337              	.LBE470:
 338              		.loc 10 40 36 view .LVU77
 339 0082 7F2B     		cmp	r3, #127
 340 0084 40F0B080 		bne	.L19
 341              	.LVL14:
 342              	.LBB472:
 343              	.LBI472:
  49:samplebuffer.h ****     }
  50:samplebuffer.h **** 
  51:samplebuffer.h ****     // testing reverse play 
  52:samplebuffer.h ****     void PlayBackward(bool start = true)
  53:samplebuffer.h ****     {
  54:samplebuffer.h ****         playing_  = start;
  55:samplebuffer.h ****         read_ptr_back_ = kBufferSize;
  56:samplebuffer.h ****     }
ARM GAS  C:\Users\daniel\AppData\Local\Temp\ccyWpYN0.s 			page 22


  57:samplebuffer.h **** 
  58:samplebuffer.h **** 
  59:samplebuffer.h ****     float Process(const float sample)
  60:samplebuffer.h ****     {
  61:samplebuffer.h ****         Write(sample);
  62:samplebuffer.h ****         return Read();
  63:samplebuffer.h ****     }
  64:samplebuffer.h **** 
  65:samplebuffer.h ****     // testing reverse play
  66:samplebuffer.h ****     float ProcessBack(const float sample)
  67:samplebuffer.h ****     {
  68:samplebuffer.h ****         Write(sample);
  69:samplebuffer.h ****         return ReadBack();
  70:samplebuffer.h ****     }
  71:samplebuffer.h **** 
  72:samplebuffer.h ****     void Write(const float sample)
  73:samplebuffer.h ****     {
  74:samplebuffer.h ****         if(recording_)
  75:samplebuffer.h ****         {
  76:samplebuffer.h ****             buffer_[write_ptr_] = sample;
  77:samplebuffer.h ****             write_ptr_++;
  78:samplebuffer.h ****             if(write_ptr_ >= kBufferSize)
  79:samplebuffer.h ****             {
  80:samplebuffer.h ****                 recording_ = false;
  81:samplebuffer.h ****                 write_ptr_ = 0;
  82:samplebuffer.h ****             }
  83:samplebuffer.h ****         }
  84:samplebuffer.h ****     }
  85:samplebuffer.h **** 
  86:samplebuffer.h ****     float Read()
  87:samplebuffer.h ****     {
  88:samplebuffer.h ****         if(playing_)
  89:samplebuffer.h ****         {
  90:samplebuffer.h ****             float out = buffer_[read_ptr_];
  91:samplebuffer.h ****             read_ptr_++;
  92:samplebuffer.h ****             if(read_ptr_ >= kBufferSize)
  93:samplebuffer.h ****             {
  94:samplebuffer.h ****                 playing_  = false;
  95:samplebuffer.h ****                 read_ptr_ = 0;
  96:samplebuffer.h ****             }
  97:samplebuffer.h ****             return out;
  98:samplebuffer.h ****         }
  99:samplebuffer.h ****         else
 100:samplebuffer.h ****         {
 101:samplebuffer.h ****             return 0.f;
 102:samplebuffer.h ****         }
 103:samplebuffer.h ****     }
 104:samplebuffer.h **** 
 105:samplebuffer.h ****     // testing reverse play 
 106:samplebuffer.h ****     float ReadBack()
 107:samplebuffer.h ****     {
 108:samplebuffer.h ****         if(playing_)
 109:samplebuffer.h ****         {
 110:samplebuffer.h ****             float outback = buffer_[read_ptr_back_];
 111:samplebuffer.h ****             read_ptr_back_--;
 112:samplebuffer.h ****             if(read_ptr_back_ <= 0)
 113:samplebuffer.h ****             {
ARM GAS  C:\Users\daniel\AppData\Local\Temp\ccyWpYN0.s 			page 23


 114:samplebuffer.h ****                 playing_  = false;
 115:samplebuffer.h ****                 read_ptr_back_ = kBufferSize;
 116:samplebuffer.h ****             }
 117:samplebuffer.h ****             return outback;
 118:samplebuffer.h ****         }
 119:samplebuffer.h ****         else
 120:samplebuffer.h ****         {
 121:samplebuffer.h ****             return 0.f;
 122:samplebuffer.h ****         }
 123:samplebuffer.h ****     }
 124:samplebuffer.h **** 
 125:samplebuffer.h ****     bool IsPlaying() const { return playing_; }
 126:samplebuffer.h ****     bool IsRecording() const { return recording_; }
 344              		.loc 11 126 10 is_stmt 1 view .LVU78
 345              		.loc 11 126 10 is_stmt 0 view .LVU79
 346              	.LBE472:
 347              		.loc 10 40 36 view .LVU80
 348 0088 747B     		ldrb	r4, [r6, #13]	@ zero_extendqisi2
 349 008a 3CB9     		cbnz	r4, .L5
 350              	.LBB473:
 351              	.LBB474:
 352              	.LBB475:
 353              	.LBB476:
  31:samplebuffer.h ****         }
 354              		.loc 11 31 24 view .LVU81
 355 008c 934A     		ldr	r2, .L90+36
 356 008e 2146     		mov	r1, r4
 357 0090 9348     		ldr	r0, .L90+40
 358 0092 FFF7FEFF 		bl	memset
 359              	.LVL15:
 360              	.LBE476:
 361              	.LBE475:
  41:samplebuffer.h ****         write_ptr_ = 0;
 362              		.loc 11 41 20 view .LVU82
 363 0096 0123     		movs	r3, #1
  42:samplebuffer.h ****     }
 364              		.loc 11 42 20 view .LVU83
 365 0098 3460     		str	r4, [r6]
  41:samplebuffer.h ****         write_ptr_ = 0;
 366              		.loc 11 41 20 view .LVU84
 367 009a 7373     		strb	r3, [r6, #13]
 368              	.LVL16:
 369              	.L5:
  41:samplebuffer.h ****         write_ptr_ = 0;
 370              		.loc 11 41 20 view .LVU85
 371              	.LBE474:
 372              	.LBE473:
  41:Proliferation.cpp ****                 buffers[0].Record();
  42:Proliferation.cpp ****             } else if(button.FallingEdge() && buffers[0].IsRecording()) {
  43:Proliferation.cpp ****                 buffers[0].Record(false);
  44:Proliferation.cpp ****                 s++;
  45:Proliferation.cpp ****             }
  46:Proliferation.cpp ****             break;;
  47:Proliferation.cpp ****         case 1:
  48:Proliferation.cpp ****             if(button.RisingEdge() && !buffers[1].IsRecording()) {
  49:Proliferation.cpp ****                 buffers[1].Record();
  50:Proliferation.cpp ****             } else if(button.FallingEdge() && buffers[1].IsRecording()) {
ARM GAS  C:\Users\daniel\AppData\Local\Temp\ccyWpYN0.s 			page 24


  51:Proliferation.cpp ****                 buffers[1].Record(false);
  52:Proliferation.cpp ****                 s++;
  53:Proliferation.cpp ****             }
  54:Proliferation.cpp ****             break;;
  55:Proliferation.cpp ****         case 2:
  56:Proliferation.cpp ****             if(button.RisingEdge() && !buffers[2].IsRecording()) {
  57:Proliferation.cpp ****                 buffers[2].Record();
  58:Proliferation.cpp ****             } else if(button.FallingEdge() && buffers[2].IsRecording()) {
  59:Proliferation.cpp ****                 buffers[2].Record(false);
  60:Proliferation.cpp ****                 s++;
  61:Proliferation.cpp ****             }
  62:Proliferation.cpp ****             break;;
  63:Proliferation.cpp ****         case 3:
  64:Proliferation.cpp ****             if(button.RisingEdge() && !buffers[3].IsRecording()) {
  65:Proliferation.cpp ****                 buffers[3].Record();
  66:Proliferation.cpp ****             } else if(button.FallingEdge() && buffers[3].IsRecording()) {
  67:Proliferation.cpp ****                 buffers[3].Record(false);
  68:Proliferation.cpp ****                 s++;
  69:Proliferation.cpp ****             }
  70:Proliferation.cpp ****             break;;
  71:Proliferation.cpp ****         case 4:
  72:Proliferation.cpp ****             if(button.RisingEdge() && !buffers[4].IsRecording()) {
  73:Proliferation.cpp ****                 buffers[4].Record();
  74:Proliferation.cpp ****             } else if(button.FallingEdge() && buffers[4].IsRecording()) {
  75:Proliferation.cpp ****                 buffers[4].Record(false);
  76:Proliferation.cpp ****                 s++;
  77:Proliferation.cpp ****             }
  78:Proliferation.cpp ****             break;;
  79:Proliferation.cpp ****         case 5:
  80:Proliferation.cpp ****             if(button.RisingEdge() && !buffers[5].IsRecording()) {
  81:Proliferation.cpp ****                 buffers[5].Record();
  82:Proliferation.cpp ****             } else if(button.FallingEdge() && buffers[5].IsRecording()) {
  83:Proliferation.cpp ****                 buffers[5].Record(false);
  84:Proliferation.cpp ****                 s++;
  85:Proliferation.cpp ****             }
  86:Proliferation.cpp ****             break;;
  87:Proliferation.cpp ****         case 6:
  88:Proliferation.cpp ****             if(button.RisingEdge() && !buffers[6].IsRecording()) {
  89:Proliferation.cpp ****                 buffers[6].Record();
  90:Proliferation.cpp ****             } else if(button.FallingEdge() && buffers[6].IsRecording()) {
  91:Proliferation.cpp ****                 buffers[6].Record(false);
  92:Proliferation.cpp ****                 s++;
  93:Proliferation.cpp ****             }
  94:Proliferation.cpp ****             break;;
  95:Proliferation.cpp ****         case 7:
  96:Proliferation.cpp ****             if(button.RisingEdge() && !buffers[7].IsRecording()) {
  97:Proliferation.cpp ****                 buffers[7].Record();
  98:Proliferation.cpp ****             } else if(button.FallingEdge() && buffers[7].IsRecording()) {
  99:Proliferation.cpp ****                 buffers[7].Record(false);
 100:Proliferation.cpp ****                 s++;
 101:Proliferation.cpp ****             }
 102:Proliferation.cpp ****             break;;
 103:Proliferation.cpp ****     }
 104:Proliferation.cpp **** 
 105:Proliferation.cpp **** }
 373              		.loc 10 105 1 view .LVU86
 374 009c F8BD     		pop	{r3, r4, r5, r6, r7, pc}
ARM GAS  C:\Users\daniel\AppData\Local\Temp\ccyWpYN0.s 			page 25


 375              	.LVL17:
 376              	.L10:
  94:Proliferation.cpp ****         case 7:
 377              		.loc 10 94 19 is_stmt 1 view .LVU87
  95:Proliferation.cpp ****             if(button.RisingEdge() && !buffers[7].IsRecording()) {
 378              		.loc 10 95 9 view .LVU88
  96:Proliferation.cpp ****                 buffers[7].Record();
 379              		.loc 10 96 13 view .LVU89
 380              	.LBB477:
 381              	.LBI477:
 382              		.loc 1 70 17 view .LVU90
 383              	.LBB478:
 384              		.loc 1 70 38 view .LVU91
 385              		.loc 1 70 45 is_stmt 0 view .LVU92
 386 009e 874B     		ldr	r3, .L90+4
 387              		.loc 1 70 54 view .LVU93
 388 00a0 1979     		ldrb	r1, [r3, #4]	@ zero_extendqisi2
 389 00a2 0029     		cmp	r1, #0
 390 00a4 FAD0     		beq	.L5
 391              		.loc 1 70 56 view .LVU94
 392 00a6 9B7A     		ldrb	r3, [r3, #10]	@ zero_extendqisi2
 393              	.LVL18:
 394              		.loc 1 70 56 view .LVU95
 395              	.LBE478:
 396              	.LBE477:
  96:Proliferation.cpp ****                 buffers[7].Record();
 397              		.loc 10 96 36 view .LVU96
 398 00a8 7F2B     		cmp	r3, #127
 399 00aa 00F0AA80 		beq	.L83
  98:Proliferation.cpp ****                 buffers[7].Record(false);
 400              		.loc 10 98 20 is_stmt 1 view .LVU97
 401              	.LVL19:
  71:../../libDaisy//src/hid/switch.h **** 
  72:../../libDaisy//src/hid/switch.h ****     /** \return true if the button was just released */
  73:../../libDaisy//src/hid/switch.h ****     inline bool FallingEdge() const
  74:../../libDaisy//src/hid/switch.h ****     {
  75:../../libDaisy//src/hid/switch.h ****         return updated_ ? state_ == 0x80 : false;
 402              		.loc 1 75 9 view .LVU98
  98:Proliferation.cpp ****                 buffers[7].Record(false);
 403              		.loc 10 98 44 is_stmt 0 view .LVU99
 404 00ae 802B     		cmp	r3, #128
 405 00b0 F4D1     		bne	.L5
 406              	.LVL20:
 407              	.LBB479:
 408              	.LBI479:
 409              		.loc 11 126 10 is_stmt 1 view .LVU100
 410              	.LBB480:
 411              		.loc 11 126 39 is_stmt 0 view .LVU101
 412 00b2 8C4B     		ldr	r3, .L90+44
 413              	.LBE480:
 414              	.LBE479:
  98:Proliferation.cpp ****                 buffers[7].Record(false);
 415              		.loc 10 98 44 view .LVU102
 416 00b4 93F87D1A 		ldrb	r1, [r3, #2685]	@ zero_extendqisi2
 417 00b8 0029     		cmp	r1, #0
 418 00ba EFD0     		beq	.L5
  99:Proliferation.cpp ****                 s++;
ARM GAS  C:\Users\daniel\AppData\Local\Temp\ccyWpYN0.s 			page 26


 419              		.loc 10 99 17 is_stmt 1 view .LVU103
 420              	.LVL21:
 421              	.LBB481:
 422              	.LBI481:
  35:samplebuffer.h ****     {
 423              		.loc 11 35 10 view .LVU104
 424              	.LBB482:
  41:samplebuffer.h ****         write_ptr_ = 0;
 425              		.loc 11 41 20 is_stmt 0 view .LVU105
 426 00bc 0021     		movs	r1, #0
 427              	.LBE482:
 428              	.LBE481:
 100:Proliferation.cpp ****             }
 429              		.loc 10 100 18 view .LVU106
 430 00be 0820     		movs	r0, #8
 431              	.LBB484:
 432              	.LBB483:
  41:samplebuffer.h ****         write_ptr_ = 0;
 433              		.loc 11 41 20 view .LVU107
 434 00c0 83F87D1A 		strb	r1, [r3, #2685]
  42:samplebuffer.h ****     }
 435              		.loc 11 42 20 view .LVU108
 436 00c4 C3F8701A 		str	r1, [r3, #2672]
 437              	.LVL22:
  42:samplebuffer.h ****     }
 438              		.loc 11 42 20 view .LVU109
 439              	.LBE483:
 440              	.LBE484:
 100:Proliferation.cpp ****             }
 441              		.loc 10 100 17 is_stmt 1 view .LVU110
 100:Proliferation.cpp ****             }
 442              		.loc 10 100 18 is_stmt 0 view .LVU111
 443 00c8 1060     		str	r0, [r2]
 102:Proliferation.cpp ****     }
 444              		.loc 10 102 19 is_stmt 1 view .LVU112
 445              		.loc 10 105 1 is_stmt 0 view .LVU113
 446 00ca F8BD     		pop	{r3, r4, r5, r6, r7, pc}
 447              	.LVL23:
 448              	.L17:
  46:Proliferation.cpp ****         case 1:
 449              		.loc 10 46 19 is_stmt 1 view .LVU114
  47:Proliferation.cpp ****             if(button.RisingEdge() && !buffers[1].IsRecording()) {
 450              		.loc 10 47 9 view .LVU115
  48:Proliferation.cpp ****                 buffers[1].Record();
 451              		.loc 10 48 13 view .LVU116
 452              	.LBB485:
 453              	.LBI485:
  70:../../libDaisy//src/hid/switch.h **** 
 454              		.loc 1 70 17 view .LVU117
 455              	.LBB486:
  70:../../libDaisy//src/hid/switch.h **** 
 456              		.loc 1 70 38 view .LVU118
  70:../../libDaisy//src/hid/switch.h **** 
 457              		.loc 1 70 45 is_stmt 0 view .LVU119
 458 00cc 7B4B     		ldr	r3, .L90+4
  70:../../libDaisy//src/hid/switch.h **** 
 459              		.loc 1 70 54 view .LVU120
ARM GAS  C:\Users\daniel\AppData\Local\Temp\ccyWpYN0.s 			page 27


 460 00ce 1979     		ldrb	r1, [r3, #4]	@ zero_extendqisi2
 461 00d0 0029     		cmp	r1, #0
 462 00d2 E3D0     		beq	.L5
  70:../../libDaisy//src/hid/switch.h **** 
 463              		.loc 1 70 56 view .LVU121
 464 00d4 9B7A     		ldrb	r3, [r3, #10]	@ zero_extendqisi2
 465              	.LVL24:
  70:../../libDaisy//src/hid/switch.h **** 
 466              		.loc 1 70 56 view .LVU122
 467              	.LBE486:
 468              	.LBE485:
  48:Proliferation.cpp ****                 buffers[1].Record();
 469              		.loc 10 48 36 view .LVU123
 470 00d6 7F2B     		cmp	r3, #127
 471 00d8 00F0B780 		beq	.L84
  50:Proliferation.cpp ****                 buffers[1].Record(false);
 472              		.loc 10 50 20 is_stmt 1 view .LVU124
 473              	.LVL25:
 474              		.loc 1 75 9 view .LVU125
  50:Proliferation.cpp ****                 buffers[1].Record(false);
 475              		.loc 10 50 44 is_stmt 0 view .LVU126
 476 00dc 802B     		cmp	r3, #128
 477 00de DDD1     		bne	.L5
 478              	.LVL26:
 479              	.LBB487:
 480              	.LBI487:
 481              		.loc 11 126 10 is_stmt 1 view .LVU127
 482              	.LBB488:
 483              		.loc 11 126 39 is_stmt 0 view .LVU128
 484 00e0 814B     		ldr	r3, .L90+48
 485              	.LBE488:
 486              	.LBE487:
  50:Proliferation.cpp ****                 buffers[1].Record(false);
 487              		.loc 10 50 44 view .LVU129
 488 00e2 93F81D16 		ldrb	r1, [r3, #1565]	@ zero_extendqisi2
 489 00e6 0029     		cmp	r1, #0
 490 00e8 D8D0     		beq	.L5
  51:Proliferation.cpp ****                 s++;
 491              		.loc 10 51 17 is_stmt 1 view .LVU130
 492              	.LVL27:
 493              	.LBB489:
 494              	.LBI489:
  35:samplebuffer.h ****     {
 495              		.loc 11 35 10 view .LVU131
 496              	.LBB490:
  41:samplebuffer.h ****         write_ptr_ = 0;
 497              		.loc 11 41 20 is_stmt 0 view .LVU132
 498 00ea 0021     		movs	r1, #0
 499              	.LBE490:
 500              	.LBE489:
  52:Proliferation.cpp ****             }
 501              		.loc 10 52 18 view .LVU133
 502 00ec 0220     		movs	r0, #2
 503              	.LBB492:
 504              	.LBB491:
  41:samplebuffer.h ****         write_ptr_ = 0;
 505              		.loc 11 41 20 view .LVU134
ARM GAS  C:\Users\daniel\AppData\Local\Temp\ccyWpYN0.s 			page 28


 506 00ee 83F81D16 		strb	r1, [r3, #1565]
  42:samplebuffer.h ****     }
 507              		.loc 11 42 20 view .LVU135
 508 00f2 C3F81016 		str	r1, [r3, #1552]
 509              	.LVL28:
  42:samplebuffer.h ****     }
 510              		.loc 11 42 20 view .LVU136
 511              	.LBE491:
 512              	.LBE492:
  52:Proliferation.cpp ****             }
 513              		.loc 10 52 17 is_stmt 1 view .LVU137
  52:Proliferation.cpp ****             }
 514              		.loc 10 52 18 is_stmt 0 view .LVU138
 515 00f6 1060     		str	r0, [r2]
 516              		.loc 10 105 1 view .LVU139
 517 00f8 F8BD     		pop	{r3, r4, r5, r6, r7, pc}
 518              	.LVL29:
 519              	.L16:
  54:Proliferation.cpp ****         case 2:
 520              		.loc 10 54 19 is_stmt 1 view .LVU140
  55:Proliferation.cpp ****             if(button.RisingEdge() && !buffers[2].IsRecording()) {
 521              		.loc 10 55 9 view .LVU141
  56:Proliferation.cpp ****                 buffers[2].Record();
 522              		.loc 10 56 13 view .LVU142
 523              	.LBB493:
 524              	.LBI493:
  70:../../libDaisy//src/hid/switch.h **** 
 525              		.loc 1 70 17 view .LVU143
 526              	.LBB494:
  70:../../libDaisy//src/hid/switch.h **** 
 527              		.loc 1 70 38 view .LVU144
  70:../../libDaisy//src/hid/switch.h **** 
 528              		.loc 1 70 45 is_stmt 0 view .LVU145
 529 00fa 704B     		ldr	r3, .L90+4
  70:../../libDaisy//src/hid/switch.h **** 
 530              		.loc 1 70 54 view .LVU146
 531 00fc 1979     		ldrb	r1, [r3, #4]	@ zero_extendqisi2
 532 00fe 0029     		cmp	r1, #0
 533 0100 CCD0     		beq	.L5
  70:../../libDaisy//src/hid/switch.h **** 
 534              		.loc 1 70 56 view .LVU147
 535 0102 9B7A     		ldrb	r3, [r3, #10]	@ zero_extendqisi2
 536              	.LVL30:
  70:../../libDaisy//src/hid/switch.h **** 
 537              		.loc 1 70 56 view .LVU148
 538              	.LBE494:
 539              	.LBE493:
  56:Proliferation.cpp ****                 buffers[2].Record();
 540              		.loc 10 56 36 view .LVU149
 541 0104 7F2B     		cmp	r3, #127
 542 0106 00F08E80 		beq	.L85
  58:Proliferation.cpp ****                 buffers[2].Record(false);
 543              		.loc 10 58 20 is_stmt 1 view .LVU150
 544              	.LVL31:
 545              		.loc 1 75 9 view .LVU151
  58:Proliferation.cpp ****                 buffers[2].Record(false);
 546              		.loc 10 58 44 is_stmt 0 view .LVU152
ARM GAS  C:\Users\daniel\AppData\Local\Temp\ccyWpYN0.s 			page 29


 547 010a 802B     		cmp	r3, #128
 548 010c C6D1     		bne	.L5
 549              	.LVL32:
 550              	.LBB495:
 551              	.LBI495:
 552              		.loc 11 126 10 is_stmt 1 view .LVU153
 553              	.LBB496:
 554              		.loc 11 126 39 is_stmt 0 view .LVU154
 555 010e 774B     		ldr	r3, .L90+52
 556              	.LBE496:
 557              	.LBE495:
  58:Proliferation.cpp ****                 buffers[2].Record(false);
 558              		.loc 10 58 44 view .LVU155
 559 0110 93F82D1C 		ldrb	r1, [r3, #3117]	@ zero_extendqisi2
 560 0114 0029     		cmp	r1, #0
 561 0116 C1D0     		beq	.L5
  59:Proliferation.cpp ****                 s++;
 562              		.loc 10 59 17 is_stmt 1 view .LVU156
 563              	.LVL33:
 564              	.LBB497:
 565              	.LBI497:
  35:samplebuffer.h ****     {
 566              		.loc 11 35 10 view .LVU157
 567              	.LBB498:
  41:samplebuffer.h ****         write_ptr_ = 0;
 568              		.loc 11 41 20 is_stmt 0 view .LVU158
 569 0118 0021     		movs	r1, #0
 570              	.LBE498:
 571              	.LBE497:
  60:Proliferation.cpp ****             }
 572              		.loc 10 60 18 view .LVU159
 573 011a 0320     		movs	r0, #3
 574              	.LBB500:
 575              	.LBB499:
  41:samplebuffer.h ****         write_ptr_ = 0;
 576              		.loc 11 41 20 view .LVU160
 577 011c 83F82D1C 		strb	r1, [r3, #3117]
  42:samplebuffer.h ****     }
 578              		.loc 11 42 20 view .LVU161
 579 0120 C3F8201C 		str	r1, [r3, #3104]
 580              	.LVL34:
  42:samplebuffer.h ****     }
 581              		.loc 11 42 20 view .LVU162
 582              	.LBE499:
 583              	.LBE500:
  60:Proliferation.cpp ****             }
 584              		.loc 10 60 17 is_stmt 1 view .LVU163
  60:Proliferation.cpp ****             }
 585              		.loc 10 60 18 is_stmt 0 view .LVU164
 586 0124 1060     		str	r0, [r2]
 587              		.loc 10 105 1 view .LVU165
 588 0126 F8BD     		pop	{r3, r4, r5, r6, r7, pc}
 589              	.LVL35:
 590              	.L15:
  62:Proliferation.cpp ****         case 3:
 591              		.loc 10 62 19 is_stmt 1 view .LVU166
  63:Proliferation.cpp ****             if(button.RisingEdge() && !buffers[3].IsRecording()) {
ARM GAS  C:\Users\daniel\AppData\Local\Temp\ccyWpYN0.s 			page 30


 592              		.loc 10 63 9 view .LVU167
  64:Proliferation.cpp ****                 buffers[3].Record();
 593              		.loc 10 64 13 view .LVU168
 594              	.LBB501:
 595              	.LBI501:
  70:../../libDaisy//src/hid/switch.h **** 
 596              		.loc 1 70 17 view .LVU169
 597              	.LBB502:
  70:../../libDaisy//src/hid/switch.h **** 
 598              		.loc 1 70 38 view .LVU170
  70:../../libDaisy//src/hid/switch.h **** 
 599              		.loc 1 70 45 is_stmt 0 view .LVU171
 600 0128 644B     		ldr	r3, .L90+4
  70:../../libDaisy//src/hid/switch.h **** 
 601              		.loc 1 70 54 view .LVU172
 602 012a 1979     		ldrb	r1, [r3, #4]	@ zero_extendqisi2
 603 012c 0029     		cmp	r1, #0
 604 012e B5D0     		beq	.L5
  70:../../libDaisy//src/hid/switch.h **** 
 605              		.loc 1 70 56 view .LVU173
 606 0130 9B7A     		ldrb	r3, [r3, #10]	@ zero_extendqisi2
 607              	.LVL36:
  70:../../libDaisy//src/hid/switch.h **** 
 608              		.loc 1 70 56 view .LVU174
 609              	.LBE502:
 610              	.LBE501:
  64:Proliferation.cpp ****                 buffers[3].Record();
 611              		.loc 10 64 36 view .LVU175
 612 0132 7F2B     		cmp	r3, #127
 613 0134 00F0AD80 		beq	.L86
  66:Proliferation.cpp ****                 buffers[3].Record(false);
 614              		.loc 10 66 20 is_stmt 1 view .LVU176
 615              	.LVL37:
 616              		.loc 1 75 9 view .LVU177
  66:Proliferation.cpp ****                 buffers[3].Record(false);
 617              		.loc 10 66 44 is_stmt 0 view .LVU178
 618 0138 802B     		cmp	r3, #128
 619 013a AFD1     		bne	.L5
 620              	.LVL38:
 621              	.LBB503:
 622              	.LBI503:
 623              		.loc 11 126 10 is_stmt 1 view .LVU179
 624              	.LBB504:
 625              		.loc 11 126 39 is_stmt 0 view .LVU180
 626 013c 6C4B     		ldr	r3, .L90+56
 627              	.LBE504:
 628              	.LBE503:
  66:Proliferation.cpp ****                 buffers[3].Record(false);
 629              		.loc 10 66 44 view .LVU181
 630 013e 93F83D12 		ldrb	r1, [r3, #573]	@ zero_extendqisi2
 631 0142 0029     		cmp	r1, #0
 632 0144 AAD0     		beq	.L5
  67:Proliferation.cpp ****                 s++;
 633              		.loc 10 67 17 is_stmt 1 view .LVU182
 634              	.LVL39:
 635              	.LBB505:
 636              	.LBI505:
ARM GAS  C:\Users\daniel\AppData\Local\Temp\ccyWpYN0.s 			page 31


  35:samplebuffer.h ****     {
 637              		.loc 11 35 10 view .LVU183
 638              	.LBB506:
  41:samplebuffer.h ****         write_ptr_ = 0;
 639              		.loc 11 41 20 is_stmt 0 view .LVU184
 640 0146 0021     		movs	r1, #0
 641              	.LBE506:
 642              	.LBE505:
  68:Proliferation.cpp ****             }
 643              		.loc 10 68 18 view .LVU185
 644 0148 0420     		movs	r0, #4
 645              	.LBB508:
 646              	.LBB507:
  41:samplebuffer.h ****         write_ptr_ = 0;
 647              		.loc 11 41 20 view .LVU186
 648 014a 83F83D12 		strb	r1, [r3, #573]
  42:samplebuffer.h ****     }
 649              		.loc 11 42 20 view .LVU187
 650 014e C3F83012 		str	r1, [r3, #560]
 651              	.LVL40:
  42:samplebuffer.h ****     }
 652              		.loc 11 42 20 view .LVU188
 653              	.LBE507:
 654              	.LBE508:
  68:Proliferation.cpp ****             }
 655              		.loc 10 68 17 is_stmt 1 view .LVU189
  68:Proliferation.cpp ****             }
 656              		.loc 10 68 18 is_stmt 0 view .LVU190
 657 0152 1060     		str	r0, [r2]
 658              		.loc 10 105 1 view .LVU191
 659 0154 F8BD     		pop	{r3, r4, r5, r6, r7, pc}
 660              	.LVL41:
 661              	.L14:
  70:Proliferation.cpp ****         case 4:
 662              		.loc 10 70 19 is_stmt 1 view .LVU192
  71:Proliferation.cpp ****             if(button.RisingEdge() && !buffers[4].IsRecording()) {
 663              		.loc 10 71 9 view .LVU193
  72:Proliferation.cpp ****                 buffers[4].Record();
 664              		.loc 10 72 13 view .LVU194
 665              	.LBB509:
 666              	.LBI509:
  70:../../libDaisy//src/hid/switch.h **** 
 667              		.loc 1 70 17 view .LVU195
 668              	.LBB510:
  70:../../libDaisy//src/hid/switch.h **** 
 669              		.loc 1 70 38 view .LVU196
  70:../../libDaisy//src/hid/switch.h **** 
 670              		.loc 1 70 45 is_stmt 0 view .LVU197
 671 0156 594B     		ldr	r3, .L90+4
  70:../../libDaisy//src/hid/switch.h **** 
 672              		.loc 1 70 54 view .LVU198
 673 0158 1979     		ldrb	r1, [r3, #4]	@ zero_extendqisi2
 674 015a 0029     		cmp	r1, #0
 675 015c 9ED0     		beq	.L5
  70:../../libDaisy//src/hid/switch.h **** 
 676              		.loc 1 70 56 view .LVU199
 677 015e 9B7A     		ldrb	r3, [r3, #10]	@ zero_extendqisi2
ARM GAS  C:\Users\daniel\AppData\Local\Temp\ccyWpYN0.s 			page 32


 678              	.LVL42:
  70:../../libDaisy//src/hid/switch.h **** 
 679              		.loc 1 70 56 view .LVU200
 680              	.LBE510:
 681              	.LBE509:
  72:Proliferation.cpp ****                 buffers[4].Record();
 682              		.loc 10 72 36 view .LVU201
 683 0160 7F2B     		cmp	r3, #127
 684 0162 00F08480 		beq	.L87
  74:Proliferation.cpp ****                 buffers[4].Record(false);
 685              		.loc 10 74 20 is_stmt 1 view .LVU202
 686              	.LVL43:
 687              		.loc 1 75 9 view .LVU203
  74:Proliferation.cpp ****                 buffers[4].Record(false);
 688              		.loc 10 74 44 is_stmt 0 view .LVU204
 689 0166 802B     		cmp	r3, #128
 690 0168 98D1     		bne	.L5
 691              	.LVL44:
 692              	.LBB511:
 693              	.LBI511:
 694              		.loc 11 126 10 is_stmt 1 view .LVU205
 695              	.LBB512:
 696              		.loc 11 126 39 is_stmt 0 view .LVU206
 697 016a 624B     		ldr	r3, .L90+60
 698              	.LBE512:
 699              	.LBE511:
  74:Proliferation.cpp ****                 buffers[4].Record(false);
 700              		.loc 10 74 44 view .LVU207
 701 016c 93F84D18 		ldrb	r1, [r3, #2125]	@ zero_extendqisi2
 702 0170 0029     		cmp	r1, #0
 703 0172 93D0     		beq	.L5
  75:Proliferation.cpp ****                 s++;
 704              		.loc 10 75 17 is_stmt 1 view .LVU208
 705              	.LVL45:
 706              	.LBB513:
 707              	.LBI513:
  35:samplebuffer.h ****     {
 708              		.loc 11 35 10 view .LVU209
 709              	.LBB514:
  41:samplebuffer.h ****         write_ptr_ = 0;
 710              		.loc 11 41 20 is_stmt 0 view .LVU210
 711 0174 0021     		movs	r1, #0
 712              	.LBE514:
 713              	.LBE513:
  76:Proliferation.cpp ****             }
 714              		.loc 10 76 18 view .LVU211
 715 0176 0520     		movs	r0, #5
 716              	.LBB516:
 717              	.LBB515:
  41:samplebuffer.h ****         write_ptr_ = 0;
 718              		.loc 11 41 20 view .LVU212
 719 0178 83F84D18 		strb	r1, [r3, #2125]
  42:samplebuffer.h ****     }
 720              		.loc 11 42 20 view .LVU213
 721 017c C3F84018 		str	r1, [r3, #2112]
 722              	.LVL46:
  42:samplebuffer.h ****     }
ARM GAS  C:\Users\daniel\AppData\Local\Temp\ccyWpYN0.s 			page 33


 723              		.loc 11 42 20 view .LVU214
 724              	.LBE515:
 725              	.LBE516:
  76:Proliferation.cpp ****             }
 726              		.loc 10 76 17 is_stmt 1 view .LVU215
  76:Proliferation.cpp ****             }
 727              		.loc 10 76 18 is_stmt 0 view .LVU216
 728 0180 1060     		str	r0, [r2]
 729              		.loc 10 105 1 view .LVU217
 730 0182 F8BD     		pop	{r3, r4, r5, r6, r7, pc}
 731              	.LVL47:
 732              	.L13:
  78:Proliferation.cpp ****         case 5:
 733              		.loc 10 78 19 is_stmt 1 view .LVU218
  79:Proliferation.cpp ****             if(button.RisingEdge() && !buffers[5].IsRecording()) {
 734              		.loc 10 79 9 view .LVU219
  80:Proliferation.cpp ****                 buffers[5].Record();
 735              		.loc 10 80 13 view .LVU220
 736              	.LBB517:
 737              	.LBI517:
  70:../../libDaisy//src/hid/switch.h **** 
 738              		.loc 1 70 17 view .LVU221
 739              	.LBB518:
  70:../../libDaisy//src/hid/switch.h **** 
 740              		.loc 1 70 38 view .LVU222
  70:../../libDaisy//src/hid/switch.h **** 
 741              		.loc 1 70 45 is_stmt 0 view .LVU223
 742 0184 4D4B     		ldr	r3, .L90+4
  70:../../libDaisy//src/hid/switch.h **** 
 743              		.loc 1 70 54 view .LVU224
 744 0186 1979     		ldrb	r1, [r3, #4]	@ zero_extendqisi2
 745 0188 0029     		cmp	r1, #0
 746 018a 87D0     		beq	.L5
  70:../../libDaisy//src/hid/switch.h **** 
 747              		.loc 1 70 56 view .LVU225
 748 018c 9B7A     		ldrb	r3, [r3, #10]	@ zero_extendqisi2
 749              	.LVL48:
  70:../../libDaisy//src/hid/switch.h **** 
 750              		.loc 1 70 56 view .LVU226
 751              	.LBE518:
 752              	.LBE517:
  80:Proliferation.cpp ****                 buffers[5].Record();
 753              		.loc 10 80 36 view .LVU227
 754 018e 7F2B     		cmp	r3, #127
 755 0190 00F0C880 		beq	.L88
  82:Proliferation.cpp ****                 buffers[5].Record(false);
 756              		.loc 10 82 20 is_stmt 1 view .LVU228
 757              	.LVL49:
 758              		.loc 1 75 9 view .LVU229
  82:Proliferation.cpp ****                 buffers[5].Record(false);
 759              		.loc 10 82 44 is_stmt 0 view .LVU230
 760 0194 802B     		cmp	r3, #128
 761 0196 81D1     		bne	.L5
 762              	.LVL50:
 763              	.LBB519:
 764              	.LBI519:
 765              		.loc 11 126 10 is_stmt 1 view .LVU231
ARM GAS  C:\Users\daniel\AppData\Local\Temp\ccyWpYN0.s 			page 34


 766              	.LBB520:
 767              		.loc 11 126 39 is_stmt 0 view .LVU232
 768 0198 574B     		ldr	r3, .L90+64
 769              	.LBE520:
 770              	.LBE519:
  82:Proliferation.cpp ****                 buffers[5].Record(false);
 771              		.loc 10 82 44 view .LVU233
 772 019a 93F85D1E 		ldrb	r1, [r3, #3677]	@ zero_extendqisi2
 773 019e 0029     		cmp	r1, #0
 774 01a0 3FF47CAF 		beq	.L5
  83:Proliferation.cpp ****                 s++;
 775              		.loc 10 83 17 is_stmt 1 view .LVU234
 776              	.LVL51:
 777              	.LBB521:
 778              	.LBI521:
  35:samplebuffer.h ****     {
 779              		.loc 11 35 10 view .LVU235
 780              	.LBB522:
  41:samplebuffer.h ****         write_ptr_ = 0;
 781              		.loc 11 41 20 is_stmt 0 view .LVU236
 782 01a4 0021     		movs	r1, #0
 783              	.LBE522:
 784              	.LBE521:
  84:Proliferation.cpp ****             }
 785              		.loc 10 84 18 view .LVU237
 786 01a6 0620     		movs	r0, #6
 787              	.LBB524:
 788              	.LBB523:
  41:samplebuffer.h ****         write_ptr_ = 0;
 789              		.loc 11 41 20 view .LVU238
 790 01a8 83F85D1E 		strb	r1, [r3, #3677]
  42:samplebuffer.h ****     }
 791              		.loc 11 42 20 view .LVU239
 792 01ac C3F8501E 		str	r1, [r3, #3664]
 793              	.LVL52:
  42:samplebuffer.h ****     }
 794              		.loc 11 42 20 view .LVU240
 795              	.LBE523:
 796              	.LBE524:
  84:Proliferation.cpp ****             }
 797              		.loc 10 84 17 is_stmt 1 view .LVU241
  84:Proliferation.cpp ****             }
 798              		.loc 10 84 18 is_stmt 0 view .LVU242
 799 01b0 1060     		str	r0, [r2]
 800              		.loc 10 105 1 view .LVU243
 801 01b2 F8BD     		pop	{r3, r4, r5, r6, r7, pc}
 802              	.LVL53:
 803              	.L12:
  86:Proliferation.cpp ****         case 6:
 804              		.loc 10 86 19 is_stmt 1 view .LVU244
  87:Proliferation.cpp ****             if(button.RisingEdge() && !buffers[6].IsRecording()) {
 805              		.loc 10 87 9 view .LVU245
  88:Proliferation.cpp ****                 buffers[6].Record();
 806              		.loc 10 88 13 view .LVU246
 807              	.LBB525:
 808              	.LBI525:
  70:../../libDaisy//src/hid/switch.h **** 
ARM GAS  C:\Users\daniel\AppData\Local\Temp\ccyWpYN0.s 			page 35


 809              		.loc 1 70 17 view .LVU247
 810              	.LBB526:
  70:../../libDaisy//src/hid/switch.h **** 
 811              		.loc 1 70 38 view .LVU248
  70:../../libDaisy//src/hid/switch.h **** 
 812              		.loc 1 70 45 is_stmt 0 view .LVU249
 813 01b4 414B     		ldr	r3, .L90+4
  70:../../libDaisy//src/hid/switch.h **** 
 814              		.loc 1 70 54 view .LVU250
 815 01b6 1979     		ldrb	r1, [r3, #4]	@ zero_extendqisi2
 816 01b8 0029     		cmp	r1, #0
 817 01ba 3FF46FAF 		beq	.L5
  70:../../libDaisy//src/hid/switch.h **** 
 818              		.loc 1 70 56 view .LVU251
 819 01be 9B7A     		ldrb	r3, [r3, #10]	@ zero_extendqisi2
 820              	.LVL54:
  70:../../libDaisy//src/hid/switch.h **** 
 821              		.loc 1 70 56 view .LVU252
 822              	.LBE526:
 823              	.LBE525:
  88:Proliferation.cpp ****                 buffers[6].Record();
 824              		.loc 10 88 36 view .LVU253
 825 01c0 7F2B     		cmp	r3, #127
 826 01c2 00F09D80 		beq	.L89
  90:Proliferation.cpp ****                 buffers[6].Record(false);
 827              		.loc 10 90 20 is_stmt 1 view .LVU254
 828              	.LVL55:
 829              		.loc 1 75 9 view .LVU255
  90:Proliferation.cpp ****                 buffers[6].Record(false);
 830              		.loc 10 90 44 is_stmt 0 view .LVU256
 831 01c6 802B     		cmp	r3, #128
 832 01c8 7FF468AF 		bne	.L5
 833              	.LVL56:
 834              	.LBB527:
 835              	.LBI527:
 836              		.loc 11 126 10 is_stmt 1 view .LVU257
 837              	.LBB528:
 838              		.loc 11 126 39 is_stmt 0 view .LVU258
 839 01cc 4B4B     		ldr	r3, .L90+68
 840              	.LBE528:
 841              	.LBE527:
  90:Proliferation.cpp ****                 buffers[6].Record(false);
 842              		.loc 10 90 44 view .LVU259
 843 01ce 93F86D14 		ldrb	r1, [r3, #1133]	@ zero_extendqisi2
 844 01d2 0029     		cmp	r1, #0
 845 01d4 3FF462AF 		beq	.L5
  91:Proliferation.cpp ****                 s++;
 846              		.loc 10 91 17 is_stmt 1 view .LVU260
 847              	.LVL57:
 848              	.LBB529:
 849              	.LBI529:
  35:samplebuffer.h ****     {
 850              		.loc 11 35 10 view .LVU261
 851              	.LBB530:
  41:samplebuffer.h ****         write_ptr_ = 0;
 852              		.loc 11 41 20 is_stmt 0 view .LVU262
 853 01d8 0021     		movs	r1, #0
ARM GAS  C:\Users\daniel\AppData\Local\Temp\ccyWpYN0.s 			page 36


 854              	.LBE530:
 855              	.LBE529:
  92:Proliferation.cpp ****             }
 856              		.loc 10 92 18 view .LVU263
 857 01da 0720     		movs	r0, #7
 858              	.LBB532:
 859              	.LBB531:
  41:samplebuffer.h ****         write_ptr_ = 0;
 860              		.loc 11 41 20 view .LVU264
 861 01dc 83F86D14 		strb	r1, [r3, #1133]
  42:samplebuffer.h ****     }
 862              		.loc 11 42 20 view .LVU265
 863 01e0 C3F86014 		str	r1, [r3, #1120]
 864              	.LVL58:
  42:samplebuffer.h ****     }
 865              		.loc 11 42 20 view .LVU266
 866              	.LBE531:
 867              	.LBE532:
  92:Proliferation.cpp ****             }
 868              		.loc 10 92 17 is_stmt 1 view .LVU267
  92:Proliferation.cpp ****             }
 869              		.loc 10 92 18 is_stmt 0 view .LVU268
 870 01e4 1060     		str	r0, [r2]
 871              		.loc 10 105 1 view .LVU269
 872 01e6 F8BD     		pop	{r3, r4, r5, r6, r7, pc}
 873              	.LVL59:
 874              	.L19:
  42:Proliferation.cpp ****                 buffers[0].Record(false);
 875              		.loc 10 42 20 is_stmt 1 view .LVU270
 876              		.loc 1 75 9 view .LVU271
  42:Proliferation.cpp ****                 buffers[0].Record(false);
 877              		.loc 10 42 44 is_stmt 0 view .LVU272
 878 01e8 802B     		cmp	r3, #128
 879 01ea 7FF457AF 		bne	.L5
 880              	.LVL60:
 881              	.LBB533:
 882              	.LBI533:
 883              		.loc 11 126 10 is_stmt 1 view .LVU273
 884              		.loc 11 126 10 is_stmt 0 view .LVU274
 885              	.LBE533:
  42:Proliferation.cpp ****                 buffers[0].Record(false);
 886              		.loc 10 42 44 view .LVU275
 887 01ee 737B     		ldrb	r3, [r6, #13]	@ zero_extendqisi2
 888 01f0 002B     		cmp	r3, #0
 889 01f2 3FF453AF 		beq	.L5
  43:Proliferation.cpp ****                 s++;
 890              		.loc 10 43 17 is_stmt 1 view .LVU276
 891              	.LVL61:
 892              	.LBB534:
 893              	.LBI534:
  35:samplebuffer.h ****     {
 894              		.loc 11 35 10 view .LVU277
 895              	.LBB535:
  41:samplebuffer.h ****         write_ptr_ = 0;
 896              		.loc 11 41 20 is_stmt 0 view .LVU278
 897 01f6 0023     		movs	r3, #0
 898              	.LBE535:
ARM GAS  C:\Users\daniel\AppData\Local\Temp\ccyWpYN0.s 			page 37


 899              	.LBE534:
  44:Proliferation.cpp ****             }
 900              		.loc 10 44 18 view .LVU279
 901 01f8 0121     		movs	r1, #1
 902              	.LBB537:
 903              	.LBB536:
  41:samplebuffer.h ****         write_ptr_ = 0;
 904              		.loc 11 41 20 view .LVU280
 905 01fa 7373     		strb	r3, [r6, #13]
  42:samplebuffer.h ****     }
 906              		.loc 11 42 20 view .LVU281
 907 01fc 3360     		str	r3, [r6]
 908              	.LVL62:
  42:samplebuffer.h ****     }
 909              		.loc 11 42 20 view .LVU282
 910              	.LBE536:
 911              	.LBE537:
  44:Proliferation.cpp ****             }
 912              		.loc 10 44 17 is_stmt 1 view .LVU283
  44:Proliferation.cpp ****             }
 913              		.loc 10 44 18 is_stmt 0 view .LVU284
 914 01fe 1160     		str	r1, [r2]
 915              		.loc 10 105 1 view .LVU285
 916 0200 F8BD     		pop	{r3, r4, r5, r6, r7, pc}
 917              	.LVL63:
 918              	.L83:
 919              	.LBB538:
 920              	.LBI538:
 921              		.loc 11 126 10 is_stmt 1 view .LVU286
 922              	.LBB539:
 923              		.loc 11 126 39 is_stmt 0 view .LVU287
 924 0202 384C     		ldr	r4, .L90+44
 925              	.LBE539:
 926              	.LBE538:
  96:Proliferation.cpp ****                 buffers[7].Record();
 927              		.loc 10 96 36 view .LVU288
 928 0204 94F87D5A 		ldrb	r5, [r4, #2685]	@ zero_extendqisi2
 929              	.LVL64:
  96:Proliferation.cpp ****                 buffers[7].Record();
 930              		.loc 10 96 36 view .LVU289
 931 0208 002D     		cmp	r5, #0
 932 020a 7FF447AF 		bne	.L5
 933              	.LBB540:
 934              	.LBB541:
 935              	.LBB542:
 936              	.LBB543:
  31:samplebuffer.h ****         }
 937              		.loc 11 31 24 view .LVU290
 938 020e 334A     		ldr	r2, .L90+36
 939 0210 2946     		mov	r1, r5
 940 0212 04F52860 		add	r0, r4, #2688
 941 0216 FFF7FEFF 		bl	memset
 942              	.LVL65:
 943              	.LBE543:
 944              	.LBE542:
  41:samplebuffer.h ****         write_ptr_ = 0;
 945              		.loc 11 41 20 view .LVU291
ARM GAS  C:\Users\daniel\AppData\Local\Temp\ccyWpYN0.s 			page 38


 946 021a 0123     		movs	r3, #1
  42:samplebuffer.h ****     }
 947              		.loc 11 42 20 view .LVU292
 948 021c C4F8705A 		str	r5, [r4, #2672]
  41:samplebuffer.h ****         write_ptr_ = 0;
 949              		.loc 11 41 20 view .LVU293
 950 0220 84F87D3A 		strb	r3, [r4, #2685]
 951              	.LBE541:
 952              	.LBE540:
 953              		.loc 10 105 1 view .LVU294
 954 0224 F8BD     		pop	{r3, r4, r5, r6, r7, pc}
 955              	.LVL66:
 956              	.L85:
 957              	.LBB544:
 958              	.LBI544:
 959              		.loc 11 126 10 is_stmt 1 view .LVU295
 960              	.LBB545:
 961              		.loc 11 126 39 is_stmt 0 view .LVU296
 962 0226 314C     		ldr	r4, .L90+52
 963              	.LBE545:
 964              	.LBE544:
  56:Proliferation.cpp ****                 buffers[2].Record();
 965              		.loc 10 56 36 view .LVU297
 966 0228 94F82D5C 		ldrb	r5, [r4, #3117]	@ zero_extendqisi2
 967              	.LVL67:
  56:Proliferation.cpp ****                 buffers[2].Record();
 968              		.loc 10 56 36 view .LVU298
 969 022c 002D     		cmp	r5, #0
 970 022e 7FF435AF 		bne	.L5
 971              	.LBB546:
 972              	.LBB547:
 973              	.LBB548:
 974              	.LBB549:
  31:samplebuffer.h ****         }
 975              		.loc 11 31 24 view .LVU299
 976 0232 2A4A     		ldr	r2, .L90+36
 977 0234 2946     		mov	r1, r5
 978 0236 04F54360 		add	r0, r4, #3120
 979 023a FFF7FEFF 		bl	memset
 980              	.LVL68:
 981              	.LBE549:
 982              	.LBE548:
  41:samplebuffer.h ****         write_ptr_ = 0;
 983              		.loc 11 41 20 view .LVU300
 984 023e 0123     		movs	r3, #1
  42:samplebuffer.h ****     }
 985              		.loc 11 42 20 view .LVU301
 986 0240 C4F8205C 		str	r5, [r4, #3104]
  41:samplebuffer.h ****         write_ptr_ = 0;
 987              		.loc 11 41 20 view .LVU302
 988 0244 84F82D3C 		strb	r3, [r4, #3117]
 989              	.LBE547:
 990              	.LBE546:
 991              		.loc 10 105 1 view .LVU303
 992 0248 F8BD     		pop	{r3, r4, r5, r6, r7, pc}
 993              	.LVL69:
 994              	.L84:
ARM GAS  C:\Users\daniel\AppData\Local\Temp\ccyWpYN0.s 			page 39


 995              	.LBB550:
 996              	.LBI550:
 997              		.loc 11 126 10 is_stmt 1 view .LVU304
 998              	.LBB551:
 999              		.loc 11 126 39 is_stmt 0 view .LVU305
 1000 024a 274C     		ldr	r4, .L90+48
 1001              	.LBE551:
 1002              	.LBE550:
  48:Proliferation.cpp ****                 buffers[1].Record();
 1003              		.loc 10 48 36 view .LVU306
 1004 024c 94F81D56 		ldrb	r5, [r4, #1565]	@ zero_extendqisi2
 1005              	.LVL70:
  48:Proliferation.cpp ****                 buffers[1].Record();
 1006              		.loc 10 48 36 view .LVU307
 1007 0250 002D     		cmp	r5, #0
 1008 0252 7FF423AF 		bne	.L5
 1009              	.LBB552:
 1010              	.LBB553:
 1011              	.LBB554:
 1012              	.LBB555:
  31:samplebuffer.h ****         }
 1013              		.loc 11 31 24 view .LVU308
 1014 0256 214A     		ldr	r2, .L90+36
 1015 0258 2946     		mov	r1, r5
 1016 025a 04F5C460 		add	r0, r4, #1568
 1017 025e FFF7FEFF 		bl	memset
 1018              	.LVL71:
 1019              	.LBE555:
 1020              	.LBE554:
  41:samplebuffer.h ****         write_ptr_ = 0;
 1021              		.loc 11 41 20 view .LVU309
 1022 0262 0123     		movs	r3, #1
  42:samplebuffer.h ****     }
 1023              		.loc 11 42 20 view .LVU310
 1024 0264 C4F81056 		str	r5, [r4, #1552]
  41:samplebuffer.h ****         write_ptr_ = 0;
 1025              		.loc 11 41 20 view .LVU311
 1026 0268 84F81D36 		strb	r3, [r4, #1565]
 1027              	.LBE553:
 1028              	.LBE552:
 1029              		.loc 10 105 1 view .LVU312
 1030 026c F8BD     		pop	{r3, r4, r5, r6, r7, pc}
 1031              	.LVL72:
 1032              	.L87:
 1033              	.LBB556:
 1034              	.LBI556:
 1035              		.loc 11 126 10 is_stmt 1 view .LVU313
 1036              	.LBB557:
 1037              		.loc 11 126 39 is_stmt 0 view .LVU314
 1038 026e 214C     		ldr	r4, .L90+60
 1039              	.LBE557:
 1040              	.LBE556:
  72:Proliferation.cpp ****                 buffers[4].Record();
 1041              		.loc 10 72 36 view .LVU315
 1042 0270 94F84D58 		ldrb	r5, [r4, #2125]	@ zero_extendqisi2
 1043              	.LVL73:
  72:Proliferation.cpp ****                 buffers[4].Record();
ARM GAS  C:\Users\daniel\AppData\Local\Temp\ccyWpYN0.s 			page 40


 1044              		.loc 10 72 36 view .LVU316
 1045 0274 002D     		cmp	r5, #0
 1046 0276 7FF411AF 		bne	.L5
 1047              	.LBB558:
 1048              	.LBB559:
 1049              	.LBB560:
 1050              	.LBB561:
  31:samplebuffer.h ****         }
 1051              		.loc 11 31 24 view .LVU317
 1052 027a 184A     		ldr	r2, .L90+36
 1053 027c 2946     		mov	r1, r5
 1054 027e 04F50560 		add	r0, r4, #2128
 1055 0282 FFF7FEFF 		bl	memset
 1056              	.LVL74:
 1057              	.LBE561:
 1058              	.LBE560:
  41:samplebuffer.h ****         write_ptr_ = 0;
 1059              		.loc 11 41 20 view .LVU318
 1060 0286 0123     		movs	r3, #1
  42:samplebuffer.h ****     }
 1061              		.loc 11 42 20 view .LVU319
 1062 0288 C4F84058 		str	r5, [r4, #2112]
  41:samplebuffer.h ****         write_ptr_ = 0;
 1063              		.loc 11 41 20 view .LVU320
 1064 028c 84F84D38 		strb	r3, [r4, #2125]
 1065              	.LBE559:
 1066              	.LBE558:
 1067              		.loc 10 105 1 view .LVU321
 1068 0290 F8BD     		pop	{r3, r4, r5, r6, r7, pc}
 1069              	.LVL75:
 1070              	.L86:
 1071              	.LBB562:
 1072              	.LBI562:
 1073              		.loc 11 126 10 is_stmt 1 view .LVU322
 1074              	.LBB563:
 1075              		.loc 11 126 39 is_stmt 0 view .LVU323
 1076 0292 174C     		ldr	r4, .L90+56
 1077              	.LBE563:
 1078              	.LBE562:
  64:Proliferation.cpp ****                 buffers[3].Record();
 1079              		.loc 10 64 36 view .LVU324
 1080 0294 94F83D52 		ldrb	r5, [r4, #573]	@ zero_extendqisi2
 1081              	.LVL76:
  64:Proliferation.cpp ****                 buffers[3].Record();
 1082              		.loc 10 64 36 view .LVU325
 1083 0298 002D     		cmp	r5, #0
 1084 029a 7FF4FFAE 		bne	.L5
 1085              	.LBB564:
 1086              	.LBB565:
 1087              	.LBB566:
 1088              	.LBB567:
  31:samplebuffer.h ****         }
 1089              		.loc 11 31 24 view .LVU326
 1090 029e 0F4A     		ldr	r2, .L90+36
 1091 02a0 2946     		mov	r1, r5
 1092 02a2 04F51070 		add	r0, r4, #576
 1093 02a6 FFF7FEFF 		bl	memset
ARM GAS  C:\Users\daniel\AppData\Local\Temp\ccyWpYN0.s 			page 41


 1094              	.LVL77:
 1095              	.LBE567:
 1096              	.LBE566:
  41:samplebuffer.h ****         write_ptr_ = 0;
 1097              		.loc 11 41 20 view .LVU327
 1098 02aa 0123     		movs	r3, #1
  42:samplebuffer.h ****     }
 1099              		.loc 11 42 20 view .LVU328
 1100 02ac C4F83052 		str	r5, [r4, #560]
  41:samplebuffer.h ****         write_ptr_ = 0;
 1101              		.loc 11 41 20 view .LVU329
 1102 02b0 84F83D32 		strb	r3, [r4, #573]
 1103              	.LBE565:
 1104              	.LBE564:
 1105              		.loc 10 105 1 view .LVU330
 1106 02b4 F8BD     		pop	{r3, r4, r5, r6, r7, pc}
 1107              	.L91:
 1108 02b6 00BF     		.align	2
 1109              	.L90:
 1110 02b8 00000000 		.word	.LANCHOR0
 1111 02bc 00000000 		.word	.LANCHOR1
 1112 02c0 00000000 		.word	.LANCHOR2
 1113 02c4 00000000 		.word	buffers
 1114 02c8 80307500 		.word	buffers+7680128
 1115 02cc B0010000 		.word	.LANCHOR0+432
 1116 02d0 B7010000 		.word	.LANCHOR0+439
 1117 02d4 10A60E00 		.word	960016
 1118 02d8 00000000 		.word	.LANCHOR3
 1119 02dc 00A60E00 		.word	960000
 1120 02e0 10000000 		.word	buffers+16
 1121 02e4 00806600 		.word	buffers+6717440
 1122 02e8 00A00E00 		.word	buffers+958464
 1123 02ec 00401D00 		.word	buffers+1916928
 1124 02f0 00F02B00 		.word	buffers+2879488
 1125 02f4 00903A00 		.word	buffers+3837952
 1126 02f8 00304900 		.word	buffers+4796416
 1127 02fc 00E05700 		.word	buffers+5758976
 1128              	.LVL78:
 1129              	.L89:
 1130              	.LBB568:
 1131              	.LBI568:
 1132              		.loc 11 126 10 is_stmt 1 view .LVU331
 1133              	.LBB569:
 1134              		.loc 11 126 39 is_stmt 0 view .LVU332
 1135 0300 114C     		ldr	r4, .L92
 1136              	.LBE569:
 1137              	.LBE568:
  88:Proliferation.cpp ****                 buffers[6].Record();
 1138              		.loc 10 88 36 view .LVU333
 1139 0302 94F86D54 		ldrb	r5, [r4, #1133]	@ zero_extendqisi2
 1140              	.LVL79:
  88:Proliferation.cpp ****                 buffers[6].Record();
 1141              		.loc 10 88 36 view .LVU334
 1142 0306 002D     		cmp	r5, #0
 1143 0308 7FF4C8AE 		bne	.L5
 1144              	.LBB570:
 1145              	.LBB571:
ARM GAS  C:\Users\daniel\AppData\Local\Temp\ccyWpYN0.s 			page 42


 1146              	.LBB572:
 1147              	.LBB573:
  31:samplebuffer.h ****         }
 1148              		.loc 11 31 24 view .LVU335
 1149 030c 0F4A     		ldr	r2, .L92+4
 1150 030e 2946     		mov	r1, r5
 1151 0310 04F58E60 		add	r0, r4, #1136
 1152 0314 FFF7FEFF 		bl	memset
 1153              	.LVL80:
 1154              	.LBE573:
 1155              	.LBE572:
  41:samplebuffer.h ****         write_ptr_ = 0;
 1156              		.loc 11 41 20 view .LVU336
 1157 0318 0123     		movs	r3, #1
  42:samplebuffer.h ****     }
 1158              		.loc 11 42 20 view .LVU337
 1159 031a C4F86054 		str	r5, [r4, #1120]
  41:samplebuffer.h ****         write_ptr_ = 0;
 1160              		.loc 11 41 20 view .LVU338
 1161 031e 84F86D34 		strb	r3, [r4, #1133]
 1162              	.LBE571:
 1163              	.LBE570:
 1164              		.loc 10 105 1 view .LVU339
 1165 0322 F8BD     		pop	{r3, r4, r5, r6, r7, pc}
 1166              	.LVL81:
 1167              	.L88:
 1168              	.LBB574:
 1169              	.LBI574:
 1170              		.loc 11 126 10 is_stmt 1 view .LVU340
 1171              	.LBB575:
 1172              		.loc 11 126 39 is_stmt 0 view .LVU341
 1173 0324 0A4C     		ldr	r4, .L92+8
 1174              	.LBE575:
 1175              	.LBE574:
  80:Proliferation.cpp ****                 buffers[5].Record();
 1176              		.loc 10 80 36 view .LVU342
 1177 0326 94F85D5E 		ldrb	r5, [r4, #3677]	@ zero_extendqisi2
 1178              	.LVL82:
  80:Proliferation.cpp ****                 buffers[5].Record();
 1179              		.loc 10 80 36 view .LVU343
 1180 032a 002D     		cmp	r5, #0
 1181 032c 7FF4B6AE 		bne	.L5
 1182              	.LBB576:
 1183              	.LBB577:
 1184              	.LBB578:
 1185              	.LBB579:
  31:samplebuffer.h ****         }
 1186              		.loc 11 31 24 view .LVU344
 1187 0330 064A     		ldr	r2, .L92+4
 1188 0332 2946     		mov	r1, r5
 1189 0334 04F56660 		add	r0, r4, #3680
 1190 0338 FFF7FEFF 		bl	memset
 1191              	.LVL83:
 1192              	.LBE579:
 1193              	.LBE578:
  41:samplebuffer.h ****         write_ptr_ = 0;
 1194              		.loc 11 41 20 view .LVU345
ARM GAS  C:\Users\daniel\AppData\Local\Temp\ccyWpYN0.s 			page 43


 1195 033c 0123     		movs	r3, #1
  42:samplebuffer.h ****     }
 1196              		.loc 11 42 20 view .LVU346
 1197 033e C4F8505E 		str	r5, [r4, #3664]
  41:samplebuffer.h ****         write_ptr_ = 0;
 1198              		.loc 11 41 20 view .LVU347
 1199 0342 84F85D3E 		strb	r3, [r4, #3677]
 1200              	.LBE577:
 1201              	.LBE576:
 1202              		.loc 10 105 1 view .LVU348
 1203 0346 F8BD     		pop	{r3, r4, r5, r6, r7, pc}
 1204              	.L93:
 1205              		.align	2
 1206              	.L92:
 1207 0348 00E05700 		.word	buffers+5758976
 1208 034c 00A60E00 		.word	960000
 1209 0350 00304900 		.word	buffers+4796416
 1210              		.cfi_endproc
 1211              	.LFE4842:
 1213              		.section	.text._Z13AudioCallbackPKPKfPPfj,"ax",%progbits
 1214              		.align	1
 1215              		.p2align 2,,3
 1216              		.global	_Z13AudioCallbackPKPKfPPfj
 1217              		.syntax unified
 1218              		.thumb
 1219              		.thumb_func
 1220              		.fpu fpv5-d16
 1222              	_Z13AudioCallbackPKPKfPPfj:
 1223              	.LVL84:
 1224              	.LFB4844:
 106:Proliferation.cpp **** 
 107:Proliferation.cpp **** void AudioCallback(AudioHandle::InputBuffer in, AudioHandle::OutputBuffer out, size_t size)
 108:Proliferation.cpp **** {   
 1225              		.loc 10 108 1 is_stmt 1 view -0
 1226              		.cfi_startproc
 1227              		@ args = 0, pretend = 0, frame = 0
 1228              		@ frame_needed = 0, uses_anonymous_args = 0
 109:Proliferation.cpp **** 	getSamples();
 1229              		.loc 10 109 2 view .LVU350
 108:Proliferation.cpp **** 	getSamples();
 1230              		.loc 10 108 1 is_stmt 0 view .LVU351
 1231 0000 2DE9F843 		push	{r3, r4, r5, r6, r7, r8, r9, lr}
 1232              		.cfi_def_cfa_offset 32
 1233              		.cfi_offset 3, -32
 1234              		.cfi_offset 4, -28
 1235              		.cfi_offset 5, -24
 1236              		.cfi_offset 6, -20
 1237              		.cfi_offset 7, -16
 1238              		.cfi_offset 8, -12
 1239              		.cfi_offset 9, -8
 1240              		.cfi_offset 14, -4
 108:Proliferation.cpp **** 	getSamples();
 1241              		.loc 10 108 1 view .LVU352
 1242 0004 1546     		mov	r5, r2
 1243 0006 0646     		mov	r6, r0
 1244 0008 0F46     		mov	r7, r1
 1245              		.loc 10 109 12 view .LVU353
ARM GAS  C:\Users\daniel\AppData\Local\Temp\ccyWpYN0.s 			page 44


 1246 000a FFF7FEFF 		bl	_Z10getSamplesv
 1247              	.LVL85:
 110:Proliferation.cpp **** 
 111:Proliferation.cpp **** 	for (size_t i = 0; i < size; i++)
 1248              		.loc 10 111 2 is_stmt 1 view .LVU354
 1249              	.LBB597:
 1250              		.loc 10 111 23 view .LVU355
 1251 000e 002D     		cmp	r5, #0
 1252 0010 67D0     		beq	.L94
 1253 0012 D7E90041 		ldrd	r4, r1, [r7]
 1254 0016 D6E90076 		ldrd	r7, r6, [r6]
 1255              	.LVL86:
 1256              		.loc 10 111 23 is_stmt 0 view .LVU356
 1257 001a 04EB850C 		add	ip, r4, r5, lsl #2
 1258 001e 324D     		ldr	r5, .L109
 1259              	.LVL87:
 1260              	.L101:
 1261              	.LBB598:
 112:Proliferation.cpp **** 	{
 113:Proliferation.cpp ****         // Zero samples prior to summing
 114:Proliferation.cpp ****         OUT_L[i] = 0.f;
 1262              		.loc 10 114 9 is_stmt 1 view .LVU357
 1263              		.loc 10 114 18 is_stmt 0 view .LVU358
 1264 0020 0022     		movs	r2, #0
 1265 0022 324B     		ldr	r3, .L109+4
 1266 0024 44F8042B 		str	r2, [r4], #4	@ float
 115:Proliferation.cpp ****         OUT_R[i] = 0.f;
 1267              		.loc 10 115 9 is_stmt 1 view .LVU359
 1268              		.loc 10 115 18 is_stmt 0 view .LVU360
 1269 0028 41F8042B 		str	r2, [r1], #4	@ float
 116:Proliferation.cpp ****         for(auto &buffer : buffers)
 1270              		.loc 10 116 9 is_stmt 1 view .LVU361
 1271              	.LVL88:
 1272              	.LBB599:
 1273              		.loc 10 116 28 view .LVU362
 1274              	.L100:
 1275              	.LBB600:
 117:Proliferation.cpp ****         {
 118:Proliferation.cpp ****             // Record in mono
 119:Proliferation.cpp ****             float sample = buffer.Process((0.5 * IN_L[i] + 0.5 * IN_R[i]));
 1276              		.loc 10 119 13 discriminator 2 view .LVU363
 1277              	.LBB601:
 1278              	.LBI601:
  59:samplebuffer.h ****     {
 1279              		.loc 11 59 11 discriminator 2 view .LVU364
 1280              	.LBB602:
 1281              	.LBI602:
  72:samplebuffer.h ****     {
 1282              		.loc 11 72 10 discriminator 2 view .LVU365
 1283              	.LBB603:
 1284              	.LBB604:
 1285              	.LBI604:
  72:samplebuffer.h ****     {
 1286              		.loc 11 72 10 discriminator 2 view .LVU366
  72:samplebuffer.h ****     {
 1287              		.loc 11 72 10 is_stmt 0 discriminator 2 view .LVU367
 1288              	.LBE604:
ARM GAS  C:\Users\daniel\AppData\Local\Temp\ccyWpYN0.s 			page 45


 1289              	.LBE603:
 1290              	.LBE602:
 1291              	.LBB625:
 1292              	.LBI625:
  86:samplebuffer.h ****     {
 1293              		.loc 11 86 11 is_stmt 1 discriminator 2 view .LVU368
 1294              	.LBB626:
 1295              	.LBI626:
  86:samplebuffer.h ****     {
 1296              		.loc 11 86 11 discriminator 2 view .LVU369
 1297              	.LBE626:
 1298              	.LBE625:
 1299              	.LBB633:
 1300              	.LBB617:
 1301              	.LBB611:
 1302              	.LBB605:
  78:samplebuffer.h ****             {
 1303              		.loc 11 78 13 is_stmt 0 discriminator 2 view .LVU370
 1304 002c DFF8C4E0 		ldr	lr, .L109+12
 1305              	.LBE605:
 1306              	.LBE611:
 1307              	.LBE617:
 1308              	.LBE633:
 1309              	.LBE601:
 1310              		.loc 10 119 48 discriminator 2 view .LVU371
 1311 0030 B6EE005B 		vmov.f64	d5, #5.0e-1
 1312              	.LBB643:
 1313              	.LBB634:
 1314              	.LBB618:
  74:samplebuffer.h ****         {
 1315              		.loc 11 74 9 discriminator 2 view .LVU372
 1316 0034 5A7B     		ldrb	r2, [r3, #13]	@ zero_extendqisi2
 1317              	.LBE618:
 1318              	.LBE634:
 1319              	.LBB635:
 1320              	.LBB629:
 1321              	.LBB627:
  92:samplebuffer.h ****             {
 1322              		.loc 11 92 13 discriminator 2 view .LVU373
 1323 0036 7046     		mov	r0, lr
 1324              	.LBE627:
 1325              	.LBE629:
 1326              	.LBB630:
 101:samplebuffer.h ****         }
 1327              		.loc 11 101 20 discriminator 2 view .LVU374
 1328 0038 DFED2D6A 		vldr.32	s13, .L109+8
 1329              	.LBE630:
 1330              	.LBE635:
 1331              	.LBB636:
 1332              	.LBB619:
  74:samplebuffer.h ****         {
 1333              		.loc 11 74 9 discriminator 2 view .LVU375
 1334 003c E2B1     		cbz	r2, .L97
 1335              	.LBE619:
 1336              	.LBE636:
 1337              	.LBE643:
 1338              		.loc 10 119 56 view .LVU376
ARM GAS  C:\Users\daniel\AppData\Local\Temp\ccyWpYN0.s 			page 46


 1339 003e 97ED007A 		vldr.32	s14, [r7]
 1340              	.LBB644:
 1341              	.LBB637:
 1342              	.LBB620:
 1343              	.LBB612:
 1344              	.LBB606:
  80:samplebuffer.h ****                 write_ptr_ = 0;
 1345              		.loc 11 80 28 view .LVU377
 1346 0042 4FF00008 		mov	r8, #0
 1347              	.LBE606:
 1348              	.LBE612:
 1349              	.LBE620:
 1350              	.LBE637:
 1351              	.LBE644:
 1352              		.loc 10 119 72 view .LVU378
 1353 0046 96ED004A 		vldr.32	s8, [r6]
 1354              		.loc 10 119 56 view .LVU379
 1355 004a B7EEC77A 		vcvt.f64.f32	d7, s14
 1356              	.LBB645:
 1357              	.LBB638:
 1358              	.LBB621:
 1359              	.LBB613:
 1360              	.LBB607:
  76:samplebuffer.h ****             write_ptr_++;
 1361              		.loc 11 76 21 view .LVU380
 1362 004e 1A68     		ldr	r2, [r3]
 1363              	.LBE607:
 1364              	.LBE613:
 1365              	.LBE621:
 1366              	.LBE638:
 1367              	.LBE645:
 1368              		.loc 10 119 72 view .LVU381
 1369 0050 B7EEC44A 		vcvt.f64.f32	d4, s8
 1370              	.LBB646:
 1371              	.LBB639:
 1372              	.LBB622:
 1373              	.LBB614:
 1374              	.LBB608:
  76:samplebuffer.h ****             write_ptr_++;
 1375              		.loc 11 76 33 view .LVU382
 1376 0054 03EB8209 		add	r9, r3, r2, lsl #2
  77:samplebuffer.h ****             if(write_ptr_ >= kBufferSize)
 1377              		.loc 11 77 13 view .LVU383
 1378 0058 0132     		adds	r2, r2, #1
 1379              	.LBE608:
 1380              	.LBE614:
 1381              	.LBE622:
 1382              	.LBE639:
 1383              	.LBE646:
 1384              		.loc 10 119 48 view .LVU384
 1385 005a 27EE057B 		vmul.f64	d7, d7, d5
 1386              	.LBB647:
 1387              	.LBB640:
 1388              	.LBB623:
 1389              	.LBB615:
 1390              	.LBB609:
  78:samplebuffer.h ****             {
ARM GAS  C:\Users\daniel\AppData\Local\Temp\ccyWpYN0.s 			page 47


 1391              		.loc 11 78 13 view .LVU385
 1392 005e 7245     		cmp	r2, lr
 1393              	.LBE609:
 1394              	.LBE615:
 1395              	.LBE623:
 1396              	.LBE640:
 1397              	.LBE647:
 1398              		.loc 10 119 58 view .LVU386
 1399 0060 A4EE057B 		vfma.f64	d7, d4, d5
 1400              		.loc 10 119 42 view .LVU387
 1401 0064 B7EEC77B 		vcvt.f32.f64	s14, d7
 1402 0068 89ED047A 		vstr.32	s14, [r9, #16]
 1403              	.LBB648:
 1404              	.LBB641:
 1405              	.LBB624:
 1406              	.LBB616:
 1407              	.LBB610:
  77:samplebuffer.h ****             if(write_ptr_ >= kBufferSize)
 1408              		.loc 11 77 13 view .LVU388
 1409 006c 1A60     		str	r2, [r3]
  78:samplebuffer.h ****             {
 1410              		.loc 11 78 13 view .LVU389
 1411 006e 03D9     		bls	.L97
  80:samplebuffer.h ****                 write_ptr_ = 0;
 1412              		.loc 11 80 28 view .LVU390
 1413 0070 83F80D80 		strb	r8, [r3, #13]
  81:samplebuffer.h ****             }
 1414              		.loc 11 81 28 view .LVU391
 1415 0074 C3F80080 		str	r8, [r3]
 1416              	.L97:
 1417              	.LBE610:
 1418              	.LBE616:
 1419              	.LBE624:
 1420              	.LBE641:
 1421              	.LBB642:
 1422              	.LBB631:
  88:samplebuffer.h ****         {
 1423              		.loc 11 88 9 view .LVU392
 1424 0078 1A7B     		ldrb	r2, [r3, #12]	@ zero_extendqisi2
 1425 007a 72B1     		cbz	r2, .L99
 1426              	.LBE631:
 1427              	.LBB632:
 1428              	.LBB628:
  90:samplebuffer.h ****             read_ptr_++;
 1429              		.loc 11 90 33 view .LVU393
 1430 007c 5A68     		ldr	r2, [r3, #4]
  94:samplebuffer.h ****                 read_ptr_ = 0;
 1431              		.loc 11 94 27 view .LVU394
 1432 007e 4FF0000E 		mov	lr, #0
  90:samplebuffer.h ****             read_ptr_++;
 1433              		.loc 11 90 19 view .LVU395
 1434 0082 03EB8208 		add	r8, r3, r2, lsl #2
  91:samplebuffer.h ****             if(read_ptr_ >= kBufferSize)
 1435              		.loc 11 91 13 view .LVU396
 1436 0086 0132     		adds	r2, r2, #1
  92:samplebuffer.h ****             {
 1437              		.loc 11 92 13 view .LVU397
ARM GAS  C:\Users\daniel\AppData\Local\Temp\ccyWpYN0.s 			page 48


 1438 0088 8242     		cmp	r2, r0
  90:samplebuffer.h ****             read_ptr_++;
 1439              		.loc 11 90 19 view .LVU398
 1440 008a D8ED046A 		vldr.32	s13, [r8, #16]
 1441              	.LVL89:
  91:samplebuffer.h ****             if(read_ptr_ >= kBufferSize)
 1442              		.loc 11 91 13 view .LVU399
 1443 008e 5A60     		str	r2, [r3, #4]
  92:samplebuffer.h ****             {
 1444              		.loc 11 92 13 view .LVU400
 1445 0090 03D9     		bls	.L99
  94:samplebuffer.h ****                 read_ptr_ = 0;
 1446              		.loc 11 94 27 view .LVU401
 1447 0092 83F80CE0 		strb	lr, [r3, #12]
  95:samplebuffer.h ****             }
 1448              		.loc 11 95 27 view .LVU402
 1449 0096 C3F804E0 		str	lr, [r3, #4]
 1450              	.LVL90:
 1451              	.L99:
  95:samplebuffer.h ****             }
 1452              		.loc 11 95 27 view .LVU403
 1453              	.LBE628:
 1454              	.LBE632:
 1455              	.LBE642:
 1456              	.LBE648:
 120:Proliferation.cpp **** 
 121:Proliferation.cpp ****             OUT_L[i] += sample;
 1457              		.loc 10 121 13 is_stmt 1 view .LVU404
 1458              		.loc 10 121 22 is_stmt 0 view .LVU405
 1459 009a 14ED017A 		vldr.32	s14, [r4, #-4]
 1460              	.LBE600:
 116:Proliferation.cpp ****         {
 1461              		.loc 10 116 28 view .LVU406
 1462 009e 03F56A23 		add	r3, r3, #958464
 1463              	.LVL91:
 1464              	.LBB649:
 1465              		.loc 10 121 22 view .LVU407
 1466 00a2 37EE267A 		vadd.f32	s14, s14, s13
 1467              	.LBE649:
 116:Proliferation.cpp ****         {
 1468              		.loc 10 116 28 view .LVU408
 1469 00a6 03F5C263 		add	r3, r3, #1552
 1470              	.LVL92:
 116:Proliferation.cpp ****         {
 1471              		.loc 10 116 28 view .LVU409
 1472 00aa AB42     		cmp	r3, r5
 1473              	.LBB650:
 1474              		.loc 10 121 22 view .LVU410
 1475 00ac 04ED017A 		vstr.32	s14, [r4, #-4]
 122:Proliferation.cpp ****             OUT_R[i] += sample;
 1476              		.loc 10 122 13 is_stmt 1 view .LVU411
 1477              		.loc 10 122 22 is_stmt 0 view .LVU412
 1478 00b0 51ED017A 		vldr.32	s15, [r1, #-4]
 1479 00b4 77EEA67A 		vadd.f32	s15, s15, s13
 1480 00b8 41ED017A 		vstr.32	s15, [r1, #-4]
 1481              	.LBE650:
 116:Proliferation.cpp ****         {
ARM GAS  C:\Users\daniel\AppData\Local\Temp\ccyWpYN0.s 			page 49


 1482              		.loc 10 116 9 is_stmt 1 view .LVU413
 1483              	.LVL93:
 116:Proliferation.cpp ****         {
 1484              		.loc 10 116 28 view .LVU414
 1485 00bc B6D1     		bne	.L100
 1486              	.LBE599:
 123:Proliferation.cpp ****         }
 124:Proliferation.cpp ****         // Feed stereo input through to output
 125:Proliferation.cpp ****         OUT_L[i] += IN_L[i];
 1487              		.loc 10 125 9 discriminator 2 view .LVU415
 1488              		.loc 10 125 27 is_stmt 0 discriminator 2 view .LVU416
 1489 00be B7EC017A 		vldmia.32	r7!, {s14}
 1490              	.LBE598:
 111:Proliferation.cpp **** 	{
 1491              		.loc 10 111 23 discriminator 2 view .LVU417
 1492 00c2 6445     		cmp	r4, ip
 1493              	.LBB651:
 1494              		.loc 10 125 18 discriminator 2 view .LVU418
 1495 00c4 54ED017A 		vldr.32	s15, [r4, #-4]
 1496 00c8 77EE877A 		vadd.f32	s15, s15, s14
 1497 00cc 44ED017A 		vstr.32	s15, [r4, #-4]
 126:Proliferation.cpp ****         OUT_R[i] += IN_R[i];
 1498              		.loc 10 126 9 is_stmt 1 discriminator 2 view .LVU419
 1499              		.loc 10 126 27 is_stmt 0 discriminator 2 view .LVU420
 1500 00d0 B6EC017A 		vldmia.32	r6!, {s14}
 1501              		.loc 10 126 18 discriminator 2 view .LVU421
 1502 00d4 51ED017A 		vldr.32	s15, [r1, #-4]
 1503 00d8 77EE877A 		vadd.f32	s15, s15, s14
 1504 00dc 41ED017A 		vstr.32	s15, [r1, #-4]
 1505              	.LBE651:
 111:Proliferation.cpp **** 	{
 1506              		.loc 10 111 2 is_stmt 1 discriminator 2 view .LVU422
 111:Proliferation.cpp **** 	{
 1507              		.loc 10 111 23 discriminator 2 view .LVU423
 1508 00e0 9ED1     		bne	.L101
 1509              	.LVL94:
 1510              	.L94:
 111:Proliferation.cpp **** 	{
 1511              		.loc 10 111 23 is_stmt 0 discriminator 2 view .LVU424
 1512              	.LBE597:
 127:Proliferation.cpp **** 	}
 128:Proliferation.cpp **** }
 1513              		.loc 10 128 1 view .LVU425
 1514 00e2 BDE8F883 		pop	{r3, r4, r5, r6, r7, r8, r9, pc}
 1515              	.L110:
 1516 00e6 00BF     		.align	2
 1517              	.L109:
 1518 00e8 80307500 		.word	buffers+7680128
 1519 00ec 00000000 		.word	buffers
 1520 00f0 00000000 		.word	0
 1521 00f4 7FA90300 		.word	239999
 1522              		.cfi_endproc
 1523              	.LFE4844:
 1525              		.section	.text._Z12InitSamplersv,"ax",%progbits
 1526              		.align	1
 1527              		.p2align 2,,3
 1528              		.global	_Z12InitSamplersv
ARM GAS  C:\Users\daniel\AppData\Local\Temp\ccyWpYN0.s 			page 50


 1529              		.syntax unified
 1530              		.thumb
 1531              		.thumb_func
 1532              		.fpu fpv5-d16
 1534              	_Z12InitSamplersv:
 1535              	.LFB4845:
 129:Proliferation.cpp **** 
 130:Proliferation.cpp **** void InitSamplers(){
 1536              		.loc 10 130 20 is_stmt 1 view -0
 1537              		.cfi_startproc
 1538              		@ args = 0, pretend = 0, frame = 0
 1539              		@ frame_needed = 0, uses_anonymous_args = 0
 131:Proliferation.cpp ****     for(auto &buffer : buffers)
 1540              		.loc 10 131 5 view .LVU427
 1541              	.LVL95:
 1542              	.LBB652:
 1543              		.loc 10 131 24 view .LVU428
 1544              	.LBE652:
 130:Proliferation.cpp ****     for(auto &buffer : buffers)
 1545              		.loc 10 130 20 is_stmt 0 view .LVU429
 1546 0000 10B5     		push	{r4, lr}
 1547              		.cfi_def_cfa_offset 8
 1548              		.cfi_offset 4, -8
 1549              		.cfi_offset 14, -4
 1550 0002 0B4B     		ldr	r3, .L115
 1551 0004 0B4C     		ldr	r4, .L115+4
 1552              	.LVL96:
 1553              	.L112:
 1554              	.LBB663:
 1555              	.LBB653:
 1556              	.LBB654:
 1557              	.LBB655:
 1558              	.LBB656:
  29:samplebuffer.h ****         {
 1559              		.loc 11 29 29 is_stmt 1 view .LVU430
  31:samplebuffer.h ****         }
 1560              		.loc 11 31 24 is_stmt 0 view .LVU431
 1561 0006 1846     		mov	r0, r3
 1562 0008 0B4A     		ldr	r2, .L115+8
 1563 000a 0021     		movs	r1, #0
 1564 000c FFF7FEFF 		bl	memset
 1565              	.LVL97:
  31:samplebuffer.h ****         }
 1566              		.loc 11 31 24 view .LVU432
 1567              	.LBE656:
 1568              	.LBE655:
 1569              	.LBE654:
 1570              	.LBE653:
 1571              		.loc 10 131 24 view .LVU433
 1572 0010 00F56A23 		add	r3, r0, #958464
 1573              	.LBB660:
 1574              	.LBB657:
  21:samplebuffer.h ****         write_ptr_ = 0;
 1575              		.loc 11 21 20 view .LVU434
 1576 0014 0022     		movs	r2, #0
 1577              	.LBE657:
 1578              	.LBE660:
ARM GAS  C:\Users\daniel\AppData\Local\Temp\ccyWpYN0.s 			page 51


 1579              		.loc 10 131 24 view .LVU435
 1580 0016 03F5C263 		add	r3, r3, #1552
 1581              	.LBB661:
 1582              	.LBB658:
  21:samplebuffer.h ****         write_ptr_ = 0;
 1583              		.loc 11 21 20 view .LVU436
 1584 001a 00F8032C 		strb	r2, [r0, #-3]
 1585              	.LBE658:
 1586              	.LBE661:
 1587              		.loc 10 131 24 view .LVU437
 1588 001e 9C42     		cmp	r4, r3
 1589              	.LBB662:
 1590              	.LBB659:
  22:samplebuffer.h ****         playing_   = false;
 1591              		.loc 11 22 20 view .LVU438
 1592 0020 40F8102C 		str	r2, [r0, #-16]
  23:samplebuffer.h ****         read_ptr_  = 0;
 1593              		.loc 11 23 20 view .LVU439
 1594 0024 00F8042C 		strb	r2, [r0, #-4]
  24:samplebuffer.h ****     }
 1595              		.loc 11 24 20 view .LVU440
 1596 0028 40F80C2C 		str	r2, [r0, #-12]
 1597              	.LBE659:
 1598              	.LBE662:
 1599              		.loc 10 131 5 is_stmt 1 view .LVU441
 1600              	.LVL98:
 1601              		.loc 10 131 24 view .LVU442
 1602 002c EBD1     		bne	.L112
 1603              	.LBE663:
 132:Proliferation.cpp ****     {
 133:Proliferation.cpp ****         buffer.Init();
 134:Proliferation.cpp ****     }
 135:Proliferation.cpp **** }
 1604              		.loc 10 135 1 is_stmt 0 view .LVU443
 1605 002e 10BD     		pop	{r4, pc}
 1606              	.L116:
 1607              		.align	2
 1608              	.L115:
 1609 0030 10000000 		.word	buffers+16
 1610 0034 90307500 		.word	buffers+7680144
 1611 0038 00A60E00 		.word	960000
 1612              		.cfi_endproc
 1613              	.LFE4845:
 1615              		.section	.text.startup.main,"ax",%progbits
 1616              		.align	1
 1617              		.p2align 2,,3
 1618              		.global	main
 1619              		.syntax unified
 1620              		.thumb
 1621              		.thumb_func
 1622              		.fpu fpv5-d16
 1624              	main:
 1625              	.LFB4846:
 136:Proliferation.cpp **** 
 137:Proliferation.cpp **** 
 138:Proliferation.cpp **** int main(void)
 139:Proliferation.cpp **** {
ARM GAS  C:\Users\daniel\AppData\Local\Temp\ccyWpYN0.s 			page 52


 1626              		.loc 10 139 1 is_stmt 1 view -0
 1627              		.cfi_startproc
 1628              		@ Volatile: function does not return.
 1629              		@ args = 0, pretend = 0, frame = 0
 1630              		@ frame_needed = 0, uses_anonymous_args = 0
 140:Proliferation.cpp **** 	hw.Init();
 1631              		.loc 10 140 2 view .LVU445
 139:Proliferation.cpp **** 	hw.Init();
 1632              		.loc 10 139 1 is_stmt 0 view .LVU446
 1633 0000 08B5     		push	{r3, lr}
 1634              		.cfi_def_cfa_offset 8
 1635              		.cfi_offset 3, -8
 1636              		.cfi_offset 14, -4
 1637              		.loc 10 140 9 view .LVU447
 1638 0002 1348     		ldr	r0, .L120
 1639 0004 FFF7FEFF 		bl	_ZN5daisy8patch_sm12DaisyPatchSM4InitEv
 1640              	.LVL99:
 141:Proliferation.cpp **** 
 142:Proliferation.cpp ****     toggle.Init(hw.B8);
 1641              		.loc 10 142 5 is_stmt 1 view .LVU448
 1642              		.loc 10 142 16 is_stmt 0 view .LVU449
 1643 0008 124B     		ldr	r3, .L120+4
 1644 000a 9FED130A 		vldr.32	s0, .L120+8
 1645 000e 1A78     		ldrb	r2, [r3]	@ zero_extendqisi2
 1646 0010 5978     		ldrb	r1, [r3, #1]	@ zero_extendqisi2
 1647 0012 1248     		ldr	r0, .L120+12
 1648 0014 42EA0121 		orr	r1, r2, r1, lsl #8
 1649 0018 FFF7FEFF 		bl	_ZN5daisy6Switch4InitE12dsy_gpio_pinf
 1650              	.LVL100:
 143:Proliferation.cpp ****     button.Init(hw.B7);
 1651              		.loc 10 143 5 is_stmt 1 view .LVU450
 1652              		.loc 10 143 16 is_stmt 0 view .LVU451
 1653 001c 104B     		ldr	r3, .L120+16
 1654 001e 9FED0E0A 		vldr.32	s0, .L120+8
 1655 0022 1A78     		ldrb	r2, [r3]	@ zero_extendqisi2
 1656 0024 5978     		ldrb	r1, [r3, #1]	@ zero_extendqisi2
 1657 0026 0F48     		ldr	r0, .L120+20
 1658 0028 42EA0121 		orr	r1, r2, r1, lsl #8
 1659 002c FFF7FEFF 		bl	_ZN5daisy6Switch4InitE12dsy_gpio_pinf
 1660              	.LVL101:
 144:Proliferation.cpp ****     InitSamplers();
 1661              		.loc 10 144 5 is_stmt 1 view .LVU452
 1662              		.loc 10 144 17 is_stmt 0 view .LVU453
 1663 0030 FFF7FEFF 		bl	_Z12InitSamplersv
 1664              	.LVL102:
 145:Proliferation.cpp **** 
 146:Proliferation.cpp ****     hw.SetAudioBlockSize(4); // number of samples handled per callback
 1665              		.loc 10 146 5 is_stmt 1 view .LVU454
 1666              		.loc 10 146 25 is_stmt 0 view .LVU455
 1667 0034 0421     		movs	r1, #4
 1668 0036 0648     		ldr	r0, .L120
 1669 0038 FFF7FEFF 		bl	_ZN5daisy8patch_sm12DaisyPatchSM17SetAudioBlockSizeEj
 1670              	.LVL103:
 147:Proliferation.cpp ****     hw.SetAudioSampleRate(SaiHandle::Config::SampleRate::SAI_48KHZ);
 1671              		.loc 10 147 5 is_stmt 1 view .LVU456
 1672              		.loc 10 147 26 is_stmt 0 view .LVU457
 1673 003c 0321     		movs	r1, #3
ARM GAS  C:\Users\daniel\AppData\Local\Temp\ccyWpYN0.s 			page 53


 1674 003e 0448     		ldr	r0, .L120
 1675 0040 FFF7FEFF 		bl	_ZN5daisy8patch_sm12DaisyPatchSM18SetAudioSampleRateENS_9SaiHandle6Config10SampleRateE
 1676              	.LVL104:
 148:Proliferation.cpp ****     hw.StartAudio(AudioCallback);
 1677              		.loc 10 148 5 is_stmt 1 view .LVU458
 1678              		.loc 10 148 18 is_stmt 0 view .LVU459
 1679 0044 0849     		ldr	r1, .L120+24
 1680 0046 0248     		ldr	r0, .L120
 1681 0048 FFF7FEFF 		bl	_ZN5daisy8patch_sm12DaisyPatchSM10StartAudioEPFvPKPKfPPfjE
 1682              	.LVL105:
 1683              	.L118:
 149:Proliferation.cpp **** 
 150:Proliferation.cpp **** 	while(1) {
 1684              		.loc 10 150 2 is_stmt 1 discriminator 1 view .LVU460
 1685              		.loc 10 150 2 discriminator 1 view .LVU461
 1686              		.loc 10 150 2 discriminator 1 view .LVU462
 1687              		.loc 10 150 2 discriminator 1 view .LVU463
 1688 004c FEE7     		b	.L118
 1689              	.L121:
 1690 004e 00BF     		.align	2
 1691              	.L120:
 1692 0050 00000000 		.word	.LANCHOR0
 1693 0054 00000000 		.word	_ZN5daisy8patch_sm12DaisyPatchSM2B8E
 1694 0058 00000000 		.word	0
 1695 005c 00000000 		.word	.LANCHOR2
 1696 0060 00000000 		.word	_ZN5daisy8patch_sm12DaisyPatchSM2B7E
 1697 0064 00000000 		.word	.LANCHOR1
 1698 0068 00000000 		.word	_Z13AudioCallbackPKPKfPPfj
 1699              		.cfi_endproc
 1700              	.LFE4846:
 1702              		.section	.text.startup._GLOBAL__sub_I_hw,"ax",%progbits
 1703              		.align	1
 1704              		.p2align 2,,3
 1705              		.syntax unified
 1706              		.thumb
 1707              		.thumb_func
 1708              		.fpu fpv5-d16
 1710              	_GLOBAL__sub_I_hw:
 1711              	.LFB5429:
 151:Proliferation.cpp **** 	}
 152:Proliferation.cpp **** }
 1712              		.loc 10 152 1 view -0
 1713              		.cfi_startproc
 1714              		@ args = 0, pretend = 0, frame = 0
 1715              		@ frame_needed = 0, uses_anonymous_args = 0
 1716              	.LBB698:
 1717              	.LBI698:
 1718              		.loc 10 152 1 view .LVU465
 1719              	.LVL106:
 1720              	.LBB699:
 1721              	.LBB700:
 1722              	.LBI700:
  64:../../libDaisy//src/daisy_patch_sm.h ****         ~DaisyPatchSM() {}
 1723              		.loc 2 64 9 view .LVU466
 1724              	.LBB701:
 1725              	.LBB702:
 1726              	.LBI702:
ARM GAS  C:\Users\daniel\AppData\Local\Temp\ccyWpYN0.s 			page 54


  77:../../libDaisy//src/sys/system.h ****     ~System() {}
 1727              		.loc 8 77 5 view .LVU467
  77:../../libDaisy//src/sys/system.h ****     ~System() {}
 1728              		.loc 8 77 5 is_stmt 0 view .LVU468
 1729              	.LBE702:
 1730              	.LBB703:
 1731              	.LBI703:
 1732              		.file 12 "../../libDaisy//src/per/qspi.h"
   1:../../libDaisy//src/per/qspi.h **** #ifndef DSY_QSPI
   2:../../libDaisy//src/per/qspi.h **** #define DSY_QSPI /**< Macro */
   3:../../libDaisy//src/per/qspi.h **** 
   4:../../libDaisy//src/per/qspi.h **** #ifndef UNIT_TEST // for unit tests, a dummy implementation
   5:../../libDaisy//src/per/qspi.h **** 
   6:../../libDaisy//src/per/qspi.h **** #include <cstdint>
   7:../../libDaisy//src/per/qspi.h **** #include "daisy_core.h" // Added for dsy_gpio_pin typedef
   8:../../libDaisy//src/per/qspi.h **** 
   9:../../libDaisy//src/per/qspi.h **** #define DSY_QSPI_TEXT       \
  10:../../libDaisy//src/per/qspi.h ****     __attribute__((section( \
  11:../../libDaisy//src/per/qspi.h ****         ".qspiflash_text"))) /**< used for reading memory in memory_mapped mode. */
  12:../../libDaisy//src/per/qspi.h **** #define DSY_QSPI_DATA       \
  13:../../libDaisy//src/per/qspi.h ****     __attribute__((section( \
  14:../../libDaisy//src/per/qspi.h ****         ".qspiflash_data"))) /**< used for reading memory in memory_mapped mode. */
  15:../../libDaisy//src/per/qspi.h **** #define DSY_QSPI_BSS        \
  16:../../libDaisy//src/per/qspi.h ****     __attribute__((section( \
  17:../../libDaisy//src/per/qspi.h ****         ".qspiflash_bss"))) /**< used for reading memory in memory_mapped mode. */
  18:../../libDaisy//src/per/qspi.h **** 
  19:../../libDaisy//src/per/qspi.h **** namespace daisy
  20:../../libDaisy//src/per/qspi.h **** {
  21:../../libDaisy//src/per/qspi.h **** /** @addtogroup serial
  22:../../libDaisy//src/per/qspi.h **** @{
  23:../../libDaisy//src/per/qspi.h **** */
  24:../../libDaisy//src/per/qspi.h **** 
  25:../../libDaisy//src/per/qspi.h **** /** 
  26:../../libDaisy//src/per/qspi.h ****  Driver for QSPI peripheral to interface with external flash memory. \n 
  27:../../libDaisy//src/per/qspi.h ****     Currently supported QSPI Devices: \n 
  28:../../libDaisy//src/per/qspi.h ****     * IS25LP080D
  29:../../libDaisy//src/per/qspi.h **** */
  30:../../libDaisy//src/per/qspi.h **** class QSPIHandle
  31:../../libDaisy//src/per/qspi.h **** {
  32:../../libDaisy//src/per/qspi.h ****   public:
  33:../../libDaisy//src/per/qspi.h ****     enum Result
  34:../../libDaisy//src/per/qspi.h ****     {
  35:../../libDaisy//src/per/qspi.h ****         OK = 0,
  36:../../libDaisy//src/per/qspi.h ****         ERR
  37:../../libDaisy//src/per/qspi.h ****     };
  38:../../libDaisy//src/per/qspi.h **** 
  39:../../libDaisy//src/per/qspi.h ****     /** Indicates the current status of the module. 
  40:../../libDaisy//src/per/qspi.h ****          *  Warnings are indicated by a leading W.
  41:../../libDaisy//src/per/qspi.h ****          *  Errors are indicated by a leading E and cause an immediate exit.
  42:../../libDaisy//src/per/qspi.h ****          * 
  43:../../libDaisy//src/per/qspi.h ****          *  \param GOOD - No errors have been reported.
  44:../../libDaisy//src/per/qspi.h ****          *  \param E_HAL_ERROR - HAL code did not return HAL_OK.
  45:../../libDaisy//src/per/qspi.h ****          *  \param E_SWITCHING_MODES - An error was encountered while switching QSPI peripheral mod
  46:../../libDaisy//src/per/qspi.h ****          *  \param E_INVALID_MODE - QSPI should not be written to while the program is executing fr
  47:../../libDaisy//src/per/qspi.h ****          */
  48:../../libDaisy//src/per/qspi.h ****     enum Status
  49:../../libDaisy//src/per/qspi.h ****     {
ARM GAS  C:\Users\daniel\AppData\Local\Temp\ccyWpYN0.s 			page 55


  50:../../libDaisy//src/per/qspi.h ****         GOOD = 0,
  51:../../libDaisy//src/per/qspi.h ****         E_HAL_ERROR,
  52:../../libDaisy//src/per/qspi.h ****         E_SWITCHING_MODES,
  53:../../libDaisy//src/per/qspi.h ****         E_INVALID_MODE,
  54:../../libDaisy//src/per/qspi.h ****     };
  55:../../libDaisy//src/per/qspi.h **** 
  56:../../libDaisy//src/per/qspi.h ****     /** Configuration structure for interfacing with QSPI Driver */
  57:../../libDaisy//src/per/qspi.h ****     struct Config
  58:../../libDaisy//src/per/qspi.h ****     {
  59:../../libDaisy//src/per/qspi.h ****         /** Flash Devices supported. (Both of these are more-or-less the same, just different sizes
  60:../../libDaisy//src/per/qspi.h ****         enum Device
  61:../../libDaisy//src/per/qspi.h ****         {
  62:../../libDaisy//src/per/qspi.h ****             IS25LP080D,  /**< & */
  63:../../libDaisy//src/per/qspi.h ****             IS25LP064A,  /**< & */
  64:../../libDaisy//src/per/qspi.h ****             DEVICE_LAST, /**< & */
  65:../../libDaisy//src/per/qspi.h ****         };
  66:../../libDaisy//src/per/qspi.h **** 
  67:../../libDaisy//src/per/qspi.h ****         /** 
  68:../../libDaisy//src/per/qspi.h ****         Modes of operation.
  69:../../libDaisy//src/per/qspi.h ****         Memory Mapped mode: QSPI configured so that the QSPI can be
  70:../../libDaisy//src/per/qspi.h ****         read from starting address 0x90000000. Writing is not
  71:../../libDaisy//src/per/qspi.h ****         possible in this mode. \n 
  72:../../libDaisy//src/per/qspi.h ****         Indirect Polling mode: Device driver enabled. 
  73:../../libDaisy//src/per/qspi.h ****         */
  74:../../libDaisy//src/per/qspi.h ****         enum Mode
  75:../../libDaisy//src/per/qspi.h ****         {
  76:../../libDaisy//src/per/qspi.h ****             MEMORY_MAPPED,    /**< & */
  77:../../libDaisy//src/per/qspi.h ****             INDIRECT_POLLING, /**< & */
  78:../../libDaisy//src/per/qspi.h ****             MODE_LAST,
  79:../../libDaisy//src/per/qspi.h ****         };
  80:../../libDaisy//src/per/qspi.h **** 
  81:../../libDaisy//src/per/qspi.h ****         //SCK,  CE# (active low)
  82:../../libDaisy//src/per/qspi.h ****         struct
  83:../../libDaisy//src/per/qspi.h ****         {
  84:../../libDaisy//src/per/qspi.h ****             dsy_gpio_pin io0; /**< & */
  85:../../libDaisy//src/per/qspi.h ****             dsy_gpio_pin io1; /**< & */
  86:../../libDaisy//src/per/qspi.h ****             dsy_gpio_pin io2; /**< & */
  87:../../libDaisy//src/per/qspi.h ****             dsy_gpio_pin io3; /**< & */
  88:../../libDaisy//src/per/qspi.h ****             dsy_gpio_pin clk; /**< & */
  89:../../libDaisy//src/per/qspi.h ****             dsy_gpio_pin ncs; /**< & */
  90:../../libDaisy//src/per/qspi.h ****         } pin_config;
  91:../../libDaisy//src/per/qspi.h **** 
  92:../../libDaisy//src/per/qspi.h ****         Device device;
  93:../../libDaisy//src/per/qspi.h ****         Mode   mode;
  94:../../libDaisy//src/per/qspi.h ****     };
  95:../../libDaisy//src/per/qspi.h **** 
  96:../../libDaisy//src/per/qspi.h ****     /** 
  97:../../libDaisy//src/per/qspi.h ****         Initializes QSPI peripheral, and Resets, and prepares memory for access.
  98:../../libDaisy//src/per/qspi.h ****         \param config should be populated with the mode, device and pin_config before calling this 
  99:../../libDaisy//src/per/qspi.h ****         \return Result::OK or Result::ERR
 100:../../libDaisy//src/per/qspi.h ****         */
 101:../../libDaisy//src/per/qspi.h ****     Result Init(const Config& config);
 102:../../libDaisy//src/per/qspi.h **** 
 103:../../libDaisy//src/per/qspi.h ****     /** Returns the current config. */
 104:../../libDaisy//src/per/qspi.h ****     const Config& GetConfig() const;
 105:../../libDaisy//src/per/qspi.h **** 
 106:../../libDaisy//src/per/qspi.h ****     // Couldn't this just be called before anything else in init? That
ARM GAS  C:\Users\daniel\AppData\Local\Temp\ccyWpYN0.s 			page 56


 107:../../libDaisy//src/per/qspi.h ****     // would make manually calling it unnecessary.
 108:../../libDaisy//src/per/qspi.h ****     /** 
 109:../../libDaisy//src/per/qspi.h ****         Deinitializes the peripheral
 110:../../libDaisy//src/per/qspi.h ****         This should be called before reinitializing QSPI in a different mode.
 111:../../libDaisy//src/per/qspi.h ****         \return Result::OK or Result::ERR
 112:../../libDaisy//src/per/qspi.h ****         */
 113:../../libDaisy//src/per/qspi.h ****     Result DeInit();
 114:../../libDaisy//src/per/qspi.h **** 
 115:../../libDaisy//src/per/qspi.h ****     /** 
 116:../../libDaisy//src/per/qspi.h ****         Writes a single page to to the specified address on the QSPI chip.
 117:../../libDaisy//src/per/qspi.h ****         For IS25LP*, page size is 256 bytes.
 118:../../libDaisy//src/per/qspi.h ****         \param address Address to write to
 119:../../libDaisy//src/per/qspi.h ****         \param size Buffer size
 120:../../libDaisy//src/per/qspi.h ****         \param buffer Buffer to write
 121:../../libDaisy//src/per/qspi.h ****         \return Result::OK or Result::ERR
 122:../../libDaisy//src/per/qspi.h ****         */
 123:../../libDaisy//src/per/qspi.h ****     Result WritePage(uint32_t address, uint32_t size, uint8_t* buffer);
 124:../../libDaisy//src/per/qspi.h **** 
 125:../../libDaisy//src/per/qspi.h ****     /** 
 126:../../libDaisy//src/per/qspi.h ****         Writes data in buffer to to the QSPI. Starting at address to address+size 
 127:../../libDaisy//src/per/qspi.h ****         \param address Address to write to
 128:../../libDaisy//src/per/qspi.h ****         \param size Buffer size
 129:../../libDaisy//src/per/qspi.h ****         \param buffer Buffer to write
 130:../../libDaisy//src/per/qspi.h ****         \return Result::OK or Result::ERR
 131:../../libDaisy//src/per/qspi.h ****         */
 132:../../libDaisy//src/per/qspi.h ****     Result Write(uint32_t address, uint32_t size, uint8_t* buffer);
 133:../../libDaisy//src/per/qspi.h **** 
 134:../../libDaisy//src/per/qspi.h ****     /** 
 135:../../libDaisy//src/per/qspi.h ****         Erases the area specified on the chip.
 136:../../libDaisy//src/per/qspi.h ****         Erasures will happen by 4K, 32K or 64K increments.
 137:../../libDaisy//src/per/qspi.h ****         Smallest erase possible is 4kB at a time. (on IS25LP*)
 138:../../libDaisy//src/per/qspi.h ****         \param start_addr Address to begin erasing from
 139:../../libDaisy//src/per/qspi.h ****         \param end_addr  Address to stop erasing at
 140:../../libDaisy//src/per/qspi.h ****         \return Result::OK or Result::ERR
 141:../../libDaisy//src/per/qspi.h ****         */
 142:../../libDaisy//src/per/qspi.h ****     Result Erase(uint32_t start_addr, uint32_t end_addr);
 143:../../libDaisy//src/per/qspi.h **** 
 144:../../libDaisy//src/per/qspi.h ****     /**  
 145:../../libDaisy//src/per/qspi.h ****          Erases a single sector of the chip.  
 146:../../libDaisy//src/per/qspi.h ****         TODO: Document the size of this function. 
 147:../../libDaisy//src/per/qspi.h ****         \param address Address of sector to erase
 148:../../libDaisy//src/per/qspi.h ****         \return Result::OK or Result::ERR
 149:../../libDaisy//src/per/qspi.h ****         */
 150:../../libDaisy//src/per/qspi.h ****     Result EraseSector(uint32_t address);
 151:../../libDaisy//src/per/qspi.h **** 
 152:../../libDaisy//src/per/qspi.h ****     /** Returns the current class status. Useful for debugging.
 153:../../libDaisy//src/per/qspi.h ****      *  \returns Status
 154:../../libDaisy//src/per/qspi.h ****      */
 155:../../libDaisy//src/per/qspi.h ****     Status GetStatus();
 156:../../libDaisy//src/per/qspi.h **** 
 157:../../libDaisy//src/per/qspi.h ****     /** Returns a pointer to the actual memory used 
 158:../../libDaisy//src/per/qspi.h ****      *  The memory at this address is read-only
 159:../../libDaisy//src/per/qspi.h ****      *  to write to it use the Write function.
 160:../../libDaisy//src/per/qspi.h ****      * 
 161:../../libDaisy//src/per/qspi.h ****      *  \param offset returns the pointer starting this 
 162:../../libDaisy//src/per/qspi.h ****      *                many bytes into the memory
 163:../../libDaisy//src/per/qspi.h ****     */
ARM GAS  C:\Users\daniel\AppData\Local\Temp\ccyWpYN0.s 			page 57


 164:../../libDaisy//src/per/qspi.h ****     void* GetData(uint32_t offset = 0);
 165:../../libDaisy//src/per/qspi.h **** 
 166:../../libDaisy//src/per/qspi.h ****     QSPIHandle() : pimpl_(nullptr) {}
 1733              		.loc 12 166 5 is_stmt 1 view .LVU469
 1734              	.LBE703:
 1735              	.LBE701:
 1736              	.LBE700:
 1737              	.LBE699:
 1738              	.LBE698:
 1739              		.loc 10 152 1 is_stmt 0 view .LVU470
 1740 0000 08B5     		push	{r3, lr}
 1741              		.cfi_def_cfa_offset 8
 1742              		.cfi_offset 3, -8
 1743              		.cfi_offset 14, -4
 1744              	.LBB741:
 1745              	.LBB737:
 1746              	.LBB730:
 1747              	.LBB726:
 1748              	.LBB706:
 1749              	.LBB704:
 1750              	.LBB705:
 1751              		.loc 12 166 34 view .LVU471
 1752 0002 0D48     		ldr	r0, .L124
 1753 0004 0023     		movs	r3, #0
 1754              	.LBE705:
 1755              	.LBE704:
 1756              	.LBE706:
 1757              	.LBE726:
 1758              	.LBE730:
  10:Proliferation.cpp **** Switch          toggle;
 1759              		.loc 10 10 17 view .LVU472
 1760 0006 0D4A     		ldr	r2, .L124+4
 1761              	.LBB731:
 1762              	.LBB727:
 1763              	.LBB707:
 1764              	.LBB708:
 1765              	.LBB709:
 1766              	.LBB710:
 1767              	.LBB711:
 1768              		.file 13 "../../libDaisy//src/per/i2c.h"
   1:../../libDaisy//src/per/i2c.h **** #pragma once
   2:../../libDaisy//src/per/i2c.h **** #include "daisy_core.h"
   3:../../libDaisy//src/per/i2c.h **** 
   4:../../libDaisy//src/per/i2c.h **** namespace daisy
   5:../../libDaisy//src/per/i2c.h **** {
   6:../../libDaisy//src/per/i2c.h **** /** A handle for interacting with an I2C peripheral. This is a dumb
   7:../../libDaisy//src/per/i2c.h ****  *  gateway that internally points to one of the four I2C peripherals
   8:../../libDaisy//src/per/i2c.h ****  *  after it was initialised. It can then be copied and passed around.
   9:../../libDaisy//src/per/i2c.h ****  *  Use an I2CHandle like this:
  10:../../libDaisy//src/per/i2c.h ****  *  
  11:../../libDaisy//src/per/i2c.h ****  *      // setup the configuration
  12:../../libDaisy//src/per/i2c.h ****  *      I2CHandle::Config i2c_conf;
  13:../../libDaisy//src/per/i2c.h ****  *      i2c_conf.periph = I2CHandle::Config::Peripheral::I2C_1;
  14:../../libDaisy//src/per/i2c.h ****  *      i2c_conf.speed  = I2CHandle::Config::Speed::I2C_400KHZ;
  15:../../libDaisy//src/per/i2c.h ****  *      i2c_conf.mode   = I2CHandle::Config::Mode::Master;
  16:../../libDaisy//src/per/i2c.h ****  *      i2c_conf.pin_config.scl  = {DSY_GPIOB, 8};
  17:../../libDaisy//src/per/i2c.h ****  *      i2c_conf.pin_config.sda  = {DSY_GPIOB, 9};
ARM GAS  C:\Users\daniel\AppData\Local\Temp\ccyWpYN0.s 			page 58


  18:../../libDaisy//src/per/i2c.h ****  *      // initialise the peripheral
  19:../../libDaisy//src/per/i2c.h ****  *      I2CHandle i2c;
  20:../../libDaisy//src/per/i2c.h ****  *      i2c.Init(i2c_conf);
  21:../../libDaisy//src/per/i2c.h ****  *      // now i2c points to the corresponding peripheral and can be used.
  22:../../libDaisy//src/per/i2c.h ****  *      i2c.TransmitBlocking( ... );
  23:../../libDaisy//src/per/i2c.h ****  */
  24:../../libDaisy//src/per/i2c.h **** class I2CHandle
  25:../../libDaisy//src/per/i2c.h **** {
  26:../../libDaisy//src/per/i2c.h ****   public:
  27:../../libDaisy//src/per/i2c.h ****     /** Contains settings for initialising an I2C interface. */
  28:../../libDaisy//src/per/i2c.h ****     struct Config
  29:../../libDaisy//src/per/i2c.h ****     {
  30:../../libDaisy//src/per/i2c.h ****         /** Specifies whether the interface will operate in master or slave mode. */
  31:../../libDaisy//src/per/i2c.h ****         enum class Mode
  32:../../libDaisy//src/per/i2c.h ****         {
  33:../../libDaisy//src/per/i2c.h ****             I2C_MASTER,
  34:../../libDaisy//src/per/i2c.h ****             I2C_SLAVE,
  35:../../libDaisy//src/per/i2c.h ****         };
  36:../../libDaisy//src/per/i2c.h **** 
  37:../../libDaisy//src/per/i2c.h ****         /** Specifices the internal peripheral to use (these are mapped to different pins on the ha
  38:../../libDaisy//src/per/i2c.h ****         enum class Peripheral
  39:../../libDaisy//src/per/i2c.h ****         {
  40:../../libDaisy//src/per/i2c.h ****             I2C_1 = 0, /**< & */
  41:../../libDaisy//src/per/i2c.h ****             I2C_2,     /**< & */
  42:../../libDaisy//src/per/i2c.h ****             I2C_3,     /**< & */
  43:../../libDaisy//src/per/i2c.h ****             I2C_4,     /**< & */
  44:../../libDaisy//src/per/i2c.h ****         };
  45:../../libDaisy//src/per/i2c.h **** 
  46:../../libDaisy//src/per/i2c.h ****         /** Rate at which the clock/data will be sent/received. The device being used will have max
  47:../../libDaisy//src/per/i2c.h ****          *  1MHZ Mode is currently 886kHz
  48:../../libDaisy//src/per/i2c.h ****          */
  49:../../libDaisy//src/per/i2c.h ****         enum class Speed
  50:../../libDaisy//src/per/i2c.h ****         {
  51:../../libDaisy//src/per/i2c.h ****             I2C_100KHZ, /**< & */
  52:../../libDaisy//src/per/i2c.h ****             I2C_400KHZ, /**< & */
  53:../../libDaisy//src/per/i2c.h ****             I2C_1MHZ,   /**< & */
  54:../../libDaisy//src/per/i2c.h ****         };
  55:../../libDaisy//src/per/i2c.h **** 
  56:../../libDaisy//src/per/i2c.h ****         Peripheral periph; /**< & */
  57:../../libDaisy//src/per/i2c.h ****         struct
  58:../../libDaisy//src/per/i2c.h ****         {
  59:../../libDaisy//src/per/i2c.h ****             dsy_gpio_pin scl; /**< & */
  60:../../libDaisy//src/per/i2c.h ****             dsy_gpio_pin sda; /**< & */
  61:../../libDaisy//src/per/i2c.h ****         } pin_config;         /**< & */
  62:../../libDaisy//src/per/i2c.h **** 
  63:../../libDaisy//src/per/i2c.h ****         Speed speed; /**< & */
  64:../../libDaisy//src/per/i2c.h ****         Mode  mode;  /**< & */
  65:../../libDaisy//src/per/i2c.h ****         // 0x10 is chosen as a default to avoid conflicts with reserved addresses
  66:../../libDaisy//src/per/i2c.h ****         uint8_t address = 0x10; /**< & */
  67:../../libDaisy//src/per/i2c.h ****     };
  68:../../libDaisy//src/per/i2c.h **** 
  69:../../libDaisy//src/per/i2c.h ****     /** Return values for I2C functions. */
  70:../../libDaisy//src/per/i2c.h ****     enum class Result
  71:../../libDaisy//src/per/i2c.h ****     {
  72:../../libDaisy//src/per/i2c.h ****         OK, /**< & */
  73:../../libDaisy//src/per/i2c.h ****         ERR /**< & */
  74:../../libDaisy//src/per/i2c.h ****     };
ARM GAS  C:\Users\daniel\AppData\Local\Temp\ccyWpYN0.s 			page 59


  75:../../libDaisy//src/per/i2c.h **** 
  76:../../libDaisy//src/per/i2c.h ****     enum class Direction
  77:../../libDaisy//src/per/i2c.h ****     {
  78:../../libDaisy//src/per/i2c.h ****         TRANSMIT, /**< & */
  79:../../libDaisy//src/per/i2c.h ****         RECEIVE,  /**< & */
  80:../../libDaisy//src/per/i2c.h ****     };
  81:../../libDaisy//src/per/i2c.h **** 
  82:../../libDaisy//src/per/i2c.h ****     I2CHandle() : pimpl_(nullptr) {}
 1769              		.loc 13 82 33 view .LVU473
 1770 0008 0362     		str	r3, [r0, #32]
 1771              	.LBE711:
 1772              	.LBE710:
 1773              	.LBE709:
 1774              	.LBE708:
 1775              	.LBE707:
 1776              	.LBB714:
 1777              	.LBB715:
 1778              	.LBB716:
 1779              		.file 14 "../../libDaisy//src/per/dac.h"
   1:../../libDaisy//src/per/dac.h **** #pragma once
   2:../../libDaisy//src/per/dac.h **** #ifndef DSY_DAC_H
   3:../../libDaisy//src/per/dac.h **** #define DSY_DAC_H
   4:../../libDaisy//src/per/dac.h **** 
   5:../../libDaisy//src/per/dac.h **** #include "daisy_core.h"
   6:../../libDaisy//src/per/dac.h **** 
   7:../../libDaisy//src/per/dac.h **** namespace daisy
   8:../../libDaisy//src/per/dac.h **** {
   9:../../libDaisy//src/per/dac.h **** /** @brief DAC handle for Built-in DAC Peripheral 
  10:../../libDaisy//src/per/dac.h ****  *  @ingroup per_analog
  11:../../libDaisy//src/per/dac.h ****  ** 
  12:../../libDaisy//src/per/dac.h ****  ** For now only Normal Mode is supported,
  13:../../libDaisy//src/per/dac.h ****  ** Sample and hold mode provides reduced power consumption, but requires a bit more setup.
  14:../../libDaisy//src/per/dac.h ****  **
  15:../../libDaisy//src/per/dac.h ****  ** For now connecting the DAC through other internal peripherals is also not supported.
  16:../../libDaisy//src/per/dac.h ****  **
  17:../../libDaisy//src/per/dac.h ****  ** Since the DAC channels have dedicated pins we don't need to pass in a pin config like with
  18:../../libDaisy//src/per/dac.h ****  ** other modules. However, it is still important to not try to use the DAC pins for anything else.
  19:../../libDaisy//src/per/dac.h ****  ** DAC Channel 1 is on PA4, and DAC Channel 2 is on PA5
  20:../../libDaisy//src/per/dac.h ****  ***/
  21:../../libDaisy//src/per/dac.h **** class DacHandle
  22:../../libDaisy//src/per/dac.h **** {
  23:../../libDaisy//src/per/dac.h ****   public:
  24:../../libDaisy//src/per/dac.h ****     /** Return Values for the DacHandle class */
  25:../../libDaisy//src/per/dac.h ****     enum class Result
  26:../../libDaisy//src/per/dac.h ****     {
  27:../../libDaisy//src/per/dac.h ****         OK,
  28:../../libDaisy//src/per/dac.h ****         ERR,
  29:../../libDaisy//src/per/dac.h ****     };
  30:../../libDaisy//src/per/dac.h **** 
  31:../../libDaisy//src/per/dac.h ****     /** Selects which channel(s) will be configured for use. */
  32:../../libDaisy//src/per/dac.h ****     enum class Channel
  33:../../libDaisy//src/per/dac.h ****     {
  34:../../libDaisy//src/per/dac.h ****         ONE,
  35:../../libDaisy//src/per/dac.h ****         TWO,
  36:../../libDaisy//src/per/dac.h ****         BOTH,
  37:../../libDaisy//src/per/dac.h ****     };
  38:../../libDaisy//src/per/dac.h **** 
ARM GAS  C:\Users\daniel\AppData\Local\Temp\ccyWpYN0.s 			page 60


  39:../../libDaisy//src/per/dac.h ****     /** Sets the Mode for the DAC channels.
  40:../../libDaisy//src/per/dac.h ****      **
  41:../../libDaisy//src/per/dac.h ****      ** Polling mode uses the blocking mode to transmit a single value at a time.
  42:../../libDaisy//src/per/dac.h ****      **
  43:../../libDaisy//src/per/dac.h ****      ** DMA mode uses a buffer, and periodically transmits it triggering a 
  44:../../libDaisy//src/per/dac.h ****      ** callback to fill the buffer when it is ready for more samples.
  45:../../libDaisy//src/per/dac.h ****      ***/
  46:../../libDaisy//src/per/dac.h ****     enum class Mode
  47:../../libDaisy//src/per/dac.h ****     {
  48:../../libDaisy//src/per/dac.h ****         POLLING,
  49:../../libDaisy//src/per/dac.h ****         DMA,
  50:../../libDaisy//src/per/dac.h ****     };
  51:../../libDaisy//src/per/dac.h **** 
  52:../../libDaisy//src/per/dac.h ****     /** Sets the number of bits per sample transmitted out of the DAC.
  53:../../libDaisy//src/per/dac.h ****      ** The output range will be: 0V - VDDA
  54:../../libDaisy//src/per/dac.h ****      ** The resolution will be roughly: bitdepth / (VDDA - 0V) 
  55:../../libDaisy//src/per/dac.h ****      ***/
  56:../../libDaisy//src/per/dac.h ****     enum class BitDepth
  57:../../libDaisy//src/per/dac.h ****     {
  58:../../libDaisy//src/per/dac.h ****         BITS_8,
  59:../../libDaisy//src/per/dac.h ****         BITS_12
  60:../../libDaisy//src/per/dac.h ****     };
  61:../../libDaisy//src/per/dac.h **** 
  62:../../libDaisy//src/per/dac.h ****     /** Sets whether the DAC output is buffered for higher drive ability. */
  63:../../libDaisy//src/per/dac.h ****     enum class BufferState
  64:../../libDaisy//src/per/dac.h ****     {
  65:../../libDaisy//src/per/dac.h ****         ENABLED,
  66:../../libDaisy//src/per/dac.h ****         DISABLED,
  67:../../libDaisy//src/per/dac.h ****     };
  68:../../libDaisy//src/per/dac.h **** 
  69:../../libDaisy//src/per/dac.h ****     /** Configuration structure for initializing the DAC structure. */
  70:../../libDaisy//src/per/dac.h ****     struct Config
  71:../../libDaisy//src/per/dac.h ****     {
  72:../../libDaisy//src/per/dac.h ****         /** Target Samplerate in Hz used to configure the internal 
  73:../../libDaisy//src/per/dac.h ****          ** timebase for DMA mode. Does nothing in POLLING mode.
  74:../../libDaisy//src/per/dac.h ****          ** If the value is 0 at Init time this will default to 48000Hz 
  75:../../libDaisy//src/per/dac.h ****          ** otherwise the driver will attempt meet the target.*/
  76:../../libDaisy//src/per/dac.h ****         uint32_t target_samplerate;
  77:../../libDaisy//src/per/dac.h **** 
  78:../../libDaisy//src/per/dac.h ****         Channel     chn;
  79:../../libDaisy//src/per/dac.h ****         Mode        mode;
  80:../../libDaisy//src/per/dac.h ****         BitDepth    bitdepth;
  81:../../libDaisy//src/per/dac.h ****         BufferState buff_state;
  82:../../libDaisy//src/per/dac.h ****     };
  83:../../libDaisy//src/per/dac.h **** 
  84:../../libDaisy//src/per/dac.h ****     DacHandle() : pimpl_(nullptr) {}
 1780              		.loc 14 84 33 view .LVU474
 1781 000a 8362     		str	r3, [r0, #40]
 1782              	.LBE716:
 1783              	.LBE715:
 1784              	.LBE714:
 1785              	.LBE727:
 1786              	.LBE731:
  10:Proliferation.cpp **** Switch          toggle;
 1787              		.loc 10 10 17 view .LVU475
 1788 000c 0C49     		ldr	r1, .L124+8
 1789              	.LBB732:
ARM GAS  C:\Users\daniel\AppData\Local\Temp\ccyWpYN0.s 			page 61


 1790              	.LBB728:
 1791              	.LBB717:
 1792              	.LBB718:
 1793              	.LBB719:
  95:../../libDaisy//src/hid/audio.h ****     ~AudioHandle() {}
 1794              		.loc 7 95 35 view .LVU476
 1795 000e C0E90333 		strd	r3, r3, [r0, #12]
 1796              	.LVL107:
  95:../../libDaisy//src/hid/audio.h ****     ~AudioHandle() {}
 1797              		.loc 7 95 35 view .LVU477
 1798              	.LBE719:
 1799              	.LBE718:
 1800              	.LBE717:
 1801              	.LBB720:
 1802              	.LBI720:
  92:../../libDaisy//src/per/adc.h ****     ~AdcHandle() {}
 1803              		.loc 6 92 5 is_stmt 1 view .LVU478
  92:../../libDaisy//src/per/adc.h ****     ~AdcHandle() {}
 1804              		.loc 6 92 5 is_stmt 0 view .LVU479
 1805              	.LBE720:
 1806              	.LBB721:
 1807              	.LBI721:
  40:../../libDaisy//src/hid/usb.h **** 
 1808              		.loc 5 40 5 is_stmt 1 view .LVU480
  40:../../libDaisy//src/hid/usb.h **** 
 1809              		.loc 5 40 5 is_stmt 0 view .LVU481
 1810              	.LBE721:
 1811              	.LBB722:
 1812              	.LBI707:
  28:../../libDaisy//src/dev/codec_pcm3060.h ****     ~Pcm3060() {}
 1813              		.loc 4 28 5 is_stmt 1 view .LVU482
 1814              	.LBB713:
 1815              	.LBB712:
 1816              	.LBI709:
 1817              		.loc 13 82 5 view .LVU483
 1818              		.loc 13 82 5 is_stmt 0 view .LVU484
 1819              	.LBE712:
 1820              	.LBE713:
 1821              	.LBE722:
 1822              	.LBB723:
 1823              	.LBI714:
 1824              		.loc 14 84 5 is_stmt 1 view .LVU485
 1825              		.loc 14 84 5 is_stmt 0 view .LVU486
 1826              	.LBE723:
 1827              	.LBE728:
 1828              	.LBE732:
 1829              	.LBE737:
 1830              	.LBE741:
  64:../../libDaisy//src/daisy_patch_sm.h ****         ~DaisyPatchSM() {}
 1831              		.loc 2 64 24 is_stmt 1 view .LVU487
 1832              	.LBB742:
 1833              	.LBB738:
 1834              	.LBB733:
 1835              	.LBB729:
 1836              	.LBB724:
 1837              	.LBI724:
  20:../../libDaisy//src/hid/gatein.h ****     /** GateIn~
ARM GAS  C:\Users\daniel\AppData\Local\Temp\ccyWpYN0.s 			page 62


 1838              		.loc 3 20 5 view .LVU488
  20:../../libDaisy//src/hid/gatein.h ****     /** GateIn~
 1839              		.loc 3 20 5 is_stmt 0 view .LVU489
 1840              	.LBE724:
 1841              	.LBB725:
 1842              	.LBI725:
  20:../../libDaisy//src/hid/gatein.h ****     /** GateIn~
 1843              		.loc 3 20 5 is_stmt 1 view .LVU490
  20:../../libDaisy//src/hid/gatein.h ****     /** GateIn~
 1844              		.loc 3 20 5 is_stmt 0 view .LVU491
 1845              	.LBE725:
 1846              	.LBE729:
 1847              	.LBE733:
  10:Proliferation.cpp **** Switch          toggle;
 1848              		.loc 10 10 17 view .LVU492
 1849 0012 FFF7FEFF 		bl	__aeabi_atexit
 1850              	.LVL108:
 1851              	.LBB734:
 1852              	.LBI734:
  41:../../libDaisy//src/hid/switch.h ****     ~Switch() {}
 1853              		.loc 1 41 5 is_stmt 1 view .LVU493
  41:../../libDaisy//src/hid/switch.h ****     ~Switch() {}
 1854              		.loc 1 41 5 is_stmt 0 view .LVU494
 1855              	.LBE734:
  11:Proliferation.cpp **** Switch          button;
 1856              		.loc 10 11 17 view .LVU495
 1857 0016 0B49     		ldr	r1, .L124+12
 1858 0018 084A     		ldr	r2, .L124+4
 1859 001a 0B48     		ldr	r0, .L124+16
 1860 001c FFF7FEFF 		bl	__aeabi_atexit
 1861              	.LVL109:
 1862              	.LBB735:
 1863              	.LBI735:
  41:../../libDaisy//src/hid/switch.h ****     ~Switch() {}
 1864              		.loc 1 41 5 is_stmt 1 view .LVU496
  41:../../libDaisy//src/hid/switch.h ****     ~Switch() {}
 1865              		.loc 1 41 5 is_stmt 0 view .LVU497
 1866              	.LBE735:
  12:Proliferation.cpp **** 
 1867              		.loc 10 12 17 view .LVU498
 1868 0020 064A     		ldr	r2, .L124+4
 1869 0022 0849     		ldr	r1, .L124+12
 1870 0024 0948     		ldr	r0, .L124+20
 1871 0026 FFF7FEFF 		bl	__aeabi_atexit
 1872              	.LVL110:
 1873              	.LBB736:
 1874              	.LBI736:
  94:c:\programdata\chocolatey\lib\gcc-arm-embedded\tools\gcc-arm-none-eabi-10-2020-q4-major\arm-none-eabi\include\c++\10.2.1\array ****     {
 1875              		.loc 9 94 12 is_stmt 1 view .LVU499
 1876              	.LBE736:
 1877              	.LBE738:
 1878              	.LBE742:
  94:c:\programdata\chocolatey\lib\gcc-arm-embedded\tools\gcc-arm-none-eabi-10-2020-q4-major\arm-none-eabi\include\c++\10.2.1\array ****     {
 1879              		.loc 9 94 12 view .LVU500
 1880              	.LBB743:
 1881              	.LBB739:
  18:Proliferation.cpp **** int s = 0;
ARM GAS  C:\Users\daniel\AppData\Local\Temp\ccyWpYN0.s 			page 63


 1882              		.loc 10 18 66 is_stmt 0 view .LVU501
 1883 002a 044A     		ldr	r2, .L124+4
 1884 002c 0849     		ldr	r1, .L124+24
 1885 002e 0948     		ldr	r0, .L124+28
 1886              	.LBE739:
 1887              	.LBE743:
 1888              		.loc 10 152 1 view .LVU502
 1889 0030 BDE80840 		pop	{r3, lr}
 1890              		.cfi_restore 14
 1891              		.cfi_restore 3
 1892              		.cfi_def_cfa_offset 0
 1893              	.LBB744:
 1894              	.LBB740:
  18:Proliferation.cpp **** int s = 0;
 1895              		.loc 10 18 66 view .LVU503
 1896 0034 FFF7FEBF 		b	__aeabi_atexit
 1897              	.LVL111:
 1898              	.L125:
 1899              		.align	2
 1900              	.L124:
 1901 0038 00000000 		.word	.LANCHOR0
 1902 003c 00000000 		.word	__dso_handle
 1903 0040 00000000 		.word	_ZN5daisy8patch_sm12DaisyPatchSMD1Ev
 1904 0044 00000000 		.word	_ZN5daisy6SwitchD1Ev
 1905 0048 00000000 		.word	.LANCHOR2
 1906 004c 00000000 		.word	.LANCHOR1
 1907 0050 00000000 		.word	_ZNSt5arrayI12SampleBufferILj240000EELj8EED1Ev
 1908 0054 00000000 		.word	buffers
 1909              	.LBE740:
 1910              	.LBE744:
 1911              		.cfi_endproc
 1912              	.LFE5429:
 1914              		.section	.init_array,"aw",%init_array
 1915              		.align	2
 1916 0000 00000000 		.word	_GLOBAL__sub_I_hw(target1)
 1917              		.global	s
 1918              		.global	buffers
 1919              		.global	button
 1920              		.global	toggle
 1921              		.global	hw
 1922              		.section	.bss.button,"aw",%nobits
 1923              		.align	2
 1924              		.set	.LANCHOR1,. + 0
 1927              	button:
 1928 0000 00000000 		.space	16
 1928      00000000 
 1928      00000000 
 1928      00000000 
 1929              		.section	.bss.hw,"aw",%nobits
 1930              		.align	2
 1931              		.set	.LANCHOR0,. + 0
 1934              	hw:
 1935 0000 00000000 		.space	464
 1935      00000000 
 1935      00000000 
 1935      00000000 
 1935      00000000 
ARM GAS  C:\Users\daniel\AppData\Local\Temp\ccyWpYN0.s 			page 64


 1936              		.section	.bss.s,"aw",%nobits
 1937              		.align	2
 1938              		.set	.LANCHOR3,. + 0
 1941              	s:
 1942 0000 00000000 		.space	4
 1943              		.section	.bss.toggle,"aw",%nobits
 1944              		.align	2
 1945              		.set	.LANCHOR2,. + 0
 1948              	toggle:
 1949 0000 00000000 		.space	16
 1949      00000000 
 1949      00000000 
 1949      00000000 
 1950              		.section	.sdram_bss,"aw"
 1951              		.align	2
 1954              	buffers:
 1955 0000 00000000 		.space	7680128
 1955      00000000 
 1955      00000000 
 1955      00000000 
 1955      00000000 
 1956              		.text
 1957              	.Letext0:
 1958              		.file 15 "c:\\programdata\\chocolatey\\lib\\gcc-arm-embedded\\tools\\gcc-arm-none-eabi-10-2020-q4-
 1959              		.file 16 "c:\\programdata\\chocolatey\\lib\\gcc-arm-embedded\\tools\\gcc-arm-none-eabi-10-2020-q4-
 1960              		.file 17 "c:\\programdata\\chocolatey\\lib\\gcc-arm-embedded\\tools\\gcc-arm-none-eabi-10-2020-q4-
 1961              		.file 18 "c:\\programdata\\chocolatey\\lib\\gcc-arm-embedded\\tools\\gcc-arm-none-eabi-10-2020-q4-
 1962              		.file 19 "c:\\programdata\\chocolatey\\lib\\gcc-arm-embedded\\tools\\gcc-arm-none-eabi-10-2020-q4-
 1963              		.file 20 "c:\\programdata\\chocolatey\\lib\\gcc-arm-embedded\\tools\\gcc-arm-none-eabi-10-2020-q4-
 1964              		.file 21 "c:\\programdata\\chocolatey\\lib\\gcc-arm-embedded\\tools\\gcc-arm-none-eabi-10-2020-q4-
 1965              		.file 22 "c:\\programdata\\chocolatey\\lib\\gcc-arm-embedded\\tools\\gcc-arm-none-eabi-10-2020-q4-
 1966              		.file 23 "c:\\programdata\\chocolatey\\lib\\gcc-arm-embedded\\tools\\gcc-arm-none-eabi-10-2020-q4-
 1967              		.file 24 "c:\\programdata\\chocolatey\\lib\\gcc-arm-embedded\\tools\\gcc-arm-none-eabi-10-2020-q4-
 1968              		.file 25 "c:\\programdata\\chocolatey\\lib\\gcc-arm-embedded\\tools\\gcc-arm-none-eabi-10-2020-q4-
 1969              		.file 26 "c:\\programdata\\chocolatey\\lib\\gcc-arm-embedded\\tools\\gcc-arm-none-eabi-10-2020-q4-
 1970              		.file 27 "c:\\programdata\\chocolatey\\lib\\gcc-arm-embedded\\tools\\gcc-arm-none-eabi-10-2020-q4-
 1971              		.file 28 "c:\\programdata\\chocolatey\\lib\\gcc-arm-embedded\\tools\\gcc-arm-none-eabi-10-2020-q4-
 1972              		.file 29 "c:\\programdata\\chocolatey\\lib\\gcc-arm-embedded\\tools\\gcc-arm-none-eabi-10-2020-q4-
 1973              		.file 30 "c:\\programdata\\chocolatey\\lib\\gcc-arm-embedded\\tools\\gcc-arm-none-eabi-10-2020-q4-
 1974              		.file 31 "c:\\programdata\\chocolatey\\lib\\gcc-arm-embedded\\tools\\gcc-arm-none-eabi-10-2020-q4-
 1975              		.file 32 "c:\\programdata\\chocolatey\\lib\\gcc-arm-embedded\\tools\\gcc-arm-none-eabi-10-2020-q4-
 1976              		.file 33 "c:\\programdata\\chocolatey\\lib\\gcc-arm-embedded\\tools\\gcc-arm-none-eabi-10-2020-q4-
 1977              		.file 34 "c:\\programdata\\chocolatey\\lib\\gcc-arm-embedded\\tools\\gcc-arm-none-eabi-10-2020-q4-
 1978              		.file 35 "c:\\programdata\\chocolatey\\lib\\gcc-arm-embedded\\tools\\gcc-arm-none-eabi-10-2020-q4-
 1979              		.file 36 "c:\\programdata\\chocolatey\\lib\\gcc-arm-embedded\\tools\\gcc-arm-none-eabi-10-2020-q4-
 1980              		.file 37 "c:\\programdata\\chocolatey\\lib\\gcc-arm-embedded\\tools\\gcc-arm-none-eabi-10-2020-q4-
 1981              		.file 38 "c:\\programdata\\chocolatey\\lib\\gcc-arm-embedded\\tools\\gcc-arm-none-eabi-10-2020-q4-
 1982              		.file 39 "c:\\programdata\\chocolatey\\lib\\gcc-arm-embedded\\tools\\gcc-arm-none-eabi-10-2020-q4-
 1983              		.file 40 "c:\\programdata\\chocolatey\\lib\\gcc-arm-embedded\\tools\\gcc-arm-none-eabi-10-2020-q4-
 1984              		.file 41 "c:\\programdata\\chocolatey\\lib\\gcc-arm-embedded\\tools\\gcc-arm-none-eabi-10-2020-q4-
 1985              		.file 42 "c:\\programdata\\chocolatey\\lib\\gcc-arm-embedded\\tools\\gcc-arm-none-eabi-10-2020-q4-
 1986              		.file 43 "c:\\programdata\\chocolatey\\lib\\gcc-arm-embedded\\tools\\gcc-arm-none-eabi-10-2020-q4-
 1987              		.file 44 "../../libDaisy//src/daisy_core.h"
 1988              		.file 45 "../../libDaisy//src/per/tim.h"
 1989              		.file 46 "../../libDaisy//src/per/sai.h"
 1990              		.file 47 "../../libDaisy//src/hid/ctrl.h"
 1991              		.file 48 "../../libDaisy//src/util/wav_format.h"
ARM GAS  C:\Users\daniel\AppData\Local\Temp\ccyWpYN0.s 			page 65


 1992              		.file 49 "../../libDaisy//src/dev/max11300.h"
 1993              		.file 50 "../../libDaisy//src/per/gpio.h"
 1994              		.file 51 "../../libDaisy//src/dev/sdram.h"
 1995              		.file 52 "c:\\programdata\\chocolatey\\lib\\gcc-arm-embedded\\tools\\gcc-arm-none-eabi-10-2020-q4-
 1996              		.file 53 "c:\\programdata\\chocolatey\\lib\\gcc-arm-embedded\\tools\\gcc-arm-none-eabi-10-2020-q4-
 1997              		.file 54 "c:\\programdata\\chocolatey\\lib\\gcc-arm-embedded\\tools\\gcc-arm-none-eabi-10-2020-q4-
 1998              		.file 55 "../../DaisySP//Source/Control/adenv.h"
 1999              		.file 56 "../../DaisySP//Source/Utility/dsp.h"
 2000              		.file 57 "c:\\programdata\\chocolatey\\lib\\gcc-arm-embedded\\tools\\gcc-arm-none-eabi-10-2020-q4-
 2001              		.file 58 "c:\\programdata\\chocolatey\\lib\\gcc-arm-embedded\\tools\\gcc-arm-none-eabi-10-2020-q4-
 2002              		.file 59 "<built-in>"
 2003              		.file 60 "../../libDaisy//src/dev/sr_595.h"
ARM GAS  C:\Users\daniel\AppData\Local\Temp\ccyWpYN0.s 			page 66


DEFINED SYMBOLS
                            *ABS*:00000000 Proliferation.cpp
C:\Users\daniel\AppData\Local\Temp\ccyWpYN0.s:17     .text._ZN5daisy6SwitchD2Ev:00000000 $t
C:\Users\daniel\AppData\Local\Temp\ccyWpYN0.s:26     .text._ZN5daisy6SwitchD2Ev:00000000 _ZN5daisy6SwitchD2Ev
C:\Users\daniel\AppData\Local\Temp\ccyWpYN0.s:26     .text._ZN5daisy6SwitchD2Ev:00000000 _ZN5daisy6SwitchD1Ev
C:\Users\daniel\AppData\Local\Temp\ccyWpYN0.s:43     .text._ZN5daisy8patch_sm12DaisyPatchSMD2Ev:00000000 $t
C:\Users\daniel\AppData\Local\Temp\ccyWpYN0.s:51     .text._ZN5daisy8patch_sm12DaisyPatchSMD2Ev:00000000 _ZN5daisy8patch_sm12DaisyPatchSMD2Ev
C:\Users\daniel\AppData\Local\Temp\ccyWpYN0.s:51     .text._ZN5daisy8patch_sm12DaisyPatchSMD2Ev:00000000 _ZN5daisy8patch_sm12DaisyPatchSMD1Ev
C:\Users\daniel\AppData\Local\Temp\ccyWpYN0.s:109    .text._ZNSt5arrayI12SampleBufferILj240000EELj8EED2Ev:00000000 $t
C:\Users\daniel\AppData\Local\Temp\ccyWpYN0.s:117    .text._ZNSt5arrayI12SampleBufferILj240000EELj8EED2Ev:00000000 _ZNSt5arrayI12SampleBufferILj240000EELj8EED2Ev
C:\Users\daniel\AppData\Local\Temp\ccyWpYN0.s:117    .text._ZNSt5arrayI12SampleBufferILj240000EELj8EED2Ev:00000000 _ZNSt5arrayI12SampleBufferILj240000EELj8EED1Ev
C:\Users\daniel\AppData\Local\Temp\ccyWpYN0.s:134    .text._Z10getSamplesv:00000000 $t
C:\Users\daniel\AppData\Local\Temp\ccyWpYN0.s:142    .text._Z10getSamplesv:00000000 _Z10getSamplesv
C:\Users\daniel\AppData\Local\Temp\ccyWpYN0.s:309    .text._Z10getSamplesv:00000072 $d
C:\Users\daniel\AppData\Local\Temp\ccyWpYN0.s:317    .text._Z10getSamplesv:0000007a $t
C:\Users\daniel\AppData\Local\Temp\ccyWpYN0.s:1110   .text._Z10getSamplesv:000002b8 $d
C:\Users\daniel\AppData\Local\Temp\ccyWpYN0.s:1954   .sdram_bss:00000000 buffers
C:\Users\daniel\AppData\Local\Temp\ccyWpYN0.s:1135   .text._Z10getSamplesv:00000300 $t
C:\Users\daniel\AppData\Local\Temp\ccyWpYN0.s:1207   .text._Z10getSamplesv:00000348 $d
C:\Users\daniel\AppData\Local\Temp\ccyWpYN0.s:1214   .text._Z13AudioCallbackPKPKfPPfj:00000000 $t
C:\Users\daniel\AppData\Local\Temp\ccyWpYN0.s:1222   .text._Z13AudioCallbackPKPKfPPfj:00000000 _Z13AudioCallbackPKPKfPPfj
C:\Users\daniel\AppData\Local\Temp\ccyWpYN0.s:1518   .text._Z13AudioCallbackPKPKfPPfj:000000e8 $d
C:\Users\daniel\AppData\Local\Temp\ccyWpYN0.s:1526   .text._Z12InitSamplersv:00000000 $t
C:\Users\daniel\AppData\Local\Temp\ccyWpYN0.s:1534   .text._Z12InitSamplersv:00000000 _Z12InitSamplersv
C:\Users\daniel\AppData\Local\Temp\ccyWpYN0.s:1609   .text._Z12InitSamplersv:00000030 $d
C:\Users\daniel\AppData\Local\Temp\ccyWpYN0.s:1616   .text.startup.main:00000000 $t
C:\Users\daniel\AppData\Local\Temp\ccyWpYN0.s:1624   .text.startup.main:00000000 main
C:\Users\daniel\AppData\Local\Temp\ccyWpYN0.s:1692   .text.startup.main:00000050 $d
C:\Users\daniel\AppData\Local\Temp\ccyWpYN0.s:1703   .text.startup._GLOBAL__sub_I_hw:00000000 $t
C:\Users\daniel\AppData\Local\Temp\ccyWpYN0.s:1710   .text.startup._GLOBAL__sub_I_hw:00000000 _GLOBAL__sub_I_hw
C:\Users\daniel\AppData\Local\Temp\ccyWpYN0.s:1901   .text.startup._GLOBAL__sub_I_hw:00000038 $d
C:\Users\daniel\AppData\Local\Temp\ccyWpYN0.s:1915   .init_array:00000000 $d
C:\Users\daniel\AppData\Local\Temp\ccyWpYN0.s:1941   .bss.s:00000000 s
C:\Users\daniel\AppData\Local\Temp\ccyWpYN0.s:1927   .bss.button:00000000 button
C:\Users\daniel\AppData\Local\Temp\ccyWpYN0.s:1948   .bss.toggle:00000000 toggle
C:\Users\daniel\AppData\Local\Temp\ccyWpYN0.s:1934   .bss.hw:00000000 hw
C:\Users\daniel\AppData\Local\Temp\ccyWpYN0.s:1923   .bss.button:00000000 $d
C:\Users\daniel\AppData\Local\Temp\ccyWpYN0.s:1930   .bss.hw:00000000 $d
C:\Users\daniel\AppData\Local\Temp\ccyWpYN0.s:1937   .bss.s:00000000 $d
C:\Users\daniel\AppData\Local\Temp\ccyWpYN0.s:1944   .bss.toggle:00000000 $d
C:\Users\daniel\AppData\Local\Temp\ccyWpYN0.s:1951   .sdram_bss:00000000 $d
                           .group:00000000 _ZN5daisy6SwitchD5Ev
                           .group:00000000 _ZN5daisy8patch_sm12DaisyPatchSMD5Ev
                           .group:00000000 _ZNSt5arrayI12SampleBufferILj240000EELj8EED5Ev

UNDEFINED SYMBOLS
_ZN5daisy8patch_sm12DaisyPatchSM21ProcessAnalogControlsEv
_ZN5daisy8patch_sm12DaisyPatchSM22ProcessDigitalControlsEv
_ZN5daisy6Switch8DebounceEv
rand
_ZN5daisy6GateIn4TrigEv
memset
_ZN5daisy8patch_sm12DaisyPatchSM4InitEv
_ZN5daisy6Switch4InitE12dsy_gpio_pinf
_ZN5daisy8patch_sm12DaisyPatchSM17SetAudioBlockSizeEj
_ZN5daisy8patch_sm12DaisyPatchSM18SetAudioSampleRateENS_9SaiHandle6Config10SampleRateE
_ZN5daisy8patch_sm12DaisyPatchSM10StartAudioEPFvPKPKfPPfjE
ARM GAS  C:\Users\daniel\AppData\Local\Temp\ccyWpYN0.s 			page 67


_ZN5daisy8patch_sm12DaisyPatchSM2B8E
_ZN5daisy8patch_sm12DaisyPatchSM2B7E
__aeabi_atexit
__dso_handle
