ARM GAS  C:\Users\daniel\AppData\Local\Temp\cc1VxNgq.s 			page 1


   1              		.cpu cortex-m7
   2              		.eabi_attribute 28, 1
   3              		.eabi_attribute 20, 1
   4              		.eabi_attribute 21, 1
   5              		.eabi_attribute 23, 3
   6              		.eabi_attribute 24, 1
   7              		.eabi_attribute 25, 1
   8              		.eabi_attribute 26, 1
   9              		.eabi_attribute 30, 2
  10              		.eabi_attribute 34, 1
  11              		.eabi_attribute 18, 4
  12              		.file	"Proliferation.cpp"
  13              		.text
  14              	.Ltext0:
  15              		.cfi_sections	.debug_frame
  16              		.section	.text._ZN5daisy6SwitchD2Ev,"axG",%progbits,_ZN5daisy6SwitchD5Ev,comdat
  17              		.align	1
  18              		.p2align 2,,3
  19              		.weak	_ZN5daisy6SwitchD2Ev
  20              		.arch armv7e-m
  21              		.syntax unified
  22              		.thumb
  23              		.thumb_func
  24              		.fpu fpv5-d16
  26              	_ZN5daisy6SwitchD2Ev:
  27              	.LVL0:
  28              	.LFB1605:
  29              		.file 1 "../../libDaisy//src/hid/switch.h"
   1:../../libDaisy//src/hid/switch.h **** #pragma once
   2:../../libDaisy//src/hid/switch.h **** #ifndef DSY_SWITCH_H
   3:../../libDaisy//src/hid/switch.h **** #define DSY_SWITCH_H
   4:../../libDaisy//src/hid/switch.h **** #include "daisy_core.h"
   5:../../libDaisy//src/hid/switch.h **** #include "per/gpio.h"
   6:../../libDaisy//src/hid/switch.h **** #include "sys/system.h"
   7:../../libDaisy//src/hid/switch.h **** 
   8:../../libDaisy//src/hid/switch.h **** namespace daisy
   9:../../libDaisy//src/hid/switch.h **** {
  10:../../libDaisy//src/hid/switch.h **** /** 
  11:../../libDaisy//src/hid/switch.h ****     Generic Class for handling momentary/latching switches \n 
  12:../../libDaisy//src/hid/switch.h ****     Inspired/influenced by Mutable Instruments (pichenettes) Switch classes
  13:../../libDaisy//src/hid/switch.h ****     @author Stephen Hensley
  14:../../libDaisy//src/hid/switch.h ****     @date December 2019
  15:../../libDaisy//src/hid/switch.h ****     @ingroup controls
  16:../../libDaisy//src/hid/switch.h **** */
  17:../../libDaisy//src/hid/switch.h **** class Switch
  18:../../libDaisy//src/hid/switch.h **** {
  19:../../libDaisy//src/hid/switch.h ****   public:
  20:../../libDaisy//src/hid/switch.h ****     /** Specifies the expected behavior of the switch */
  21:../../libDaisy//src/hid/switch.h ****     enum Type
  22:../../libDaisy//src/hid/switch.h ****     {
  23:../../libDaisy//src/hid/switch.h ****         TYPE_TOGGLE,    /**< & */
  24:../../libDaisy//src/hid/switch.h ****         TYPE_MOMENTARY, /**< & */
  25:../../libDaisy//src/hid/switch.h ****     };
  26:../../libDaisy//src/hid/switch.h ****     /** Specifies whether the pressed is HIGH or LOW. */
  27:../../libDaisy//src/hid/switch.h ****     enum Polarity
  28:../../libDaisy//src/hid/switch.h ****     {
  29:../../libDaisy//src/hid/switch.h ****         POLARITY_NORMAL,   /**< & */
ARM GAS  C:\Users\daniel\AppData\Local\Temp\cc1VxNgq.s 			page 2


  30:../../libDaisy//src/hid/switch.h ****         POLARITY_INVERTED, /**< & */
  31:../../libDaisy//src/hid/switch.h ****     };
  32:../../libDaisy//src/hid/switch.h **** 
  33:../../libDaisy//src/hid/switch.h ****     /** Specifies whether to use built-in Pull Up/Down resistors to hold button at a given state wh
  34:../../libDaisy//src/hid/switch.h ****     enum Pull
  35:../../libDaisy//src/hid/switch.h ****     {
  36:../../libDaisy//src/hid/switch.h ****         PULL_UP,   /**< & */
  37:../../libDaisy//src/hid/switch.h ****         PULL_DOWN, /**< & */
  38:../../libDaisy//src/hid/switch.h ****         PULL_NONE, /**< & */
  39:../../libDaisy//src/hid/switch.h ****     };
  40:../../libDaisy//src/hid/switch.h **** 
  41:../../libDaisy//src/hid/switch.h ****     Switch() {}
  42:../../libDaisy//src/hid/switch.h ****     ~Switch() {}
  30              		.loc 1 42 5 view -0
  31              		.cfi_startproc
  32              		@ args = 0, pretend = 0, frame = 0
  33              		@ frame_needed = 0, uses_anonymous_args = 0
  34              		@ link register save eliminated.
  35              		.loc 1 42 16 is_stmt 0 view .LVU1
  36 0000 7047     		bx	lr
  37              		.cfi_endproc
  38              	.LFE1605:
  40              		.weak	_ZN5daisy6SwitchD1Ev
  41              		.thumb_set _ZN5daisy6SwitchD1Ev,_ZN5daisy6SwitchD2Ev
  42 0002 00BF     		.section	.text._ZN5daisy8patch_sm12DaisyPatchSMD2Ev,"axG",%progbits,_ZN5daisy8patch_sm12DaisyPatch
  43              		.align	1
  44              		.p2align 2,,3
  45              		.weak	_ZN5daisy8patch_sm12DaisyPatchSMD2Ev
  46              		.syntax unified
  47              		.thumb
  48              		.thumb_func
  49              		.fpu fpv5-d16
  51              	_ZN5daisy8patch_sm12DaisyPatchSMD2Ev:
  52              	.LVL1:
  53              	.LFB2528:
  54              		.file 2 "../../libDaisy//src/daisy_patch_sm.h"
   1:../../libDaisy//src/daisy_patch_sm.h **** #pragma once
   2:../../libDaisy//src/daisy_patch_sm.h **** 
   3:../../libDaisy//src/daisy_patch_sm.h **** #include "daisy.h"
   4:../../libDaisy//src/daisy_patch_sm.h **** 
   5:../../libDaisy//src/daisy_patch_sm.h **** namespace daisy
   6:../../libDaisy//src/daisy_patch_sm.h **** {
   7:../../libDaisy//src/daisy_patch_sm.h **** namespace patch_sm
   8:../../libDaisy//src/daisy_patch_sm.h **** {
   9:../../libDaisy//src/daisy_patch_sm.h ****     /** Accessors for the Analog Controls. 
  10:../../libDaisy//src/daisy_patch_sm.h ****      *  These cover the 8x Bipolar CV inputs
  11:../../libDaisy//src/daisy_patch_sm.h ****      *  as well as the 4x 0-3V3 ADC inputs on
  12:../../libDaisy//src/daisy_patch_sm.h ****      *  the hardware 
  13:../../libDaisy//src/daisy_patch_sm.h ****      * 
  14:../../libDaisy//src/daisy_patch_sm.h ****      *  When reading a value with DaisyPatchSM::GetAdcValue()
  15:../../libDaisy//src/daisy_patch_sm.h ****      * 
  16:../../libDaisy//src/daisy_patch_sm.h ****      *  patch.GetAdcValue(patch_sm::CV_1);
  17:../../libDaisy//src/daisy_patch_sm.h ****      */
  18:../../libDaisy//src/daisy_patch_sm.h ****     enum
  19:../../libDaisy//src/daisy_patch_sm.h ****     {
  20:../../libDaisy//src/daisy_patch_sm.h ****         CV_1 = 0,
  21:../../libDaisy//src/daisy_patch_sm.h ****         CV_2,
ARM GAS  C:\Users\daniel\AppData\Local\Temp\cc1VxNgq.s 			page 3


  22:../../libDaisy//src/daisy_patch_sm.h ****         CV_3,
  23:../../libDaisy//src/daisy_patch_sm.h ****         CV_4,
  24:../../libDaisy//src/daisy_patch_sm.h ****         CV_5,
  25:../../libDaisy//src/daisy_patch_sm.h ****         CV_6,
  26:../../libDaisy//src/daisy_patch_sm.h ****         CV_7,
  27:../../libDaisy//src/daisy_patch_sm.h ****         CV_8,
  28:../../libDaisy//src/daisy_patch_sm.h ****         ADC_9,
  29:../../libDaisy//src/daisy_patch_sm.h ****         ADC_10,
  30:../../libDaisy//src/daisy_patch_sm.h ****         ADC_11,
  31:../../libDaisy//src/daisy_patch_sm.h ****         ADC_12,
  32:../../libDaisy//src/daisy_patch_sm.h ****         ADC_LAST,
  33:../../libDaisy//src/daisy_patch_sm.h ****     };
  34:../../libDaisy//src/daisy_patch_sm.h **** 
  35:../../libDaisy//src/daisy_patch_sm.h ****     /** Enum for addressing the CV Outputs via the WriteCvOut function. */
  36:../../libDaisy//src/daisy_patch_sm.h ****     enum
  37:../../libDaisy//src/daisy_patch_sm.h ****     {
  38:../../libDaisy//src/daisy_patch_sm.h ****         CV_OUT_BOTH = 0,
  39:../../libDaisy//src/daisy_patch_sm.h ****         CV_OUT_1,
  40:../../libDaisy//src/daisy_patch_sm.h ****         CV_OUT_2,
  41:../../libDaisy//src/daisy_patch_sm.h ****     };
  42:../../libDaisy//src/daisy_patch_sm.h **** 
  43:../../libDaisy//src/daisy_patch_sm.h **** 
  44:../../libDaisy//src/daisy_patch_sm.h ****     /** @brief Board support file for DaisyPatchSM hardware
  45:../../libDaisy//src/daisy_patch_sm.h ****      *  @author shensley
  46:../../libDaisy//src/daisy_patch_sm.h ****      *  @ingroup boards
  47:../../libDaisy//src/daisy_patch_sm.h ****      * 
  48:../../libDaisy//src/daisy_patch_sm.h ****      *  Daisy Patch SM is a complete Eurorack module DSP engine.
  49:../../libDaisy//src/daisy_patch_sm.h ****      *  Based on the Daisy Seed, with circuits added for 
  50:../../libDaisy//src/daisy_patch_sm.h ****      *  interfacing directly with eurorack modular synthesizers.
  51:../../libDaisy//src/daisy_patch_sm.h ****      */
  52:../../libDaisy//src/daisy_patch_sm.h ****     class DaisyPatchSM
  53:../../libDaisy//src/daisy_patch_sm.h ****     {
  54:../../libDaisy//src/daisy_patch_sm.h ****       public:
  55:../../libDaisy//src/daisy_patch_sm.h ****         /** Helper for mapping pins, and accessing them using the `GetPin` function */
  56:../../libDaisy//src/daisy_patch_sm.h ****         enum class PinBank
  57:../../libDaisy//src/daisy_patch_sm.h ****         {
  58:../../libDaisy//src/daisy_patch_sm.h ****             A,
  59:../../libDaisy//src/daisy_patch_sm.h ****             B,
  60:../../libDaisy//src/daisy_patch_sm.h ****             C,
  61:../../libDaisy//src/daisy_patch_sm.h ****             D
  62:../../libDaisy//src/daisy_patch_sm.h ****         };
  63:../../libDaisy//src/daisy_patch_sm.h **** 
  64:../../libDaisy//src/daisy_patch_sm.h ****         DaisyPatchSM() {}
  65:../../libDaisy//src/daisy_patch_sm.h ****         ~DaisyPatchSM() {}
  55              		.loc 2 65 9 is_stmt 1 view -0
  56              		.cfi_startproc
  57              		@ args = 0, pretend = 0, frame = 0
  58              		@ frame_needed = 0, uses_anonymous_args = 0
  59              		@ link register save eliminated.
  60              	.LBB595:
  61              	.LBI595:
  62              		.file 3 "../../libDaisy//src/hid/gatein.h"
   1:../../libDaisy//src/hid/gatein.h **** #pragma once
   2:../../libDaisy//src/hid/gatein.h **** #ifndef DSY_GATEIN_H
   3:../../libDaisy//src/hid/gatein.h **** #define DSY_GATEIN_H
   4:../../libDaisy//src/hid/gatein.h **** #include "per/gpio.h"
   5:../../libDaisy//src/hid/gatein.h **** 
ARM GAS  C:\Users\daniel\AppData\Local\Temp\cc1VxNgq.s 			page 4


   6:../../libDaisy//src/hid/gatein.h **** namespace daisy
   7:../../libDaisy//src/hid/gatein.h **** {
   8:../../libDaisy//src/hid/gatein.h **** /**
   9:../../libDaisy//src/hid/gatein.h ****    @brief Generic Class for handling gate inputs through GPIO.
  10:../../libDaisy//src/hid/gatein.h ****    @author Stephen Hensley
  11:../../libDaisy//src/hid/gatein.h ****    @date    March 2020
  12:../../libDaisy//src/hid/gatein.h ****    @ingroup controls
  13:../../libDaisy//src/hid/gatein.h **** */
  14:../../libDaisy//src/hid/gatein.h **** class GateIn
  15:../../libDaisy//src/hid/gatein.h **** {
  16:../../libDaisy//src/hid/gatein.h ****   public:
  17:../../libDaisy//src/hid/gatein.h ****     /** GateIn 
  18:../../libDaisy//src/hid/gatein.h ****     Constructor 
  19:../../libDaisy//src/hid/gatein.h ****     */
  20:../../libDaisy//src/hid/gatein.h ****     GateIn() {}
  21:../../libDaisy//src/hid/gatein.h ****     /** GateIn~
  22:../../libDaisy//src/hid/gatein.h ****     Destructor 
  23:../../libDaisy//src/hid/gatein.h ****     */
  24:../../libDaisy//src/hid/gatein.h ****     ~GateIn() {}
  63              		.loc 3 24 5 view .LVU3
  64              		.loc 3 24 5 is_stmt 0 view .LVU4
  65              	.LBE595:
  66              	.LBB596:
  67              	.LBI596:
  68              		.loc 3 24 5 is_stmt 1 view .LVU5
  69              		.loc 3 24 5 is_stmt 0 view .LVU6
  70              	.LBE596:
  71              	.LBB597:
  72              	.LBI597:
  73              		.file 4 "../../libDaisy//src/dev/codec_pcm3060.h"
   1:../../libDaisy//src/dev/codec_pcm3060.h **** #pragma once
   2:../../libDaisy//src/dev/codec_pcm3060.h **** #ifndef DSY_CODEC_PCM3060_H
   3:../../libDaisy//src/dev/codec_pcm3060.h **** #define DSY_CODEC_PCM3060_H
   4:../../libDaisy//src/dev/codec_pcm3060.h **** #include "per/i2c.h"
   5:../../libDaisy//src/dev/codec_pcm3060.h **** namespace daisy
   6:../../libDaisy//src/dev/codec_pcm3060.h **** {
   7:../../libDaisy//src/dev/codec_pcm3060.h **** /**
   8:../../libDaisy//src/dev/codec_pcm3060.h ****  * @brief Driver for the TI PCM3060 Audio Codec.
   9:../../libDaisy//src/dev/codec_pcm3060.h ****  * @addtogroup codec
  10:../../libDaisy//src/dev/codec_pcm3060.h ****  * 
  11:../../libDaisy//src/dev/codec_pcm3060.h ****  * For now this is a limited interface that uses I2C to communicate with the PCM3060
  12:../../libDaisy//src/dev/codec_pcm3060.h ****  * The device can also be accessed with SPI, which is not yet supported.
  13:../../libDaisy//src/dev/codec_pcm3060.h ****  * 
  14:../../libDaisy//src/dev/codec_pcm3060.h ****  * For now all registers are set to their defaults, and the Init function will 
  15:../../libDaisy//src/dev/codec_pcm3060.h ****  * perform a MRST and SRST before setting the format to 24bit LJ, and disabling 
  16:../../libDaisy//src/dev/codec_pcm3060.h ****  * power save for both the ADC and DAC.
  17:../../libDaisy//src/dev/codec_pcm3060.h ****  *
  18:../../libDaisy//src/dev/codec_pcm3060.h ****  */
  19:../../libDaisy//src/dev/codec_pcm3060.h **** class Pcm3060
  20:../../libDaisy//src/dev/codec_pcm3060.h **** {
  21:../../libDaisy//src/dev/codec_pcm3060.h ****   public:
  22:../../libDaisy//src/dev/codec_pcm3060.h ****     enum class Result
  23:../../libDaisy//src/dev/codec_pcm3060.h ****     {
  24:../../libDaisy//src/dev/codec_pcm3060.h ****         OK,
  25:../../libDaisy//src/dev/codec_pcm3060.h ****         ERR,
  26:../../libDaisy//src/dev/codec_pcm3060.h ****     };
  27:../../libDaisy//src/dev/codec_pcm3060.h **** 
ARM GAS  C:\Users\daniel\AppData\Local\Temp\cc1VxNgq.s 			page 5


  28:../../libDaisy//src/dev/codec_pcm3060.h ****     Pcm3060() {}
  29:../../libDaisy//src/dev/codec_pcm3060.h ****     ~Pcm3060() {}
  74              		.loc 4 29 5 is_stmt 1 view .LVU7
  75              		.loc 4 29 5 is_stmt 0 view .LVU8
  76              	.LBE597:
  77              	.LBB598:
  78              	.LBI598:
  79              		.file 5 "../../libDaisy//src/hid/usb.h"
   1:../../libDaisy//src/hid/usb.h **** #pragma once
   2:../../libDaisy//src/hid/usb.h **** #ifndef DSY_HID_USB_H
   3:../../libDaisy//src/hid/usb.h **** #define DSY_HID_USB_H
   4:../../libDaisy//src/hid/usb.h **** #include <stdint.h>
   5:../../libDaisy//src/hid/usb.h **** #include <stdlib.h>
   6:../../libDaisy//src/hid/usb.h **** 
   7:../../libDaisy//src/hid/usb.h **** namespace daisy
   8:../../libDaisy//src/hid/usb.h **** /** @addtogroup human_interface
   9:../../libDaisy//src/hid/usb.h ****     @{
  10:../../libDaisy//src/hid/usb.h **** */
  11:../../libDaisy//src/hid/usb.h **** 
  12:../../libDaisy//src/hid/usb.h **** {
  13:../../libDaisy//src/hid/usb.h **** /** 
  14:../../libDaisy//src/hid/usb.h ****     @brief Interface for initializing and using the USB Peripherals on the daisy
  15:../../libDaisy//src/hid/usb.h ****     @author Stephen Hensley
  16:../../libDaisy//src/hid/usb.h ****     @date December 2019
  17:../../libDaisy//src/hid/usb.h **** */
  18:../../libDaisy//src/hid/usb.h **** class UsbHandle
  19:../../libDaisy//src/hid/usb.h **** {
  20:../../libDaisy//src/hid/usb.h ****   public:
  21:../../libDaisy//src/hid/usb.h ****     /** Return values for USBHandle Functions */
  22:../../libDaisy//src/hid/usb.h ****     enum class Result
  23:../../libDaisy//src/hid/usb.h ****     {
  24:../../libDaisy//src/hid/usb.h ****         OK,
  25:../../libDaisy//src/hid/usb.h ****         ERR,
  26:../../libDaisy//src/hid/usb.h ****     };
  27:../../libDaisy//src/hid/usb.h **** 
  28:../../libDaisy//src/hid/usb.h ****     /** Specified which of the two USB Peripherals to initialize. */
  29:../../libDaisy//src/hid/usb.h ****     enum UsbPeriph
  30:../../libDaisy//src/hid/usb.h ****     {
  31:../../libDaisy//src/hid/usb.h ****         FS_INTERNAL, /**< Internal pin */
  32:../../libDaisy//src/hid/usb.h ****         FS_EXTERNAL, /**< FS External D+ pin is Pin 38 (GPIO32). FS External D- pin is Pin 37 (GPIO
  33:../../libDaisy//src/hid/usb.h ****         FS_BOTH,     /**< Both */
  34:../../libDaisy//src/hid/usb.h ****     };
  35:../../libDaisy//src/hid/usb.h **** 
  36:../../libDaisy//src/hid/usb.h **** 
  37:../../libDaisy//src/hid/usb.h ****     /** Function called upon reception of a buffer */
  38:../../libDaisy//src/hid/usb.h ****     typedef void (*ReceiveCallback)(uint8_t* buff, uint32_t* len);
  39:../../libDaisy//src/hid/usb.h **** 
  40:../../libDaisy//src/hid/usb.h ****     UsbHandle() {}
  41:../../libDaisy//src/hid/usb.h **** 
  42:../../libDaisy//src/hid/usb.h ****     ~UsbHandle() {}
  80              		.loc 5 42 5 is_stmt 1 view .LVU9
  81              		.loc 5 42 5 is_stmt 0 view .LVU10
  82              	.LBE598:
  83              	.LBB599:
  84              	.LBI599:
  85              		.file 6 "../../libDaisy//src/per/adc.h"
   1:../../libDaisy//src/per/adc.h **** #pragma once
ARM GAS  C:\Users\daniel\AppData\Local\Temp\cc1VxNgq.s 			page 6


   2:../../libDaisy//src/per/adc.h **** #ifndef DSY_ADC_H
   3:../../libDaisy//src/per/adc.h **** #define DSY_ADC_H /**< Macro */
   4:../../libDaisy//src/per/adc.h **** #include <stdint.h>
   5:../../libDaisy//src/per/adc.h **** #include <stdlib.h>
   6:../../libDaisy//src/per/adc.h **** #include "daisy_core.h"
   7:../../libDaisy//src/per/adc.h **** #include "per/gpio.h"
   8:../../libDaisy//src/per/adc.h **** 
   9:../../libDaisy//src/per/adc.h **** #define DSY_ADC_MAX_CHANNELS 16 /**< Maximum number of ADC channels */
  10:../../libDaisy//src/per/adc.h **** 
  11:../../libDaisy//src/per/adc.h **** namespace daisy
  12:../../libDaisy//src/per/adc.h **** {
  13:../../libDaisy//src/per/adc.h **** /** @addtogroup per_analog
  14:../../libDaisy//src/per/adc.h ****     @{
  15:../../libDaisy//src/per/adc.h **** */
  16:../../libDaisy//src/per/adc.h **** 
  17:../../libDaisy//src/per/adc.h **** /* While there may not be many configuration options here,
  18:../../libDaisy//src/per/adc.h **** using a struct like this allows us to add more configuration
  19:../../libDaisy//src/per/adc.h **** later without breaking existing functionality.
  20:../../libDaisy//src/per/adc.h **** */
  21:../../libDaisy//src/per/adc.h **** 
  22:../../libDaisy//src/per/adc.h **** /** @brief   Configuration Structure for an ADC Channel 
  23:../../libDaisy//src/per/adc.h ****  *  @details This can be used to configure a a single input, 
  24:../../libDaisy//src/per/adc.h ****  *           or a multiplexed input, allowing up to 8 inputs on 
  25:../../libDaisy//src/per/adc.h ****  *           one channel.
  26:../../libDaisy//src/per/adc.h ****  *  @note    Sharing data lines to multiple muxes _is_ possible, but
  27:../../libDaisy//src/per/adc.h ****  *           each channel sharing data lines must be set to the maximum
  28:../../libDaisy//src/per/adc.h ****  *           number of channels, even if some multiplexers have fewer
  29:../../libDaisy//src/per/adc.h ****  *           inputs connected.
  30:../../libDaisy//src/per/adc.h **** */
  31:../../libDaisy//src/per/adc.h **** struct AdcChannelConfig
  32:../../libDaisy//src/per/adc.h **** {
  33:../../libDaisy//src/per/adc.h ****     /** Which pin to use for multiplexing */
  34:../../libDaisy//src/per/adc.h ****     enum MuxPin
  35:../../libDaisy//src/per/adc.h ****     {
  36:../../libDaisy//src/per/adc.h ****         MUX_SEL_0,    /**< & */
  37:../../libDaisy//src/per/adc.h ****         MUX_SEL_1,    /**< & */
  38:../../libDaisy//src/per/adc.h ****         MUX_SEL_2,    /**< & */
  39:../../libDaisy//src/per/adc.h ****         MUX_SEL_LAST, /**< & */
  40:../../libDaisy//src/per/adc.h ****     };
  41:../../libDaisy//src/per/adc.h **** 
  42:../../libDaisy//src/per/adc.h ****     /** Initializes a single ADC pin as an ADC. 
  43:../../libDaisy//src/per/adc.h ****     \param pin Pin to init.
  44:../../libDaisy//src/per/adc.h ****      */
  45:../../libDaisy//src/per/adc.h ****     void InitSingle(dsy_gpio_pin pin);
  46:../../libDaisy//src/per/adc.h **** 
  47:../../libDaisy//src/per/adc.h ****     /** 
  48:../../libDaisy//src/per/adc.h ****     Initializes a single ADC pin as a Multiplexed ADC.
  49:../../libDaisy//src/per/adc.h ****     Requires a CD405X Multiplexer connected to the pin.
  50:../../libDaisy//src/per/adc.h ****     You only need to supply the mux pins that are required,
  51:../../libDaisy//src/per/adc.h ****     e.g. a 4052 mux would only require mux_0 and mux_1.
  52:../../libDaisy//src/per/adc.h ****     Internal Callbacks handle the pin addressing.
  53:../../libDaisy//src/per/adc.h ****     \param mux_channels must be 1-8
  54:../../libDaisy//src/per/adc.h ****     \param mux_0 First mux pin
  55:../../libDaisy//src/per/adc.h ****     \param mux_1 Second mux pin
  56:../../libDaisy//src/per/adc.h ****     \param mux_2 Third mux pin
  57:../../libDaisy//src/per/adc.h ****     \param adc_pin &
  58:../../libDaisy//src/per/adc.h ****     */
ARM GAS  C:\Users\daniel\AppData\Local\Temp\cc1VxNgq.s 			page 7


  59:../../libDaisy//src/per/adc.h ****     void InitMux(dsy_gpio_pin adc_pin,
  60:../../libDaisy//src/per/adc.h ****                  size_t       mux_channels,
  61:../../libDaisy//src/per/adc.h ****                  dsy_gpio_pin mux_0,
  62:../../libDaisy//src/per/adc.h ****                  dsy_gpio_pin mux_1 = {DSY_GPIOX, 0},
  63:../../libDaisy//src/per/adc.h ****                  dsy_gpio_pin mux_2 = {DSY_GPIOX, 0});
  64:../../libDaisy//src/per/adc.h **** 
  65:../../libDaisy//src/per/adc.h ****     dsy_gpio pin_;                   /**< & */
  66:../../libDaisy//src/per/adc.h ****     dsy_gpio mux_pin_[MUX_SEL_LAST]; /**< & */
  67:../../libDaisy//src/per/adc.h ****     uint8_t  mux_channels_;          /**< & */
  68:../../libDaisy//src/per/adc.h **** };
  69:../../libDaisy//src/per/adc.h **** 
  70:../../libDaisy//src/per/adc.h **** /**
  71:../../libDaisy//src/per/adc.h ****    @brief Handler for analog to digital conversion
  72:../../libDaisy//src/per/adc.h **** */
  73:../../libDaisy//src/per/adc.h **** class AdcHandle
  74:../../libDaisy//src/per/adc.h **** {
  75:../../libDaisy//src/per/adc.h ****   public:
  76:../../libDaisy//src/per/adc.h ****     /** Supported oversampling amounts */
  77:../../libDaisy//src/per/adc.h ****     enum OverSampling
  78:../../libDaisy//src/per/adc.h ****     {
  79:../../libDaisy//src/per/adc.h ****         OVS_NONE, /**< & */
  80:../../libDaisy//src/per/adc.h ****         OVS_4,    /**< & */
  81:../../libDaisy//src/per/adc.h ****         OVS_8,    /**< & */
  82:../../libDaisy//src/per/adc.h ****         OVS_16,   /**< & */
  83:../../libDaisy//src/per/adc.h ****         OVS_32,   /**< & */
  84:../../libDaisy//src/per/adc.h ****         OVS_64,   /**< & */
  85:../../libDaisy//src/per/adc.h ****         OVS_128,  /**< & */
  86:../../libDaisy//src/per/adc.h ****         OVS_256,  /**< & */
  87:../../libDaisy//src/per/adc.h ****         OVS_512,  /**< & */
  88:../../libDaisy//src/per/adc.h ****         OVS_1024, /**< & */
  89:../../libDaisy//src/per/adc.h ****         OVS_LAST, /**< & */
  90:../../libDaisy//src/per/adc.h ****     };
  91:../../libDaisy//src/per/adc.h **** 
  92:../../libDaisy//src/per/adc.h ****     AdcHandle() {}
  93:../../libDaisy//src/per/adc.h ****     ~AdcHandle() {}
  86              		.loc 6 93 5 is_stmt 1 view .LVU11
  87              		.loc 6 93 5 is_stmt 0 view .LVU12
  88              	.LBE599:
  89              	.LBB600:
  90              	.LBI600:
  91              		.file 7 "../../libDaisy//src/hid/audio.h"
   1:../../libDaisy//src/hid/audio.h **** #ifndef DSY_AUDIO_H
   2:../../libDaisy//src/hid/audio.h **** #define DSY_AUDIO_H /**< & */
   3:../../libDaisy//src/hid/audio.h **** 
   4:../../libDaisy//src/hid/audio.h **** #include "per/sai.h"
   5:../../libDaisy//src/hid/audio.h **** 
   6:../../libDaisy//src/hid/audio.h **** namespace daisy
   7:../../libDaisy//src/hid/audio.h **** {
   8:../../libDaisy//src/hid/audio.h **** /** @brief Audio Engine Handle
   9:../../libDaisy//src/hid/audio.h ****  *  @ingroup audio 
  10:../../libDaisy//src/hid/audio.h ****  *  @details This class allows for higher level access to an audio engine.
  11:../../libDaisy//src/hid/audio.h ****  *           If you're using a SOM like the DaisySeed or DaisyPatchSM (or any 
  12:../../libDaisy//src/hid/audio.h ****  *            board that includes one of those objects) then the intialization
  13:../../libDaisy//src/hid/audio.h ****  *            is already taken  care of.
  14:../../libDaisy//src/hid/audio.h ****  *           If you're setting up your own custom hardware, or need to make changes
  15:../../libDaisy//src/hid/audio.h ****  *           you will have to take the following steps:
  16:../../libDaisy//src/hid/audio.h ****  *             1. Create and Initialize an SaiHandle or two depending on your requirements
ARM GAS  C:\Users\daniel\AppData\Local\Temp\cc1VxNgq.s 			page 8


  17:../../libDaisy//src/hid/audio.h ****  *             2. Initialize the Audio Handle with the desired settings and the Initialized SaiHand
  18:../../libDaisy//src/hid/audio.h ****  *             3. If the connected codec requires special configuration or initialization, do so
  19:../../libDaisy//src/hid/audio.h ****  *             4. Write a callback method using either the AudioCallback or the InterleavingAudioCa
  20:../../libDaisy//src/hid/audio.h ****  *             5. Start the Audio using one of the StartAudio function
  21:../../libDaisy//src/hid/audio.h ****  */
  22:../../libDaisy//src/hid/audio.h **** class AudioHandle
  23:../../libDaisy//src/hid/audio.h **** {
  24:../../libDaisy//src/hid/audio.h ****   public:
  25:../../libDaisy//src/hid/audio.h ****     /** Manually configurable details about the Audio Engine */
  26:../../libDaisy//src/hid/audio.h ****     /** TODO: Figure out how to get samplerate in here. */
  27:../../libDaisy//src/hid/audio.h ****     struct Config
  28:../../libDaisy//src/hid/audio.h ****     {
  29:../../libDaisy//src/hid/audio.h ****         /** number of samples to process per callback */
  30:../../libDaisy//src/hid/audio.h ****         size_t blocksize;
  31:../../libDaisy//src/hid/audio.h **** 
  32:../../libDaisy//src/hid/audio.h ****         /**< Sample rate of audio */
  33:../../libDaisy//src/hid/audio.h ****         SaiHandle::Config::SampleRate samplerate;
  34:../../libDaisy//src/hid/audio.h **** 
  35:../../libDaisy//src/hid/audio.h ****         /** factor for adjustment before and after callback for hardware that may have extra headro
  36:../../libDaisy//src/hid/audio.h ****         float postgain;
  37:../../libDaisy//src/hid/audio.h **** 
  38:../../libDaisy//src/hid/audio.h ****         /** factor for additional one-sided compensation to audio path for hardware that may
  39:../../libDaisy//src/hid/audio.h ****          *  have unequal input/output ranges
  40:../../libDaisy//src/hid/audio.h ****          */
  41:../../libDaisy//src/hid/audio.h ****         float output_compensation;
  42:../../libDaisy//src/hid/audio.h **** 
  43:../../libDaisy//src/hid/audio.h ****         /** Sets default values for config struct */
  44:../../libDaisy//src/hid/audio.h ****         Config()
  45:../../libDaisy//src/hid/audio.h ****         : blocksize(48),
  46:../../libDaisy//src/hid/audio.h ****           samplerate(SaiHandle::Config::SampleRate::SAI_48KHZ),
  47:../../libDaisy//src/hid/audio.h ****           postgain(1.f),
  48:../../libDaisy//src/hid/audio.h ****           output_compensation(1.f)
  49:../../libDaisy//src/hid/audio.h ****         {
  50:../../libDaisy//src/hid/audio.h ****         }
  51:../../libDaisy//src/hid/audio.h ****     };
  52:../../libDaisy//src/hid/audio.h **** 
  53:../../libDaisy//src/hid/audio.h ****     enum class Result
  54:../../libDaisy//src/hid/audio.h ****     {
  55:../../libDaisy//src/hid/audio.h ****         OK,
  56:../../libDaisy//src/hid/audio.h ****         ERR,
  57:../../libDaisy//src/hid/audio.h ****     };
  58:../../libDaisy//src/hid/audio.h **** 
  59:../../libDaisy//src/hid/audio.h ****     /** Non-Interleaving input buffer
  60:../../libDaisy//src/hid/audio.h ****      * Buffer arranged by float[chn][sample] 
  61:../../libDaisy//src/hid/audio.h ****      * const so that the user can't modify the input
  62:../../libDaisy//src/hid/audio.h ****      */
  63:../../libDaisy//src/hid/audio.h ****     typedef const float* const* InputBuffer;
  64:../../libDaisy//src/hid/audio.h **** 
  65:../../libDaisy//src/hid/audio.h ****     /** Non-Interleaving output buffer
  66:../../libDaisy//src/hid/audio.h ****      * Arranged by float[chn][sample] 
  67:../../libDaisy//src/hid/audio.h ****      */
  68:../../libDaisy//src/hid/audio.h ****     typedef float** OutputBuffer;
  69:../../libDaisy//src/hid/audio.h **** 
  70:../../libDaisy//src/hid/audio.h ****     /** Type for a Non-Interleaving audio callback 
  71:../../libDaisy//src/hid/audio.h ****      * Non-Interleaving audio callbacks in daisy will be of this type
  72:../../libDaisy//src/hid/audio.h ****      */
  73:../../libDaisy//src/hid/audio.h ****     typedef void (*AudioCallback)(InputBuffer  in,
ARM GAS  C:\Users\daniel\AppData\Local\Temp\cc1VxNgq.s 			page 9


  74:../../libDaisy//src/hid/audio.h ****                                   OutputBuffer out,
  75:../../libDaisy//src/hid/audio.h ****                                   size_t       size);
  76:../../libDaisy//src/hid/audio.h **** 
  77:../../libDaisy//src/hid/audio.h ****     /** Interleaving Input buffer
  78:../../libDaisy//src/hid/audio.h ****      ** audio is prepared as { L0, R0, L1, R1, . . . LN, RN }]
  79:../../libDaisy//src/hid/audio.h ****      ** this is const, as the user shouldn't modify it
  80:../../libDaisy//src/hid/audio.h ****     */
  81:../../libDaisy//src/hid/audio.h ****     typedef const float* InterleavingInputBuffer;
  82:../../libDaisy//src/hid/audio.h **** 
  83:../../libDaisy//src/hid/audio.h ****     /** Interleaving Output buffer 
  84:../../libDaisy//src/hid/audio.h ****      ** audio is prepared as { L0, R0, L1, R1, . . . LN, RN }
  85:../../libDaisy//src/hid/audio.h ****     */
  86:../../libDaisy//src/hid/audio.h ****     typedef float* InterleavingOutputBuffer;
  87:../../libDaisy//src/hid/audio.h **** 
  88:../../libDaisy//src/hid/audio.h ****     /** Interleaving Audio Callback 
  89:../../libDaisy//src/hid/audio.h ****      * Interleaving audio callbacks in daisy must be of this type
  90:../../libDaisy//src/hid/audio.h ****      */
  91:../../libDaisy//src/hid/audio.h ****     typedef void (*InterleavingAudioCallback)(InterleavingInputBuffer  in,
  92:../../libDaisy//src/hid/audio.h ****                                               InterleavingOutputBuffer out,
  93:../../libDaisy//src/hid/audio.h ****                                               size_t                   size);
  94:../../libDaisy//src/hid/audio.h **** 
  95:../../libDaisy//src/hid/audio.h ****     AudioHandle() : pimpl_(nullptr) {}
  96:../../libDaisy//src/hid/audio.h ****     ~AudioHandle() {}
  92              		.loc 7 96 5 is_stmt 1 view .LVU13
  93              		.loc 7 96 5 is_stmt 0 view .LVU14
  94              	.LBE600:
  95              	.LBB601:
  96              	.LBI601:
  97              		.file 8 "../../libDaisy//src/sys/system.h"
   1:../../libDaisy//src/sys/system.h **** #ifndef DSY_SYSTEM_H
   2:../../libDaisy//src/sys/system.h **** #define DSY_SYSTEM_H
   3:../../libDaisy//src/sys/system.h **** 
   4:../../libDaisy//src/sys/system.h **** #ifndef UNIT_TEST // for unit tests, a dummy implementation is provided below
   5:../../libDaisy//src/sys/system.h **** 
   6:../../libDaisy//src/sys/system.h **** #include <cstdint>
   7:../../libDaisy//src/sys/system.h **** #include "per/tim.h"
   8:../../libDaisy//src/sys/system.h **** 
   9:../../libDaisy//src/sys/system.h **** namespace daisy
  10:../../libDaisy//src/sys/system.h **** {
  11:../../libDaisy//src/sys/system.h **** /** A handle for interacting with the Core System. 
  12:../../libDaisy//src/sys/system.h ****  ** This includes the Clock tree, MPU, global DMA initialization,
  13:../../libDaisy//src/sys/system.h ****  ** cache handling, and any other necessary global initiailzation
  14:../../libDaisy//src/sys/system.h ****  **
  15:../../libDaisy//src/sys/system.h ****  ** @author shensley
  16:../../libDaisy//src/sys/system.h ****  ** @ingroup system
  17:../../libDaisy//src/sys/system.h ****  */
  18:../../libDaisy//src/sys/system.h **** class System
  19:../../libDaisy//src/sys/system.h **** {
  20:../../libDaisy//src/sys/system.h ****   public:
  21:../../libDaisy//src/sys/system.h ****     /** Contains settings for initializing the System */
  22:../../libDaisy//src/sys/system.h ****     struct Config
  23:../../libDaisy//src/sys/system.h ****     {
  24:../../libDaisy//src/sys/system.h ****         /** Specifies the system clock frequency that feeds APB/AHB clocks, etc. */
  25:../../libDaisy//src/sys/system.h ****         enum class SysClkFreq
  26:../../libDaisy//src/sys/system.h ****         {
  27:../../libDaisy//src/sys/system.h ****             FREQ_400MHZ,
  28:../../libDaisy//src/sys/system.h ****             FREQ_480MHZ,
ARM GAS  C:\Users\daniel\AppData\Local\Temp\cc1VxNgq.s 			page 10


  29:../../libDaisy//src/sys/system.h ****         };
  30:../../libDaisy//src/sys/system.h **** 
  31:../../libDaisy//src/sys/system.h ****         /** Method to call on the struct to set to defaults
  32:../../libDaisy//src/sys/system.h ****          ** CPU Freq set to 400MHz
  33:../../libDaisy//src/sys/system.h ****          ** Cache Enabled 
  34:../../libDaisy//src/sys/system.h ****          ** */
  35:../../libDaisy//src/sys/system.h ****         void Defaults()
  36:../../libDaisy//src/sys/system.h ****         {
  37:../../libDaisy//src/sys/system.h ****             cpu_freq    = SysClkFreq::FREQ_400MHZ;
  38:../../libDaisy//src/sys/system.h ****             use_dcache  = true;
  39:../../libDaisy//src/sys/system.h ****             use_icache  = true;
  40:../../libDaisy//src/sys/system.h ****             skip_clocks = false;
  41:../../libDaisy//src/sys/system.h ****         }
  42:../../libDaisy//src/sys/system.h **** 
  43:../../libDaisy//src/sys/system.h ****         /** Method to call on the struct to set to boost mode:
  44:../../libDaisy//src/sys/system.h ****          ** CPU Freq set to 480MHz
  45:../../libDaisy//src/sys/system.h ****          ** Cache Enabled 
  46:../../libDaisy//src/sys/system.h ****          ** */
  47:../../libDaisy//src/sys/system.h ****         void Boost()
  48:../../libDaisy//src/sys/system.h ****         {
  49:../../libDaisy//src/sys/system.h ****             cpu_freq    = SysClkFreq::FREQ_480MHZ;
  50:../../libDaisy//src/sys/system.h ****             use_dcache  = true;
  51:../../libDaisy//src/sys/system.h ****             use_icache  = true;
  52:../../libDaisy//src/sys/system.h ****             skip_clocks = false;
  53:../../libDaisy//src/sys/system.h ****         }
  54:../../libDaisy//src/sys/system.h **** 
  55:../../libDaisy//src/sys/system.h ****         SysClkFreq cpu_freq;
  56:../../libDaisy//src/sys/system.h ****         bool       use_dcache;
  57:../../libDaisy//src/sys/system.h ****         bool       use_icache;
  58:../../libDaisy//src/sys/system.h ****         bool       skip_clocks;
  59:../../libDaisy//src/sys/system.h ****     };
  60:../../libDaisy//src/sys/system.h **** 
  61:../../libDaisy//src/sys/system.h ****     /** Describes the different regions of memory available to the Daisy
  62:../../libDaisy//src/sys/system.h ****      * 
  63:../../libDaisy//src/sys/system.h ****      */
  64:../../libDaisy//src/sys/system.h ****     enum MemoryRegion
  65:../../libDaisy//src/sys/system.h ****     {
  66:../../libDaisy//src/sys/system.h ****         INTERNAL_FLASH = 0,
  67:../../libDaisy//src/sys/system.h ****         ITCMRAM,
  68:../../libDaisy//src/sys/system.h ****         DTCMRAM,
  69:../../libDaisy//src/sys/system.h ****         SRAM_D1,
  70:../../libDaisy//src/sys/system.h ****         SRAM_D2,
  71:../../libDaisy//src/sys/system.h ****         SRAM_D3,
  72:../../libDaisy//src/sys/system.h ****         SDRAM,
  73:../../libDaisy//src/sys/system.h ****         QSPI,
  74:../../libDaisy//src/sys/system.h ****         INVALID_ADDRESS,
  75:../../libDaisy//src/sys/system.h ****     };
  76:../../libDaisy//src/sys/system.h **** 
  77:../../libDaisy//src/sys/system.h ****     System() {}
  78:../../libDaisy//src/sys/system.h ****     ~System() {}
  98              		.loc 8 78 5 is_stmt 1 view .LVU15
  99              		.loc 8 78 5 is_stmt 0 view .LVU16
 100              	.LBE601:
 101              		.loc 2 65 26 view .LVU17
 102 0000 7047     		bx	lr
 103              		.cfi_endproc
 104              	.LFE2528:
ARM GAS  C:\Users\daniel\AppData\Local\Temp\cc1VxNgq.s 			page 11


 106              		.weak	_ZN5daisy8patch_sm12DaisyPatchSMD1Ev
 107              		.thumb_set _ZN5daisy8patch_sm12DaisyPatchSMD1Ev,_ZN5daisy8patch_sm12DaisyPatchSMD2Ev
 108 0002 00BF     		.section	.text._ZN7daisysp5AdEnvD2Ev,"axG",%progbits,_ZN7daisysp5AdEnvD5Ev,comdat
 109              		.align	1
 110              		.p2align 2,,3
 111              		.weak	_ZN7daisysp5AdEnvD2Ev
 112              		.syntax unified
 113              		.thumb
 114              		.thumb_func
 115              		.fpu fpv5-d16
 117              	_ZN7daisysp5AdEnvD2Ev:
 118              	.LVL2:
 119              	.LFB2541:
 120              		.file 9 "../../DaisySP//Source/Control/adenv.h"
   1:../../DaisySP//Source/Control/adenv.h **** #pragma once
   2:../../DaisySP//Source/Control/adenv.h **** #ifndef ADENV_H
   3:../../DaisySP//Source/Control/adenv.h **** #define ADENV_H
   4:../../DaisySP//Source/Control/adenv.h **** #include <stdint.h>
   5:../../DaisySP//Source/Control/adenv.h **** #ifdef __cplusplus
   6:../../DaisySP//Source/Control/adenv.h **** 
   7:../../DaisySP//Source/Control/adenv.h **** namespace daisysp
   8:../../DaisySP//Source/Control/adenv.h **** {
   9:../../DaisySP//Source/Control/adenv.h **** /** Distinct stages that the phase of the envelope can be located in.
  10:../../DaisySP//Source/Control/adenv.h ****     @see AdEnv
  11:../../DaisySP//Source/Control/adenv.h **** */
  12:../../DaisySP//Source/Control/adenv.h **** enum AdEnvSegment
  13:../../DaisySP//Source/Control/adenv.h **** {
  14:../../DaisySP//Source/Control/adenv.h ****     /** located at phase location 0, and not currently running */
  15:../../DaisySP//Source/Control/adenv.h ****     ADENV_SEG_IDLE,
  16:../../DaisySP//Source/Control/adenv.h ****     /** First segment of envelope where phase moves from MIN value to MAX value */
  17:../../DaisySP//Source/Control/adenv.h ****     ADENV_SEG_ATTACK,
  18:../../DaisySP//Source/Control/adenv.h ****     /** Second segment of envelope where phase moves from MAX to MIN value */
  19:../../DaisySP//Source/Control/adenv.h ****     ADENV_SEG_DECAY,
  20:../../DaisySP//Source/Control/adenv.h ****     /** The final segment of the envelope (currently decay) */
  21:../../DaisySP//Source/Control/adenv.h ****     ADENV_SEG_LAST,
  22:../../DaisySP//Source/Control/adenv.h **** };
  23:../../DaisySP//Source/Control/adenv.h **** 
  24:../../DaisySP//Source/Control/adenv.h **** /** Trigger-able envelope with adjustable min/max, and independent per-segment time control.
  25:../../DaisySP//Source/Control/adenv.h **** 
  26:../../DaisySP//Source/Control/adenv.h ****     \author shensley
  27:../../DaisySP//Source/Control/adenv.h ****     \todo - Add Cycling
  28:../../DaisySP//Source/Control/adenv.h ****     \todo - Implement Curve (its only linear for now).
  29:../../DaisySP//Source/Control/adenv.h ****     \todo - Maybe make this an ADsr_ that has AD/AR/Asr_ modes.
  30:../../DaisySP//Source/Control/adenv.h ****  */
  31:../../DaisySP//Source/Control/adenv.h **** class AdEnv
  32:../../DaisySP//Source/Control/adenv.h **** {
  33:../../DaisySP//Source/Control/adenv.h ****   public:
  34:../../DaisySP//Source/Control/adenv.h ****     AdEnv() {}
  35:../../DaisySP//Source/Control/adenv.h ****     ~AdEnv() {}
 121              		.loc 9 35 5 is_stmt 1 view -0
 122              		.cfi_startproc
 123              		@ args = 0, pretend = 0, frame = 0
 124              		@ frame_needed = 0, uses_anonymous_args = 0
 125              		@ link register save eliminated.
 126              		.loc 9 35 15 is_stmt 0 view .LVU19
 127 0000 7047     		bx	lr
 128              		.cfi_endproc
ARM GAS  C:\Users\daniel\AppData\Local\Temp\cc1VxNgq.s 			page 12


 129              	.LFE2541:
 131              		.weak	_ZN7daisysp5AdEnvD1Ev
 132              		.thumb_set _ZN7daisysp5AdEnvD1Ev,_ZN7daisysp5AdEnvD2Ev
 133              		.section	.text._ZN7daisysp9OverdriveD2Ev,"axG",%progbits,_ZN7daisysp9OverdriveD5Ev,comdat
 134              		.align	1
 135              		.p2align 2,,3
 136              		.weak	_ZN7daisysp9OverdriveD2Ev
 137              		.syntax unified
 138              		.thumb
 139              		.thumb_func
 140              		.fpu fpv5-d16
 142              	_ZN7daisysp9OverdriveD2Ev:
 143              	.LVL3:
 144              	.LFB4419:
 145              		.file 10 "../../DaisySP//Source/Effects/overdrive.h"
   1:../../DaisySP//Source/Effects/overdrive.h **** #pragma once
   2:../../DaisySP//Source/Effects/overdrive.h **** #ifndef DSY_OVERDRIVE_H
   3:../../DaisySP//Source/Effects/overdrive.h **** #define DSY_OVERDRIVE_H
   4:../../DaisySP//Source/Effects/overdrive.h **** 
   5:../../DaisySP//Source/Effects/overdrive.h **** #include <stdint.h>
   6:../../DaisySP//Source/Effects/overdrive.h **** #ifdef __cplusplus
   7:../../DaisySP//Source/Effects/overdrive.h **** 
   8:../../DaisySP//Source/Effects/overdrive.h **** /** @file overdrive.h */
   9:../../DaisySP//Source/Effects/overdrive.h **** 
  10:../../DaisySP//Source/Effects/overdrive.h **** namespace daisysp
  11:../../DaisySP//Source/Effects/overdrive.h **** {
  12:../../DaisySP//Source/Effects/overdrive.h **** /**  
  13:../../DaisySP//Source/Effects/overdrive.h ****        @brief Distortion / Overdrive Module
  14:../../DaisySP//Source/Effects/overdrive.h ****        @author Ported by Ben Sergentanis 
  15:../../DaisySP//Source/Effects/overdrive.h ****        @date Jan 2021 
  16:../../DaisySP//Source/Effects/overdrive.h ****        Ported from pichenettes/eurorack/plaits/dsp/fx/overdrive.h \n
  17:../../DaisySP//Source/Effects/overdrive.h ****        to an independent module. \n
  18:../../DaisySP//Source/Effects/overdrive.h ****        Original code written by Emilie Gillet in 2014. \n
  19:../../DaisySP//Source/Effects/overdrive.h **** */
  20:../../DaisySP//Source/Effects/overdrive.h **** class Overdrive
  21:../../DaisySP//Source/Effects/overdrive.h **** {
  22:../../DaisySP//Source/Effects/overdrive.h ****   public:
  23:../../DaisySP//Source/Effects/overdrive.h ****     Overdrive() {}
  24:../../DaisySP//Source/Effects/overdrive.h ****     ~Overdrive() {}
 146              		.loc 10 24 5 is_stmt 1 view -0
 147              		.cfi_startproc
 148              		@ args = 0, pretend = 0, frame = 0
 149              		@ frame_needed = 0, uses_anonymous_args = 0
 150              		@ link register save eliminated.
 151              		.loc 10 24 19 is_stmt 0 view .LVU21
 152 0000 7047     		bx	lr
 153              		.cfi_endproc
 154              	.LFE4419:
 156              		.weak	_ZN7daisysp9OverdriveD1Ev
 157              		.thumb_set _ZN7daisysp9OverdriveD1Ev,_ZN7daisysp9OverdriveD2Ev
 158              		.section	.text._ZN7daisysp8ReverbScD2Ev,"axG",%progbits,_ZN7daisysp8ReverbScD5Ev,comdat
 159              		.align	1
 160              		.p2align 2,,3
 161              		.weak	_ZN7daisysp8ReverbScD2Ev
 162              		.syntax unified
 163              		.thumb
 164              		.thumb_func
ARM GAS  C:\Users\daniel\AppData\Local\Temp\cc1VxNgq.s 			page 13


 165              		.fpu fpv5-d16
 167              	_ZN7daisysp8ReverbScD2Ev:
 168              	.LVL4:
 169              	.LFB4425:
 170              		.file 11 "../../DaisySP//Source/Effects/reverbsc.h"
   1:../../DaisySP//Source/Effects/reverbsc.h **** #pragma once
   2:../../DaisySP//Source/Effects/reverbsc.h **** #ifndef DSYSP_REVERBSC_H
   3:../../DaisySP//Source/Effects/reverbsc.h **** #define DSYSP_REVERBSC_H
   4:../../DaisySP//Source/Effects/reverbsc.h **** 
   5:../../DaisySP//Source/Effects/reverbsc.h **** #define DSY_REVERBSC_MAX_SIZE 98936
   6:../../DaisySP//Source/Effects/reverbsc.h **** 
   7:../../DaisySP//Source/Effects/reverbsc.h **** namespace daisysp
   8:../../DaisySP//Source/Effects/reverbsc.h **** {
   9:../../DaisySP//Source/Effects/reverbsc.h **** /**Delay line for internal reverb use
  10:../../DaisySP//Source/Effects/reverbsc.h **** */
  11:../../DaisySP//Source/Effects/reverbsc.h **** typedef struct
  12:../../DaisySP//Source/Effects/reverbsc.h **** {
  13:../../DaisySP//Source/Effects/reverbsc.h ****     int    write_pos;         /**< write position */
  14:../../DaisySP//Source/Effects/reverbsc.h ****     int    buffer_size;       /**< buffer size */
  15:../../DaisySP//Source/Effects/reverbsc.h ****     int    read_pos;          /**< read position */
  16:../../DaisySP//Source/Effects/reverbsc.h ****     int    read_pos_frac;     /**< fractional component of read pos */
  17:../../DaisySP//Source/Effects/reverbsc.h ****     int    read_pos_frac_inc; /**< increment for fractional */
  18:../../DaisySP//Source/Effects/reverbsc.h ****     int    dummy;             /**<  dummy var */
  19:../../DaisySP//Source/Effects/reverbsc.h ****     int    seed_val;          /**< randseed */
  20:../../DaisySP//Source/Effects/reverbsc.h ****     int    rand_line_cnt;     /**< number of random lines */
  21:../../DaisySP//Source/Effects/reverbsc.h ****     float  filter_state;      /**< state of filter */
  22:../../DaisySP//Source/Effects/reverbsc.h ****     float *buf;               /**< buffer ptr */
  23:../../DaisySP//Source/Effects/reverbsc.h **** } ReverbScDl;
  24:../../DaisySP//Source/Effects/reverbsc.h **** 
  25:../../DaisySP//Source/Effects/reverbsc.h **** /** Stereo Reverb
  26:../../DaisySP//Source/Effects/reverbsc.h **** 
  27:../../DaisySP//Source/Effects/reverbsc.h **** Reverb SC:               Ported from csound/soundpipe
  28:../../DaisySP//Source/Effects/reverbsc.h **** 
  29:../../DaisySP//Source/Effects/reverbsc.h **** Original author(s):        Sean Costello, Istvan Varga
  30:../../DaisySP//Source/Effects/reverbsc.h **** 
  31:../../DaisySP//Source/Effects/reverbsc.h **** Year:                    1999, 2005
  32:../../DaisySP//Source/Effects/reverbsc.h **** 
  33:../../DaisySP//Source/Effects/reverbsc.h **** Ported to soundpipe by:  Paul Batchelor
  34:../../DaisySP//Source/Effects/reverbsc.h **** 
  35:../../DaisySP//Source/Effects/reverbsc.h **** Ported by:                Stephen Hensley
  36:../../DaisySP//Source/Effects/reverbsc.h **** */
  37:../../DaisySP//Source/Effects/reverbsc.h **** class ReverbSc
  38:../../DaisySP//Source/Effects/reverbsc.h **** {
  39:../../DaisySP//Source/Effects/reverbsc.h ****   public:
  40:../../DaisySP//Source/Effects/reverbsc.h ****     ReverbSc() {}
  41:../../DaisySP//Source/Effects/reverbsc.h ****     ~ReverbSc() {}
 171              		.loc 11 41 5 is_stmt 1 view -0
 172              		.cfi_startproc
 173              		@ args = 0, pretend = 0, frame = 0
 174              		@ frame_needed = 0, uses_anonymous_args = 0
 175              		@ link register save eliminated.
 176              		.loc 11 41 18 is_stmt 0 view .LVU23
 177 0000 7047     		bx	lr
 178              		.cfi_endproc
 179              	.LFE4425:
 181              		.weak	_ZN7daisysp8ReverbScD1Ev
 182              		.thumb_set _ZN7daisysp8ReverbScD1Ev,_ZN7daisysp8ReverbScD2Ev
ARM GAS  C:\Users\daniel\AppData\Local\Temp\cc1VxNgq.s 			page 14


 183              		.section	.text._ZNSt5arrayI12SampleBufferILj240000EELj8EED2Ev,"axG",%progbits,_ZNSt5arrayI12Sample
 184              		.align	1
 185              		.p2align 2,,3
 186              		.weak	_ZNSt5arrayI12SampleBufferILj240000EELj8EED2Ev
 187              		.syntax unified
 188              		.thumb
 189              		.thumb_func
 190              		.fpu fpv5-d16
 192              	_ZNSt5arrayI12SampleBufferILj240000EELj8EED2Ev:
 193              	.LVL5:
 194              	.LFB5424:
 195              		.file 12 "c:\\programdata\\chocolatey\\lib\\gcc-arm-embedded\\tools\\gcc-arm-none-eabi-10-2020-q4-
   1:c:\programdata\chocolatey\lib\gcc-arm-embedded\tools\gcc-arm-none-eabi-10-2020-q4-major\arm-none-eabi\include\c++\10.2.1\array **** // <array> -*- C++ -*-
   2:c:\programdata\chocolatey\lib\gcc-arm-embedded\tools\gcc-arm-none-eabi-10-2020-q4-major\arm-none-eabi\include\c++\10.2.1\array **** 
   3:c:\programdata\chocolatey\lib\gcc-arm-embedded\tools\gcc-arm-none-eabi-10-2020-q4-major\arm-none-eabi\include\c++\10.2.1\array **** // Copyright (C) 2007-2020 Free Software Foundation, Inc.
   4:c:\programdata\chocolatey\lib\gcc-arm-embedded\tools\gcc-arm-none-eabi-10-2020-q4-major\arm-none-eabi\include\c++\10.2.1\array **** //
   5:c:\programdata\chocolatey\lib\gcc-arm-embedded\tools\gcc-arm-none-eabi-10-2020-q4-major\arm-none-eabi\include\c++\10.2.1\array **** // This file is part of the GNU ISO C++ Library.  This library is free
   6:c:\programdata\chocolatey\lib\gcc-arm-embedded\tools\gcc-arm-none-eabi-10-2020-q4-major\arm-none-eabi\include\c++\10.2.1\array **** // software; you can redistribute it and/or modify it under the
   7:c:\programdata\chocolatey\lib\gcc-arm-embedded\tools\gcc-arm-none-eabi-10-2020-q4-major\arm-none-eabi\include\c++\10.2.1\array **** // terms of the GNU General Public License as published by the
   8:c:\programdata\chocolatey\lib\gcc-arm-embedded\tools\gcc-arm-none-eabi-10-2020-q4-major\arm-none-eabi\include\c++\10.2.1\array **** // Free Software Foundation; either version 3, or (at your option)
   9:c:\programdata\chocolatey\lib\gcc-arm-embedded\tools\gcc-arm-none-eabi-10-2020-q4-major\arm-none-eabi\include\c++\10.2.1\array **** // any later version.
  10:c:\programdata\chocolatey\lib\gcc-arm-embedded\tools\gcc-arm-none-eabi-10-2020-q4-major\arm-none-eabi\include\c++\10.2.1\array **** 
  11:c:\programdata\chocolatey\lib\gcc-arm-embedded\tools\gcc-arm-none-eabi-10-2020-q4-major\arm-none-eabi\include\c++\10.2.1\array **** // This library is distributed in the hope that it will be useful,
  12:c:\programdata\chocolatey\lib\gcc-arm-embedded\tools\gcc-arm-none-eabi-10-2020-q4-major\arm-none-eabi\include\c++\10.2.1\array **** // but WITHOUT ANY WARRANTY; without even the implied warranty of
  13:c:\programdata\chocolatey\lib\gcc-arm-embedded\tools\gcc-arm-none-eabi-10-2020-q4-major\arm-none-eabi\include\c++\10.2.1\array **** // MERCHANTABILITY or FITNESS FOR A PARTICULAR PURPOSE.  See the
  14:c:\programdata\chocolatey\lib\gcc-arm-embedded\tools\gcc-arm-none-eabi-10-2020-q4-major\arm-none-eabi\include\c++\10.2.1\array **** // GNU General Public License for more details.
  15:c:\programdata\chocolatey\lib\gcc-arm-embedded\tools\gcc-arm-none-eabi-10-2020-q4-major\arm-none-eabi\include\c++\10.2.1\array **** 
  16:c:\programdata\chocolatey\lib\gcc-arm-embedded\tools\gcc-arm-none-eabi-10-2020-q4-major\arm-none-eabi\include\c++\10.2.1\array **** // Under Section 7 of GPL version 3, you are granted additional
  17:c:\programdata\chocolatey\lib\gcc-arm-embedded\tools\gcc-arm-none-eabi-10-2020-q4-major\arm-none-eabi\include\c++\10.2.1\array **** // permissions described in the GCC Runtime Library Exception, version
  18:c:\programdata\chocolatey\lib\gcc-arm-embedded\tools\gcc-arm-none-eabi-10-2020-q4-major\arm-none-eabi\include\c++\10.2.1\array **** // 3.1, as published by the Free Software Foundation.
  19:c:\programdata\chocolatey\lib\gcc-arm-embedded\tools\gcc-arm-none-eabi-10-2020-q4-major\arm-none-eabi\include\c++\10.2.1\array **** 
  20:c:\programdata\chocolatey\lib\gcc-arm-embedded\tools\gcc-arm-none-eabi-10-2020-q4-major\arm-none-eabi\include\c++\10.2.1\array **** // You should have received a copy of the GNU General Public License and
  21:c:\programdata\chocolatey\lib\gcc-arm-embedded\tools\gcc-arm-none-eabi-10-2020-q4-major\arm-none-eabi\include\c++\10.2.1\array **** // a copy of the GCC Runtime Library Exception along with this program;
  22:c:\programdata\chocolatey\lib\gcc-arm-embedded\tools\gcc-arm-none-eabi-10-2020-q4-major\arm-none-eabi\include\c++\10.2.1\array **** // see the files COPYING3 and COPYING.RUNTIME respectively.  If not, see
  23:c:\programdata\chocolatey\lib\gcc-arm-embedded\tools\gcc-arm-none-eabi-10-2020-q4-major\arm-none-eabi\include\c++\10.2.1\array **** // <http://www.gnu.org/licenses/>.
  24:c:\programdata\chocolatey\lib\gcc-arm-embedded\tools\gcc-arm-none-eabi-10-2020-q4-major\arm-none-eabi\include\c++\10.2.1\array **** 
  25:c:\programdata\chocolatey\lib\gcc-arm-embedded\tools\gcc-arm-none-eabi-10-2020-q4-major\arm-none-eabi\include\c++\10.2.1\array **** /** @file include/array
  26:c:\programdata\chocolatey\lib\gcc-arm-embedded\tools\gcc-arm-none-eabi-10-2020-q4-major\arm-none-eabi\include\c++\10.2.1\array ****  *  This is a Standard C++ Library header.
  27:c:\programdata\chocolatey\lib\gcc-arm-embedded\tools\gcc-arm-none-eabi-10-2020-q4-major\arm-none-eabi\include\c++\10.2.1\array ****  */
  28:c:\programdata\chocolatey\lib\gcc-arm-embedded\tools\gcc-arm-none-eabi-10-2020-q4-major\arm-none-eabi\include\c++\10.2.1\array **** 
  29:c:\programdata\chocolatey\lib\gcc-arm-embedded\tools\gcc-arm-none-eabi-10-2020-q4-major\arm-none-eabi\include\c++\10.2.1\array **** #ifndef _GLIBCXX_ARRAY
  30:c:\programdata\chocolatey\lib\gcc-arm-embedded\tools\gcc-arm-none-eabi-10-2020-q4-major\arm-none-eabi\include\c++\10.2.1\array **** #define _GLIBCXX_ARRAY 1
  31:c:\programdata\chocolatey\lib\gcc-arm-embedded\tools\gcc-arm-none-eabi-10-2020-q4-major\arm-none-eabi\include\c++\10.2.1\array **** 
  32:c:\programdata\chocolatey\lib\gcc-arm-embedded\tools\gcc-arm-none-eabi-10-2020-q4-major\arm-none-eabi\include\c++\10.2.1\array **** #pragma GCC system_header
  33:c:\programdata\chocolatey\lib\gcc-arm-embedded\tools\gcc-arm-none-eabi-10-2020-q4-major\arm-none-eabi\include\c++\10.2.1\array **** 
  34:c:\programdata\chocolatey\lib\gcc-arm-embedded\tools\gcc-arm-none-eabi-10-2020-q4-major\arm-none-eabi\include\c++\10.2.1\array **** #if __cplusplus < 201103L
  35:c:\programdata\chocolatey\lib\gcc-arm-embedded\tools\gcc-arm-none-eabi-10-2020-q4-major\arm-none-eabi\include\c++\10.2.1\array **** # include <bits/c++0x_warning.h>
  36:c:\programdata\chocolatey\lib\gcc-arm-embedded\tools\gcc-arm-none-eabi-10-2020-q4-major\arm-none-eabi\include\c++\10.2.1\array **** #else
  37:c:\programdata\chocolatey\lib\gcc-arm-embedded\tools\gcc-arm-none-eabi-10-2020-q4-major\arm-none-eabi\include\c++\10.2.1\array **** 
  38:c:\programdata\chocolatey\lib\gcc-arm-embedded\tools\gcc-arm-none-eabi-10-2020-q4-major\arm-none-eabi\include\c++\10.2.1\array **** #include <utility>
  39:c:\programdata\chocolatey\lib\gcc-arm-embedded\tools\gcc-arm-none-eabi-10-2020-q4-major\arm-none-eabi\include\c++\10.2.1\array **** #include <bits/functexcept.h>
  40:c:\programdata\chocolatey\lib\gcc-arm-embedded\tools\gcc-arm-none-eabi-10-2020-q4-major\arm-none-eabi\include\c++\10.2.1\array **** #include <bits/stl_algobase.h>
  41:c:\programdata\chocolatey\lib\gcc-arm-embedded\tools\gcc-arm-none-eabi-10-2020-q4-major\arm-none-eabi\include\c++\10.2.1\array **** #include <bits/range_access.h>
  42:c:\programdata\chocolatey\lib\gcc-arm-embedded\tools\gcc-arm-none-eabi-10-2020-q4-major\arm-none-eabi\include\c++\10.2.1\array **** 
  43:c:\programdata\chocolatey\lib\gcc-arm-embedded\tools\gcc-arm-none-eabi-10-2020-q4-major\arm-none-eabi\include\c++\10.2.1\array **** namespace std _GLIBCXX_VISIBILITY(default)
  44:c:\programdata\chocolatey\lib\gcc-arm-embedded\tools\gcc-arm-none-eabi-10-2020-q4-major\arm-none-eabi\include\c++\10.2.1\array **** {
  45:c:\programdata\chocolatey\lib\gcc-arm-embedded\tools\gcc-arm-none-eabi-10-2020-q4-major\arm-none-eabi\include\c++\10.2.1\array **** _GLIBCXX_BEGIN_NAMESPACE_CONTAINER
ARM GAS  C:\Users\daniel\AppData\Local\Temp\cc1VxNgq.s 			page 15


  46:c:\programdata\chocolatey\lib\gcc-arm-embedded\tools\gcc-arm-none-eabi-10-2020-q4-major\arm-none-eabi\include\c++\10.2.1\array **** 
  47:c:\programdata\chocolatey\lib\gcc-arm-embedded\tools\gcc-arm-none-eabi-10-2020-q4-major\arm-none-eabi\include\c++\10.2.1\array ****   template<typename _Tp, std::size_t _Nm>
  48:c:\programdata\chocolatey\lib\gcc-arm-embedded\tools\gcc-arm-none-eabi-10-2020-q4-major\arm-none-eabi\include\c++\10.2.1\array ****     struct __array_traits
  49:c:\programdata\chocolatey\lib\gcc-arm-embedded\tools\gcc-arm-none-eabi-10-2020-q4-major\arm-none-eabi\include\c++\10.2.1\array ****     {
  50:c:\programdata\chocolatey\lib\gcc-arm-embedded\tools\gcc-arm-none-eabi-10-2020-q4-major\arm-none-eabi\include\c++\10.2.1\array ****       typedef _Tp _Type[_Nm];
  51:c:\programdata\chocolatey\lib\gcc-arm-embedded\tools\gcc-arm-none-eabi-10-2020-q4-major\arm-none-eabi\include\c++\10.2.1\array ****       typedef __is_swappable<_Tp> _Is_swappable;
  52:c:\programdata\chocolatey\lib\gcc-arm-embedded\tools\gcc-arm-none-eabi-10-2020-q4-major\arm-none-eabi\include\c++\10.2.1\array ****       typedef __is_nothrow_swappable<_Tp> _Is_nothrow_swappable;
  53:c:\programdata\chocolatey\lib\gcc-arm-embedded\tools\gcc-arm-none-eabi-10-2020-q4-major\arm-none-eabi\include\c++\10.2.1\array **** 
  54:c:\programdata\chocolatey\lib\gcc-arm-embedded\tools\gcc-arm-none-eabi-10-2020-q4-major\arm-none-eabi\include\c++\10.2.1\array ****       static constexpr _Tp&
  55:c:\programdata\chocolatey\lib\gcc-arm-embedded\tools\gcc-arm-none-eabi-10-2020-q4-major\arm-none-eabi\include\c++\10.2.1\array ****       _S_ref(const _Type& __t, std::size_t __n) noexcept
  56:c:\programdata\chocolatey\lib\gcc-arm-embedded\tools\gcc-arm-none-eabi-10-2020-q4-major\arm-none-eabi\include\c++\10.2.1\array ****       { return const_cast<_Tp&>(__t[__n]); }
  57:c:\programdata\chocolatey\lib\gcc-arm-embedded\tools\gcc-arm-none-eabi-10-2020-q4-major\arm-none-eabi\include\c++\10.2.1\array **** 
  58:c:\programdata\chocolatey\lib\gcc-arm-embedded\tools\gcc-arm-none-eabi-10-2020-q4-major\arm-none-eabi\include\c++\10.2.1\array ****       static constexpr _Tp*
  59:c:\programdata\chocolatey\lib\gcc-arm-embedded\tools\gcc-arm-none-eabi-10-2020-q4-major\arm-none-eabi\include\c++\10.2.1\array ****       _S_ptr(const _Type& __t) noexcept
  60:c:\programdata\chocolatey\lib\gcc-arm-embedded\tools\gcc-arm-none-eabi-10-2020-q4-major\arm-none-eabi\include\c++\10.2.1\array ****       { return const_cast<_Tp*>(__t); }
  61:c:\programdata\chocolatey\lib\gcc-arm-embedded\tools\gcc-arm-none-eabi-10-2020-q4-major\arm-none-eabi\include\c++\10.2.1\array ****     };
  62:c:\programdata\chocolatey\lib\gcc-arm-embedded\tools\gcc-arm-none-eabi-10-2020-q4-major\arm-none-eabi\include\c++\10.2.1\array **** 
  63:c:\programdata\chocolatey\lib\gcc-arm-embedded\tools\gcc-arm-none-eabi-10-2020-q4-major\arm-none-eabi\include\c++\10.2.1\array ****  template<typename _Tp>
  64:c:\programdata\chocolatey\lib\gcc-arm-embedded\tools\gcc-arm-none-eabi-10-2020-q4-major\arm-none-eabi\include\c++\10.2.1\array ****    struct __array_traits<_Tp, 0>
  65:c:\programdata\chocolatey\lib\gcc-arm-embedded\tools\gcc-arm-none-eabi-10-2020-q4-major\arm-none-eabi\include\c++\10.2.1\array ****    {
  66:c:\programdata\chocolatey\lib\gcc-arm-embedded\tools\gcc-arm-none-eabi-10-2020-q4-major\arm-none-eabi\include\c++\10.2.1\array ****      struct _Type { };
  67:c:\programdata\chocolatey\lib\gcc-arm-embedded\tools\gcc-arm-none-eabi-10-2020-q4-major\arm-none-eabi\include\c++\10.2.1\array ****      typedef true_type _Is_swappable;
  68:c:\programdata\chocolatey\lib\gcc-arm-embedded\tools\gcc-arm-none-eabi-10-2020-q4-major\arm-none-eabi\include\c++\10.2.1\array ****      typedef true_type _Is_nothrow_swappable;
  69:c:\programdata\chocolatey\lib\gcc-arm-embedded\tools\gcc-arm-none-eabi-10-2020-q4-major\arm-none-eabi\include\c++\10.2.1\array **** 
  70:c:\programdata\chocolatey\lib\gcc-arm-embedded\tools\gcc-arm-none-eabi-10-2020-q4-major\arm-none-eabi\include\c++\10.2.1\array ****      static constexpr _Tp&
  71:c:\programdata\chocolatey\lib\gcc-arm-embedded\tools\gcc-arm-none-eabi-10-2020-q4-major\arm-none-eabi\include\c++\10.2.1\array ****      _S_ref(const _Type&, std::size_t) noexcept
  72:c:\programdata\chocolatey\lib\gcc-arm-embedded\tools\gcc-arm-none-eabi-10-2020-q4-major\arm-none-eabi\include\c++\10.2.1\array ****      { return *static_cast<_Tp*>(nullptr); }
  73:c:\programdata\chocolatey\lib\gcc-arm-embedded\tools\gcc-arm-none-eabi-10-2020-q4-major\arm-none-eabi\include\c++\10.2.1\array **** 
  74:c:\programdata\chocolatey\lib\gcc-arm-embedded\tools\gcc-arm-none-eabi-10-2020-q4-major\arm-none-eabi\include\c++\10.2.1\array ****      static constexpr _Tp*
  75:c:\programdata\chocolatey\lib\gcc-arm-embedded\tools\gcc-arm-none-eabi-10-2020-q4-major\arm-none-eabi\include\c++\10.2.1\array ****      _S_ptr(const _Type&) noexcept
  76:c:\programdata\chocolatey\lib\gcc-arm-embedded\tools\gcc-arm-none-eabi-10-2020-q4-major\arm-none-eabi\include\c++\10.2.1\array ****      { return nullptr; }
  77:c:\programdata\chocolatey\lib\gcc-arm-embedded\tools\gcc-arm-none-eabi-10-2020-q4-major\arm-none-eabi\include\c++\10.2.1\array ****    };
  78:c:\programdata\chocolatey\lib\gcc-arm-embedded\tools\gcc-arm-none-eabi-10-2020-q4-major\arm-none-eabi\include\c++\10.2.1\array **** 
  79:c:\programdata\chocolatey\lib\gcc-arm-embedded\tools\gcc-arm-none-eabi-10-2020-q4-major\arm-none-eabi\include\c++\10.2.1\array ****   /**
  80:c:\programdata\chocolatey\lib\gcc-arm-embedded\tools\gcc-arm-none-eabi-10-2020-q4-major\arm-none-eabi\include\c++\10.2.1\array ****    *  @brief A standard container for storing a fixed size sequence of elements.
  81:c:\programdata\chocolatey\lib\gcc-arm-embedded\tools\gcc-arm-none-eabi-10-2020-q4-major\arm-none-eabi\include\c++\10.2.1\array ****    *
  82:c:\programdata\chocolatey\lib\gcc-arm-embedded\tools\gcc-arm-none-eabi-10-2020-q4-major\arm-none-eabi\include\c++\10.2.1\array ****    *  @ingroup sequences
  83:c:\programdata\chocolatey\lib\gcc-arm-embedded\tools\gcc-arm-none-eabi-10-2020-q4-major\arm-none-eabi\include\c++\10.2.1\array ****    *
  84:c:\programdata\chocolatey\lib\gcc-arm-embedded\tools\gcc-arm-none-eabi-10-2020-q4-major\arm-none-eabi\include\c++\10.2.1\array ****    *  Meets the requirements of a <a href="tables.html#65">container</a>, a
  85:c:\programdata\chocolatey\lib\gcc-arm-embedded\tools\gcc-arm-none-eabi-10-2020-q4-major\arm-none-eabi\include\c++\10.2.1\array ****    *  <a href="tables.html#66">reversible container</a>, and a
  86:c:\programdata\chocolatey\lib\gcc-arm-embedded\tools\gcc-arm-none-eabi-10-2020-q4-major\arm-none-eabi\include\c++\10.2.1\array ****    *  <a href="tables.html#67">sequence</a>.
  87:c:\programdata\chocolatey\lib\gcc-arm-embedded\tools\gcc-arm-none-eabi-10-2020-q4-major\arm-none-eabi\include\c++\10.2.1\array ****    *
  88:c:\programdata\chocolatey\lib\gcc-arm-embedded\tools\gcc-arm-none-eabi-10-2020-q4-major\arm-none-eabi\include\c++\10.2.1\array ****    *  Sets support random access iterators.
  89:c:\programdata\chocolatey\lib\gcc-arm-embedded\tools\gcc-arm-none-eabi-10-2020-q4-major\arm-none-eabi\include\c++\10.2.1\array ****    *
  90:c:\programdata\chocolatey\lib\gcc-arm-embedded\tools\gcc-arm-none-eabi-10-2020-q4-major\arm-none-eabi\include\c++\10.2.1\array ****    *  @tparam  Tp  Type of element. Required to be a complete type.
  91:c:\programdata\chocolatey\lib\gcc-arm-embedded\tools\gcc-arm-none-eabi-10-2020-q4-major\arm-none-eabi\include\c++\10.2.1\array ****    *  @tparam  Nm  Number of elements.
  92:c:\programdata\chocolatey\lib\gcc-arm-embedded\tools\gcc-arm-none-eabi-10-2020-q4-major\arm-none-eabi\include\c++\10.2.1\array ****   */
  93:c:\programdata\chocolatey\lib\gcc-arm-embedded\tools\gcc-arm-none-eabi-10-2020-q4-major\arm-none-eabi\include\c++\10.2.1\array ****   template<typename _Tp, std::size_t _Nm>
  94:c:\programdata\chocolatey\lib\gcc-arm-embedded\tools\gcc-arm-none-eabi-10-2020-q4-major\arm-none-eabi\include\c++\10.2.1\array ****     struct array
 196              		.loc 12 94 12 is_stmt 1 view -0
 197              		.cfi_startproc
 198              		@ args = 0, pretend = 0, frame = 0
 199              		@ frame_needed = 0, uses_anonymous_args = 0
 200              		@ link register save eliminated.
 201              		.loc 12 94 12 is_stmt 0 view .LVU25
 202 0000 7047     		bx	lr
 203              		.cfi_endproc
ARM GAS  C:\Users\daniel\AppData\Local\Temp\cc1VxNgq.s 			page 16


 204              	.LFE5424:
 206              		.weak	_ZNSt5arrayI12SampleBufferILj240000EELj8EED1Ev
 207              		.thumb_set _ZNSt5arrayI12SampleBufferILj240000EELj8EED1Ev,_ZNSt5arrayI12SampleBufferILj240000EELj8
 208              		.section	.text._Z10getSamplesv,"ax",%progbits
 209              		.align	1
 210              		.p2align 2,,3
 211              		.global	_Z10getSamplesv
 212              		.syntax unified
 213              		.thumb
 214              		.thumb_func
 215              		.fpu fpv5-d16
 217              	_Z10getSamplesv:
 218              	.LFB4839:
 219              		.file 13 "Proliferation.cpp"
   1:Proliferation.cpp **** #include "daisy_patch_sm.h"
   2:Proliferation.cpp **** #include "daisysp.h"
   3:Proliferation.cpp **** #include "samplebuffer.h"
   4:Proliferation.cpp **** #include <array>
   5:Proliferation.cpp **** 
   6:Proliferation.cpp **** using namespace daisy;
   7:Proliferation.cpp **** using namespace patch_sm;
   8:Proliferation.cpp **** using namespace daisysp;
   9:Proliferation.cpp **** 
  10:Proliferation.cpp **** DaisyPatchSM    hw;
  11:Proliferation.cpp **** Switch          toggle;
  12:Proliferation.cpp **** Switch          button;
  13:Proliferation.cpp **** ReverbSc        rv;
  14:Proliferation.cpp **** AdEnv           env;
  15:Proliferation.cpp **** Overdrive       drive;
  16:Proliferation.cpp **** 
  17:Proliferation.cpp **** #define MIN 0
  18:Proliferation.cpp **** #define MAX 1
  19:Proliferation.cpp **** 
  20:Proliferation.cpp **** //sample setup 
  21:Proliferation.cpp **** #define NUM_BUFFERS 8
  22:Proliferation.cpp **** // 1 second sample buffers at 48kHz
  23:Proliferation.cpp **** #define BUFFER_SIZE (48000 * 5)
  24:Proliferation.cpp **** std::array<SampleBuffer<BUFFER_SIZE>, NUM_BUFFERS> DSY_SDRAM_BSS buffers;
  25:Proliferation.cpp **** int s = 0;
  26:Proliferation.cpp **** 
  27:Proliferation.cpp **** void getSamples(){
 220              		.loc 13 27 18 is_stmt 1 view -0
 221              		.cfi_startproc
 222              		@ args = 0, pretend = 0, frame = 0
 223              		@ frame_needed = 0, uses_anonymous_args = 0
  28:Proliferation.cpp ****     hw.ProcessAllControls();
 224              		.loc 13 28 5 view .LVU27
 225              	.LVL6:
 226              	.LBB754:
 227              	.LBI754:
  66:../../libDaisy//src/daisy_patch_sm.h **** 
  67:../../libDaisy//src/daisy_patch_sm.h ****         /** Initializes the memories, and core peripherals for the Daisy Patch SM */
  68:../../libDaisy//src/daisy_patch_sm.h ****         void Init();
  69:../../libDaisy//src/daisy_patch_sm.h **** 
  70:../../libDaisy//src/daisy_patch_sm.h ****         /** Starts a non-interleaving audio callback */
  71:../../libDaisy//src/daisy_patch_sm.h ****         void StartAudio(AudioHandle::AudioCallback cb);
  72:../../libDaisy//src/daisy_patch_sm.h **** 
ARM GAS  C:\Users\daniel\AppData\Local\Temp\cc1VxNgq.s 			page 17


  73:../../libDaisy//src/daisy_patch_sm.h ****         /** Starts an interleaving audio callback */
  74:../../libDaisy//src/daisy_patch_sm.h ****         void StartAudio(AudioHandle::InterleavingAudioCallback cb);
  75:../../libDaisy//src/daisy_patch_sm.h **** 
  76:../../libDaisy//src/daisy_patch_sm.h ****         /** Changes the callback that is executing.
  77:../../libDaisy//src/daisy_patch_sm.h ****          *  This may cause clicks if done while audio is processing.
  78:../../libDaisy//src/daisy_patch_sm.h ****          */
  79:../../libDaisy//src/daisy_patch_sm.h ****         void ChangeAudioCallback(AudioHandle::AudioCallback cb);
  80:../../libDaisy//src/daisy_patch_sm.h **** 
  81:../../libDaisy//src/daisy_patch_sm.h ****         /** Changes the callback that is executing.
  82:../../libDaisy//src/daisy_patch_sm.h ****          *  This may cause clicks if done while audio is processing.
  83:../../libDaisy//src/daisy_patch_sm.h ****          */
  84:../../libDaisy//src/daisy_patch_sm.h ****         void ChangeAudioCallback(AudioHandle::InterleavingAudioCallback cb);
  85:../../libDaisy//src/daisy_patch_sm.h **** 
  86:../../libDaisy//src/daisy_patch_sm.h ****         /** Stops the transmission of audio. */
  87:../../libDaisy//src/daisy_patch_sm.h ****         void StopAudio();
  88:../../libDaisy//src/daisy_patch_sm.h **** 
  89:../../libDaisy//src/daisy_patch_sm.h ****         /** Sets the number of samples processed in an audio callback. 
  90:../../libDaisy//src/daisy_patch_sm.h ****          *  This will only take effect on the next invocation of `StartAudio`
  91:../../libDaisy//src/daisy_patch_sm.h ****          */
  92:../../libDaisy//src/daisy_patch_sm.h ****         void SetAudioBlockSize(size_t size);
  93:../../libDaisy//src/daisy_patch_sm.h **** 
  94:../../libDaisy//src/daisy_patch_sm.h ****         /** Sets the samplerate for the audio engine 
  95:../../libDaisy//src/daisy_patch_sm.h ****          *  This will set it to the closest valid samplerate. Options being:
  96:../../libDaisy//src/daisy_patch_sm.h ****          *  8kHz, 16kHz, 32kHz, 48kHz, and 96kHz
  97:../../libDaisy//src/daisy_patch_sm.h ****          */
  98:../../libDaisy//src/daisy_patch_sm.h ****         void SetAudioSampleRate(float sr);
  99:../../libDaisy//src/daisy_patch_sm.h **** 
 100:../../libDaisy//src/daisy_patch_sm.h ****         void SetAudioSampleRate(SaiHandle::Config::SampleRate sample_rate);
 101:../../libDaisy//src/daisy_patch_sm.h **** 
 102:../../libDaisy//src/daisy_patch_sm.h ****         /** Returns the number of samples processed in an audio callback */
 103:../../libDaisy//src/daisy_patch_sm.h ****         size_t AudioBlockSize();
 104:../../libDaisy//src/daisy_patch_sm.h **** 
 105:../../libDaisy//src/daisy_patch_sm.h ****         /** Returns the audio engine's samplerate in Hz */
 106:../../libDaisy//src/daisy_patch_sm.h ****         float AudioSampleRate();
 107:../../libDaisy//src/daisy_patch_sm.h **** 
 108:../../libDaisy//src/daisy_patch_sm.h ****         /** Returns the rate at which the audio callback will be called in Hz */
 109:../../libDaisy//src/daisy_patch_sm.h ****         float AudioCallbackRate();
 110:../../libDaisy//src/daisy_patch_sm.h **** 
 111:../../libDaisy//src/daisy_patch_sm.h ****         /** Starts the Control ADCs 
 112:../../libDaisy//src/daisy_patch_sm.h ****          * 
 113:../../libDaisy//src/daisy_patch_sm.h ****          *  This is started automatically when Init() is called.
 114:../../libDaisy//src/daisy_patch_sm.h ****          */
 115:../../libDaisy//src/daisy_patch_sm.h ****         void StartAdc();
 116:../../libDaisy//src/daisy_patch_sm.h **** 
 117:../../libDaisy//src/daisy_patch_sm.h ****         /** Stops the Control ADCs */
 118:../../libDaisy//src/daisy_patch_sm.h ****         void StopAdc();
 119:../../libDaisy//src/daisy_patch_sm.h **** 
 120:../../libDaisy//src/daisy_patch_sm.h ****         /** Reads and filters all of the analog control inputs */
 121:../../libDaisy//src/daisy_patch_sm.h ****         void ProcessAnalogControls();
 122:../../libDaisy//src/daisy_patch_sm.h **** 
 123:../../libDaisy//src/daisy_patch_sm.h ****         /** Reads and debounces any of the digital control inputs 
 124:../../libDaisy//src/daisy_patch_sm.h ****          *  This does nothing on this board at this time.
 125:../../libDaisy//src/daisy_patch_sm.h ****          */
 126:../../libDaisy//src/daisy_patch_sm.h ****         void ProcessDigitalControls();
 127:../../libDaisy//src/daisy_patch_sm.h **** 
 128:../../libDaisy//src/daisy_patch_sm.h ****         /** Does both of the above */
 129:../../libDaisy//src/daisy_patch_sm.h ****         void ProcessAllControls()
ARM GAS  C:\Users\daniel\AppData\Local\Temp\cc1VxNgq.s 			page 18


 228              		.loc 2 129 14 view .LVU28
 229              	.LBB755:
 130:../../libDaisy//src/daisy_patch_sm.h ****         {
 131:../../libDaisy//src/daisy_patch_sm.h ****             ProcessAnalogControls();
 230              		.loc 2 131 13 view .LVU29
 231              	.LBE755:
 232              	.LBE754:
  27:Proliferation.cpp ****     hw.ProcessAllControls();
 233              		.loc 13 27 18 is_stmt 0 view .LVU30
 234 0000 38B5     		push	{r3, r4, r5, lr}
 235              		.cfi_def_cfa_offset 16
 236              		.cfi_offset 3, -16
 237              		.cfi_offset 4, -12
 238              		.cfi_offset 5, -8
 239              		.cfi_offset 14, -4
 240              	.LBB758:
 241              	.LBB756:
 242              		.loc 2 131 34 view .LVU31
 243 0002 A748     		ldr	r0, .L89
 244              	.LBE756:
 245              	.LBE758:
  29:Proliferation.cpp **** 
  30:Proliferation.cpp **** 	button.Debounce();
  31:Proliferation.cpp ****     toggle.Debounce(); 
  32:Proliferation.cpp **** 
  33:Proliferation.cpp ****     float time_knob = hw.GetAdcValue(CV_1);
  34:Proliferation.cpp ****     float time      = fmap(time_knob, 0.3f, 0.99f);
  35:Proliferation.cpp **** 
  36:Proliferation.cpp ****     float damp_knob = hw.GetAdcValue(CV_2);
  37:Proliferation.cpp ****     float damp      = fmap(damp_knob, 1000.f, 19000.f, Mapping::LOG);
  38:Proliferation.cpp **** 
  39:Proliferation.cpp ****     rv.SetFeedback(time);
  40:Proliferation.cpp ****     rv.SetLpFreq(damp);
  41:Proliferation.cpp ****         
  42:Proliferation.cpp ****     // randomizer
  43:Proliferation.cpp **** 	int randSamp = rand() % NUM_BUFFERS;
 246              		.loc 13 43 26 view .LVU32
 247 0004 0824     		movs	r4, #8
  27:Proliferation.cpp ****     hw.ProcessAllControls();
 248              		.loc 13 27 18 view .LVU33
 249 0006 2DED028B 		vpush.64	{d8}
 250              		.cfi_def_cfa_offset 24
 251              		.cfi_offset 80, -24
 252              		.cfi_offset 81, -20
 253              	.LBB759:
 254              	.LBB757:
 255              		.loc 2 131 34 view .LVU34
 256 000a FFF7FEFF 		bl	_ZN5daisy8patch_sm12DaisyPatchSM21ProcessAnalogControlsEv
 257              	.LVL7:
 132:../../libDaisy//src/daisy_patch_sm.h ****             ProcessDigitalControls();
 258              		.loc 2 132 13 is_stmt 1 view .LVU35
 259              		.loc 2 132 35 is_stmt 0 view .LVU36
 260 000e A448     		ldr	r0, .L89
 261 0010 FFF7FEFF 		bl	_ZN5daisy8patch_sm12DaisyPatchSM22ProcessDigitalControlsEv
 262              	.LVL8:
 263              		.loc 2 132 35 view .LVU37
 264              	.LBE757:
ARM GAS  C:\Users\daniel\AppData\Local\Temp\cc1VxNgq.s 			page 19


 265              	.LBE759:
  30:Proliferation.cpp ****     toggle.Debounce(); 
 266              		.loc 13 30 2 is_stmt 1 view .LVU38
  30:Proliferation.cpp ****     toggle.Debounce(); 
 267              		.loc 13 30 17 is_stmt 0 view .LVU39
 268 0014 A348     		ldr	r0, .L89+4
 269 0016 FFF7FEFF 		bl	_ZN5daisy6Switch8DebounceEv
 270              	.LVL9:
  31:Proliferation.cpp **** 
 271              		.loc 13 31 5 is_stmt 1 view .LVU40
 272              	.LBB760:
 273              	.LBB761:
 274              		.file 14 "../../DaisySP//Source/Utility/dsp.h"
   1:../../DaisySP//Source/Utility/dsp.h **** /** Helpful defines, functions, and other utilities for use in/with daisysp modules.
   2:../../DaisySP//Source/Utility/dsp.h **** */
   3:../../DaisySP//Source/Utility/dsp.h **** #pragma once
   4:../../DaisySP//Source/Utility/dsp.h **** #ifndef DSY_CORE_DSP
   5:../../DaisySP//Source/Utility/dsp.h **** #define DSY_CORE_DSP
   6:../../DaisySP//Source/Utility/dsp.h **** #include <cassert>
   7:../../DaisySP//Source/Utility/dsp.h **** #include <cstdint>
   8:../../DaisySP//Source/Utility/dsp.h **** #include <random>
   9:../../DaisySP//Source/Utility/dsp.h **** #include <cmath>
  10:../../DaisySP//Source/Utility/dsp.h **** 
  11:../../DaisySP//Source/Utility/dsp.h **** /** PIs
  12:../../DaisySP//Source/Utility/dsp.h **** */
  13:../../DaisySP//Source/Utility/dsp.h **** #define PI_F 3.1415927410125732421875f
  14:../../DaisySP//Source/Utility/dsp.h **** #define TWOPI_F (2.0f * PI_F)
  15:../../DaisySP//Source/Utility/dsp.h **** #define HALFPI_F (PI_F * 0.5f)
  16:../../DaisySP//Source/Utility/dsp.h **** #define DSY_MIN(in, mn) (in < mn ? in : mn)
  17:../../DaisySP//Source/Utility/dsp.h **** #define DSY_MAX(in, mx) (in > mx ? in : mx)
  18:../../DaisySP//Source/Utility/dsp.h **** #define DSY_CLAMP(in, mn, mx) (DSY_MIN(DSY_MAX(in, mn), mx))
  19:../../DaisySP//Source/Utility/dsp.h **** #define DSY_COUNTOF(_arr) (sizeof(_arr) / sizeof(_arr[0]))
  20:../../DaisySP//Source/Utility/dsp.h **** 
  21:../../DaisySP//Source/Utility/dsp.h **** namespace daisysp
  22:../../DaisySP//Source/Utility/dsp.h **** {
  23:../../DaisySP//Source/Utility/dsp.h **** //Avoids division for random floats. e.g. rand() * kRandFrac
  24:../../DaisySP//Source/Utility/dsp.h **** static constexpr float kRandFrac = 1.f / (float)RAND_MAX;
  25:../../DaisySP//Source/Utility/dsp.h **** 
  26:../../DaisySP//Source/Utility/dsp.h **** //Convert from semitones to other units. e.g. 2 ^ (kOneTwelfth * x)
  27:../../DaisySP//Source/Utility/dsp.h **** static constexpr float kOneTwelfth = 1.f / 12.f;
  28:../../DaisySP//Source/Utility/dsp.h **** 
  29:../../DaisySP//Source/Utility/dsp.h **** /** efficient floating point min/max
  30:../../DaisySP//Source/Utility/dsp.h **** c/o stephen mccaul
  31:../../DaisySP//Source/Utility/dsp.h **** */
  32:../../DaisySP//Source/Utility/dsp.h **** inline float fmax(float a, float b)
  33:../../DaisySP//Source/Utility/dsp.h **** {
  34:../../DaisySP//Source/Utility/dsp.h ****     float r;
  35:../../DaisySP//Source/Utility/dsp.h **** #ifdef __arm__
  36:../../DaisySP//Source/Utility/dsp.h ****     asm("vmaxnm.f32 %[d], %[n], %[m]" : [d] "=t"(r) : [n] "t"(a), [m] "t"(b) :);
  37:../../DaisySP//Source/Utility/dsp.h **** #else
  38:../../DaisySP//Source/Utility/dsp.h ****     r = (a > b) ? a : b;
  39:../../DaisySP//Source/Utility/dsp.h **** #endif // __arm__
  40:../../DaisySP//Source/Utility/dsp.h ****     return r;
  41:../../DaisySP//Source/Utility/dsp.h **** }
  42:../../DaisySP//Source/Utility/dsp.h **** 
  43:../../DaisySP//Source/Utility/dsp.h **** inline float fmin(float a, float b)
  44:../../DaisySP//Source/Utility/dsp.h **** {
ARM GAS  C:\Users\daniel\AppData\Local\Temp\cc1VxNgq.s 			page 20


  45:../../DaisySP//Source/Utility/dsp.h ****     float r;
  46:../../DaisySP//Source/Utility/dsp.h **** #ifdef __arm__
  47:../../DaisySP//Source/Utility/dsp.h ****     asm("vminnm.f32 %[d], %[n], %[m]" : [d] "=t"(r) : [n] "t"(a), [m] "t"(b) :);
  48:../../DaisySP//Source/Utility/dsp.h **** #else
  49:../../DaisySP//Source/Utility/dsp.h ****     r = (a < b) ? a : b;
  50:../../DaisySP//Source/Utility/dsp.h **** #endif // __arm__
  51:../../DaisySP//Source/Utility/dsp.h ****     return r;
  52:../../DaisySP//Source/Utility/dsp.h **** }
  53:../../DaisySP//Source/Utility/dsp.h **** 
  54:../../DaisySP//Source/Utility/dsp.h **** /** quick fp clamp
  55:../../DaisySP//Source/Utility/dsp.h **** */
  56:../../DaisySP//Source/Utility/dsp.h **** inline float fclamp(float in, float min, float max)
  57:../../DaisySP//Source/Utility/dsp.h **** {
  58:../../DaisySP//Source/Utility/dsp.h ****     return fmin(fmax(in, min), max);
  59:../../DaisySP//Source/Utility/dsp.h **** }
  60:../../DaisySP//Source/Utility/dsp.h **** 
  61:../../DaisySP//Source/Utility/dsp.h **** /** From Musicdsp.org "Fast power and root estimates for 32bit floats)
  62:../../DaisySP//Source/Utility/dsp.h **** Original code by Stefan Stenzel
  63:../../DaisySP//Source/Utility/dsp.h **** These are approximations
  64:../../DaisySP//Source/Utility/dsp.h **** */
  65:../../DaisySP//Source/Utility/dsp.h **** inline float fastpower(float f, int n)
  66:../../DaisySP//Source/Utility/dsp.h **** {
  67:../../DaisySP//Source/Utility/dsp.h ****     long *lp, l;
  68:../../DaisySP//Source/Utility/dsp.h ****     lp = (long *)(&f);
  69:../../DaisySP//Source/Utility/dsp.h ****     l  = *lp;
  70:../../DaisySP//Source/Utility/dsp.h ****     l -= 0x3F800000;
  71:../../DaisySP//Source/Utility/dsp.h ****     l <<= (n - 1);
  72:../../DaisySP//Source/Utility/dsp.h ****     l += 0x3F800000;
  73:../../DaisySP//Source/Utility/dsp.h ****     *lp = l;
  74:../../DaisySP//Source/Utility/dsp.h ****     return f;
  75:../../DaisySP//Source/Utility/dsp.h **** }
  76:../../DaisySP//Source/Utility/dsp.h **** 
  77:../../DaisySP//Source/Utility/dsp.h **** inline float fastroot(float f, int n)
  78:../../DaisySP//Source/Utility/dsp.h **** {
  79:../../DaisySP//Source/Utility/dsp.h ****     long *lp, l;
  80:../../DaisySP//Source/Utility/dsp.h ****     lp = (long *)(&f);
  81:../../DaisySP//Source/Utility/dsp.h ****     l  = *lp;
  82:../../DaisySP//Source/Utility/dsp.h ****     l -= 0x3F800000;
  83:../../DaisySP//Source/Utility/dsp.h ****     l >>= (n = 1);
  84:../../DaisySP//Source/Utility/dsp.h ****     l += 0x3F800000;
  85:../../DaisySP//Source/Utility/dsp.h ****     *lp = l;
  86:../../DaisySP//Source/Utility/dsp.h ****     return f;
  87:../../DaisySP//Source/Utility/dsp.h **** }
  88:../../DaisySP//Source/Utility/dsp.h **** 
  89:../../DaisySP//Source/Utility/dsp.h **** /** From http://openaudio.blogspot.com/2017/02/faster-log10-and-pow.html
  90:../../DaisySP//Source/Utility/dsp.h **** No approximation, pow10f(x) gives a 90% speed increase over powf(10.f, x)
  91:../../DaisySP//Source/Utility/dsp.h **** */
  92:../../DaisySP//Source/Utility/dsp.h **** inline float pow10f(float f)
  93:../../DaisySP//Source/Utility/dsp.h **** {
  94:../../DaisySP//Source/Utility/dsp.h ****     return expf(2.302585092994046f * f);
  95:../../DaisySP//Source/Utility/dsp.h **** }
  96:../../DaisySP//Source/Utility/dsp.h **** 
  97:../../DaisySP//Source/Utility/dsp.h **** /* Original code for fastlog2f by Dr. Paul Beckmann from the ARM community forum, adapted from the 
  98:../../DaisySP//Source/Utility/dsp.h **** About 25% performance increase over std::log10f
  99:../../DaisySP//Source/Utility/dsp.h **** */
 100:../../DaisySP//Source/Utility/dsp.h **** inline float fastlog2f(float f)
 101:../../DaisySP//Source/Utility/dsp.h **** {
ARM GAS  C:\Users\daniel\AppData\Local\Temp\cc1VxNgq.s 			page 21


 102:../../DaisySP//Source/Utility/dsp.h ****     float frac;
 103:../../DaisySP//Source/Utility/dsp.h ****     int   exp;
 104:../../DaisySP//Source/Utility/dsp.h ****     frac = frexpf(fabsf(f), &exp);
 105:../../DaisySP//Source/Utility/dsp.h ****     f    = 1.23149591368684f;
 106:../../DaisySP//Source/Utility/dsp.h ****     f *= frac;
 107:../../DaisySP//Source/Utility/dsp.h ****     f += -4.11852516267426f;
 108:../../DaisySP//Source/Utility/dsp.h ****     f *= frac;
 109:../../DaisySP//Source/Utility/dsp.h ****     f += 6.02197014179219f;
 110:../../DaisySP//Source/Utility/dsp.h ****     f *= frac;
 111:../../DaisySP//Source/Utility/dsp.h ****     f += -3.13396450166353f;
 112:../../DaisySP//Source/Utility/dsp.h ****     f += exp;
 113:../../DaisySP//Source/Utility/dsp.h ****     return (f);
 114:../../DaisySP//Source/Utility/dsp.h **** }
 115:../../DaisySP//Source/Utility/dsp.h **** 
 116:../../DaisySP//Source/Utility/dsp.h **** inline float fastlog10f(float f)
 117:../../DaisySP//Source/Utility/dsp.h **** {
 118:../../DaisySP//Source/Utility/dsp.h ****     return fastlog2f(f) * 0.3010299956639812f;
 119:../../DaisySP//Source/Utility/dsp.h **** }
 120:../../DaisySP//Source/Utility/dsp.h **** 
 121:../../DaisySP//Source/Utility/dsp.h **** /** Midi to frequency helper
 122:../../DaisySP//Source/Utility/dsp.h **** */
 123:../../DaisySP//Source/Utility/dsp.h **** inline float mtof(float m)
 124:../../DaisySP//Source/Utility/dsp.h **** {
 125:../../DaisySP//Source/Utility/dsp.h ****     return powf(2, (m - 69.0f) / 12.0f) * 440.0f;
 126:../../DaisySP//Source/Utility/dsp.h **** }
 127:../../DaisySP//Source/Utility/dsp.h **** 
 128:../../DaisySP//Source/Utility/dsp.h **** 
 129:../../DaisySP//Source/Utility/dsp.h **** /** one pole lpf
 130:../../DaisySP//Source/Utility/dsp.h **** out is passed by reference, and must be retained between
 131:../../DaisySP//Source/Utility/dsp.h **** calls to properly filter the signal
 132:../../DaisySP//Source/Utility/dsp.h **** coeff can be calculated:
 133:../../DaisySP//Source/Utility/dsp.h **** coeff = 1.0 / (time * sample_rate) ; where time is in seconds
 134:../../DaisySP//Source/Utility/dsp.h **** */
 135:../../DaisySP//Source/Utility/dsp.h **** inline void fonepole(float &out, float in, float coeff)
 136:../../DaisySP//Source/Utility/dsp.h **** {
 137:../../DaisySP//Source/Utility/dsp.h ****     out += coeff * (in - out);
 138:../../DaisySP//Source/Utility/dsp.h **** }
 139:../../DaisySP//Source/Utility/dsp.h **** 
 140:../../DaisySP//Source/Utility/dsp.h **** /** Curves to use with the fmap function */
 141:../../DaisySP//Source/Utility/dsp.h **** enum class Mapping
 142:../../DaisySP//Source/Utility/dsp.h **** {
 143:../../DaisySP//Source/Utility/dsp.h ****     LINEAR,
 144:../../DaisySP//Source/Utility/dsp.h ****     EXP,
 145:../../DaisySP//Source/Utility/dsp.h ****     LOG,
 146:../../DaisySP//Source/Utility/dsp.h **** };
 147:../../DaisySP//Source/Utility/dsp.h **** 
 148:../../DaisySP//Source/Utility/dsp.h **** /** Maps a float between a specified range, using a specified curve. 
 149:../../DaisySP//Source/Utility/dsp.h ****  * 
 150:../../DaisySP//Source/Utility/dsp.h ****  *  \param in a value between 0 to 1 that will be mapped to the new range.
 151:../../DaisySP//Source/Utility/dsp.h ****  *  \param min the new minimum value
 152:../../DaisySP//Source/Utility/dsp.h ****  *  \param max the new maxmimum value
 153:../../DaisySP//Source/Utility/dsp.h ****  *  \param curve a Mapping Value to adjust the response curve of the transformation
 154:../../DaisySP//Source/Utility/dsp.h ****  *               defaults to Linear. @see Mapping
 155:../../DaisySP//Source/Utility/dsp.h ****  * 
 156:../../DaisySP//Source/Utility/dsp.h ****  *  When using the log curve min and max, must be greater than zero.
 157:../../DaisySP//Source/Utility/dsp.h ****  * 
 158:../../DaisySP//Source/Utility/dsp.h ****  *  \retval returns the transformed float within the new range.
ARM GAS  C:\Users\daniel\AppData\Local\Temp\cc1VxNgq.s 			page 22


 159:../../DaisySP//Source/Utility/dsp.h **** */
 160:../../DaisySP//Source/Utility/dsp.h **** inline float
 161:../../DaisySP//Source/Utility/dsp.h **** fmap(float in, float min, float max, Mapping curve = Mapping::LINEAR)
 162:../../DaisySP//Source/Utility/dsp.h **** {
 163:../../DaisySP//Source/Utility/dsp.h ****     switch(curve)
 164:../../DaisySP//Source/Utility/dsp.h ****     {
 165:../../DaisySP//Source/Utility/dsp.h ****         case Mapping::EXP:
 166:../../DaisySP//Source/Utility/dsp.h ****             return fclamp(min + (in * in) * (max - min), min, max);
 167:../../DaisySP//Source/Utility/dsp.h ****         case Mapping::LOG:
 168:../../DaisySP//Source/Utility/dsp.h ****         {
 169:../../DaisySP//Source/Utility/dsp.h ****             const float a = 1.f / log10f(max / min);
 170:../../DaisySP//Source/Utility/dsp.h ****             return fclamp(min * powf(10, in / a), min, max);
 171:../../DaisySP//Source/Utility/dsp.h ****         }
 172:../../DaisySP//Source/Utility/dsp.h ****         case Mapping::LINEAR:
 173:../../DaisySP//Source/Utility/dsp.h ****         default: return fclamp(min + in * (max - min), min, max);
 275              		.loc 14 173 31 is_stmt 0 view .LVU41
 276 001a 9FEDA38A 		vldr.32	s16, .L89+8
 277              	.LBE761:
 278              	.LBE760:
  31:Proliferation.cpp **** 
 279              		.loc 13 31 20 view .LVU42
 280 001e A348     		ldr	r0, .L89+12
 281 0020 FFF7FEFF 		bl	_ZN5daisy6Switch8DebounceEv
 282              	.LVL10:
  33:Proliferation.cpp ****     float time      = fmap(time_knob, 0.3f, 0.99f);
 283              		.loc 13 33 5 is_stmt 1 view .LVU43
  33:Proliferation.cpp ****     float time      = fmap(time_knob, 0.3f, 0.99f);
 284              		.loc 13 33 37 is_stmt 0 view .LVU44
 285 0024 0021     		movs	r1, #0
 286 0026 9E48     		ldr	r0, .L89
 287 0028 FFF7FEFF 		bl	_ZN5daisy8patch_sm12DaisyPatchSM11GetAdcValueEi
 288              	.LVL11:
  34:Proliferation.cpp **** 
 289              		.loc 13 34 5 is_stmt 1 view .LVU45
 290              	.LBB775:
 291              	.LBI760:
 161:../../DaisySP//Source/Utility/dsp.h **** {
 292              		.loc 14 161 1 view .LVU46
 293              	.LBE775:
 163:../../DaisySP//Source/Utility/dsp.h ****     {
 294              		.loc 14 163 5 view .LVU47
 295              	.LBB776:
 296              	.LBB772:
 172:../../DaisySP//Source/Utility/dsp.h ****         default: return fclamp(min + in * (max - min), min, max);
 297              		.loc 14 172 9 view .LVU48
 298              		.loc 14 173 9 view .LVU49
 299              		.loc 14 173 18 view .LVU50
 300              		.loc 14 173 31 is_stmt 0 view .LVU51
 301 002c F0EE487A 		vmov.f32	s15, s16
 302 0030 9FED9F7A 		vldr.32	s14, .L89+16
 303              	.LBE772:
 304              	.LBE776:
  36:Proliferation.cpp ****     float damp      = fmap(damp_knob, 1000.f, 19000.f, Mapping::LOG);
 305              		.loc 13 36 37 view .LVU52
 306 0034 0121     		movs	r1, #1
 307 0036 9A48     		ldr	r0, .L89
 308              	.LBB777:
ARM GAS  C:\Users\daniel\AppData\Local\Temp\cc1VxNgq.s 			page 23


 309              	.LBB773:
 310              		.loc 14 173 31 view .LVU53
 311 0038 E0EE077A 		vfma.f32	s15, s0, s14
 312              	.LVL12:
 313              	.LBB762:
 314              	.LBI762:
  56:../../DaisySP//Source/Utility/dsp.h **** {
 315              		.loc 14 56 14 is_stmt 1 view .LVU54
 316              	.LBE762:
 317              	.LBE773:
 318              	.LBE777:
  58:../../DaisySP//Source/Utility/dsp.h **** }
 319              		.loc 14 58 5 view .LVU55
 320              	.LBB778:
 321              	.LBB774:
 322              	.LBB771:
 323              	.LBB763:
 324              	.LBI763:
  32:../../DaisySP//Source/Utility/dsp.h **** {
 325              		.loc 14 32 14 view .LVU56
 326              	.LBB764:
  34:../../DaisySP//Source/Utility/dsp.h **** #ifdef __arm__
 327              		.loc 14 34 5 view .LVU57
  36:../../DaisySP//Source/Utility/dsp.h **** #else
 328              		.loc 14 36 5 view .LVU58
 329              	.LBE764:
 330              	.LBE763:
 331              	.LBB766:
 332              	.LBB767:
  47:../../DaisySP//Source/Utility/dsp.h **** #else
 333              		.loc 14 47 5 is_stmt 0 view .LVU59
 334 003c 9FED9D7A 		vldr.32	s14, .L89+20
 335              	.LBE767:
 336              	.LBE766:
 337              	.LBB769:
 338              	.LBB765:
  36:../../DaisySP//Source/Utility/dsp.h **** #else
 339              		.loc 14 36 5 view .LVU60
 340              		.syntax unified
 341              	@ 36 "../../DaisySP//Source/Utility/dsp.h" 1
 342 0040 C7FE887A 		vmaxnm.f32 s15, s15, s16
 343              	@ 0 "" 2
 344              	.LVL13:
  40:../../DaisySP//Source/Utility/dsp.h **** }
 345              		.loc 14 40 5 is_stmt 1 view .LVU61
  40:../../DaisySP//Source/Utility/dsp.h **** }
 346              		.loc 14 40 5 is_stmt 0 view .LVU62
 347              		.thumb
 348              		.syntax unified
 349              	.LBE765:
 350              	.LBE769:
 351              	.LBB770:
 352              	.LBI766:
  43:../../DaisySP//Source/Utility/dsp.h **** {
 353              		.loc 14 43 14 is_stmt 1 view .LVU63
 354              	.LBB768:
  45:../../DaisySP//Source/Utility/dsp.h **** #ifdef __arm__
ARM GAS  C:\Users\daniel\AppData\Local\Temp\cc1VxNgq.s 			page 24


 355              		.loc 14 45 5 view .LVU64
  47:../../DaisySP//Source/Utility/dsp.h **** #else
 356              		.loc 14 47 5 view .LVU65
 357              		.syntax unified
 358              	@ 47 "../../DaisySP//Source/Utility/dsp.h" 1
 359 0044 87FEC78A 		vminnm.f32 s16, s15, s14
 360              	@ 0 "" 2
 361              	.LVL14:
  51:../../DaisySP//Source/Utility/dsp.h **** }
 362              		.loc 14 51 5 view .LVU66
  51:../../DaisySP//Source/Utility/dsp.h **** }
 363              		.loc 14 51 5 is_stmt 0 view .LVU67
 364              		.thumb
 365              		.syntax unified
 366              	.LBE768:
 367              	.LBE770:
 368              	.LBE771:
 369              	.LBE774:
 370              	.LBE778:
  36:Proliferation.cpp ****     float damp      = fmap(damp_knob, 1000.f, 19000.f, Mapping::LOG);
 371              		.loc 13 36 5 is_stmt 1 view .LVU68
  36:Proliferation.cpp ****     float damp      = fmap(damp_knob, 1000.f, 19000.f, Mapping::LOG);
 372              		.loc 13 36 37 is_stmt 0 view .LVU69
 373 0048 FFF7FEFF 		bl	_ZN5daisy8patch_sm12DaisyPatchSM11GetAdcValueEi
 374              	.LVL15:
  36:Proliferation.cpp ****     float damp      = fmap(damp_knob, 1000.f, 19000.f, Mapping::LOG);
 375              		.loc 13 36 37 view .LVU70
 376 004c F0EE400A 		vmov.f32	s1, s0
 377              	.LVL16:
  37:Proliferation.cpp **** 
 378              		.loc 13 37 5 is_stmt 1 view .LVU71
 379              	.LBB779:
 380              	.LBI779:
 161:../../DaisySP//Source/Utility/dsp.h **** {
 381              		.loc 14 161 1 view .LVU72
 382              	.LBE779:
 163:../../DaisySP//Source/Utility/dsp.h ****     {
 383              		.loc 14 163 5 view .LVU73
 384              	.LBB801:
 385              	.LBB780:
 386              	.LBI780:
 161:../../DaisySP//Source/Utility/dsp.h **** {
 387              		.loc 14 161 1 view .LVU74
 161:../../DaisySP//Source/Utility/dsp.h **** {
 388              		.loc 14 161 1 is_stmt 0 view .LVU75
 389              	.LBE780:
 390              	.LBE801:
 167:../../DaisySP//Source/Utility/dsp.h ****         {
 391              		.loc 14 167 9 is_stmt 1 view .LVU76
 168:../../DaisySP//Source/Utility/dsp.h ****             const float a = 1.f / log10f(max / min);
 392              		.loc 14 168 9 view .LVU77
 393              	.LBB802:
 394              	.LBB797:
 395              	.LBB781:
 169:../../DaisySP//Source/Utility/dsp.h ****             return fclamp(min * powf(10, in / a), min, max);
 396              		.loc 14 169 13 view .LVU78
 170:../../DaisySP//Source/Utility/dsp.h ****         }
ARM GAS  C:\Users\daniel\AppData\Local\Temp\cc1VxNgq.s 			page 25


 397              		.loc 14 170 13 view .LVU79
 170:../../DaisySP//Source/Utility/dsp.h ****         }
 398              		.loc 14 170 37 is_stmt 0 view .LVU80
 399 0050 DFED997A 		vldr.32	s15, .L89+24
 400 0054 B2EE040A 		vmov.f32	s0, #1.0e+1
 401              	.LVL17:
 170:../../DaisySP//Source/Utility/dsp.h ****         }
 402              		.loc 14 170 37 view .LVU81
 403 0058 C0EEA70A 		vdiv.f32	s1, s1, s15
 404              	.LVL18:
 170:../../DaisySP//Source/Utility/dsp.h ****         }
 405              		.loc 14 170 37 view .LVU82
 406 005c FFF7FEFF 		bl	powf
 407              	.LVL19:
 408              	.LBB782:
 409              	.LBI782:
  56:../../DaisySP//Source/Utility/dsp.h **** {
 410              		.loc 14 56 14 is_stmt 1 view .LVU83
 411              	.LBE782:
 412              	.LBE781:
 413              	.LBE797:
 414              	.LBE802:
  58:../../DaisySP//Source/Utility/dsp.h **** }
 415              		.loc 14 58 5 view .LVU84
 416              	.LBB803:
 417              	.LBB798:
 418              	.LBB794:
 419              	.LBB791:
 420              	.LBB783:
 421              	.LBI783:
  32:../../DaisySP//Source/Utility/dsp.h **** {
 422              		.loc 14 32 14 view .LVU85
 423              	.LBB784:
  34:../../DaisySP//Source/Utility/dsp.h **** #ifdef __arm__
 424              		.loc 14 34 5 view .LVU86
  36:../../DaisySP//Source/Utility/dsp.h **** #else
 425              		.loc 14 36 5 view .LVU87
 426              	.LBE784:
 427              	.LBE783:
 428              	.LBE791:
 429              	.LBE794:
 430              	.LBE798:
 431              	.LBE803:
 432              	.LBB804:
 433              	.LBB805:
  42:../../DaisySP//Source/Effects/reverbsc.h ****     /** Initializes the reverb module, and sets the sample_rate at which the Process function will 
  43:../../DaisySP//Source/Effects/reverbsc.h ****         Returns 0 if all good, or 1 if it runs out of delay times exceed maximum allowed.
  44:../../DaisySP//Source/Effects/reverbsc.h ****     */
  45:../../DaisySP//Source/Effects/reverbsc.h ****     int Init(float sample_rate);
  46:../../DaisySP//Source/Effects/reverbsc.h **** 
  47:../../DaisySP//Source/Effects/reverbsc.h ****     /** Process the input through the reverb, and updates values of out1, and out2 with the new pro
  48:../../DaisySP//Source/Effects/reverbsc.h ****     */
  49:../../DaisySP//Source/Effects/reverbsc.h ****     int Process(const float &in1, const float &in2, float *out1, float *out2);
  50:../../DaisySP//Source/Effects/reverbsc.h **** 
  51:../../DaisySP//Source/Effects/reverbsc.h ****     /** controls the reverb time. reverb tail becomes infinite when set to 1.0
  52:../../DaisySP//Source/Effects/reverbsc.h ****         \param fb - sets reverb time. range: 0.0 to 1.0
  53:../../DaisySP//Source/Effects/reverbsc.h ****     */
ARM GAS  C:\Users\daniel\AppData\Local\Temp\cc1VxNgq.s 			page 26


  54:../../DaisySP//Source/Effects/reverbsc.h ****     inline void SetFeedback(const float &fb) { feedback_ = fb; }
 434              		.loc 11 54 58 is_stmt 0 view .LVU88
 435 0060 964B     		ldr	r3, .L89+28
 436              	.LBE805:
 437              	.LBE804:
 438              	.LBB808:
 439              	.LBB799:
 440              	.LBB795:
 170:../../DaisySP//Source/Utility/dsp.h ****         }
 441              		.loc 14 170 26 view .LVU89
 442 0062 DFED977A 		vldr.32	s15, .L89+32
 443              	.LBB792:
 444              	.LBB786:
 445              	.LBB787:
  47:../../DaisySP//Source/Utility/dsp.h **** #else
 446              		.loc 14 47 5 view .LVU90
 447 0066 9FED977A 		vldr.32	s14, .L89+36
 448              	.LBE787:
 449              	.LBE786:
 450              	.LBE792:
 451              	.LBE795:
 452              	.LBE799:
 453              	.LBE808:
 454              	.LBB809:
 455              	.LBB806:
 456              		.loc 11 54 58 view .LVU91
 457 006a 83ED008A 		vstr.32	s16, [r3]
 458              	.LBE806:
 459              	.LBE809:
 460              	.LBB810:
 461              	.LBB800:
 462              	.LBB796:
 170:../../DaisySP//Source/Utility/dsp.h ****         }
 463              		.loc 14 170 26 view .LVU92
 464 006e 20EE270A 		vmul.f32	s0, s0, s15
 465              	.LVL20:
 466              	.LBB793:
 467              	.LBB789:
 468              	.LBB785:
  36:../../DaisySP//Source/Utility/dsp.h **** #else
 469              		.loc 14 36 5 view .LVU93
 470              		.syntax unified
 471              	@ 36 "../../DaisySP//Source/Utility/dsp.h" 1
 472 0072 C0FE277A 		vmaxnm.f32 s15, s0, s15
 473              	@ 0 "" 2
 474              	.LVL21:
  40:../../DaisySP//Source/Utility/dsp.h **** }
 475              		.loc 14 40 5 is_stmt 1 view .LVU94
  40:../../DaisySP//Source/Utility/dsp.h **** }
 476              		.loc 14 40 5 is_stmt 0 view .LVU95
 477              		.thumb
 478              		.syntax unified
 479              	.LBE785:
 480              	.LBE789:
 481              	.LBB790:
 482              	.LBI786:
  43:../../DaisySP//Source/Utility/dsp.h **** {
ARM GAS  C:\Users\daniel\AppData\Local\Temp\cc1VxNgq.s 			page 27


 483              		.loc 14 43 14 is_stmt 1 view .LVU96
 484              	.LBB788:
  45:../../DaisySP//Source/Utility/dsp.h **** #ifdef __arm__
 485              		.loc 14 45 5 view .LVU97
  47:../../DaisySP//Source/Utility/dsp.h **** #else
 486              		.loc 14 47 5 view .LVU98
 487              		.syntax unified
 488              	@ 47 "../../DaisySP//Source/Utility/dsp.h" 1
 489 0076 C7FEC77A 		vminnm.f32 s15, s15, s14
 490              	@ 0 "" 2
 491              	.LVL22:
  51:../../DaisySP//Source/Utility/dsp.h **** }
 492              		.loc 14 51 5 view .LVU99
  51:../../DaisySP//Source/Utility/dsp.h **** }
 493              		.loc 14 51 5 is_stmt 0 view .LVU100
 494              		.thumb
 495              		.syntax unified
 496              	.LBE788:
 497              	.LBE790:
 498              	.LBE793:
 499              	.LBE796:
 500              	.LBE800:
 501              	.LBE810:
  39:Proliferation.cpp ****     rv.SetLpFreq(damp);
 502              		.loc 13 39 5 is_stmt 1 view .LVU101
 503              	.LBB811:
 504              	.LBI804:
 505              		.loc 11 54 17 view .LVU102
 506              	.LBB807:
 507              		.loc 11 54 48 view .LVU103
 508              		.loc 11 54 48 is_stmt 0 view .LVU104
 509              	.LBE807:
 510              	.LBE811:
  40:Proliferation.cpp ****         
 511              		.loc 13 40 5 is_stmt 1 view .LVU105
 512              	.LBB812:
 513              	.LBI812:
  55:../../DaisySP//Source/Effects/reverbsc.h ****     /** controls the internal dampening filter's cutoff frequency.
  56:../../DaisySP//Source/Effects/reverbsc.h ****         \param freq - low pass frequency. range: 0.0 to sample_rate / 2
  57:../../DaisySP//Source/Effects/reverbsc.h ****     */
  58:../../DaisySP//Source/Effects/reverbsc.h ****     inline void SetLpFreq(const float &freq) { lpfreq_ = freq; }
 514              		.loc 11 58 17 view .LVU106
 515              	.LBB813:
 516              		.loc 11 58 48 view .LVU107
 517              		.loc 11 58 56 is_stmt 0 view .LVU108
 518 007a C3ED017A 		vstr.32	s15, [r3, #4]
 519              	.LVL23:
 520              		.loc 11 58 56 view .LVU109
 521              	.LBE813:
 522              	.LBE812:
 523              		.loc 13 43 2 is_stmt 1 view .LVU110
 524              		.loc 13 43 21 is_stmt 0 view .LVU111
 525 007e FFF7FEFF 		bl	rand
 526              	.LVL24:
 527              		.loc 13 43 26 view .LVU112
 528 0082 4342     		rsbs	r3, r0, #0
 529 0084 00F00705 		and	r5, r0, #7
ARM GAS  C:\Users\daniel\AppData\Local\Temp\cc1VxNgq.s 			page 28


 530 0088 03F00703 		and	r3, r3, #7
 531 008c 58BF     		it	pl
 532 008e 5D42     		rsbpl	r5, r3, #0
 533              	.LVL25:
  44:Proliferation.cpp **** 
  45:Proliferation.cpp ****     // playState will choose between gate states or otherwise
  46:Proliferation.cpp ****     //bool playState = toggle.Pressed();
  47:Proliferation.cpp **** 
  48:Proliferation.cpp ****     for(size_t i = 0; i < buffers.size(); i++)
 534              		.loc 13 48 5 is_stmt 1 view .LVU113
 535              	.LBB814:
 536              		.loc 13 48 25 view .LVU114
 537              	.L10:
  49:Proliferation.cpp ****     {
  50:Proliferation.cpp ****         if(hw.gate_in_2.Trig()) {
 538              		.loc 13 50 9 view .LVU115
 539              		.loc 13 50 29 is_stmt 0 view .LVU116
 540 0090 8D48     		ldr	r0, .L89+40
 541 0092 FFF7FEFF 		bl	_ZN5daisy6GateIn4TrigEv
 542              	.LVL26:
  51:Proliferation.cpp ****             buffers[randSamp].Play();
 543              		.loc 13 51 13 is_stmt 1 view .LVU117
 544              	.LBB815:
 545              	.LBI815:
  95:c:\programdata\chocolatey\lib\gcc-arm-embedded\tools\gcc-arm-none-eabi-10-2020-q4-major\arm-none-eabi\include\c++\10.2.1\array ****     {
  96:c:\programdata\chocolatey\lib\gcc-arm-embedded\tools\gcc-arm-none-eabi-10-2020-q4-major\arm-none-eabi\include\c++\10.2.1\array ****       typedef _Tp 	    			      value_type;
  97:c:\programdata\chocolatey\lib\gcc-arm-embedded\tools\gcc-arm-none-eabi-10-2020-q4-major\arm-none-eabi\include\c++\10.2.1\array ****       typedef value_type*			      pointer;
  98:c:\programdata\chocolatey\lib\gcc-arm-embedded\tools\gcc-arm-none-eabi-10-2020-q4-major\arm-none-eabi\include\c++\10.2.1\array ****       typedef const value_type*                       const_pointer;
  99:c:\programdata\chocolatey\lib\gcc-arm-embedded\tools\gcc-arm-none-eabi-10-2020-q4-major\arm-none-eabi\include\c++\10.2.1\array ****       typedef value_type&                   	      reference;
 100:c:\programdata\chocolatey\lib\gcc-arm-embedded\tools\gcc-arm-none-eabi-10-2020-q4-major\arm-none-eabi\include\c++\10.2.1\array ****       typedef const value_type&             	      const_reference;
 101:c:\programdata\chocolatey\lib\gcc-arm-embedded\tools\gcc-arm-none-eabi-10-2020-q4-major\arm-none-eabi\include\c++\10.2.1\array ****       typedef value_type*          		      iterator;
 102:c:\programdata\chocolatey\lib\gcc-arm-embedded\tools\gcc-arm-none-eabi-10-2020-q4-major\arm-none-eabi\include\c++\10.2.1\array ****       typedef const value_type*			      const_iterator;
 103:c:\programdata\chocolatey\lib\gcc-arm-embedded\tools\gcc-arm-none-eabi-10-2020-q4-major\arm-none-eabi\include\c++\10.2.1\array ****       typedef std::size_t                    	      size_type;
 104:c:\programdata\chocolatey\lib\gcc-arm-embedded\tools\gcc-arm-none-eabi-10-2020-q4-major\arm-none-eabi\include\c++\10.2.1\array ****       typedef std::ptrdiff_t                   	      difference_type;
 105:c:\programdata\chocolatey\lib\gcc-arm-embedded\tools\gcc-arm-none-eabi-10-2020-q4-major\arm-none-eabi\include\c++\10.2.1\array ****       typedef std::reverse_iterator<iterator>	      reverse_iterator;
 106:c:\programdata\chocolatey\lib\gcc-arm-embedded\tools\gcc-arm-none-eabi-10-2020-q4-major\arm-none-eabi\include\c++\10.2.1\array ****       typedef std::reverse_iterator<const_iterator>   const_reverse_iterator;
 107:c:\programdata\chocolatey\lib\gcc-arm-embedded\tools\gcc-arm-none-eabi-10-2020-q4-major\arm-none-eabi\include\c++\10.2.1\array **** 
 108:c:\programdata\chocolatey\lib\gcc-arm-embedded\tools\gcc-arm-none-eabi-10-2020-q4-major\arm-none-eabi\include\c++\10.2.1\array ****       // Support for zero-sized arrays mandatory.
 109:c:\programdata\chocolatey\lib\gcc-arm-embedded\tools\gcc-arm-none-eabi-10-2020-q4-major\arm-none-eabi\include\c++\10.2.1\array ****       typedef _GLIBCXX_STD_C::__array_traits<_Tp, _Nm> _AT_Type;
 110:c:\programdata\chocolatey\lib\gcc-arm-embedded\tools\gcc-arm-none-eabi-10-2020-q4-major\arm-none-eabi\include\c++\10.2.1\array ****       typename _AT_Type::_Type                         _M_elems;
 111:c:\programdata\chocolatey\lib\gcc-arm-embedded\tools\gcc-arm-none-eabi-10-2020-q4-major\arm-none-eabi\include\c++\10.2.1\array **** 
 112:c:\programdata\chocolatey\lib\gcc-arm-embedded\tools\gcc-arm-none-eabi-10-2020-q4-major\arm-none-eabi\include\c++\10.2.1\array ****       // No explicit construct/copy/destroy for aggregate type.
 113:c:\programdata\chocolatey\lib\gcc-arm-embedded\tools\gcc-arm-none-eabi-10-2020-q4-major\arm-none-eabi\include\c++\10.2.1\array **** 
 114:c:\programdata\chocolatey\lib\gcc-arm-embedded\tools\gcc-arm-none-eabi-10-2020-q4-major\arm-none-eabi\include\c++\10.2.1\array ****       // DR 776.
 115:c:\programdata\chocolatey\lib\gcc-arm-embedded\tools\gcc-arm-none-eabi-10-2020-q4-major\arm-none-eabi\include\c++\10.2.1\array ****       _GLIBCXX20_CONSTEXPR void
 116:c:\programdata\chocolatey\lib\gcc-arm-embedded\tools\gcc-arm-none-eabi-10-2020-q4-major\arm-none-eabi\include\c++\10.2.1\array ****       fill(const value_type& __u)
 117:c:\programdata\chocolatey\lib\gcc-arm-embedded\tools\gcc-arm-none-eabi-10-2020-q4-major\arm-none-eabi\include\c++\10.2.1\array ****       { std::fill_n(begin(), size(), __u); }
 118:c:\programdata\chocolatey\lib\gcc-arm-embedded\tools\gcc-arm-none-eabi-10-2020-q4-major\arm-none-eabi\include\c++\10.2.1\array **** 
 119:c:\programdata\chocolatey\lib\gcc-arm-embedded\tools\gcc-arm-none-eabi-10-2020-q4-major\arm-none-eabi\include\c++\10.2.1\array ****       _GLIBCXX20_CONSTEXPR void
 120:c:\programdata\chocolatey\lib\gcc-arm-embedded\tools\gcc-arm-none-eabi-10-2020-q4-major\arm-none-eabi\include\c++\10.2.1\array ****       swap(array& __other)
 121:c:\programdata\chocolatey\lib\gcc-arm-embedded\tools\gcc-arm-none-eabi-10-2020-q4-major\arm-none-eabi\include\c++\10.2.1\array ****       noexcept(_AT_Type::_Is_nothrow_swappable::value)
 122:c:\programdata\chocolatey\lib\gcc-arm-embedded\tools\gcc-arm-none-eabi-10-2020-q4-major\arm-none-eabi\include\c++\10.2.1\array ****       { std::swap_ranges(begin(), end(), __other.begin()); }
 123:c:\programdata\chocolatey\lib\gcc-arm-embedded\tools\gcc-arm-none-eabi-10-2020-q4-major\arm-none-eabi\include\c++\10.2.1\array **** 
 124:c:\programdata\chocolatey\lib\gcc-arm-embedded\tools\gcc-arm-none-eabi-10-2020-q4-major\arm-none-eabi\include\c++\10.2.1\array ****       // Iterators.
 125:c:\programdata\chocolatey\lib\gcc-arm-embedded\tools\gcc-arm-none-eabi-10-2020-q4-major\arm-none-eabi\include\c++\10.2.1\array ****       _GLIBCXX17_CONSTEXPR iterator
 126:c:\programdata\chocolatey\lib\gcc-arm-embedded\tools\gcc-arm-none-eabi-10-2020-q4-major\arm-none-eabi\include\c++\10.2.1\array ****       begin() noexcept
 127:c:\programdata\chocolatey\lib\gcc-arm-embedded\tools\gcc-arm-none-eabi-10-2020-q4-major\arm-none-eabi\include\c++\10.2.1\array ****       { return iterator(data()); }
ARM GAS  C:\Users\daniel\AppData\Local\Temp\cc1VxNgq.s 			page 29


 128:c:\programdata\chocolatey\lib\gcc-arm-embedded\tools\gcc-arm-none-eabi-10-2020-q4-major\arm-none-eabi\include\c++\10.2.1\array **** 
 129:c:\programdata\chocolatey\lib\gcc-arm-embedded\tools\gcc-arm-none-eabi-10-2020-q4-major\arm-none-eabi\include\c++\10.2.1\array ****       _GLIBCXX17_CONSTEXPR const_iterator
 130:c:\programdata\chocolatey\lib\gcc-arm-embedded\tools\gcc-arm-none-eabi-10-2020-q4-major\arm-none-eabi\include\c++\10.2.1\array ****       begin() const noexcept
 131:c:\programdata\chocolatey\lib\gcc-arm-embedded\tools\gcc-arm-none-eabi-10-2020-q4-major\arm-none-eabi\include\c++\10.2.1\array ****       { return const_iterator(data()); }
 132:c:\programdata\chocolatey\lib\gcc-arm-embedded\tools\gcc-arm-none-eabi-10-2020-q4-major\arm-none-eabi\include\c++\10.2.1\array **** 
 133:c:\programdata\chocolatey\lib\gcc-arm-embedded\tools\gcc-arm-none-eabi-10-2020-q4-major\arm-none-eabi\include\c++\10.2.1\array ****       _GLIBCXX17_CONSTEXPR iterator
 134:c:\programdata\chocolatey\lib\gcc-arm-embedded\tools\gcc-arm-none-eabi-10-2020-q4-major\arm-none-eabi\include\c++\10.2.1\array ****       end() noexcept
 135:c:\programdata\chocolatey\lib\gcc-arm-embedded\tools\gcc-arm-none-eabi-10-2020-q4-major\arm-none-eabi\include\c++\10.2.1\array ****       { return iterator(data() + _Nm); }
 136:c:\programdata\chocolatey\lib\gcc-arm-embedded\tools\gcc-arm-none-eabi-10-2020-q4-major\arm-none-eabi\include\c++\10.2.1\array **** 
 137:c:\programdata\chocolatey\lib\gcc-arm-embedded\tools\gcc-arm-none-eabi-10-2020-q4-major\arm-none-eabi\include\c++\10.2.1\array ****       _GLIBCXX17_CONSTEXPR const_iterator
 138:c:\programdata\chocolatey\lib\gcc-arm-embedded\tools\gcc-arm-none-eabi-10-2020-q4-major\arm-none-eabi\include\c++\10.2.1\array ****       end() const noexcept
 139:c:\programdata\chocolatey\lib\gcc-arm-embedded\tools\gcc-arm-none-eabi-10-2020-q4-major\arm-none-eabi\include\c++\10.2.1\array ****       { return const_iterator(data() + _Nm); }
 140:c:\programdata\chocolatey\lib\gcc-arm-embedded\tools\gcc-arm-none-eabi-10-2020-q4-major\arm-none-eabi\include\c++\10.2.1\array **** 
 141:c:\programdata\chocolatey\lib\gcc-arm-embedded\tools\gcc-arm-none-eabi-10-2020-q4-major\arm-none-eabi\include\c++\10.2.1\array ****       _GLIBCXX17_CONSTEXPR reverse_iterator
 142:c:\programdata\chocolatey\lib\gcc-arm-embedded\tools\gcc-arm-none-eabi-10-2020-q4-major\arm-none-eabi\include\c++\10.2.1\array ****       rbegin() noexcept
 143:c:\programdata\chocolatey\lib\gcc-arm-embedded\tools\gcc-arm-none-eabi-10-2020-q4-major\arm-none-eabi\include\c++\10.2.1\array ****       { return reverse_iterator(end()); }
 144:c:\programdata\chocolatey\lib\gcc-arm-embedded\tools\gcc-arm-none-eabi-10-2020-q4-major\arm-none-eabi\include\c++\10.2.1\array **** 
 145:c:\programdata\chocolatey\lib\gcc-arm-embedded\tools\gcc-arm-none-eabi-10-2020-q4-major\arm-none-eabi\include\c++\10.2.1\array ****       _GLIBCXX17_CONSTEXPR const_reverse_iterator
 146:c:\programdata\chocolatey\lib\gcc-arm-embedded\tools\gcc-arm-none-eabi-10-2020-q4-major\arm-none-eabi\include\c++\10.2.1\array ****       rbegin() const noexcept
 147:c:\programdata\chocolatey\lib\gcc-arm-embedded\tools\gcc-arm-none-eabi-10-2020-q4-major\arm-none-eabi\include\c++\10.2.1\array ****       { return const_reverse_iterator(end()); }
 148:c:\programdata\chocolatey\lib\gcc-arm-embedded\tools\gcc-arm-none-eabi-10-2020-q4-major\arm-none-eabi\include\c++\10.2.1\array **** 
 149:c:\programdata\chocolatey\lib\gcc-arm-embedded\tools\gcc-arm-none-eabi-10-2020-q4-major\arm-none-eabi\include\c++\10.2.1\array ****       _GLIBCXX17_CONSTEXPR reverse_iterator
 150:c:\programdata\chocolatey\lib\gcc-arm-embedded\tools\gcc-arm-none-eabi-10-2020-q4-major\arm-none-eabi\include\c++\10.2.1\array ****       rend() noexcept
 151:c:\programdata\chocolatey\lib\gcc-arm-embedded\tools\gcc-arm-none-eabi-10-2020-q4-major\arm-none-eabi\include\c++\10.2.1\array ****       { return reverse_iterator(begin()); }
 152:c:\programdata\chocolatey\lib\gcc-arm-embedded\tools\gcc-arm-none-eabi-10-2020-q4-major\arm-none-eabi\include\c++\10.2.1\array **** 
 153:c:\programdata\chocolatey\lib\gcc-arm-embedded\tools\gcc-arm-none-eabi-10-2020-q4-major\arm-none-eabi\include\c++\10.2.1\array ****       _GLIBCXX17_CONSTEXPR const_reverse_iterator
 154:c:\programdata\chocolatey\lib\gcc-arm-embedded\tools\gcc-arm-none-eabi-10-2020-q4-major\arm-none-eabi\include\c++\10.2.1\array ****       rend() const noexcept
 155:c:\programdata\chocolatey\lib\gcc-arm-embedded\tools\gcc-arm-none-eabi-10-2020-q4-major\arm-none-eabi\include\c++\10.2.1\array ****       { return const_reverse_iterator(begin()); }
 156:c:\programdata\chocolatey\lib\gcc-arm-embedded\tools\gcc-arm-none-eabi-10-2020-q4-major\arm-none-eabi\include\c++\10.2.1\array **** 
 157:c:\programdata\chocolatey\lib\gcc-arm-embedded\tools\gcc-arm-none-eabi-10-2020-q4-major\arm-none-eabi\include\c++\10.2.1\array ****       _GLIBCXX17_CONSTEXPR const_iterator
 158:c:\programdata\chocolatey\lib\gcc-arm-embedded\tools\gcc-arm-none-eabi-10-2020-q4-major\arm-none-eabi\include\c++\10.2.1\array ****       cbegin() const noexcept
 159:c:\programdata\chocolatey\lib\gcc-arm-embedded\tools\gcc-arm-none-eabi-10-2020-q4-major\arm-none-eabi\include\c++\10.2.1\array ****       { return const_iterator(data()); }
 160:c:\programdata\chocolatey\lib\gcc-arm-embedded\tools\gcc-arm-none-eabi-10-2020-q4-major\arm-none-eabi\include\c++\10.2.1\array **** 
 161:c:\programdata\chocolatey\lib\gcc-arm-embedded\tools\gcc-arm-none-eabi-10-2020-q4-major\arm-none-eabi\include\c++\10.2.1\array ****       _GLIBCXX17_CONSTEXPR const_iterator
 162:c:\programdata\chocolatey\lib\gcc-arm-embedded\tools\gcc-arm-none-eabi-10-2020-q4-major\arm-none-eabi\include\c++\10.2.1\array ****       cend() const noexcept
 163:c:\programdata\chocolatey\lib\gcc-arm-embedded\tools\gcc-arm-none-eabi-10-2020-q4-major\arm-none-eabi\include\c++\10.2.1\array ****       { return const_iterator(data() + _Nm); }
 164:c:\programdata\chocolatey\lib\gcc-arm-embedded\tools\gcc-arm-none-eabi-10-2020-q4-major\arm-none-eabi\include\c++\10.2.1\array **** 
 165:c:\programdata\chocolatey\lib\gcc-arm-embedded\tools\gcc-arm-none-eabi-10-2020-q4-major\arm-none-eabi\include\c++\10.2.1\array ****       _GLIBCXX17_CONSTEXPR const_reverse_iterator
 166:c:\programdata\chocolatey\lib\gcc-arm-embedded\tools\gcc-arm-none-eabi-10-2020-q4-major\arm-none-eabi\include\c++\10.2.1\array ****       crbegin() const noexcept
 167:c:\programdata\chocolatey\lib\gcc-arm-embedded\tools\gcc-arm-none-eabi-10-2020-q4-major\arm-none-eabi\include\c++\10.2.1\array ****       { return const_reverse_iterator(end()); }
 168:c:\programdata\chocolatey\lib\gcc-arm-embedded\tools\gcc-arm-none-eabi-10-2020-q4-major\arm-none-eabi\include\c++\10.2.1\array **** 
 169:c:\programdata\chocolatey\lib\gcc-arm-embedded\tools\gcc-arm-none-eabi-10-2020-q4-major\arm-none-eabi\include\c++\10.2.1\array ****       _GLIBCXX17_CONSTEXPR const_reverse_iterator
 170:c:\programdata\chocolatey\lib\gcc-arm-embedded\tools\gcc-arm-none-eabi-10-2020-q4-major\arm-none-eabi\include\c++\10.2.1\array ****       crend() const noexcept
 171:c:\programdata\chocolatey\lib\gcc-arm-embedded\tools\gcc-arm-none-eabi-10-2020-q4-major\arm-none-eabi\include\c++\10.2.1\array ****       { return const_reverse_iterator(begin()); }
 172:c:\programdata\chocolatey\lib\gcc-arm-embedded\tools\gcc-arm-none-eabi-10-2020-q4-major\arm-none-eabi\include\c++\10.2.1\array **** 
 173:c:\programdata\chocolatey\lib\gcc-arm-embedded\tools\gcc-arm-none-eabi-10-2020-q4-major\arm-none-eabi\include\c++\10.2.1\array ****       // Capacity.
 174:c:\programdata\chocolatey\lib\gcc-arm-embedded\tools\gcc-arm-none-eabi-10-2020-q4-major\arm-none-eabi\include\c++\10.2.1\array ****       constexpr size_type
 175:c:\programdata\chocolatey\lib\gcc-arm-embedded\tools\gcc-arm-none-eabi-10-2020-q4-major\arm-none-eabi\include\c++\10.2.1\array ****       size() const noexcept { return _Nm; }
 176:c:\programdata\chocolatey\lib\gcc-arm-embedded\tools\gcc-arm-none-eabi-10-2020-q4-major\arm-none-eabi\include\c++\10.2.1\array **** 
 177:c:\programdata\chocolatey\lib\gcc-arm-embedded\tools\gcc-arm-none-eabi-10-2020-q4-major\arm-none-eabi\include\c++\10.2.1\array ****       constexpr size_type
 178:c:\programdata\chocolatey\lib\gcc-arm-embedded\tools\gcc-arm-none-eabi-10-2020-q4-major\arm-none-eabi\include\c++\10.2.1\array ****       max_size() const noexcept { return _Nm; }
 179:c:\programdata\chocolatey\lib\gcc-arm-embedded\tools\gcc-arm-none-eabi-10-2020-q4-major\arm-none-eabi\include\c++\10.2.1\array **** 
 180:c:\programdata\chocolatey\lib\gcc-arm-embedded\tools\gcc-arm-none-eabi-10-2020-q4-major\arm-none-eabi\include\c++\10.2.1\array ****       _GLIBCXX_NODISCARD constexpr bool
 181:c:\programdata\chocolatey\lib\gcc-arm-embedded\tools\gcc-arm-none-eabi-10-2020-q4-major\arm-none-eabi\include\c++\10.2.1\array ****       empty() const noexcept { return size() == 0; }
 182:c:\programdata\chocolatey\lib\gcc-arm-embedded\tools\gcc-arm-none-eabi-10-2020-q4-major\arm-none-eabi\include\c++\10.2.1\array **** 
 183:c:\programdata\chocolatey\lib\gcc-arm-embedded\tools\gcc-arm-none-eabi-10-2020-q4-major\arm-none-eabi\include\c++\10.2.1\array ****       // Element access.
 184:c:\programdata\chocolatey\lib\gcc-arm-embedded\tools\gcc-arm-none-eabi-10-2020-q4-major\arm-none-eabi\include\c++\10.2.1\array ****       _GLIBCXX17_CONSTEXPR reference
ARM GAS  C:\Users\daniel\AppData\Local\Temp\cc1VxNgq.s 			page 30


 185:c:\programdata\chocolatey\lib\gcc-arm-embedded\tools\gcc-arm-none-eabi-10-2020-q4-major\arm-none-eabi\include\c++\10.2.1\array ****       operator[](size_type __n) noexcept
 546              		.loc 12 185 7 view .LVU118
 547              	.LBB816:
 548              	.LBI816:
  55:c:\programdata\chocolatey\lib\gcc-arm-embedded\tools\gcc-arm-none-eabi-10-2020-q4-major\arm-none-eabi\include\c++\10.2.1\array ****       { return const_cast<_Tp&>(__t[__n]); }
 549              		.loc 12 55 7 view .LVU119
  55:c:\programdata\chocolatey\lib\gcc-arm-embedded\tools\gcc-arm-none-eabi-10-2020-q4-major\arm-none-eabi\include\c++\10.2.1\array ****       { return const_cast<_Tp&>(__t[__n]); }
 550              		.loc 12 55 7 is_stmt 0 view .LVU120
 551              	.LBE816:
 552              	.LBE815:
 553              	.LBB817:
 554              	.LBI817:
 555              		.file 15 "samplebuffer.h"
   1:samplebuffer.h **** #pragma once
   2:samplebuffer.h **** #ifndef SAMPLEBUFFER_H
   3:samplebuffer.h **** #define SAMPLEBUFFER_H
   4:samplebuffer.h **** 
   5:samplebuffer.h **** #include <stddef.h>
   6:samplebuffer.h **** #include <stdio.h>
   7:samplebuffer.h **** 
   8:samplebuffer.h **** /** Sample buffer with record and playback.
   9:samplebuffer.h **** 
  10:samplebuffer.h **** By: Alex Virgona
  11:samplebuffer.h **** */
  12:samplebuffer.h **** template <size_t kBufferSize>
  13:samplebuffer.h **** class SampleBuffer
  14:samplebuffer.h **** {
  15:samplebuffer.h ****   public:
  16:samplebuffer.h ****     SampleBuffer() {}
  17:samplebuffer.h ****     ~SampleBuffer() {}
  18:samplebuffer.h **** 
  19:samplebuffer.h ****     void Init()
  20:samplebuffer.h ****     {
  21:samplebuffer.h ****         Clear();
  22:samplebuffer.h ****         recording_ = false;
  23:samplebuffer.h ****         write_ptr_ = 0;
  24:samplebuffer.h ****         playing_   = false;
  25:samplebuffer.h ****         read_ptr_  = 0;
  26:samplebuffer.h ****     }
  27:samplebuffer.h **** 
  28:samplebuffer.h ****     void Clear()
  29:samplebuffer.h ****     {
  30:samplebuffer.h ****         for(size_t i = 0; i < kBufferSize; i++)
  31:samplebuffer.h ****         {
  32:samplebuffer.h ****             buffer_[i] = 0.f;
  33:samplebuffer.h ****         }
  34:samplebuffer.h ****     }
  35:samplebuffer.h **** 
  36:samplebuffer.h ****     void Record(bool start = true)
  37:samplebuffer.h ****     {
  38:samplebuffer.h ****         if(start)
  39:samplebuffer.h ****         {
  40:samplebuffer.h ****             Clear();
  41:samplebuffer.h ****         }
  42:samplebuffer.h ****         recording_ = start;
  43:samplebuffer.h ****         write_ptr_ = 0;
  44:samplebuffer.h ****     }
ARM GAS  C:\Users\daniel\AppData\Local\Temp\cc1VxNgq.s 			page 31


  45:samplebuffer.h **** 
  46:samplebuffer.h ****     void Play(bool start = true)
 556              		.loc 15 46 10 is_stmt 1 view .LVU121
 557              		.loc 15 46 10 is_stmt 0 view .LVU122
 558              	.LBE817:
  48:Proliferation.cpp ****     {
 559              		.loc 13 48 5 is_stmt 1 view .LVU123
  48:Proliferation.cpp ****     {
 560              		.loc 13 48 25 view .LVU124
 561              	.LBB820:
 562              	.LBB818:
  47:samplebuffer.h ****     {
  48:samplebuffer.h ****         playing_  = start;
 563              		.loc 15 48 19 is_stmt 0 view .LVU125
 564 0096 8D4B     		ldr	r3, .L89+44
 565 0098 8D4A     		ldr	r2, .L89+48
 566 009a 4FF0010C 		mov	ip, #1
  49:samplebuffer.h ****         read_ptr_ = 0;
 567              		.loc 15 49 19 view .LVU126
 568 009e 0021     		movs	r1, #0
  48:samplebuffer.h ****         read_ptr_ = 0;
 569              		.loc 15 48 19 view .LVU127
 570 00a0 02FB0533 		mla	r3, r2, r5, r3
 571              	.LBE818:
 572              	.LBE820:
  50:Proliferation.cpp ****             buffers[randSamp].Play();
 573              		.loc 13 50 9 view .LVU128
 574 00a4 10B1     		cbz	r0, .L9
 575              	.LBB821:
 576              	.LBB819:
  48:samplebuffer.h ****         read_ptr_ = 0;
 577              		.loc 15 48 19 view .LVU129
 578 00a6 83F80CC0 		strb	ip, [r3, #12]
 579              		.loc 15 49 19 view .LVU130
 580 00aa 5960     		str	r1, [r3, #4]
 581              	.L9:
 582              	.LBE819:
 583              	.LBE821:
  48:Proliferation.cpp ****     {
 584              		.loc 13 48 25 discriminator 2 view .LVU131
 585 00ac 013C     		subs	r4, r4, #1
 586              	.LVL27:
  48:Proliferation.cpp ****     {
 587              		.loc 13 48 25 discriminator 2 view .LVU132
 588 00ae EFD1     		bne	.L10
 589              	.LBE814:
  52:Proliferation.cpp ****         }
  53:Proliferation.cpp ****     }
  54:Proliferation.cpp **** 
  55:Proliferation.cpp ****     switch(s) {
 590              		.loc 13 55 5 is_stmt 1 view .LVU133
 591 00b0 884A     		ldr	r2, .L89+52
 592 00b2 1368     		ldr	r3, [r2]
 593 00b4 072B     		cmp	r3, #7
 594 00b6 18D8     		bhi	.L8
 595 00b8 DFE803F0 		tbb	[pc, r3]
 596              	.L13:
ARM GAS  C:\Users\daniel\AppData\Local\Temp\cc1VxNgq.s 			page 32


 597 00bc 04       		.byte	(.L20-.L13)/2
 598 00bd 31       		.byte	(.L19-.L13)/2
 599 00be 48       		.byte	(.L18-.L13)/2
 600 00bf 5F       		.byte	(.L17-.L13)/2
 601 00c0 76       		.byte	(.L16-.L13)/2
 602 00c1 8D       		.byte	(.L15-.L13)/2
 603 00c2 A6       		.byte	(.L14-.L13)/2
 604 00c3 1A       		.byte	(.L12-.L13)/2
 605              		.p2align 1
 606              	.L20:
  56:Proliferation.cpp ****         case 0:
 607              		.loc 13 56 9 view .LVU134
  57:Proliferation.cpp ****             if(button.RisingEdge() && !buffers[0].IsRecording()) {
 608              		.loc 13 57 13 view .LVU135
 609              	.LVL28:
 610              	.LBB822:
 611              	.LBI822:
  43:../../libDaisy//src/hid/switch.h **** 
  44:../../libDaisy//src/hid/switch.h ****     /** 
  45:../../libDaisy//src/hid/switch.h ****     Initializes the switch object with a given port/pin combo.
  46:../../libDaisy//src/hid/switch.h ****     \param pin port/pin object to tell the switch which hardware pin to use.
  47:../../libDaisy//src/hid/switch.h ****     \param update_rate Does nothing. Backwards compatibility until next breaking update.
  48:../../libDaisy//src/hid/switch.h ****     \param t switch type -- Default: TYPE_MOMENTARY
  49:../../libDaisy//src/hid/switch.h ****     \param pol switch polarity -- Default: POLARITY_INVERTED
  50:../../libDaisy//src/hid/switch.h ****     \param pu switch pull up/down -- Default: PULL_UP
  51:../../libDaisy//src/hid/switch.h ****     */
  52:../../libDaisy//src/hid/switch.h ****     void
  53:../../libDaisy//src/hid/switch.h ****     Init(dsy_gpio_pin pin, float update_rate, Type t, Polarity pol, Pull pu);
  54:../../libDaisy//src/hid/switch.h **** 
  55:../../libDaisy//src/hid/switch.h ****     /**
  56:../../libDaisy//src/hid/switch.h ****        Simplified Init.
  57:../../libDaisy//src/hid/switch.h ****        \param pin port/pin object to tell the switch which hardware pin to use.
  58:../../libDaisy//src/hid/switch.h ****        \param update_rate Left for backwards compatibility until next breaking change.
  59:../../libDaisy//src/hid/switch.h ****     */
  60:../../libDaisy//src/hid/switch.h ****     void Init(dsy_gpio_pin pin, float update_rate = 0.f);
  61:../../libDaisy//src/hid/switch.h **** 
  62:../../libDaisy//src/hid/switch.h ****     /** 
  63:../../libDaisy//src/hid/switch.h ****     Called at update_rate to debounce and handle timing for the switch.
  64:../../libDaisy//src/hid/switch.h ****     In order for events not to be missed, its important that the Edge/Pressed checks
  65:../../libDaisy//src/hid/switch.h ****     be made at the same rate as the debounce function is being called.
  66:../../libDaisy//src/hid/switch.h ****     */
  67:../../libDaisy//src/hid/switch.h ****     void Debounce();
  68:../../libDaisy//src/hid/switch.h **** 
  69:../../libDaisy//src/hid/switch.h ****     /** \return true if a button was just pressed. */
  70:../../libDaisy//src/hid/switch.h ****     inline bool RisingEdge() const { return updated_ ? state_ == 0x7f : false; }
 612              		.loc 1 70 17 view .LVU136
 613              	.LBB823:
 614              		.loc 1 70 38 view .LVU137
 615              		.loc 1 70 45 is_stmt 0 view .LVU138
 616 00c4 774B     		ldr	r3, .L89+4
 617              		.loc 1 70 54 view .LVU139
 618 00c6 1979     		ldrb	r1, [r3, #4]	@ zero_extendqisi2
 619 00c8 79B1     		cbz	r1, .L8
 620              		.loc 1 70 56 view .LVU140
 621 00ca 9B7A     		ldrb	r3, [r3, #10]	@ zero_extendqisi2
 622              	.LVL29:
 623              		.loc 1 70 56 view .LVU141
ARM GAS  C:\Users\daniel\AppData\Local\Temp\cc1VxNgq.s 			page 33


 624              	.LBE823:
 625              	.LBE822:
 626              		.loc 13 57 36 view .LVU142
 627 00cc 7F2B     		cmp	r3, #127
 628 00ce 40F0B580 		bne	.L21
 629              	.LVL30:
 630              	.LBB824:
 631              	.LBI824:
  50:samplebuffer.h ****     }
  51:samplebuffer.h **** 
  52:samplebuffer.h ****     float Process(const float sample)
  53:samplebuffer.h ****     {
  54:samplebuffer.h ****         Write(sample);
  55:samplebuffer.h ****         return Read();
  56:samplebuffer.h ****     }
  57:samplebuffer.h **** 
  58:samplebuffer.h ****     void Write(const float sample)
  59:samplebuffer.h ****     {
  60:samplebuffer.h ****         if(recording_)
  61:samplebuffer.h ****         {
  62:samplebuffer.h ****             buffer_[write_ptr_] = sample;
  63:samplebuffer.h ****             write_ptr_++;
  64:samplebuffer.h ****             if(write_ptr_ >= kBufferSize)
  65:samplebuffer.h ****             {
  66:samplebuffer.h ****                 recording_ = false;
  67:samplebuffer.h ****                 write_ptr_ = 0;
  68:samplebuffer.h ****             }
  69:samplebuffer.h ****         }
  70:samplebuffer.h ****     }
  71:samplebuffer.h **** 
  72:samplebuffer.h ****     float Read()
  73:samplebuffer.h ****     {
  74:samplebuffer.h ****         if(playing_)
  75:samplebuffer.h ****         {
  76:samplebuffer.h ****             float out = buffer_[read_ptr_];
  77:samplebuffer.h ****             read_ptr_++;
  78:samplebuffer.h ****             if(read_ptr_ >= kBufferSize)
  79:samplebuffer.h ****             {
  80:samplebuffer.h ****                 playing_  = false;
  81:samplebuffer.h ****                 read_ptr_ = 0;
  82:samplebuffer.h ****             }
  83:samplebuffer.h ****             return out;
  84:samplebuffer.h ****         }
  85:samplebuffer.h ****         else
  86:samplebuffer.h ****         {
  87:samplebuffer.h ****             return 0.f;
  88:samplebuffer.h ****         }
  89:samplebuffer.h ****     }
  90:samplebuffer.h ****     
  91:samplebuffer.h ****     bool IsPlaying() const { return playing_; }
  92:samplebuffer.h ****     bool IsRecording() const { return recording_; }
 632              		.loc 15 92 10 is_stmt 1 view .LVU143
 633              	.LBB825:
 634              		.loc 15 92 39 is_stmt 0 view .LVU144
 635 00d2 7E4C     		ldr	r4, .L89+44
 636              	.LVL31:
 637              		.loc 15 92 39 view .LVU145
ARM GAS  C:\Users\daniel\AppData\Local\Temp\cc1VxNgq.s 			page 34


 638              	.LBE825:
 639              	.LBE824:
 640              		.loc 13 57 36 view .LVU146
 641 00d4 657B     		ldrb	r5, [r4, #13]	@ zero_extendqisi2
 642              	.LVL32:
 643              		.loc 13 57 36 view .LVU147
 644 00d6 45B9     		cbnz	r5, .L8
 645              	.LBB826:
 646              	.LBB827:
 647              	.LBB828:
 648              	.LBB829:
  32:samplebuffer.h ****         }
 649              		.loc 15 32 24 view .LVU148
 650 00d8 7F4A     		ldr	r2, .L89+56
 651 00da 2946     		mov	r1, r5
 652 00dc 04F11000 		add	r0, r4, #16
 653 00e0 FFF7FEFF 		bl	memset
 654              	.LVL33:
 655              	.LBE829:
 656              	.LBE828:
  42:samplebuffer.h ****         write_ptr_ = 0;
 657              		.loc 15 42 20 view .LVU149
 658 00e4 0123     		movs	r3, #1
  43:samplebuffer.h ****     }
 659              		.loc 15 43 20 view .LVU150
 660 00e6 2560     		str	r5, [r4]
  42:samplebuffer.h ****         write_ptr_ = 0;
 661              		.loc 15 42 20 view .LVU151
 662 00e8 6373     		strb	r3, [r4, #13]
 663              	.LVL34:
 664              	.L8:
  42:samplebuffer.h ****         write_ptr_ = 0;
 665              		.loc 15 42 20 view .LVU152
 666              	.LBE827:
 667              	.LBE826:
  58:Proliferation.cpp ****                 buffers[0].Record();
  59:Proliferation.cpp ****             } else if(button.FallingEdge() && buffers[0].IsRecording()) {
  60:Proliferation.cpp ****                 buffers[0].Record(false);
  61:Proliferation.cpp ****                 s++;
  62:Proliferation.cpp ****             }
  63:Proliferation.cpp ****             break;;
  64:Proliferation.cpp ****         case 1:
  65:Proliferation.cpp ****             if(button.RisingEdge() && !buffers[1].IsRecording()) {
  66:Proliferation.cpp ****                 buffers[1].Record();
  67:Proliferation.cpp ****             } else if(button.FallingEdge() && buffers[1].IsRecording()) {
  68:Proliferation.cpp ****                 buffers[1].Record(false);
  69:Proliferation.cpp ****                 s++;
  70:Proliferation.cpp ****             }
  71:Proliferation.cpp ****             break;;
  72:Proliferation.cpp ****         case 2:
  73:Proliferation.cpp ****             if(button.RisingEdge() && !buffers[2].IsRecording()) {
  74:Proliferation.cpp ****                 buffers[2].Record();
  75:Proliferation.cpp ****             } else if(button.FallingEdge() && buffers[2].IsRecording()) {
  76:Proliferation.cpp ****                 buffers[2].Record(false);
  77:Proliferation.cpp ****                 s++;
  78:Proliferation.cpp ****             }
  79:Proliferation.cpp ****             break;;
ARM GAS  C:\Users\daniel\AppData\Local\Temp\cc1VxNgq.s 			page 35


  80:Proliferation.cpp ****         case 3:
  81:Proliferation.cpp ****             if(button.RisingEdge() && !buffers[3].IsRecording()) {
  82:Proliferation.cpp ****                 buffers[3].Record();
  83:Proliferation.cpp ****             } else if(button.FallingEdge() && buffers[3].IsRecording()) {
  84:Proliferation.cpp ****                 buffers[3].Record(false);
  85:Proliferation.cpp ****                 s++;
  86:Proliferation.cpp ****             }
  87:Proliferation.cpp ****             break;;
  88:Proliferation.cpp ****         case 4:
  89:Proliferation.cpp ****             if(button.RisingEdge() && !buffers[4].IsRecording()) {
  90:Proliferation.cpp ****                 buffers[4].Record();
  91:Proliferation.cpp ****             } else if(button.FallingEdge() && buffers[4].IsRecording()) {
  92:Proliferation.cpp ****                 buffers[4].Record(false);
  93:Proliferation.cpp ****                 s++;
  94:Proliferation.cpp ****             }
  95:Proliferation.cpp ****             break;;
  96:Proliferation.cpp ****         case 5:
  97:Proliferation.cpp ****             if(button.RisingEdge() && !buffers[5].IsRecording()) {
  98:Proliferation.cpp ****                 buffers[5].Record();
  99:Proliferation.cpp ****             } else if(button.FallingEdge() && buffers[5].IsRecording()) {
 100:Proliferation.cpp ****                 buffers[5].Record(false);
 101:Proliferation.cpp ****                 s++;
 102:Proliferation.cpp ****             }
 103:Proliferation.cpp ****             break;;
 104:Proliferation.cpp ****         case 6:
 105:Proliferation.cpp ****             if(button.RisingEdge() && !buffers[6].IsRecording()) {
 106:Proliferation.cpp ****                 buffers[6].Record();
 107:Proliferation.cpp ****             } else if(button.FallingEdge() && buffers[6].IsRecording()) {
 108:Proliferation.cpp ****                 buffers[6].Record(false);
 109:Proliferation.cpp ****                 s++;
 110:Proliferation.cpp ****             }
 111:Proliferation.cpp ****             break;;
 112:Proliferation.cpp ****         case 7:
 113:Proliferation.cpp ****             if(button.RisingEdge() && !buffers[7].IsRecording()) {
 114:Proliferation.cpp ****                 buffers[7].Record();
 115:Proliferation.cpp ****             } else if(button.FallingEdge() && buffers[7].IsRecording()) {
 116:Proliferation.cpp ****                 buffers[7].Record(false);
 117:Proliferation.cpp ****                 s++;
 118:Proliferation.cpp ****             }
 119:Proliferation.cpp ****             break;;
 120:Proliferation.cpp ****     }
 121:Proliferation.cpp **** 
 122:Proliferation.cpp **** }
 668              		.loc 13 122 1 view .LVU153
 669 00ea BDEC028B 		vldm	sp!, {d8}
 670              		.cfi_remember_state
 671              		.cfi_restore 80
 672              		.cfi_restore 81
 673              		.cfi_def_cfa_offset 16
 674 00ee 38BD     		pop	{r3, r4, r5, pc}
 675              	.LVL35:
 676              	.L12:
 677              		.cfi_restore_state
 111:Proliferation.cpp ****         case 7:
 678              		.loc 13 111 19 is_stmt 1 view .LVU154
 112:Proliferation.cpp ****             if(button.RisingEdge() && !buffers[7].IsRecording()) {
 679              		.loc 13 112 9 view .LVU155
ARM GAS  C:\Users\daniel\AppData\Local\Temp\cc1VxNgq.s 			page 36


 113:Proliferation.cpp ****                 buffers[7].Record();
 680              		.loc 13 113 13 view .LVU156
 681              	.LBB830:
 682              	.LBI830:
 683              		.loc 1 70 17 view .LVU157
 684              	.LBB831:
 685              		.loc 1 70 38 view .LVU158
 686              		.loc 1 70 45 is_stmt 0 view .LVU159
 687 00f0 6C4B     		ldr	r3, .L89+4
 688              		.loc 1 70 54 view .LVU160
 689 00f2 1979     		ldrb	r1, [r3, #4]	@ zero_extendqisi2
 690 00f4 0029     		cmp	r1, #0
 691 00f6 F8D0     		beq	.L8
 692              		.loc 1 70 56 view .LVU161
 693 00f8 9B7A     		ldrb	r3, [r3, #10]	@ zero_extendqisi2
 694              	.LVL36:
 695              		.loc 1 70 56 view .LVU162
 696              	.LBE831:
 697              	.LBE830:
 113:Proliferation.cpp ****                 buffers[7].Record();
 698              		.loc 13 113 36 view .LVU163
 699 00fa 7F2B     		cmp	r3, #127
 700 00fc 00F0AC80 		beq	.L82
 115:Proliferation.cpp ****                 buffers[7].Record(false);
 701              		.loc 13 115 20 is_stmt 1 view .LVU164
 702              	.LVL37:
  71:../../libDaisy//src/hid/switch.h **** 
  72:../../libDaisy//src/hid/switch.h ****     /** \return true if the button was just released */
  73:../../libDaisy//src/hid/switch.h ****     inline bool FallingEdge() const
  74:../../libDaisy//src/hid/switch.h ****     {
  75:../../libDaisy//src/hid/switch.h ****         return updated_ ? state_ == 0x80 : false;
 703              		.loc 1 75 9 view .LVU165
 115:Proliferation.cpp ****                 buffers[7].Record(false);
 704              		.loc 13 115 44 is_stmt 0 view .LVU166
 705 0100 802B     		cmp	r3, #128
 706 0102 F2D1     		bne	.L8
 707              	.LVL38:
 708              	.LBB832:
 709              	.LBI832:
 710              		.loc 15 92 10 is_stmt 1 view .LVU167
 711              	.LBB833:
 712              		.loc 15 92 39 is_stmt 0 view .LVU168
 713 0104 754B     		ldr	r3, .L89+60
 714              	.LBE833:
 715              	.LBE832:
 115:Proliferation.cpp ****                 buffers[7].Record(false);
 716              		.loc 13 115 44 view .LVU169
 717 0106 93F87D1A 		ldrb	r1, [r3, #2685]	@ zero_extendqisi2
 718 010a 0029     		cmp	r1, #0
 719 010c EDD0     		beq	.L8
 116:Proliferation.cpp ****                 s++;
 720              		.loc 13 116 17 is_stmt 1 view .LVU170
 721              	.LVL39:
 722              	.LBB834:
 723              	.LBI834:
  36:samplebuffer.h ****     {
 724              		.loc 15 36 10 view .LVU171
ARM GAS  C:\Users\daniel\AppData\Local\Temp\cc1VxNgq.s 			page 37


 725              	.LBB835:
  42:samplebuffer.h ****         write_ptr_ = 0;
 726              		.loc 15 42 20 is_stmt 0 view .LVU172
 727 010e 0021     		movs	r1, #0
 728              	.LBE835:
 729              	.LBE834:
 117:Proliferation.cpp ****             }
 730              		.loc 13 117 18 view .LVU173
 731 0110 0820     		movs	r0, #8
 732              	.LBB837:
 733              	.LBB836:
  42:samplebuffer.h ****         write_ptr_ = 0;
 734              		.loc 15 42 20 view .LVU174
 735 0112 83F87D1A 		strb	r1, [r3, #2685]
  43:samplebuffer.h ****     }
 736              		.loc 15 43 20 view .LVU175
 737 0116 C3F8701A 		str	r1, [r3, #2672]
 738              	.LVL40:
  43:samplebuffer.h ****     }
 739              		.loc 15 43 20 view .LVU176
 740              	.LBE836:
 741              	.LBE837:
 117:Proliferation.cpp ****             }
 742              		.loc 13 117 17 is_stmt 1 view .LVU177
 117:Proliferation.cpp ****             }
 743              		.loc 13 117 18 is_stmt 0 view .LVU178
 744 011a 1060     		str	r0, [r2]
 119:Proliferation.cpp ****     }
 745              		.loc 13 119 19 is_stmt 1 view .LVU179
 746              	.LVL41:
 747              		.loc 13 122 1 is_stmt 0 view .LVU180
 748 011c E5E7     		b	.L8
 749              	.LVL42:
 750              	.L19:
  63:Proliferation.cpp ****         case 1:
 751              		.loc 13 63 19 is_stmt 1 view .LVU181
  64:Proliferation.cpp ****             if(button.RisingEdge() && !buffers[1].IsRecording()) {
 752              		.loc 13 64 9 view .LVU182
  65:Proliferation.cpp ****                 buffers[1].Record();
 753              		.loc 13 65 13 view .LVU183
 754              	.LBB838:
 755              	.LBI838:
  70:../../libDaisy//src/hid/switch.h **** 
 756              		.loc 1 70 17 view .LVU184
 757              	.LBB839:
  70:../../libDaisy//src/hid/switch.h **** 
 758              		.loc 1 70 38 view .LVU185
  70:../../libDaisy//src/hid/switch.h **** 
 759              		.loc 1 70 45 is_stmt 0 view .LVU186
 760 011e 614B     		ldr	r3, .L89+4
  70:../../libDaisy//src/hid/switch.h **** 
 761              		.loc 1 70 54 view .LVU187
 762 0120 1979     		ldrb	r1, [r3, #4]	@ zero_extendqisi2
 763 0122 0029     		cmp	r1, #0
 764 0124 E1D0     		beq	.L8
  70:../../libDaisy//src/hid/switch.h **** 
 765              		.loc 1 70 56 view .LVU188
ARM GAS  C:\Users\daniel\AppData\Local\Temp\cc1VxNgq.s 			page 38


 766 0126 9B7A     		ldrb	r3, [r3, #10]	@ zero_extendqisi2
 767              	.LVL43:
  70:../../libDaisy//src/hid/switch.h **** 
 768              		.loc 1 70 56 view .LVU189
 769              	.LBE839:
 770              	.LBE838:
  65:Proliferation.cpp ****                 buffers[1].Record();
 771              		.loc 13 65 36 view .LVU190
 772 0128 7F2B     		cmp	r3, #127
 773 012a 00F0E580 		beq	.L83
  67:Proliferation.cpp ****                 buffers[1].Record(false);
 774              		.loc 13 67 20 is_stmt 1 view .LVU191
 775              	.LVL44:
 776              		.loc 1 75 9 view .LVU192
  67:Proliferation.cpp ****                 buffers[1].Record(false);
 777              		.loc 13 67 44 is_stmt 0 view .LVU193
 778 012e 802B     		cmp	r3, #128
 779 0130 DBD1     		bne	.L8
 780              	.LVL45:
 781              	.LBB840:
 782              	.LBI840:
 783              		.loc 15 92 10 is_stmt 1 view .LVU194
 784              	.LBB841:
 785              		.loc 15 92 39 is_stmt 0 view .LVU195
 786 0132 6B4B     		ldr	r3, .L89+64
 787              	.LBE841:
 788              	.LBE840:
  67:Proliferation.cpp ****                 buffers[1].Record(false);
 789              		.loc 13 67 44 view .LVU196
 790 0134 93F81D16 		ldrb	r1, [r3, #1565]	@ zero_extendqisi2
 791 0138 0029     		cmp	r1, #0
 792 013a D6D0     		beq	.L8
  68:Proliferation.cpp ****                 s++;
 793              		.loc 13 68 17 is_stmt 1 view .LVU197
 794              	.LVL46:
 795              	.LBB842:
 796              	.LBI842:
  36:samplebuffer.h ****     {
 797              		.loc 15 36 10 view .LVU198
 798              	.LBB843:
  42:samplebuffer.h ****         write_ptr_ = 0;
 799              		.loc 15 42 20 is_stmt 0 view .LVU199
 800 013c 0021     		movs	r1, #0
 801              	.LBE843:
 802              	.LBE842:
  69:Proliferation.cpp ****             }
 803              		.loc 13 69 18 view .LVU200
 804 013e 0220     		movs	r0, #2
 805              	.LBB845:
 806              	.LBB844:
  42:samplebuffer.h ****         write_ptr_ = 0;
 807              		.loc 15 42 20 view .LVU201
 808 0140 83F81D16 		strb	r1, [r3, #1565]
  43:samplebuffer.h ****     }
 809              		.loc 15 43 20 view .LVU202
 810 0144 C3F81016 		str	r1, [r3, #1552]
 811              	.LVL47:
ARM GAS  C:\Users\daniel\AppData\Local\Temp\cc1VxNgq.s 			page 39


  43:samplebuffer.h ****     }
 812              		.loc 15 43 20 view .LVU203
 813              	.LBE844:
 814              	.LBE845:
  69:Proliferation.cpp ****             }
 815              		.loc 13 69 17 is_stmt 1 view .LVU204
  69:Proliferation.cpp ****             }
 816              		.loc 13 69 18 is_stmt 0 view .LVU205
 817 0148 1060     		str	r0, [r2]
 818 014a CEE7     		b	.L8
 819              	.L18:
  71:Proliferation.cpp ****         case 2:
 820              		.loc 13 71 19 is_stmt 1 view .LVU206
  72:Proliferation.cpp ****             if(button.RisingEdge() && !buffers[2].IsRecording()) {
 821              		.loc 13 72 9 view .LVU207
  73:Proliferation.cpp ****                 buffers[2].Record();
 822              		.loc 13 73 13 view .LVU208
 823              	.LVL48:
 824              	.LBB846:
 825              	.LBI846:
  70:../../libDaisy//src/hid/switch.h **** 
 826              		.loc 1 70 17 view .LVU209
 827              	.LBB847:
  70:../../libDaisy//src/hid/switch.h **** 
 828              		.loc 1 70 38 view .LVU210
  70:../../libDaisy//src/hid/switch.h **** 
 829              		.loc 1 70 45 is_stmt 0 view .LVU211
 830 014c 554B     		ldr	r3, .L89+4
  70:../../libDaisy//src/hid/switch.h **** 
 831              		.loc 1 70 54 view .LVU212
 832 014e 1979     		ldrb	r1, [r3, #4]	@ zero_extendqisi2
 833 0150 0029     		cmp	r1, #0
 834 0152 CAD0     		beq	.L8
  70:../../libDaisy//src/hid/switch.h **** 
 835              		.loc 1 70 56 view .LVU213
 836 0154 9B7A     		ldrb	r3, [r3, #10]	@ zero_extendqisi2
 837              	.LVL49:
  70:../../libDaisy//src/hid/switch.h **** 
 838              		.loc 1 70 56 view .LVU214
 839              	.LBE847:
 840              	.LBE846:
  73:Proliferation.cpp ****                 buffers[2].Record();
 841              		.loc 13 73 36 view .LVU215
 842 0156 7F2B     		cmp	r3, #127
 843 0158 00F09080 		beq	.L84
  75:Proliferation.cpp ****                 buffers[2].Record(false);
 844              		.loc 13 75 20 is_stmt 1 view .LVU216
 845              	.LVL50:
 846              		.loc 1 75 9 view .LVU217
  75:Proliferation.cpp ****                 buffers[2].Record(false);
 847              		.loc 13 75 44 is_stmt 0 view .LVU218
 848 015c 802B     		cmp	r3, #128
 849 015e C4D1     		bne	.L8
 850              	.LVL51:
 851              	.LBB848:
 852              	.LBI848:
 853              		.loc 15 92 10 is_stmt 1 view .LVU219
ARM GAS  C:\Users\daniel\AppData\Local\Temp\cc1VxNgq.s 			page 40


 854              	.LBB849:
 855              		.loc 15 92 39 is_stmt 0 view .LVU220
 856 0160 604B     		ldr	r3, .L89+68
 857              	.LBE849:
 858              	.LBE848:
  75:Proliferation.cpp ****                 buffers[2].Record(false);
 859              		.loc 13 75 44 view .LVU221
 860 0162 93F82D1C 		ldrb	r1, [r3, #3117]	@ zero_extendqisi2
 861 0166 0029     		cmp	r1, #0
 862 0168 BFD0     		beq	.L8
  76:Proliferation.cpp ****                 s++;
 863              		.loc 13 76 17 is_stmt 1 view .LVU222
 864              	.LVL52:
 865              	.LBB850:
 866              	.LBI850:
  36:samplebuffer.h ****     {
 867              		.loc 15 36 10 view .LVU223
 868              	.LBB851:
  42:samplebuffer.h ****         write_ptr_ = 0;
 869              		.loc 15 42 20 is_stmt 0 view .LVU224
 870 016a 0021     		movs	r1, #0
 871              	.LBE851:
 872              	.LBE850:
  77:Proliferation.cpp ****             }
 873              		.loc 13 77 18 view .LVU225
 874 016c 0320     		movs	r0, #3
 875              	.LBB853:
 876              	.LBB852:
  42:samplebuffer.h ****         write_ptr_ = 0;
 877              		.loc 15 42 20 view .LVU226
 878 016e 83F82D1C 		strb	r1, [r3, #3117]
  43:samplebuffer.h ****     }
 879              		.loc 15 43 20 view .LVU227
 880 0172 C3F8201C 		str	r1, [r3, #3104]
 881              	.LVL53:
  43:samplebuffer.h ****     }
 882              		.loc 15 43 20 view .LVU228
 883              	.LBE852:
 884              	.LBE853:
  77:Proliferation.cpp ****             }
 885              		.loc 13 77 17 is_stmt 1 view .LVU229
  77:Proliferation.cpp ****             }
 886              		.loc 13 77 18 is_stmt 0 view .LVU230
 887 0176 1060     		str	r0, [r2]
 888 0178 B7E7     		b	.L8
 889              	.L17:
  79:Proliferation.cpp ****         case 3:
 890              		.loc 13 79 19 is_stmt 1 view .LVU231
  80:Proliferation.cpp ****             if(button.RisingEdge() && !buffers[3].IsRecording()) {
 891              		.loc 13 80 9 view .LVU232
  81:Proliferation.cpp ****                 buffers[3].Record();
 892              		.loc 13 81 13 view .LVU233
 893              	.LVL54:
 894              	.LBB854:
 895              	.LBI854:
  70:../../libDaisy//src/hid/switch.h **** 
 896              		.loc 1 70 17 view .LVU234
ARM GAS  C:\Users\daniel\AppData\Local\Temp\cc1VxNgq.s 			page 41


 897              	.LBB855:
  70:../../libDaisy//src/hid/switch.h **** 
 898              		.loc 1 70 38 view .LVU235
  70:../../libDaisy//src/hid/switch.h **** 
 899              		.loc 1 70 45 is_stmt 0 view .LVU236
 900 017a 4A4B     		ldr	r3, .L89+4
  70:../../libDaisy//src/hid/switch.h **** 
 901              		.loc 1 70 54 view .LVU237
 902 017c 1979     		ldrb	r1, [r3, #4]	@ zero_extendqisi2
 903 017e 0029     		cmp	r1, #0
 904 0180 B3D0     		beq	.L8
  70:../../libDaisy//src/hid/switch.h **** 
 905              		.loc 1 70 56 view .LVU238
 906 0182 9B7A     		ldrb	r3, [r3, #10]	@ zero_extendqisi2
 907              	.LVL55:
  70:../../libDaisy//src/hid/switch.h **** 
 908              		.loc 1 70 56 view .LVU239
 909              	.LBE855:
 910              	.LBE854:
  81:Proliferation.cpp ****                 buffers[3].Record();
 911              		.loc 13 81 36 view .LVU240
 912 0184 7F2B     		cmp	r3, #127
 913 0186 00F0DB80 		beq	.L85
  83:Proliferation.cpp ****                 buffers[3].Record(false);
 914              		.loc 13 83 20 is_stmt 1 view .LVU241
 915              	.LVL56:
 916              		.loc 1 75 9 view .LVU242
  83:Proliferation.cpp ****                 buffers[3].Record(false);
 917              		.loc 13 83 44 is_stmt 0 view .LVU243
 918 018a 802B     		cmp	r3, #128
 919 018c ADD1     		bne	.L8
 920              	.LVL57:
 921              	.LBB856:
 922              	.LBI856:
 923              		.loc 15 92 10 is_stmt 1 view .LVU244
 924              	.LBB857:
 925              		.loc 15 92 39 is_stmt 0 view .LVU245
 926 018e 564B     		ldr	r3, .L89+72
 927              	.LBE857:
 928              	.LBE856:
  83:Proliferation.cpp ****                 buffers[3].Record(false);
 929              		.loc 13 83 44 view .LVU246
 930 0190 93F83D12 		ldrb	r1, [r3, #573]	@ zero_extendqisi2
 931 0194 0029     		cmp	r1, #0
 932 0196 A8D0     		beq	.L8
  84:Proliferation.cpp ****                 s++;
 933              		.loc 13 84 17 is_stmt 1 view .LVU247
 934              	.LVL58:
 935              	.LBB858:
 936              	.LBI858:
  36:samplebuffer.h ****     {
 937              		.loc 15 36 10 view .LVU248
 938              	.LBB859:
  42:samplebuffer.h ****         write_ptr_ = 0;
 939              		.loc 15 42 20 is_stmt 0 view .LVU249
 940 0198 0021     		movs	r1, #0
 941              	.LBE859:
ARM GAS  C:\Users\daniel\AppData\Local\Temp\cc1VxNgq.s 			page 42


 942              	.LBE858:
  85:Proliferation.cpp ****             }
 943              		.loc 13 85 18 view .LVU250
 944 019a 0420     		movs	r0, #4
 945              	.LBB861:
 946              	.LBB860:
  42:samplebuffer.h ****         write_ptr_ = 0;
 947              		.loc 15 42 20 view .LVU251
 948 019c 83F83D12 		strb	r1, [r3, #573]
  43:samplebuffer.h ****     }
 949              		.loc 15 43 20 view .LVU252
 950 01a0 C3F83012 		str	r1, [r3, #560]
 951              	.LVL59:
  43:samplebuffer.h ****     }
 952              		.loc 15 43 20 view .LVU253
 953              	.LBE860:
 954              	.LBE861:
  85:Proliferation.cpp ****             }
 955              		.loc 13 85 17 is_stmt 1 view .LVU254
  85:Proliferation.cpp ****             }
 956              		.loc 13 85 18 is_stmt 0 view .LVU255
 957 01a4 1060     		str	r0, [r2]
 958 01a6 A0E7     		b	.L8
 959              	.L16:
  87:Proliferation.cpp ****         case 4:
 960              		.loc 13 87 19 is_stmt 1 view .LVU256
  88:Proliferation.cpp ****             if(button.RisingEdge() && !buffers[4].IsRecording()) {
 961              		.loc 13 88 9 view .LVU257
  89:Proliferation.cpp ****                 buffers[4].Record();
 962              		.loc 13 89 13 view .LVU258
 963              	.LVL60:
 964              	.LBB862:
 965              	.LBI862:
  70:../../libDaisy//src/hid/switch.h **** 
 966              		.loc 1 70 17 view .LVU259
 967              	.LBB863:
  70:../../libDaisy//src/hid/switch.h **** 
 968              		.loc 1 70 38 view .LVU260
  70:../../libDaisy//src/hid/switch.h **** 
 969              		.loc 1 70 45 is_stmt 0 view .LVU261
 970 01a8 3E4B     		ldr	r3, .L89+4
  70:../../libDaisy//src/hid/switch.h **** 
 971              		.loc 1 70 54 view .LVU262
 972 01aa 1979     		ldrb	r1, [r3, #4]	@ zero_extendqisi2
 973 01ac 0029     		cmp	r1, #0
 974 01ae 9CD0     		beq	.L8
  70:../../libDaisy//src/hid/switch.h **** 
 975              		.loc 1 70 56 view .LVU263
 976 01b0 9B7A     		ldrb	r3, [r3, #10]	@ zero_extendqisi2
 977              	.LVL61:
  70:../../libDaisy//src/hid/switch.h **** 
 978              		.loc 1 70 56 view .LVU264
 979              	.LBE863:
 980              	.LBE862:
  89:Proliferation.cpp ****                 buffers[4].Record();
 981              		.loc 13 89 36 view .LVU265
 982 01b2 7F2B     		cmp	r3, #127
ARM GAS  C:\Users\daniel\AppData\Local\Temp\cc1VxNgq.s 			page 43


 983 01b4 00F0B280 		beq	.L86
  91:Proliferation.cpp ****                 buffers[4].Record(false);
 984              		.loc 13 91 20 is_stmt 1 view .LVU266
 985              	.LVL62:
 986              		.loc 1 75 9 view .LVU267
  91:Proliferation.cpp ****                 buffers[4].Record(false);
 987              		.loc 13 91 44 is_stmt 0 view .LVU268
 988 01b8 802B     		cmp	r3, #128
 989 01ba 96D1     		bne	.L8
 990              	.LVL63:
 991              	.LBB864:
 992              	.LBI864:
 993              		.loc 15 92 10 is_stmt 1 view .LVU269
 994              	.LBB865:
 995              		.loc 15 92 39 is_stmt 0 view .LVU270
 996 01bc 4B4B     		ldr	r3, .L89+76
 997              	.LBE865:
 998              	.LBE864:
  91:Proliferation.cpp ****                 buffers[4].Record(false);
 999              		.loc 13 91 44 view .LVU271
 1000 01be 93F84D18 		ldrb	r1, [r3, #2125]	@ zero_extendqisi2
 1001 01c2 0029     		cmp	r1, #0
 1002 01c4 91D0     		beq	.L8
  92:Proliferation.cpp ****                 s++;
 1003              		.loc 13 92 17 is_stmt 1 view .LVU272
 1004              	.LVL64:
 1005              	.LBB866:
 1006              	.LBI866:
  36:samplebuffer.h ****     {
 1007              		.loc 15 36 10 view .LVU273
 1008              	.LBB867:
  42:samplebuffer.h ****         write_ptr_ = 0;
 1009              		.loc 15 42 20 is_stmt 0 view .LVU274
 1010 01c6 0021     		movs	r1, #0
 1011              	.LBE867:
 1012              	.LBE866:
  93:Proliferation.cpp ****             }
 1013              		.loc 13 93 18 view .LVU275
 1014 01c8 0520     		movs	r0, #5
 1015              	.LBB869:
 1016              	.LBB868:
  42:samplebuffer.h ****         write_ptr_ = 0;
 1017              		.loc 15 42 20 view .LVU276
 1018 01ca 83F84D18 		strb	r1, [r3, #2125]
  43:samplebuffer.h ****     }
 1019              		.loc 15 43 20 view .LVU277
 1020 01ce C3F84018 		str	r1, [r3, #2112]
 1021              	.LVL65:
  43:samplebuffer.h ****     }
 1022              		.loc 15 43 20 view .LVU278
 1023              	.LBE868:
 1024              	.LBE869:
  93:Proliferation.cpp ****             }
 1025              		.loc 13 93 17 is_stmt 1 view .LVU279
  93:Proliferation.cpp ****             }
 1026              		.loc 13 93 18 is_stmt 0 view .LVU280
 1027 01d2 1060     		str	r0, [r2]
ARM GAS  C:\Users\daniel\AppData\Local\Temp\cc1VxNgq.s 			page 44


 1028 01d4 89E7     		b	.L8
 1029              	.L15:
  95:Proliferation.cpp ****         case 5:
 1030              		.loc 13 95 19 is_stmt 1 view .LVU281
  96:Proliferation.cpp ****             if(button.RisingEdge() && !buffers[5].IsRecording()) {
 1031              		.loc 13 96 9 view .LVU282
  97:Proliferation.cpp ****                 buffers[5].Record();
 1032              		.loc 13 97 13 view .LVU283
 1033              	.LVL66:
 1034              	.LBB870:
 1035              	.LBI870:
  70:../../libDaisy//src/hid/switch.h **** 
 1036              		.loc 1 70 17 view .LVU284
 1037              	.LBB871:
  70:../../libDaisy//src/hid/switch.h **** 
 1038              		.loc 1 70 38 view .LVU285
  70:../../libDaisy//src/hid/switch.h **** 
 1039              		.loc 1 70 45 is_stmt 0 view .LVU286
 1040 01d6 334B     		ldr	r3, .L89+4
  70:../../libDaisy//src/hid/switch.h **** 
 1041              		.loc 1 70 54 view .LVU287
 1042 01d8 1979     		ldrb	r1, [r3, #4]	@ zero_extendqisi2
 1043 01da 0029     		cmp	r1, #0
 1044 01dc 85D0     		beq	.L8
  70:../../libDaisy//src/hid/switch.h **** 
 1045              		.loc 1 70 56 view .LVU288
 1046 01de 9B7A     		ldrb	r3, [r3, #10]	@ zero_extendqisi2
 1047              	.LVL67:
  70:../../libDaisy//src/hid/switch.h **** 
 1048              		.loc 1 70 56 view .LVU289
 1049              	.LBE871:
 1050              	.LBE870:
  97:Proliferation.cpp ****                 buffers[5].Record();
 1051              		.loc 13 97 36 view .LVU290
 1052 01e0 7F2B     		cmp	r3, #127
 1053 01e2 00F0D180 		beq	.L87
  99:Proliferation.cpp ****                 buffers[5].Record(false);
 1054              		.loc 13 99 20 is_stmt 1 view .LVU291
 1055              	.LVL68:
 1056              		.loc 1 75 9 view .LVU292
  99:Proliferation.cpp ****                 buffers[5].Record(false);
 1057              		.loc 13 99 44 is_stmt 0 view .LVU293
 1058 01e6 802B     		cmp	r3, #128
 1059 01e8 7FF47FAF 		bne	.L8
 1060              	.LVL69:
 1061              	.LBB872:
 1062              	.LBI872:
 1063              		.loc 15 92 10 is_stmt 1 view .LVU294
 1064              	.LBB873:
 1065              		.loc 15 92 39 is_stmt 0 view .LVU295
 1066 01ec 404B     		ldr	r3, .L89+80
 1067              	.LBE873:
 1068              	.LBE872:
  99:Proliferation.cpp ****                 buffers[5].Record(false);
 1069              		.loc 13 99 44 view .LVU296
 1070 01ee 93F85D1E 		ldrb	r1, [r3, #3677]	@ zero_extendqisi2
 1071 01f2 0029     		cmp	r1, #0
ARM GAS  C:\Users\daniel\AppData\Local\Temp\cc1VxNgq.s 			page 45


 1072 01f4 3FF479AF 		beq	.L8
 100:Proliferation.cpp ****                 s++;
 1073              		.loc 13 100 17 is_stmt 1 view .LVU297
 1074              	.LVL70:
 1075              	.LBB874:
 1076              	.LBI874:
  36:samplebuffer.h ****     {
 1077              		.loc 15 36 10 view .LVU298
 1078              	.LBB875:
  42:samplebuffer.h ****         write_ptr_ = 0;
 1079              		.loc 15 42 20 is_stmt 0 view .LVU299
 1080 01f8 0021     		movs	r1, #0
 1081              	.LBE875:
 1082              	.LBE874:
 101:Proliferation.cpp ****             }
 1083              		.loc 13 101 18 view .LVU300
 1084 01fa 0620     		movs	r0, #6
 1085              	.LBB877:
 1086              	.LBB876:
  42:samplebuffer.h ****         write_ptr_ = 0;
 1087              		.loc 15 42 20 view .LVU301
 1088 01fc 83F85D1E 		strb	r1, [r3, #3677]
  43:samplebuffer.h ****     }
 1089              		.loc 15 43 20 view .LVU302
 1090 0200 C3F8501E 		str	r1, [r3, #3664]
 1091              	.LVL71:
  43:samplebuffer.h ****     }
 1092              		.loc 15 43 20 view .LVU303
 1093              	.LBE876:
 1094              	.LBE877:
 101:Proliferation.cpp ****             }
 1095              		.loc 13 101 17 is_stmt 1 view .LVU304
 101:Proliferation.cpp ****             }
 1096              		.loc 13 101 18 is_stmt 0 view .LVU305
 1097 0204 1060     		str	r0, [r2]
 1098 0206 70E7     		b	.L8
 1099              	.L14:
 103:Proliferation.cpp ****         case 6:
 1100              		.loc 13 103 19 is_stmt 1 view .LVU306
 104:Proliferation.cpp ****             if(button.RisingEdge() && !buffers[6].IsRecording()) {
 1101              		.loc 13 104 9 view .LVU307
 105:Proliferation.cpp ****                 buffers[6].Record();
 1102              		.loc 13 105 13 view .LVU308
 1103              	.LVL72:
 1104              	.LBB878:
 1105              	.LBI878:
  70:../../libDaisy//src/hid/switch.h **** 
 1106              		.loc 1 70 17 view .LVU309
 1107              	.LBB879:
  70:../../libDaisy//src/hid/switch.h **** 
 1108              		.loc 1 70 38 view .LVU310
  70:../../libDaisy//src/hid/switch.h **** 
 1109              		.loc 1 70 45 is_stmt 0 view .LVU311
 1110 0208 264B     		ldr	r3, .L89+4
  70:../../libDaisy//src/hid/switch.h **** 
 1111              		.loc 1 70 54 view .LVU312
 1112 020a 1979     		ldrb	r1, [r3, #4]	@ zero_extendqisi2
ARM GAS  C:\Users\daniel\AppData\Local\Temp\cc1VxNgq.s 			page 46


 1113 020c 0029     		cmp	r1, #0
 1114 020e 3FF46CAF 		beq	.L8
  70:../../libDaisy//src/hid/switch.h **** 
 1115              		.loc 1 70 56 view .LVU313
 1116 0212 9B7A     		ldrb	r3, [r3, #10]	@ zero_extendqisi2
 1117              	.LVL73:
  70:../../libDaisy//src/hid/switch.h **** 
 1118              		.loc 1 70 56 view .LVU314
 1119              	.LBE879:
 1120              	.LBE878:
 105:Proliferation.cpp ****                 buffers[6].Record();
 1121              		.loc 13 105 36 view .LVU315
 1122 0214 7F2B     		cmp	r3, #127
 1123 0216 00F0A580 		beq	.L88
 107:Proliferation.cpp ****                 buffers[6].Record(false);
 1124              		.loc 13 107 20 is_stmt 1 view .LVU316
 1125              	.LVL74:
 1126              		.loc 1 75 9 view .LVU317
 107:Proliferation.cpp ****                 buffers[6].Record(false);
 1127              		.loc 13 107 44 is_stmt 0 view .LVU318
 1128 021a 802B     		cmp	r3, #128
 1129 021c 7FF465AF 		bne	.L8
 1130              	.LVL75:
 1131              	.LBB880:
 1132              	.LBI880:
 1133              		.loc 15 92 10 is_stmt 1 view .LVU319
 1134              	.LBB881:
 1135              		.loc 15 92 39 is_stmt 0 view .LVU320
 1136 0220 344B     		ldr	r3, .L89+84
 1137              	.LBE881:
 1138              	.LBE880:
 107:Proliferation.cpp ****                 buffers[6].Record(false);
 1139              		.loc 13 107 44 view .LVU321
 1140 0222 93F86D14 		ldrb	r1, [r3, #1133]	@ zero_extendqisi2
 1141 0226 0029     		cmp	r1, #0
 1142 0228 3FF45FAF 		beq	.L8
 108:Proliferation.cpp ****                 s++;
 1143              		.loc 13 108 17 is_stmt 1 view .LVU322
 1144              	.LVL76:
 1145              	.LBB882:
 1146              	.LBI882:
  36:samplebuffer.h ****     {
 1147              		.loc 15 36 10 view .LVU323
 1148              	.LBB883:
  42:samplebuffer.h ****         write_ptr_ = 0;
 1149              		.loc 15 42 20 is_stmt 0 view .LVU324
 1150 022c 0021     		movs	r1, #0
 1151              	.LBE883:
 1152              	.LBE882:
 109:Proliferation.cpp ****             }
 1153              		.loc 13 109 18 view .LVU325
 1154 022e 0720     		movs	r0, #7
 1155              	.LBB885:
 1156              	.LBB884:
  42:samplebuffer.h ****         write_ptr_ = 0;
 1157              		.loc 15 42 20 view .LVU326
 1158 0230 83F86D14 		strb	r1, [r3, #1133]
ARM GAS  C:\Users\daniel\AppData\Local\Temp\cc1VxNgq.s 			page 47


  43:samplebuffer.h ****     }
 1159              		.loc 15 43 20 view .LVU327
 1160 0234 C3F86014 		str	r1, [r3, #1120]
 1161              	.LVL77:
  43:samplebuffer.h ****     }
 1162              		.loc 15 43 20 view .LVU328
 1163              	.LBE884:
 1164              	.LBE885:
 109:Proliferation.cpp ****             }
 1165              		.loc 13 109 17 is_stmt 1 view .LVU329
 109:Proliferation.cpp ****             }
 1166              		.loc 13 109 18 is_stmt 0 view .LVU330
 1167 0238 1060     		str	r0, [r2]
 1168 023a 56E7     		b	.L8
 1169              	.L21:
  59:Proliferation.cpp ****                 buffers[0].Record(false);
 1170              		.loc 13 59 20 is_stmt 1 view .LVU331
 1171              	.LVL78:
 1172              		.loc 1 75 9 view .LVU332
  59:Proliferation.cpp ****                 buffers[0].Record(false);
 1173              		.loc 13 59 44 is_stmt 0 view .LVU333
 1174 023c 802B     		cmp	r3, #128
 1175 023e 7FF454AF 		bne	.L8
 1176              	.LVL79:
 1177              	.LBB886:
 1178              	.LBI886:
 1179              		.loc 15 92 10 is_stmt 1 view .LVU334
 1180              	.LBB887:
 1181              		.loc 15 92 39 is_stmt 0 view .LVU335
 1182 0242 224B     		ldr	r3, .L89+44
 1183              	.LBE887:
 1184              	.LBE886:
  59:Proliferation.cpp ****                 buffers[0].Record(false);
 1185              		.loc 13 59 44 view .LVU336
 1186 0244 597B     		ldrb	r1, [r3, #13]	@ zero_extendqisi2
 1187 0246 0029     		cmp	r1, #0
 1188 0248 3FF44FAF 		beq	.L8
  60:Proliferation.cpp ****                 s++;
 1189              		.loc 13 60 17 is_stmt 1 view .LVU337
 1190              	.LVL80:
 1191              	.LBB888:
 1192              	.LBI888:
  36:samplebuffer.h ****     {
 1193              		.loc 15 36 10 view .LVU338
 1194              	.LBB889:
  42:samplebuffer.h ****         write_ptr_ = 0;
 1195              		.loc 15 42 20 is_stmt 0 view .LVU339
 1196 024c 0021     		movs	r1, #0
 1197              	.LBE889:
 1198              	.LBE888:
  61:Proliferation.cpp ****             }
 1199              		.loc 13 61 18 view .LVU340
 1200 024e 0120     		movs	r0, #1
 1201              	.LBB891:
 1202              	.LBB890:
  42:samplebuffer.h ****         write_ptr_ = 0;
 1203              		.loc 15 42 20 view .LVU341
ARM GAS  C:\Users\daniel\AppData\Local\Temp\cc1VxNgq.s 			page 48


 1204 0250 5973     		strb	r1, [r3, #13]
  43:samplebuffer.h ****     }
 1205              		.loc 15 43 20 view .LVU342
 1206 0252 1960     		str	r1, [r3]
 1207              	.LVL81:
  43:samplebuffer.h ****     }
 1208              		.loc 15 43 20 view .LVU343
 1209              	.LBE890:
 1210              	.LBE891:
  61:Proliferation.cpp ****             }
 1211              		.loc 13 61 17 is_stmt 1 view .LVU344
  61:Proliferation.cpp ****             }
 1212              		.loc 13 61 18 is_stmt 0 view .LVU345
 1213 0254 1060     		str	r0, [r2]
 1214 0256 48E7     		b	.L8
 1215              	.L82:
 1216              	.LVL82:
 1217              	.LBB892:
 1218              	.LBI892:
 1219              		.loc 15 92 10 is_stmt 1 view .LVU346
 1220              	.LBB893:
 1221              		.loc 15 92 39 is_stmt 0 view .LVU347
 1222 0258 204C     		ldr	r4, .L89+60
 1223              	.LVL83:
 1224              		.loc 15 92 39 view .LVU348
 1225              	.LBE893:
 1226              	.LBE892:
 113:Proliferation.cpp ****                 buffers[7].Record();
 1227              		.loc 13 113 36 view .LVU349
 1228 025a 94F87D5A 		ldrb	r5, [r4, #2685]	@ zero_extendqisi2
 1229              	.LVL84:
 113:Proliferation.cpp ****                 buffers[7].Record();
 1230              		.loc 13 113 36 view .LVU350
 1231 025e 002D     		cmp	r5, #0
 1232 0260 7FF443AF 		bne	.L8
 1233              	.LBB894:
 1234              	.LBB895:
 1235              	.LBB896:
 1236              	.LBB897:
  32:samplebuffer.h ****         }
 1237              		.loc 15 32 24 view .LVU351
 1238 0264 1C4A     		ldr	r2, .L89+56
 1239 0266 2946     		mov	r1, r5
 1240 0268 04F52860 		add	r0, r4, #2688
 1241 026c FFF7FEFF 		bl	memset
 1242              	.LVL85:
 1243              	.LBE897:
 1244              	.LBE896:
  42:samplebuffer.h ****         write_ptr_ = 0;
 1245              		.loc 15 42 20 view .LVU352
 1246 0270 0123     		movs	r3, #1
  43:samplebuffer.h ****     }
 1247              		.loc 15 43 20 view .LVU353
 1248 0272 C4F8705A 		str	r5, [r4, #2672]
  42:samplebuffer.h ****         write_ptr_ = 0;
 1249              		.loc 15 42 20 view .LVU354
 1250 0276 84F87D3A 		strb	r3, [r4, #2685]
ARM GAS  C:\Users\daniel\AppData\Local\Temp\cc1VxNgq.s 			page 49


  44:samplebuffer.h **** 
 1251              		.loc 15 44 5 view .LVU355
 1252 027a 36E7     		b	.L8
 1253              	.LVL86:
 1254              	.L84:
  44:samplebuffer.h **** 
 1255              		.loc 15 44 5 view .LVU356
 1256              	.LBE895:
 1257              	.LBE894:
 1258              	.LBB898:
 1259              	.LBI898:
 1260              		.loc 15 92 10 is_stmt 1 view .LVU357
 1261              	.LBB899:
 1262              		.loc 15 92 39 is_stmt 0 view .LVU358
 1263 027c 194C     		ldr	r4, .L89+68
 1264              	.LVL87:
 1265              		.loc 15 92 39 view .LVU359
 1266              	.LBE899:
 1267              	.LBE898:
  73:Proliferation.cpp ****                 buffers[2].Record();
 1268              		.loc 13 73 36 view .LVU360
 1269 027e 94F82D5C 		ldrb	r5, [r4, #3117]	@ zero_extendqisi2
 1270              	.LVL88:
  73:Proliferation.cpp ****                 buffers[2].Record();
 1271              		.loc 13 73 36 view .LVU361
 1272 0282 002D     		cmp	r5, #0
 1273 0284 7FF431AF 		bne	.L8
 1274              	.LBB900:
 1275              	.LBB901:
 1276              	.LBB902:
 1277              	.LBB903:
  32:samplebuffer.h ****         }
 1278              		.loc 15 32 24 view .LVU362
 1279 0288 134A     		ldr	r2, .L89+56
 1280 028a 2946     		mov	r1, r5
 1281 028c 04F54360 		add	r0, r4, #3120
 1282 0290 FFF7FEFF 		bl	memset
 1283              	.LVL89:
 1284              	.LBE903:
 1285              	.LBE902:
  42:samplebuffer.h ****         write_ptr_ = 0;
 1286              		.loc 15 42 20 view .LVU363
 1287 0294 0123     		movs	r3, #1
  43:samplebuffer.h ****     }
 1288              		.loc 15 43 20 view .LVU364
 1289 0296 C4F8205C 		str	r5, [r4, #3104]
  42:samplebuffer.h ****         write_ptr_ = 0;
 1290              		.loc 15 42 20 view .LVU365
 1291 029a 84F82D3C 		strb	r3, [r4, #3117]
  44:samplebuffer.h **** 
 1292              		.loc 15 44 5 view .LVU366
 1293 029e 24E7     		b	.L8
 1294              	.L90:
 1295              		.align	2
 1296              	.L89:
 1297 02a0 00000000 		.word	.LANCHOR0
 1298 02a4 00000000 		.word	.LANCHOR1
ARM GAS  C:\Users\daniel\AppData\Local\Temp\cc1VxNgq.s 			page 50


 1299 02a8 9A99993E 		.word	1050253722
 1300 02ac 00000000 		.word	.LANCHOR2
 1301 02b0 D7A3303F 		.word	1060152279
 1302 02b4 A4707D3F 		.word	1065185444
 1303 02b8 E731483F 		.word	1061695975
 1304 02bc 00000000 		.word	rv
 1305 02c0 00007A44 		.word	1148846080
 1306 02c4 00709446 		.word	1184133120
 1307 02c8 B7010000 		.word	.LANCHOR0+439
 1308 02cc 00000000 		.word	buffers
 1309 02d0 10A60E00 		.word	960016
 1310 02d4 00000000 		.word	.LANCHOR3
 1311 02d8 00A60E00 		.word	960000
 1312 02dc 00806600 		.word	buffers+6717440
 1313 02e0 00A00E00 		.word	buffers+958464
 1314 02e4 00401D00 		.word	buffers+1916928
 1315 02e8 00F02B00 		.word	buffers+2879488
 1316 02ec 00903A00 		.word	buffers+3837952
 1317 02f0 00304900 		.word	buffers+4796416
 1318 02f4 00E05700 		.word	buffers+5758976
 1319              	.LVL90:
 1320              	.L83:
  44:samplebuffer.h **** 
 1321              		.loc 15 44 5 view .LVU367
 1322              	.LBE901:
 1323              	.LBE900:
 1324              	.LBB904:
 1325              	.LBI904:
 1326              		.loc 15 92 10 is_stmt 1 view .LVU368
 1327              	.LBB905:
 1328              		.loc 15 92 39 is_stmt 0 view .LVU369
 1329 02f8 2C4C     		ldr	r4, .L91
 1330              	.LVL91:
 1331              		.loc 15 92 39 view .LVU370
 1332              	.LBE905:
 1333              	.LBE904:
  65:Proliferation.cpp ****                 buffers[1].Record();
 1334              		.loc 13 65 36 view .LVU371
 1335 02fa 94F81D56 		ldrb	r5, [r4, #1565]	@ zero_extendqisi2
 1336              	.LVL92:
  65:Proliferation.cpp ****                 buffers[1].Record();
 1337              		.loc 13 65 36 view .LVU372
 1338 02fe 002D     		cmp	r5, #0
 1339 0300 7FF4F3AE 		bne	.L8
 1340              	.LBB906:
 1341              	.LBB907:
 1342              	.LBB908:
 1343              	.LBB909:
  32:samplebuffer.h ****         }
 1344              		.loc 15 32 24 view .LVU373
 1345 0304 2A4A     		ldr	r2, .L91+4
 1346 0306 2946     		mov	r1, r5
 1347 0308 04F5C460 		add	r0, r4, #1568
 1348 030c FFF7FEFF 		bl	memset
 1349              	.LVL93:
 1350              	.LBE909:
 1351              	.LBE908:
ARM GAS  C:\Users\daniel\AppData\Local\Temp\cc1VxNgq.s 			page 51


  42:samplebuffer.h ****         write_ptr_ = 0;
 1352              		.loc 15 42 20 view .LVU374
 1353 0310 0123     		movs	r3, #1
  43:samplebuffer.h ****     }
 1354              		.loc 15 43 20 view .LVU375
 1355 0312 C4F81056 		str	r5, [r4, #1552]
  42:samplebuffer.h ****         write_ptr_ = 0;
 1356              		.loc 15 42 20 view .LVU376
 1357 0316 84F81D36 		strb	r3, [r4, #1565]
  44:samplebuffer.h **** 
 1358              		.loc 15 44 5 view .LVU377
 1359 031a E6E6     		b	.L8
 1360              	.LVL94:
 1361              	.L86:
  44:samplebuffer.h **** 
 1362              		.loc 15 44 5 view .LVU378
 1363              	.LBE907:
 1364              	.LBE906:
 1365              	.LBB910:
 1366              	.LBI910:
 1367              		.loc 15 92 10 is_stmt 1 view .LVU379
 1368              	.LBB911:
 1369              		.loc 15 92 39 is_stmt 0 view .LVU380
 1370 031c 254C     		ldr	r4, .L91+8
 1371              	.LVL95:
 1372              		.loc 15 92 39 view .LVU381
 1373              	.LBE911:
 1374              	.LBE910:
  89:Proliferation.cpp ****                 buffers[4].Record();
 1375              		.loc 13 89 36 view .LVU382
 1376 031e 94F84D58 		ldrb	r5, [r4, #2125]	@ zero_extendqisi2
 1377              	.LVL96:
  89:Proliferation.cpp ****                 buffers[4].Record();
 1378              		.loc 13 89 36 view .LVU383
 1379 0322 002D     		cmp	r5, #0
 1380 0324 7FF4E1AE 		bne	.L8
 1381              	.LBB912:
 1382              	.LBB913:
 1383              	.LBB914:
 1384              	.LBB915:
  32:samplebuffer.h ****         }
 1385              		.loc 15 32 24 view .LVU384
 1386 0328 214A     		ldr	r2, .L91+4
 1387 032a 2946     		mov	r1, r5
 1388 032c 04F50560 		add	r0, r4, #2128
 1389 0330 FFF7FEFF 		bl	memset
 1390              	.LVL97:
 1391              	.LBE915:
 1392              	.LBE914:
  42:samplebuffer.h ****         write_ptr_ = 0;
 1393              		.loc 15 42 20 view .LVU385
 1394 0334 0123     		movs	r3, #1
  43:samplebuffer.h ****     }
 1395              		.loc 15 43 20 view .LVU386
 1396 0336 C4F84058 		str	r5, [r4, #2112]
  42:samplebuffer.h ****         write_ptr_ = 0;
 1397              		.loc 15 42 20 view .LVU387
ARM GAS  C:\Users\daniel\AppData\Local\Temp\cc1VxNgq.s 			page 52


 1398 033a 84F84D38 		strb	r3, [r4, #2125]
  44:samplebuffer.h **** 
 1399              		.loc 15 44 5 view .LVU388
 1400 033e D4E6     		b	.L8
 1401              	.LVL98:
 1402              	.L85:
  44:samplebuffer.h **** 
 1403              		.loc 15 44 5 view .LVU389
 1404              	.LBE913:
 1405              	.LBE912:
 1406              	.LBB916:
 1407              	.LBI916:
 1408              		.loc 15 92 10 is_stmt 1 view .LVU390
 1409              	.LBB917:
 1410              		.loc 15 92 39 is_stmt 0 view .LVU391
 1411 0340 1D4C     		ldr	r4, .L91+12
 1412              	.LVL99:
 1413              		.loc 15 92 39 view .LVU392
 1414              	.LBE917:
 1415              	.LBE916:
  81:Proliferation.cpp ****                 buffers[3].Record();
 1416              		.loc 13 81 36 view .LVU393
 1417 0342 94F83D52 		ldrb	r5, [r4, #573]	@ zero_extendqisi2
 1418              	.LVL100:
  81:Proliferation.cpp ****                 buffers[3].Record();
 1419              		.loc 13 81 36 view .LVU394
 1420 0346 002D     		cmp	r5, #0
 1421 0348 7FF4CFAE 		bne	.L8
 1422              	.LBB918:
 1423              	.LBB919:
 1424              	.LBB920:
 1425              	.LBB921:
  32:samplebuffer.h ****         }
 1426              		.loc 15 32 24 view .LVU395
 1427 034c 184A     		ldr	r2, .L91+4
 1428 034e 2946     		mov	r1, r5
 1429 0350 04F51070 		add	r0, r4, #576
 1430 0354 FFF7FEFF 		bl	memset
 1431              	.LVL101:
 1432              	.LBE921:
 1433              	.LBE920:
  42:samplebuffer.h ****         write_ptr_ = 0;
 1434              		.loc 15 42 20 view .LVU396
 1435 0358 0123     		movs	r3, #1
  43:samplebuffer.h ****     }
 1436              		.loc 15 43 20 view .LVU397
 1437 035a C4F83052 		str	r5, [r4, #560]
  42:samplebuffer.h ****         write_ptr_ = 0;
 1438              		.loc 15 42 20 view .LVU398
 1439 035e 84F83D32 		strb	r3, [r4, #573]
  44:samplebuffer.h **** 
 1440              		.loc 15 44 5 view .LVU399
 1441 0362 C2E6     		b	.L8
 1442              	.LVL102:
 1443              	.L88:
  44:samplebuffer.h **** 
 1444              		.loc 15 44 5 view .LVU400
ARM GAS  C:\Users\daniel\AppData\Local\Temp\cc1VxNgq.s 			page 53


 1445              	.LBE919:
 1446              	.LBE918:
 1447              	.LBB922:
 1448              	.LBI922:
 1449              		.loc 15 92 10 is_stmt 1 view .LVU401
 1450              	.LBB923:
 1451              		.loc 15 92 39 is_stmt 0 view .LVU402
 1452 0364 154C     		ldr	r4, .L91+16
 1453              	.LVL103:
 1454              		.loc 15 92 39 view .LVU403
 1455              	.LBE923:
 1456              	.LBE922:
 105:Proliferation.cpp ****                 buffers[6].Record();
 1457              		.loc 13 105 36 view .LVU404
 1458 0366 94F86D54 		ldrb	r5, [r4, #1133]	@ zero_extendqisi2
 1459              	.LVL104:
 105:Proliferation.cpp ****                 buffers[6].Record();
 1460              		.loc 13 105 36 view .LVU405
 1461 036a 002D     		cmp	r5, #0
 1462 036c 7FF4BDAE 		bne	.L8
 1463              	.LBB924:
 1464              	.LBB925:
 1465              	.LBB926:
 1466              	.LBB927:
  32:samplebuffer.h ****         }
 1467              		.loc 15 32 24 view .LVU406
 1468 0370 0F4A     		ldr	r2, .L91+4
 1469 0372 2946     		mov	r1, r5
 1470 0374 04F58E60 		add	r0, r4, #1136
 1471 0378 FFF7FEFF 		bl	memset
 1472              	.LVL105:
 1473              	.LBE927:
 1474              	.LBE926:
  42:samplebuffer.h ****         write_ptr_ = 0;
 1475              		.loc 15 42 20 view .LVU407
 1476 037c 0123     		movs	r3, #1
  43:samplebuffer.h ****     }
 1477              		.loc 15 43 20 view .LVU408
 1478 037e C4F86054 		str	r5, [r4, #1120]
  42:samplebuffer.h ****         write_ptr_ = 0;
 1479              		.loc 15 42 20 view .LVU409
 1480 0382 84F86D34 		strb	r3, [r4, #1133]
  44:samplebuffer.h **** 
 1481              		.loc 15 44 5 view .LVU410
 1482 0386 B0E6     		b	.L8
 1483              	.LVL106:
 1484              	.L87:
  44:samplebuffer.h **** 
 1485              		.loc 15 44 5 view .LVU411
 1486              	.LBE925:
 1487              	.LBE924:
 1488              	.LBB928:
 1489              	.LBI928:
 1490              		.loc 15 92 10 is_stmt 1 view .LVU412
 1491              	.LBB929:
 1492              		.loc 15 92 39 is_stmt 0 view .LVU413
 1493 0388 0D4C     		ldr	r4, .L91+20
ARM GAS  C:\Users\daniel\AppData\Local\Temp\cc1VxNgq.s 			page 54


 1494              	.LVL107:
 1495              		.loc 15 92 39 view .LVU414
 1496              	.LBE929:
 1497              	.LBE928:
  97:Proliferation.cpp ****                 buffers[5].Record();
 1498              		.loc 13 97 36 view .LVU415
 1499 038a 94F85D5E 		ldrb	r5, [r4, #3677]	@ zero_extendqisi2
 1500              	.LVL108:
  97:Proliferation.cpp ****                 buffers[5].Record();
 1501              		.loc 13 97 36 view .LVU416
 1502 038e 002D     		cmp	r5, #0
 1503 0390 7FF4ABAE 		bne	.L8
 1504              	.LBB930:
 1505              	.LBB931:
 1506              	.LBB932:
 1507              	.LBB933:
  32:samplebuffer.h ****         }
 1508              		.loc 15 32 24 view .LVU417
 1509 0394 064A     		ldr	r2, .L91+4
 1510 0396 2946     		mov	r1, r5
 1511 0398 04F56660 		add	r0, r4, #3680
 1512 039c FFF7FEFF 		bl	memset
 1513              	.LVL109:
 1514              	.LBE933:
 1515              	.LBE932:
  42:samplebuffer.h ****         write_ptr_ = 0;
 1516              		.loc 15 42 20 view .LVU418
 1517 03a0 0123     		movs	r3, #1
  43:samplebuffer.h ****     }
 1518              		.loc 15 43 20 view .LVU419
 1519 03a2 C4F8505E 		str	r5, [r4, #3664]
  42:samplebuffer.h ****         write_ptr_ = 0;
 1520              		.loc 15 42 20 view .LVU420
 1521 03a6 84F85D3E 		strb	r3, [r4, #3677]
  44:samplebuffer.h **** 
 1522              		.loc 15 44 5 view .LVU421
 1523 03aa 9EE6     		b	.L8
 1524              	.L92:
 1525              		.align	2
 1526              	.L91:
 1527 03ac 00A00E00 		.word	buffers+958464
 1528 03b0 00A60E00 		.word	960000
 1529 03b4 00903A00 		.word	buffers+3837952
 1530 03b8 00F02B00 		.word	buffers+2879488
 1531 03bc 00E05700 		.word	buffers+5758976
 1532 03c0 00304900 		.word	buffers+4796416
 1533              	.LBE931:
 1534              	.LBE930:
 1535              		.cfi_endproc
 1536              	.LFE4839:
 1538              		.section	.text._Z13AudioCallbackPKPKfPPfj,"ax",%progbits
 1539              		.align	1
 1540              		.p2align 2,,3
 1541              		.global	_Z13AudioCallbackPKPKfPPfj
 1542              		.syntax unified
 1543              		.thumb
 1544              		.thumb_func
ARM GAS  C:\Users\daniel\AppData\Local\Temp\cc1VxNgq.s 			page 55


 1545              		.fpu fpv5-d16
 1547              	_Z13AudioCallbackPKPKfPPfj:
 1548              	.LVL110:
 1549              	.LFB4841:
 123:Proliferation.cpp **** 
 124:Proliferation.cpp **** void AudioCallback(AudioHandle::InputBuffer in, AudioHandle::OutputBuffer out, size_t size)
 125:Proliferation.cpp **** {   
 1550              		.loc 13 125 1 is_stmt 1 view -0
 1551              		.cfi_startproc
 1552              		@ args = 0, pretend = 0, frame = 16
 1553              		@ frame_needed = 0, uses_anonymous_args = 0
 126:Proliferation.cpp ****     float wet, ratea, rated, attack, decay, damt, amount;
 1554              		.loc 13 126 5 view .LVU423
 127:Proliferation.cpp **** 	getSamples();
 1555              		.loc 13 127 2 view .LVU424
 125:Proliferation.cpp ****     float wet, ratea, rated, attack, decay, damt, amount;
 1556              		.loc 13 125 1 is_stmt 0 view .LVU425
 1557 0000 2DE9F04F 		push	{r4, r5, r6, r7, r8, r9, r10, fp, lr}
 1558              		.cfi_def_cfa_offset 36
 1559              		.cfi_offset 4, -36
 1560              		.cfi_offset 5, -32
 1561              		.cfi_offset 6, -28
 1562              		.cfi_offset 7, -24
 1563              		.cfi_offset 8, -20
 1564              		.cfi_offset 9, -16
 1565              		.cfi_offset 10, -12
 1566              		.cfi_offset 11, -8
 1567              		.cfi_offset 14, -4
 1568 0004 2DED028B 		vpush.64	{d8}
 1569              		.cfi_def_cfa_offset 44
 1570              		.cfi_offset 80, -44
 1571              		.cfi_offset 81, -40
 1572 0008 87B0     		sub	sp, sp, #28
 1573              		.cfi_def_cfa_offset 72
 125:Proliferation.cpp ****     float wet, ratea, rated, attack, decay, damt, amount;
 1574              		.loc 13 125 1 view .LVU426
 1575 000a 1446     		mov	r4, r2
 1576 000c 0646     		mov	r6, r0
 1577 000e 0F46     		mov	r7, r1
 1578 0010 0392     		str	r2, [sp, #12]
 1579              		.loc 13 127 12 view .LVU427
 1580 0012 FFF7FEFF 		bl	_Z10getSamplesv
 1581              	.LVL111:
 128:Proliferation.cpp **** 
 129:Proliferation.cpp ****     // envelope setup
 130:Proliferation.cpp ****     ratea = hw.GetAdcValue(CV_3);
 1582              		.loc 13 130 5 is_stmt 1 view .LVU428
 1583              		.loc 13 130 27 is_stmt 0 view .LVU429
 1584 0016 0221     		movs	r1, #2
 1585 0018 6E48     		ldr	r0, .L112
 1586 001a FFF7FEFF 		bl	_ZN5daisy8patch_sm12DaisyPatchSM11GetAdcValueEi
 1587              	.LVL112:
 131:Proliferation.cpp ****     rated = hw.GetAdcValue(CV_4);
 1588              		.loc 13 131 27 view .LVU430
 1589 001e 0321     		movs	r1, #3
 1590 0020 6C48     		ldr	r0, .L112
 130:Proliferation.cpp ****     rated = hw.GetAdcValue(CV_4);
ARM GAS  C:\Users\daniel\AppData\Local\Temp\cc1VxNgq.s 			page 56


 1591              		.loc 13 130 27 view .LVU431
 1592 0022 B0EE408A 		vmov.f32	s16, s0
 1593              	.LVL113:
 1594              		.loc 13 131 5 is_stmt 1 view .LVU432
 1595              		.loc 13 131 27 is_stmt 0 view .LVU433
 1596 0026 FFF7FEFF 		bl	_ZN5daisy8patch_sm12DaisyPatchSM11GetAdcValueEi
 1597              	.LVL114:
 132:Proliferation.cpp **** 
 133:Proliferation.cpp ****     attack = fmap(ratea, .01, 2);
 1598              		.loc 13 133 5 is_stmt 1 view .LVU434
 1599              	.LBB978:
 1600              	.LBI978:
 161:../../DaisySP//Source/Utility/dsp.h **** {
 1601              		.loc 14 161 1 view .LVU435
 1602              	.LBE978:
 163:../../DaisySP//Source/Utility/dsp.h ****     {
 1603              		.loc 14 163 5 view .LVU436
 1604              	.LBB999:
 1605              	.LBB979:
 172:../../DaisySP//Source/Utility/dsp.h ****         default: return fclamp(min + in * (max - min), min, max);
 1606              		.loc 14 172 9 view .LVU437
 1607              		.loc 14 173 9 view .LVU438
 1608              		.loc 14 173 18 view .LVU439
 1609              		.loc 14 173 31 is_stmt 0 view .LVU440
 1610 002a DFED6B6A 		vldr.32	s13, .L112+4
 1611              	.LBB980:
 1612              	.LBB981:
 1613              	.LBB982:
  47:../../DaisySP//Source/Utility/dsp.h **** #else
 1614              		.loc 14 47 5 view .LVU441
 1615 002e B0EE006A 		vmov.f32	s12, #2.0e+0
 1616              	.LBE982:
 1617              	.LBE981:
 1618              	.LBE980:
 1619              		.loc 14 173 31 view .LVU442
 1620 0032 DFED6A7A 		vldr.32	s15, .L112+8
 1621 0036 B0EE667A 		vmov.f32	s14, s13
 1622              	.LBE979:
 1623              	.LBE999:
 1624              	.LBB1000:
 1625              	.LBB1001:
  36:../../DaisySP//Source/Control/adenv.h ****     /** Initializes the ad envelope.
  37:../../DaisySP//Source/Control/adenv.h **** 
  38:../../DaisySP//Source/Control/adenv.h ****         Defaults:
  39:../../DaisySP//Source/Control/adenv.h ****             - current segment = idle
  40:../../DaisySP//Source/Control/adenv.h ****             - curve = linear
  41:../../DaisySP//Source/Control/adenv.h ****             - phase = 0
  42:../../DaisySP//Source/Control/adenv.h ****             - min = 0
  43:../../DaisySP//Source/Control/adenv.h ****             - max = 1
  44:../../DaisySP//Source/Control/adenv.h **** 
  45:../../DaisySP//Source/Control/adenv.h ****         \param sample_rate      sample rate of the audio engine being run
  46:../../DaisySP//Source/Control/adenv.h ****     */
  47:../../DaisySP//Source/Control/adenv.h ****     void Init(float sample_rate);
  48:../../DaisySP//Source/Control/adenv.h **** 
  49:../../DaisySP//Source/Control/adenv.h ****     /** Processes the current sample of the envelope. This should be called once
  50:../../DaisySP//Source/Control/adenv.h ****         per sample period.
  51:../../DaisySP//Source/Control/adenv.h ****         \return the current envelope value.
ARM GAS  C:\Users\daniel\AppData\Local\Temp\cc1VxNgq.s 			page 57


  52:../../DaisySP//Source/Control/adenv.h ****     */
  53:../../DaisySP//Source/Control/adenv.h ****     float Process();
  54:../../DaisySP//Source/Control/adenv.h **** 
  55:../../DaisySP//Source/Control/adenv.h ****     /** Starts or retriggers the envelope.*/
  56:../../DaisySP//Source/Control/adenv.h ****     inline void Trigger() { trigger_ = 1; }
  57:../../DaisySP//Source/Control/adenv.h ****     /** Sets the length of time (in seconds) for a specific segment. */
  58:../../DaisySP//Source/Control/adenv.h ****     inline void SetTime(uint8_t seg, float time) { segment_time_[seg] = time; }
 1626              		.loc 9 58 71 view .LVU443
 1627 003a 694B     		ldr	r3, .L112+12
 1628              	.LBE1001:
 1629              	.LBE1000:
 1630              	.LBB1004:
 1631              	.LBB1005:
 1632              		.loc 14 173 31 view .LVU444
 1633 003c DFED695A 		vldr.32	s11, .L112+16
 1634              	.LBE1005:
 1635              	.LBE1004:
 134:Proliferation.cpp ****     decay  = fmap(rated, 2, .01);
 135:Proliferation.cpp **** 
 136:Proliferation.cpp ****     env.SetTime(ADENV_SEG_ATTACK, attack);
 137:Proliferation.cpp ****     env.SetTime(ADENV_SEG_DECAY, decay);
 138:Proliferation.cpp **** 
 139:Proliferation.cpp ****     // overdrive setup
 140:Proliferation.cpp ****     damt = hw.GetAdcValue(CV_5);
 1636              		.loc 13 140 26 view .LVU445
 1637 0040 0421     		movs	r1, #4
 1638 0042 6448     		ldr	r0, .L112
 1639              	.LBB1020:
 1640              	.LBB995:
 1641              		.loc 14 173 31 view .LVU446
 1642 0044 A8EE277A 		vfma.f32	s14, s16, s15
 1643              	.LVL115:
 1644              	.LBB991:
 1645              	.LBI980:
  56:../../DaisySP//Source/Utility/dsp.h **** {
 1646              		.loc 14 56 14 is_stmt 1 view .LVU447
 1647              	.LBE991:
 1648              	.LBE995:
 1649              	.LBE1020:
  58:../../DaisySP//Source/Utility/dsp.h **** }
 1650              		.loc 14 58 5 view .LVU448
 1651              	.LBB1021:
 1652              	.LBB996:
 1653              	.LBB992:
 1654              	.LBB985:
 1655              	.LBI985:
  32:../../DaisySP//Source/Utility/dsp.h **** {
 1656              		.loc 14 32 14 view .LVU449
 1657              	.LBB986:
  34:../../DaisySP//Source/Utility/dsp.h **** #ifdef __arm__
 1658              		.loc 14 34 5 view .LVU450
  36:../../DaisySP//Source/Utility/dsp.h **** #else
 1659              		.loc 14 36 5 view .LVU451
 1660              	.LBE986:
 1661              	.LBE985:
 1662              	.LBE992:
 1663              	.LBE996:
ARM GAS  C:\Users\daniel\AppData\Local\Temp\cc1VxNgq.s 			page 58


 1664              	.LBE1021:
 1665              	.LBB1022:
 1666              	.LBB1015:
 1667              		.loc 14 173 31 is_stmt 0 view .LVU452
 1668 0048 F0EE467A 		vmov.f32	s15, s12
 1669              	.LBE1015:
 1670              	.LBE1022:
 1671              	.LBB1023:
 1672              	.LBB997:
 1673              	.LBB993:
 1674              	.LBB988:
 1675              	.LBB987:
  36:../../DaisySP//Source/Utility/dsp.h **** #else
 1676              		.loc 14 36 5 view .LVU453
 1677              		.syntax unified
 1678              	@ 36 "../../DaisySP//Source/Utility/dsp.h" 1
 1679 004c 87FE267A 		vmaxnm.f32 s14, s14, s13
 1680              	@ 0 "" 2
 1681              	.LVL116:
  40:../../DaisySP//Source/Utility/dsp.h **** }
 1682              		.loc 14 40 5 is_stmt 1 view .LVU454
  40:../../DaisySP//Source/Utility/dsp.h **** }
 1683              		.loc 14 40 5 is_stmt 0 view .LVU455
 1684              		.thumb
 1685              		.syntax unified
 1686              	.LBE987:
 1687              	.LBE988:
 1688              	.LBB989:
 1689              	.LBI981:
  43:../../DaisySP//Source/Utility/dsp.h **** {
 1690              		.loc 14 43 14 is_stmt 1 view .LVU456
 1691              	.LBB983:
  45:../../DaisySP//Source/Utility/dsp.h **** #ifdef __arm__
 1692              		.loc 14 45 5 view .LVU457
  47:../../DaisySP//Source/Utility/dsp.h **** #else
 1693              		.loc 14 47 5 view .LVU458
 1694              		.syntax unified
 1695              	@ 47 "../../DaisySP//Source/Utility/dsp.h" 1
 1696 0050 87FE467A 		vminnm.f32 s14, s14, s12
 1697              	@ 0 "" 2
 1698              	.LVL117:
  47:../../DaisySP//Source/Utility/dsp.h **** #else
 1699              		.loc 14 47 5 is_stmt 0 view .LVU459
 1700              		.thumb
 1701              		.syntax unified
 1702              	.LBE983:
 1703              	.LBE989:
 1704              	.LBE993:
 1705              	.LBE997:
 1706              	.LBE1023:
 1707              	.LBB1024:
 1708              	.LBB1016:
 1709              		.loc 14 173 31 view .LVU460
 1710 0054 E0EE257A 		vfma.f32	s15, s0, s11
 1711              	.LVL118:
 1712              		.loc 14 173 31 view .LVU461
 1713              	.LBE1016:
ARM GAS  C:\Users\daniel\AppData\Local\Temp\cc1VxNgq.s 			page 59


 1714              	.LBE1024:
 1715              	.LBB1025:
 1716              	.LBB998:
 1717              	.LBB994:
 1718              	.LBB990:
 1719              	.LBB984:
  51:../../DaisySP//Source/Utility/dsp.h **** }
 1720              		.loc 14 51 5 is_stmt 1 view .LVU462
  51:../../DaisySP//Source/Utility/dsp.h **** }
 1721              		.loc 14 51 5 is_stmt 0 view .LVU463
 1722              	.LBE984:
 1723              	.LBE990:
 1724              	.LBE994:
 1725              	.LBE998:
 1726              	.LBE1025:
 134:Proliferation.cpp **** 
 1727              		.loc 13 134 5 is_stmt 1 view .LVU464
 1728              	.LBB1026:
 1729              	.LBI1004:
 161:../../DaisySP//Source/Utility/dsp.h **** {
 1730              		.loc 14 161 1 view .LVU465
 1731              	.LBE1026:
 163:../../DaisySP//Source/Utility/dsp.h ****     {
 1732              		.loc 14 163 5 view .LVU466
 1733              	.LBB1027:
 1734              	.LBB1017:
 172:../../DaisySP//Source/Utility/dsp.h ****         default: return fclamp(min + in * (max - min), min, max);
 1735              		.loc 14 172 9 view .LVU467
 1736              		.loc 14 173 9 view .LVU468
 1737              		.loc 14 173 18 view .LVU469
 1738              	.LBB1006:
 1739              	.LBI1006:
  56:../../DaisySP//Source/Utility/dsp.h **** {
 1740              		.loc 14 56 14 view .LVU470
 1741              	.LBE1006:
 1742              	.LBE1017:
 1743              	.LBE1027:
  58:../../DaisySP//Source/Utility/dsp.h **** }
 1744              		.loc 14 58 5 view .LVU471
 1745              	.LBB1028:
 1746              	.LBB1018:
 1747              	.LBB1013:
 1748              	.LBB1007:
 1749              	.LBI1007:
  32:../../DaisySP//Source/Utility/dsp.h **** {
 1750              		.loc 14 32 14 view .LVU472
 1751              	.LBB1008:
  34:../../DaisySP//Source/Utility/dsp.h **** #ifdef __arm__
 1752              		.loc 14 34 5 view .LVU473
  36:../../DaisySP//Source/Utility/dsp.h **** #else
 1753              		.loc 14 36 5 view .LVU474
 1754              	.LBE1008:
 1755              	.LBE1007:
 1756              	.LBE1013:
 1757              	.LBE1018:
 1758              	.LBE1028:
 1759              	.LBB1029:
ARM GAS  C:\Users\daniel\AppData\Local\Temp\cc1VxNgq.s 			page 60


 1760              	.LBB1002:
 1761              		.loc 9 58 71 is_stmt 0 view .LVU475
 1762 0058 83ED027A 		vstr.32	s14, [r3, #8]
 1763              	.LBE1002:
 1764              	.LBE1029:
 1765              	.LBB1030:
 1766              	.LBB1019:
 1767              	.LBB1014:
 1768              	.LBB1010:
 1769              	.LBB1009:
  36:../../DaisySP//Source/Utility/dsp.h **** #else
 1770              		.loc 14 36 5 view .LVU476
 1771              		.syntax unified
 1772              	@ 36 "../../DaisySP//Source/Utility/dsp.h" 1
 1773 005c C7FE867A 		vmaxnm.f32 s15, s15, s12
 1774              	@ 0 "" 2
 1775              	.LVL119:
  40:../../DaisySP//Source/Utility/dsp.h **** }
 1776              		.loc 14 40 5 is_stmt 1 view .LVU477
  40:../../DaisySP//Source/Utility/dsp.h **** }
 1777              		.loc 14 40 5 is_stmt 0 view .LVU478
 1778              		.thumb
 1779              		.syntax unified
 1780              	.LBE1009:
 1781              	.LBE1010:
 1782              	.LBB1011:
 1783              	.LBI1011:
  43:../../DaisySP//Source/Utility/dsp.h **** {
 1784              		.loc 14 43 14 is_stmt 1 view .LVU479
 1785              	.LBB1012:
  45:../../DaisySP//Source/Utility/dsp.h **** #ifdef __arm__
 1786              		.loc 14 45 5 view .LVU480
  47:../../DaisySP//Source/Utility/dsp.h **** #else
 1787              		.loc 14 47 5 view .LVU481
 1788              		.syntax unified
 1789              	@ 47 "../../DaisySP//Source/Utility/dsp.h" 1
 1790 0060 C7FEE67A 		vminnm.f32 s15, s15, s13
 1791              	@ 0 "" 2
 1792              	.LVL120:
  51:../../DaisySP//Source/Utility/dsp.h **** }
 1793              		.loc 14 51 5 view .LVU482
  51:../../DaisySP//Source/Utility/dsp.h **** }
 1794              		.loc 14 51 5 is_stmt 0 view .LVU483
 1795              		.thumb
 1796              		.syntax unified
 1797              	.LBE1012:
 1798              	.LBE1011:
 1799              	.LBE1014:
 1800              	.LBE1019:
 1801              	.LBE1030:
 136:Proliferation.cpp ****     env.SetTime(ADENV_SEG_DECAY, decay);
 1802              		.loc 13 136 5 is_stmt 1 view .LVU484
 1803              	.LBB1031:
 1804              	.LBI1000:
 1805              		.loc 9 58 17 view .LVU485
 1806              	.LBB1003:
 1807              		.loc 9 58 52 view .LVU486
ARM GAS  C:\Users\daniel\AppData\Local\Temp\cc1VxNgq.s 			page 61


 1808              		.loc 9 58 52 is_stmt 0 view .LVU487
 1809              	.LBE1003:
 1810              	.LBE1031:
 137:Proliferation.cpp **** 
 1811              		.loc 13 137 5 is_stmt 1 view .LVU488
 1812              	.LBB1032:
 1813              	.LBI1032:
 1814              		.loc 9 58 17 view .LVU489
 1815              	.LBB1033:
 1816              		.loc 9 58 52 view .LVU490
 1817              		.loc 9 58 71 is_stmt 0 view .LVU491
 1818 0064 C3ED037A 		vstr.32	s15, [r3, #12]
 1819              	.LVL121:
 1820              		.loc 9 58 71 view .LVU492
 1821              	.LBE1033:
 1822              	.LBE1032:
 1823              		.loc 13 140 5 is_stmt 1 view .LVU493
 1824              		.loc 13 140 26 is_stmt 0 view .LVU494
 1825 0068 FFF7FEFF 		bl	_ZN5daisy8patch_sm12DaisyPatchSM11GetAdcValueEi
 1826              	.LVL122:
 141:Proliferation.cpp ****     amount = fmap(damt, 0.0f, 1.f);
 1827              		.loc 13 141 5 is_stmt 1 view .LVU495
 1828              	.LBB1034:
 1829              	.LBI1034:
 161:../../DaisySP//Source/Utility/dsp.h **** {
 1830              		.loc 14 161 1 view .LVU496
 1831              	.LBE1034:
 163:../../DaisySP//Source/Utility/dsp.h ****     {
 1832              		.loc 14 163 5 view .LVU497
 1833              	.LBB1050:
 1834              	.LBB1035:
 172:../../DaisySP//Source/Utility/dsp.h ****         default: return fclamp(min + in * (max - min), min, max);
 1835              		.loc 14 172 9 view .LVU498
 1836              		.loc 14 173 9 view .LVU499
 1837              		.loc 14 173 18 view .LVU500
 1838              	.LBB1036:
 1839              	.LBI1036:
  56:../../DaisySP//Source/Utility/dsp.h **** {
 1840              		.loc 14 56 14 view .LVU501
 1841              	.LBE1036:
 1842              	.LBE1035:
 1843              	.LBE1050:
  58:../../DaisySP//Source/Utility/dsp.h **** }
 1844              		.loc 14 58 5 view .LVU502
 1845              	.LBB1051:
 1846              	.LBB1048:
 1847              	.LBB1045:
 1848              	.LBB1037:
 1849              	.LBI1037:
  32:../../DaisySP//Source/Utility/dsp.h **** {
 1850              		.loc 14 32 14 view .LVU503
 1851              	.LBB1038:
  34:../../DaisySP//Source/Utility/dsp.h **** #ifdef __arm__
 1852              		.loc 14 34 5 view .LVU504
  36:../../DaisySP//Source/Utility/dsp.h **** #else
 1853              		.loc 14 36 5 view .LVU505
 1854              	.LBE1038:
ARM GAS  C:\Users\daniel\AppData\Local\Temp\cc1VxNgq.s 			page 62


 1855              	.LBE1037:
 1856              	.LBE1045:
 1857              		.loc 14 173 31 is_stmt 0 view .LVU506
 1858 006c DFED5E7A 		vldr.32	s15, .L112+20
 1859              	.LBB1046:
 1860              	.LBB1040:
 1861              	.LBB1041:
  47:../../DaisySP//Source/Utility/dsp.h **** #else
 1862              		.loc 14 47 5 view .LVU507
 1863 0070 B7EE007A 		vmov.f32	s14, #1.0e+0
 1864              	.LBE1041:
 1865              	.LBE1040:
 1866              	.LBE1046:
 1867              	.LBE1048:
 1868              	.LBE1051:
 142:Proliferation.cpp ****     
 143:Proliferation.cpp ****     drive.SetDrive(amount);
 1869              		.loc 13 143 19 view .LVU508
 1870 0074 5D48     		ldr	r0, .L112+24
 1871              	.LBB1052:
 1872              	.LBB1049:
 1873              		.loc 14 173 31 view .LVU509
 1874 0076 30EE270A 		vadd.f32	s0, s0, s15
 1875              	.LVL123:
 1876              	.LBB1047:
 1877              	.LBB1043:
 1878              	.LBB1039:
  36:../../DaisySP//Source/Utility/dsp.h **** #else
 1879              		.loc 14 36 5 view .LVU510
 1880              		.syntax unified
 1881              	@ 36 "../../DaisySP//Source/Utility/dsp.h" 1
 1882 007a 80FE270A 		vmaxnm.f32 s0, s0, s15
 1883              	@ 0 "" 2
 1884              	.LVL124:
  40:../../DaisySP//Source/Utility/dsp.h **** }
 1885              		.loc 14 40 5 is_stmt 1 view .LVU511
  40:../../DaisySP//Source/Utility/dsp.h **** }
 1886              		.loc 14 40 5 is_stmt 0 view .LVU512
 1887              		.thumb
 1888              		.syntax unified
 1889              	.LBE1039:
 1890              	.LBE1043:
 1891              	.LBB1044:
 1892              	.LBI1040:
  43:../../DaisySP//Source/Utility/dsp.h **** {
 1893              		.loc 14 43 14 is_stmt 1 view .LVU513
 1894              	.LBB1042:
  45:../../DaisySP//Source/Utility/dsp.h **** #ifdef __arm__
 1895              		.loc 14 45 5 view .LVU514
  47:../../DaisySP//Source/Utility/dsp.h **** #else
 1896              		.loc 14 47 5 view .LVU515
 1897              		.syntax unified
 1898              	@ 47 "../../DaisySP//Source/Utility/dsp.h" 1
 1899 007e 80FE470A 		vminnm.f32 s0, s0, s14
 1900              	@ 0 "" 2
 1901              	.LVL125:
  51:../../DaisySP//Source/Utility/dsp.h **** }
ARM GAS  C:\Users\daniel\AppData\Local\Temp\cc1VxNgq.s 			page 63


 1902              		.loc 14 51 5 view .LVU516
  51:../../DaisySP//Source/Utility/dsp.h **** }
 1903              		.loc 14 51 5 is_stmt 0 view .LVU517
 1904              		.thumb
 1905              		.syntax unified
 1906              	.LBE1042:
 1907              	.LBE1044:
 1908              	.LBE1047:
 1909              	.LBE1049:
 1910              	.LBE1052:
 1911              		.loc 13 143 5 is_stmt 1 view .LVU518
 1912              		.loc 13 143 19 is_stmt 0 view .LVU519
 1913 0082 FFF7FEFF 		bl	_ZN7daisysp9Overdrive8SetDriveEf
 1914              	.LVL126:
 144:Proliferation.cpp ****     
 145:Proliferation.cpp **** 
 146:Proliferation.cpp **** 	for (size_t i = 0; i < size; i++)
 1915              		.loc 13 146 2 is_stmt 1 view .LVU520
 1916              	.LBB1053:
 1917              		.loc 13 146 23 view .LVU521
 1918 0086 002C     		cmp	r4, #0
 1919 0088 00F09F80 		beq	.L93
 1920              		.loc 13 146 14 is_stmt 0 view .LVU522
 1921 008c 0024     		movs	r4, #0
 1922              	.LVL127:
 1923              		.loc 13 146 14 view .LVU523
 1924 008e DFF87091 		ldr	r9, .L112+44
 1925              	.LVL128:
 1926              	.L101:
 1927              	.LBB1054:
 147:Proliferation.cpp **** 	{
 148:Proliferation.cpp ****         if(hw.gate_in_2.Trig()) {
 1928              		.loc 13 148 9 is_stmt 1 view .LVU524
 1929              		.loc 13 148 29 is_stmt 0 view .LVU525
 1930 0092 5748     		ldr	r0, .L112+28
 1931 0094 FFF7FEFF 		bl	_ZN5daisy6GateIn4TrigEv
 1932              	.LVL129:
 1933              		.loc 13 148 9 view .LVU526
 1934 0098 18B1     		cbz	r0, .L95
 149:Proliferation.cpp ****             env.Trigger();
 1935              		.loc 13 149 13 is_stmt 1 view .LVU527
 1936              	.LVL130:
 1937              	.LBB1055:
 1938              	.LBI1055:
  56:../../DaisySP//Source/Control/adenv.h ****     /** Sets the length of time (in seconds) for a specific segment. */
 1939              		.loc 9 56 17 view .LVU528
 1940              	.LBB1056:
  56:../../DaisySP//Source/Control/adenv.h ****     /** Sets the length of time (in seconds) for a specific segment. */
 1941              		.loc 9 56 29 view .LVU529
  56:../../DaisySP//Source/Control/adenv.h ****     /** Sets the length of time (in seconds) for a specific segment. */
 1942              		.loc 9 56 38 is_stmt 0 view .LVU530
 1943 009a 0123     		movs	r3, #1
 1944 009c 504A     		ldr	r2, .L112+12
 1945 009e 82F83430 		strb	r3, [r2, #52]
 1946              	.LVL131:
 1947              	.L95:
  56:../../DaisySP//Source/Control/adenv.h ****     /** Sets the length of time (in seconds) for a specific segment. */
ARM GAS  C:\Users\daniel\AppData\Local\Temp\cc1VxNgq.s 			page 64


 1948              		.loc 9 56 38 view .LVU531
 1949              	.LBE1056:
 1950              	.LBE1055:
 150:Proliferation.cpp ****         }
 151:Proliferation.cpp **** 
 152:Proliferation.cpp ****         float env_out = env.Process();
 1951              		.loc 13 152 9 is_stmt 1 view .LVU532
 1952 00a2 A300     		lsls	r3, r4, #2
 1953              		.loc 13 152 36 is_stmt 0 view .LVU533
 1954 00a4 4E48     		ldr	r0, .L112+12
 1955 00a6 0293     		str	r3, [sp, #8]
 1956 00a8 FFF7FEFF 		bl	_ZN7daisysp5AdEnv7ProcessEv
 1957              	.LVL132:
 153:Proliferation.cpp ****         
 154:Proliferation.cpp ****         // Zero samples prior to summing
 155:Proliferation.cpp ****         OUT_L[i] = 0.f;
 1958              		.loc 13 155 18 view .LVU534
 1959 00ac 0023     		movs	r3, #0
 1960              	.LBB1057:
 1961              	.LBB1058:
 156:Proliferation.cpp ****         OUT_R[i] = 0.f;
 157:Proliferation.cpp ****         for(auto &buffer : buffers)
 158:Proliferation.cpp ****         {
 159:Proliferation.cpp ****             // Record in mono
 160:Proliferation.cpp ****             float sample = buffer.Process(0.5 * IN_L[i] + 0.5 * IN_R[i]);
 1962              		.loc 13 160 55 view .LVU535
 1963 00ae 3268     		ldr	r2, [r6]
 1964 00b0 A446     		mov	ip, r4
 1965 00b2 02EB840B 		add	fp, r2, r4, lsl #2
 1966              	.LBE1058:
 1967              	.LBE1057:
 156:Proliferation.cpp ****         OUT_R[i] = 0.f;
 1968              		.loc 13 156 16 view .LVU536
 1969 00b6 D7E90010 		ldrd	r1, r0, [r7]
 155:Proliferation.cpp ****         OUT_R[i] = 0.f;
 1970              		.loc 13 155 16 view .LVU537
 1971 00ba 01EB8401 		add	r1, r1, r4, lsl #2
 156:Proliferation.cpp ****         OUT_R[i] = 0.f;
 1972              		.loc 13 156 16 view .LVU538
 1973 00be 00EB8400 		add	r0, r0, r4, lsl #2
 1974              	.LVL133:
 155:Proliferation.cpp ****         OUT_R[i] = 0.f;
 1975              		.loc 13 155 9 is_stmt 1 view .LVU539
 155:Proliferation.cpp ****         OUT_R[i] = 0.f;
 1976              		.loc 13 155 18 is_stmt 0 view .LVU540
 1977 00c2 0B60     		str	r3, [r1]	@ float
 156:Proliferation.cpp ****         OUT_R[i] = 0.f;
 1978              		.loc 13 156 9 is_stmt 1 view .LVU541
 156:Proliferation.cpp ****         OUT_R[i] = 0.f;
 1979              		.loc 13 156 18 is_stmt 0 view .LVU542
 1980 00c4 0360     		str	r3, [r0]	@ float
 157:Proliferation.cpp ****         {
 1981              		.loc 13 157 9 is_stmt 1 view .LVU543
 1982              	.LVL134:
 1983              	.LBB1110:
 157:Proliferation.cpp ****         {
 1984              		.loc 13 157 28 view .LVU544
ARM GAS  C:\Users\daniel\AppData\Local\Temp\cc1VxNgq.s 			page 65


 1985              	.LBB1107:
 1986              		.loc 13 160 71 is_stmt 0 view .LVU545
 1987 00c6 7368     		ldr	r3, [r6, #4]
 1988 00c8 03EB840A 		add	r10, r3, r4, lsl #2
 1989 00cc 494B     		ldr	r3, .L112+32
 1990              	.LVL135:
 1991              	.L100:
 1992              		.loc 13 160 13 is_stmt 1 discriminator 2 view .LVU546
 1993              	.LBB1059:
 1994              	.LBI1059:
  52:samplebuffer.h ****     {
 1995              		.loc 15 52 11 discriminator 2 view .LVU547
 1996              	.LBB1060:
 1997              	.LBI1060:
  58:samplebuffer.h ****     {
 1998              		.loc 15 58 10 discriminator 2 view .LVU548
 1999              	.LBB1061:
 2000              	.LBB1062:
 2001              	.LBI1062:
  58:samplebuffer.h ****     {
 2002              		.loc 15 58 10 discriminator 2 view .LVU549
  58:samplebuffer.h ****     {
 2003              		.loc 15 58 10 is_stmt 0 discriminator 2 view .LVU550
 2004              	.LBE1062:
 2005              	.LBE1061:
 2006              	.LBE1060:
 2007              	.LBB1083:
 2008              	.LBI1083:
  72:samplebuffer.h ****     {
 2009              		.loc 15 72 11 is_stmt 1 discriminator 2 view .LVU551
 2010              	.LBB1084:
 2011              	.LBI1084:
  72:samplebuffer.h ****     {
 2012              		.loc 15 72 11 discriminator 2 view .LVU552
 2013              	.LBE1084:
 2014              	.LBE1083:
 2015              	.LBB1091:
 2016              	.LBB1075:
 2017              	.LBB1069:
 2018              	.LBB1063:
  64:samplebuffer.h ****             {
 2019              		.loc 15 64 13 is_stmt 0 discriminator 2 view .LVU553
 2020 00ce 4A4C     		ldr	r4, .L112+36
 2021              	.LBE1063:
 2022              	.LBE1069:
 2023              	.LBE1075:
 2024              	.LBE1091:
 2025              	.LBE1059:
 2026              		.loc 13 160 47 discriminator 2 view .LVU554
 2027 00d0 B6EE005B 		vmov.f64	d5, #5.0e-1
 2028              	.LBB1101:
 2029              	.LBB1092:
 2030              	.LBB1076:
  60:samplebuffer.h ****         {
 2031              		.loc 15 60 9 discriminator 2 view .LVU555
 2032 00d4 5A7B     		ldrb	r2, [r3, #13]	@ zero_extendqisi2
 2033              	.LBE1076:
ARM GAS  C:\Users\daniel\AppData\Local\Temp\cc1VxNgq.s 			page 66


 2034              	.LBE1092:
 2035              	.LBB1093:
 2036              	.LBB1087:
 2037              	.LBB1085:
  78:samplebuffer.h ****             {
 2038              		.loc 15 78 13 discriminator 2 view .LVU556
 2039 00d6 2546     		mov	r5, r4
 2040              	.LBE1085:
 2041              	.LBE1087:
 2042              	.LBB1088:
  87:samplebuffer.h ****         }
 2043              		.loc 15 87 20 discriminator 2 view .LVU557
 2044 00d8 DFED436A 		vldr.32	s13, .L112+20
 2045              	.LBE1088:
 2046              	.LBE1093:
 2047              	.LBB1094:
 2048              	.LBB1077:
  60:samplebuffer.h ****         {
 2049              		.loc 15 60 9 discriminator 2 view .LVU558
 2050 00dc E2B1     		cbz	r2, .L97
 2051              	.LBE1077:
 2052              	.LBE1094:
 2053              	.LBE1101:
 2054              		.loc 13 160 55 view .LVU559
 2055 00de 9BED007A 		vldr.32	s14, [fp]
 2056              	.LBB1102:
 2057              	.LBB1095:
 2058              	.LBB1078:
 2059              	.LBB1070:
 2060              	.LBB1064:
  66:samplebuffer.h ****                 write_ptr_ = 0;
 2061              		.loc 15 66 28 view .LVU560
 2062 00e2 4FF0000E 		mov	lr, #0
 2063              	.LBE1064:
 2064              	.LBE1070:
 2065              	.LBE1078:
 2066              	.LBE1095:
 2067              	.LBE1102:
 2068              		.loc 13 160 71 view .LVU561
 2069 00e6 9AED004A 		vldr.32	s8, [r10]
 2070              		.loc 13 160 55 view .LVU562
 2071 00ea B7EEC77A 		vcvt.f64.f32	d7, s14
 2072              	.LBB1103:
 2073              	.LBB1096:
 2074              	.LBB1079:
 2075              	.LBB1071:
 2076              	.LBB1065:
  62:samplebuffer.h ****             write_ptr_++;
 2077              		.loc 15 62 21 view .LVU563
 2078 00ee 1A68     		ldr	r2, [r3]
 2079              	.LBE1065:
 2080              	.LBE1071:
 2081              	.LBE1079:
 2082              	.LBE1096:
 2083              	.LBE1103:
 2084              		.loc 13 160 71 view .LVU564
 2085 00f0 B7EEC44A 		vcvt.f64.f32	d4, s8
ARM GAS  C:\Users\daniel\AppData\Local\Temp\cc1VxNgq.s 			page 67


 2086              	.LBB1104:
 2087              	.LBB1097:
 2088              	.LBB1080:
 2089              	.LBB1072:
 2090              	.LBB1066:
  62:samplebuffer.h ****             write_ptr_++;
 2091              		.loc 15 62 33 view .LVU565
 2092 00f4 03EB8208 		add	r8, r3, r2, lsl #2
  63:samplebuffer.h ****             if(write_ptr_ >= kBufferSize)
 2093              		.loc 15 63 13 view .LVU566
 2094 00f8 0132     		adds	r2, r2, #1
 2095              	.LBE1066:
 2096              	.LBE1072:
 2097              	.LBE1080:
 2098              	.LBE1097:
 2099              	.LBE1104:
 2100              		.loc 13 160 47 view .LVU567
 2101 00fa 27EE057B 		vmul.f64	d7, d7, d5
 2102              	.LBB1105:
 2103              	.LBB1098:
 2104              	.LBB1081:
 2105              	.LBB1073:
 2106              	.LBB1067:
  64:samplebuffer.h ****             {
 2107              		.loc 15 64 13 view .LVU568
 2108 00fe A242     		cmp	r2, r4
 2109              	.LBE1067:
 2110              	.LBE1073:
 2111              	.LBE1081:
 2112              	.LBE1098:
 2113              	.LBE1105:
 2114              		.loc 13 160 57 view .LVU569
 2115 0100 A4EE057B 		vfma.f64	d7, d4, d5
 2116              		.loc 13 160 42 view .LVU570
 2117 0104 B7EEC77B 		vcvt.f32.f64	s14, d7
 2118 0108 88ED047A 		vstr.32	s14, [r8, #16]
 2119              	.LBB1106:
 2120              	.LBB1099:
 2121              	.LBB1082:
 2122              	.LBB1074:
 2123              	.LBB1068:
  63:samplebuffer.h ****             if(write_ptr_ >= kBufferSize)
 2124              		.loc 15 63 13 view .LVU571
 2125 010c 1A60     		str	r2, [r3]
  64:samplebuffer.h ****             {
 2126              		.loc 15 64 13 view .LVU572
 2127 010e 03D9     		bls	.L97
  66:samplebuffer.h ****                 write_ptr_ = 0;
 2128              		.loc 15 66 28 view .LVU573
 2129 0110 83F80DE0 		strb	lr, [r3, #13]
  67:samplebuffer.h ****             }
 2130              		.loc 15 67 28 view .LVU574
 2131 0114 C3F800E0 		str	lr, [r3]
 2132              	.L97:
 2133              	.LBE1068:
 2134              	.LBE1074:
 2135              	.LBE1082:
ARM GAS  C:\Users\daniel\AppData\Local\Temp\cc1VxNgq.s 			page 68


 2136              	.LBE1099:
 2137              	.LBB1100:
 2138              	.LBB1089:
  74:samplebuffer.h ****         {
 2139              		.loc 15 74 9 view .LVU575
 2140 0118 1A7B     		ldrb	r2, [r3, #12]	@ zero_extendqisi2
 2141 011a 5AB1     		cbz	r2, .L99
 2142              	.LBE1089:
 2143              	.LBB1090:
 2144              	.LBB1086:
  76:samplebuffer.h ****             read_ptr_++;
 2145              		.loc 15 76 33 view .LVU576
 2146 011c 5A68     		ldr	r2, [r3, #4]
  80:samplebuffer.h ****                 read_ptr_ = 0;
 2147              		.loc 15 80 27 view .LVU577
 2148 011e 0024     		movs	r4, #0
  76:samplebuffer.h ****             read_ptr_++;
 2149              		.loc 15 76 19 view .LVU578
 2150 0120 03EB820E 		add	lr, r3, r2, lsl #2
  77:samplebuffer.h ****             if(read_ptr_ >= kBufferSize)
 2151              		.loc 15 77 13 view .LVU579
 2152 0124 0132     		adds	r2, r2, #1
  78:samplebuffer.h ****             {
 2153              		.loc 15 78 13 view .LVU580
 2154 0126 AA42     		cmp	r2, r5
  76:samplebuffer.h ****             read_ptr_++;
 2155              		.loc 15 76 19 view .LVU581
 2156 0128 DEED046A 		vldr.32	s13, [lr, #16]
 2157              	.LVL136:
  77:samplebuffer.h ****             if(read_ptr_ >= kBufferSize)
 2158              		.loc 15 77 13 view .LVU582
 2159 012c 5A60     		str	r2, [r3, #4]
  78:samplebuffer.h ****             {
 2160              		.loc 15 78 13 view .LVU583
 2161 012e 01D9     		bls	.L99
  80:samplebuffer.h ****                 read_ptr_ = 0;
 2162              		.loc 15 80 27 view .LVU584
 2163 0130 1C73     		strb	r4, [r3, #12]
  81:samplebuffer.h ****             }
 2164              		.loc 15 81 27 view .LVU585
 2165 0132 5C60     		str	r4, [r3, #4]
 2166              	.LVL137:
 2167              	.L99:
  81:samplebuffer.h ****             }
 2168              		.loc 15 81 27 view .LVU586
 2169              	.LBE1086:
 2170              	.LBE1090:
 2171              	.LBE1100:
 2172              	.LBE1106:
 161:Proliferation.cpp **** 
 162:Proliferation.cpp ****             OUT_L[i] += sample * env_out;
 2173              		.loc 13 162 13 is_stmt 1 view .LVU587
 2174              		.loc 13 162 22 is_stmt 0 view .LVU588
 2175 0134 D1ED007A 		vldr.32	s15, [r1]
 2176              	.LBE1107:
 157:Proliferation.cpp ****         {
 2177              		.loc 13 157 28 view .LVU589
ARM GAS  C:\Users\daniel\AppData\Local\Temp\cc1VxNgq.s 			page 69


 2178 0138 03F56A23 		add	r3, r3, #958464
 2179              	.LVL138:
 2180              	.LBB1108:
 2181              		.loc 13 162 22 view .LVU590
 2182 013c E0EE267A 		vfma.f32	s15, s0, s13
 2183              	.LBE1108:
 157:Proliferation.cpp ****         {
 2184              		.loc 13 157 28 view .LVU591
 2185 0140 03F5C263 		add	r3, r3, #1552
 2186              	.LVL139:
 157:Proliferation.cpp ****         {
 2187              		.loc 13 157 28 view .LVU592
 2188 0144 4B45     		cmp	r3, r9
 2189              	.LBB1109:
 2190              		.loc 13 162 22 view .LVU593
 2191 0146 C1ED007A 		vstr.32	s15, [r1]
 163:Proliferation.cpp ****             OUT_R[i] += sample * env_out;
 2192              		.loc 13 163 13 is_stmt 1 view .LVU594
 2193              		.loc 13 163 22 is_stmt 0 view .LVU595
 2194 014a D0ED007A 		vldr.32	s15, [r0]
 2195 014e E0EE267A 		vfma.f32	s15, s0, s13
 2196 0152 C0ED007A 		vstr.32	s15, [r0]
 2197              	.LBE1109:
 157:Proliferation.cpp ****         {
 2198              		.loc 13 157 9 is_stmt 1 view .LVU596
 2199              	.LVL140:
 157:Proliferation.cpp ****         {
 2200              		.loc 13 157 28 view .LVU597
 2201 0156 BAD1     		bne	.L100
 2202              	.LBE1110:
 164:Proliferation.cpp ****         }
 165:Proliferation.cpp ****         // Feed stereo input through to output, as well as process reverb POST buffers
 166:Proliferation.cpp ****         float mono = OUT_L[i] + OUT_R[i];
 2203              		.loc 13 166 9 discriminator 2 view .LVU598
 2204              		.loc 13 166 31 is_stmt 0 discriminator 2 view .LVU599
 2205 0158 91ED007A 		vldr.32	s14, [r1]
 167:Proliferation.cpp ****         rv.Process(mono,  mono, &wet, &wet);
 2206              		.loc 13 167 19 discriminator 2 view .LVU600
 2207 015c 04AB     		add	r3, sp, #16
 2208              	.LVL141:
 2209              		.loc 13 167 19 discriminator 2 view .LVU601
 2210 015e 05AA     		add	r2, sp, #20
 2211 0160 2648     		ldr	r0, .L112+40
 166:Proliferation.cpp ****         rv.Process(mono,  mono, &wet, &wet);
 2212              		.loc 13 166 31 discriminator 2 view .LVU602
 2213 0162 77EE277A 		vadd.f32	s15, s14, s15
 2214              		.loc 13 167 19 discriminator 2 view .LVU603
 2215 0166 0093     		str	r3, [sp]
 2216 0168 1146     		mov	r1, r2
 166:Proliferation.cpp ****         rv.Process(mono,  mono, &wet, &wet);
 2217              		.loc 13 166 31 discriminator 2 view .LVU604
 2218 016a 6446     		mov	r4, ip
 166:Proliferation.cpp ****         rv.Process(mono,  mono, &wet, &wet);
 2219              		.loc 13 166 15 discriminator 2 view .LVU605
 2220 016c CDED057A 		vstr.32	s15, [sp, #20]
 2221              		.loc 13 167 9 is_stmt 1 discriminator 2 view .LVU606
 2222              		.loc 13 167 19 is_stmt 0 discriminator 2 view .LVU607
ARM GAS  C:\Users\daniel\AppData\Local\Temp\cc1VxNgq.s 			page 70


 2223 0170 FFF7FEFF 		bl	_ZN7daisysp8ReverbSc7ProcessERKfS2_PfS3_
 2224              	.LVL142:
 168:Proliferation.cpp **** 
 169:Proliferation.cpp ****         drive.Process(wet);
 2225              		.loc 13 169 9 is_stmt 1 discriminator 2 view .LVU608
 2226              		.loc 13 169 22 is_stmt 0 discriminator 2 view .LVU609
 2227 0174 1D48     		ldr	r0, .L112+24
 2228              	.LBE1054:
 146:Proliferation.cpp **** 	{
 2229              		.loc 13 146 2 discriminator 2 view .LVU610
 2230 0176 0134     		adds	r4, r4, #1
 2231              	.LVL143:
 2232              	.LBB1111:
 2233              		.loc 13 169 22 discriminator 2 view .LVU611
 2234 0178 9DED040A 		vldr.32	s0, [sp, #16]
 2235 017c FFF7FEFF 		bl	_ZN7daisysp9Overdrive7ProcessEf
 2236              	.LVL144:
 170:Proliferation.cpp **** 
 171:Proliferation.cpp ****         OUT_L[i] += IN_L[i] + wet;
 2237              		.loc 13 171 9 is_stmt 1 discriminator 2 view .LVU612
 2238              		.loc 13 171 27 is_stmt 0 discriminator 2 view .LVU613
 2239 0180 3368     		ldr	r3, [r6]
 2240 0182 029D     		ldr	r5, [sp, #8]
 2241              		.loc 13 171 18 discriminator 2 view .LVU614
 2242 0184 3A68     		ldr	r2, [r7]
 2243              		.loc 13 171 27 discriminator 2 view .LVU615
 2244 0186 5819     		adds	r0, r3, r5
 2245              		.loc 13 171 29 discriminator 2 view .LVU616
 2246 0188 DDED046A 		vldr.32	s13, [sp, #16]
 2247              		.loc 13 171 18 discriminator 2 view .LVU617
 2248 018c 2A44     		add	r2, r2, r5
 172:Proliferation.cpp ****         OUT_R[i] += IN_R[i] + wet;
 2249              		.loc 13 172 27 discriminator 2 view .LVU618
 2250 018e 7168     		ldr	r1, [r6, #4]
 171:Proliferation.cpp ****         OUT_R[i] += IN_R[i] + wet;
 2251              		.loc 13 171 29 discriminator 2 view .LVU619
 2252 0190 90ED007A 		vldr.32	s14, [r0]
 171:Proliferation.cpp ****         OUT_R[i] += IN_R[i] + wet;
 2253              		.loc 13 171 18 discriminator 2 view .LVU620
 2254 0194 D2ED007A 		vldr.32	s15, [r2]
 2255              		.loc 13 172 27 discriminator 2 view .LVU621
 2256 0198 2944     		add	r1, r1, r5
 171:Proliferation.cpp ****         OUT_R[i] += IN_R[i] + wet;
 2257              		.loc 13 171 29 discriminator 2 view .LVU622
 2258 019a 37EE267A 		vadd.f32	s14, s14, s13
 2259              		.loc 13 172 18 discriminator 2 view .LVU623
 2260 019e 7B68     		ldr	r3, [r7, #4]
 2261 01a0 2B44     		add	r3, r3, r5
 171:Proliferation.cpp ****         OUT_R[i] += IN_R[i] + wet;
 2262              		.loc 13 171 18 discriminator 2 view .LVU624
 2263 01a2 77EE877A 		vadd.f32	s15, s15, s14
 2264 01a6 C2ED007A 		vstr.32	s15, [r2]
 2265              		.loc 13 172 9 is_stmt 1 discriminator 2 view .LVU625
 2266              		.loc 13 172 29 is_stmt 0 discriminator 2 view .LVU626
 2267 01aa DDED046A 		vldr.32	s13, [sp, #16]
 2268 01ae 91ED007A 		vldr.32	s14, [r1]
 2269              		.loc 13 172 18 discriminator 2 view .LVU627
ARM GAS  C:\Users\daniel\AppData\Local\Temp\cc1VxNgq.s 			page 71


 2270 01b2 D3ED007A 		vldr.32	s15, [r3]
 2271              		.loc 13 172 29 discriminator 2 view .LVU628
 2272 01b6 37EE267A 		vadd.f32	s14, s14, s13
 2273              		.loc 13 172 18 discriminator 2 view .LVU629
 2274 01ba 77EE877A 		vadd.f32	s15, s15, s14
 2275 01be C3ED007A 		vstr.32	s15, [r3]
 2276              	.LBE1111:
 146:Proliferation.cpp **** 	{
 2277              		.loc 13 146 2 is_stmt 1 discriminator 2 view .LVU630
 2278              	.LVL145:
 146:Proliferation.cpp **** 	{
 2279              		.loc 13 146 23 discriminator 2 view .LVU631
 2280 01c2 039B     		ldr	r3, [sp, #12]
 2281 01c4 A342     		cmp	r3, r4
 2282 01c6 7FF464AF 		bne	.L101
 2283              	.LVL146:
 2284              	.L93:
 146:Proliferation.cpp **** 	{
 2285              		.loc 13 146 23 is_stmt 0 discriminator 2 view .LVU632
 2286              	.LBE1053:
 173:Proliferation.cpp **** 	}
 174:Proliferation.cpp **** }
 2287              		.loc 13 174 1 view .LVU633
 2288 01ca 07B0     		add	sp, sp, #28
 2289              		.cfi_def_cfa_offset 44
 2290              		@ sp needed
 2291 01cc BDEC028B 		vldm	sp!, {d8}
 2292              		.cfi_restore 80
 2293              		.cfi_restore 81
 2294              		.cfi_def_cfa_offset 36
 2295              	.LVL147:
 2296              		.loc 13 174 1 view .LVU634
 2297 01d0 BDE8F08F 		pop	{r4, r5, r6, r7, r8, r9, r10, fp, pc}
 2298              	.LVL148:
 2299              	.L113:
 2300              		.loc 13 174 1 view .LVU635
 2301              		.align	2
 2302              	.L112:
 2303 01d4 00000000 		.word	.LANCHOR0
 2304 01d8 0AD7233C 		.word	1008981770
 2305 01dc 52B8FE3F 		.word	1073657938
 2306 01e0 00000000 		.word	.LANCHOR4
 2307 01e4 52B8FEBF 		.word	-1073825710
 2308 01e8 00000000 		.word	0
 2309 01ec 00000000 		.word	.LANCHOR5
 2310 01f0 B7010000 		.word	.LANCHOR0+439
 2311 01f4 00000000 		.word	buffers
 2312 01f8 7FA90300 		.word	239999
 2313 01fc 00000000 		.word	rv
 2314 0200 80307500 		.word	buffers+7680128
 2315              		.cfi_endproc
 2316              	.LFE4841:
 2318              		.section	.text._Z12InitSamplersv,"ax",%progbits
 2319              		.align	1
 2320              		.p2align 2,,3
 2321              		.global	_Z12InitSamplersv
 2322              		.syntax unified
ARM GAS  C:\Users\daniel\AppData\Local\Temp\cc1VxNgq.s 			page 72


 2323              		.thumb
 2324              		.thumb_func
 2325              		.fpu fpv5-d16
 2327              	_Z12InitSamplersv:
 2328              	.LFB4842:
 175:Proliferation.cpp **** 
 176:Proliferation.cpp **** void InitSamplers(){
 2329              		.loc 13 176 20 is_stmt 1 view -0
 2330              		.cfi_startproc
 2331              		@ args = 0, pretend = 0, frame = 0
 2332              		@ frame_needed = 0, uses_anonymous_args = 0
 177:Proliferation.cpp ****     for(auto &buffer : buffers)
 2333              		.loc 13 177 5 view .LVU637
 2334              	.LVL149:
 2335              	.LBB1112:
 2336              		.loc 13 177 24 view .LVU638
 2337              	.LBE1112:
 176:Proliferation.cpp ****     for(auto &buffer : buffers)
 2338              		.loc 13 176 20 is_stmt 0 view .LVU639
 2339 0000 10B5     		push	{r4, lr}
 2340              		.cfi_def_cfa_offset 8
 2341              		.cfi_offset 4, -8
 2342              		.cfi_offset 14, -4
 2343 0002 0B4B     		ldr	r3, .L118
 2344 0004 0B4C     		ldr	r4, .L118+4
 2345              	.LVL150:
 2346              	.L115:
 2347              	.LBB1123:
 2348              	.LBB1113:
 2349              	.LBB1114:
 2350              	.LBB1115:
 2351              	.LBB1116:
  30:samplebuffer.h ****         {
 2352              		.loc 15 30 29 is_stmt 1 view .LVU640
  32:samplebuffer.h ****         }
 2353              		.loc 15 32 24 is_stmt 0 view .LVU641
 2354 0006 1846     		mov	r0, r3
 2355 0008 0B4A     		ldr	r2, .L118+8
 2356 000a 0021     		movs	r1, #0
 2357 000c FFF7FEFF 		bl	memset
 2358              	.LVL151:
  32:samplebuffer.h ****         }
 2359              		.loc 15 32 24 view .LVU642
 2360              	.LBE1116:
 2361              	.LBE1115:
 2362              	.LBE1114:
 2363              	.LBE1113:
 2364              		.loc 13 177 24 view .LVU643
 2365 0010 00F56A23 		add	r3, r0, #958464
 2366              	.LBB1120:
 2367              	.LBB1117:
  22:samplebuffer.h ****         write_ptr_ = 0;
 2368              		.loc 15 22 20 view .LVU644
 2369 0014 0022     		movs	r2, #0
 2370              	.LBE1117:
 2371              	.LBE1120:
 2372              		.loc 13 177 24 view .LVU645
ARM GAS  C:\Users\daniel\AppData\Local\Temp\cc1VxNgq.s 			page 73


 2373 0016 03F5C263 		add	r3, r3, #1552
 2374              	.LBB1121:
 2375              	.LBB1118:
  22:samplebuffer.h ****         write_ptr_ = 0;
 2376              		.loc 15 22 20 view .LVU646
 2377 001a 00F8032C 		strb	r2, [r0, #-3]
 2378              	.LBE1118:
 2379              	.LBE1121:
 2380              		.loc 13 177 24 view .LVU647
 2381 001e 9C42     		cmp	r4, r3
 2382              	.LBB1122:
 2383              	.LBB1119:
  23:samplebuffer.h ****         playing_   = false;
 2384              		.loc 15 23 20 view .LVU648
 2385 0020 40F8102C 		str	r2, [r0, #-16]
  24:samplebuffer.h ****         read_ptr_  = 0;
 2386              		.loc 15 24 20 view .LVU649
 2387 0024 00F8042C 		strb	r2, [r0, #-4]
  25:samplebuffer.h ****     }
 2388              		.loc 15 25 20 view .LVU650
 2389 0028 40F80C2C 		str	r2, [r0, #-12]
 2390              	.LBE1119:
 2391              	.LBE1122:
 2392              		.loc 13 177 5 is_stmt 1 view .LVU651
 2393              	.LVL152:
 2394              		.loc 13 177 24 view .LVU652
 2395 002c EBD1     		bne	.L115
 2396              	.LBE1123:
 178:Proliferation.cpp ****     {
 179:Proliferation.cpp ****         buffer.Init();
 180:Proliferation.cpp ****     }
 181:Proliferation.cpp **** }
 2397              		.loc 13 181 1 is_stmt 0 view .LVU653
 2398 002e 10BD     		pop	{r4, pc}
 2399              	.L119:
 2400              		.align	2
 2401              	.L118:
 2402 0030 10000000 		.word	buffers+16
 2403 0034 90307500 		.word	buffers+7680144
 2404 0038 00A60E00 		.word	960000
 2405              		.cfi_endproc
 2406              	.LFE4842:
 2408              		.section	.text.startup.main,"ax",%progbits
 2409              		.align	1
 2410              		.p2align 2,,3
 2411              		.global	main
 2412              		.syntax unified
 2413              		.thumb
 2414              		.thumb_func
 2415              		.fpu fpv5-d16
 2417              	main:
 2418              	.LFB4843:
 182:Proliferation.cpp **** 
 183:Proliferation.cpp **** int main(void)
 184:Proliferation.cpp **** {
 2419              		.loc 13 184 1 is_stmt 1 view -0
 2420              		.cfi_startproc
ARM GAS  C:\Users\daniel\AppData\Local\Temp\cc1VxNgq.s 			page 74


 2421              		@ Volatile: function does not return.
 2422              		@ args = 0, pretend = 0, frame = 0
 2423              		@ frame_needed = 0, uses_anonymous_args = 0
 185:Proliferation.cpp **** 	hw.Init();
 2424              		.loc 13 185 2 view .LVU655
 184:Proliferation.cpp **** 	hw.Init();
 2425              		.loc 13 184 1 is_stmt 0 view .LVU656
 2426 0000 08B5     		push	{r3, lr}
 2427              		.cfi_def_cfa_offset 8
 2428              		.cfi_offset 3, -8
 2429              		.cfi_offset 14, -4
 2430              		.loc 13 185 9 view .LVU657
 2431 0002 1F48     		ldr	r0, .L123
 2432 0004 FFF7FEFF 		bl	_ZN5daisy8patch_sm12DaisyPatchSM4InitEv
 2433              	.LVL153:
 186:Proliferation.cpp **** 
 187:Proliferation.cpp ****     toggle.Init(hw.B8);
 2434              		.loc 13 187 5 is_stmt 1 view .LVU658
 2435              		.loc 13 187 16 is_stmt 0 view .LVU659
 2436 0008 1E4B     		ldr	r3, .L123+4
 2437 000a 9FED1F8A 		vldr.32	s16, .L123+8
 2438 000e 1A78     		ldrb	r2, [r3]	@ zero_extendqisi2
 2439 0010 5978     		ldrb	r1, [r3, #1]	@ zero_extendqisi2
 2440 0012 B0EE480A 		vmov.f32	s0, s16
 2441 0016 1D48     		ldr	r0, .L123+12
 2442 0018 42EA0121 		orr	r1, r2, r1, lsl #8
 188:Proliferation.cpp ****     button.Init(hw.B7);
 189:Proliferation.cpp ****     InitSamplers();
 190:Proliferation.cpp ****     rv.Init(hw.AudioSampleRate());
 191:Proliferation.cpp ****     env.Init(hw.AudioSampleRate());
 2443              		.loc 13 191 13 view .LVU660
 2444 001c 1C4C     		ldr	r4, .L123+16
 187:Proliferation.cpp ****     button.Init(hw.B7);
 2445              		.loc 13 187 16 view .LVU661
 2446 001e FFF7FEFF 		bl	_ZN5daisy6Switch4InitE12dsy_gpio_pinf
 2447              	.LVL154:
 188:Proliferation.cpp ****     button.Init(hw.B7);
 2448              		.loc 13 188 5 is_stmt 1 view .LVU662
 188:Proliferation.cpp ****     button.Init(hw.B7);
 2449              		.loc 13 188 16 is_stmt 0 view .LVU663
 2450 0022 1C4B     		ldr	r3, .L123+20
 2451 0024 B0EE480A 		vmov.f32	s0, s16
 2452 0028 1B48     		ldr	r0, .L123+24
 2453 002a 1A78     		ldrb	r2, [r3]	@ zero_extendqisi2
 2454 002c 5978     		ldrb	r1, [r3, #1]	@ zero_extendqisi2
 2455 002e 42EA0121 		orr	r1, r2, r1, lsl #8
 2456 0032 FFF7FEFF 		bl	_ZN5daisy6Switch4InitE12dsy_gpio_pinf
 2457              	.LVL155:
 189:Proliferation.cpp ****     rv.Init(hw.AudioSampleRate());
 2458              		.loc 13 189 5 is_stmt 1 view .LVU664
 189:Proliferation.cpp ****     rv.Init(hw.AudioSampleRate());
 2459              		.loc 13 189 17 is_stmt 0 view .LVU665
 2460 0036 FFF7FEFF 		bl	_Z12InitSamplersv
 2461              	.LVL156:
 190:Proliferation.cpp ****     env.Init(hw.AudioSampleRate());
 2462              		.loc 13 190 5 is_stmt 1 view .LVU666
 190:Proliferation.cpp ****     env.Init(hw.AudioSampleRate());
ARM GAS  C:\Users\daniel\AppData\Local\Temp\cc1VxNgq.s 			page 75


 2463              		.loc 13 190 12 is_stmt 0 view .LVU667
 2464 003a 1148     		ldr	r0, .L123
 2465 003c FFF7FEFF 		bl	_ZN5daisy8patch_sm12DaisyPatchSM15AudioSampleRateEv
 2466              	.LVL157:
 2467 0040 1648     		ldr	r0, .L123+28
 2468 0042 FFF7FEFF 		bl	_ZN7daisysp8ReverbSc4InitEf
 2469              	.LVL158:
 2470              		.loc 13 191 5 is_stmt 1 view .LVU668
 2471              		.loc 13 191 13 is_stmt 0 view .LVU669
 2472 0046 0E48     		ldr	r0, .L123
 2473 0048 FFF7FEFF 		bl	_ZN5daisy8patch_sm12DaisyPatchSM15AudioSampleRateEv
 2474              	.LVL159:
 2475 004c 2046     		mov	r0, r4
 2476 004e FFF7FEFF 		bl	_ZN7daisysp5AdEnv4InitEf
 2477              	.LVL160:
 192:Proliferation.cpp ****     drive.Init();
 2478              		.loc 13 192 5 is_stmt 1 view .LVU670
 2479              		.loc 13 192 15 is_stmt 0 view .LVU671
 2480 0052 1348     		ldr	r0, .L123+32
 2481 0054 FFF7FEFF 		bl	_ZN7daisysp9Overdrive4InitEv
 2482              	.LVL161:
 193:Proliferation.cpp **** 
 194:Proliferation.cpp ****     env.SetMin(MIN);
 2483              		.loc 13 194 5 is_stmt 1 view .LVU672
 2484              	.LBB1124:
 2485              	.LBI1124:
  59:../../DaisySP//Source/Control/adenv.h ****     /** Sets the amount of curve applied. A positve value will create a log
  60:../../DaisySP//Source/Control/adenv.h ****         curve. Input range: -100 to 100.  (or more)
  61:../../DaisySP//Source/Control/adenv.h ****     */
  62:../../DaisySP//Source/Control/adenv.h ****     inline void SetCurve(float scalar) { curve_scalar_ = scalar; }
  63:../../DaisySP//Source/Control/adenv.h ****     /** Sets the minimum value of the envelope output.
  64:../../DaisySP//Source/Control/adenv.h ****         Input range: -FLTmax_, to FLTmax_
  65:../../DaisySP//Source/Control/adenv.h ****     */
  66:../../DaisySP//Source/Control/adenv.h ****     inline void SetMin(float min) { min_ = min; }
 2486              		.loc 9 66 17 view .LVU673
 2487              	.LBB1125:
 2488              		.loc 9 66 37 view .LVU674
 2489              	.LBE1125:
 2490              	.LBE1124:
 2491              	.LBB1127:
 2492              	.LBB1128:
  67:../../DaisySP//Source/Control/adenv.h ****     /** Sets the maximum value of the envelope output.
  68:../../DaisySP//Source/Control/adenv.h ****         Input range: -FLTmax_, to FLTmax_
  69:../../DaisySP//Source/Control/adenv.h ****     */
  70:../../DaisySP//Source/Control/adenv.h ****     inline void SetMax(float max) { max_ = max; }
 2493              		.loc 9 70 42 is_stmt 0 view .LVU675
 2494 0058 4FF07E53 		mov	r3, #1065353216
 2495              	.LBE1128:
 2496              	.LBE1127:
 195:Proliferation.cpp ****     env.SetMax(MAX);
 196:Proliferation.cpp ****     env.SetCurve(0); // linear
 197:Proliferation.cpp **** 
 198:Proliferation.cpp **** 
 199:Proliferation.cpp **** 
 200:Proliferation.cpp ****     hw.SetAudioBlockSize(4); // number of samples handled per callback
 2497              		.loc 13 200 25 view .LVU676
 2498 005c 0421     		movs	r1, #4
ARM GAS  C:\Users\daniel\AppData\Local\Temp\cc1VxNgq.s 			page 76


 2499 005e 0848     		ldr	r0, .L123
 2500              	.LBB1131:
 2501              	.LBB1129:
 2502              		.loc 9 70 42 view .LVU677
 2503 0060 A361     		str	r3, [r4, #24]	@ float
 2504              	.LBE1129:
 2505              	.LBE1131:
 2506              	.LBB1132:
 2507              	.LBB1126:
  66:../../DaisySP//Source/Control/adenv.h ****     /** Sets the maximum value of the envelope output.
 2508              		.loc 9 66 42 view .LVU678
 2509 0062 84ED058A 		vstr.32	s16, [r4, #20]
 2510              	.LVL162:
  66:../../DaisySP//Source/Control/adenv.h ****     /** Sets the maximum value of the envelope output.
 2511              		.loc 9 66 42 view .LVU679
 2512              	.LBE1126:
 2513              	.LBE1132:
 195:Proliferation.cpp ****     env.SetMax(MAX);
 2514              		.loc 13 195 5 is_stmt 1 view .LVU680
 2515              	.LBB1133:
 2516              	.LBI1127:
 2517              		.loc 9 70 17 view .LVU681
 2518              	.LBB1130:
 2519              		.loc 9 70 37 view .LVU682
 2520              		.loc 9 70 37 is_stmt 0 view .LVU683
 2521              	.LBE1130:
 2522              	.LBE1133:
 196:Proliferation.cpp **** 
 2523              		.loc 13 196 5 is_stmt 1 view .LVU684
 2524              	.LBB1134:
 2525              	.LBI1134:
  62:../../DaisySP//Source/Control/adenv.h ****     /** Sets the minimum value of the envelope output.
 2526              		.loc 9 62 17 view .LVU685
 2527              	.LBB1135:
  62:../../DaisySP//Source/Control/adenv.h ****     /** Sets the minimum value of the envelope output.
 2528              		.loc 9 62 42 view .LVU686
  62:../../DaisySP//Source/Control/adenv.h ****     /** Sets the minimum value of the envelope output.
 2529              		.loc 9 62 42 is_stmt 0 view .LVU687
 2530              	.LBE1135:
 2531              	.LBE1134:
 2532              		.loc 13 200 5 is_stmt 1 view .LVU688
 2533              	.LBB1137:
 2534              	.LBB1136:
  62:../../DaisySP//Source/Control/adenv.h ****     /** Sets the minimum value of the envelope output.
 2535              		.loc 9 62 56 is_stmt 0 view .LVU689
 2536 0066 84ED088A 		vstr.32	s16, [r4, #32]
 2537              	.LBE1136:
 2538              	.LBE1137:
 2539              		.loc 13 200 25 view .LVU690
 2540 006a FFF7FEFF 		bl	_ZN5daisy8patch_sm12DaisyPatchSM17SetAudioBlockSizeEj
 2541              	.LVL163:
 201:Proliferation.cpp ****     hw.SetAudioSampleRate(SaiHandle::Config::SampleRate::SAI_48KHZ);
 2542              		.loc 13 201 5 is_stmt 1 view .LVU691
 2543              		.loc 13 201 26 is_stmt 0 view .LVU692
 2544 006e 0321     		movs	r1, #3
 2545 0070 0348     		ldr	r0, .L123
 2546 0072 FFF7FEFF 		bl	_ZN5daisy8patch_sm12DaisyPatchSM18SetAudioSampleRateENS_9SaiHandle6Config10SampleRateE
ARM GAS  C:\Users\daniel\AppData\Local\Temp\cc1VxNgq.s 			page 77


 2547              	.LVL164:
 202:Proliferation.cpp ****     hw.StartAudio(AudioCallback);
 2548              		.loc 13 202 5 is_stmt 1 view .LVU693
 2549              		.loc 13 202 18 is_stmt 0 view .LVU694
 2550 0076 0B49     		ldr	r1, .L123+36
 2551 0078 0148     		ldr	r0, .L123
 2552 007a FFF7FEFF 		bl	_ZN5daisy8patch_sm12DaisyPatchSM10StartAudioEPFvPKPKfPPfjE
 2553              	.LVL165:
 2554              	.L121:
 203:Proliferation.cpp **** 
 204:Proliferation.cpp **** 	while(1) {
 2555              		.loc 13 204 2 is_stmt 1 discriminator 1 view .LVU695
 2556              		.loc 13 204 2 discriminator 1 view .LVU696
 2557              		.loc 13 204 2 discriminator 1 view .LVU697
 2558              		.loc 13 204 2 discriminator 1 view .LVU698
 2559 007e FEE7     		b	.L121
 2560              	.L124:
 2561              		.align	2
 2562              	.L123:
 2563 0080 00000000 		.word	.LANCHOR0
 2564 0084 00000000 		.word	_ZN5daisy8patch_sm12DaisyPatchSM2B8E
 2565 0088 00000000 		.word	0
 2566 008c 00000000 		.word	.LANCHOR2
 2567 0090 00000000 		.word	.LANCHOR4
 2568 0094 00000000 		.word	_ZN5daisy8patch_sm12DaisyPatchSM2B7E
 2569 0098 00000000 		.word	.LANCHOR1
 2570 009c 00000000 		.word	rv
 2571 00a0 00000000 		.word	.LANCHOR5
 2572 00a4 00000000 		.word	_Z13AudioCallbackPKPKfPPfj
 2573              		.cfi_endproc
 2574              	.LFE4843:
 2576              		.section	.text.startup._GLOBAL__sub_I_hw,"ax",%progbits
 2577              		.align	1
 2578              		.p2align 2,,3
 2579              		.syntax unified
 2580              		.thumb
 2581              		.thumb_func
 2582              		.fpu fpv5-d16
 2584              	_GLOBAL__sub_I_hw:
 2585              	.LFB5426:
 205:Proliferation.cpp **** 	}
 206:Proliferation.cpp **** }
 2586              		.loc 13 206 1 view -0
 2587              		.cfi_startproc
 2588              		@ args = 0, pretend = 0, frame = 0
 2589              		@ frame_needed = 0, uses_anonymous_args = 0
 2590              	.LBB1178:
 2591              	.LBI1178:
 2592              		.loc 13 206 1 view .LVU700
 2593              	.LVL166:
 2594              	.LBB1179:
 2595              	.LBB1180:
 2596              	.LBI1180:
  64:../../libDaisy//src/daisy_patch_sm.h ****         ~DaisyPatchSM() {}
 2597              		.loc 2 64 9 view .LVU701
 2598              	.LBB1181:
 2599              	.LBB1182:
ARM GAS  C:\Users\daniel\AppData\Local\Temp\cc1VxNgq.s 			page 78


 2600              	.LBI1182:
  77:../../libDaisy//src/sys/system.h ****     ~System() {}
 2601              		.loc 8 77 5 view .LVU702
  77:../../libDaisy//src/sys/system.h ****     ~System() {}
 2602              		.loc 8 77 5 is_stmt 0 view .LVU703
 2603              	.LBE1182:
 2604              	.LBB1183:
 2605              	.LBI1183:
 2606              		.file 16 "../../libDaisy//src/per/qspi.h"
   1:../../libDaisy//src/per/qspi.h **** #ifndef DSY_QSPI
   2:../../libDaisy//src/per/qspi.h **** #define DSY_QSPI /**< Macro */
   3:../../libDaisy//src/per/qspi.h **** 
   4:../../libDaisy//src/per/qspi.h **** #ifndef UNIT_TEST // for unit tests, a dummy implementation
   5:../../libDaisy//src/per/qspi.h **** 
   6:../../libDaisy//src/per/qspi.h **** #include <cstdint>
   7:../../libDaisy//src/per/qspi.h **** #include "daisy_core.h" // Added for dsy_gpio_pin typedef
   8:../../libDaisy//src/per/qspi.h **** 
   9:../../libDaisy//src/per/qspi.h **** #define DSY_QSPI_TEXT       \
  10:../../libDaisy//src/per/qspi.h ****     __attribute__((section( \
  11:../../libDaisy//src/per/qspi.h ****         ".qspiflash_text"))) /**< used for reading memory in memory_mapped mode. */
  12:../../libDaisy//src/per/qspi.h **** #define DSY_QSPI_DATA       \
  13:../../libDaisy//src/per/qspi.h ****     __attribute__((section( \
  14:../../libDaisy//src/per/qspi.h ****         ".qspiflash_data"))) /**< used for reading memory in memory_mapped mode. */
  15:../../libDaisy//src/per/qspi.h **** #define DSY_QSPI_BSS        \
  16:../../libDaisy//src/per/qspi.h ****     __attribute__((section( \
  17:../../libDaisy//src/per/qspi.h ****         ".qspiflash_bss"))) /**< used for reading memory in memory_mapped mode. */
  18:../../libDaisy//src/per/qspi.h **** 
  19:../../libDaisy//src/per/qspi.h **** namespace daisy
  20:../../libDaisy//src/per/qspi.h **** {
  21:../../libDaisy//src/per/qspi.h **** /** @addtogroup serial
  22:../../libDaisy//src/per/qspi.h **** @{
  23:../../libDaisy//src/per/qspi.h **** */
  24:../../libDaisy//src/per/qspi.h **** 
  25:../../libDaisy//src/per/qspi.h **** /** 
  26:../../libDaisy//src/per/qspi.h ****  Driver for QSPI peripheral to interface with external flash memory. \n 
  27:../../libDaisy//src/per/qspi.h ****     Currently supported QSPI Devices: \n 
  28:../../libDaisy//src/per/qspi.h ****     * IS25LP080D
  29:../../libDaisy//src/per/qspi.h **** */
  30:../../libDaisy//src/per/qspi.h **** class QSPIHandle
  31:../../libDaisy//src/per/qspi.h **** {
  32:../../libDaisy//src/per/qspi.h ****   public:
  33:../../libDaisy//src/per/qspi.h ****     enum Result
  34:../../libDaisy//src/per/qspi.h ****     {
  35:../../libDaisy//src/per/qspi.h ****         OK = 0,
  36:../../libDaisy//src/per/qspi.h ****         ERR
  37:../../libDaisy//src/per/qspi.h ****     };
  38:../../libDaisy//src/per/qspi.h **** 
  39:../../libDaisy//src/per/qspi.h ****     /** Indicates the current status of the module. 
  40:../../libDaisy//src/per/qspi.h ****          *  Warnings are indicated by a leading W.
  41:../../libDaisy//src/per/qspi.h ****          *  Errors are indicated by a leading E and cause an immediate exit.
  42:../../libDaisy//src/per/qspi.h ****          * 
  43:../../libDaisy//src/per/qspi.h ****          *  \param GOOD - No errors have been reported.
  44:../../libDaisy//src/per/qspi.h ****          *  \param E_HAL_ERROR - HAL code did not return HAL_OK.
  45:../../libDaisy//src/per/qspi.h ****          *  \param E_SWITCHING_MODES - An error was encountered while switching QSPI peripheral mod
  46:../../libDaisy//src/per/qspi.h ****          *  \param E_INVALID_MODE - QSPI should not be written to while the program is executing fr
  47:../../libDaisy//src/per/qspi.h ****          */
  48:../../libDaisy//src/per/qspi.h ****     enum Status
ARM GAS  C:\Users\daniel\AppData\Local\Temp\cc1VxNgq.s 			page 79


  49:../../libDaisy//src/per/qspi.h ****     {
  50:../../libDaisy//src/per/qspi.h ****         GOOD = 0,
  51:../../libDaisy//src/per/qspi.h ****         E_HAL_ERROR,
  52:../../libDaisy//src/per/qspi.h ****         E_SWITCHING_MODES,
  53:../../libDaisy//src/per/qspi.h ****         E_INVALID_MODE,
  54:../../libDaisy//src/per/qspi.h ****     };
  55:../../libDaisy//src/per/qspi.h **** 
  56:../../libDaisy//src/per/qspi.h ****     /** Configuration structure for interfacing with QSPI Driver */
  57:../../libDaisy//src/per/qspi.h ****     struct Config
  58:../../libDaisy//src/per/qspi.h ****     {
  59:../../libDaisy//src/per/qspi.h ****         /** Flash Devices supported. (Both of these are more-or-less the same, just different sizes
  60:../../libDaisy//src/per/qspi.h ****         enum Device
  61:../../libDaisy//src/per/qspi.h ****         {
  62:../../libDaisy//src/per/qspi.h ****             IS25LP080D,  /**< & */
  63:../../libDaisy//src/per/qspi.h ****             IS25LP064A,  /**< & */
  64:../../libDaisy//src/per/qspi.h ****             DEVICE_LAST, /**< & */
  65:../../libDaisy//src/per/qspi.h ****         };
  66:../../libDaisy//src/per/qspi.h **** 
  67:../../libDaisy//src/per/qspi.h ****         /** 
  68:../../libDaisy//src/per/qspi.h ****         Modes of operation.
  69:../../libDaisy//src/per/qspi.h ****         Memory Mapped mode: QSPI configured so that the QSPI can be
  70:../../libDaisy//src/per/qspi.h ****         read from starting address 0x90000000. Writing is not
  71:../../libDaisy//src/per/qspi.h ****         possible in this mode. \n 
  72:../../libDaisy//src/per/qspi.h ****         Indirect Polling mode: Device driver enabled. 
  73:../../libDaisy//src/per/qspi.h ****         */
  74:../../libDaisy//src/per/qspi.h ****         enum Mode
  75:../../libDaisy//src/per/qspi.h ****         {
  76:../../libDaisy//src/per/qspi.h ****             MEMORY_MAPPED,    /**< & */
  77:../../libDaisy//src/per/qspi.h ****             INDIRECT_POLLING, /**< & */
  78:../../libDaisy//src/per/qspi.h ****             MODE_LAST,
  79:../../libDaisy//src/per/qspi.h ****         };
  80:../../libDaisy//src/per/qspi.h **** 
  81:../../libDaisy//src/per/qspi.h ****         //SCK,  CE# (active low)
  82:../../libDaisy//src/per/qspi.h ****         struct
  83:../../libDaisy//src/per/qspi.h ****         {
  84:../../libDaisy//src/per/qspi.h ****             dsy_gpio_pin io0; /**< & */
  85:../../libDaisy//src/per/qspi.h ****             dsy_gpio_pin io1; /**< & */
  86:../../libDaisy//src/per/qspi.h ****             dsy_gpio_pin io2; /**< & */
  87:../../libDaisy//src/per/qspi.h ****             dsy_gpio_pin io3; /**< & */
  88:../../libDaisy//src/per/qspi.h ****             dsy_gpio_pin clk; /**< & */
  89:../../libDaisy//src/per/qspi.h ****             dsy_gpio_pin ncs; /**< & */
  90:../../libDaisy//src/per/qspi.h ****         } pin_config;
  91:../../libDaisy//src/per/qspi.h **** 
  92:../../libDaisy//src/per/qspi.h ****         Device device;
  93:../../libDaisy//src/per/qspi.h ****         Mode   mode;
  94:../../libDaisy//src/per/qspi.h ****     };
  95:../../libDaisy//src/per/qspi.h **** 
  96:../../libDaisy//src/per/qspi.h ****     /** 
  97:../../libDaisy//src/per/qspi.h ****         Initializes QSPI peripheral, and Resets, and prepares memory for access.
  98:../../libDaisy//src/per/qspi.h ****         \param config should be populated with the mode, device and pin_config before calling this 
  99:../../libDaisy//src/per/qspi.h ****         \return Result::OK or Result::ERR
 100:../../libDaisy//src/per/qspi.h ****         */
 101:../../libDaisy//src/per/qspi.h ****     Result Init(const Config& config);
 102:../../libDaisy//src/per/qspi.h **** 
 103:../../libDaisy//src/per/qspi.h ****     /** Returns the current config. */
 104:../../libDaisy//src/per/qspi.h ****     const Config& GetConfig() const;
 105:../../libDaisy//src/per/qspi.h **** 
ARM GAS  C:\Users\daniel\AppData\Local\Temp\cc1VxNgq.s 			page 80


 106:../../libDaisy//src/per/qspi.h ****     // Couldn't this just be called before anything else in init? That
 107:../../libDaisy//src/per/qspi.h ****     // would make manually calling it unnecessary.
 108:../../libDaisy//src/per/qspi.h ****     /** 
 109:../../libDaisy//src/per/qspi.h ****         Deinitializes the peripheral
 110:../../libDaisy//src/per/qspi.h ****         This should be called before reinitializing QSPI in a different mode.
 111:../../libDaisy//src/per/qspi.h ****         \return Result::OK or Result::ERR
 112:../../libDaisy//src/per/qspi.h ****         */
 113:../../libDaisy//src/per/qspi.h ****     Result DeInit();
 114:../../libDaisy//src/per/qspi.h **** 
 115:../../libDaisy//src/per/qspi.h ****     /** 
 116:../../libDaisy//src/per/qspi.h ****         Writes a single page to to the specified address on the QSPI chip.
 117:../../libDaisy//src/per/qspi.h ****         For IS25LP*, page size is 256 bytes.
 118:../../libDaisy//src/per/qspi.h ****         \param address Address to write to
 119:../../libDaisy//src/per/qspi.h ****         \param size Buffer size
 120:../../libDaisy//src/per/qspi.h ****         \param buffer Buffer to write
 121:../../libDaisy//src/per/qspi.h ****         \return Result::OK or Result::ERR
 122:../../libDaisy//src/per/qspi.h ****         */
 123:../../libDaisy//src/per/qspi.h ****     Result WritePage(uint32_t address, uint32_t size, uint8_t* buffer);
 124:../../libDaisy//src/per/qspi.h **** 
 125:../../libDaisy//src/per/qspi.h ****     /** 
 126:../../libDaisy//src/per/qspi.h ****         Writes data in buffer to to the QSPI. Starting at address to address+size 
 127:../../libDaisy//src/per/qspi.h ****         \param address Address to write to
 128:../../libDaisy//src/per/qspi.h ****         \param size Buffer size
 129:../../libDaisy//src/per/qspi.h ****         \param buffer Buffer to write
 130:../../libDaisy//src/per/qspi.h ****         \return Result::OK or Result::ERR
 131:../../libDaisy//src/per/qspi.h ****         */
 132:../../libDaisy//src/per/qspi.h ****     Result Write(uint32_t address, uint32_t size, uint8_t* buffer);
 133:../../libDaisy//src/per/qspi.h **** 
 134:../../libDaisy//src/per/qspi.h ****     /** 
 135:../../libDaisy//src/per/qspi.h ****         Erases the area specified on the chip.
 136:../../libDaisy//src/per/qspi.h ****         Erasures will happen by 4K, 32K or 64K increments.
 137:../../libDaisy//src/per/qspi.h ****         Smallest erase possible is 4kB at a time. (on IS25LP*)
 138:../../libDaisy//src/per/qspi.h ****         \param start_addr Address to begin erasing from
 139:../../libDaisy//src/per/qspi.h ****         \param end_addr  Address to stop erasing at
 140:../../libDaisy//src/per/qspi.h ****         \return Result::OK or Result::ERR
 141:../../libDaisy//src/per/qspi.h ****         */
 142:../../libDaisy//src/per/qspi.h ****     Result Erase(uint32_t start_addr, uint32_t end_addr);
 143:../../libDaisy//src/per/qspi.h **** 
 144:../../libDaisy//src/per/qspi.h ****     /**  
 145:../../libDaisy//src/per/qspi.h ****          Erases a single sector of the chip.  
 146:../../libDaisy//src/per/qspi.h ****         TODO: Document the size of this function. 
 147:../../libDaisy//src/per/qspi.h ****         \param address Address of sector to erase
 148:../../libDaisy//src/per/qspi.h ****         \return Result::OK or Result::ERR
 149:../../libDaisy//src/per/qspi.h ****         */
 150:../../libDaisy//src/per/qspi.h ****     Result EraseSector(uint32_t address);
 151:../../libDaisy//src/per/qspi.h **** 
 152:../../libDaisy//src/per/qspi.h ****     /** Returns the current class status. Useful for debugging.
 153:../../libDaisy//src/per/qspi.h ****      *  \returns Status
 154:../../libDaisy//src/per/qspi.h ****      */
 155:../../libDaisy//src/per/qspi.h ****     Status GetStatus();
 156:../../libDaisy//src/per/qspi.h **** 
 157:../../libDaisy//src/per/qspi.h ****     /** Returns a pointer to the actual memory used 
 158:../../libDaisy//src/per/qspi.h ****      *  The memory at this address is read-only
 159:../../libDaisy//src/per/qspi.h ****      *  to write to it use the Write function.
 160:../../libDaisy//src/per/qspi.h ****      * 
 161:../../libDaisy//src/per/qspi.h ****      *  \param offset returns the pointer starting this 
 162:../../libDaisy//src/per/qspi.h ****      *                many bytes into the memory
ARM GAS  C:\Users\daniel\AppData\Local\Temp\cc1VxNgq.s 			page 81


 163:../../libDaisy//src/per/qspi.h ****     */
 164:../../libDaisy//src/per/qspi.h ****     void* GetData(uint32_t offset = 0);
 165:../../libDaisy//src/per/qspi.h **** 
 166:../../libDaisy//src/per/qspi.h ****     QSPIHandle() : pimpl_(nullptr) {}
 2607              		.loc 16 166 5 is_stmt 1 view .LVU704
 2608              	.LBE1183:
 2609              	.LBE1181:
 2610              	.LBE1180:
 2611              	.LBE1179:
 2612              	.LBE1178:
 2613              		.loc 13 206 1 is_stmt 0 view .LVU705
 2614 0000 08B5     		push	{r3, lr}
 2615              		.cfi_def_cfa_offset 8
 2616              		.cfi_offset 3, -8
 2617              		.cfi_offset 14, -4
 2618              	.LBB1224:
 2619              	.LBB1220:
 2620              	.LBB1210:
 2621              	.LBB1206:
 2622              	.LBB1186:
 2623              	.LBB1184:
 2624              	.LBB1185:
 2625              		.loc 16 166 34 view .LVU706
 2626 0002 1548     		ldr	r0, .L127
 2627 0004 0023     		movs	r3, #0
 2628              	.LBE1185:
 2629              	.LBE1184:
 2630              	.LBE1186:
 2631              	.LBE1206:
 2632              	.LBE1210:
  10:Proliferation.cpp **** Switch          toggle;
 2633              		.loc 13 10 17 view .LVU707
 2634 0006 154A     		ldr	r2, .L127+4
 2635              	.LBB1211:
 2636              	.LBB1207:
 2637              	.LBB1187:
 2638              	.LBB1188:
 2639              	.LBB1189:
 2640              	.LBB1190:
 2641              	.LBB1191:
 2642              		.file 17 "../../libDaisy//src/per/i2c.h"
   1:../../libDaisy//src/per/i2c.h **** #pragma once
   2:../../libDaisy//src/per/i2c.h **** #include "daisy_core.h"
   3:../../libDaisy//src/per/i2c.h **** 
   4:../../libDaisy//src/per/i2c.h **** namespace daisy
   5:../../libDaisy//src/per/i2c.h **** {
   6:../../libDaisy//src/per/i2c.h **** /** A handle for interacting with an I2C peripheral. This is a dumb
   7:../../libDaisy//src/per/i2c.h ****  *  gateway that internally points to one of the four I2C peripherals
   8:../../libDaisy//src/per/i2c.h ****  *  after it was initialised. It can then be copied and passed around.
   9:../../libDaisy//src/per/i2c.h ****  *  Use an I2CHandle like this:
  10:../../libDaisy//src/per/i2c.h ****  *  
  11:../../libDaisy//src/per/i2c.h ****  *      // setup the configuration
  12:../../libDaisy//src/per/i2c.h ****  *      I2CHandle::Config i2c_conf;
  13:../../libDaisy//src/per/i2c.h ****  *      i2c_conf.periph = I2CHandle::Config::Peripheral::I2C_1;
  14:../../libDaisy//src/per/i2c.h ****  *      i2c_conf.speed  = I2CHandle::Config::Speed::I2C_400KHZ;
  15:../../libDaisy//src/per/i2c.h ****  *      i2c_conf.mode   = I2CHandle::Config::Mode::Master;
  16:../../libDaisy//src/per/i2c.h ****  *      i2c_conf.pin_config.scl  = {DSY_GPIOB, 8};
ARM GAS  C:\Users\daniel\AppData\Local\Temp\cc1VxNgq.s 			page 82


  17:../../libDaisy//src/per/i2c.h ****  *      i2c_conf.pin_config.sda  = {DSY_GPIOB, 9};
  18:../../libDaisy//src/per/i2c.h ****  *      // initialise the peripheral
  19:../../libDaisy//src/per/i2c.h ****  *      I2CHandle i2c;
  20:../../libDaisy//src/per/i2c.h ****  *      i2c.Init(i2c_conf);
  21:../../libDaisy//src/per/i2c.h ****  *      // now i2c points to the corresponding peripheral and can be used.
  22:../../libDaisy//src/per/i2c.h ****  *      i2c.TransmitBlocking( ... );
  23:../../libDaisy//src/per/i2c.h ****  */
  24:../../libDaisy//src/per/i2c.h **** class I2CHandle
  25:../../libDaisy//src/per/i2c.h **** {
  26:../../libDaisy//src/per/i2c.h ****   public:
  27:../../libDaisy//src/per/i2c.h ****     /** Contains settings for initialising an I2C interface. */
  28:../../libDaisy//src/per/i2c.h ****     struct Config
  29:../../libDaisy//src/per/i2c.h ****     {
  30:../../libDaisy//src/per/i2c.h ****         /** Specifies whether the interface will operate in master or slave mode. */
  31:../../libDaisy//src/per/i2c.h ****         enum class Mode
  32:../../libDaisy//src/per/i2c.h ****         {
  33:../../libDaisy//src/per/i2c.h ****             I2C_MASTER,
  34:../../libDaisy//src/per/i2c.h ****             I2C_SLAVE,
  35:../../libDaisy//src/per/i2c.h ****         };
  36:../../libDaisy//src/per/i2c.h **** 
  37:../../libDaisy//src/per/i2c.h ****         /** Specifices the internal peripheral to use (these are mapped to different pins on the ha
  38:../../libDaisy//src/per/i2c.h ****         enum class Peripheral
  39:../../libDaisy//src/per/i2c.h ****         {
  40:../../libDaisy//src/per/i2c.h ****             I2C_1 = 0, /**< & */
  41:../../libDaisy//src/per/i2c.h ****             I2C_2,     /**< & */
  42:../../libDaisy//src/per/i2c.h ****             I2C_3,     /**< & */
  43:../../libDaisy//src/per/i2c.h ****             I2C_4,     /**< & */
  44:../../libDaisy//src/per/i2c.h ****         };
  45:../../libDaisy//src/per/i2c.h **** 
  46:../../libDaisy//src/per/i2c.h ****         /** Rate at which the clock/data will be sent/received. The device being used will have max
  47:../../libDaisy//src/per/i2c.h ****          *  1MHZ Mode is currently 886kHz
  48:../../libDaisy//src/per/i2c.h ****          */
  49:../../libDaisy//src/per/i2c.h ****         enum class Speed
  50:../../libDaisy//src/per/i2c.h ****         {
  51:../../libDaisy//src/per/i2c.h ****             I2C_100KHZ, /**< & */
  52:../../libDaisy//src/per/i2c.h ****             I2C_400KHZ, /**< & */
  53:../../libDaisy//src/per/i2c.h ****             I2C_1MHZ,   /**< & */
  54:../../libDaisy//src/per/i2c.h ****         };
  55:../../libDaisy//src/per/i2c.h **** 
  56:../../libDaisy//src/per/i2c.h ****         Peripheral periph; /**< & */
  57:../../libDaisy//src/per/i2c.h ****         struct
  58:../../libDaisy//src/per/i2c.h ****         {
  59:../../libDaisy//src/per/i2c.h ****             dsy_gpio_pin scl; /**< & */
  60:../../libDaisy//src/per/i2c.h ****             dsy_gpio_pin sda; /**< & */
  61:../../libDaisy//src/per/i2c.h ****         } pin_config;         /**< & */
  62:../../libDaisy//src/per/i2c.h **** 
  63:../../libDaisy//src/per/i2c.h ****         Speed speed; /**< & */
  64:../../libDaisy//src/per/i2c.h ****         Mode  mode;  /**< & */
  65:../../libDaisy//src/per/i2c.h ****         // 0x10 is chosen as a default to avoid conflicts with reserved addresses
  66:../../libDaisy//src/per/i2c.h ****         uint8_t address = 0x10; /**< & */
  67:../../libDaisy//src/per/i2c.h ****     };
  68:../../libDaisy//src/per/i2c.h **** 
  69:../../libDaisy//src/per/i2c.h ****     /** Return values for I2C functions. */
  70:../../libDaisy//src/per/i2c.h ****     enum class Result
  71:../../libDaisy//src/per/i2c.h ****     {
  72:../../libDaisy//src/per/i2c.h ****         OK, /**< & */
  73:../../libDaisy//src/per/i2c.h ****         ERR /**< & */
ARM GAS  C:\Users\daniel\AppData\Local\Temp\cc1VxNgq.s 			page 83


  74:../../libDaisy//src/per/i2c.h ****     };
  75:../../libDaisy//src/per/i2c.h **** 
  76:../../libDaisy//src/per/i2c.h ****     enum class Direction
  77:../../libDaisy//src/per/i2c.h ****     {
  78:../../libDaisy//src/per/i2c.h ****         TRANSMIT, /**< & */
  79:../../libDaisy//src/per/i2c.h ****         RECEIVE,  /**< & */
  80:../../libDaisy//src/per/i2c.h ****     };
  81:../../libDaisy//src/per/i2c.h **** 
  82:../../libDaisy//src/per/i2c.h ****     I2CHandle() : pimpl_(nullptr) {}
 2643              		.loc 17 82 33 view .LVU708
 2644 0008 0362     		str	r3, [r0, #32]
 2645              	.LBE1191:
 2646              	.LBE1190:
 2647              	.LBE1189:
 2648              	.LBE1188:
 2649              	.LBE1187:
 2650              	.LBB1194:
 2651              	.LBB1195:
 2652              	.LBB1196:
 2653              		.file 18 "../../libDaisy//src/per/dac.h"
   1:../../libDaisy//src/per/dac.h **** #pragma once
   2:../../libDaisy//src/per/dac.h **** #ifndef DSY_DAC_H
   3:../../libDaisy//src/per/dac.h **** #define DSY_DAC_H
   4:../../libDaisy//src/per/dac.h **** 
   5:../../libDaisy//src/per/dac.h **** #include "daisy_core.h"
   6:../../libDaisy//src/per/dac.h **** 
   7:../../libDaisy//src/per/dac.h **** namespace daisy
   8:../../libDaisy//src/per/dac.h **** {
   9:../../libDaisy//src/per/dac.h **** /** @brief DAC handle for Built-in DAC Peripheral 
  10:../../libDaisy//src/per/dac.h ****  *  @ingroup per_analog
  11:../../libDaisy//src/per/dac.h ****  ** 
  12:../../libDaisy//src/per/dac.h ****  ** For now only Normal Mode is supported,
  13:../../libDaisy//src/per/dac.h ****  ** Sample and hold mode provides reduced power consumption, but requires a bit more setup.
  14:../../libDaisy//src/per/dac.h ****  **
  15:../../libDaisy//src/per/dac.h ****  ** For now connecting the DAC through other internal peripherals is also not supported.
  16:../../libDaisy//src/per/dac.h ****  **
  17:../../libDaisy//src/per/dac.h ****  ** Since the DAC channels have dedicated pins we don't need to pass in a pin config like with
  18:../../libDaisy//src/per/dac.h ****  ** other modules. However, it is still important to not try to use the DAC pins for anything else.
  19:../../libDaisy//src/per/dac.h ****  ** DAC Channel 1 is on PA4, and DAC Channel 2 is on PA5
  20:../../libDaisy//src/per/dac.h ****  ***/
  21:../../libDaisy//src/per/dac.h **** class DacHandle
  22:../../libDaisy//src/per/dac.h **** {
  23:../../libDaisy//src/per/dac.h ****   public:
  24:../../libDaisy//src/per/dac.h ****     /** Return Values for the DacHandle class */
  25:../../libDaisy//src/per/dac.h ****     enum class Result
  26:../../libDaisy//src/per/dac.h ****     {
  27:../../libDaisy//src/per/dac.h ****         OK,
  28:../../libDaisy//src/per/dac.h ****         ERR,
  29:../../libDaisy//src/per/dac.h ****     };
  30:../../libDaisy//src/per/dac.h **** 
  31:../../libDaisy//src/per/dac.h ****     /** Selects which channel(s) will be configured for use. */
  32:../../libDaisy//src/per/dac.h ****     enum class Channel
  33:../../libDaisy//src/per/dac.h ****     {
  34:../../libDaisy//src/per/dac.h ****         ONE,
  35:../../libDaisy//src/per/dac.h ****         TWO,
  36:../../libDaisy//src/per/dac.h ****         BOTH,
  37:../../libDaisy//src/per/dac.h ****     };
ARM GAS  C:\Users\daniel\AppData\Local\Temp\cc1VxNgq.s 			page 84


  38:../../libDaisy//src/per/dac.h **** 
  39:../../libDaisy//src/per/dac.h ****     /** Sets the Mode for the DAC channels.
  40:../../libDaisy//src/per/dac.h ****      **
  41:../../libDaisy//src/per/dac.h ****      ** Polling mode uses the blocking mode to transmit a single value at a time.
  42:../../libDaisy//src/per/dac.h ****      **
  43:../../libDaisy//src/per/dac.h ****      ** DMA mode uses a buffer, and periodically transmits it triggering a 
  44:../../libDaisy//src/per/dac.h ****      ** callback to fill the buffer when it is ready for more samples.
  45:../../libDaisy//src/per/dac.h ****      ***/
  46:../../libDaisy//src/per/dac.h ****     enum class Mode
  47:../../libDaisy//src/per/dac.h ****     {
  48:../../libDaisy//src/per/dac.h ****         POLLING,
  49:../../libDaisy//src/per/dac.h ****         DMA,
  50:../../libDaisy//src/per/dac.h ****     };
  51:../../libDaisy//src/per/dac.h **** 
  52:../../libDaisy//src/per/dac.h ****     /** Sets the number of bits per sample transmitted out of the DAC.
  53:../../libDaisy//src/per/dac.h ****      ** The output range will be: 0V - VDDA
  54:../../libDaisy//src/per/dac.h ****      ** The resolution will be roughly: bitdepth / (VDDA - 0V) 
  55:../../libDaisy//src/per/dac.h ****      ***/
  56:../../libDaisy//src/per/dac.h ****     enum class BitDepth
  57:../../libDaisy//src/per/dac.h ****     {
  58:../../libDaisy//src/per/dac.h ****         BITS_8,
  59:../../libDaisy//src/per/dac.h ****         BITS_12
  60:../../libDaisy//src/per/dac.h ****     };
  61:../../libDaisy//src/per/dac.h **** 
  62:../../libDaisy//src/per/dac.h ****     /** Sets whether the DAC output is buffered for higher drive ability. */
  63:../../libDaisy//src/per/dac.h ****     enum class BufferState
  64:../../libDaisy//src/per/dac.h ****     {
  65:../../libDaisy//src/per/dac.h ****         ENABLED,
  66:../../libDaisy//src/per/dac.h ****         DISABLED,
  67:../../libDaisy//src/per/dac.h ****     };
  68:../../libDaisy//src/per/dac.h **** 
  69:../../libDaisy//src/per/dac.h ****     /** Configuration structure for initializing the DAC structure. */
  70:../../libDaisy//src/per/dac.h ****     struct Config
  71:../../libDaisy//src/per/dac.h ****     {
  72:../../libDaisy//src/per/dac.h ****         /** Target Samplerate in Hz used to configure the internal 
  73:../../libDaisy//src/per/dac.h ****          ** timebase for DMA mode. Does nothing in POLLING mode.
  74:../../libDaisy//src/per/dac.h ****          ** If the value is 0 at Init time this will default to 48000Hz 
  75:../../libDaisy//src/per/dac.h ****          ** otherwise the driver will attempt meet the target.*/
  76:../../libDaisy//src/per/dac.h ****         uint32_t target_samplerate;
  77:../../libDaisy//src/per/dac.h **** 
  78:../../libDaisy//src/per/dac.h ****         Channel     chn;
  79:../../libDaisy//src/per/dac.h ****         Mode        mode;
  80:../../libDaisy//src/per/dac.h ****         BitDepth    bitdepth;
  81:../../libDaisy//src/per/dac.h ****         BufferState buff_state;
  82:../../libDaisy//src/per/dac.h ****     };
  83:../../libDaisy//src/per/dac.h **** 
  84:../../libDaisy//src/per/dac.h ****     DacHandle() : pimpl_(nullptr) {}
 2654              		.loc 18 84 33 view .LVU709
 2655 000a 8362     		str	r3, [r0, #40]
 2656              	.LBE1196:
 2657              	.LBE1195:
 2658              	.LBE1194:
 2659              	.LBE1207:
 2660              	.LBE1211:
  10:Proliferation.cpp **** Switch          toggle;
 2661              		.loc 13 10 17 view .LVU710
 2662 000c 1449     		ldr	r1, .L127+8
ARM GAS  C:\Users\daniel\AppData\Local\Temp\cc1VxNgq.s 			page 85


 2663              	.LBB1212:
 2664              	.LBB1208:
 2665              	.LBB1197:
 2666              	.LBB1198:
 2667              	.LBB1199:
  95:../../libDaisy//src/hid/audio.h ****     ~AudioHandle() {}
 2668              		.loc 7 95 35 view .LVU711
 2669 000e C0E90333 		strd	r3, r3, [r0, #12]
 2670              	.LVL167:
  95:../../libDaisy//src/hid/audio.h ****     ~AudioHandle() {}
 2671              		.loc 7 95 35 view .LVU712
 2672              	.LBE1199:
 2673              	.LBE1198:
 2674              	.LBE1197:
 2675              	.LBB1200:
 2676              	.LBI1200:
  92:../../libDaisy//src/per/adc.h ****     ~AdcHandle() {}
 2677              		.loc 6 92 5 is_stmt 1 view .LVU713
  92:../../libDaisy//src/per/adc.h ****     ~AdcHandle() {}
 2678              		.loc 6 92 5 is_stmt 0 view .LVU714
 2679              	.LBE1200:
 2680              	.LBB1201:
 2681              	.LBI1201:
  40:../../libDaisy//src/hid/usb.h **** 
 2682              		.loc 5 40 5 is_stmt 1 view .LVU715
  40:../../libDaisy//src/hid/usb.h **** 
 2683              		.loc 5 40 5 is_stmt 0 view .LVU716
 2684              	.LBE1201:
 2685              	.LBB1202:
 2686              	.LBI1187:
  28:../../libDaisy//src/dev/codec_pcm3060.h ****     ~Pcm3060() {}
 2687              		.loc 4 28 5 is_stmt 1 view .LVU717
 2688              	.LBB1193:
 2689              	.LBB1192:
 2690              	.LBI1189:
 2691              		.loc 17 82 5 view .LVU718
 2692              		.loc 17 82 5 is_stmt 0 view .LVU719
 2693              	.LBE1192:
 2694              	.LBE1193:
 2695              	.LBE1202:
 2696              	.LBB1203:
 2697              	.LBI1194:
 2698              		.loc 18 84 5 is_stmt 1 view .LVU720
 2699              		.loc 18 84 5 is_stmt 0 view .LVU721
 2700              	.LBE1203:
 2701              	.LBE1208:
 2702              	.LBE1212:
 2703              	.LBE1220:
 2704              	.LBE1224:
  64:../../libDaisy//src/daisy_patch_sm.h ****         ~DaisyPatchSM() {}
 2705              		.loc 2 64 24 is_stmt 1 view .LVU722
 2706              	.LBB1225:
 2707              	.LBB1221:
 2708              	.LBB1213:
 2709              	.LBB1209:
 2710              	.LBB1204:
 2711              	.LBI1204:
ARM GAS  C:\Users\daniel\AppData\Local\Temp\cc1VxNgq.s 			page 86


  20:../../libDaisy//src/hid/gatein.h ****     /** GateIn~
 2712              		.loc 3 20 5 view .LVU723
  20:../../libDaisy//src/hid/gatein.h ****     /** GateIn~
 2713              		.loc 3 20 5 is_stmt 0 view .LVU724
 2714              	.LBE1204:
 2715              	.LBB1205:
 2716              	.LBI1205:
  20:../../libDaisy//src/hid/gatein.h ****     /** GateIn~
 2717              		.loc 3 20 5 is_stmt 1 view .LVU725
  20:../../libDaisy//src/hid/gatein.h ****     /** GateIn~
 2718              		.loc 3 20 5 is_stmt 0 view .LVU726
 2719              	.LBE1205:
 2720              	.LBE1209:
 2721              	.LBE1213:
  10:Proliferation.cpp **** Switch          toggle;
 2722              		.loc 13 10 17 view .LVU727
 2723 0012 FFF7FEFF 		bl	__aeabi_atexit
 2724              	.LVL168:
 2725              	.LBB1214:
 2726              	.LBI1214:
  41:../../libDaisy//src/hid/switch.h ****     ~Switch() {}
 2727              		.loc 1 41 5 is_stmt 1 view .LVU728
  41:../../libDaisy//src/hid/switch.h ****     ~Switch() {}
 2728              		.loc 1 41 5 is_stmt 0 view .LVU729
 2729              	.LBE1214:
  11:Proliferation.cpp **** Switch          button;
 2730              		.loc 13 11 17 view .LVU730
 2731 0016 1349     		ldr	r1, .L127+12
 2732 0018 104A     		ldr	r2, .L127+4
 2733 001a 1348     		ldr	r0, .L127+16
 2734 001c FFF7FEFF 		bl	__aeabi_atexit
 2735              	.LVL169:
 2736              	.LBB1215:
 2737              	.LBI1215:
  41:../../libDaisy//src/hid/switch.h ****     ~Switch() {}
 2738              		.loc 1 41 5 is_stmt 1 view .LVU731
  41:../../libDaisy//src/hid/switch.h ****     ~Switch() {}
 2739              		.loc 1 41 5 is_stmt 0 view .LVU732
 2740              	.LBE1215:
  12:Proliferation.cpp **** ReverbSc        rv;
 2741              		.loc 13 12 17 view .LVU733
 2742 0020 0E4A     		ldr	r2, .L127+4
 2743 0022 1049     		ldr	r1, .L127+12
 2744 0024 1148     		ldr	r0, .L127+20
 2745 0026 FFF7FEFF 		bl	__aeabi_atexit
 2746              	.LVL170:
 2747              	.LBB1216:
 2748              	.LBI1216:
  40:../../DaisySP//Source/Effects/reverbsc.h ****     ~ReverbSc() {}
 2749              		.loc 11 40 5 is_stmt 1 view .LVU734
  40:../../DaisySP//Source/Effects/reverbsc.h ****     ~ReverbSc() {}
 2750              		.loc 11 40 5 is_stmt 0 view .LVU735
 2751              	.LBE1216:
  13:Proliferation.cpp **** AdEnv           env;
 2752              		.loc 13 13 17 view .LVU736
 2753 002a 0C4A     		ldr	r2, .L127+4
 2754 002c 1049     		ldr	r1, .L127+24
ARM GAS  C:\Users\daniel\AppData\Local\Temp\cc1VxNgq.s 			page 87


 2755 002e 1148     		ldr	r0, .L127+28
 2756 0030 FFF7FEFF 		bl	__aeabi_atexit
 2757              	.LVL171:
 2758              	.LBB1217:
 2759              	.LBI1217:
  34:../../DaisySP//Source/Control/adenv.h ****     ~AdEnv() {}
 2760              		.loc 9 34 5 is_stmt 1 view .LVU737
  34:../../DaisySP//Source/Control/adenv.h ****     ~AdEnv() {}
 2761              		.loc 9 34 5 is_stmt 0 view .LVU738
 2762              	.LBE1217:
  14:Proliferation.cpp **** Overdrive       drive;
 2763              		.loc 13 14 17 view .LVU739
 2764 0034 094A     		ldr	r2, .L127+4
 2765 0036 1049     		ldr	r1, .L127+32
 2766 0038 1048     		ldr	r0, .L127+36
 2767 003a FFF7FEFF 		bl	__aeabi_atexit
 2768              	.LVL172:
 2769              	.LBB1218:
 2770              	.LBI1218:
  23:../../DaisySP//Source/Effects/overdrive.h ****     ~Overdrive() {}
 2771              		.loc 10 23 5 is_stmt 1 view .LVU740
  23:../../DaisySP//Source/Effects/overdrive.h ****     ~Overdrive() {}
 2772              		.loc 10 23 5 is_stmt 0 view .LVU741
 2773              	.LBE1218:
  15:Proliferation.cpp **** 
 2774              		.loc 13 15 17 view .LVU742
 2775 003e 074A     		ldr	r2, .L127+4
 2776 0040 0F49     		ldr	r1, .L127+40
 2777 0042 1048     		ldr	r0, .L127+44
 2778 0044 FFF7FEFF 		bl	__aeabi_atexit
 2779              	.LVL173:
 2780              	.LBB1219:
 2781              	.LBI1219:
  94:c:\programdata\chocolatey\lib\gcc-arm-embedded\tools\gcc-arm-none-eabi-10-2020-q4-major\arm-none-eabi\include\c++\10.2.1\array ****     {
 2782              		.loc 12 94 12 is_stmt 1 view .LVU743
 2783              	.LBE1219:
 2784              	.LBE1221:
 2785              	.LBE1225:
  94:c:\programdata\chocolatey\lib\gcc-arm-embedded\tools\gcc-arm-none-eabi-10-2020-q4-major\arm-none-eabi\include\c++\10.2.1\array ****     {
 2786              		.loc 12 94 12 view .LVU744
 2787              	.LBB1226:
 2788              	.LBB1222:
  24:Proliferation.cpp **** int s = 0;
 2789              		.loc 13 24 66 is_stmt 0 view .LVU745
 2790 0048 044A     		ldr	r2, .L127+4
 2791 004a 0F49     		ldr	r1, .L127+48
 2792 004c 0F48     		ldr	r0, .L127+52
 2793              	.LBE1222:
 2794              	.LBE1226:
 2795              		.loc 13 206 1 view .LVU746
 2796 004e BDE80840 		pop	{r3, lr}
 2797              		.cfi_restore 14
 2798              		.cfi_restore 3
 2799              		.cfi_def_cfa_offset 0
 2800              	.LBB1227:
 2801              	.LBB1223:
  24:Proliferation.cpp **** int s = 0;
ARM GAS  C:\Users\daniel\AppData\Local\Temp\cc1VxNgq.s 			page 88


 2802              		.loc 13 24 66 view .LVU747
 2803 0052 FFF7FEBF 		b	__aeabi_atexit
 2804              	.LVL174:
 2805              	.L128:
 2806 0056 00BF     		.align	2
 2807              	.L127:
 2808 0058 00000000 		.word	.LANCHOR0
 2809 005c 00000000 		.word	__dso_handle
 2810 0060 00000000 		.word	_ZN5daisy8patch_sm12DaisyPatchSMD1Ev
 2811 0064 00000000 		.word	_ZN5daisy6SwitchD1Ev
 2812 0068 00000000 		.word	.LANCHOR2
 2813 006c 00000000 		.word	.LANCHOR1
 2814 0070 00000000 		.word	_ZN7daisysp8ReverbScD1Ev
 2815 0074 00000000 		.word	rv
 2816 0078 00000000 		.word	_ZN7daisysp5AdEnvD1Ev
 2817 007c 00000000 		.word	.LANCHOR4
 2818 0080 00000000 		.word	_ZN7daisysp9OverdriveD1Ev
 2819 0084 00000000 		.word	.LANCHOR5
 2820 0088 00000000 		.word	_ZNSt5arrayI12SampleBufferILj240000EELj8EED1Ev
 2821 008c 00000000 		.word	buffers
 2822              	.LBE1223:
 2823              	.LBE1227:
 2824              		.cfi_endproc
 2825              	.LFE5426:
 2827              		.section	.init_array,"aw",%init_array
 2828              		.align	2
 2829 0000 00000000 		.word	_GLOBAL__sub_I_hw(target1)
 2830              		.global	s
 2831              		.global	buffers
 2832              		.global	drive
 2833              		.global	env
 2834              		.global	rv
 2835              		.global	button
 2836              		.global	toggle
 2837              		.global	hw
 2838              		.section	.bss.button,"aw",%nobits
 2839              		.align	2
 2840              		.set	.LANCHOR1,. + 0
 2843              	button:
 2844 0000 00000000 		.space	16
 2844      00000000 
 2844      00000000 
 2844      00000000 
 2845              		.section	.bss.drive,"aw",%nobits
 2846              		.align	2
 2847              		.set	.LANCHOR5,. + 0
 2850              	drive:
 2851 0000 00000000 		.space	12
 2851      00000000 
 2851      00000000 
 2852              		.section	.bss.env,"aw",%nobits
 2853              		.align	2
 2854              		.set	.LANCHOR4,. + 0
 2857              	env:
 2858 0000 00000000 		.space	56
 2858      00000000 
 2858      00000000 
ARM GAS  C:\Users\daniel\AppData\Local\Temp\cc1VxNgq.s 			page 89


 2858      00000000 
 2858      00000000 
 2859              		.section	.bss.hw,"aw",%nobits
 2860              		.align	2
 2861              		.set	.LANCHOR0,. + 0
 2864              	hw:
 2865 0000 00000000 		.space	464
 2865      00000000 
 2865      00000000 
 2865      00000000 
 2865      00000000 
 2866              		.section	.bss.rv,"aw",%nobits
 2867              		.align	2
 2870              	rv:
 2871 0000 00000000 		.space	396100
 2871      00000000 
 2871      00000000 
 2871      00000000 
 2871      00000000 
 2872              		.section	.bss.s,"aw",%nobits
 2873              		.align	2
 2874              		.set	.LANCHOR3,. + 0
 2877              	s:
 2878 0000 00000000 		.space	4
 2879              		.section	.bss.toggle,"aw",%nobits
 2880              		.align	2
 2881              		.set	.LANCHOR2,. + 0
 2884              	toggle:
 2885 0000 00000000 		.space	16
 2885      00000000 
 2885      00000000 
 2885      00000000 
 2886              		.section	.sdram_bss,"aw"
 2887              		.align	2
 2890              	buffers:
 2891 0000 00000000 		.space	7680128
 2891      00000000 
 2891      00000000 
 2891      00000000 
 2891      00000000 
 2892              		.text
 2893              	.Letext0:
 2894              		.file 19 "c:\\programdata\\chocolatey\\lib\\gcc-arm-embedded\\tools\\gcc-arm-none-eabi-10-2020-q4-
 2895              		.file 20 "c:\\programdata\\chocolatey\\lib\\gcc-arm-embedded\\tools\\gcc-arm-none-eabi-10-2020-q4-
 2896              		.file 21 "c:\\programdata\\chocolatey\\lib\\gcc-arm-embedded\\tools\\gcc-arm-none-eabi-10-2020-q4-
 2897              		.file 22 "c:\\programdata\\chocolatey\\lib\\gcc-arm-embedded\\tools\\gcc-arm-none-eabi-10-2020-q4-
 2898              		.file 23 "c:\\programdata\\chocolatey\\lib\\gcc-arm-embedded\\tools\\gcc-arm-none-eabi-10-2020-q4-
 2899              		.file 24 "c:\\programdata\\chocolatey\\lib\\gcc-arm-embedded\\tools\\gcc-arm-none-eabi-10-2020-q4-
 2900              		.file 25 "c:\\programdata\\chocolatey\\lib\\gcc-arm-embedded\\tools\\gcc-arm-none-eabi-10-2020-q4-
 2901              		.file 26 "c:\\programdata\\chocolatey\\lib\\gcc-arm-embedded\\tools\\gcc-arm-none-eabi-10-2020-q4-
 2902              		.file 27 "c:\\programdata\\chocolatey\\lib\\gcc-arm-embedded\\tools\\gcc-arm-none-eabi-10-2020-q4-
 2903              		.file 28 "c:\\programdata\\chocolatey\\lib\\gcc-arm-embedded\\tools\\gcc-arm-none-eabi-10-2020-q4-
 2904              		.file 29 "c:\\programdata\\chocolatey\\lib\\gcc-arm-embedded\\tools\\gcc-arm-none-eabi-10-2020-q4-
 2905              		.file 30 "c:\\programdata\\chocolatey\\lib\\gcc-arm-embedded\\tools\\gcc-arm-none-eabi-10-2020-q4-
 2906              		.file 31 "c:\\programdata\\chocolatey\\lib\\gcc-arm-embedded\\tools\\gcc-arm-none-eabi-10-2020-q4-
 2907              		.file 32 "c:\\programdata\\chocolatey\\lib\\gcc-arm-embedded\\tools\\gcc-arm-none-eabi-10-2020-q4-
 2908              		.file 33 "c:\\programdata\\chocolatey\\lib\\gcc-arm-embedded\\tools\\gcc-arm-none-eabi-10-2020-q4-
ARM GAS  C:\Users\daniel\AppData\Local\Temp\cc1VxNgq.s 			page 90


 2909              		.file 34 "c:\\programdata\\chocolatey\\lib\\gcc-arm-embedded\\tools\\gcc-arm-none-eabi-10-2020-q4-
 2910              		.file 35 "c:\\programdata\\chocolatey\\lib\\gcc-arm-embedded\\tools\\gcc-arm-none-eabi-10-2020-q4-
 2911              		.file 36 "c:\\programdata\\chocolatey\\lib\\gcc-arm-embedded\\tools\\gcc-arm-none-eabi-10-2020-q4-
 2912              		.file 37 "c:\\programdata\\chocolatey\\lib\\gcc-arm-embedded\\tools\\gcc-arm-none-eabi-10-2020-q4-
 2913              		.file 38 "c:\\programdata\\chocolatey\\lib\\gcc-arm-embedded\\tools\\gcc-arm-none-eabi-10-2020-q4-
 2914              		.file 39 "c:\\programdata\\chocolatey\\lib\\gcc-arm-embedded\\tools\\gcc-arm-none-eabi-10-2020-q4-
 2915              		.file 40 "c:\\programdata\\chocolatey\\lib\\gcc-arm-embedded\\tools\\gcc-arm-none-eabi-10-2020-q4-
 2916              		.file 41 "c:\\programdata\\chocolatey\\lib\\gcc-arm-embedded\\tools\\gcc-arm-none-eabi-10-2020-q4-
 2917              		.file 42 "c:\\programdata\\chocolatey\\lib\\gcc-arm-embedded\\tools\\gcc-arm-none-eabi-10-2020-q4-
 2918              		.file 43 "c:\\programdata\\chocolatey\\lib\\gcc-arm-embedded\\tools\\gcc-arm-none-eabi-10-2020-q4-
 2919              		.file 44 "c:\\programdata\\chocolatey\\lib\\gcc-arm-embedded\\tools\\gcc-arm-none-eabi-10-2020-q4-
 2920              		.file 45 "c:\\programdata\\chocolatey\\lib\\gcc-arm-embedded\\tools\\gcc-arm-none-eabi-10-2020-q4-
 2921              		.file 46 "c:\\programdata\\chocolatey\\lib\\gcc-arm-embedded\\tools\\gcc-arm-none-eabi-10-2020-q4-
 2922              		.file 47 "c:\\programdata\\chocolatey\\lib\\gcc-arm-embedded\\tools\\gcc-arm-none-eabi-10-2020-q4-
 2923              		.file 48 "../../libDaisy//src/daisy_core.h"
 2924              		.file 49 "../../libDaisy//src/per/tim.h"
 2925              		.file 50 "../../libDaisy//src/per/sai.h"
 2926              		.file 51 "../../libDaisy//src/hid/ctrl.h"
 2927              		.file 52 "../../libDaisy//src/util/wav_format.h"
 2928              		.file 53 "../../libDaisy//src/dev/max11300.h"
 2929              		.file 54 "../../libDaisy//src/per/gpio.h"
 2930              		.file 55 "../../libDaisy//src/dev/sdram.h"
 2931              		.file 56 "c:\\programdata\\chocolatey\\lib\\gcc-arm-embedded\\tools\\gcc-arm-none-eabi-10-2020-q4-
 2932              		.file 57 "c:\\programdata\\chocolatey\\lib\\gcc-arm-embedded\\tools\\gcc-arm-none-eabi-10-2020-q4-
 2933              		.file 58 "c:\\programdata\\chocolatey\\lib\\gcc-arm-embedded\\tools\\gcc-arm-none-eabi-10-2020-q4-
 2934              		.file 59 "c:\\programdata\\chocolatey\\lib\\gcc-arm-embedded\\tools\\gcc-arm-none-eabi-10-2020-q4-
 2935              		.file 60 "c:\\programdata\\chocolatey\\lib\\gcc-arm-embedded\\tools\\gcc-arm-none-eabi-10-2020-q4-
 2936              		.file 61 "../../libDaisy//src/dev/sr_595.h"
 2937              		.file 62 "<built-in>"
ARM GAS  C:\Users\daniel\AppData\Local\Temp\cc1VxNgq.s 			page 91


DEFINED SYMBOLS
                            *ABS*:00000000 Proliferation.cpp
C:\Users\daniel\AppData\Local\Temp\cc1VxNgq.s:17     .text._ZN5daisy6SwitchD2Ev:00000000 $t
C:\Users\daniel\AppData\Local\Temp\cc1VxNgq.s:26     .text._ZN5daisy6SwitchD2Ev:00000000 _ZN5daisy6SwitchD2Ev
C:\Users\daniel\AppData\Local\Temp\cc1VxNgq.s:26     .text._ZN5daisy6SwitchD2Ev:00000000 _ZN5daisy6SwitchD1Ev
C:\Users\daniel\AppData\Local\Temp\cc1VxNgq.s:43     .text._ZN5daisy8patch_sm12DaisyPatchSMD2Ev:00000000 $t
C:\Users\daniel\AppData\Local\Temp\cc1VxNgq.s:51     .text._ZN5daisy8patch_sm12DaisyPatchSMD2Ev:00000000 _ZN5daisy8patch_sm12DaisyPatchSMD2Ev
C:\Users\daniel\AppData\Local\Temp\cc1VxNgq.s:51     .text._ZN5daisy8patch_sm12DaisyPatchSMD2Ev:00000000 _ZN5daisy8patch_sm12DaisyPatchSMD1Ev
C:\Users\daniel\AppData\Local\Temp\cc1VxNgq.s:109    .text._ZN7daisysp5AdEnvD2Ev:00000000 $t
C:\Users\daniel\AppData\Local\Temp\cc1VxNgq.s:117    .text._ZN7daisysp5AdEnvD2Ev:00000000 _ZN7daisysp5AdEnvD2Ev
C:\Users\daniel\AppData\Local\Temp\cc1VxNgq.s:117    .text._ZN7daisysp5AdEnvD2Ev:00000000 _ZN7daisysp5AdEnvD1Ev
C:\Users\daniel\AppData\Local\Temp\cc1VxNgq.s:134    .text._ZN7daisysp9OverdriveD2Ev:00000000 $t
C:\Users\daniel\AppData\Local\Temp\cc1VxNgq.s:142    .text._ZN7daisysp9OverdriveD2Ev:00000000 _ZN7daisysp9OverdriveD2Ev
C:\Users\daniel\AppData\Local\Temp\cc1VxNgq.s:142    .text._ZN7daisysp9OverdriveD2Ev:00000000 _ZN7daisysp9OverdriveD1Ev
C:\Users\daniel\AppData\Local\Temp\cc1VxNgq.s:159    .text._ZN7daisysp8ReverbScD2Ev:00000000 $t
C:\Users\daniel\AppData\Local\Temp\cc1VxNgq.s:167    .text._ZN7daisysp8ReverbScD2Ev:00000000 _ZN7daisysp8ReverbScD2Ev
C:\Users\daniel\AppData\Local\Temp\cc1VxNgq.s:167    .text._ZN7daisysp8ReverbScD2Ev:00000000 _ZN7daisysp8ReverbScD1Ev
C:\Users\daniel\AppData\Local\Temp\cc1VxNgq.s:184    .text._ZNSt5arrayI12SampleBufferILj240000EELj8EED2Ev:00000000 $t
C:\Users\daniel\AppData\Local\Temp\cc1VxNgq.s:192    .text._ZNSt5arrayI12SampleBufferILj240000EELj8EED2Ev:00000000 _ZNSt5arrayI12SampleBufferILj240000EELj8EED2Ev
C:\Users\daniel\AppData\Local\Temp\cc1VxNgq.s:192    .text._ZNSt5arrayI12SampleBufferILj240000EELj8EED2Ev:00000000 _ZNSt5arrayI12SampleBufferILj240000EELj8EED1Ev
C:\Users\daniel\AppData\Local\Temp\cc1VxNgq.s:209    .text._Z10getSamplesv:00000000 $t
C:\Users\daniel\AppData\Local\Temp\cc1VxNgq.s:217    .text._Z10getSamplesv:00000000 _Z10getSamplesv
C:\Users\daniel\AppData\Local\Temp\cc1VxNgq.s:597    .text._Z10getSamplesv:000000bc $d
C:\Users\daniel\AppData\Local\Temp\cc1VxNgq.s:605    .text._Z10getSamplesv:000000c4 $t
C:\Users\daniel\AppData\Local\Temp\cc1VxNgq.s:1297   .text._Z10getSamplesv:000002a0 $d
C:\Users\daniel\AppData\Local\Temp\cc1VxNgq.s:2870   .bss.rv:00000000 rv
C:\Users\daniel\AppData\Local\Temp\cc1VxNgq.s:2890   .sdram_bss:00000000 buffers
C:\Users\daniel\AppData\Local\Temp\cc1VxNgq.s:1329   .text._Z10getSamplesv:000002f8 $t
C:\Users\daniel\AppData\Local\Temp\cc1VxNgq.s:1527   .text._Z10getSamplesv:000003ac $d
C:\Users\daniel\AppData\Local\Temp\cc1VxNgq.s:1539   .text._Z13AudioCallbackPKPKfPPfj:00000000 $t
C:\Users\daniel\AppData\Local\Temp\cc1VxNgq.s:1547   .text._Z13AudioCallbackPKPKfPPfj:00000000 _Z13AudioCallbackPKPKfPPfj
C:\Users\daniel\AppData\Local\Temp\cc1VxNgq.s:2303   .text._Z13AudioCallbackPKPKfPPfj:000001d4 $d
C:\Users\daniel\AppData\Local\Temp\cc1VxNgq.s:2319   .text._Z12InitSamplersv:00000000 $t
C:\Users\daniel\AppData\Local\Temp\cc1VxNgq.s:2327   .text._Z12InitSamplersv:00000000 _Z12InitSamplersv
C:\Users\daniel\AppData\Local\Temp\cc1VxNgq.s:2402   .text._Z12InitSamplersv:00000030 $d
C:\Users\daniel\AppData\Local\Temp\cc1VxNgq.s:2409   .text.startup.main:00000000 $t
C:\Users\daniel\AppData\Local\Temp\cc1VxNgq.s:2417   .text.startup.main:00000000 main
C:\Users\daniel\AppData\Local\Temp\cc1VxNgq.s:2563   .text.startup.main:00000080 $d
C:\Users\daniel\AppData\Local\Temp\cc1VxNgq.s:2577   .text.startup._GLOBAL__sub_I_hw:00000000 $t
C:\Users\daniel\AppData\Local\Temp\cc1VxNgq.s:2584   .text.startup._GLOBAL__sub_I_hw:00000000 _GLOBAL__sub_I_hw
C:\Users\daniel\AppData\Local\Temp\cc1VxNgq.s:2808   .text.startup._GLOBAL__sub_I_hw:00000058 $d
C:\Users\daniel\AppData\Local\Temp\cc1VxNgq.s:2828   .init_array:00000000 $d
C:\Users\daniel\AppData\Local\Temp\cc1VxNgq.s:2877   .bss.s:00000000 s
C:\Users\daniel\AppData\Local\Temp\cc1VxNgq.s:2850   .bss.drive:00000000 drive
C:\Users\daniel\AppData\Local\Temp\cc1VxNgq.s:2857   .bss.env:00000000 env
C:\Users\daniel\AppData\Local\Temp\cc1VxNgq.s:2843   .bss.button:00000000 button
C:\Users\daniel\AppData\Local\Temp\cc1VxNgq.s:2884   .bss.toggle:00000000 toggle
C:\Users\daniel\AppData\Local\Temp\cc1VxNgq.s:2864   .bss.hw:00000000 hw
C:\Users\daniel\AppData\Local\Temp\cc1VxNgq.s:2839   .bss.button:00000000 $d
C:\Users\daniel\AppData\Local\Temp\cc1VxNgq.s:2846   .bss.drive:00000000 $d
C:\Users\daniel\AppData\Local\Temp\cc1VxNgq.s:2853   .bss.env:00000000 $d
C:\Users\daniel\AppData\Local\Temp\cc1VxNgq.s:2860   .bss.hw:00000000 $d
C:\Users\daniel\AppData\Local\Temp\cc1VxNgq.s:2867   .bss.rv:00000000 $d
C:\Users\daniel\AppData\Local\Temp\cc1VxNgq.s:2873   .bss.s:00000000 $d
C:\Users\daniel\AppData\Local\Temp\cc1VxNgq.s:2880   .bss.toggle:00000000 $d
C:\Users\daniel\AppData\Local\Temp\cc1VxNgq.s:2887   .sdram_bss:00000000 $d
                           .group:00000000 _ZN5daisy6SwitchD5Ev
ARM GAS  C:\Users\daniel\AppData\Local\Temp\cc1VxNgq.s 			page 92


                           .group:00000000 _ZN5daisy8patch_sm12DaisyPatchSMD5Ev
                           .group:00000000 _ZN7daisysp5AdEnvD5Ev
                           .group:00000000 _ZN7daisysp9OverdriveD5Ev
                           .group:00000000 _ZN7daisysp8ReverbScD5Ev
                           .group:00000000 _ZNSt5arrayI12SampleBufferILj240000EELj8EED5Ev

UNDEFINED SYMBOLS
_ZN5daisy8patch_sm12DaisyPatchSM21ProcessAnalogControlsEv
_ZN5daisy8patch_sm12DaisyPatchSM22ProcessDigitalControlsEv
_ZN5daisy6Switch8DebounceEv
_ZN5daisy8patch_sm12DaisyPatchSM11GetAdcValueEi
powf
rand
_ZN5daisy6GateIn4TrigEv
memset
_ZN7daisysp9Overdrive8SetDriveEf
_ZN7daisysp5AdEnv7ProcessEv
_ZN7daisysp8ReverbSc7ProcessERKfS2_PfS3_
_ZN7daisysp9Overdrive7ProcessEf
_ZN5daisy8patch_sm12DaisyPatchSM4InitEv
_ZN5daisy6Switch4InitE12dsy_gpio_pinf
_ZN5daisy8patch_sm12DaisyPatchSM15AudioSampleRateEv
_ZN7daisysp8ReverbSc4InitEf
_ZN7daisysp5AdEnv4InitEf
_ZN7daisysp9Overdrive4InitEv
_ZN5daisy8patch_sm12DaisyPatchSM17SetAudioBlockSizeEj
_ZN5daisy8patch_sm12DaisyPatchSM18SetAudioSampleRateENS_9SaiHandle6Config10SampleRateE
_ZN5daisy8patch_sm12DaisyPatchSM10StartAudioEPFvPKPKfPPfjE
_ZN5daisy8patch_sm12DaisyPatchSM2B8E
_ZN5daisy8patch_sm12DaisyPatchSM2B7E
__aeabi_atexit
__dso_handle
