ARM GAS  C:\Users\daniel\AppData\Local\Temp\cczs0lix.s 			page 1


   1              		.cpu cortex-m7
   2              		.eabi_attribute 28, 1
   3              		.eabi_attribute 20, 1
   4              		.eabi_attribute 21, 1
   5              		.eabi_attribute 23, 3
   6              		.eabi_attribute 24, 1
   7              		.eabi_attribute 25, 1
   8              		.eabi_attribute 26, 1
   9              		.eabi_attribute 30, 2
  10              		.eabi_attribute 34, 1
  11              		.eabi_attribute 18, 4
  12              		.file	"Proliferation.cpp"
  13              		.text
  14              	.Ltext0:
  15              		.cfi_sections	.debug_frame
  16              		.section	.text._ZN5daisy6SwitchD2Ev,"axG",%progbits,_ZN5daisy6SwitchD5Ev,comdat
  17              		.align	1
  18              		.p2align 2,,3
  19              		.weak	_ZN5daisy6SwitchD2Ev
  20              		.arch armv7e-m
  21              		.syntax unified
  22              		.thumb
  23              		.thumb_func
  24              		.fpu fpv5-d16
  26              	_ZN5daisy6SwitchD2Ev:
  27              	.LVL0:
  28              	.LFB1605:
  29              		.file 1 "../../libDaisy//src/hid/switch.h"
   1:../../libDaisy//src/hid/switch.h **** #pragma once
   2:../../libDaisy//src/hid/switch.h **** #ifndef DSY_SWITCH_H
   3:../../libDaisy//src/hid/switch.h **** #define DSY_SWITCH_H
   4:../../libDaisy//src/hid/switch.h **** #include "daisy_core.h"
   5:../../libDaisy//src/hid/switch.h **** #include "per/gpio.h"
   6:../../libDaisy//src/hid/switch.h **** #include "sys/system.h"
   7:../../libDaisy//src/hid/switch.h **** 
   8:../../libDaisy//src/hid/switch.h **** namespace daisy
   9:../../libDaisy//src/hid/switch.h **** {
  10:../../libDaisy//src/hid/switch.h **** /** 
  11:../../libDaisy//src/hid/switch.h ****     Generic Class for handling momentary/latching switches \n 
  12:../../libDaisy//src/hid/switch.h ****     Inspired/influenced by Mutable Instruments (pichenettes) Switch classes
  13:../../libDaisy//src/hid/switch.h ****     @author Stephen Hensley
  14:../../libDaisy//src/hid/switch.h ****     @date December 2019
  15:../../libDaisy//src/hid/switch.h ****     @ingroup controls
  16:../../libDaisy//src/hid/switch.h **** */
  17:../../libDaisy//src/hid/switch.h **** class Switch
  18:../../libDaisy//src/hid/switch.h **** {
  19:../../libDaisy//src/hid/switch.h ****   public:
  20:../../libDaisy//src/hid/switch.h ****     /** Specifies the expected behavior of the switch */
  21:../../libDaisy//src/hid/switch.h ****     enum Type
  22:../../libDaisy//src/hid/switch.h ****     {
  23:../../libDaisy//src/hid/switch.h ****         TYPE_TOGGLE,    /**< & */
  24:../../libDaisy//src/hid/switch.h ****         TYPE_MOMENTARY, /**< & */
  25:../../libDaisy//src/hid/switch.h ****     };
  26:../../libDaisy//src/hid/switch.h ****     /** Specifies whether the pressed is HIGH or LOW. */
  27:../../libDaisy//src/hid/switch.h ****     enum Polarity
  28:../../libDaisy//src/hid/switch.h ****     {
  29:../../libDaisy//src/hid/switch.h ****         POLARITY_NORMAL,   /**< & */
ARM GAS  C:\Users\daniel\AppData\Local\Temp\cczs0lix.s 			page 2


  30:../../libDaisy//src/hid/switch.h ****         POLARITY_INVERTED, /**< & */
  31:../../libDaisy//src/hid/switch.h ****     };
  32:../../libDaisy//src/hid/switch.h **** 
  33:../../libDaisy//src/hid/switch.h ****     /** Specifies whether to use built-in Pull Up/Down resistors to hold button at a given state wh
  34:../../libDaisy//src/hid/switch.h ****     enum Pull
  35:../../libDaisy//src/hid/switch.h ****     {
  36:../../libDaisy//src/hid/switch.h ****         PULL_UP,   /**< & */
  37:../../libDaisy//src/hid/switch.h ****         PULL_DOWN, /**< & */
  38:../../libDaisy//src/hid/switch.h ****         PULL_NONE, /**< & */
  39:../../libDaisy//src/hid/switch.h ****     };
  40:../../libDaisy//src/hid/switch.h **** 
  41:../../libDaisy//src/hid/switch.h ****     Switch() {}
  42:../../libDaisy//src/hid/switch.h ****     ~Switch() {}
  30              		.loc 1 42 5 view -0
  31              		.cfi_startproc
  32              		@ args = 0, pretend = 0, frame = 0
  33              		@ frame_needed = 0, uses_anonymous_args = 0
  34              		@ link register save eliminated.
  35              		.loc 1 42 16 is_stmt 0 view .LVU1
  36 0000 7047     		bx	lr
  37              		.cfi_endproc
  38              	.LFE1605:
  40              		.weak	_ZN5daisy6SwitchD1Ev
  41              		.thumb_set _ZN5daisy6SwitchD1Ev,_ZN5daisy6SwitchD2Ev
  42 0002 00BF     		.section	.text._ZN5daisy8patch_sm12DaisyPatchSMD2Ev,"axG",%progbits,_ZN5daisy8patch_sm12DaisyPatch
  43              		.align	1
  44              		.p2align 2,,3
  45              		.weak	_ZN5daisy8patch_sm12DaisyPatchSMD2Ev
  46              		.syntax unified
  47              		.thumb
  48              		.thumb_func
  49              		.fpu fpv5-d16
  51              	_ZN5daisy8patch_sm12DaisyPatchSMD2Ev:
  52              	.LVL1:
  53              	.LFB2528:
  54              		.file 2 "../../libDaisy//src/daisy_patch_sm.h"
   1:../../libDaisy//src/daisy_patch_sm.h **** #pragma once
   2:../../libDaisy//src/daisy_patch_sm.h **** 
   3:../../libDaisy//src/daisy_patch_sm.h **** #include "daisy.h"
   4:../../libDaisy//src/daisy_patch_sm.h **** 
   5:../../libDaisy//src/daisy_patch_sm.h **** namespace daisy
   6:../../libDaisy//src/daisy_patch_sm.h **** {
   7:../../libDaisy//src/daisy_patch_sm.h **** namespace patch_sm
   8:../../libDaisy//src/daisy_patch_sm.h **** {
   9:../../libDaisy//src/daisy_patch_sm.h ****     /** Accessors for the Analog Controls. 
  10:../../libDaisy//src/daisy_patch_sm.h ****      *  These cover the 8x Bipolar CV inputs
  11:../../libDaisy//src/daisy_patch_sm.h ****      *  as well as the 4x 0-3V3 ADC inputs on
  12:../../libDaisy//src/daisy_patch_sm.h ****      *  the hardware 
  13:../../libDaisy//src/daisy_patch_sm.h ****      * 
  14:../../libDaisy//src/daisy_patch_sm.h ****      *  When reading a value with DaisyPatchSM::GetAdcValue()
  15:../../libDaisy//src/daisy_patch_sm.h ****      * 
  16:../../libDaisy//src/daisy_patch_sm.h ****      *  patch.GetAdcValue(patch_sm::CV_1);
  17:../../libDaisy//src/daisy_patch_sm.h ****      */
  18:../../libDaisy//src/daisy_patch_sm.h ****     enum
  19:../../libDaisy//src/daisy_patch_sm.h ****     {
  20:../../libDaisy//src/daisy_patch_sm.h ****         CV_1 = 0,
  21:../../libDaisy//src/daisy_patch_sm.h ****         CV_2,
ARM GAS  C:\Users\daniel\AppData\Local\Temp\cczs0lix.s 			page 3


  22:../../libDaisy//src/daisy_patch_sm.h ****         CV_3,
  23:../../libDaisy//src/daisy_patch_sm.h ****         CV_4,
  24:../../libDaisy//src/daisy_patch_sm.h ****         CV_5,
  25:../../libDaisy//src/daisy_patch_sm.h ****         CV_6,
  26:../../libDaisy//src/daisy_patch_sm.h ****         CV_7,
  27:../../libDaisy//src/daisy_patch_sm.h ****         CV_8,
  28:../../libDaisy//src/daisy_patch_sm.h ****         ADC_9,
  29:../../libDaisy//src/daisy_patch_sm.h ****         ADC_10,
  30:../../libDaisy//src/daisy_patch_sm.h ****         ADC_11,
  31:../../libDaisy//src/daisy_patch_sm.h ****         ADC_12,
  32:../../libDaisy//src/daisy_patch_sm.h ****         ADC_LAST,
  33:../../libDaisy//src/daisy_patch_sm.h ****     };
  34:../../libDaisy//src/daisy_patch_sm.h **** 
  35:../../libDaisy//src/daisy_patch_sm.h ****     /** Enum for addressing the CV Outputs via the WriteCvOut function. */
  36:../../libDaisy//src/daisy_patch_sm.h ****     enum
  37:../../libDaisy//src/daisy_patch_sm.h ****     {
  38:../../libDaisy//src/daisy_patch_sm.h ****         CV_OUT_BOTH = 0,
  39:../../libDaisy//src/daisy_patch_sm.h ****         CV_OUT_1,
  40:../../libDaisy//src/daisy_patch_sm.h ****         CV_OUT_2,
  41:../../libDaisy//src/daisy_patch_sm.h ****     };
  42:../../libDaisy//src/daisy_patch_sm.h **** 
  43:../../libDaisy//src/daisy_patch_sm.h **** 
  44:../../libDaisy//src/daisy_patch_sm.h ****     /** @brief Board support file for DaisyPatchSM hardware
  45:../../libDaisy//src/daisy_patch_sm.h ****      *  @author shensley
  46:../../libDaisy//src/daisy_patch_sm.h ****      *  @ingroup boards
  47:../../libDaisy//src/daisy_patch_sm.h ****      * 
  48:../../libDaisy//src/daisy_patch_sm.h ****      *  Daisy Patch SM is a complete Eurorack module DSP engine.
  49:../../libDaisy//src/daisy_patch_sm.h ****      *  Based on the Daisy Seed, with circuits added for 
  50:../../libDaisy//src/daisy_patch_sm.h ****      *  interfacing directly with eurorack modular synthesizers.
  51:../../libDaisy//src/daisy_patch_sm.h ****      */
  52:../../libDaisy//src/daisy_patch_sm.h ****     class DaisyPatchSM
  53:../../libDaisy//src/daisy_patch_sm.h ****     {
  54:../../libDaisy//src/daisy_patch_sm.h ****       public:
  55:../../libDaisy//src/daisy_patch_sm.h ****         /** Helper for mapping pins, and accessing them using the `GetPin` function */
  56:../../libDaisy//src/daisy_patch_sm.h ****         enum class PinBank
  57:../../libDaisy//src/daisy_patch_sm.h ****         {
  58:../../libDaisy//src/daisy_patch_sm.h ****             A,
  59:../../libDaisy//src/daisy_patch_sm.h ****             B,
  60:../../libDaisy//src/daisy_patch_sm.h ****             C,
  61:../../libDaisy//src/daisy_patch_sm.h ****             D
  62:../../libDaisy//src/daisy_patch_sm.h ****         };
  63:../../libDaisy//src/daisy_patch_sm.h **** 
  64:../../libDaisy//src/daisy_patch_sm.h ****         DaisyPatchSM() {}
  65:../../libDaisy//src/daisy_patch_sm.h ****         ~DaisyPatchSM() {}
  55              		.loc 2 65 9 is_stmt 1 view -0
  56              		.cfi_startproc
  57              		@ args = 0, pretend = 0, frame = 0
  58              		@ frame_needed = 0, uses_anonymous_args = 0
  59              		@ link register save eliminated.
  60              	.LBB541:
  61              	.LBI541:
  62              		.file 3 "../../libDaisy//src/hid/gatein.h"
   1:../../libDaisy//src/hid/gatein.h **** #pragma once
   2:../../libDaisy//src/hid/gatein.h **** #ifndef DSY_GATEIN_H
   3:../../libDaisy//src/hid/gatein.h **** #define DSY_GATEIN_H
   4:../../libDaisy//src/hid/gatein.h **** #include "per/gpio.h"
   5:../../libDaisy//src/hid/gatein.h **** 
ARM GAS  C:\Users\daniel\AppData\Local\Temp\cczs0lix.s 			page 4


   6:../../libDaisy//src/hid/gatein.h **** namespace daisy
   7:../../libDaisy//src/hid/gatein.h **** {
   8:../../libDaisy//src/hid/gatein.h **** /**
   9:../../libDaisy//src/hid/gatein.h ****    @brief Generic Class for handling gate inputs through GPIO.
  10:../../libDaisy//src/hid/gatein.h ****    @author Stephen Hensley
  11:../../libDaisy//src/hid/gatein.h ****    @date    March 2020
  12:../../libDaisy//src/hid/gatein.h ****    @ingroup controls
  13:../../libDaisy//src/hid/gatein.h **** */
  14:../../libDaisy//src/hid/gatein.h **** class GateIn
  15:../../libDaisy//src/hid/gatein.h **** {
  16:../../libDaisy//src/hid/gatein.h ****   public:
  17:../../libDaisy//src/hid/gatein.h ****     /** GateIn 
  18:../../libDaisy//src/hid/gatein.h ****     Constructor 
  19:../../libDaisy//src/hid/gatein.h ****     */
  20:../../libDaisy//src/hid/gatein.h ****     GateIn() {}
  21:../../libDaisy//src/hid/gatein.h ****     /** GateIn~
  22:../../libDaisy//src/hid/gatein.h ****     Destructor 
  23:../../libDaisy//src/hid/gatein.h ****     */
  24:../../libDaisy//src/hid/gatein.h ****     ~GateIn() {}
  63              		.loc 3 24 5 view .LVU3
  64              		.loc 3 24 5 is_stmt 0 view .LVU4
  65              	.LBE541:
  66              	.LBB542:
  67              	.LBI542:
  68              		.loc 3 24 5 is_stmt 1 view .LVU5
  69              		.loc 3 24 5 is_stmt 0 view .LVU6
  70              	.LBE542:
  71              	.LBB543:
  72              	.LBI543:
  73              		.file 4 "../../libDaisy//src/dev/codec_pcm3060.h"
   1:../../libDaisy//src/dev/codec_pcm3060.h **** #pragma once
   2:../../libDaisy//src/dev/codec_pcm3060.h **** #ifndef DSY_CODEC_PCM3060_H
   3:../../libDaisy//src/dev/codec_pcm3060.h **** #define DSY_CODEC_PCM3060_H
   4:../../libDaisy//src/dev/codec_pcm3060.h **** #include "per/i2c.h"
   5:../../libDaisy//src/dev/codec_pcm3060.h **** namespace daisy
   6:../../libDaisy//src/dev/codec_pcm3060.h **** {
   7:../../libDaisy//src/dev/codec_pcm3060.h **** /**
   8:../../libDaisy//src/dev/codec_pcm3060.h ****  * @brief Driver for the TI PCM3060 Audio Codec.
   9:../../libDaisy//src/dev/codec_pcm3060.h ****  * @addtogroup codec
  10:../../libDaisy//src/dev/codec_pcm3060.h ****  * 
  11:../../libDaisy//src/dev/codec_pcm3060.h ****  * For now this is a limited interface that uses I2C to communicate with the PCM3060
  12:../../libDaisy//src/dev/codec_pcm3060.h ****  * The device can also be accessed with SPI, which is not yet supported.
  13:../../libDaisy//src/dev/codec_pcm3060.h ****  * 
  14:../../libDaisy//src/dev/codec_pcm3060.h ****  * For now all registers are set to their defaults, and the Init function will 
  15:../../libDaisy//src/dev/codec_pcm3060.h ****  * perform a MRST and SRST before setting the format to 24bit LJ, and disabling 
  16:../../libDaisy//src/dev/codec_pcm3060.h ****  * power save for both the ADC and DAC.
  17:../../libDaisy//src/dev/codec_pcm3060.h ****  *
  18:../../libDaisy//src/dev/codec_pcm3060.h ****  */
  19:../../libDaisy//src/dev/codec_pcm3060.h **** class Pcm3060
  20:../../libDaisy//src/dev/codec_pcm3060.h **** {
  21:../../libDaisy//src/dev/codec_pcm3060.h ****   public:
  22:../../libDaisy//src/dev/codec_pcm3060.h ****     enum class Result
  23:../../libDaisy//src/dev/codec_pcm3060.h ****     {
  24:../../libDaisy//src/dev/codec_pcm3060.h ****         OK,
  25:../../libDaisy//src/dev/codec_pcm3060.h ****         ERR,
  26:../../libDaisy//src/dev/codec_pcm3060.h ****     };
  27:../../libDaisy//src/dev/codec_pcm3060.h **** 
ARM GAS  C:\Users\daniel\AppData\Local\Temp\cczs0lix.s 			page 5


  28:../../libDaisy//src/dev/codec_pcm3060.h ****     Pcm3060() {}
  29:../../libDaisy//src/dev/codec_pcm3060.h ****     ~Pcm3060() {}
  74              		.loc 4 29 5 is_stmt 1 view .LVU7
  75              		.loc 4 29 5 is_stmt 0 view .LVU8
  76              	.LBE543:
  77              	.LBB544:
  78              	.LBI544:
  79              		.file 5 "../../libDaisy//src/hid/usb.h"
   1:../../libDaisy//src/hid/usb.h **** #pragma once
   2:../../libDaisy//src/hid/usb.h **** #ifndef DSY_HID_USB_H
   3:../../libDaisy//src/hid/usb.h **** #define DSY_HID_USB_H
   4:../../libDaisy//src/hid/usb.h **** #include <stdint.h>
   5:../../libDaisy//src/hid/usb.h **** #include <stdlib.h>
   6:../../libDaisy//src/hid/usb.h **** 
   7:../../libDaisy//src/hid/usb.h **** namespace daisy
   8:../../libDaisy//src/hid/usb.h **** /** @addtogroup human_interface
   9:../../libDaisy//src/hid/usb.h ****     @{
  10:../../libDaisy//src/hid/usb.h **** */
  11:../../libDaisy//src/hid/usb.h **** 
  12:../../libDaisy//src/hid/usb.h **** {
  13:../../libDaisy//src/hid/usb.h **** /** 
  14:../../libDaisy//src/hid/usb.h ****     @brief Interface for initializing and using the USB Peripherals on the daisy
  15:../../libDaisy//src/hid/usb.h ****     @author Stephen Hensley
  16:../../libDaisy//src/hid/usb.h ****     @date December 2019
  17:../../libDaisy//src/hid/usb.h **** */
  18:../../libDaisy//src/hid/usb.h **** class UsbHandle
  19:../../libDaisy//src/hid/usb.h **** {
  20:../../libDaisy//src/hid/usb.h ****   public:
  21:../../libDaisy//src/hid/usb.h ****     /** Return values for USBHandle Functions */
  22:../../libDaisy//src/hid/usb.h ****     enum class Result
  23:../../libDaisy//src/hid/usb.h ****     {
  24:../../libDaisy//src/hid/usb.h ****         OK,
  25:../../libDaisy//src/hid/usb.h ****         ERR,
  26:../../libDaisy//src/hid/usb.h ****     };
  27:../../libDaisy//src/hid/usb.h **** 
  28:../../libDaisy//src/hid/usb.h ****     /** Specified which of the two USB Peripherals to initialize. */
  29:../../libDaisy//src/hid/usb.h ****     enum UsbPeriph
  30:../../libDaisy//src/hid/usb.h ****     {
  31:../../libDaisy//src/hid/usb.h ****         FS_INTERNAL, /**< Internal pin */
  32:../../libDaisy//src/hid/usb.h ****         FS_EXTERNAL, /**< FS External D+ pin is Pin 38 (GPIO32). FS External D- pin is Pin 37 (GPIO
  33:../../libDaisy//src/hid/usb.h ****         FS_BOTH,     /**< Both */
  34:../../libDaisy//src/hid/usb.h ****     };
  35:../../libDaisy//src/hid/usb.h **** 
  36:../../libDaisy//src/hid/usb.h **** 
  37:../../libDaisy//src/hid/usb.h ****     /** Function called upon reception of a buffer */
  38:../../libDaisy//src/hid/usb.h ****     typedef void (*ReceiveCallback)(uint8_t* buff, uint32_t* len);
  39:../../libDaisy//src/hid/usb.h **** 
  40:../../libDaisy//src/hid/usb.h ****     UsbHandle() {}
  41:../../libDaisy//src/hid/usb.h **** 
  42:../../libDaisy//src/hid/usb.h ****     ~UsbHandle() {}
  80              		.loc 5 42 5 is_stmt 1 view .LVU9
  81              		.loc 5 42 5 is_stmt 0 view .LVU10
  82              	.LBE544:
  83              	.LBB545:
  84              	.LBI545:
  85              		.file 6 "../../libDaisy//src/per/adc.h"
   1:../../libDaisy//src/per/adc.h **** #pragma once
ARM GAS  C:\Users\daniel\AppData\Local\Temp\cczs0lix.s 			page 6


   2:../../libDaisy//src/per/adc.h **** #ifndef DSY_ADC_H
   3:../../libDaisy//src/per/adc.h **** #define DSY_ADC_H /**< Macro */
   4:../../libDaisy//src/per/adc.h **** #include <stdint.h>
   5:../../libDaisy//src/per/adc.h **** #include <stdlib.h>
   6:../../libDaisy//src/per/adc.h **** #include "daisy_core.h"
   7:../../libDaisy//src/per/adc.h **** #include "per/gpio.h"
   8:../../libDaisy//src/per/adc.h **** 
   9:../../libDaisy//src/per/adc.h **** #define DSY_ADC_MAX_CHANNELS 16 /**< Maximum number of ADC channels */
  10:../../libDaisy//src/per/adc.h **** 
  11:../../libDaisy//src/per/adc.h **** namespace daisy
  12:../../libDaisy//src/per/adc.h **** {
  13:../../libDaisy//src/per/adc.h **** /** @addtogroup per_analog
  14:../../libDaisy//src/per/adc.h ****     @{
  15:../../libDaisy//src/per/adc.h **** */
  16:../../libDaisy//src/per/adc.h **** 
  17:../../libDaisy//src/per/adc.h **** /* While there may not be many configuration options here,
  18:../../libDaisy//src/per/adc.h **** using a struct like this allows us to add more configuration
  19:../../libDaisy//src/per/adc.h **** later without breaking existing functionality.
  20:../../libDaisy//src/per/adc.h **** */
  21:../../libDaisy//src/per/adc.h **** 
  22:../../libDaisy//src/per/adc.h **** /** @brief   Configuration Structure for an ADC Channel 
  23:../../libDaisy//src/per/adc.h ****  *  @details This can be used to configure a a single input, 
  24:../../libDaisy//src/per/adc.h ****  *           or a multiplexed input, allowing up to 8 inputs on 
  25:../../libDaisy//src/per/adc.h ****  *           one channel.
  26:../../libDaisy//src/per/adc.h ****  *  @note    Sharing data lines to multiple muxes _is_ possible, but
  27:../../libDaisy//src/per/adc.h ****  *           each channel sharing data lines must be set to the maximum
  28:../../libDaisy//src/per/adc.h ****  *           number of channels, even if some multiplexers have fewer
  29:../../libDaisy//src/per/adc.h ****  *           inputs connected.
  30:../../libDaisy//src/per/adc.h **** */
  31:../../libDaisy//src/per/adc.h **** struct AdcChannelConfig
  32:../../libDaisy//src/per/adc.h **** {
  33:../../libDaisy//src/per/adc.h ****     /** Which pin to use for multiplexing */
  34:../../libDaisy//src/per/adc.h ****     enum MuxPin
  35:../../libDaisy//src/per/adc.h ****     {
  36:../../libDaisy//src/per/adc.h ****         MUX_SEL_0,    /**< & */
  37:../../libDaisy//src/per/adc.h ****         MUX_SEL_1,    /**< & */
  38:../../libDaisy//src/per/adc.h ****         MUX_SEL_2,    /**< & */
  39:../../libDaisy//src/per/adc.h ****         MUX_SEL_LAST, /**< & */
  40:../../libDaisy//src/per/adc.h ****     };
  41:../../libDaisy//src/per/adc.h **** 
  42:../../libDaisy//src/per/adc.h ****     /** Initializes a single ADC pin as an ADC. 
  43:../../libDaisy//src/per/adc.h ****     \param pin Pin to init.
  44:../../libDaisy//src/per/adc.h ****      */
  45:../../libDaisy//src/per/adc.h ****     void InitSingle(dsy_gpio_pin pin);
  46:../../libDaisy//src/per/adc.h **** 
  47:../../libDaisy//src/per/adc.h ****     /** 
  48:../../libDaisy//src/per/adc.h ****     Initializes a single ADC pin as a Multiplexed ADC.
  49:../../libDaisy//src/per/adc.h ****     Requires a CD405X Multiplexer connected to the pin.
  50:../../libDaisy//src/per/adc.h ****     You only need to supply the mux pins that are required,
  51:../../libDaisy//src/per/adc.h ****     e.g. a 4052 mux would only require mux_0 and mux_1.
  52:../../libDaisy//src/per/adc.h ****     Internal Callbacks handle the pin addressing.
  53:../../libDaisy//src/per/adc.h ****     \param mux_channels must be 1-8
  54:../../libDaisy//src/per/adc.h ****     \param mux_0 First mux pin
  55:../../libDaisy//src/per/adc.h ****     \param mux_1 Second mux pin
  56:../../libDaisy//src/per/adc.h ****     \param mux_2 Third mux pin
  57:../../libDaisy//src/per/adc.h ****     \param adc_pin &
  58:../../libDaisy//src/per/adc.h ****     */
ARM GAS  C:\Users\daniel\AppData\Local\Temp\cczs0lix.s 			page 7


  59:../../libDaisy//src/per/adc.h ****     void InitMux(dsy_gpio_pin adc_pin,
  60:../../libDaisy//src/per/adc.h ****                  size_t       mux_channels,
  61:../../libDaisy//src/per/adc.h ****                  dsy_gpio_pin mux_0,
  62:../../libDaisy//src/per/adc.h ****                  dsy_gpio_pin mux_1 = {DSY_GPIOX, 0},
  63:../../libDaisy//src/per/adc.h ****                  dsy_gpio_pin mux_2 = {DSY_GPIOX, 0});
  64:../../libDaisy//src/per/adc.h **** 
  65:../../libDaisy//src/per/adc.h ****     dsy_gpio pin_;                   /**< & */
  66:../../libDaisy//src/per/adc.h ****     dsy_gpio mux_pin_[MUX_SEL_LAST]; /**< & */
  67:../../libDaisy//src/per/adc.h ****     uint8_t  mux_channels_;          /**< & */
  68:../../libDaisy//src/per/adc.h **** };
  69:../../libDaisy//src/per/adc.h **** 
  70:../../libDaisy//src/per/adc.h **** /**
  71:../../libDaisy//src/per/adc.h ****    @brief Handler for analog to digital conversion
  72:../../libDaisy//src/per/adc.h **** */
  73:../../libDaisy//src/per/adc.h **** class AdcHandle
  74:../../libDaisy//src/per/adc.h **** {
  75:../../libDaisy//src/per/adc.h ****   public:
  76:../../libDaisy//src/per/adc.h ****     /** Supported oversampling amounts */
  77:../../libDaisy//src/per/adc.h ****     enum OverSampling
  78:../../libDaisy//src/per/adc.h ****     {
  79:../../libDaisy//src/per/adc.h ****         OVS_NONE, /**< & */
  80:../../libDaisy//src/per/adc.h ****         OVS_4,    /**< & */
  81:../../libDaisy//src/per/adc.h ****         OVS_8,    /**< & */
  82:../../libDaisy//src/per/adc.h ****         OVS_16,   /**< & */
  83:../../libDaisy//src/per/adc.h ****         OVS_32,   /**< & */
  84:../../libDaisy//src/per/adc.h ****         OVS_64,   /**< & */
  85:../../libDaisy//src/per/adc.h ****         OVS_128,  /**< & */
  86:../../libDaisy//src/per/adc.h ****         OVS_256,  /**< & */
  87:../../libDaisy//src/per/adc.h ****         OVS_512,  /**< & */
  88:../../libDaisy//src/per/adc.h ****         OVS_1024, /**< & */
  89:../../libDaisy//src/per/adc.h ****         OVS_LAST, /**< & */
  90:../../libDaisy//src/per/adc.h ****     };
  91:../../libDaisy//src/per/adc.h **** 
  92:../../libDaisy//src/per/adc.h ****     AdcHandle() {}
  93:../../libDaisy//src/per/adc.h ****     ~AdcHandle() {}
  86              		.loc 6 93 5 is_stmt 1 view .LVU11
  87              		.loc 6 93 5 is_stmt 0 view .LVU12
  88              	.LBE545:
  89              	.LBB546:
  90              	.LBI546:
  91              		.file 7 "../../libDaisy//src/hid/audio.h"
   1:../../libDaisy//src/hid/audio.h **** #ifndef DSY_AUDIO_H
   2:../../libDaisy//src/hid/audio.h **** #define DSY_AUDIO_H /**< & */
   3:../../libDaisy//src/hid/audio.h **** 
   4:../../libDaisy//src/hid/audio.h **** #include "per/sai.h"
   5:../../libDaisy//src/hid/audio.h **** 
   6:../../libDaisy//src/hid/audio.h **** namespace daisy
   7:../../libDaisy//src/hid/audio.h **** {
   8:../../libDaisy//src/hid/audio.h **** /** @brief Audio Engine Handle
   9:../../libDaisy//src/hid/audio.h ****  *  @ingroup audio 
  10:../../libDaisy//src/hid/audio.h ****  *  @details This class allows for higher level access to an audio engine.
  11:../../libDaisy//src/hid/audio.h ****  *           If you're using a SOM like the DaisySeed or DaisyPatchSM (or any 
  12:../../libDaisy//src/hid/audio.h ****  *            board that includes one of those objects) then the intialization
  13:../../libDaisy//src/hid/audio.h ****  *            is already taken  care of.
  14:../../libDaisy//src/hid/audio.h ****  *           If you're setting up your own custom hardware, or need to make changes
  15:../../libDaisy//src/hid/audio.h ****  *           you will have to take the following steps:
  16:../../libDaisy//src/hid/audio.h ****  *             1. Create and Initialize an SaiHandle or two depending on your requirements
ARM GAS  C:\Users\daniel\AppData\Local\Temp\cczs0lix.s 			page 8


  17:../../libDaisy//src/hid/audio.h ****  *             2. Initialize the Audio Handle with the desired settings and the Initialized SaiHand
  18:../../libDaisy//src/hid/audio.h ****  *             3. If the connected codec requires special configuration or initialization, do so
  19:../../libDaisy//src/hid/audio.h ****  *             4. Write a callback method using either the AudioCallback or the InterleavingAudioCa
  20:../../libDaisy//src/hid/audio.h ****  *             5. Start the Audio using one of the StartAudio function
  21:../../libDaisy//src/hid/audio.h ****  */
  22:../../libDaisy//src/hid/audio.h **** class AudioHandle
  23:../../libDaisy//src/hid/audio.h **** {
  24:../../libDaisy//src/hid/audio.h ****   public:
  25:../../libDaisy//src/hid/audio.h ****     /** Manually configurable details about the Audio Engine */
  26:../../libDaisy//src/hid/audio.h ****     /** TODO: Figure out how to get samplerate in here. */
  27:../../libDaisy//src/hid/audio.h ****     struct Config
  28:../../libDaisy//src/hid/audio.h ****     {
  29:../../libDaisy//src/hid/audio.h ****         /** number of samples to process per callback */
  30:../../libDaisy//src/hid/audio.h ****         size_t blocksize;
  31:../../libDaisy//src/hid/audio.h **** 
  32:../../libDaisy//src/hid/audio.h ****         /**< Sample rate of audio */
  33:../../libDaisy//src/hid/audio.h ****         SaiHandle::Config::SampleRate samplerate;
  34:../../libDaisy//src/hid/audio.h **** 
  35:../../libDaisy//src/hid/audio.h ****         /** factor for adjustment before and after callback for hardware that may have extra headro
  36:../../libDaisy//src/hid/audio.h ****         float postgain;
  37:../../libDaisy//src/hid/audio.h **** 
  38:../../libDaisy//src/hid/audio.h ****         /** factor for additional one-sided compensation to audio path for hardware that may
  39:../../libDaisy//src/hid/audio.h ****          *  have unequal input/output ranges
  40:../../libDaisy//src/hid/audio.h ****          */
  41:../../libDaisy//src/hid/audio.h ****         float output_compensation;
  42:../../libDaisy//src/hid/audio.h **** 
  43:../../libDaisy//src/hid/audio.h ****         /** Sets default values for config struct */
  44:../../libDaisy//src/hid/audio.h ****         Config()
  45:../../libDaisy//src/hid/audio.h ****         : blocksize(48),
  46:../../libDaisy//src/hid/audio.h ****           samplerate(SaiHandle::Config::SampleRate::SAI_48KHZ),
  47:../../libDaisy//src/hid/audio.h ****           postgain(1.f),
  48:../../libDaisy//src/hid/audio.h ****           output_compensation(1.f)
  49:../../libDaisy//src/hid/audio.h ****         {
  50:../../libDaisy//src/hid/audio.h ****         }
  51:../../libDaisy//src/hid/audio.h ****     };
  52:../../libDaisy//src/hid/audio.h **** 
  53:../../libDaisy//src/hid/audio.h ****     enum class Result
  54:../../libDaisy//src/hid/audio.h ****     {
  55:../../libDaisy//src/hid/audio.h ****         OK,
  56:../../libDaisy//src/hid/audio.h ****         ERR,
  57:../../libDaisy//src/hid/audio.h ****     };
  58:../../libDaisy//src/hid/audio.h **** 
  59:../../libDaisy//src/hid/audio.h ****     /** Non-Interleaving input buffer
  60:../../libDaisy//src/hid/audio.h ****      * Buffer arranged by float[chn][sample] 
  61:../../libDaisy//src/hid/audio.h ****      * const so that the user can't modify the input
  62:../../libDaisy//src/hid/audio.h ****      */
  63:../../libDaisy//src/hid/audio.h ****     typedef const float* const* InputBuffer;
  64:../../libDaisy//src/hid/audio.h **** 
  65:../../libDaisy//src/hid/audio.h ****     /** Non-Interleaving output buffer
  66:../../libDaisy//src/hid/audio.h ****      * Arranged by float[chn][sample] 
  67:../../libDaisy//src/hid/audio.h ****      */
  68:../../libDaisy//src/hid/audio.h ****     typedef float** OutputBuffer;
  69:../../libDaisy//src/hid/audio.h **** 
  70:../../libDaisy//src/hid/audio.h ****     /** Type for a Non-Interleaving audio callback 
  71:../../libDaisy//src/hid/audio.h ****      * Non-Interleaving audio callbacks in daisy will be of this type
  72:../../libDaisy//src/hid/audio.h ****      */
  73:../../libDaisy//src/hid/audio.h ****     typedef void (*AudioCallback)(InputBuffer  in,
ARM GAS  C:\Users\daniel\AppData\Local\Temp\cczs0lix.s 			page 9


  74:../../libDaisy//src/hid/audio.h ****                                   OutputBuffer out,
  75:../../libDaisy//src/hid/audio.h ****                                   size_t       size);
  76:../../libDaisy//src/hid/audio.h **** 
  77:../../libDaisy//src/hid/audio.h ****     /** Interleaving Input buffer
  78:../../libDaisy//src/hid/audio.h ****      ** audio is prepared as { L0, R0, L1, R1, . . . LN, RN }]
  79:../../libDaisy//src/hid/audio.h ****      ** this is const, as the user shouldn't modify it
  80:../../libDaisy//src/hid/audio.h ****     */
  81:../../libDaisy//src/hid/audio.h ****     typedef const float* InterleavingInputBuffer;
  82:../../libDaisy//src/hid/audio.h **** 
  83:../../libDaisy//src/hid/audio.h ****     /** Interleaving Output buffer 
  84:../../libDaisy//src/hid/audio.h ****      ** audio is prepared as { L0, R0, L1, R1, . . . LN, RN }
  85:../../libDaisy//src/hid/audio.h ****     */
  86:../../libDaisy//src/hid/audio.h ****     typedef float* InterleavingOutputBuffer;
  87:../../libDaisy//src/hid/audio.h **** 
  88:../../libDaisy//src/hid/audio.h ****     /** Interleaving Audio Callback 
  89:../../libDaisy//src/hid/audio.h ****      * Interleaving audio callbacks in daisy must be of this type
  90:../../libDaisy//src/hid/audio.h ****      */
  91:../../libDaisy//src/hid/audio.h ****     typedef void (*InterleavingAudioCallback)(InterleavingInputBuffer  in,
  92:../../libDaisy//src/hid/audio.h ****                                               InterleavingOutputBuffer out,
  93:../../libDaisy//src/hid/audio.h ****                                               size_t                   size);
  94:../../libDaisy//src/hid/audio.h **** 
  95:../../libDaisy//src/hid/audio.h ****     AudioHandle() : pimpl_(nullptr) {}
  96:../../libDaisy//src/hid/audio.h ****     ~AudioHandle() {}
  92              		.loc 7 96 5 is_stmt 1 view .LVU13
  93              		.loc 7 96 5 is_stmt 0 view .LVU14
  94              	.LBE546:
  95              	.LBB547:
  96              	.LBI547:
  97              		.file 8 "../../libDaisy//src/sys/system.h"
   1:../../libDaisy//src/sys/system.h **** #ifndef DSY_SYSTEM_H
   2:../../libDaisy//src/sys/system.h **** #define DSY_SYSTEM_H
   3:../../libDaisy//src/sys/system.h **** 
   4:../../libDaisy//src/sys/system.h **** #ifndef UNIT_TEST // for unit tests, a dummy implementation is provided below
   5:../../libDaisy//src/sys/system.h **** 
   6:../../libDaisy//src/sys/system.h **** #include <cstdint>
   7:../../libDaisy//src/sys/system.h **** #include "per/tim.h"
   8:../../libDaisy//src/sys/system.h **** 
   9:../../libDaisy//src/sys/system.h **** namespace daisy
  10:../../libDaisy//src/sys/system.h **** {
  11:../../libDaisy//src/sys/system.h **** /** A handle for interacting with the Core System. 
  12:../../libDaisy//src/sys/system.h ****  ** This includes the Clock tree, MPU, global DMA initialization,
  13:../../libDaisy//src/sys/system.h ****  ** cache handling, and any other necessary global initiailzation
  14:../../libDaisy//src/sys/system.h ****  **
  15:../../libDaisy//src/sys/system.h ****  ** @author shensley
  16:../../libDaisy//src/sys/system.h ****  ** @ingroup system
  17:../../libDaisy//src/sys/system.h ****  */
  18:../../libDaisy//src/sys/system.h **** class System
  19:../../libDaisy//src/sys/system.h **** {
  20:../../libDaisy//src/sys/system.h ****   public:
  21:../../libDaisy//src/sys/system.h ****     /** Contains settings for initializing the System */
  22:../../libDaisy//src/sys/system.h ****     struct Config
  23:../../libDaisy//src/sys/system.h ****     {
  24:../../libDaisy//src/sys/system.h ****         /** Specifies the system clock frequency that feeds APB/AHB clocks, etc. */
  25:../../libDaisy//src/sys/system.h ****         enum class SysClkFreq
  26:../../libDaisy//src/sys/system.h ****         {
  27:../../libDaisy//src/sys/system.h ****             FREQ_400MHZ,
  28:../../libDaisy//src/sys/system.h ****             FREQ_480MHZ,
ARM GAS  C:\Users\daniel\AppData\Local\Temp\cczs0lix.s 			page 10


  29:../../libDaisy//src/sys/system.h ****         };
  30:../../libDaisy//src/sys/system.h **** 
  31:../../libDaisy//src/sys/system.h ****         /** Method to call on the struct to set to defaults
  32:../../libDaisy//src/sys/system.h ****          ** CPU Freq set to 400MHz
  33:../../libDaisy//src/sys/system.h ****          ** Cache Enabled 
  34:../../libDaisy//src/sys/system.h ****          ** */
  35:../../libDaisy//src/sys/system.h ****         void Defaults()
  36:../../libDaisy//src/sys/system.h ****         {
  37:../../libDaisy//src/sys/system.h ****             cpu_freq    = SysClkFreq::FREQ_400MHZ;
  38:../../libDaisy//src/sys/system.h ****             use_dcache  = true;
  39:../../libDaisy//src/sys/system.h ****             use_icache  = true;
  40:../../libDaisy//src/sys/system.h ****             skip_clocks = false;
  41:../../libDaisy//src/sys/system.h ****         }
  42:../../libDaisy//src/sys/system.h **** 
  43:../../libDaisy//src/sys/system.h ****         /** Method to call on the struct to set to boost mode:
  44:../../libDaisy//src/sys/system.h ****          ** CPU Freq set to 480MHz
  45:../../libDaisy//src/sys/system.h ****          ** Cache Enabled 
  46:../../libDaisy//src/sys/system.h ****          ** */
  47:../../libDaisy//src/sys/system.h ****         void Boost()
  48:../../libDaisy//src/sys/system.h ****         {
  49:../../libDaisy//src/sys/system.h ****             cpu_freq    = SysClkFreq::FREQ_480MHZ;
  50:../../libDaisy//src/sys/system.h ****             use_dcache  = true;
  51:../../libDaisy//src/sys/system.h ****             use_icache  = true;
  52:../../libDaisy//src/sys/system.h ****             skip_clocks = false;
  53:../../libDaisy//src/sys/system.h ****         }
  54:../../libDaisy//src/sys/system.h **** 
  55:../../libDaisy//src/sys/system.h ****         SysClkFreq cpu_freq;
  56:../../libDaisy//src/sys/system.h ****         bool       use_dcache;
  57:../../libDaisy//src/sys/system.h ****         bool       use_icache;
  58:../../libDaisy//src/sys/system.h ****         bool       skip_clocks;
  59:../../libDaisy//src/sys/system.h ****     };
  60:../../libDaisy//src/sys/system.h **** 
  61:../../libDaisy//src/sys/system.h ****     /** Describes the different regions of memory available to the Daisy
  62:../../libDaisy//src/sys/system.h ****      * 
  63:../../libDaisy//src/sys/system.h ****      */
  64:../../libDaisy//src/sys/system.h ****     enum MemoryRegion
  65:../../libDaisy//src/sys/system.h ****     {
  66:../../libDaisy//src/sys/system.h ****         INTERNAL_FLASH = 0,
  67:../../libDaisy//src/sys/system.h ****         ITCMRAM,
  68:../../libDaisy//src/sys/system.h ****         DTCMRAM,
  69:../../libDaisy//src/sys/system.h ****         SRAM_D1,
  70:../../libDaisy//src/sys/system.h ****         SRAM_D2,
  71:../../libDaisy//src/sys/system.h ****         SRAM_D3,
  72:../../libDaisy//src/sys/system.h ****         SDRAM,
  73:../../libDaisy//src/sys/system.h ****         QSPI,
  74:../../libDaisy//src/sys/system.h ****         INVALID_ADDRESS,
  75:../../libDaisy//src/sys/system.h ****     };
  76:../../libDaisy//src/sys/system.h **** 
  77:../../libDaisy//src/sys/system.h ****     System() {}
  78:../../libDaisy//src/sys/system.h ****     ~System() {}
  98              		.loc 8 78 5 is_stmt 1 view .LVU15
  99              		.loc 8 78 5 is_stmt 0 view .LVU16
 100              	.LBE547:
 101              		.loc 2 65 26 view .LVU17
 102 0000 7047     		bx	lr
 103              		.cfi_endproc
 104              	.LFE2528:
ARM GAS  C:\Users\daniel\AppData\Local\Temp\cczs0lix.s 			page 11


 106              		.weak	_ZN5daisy8patch_sm12DaisyPatchSMD1Ev
 107              		.thumb_set _ZN5daisy8patch_sm12DaisyPatchSMD1Ev,_ZN5daisy8patch_sm12DaisyPatchSMD2Ev
 108 0002 00BF     		.section	.text._ZN7daisysp3SvfD2Ev,"axG",%progbits,_ZN7daisysp3SvfD5Ev,comdat
 109              		.align	1
 110              		.p2align 2,,3
 111              		.weak	_ZN7daisysp3SvfD2Ev
 112              		.syntax unified
 113              		.thumb
 114              		.thumb_func
 115              		.fpu fpv5-d16
 117              	_ZN7daisysp3SvfD2Ev:
 118              	.LVL2:
 119              	.LFB4238:
 120              		.file 9 "../../DaisySP//Source/Filters/svf.h"
   1:../../DaisySP//Source/Filters/svf.h **** #pragma once
   2:../../DaisySP//Source/Filters/svf.h **** #ifndef DSY_SVF_H
   3:../../DaisySP//Source/Filters/svf.h **** #define DSY_SVF_H
   4:../../DaisySP//Source/Filters/svf.h **** 
   5:../../DaisySP//Source/Filters/svf.h **** namespace daisysp
   6:../../DaisySP//Source/Filters/svf.h **** {
   7:../../DaisySP//Source/Filters/svf.h **** /**      Double Sampled, Stable State Variable Filter
   8:../../DaisySP//Source/Filters/svf.h **** 
   9:../../DaisySP//Source/Filters/svf.h **** Credit to Andrew Simper from musicdsp.org
  10:../../DaisySP//Source/Filters/svf.h **** 
  11:../../DaisySP//Source/Filters/svf.h **** This is his "State Variable Filter (Double Sampled, Stable)"
  12:../../DaisySP//Source/Filters/svf.h **** 
  13:../../DaisySP//Source/Filters/svf.h **** Additional thanks to Laurent de Soras for stability limit, and 
  14:../../DaisySP//Source/Filters/svf.h **** Stefan Diedrichsen for the correct notch output
  15:../../DaisySP//Source/Filters/svf.h **** 
  16:../../DaisySP//Source/Filters/svf.h **** Ported by: Stephen Hensley
  17:../../DaisySP//Source/Filters/svf.h **** */
  18:../../DaisySP//Source/Filters/svf.h **** class Svf
  19:../../DaisySP//Source/Filters/svf.h **** {
  20:../../DaisySP//Source/Filters/svf.h ****   public:
  21:../../DaisySP//Source/Filters/svf.h ****     Svf() {}
  22:../../DaisySP//Source/Filters/svf.h ****     ~Svf() {}
 121              		.loc 9 22 5 is_stmt 1 view -0
 122              		.cfi_startproc
 123              		@ args = 0, pretend = 0, frame = 0
 124              		@ frame_needed = 0, uses_anonymous_args = 0
 125              		@ link register save eliminated.
 126              		.loc 9 22 13 is_stmt 0 view .LVU19
 127 0000 7047     		bx	lr
 128              		.cfi_endproc
 129              	.LFE4238:
 131              		.weak	_ZN7daisysp3SvfD1Ev
 132              		.thumb_set _ZN7daisysp3SvfD1Ev,_ZN7daisysp3SvfD2Ev
 133              		.section	.text._ZN7daisysp8ReverbScD2Ev,"axG",%progbits,_ZN7daisysp8ReverbScD5Ev,comdat
 134              		.align	1
 135              		.p2align 2,,3
 136              		.weak	_ZN7daisysp8ReverbScD2Ev
 137              		.syntax unified
 138              		.thumb
 139              		.thumb_func
 140              		.fpu fpv5-d16
 142              	_ZN7daisysp8ReverbScD2Ev:
 143              	.LVL3:
ARM GAS  C:\Users\daniel\AppData\Local\Temp\cczs0lix.s 			page 12


 144              	.LFB4425:
 145              		.file 10 "../../DaisySP//Source/Effects/reverbsc.h"
   1:../../DaisySP//Source/Effects/reverbsc.h **** #pragma once
   2:../../DaisySP//Source/Effects/reverbsc.h **** #ifndef DSYSP_REVERBSC_H
   3:../../DaisySP//Source/Effects/reverbsc.h **** #define DSYSP_REVERBSC_H
   4:../../DaisySP//Source/Effects/reverbsc.h **** 
   5:../../DaisySP//Source/Effects/reverbsc.h **** #define DSY_REVERBSC_MAX_SIZE 98936
   6:../../DaisySP//Source/Effects/reverbsc.h **** 
   7:../../DaisySP//Source/Effects/reverbsc.h **** namespace daisysp
   8:../../DaisySP//Source/Effects/reverbsc.h **** {
   9:../../DaisySP//Source/Effects/reverbsc.h **** /**Delay line for internal reverb use
  10:../../DaisySP//Source/Effects/reverbsc.h **** */
  11:../../DaisySP//Source/Effects/reverbsc.h **** typedef struct
  12:../../DaisySP//Source/Effects/reverbsc.h **** {
  13:../../DaisySP//Source/Effects/reverbsc.h ****     int    write_pos;         /**< write position */
  14:../../DaisySP//Source/Effects/reverbsc.h ****     int    buffer_size;       /**< buffer size */
  15:../../DaisySP//Source/Effects/reverbsc.h ****     int    read_pos;          /**< read position */
  16:../../DaisySP//Source/Effects/reverbsc.h ****     int    read_pos_frac;     /**< fractional component of read pos */
  17:../../DaisySP//Source/Effects/reverbsc.h ****     int    read_pos_frac_inc; /**< increment for fractional */
  18:../../DaisySP//Source/Effects/reverbsc.h ****     int    dummy;             /**<  dummy var */
  19:../../DaisySP//Source/Effects/reverbsc.h ****     int    seed_val;          /**< randseed */
  20:../../DaisySP//Source/Effects/reverbsc.h ****     int    rand_line_cnt;     /**< number of random lines */
  21:../../DaisySP//Source/Effects/reverbsc.h ****     float  filter_state;      /**< state of filter */
  22:../../DaisySP//Source/Effects/reverbsc.h ****     float *buf;               /**< buffer ptr */
  23:../../DaisySP//Source/Effects/reverbsc.h **** } ReverbScDl;
  24:../../DaisySP//Source/Effects/reverbsc.h **** 
  25:../../DaisySP//Source/Effects/reverbsc.h **** /** Stereo Reverb
  26:../../DaisySP//Source/Effects/reverbsc.h **** 
  27:../../DaisySP//Source/Effects/reverbsc.h **** Reverb SC:               Ported from csound/soundpipe
  28:../../DaisySP//Source/Effects/reverbsc.h **** 
  29:../../DaisySP//Source/Effects/reverbsc.h **** Original author(s):        Sean Costello, Istvan Varga
  30:../../DaisySP//Source/Effects/reverbsc.h **** 
  31:../../DaisySP//Source/Effects/reverbsc.h **** Year:                    1999, 2005
  32:../../DaisySP//Source/Effects/reverbsc.h **** 
  33:../../DaisySP//Source/Effects/reverbsc.h **** Ported to soundpipe by:  Paul Batchelor
  34:../../DaisySP//Source/Effects/reverbsc.h **** 
  35:../../DaisySP//Source/Effects/reverbsc.h **** Ported by:                Stephen Hensley
  36:../../DaisySP//Source/Effects/reverbsc.h **** */
  37:../../DaisySP//Source/Effects/reverbsc.h **** class ReverbSc
  38:../../DaisySP//Source/Effects/reverbsc.h **** {
  39:../../DaisySP//Source/Effects/reverbsc.h ****   public:
  40:../../DaisySP//Source/Effects/reverbsc.h ****     ReverbSc() {}
  41:../../DaisySP//Source/Effects/reverbsc.h ****     ~ReverbSc() {}
 146              		.loc 10 41 5 is_stmt 1 view -0
 147              		.cfi_startproc
 148              		@ args = 0, pretend = 0, frame = 0
 149              		@ frame_needed = 0, uses_anonymous_args = 0
 150              		@ link register save eliminated.
 151              		.loc 10 41 18 is_stmt 0 view .LVU21
 152 0000 7047     		bx	lr
 153              		.cfi_endproc
 154              	.LFE4425:
 156              		.weak	_ZN7daisysp8ReverbScD1Ev
 157              		.thumb_set _ZN7daisysp8ReverbScD1Ev,_ZN7daisysp8ReverbScD2Ev
 158              		.section	.text._ZNSt5arrayI12SampleBufferILj240000EELj8EED2Ev,"axG",%progbits,_ZNSt5arrayI12Sample
 159              		.align	1
 160              		.p2align 2,,3
ARM GAS  C:\Users\daniel\AppData\Local\Temp\cczs0lix.s 			page 13


 161              		.weak	_ZNSt5arrayI12SampleBufferILj240000EELj8EED2Ev
 162              		.syntax unified
 163              		.thumb
 164              		.thumb_func
 165              		.fpu fpv5-d16
 167              	_ZNSt5arrayI12SampleBufferILj240000EELj8EED2Ev:
 168              	.LVL4:
 169              	.LFB5427:
 170              		.file 11 "c:\\programdata\\chocolatey\\lib\\gcc-arm-embedded\\tools\\gcc-arm-none-eabi-10-2020-q4-
   1:c:\programdata\chocolatey\lib\gcc-arm-embedded\tools\gcc-arm-none-eabi-10-2020-q4-major\arm-none-eabi\include\c++\10.2.1\array **** // <array> -*- C++ -*-
   2:c:\programdata\chocolatey\lib\gcc-arm-embedded\tools\gcc-arm-none-eabi-10-2020-q4-major\arm-none-eabi\include\c++\10.2.1\array **** 
   3:c:\programdata\chocolatey\lib\gcc-arm-embedded\tools\gcc-arm-none-eabi-10-2020-q4-major\arm-none-eabi\include\c++\10.2.1\array **** // Copyright (C) 2007-2020 Free Software Foundation, Inc.
   4:c:\programdata\chocolatey\lib\gcc-arm-embedded\tools\gcc-arm-none-eabi-10-2020-q4-major\arm-none-eabi\include\c++\10.2.1\array **** //
   5:c:\programdata\chocolatey\lib\gcc-arm-embedded\tools\gcc-arm-none-eabi-10-2020-q4-major\arm-none-eabi\include\c++\10.2.1\array **** // This file is part of the GNU ISO C++ Library.  This library is free
   6:c:\programdata\chocolatey\lib\gcc-arm-embedded\tools\gcc-arm-none-eabi-10-2020-q4-major\arm-none-eabi\include\c++\10.2.1\array **** // software; you can redistribute it and/or modify it under the
   7:c:\programdata\chocolatey\lib\gcc-arm-embedded\tools\gcc-arm-none-eabi-10-2020-q4-major\arm-none-eabi\include\c++\10.2.1\array **** // terms of the GNU General Public License as published by the
   8:c:\programdata\chocolatey\lib\gcc-arm-embedded\tools\gcc-arm-none-eabi-10-2020-q4-major\arm-none-eabi\include\c++\10.2.1\array **** // Free Software Foundation; either version 3, or (at your option)
   9:c:\programdata\chocolatey\lib\gcc-arm-embedded\tools\gcc-arm-none-eabi-10-2020-q4-major\arm-none-eabi\include\c++\10.2.1\array **** // any later version.
  10:c:\programdata\chocolatey\lib\gcc-arm-embedded\tools\gcc-arm-none-eabi-10-2020-q4-major\arm-none-eabi\include\c++\10.2.1\array **** 
  11:c:\programdata\chocolatey\lib\gcc-arm-embedded\tools\gcc-arm-none-eabi-10-2020-q4-major\arm-none-eabi\include\c++\10.2.1\array **** // This library is distributed in the hope that it will be useful,
  12:c:\programdata\chocolatey\lib\gcc-arm-embedded\tools\gcc-arm-none-eabi-10-2020-q4-major\arm-none-eabi\include\c++\10.2.1\array **** // but WITHOUT ANY WARRANTY; without even the implied warranty of
  13:c:\programdata\chocolatey\lib\gcc-arm-embedded\tools\gcc-arm-none-eabi-10-2020-q4-major\arm-none-eabi\include\c++\10.2.1\array **** // MERCHANTABILITY or FITNESS FOR A PARTICULAR PURPOSE.  See the
  14:c:\programdata\chocolatey\lib\gcc-arm-embedded\tools\gcc-arm-none-eabi-10-2020-q4-major\arm-none-eabi\include\c++\10.2.1\array **** // GNU General Public License for more details.
  15:c:\programdata\chocolatey\lib\gcc-arm-embedded\tools\gcc-arm-none-eabi-10-2020-q4-major\arm-none-eabi\include\c++\10.2.1\array **** 
  16:c:\programdata\chocolatey\lib\gcc-arm-embedded\tools\gcc-arm-none-eabi-10-2020-q4-major\arm-none-eabi\include\c++\10.2.1\array **** // Under Section 7 of GPL version 3, you are granted additional
  17:c:\programdata\chocolatey\lib\gcc-arm-embedded\tools\gcc-arm-none-eabi-10-2020-q4-major\arm-none-eabi\include\c++\10.2.1\array **** // permissions described in the GCC Runtime Library Exception, version
  18:c:\programdata\chocolatey\lib\gcc-arm-embedded\tools\gcc-arm-none-eabi-10-2020-q4-major\arm-none-eabi\include\c++\10.2.1\array **** // 3.1, as published by the Free Software Foundation.
  19:c:\programdata\chocolatey\lib\gcc-arm-embedded\tools\gcc-arm-none-eabi-10-2020-q4-major\arm-none-eabi\include\c++\10.2.1\array **** 
  20:c:\programdata\chocolatey\lib\gcc-arm-embedded\tools\gcc-arm-none-eabi-10-2020-q4-major\arm-none-eabi\include\c++\10.2.1\array **** // You should have received a copy of the GNU General Public License and
  21:c:\programdata\chocolatey\lib\gcc-arm-embedded\tools\gcc-arm-none-eabi-10-2020-q4-major\arm-none-eabi\include\c++\10.2.1\array **** // a copy of the GCC Runtime Library Exception along with this program;
  22:c:\programdata\chocolatey\lib\gcc-arm-embedded\tools\gcc-arm-none-eabi-10-2020-q4-major\arm-none-eabi\include\c++\10.2.1\array **** // see the files COPYING3 and COPYING.RUNTIME respectively.  If not, see
  23:c:\programdata\chocolatey\lib\gcc-arm-embedded\tools\gcc-arm-none-eabi-10-2020-q4-major\arm-none-eabi\include\c++\10.2.1\array **** // <http://www.gnu.org/licenses/>.
  24:c:\programdata\chocolatey\lib\gcc-arm-embedded\tools\gcc-arm-none-eabi-10-2020-q4-major\arm-none-eabi\include\c++\10.2.1\array **** 
  25:c:\programdata\chocolatey\lib\gcc-arm-embedded\tools\gcc-arm-none-eabi-10-2020-q4-major\arm-none-eabi\include\c++\10.2.1\array **** /** @file include/array
  26:c:\programdata\chocolatey\lib\gcc-arm-embedded\tools\gcc-arm-none-eabi-10-2020-q4-major\arm-none-eabi\include\c++\10.2.1\array ****  *  This is a Standard C++ Library header.
  27:c:\programdata\chocolatey\lib\gcc-arm-embedded\tools\gcc-arm-none-eabi-10-2020-q4-major\arm-none-eabi\include\c++\10.2.1\array ****  */
  28:c:\programdata\chocolatey\lib\gcc-arm-embedded\tools\gcc-arm-none-eabi-10-2020-q4-major\arm-none-eabi\include\c++\10.2.1\array **** 
  29:c:\programdata\chocolatey\lib\gcc-arm-embedded\tools\gcc-arm-none-eabi-10-2020-q4-major\arm-none-eabi\include\c++\10.2.1\array **** #ifndef _GLIBCXX_ARRAY
  30:c:\programdata\chocolatey\lib\gcc-arm-embedded\tools\gcc-arm-none-eabi-10-2020-q4-major\arm-none-eabi\include\c++\10.2.1\array **** #define _GLIBCXX_ARRAY 1
  31:c:\programdata\chocolatey\lib\gcc-arm-embedded\tools\gcc-arm-none-eabi-10-2020-q4-major\arm-none-eabi\include\c++\10.2.1\array **** 
  32:c:\programdata\chocolatey\lib\gcc-arm-embedded\tools\gcc-arm-none-eabi-10-2020-q4-major\arm-none-eabi\include\c++\10.2.1\array **** #pragma GCC system_header
  33:c:\programdata\chocolatey\lib\gcc-arm-embedded\tools\gcc-arm-none-eabi-10-2020-q4-major\arm-none-eabi\include\c++\10.2.1\array **** 
  34:c:\programdata\chocolatey\lib\gcc-arm-embedded\tools\gcc-arm-none-eabi-10-2020-q4-major\arm-none-eabi\include\c++\10.2.1\array **** #if __cplusplus < 201103L
  35:c:\programdata\chocolatey\lib\gcc-arm-embedded\tools\gcc-arm-none-eabi-10-2020-q4-major\arm-none-eabi\include\c++\10.2.1\array **** # include <bits/c++0x_warning.h>
  36:c:\programdata\chocolatey\lib\gcc-arm-embedded\tools\gcc-arm-none-eabi-10-2020-q4-major\arm-none-eabi\include\c++\10.2.1\array **** #else
  37:c:\programdata\chocolatey\lib\gcc-arm-embedded\tools\gcc-arm-none-eabi-10-2020-q4-major\arm-none-eabi\include\c++\10.2.1\array **** 
  38:c:\programdata\chocolatey\lib\gcc-arm-embedded\tools\gcc-arm-none-eabi-10-2020-q4-major\arm-none-eabi\include\c++\10.2.1\array **** #include <utility>
  39:c:\programdata\chocolatey\lib\gcc-arm-embedded\tools\gcc-arm-none-eabi-10-2020-q4-major\arm-none-eabi\include\c++\10.2.1\array **** #include <bits/functexcept.h>
  40:c:\programdata\chocolatey\lib\gcc-arm-embedded\tools\gcc-arm-none-eabi-10-2020-q4-major\arm-none-eabi\include\c++\10.2.1\array **** #include <bits/stl_algobase.h>
  41:c:\programdata\chocolatey\lib\gcc-arm-embedded\tools\gcc-arm-none-eabi-10-2020-q4-major\arm-none-eabi\include\c++\10.2.1\array **** #include <bits/range_access.h>
  42:c:\programdata\chocolatey\lib\gcc-arm-embedded\tools\gcc-arm-none-eabi-10-2020-q4-major\arm-none-eabi\include\c++\10.2.1\array **** 
  43:c:\programdata\chocolatey\lib\gcc-arm-embedded\tools\gcc-arm-none-eabi-10-2020-q4-major\arm-none-eabi\include\c++\10.2.1\array **** namespace std _GLIBCXX_VISIBILITY(default)
  44:c:\programdata\chocolatey\lib\gcc-arm-embedded\tools\gcc-arm-none-eabi-10-2020-q4-major\arm-none-eabi\include\c++\10.2.1\array **** {
  45:c:\programdata\chocolatey\lib\gcc-arm-embedded\tools\gcc-arm-none-eabi-10-2020-q4-major\arm-none-eabi\include\c++\10.2.1\array **** _GLIBCXX_BEGIN_NAMESPACE_CONTAINER
  46:c:\programdata\chocolatey\lib\gcc-arm-embedded\tools\gcc-arm-none-eabi-10-2020-q4-major\arm-none-eabi\include\c++\10.2.1\array **** 
  47:c:\programdata\chocolatey\lib\gcc-arm-embedded\tools\gcc-arm-none-eabi-10-2020-q4-major\arm-none-eabi\include\c++\10.2.1\array ****   template<typename _Tp, std::size_t _Nm>
  48:c:\programdata\chocolatey\lib\gcc-arm-embedded\tools\gcc-arm-none-eabi-10-2020-q4-major\arm-none-eabi\include\c++\10.2.1\array ****     struct __array_traits
ARM GAS  C:\Users\daniel\AppData\Local\Temp\cczs0lix.s 			page 14


  49:c:\programdata\chocolatey\lib\gcc-arm-embedded\tools\gcc-arm-none-eabi-10-2020-q4-major\arm-none-eabi\include\c++\10.2.1\array ****     {
  50:c:\programdata\chocolatey\lib\gcc-arm-embedded\tools\gcc-arm-none-eabi-10-2020-q4-major\arm-none-eabi\include\c++\10.2.1\array ****       typedef _Tp _Type[_Nm];
  51:c:\programdata\chocolatey\lib\gcc-arm-embedded\tools\gcc-arm-none-eabi-10-2020-q4-major\arm-none-eabi\include\c++\10.2.1\array ****       typedef __is_swappable<_Tp> _Is_swappable;
  52:c:\programdata\chocolatey\lib\gcc-arm-embedded\tools\gcc-arm-none-eabi-10-2020-q4-major\arm-none-eabi\include\c++\10.2.1\array ****       typedef __is_nothrow_swappable<_Tp> _Is_nothrow_swappable;
  53:c:\programdata\chocolatey\lib\gcc-arm-embedded\tools\gcc-arm-none-eabi-10-2020-q4-major\arm-none-eabi\include\c++\10.2.1\array **** 
  54:c:\programdata\chocolatey\lib\gcc-arm-embedded\tools\gcc-arm-none-eabi-10-2020-q4-major\arm-none-eabi\include\c++\10.2.1\array ****       static constexpr _Tp&
  55:c:\programdata\chocolatey\lib\gcc-arm-embedded\tools\gcc-arm-none-eabi-10-2020-q4-major\arm-none-eabi\include\c++\10.2.1\array ****       _S_ref(const _Type& __t, std::size_t __n) noexcept
  56:c:\programdata\chocolatey\lib\gcc-arm-embedded\tools\gcc-arm-none-eabi-10-2020-q4-major\arm-none-eabi\include\c++\10.2.1\array ****       { return const_cast<_Tp&>(__t[__n]); }
  57:c:\programdata\chocolatey\lib\gcc-arm-embedded\tools\gcc-arm-none-eabi-10-2020-q4-major\arm-none-eabi\include\c++\10.2.1\array **** 
  58:c:\programdata\chocolatey\lib\gcc-arm-embedded\tools\gcc-arm-none-eabi-10-2020-q4-major\arm-none-eabi\include\c++\10.2.1\array ****       static constexpr _Tp*
  59:c:\programdata\chocolatey\lib\gcc-arm-embedded\tools\gcc-arm-none-eabi-10-2020-q4-major\arm-none-eabi\include\c++\10.2.1\array ****       _S_ptr(const _Type& __t) noexcept
  60:c:\programdata\chocolatey\lib\gcc-arm-embedded\tools\gcc-arm-none-eabi-10-2020-q4-major\arm-none-eabi\include\c++\10.2.1\array ****       { return const_cast<_Tp*>(__t); }
  61:c:\programdata\chocolatey\lib\gcc-arm-embedded\tools\gcc-arm-none-eabi-10-2020-q4-major\arm-none-eabi\include\c++\10.2.1\array ****     };
  62:c:\programdata\chocolatey\lib\gcc-arm-embedded\tools\gcc-arm-none-eabi-10-2020-q4-major\arm-none-eabi\include\c++\10.2.1\array **** 
  63:c:\programdata\chocolatey\lib\gcc-arm-embedded\tools\gcc-arm-none-eabi-10-2020-q4-major\arm-none-eabi\include\c++\10.2.1\array ****  template<typename _Tp>
  64:c:\programdata\chocolatey\lib\gcc-arm-embedded\tools\gcc-arm-none-eabi-10-2020-q4-major\arm-none-eabi\include\c++\10.2.1\array ****    struct __array_traits<_Tp, 0>
  65:c:\programdata\chocolatey\lib\gcc-arm-embedded\tools\gcc-arm-none-eabi-10-2020-q4-major\arm-none-eabi\include\c++\10.2.1\array ****    {
  66:c:\programdata\chocolatey\lib\gcc-arm-embedded\tools\gcc-arm-none-eabi-10-2020-q4-major\arm-none-eabi\include\c++\10.2.1\array ****      struct _Type { };
  67:c:\programdata\chocolatey\lib\gcc-arm-embedded\tools\gcc-arm-none-eabi-10-2020-q4-major\arm-none-eabi\include\c++\10.2.1\array ****      typedef true_type _Is_swappable;
  68:c:\programdata\chocolatey\lib\gcc-arm-embedded\tools\gcc-arm-none-eabi-10-2020-q4-major\arm-none-eabi\include\c++\10.2.1\array ****      typedef true_type _Is_nothrow_swappable;
  69:c:\programdata\chocolatey\lib\gcc-arm-embedded\tools\gcc-arm-none-eabi-10-2020-q4-major\arm-none-eabi\include\c++\10.2.1\array **** 
  70:c:\programdata\chocolatey\lib\gcc-arm-embedded\tools\gcc-arm-none-eabi-10-2020-q4-major\arm-none-eabi\include\c++\10.2.1\array ****      static constexpr _Tp&
  71:c:\programdata\chocolatey\lib\gcc-arm-embedded\tools\gcc-arm-none-eabi-10-2020-q4-major\arm-none-eabi\include\c++\10.2.1\array ****      _S_ref(const _Type&, std::size_t) noexcept
  72:c:\programdata\chocolatey\lib\gcc-arm-embedded\tools\gcc-arm-none-eabi-10-2020-q4-major\arm-none-eabi\include\c++\10.2.1\array ****      { return *static_cast<_Tp*>(nullptr); }
  73:c:\programdata\chocolatey\lib\gcc-arm-embedded\tools\gcc-arm-none-eabi-10-2020-q4-major\arm-none-eabi\include\c++\10.2.1\array **** 
  74:c:\programdata\chocolatey\lib\gcc-arm-embedded\tools\gcc-arm-none-eabi-10-2020-q4-major\arm-none-eabi\include\c++\10.2.1\array ****      static constexpr _Tp*
  75:c:\programdata\chocolatey\lib\gcc-arm-embedded\tools\gcc-arm-none-eabi-10-2020-q4-major\arm-none-eabi\include\c++\10.2.1\array ****      _S_ptr(const _Type&) noexcept
  76:c:\programdata\chocolatey\lib\gcc-arm-embedded\tools\gcc-arm-none-eabi-10-2020-q4-major\arm-none-eabi\include\c++\10.2.1\array ****      { return nullptr; }
  77:c:\programdata\chocolatey\lib\gcc-arm-embedded\tools\gcc-arm-none-eabi-10-2020-q4-major\arm-none-eabi\include\c++\10.2.1\array ****    };
  78:c:\programdata\chocolatey\lib\gcc-arm-embedded\tools\gcc-arm-none-eabi-10-2020-q4-major\arm-none-eabi\include\c++\10.2.1\array **** 
  79:c:\programdata\chocolatey\lib\gcc-arm-embedded\tools\gcc-arm-none-eabi-10-2020-q4-major\arm-none-eabi\include\c++\10.2.1\array ****   /**
  80:c:\programdata\chocolatey\lib\gcc-arm-embedded\tools\gcc-arm-none-eabi-10-2020-q4-major\arm-none-eabi\include\c++\10.2.1\array ****    *  @brief A standard container for storing a fixed size sequence of elements.
  81:c:\programdata\chocolatey\lib\gcc-arm-embedded\tools\gcc-arm-none-eabi-10-2020-q4-major\arm-none-eabi\include\c++\10.2.1\array ****    *
  82:c:\programdata\chocolatey\lib\gcc-arm-embedded\tools\gcc-arm-none-eabi-10-2020-q4-major\arm-none-eabi\include\c++\10.2.1\array ****    *  @ingroup sequences
  83:c:\programdata\chocolatey\lib\gcc-arm-embedded\tools\gcc-arm-none-eabi-10-2020-q4-major\arm-none-eabi\include\c++\10.2.1\array ****    *
  84:c:\programdata\chocolatey\lib\gcc-arm-embedded\tools\gcc-arm-none-eabi-10-2020-q4-major\arm-none-eabi\include\c++\10.2.1\array ****    *  Meets the requirements of a <a href="tables.html#65">container</a>, a
  85:c:\programdata\chocolatey\lib\gcc-arm-embedded\tools\gcc-arm-none-eabi-10-2020-q4-major\arm-none-eabi\include\c++\10.2.1\array ****    *  <a href="tables.html#66">reversible container</a>, and a
  86:c:\programdata\chocolatey\lib\gcc-arm-embedded\tools\gcc-arm-none-eabi-10-2020-q4-major\arm-none-eabi\include\c++\10.2.1\array ****    *  <a href="tables.html#67">sequence</a>.
  87:c:\programdata\chocolatey\lib\gcc-arm-embedded\tools\gcc-arm-none-eabi-10-2020-q4-major\arm-none-eabi\include\c++\10.2.1\array ****    *
  88:c:\programdata\chocolatey\lib\gcc-arm-embedded\tools\gcc-arm-none-eabi-10-2020-q4-major\arm-none-eabi\include\c++\10.2.1\array ****    *  Sets support random access iterators.
  89:c:\programdata\chocolatey\lib\gcc-arm-embedded\tools\gcc-arm-none-eabi-10-2020-q4-major\arm-none-eabi\include\c++\10.2.1\array ****    *
  90:c:\programdata\chocolatey\lib\gcc-arm-embedded\tools\gcc-arm-none-eabi-10-2020-q4-major\arm-none-eabi\include\c++\10.2.1\array ****    *  @tparam  Tp  Type of element. Required to be a complete type.
  91:c:\programdata\chocolatey\lib\gcc-arm-embedded\tools\gcc-arm-none-eabi-10-2020-q4-major\arm-none-eabi\include\c++\10.2.1\array ****    *  @tparam  Nm  Number of elements.
  92:c:\programdata\chocolatey\lib\gcc-arm-embedded\tools\gcc-arm-none-eabi-10-2020-q4-major\arm-none-eabi\include\c++\10.2.1\array ****   */
  93:c:\programdata\chocolatey\lib\gcc-arm-embedded\tools\gcc-arm-none-eabi-10-2020-q4-major\arm-none-eabi\include\c++\10.2.1\array ****   template<typename _Tp, std::size_t _Nm>
  94:c:\programdata\chocolatey\lib\gcc-arm-embedded\tools\gcc-arm-none-eabi-10-2020-q4-major\arm-none-eabi\include\c++\10.2.1\array ****     struct array
 171              		.loc 11 94 12 is_stmt 1 view -0
 172              		.cfi_startproc
 173              		@ args = 0, pretend = 0, frame = 0
 174              		@ frame_needed = 0, uses_anonymous_args = 0
 175              		@ link register save eliminated.
 176              		.loc 11 94 12 is_stmt 0 view .LVU23
 177 0000 7047     		bx	lr
 178              		.cfi_endproc
 179              	.LFE5427:
 181              		.weak	_ZNSt5arrayI12SampleBufferILj240000EELj8EED1Ev
 182              		.thumb_set _ZNSt5arrayI12SampleBufferILj240000EELj8EED1Ev,_ZNSt5arrayI12SampleBufferILj240000EELj8
ARM GAS  C:\Users\daniel\AppData\Local\Temp\cczs0lix.s 			page 15


 183              		.section	.text._Z10getSamplesv,"ax",%progbits
 184              		.align	1
 185              		.p2align 2,,3
 186              		.global	_Z10getSamplesv
 187              		.syntax unified
 188              		.thumb
 189              		.thumb_func
 190              		.fpu fpv5-d16
 192              	_Z10getSamplesv:
 193              	.LFB4842:
 194              		.file 12 "Proliferation.cpp"
   1:Proliferation.cpp **** #include "daisy_patch_sm.h"
   2:Proliferation.cpp **** #include "daisysp.h"
   3:Proliferation.cpp **** #include "samplebuffer.h"
   4:Proliferation.cpp **** #include <array>
   5:Proliferation.cpp **** 
   6:Proliferation.cpp **** using namespace daisy;
   7:Proliferation.cpp **** using namespace patch_sm;
   8:Proliferation.cpp **** using namespace daisysp;
   9:Proliferation.cpp **** 
  10:Proliferation.cpp **** DaisyPatchSM    hw;
  11:Proliferation.cpp **** Switch          toggle;
  12:Proliferation.cpp **** Switch          button;
  13:Proliferation.cpp **** ReverbSc        rv;
  14:Proliferation.cpp **** Svf             svf;
  15:Proliferation.cpp **** 
  16:Proliferation.cpp **** //sample setup 
  17:Proliferation.cpp **** #define NUM_BUFFERS 8
  18:Proliferation.cpp **** // 5 second sample buffers at 48kHz
  19:Proliferation.cpp **** #define BUFFER_SIZE (48000 * 5)
  20:Proliferation.cpp **** std::array<SampleBuffer<BUFFER_SIZE>, NUM_BUFFERS> DSY_SDRAM_BSS buffers;
  21:Proliferation.cpp **** int s = 0;
  22:Proliferation.cpp **** 
  23:Proliferation.cpp **** void getSamples(){
 195              		.loc 12 23 18 is_stmt 1 view -0
 196              		.cfi_startproc
 197              		@ args = 0, pretend = 0, frame = 0
 198              		@ frame_needed = 0, uses_anonymous_args = 0
  24:Proliferation.cpp **** 	hw.ProcessAllControls();
 199              		.loc 12 24 2 view .LVU25
 200              	.LVL5:
 201              	.LBB548:
 202              	.LBI548:
  66:../../libDaisy//src/daisy_patch_sm.h **** 
  67:../../libDaisy//src/daisy_patch_sm.h ****         /** Initializes the memories, and core peripherals for the Daisy Patch SM */
  68:../../libDaisy//src/daisy_patch_sm.h ****         void Init();
  69:../../libDaisy//src/daisy_patch_sm.h **** 
  70:../../libDaisy//src/daisy_patch_sm.h ****         /** Starts a non-interleaving audio callback */
  71:../../libDaisy//src/daisy_patch_sm.h ****         void StartAudio(AudioHandle::AudioCallback cb);
  72:../../libDaisy//src/daisy_patch_sm.h **** 
  73:../../libDaisy//src/daisy_patch_sm.h ****         /** Starts an interleaving audio callback */
  74:../../libDaisy//src/daisy_patch_sm.h ****         void StartAudio(AudioHandle::InterleavingAudioCallback cb);
  75:../../libDaisy//src/daisy_patch_sm.h **** 
  76:../../libDaisy//src/daisy_patch_sm.h ****         /** Changes the callback that is executing.
  77:../../libDaisy//src/daisy_patch_sm.h ****          *  This may cause clicks if done while audio is processing.
  78:../../libDaisy//src/daisy_patch_sm.h ****          */
  79:../../libDaisy//src/daisy_patch_sm.h ****         void ChangeAudioCallback(AudioHandle::AudioCallback cb);
ARM GAS  C:\Users\daniel\AppData\Local\Temp\cczs0lix.s 			page 16


  80:../../libDaisy//src/daisy_patch_sm.h **** 
  81:../../libDaisy//src/daisy_patch_sm.h ****         /** Changes the callback that is executing.
  82:../../libDaisy//src/daisy_patch_sm.h ****          *  This may cause clicks if done while audio is processing.
  83:../../libDaisy//src/daisy_patch_sm.h ****          */
  84:../../libDaisy//src/daisy_patch_sm.h ****         void ChangeAudioCallback(AudioHandle::InterleavingAudioCallback cb);
  85:../../libDaisy//src/daisy_patch_sm.h **** 
  86:../../libDaisy//src/daisy_patch_sm.h ****         /** Stops the transmission of audio. */
  87:../../libDaisy//src/daisy_patch_sm.h ****         void StopAudio();
  88:../../libDaisy//src/daisy_patch_sm.h **** 
  89:../../libDaisy//src/daisy_patch_sm.h ****         /** Sets the number of samples processed in an audio callback. 
  90:../../libDaisy//src/daisy_patch_sm.h ****          *  This will only take effect on the next invocation of `StartAudio`
  91:../../libDaisy//src/daisy_patch_sm.h ****          */
  92:../../libDaisy//src/daisy_patch_sm.h ****         void SetAudioBlockSize(size_t size);
  93:../../libDaisy//src/daisy_patch_sm.h **** 
  94:../../libDaisy//src/daisy_patch_sm.h ****         /** Sets the samplerate for the audio engine 
  95:../../libDaisy//src/daisy_patch_sm.h ****          *  This will set it to the closest valid samplerate. Options being:
  96:../../libDaisy//src/daisy_patch_sm.h ****          *  8kHz, 16kHz, 32kHz, 48kHz, and 96kHz
  97:../../libDaisy//src/daisy_patch_sm.h ****          */
  98:../../libDaisy//src/daisy_patch_sm.h ****         void SetAudioSampleRate(float sr);
  99:../../libDaisy//src/daisy_patch_sm.h **** 
 100:../../libDaisy//src/daisy_patch_sm.h ****         void SetAudioSampleRate(SaiHandle::Config::SampleRate sample_rate);
 101:../../libDaisy//src/daisy_patch_sm.h **** 
 102:../../libDaisy//src/daisy_patch_sm.h ****         /** Returns the number of samples processed in an audio callback */
 103:../../libDaisy//src/daisy_patch_sm.h ****         size_t AudioBlockSize();
 104:../../libDaisy//src/daisy_patch_sm.h **** 
 105:../../libDaisy//src/daisy_patch_sm.h ****         /** Returns the audio engine's samplerate in Hz */
 106:../../libDaisy//src/daisy_patch_sm.h ****         float AudioSampleRate();
 107:../../libDaisy//src/daisy_patch_sm.h **** 
 108:../../libDaisy//src/daisy_patch_sm.h ****         /** Returns the rate at which the audio callback will be called in Hz */
 109:../../libDaisy//src/daisy_patch_sm.h ****         float AudioCallbackRate();
 110:../../libDaisy//src/daisy_patch_sm.h **** 
 111:../../libDaisy//src/daisy_patch_sm.h ****         /** Starts the Control ADCs 
 112:../../libDaisy//src/daisy_patch_sm.h ****          * 
 113:../../libDaisy//src/daisy_patch_sm.h ****          *  This is started automatically when Init() is called.
 114:../../libDaisy//src/daisy_patch_sm.h ****          */
 115:../../libDaisy//src/daisy_patch_sm.h ****         void StartAdc();
 116:../../libDaisy//src/daisy_patch_sm.h **** 
 117:../../libDaisy//src/daisy_patch_sm.h ****         /** Stops the Control ADCs */
 118:../../libDaisy//src/daisy_patch_sm.h ****         void StopAdc();
 119:../../libDaisy//src/daisy_patch_sm.h **** 
 120:../../libDaisy//src/daisy_patch_sm.h ****         /** Reads and filters all of the analog control inputs */
 121:../../libDaisy//src/daisy_patch_sm.h ****         void ProcessAnalogControls();
 122:../../libDaisy//src/daisy_patch_sm.h **** 
 123:../../libDaisy//src/daisy_patch_sm.h ****         /** Reads and debounces any of the digital control inputs 
 124:../../libDaisy//src/daisy_patch_sm.h ****          *  This does nothing on this board at this time.
 125:../../libDaisy//src/daisy_patch_sm.h ****          */
 126:../../libDaisy//src/daisy_patch_sm.h ****         void ProcessDigitalControls();
 127:../../libDaisy//src/daisy_patch_sm.h **** 
 128:../../libDaisy//src/daisy_patch_sm.h ****         /** Does both of the above */
 129:../../libDaisy//src/daisy_patch_sm.h ****         void ProcessAllControls()
 203              		.loc 2 129 14 view .LVU26
 204              	.LBB549:
 130:../../libDaisy//src/daisy_patch_sm.h ****         {
 131:../../libDaisy//src/daisy_patch_sm.h ****             ProcessAnalogControls();
 205              		.loc 2 131 13 view .LVU27
 206              	.LBE549:
 207              	.LBE548:
ARM GAS  C:\Users\daniel\AppData\Local\Temp\cczs0lix.s 			page 17


  23:Proliferation.cpp **** 	hw.ProcessAllControls();
 208              		.loc 12 23 18 is_stmt 0 view .LVU28
 209 0000 38B5     		push	{r3, r4, r5, lr}
 210              		.cfi_def_cfa_offset 16
 211              		.cfi_offset 3, -16
 212              		.cfi_offset 4, -12
 213              		.cfi_offset 5, -8
 214              		.cfi_offset 14, -4
 215              	.LBB552:
 216              	.LBB550:
 217              		.loc 2 131 34 view .LVU29
 218 0002 B148     		ldr	r0, .L88
 219              	.LBE550:
 220              	.LBE552:
  25:Proliferation.cpp **** 	button.Debounce();
  26:Proliferation.cpp ****     toggle.Debounce(); 
  27:Proliferation.cpp ****     
  28:Proliferation.cpp ****     // randomizer
  29:Proliferation.cpp **** 	int randSamp = rand() % NUM_BUFFERS;
 221              		.loc 12 29 26 view .LVU30
 222 0004 0824     		movs	r4, #8
 223              	.LBB553:
 224              	.LBB551:
 225              		.loc 2 131 34 view .LVU31
 226 0006 FFF7FEFF 		bl	_ZN5daisy8patch_sm12DaisyPatchSM21ProcessAnalogControlsEv
 227              	.LVL6:
 132:../../libDaisy//src/daisy_patch_sm.h ****             ProcessDigitalControls();
 228              		.loc 2 132 13 is_stmt 1 view .LVU32
 229              		.loc 2 132 35 is_stmt 0 view .LVU33
 230 000a AF48     		ldr	r0, .L88
 231 000c FFF7FEFF 		bl	_ZN5daisy8patch_sm12DaisyPatchSM22ProcessDigitalControlsEv
 232              	.LVL7:
 233              		.loc 2 132 35 view .LVU34
 234              	.LBE551:
 235              	.LBE553:
  25:Proliferation.cpp **** 	button.Debounce();
 236              		.loc 12 25 2 is_stmt 1 view .LVU35
  25:Proliferation.cpp **** 	button.Debounce();
 237              		.loc 12 25 17 is_stmt 0 view .LVU36
 238 0010 AE48     		ldr	r0, .L88+4
 239 0012 FFF7FEFF 		bl	_ZN5daisy6Switch8DebounceEv
 240              	.LVL8:
  26:Proliferation.cpp ****     
 241              		.loc 12 26 5 is_stmt 1 view .LVU37
  26:Proliferation.cpp ****     
 242              		.loc 12 26 20 is_stmt 0 view .LVU38
 243 0016 AE48     		ldr	r0, .L88+8
 244 0018 FFF7FEFF 		bl	_ZN5daisy6Switch8DebounceEv
 245              	.LVL9:
 246              		.loc 12 29 2 is_stmt 1 view .LVU39
 247              		.loc 12 29 21 is_stmt 0 view .LVU40
 248 001c FFF7FEFF 		bl	rand
 249              	.LVL10:
 250              		.loc 12 29 26 view .LVU41
 251 0020 4342     		rsbs	r3, r0, #0
 252 0022 00F00705 		and	r5, r0, #7
 253 0026 03F00703 		and	r3, r3, #7
ARM GAS  C:\Users\daniel\AppData\Local\Temp\cczs0lix.s 			page 18


 254 002a 58BF     		it	pl
 255 002c 5D42     		rsbpl	r5, r3, #0
 256              	.LVL11:
  30:Proliferation.cpp **** 
  31:Proliferation.cpp ****     // playState will choose between gate states or otherwise
  32:Proliferation.cpp ****     //bool playState = toggle.Pressed();
  33:Proliferation.cpp **** 
  34:Proliferation.cpp ****     for(size_t i = 0; i < buffers.size(); i++)
 257              		.loc 12 34 5 is_stmt 1 view .LVU42
 258              	.LBB554:
 259              		.loc 12 34 25 view .LVU43
 260              	.L9:
  35:Proliferation.cpp ****     {
  36:Proliferation.cpp ****         if(hw.gate_in_2.Trig()) {
 261              		.loc 12 36 9 view .LVU44
 262              		.loc 12 36 29 is_stmt 0 view .LVU45
 263 002e A948     		ldr	r0, .L88+12
 264 0030 FFF7FEFF 		bl	_ZN5daisy6GateIn4TrigEv
 265              	.LVL12:
  37:Proliferation.cpp ****             buffers[randSamp].Play();
 266              		.loc 12 37 13 is_stmt 1 view .LVU46
 267              	.LBB555:
 268              	.LBI555:
  95:c:\programdata\chocolatey\lib\gcc-arm-embedded\tools\gcc-arm-none-eabi-10-2020-q4-major\arm-none-eabi\include\c++\10.2.1\array ****     {
  96:c:\programdata\chocolatey\lib\gcc-arm-embedded\tools\gcc-arm-none-eabi-10-2020-q4-major\arm-none-eabi\include\c++\10.2.1\array ****       typedef _Tp 	    			      value_type;
  97:c:\programdata\chocolatey\lib\gcc-arm-embedded\tools\gcc-arm-none-eabi-10-2020-q4-major\arm-none-eabi\include\c++\10.2.1\array ****       typedef value_type*			      pointer;
  98:c:\programdata\chocolatey\lib\gcc-arm-embedded\tools\gcc-arm-none-eabi-10-2020-q4-major\arm-none-eabi\include\c++\10.2.1\array ****       typedef const value_type*                       const_pointer;
  99:c:\programdata\chocolatey\lib\gcc-arm-embedded\tools\gcc-arm-none-eabi-10-2020-q4-major\arm-none-eabi\include\c++\10.2.1\array ****       typedef value_type&                   	      reference;
 100:c:\programdata\chocolatey\lib\gcc-arm-embedded\tools\gcc-arm-none-eabi-10-2020-q4-major\arm-none-eabi\include\c++\10.2.1\array ****       typedef const value_type&             	      const_reference;
 101:c:\programdata\chocolatey\lib\gcc-arm-embedded\tools\gcc-arm-none-eabi-10-2020-q4-major\arm-none-eabi\include\c++\10.2.1\array ****       typedef value_type*          		      iterator;
 102:c:\programdata\chocolatey\lib\gcc-arm-embedded\tools\gcc-arm-none-eabi-10-2020-q4-major\arm-none-eabi\include\c++\10.2.1\array ****       typedef const value_type*			      const_iterator;
 103:c:\programdata\chocolatey\lib\gcc-arm-embedded\tools\gcc-arm-none-eabi-10-2020-q4-major\arm-none-eabi\include\c++\10.2.1\array ****       typedef std::size_t                    	      size_type;
 104:c:\programdata\chocolatey\lib\gcc-arm-embedded\tools\gcc-arm-none-eabi-10-2020-q4-major\arm-none-eabi\include\c++\10.2.1\array ****       typedef std::ptrdiff_t                   	      difference_type;
 105:c:\programdata\chocolatey\lib\gcc-arm-embedded\tools\gcc-arm-none-eabi-10-2020-q4-major\arm-none-eabi\include\c++\10.2.1\array ****       typedef std::reverse_iterator<iterator>	      reverse_iterator;
 106:c:\programdata\chocolatey\lib\gcc-arm-embedded\tools\gcc-arm-none-eabi-10-2020-q4-major\arm-none-eabi\include\c++\10.2.1\array ****       typedef std::reverse_iterator<const_iterator>   const_reverse_iterator;
 107:c:\programdata\chocolatey\lib\gcc-arm-embedded\tools\gcc-arm-none-eabi-10-2020-q4-major\arm-none-eabi\include\c++\10.2.1\array **** 
 108:c:\programdata\chocolatey\lib\gcc-arm-embedded\tools\gcc-arm-none-eabi-10-2020-q4-major\arm-none-eabi\include\c++\10.2.1\array ****       // Support for zero-sized arrays mandatory.
 109:c:\programdata\chocolatey\lib\gcc-arm-embedded\tools\gcc-arm-none-eabi-10-2020-q4-major\arm-none-eabi\include\c++\10.2.1\array ****       typedef _GLIBCXX_STD_C::__array_traits<_Tp, _Nm> _AT_Type;
 110:c:\programdata\chocolatey\lib\gcc-arm-embedded\tools\gcc-arm-none-eabi-10-2020-q4-major\arm-none-eabi\include\c++\10.2.1\array ****       typename _AT_Type::_Type                         _M_elems;
 111:c:\programdata\chocolatey\lib\gcc-arm-embedded\tools\gcc-arm-none-eabi-10-2020-q4-major\arm-none-eabi\include\c++\10.2.1\array **** 
 112:c:\programdata\chocolatey\lib\gcc-arm-embedded\tools\gcc-arm-none-eabi-10-2020-q4-major\arm-none-eabi\include\c++\10.2.1\array ****       // No explicit construct/copy/destroy for aggregate type.
 113:c:\programdata\chocolatey\lib\gcc-arm-embedded\tools\gcc-arm-none-eabi-10-2020-q4-major\arm-none-eabi\include\c++\10.2.1\array **** 
 114:c:\programdata\chocolatey\lib\gcc-arm-embedded\tools\gcc-arm-none-eabi-10-2020-q4-major\arm-none-eabi\include\c++\10.2.1\array ****       // DR 776.
 115:c:\programdata\chocolatey\lib\gcc-arm-embedded\tools\gcc-arm-none-eabi-10-2020-q4-major\arm-none-eabi\include\c++\10.2.1\array ****       _GLIBCXX20_CONSTEXPR void
 116:c:\programdata\chocolatey\lib\gcc-arm-embedded\tools\gcc-arm-none-eabi-10-2020-q4-major\arm-none-eabi\include\c++\10.2.1\array ****       fill(const value_type& __u)
 117:c:\programdata\chocolatey\lib\gcc-arm-embedded\tools\gcc-arm-none-eabi-10-2020-q4-major\arm-none-eabi\include\c++\10.2.1\array ****       { std::fill_n(begin(), size(), __u); }
 118:c:\programdata\chocolatey\lib\gcc-arm-embedded\tools\gcc-arm-none-eabi-10-2020-q4-major\arm-none-eabi\include\c++\10.2.1\array **** 
 119:c:\programdata\chocolatey\lib\gcc-arm-embedded\tools\gcc-arm-none-eabi-10-2020-q4-major\arm-none-eabi\include\c++\10.2.1\array ****       _GLIBCXX20_CONSTEXPR void
 120:c:\programdata\chocolatey\lib\gcc-arm-embedded\tools\gcc-arm-none-eabi-10-2020-q4-major\arm-none-eabi\include\c++\10.2.1\array ****       swap(array& __other)
 121:c:\programdata\chocolatey\lib\gcc-arm-embedded\tools\gcc-arm-none-eabi-10-2020-q4-major\arm-none-eabi\include\c++\10.2.1\array ****       noexcept(_AT_Type::_Is_nothrow_swappable::value)
 122:c:\programdata\chocolatey\lib\gcc-arm-embedded\tools\gcc-arm-none-eabi-10-2020-q4-major\arm-none-eabi\include\c++\10.2.1\array ****       { std::swap_ranges(begin(), end(), __other.begin()); }
 123:c:\programdata\chocolatey\lib\gcc-arm-embedded\tools\gcc-arm-none-eabi-10-2020-q4-major\arm-none-eabi\include\c++\10.2.1\array **** 
 124:c:\programdata\chocolatey\lib\gcc-arm-embedded\tools\gcc-arm-none-eabi-10-2020-q4-major\arm-none-eabi\include\c++\10.2.1\array ****       // Iterators.
 125:c:\programdata\chocolatey\lib\gcc-arm-embedded\tools\gcc-arm-none-eabi-10-2020-q4-major\arm-none-eabi\include\c++\10.2.1\array ****       _GLIBCXX17_CONSTEXPR iterator
 126:c:\programdata\chocolatey\lib\gcc-arm-embedded\tools\gcc-arm-none-eabi-10-2020-q4-major\arm-none-eabi\include\c++\10.2.1\array ****       begin() noexcept
 127:c:\programdata\chocolatey\lib\gcc-arm-embedded\tools\gcc-arm-none-eabi-10-2020-q4-major\arm-none-eabi\include\c++\10.2.1\array ****       { return iterator(data()); }
 128:c:\programdata\chocolatey\lib\gcc-arm-embedded\tools\gcc-arm-none-eabi-10-2020-q4-major\arm-none-eabi\include\c++\10.2.1\array **** 
ARM GAS  C:\Users\daniel\AppData\Local\Temp\cczs0lix.s 			page 19


 129:c:\programdata\chocolatey\lib\gcc-arm-embedded\tools\gcc-arm-none-eabi-10-2020-q4-major\arm-none-eabi\include\c++\10.2.1\array ****       _GLIBCXX17_CONSTEXPR const_iterator
 130:c:\programdata\chocolatey\lib\gcc-arm-embedded\tools\gcc-arm-none-eabi-10-2020-q4-major\arm-none-eabi\include\c++\10.2.1\array ****       begin() const noexcept
 131:c:\programdata\chocolatey\lib\gcc-arm-embedded\tools\gcc-arm-none-eabi-10-2020-q4-major\arm-none-eabi\include\c++\10.2.1\array ****       { return const_iterator(data()); }
 132:c:\programdata\chocolatey\lib\gcc-arm-embedded\tools\gcc-arm-none-eabi-10-2020-q4-major\arm-none-eabi\include\c++\10.2.1\array **** 
 133:c:\programdata\chocolatey\lib\gcc-arm-embedded\tools\gcc-arm-none-eabi-10-2020-q4-major\arm-none-eabi\include\c++\10.2.1\array ****       _GLIBCXX17_CONSTEXPR iterator
 134:c:\programdata\chocolatey\lib\gcc-arm-embedded\tools\gcc-arm-none-eabi-10-2020-q4-major\arm-none-eabi\include\c++\10.2.1\array ****       end() noexcept
 135:c:\programdata\chocolatey\lib\gcc-arm-embedded\tools\gcc-arm-none-eabi-10-2020-q4-major\arm-none-eabi\include\c++\10.2.1\array ****       { return iterator(data() + _Nm); }
 136:c:\programdata\chocolatey\lib\gcc-arm-embedded\tools\gcc-arm-none-eabi-10-2020-q4-major\arm-none-eabi\include\c++\10.2.1\array **** 
 137:c:\programdata\chocolatey\lib\gcc-arm-embedded\tools\gcc-arm-none-eabi-10-2020-q4-major\arm-none-eabi\include\c++\10.2.1\array ****       _GLIBCXX17_CONSTEXPR const_iterator
 138:c:\programdata\chocolatey\lib\gcc-arm-embedded\tools\gcc-arm-none-eabi-10-2020-q4-major\arm-none-eabi\include\c++\10.2.1\array ****       end() const noexcept
 139:c:\programdata\chocolatey\lib\gcc-arm-embedded\tools\gcc-arm-none-eabi-10-2020-q4-major\arm-none-eabi\include\c++\10.2.1\array ****       { return const_iterator(data() + _Nm); }
 140:c:\programdata\chocolatey\lib\gcc-arm-embedded\tools\gcc-arm-none-eabi-10-2020-q4-major\arm-none-eabi\include\c++\10.2.1\array **** 
 141:c:\programdata\chocolatey\lib\gcc-arm-embedded\tools\gcc-arm-none-eabi-10-2020-q4-major\arm-none-eabi\include\c++\10.2.1\array ****       _GLIBCXX17_CONSTEXPR reverse_iterator
 142:c:\programdata\chocolatey\lib\gcc-arm-embedded\tools\gcc-arm-none-eabi-10-2020-q4-major\arm-none-eabi\include\c++\10.2.1\array ****       rbegin() noexcept
 143:c:\programdata\chocolatey\lib\gcc-arm-embedded\tools\gcc-arm-none-eabi-10-2020-q4-major\arm-none-eabi\include\c++\10.2.1\array ****       { return reverse_iterator(end()); }
 144:c:\programdata\chocolatey\lib\gcc-arm-embedded\tools\gcc-arm-none-eabi-10-2020-q4-major\arm-none-eabi\include\c++\10.2.1\array **** 
 145:c:\programdata\chocolatey\lib\gcc-arm-embedded\tools\gcc-arm-none-eabi-10-2020-q4-major\arm-none-eabi\include\c++\10.2.1\array ****       _GLIBCXX17_CONSTEXPR const_reverse_iterator
 146:c:\programdata\chocolatey\lib\gcc-arm-embedded\tools\gcc-arm-none-eabi-10-2020-q4-major\arm-none-eabi\include\c++\10.2.1\array ****       rbegin() const noexcept
 147:c:\programdata\chocolatey\lib\gcc-arm-embedded\tools\gcc-arm-none-eabi-10-2020-q4-major\arm-none-eabi\include\c++\10.2.1\array ****       { return const_reverse_iterator(end()); }
 148:c:\programdata\chocolatey\lib\gcc-arm-embedded\tools\gcc-arm-none-eabi-10-2020-q4-major\arm-none-eabi\include\c++\10.2.1\array **** 
 149:c:\programdata\chocolatey\lib\gcc-arm-embedded\tools\gcc-arm-none-eabi-10-2020-q4-major\arm-none-eabi\include\c++\10.2.1\array ****       _GLIBCXX17_CONSTEXPR reverse_iterator
 150:c:\programdata\chocolatey\lib\gcc-arm-embedded\tools\gcc-arm-none-eabi-10-2020-q4-major\arm-none-eabi\include\c++\10.2.1\array ****       rend() noexcept
 151:c:\programdata\chocolatey\lib\gcc-arm-embedded\tools\gcc-arm-none-eabi-10-2020-q4-major\arm-none-eabi\include\c++\10.2.1\array ****       { return reverse_iterator(begin()); }
 152:c:\programdata\chocolatey\lib\gcc-arm-embedded\tools\gcc-arm-none-eabi-10-2020-q4-major\arm-none-eabi\include\c++\10.2.1\array **** 
 153:c:\programdata\chocolatey\lib\gcc-arm-embedded\tools\gcc-arm-none-eabi-10-2020-q4-major\arm-none-eabi\include\c++\10.2.1\array ****       _GLIBCXX17_CONSTEXPR const_reverse_iterator
 154:c:\programdata\chocolatey\lib\gcc-arm-embedded\tools\gcc-arm-none-eabi-10-2020-q4-major\arm-none-eabi\include\c++\10.2.1\array ****       rend() const noexcept
 155:c:\programdata\chocolatey\lib\gcc-arm-embedded\tools\gcc-arm-none-eabi-10-2020-q4-major\arm-none-eabi\include\c++\10.2.1\array ****       { return const_reverse_iterator(begin()); }
 156:c:\programdata\chocolatey\lib\gcc-arm-embedded\tools\gcc-arm-none-eabi-10-2020-q4-major\arm-none-eabi\include\c++\10.2.1\array **** 
 157:c:\programdata\chocolatey\lib\gcc-arm-embedded\tools\gcc-arm-none-eabi-10-2020-q4-major\arm-none-eabi\include\c++\10.2.1\array ****       _GLIBCXX17_CONSTEXPR const_iterator
 158:c:\programdata\chocolatey\lib\gcc-arm-embedded\tools\gcc-arm-none-eabi-10-2020-q4-major\arm-none-eabi\include\c++\10.2.1\array ****       cbegin() const noexcept
 159:c:\programdata\chocolatey\lib\gcc-arm-embedded\tools\gcc-arm-none-eabi-10-2020-q4-major\arm-none-eabi\include\c++\10.2.1\array ****       { return const_iterator(data()); }
 160:c:\programdata\chocolatey\lib\gcc-arm-embedded\tools\gcc-arm-none-eabi-10-2020-q4-major\arm-none-eabi\include\c++\10.2.1\array **** 
 161:c:\programdata\chocolatey\lib\gcc-arm-embedded\tools\gcc-arm-none-eabi-10-2020-q4-major\arm-none-eabi\include\c++\10.2.1\array ****       _GLIBCXX17_CONSTEXPR const_iterator
 162:c:\programdata\chocolatey\lib\gcc-arm-embedded\tools\gcc-arm-none-eabi-10-2020-q4-major\arm-none-eabi\include\c++\10.2.1\array ****       cend() const noexcept
 163:c:\programdata\chocolatey\lib\gcc-arm-embedded\tools\gcc-arm-none-eabi-10-2020-q4-major\arm-none-eabi\include\c++\10.2.1\array ****       { return const_iterator(data() + _Nm); }
 164:c:\programdata\chocolatey\lib\gcc-arm-embedded\tools\gcc-arm-none-eabi-10-2020-q4-major\arm-none-eabi\include\c++\10.2.1\array **** 
 165:c:\programdata\chocolatey\lib\gcc-arm-embedded\tools\gcc-arm-none-eabi-10-2020-q4-major\arm-none-eabi\include\c++\10.2.1\array ****       _GLIBCXX17_CONSTEXPR const_reverse_iterator
 166:c:\programdata\chocolatey\lib\gcc-arm-embedded\tools\gcc-arm-none-eabi-10-2020-q4-major\arm-none-eabi\include\c++\10.2.1\array ****       crbegin() const noexcept
 167:c:\programdata\chocolatey\lib\gcc-arm-embedded\tools\gcc-arm-none-eabi-10-2020-q4-major\arm-none-eabi\include\c++\10.2.1\array ****       { return const_reverse_iterator(end()); }
 168:c:\programdata\chocolatey\lib\gcc-arm-embedded\tools\gcc-arm-none-eabi-10-2020-q4-major\arm-none-eabi\include\c++\10.2.1\array **** 
 169:c:\programdata\chocolatey\lib\gcc-arm-embedded\tools\gcc-arm-none-eabi-10-2020-q4-major\arm-none-eabi\include\c++\10.2.1\array ****       _GLIBCXX17_CONSTEXPR const_reverse_iterator
 170:c:\programdata\chocolatey\lib\gcc-arm-embedded\tools\gcc-arm-none-eabi-10-2020-q4-major\arm-none-eabi\include\c++\10.2.1\array ****       crend() const noexcept
 171:c:\programdata\chocolatey\lib\gcc-arm-embedded\tools\gcc-arm-none-eabi-10-2020-q4-major\arm-none-eabi\include\c++\10.2.1\array ****       { return const_reverse_iterator(begin()); }
 172:c:\programdata\chocolatey\lib\gcc-arm-embedded\tools\gcc-arm-none-eabi-10-2020-q4-major\arm-none-eabi\include\c++\10.2.1\array **** 
 173:c:\programdata\chocolatey\lib\gcc-arm-embedded\tools\gcc-arm-none-eabi-10-2020-q4-major\arm-none-eabi\include\c++\10.2.1\array ****       // Capacity.
 174:c:\programdata\chocolatey\lib\gcc-arm-embedded\tools\gcc-arm-none-eabi-10-2020-q4-major\arm-none-eabi\include\c++\10.2.1\array ****       constexpr size_type
 175:c:\programdata\chocolatey\lib\gcc-arm-embedded\tools\gcc-arm-none-eabi-10-2020-q4-major\arm-none-eabi\include\c++\10.2.1\array ****       size() const noexcept { return _Nm; }
 176:c:\programdata\chocolatey\lib\gcc-arm-embedded\tools\gcc-arm-none-eabi-10-2020-q4-major\arm-none-eabi\include\c++\10.2.1\array **** 
 177:c:\programdata\chocolatey\lib\gcc-arm-embedded\tools\gcc-arm-none-eabi-10-2020-q4-major\arm-none-eabi\include\c++\10.2.1\array ****       constexpr size_type
 178:c:\programdata\chocolatey\lib\gcc-arm-embedded\tools\gcc-arm-none-eabi-10-2020-q4-major\arm-none-eabi\include\c++\10.2.1\array ****       max_size() const noexcept { return _Nm; }
 179:c:\programdata\chocolatey\lib\gcc-arm-embedded\tools\gcc-arm-none-eabi-10-2020-q4-major\arm-none-eabi\include\c++\10.2.1\array **** 
 180:c:\programdata\chocolatey\lib\gcc-arm-embedded\tools\gcc-arm-none-eabi-10-2020-q4-major\arm-none-eabi\include\c++\10.2.1\array ****       _GLIBCXX_NODISCARD constexpr bool
 181:c:\programdata\chocolatey\lib\gcc-arm-embedded\tools\gcc-arm-none-eabi-10-2020-q4-major\arm-none-eabi\include\c++\10.2.1\array ****       empty() const noexcept { return size() == 0; }
 182:c:\programdata\chocolatey\lib\gcc-arm-embedded\tools\gcc-arm-none-eabi-10-2020-q4-major\arm-none-eabi\include\c++\10.2.1\array **** 
 183:c:\programdata\chocolatey\lib\gcc-arm-embedded\tools\gcc-arm-none-eabi-10-2020-q4-major\arm-none-eabi\include\c++\10.2.1\array ****       // Element access.
 184:c:\programdata\chocolatey\lib\gcc-arm-embedded\tools\gcc-arm-none-eabi-10-2020-q4-major\arm-none-eabi\include\c++\10.2.1\array ****       _GLIBCXX17_CONSTEXPR reference
 185:c:\programdata\chocolatey\lib\gcc-arm-embedded\tools\gcc-arm-none-eabi-10-2020-q4-major\arm-none-eabi\include\c++\10.2.1\array ****       operator[](size_type __n) noexcept
ARM GAS  C:\Users\daniel\AppData\Local\Temp\cczs0lix.s 			page 20


 269              		.loc 11 185 7 view .LVU47
 270              	.LBB556:
 271              	.LBI556:
  55:c:\programdata\chocolatey\lib\gcc-arm-embedded\tools\gcc-arm-none-eabi-10-2020-q4-major\arm-none-eabi\include\c++\10.2.1\array ****       { return const_cast<_Tp&>(__t[__n]); }
 272              		.loc 11 55 7 view .LVU48
  55:c:\programdata\chocolatey\lib\gcc-arm-embedded\tools\gcc-arm-none-eabi-10-2020-q4-major\arm-none-eabi\include\c++\10.2.1\array ****       { return const_cast<_Tp&>(__t[__n]); }
 273              		.loc 11 55 7 is_stmt 0 view .LVU49
 274              	.LBE556:
 275              	.LBE555:
 276              	.LBB557:
 277              	.LBI557:
 278              		.file 13 "samplebuffer.h"
   1:samplebuffer.h **** #pragma once
   2:samplebuffer.h **** #ifndef SAMPLEBUFFER_H
   3:samplebuffer.h **** #define SAMPLEBUFFER_H
   4:samplebuffer.h **** 
   5:samplebuffer.h **** #include <stddef.h>
   6:samplebuffer.h **** 
   7:samplebuffer.h **** /** Sample buffer with record and playback.
   8:samplebuffer.h **** 
   9:samplebuffer.h **** By: Alex Virgona
  10:samplebuffer.h **** */
  11:samplebuffer.h **** template <size_t kBufferSize>
  12:samplebuffer.h **** class SampleBuffer
  13:samplebuffer.h **** {
  14:samplebuffer.h ****   public:
  15:samplebuffer.h ****     SampleBuffer() {}
  16:samplebuffer.h ****     ~SampleBuffer() {}
  17:samplebuffer.h **** 
  18:samplebuffer.h ****     void Init()
  19:samplebuffer.h ****     {
  20:samplebuffer.h ****         Clear();
  21:samplebuffer.h ****         recording_ = false;
  22:samplebuffer.h ****         write_ptr_ = 0;
  23:samplebuffer.h ****         playing_   = false;
  24:samplebuffer.h ****         read_ptr_  = 0;
  25:samplebuffer.h ****     }
  26:samplebuffer.h **** 
  27:samplebuffer.h ****     void Clear()
  28:samplebuffer.h ****     {
  29:samplebuffer.h ****         for(size_t i = 0; i < kBufferSize; i++)
  30:samplebuffer.h ****         {
  31:samplebuffer.h ****             buffer_[i] = 0.f;
  32:samplebuffer.h ****         }
  33:samplebuffer.h ****     }
  34:samplebuffer.h **** 
  35:samplebuffer.h ****     void Record(bool start = true)
  36:samplebuffer.h ****     {
  37:samplebuffer.h ****         if(start)
  38:samplebuffer.h ****         {
  39:samplebuffer.h ****             Clear();
  40:samplebuffer.h ****         }
  41:samplebuffer.h ****         recording_ = start;
  42:samplebuffer.h ****         write_ptr_ = 0;
  43:samplebuffer.h ****     }
  44:samplebuffer.h **** 
  45:samplebuffer.h ****     void Play(bool start = true)
ARM GAS  C:\Users\daniel\AppData\Local\Temp\cczs0lix.s 			page 21


 279              		.loc 13 45 10 is_stmt 1 view .LVU50
 280              		.loc 13 45 10 is_stmt 0 view .LVU51
 281              	.LBE557:
  34:Proliferation.cpp ****     {
 282              		.loc 12 34 5 is_stmt 1 view .LVU52
  34:Proliferation.cpp ****     {
 283              		.loc 12 34 25 view .LVU53
 284              	.LBB560:
 285              	.LBB558:
  46:samplebuffer.h ****     {
  47:samplebuffer.h ****         playing_  = start;
 286              		.loc 13 47 19 is_stmt 0 view .LVU54
 287 0034 A84B     		ldr	r3, .L88+16
 288 0036 A94A     		ldr	r2, .L88+20
 289 0038 4FF0010C 		mov	ip, #1
  48:samplebuffer.h ****         read_ptr_ = 0;
 290              		.loc 13 48 19 view .LVU55
 291 003c 0021     		movs	r1, #0
  47:samplebuffer.h ****         read_ptr_ = 0;
 292              		.loc 13 47 19 view .LVU56
 293 003e 02FB0533 		mla	r3, r2, r5, r3
 294              	.LBE558:
 295              	.LBE560:
  36:Proliferation.cpp ****             buffers[randSamp].Play();
 296              		.loc 12 36 9 view .LVU57
 297 0042 10B1     		cbz	r0, .L8
 298              	.LBB561:
 299              	.LBB559:
  47:samplebuffer.h ****         read_ptr_ = 0;
 300              		.loc 13 47 19 view .LVU58
 301 0044 83F80CC0 		strb	ip, [r3, #12]
 302              		.loc 13 48 19 view .LVU59
 303 0048 5960     		str	r1, [r3, #4]
 304              	.L8:
 305              	.LBE559:
 306              	.LBE561:
  34:Proliferation.cpp ****     {
 307              		.loc 12 34 25 discriminator 2 view .LVU60
 308 004a 013C     		subs	r4, r4, #1
 309              	.LVL13:
  34:Proliferation.cpp ****     {
 310              		.loc 12 34 25 discriminator 2 view .LVU61
 311 004c EFD1     		bne	.L9
 312              	.LBE554:
  38:Proliferation.cpp ****         }
  39:Proliferation.cpp ****     }
  40:Proliferation.cpp ****     
  41:Proliferation.cpp ****     switch(s) {
 313              		.loc 12 41 5 is_stmt 1 view .LVU62
 314 004e A44A     		ldr	r2, .L88+24
 315 0050 1368     		ldr	r3, [r2]
 316 0052 072B     		cmp	r3, #7
 317 0054 18D8     		bhi	.L7
 318 0056 DFE803F0 		tbb	[pc, r3]
 319              	.L12:
 320 005a 04       		.byte	(.L19-.L12)/2
 321 005b 2F       		.byte	(.L18-.L12)/2
ARM GAS  C:\Users\daniel\AppData\Local\Temp\cczs0lix.s 			page 22


 322 005c 46       		.byte	(.L17-.L12)/2
 323 005d 5D       		.byte	(.L16-.L12)/2
 324 005e 74       		.byte	(.L15-.L12)/2
 325 005f 8B       		.byte	(.L14-.L12)/2
 326 0060 A3       		.byte	(.L13-.L12)/2
 327 0061 18       		.byte	(.L11-.L12)/2
 328              		.p2align 1
 329              	.L19:
  42:Proliferation.cpp ****         case 0:
 330              		.loc 12 42 9 view .LVU63
  43:Proliferation.cpp ****             if(button.RisingEdge() && !buffers[0].IsRecording()) {
 331              		.loc 12 43 13 view .LVU64
 332              	.LVL14:
 333              	.LBB562:
 334              	.LBI562:
  43:../../libDaisy//src/hid/switch.h **** 
  44:../../libDaisy//src/hid/switch.h ****     /** 
  45:../../libDaisy//src/hid/switch.h ****     Initializes the switch object with a given port/pin combo.
  46:../../libDaisy//src/hid/switch.h ****     \param pin port/pin object to tell the switch which hardware pin to use.
  47:../../libDaisy//src/hid/switch.h ****     \param update_rate Does nothing. Backwards compatibility until next breaking update.
  48:../../libDaisy//src/hid/switch.h ****     \param t switch type -- Default: TYPE_MOMENTARY
  49:../../libDaisy//src/hid/switch.h ****     \param pol switch polarity -- Default: POLARITY_INVERTED
  50:../../libDaisy//src/hid/switch.h ****     \param pu switch pull up/down -- Default: PULL_UP
  51:../../libDaisy//src/hid/switch.h ****     */
  52:../../libDaisy//src/hid/switch.h ****     void
  53:../../libDaisy//src/hid/switch.h ****     Init(dsy_gpio_pin pin, float update_rate, Type t, Polarity pol, Pull pu);
  54:../../libDaisy//src/hid/switch.h **** 
  55:../../libDaisy//src/hid/switch.h ****     /**
  56:../../libDaisy//src/hid/switch.h ****        Simplified Init.
  57:../../libDaisy//src/hid/switch.h ****        \param pin port/pin object to tell the switch which hardware pin to use.
  58:../../libDaisy//src/hid/switch.h ****        \param update_rate Left for backwards compatibility until next breaking change.
  59:../../libDaisy//src/hid/switch.h ****     */
  60:../../libDaisy//src/hid/switch.h ****     void Init(dsy_gpio_pin pin, float update_rate = 0.f);
  61:../../libDaisy//src/hid/switch.h **** 
  62:../../libDaisy//src/hid/switch.h ****     /** 
  63:../../libDaisy//src/hid/switch.h ****     Called at update_rate to debounce and handle timing for the switch.
  64:../../libDaisy//src/hid/switch.h ****     In order for events not to be missed, its important that the Edge/Pressed checks
  65:../../libDaisy//src/hid/switch.h ****     be made at the same rate as the debounce function is being called.
  66:../../libDaisy//src/hid/switch.h ****     */
  67:../../libDaisy//src/hid/switch.h ****     void Debounce();
  68:../../libDaisy//src/hid/switch.h **** 
  69:../../libDaisy//src/hid/switch.h ****     /** \return true if a button was just pressed. */
  70:../../libDaisy//src/hid/switch.h ****     inline bool RisingEdge() const { return updated_ ? state_ == 0x7f : false; }
 335              		.loc 1 70 17 view .LVU65
 336              	.LBB563:
 337              		.loc 1 70 38 view .LVU66
 338              		.loc 1 70 45 is_stmt 0 view .LVU67
 339 0062 9A4B     		ldr	r3, .L88+4
 340              		.loc 1 70 54 view .LVU68
 341 0064 1979     		ldrb	r1, [r3, #4]	@ zero_extendqisi2
 342 0066 79B1     		cbz	r1, .L7
 343              		.loc 1 70 56 view .LVU69
 344 0068 9B7A     		ldrb	r3, [r3, #10]	@ zero_extendqisi2
 345              	.LVL15:
 346              		.loc 1 70 56 view .LVU70
 347              	.LBE563:
 348              	.LBE562:
ARM GAS  C:\Users\daniel\AppData\Local\Temp\cczs0lix.s 			page 23


 349              		.loc 12 43 36 view .LVU71
 350 006a 7F2B     		cmp	r3, #127
 351 006c 40F0B180 		bne	.L20
 352              	.LVL16:
 353              	.LBB564:
 354              	.LBI564:
  49:samplebuffer.h ****     }
  50:samplebuffer.h **** 
  51:samplebuffer.h ****     // testing reverse play 
  52:samplebuffer.h ****     void PlayBackward(bool start = true)
  53:samplebuffer.h ****     {
  54:samplebuffer.h ****         playing_  = start;
  55:samplebuffer.h ****         read_ptr_back_ = kBufferSize;
  56:samplebuffer.h ****     }
  57:samplebuffer.h **** 
  58:samplebuffer.h **** 
  59:samplebuffer.h ****     float Process(const float sample)
  60:samplebuffer.h ****     {
  61:samplebuffer.h ****         Write(sample);
  62:samplebuffer.h ****         return Read();
  63:samplebuffer.h ****     }
  64:samplebuffer.h **** 
  65:samplebuffer.h ****     // testing reverse play
  66:samplebuffer.h ****     float ProcessBack(const float sample)
  67:samplebuffer.h ****     {
  68:samplebuffer.h ****         Write(sample);
  69:samplebuffer.h ****         return ReadBack();
  70:samplebuffer.h ****     }
  71:samplebuffer.h **** 
  72:samplebuffer.h ****     void Write(const float sample)
  73:samplebuffer.h ****     {
  74:samplebuffer.h ****         if(recording_)
  75:samplebuffer.h ****         {
  76:samplebuffer.h ****             buffer_[write_ptr_] = sample;
  77:samplebuffer.h ****             write_ptr_++;
  78:samplebuffer.h ****             if(write_ptr_ >= kBufferSize)
  79:samplebuffer.h ****             {
  80:samplebuffer.h ****                 recording_ = false;
  81:samplebuffer.h ****                 write_ptr_ = 0;
  82:samplebuffer.h ****             }
  83:samplebuffer.h ****         }
  84:samplebuffer.h ****     }
  85:samplebuffer.h **** 
  86:samplebuffer.h ****     float Read()
  87:samplebuffer.h ****     {
  88:samplebuffer.h ****         if(playing_)
  89:samplebuffer.h ****         {
  90:samplebuffer.h ****             float out = buffer_[read_ptr_];
  91:samplebuffer.h ****             read_ptr_++;
  92:samplebuffer.h ****             if(read_ptr_ >= kBufferSize)
  93:samplebuffer.h ****             {
  94:samplebuffer.h ****                 playing_  = false;
  95:samplebuffer.h ****                 read_ptr_ = 0;
  96:samplebuffer.h ****             }
  97:samplebuffer.h ****             return out;
  98:samplebuffer.h ****         }
  99:samplebuffer.h ****         else
ARM GAS  C:\Users\daniel\AppData\Local\Temp\cczs0lix.s 			page 24


 100:samplebuffer.h ****         {
 101:samplebuffer.h ****             return 0.f;
 102:samplebuffer.h ****         }
 103:samplebuffer.h ****     }
 104:samplebuffer.h **** 
 105:samplebuffer.h ****     // testing reverse play 
 106:samplebuffer.h ****     float ReadBack()
 107:samplebuffer.h ****     {
 108:samplebuffer.h ****         if(playing_)
 109:samplebuffer.h ****         {
 110:samplebuffer.h ****             float outback = buffer_[read_ptr_back_];
 111:samplebuffer.h ****             read_ptr_back_--;
 112:samplebuffer.h ****             if(read_ptr_back_ <= 0)
 113:samplebuffer.h ****             {
 114:samplebuffer.h ****                 playing_  = false;
 115:samplebuffer.h ****                 read_ptr_back_ = kBufferSize;
 116:samplebuffer.h ****             }
 117:samplebuffer.h ****             return outback;
 118:samplebuffer.h ****         }
 119:samplebuffer.h ****         else
 120:samplebuffer.h ****         {
 121:samplebuffer.h ****             return 0.f;
 122:samplebuffer.h ****         }
 123:samplebuffer.h ****     }
 124:samplebuffer.h **** 
 125:samplebuffer.h ****     bool IsPlaying() const { return playing_; }
 126:samplebuffer.h ****     bool IsRecording() const { return recording_; }
 355              		.loc 13 126 10 is_stmt 1 view .LVU72
 356              	.LBB565:
 357              		.loc 13 126 39 is_stmt 0 view .LVU73
 358 0070 994C     		ldr	r4, .L88+16
 359              	.LVL17:
 360              		.loc 13 126 39 view .LVU74
 361              	.LBE565:
 362              	.LBE564:
 363              		.loc 12 43 36 view .LVU75
 364 0072 657B     		ldrb	r5, [r4, #13]	@ zero_extendqisi2
 365              	.LVL18:
 366              		.loc 12 43 36 view .LVU76
 367 0074 45B9     		cbnz	r5, .L7
 368              	.LBB566:
 369              	.LBB567:
 370              	.LBB568:
 371              	.LBB569:
  31:samplebuffer.h ****         }
 372              		.loc 13 31 24 view .LVU77
 373 0076 9B4A     		ldr	r2, .L88+28
 374 0078 2946     		mov	r1, r5
 375 007a 04F11000 		add	r0, r4, #16
 376 007e FFF7FEFF 		bl	memset
 377              	.LVL19:
 378              	.LBE569:
 379              	.LBE568:
  41:samplebuffer.h ****         write_ptr_ = 0;
 380              		.loc 13 41 20 view .LVU78
 381 0082 0123     		movs	r3, #1
  42:samplebuffer.h ****     }
ARM GAS  C:\Users\daniel\AppData\Local\Temp\cczs0lix.s 			page 25


 382              		.loc 13 42 20 view .LVU79
 383 0084 2560     		str	r5, [r4]
  41:samplebuffer.h ****         write_ptr_ = 0;
 384              		.loc 13 41 20 view .LVU80
 385 0086 6373     		strb	r3, [r4, #13]
 386              	.L7:
 387              	.LBE567:
 388              	.LBE566:
  44:Proliferation.cpp ****                 buffers[0].Record();
  45:Proliferation.cpp ****             } else if(button.FallingEdge() && buffers[0].IsRecording()) {
  46:Proliferation.cpp ****                 buffers[0].Record(false);
  47:Proliferation.cpp ****                 s++;
  48:Proliferation.cpp ****             }
  49:Proliferation.cpp ****             break;;
  50:Proliferation.cpp ****         case 1:
  51:Proliferation.cpp ****             if(button.RisingEdge() && !buffers[1].IsRecording()) {
  52:Proliferation.cpp ****                 buffers[1].Record();
  53:Proliferation.cpp ****             } else if(button.FallingEdge() && buffers[1].IsRecording()) {
  54:Proliferation.cpp ****                 buffers[1].Record(false);
  55:Proliferation.cpp ****                 s++;
  56:Proliferation.cpp ****             }
  57:Proliferation.cpp ****             break;;
  58:Proliferation.cpp ****         case 2:
  59:Proliferation.cpp ****             if(button.RisingEdge() && !buffers[2].IsRecording()) {
  60:Proliferation.cpp ****                 buffers[2].Record();
  61:Proliferation.cpp ****             } else if(button.FallingEdge() && buffers[2].IsRecording()) {
  62:Proliferation.cpp ****                 buffers[2].Record(false);
  63:Proliferation.cpp ****                 s++;
  64:Proliferation.cpp ****             }
  65:Proliferation.cpp ****             break;;
  66:Proliferation.cpp ****         case 3:
  67:Proliferation.cpp ****             if(button.RisingEdge() && !buffers[3].IsRecording()) {
  68:Proliferation.cpp ****                 buffers[3].Record();
  69:Proliferation.cpp ****             } else if(button.FallingEdge() && buffers[3].IsRecording()) {
  70:Proliferation.cpp ****                 buffers[3].Record(false);
  71:Proliferation.cpp ****                 s++;
  72:Proliferation.cpp ****             }
  73:Proliferation.cpp ****             break;;
  74:Proliferation.cpp ****         case 4:
  75:Proliferation.cpp ****             if(button.RisingEdge() && !buffers[4].IsRecording()) {
  76:Proliferation.cpp ****                 buffers[4].Record();
  77:Proliferation.cpp ****             } else if(button.FallingEdge() && buffers[4].IsRecording()) {
  78:Proliferation.cpp ****                 buffers[4].Record(false);
  79:Proliferation.cpp ****                 s++;
  80:Proliferation.cpp ****             }
  81:Proliferation.cpp ****             break;;
  82:Proliferation.cpp ****         case 5:
  83:Proliferation.cpp ****             if(button.RisingEdge() && !buffers[5].IsRecording()) {
  84:Proliferation.cpp ****                 buffers[5].Record();
  85:Proliferation.cpp ****             } else if(button.FallingEdge() && buffers[5].IsRecording()) {
  86:Proliferation.cpp ****                 buffers[5].Record(false);
  87:Proliferation.cpp ****                 s++;
  88:Proliferation.cpp ****             }
  89:Proliferation.cpp ****             break;;
  90:Proliferation.cpp ****         case 6:
  91:Proliferation.cpp ****             if(button.RisingEdge() && !buffers[6].IsRecording()) {
  92:Proliferation.cpp ****                 buffers[6].Record();
ARM GAS  C:\Users\daniel\AppData\Local\Temp\cczs0lix.s 			page 26


  93:Proliferation.cpp ****             } else if(button.FallingEdge() && buffers[6].IsRecording()) {
  94:Proliferation.cpp ****                 buffers[6].Record(false);
  95:Proliferation.cpp ****                 s++;
  96:Proliferation.cpp ****             }
  97:Proliferation.cpp ****             break;;
  98:Proliferation.cpp ****         case 7:
  99:Proliferation.cpp ****             if(button.RisingEdge() && !buffers[7].IsRecording()) {
 100:Proliferation.cpp ****                 buffers[7].Record();
 101:Proliferation.cpp ****             } else if(button.FallingEdge() && buffers[7].IsRecording()) {
 102:Proliferation.cpp ****                 buffers[7].Record(false);
 103:Proliferation.cpp ****                 s++;
 104:Proliferation.cpp ****             }
 105:Proliferation.cpp ****             break;;
 106:Proliferation.cpp ****     }
 107:Proliferation.cpp **** 
 108:Proliferation.cpp **** }
 389              		.loc 12 108 1 view .LVU81
 390 0088 38BD     		pop	{r3, r4, r5, pc}
 391              	.LVL20:
 392              	.L11:
  97:Proliferation.cpp ****         case 7:
 393              		.loc 12 97 19 is_stmt 1 view .LVU82
  98:Proliferation.cpp ****             if(button.RisingEdge() && !buffers[7].IsRecording()) {
 394              		.loc 12 98 9 view .LVU83
  99:Proliferation.cpp ****                 buffers[7].Record();
 395              		.loc 12 99 13 view .LVU84
 396              	.LBB570:
 397              	.LBI570:
 398              		.loc 1 70 17 view .LVU85
 399              	.LBB571:
 400              		.loc 1 70 38 view .LVU86
 401              		.loc 1 70 45 is_stmt 0 view .LVU87
 402 008a 904B     		ldr	r3, .L88+4
 403              		.loc 1 70 54 view .LVU88
 404 008c 1979     		ldrb	r1, [r3, #4]	@ zero_extendqisi2
 405 008e 0029     		cmp	r1, #0
 406 0090 FAD0     		beq	.L7
 407              		.loc 1 70 56 view .LVU89
 408 0092 9B7A     		ldrb	r3, [r3, #10]	@ zero_extendqisi2
 409              	.LVL21:
 410              		.loc 1 70 56 view .LVU90
 411              	.LBE571:
 412              	.LBE570:
  99:Proliferation.cpp ****                 buffers[7].Record();
 413              		.loc 12 99 36 view .LVU91
 414 0094 7F2B     		cmp	r3, #127
 415 0096 00F0AA80 		beq	.L81
 101:Proliferation.cpp ****                 buffers[7].Record(false);
 416              		.loc 12 101 20 is_stmt 1 view .LVU92
 417              	.LVL22:
  71:../../libDaisy//src/hid/switch.h **** 
  72:../../libDaisy//src/hid/switch.h ****     /** \return true if the button was just released */
  73:../../libDaisy//src/hid/switch.h ****     inline bool FallingEdge() const
  74:../../libDaisy//src/hid/switch.h ****     {
  75:../../libDaisy//src/hid/switch.h ****         return updated_ ? state_ == 0x80 : false;
 418              		.loc 1 75 9 view .LVU93
 101:Proliferation.cpp ****                 buffers[7].Record(false);
ARM GAS  C:\Users\daniel\AppData\Local\Temp\cczs0lix.s 			page 27


 419              		.loc 12 101 44 is_stmt 0 view .LVU94
 420 009a 802B     		cmp	r3, #128
 421 009c F4D1     		bne	.L7
 422              	.LVL23:
 423              	.LBB572:
 424              	.LBI572:
 425              		.loc 13 126 10 is_stmt 1 view .LVU95
 426              	.LBB573:
 427              		.loc 13 126 39 is_stmt 0 view .LVU96
 428 009e 924B     		ldr	r3, .L88+32
 429              	.LBE573:
 430              	.LBE572:
 101:Proliferation.cpp ****                 buffers[7].Record(false);
 431              		.loc 12 101 44 view .LVU97
 432 00a0 93F87D1A 		ldrb	r1, [r3, #2685]	@ zero_extendqisi2
 433 00a4 0029     		cmp	r1, #0
 434 00a6 EFD0     		beq	.L7
 102:Proliferation.cpp ****                 s++;
 435              		.loc 12 102 17 is_stmt 1 view .LVU98
 436              	.LVL24:
 437              	.LBB574:
 438              	.LBI574:
  35:samplebuffer.h ****     {
 439              		.loc 13 35 10 view .LVU99
 440              	.LBB575:
  41:samplebuffer.h ****         write_ptr_ = 0;
 441              		.loc 13 41 20 is_stmt 0 view .LVU100
 442 00a8 0021     		movs	r1, #0
 443              	.LBE575:
 444              	.LBE574:
 103:Proliferation.cpp ****             }
 445              		.loc 12 103 18 view .LVU101
 446 00aa 0820     		movs	r0, #8
 447              	.LBB577:
 448              	.LBB576:
  41:samplebuffer.h ****         write_ptr_ = 0;
 449              		.loc 13 41 20 view .LVU102
 450 00ac 83F87D1A 		strb	r1, [r3, #2685]
  42:samplebuffer.h ****     }
 451              		.loc 13 42 20 view .LVU103
 452 00b0 C3F8701A 		str	r1, [r3, #2672]
 453              	.LVL25:
  42:samplebuffer.h ****     }
 454              		.loc 13 42 20 view .LVU104
 455              	.LBE576:
 456              	.LBE577:
 103:Proliferation.cpp ****             }
 457              		.loc 12 103 17 is_stmt 1 view .LVU105
 103:Proliferation.cpp ****             }
 458              		.loc 12 103 18 is_stmt 0 view .LVU106
 459 00b4 1060     		str	r0, [r2]
 105:Proliferation.cpp ****     }
 460              		.loc 12 105 19 is_stmt 1 view .LVU107
 461              		.loc 12 108 1 is_stmt 0 view .LVU108
 462 00b6 38BD     		pop	{r3, r4, r5, pc}
 463              	.LVL26:
 464              	.L18:
ARM GAS  C:\Users\daniel\AppData\Local\Temp\cczs0lix.s 			page 28


  49:Proliferation.cpp ****         case 1:
 465              		.loc 12 49 19 is_stmt 1 view .LVU109
  50:Proliferation.cpp ****             if(button.RisingEdge() && !buffers[1].IsRecording()) {
 466              		.loc 12 50 9 view .LVU110
  51:Proliferation.cpp ****                 buffers[1].Record();
 467              		.loc 12 51 13 view .LVU111
 468              	.LBB578:
 469              	.LBI578:
  70:../../libDaisy//src/hid/switch.h **** 
 470              		.loc 1 70 17 view .LVU112
 471              	.LBB579:
  70:../../libDaisy//src/hid/switch.h **** 
 472              		.loc 1 70 38 view .LVU113
  70:../../libDaisy//src/hid/switch.h **** 
 473              		.loc 1 70 45 is_stmt 0 view .LVU114
 474 00b8 844B     		ldr	r3, .L88+4
  70:../../libDaisy//src/hid/switch.h **** 
 475              		.loc 1 70 54 view .LVU115
 476 00ba 1979     		ldrb	r1, [r3, #4]	@ zero_extendqisi2
 477 00bc 0029     		cmp	r1, #0
 478 00be E3D0     		beq	.L7
  70:../../libDaisy//src/hid/switch.h **** 
 479              		.loc 1 70 56 view .LVU116
 480 00c0 9B7A     		ldrb	r3, [r3, #10]	@ zero_extendqisi2
 481              	.LVL27:
  70:../../libDaisy//src/hid/switch.h **** 
 482              		.loc 1 70 56 view .LVU117
 483              	.LBE579:
 484              	.LBE578:
  51:Proliferation.cpp ****                 buffers[1].Record();
 485              		.loc 12 51 36 view .LVU118
 486 00c2 7F2B     		cmp	r3, #127
 487 00c4 00F0B780 		beq	.L82
  53:Proliferation.cpp ****                 buffers[1].Record(false);
 488              		.loc 12 53 20 is_stmt 1 view .LVU119
 489              	.LVL28:
 490              		.loc 1 75 9 view .LVU120
  53:Proliferation.cpp ****                 buffers[1].Record(false);
 491              		.loc 12 53 44 is_stmt 0 view .LVU121
 492 00c8 802B     		cmp	r3, #128
 493 00ca DDD1     		bne	.L7
 494              	.LVL29:
 495              	.LBB580:
 496              	.LBI580:
 497              		.loc 13 126 10 is_stmt 1 view .LVU122
 498              	.LBB581:
 499              		.loc 13 126 39 is_stmt 0 view .LVU123
 500 00cc 874B     		ldr	r3, .L88+36
 501              	.LBE581:
 502              	.LBE580:
  53:Proliferation.cpp ****                 buffers[1].Record(false);
 503              		.loc 12 53 44 view .LVU124
 504 00ce 93F81D16 		ldrb	r1, [r3, #1565]	@ zero_extendqisi2
 505 00d2 0029     		cmp	r1, #0
 506 00d4 D8D0     		beq	.L7
  54:Proliferation.cpp ****                 s++;
 507              		.loc 12 54 17 is_stmt 1 view .LVU125
ARM GAS  C:\Users\daniel\AppData\Local\Temp\cczs0lix.s 			page 29


 508              	.LVL30:
 509              	.LBB582:
 510              	.LBI582:
  35:samplebuffer.h ****     {
 511              		.loc 13 35 10 view .LVU126
 512              	.LBB583:
  41:samplebuffer.h ****         write_ptr_ = 0;
 513              		.loc 13 41 20 is_stmt 0 view .LVU127
 514 00d6 0021     		movs	r1, #0
 515              	.LBE583:
 516              	.LBE582:
  55:Proliferation.cpp ****             }
 517              		.loc 12 55 18 view .LVU128
 518 00d8 0220     		movs	r0, #2
 519              	.LBB585:
 520              	.LBB584:
  41:samplebuffer.h ****         write_ptr_ = 0;
 521              		.loc 13 41 20 view .LVU129
 522 00da 83F81D16 		strb	r1, [r3, #1565]
  42:samplebuffer.h ****     }
 523              		.loc 13 42 20 view .LVU130
 524 00de C3F81016 		str	r1, [r3, #1552]
 525              	.LVL31:
  42:samplebuffer.h ****     }
 526              		.loc 13 42 20 view .LVU131
 527              	.LBE584:
 528              	.LBE585:
  55:Proliferation.cpp ****             }
 529              		.loc 12 55 17 is_stmt 1 view .LVU132
  55:Proliferation.cpp ****             }
 530              		.loc 12 55 18 is_stmt 0 view .LVU133
 531 00e2 1060     		str	r0, [r2]
 532              		.loc 12 108 1 view .LVU134
 533 00e4 38BD     		pop	{r3, r4, r5, pc}
 534              	.LVL32:
 535              	.L17:
  57:Proliferation.cpp ****         case 2:
 536              		.loc 12 57 19 is_stmt 1 view .LVU135
  58:Proliferation.cpp ****             if(button.RisingEdge() && !buffers[2].IsRecording()) {
 537              		.loc 12 58 9 view .LVU136
  59:Proliferation.cpp ****                 buffers[2].Record();
 538              		.loc 12 59 13 view .LVU137
 539              	.LBB586:
 540              	.LBI586:
  70:../../libDaisy//src/hid/switch.h **** 
 541              		.loc 1 70 17 view .LVU138
 542              	.LBB587:
  70:../../libDaisy//src/hid/switch.h **** 
 543              		.loc 1 70 38 view .LVU139
  70:../../libDaisy//src/hid/switch.h **** 
 544              		.loc 1 70 45 is_stmt 0 view .LVU140
 545 00e6 794B     		ldr	r3, .L88+4
  70:../../libDaisy//src/hid/switch.h **** 
 546              		.loc 1 70 54 view .LVU141
 547 00e8 1979     		ldrb	r1, [r3, #4]	@ zero_extendqisi2
 548 00ea 0029     		cmp	r1, #0
 549 00ec CCD0     		beq	.L7
ARM GAS  C:\Users\daniel\AppData\Local\Temp\cczs0lix.s 			page 30


  70:../../libDaisy//src/hid/switch.h **** 
 550              		.loc 1 70 56 view .LVU142
 551 00ee 9B7A     		ldrb	r3, [r3, #10]	@ zero_extendqisi2
 552              	.LVL33:
  70:../../libDaisy//src/hid/switch.h **** 
 553              		.loc 1 70 56 view .LVU143
 554              	.LBE587:
 555              	.LBE586:
  59:Proliferation.cpp ****                 buffers[2].Record();
 556              		.loc 12 59 36 view .LVU144
 557 00f0 7F2B     		cmp	r3, #127
 558 00f2 00F08E80 		beq	.L83
  61:Proliferation.cpp ****                 buffers[2].Record(false);
 559              		.loc 12 61 20 is_stmt 1 view .LVU145
 560              	.LVL34:
 561              		.loc 1 75 9 view .LVU146
  61:Proliferation.cpp ****                 buffers[2].Record(false);
 562              		.loc 12 61 44 is_stmt 0 view .LVU147
 563 00f6 802B     		cmp	r3, #128
 564 00f8 C6D1     		bne	.L7
 565              	.LVL35:
 566              	.LBB588:
 567              	.LBI588:
 568              		.loc 13 126 10 is_stmt 1 view .LVU148
 569              	.LBB589:
 570              		.loc 13 126 39 is_stmt 0 view .LVU149
 571 00fa 7D4B     		ldr	r3, .L88+40
 572              	.LBE589:
 573              	.LBE588:
  61:Proliferation.cpp ****                 buffers[2].Record(false);
 574              		.loc 12 61 44 view .LVU150
 575 00fc 93F82D1C 		ldrb	r1, [r3, #3117]	@ zero_extendqisi2
 576 0100 0029     		cmp	r1, #0
 577 0102 C1D0     		beq	.L7
  62:Proliferation.cpp ****                 s++;
 578              		.loc 12 62 17 is_stmt 1 view .LVU151
 579              	.LVL36:
 580              	.LBB590:
 581              	.LBI590:
  35:samplebuffer.h ****     {
 582              		.loc 13 35 10 view .LVU152
 583              	.LBB591:
  41:samplebuffer.h ****         write_ptr_ = 0;
 584              		.loc 13 41 20 is_stmt 0 view .LVU153
 585 0104 0021     		movs	r1, #0
 586              	.LBE591:
 587              	.LBE590:
  63:Proliferation.cpp ****             }
 588              		.loc 12 63 18 view .LVU154
 589 0106 0320     		movs	r0, #3
 590              	.LBB593:
 591              	.LBB592:
  41:samplebuffer.h ****         write_ptr_ = 0;
 592              		.loc 13 41 20 view .LVU155
 593 0108 83F82D1C 		strb	r1, [r3, #3117]
  42:samplebuffer.h ****     }
 594              		.loc 13 42 20 view .LVU156
ARM GAS  C:\Users\daniel\AppData\Local\Temp\cczs0lix.s 			page 31


 595 010c C3F8201C 		str	r1, [r3, #3104]
 596              	.LVL37:
  42:samplebuffer.h ****     }
 597              		.loc 13 42 20 view .LVU157
 598              	.LBE592:
 599              	.LBE593:
  63:Proliferation.cpp ****             }
 600              		.loc 12 63 17 is_stmt 1 view .LVU158
  63:Proliferation.cpp ****             }
 601              		.loc 12 63 18 is_stmt 0 view .LVU159
 602 0110 1060     		str	r0, [r2]
 603              		.loc 12 108 1 view .LVU160
 604 0112 38BD     		pop	{r3, r4, r5, pc}
 605              	.LVL38:
 606              	.L16:
  65:Proliferation.cpp ****         case 3:
 607              		.loc 12 65 19 is_stmt 1 view .LVU161
  66:Proliferation.cpp ****             if(button.RisingEdge() && !buffers[3].IsRecording()) {
 608              		.loc 12 66 9 view .LVU162
  67:Proliferation.cpp ****                 buffers[3].Record();
 609              		.loc 12 67 13 view .LVU163
 610              	.LBB594:
 611              	.LBI594:
  70:../../libDaisy//src/hid/switch.h **** 
 612              		.loc 1 70 17 view .LVU164
 613              	.LBB595:
  70:../../libDaisy//src/hid/switch.h **** 
 614              		.loc 1 70 38 view .LVU165
  70:../../libDaisy//src/hid/switch.h **** 
 615              		.loc 1 70 45 is_stmt 0 view .LVU166
 616 0114 6D4B     		ldr	r3, .L88+4
  70:../../libDaisy//src/hid/switch.h **** 
 617              		.loc 1 70 54 view .LVU167
 618 0116 1979     		ldrb	r1, [r3, #4]	@ zero_extendqisi2
 619 0118 0029     		cmp	r1, #0
 620 011a B5D0     		beq	.L7
  70:../../libDaisy//src/hid/switch.h **** 
 621              		.loc 1 70 56 view .LVU168
 622 011c 9B7A     		ldrb	r3, [r3, #10]	@ zero_extendqisi2
 623              	.LVL39:
  70:../../libDaisy//src/hid/switch.h **** 
 624              		.loc 1 70 56 view .LVU169
 625              	.LBE595:
 626              	.LBE594:
  67:Proliferation.cpp ****                 buffers[3].Record();
 627              		.loc 12 67 36 view .LVU170
 628 011e 7F2B     		cmp	r3, #127
 629 0120 00F0AD80 		beq	.L84
  69:Proliferation.cpp ****                 buffers[3].Record(false);
 630              		.loc 12 69 20 is_stmt 1 view .LVU171
 631              	.LVL40:
 632              		.loc 1 75 9 view .LVU172
  69:Proliferation.cpp ****                 buffers[3].Record(false);
 633              		.loc 12 69 44 is_stmt 0 view .LVU173
 634 0124 802B     		cmp	r3, #128
 635 0126 AFD1     		bne	.L7
 636              	.LVL41:
ARM GAS  C:\Users\daniel\AppData\Local\Temp\cczs0lix.s 			page 32


 637              	.LBB596:
 638              	.LBI596:
 639              		.loc 13 126 10 is_stmt 1 view .LVU174
 640              	.LBB597:
 641              		.loc 13 126 39 is_stmt 0 view .LVU175
 642 0128 724B     		ldr	r3, .L88+44
 643              	.LBE597:
 644              	.LBE596:
  69:Proliferation.cpp ****                 buffers[3].Record(false);
 645              		.loc 12 69 44 view .LVU176
 646 012a 93F83D12 		ldrb	r1, [r3, #573]	@ zero_extendqisi2
 647 012e 0029     		cmp	r1, #0
 648 0130 AAD0     		beq	.L7
  70:Proliferation.cpp ****                 s++;
 649              		.loc 12 70 17 is_stmt 1 view .LVU177
 650              	.LVL42:
 651              	.LBB598:
 652              	.LBI598:
  35:samplebuffer.h ****     {
 653              		.loc 13 35 10 view .LVU178
 654              	.LBB599:
  41:samplebuffer.h ****         write_ptr_ = 0;
 655              		.loc 13 41 20 is_stmt 0 view .LVU179
 656 0132 0021     		movs	r1, #0
 657              	.LBE599:
 658              	.LBE598:
  71:Proliferation.cpp ****             }
 659              		.loc 12 71 18 view .LVU180
 660 0134 0420     		movs	r0, #4
 661              	.LBB601:
 662              	.LBB600:
  41:samplebuffer.h ****         write_ptr_ = 0;
 663              		.loc 13 41 20 view .LVU181
 664 0136 83F83D12 		strb	r1, [r3, #573]
  42:samplebuffer.h ****     }
 665              		.loc 13 42 20 view .LVU182
 666 013a C3F83012 		str	r1, [r3, #560]
 667              	.LVL43:
  42:samplebuffer.h ****     }
 668              		.loc 13 42 20 view .LVU183
 669              	.LBE600:
 670              	.LBE601:
  71:Proliferation.cpp ****             }
 671              		.loc 12 71 17 is_stmt 1 view .LVU184
  71:Proliferation.cpp ****             }
 672              		.loc 12 71 18 is_stmt 0 view .LVU185
 673 013e 1060     		str	r0, [r2]
 674              		.loc 12 108 1 view .LVU186
 675 0140 38BD     		pop	{r3, r4, r5, pc}
 676              	.LVL44:
 677              	.L15:
  73:Proliferation.cpp ****         case 4:
 678              		.loc 12 73 19 is_stmt 1 view .LVU187
  74:Proliferation.cpp ****             if(button.RisingEdge() && !buffers[4].IsRecording()) {
 679              		.loc 12 74 9 view .LVU188
  75:Proliferation.cpp ****                 buffers[4].Record();
 680              		.loc 12 75 13 view .LVU189
ARM GAS  C:\Users\daniel\AppData\Local\Temp\cczs0lix.s 			page 33


 681              	.LBB602:
 682              	.LBI602:
  70:../../libDaisy//src/hid/switch.h **** 
 683              		.loc 1 70 17 view .LVU190
 684              	.LBB603:
  70:../../libDaisy//src/hid/switch.h **** 
 685              		.loc 1 70 38 view .LVU191
  70:../../libDaisy//src/hid/switch.h **** 
 686              		.loc 1 70 45 is_stmt 0 view .LVU192
 687 0142 624B     		ldr	r3, .L88+4
  70:../../libDaisy//src/hid/switch.h **** 
 688              		.loc 1 70 54 view .LVU193
 689 0144 1979     		ldrb	r1, [r3, #4]	@ zero_extendqisi2
 690 0146 0029     		cmp	r1, #0
 691 0148 9ED0     		beq	.L7
  70:../../libDaisy//src/hid/switch.h **** 
 692              		.loc 1 70 56 view .LVU194
 693 014a 9B7A     		ldrb	r3, [r3, #10]	@ zero_extendqisi2
 694              	.LVL45:
  70:../../libDaisy//src/hid/switch.h **** 
 695              		.loc 1 70 56 view .LVU195
 696              	.LBE603:
 697              	.LBE602:
  75:Proliferation.cpp ****                 buffers[4].Record();
 698              		.loc 12 75 36 view .LVU196
 699 014c 7F2B     		cmp	r3, #127
 700 014e 00F08480 		beq	.L85
  77:Proliferation.cpp ****                 buffers[4].Record(false);
 701              		.loc 12 77 20 is_stmt 1 view .LVU197
 702              	.LVL46:
 703              		.loc 1 75 9 view .LVU198
  77:Proliferation.cpp ****                 buffers[4].Record(false);
 704              		.loc 12 77 44 is_stmt 0 view .LVU199
 705 0152 802B     		cmp	r3, #128
 706 0154 98D1     		bne	.L7
 707              	.LVL47:
 708              	.LBB604:
 709              	.LBI604:
 710              		.loc 13 126 10 is_stmt 1 view .LVU200
 711              	.LBB605:
 712              		.loc 13 126 39 is_stmt 0 view .LVU201
 713 0156 684B     		ldr	r3, .L88+48
 714              	.LBE605:
 715              	.LBE604:
  77:Proliferation.cpp ****                 buffers[4].Record(false);
 716              		.loc 12 77 44 view .LVU202
 717 0158 93F84D18 		ldrb	r1, [r3, #2125]	@ zero_extendqisi2
 718 015c 0029     		cmp	r1, #0
 719 015e 93D0     		beq	.L7
  78:Proliferation.cpp ****                 s++;
 720              		.loc 12 78 17 is_stmt 1 view .LVU203
 721              	.LVL48:
 722              	.LBB606:
 723              	.LBI606:
  35:samplebuffer.h ****     {
 724              		.loc 13 35 10 view .LVU204
 725              	.LBB607:
ARM GAS  C:\Users\daniel\AppData\Local\Temp\cczs0lix.s 			page 34


  41:samplebuffer.h ****         write_ptr_ = 0;
 726              		.loc 13 41 20 is_stmt 0 view .LVU205
 727 0160 0021     		movs	r1, #0
 728              	.LBE607:
 729              	.LBE606:
  79:Proliferation.cpp ****             }
 730              		.loc 12 79 18 view .LVU206
 731 0162 0520     		movs	r0, #5
 732              	.LBB609:
 733              	.LBB608:
  41:samplebuffer.h ****         write_ptr_ = 0;
 734              		.loc 13 41 20 view .LVU207
 735 0164 83F84D18 		strb	r1, [r3, #2125]
  42:samplebuffer.h ****     }
 736              		.loc 13 42 20 view .LVU208
 737 0168 C3F84018 		str	r1, [r3, #2112]
 738              	.LVL49:
  42:samplebuffer.h ****     }
 739              		.loc 13 42 20 view .LVU209
 740              	.LBE608:
 741              	.LBE609:
  79:Proliferation.cpp ****             }
 742              		.loc 12 79 17 is_stmt 1 view .LVU210
  79:Proliferation.cpp ****             }
 743              		.loc 12 79 18 is_stmt 0 view .LVU211
 744 016c 1060     		str	r0, [r2]
 745              		.loc 12 108 1 view .LVU212
 746 016e 38BD     		pop	{r3, r4, r5, pc}
 747              	.LVL50:
 748              	.L14:
  81:Proliferation.cpp ****         case 5:
 749              		.loc 12 81 19 is_stmt 1 view .LVU213
  82:Proliferation.cpp ****             if(button.RisingEdge() && !buffers[5].IsRecording()) {
 750              		.loc 12 82 9 view .LVU214
  83:Proliferation.cpp ****                 buffers[5].Record();
 751              		.loc 12 83 13 view .LVU215
 752              	.LBB610:
 753              	.LBI610:
  70:../../libDaisy//src/hid/switch.h **** 
 754              		.loc 1 70 17 view .LVU216
 755              	.LBB611:
  70:../../libDaisy//src/hid/switch.h **** 
 756              		.loc 1 70 38 view .LVU217
  70:../../libDaisy//src/hid/switch.h **** 
 757              		.loc 1 70 45 is_stmt 0 view .LVU218
 758 0170 564B     		ldr	r3, .L88+4
  70:../../libDaisy//src/hid/switch.h **** 
 759              		.loc 1 70 54 view .LVU219
 760 0172 1979     		ldrb	r1, [r3, #4]	@ zero_extendqisi2
 761 0174 0029     		cmp	r1, #0
 762 0176 87D0     		beq	.L7
  70:../../libDaisy//src/hid/switch.h **** 
 763              		.loc 1 70 56 view .LVU220
 764 0178 9B7A     		ldrb	r3, [r3, #10]	@ zero_extendqisi2
 765              	.LVL51:
  70:../../libDaisy//src/hid/switch.h **** 
 766              		.loc 1 70 56 view .LVU221
ARM GAS  C:\Users\daniel\AppData\Local\Temp\cczs0lix.s 			page 35


 767              	.LBE611:
 768              	.LBE610:
  83:Proliferation.cpp ****                 buffers[5].Record();
 769              		.loc 12 83 36 view .LVU222
 770 017a 7F2B     		cmp	r3, #127
 771 017c 00F0C280 		beq	.L86
  85:Proliferation.cpp ****                 buffers[5].Record(false);
 772              		.loc 12 85 20 is_stmt 1 view .LVU223
 773              	.LVL52:
 774              		.loc 1 75 9 view .LVU224
  85:Proliferation.cpp ****                 buffers[5].Record(false);
 775              		.loc 12 85 44 is_stmt 0 view .LVU225
 776 0180 802B     		cmp	r3, #128
 777 0182 81D1     		bne	.L7
 778              	.LVL53:
 779              	.LBB612:
 780              	.LBI612:
 781              		.loc 13 126 10 is_stmt 1 view .LVU226
 782              	.LBB613:
 783              		.loc 13 126 39 is_stmt 0 view .LVU227
 784 0184 5D4B     		ldr	r3, .L88+52
 785              	.LBE613:
 786              	.LBE612:
  85:Proliferation.cpp ****                 buffers[5].Record(false);
 787              		.loc 12 85 44 view .LVU228
 788 0186 93F85D1E 		ldrb	r1, [r3, #3677]	@ zero_extendqisi2
 789 018a 0029     		cmp	r1, #0
 790 018c 3FF47CAF 		beq	.L7
  86:Proliferation.cpp ****                 s++;
 791              		.loc 12 86 17 is_stmt 1 view .LVU229
 792              	.LVL54:
 793              	.LBB614:
 794              	.LBI614:
  35:samplebuffer.h ****     {
 795              		.loc 13 35 10 view .LVU230
 796              	.LBB615:
  41:samplebuffer.h ****         write_ptr_ = 0;
 797              		.loc 13 41 20 is_stmt 0 view .LVU231
 798 0190 0021     		movs	r1, #0
 799              	.LBE615:
 800              	.LBE614:
  87:Proliferation.cpp ****             }
 801              		.loc 12 87 18 view .LVU232
 802 0192 0620     		movs	r0, #6
 803              	.LBB617:
 804              	.LBB616:
  41:samplebuffer.h ****         write_ptr_ = 0;
 805              		.loc 13 41 20 view .LVU233
 806 0194 83F85D1E 		strb	r1, [r3, #3677]
  42:samplebuffer.h ****     }
 807              		.loc 13 42 20 view .LVU234
 808 0198 C3F8501E 		str	r1, [r3, #3664]
 809              	.LVL55:
  42:samplebuffer.h ****     }
 810              		.loc 13 42 20 view .LVU235
 811              	.LBE616:
 812              	.LBE617:
ARM GAS  C:\Users\daniel\AppData\Local\Temp\cczs0lix.s 			page 36


  87:Proliferation.cpp ****             }
 813              		.loc 12 87 17 is_stmt 1 view .LVU236
  87:Proliferation.cpp ****             }
 814              		.loc 12 87 18 is_stmt 0 view .LVU237
 815 019c 1060     		str	r0, [r2]
 816              		.loc 12 108 1 view .LVU238
 817 019e 38BD     		pop	{r3, r4, r5, pc}
 818              	.LVL56:
 819              	.L13:
  89:Proliferation.cpp ****         case 6:
 820              		.loc 12 89 19 is_stmt 1 view .LVU239
  90:Proliferation.cpp ****             if(button.RisingEdge() && !buffers[6].IsRecording()) {
 821              		.loc 12 90 9 view .LVU240
  91:Proliferation.cpp ****                 buffers[6].Record();
 822              		.loc 12 91 13 view .LVU241
 823              	.LBB618:
 824              	.LBI618:
  70:../../libDaisy//src/hid/switch.h **** 
 825              		.loc 1 70 17 view .LVU242
 826              	.LBB619:
  70:../../libDaisy//src/hid/switch.h **** 
 827              		.loc 1 70 38 view .LVU243
  70:../../libDaisy//src/hid/switch.h **** 
 828              		.loc 1 70 45 is_stmt 0 view .LVU244
 829 01a0 4A4B     		ldr	r3, .L88+4
  70:../../libDaisy//src/hid/switch.h **** 
 830              		.loc 1 70 54 view .LVU245
 831 01a2 1979     		ldrb	r1, [r3, #4]	@ zero_extendqisi2
 832 01a4 0029     		cmp	r1, #0
 833 01a6 3FF46FAF 		beq	.L7
  70:../../libDaisy//src/hid/switch.h **** 
 834              		.loc 1 70 56 view .LVU246
 835 01aa 9B7A     		ldrb	r3, [r3, #10]	@ zero_extendqisi2
 836              	.LVL57:
  70:../../libDaisy//src/hid/switch.h **** 
 837              		.loc 1 70 56 view .LVU247
 838              	.LBE619:
 839              	.LBE618:
  91:Proliferation.cpp ****                 buffers[6].Record();
 840              		.loc 12 91 36 view .LVU248
 841 01ac 7F2B     		cmp	r3, #127
 842 01ae 78D0     		beq	.L87
  93:Proliferation.cpp ****                 buffers[6].Record(false);
 843              		.loc 12 93 20 is_stmt 1 view .LVU249
 844              	.LVL58:
 845              		.loc 1 75 9 view .LVU250
  93:Proliferation.cpp ****                 buffers[6].Record(false);
 846              		.loc 12 93 44 is_stmt 0 view .LVU251
 847 01b0 802B     		cmp	r3, #128
 848 01b2 7FF469AF 		bne	.L7
 849              	.LVL59:
 850              	.LBB620:
 851              	.LBI620:
 852              		.loc 13 126 10 is_stmt 1 view .LVU252
 853              	.LBB621:
 854              		.loc 13 126 39 is_stmt 0 view .LVU253
 855 01b6 524B     		ldr	r3, .L88+56
ARM GAS  C:\Users\daniel\AppData\Local\Temp\cczs0lix.s 			page 37


 856              	.LBE621:
 857              	.LBE620:
  93:Proliferation.cpp ****                 buffers[6].Record(false);
 858              		.loc 12 93 44 view .LVU254
 859 01b8 93F86D14 		ldrb	r1, [r3, #1133]	@ zero_extendqisi2
 860 01bc 0029     		cmp	r1, #0
 861 01be 3FF463AF 		beq	.L7
  94:Proliferation.cpp ****                 s++;
 862              		.loc 12 94 17 is_stmt 1 view .LVU255
 863              	.LVL60:
 864              	.LBB622:
 865              	.LBI622:
  35:samplebuffer.h ****     {
 866              		.loc 13 35 10 view .LVU256
 867              	.LBB623:
  41:samplebuffer.h ****         write_ptr_ = 0;
 868              		.loc 13 41 20 is_stmt 0 view .LVU257
 869 01c2 0021     		movs	r1, #0
 870              	.LBE623:
 871              	.LBE622:
  95:Proliferation.cpp ****             }
 872              		.loc 12 95 18 view .LVU258
 873 01c4 0720     		movs	r0, #7
 874              	.LBB625:
 875              	.LBB624:
  41:samplebuffer.h ****         write_ptr_ = 0;
 876              		.loc 13 41 20 view .LVU259
 877 01c6 83F86D14 		strb	r1, [r3, #1133]
  42:samplebuffer.h ****     }
 878              		.loc 13 42 20 view .LVU260
 879 01ca C3F86014 		str	r1, [r3, #1120]
 880              	.LVL61:
  42:samplebuffer.h ****     }
 881              		.loc 13 42 20 view .LVU261
 882              	.LBE624:
 883              	.LBE625:
  95:Proliferation.cpp ****             }
 884              		.loc 12 95 17 is_stmt 1 view .LVU262
  95:Proliferation.cpp ****             }
 885              		.loc 12 95 18 is_stmt 0 view .LVU263
 886 01ce 1060     		str	r0, [r2]
 887              		.loc 12 108 1 view .LVU264
 888 01d0 38BD     		pop	{r3, r4, r5, pc}
 889              	.LVL62:
 890              	.L20:
  45:Proliferation.cpp ****                 buffers[0].Record(false);
 891              		.loc 12 45 20 is_stmt 1 view .LVU265
 892              		.loc 1 75 9 view .LVU266
  45:Proliferation.cpp ****                 buffers[0].Record(false);
 893              		.loc 12 45 44 is_stmt 0 view .LVU267
 894 01d2 802B     		cmp	r3, #128
 895 01d4 7FF458AF 		bne	.L7
 896              	.LVL63:
 897              	.LBB626:
 898              	.LBI626:
 899              		.loc 13 126 10 is_stmt 1 view .LVU268
 900              	.LBB627:
ARM GAS  C:\Users\daniel\AppData\Local\Temp\cczs0lix.s 			page 38


 901              		.loc 13 126 39 is_stmt 0 view .LVU269
 902 01d8 3F4B     		ldr	r3, .L88+16
 903              	.LBE627:
 904              	.LBE626:
  45:Proliferation.cpp ****                 buffers[0].Record(false);
 905              		.loc 12 45 44 view .LVU270
 906 01da 597B     		ldrb	r1, [r3, #13]	@ zero_extendqisi2
 907 01dc 0029     		cmp	r1, #0
 908 01de 3FF453AF 		beq	.L7
  46:Proliferation.cpp ****                 s++;
 909              		.loc 12 46 17 is_stmt 1 view .LVU271
 910              	.LVL64:
 911              	.LBB628:
 912              	.LBI628:
  35:samplebuffer.h ****     {
 913              		.loc 13 35 10 view .LVU272
 914              	.LBB629:
  41:samplebuffer.h ****         write_ptr_ = 0;
 915              		.loc 13 41 20 is_stmt 0 view .LVU273
 916 01e2 0021     		movs	r1, #0
 917              	.LBE629:
 918              	.LBE628:
  47:Proliferation.cpp ****             }
 919              		.loc 12 47 18 view .LVU274
 920 01e4 0120     		movs	r0, #1
 921              	.LBB631:
 922              	.LBB630:
  41:samplebuffer.h ****         write_ptr_ = 0;
 923              		.loc 13 41 20 view .LVU275
 924 01e6 5973     		strb	r1, [r3, #13]
  42:samplebuffer.h ****     }
 925              		.loc 13 42 20 view .LVU276
 926 01e8 1960     		str	r1, [r3]
 927              	.LVL65:
  42:samplebuffer.h ****     }
 928              		.loc 13 42 20 view .LVU277
 929              	.LBE630:
 930              	.LBE631:
  47:Proliferation.cpp ****             }
 931              		.loc 12 47 17 is_stmt 1 view .LVU278
  47:Proliferation.cpp ****             }
 932              		.loc 12 47 18 is_stmt 0 view .LVU279
 933 01ea 1060     		str	r0, [r2]
 934              		.loc 12 108 1 view .LVU280
 935 01ec 38BD     		pop	{r3, r4, r5, pc}
 936              	.LVL66:
 937              	.L81:
 938              	.LBB632:
 939              	.LBI632:
 940              		.loc 13 126 10 is_stmt 1 view .LVU281
 941              	.LBB633:
 942              		.loc 13 126 39 is_stmt 0 view .LVU282
 943 01ee 3E4C     		ldr	r4, .L88+32
 944              	.LVL67:
 945              		.loc 13 126 39 view .LVU283
 946              	.LBE633:
 947              	.LBE632:
ARM GAS  C:\Users\daniel\AppData\Local\Temp\cczs0lix.s 			page 39


  99:Proliferation.cpp ****                 buffers[7].Record();
 948              		.loc 12 99 36 view .LVU284
 949 01f0 94F87D5A 		ldrb	r5, [r4, #2685]	@ zero_extendqisi2
 950              	.LVL68:
  99:Proliferation.cpp ****                 buffers[7].Record();
 951              		.loc 12 99 36 view .LVU285
 952 01f4 002D     		cmp	r5, #0
 953 01f6 7FF447AF 		bne	.L7
 954              	.LBB634:
 955              	.LBB635:
 956              	.LBB636:
 957              	.LBB637:
  31:samplebuffer.h ****         }
 958              		.loc 13 31 24 view .LVU286
 959 01fa 3A4A     		ldr	r2, .L88+28
 960 01fc 2946     		mov	r1, r5
 961 01fe 04F52860 		add	r0, r4, #2688
 962 0202 FFF7FEFF 		bl	memset
 963              	.LVL69:
 964              	.LBE637:
 965              	.LBE636:
  41:samplebuffer.h ****         write_ptr_ = 0;
 966              		.loc 13 41 20 view .LVU287
 967 0206 0123     		movs	r3, #1
  42:samplebuffer.h ****     }
 968              		.loc 13 42 20 view .LVU288
 969 0208 C4F8705A 		str	r5, [r4, #2672]
  41:samplebuffer.h ****         write_ptr_ = 0;
 970              		.loc 13 41 20 view .LVU289
 971 020c 84F87D3A 		strb	r3, [r4, #2685]
 972              	.LBE635:
 973              	.LBE634:
 974              		.loc 12 108 1 view .LVU290
 975 0210 38BD     		pop	{r3, r4, r5, pc}
 976              	.LVL70:
 977              	.L83:
 978              	.LBB638:
 979              	.LBI638:
 980              		.loc 13 126 10 is_stmt 1 view .LVU291
 981              	.LBB639:
 982              		.loc 13 126 39 is_stmt 0 view .LVU292
 983 0212 374C     		ldr	r4, .L88+40
 984              	.LVL71:
 985              		.loc 13 126 39 view .LVU293
 986              	.LBE639:
 987              	.LBE638:
  59:Proliferation.cpp ****                 buffers[2].Record();
 988              		.loc 12 59 36 view .LVU294
 989 0214 94F82D5C 		ldrb	r5, [r4, #3117]	@ zero_extendqisi2
 990              	.LVL72:
  59:Proliferation.cpp ****                 buffers[2].Record();
 991              		.loc 12 59 36 view .LVU295
 992 0218 002D     		cmp	r5, #0
 993 021a 7FF435AF 		bne	.L7
 994              	.LBB640:
 995              	.LBB641:
 996              	.LBB642:
ARM GAS  C:\Users\daniel\AppData\Local\Temp\cczs0lix.s 			page 40


 997              	.LBB643:
  31:samplebuffer.h ****         }
 998              		.loc 13 31 24 view .LVU296
 999 021e 314A     		ldr	r2, .L88+28
 1000 0220 2946     		mov	r1, r5
 1001 0222 04F54360 		add	r0, r4, #3120
 1002 0226 FFF7FEFF 		bl	memset
 1003              	.LVL73:
 1004              	.LBE643:
 1005              	.LBE642:
  41:samplebuffer.h ****         write_ptr_ = 0;
 1006              		.loc 13 41 20 view .LVU297
 1007 022a 0123     		movs	r3, #1
  42:samplebuffer.h ****     }
 1008              		.loc 13 42 20 view .LVU298
 1009 022c C4F8205C 		str	r5, [r4, #3104]
  41:samplebuffer.h ****         write_ptr_ = 0;
 1010              		.loc 13 41 20 view .LVU299
 1011 0230 84F82D3C 		strb	r3, [r4, #3117]
 1012              	.LBE641:
 1013              	.LBE640:
 1014              		.loc 12 108 1 view .LVU300
 1015 0234 38BD     		pop	{r3, r4, r5, pc}
 1016              	.LVL74:
 1017              	.L82:
 1018              	.LBB644:
 1019              	.LBI644:
 1020              		.loc 13 126 10 is_stmt 1 view .LVU301
 1021              	.LBB645:
 1022              		.loc 13 126 39 is_stmt 0 view .LVU302
 1023 0236 2D4C     		ldr	r4, .L88+36
 1024              	.LVL75:
 1025              		.loc 13 126 39 view .LVU303
 1026              	.LBE645:
 1027              	.LBE644:
  51:Proliferation.cpp ****                 buffers[1].Record();
 1028              		.loc 12 51 36 view .LVU304
 1029 0238 94F81D56 		ldrb	r5, [r4, #1565]	@ zero_extendqisi2
 1030              	.LVL76:
  51:Proliferation.cpp ****                 buffers[1].Record();
 1031              		.loc 12 51 36 view .LVU305
 1032 023c 002D     		cmp	r5, #0
 1033 023e 7FF423AF 		bne	.L7
 1034              	.LBB646:
 1035              	.LBB647:
 1036              	.LBB648:
 1037              	.LBB649:
  31:samplebuffer.h ****         }
 1038              		.loc 13 31 24 view .LVU306
 1039 0242 284A     		ldr	r2, .L88+28
 1040 0244 2946     		mov	r1, r5
 1041 0246 04F5C460 		add	r0, r4, #1568
 1042 024a FFF7FEFF 		bl	memset
 1043              	.LVL77:
 1044              	.LBE649:
 1045              	.LBE648:
  41:samplebuffer.h ****         write_ptr_ = 0;
ARM GAS  C:\Users\daniel\AppData\Local\Temp\cczs0lix.s 			page 41


 1046              		.loc 13 41 20 view .LVU307
 1047 024e 0123     		movs	r3, #1
  42:samplebuffer.h ****     }
 1048              		.loc 13 42 20 view .LVU308
 1049 0250 C4F81056 		str	r5, [r4, #1552]
  41:samplebuffer.h ****         write_ptr_ = 0;
 1050              		.loc 13 41 20 view .LVU309
 1051 0254 84F81D36 		strb	r3, [r4, #1565]
 1052              	.LBE647:
 1053              	.LBE646:
 1054              		.loc 12 108 1 view .LVU310
 1055 0258 38BD     		pop	{r3, r4, r5, pc}
 1056              	.LVL78:
 1057              	.L85:
 1058              	.LBB650:
 1059              	.LBI650:
 1060              		.loc 13 126 10 is_stmt 1 view .LVU311
 1061              	.LBB651:
 1062              		.loc 13 126 39 is_stmt 0 view .LVU312
 1063 025a 274C     		ldr	r4, .L88+48
 1064              	.LVL79:
 1065              		.loc 13 126 39 view .LVU313
 1066              	.LBE651:
 1067              	.LBE650:
  75:Proliferation.cpp ****                 buffers[4].Record();
 1068              		.loc 12 75 36 view .LVU314
 1069 025c 94F84D58 		ldrb	r5, [r4, #2125]	@ zero_extendqisi2
 1070              	.LVL80:
  75:Proliferation.cpp ****                 buffers[4].Record();
 1071              		.loc 12 75 36 view .LVU315
 1072 0260 002D     		cmp	r5, #0
 1073 0262 7FF411AF 		bne	.L7
 1074              	.LBB652:
 1075              	.LBB653:
 1076              	.LBB654:
 1077              	.LBB655:
  31:samplebuffer.h ****         }
 1078              		.loc 13 31 24 view .LVU316
 1079 0266 1F4A     		ldr	r2, .L88+28
 1080 0268 2946     		mov	r1, r5
 1081 026a 04F50560 		add	r0, r4, #2128
 1082 026e FFF7FEFF 		bl	memset
 1083              	.LVL81:
 1084              	.LBE655:
 1085              	.LBE654:
  41:samplebuffer.h ****         write_ptr_ = 0;
 1086              		.loc 13 41 20 view .LVU317
 1087 0272 0123     		movs	r3, #1
  42:samplebuffer.h ****     }
 1088              		.loc 13 42 20 view .LVU318
 1089 0274 C4F84058 		str	r5, [r4, #2112]
  41:samplebuffer.h ****         write_ptr_ = 0;
 1090              		.loc 13 41 20 view .LVU319
 1091 0278 84F84D38 		strb	r3, [r4, #2125]
 1092              	.LBE653:
 1093              	.LBE652:
 1094              		.loc 12 108 1 view .LVU320
ARM GAS  C:\Users\daniel\AppData\Local\Temp\cczs0lix.s 			page 42


 1095 027c 38BD     		pop	{r3, r4, r5, pc}
 1096              	.LVL82:
 1097              	.L84:
 1098              	.LBB656:
 1099              	.LBI656:
 1100              		.loc 13 126 10 is_stmt 1 view .LVU321
 1101              	.LBB657:
 1102              		.loc 13 126 39 is_stmt 0 view .LVU322
 1103 027e 1D4C     		ldr	r4, .L88+44
 1104              	.LVL83:
 1105              		.loc 13 126 39 view .LVU323
 1106              	.LBE657:
 1107              	.LBE656:
  67:Proliferation.cpp ****                 buffers[3].Record();
 1108              		.loc 12 67 36 view .LVU324
 1109 0280 94F83D52 		ldrb	r5, [r4, #573]	@ zero_extendqisi2
 1110              	.LVL84:
  67:Proliferation.cpp ****                 buffers[3].Record();
 1111              		.loc 12 67 36 view .LVU325
 1112 0284 002D     		cmp	r5, #0
 1113 0286 7FF4FFAE 		bne	.L7
 1114              	.LBB658:
 1115              	.LBB659:
 1116              	.LBB660:
 1117              	.LBB661:
  31:samplebuffer.h ****         }
 1118              		.loc 13 31 24 view .LVU326
 1119 028a 164A     		ldr	r2, .L88+28
 1120 028c 2946     		mov	r1, r5
 1121 028e 04F51070 		add	r0, r4, #576
 1122 0292 FFF7FEFF 		bl	memset
 1123              	.LVL85:
 1124              	.LBE661:
 1125              	.LBE660:
  41:samplebuffer.h ****         write_ptr_ = 0;
 1126              		.loc 13 41 20 view .LVU327
 1127 0296 0123     		movs	r3, #1
  42:samplebuffer.h ****     }
 1128              		.loc 13 42 20 view .LVU328
 1129 0298 C4F83052 		str	r5, [r4, #560]
  41:samplebuffer.h ****         write_ptr_ = 0;
 1130              		.loc 13 41 20 view .LVU329
 1131 029c 84F83D32 		strb	r3, [r4, #573]
 1132              	.LBE659:
 1133              	.LBE658:
 1134              		.loc 12 108 1 view .LVU330
 1135 02a0 38BD     		pop	{r3, r4, r5, pc}
 1136              	.LVL86:
 1137              	.L87:
 1138              	.LBB662:
 1139              	.LBI662:
 1140              		.loc 13 126 10 is_stmt 1 view .LVU331
 1141              	.LBB663:
 1142              		.loc 13 126 39 is_stmt 0 view .LVU332
 1143 02a2 174C     		ldr	r4, .L88+56
 1144              	.LVL87:
 1145              		.loc 13 126 39 view .LVU333
ARM GAS  C:\Users\daniel\AppData\Local\Temp\cczs0lix.s 			page 43


 1146              	.LBE663:
 1147              	.LBE662:
  91:Proliferation.cpp ****                 buffers[6].Record();
 1148              		.loc 12 91 36 view .LVU334
 1149 02a4 94F86D54 		ldrb	r5, [r4, #1133]	@ zero_extendqisi2
 1150              	.LVL88:
  91:Proliferation.cpp ****                 buffers[6].Record();
 1151              		.loc 12 91 36 view .LVU335
 1152 02a8 002D     		cmp	r5, #0
 1153 02aa 7FF4EDAE 		bne	.L7
 1154              	.LBB664:
 1155              	.LBB665:
 1156              	.LBB666:
 1157              	.LBB667:
  31:samplebuffer.h ****         }
 1158              		.loc 13 31 24 view .LVU336
 1159 02ae 0D4A     		ldr	r2, .L88+28
 1160 02b0 2946     		mov	r1, r5
 1161 02b2 04F58E60 		add	r0, r4, #1136
 1162 02b6 FFF7FEFF 		bl	memset
 1163              	.LVL89:
 1164              	.LBE667:
 1165              	.LBE666:
  41:samplebuffer.h ****         write_ptr_ = 0;
 1166              		.loc 13 41 20 view .LVU337
 1167 02ba 0123     		movs	r3, #1
  42:samplebuffer.h ****     }
 1168              		.loc 13 42 20 view .LVU338
 1169 02bc C4F86054 		str	r5, [r4, #1120]
  41:samplebuffer.h ****         write_ptr_ = 0;
 1170              		.loc 13 41 20 view .LVU339
 1171 02c0 84F86D34 		strb	r3, [r4, #1133]
 1172              	.LBE665:
 1173              	.LBE664:
 1174              		.loc 12 108 1 view .LVU340
 1175 02c4 38BD     		pop	{r3, r4, r5, pc}
 1176              	.L89:
 1177 02c6 00BF     		.align	2
 1178              	.L88:
 1179 02c8 00000000 		.word	.LANCHOR0
 1180 02cc 00000000 		.word	.LANCHOR1
 1181 02d0 00000000 		.word	.LANCHOR2
 1182 02d4 B7010000 		.word	.LANCHOR0+439
 1183 02d8 00000000 		.word	buffers
 1184 02dc 10A60E00 		.word	960016
 1185 02e0 00000000 		.word	.LANCHOR3
 1186 02e4 00A60E00 		.word	960000
 1187 02e8 00806600 		.word	buffers+6717440
 1188 02ec 00A00E00 		.word	buffers+958464
 1189 02f0 00401D00 		.word	buffers+1916928
 1190 02f4 00F02B00 		.word	buffers+2879488
 1191 02f8 00903A00 		.word	buffers+3837952
 1192 02fc 00304900 		.word	buffers+4796416
 1193 0300 00E05700 		.word	buffers+5758976
 1194              	.LVL90:
 1195              	.L86:
 1196              	.LBB668:
ARM GAS  C:\Users\daniel\AppData\Local\Temp\cczs0lix.s 			page 44


 1197              	.LBI668:
 1198              		.loc 13 126 10 is_stmt 1 view .LVU341
 1199              	.LBB669:
 1200              		.loc 13 126 39 is_stmt 0 view .LVU342
 1201 0304 084C     		ldr	r4, .L90
 1202              	.LVL91:
 1203              		.loc 13 126 39 view .LVU343
 1204              	.LBE669:
 1205              	.LBE668:
  83:Proliferation.cpp ****                 buffers[5].Record();
 1206              		.loc 12 83 36 view .LVU344
 1207 0306 94F85D5E 		ldrb	r5, [r4, #3677]	@ zero_extendqisi2
 1208              	.LVL92:
  83:Proliferation.cpp ****                 buffers[5].Record();
 1209              		.loc 12 83 36 view .LVU345
 1210 030a 002D     		cmp	r5, #0
 1211 030c 7FF4BCAE 		bne	.L7
 1212              	.LBB670:
 1213              	.LBB671:
 1214              	.LBB672:
 1215              	.LBB673:
  31:samplebuffer.h ****         }
 1216              		.loc 13 31 24 view .LVU346
 1217 0310 064A     		ldr	r2, .L90+4
 1218 0312 2946     		mov	r1, r5
 1219 0314 04F56660 		add	r0, r4, #3680
 1220 0318 FFF7FEFF 		bl	memset
 1221              	.LVL93:
 1222              	.LBE673:
 1223              	.LBE672:
  41:samplebuffer.h ****         write_ptr_ = 0;
 1224              		.loc 13 41 20 view .LVU347
 1225 031c 0123     		movs	r3, #1
  42:samplebuffer.h ****     }
 1226              		.loc 13 42 20 view .LVU348
 1227 031e C4F8505E 		str	r5, [r4, #3664]
  41:samplebuffer.h ****         write_ptr_ = 0;
 1228              		.loc 13 41 20 view .LVU349
 1229 0322 84F85D3E 		strb	r3, [r4, #3677]
 1230              	.LBE671:
 1231              	.LBE670:
 1232              		.loc 12 108 1 view .LVU350
 1233 0326 38BD     		pop	{r3, r4, r5, pc}
 1234              	.L91:
 1235              		.align	2
 1236              	.L90:
 1237 0328 00304900 		.word	buffers+4796416
 1238 032c 00A60E00 		.word	960000
 1239              		.cfi_endproc
 1240              	.LFE4842:
 1242              		.section	.text._Z13AudioCallbackPKPKfPPfj,"ax",%progbits
 1243              		.align	1
 1244              		.p2align 2,,3
 1245              		.global	_Z13AudioCallbackPKPKfPPfj
 1246              		.syntax unified
 1247              		.thumb
 1248              		.thumb_func
ARM GAS  C:\Users\daniel\AppData\Local\Temp\cczs0lix.s 			page 45


 1249              		.fpu fpv5-d16
 1251              	_Z13AudioCallbackPKPKfPPfj:
 1252              	.LVL94:
 1253              	.LFB4844:
 109:Proliferation.cpp **** 
 110:Proliferation.cpp **** void AudioCallback(AudioHandle::InputBuffer in, AudioHandle::OutputBuffer out, size_t size)
 111:Proliferation.cpp **** {   
 1254              		.loc 12 111 1 is_stmt 1 view -0
 1255              		.cfi_startproc
 1256              		@ args = 0, pretend = 0, frame = 16
 1257              		@ frame_needed = 0, uses_anonymous_args = 0
 112:Proliferation.cpp **** 	getSamples();
 1258              		.loc 12 112 2 view .LVU352
 111:Proliferation.cpp **** 	getSamples();
 1259              		.loc 12 111 1 is_stmt 0 view .LVU353
 1260 0000 2DE9F04F 		push	{r4, r5, r6, r7, r8, r9, r10, fp, lr}
 1261              		.cfi_def_cfa_offset 36
 1262              		.cfi_offset 4, -36
 1263              		.cfi_offset 5, -32
 1264              		.cfi_offset 6, -28
 1265              		.cfi_offset 7, -24
 1266              		.cfi_offset 8, -20
 1267              		.cfi_offset 9, -16
 1268              		.cfi_offset 10, -12
 1269              		.cfi_offset 11, -8
 1270              		.cfi_offset 14, -4
 1271 0004 2DED048B 		vpush.64	{d8, d9}
 1272              		.cfi_def_cfa_offset 52
 1273              		.cfi_offset 80, -52
 1274              		.cfi_offset 81, -48
 1275              		.cfi_offset 82, -44
 1276              		.cfi_offset 83, -40
 1277 0008 87B0     		sub	sp, sp, #28
 1278              		.cfi_def_cfa_offset 80
 1279              	.LBB728:
 1280              	.LBB729:
 1281              		.file 14 "../../DaisySP//Source/Utility/dsp.h"
   1:../../DaisySP//Source/Utility/dsp.h **** /** Helpful defines, functions, and other utilities for use in/with daisysp modules.
   2:../../DaisySP//Source/Utility/dsp.h **** */
   3:../../DaisySP//Source/Utility/dsp.h **** #pragma once
   4:../../DaisySP//Source/Utility/dsp.h **** #ifndef DSY_CORE_DSP
   5:../../DaisySP//Source/Utility/dsp.h **** #define DSY_CORE_DSP
   6:../../DaisySP//Source/Utility/dsp.h **** #include <cassert>
   7:../../DaisySP//Source/Utility/dsp.h **** #include <cstdint>
   8:../../DaisySP//Source/Utility/dsp.h **** #include <random>
   9:../../DaisySP//Source/Utility/dsp.h **** #include <cmath>
  10:../../DaisySP//Source/Utility/dsp.h **** 
  11:../../DaisySP//Source/Utility/dsp.h **** /** PIs
  12:../../DaisySP//Source/Utility/dsp.h **** */
  13:../../DaisySP//Source/Utility/dsp.h **** #define PI_F 3.1415927410125732421875f
  14:../../DaisySP//Source/Utility/dsp.h **** #define TWOPI_F (2.0f * PI_F)
  15:../../DaisySP//Source/Utility/dsp.h **** #define HALFPI_F (PI_F * 0.5f)
  16:../../DaisySP//Source/Utility/dsp.h **** #define DSY_MIN(in, mn) (in < mn ? in : mn)
  17:../../DaisySP//Source/Utility/dsp.h **** #define DSY_MAX(in, mx) (in > mx ? in : mx)
  18:../../DaisySP//Source/Utility/dsp.h **** #define DSY_CLAMP(in, mn, mx) (DSY_MIN(DSY_MAX(in, mn), mx))
  19:../../DaisySP//Source/Utility/dsp.h **** #define DSY_COUNTOF(_arr) (sizeof(_arr) / sizeof(_arr[0]))
  20:../../DaisySP//Source/Utility/dsp.h **** 
ARM GAS  C:\Users\daniel\AppData\Local\Temp\cczs0lix.s 			page 46


  21:../../DaisySP//Source/Utility/dsp.h **** namespace daisysp
  22:../../DaisySP//Source/Utility/dsp.h **** {
  23:../../DaisySP//Source/Utility/dsp.h **** //Avoids division for random floats. e.g. rand() * kRandFrac
  24:../../DaisySP//Source/Utility/dsp.h **** static constexpr float kRandFrac = 1.f / (float)RAND_MAX;
  25:../../DaisySP//Source/Utility/dsp.h **** 
  26:../../DaisySP//Source/Utility/dsp.h **** //Convert from semitones to other units. e.g. 2 ^ (kOneTwelfth * x)
  27:../../DaisySP//Source/Utility/dsp.h **** static constexpr float kOneTwelfth = 1.f / 12.f;
  28:../../DaisySP//Source/Utility/dsp.h **** 
  29:../../DaisySP//Source/Utility/dsp.h **** /** efficient floating point min/max
  30:../../DaisySP//Source/Utility/dsp.h **** c/o stephen mccaul
  31:../../DaisySP//Source/Utility/dsp.h **** */
  32:../../DaisySP//Source/Utility/dsp.h **** inline float fmax(float a, float b)
  33:../../DaisySP//Source/Utility/dsp.h **** {
  34:../../DaisySP//Source/Utility/dsp.h ****     float r;
  35:../../DaisySP//Source/Utility/dsp.h **** #ifdef __arm__
  36:../../DaisySP//Source/Utility/dsp.h ****     asm("vmaxnm.f32 %[d], %[n], %[m]" : [d] "=t"(r) : [n] "t"(a), [m] "t"(b) :);
  37:../../DaisySP//Source/Utility/dsp.h **** #else
  38:../../DaisySP//Source/Utility/dsp.h ****     r = (a > b) ? a : b;
  39:../../DaisySP//Source/Utility/dsp.h **** #endif // __arm__
  40:../../DaisySP//Source/Utility/dsp.h ****     return r;
  41:../../DaisySP//Source/Utility/dsp.h **** }
  42:../../DaisySP//Source/Utility/dsp.h **** 
  43:../../DaisySP//Source/Utility/dsp.h **** inline float fmin(float a, float b)
  44:../../DaisySP//Source/Utility/dsp.h **** {
  45:../../DaisySP//Source/Utility/dsp.h ****     float r;
  46:../../DaisySP//Source/Utility/dsp.h **** #ifdef __arm__
  47:../../DaisySP//Source/Utility/dsp.h ****     asm("vminnm.f32 %[d], %[n], %[m]" : [d] "=t"(r) : [n] "t"(a), [m] "t"(b) :);
  48:../../DaisySP//Source/Utility/dsp.h **** #else
  49:../../DaisySP//Source/Utility/dsp.h ****     r = (a < b) ? a : b;
  50:../../DaisySP//Source/Utility/dsp.h **** #endif // __arm__
  51:../../DaisySP//Source/Utility/dsp.h ****     return r;
  52:../../DaisySP//Source/Utility/dsp.h **** }
  53:../../DaisySP//Source/Utility/dsp.h **** 
  54:../../DaisySP//Source/Utility/dsp.h **** /** quick fp clamp
  55:../../DaisySP//Source/Utility/dsp.h **** */
  56:../../DaisySP//Source/Utility/dsp.h **** inline float fclamp(float in, float min, float max)
  57:../../DaisySP//Source/Utility/dsp.h **** {
  58:../../DaisySP//Source/Utility/dsp.h ****     return fmin(fmax(in, min), max);
  59:../../DaisySP//Source/Utility/dsp.h **** }
  60:../../DaisySP//Source/Utility/dsp.h **** 
  61:../../DaisySP//Source/Utility/dsp.h **** /** From Musicdsp.org "Fast power and root estimates for 32bit floats)
  62:../../DaisySP//Source/Utility/dsp.h **** Original code by Stefan Stenzel
  63:../../DaisySP//Source/Utility/dsp.h **** These are approximations
  64:../../DaisySP//Source/Utility/dsp.h **** */
  65:../../DaisySP//Source/Utility/dsp.h **** inline float fastpower(float f, int n)
  66:../../DaisySP//Source/Utility/dsp.h **** {
  67:../../DaisySP//Source/Utility/dsp.h ****     long *lp, l;
  68:../../DaisySP//Source/Utility/dsp.h ****     lp = (long *)(&f);
  69:../../DaisySP//Source/Utility/dsp.h ****     l  = *lp;
  70:../../DaisySP//Source/Utility/dsp.h ****     l -= 0x3F800000;
  71:../../DaisySP//Source/Utility/dsp.h ****     l <<= (n - 1);
  72:../../DaisySP//Source/Utility/dsp.h ****     l += 0x3F800000;
  73:../../DaisySP//Source/Utility/dsp.h ****     *lp = l;
  74:../../DaisySP//Source/Utility/dsp.h ****     return f;
  75:../../DaisySP//Source/Utility/dsp.h **** }
  76:../../DaisySP//Source/Utility/dsp.h **** 
  77:../../DaisySP//Source/Utility/dsp.h **** inline float fastroot(float f, int n)
ARM GAS  C:\Users\daniel\AppData\Local\Temp\cczs0lix.s 			page 47


  78:../../DaisySP//Source/Utility/dsp.h **** {
  79:../../DaisySP//Source/Utility/dsp.h ****     long *lp, l;
  80:../../DaisySP//Source/Utility/dsp.h ****     lp = (long *)(&f);
  81:../../DaisySP//Source/Utility/dsp.h ****     l  = *lp;
  82:../../DaisySP//Source/Utility/dsp.h ****     l -= 0x3F800000;
  83:../../DaisySP//Source/Utility/dsp.h ****     l >>= (n = 1);
  84:../../DaisySP//Source/Utility/dsp.h ****     l += 0x3F800000;
  85:../../DaisySP//Source/Utility/dsp.h ****     *lp = l;
  86:../../DaisySP//Source/Utility/dsp.h ****     return f;
  87:../../DaisySP//Source/Utility/dsp.h **** }
  88:../../DaisySP//Source/Utility/dsp.h **** 
  89:../../DaisySP//Source/Utility/dsp.h **** /** From http://openaudio.blogspot.com/2017/02/faster-log10-and-pow.html
  90:../../DaisySP//Source/Utility/dsp.h **** No approximation, pow10f(x) gives a 90% speed increase over powf(10.f, x)
  91:../../DaisySP//Source/Utility/dsp.h **** */
  92:../../DaisySP//Source/Utility/dsp.h **** inline float pow10f(float f)
  93:../../DaisySP//Source/Utility/dsp.h **** {
  94:../../DaisySP//Source/Utility/dsp.h ****     return expf(2.302585092994046f * f);
  95:../../DaisySP//Source/Utility/dsp.h **** }
  96:../../DaisySP//Source/Utility/dsp.h **** 
  97:../../DaisySP//Source/Utility/dsp.h **** /* Original code for fastlog2f by Dr. Paul Beckmann from the ARM community forum, adapted from the 
  98:../../DaisySP//Source/Utility/dsp.h **** About 25% performance increase over std::log10f
  99:../../DaisySP//Source/Utility/dsp.h **** */
 100:../../DaisySP//Source/Utility/dsp.h **** inline float fastlog2f(float f)
 101:../../DaisySP//Source/Utility/dsp.h **** {
 102:../../DaisySP//Source/Utility/dsp.h ****     float frac;
 103:../../DaisySP//Source/Utility/dsp.h ****     int   exp;
 104:../../DaisySP//Source/Utility/dsp.h ****     frac = frexpf(fabsf(f), &exp);
 105:../../DaisySP//Source/Utility/dsp.h ****     f    = 1.23149591368684f;
 106:../../DaisySP//Source/Utility/dsp.h ****     f *= frac;
 107:../../DaisySP//Source/Utility/dsp.h ****     f += -4.11852516267426f;
 108:../../DaisySP//Source/Utility/dsp.h ****     f *= frac;
 109:../../DaisySP//Source/Utility/dsp.h ****     f += 6.02197014179219f;
 110:../../DaisySP//Source/Utility/dsp.h ****     f *= frac;
 111:../../DaisySP//Source/Utility/dsp.h ****     f += -3.13396450166353f;
 112:../../DaisySP//Source/Utility/dsp.h ****     f += exp;
 113:../../DaisySP//Source/Utility/dsp.h ****     return (f);
 114:../../DaisySP//Source/Utility/dsp.h **** }
 115:../../DaisySP//Source/Utility/dsp.h **** 
 116:../../DaisySP//Source/Utility/dsp.h **** inline float fastlog10f(float f)
 117:../../DaisySP//Source/Utility/dsp.h **** {
 118:../../DaisySP//Source/Utility/dsp.h ****     return fastlog2f(f) * 0.3010299956639812f;
 119:../../DaisySP//Source/Utility/dsp.h **** }
 120:../../DaisySP//Source/Utility/dsp.h **** 
 121:../../DaisySP//Source/Utility/dsp.h **** /** Midi to frequency helper
 122:../../DaisySP//Source/Utility/dsp.h **** */
 123:../../DaisySP//Source/Utility/dsp.h **** inline float mtof(float m)
 124:../../DaisySP//Source/Utility/dsp.h **** {
 125:../../DaisySP//Source/Utility/dsp.h ****     return powf(2, (m - 69.0f) / 12.0f) * 440.0f;
 126:../../DaisySP//Source/Utility/dsp.h **** }
 127:../../DaisySP//Source/Utility/dsp.h **** 
 128:../../DaisySP//Source/Utility/dsp.h **** 
 129:../../DaisySP//Source/Utility/dsp.h **** /** one pole lpf
 130:../../DaisySP//Source/Utility/dsp.h **** out is passed by reference, and must be retained between
 131:../../DaisySP//Source/Utility/dsp.h **** calls to properly filter the signal
 132:../../DaisySP//Source/Utility/dsp.h **** coeff can be calculated:
 133:../../DaisySP//Source/Utility/dsp.h **** coeff = 1.0 / (time * sample_rate) ; where time is in seconds
 134:../../DaisySP//Source/Utility/dsp.h **** */
ARM GAS  C:\Users\daniel\AppData\Local\Temp\cczs0lix.s 			page 48


 135:../../DaisySP//Source/Utility/dsp.h **** inline void fonepole(float &out, float in, float coeff)
 136:../../DaisySP//Source/Utility/dsp.h **** {
 137:../../DaisySP//Source/Utility/dsp.h ****     out += coeff * (in - out);
 138:../../DaisySP//Source/Utility/dsp.h **** }
 139:../../DaisySP//Source/Utility/dsp.h **** 
 140:../../DaisySP//Source/Utility/dsp.h **** /** Curves to use with the fmap function */
 141:../../DaisySP//Source/Utility/dsp.h **** enum class Mapping
 142:../../DaisySP//Source/Utility/dsp.h **** {
 143:../../DaisySP//Source/Utility/dsp.h ****     LINEAR,
 144:../../DaisySP//Source/Utility/dsp.h ****     EXP,
 145:../../DaisySP//Source/Utility/dsp.h ****     LOG,
 146:../../DaisySP//Source/Utility/dsp.h **** };
 147:../../DaisySP//Source/Utility/dsp.h **** 
 148:../../DaisySP//Source/Utility/dsp.h **** /** Maps a float between a specified range, using a specified curve. 
 149:../../DaisySP//Source/Utility/dsp.h ****  * 
 150:../../DaisySP//Source/Utility/dsp.h ****  *  \param in a value between 0 to 1 that will be mapped to the new range.
 151:../../DaisySP//Source/Utility/dsp.h ****  *  \param min the new minimum value
 152:../../DaisySP//Source/Utility/dsp.h ****  *  \param max the new maxmimum value
 153:../../DaisySP//Source/Utility/dsp.h ****  *  \param curve a Mapping Value to adjust the response curve of the transformation
 154:../../DaisySP//Source/Utility/dsp.h ****  *               defaults to Linear. @see Mapping
 155:../../DaisySP//Source/Utility/dsp.h ****  * 
 156:../../DaisySP//Source/Utility/dsp.h ****  *  When using the log curve min and max, must be greater than zero.
 157:../../DaisySP//Source/Utility/dsp.h ****  * 
 158:../../DaisySP//Source/Utility/dsp.h ****  *  \retval returns the transformed float within the new range.
 159:../../DaisySP//Source/Utility/dsp.h **** */
 160:../../DaisySP//Source/Utility/dsp.h **** inline float
 161:../../DaisySP//Source/Utility/dsp.h **** fmap(float in, float min, float max, Mapping curve = Mapping::LINEAR)
 162:../../DaisySP//Source/Utility/dsp.h **** {
 163:../../DaisySP//Source/Utility/dsp.h ****     switch(curve)
 164:../../DaisySP//Source/Utility/dsp.h ****     {
 165:../../DaisySP//Source/Utility/dsp.h ****         case Mapping::EXP:
 166:../../DaisySP//Source/Utility/dsp.h ****             return fclamp(min + (in * in) * (max - min), min, max);
 167:../../DaisySP//Source/Utility/dsp.h ****         case Mapping::LOG:
 168:../../DaisySP//Source/Utility/dsp.h ****         {
 169:../../DaisySP//Source/Utility/dsp.h ****             const float a = 1.f / log10f(max / min);
 170:../../DaisySP//Source/Utility/dsp.h ****             return fclamp(min * powf(10, in / a), min, max);
 171:../../DaisySP//Source/Utility/dsp.h ****         }
 172:../../DaisySP//Source/Utility/dsp.h ****         case Mapping::LINEAR:
 173:../../DaisySP//Source/Utility/dsp.h ****         default: return fclamp(min + in * (max - min), min, max);
 1282              		.loc 14 173 31 view .LVU354
 1283 000a 9FED789A 		vldr.32	s18, .L105
 1284              	.LBE729:
 1285              	.LBE728:
 111:Proliferation.cpp **** 	getSamples();
 1286              		.loc 12 111 1 view .LVU355
 1287 000e 1446     		mov	r4, r2
 1288 0010 0646     		mov	r6, r0
 1289 0012 0392     		str	r2, [sp, #12]
 1290 0014 8846     		mov	r8, r1
 1291              		.loc 12 112 12 view .LVU356
 1292 0016 FFF7FEFF 		bl	_Z10getSamplesv
 1293              	.LVL95:
 113:Proliferation.cpp **** 
 114:Proliferation.cpp ****     /** Update Params with the four knobs */
 115:Proliferation.cpp ****     float time_knob     = hw.GetAdcValue(CV_1);
 1294              		.loc 12 115 5 is_stmt 1 view .LVU357
 1295              		.loc 12 115 41 is_stmt 0 view .LVU358
ARM GAS  C:\Users\daniel\AppData\Local\Temp\cczs0lix.s 			page 49


 1296 001a 0021     		movs	r1, #0
 1297 001c 7448     		ldr	r0, .L105+4
 1298 001e FFF7FEFF 		bl	_ZN5daisy8patch_sm12DaisyPatchSM11GetAdcValueEi
 1299              	.LVL96:
 116:Proliferation.cpp ****     float time          = fmap(time_knob, 0.3f, 0.99f);
 1300              		.loc 12 116 5 is_stmt 1 view .LVU359
 1301              	.LBB743:
 1302              	.LBI728:
 161:../../DaisySP//Source/Utility/dsp.h **** {
 1303              		.loc 14 161 1 view .LVU360
 1304              	.LBE743:
 163:../../DaisySP//Source/Utility/dsp.h ****     {
 1305              		.loc 14 163 5 view .LVU361
 1306              	.LBB744:
 1307              	.LBB740:
 172:../../DaisySP//Source/Utility/dsp.h ****         default: return fclamp(min + in * (max - min), min, max);
 1308              		.loc 14 172 9 view .LVU362
 1309              		.loc 14 173 9 view .LVU363
 1310              		.loc 14 173 18 view .LVU364
 1311              		.loc 14 173 31 is_stmt 0 view .LVU365
 1312 0022 F0EE497A 		vmov.f32	s15, s18
 1313 0026 DFED736A 		vldr.32	s13, .L105+8
 1314              	.LBE740:
 1315              	.LBE744:
 117:Proliferation.cpp **** 
 118:Proliferation.cpp ****     float damp_knob     = hw.GetAdcValue(CV_2);
 1316              		.loc 12 118 41 view .LVU366
 1317 002a 0121     		movs	r1, #1
 1318 002c 7048     		ldr	r0, .L105+4
 1319              	.LBB745:
 1320              	.LBB741:
 1321              		.loc 14 173 31 view .LVU367
 1322 002e E0EE267A 		vfma.f32	s15, s0, s13
 1323              	.LVL97:
 1324              	.LBB730:
 1325              	.LBI730:
  56:../../DaisySP//Source/Utility/dsp.h **** {
 1326              		.loc 14 56 14 is_stmt 1 view .LVU368
 1327              	.LBE730:
 1328              	.LBE741:
 1329              	.LBE745:
  58:../../DaisySP//Source/Utility/dsp.h **** }
 1330              		.loc 14 58 5 view .LVU369
 1331              	.LBB746:
 1332              	.LBB742:
 1333              	.LBB739:
 1334              	.LBB731:
 1335              	.LBI731:
  32:../../DaisySP//Source/Utility/dsp.h **** {
 1336              		.loc 14 32 14 view .LVU370
 1337              	.LBB732:
  34:../../DaisySP//Source/Utility/dsp.h **** #ifdef __arm__
 1338              		.loc 14 34 5 view .LVU371
  36:../../DaisySP//Source/Utility/dsp.h **** #else
 1339              		.loc 14 36 5 view .LVU372
 1340              	.LBE732:
 1341              	.LBE731:
ARM GAS  C:\Users\daniel\AppData\Local\Temp\cczs0lix.s 			page 50


 1342              	.LBB734:
 1343              	.LBB735:
  47:../../DaisySP//Source/Utility/dsp.h **** #else
 1344              		.loc 14 47 5 is_stmt 0 view .LVU373
 1345 0032 9FED717A 		vldr.32	s14, .L105+12
 1346              	.LBE735:
 1347              	.LBE734:
 1348              	.LBB737:
 1349              	.LBB733:
  36:../../DaisySP//Source/Utility/dsp.h **** #else
 1350              		.loc 14 36 5 view .LVU374
 1351              		.syntax unified
 1352              	@ 36 "../../DaisySP//Source/Utility/dsp.h" 1
 1353 0036 C7FE897A 		vmaxnm.f32 s15, s15, s18
 1354              	@ 0 "" 2
 1355              	.LVL98:
  40:../../DaisySP//Source/Utility/dsp.h **** }
 1356              		.loc 14 40 5 is_stmt 1 view .LVU375
  40:../../DaisySP//Source/Utility/dsp.h **** }
 1357              		.loc 14 40 5 is_stmt 0 view .LVU376
 1358              		.thumb
 1359              		.syntax unified
 1360              	.LBE733:
 1361              	.LBE737:
 1362              	.LBB738:
 1363              	.LBI734:
  43:../../DaisySP//Source/Utility/dsp.h **** {
 1364              		.loc 14 43 14 is_stmt 1 view .LVU377
 1365              	.LBB736:
  45:../../DaisySP//Source/Utility/dsp.h **** #ifdef __arm__
 1366              		.loc 14 45 5 view .LVU378
  47:../../DaisySP//Source/Utility/dsp.h **** #else
 1367              		.loc 14 47 5 view .LVU379
 1368              		.syntax unified
 1369              	@ 47 "../../DaisySP//Source/Utility/dsp.h" 1
 1370 003a 87FEC79A 		vminnm.f32 s18, s15, s14
 1371              	@ 0 "" 2
 1372              	.LVL99:
  51:../../DaisySP//Source/Utility/dsp.h **** }
 1373              		.loc 14 51 5 view .LVU380
  51:../../DaisySP//Source/Utility/dsp.h **** }
 1374              		.loc 14 51 5 is_stmt 0 view .LVU381
 1375              		.thumb
 1376              		.syntax unified
 1377              	.LBE736:
 1378              	.LBE738:
 1379              	.LBE739:
 1380              	.LBE742:
 1381              	.LBE746:
 1382              		.loc 12 118 5 is_stmt 1 view .LVU382
 1383              		.loc 12 118 41 is_stmt 0 view .LVU383
 1384 003e FFF7FEFF 		bl	_ZN5daisy8patch_sm12DaisyPatchSM11GetAdcValueEi
 1385              	.LVL100:
 1386              		.loc 12 118 41 view .LVU384
 1387 0042 F0EE400A 		vmov.f32	s1, s0
 1388              	.LVL101:
 119:Proliferation.cpp ****     float damp          = fmap(damp_knob, 1000.f, 19000.f, Mapping::LOG);
ARM GAS  C:\Users\daniel\AppData\Local\Temp\cczs0lix.s 			page 51


 1389              		.loc 12 119 5 is_stmt 1 view .LVU385
 1390              	.LBB747:
 1391              	.LBI747:
 161:../../DaisySP//Source/Utility/dsp.h **** {
 1392              		.loc 14 161 1 view .LVU386
 1393              	.LBE747:
 163:../../DaisySP//Source/Utility/dsp.h ****     {
 1394              		.loc 14 163 5 view .LVU387
 1395              	.LBB767:
 1396              	.LBB748:
 1397              	.LBI748:
 161:../../DaisySP//Source/Utility/dsp.h **** {
 1398              		.loc 14 161 1 view .LVU388
 161:../../DaisySP//Source/Utility/dsp.h **** {
 1399              		.loc 14 161 1 is_stmt 0 view .LVU389
 1400              	.LBE748:
 1401              	.LBE767:
 167:../../DaisySP//Source/Utility/dsp.h ****         {
 1402              		.loc 14 167 9 is_stmt 1 view .LVU390
 168:../../DaisySP//Source/Utility/dsp.h ****             const float a = 1.f / log10f(max / min);
 1403              		.loc 14 168 9 view .LVU391
 1404              	.LBB768:
 1405              	.LBB764:
 1406              	.LBB749:
 169:../../DaisySP//Source/Utility/dsp.h ****             return fclamp(min * powf(10, in / a), min, max);
 1407              		.loc 14 169 13 view .LVU392
 170:../../DaisySP//Source/Utility/dsp.h ****         }
 1408              		.loc 14 170 13 view .LVU393
 170:../../DaisySP//Source/Utility/dsp.h ****         }
 1409              		.loc 14 170 37 is_stmt 0 view .LVU394
 1410 0046 DFED6D7A 		vldr.32	s15, .L105+16
 1411 004a B2EE040A 		vmov.f32	s0, #1.0e+1
 1412              	.LVL102:
 170:../../DaisySP//Source/Utility/dsp.h ****         }
 1413              		.loc 14 170 37 view .LVU395
 1414 004e C0EEA70A 		vdiv.f32	s1, s1, s15
 1415              	.LVL103:
 170:../../DaisySP//Source/Utility/dsp.h ****         }
 1416              		.loc 14 170 37 view .LVU396
 1417 0052 FFF7FEFF 		bl	powf
 1418              	.LVL104:
 1419              	.LBB750:
 1420              	.LBI750:
  56:../../DaisySP//Source/Utility/dsp.h **** {
 1421              		.loc 14 56 14 is_stmt 1 view .LVU397
 1422              	.LBE750:
 1423              	.LBE749:
 1424              	.LBE764:
 1425              	.LBE768:
  58:../../DaisySP//Source/Utility/dsp.h **** }
 1426              		.loc 14 58 5 view .LVU398
 1427              	.LBB769:
 1428              	.LBB765:
 1429              	.LBB762:
 1430              	.LBB759:
 1431              	.LBB751:
 1432              	.LBI751:
ARM GAS  C:\Users\daniel\AppData\Local\Temp\cczs0lix.s 			page 52


  32:../../DaisySP//Source/Utility/dsp.h **** {
 1433              		.loc 14 32 14 view .LVU399
 1434              	.LBB752:
  34:../../DaisySP//Source/Utility/dsp.h **** #ifdef __arm__
 1435              		.loc 14 34 5 view .LVU400
  36:../../DaisySP//Source/Utility/dsp.h **** #else
 1436              		.loc 14 36 5 view .LVU401
 1437              	.LBE752:
 1438              	.LBE751:
 1439              	.LBE759:
 170:../../DaisySP//Source/Utility/dsp.h ****         }
 1440              		.loc 14 170 26 is_stmt 0 view .LVU402
 1441 0056 DFED6A7A 		vldr.32	s15, .L105+20
 1442              	.LBE762:
 1443              	.LBE765:
 1444              	.LBE769:
 120:Proliferation.cpp **** 
 121:Proliferation.cpp ****     float send_level     = hw.GetAdcValue(CV_4);
 1445              		.loc 12 121 42 view .LVU403
 1446 005a 0321     		movs	r1, #3
 1447 005c 6448     		ldr	r0, .L105+4
 1448              	.LBB770:
 1449              	.LBB766:
 1450              	.LBB763:
 1451              	.LBB760:
 1452              	.LBB754:
 1453              	.LBB755:
  47:../../DaisySP//Source/Utility/dsp.h **** #else
 1454              		.loc 14 47 5 view .LVU404
 1455 005e 9FED697A 		vldr.32	s14, .L105+24
 1456              	.LBE755:
 1457              	.LBE754:
 1458              	.LBE760:
 170:../../DaisySP//Source/Utility/dsp.h ****         }
 1459              		.loc 14 170 26 view .LVU405
 1460 0062 60EE278A 		vmul.f32	s17, s0, s15
 1461              	.LVL105:
 1462              	.LBB761:
 1463              	.LBB757:
 1464              	.LBB753:
  36:../../DaisySP//Source/Utility/dsp.h **** #else
 1465              		.loc 14 36 5 view .LVU406
 1466              		.syntax unified
 1467              	@ 36 "../../DaisySP//Source/Utility/dsp.h" 1
 1468 0066 C8FEA78A 		vmaxnm.f32 s17, s17, s15
 1469              	@ 0 "" 2
 1470              	.LVL106:
  40:../../DaisySP//Source/Utility/dsp.h **** }
 1471              		.loc 14 40 5 is_stmt 1 view .LVU407
  40:../../DaisySP//Source/Utility/dsp.h **** }
 1472              		.loc 14 40 5 is_stmt 0 view .LVU408
 1473              		.thumb
 1474              		.syntax unified
 1475              	.LBE753:
 1476              	.LBE757:
 1477              	.LBB758:
 1478              	.LBI754:
ARM GAS  C:\Users\daniel\AppData\Local\Temp\cczs0lix.s 			page 53


  43:../../DaisySP//Source/Utility/dsp.h **** {
 1479              		.loc 14 43 14 is_stmt 1 view .LVU409
 1480              	.LBB756:
  45:../../DaisySP//Source/Utility/dsp.h **** #ifdef __arm__
 1481              		.loc 14 45 5 view .LVU410
  47:../../DaisySP//Source/Utility/dsp.h **** #else
 1482              		.loc 14 47 5 view .LVU411
 1483              		.syntax unified
 1484              	@ 47 "../../DaisySP//Source/Utility/dsp.h" 1
 1485 006a C8FEC78A 		vminnm.f32 s17, s17, s14
 1486              	@ 0 "" 2
 1487              	.LVL107:
  51:../../DaisySP//Source/Utility/dsp.h **** }
 1488              		.loc 14 51 5 view .LVU412
  51:../../DaisySP//Source/Utility/dsp.h **** }
 1489              		.loc 14 51 5 is_stmt 0 view .LVU413
 1490              		.thumb
 1491              		.syntax unified
 1492              	.LBE756:
 1493              	.LBE758:
 1494              	.LBE761:
 1495              	.LBE763:
 1496              	.LBE766:
 1497              	.LBE770:
 1498              		.loc 12 121 5 is_stmt 1 view .LVU414
 1499              		.loc 12 121 42 is_stmt 0 view .LVU415
 1500 006e FFF7FEFF 		bl	_ZN5daisy8patch_sm12DaisyPatchSM11GetAdcValueEi
 1501              	.LVL108:
 1502              	.LBB771:
 1503              	.LBB772:
  42:../../DaisySP//Source/Effects/reverbsc.h ****     /** Initializes the reverb module, and sets the sample_rate at which the Process function will 
  43:../../DaisySP//Source/Effects/reverbsc.h ****         Returns 0 if all good, or 1 if it runs out of delay times exceed maximum allowed.
  44:../../DaisySP//Source/Effects/reverbsc.h ****     */
  45:../../DaisySP//Source/Effects/reverbsc.h ****     int Init(float sample_rate);
  46:../../DaisySP//Source/Effects/reverbsc.h **** 
  47:../../DaisySP//Source/Effects/reverbsc.h ****     /** Process the input through the reverb, and updates values of out1, and out2 with the new pro
  48:../../DaisySP//Source/Effects/reverbsc.h ****     */
  49:../../DaisySP//Source/Effects/reverbsc.h ****     int Process(const float &in1, const float &in2, float *out1, float *out2);
  50:../../DaisySP//Source/Effects/reverbsc.h **** 
  51:../../DaisySP//Source/Effects/reverbsc.h ****     /** controls the reverb time. reverb tail becomes infinite when set to 1.0
  52:../../DaisySP//Source/Effects/reverbsc.h ****         \param fb - sets reverb time. range: 0.0 to 1.0
  53:../../DaisySP//Source/Effects/reverbsc.h ****     */
  54:../../DaisySP//Source/Effects/reverbsc.h ****     inline void SetFeedback(const float &fb) { feedback_ = fb; }
 1504              		.loc 10 54 58 view .LVU416
 1505 0072 654B     		ldr	r3, .L105+28
 1506              	.LBE772:
 1507              	.LBE771:
 122:Proliferation.cpp ****     
 123:Proliferation.cpp ****     // moving param sets to inside the buffers - may need to move this? also order? Should probably
 124:Proliferation.cpp ****     rv.SetFeedback(time);
 125:Proliferation.cpp ****     rv.SetLpFreq(damp);
 126:Proliferation.cpp **** 
 127:Proliferation.cpp ****     svf.SetFreq(24000);
 1508              		.loc 12 127 16 view .LVU417
 1509 0074 6548     		ldr	r0, .L105+32
 121:Proliferation.cpp ****     
 1510              		.loc 12 121 42 view .LVU418
ARM GAS  C:\Users\daniel\AppData\Local\Temp\cczs0lix.s 			page 54


 1511 0076 B0EE408A 		vmov.f32	s16, s0
 1512              		.loc 12 127 16 view .LVU419
 1513 007a 9FED650A 		vldr.32	s0, .L105+36
 1514              	.LVL109:
 124:Proliferation.cpp ****     rv.SetLpFreq(damp);
 1515              		.loc 12 124 5 is_stmt 1 view .LVU420
 1516              	.LBB774:
 1517              	.LBI771:
 1518              		.loc 10 54 17 view .LVU421
 1519              	.LBB773:
 1520              		.loc 10 54 48 view .LVU422
 1521              		.loc 10 54 58 is_stmt 0 view .LVU423
 1522 007e 83ED009A 		vstr.32	s18, [r3]
 1523              	.LVL110:
 1524              		.loc 10 54 58 view .LVU424
 1525              	.LBE773:
 1526              	.LBE774:
 125:Proliferation.cpp **** 
 1527              		.loc 12 125 5 is_stmt 1 view .LVU425
 1528              	.LBB775:
 1529              	.LBI775:
  55:../../DaisySP//Source/Effects/reverbsc.h ****     /** controls the internal dampening filter's cutoff frequency.
  56:../../DaisySP//Source/Effects/reverbsc.h ****         \param freq - low pass frequency. range: 0.0 to sample_rate / 2
  57:../../DaisySP//Source/Effects/reverbsc.h ****     */
  58:../../DaisySP//Source/Effects/reverbsc.h ****     inline void SetLpFreq(const float &freq) { lpfreq_ = freq; }
 1530              		.loc 10 58 17 view .LVU426
 1531              	.LBB776:
 1532              		.loc 10 58 48 view .LVU427
 1533              		.loc 10 58 56 is_stmt 0 view .LVU428
 1534 0082 C3ED018A 		vstr.32	s17, [r3, #4]
 1535              	.LVL111:
 1536              		.loc 10 58 56 view .LVU429
 1537              	.LBE776:
 1538              	.LBE775:
 1539              		.loc 12 127 5 is_stmt 1 view .LVU430
 1540              		.loc 12 127 16 is_stmt 0 view .LVU431
 1541 0086 FFF7FEFF 		bl	_ZN7daisysp3Svf7SetFreqEf
 1542              	.LVL112:
 128:Proliferation.cpp ****     svf.SetRes(0.5);
 1543              		.loc 12 128 5 is_stmt 1 view .LVU432
 1544              		.loc 12 128 15 is_stmt 0 view .LVU433
 1545 008a B6EE000A 		vmov.f32	s0, #5.0e-1
 1546 008e 5F48     		ldr	r0, .L105+32
 1547 0090 FFF7FEFF 		bl	_ZN7daisysp3Svf6SetResEf
 1548              	.LVL113:
 129:Proliferation.cpp ****     svf.SetDrive(0.8);
 1549              		.loc 12 129 5 is_stmt 1 view .LVU434
 1550              		.loc 12 129 17 is_stmt 0 view .LVU435
 1551 0094 9FED5F0A 		vldr.32	s0, .L105+40
 1552 0098 5C48     		ldr	r0, .L105+32
 1553 009a FFF7FEFF 		bl	_ZN7daisysp3Svf8SetDriveEf
 1554              	.LVL114:
 130:Proliferation.cpp **** 
 131:Proliferation.cpp **** 	for (size_t i = 0; i < size; i++)
 1555              		.loc 12 131 2 is_stmt 1 view .LVU436
 1556              	.LBB777:
 1557              		.loc 12 131 23 view .LVU437
ARM GAS  C:\Users\daniel\AppData\Local\Temp\cczs0lix.s 			page 55


 1558 009e 002C     		cmp	r4, #0
 1559 00a0 00F09F80 		beq	.L92
 1560              		.loc 12 131 14 is_stmt 0 view .LVU438
 1561 00a4 4FF0000B 		mov	fp, #0
 1562 00a8 DFF878A1 		ldr	r10, .L105+56
 1563 00ac DFF85C91 		ldr	r9, .L105+32
 1564 00b0 05AF     		add	r7, sp, #20
 1565              	.LBB778:
 132:Proliferation.cpp **** 	{
 133:Proliferation.cpp ****         // Zero samples prior to summing
 134:Proliferation.cpp ****         OUT_L[i] = 0.f;
 135:Proliferation.cpp ****         OUT_R[i] = 0.f;
 1566              		.loc 12 135 9 view .LVU439
 1567 00b2 D8E900EC 		ldrd	lr, ip, [r8]
 1568              	.LBB779:
 1569              	.LBB780:
 136:Proliferation.cpp ****         for(auto &buffer : buffers)
 137:Proliferation.cpp ****         {
 138:Proliferation.cpp ****             // Record in mono
 139:Proliferation.cpp ****             float sample = buffer.Process((0.5 * IN_L[i] + 0.5 * IN_R[i]));
 1570              		.loc 12 139 66 view .LVU440
 1571 00b6 D6E90023 		ldrd	r2, r3, [r6]
 1572              	.LVL115:
 1573              	.L101:
 1574              		.loc 12 139 66 view .LVU441
 1575              	.LBE780:
 1576              	.LBE779:
 134:Proliferation.cpp ****         OUT_R[i] = 0.f;
 1577              		.loc 12 134 9 is_stmt 1 view .LVU442
 134:Proliferation.cpp ****         OUT_R[i] = 0.f;
 1578              		.loc 12 134 18 is_stmt 0 view .LVU443
 1579 00ba 0021     		movs	r1, #0
 1580 00bc 0EEB8B0E 		add	lr, lr, fp, lsl #2
 135:Proliferation.cpp ****         for(auto &buffer : buffers)
 1581              		.loc 12 135 18 view .LVU444
 1582 00c0 0CEB8B0C 		add	ip, ip, fp, lsl #2
 1583 00c4 544C     		ldr	r4, .L105+44
 134:Proliferation.cpp ****         OUT_R[i] = 0.f;
 1584              		.loc 12 134 18 view .LVU445
 1585 00c6 CEF80010 		str	r1, [lr]	@ float
 135:Proliferation.cpp ****         for(auto &buffer : buffers)
 1586              		.loc 12 135 9 is_stmt 1 view .LVU446
 1587 00ca 4FEA8B05 		lsl	r5, fp, #2
 135:Proliferation.cpp ****         for(auto &buffer : buffers)
 1588              		.loc 12 135 18 is_stmt 0 view .LVU447
 1589 00ce CCF80010 		str	r1, [ip]	@ float
 136:Proliferation.cpp ****         for(auto &buffer : buffers)
 1590              		.loc 12 136 9 is_stmt 1 view .LVU448
 1591              	.LVL116:
 1592              	.LBB838:
 136:Proliferation.cpp ****         for(auto &buffer : buffers)
 1593              		.loc 12 136 28 view .LVU449
 1594 00d2 01E0     		b	.L99
 1595              	.LVL117:
 1596              	.L104:
 1597              	.LBB834:
 1598              		.loc 12 139 66 is_stmt 0 view .LVU450
ARM GAS  C:\Users\daniel\AppData\Local\Temp\cczs0lix.s 			page 56


 1599 00d4 D6E90023 		ldrd	r2, r3, [r6]
 1600              	.LVL118:
 1601              	.L99:
 1602              		.loc 12 139 13 is_stmt 1 discriminator 2 view .LVU451
 1603              	.LBB781:
 1604              	.LBI781:
  59:samplebuffer.h ****     {
 1605              		.loc 13 59 11 discriminator 2 view .LVU452
 1606              	.LBB782:
 1607              	.LBI782:
  72:samplebuffer.h ****     {
 1608              		.loc 13 72 10 discriminator 2 view .LVU453
 1609              	.LBB783:
 1610              	.LBB784:
 1611              	.LBI784:
  72:samplebuffer.h ****     {
 1612              		.loc 13 72 10 discriminator 2 view .LVU454
  72:samplebuffer.h ****     {
 1613              		.loc 13 72 10 is_stmt 0 discriminator 2 view .LVU455
 1614              	.LBE784:
 1615              	.LBE783:
 1616              	.LBE782:
 1617              	.LBB805:
 1618              	.LBI805:
  86:samplebuffer.h ****     {
 1619              		.loc 13 86 11 is_stmt 1 discriminator 2 view .LVU456
 1620              	.LBB806:
 1621              	.LBI806:
  86:samplebuffer.h ****     {
 1622              		.loc 13 86 11 discriminator 2 view .LVU457
 1623              	.LBE806:
 1624              	.LBE805:
 1625              	.LBB813:
 1626              	.LBB797:
 1627              	.LBB791:
 1628              	.LBB785:
  78:samplebuffer.h ****             {
 1629              		.loc 13 78 13 is_stmt 0 discriminator 2 view .LVU458
 1630 00d8 5048     		ldr	r0, .L105+48
 1631              	.LBE785:
 1632              	.LBE791:
 1633              	.LBE797:
 1634              	.LBE813:
 1635              	.LBE781:
 1636              		.loc 12 139 48 discriminator 2 view .LVU459
 1637 00da B6EE006B 		vmov.f64	d6, #5.0e-1
 1638              	.LBB823:
 1639              	.LBB814:
 1640              	.LBB798:
  74:samplebuffer.h ****         {
 1641              		.loc 13 74 9 discriminator 2 view .LVU460
 1642 00de 94F80DC0 		ldrb	ip, [r4, #13]	@ zero_extendqisi2
 1643              	.LBE798:
 1644              	.LBE814:
 1645              	.LBE823:
 1646              		.loc 12 139 56 discriminator 2 view .LVU461
 1647 00e2 2A44     		add	r2, r2, r5
ARM GAS  C:\Users\daniel\AppData\Local\Temp\cczs0lix.s 			page 57


 1648              		.loc 12 139 72 discriminator 2 view .LVU462
 1649 00e4 2B44     		add	r3, r3, r5
 1650              	.LBB824:
 1651              	.LBB815:
 1652              	.LBB809:
 1653              	.LBB807:
  92:samplebuffer.h ****             {
 1654              		.loc 13 92 13 discriminator 2 view .LVU463
 1655 00e6 0146     		mov	r1, r0
 1656              	.LBE807:
 1657              	.LBE809:
 1658              	.LBB810:
 101:samplebuffer.h ****         }
 1659              		.loc 13 101 20 discriminator 2 view .LVU464
 1660 00e8 9FED4D0A 		vldr.32	s0, .L105+52
 1661              	.LBE810:
 1662              	.LBE815:
 1663              	.LBB816:
 1664              	.LBB799:
  74:samplebuffer.h ****         {
 1665              		.loc 13 74 9 discriminator 2 view .LVU465
 1666 00ec BCF1000F 		cmp	ip, #0
 1667 00f0 19D0     		beq	.L95
 1668              	.LBE799:
 1669              	.LBE816:
 1670              	.LBE824:
 1671              		.loc 12 139 56 view .LVU466
 1672 00f2 92ED007A 		vldr.32	s14, [r2]
 1673              	.LBB825:
 1674              	.LBB817:
 1675              	.LBB800:
 1676              	.LBB792:
 1677              	.LBB786:
  80:samplebuffer.h ****                 write_ptr_ = 0;
 1678              		.loc 13 80 28 view .LVU467
 1679 00f6 0022     		movs	r2, #0
 1680              	.LBE786:
 1681              	.LBE792:
 1682              	.LBE800:
 1683              	.LBE817:
 1684              	.LBE825:
 1685              		.loc 12 139 72 view .LVU468
 1686 00f8 93ED005A 		vldr.32	s10, [r3]
 1687              		.loc 12 139 56 view .LVU469
 1688 00fc B7EEC77A 		vcvt.f64.f32	d7, s14
 1689              	.LBB826:
 1690              	.LBB818:
 1691              	.LBB801:
 1692              	.LBB793:
 1693              	.LBB787:
  76:samplebuffer.h ****             write_ptr_++;
 1694              		.loc 13 76 21 view .LVU470
 1695 0100 2368     		ldr	r3, [r4]
 1696              	.LBE787:
 1697              	.LBE793:
 1698              	.LBE801:
 1699              	.LBE818:
ARM GAS  C:\Users\daniel\AppData\Local\Temp\cczs0lix.s 			page 58


 1700              	.LBE826:
 1701              		.loc 12 139 72 view .LVU471
 1702 0102 B7EEC55A 		vcvt.f64.f32	d5, s10
 1703              	.LBB827:
 1704              	.LBB819:
 1705              	.LBB802:
 1706              	.LBB794:
 1707              	.LBB788:
  76:samplebuffer.h ****             write_ptr_++;
 1708              		.loc 13 76 33 view .LVU472
 1709 0106 04EB830C 		add	ip, r4, r3, lsl #2
  77:samplebuffer.h ****             if(write_ptr_ >= kBufferSize)
 1710              		.loc 13 77 13 view .LVU473
 1711 010a 0133     		adds	r3, r3, #1
 1712              	.LBE788:
 1713              	.LBE794:
 1714              	.LBE802:
 1715              	.LBE819:
 1716              	.LBE827:
 1717              		.loc 12 139 48 view .LVU474
 1718 010c 27EE067B 		vmul.f64	d7, d7, d6
 1719              	.LBB828:
 1720              	.LBB820:
 1721              	.LBB803:
 1722              	.LBB795:
 1723              	.LBB789:
  78:samplebuffer.h ****             {
 1724              		.loc 13 78 13 view .LVU475
 1725 0110 8342     		cmp	r3, r0
 1726              	.LBE789:
 1727              	.LBE795:
 1728              	.LBE803:
 1729              	.LBE820:
 1730              	.LBE828:
 1731              		.loc 12 139 58 view .LVU476
 1732 0112 A5EE067B 		vfma.f64	d7, d5, d6
 1733              		.loc 12 139 42 view .LVU477
 1734 0116 B7EEC77B 		vcvt.f32.f64	s14, d7
 1735 011a 8CED047A 		vstr.32	s14, [ip, #16]
 1736              	.LBB829:
 1737              	.LBB821:
 1738              	.LBB804:
 1739              	.LBB796:
 1740              	.LBB790:
  77:samplebuffer.h ****             if(write_ptr_ >= kBufferSize)
 1741              		.loc 13 77 13 view .LVU478
 1742 011e 2360     		str	r3, [r4]
  78:samplebuffer.h ****             {
 1743              		.loc 13 78 13 view .LVU479
 1744 0120 01D9     		bls	.L95
  80:samplebuffer.h ****                 write_ptr_ = 0;
 1745              		.loc 13 80 28 view .LVU480
 1746 0122 6273     		strb	r2, [r4, #13]
  81:samplebuffer.h ****             }
 1747              		.loc 13 81 28 view .LVU481
 1748 0124 2260     		str	r2, [r4]
 1749              	.L95:
ARM GAS  C:\Users\daniel\AppData\Local\Temp\cczs0lix.s 			page 59


 1750              	.LBE790:
 1751              	.LBE796:
 1752              	.LBE804:
 1753              	.LBE821:
 1754              	.LBB822:
 1755              	.LBB811:
  88:samplebuffer.h ****         {
 1756              		.loc 13 88 9 view .LVU482
 1757 0126 237B     		ldrb	r3, [r4, #12]	@ zero_extendqisi2
 1758 0128 5BB1     		cbz	r3, .L97
 1759              	.LBE811:
 1760              	.LBB812:
 1761              	.LBB808:
  90:samplebuffer.h ****             read_ptr_++;
 1762              		.loc 13 90 33 view .LVU483
 1763 012a 6368     		ldr	r3, [r4, #4]
  94:samplebuffer.h ****                 read_ptr_ = 0;
 1764              		.loc 13 94 27 view .LVU484
 1765 012c 0022     		movs	r2, #0
  90:samplebuffer.h ****             read_ptr_++;
 1766              		.loc 13 90 19 view .LVU485
 1767 012e 04EB8300 		add	r0, r4, r3, lsl #2
  91:samplebuffer.h ****             if(read_ptr_ >= kBufferSize)
 1768              		.loc 13 91 13 view .LVU486
 1769 0132 0133     		adds	r3, r3, #1
  92:samplebuffer.h ****             {
 1770              		.loc 13 92 13 view .LVU487
 1771 0134 8B42     		cmp	r3, r1
  90:samplebuffer.h ****             read_ptr_++;
 1772              		.loc 13 90 19 view .LVU488
 1773 0136 90ED040A 		vldr.32	s0, [r0, #16]
 1774              	.LVL119:
  91:samplebuffer.h ****             if(read_ptr_ >= kBufferSize)
 1775              		.loc 13 91 13 view .LVU489
 1776 013a 6360     		str	r3, [r4, #4]
  92:samplebuffer.h ****             {
 1777              		.loc 13 92 13 view .LVU490
 1778 013c 01D9     		bls	.L97
  94:samplebuffer.h ****                 read_ptr_ = 0;
 1779              		.loc 13 94 27 view .LVU491
 1780 013e 2273     		strb	r2, [r4, #12]
  95:samplebuffer.h ****             }
 1781              		.loc 13 95 27 view .LVU492
 1782 0140 6260     		str	r2, [r4, #4]
 1783              	.LVL120:
 1784              	.L97:
  95:samplebuffer.h ****             }
 1785              		.loc 13 95 27 view .LVU493
 1786              	.LBE808:
 1787              	.LBE812:
 1788              	.LBE822:
 1789              	.LBE829:
 140:Proliferation.cpp **** 
 141:Proliferation.cpp ****             float send =  sample * send_level;
 1790              		.loc 12 141 13 is_stmt 1 view .LVU494
 1791              		.loc 12 141 34 is_stmt 0 view .LVU495
 1792 0142 68EE007A 		vmul.f32	s15, s16, s0
ARM GAS  C:\Users\daniel\AppData\Local\Temp\cczs0lix.s 			page 60


 142:Proliferation.cpp **** 
 143:Proliferation.cpp ****             svf.Process(sample);
 1793              		.loc 12 143 24 view .LVU496
 1794 0146 3148     		ldr	r0, .L105+32
 1795              	.LBE834:
 136:Proliferation.cpp ****         {
 1796              		.loc 12 136 28 view .LVU497
 1797 0148 04F56A24 		add	r4, r4, #958464
 1798              	.LVL121:
 1799              	.LBB835:
 141:Proliferation.cpp **** 
 1800              		.loc 12 141 19 view .LVU498
 1801 014c CDED047A 		vstr.32	s15, [sp, #16]
 1802              		.loc 12 143 13 is_stmt 1 view .LVU499
 1803              		.loc 12 143 24 is_stmt 0 view .LVU500
 1804 0150 FFF7FEFF 		bl	_ZN7daisysp3Svf7ProcessEf
 1805              	.LVL122:
 144:Proliferation.cpp **** 
 145:Proliferation.cpp ****             float wet;
 1806              		.loc 12 145 13 is_stmt 1 view .LVU501
 146:Proliferation.cpp **** 
 147:Proliferation.cpp ****             rv.Process(send, send, &wet, &wet);
 1807              		.loc 12 147 13 view .LVU502
 1808              		.loc 12 147 23 is_stmt 0 view .LVU503
 1809 0154 04AA     		add	r2, sp, #16
 1810 0156 3B46     		mov	r3, r7
 1811 0158 2B48     		ldr	r0, .L105+28
 1812              	.LBE835:
 136:Proliferation.cpp ****         {
 1813              		.loc 12 136 28 view .LVU504
 1814 015a 04F5C264 		add	r4, r4, #1552
 1815              	.LVL123:
 1816              	.LBB836:
 1817              		.loc 12 147 23 view .LVU505
 1818 015e 1146     		mov	r1, r2
 1819 0160 0097     		str	r7, [sp]
 1820 0162 FFF7FEFF 		bl	_ZN7daisysp8ReverbSc7ProcessERKfS2_PfS3_
 1821              	.LVL124:
 148:Proliferation.cpp ****             OUT_L[i] += svf.Low() + wet;
 1822              		.loc 12 148 13 is_stmt 1 view .LVU506
 1823              	.LBB830:
 1824              	.LBI830:
  23:../../DaisySP//Source/Filters/svf.h ****     /** Initializes the filter
  24:../../DaisySP//Source/Filters/svf.h ****         float sample_rate - sample rate of the audio engine being run, and the frequency that the P
  25:../../DaisySP//Source/Filters/svf.h ****     */
  26:../../DaisySP//Source/Filters/svf.h ****     void Init(float sample_rate);
  27:../../DaisySP//Source/Filters/svf.h **** 
  28:../../DaisySP//Source/Filters/svf.h **** 
  29:../../DaisySP//Source/Filters/svf.h ****     /** 
  30:../../DaisySP//Source/Filters/svf.h ****         Process the input signal, updating all of the outputs.
  31:../../DaisySP//Source/Filters/svf.h ****     */
  32:../../DaisySP//Source/Filters/svf.h ****     void Process(float in);
  33:../../DaisySP//Source/Filters/svf.h **** 
  34:../../DaisySP//Source/Filters/svf.h **** 
  35:../../DaisySP//Source/Filters/svf.h ****     /** sets the frequency of the cutoff frequency. 
  36:../../DaisySP//Source/Filters/svf.h ****         f must be between 0.0 and sample_rate / 3
  37:../../DaisySP//Source/Filters/svf.h ****     */
ARM GAS  C:\Users\daniel\AppData\Local\Temp\cczs0lix.s 			page 61


  38:../../DaisySP//Source/Filters/svf.h ****     void SetFreq(float f);
  39:../../DaisySP//Source/Filters/svf.h **** 
  40:../../DaisySP//Source/Filters/svf.h ****     /** sets the resonance of the filter.
  41:../../DaisySP//Source/Filters/svf.h ****         Must be between 0.0 and 1.0 to ensure stability.
  42:../../DaisySP//Source/Filters/svf.h ****     */
  43:../../DaisySP//Source/Filters/svf.h ****     void SetRes(float r);
  44:../../DaisySP//Source/Filters/svf.h **** 
  45:../../DaisySP//Source/Filters/svf.h ****     /** sets the drive of the filter 
  46:../../DaisySP//Source/Filters/svf.h ****         affects the response of the resonance of the filter
  47:../../DaisySP//Source/Filters/svf.h ****     */
  48:../../DaisySP//Source/Filters/svf.h ****     void SetDrive(float d);
  49:../../DaisySP//Source/Filters/svf.h ****     /** lowpass output
  50:../../DaisySP//Source/Filters/svf.h ****         \return low pass output of the filter
  51:../../DaisySP//Source/Filters/svf.h ****     */
  52:../../DaisySP//Source/Filters/svf.h ****     inline float Low() { return out_low_; }
 1825              		.loc 9 52 18 view .LVU507
 1826              	.LBB831:
 1827              		.loc 9 52 26 view .LVU508
 1828              		.loc 9 52 26 is_stmt 0 view .LVU509
 1829              	.LBE831:
 1830              	.LBE830:
 1831              		.loc 12 148 13 view .LVU510
 1832 0166 D8F80030 		ldr	r3, [r8]
 1833              		.loc 12 148 35 view .LVU511
 1834 016a DDED057A 		vldr.32	s15, [sp, #20]
 1835              	.LBE836:
 136:Proliferation.cpp ****         {
 1836              		.loc 12 136 28 view .LVU512
 1837 016e A245     		cmp	r10, r4
 1838              	.LBB837:
 1839              		.loc 12 148 35 view .LVU513
 1840 0170 99ED0C7A 		vldr.32	s14, [r9, #48]
 1841              		.loc 12 148 22 view .LVU514
 1842 0174 03EB0500 		add	r0, r3, r5
 149:Proliferation.cpp ****             OUT_R[i] += svf.Notch() + wet;
 1843              		.loc 12 149 13 view .LVU515
 1844 0178 D8F80420 		ldr	r2, [r8, #4]
 148:Proliferation.cpp ****             OUT_R[i] += svf.Notch() + wet;
 1845              		.loc 12 148 35 view .LVU516
 1846 017c 37EE877A 		vadd.f32	s14, s15, s14
 148:Proliferation.cpp ****             OUT_R[i] += svf.Notch() + wet;
 1847              		.loc 12 148 22 view .LVU517
 1848 0180 D0ED007A 		vldr.32	s15, [r0]
 1849              		.loc 12 149 22 view .LVU518
 1850 0184 02EB0501 		add	r1, r2, r5
 148:Proliferation.cpp ****             OUT_R[i] += svf.Notch() + wet;
 1851              		.loc 12 148 22 view .LVU519
 1852 0188 77EE877A 		vadd.f32	s15, s15, s14
 1853 018c C0ED007A 		vstr.32	s15, [r0]
 1854              		.loc 12 149 13 is_stmt 1 view .LVU520
 1855              	.LVL125:
 1856              	.LBB832:
 1857              	.LBI832:
  53:../../DaisySP//Source/Filters/svf.h ****     /** highpass output
  54:../../DaisySP//Source/Filters/svf.h ****         \return high pass output of the filter
  55:../../DaisySP//Source/Filters/svf.h ****     */
  56:../../DaisySP//Source/Filters/svf.h ****     inline float High() { return out_high_; }
ARM GAS  C:\Users\daniel\AppData\Local\Temp\cczs0lix.s 			page 62


  57:../../DaisySP//Source/Filters/svf.h ****     /** bandpass output
  58:../../DaisySP//Source/Filters/svf.h ****         \return band pass output of the filter
  59:../../DaisySP//Source/Filters/svf.h ****     */
  60:../../DaisySP//Source/Filters/svf.h ****     inline float Band() { return out_band_; }
  61:../../DaisySP//Source/Filters/svf.h ****     /** notchpass output
  62:../../DaisySP//Source/Filters/svf.h ****         \return notch pass output of the filter
  63:../../DaisySP//Source/Filters/svf.h ****     */
  64:../../DaisySP//Source/Filters/svf.h ****     inline float Notch() { return out_notch_; }
 1858              		.loc 9 64 18 view .LVU521
 1859              	.LBB833:
 1860              		.loc 9 64 28 view .LVU522
 1861              		.loc 9 64 28 is_stmt 0 view .LVU523
 1862              	.LBE833:
 1863              	.LBE832:
 1864              		.loc 12 149 37 view .LVU524
 1865 0190 9DED057A 		vldr.32	s14, [sp, #20]
 1866 0194 D9ED106A 		vldr.32	s13, [r9, #64]
 1867              		.loc 12 149 22 view .LVU525
 1868 0198 D1ED007A 		vldr.32	s15, [r1]
 1869              		.loc 12 149 37 view .LVU526
 1870 019c 37EE267A 		vadd.f32	s14, s14, s13
 1871              		.loc 12 149 22 view .LVU527
 1872 01a0 77EE877A 		vadd.f32	s15, s15, s14
 1873 01a4 C1ED007A 		vstr.32	s15, [r1]
 1874              	.LBE837:
 136:Proliferation.cpp ****         {
 1875              		.loc 12 136 9 is_stmt 1 view .LVU528
 1876              	.LVL126:
 136:Proliferation.cpp ****         {
 1877              		.loc 12 136 28 view .LVU529
 1878 01a8 94D1     		bne	.L104
 1879              	.LBE838:
 150:Proliferation.cpp ****         }
 151:Proliferation.cpp ****         // Feed stereo input through to output
 152:Proliferation.cpp ****         OUT_L[i] += IN_L[i];
 1880              		.loc 12 152 18 is_stmt 0 discriminator 2 view .LVU530
 1881 01aa 9E46     		mov	lr, r3
 1882 01ac 9446     		mov	ip, r2
 1883              		.loc 12 152 9 is_stmt 1 discriminator 2 view .LVU531
 1884              		.loc 12 152 18 is_stmt 0 discriminator 2 view .LVU532
 1885 01ae D0ED007A 		vldr.32	s15, [r0]
 1886              	.LBE778:
 131:Proliferation.cpp **** 	{
 1887              		.loc 12 131 2 discriminator 2 view .LVU533
 1888 01b2 0BF1010B 		add	fp, fp, #1
 1889              	.LVL127:
 1890              	.LBB839:
 153:Proliferation.cpp ****         OUT_R[i] += IN_R[i];
 1891              		.loc 12 153 21 discriminator 2 view .LVU534
 1892 01b6 D6E90023 		ldrd	r2, r3, [r6]
 152:Proliferation.cpp ****         OUT_R[i] += IN_R[i];
 1893              		.loc 12 152 27 discriminator 2 view .LVU535
 1894 01ba 5419     		adds	r4, r2, r5
 1895              	.LVL128:
 1896              		.loc 12 153 27 discriminator 2 view .LVU536
 1897 01bc 1D44     		add	r5, r5, r3
 152:Proliferation.cpp ****         OUT_R[i] += IN_R[i];
ARM GAS  C:\Users\daniel\AppData\Local\Temp\cczs0lix.s 			page 63


 1898              		.loc 12 152 18 discriminator 2 view .LVU537
 1899 01be 94ED007A 		vldr.32	s14, [r4]
 1900 01c2 77EE877A 		vadd.f32	s15, s15, s14
 1901 01c6 C0ED007A 		vstr.32	s15, [r0]
 1902              		.loc 12 153 9 is_stmt 1 discriminator 2 view .LVU538
 1903              		.loc 12 153 18 is_stmt 0 discriminator 2 view .LVU539
 1904 01ca D1ED007A 		vldr.32	s15, [r1]
 1905 01ce 95ED007A 		vldr.32	s14, [r5]
 1906 01d2 77EE877A 		vadd.f32	s15, s15, s14
 1907 01d6 C1ED007A 		vstr.32	s15, [r1]
 1908              	.LBE839:
 131:Proliferation.cpp **** 	{
 1909              		.loc 12 131 2 is_stmt 1 discriminator 2 view .LVU540
 1910              	.LVL129:
 131:Proliferation.cpp **** 	{
 1911              		.loc 12 131 23 discriminator 2 view .LVU541
 1912 01da 0399     		ldr	r1, [sp, #12]
 1913 01dc 5945     		cmp	r1, fp
 1914 01de 7FF46CAF 		bne	.L101
 1915              	.LVL130:
 1916              	.L92:
 131:Proliferation.cpp **** 	{
 1917              		.loc 12 131 23 is_stmt 0 discriminator 2 view .LVU542
 1918              	.LBE777:
 154:Proliferation.cpp **** 	}
 155:Proliferation.cpp **** }
 1919              		.loc 12 155 1 view .LVU543
 1920 01e2 07B0     		add	sp, sp, #28
 1921              		.cfi_def_cfa_offset 52
 1922              		@ sp needed
 1923 01e4 BDEC048B 		vldm	sp!, {d8-d9}
 1924              		.cfi_restore 82
 1925              		.cfi_restore 83
 1926              		.cfi_restore 80
 1927              		.cfi_restore 81
 1928              		.cfi_def_cfa_offset 36
 1929              	.LVL131:
 1930              		.loc 12 155 1 view .LVU544
 1931 01e8 BDE8F08F 		pop	{r4, r5, r6, r7, r8, r9, r10, fp, pc}
 1932              	.LVL132:
 1933              	.L106:
 1934              		.loc 12 155 1 view .LVU545
 1935              		.align	2
 1936              	.L105:
 1937 01ec 9A99993E 		.word	1050253722
 1938 01f0 00000000 		.word	.LANCHOR0
 1939 01f4 D7A3303F 		.word	1060152279
 1940 01f8 A4707D3F 		.word	1065185444
 1941 01fc E731483F 		.word	1061695975
 1942 0200 00007A44 		.word	1148846080
 1943 0204 00709446 		.word	1184133120
 1944 0208 00000000 		.word	rv
 1945 020c 00000000 		.word	.LANCHOR4
 1946 0210 0080BB46 		.word	1186693120
 1947 0214 CDCC4C3F 		.word	1061997773
 1948 0218 00000000 		.word	buffers
 1949 021c 7FA90300 		.word	239999
ARM GAS  C:\Users\daniel\AppData\Local\Temp\cczs0lix.s 			page 64


 1950 0220 00000000 		.word	0
 1951 0224 80307500 		.word	buffers+7680128
 1952              		.cfi_endproc
 1953              	.LFE4844:
 1955              		.section	.text._Z12InitSamplersv,"ax",%progbits
 1956              		.align	1
 1957              		.p2align 2,,3
 1958              		.global	_Z12InitSamplersv
 1959              		.syntax unified
 1960              		.thumb
 1961              		.thumb_func
 1962              		.fpu fpv5-d16
 1964              	_Z12InitSamplersv:
 1965              	.LFB4845:
 156:Proliferation.cpp **** 
 157:Proliferation.cpp **** void InitSamplers(){
 1966              		.loc 12 157 20 is_stmt 1 view -0
 1967              		.cfi_startproc
 1968              		@ args = 0, pretend = 0, frame = 0
 1969              		@ frame_needed = 0, uses_anonymous_args = 0
 158:Proliferation.cpp ****     for(auto &buffer : buffers)
 1970              		.loc 12 158 5 view .LVU547
 1971              	.LVL133:
 1972              	.LBB840:
 1973              		.loc 12 158 24 view .LVU548
 1974              	.LBE840:
 157:Proliferation.cpp ****     for(auto &buffer : buffers)
 1975              		.loc 12 157 20 is_stmt 0 view .LVU549
 1976 0000 10B5     		push	{r4, lr}
 1977              		.cfi_def_cfa_offset 8
 1978              		.cfi_offset 4, -8
 1979              		.cfi_offset 14, -4
 1980 0002 0B4B     		ldr	r3, .L111
 1981 0004 0B4C     		ldr	r4, .L111+4
 1982              	.LVL134:
 1983              	.L108:
 1984              	.LBB851:
 1985              	.LBB841:
 1986              	.LBB842:
 1987              	.LBB843:
 1988              	.LBB844:
  29:samplebuffer.h ****         {
 1989              		.loc 13 29 29 is_stmt 1 view .LVU550
  31:samplebuffer.h ****         }
 1990              		.loc 13 31 24 is_stmt 0 view .LVU551
 1991 0006 1846     		mov	r0, r3
 1992 0008 0B4A     		ldr	r2, .L111+8
 1993 000a 0021     		movs	r1, #0
 1994 000c FFF7FEFF 		bl	memset
 1995              	.LVL135:
  31:samplebuffer.h ****         }
 1996              		.loc 13 31 24 view .LVU552
 1997              	.LBE844:
 1998              	.LBE843:
 1999              	.LBE842:
 2000              	.LBE841:
 2001              		.loc 12 158 24 view .LVU553
ARM GAS  C:\Users\daniel\AppData\Local\Temp\cczs0lix.s 			page 65


 2002 0010 00F56A23 		add	r3, r0, #958464
 2003              	.LBB848:
 2004              	.LBB845:
  21:samplebuffer.h ****         write_ptr_ = 0;
 2005              		.loc 13 21 20 view .LVU554
 2006 0014 0022     		movs	r2, #0
 2007              	.LBE845:
 2008              	.LBE848:
 2009              		.loc 12 158 24 view .LVU555
 2010 0016 03F5C263 		add	r3, r3, #1552
 2011              	.LBB849:
 2012              	.LBB846:
  21:samplebuffer.h ****         write_ptr_ = 0;
 2013              		.loc 13 21 20 view .LVU556
 2014 001a 00F8032C 		strb	r2, [r0, #-3]
 2015              	.LBE846:
 2016              	.LBE849:
 2017              		.loc 12 158 24 view .LVU557
 2018 001e 9C42     		cmp	r4, r3
 2019              	.LBB850:
 2020              	.LBB847:
  22:samplebuffer.h ****         playing_   = false;
 2021              		.loc 13 22 20 view .LVU558
 2022 0020 40F8102C 		str	r2, [r0, #-16]
  23:samplebuffer.h ****         read_ptr_  = 0;
 2023              		.loc 13 23 20 view .LVU559
 2024 0024 00F8042C 		strb	r2, [r0, #-4]
  24:samplebuffer.h ****     }
 2025              		.loc 13 24 20 view .LVU560
 2026 0028 40F80C2C 		str	r2, [r0, #-12]
 2027              	.LBE847:
 2028              	.LBE850:
 2029              		.loc 12 158 5 is_stmt 1 view .LVU561
 2030              	.LVL136:
 2031              		.loc 12 158 24 view .LVU562
 2032 002c EBD1     		bne	.L108
 2033              	.LBE851:
 159:Proliferation.cpp ****     {
 160:Proliferation.cpp ****         buffer.Init();
 161:Proliferation.cpp ****     }
 162:Proliferation.cpp **** }
 2034              		.loc 12 162 1 is_stmt 0 view .LVU563
 2035 002e 10BD     		pop	{r4, pc}
 2036              	.L112:
 2037              		.align	2
 2038              	.L111:
 2039 0030 10000000 		.word	buffers+16
 2040 0034 90307500 		.word	buffers+7680144
 2041 0038 00A60E00 		.word	960000
 2042              		.cfi_endproc
 2043              	.LFE4845:
 2045              		.section	.text.startup.main,"ax",%progbits
 2046              		.align	1
 2047              		.p2align 2,,3
 2048              		.global	main
 2049              		.syntax unified
 2050              		.thumb
ARM GAS  C:\Users\daniel\AppData\Local\Temp\cczs0lix.s 			page 66


 2051              		.thumb_func
 2052              		.fpu fpv5-d16
 2054              	main:
 2055              	.LFB4846:
 163:Proliferation.cpp **** 
 164:Proliferation.cpp **** 
 165:Proliferation.cpp **** int main(void)
 166:Proliferation.cpp **** {
 2056              		.loc 12 166 1 is_stmt 1 view -0
 2057              		.cfi_startproc
 2058              		@ args = 0, pretend = 0, frame = 0
 2059              		@ frame_needed = 0, uses_anonymous_args = 0
 167:Proliferation.cpp **** 	hw.Init();
 2060              		.loc 12 167 2 view .LVU565
 166:Proliferation.cpp **** 	hw.Init();
 2061              		.loc 12 166 1 is_stmt 0 view .LVU566
 2062 0000 08B5     		push	{r3, lr}
 2063              		.cfi_def_cfa_offset 8
 2064              		.cfi_offset 3, -8
 2065              		.cfi_offset 14, -4
 2066              		.loc 12 167 9 view .LVU567
 2067 0002 1B48     		ldr	r0, .L116
 166:Proliferation.cpp **** 	hw.Init();
 2068              		.loc 12 166 1 view .LVU568
 2069 0004 2DED028B 		vpush.64	{d8}
 2070              		.cfi_def_cfa_offset 16
 2071              		.cfi_offset 80, -16
 2072              		.cfi_offset 81, -12
 2073              		.loc 12 167 9 view .LVU569
 2074 0008 FFF7FEFF 		bl	_ZN5daisy8patch_sm12DaisyPatchSM4InitEv
 2075              	.LVL137:
 168:Proliferation.cpp ****     float SR = hw.AudioSampleRate();
 2076              		.loc 12 168 5 is_stmt 1 view .LVU570
 2077              		.loc 12 168 34 is_stmt 0 view .LVU571
 2078 000c 1848     		ldr	r0, .L116
 2079 000e FFF7FEFF 		bl	_ZN5daisy8patch_sm12DaisyPatchSM15AudioSampleRateEv
 2080              	.LVL138:
 169:Proliferation.cpp **** 
 170:Proliferation.cpp ****     toggle.Init(hw.B8);
 2081              		.loc 12 170 16 view .LVU572
 2082 0012 184B     		ldr	r3, .L116+4
 168:Proliferation.cpp ****     float SR = hw.AudioSampleRate();
 2083              		.loc 12 168 34 view .LVU573
 2084 0014 B0EE408A 		vmov.f32	s16, s0
 2085              		.loc 12 170 16 view .LVU574
 2086 0018 1748     		ldr	r0, .L116+8
 2087              	.LVL139:
 2088              		.loc 12 170 5 is_stmt 1 view .LVU575
 2089              		.loc 12 170 16 is_stmt 0 view .LVU576
 2090 001a 1A78     		ldrb	r2, [r3]	@ zero_extendqisi2
 2091 001c 5978     		ldrb	r1, [r3, #1]	@ zero_extendqisi2
 2092 001e 9FED170A 		vldr.32	s0, .L116+12
 2093              	.LVL140:
 2094              		.loc 12 170 16 view .LVU577
 2095 0022 42EA0121 		orr	r1, r2, r1, lsl #8
 2096 0026 FFF7FEFF 		bl	_ZN5daisy6Switch4InitE12dsy_gpio_pinf
 2097              	.LVL141:
ARM GAS  C:\Users\daniel\AppData\Local\Temp\cczs0lix.s 			page 67


 171:Proliferation.cpp ****     button.Init(hw.B7);
 2098              		.loc 12 171 5 is_stmt 1 view .LVU578
 2099              		.loc 12 171 16 is_stmt 0 view .LVU579
 2100 002a 154B     		ldr	r3, .L116+16
 2101 002c 1548     		ldr	r0, .L116+20
 2102 002e 1A78     		ldrb	r2, [r3]	@ zero_extendqisi2
 2103 0030 5978     		ldrb	r1, [r3, #1]	@ zero_extendqisi2
 2104 0032 9FED120A 		vldr.32	s0, .L116+12
 2105 0036 42EA0121 		orr	r1, r2, r1, lsl #8
 2106 003a FFF7FEFF 		bl	_ZN5daisy6Switch4InitE12dsy_gpio_pinf
 2107              	.LVL142:
 172:Proliferation.cpp ****     InitSamplers();
 2108              		.loc 12 172 5 is_stmt 1 view .LVU580
 2109              		.loc 12 172 17 is_stmt 0 view .LVU581
 2110 003e FFF7FEFF 		bl	_Z12InitSamplersv
 2111              	.LVL143:
 173:Proliferation.cpp ****     rv.Init(SR);
 2112              		.loc 12 173 5 is_stmt 1 view .LVU582
 2113              		.loc 12 173 12 is_stmt 0 view .LVU583
 2114 0042 B0EE480A 		vmov.f32	s0, s16
 2115 0046 1048     		ldr	r0, .L116+24
 2116 0048 FFF7FEFF 		bl	_ZN7daisysp8ReverbSc4InitEf
 2117              	.LVL144:
 174:Proliferation.cpp ****     svf.Init(SR);
 2118              		.loc 12 174 5 is_stmt 1 view .LVU584
 2119              		.loc 12 174 13 is_stmt 0 view .LVU585
 2120 004c B0EE480A 		vmov.f32	s0, s16
 2121 0050 0E48     		ldr	r0, .L116+28
 2122 0052 FFF7FEFF 		bl	_ZN7daisysp3Svf4InitEf
 2123              	.LVL145:
 175:Proliferation.cpp **** 
 176:Proliferation.cpp ****     hw.SetAudioBlockSize(4); // number of samples handled per callback
 2124              		.loc 12 176 5 is_stmt 1 view .LVU586
 2125              		.loc 12 176 25 is_stmt 0 view .LVU587
 2126 0056 0421     		movs	r1, #4
 2127 0058 0548     		ldr	r0, .L116
 2128 005a FFF7FEFF 		bl	_ZN5daisy8patch_sm12DaisyPatchSM17SetAudioBlockSizeEj
 2129              	.LVL146:
 177:Proliferation.cpp ****     hw.SetAudioSampleRate(SaiHandle::Config::SampleRate::SAI_48KHZ);
 2130              		.loc 12 177 5 is_stmt 1 view .LVU588
 2131              		.loc 12 177 26 is_stmt 0 view .LVU589
 2132 005e 0321     		movs	r1, #3
 2133 0060 0348     		ldr	r0, .L116
 2134 0062 FFF7FEFF 		bl	_ZN5daisy8patch_sm12DaisyPatchSM18SetAudioSampleRateENS_9SaiHandle6Config10SampleRateE
 2135              	.LVL147:
 178:Proliferation.cpp ****     hw.StartAudio(AudioCallback);
 2136              		.loc 12 178 5 is_stmt 1 view .LVU590
 2137              		.loc 12 178 18 is_stmt 0 view .LVU591
 2138 0066 0A49     		ldr	r1, .L116+32
 2139 0068 0148     		ldr	r0, .L116
 2140 006a FFF7FEFF 		bl	_ZN5daisy8patch_sm12DaisyPatchSM10StartAudioEPFvPKPKfPPfjE
 2141              	.LVL148:
 2142              	.L114:
 179:Proliferation.cpp **** 
 180:Proliferation.cpp **** 	while(1) {
 2143              		.loc 12 180 2 is_stmt 1 discriminator 1 view .LVU592
 2144              		.loc 12 180 2 discriminator 1 view .LVU593
ARM GAS  C:\Users\daniel\AppData\Local\Temp\cczs0lix.s 			page 68


 2145              		.loc 12 180 2 discriminator 1 view .LVU594
 2146              		.loc 12 180 2 discriminator 1 view .LVU595
 2147 006e FEE7     		b	.L114
 2148              	.L117:
 2149              		.align	2
 2150              	.L116:
 2151 0070 00000000 		.word	.LANCHOR0
 2152 0074 00000000 		.word	_ZN5daisy8patch_sm12DaisyPatchSM2B8E
 2153 0078 00000000 		.word	.LANCHOR2
 2154 007c 00000000 		.word	0
 2155 0080 00000000 		.word	_ZN5daisy8patch_sm12DaisyPatchSM2B7E
 2156 0084 00000000 		.word	.LANCHOR1
 2157 0088 00000000 		.word	rv
 2158 008c 00000000 		.word	.LANCHOR4
 2159 0090 00000000 		.word	_Z13AudioCallbackPKPKfPPfj
 2160              		.cfi_endproc
 2161              	.LFE4846:
 2163              		.section	.text.startup._GLOBAL__sub_I_hw,"ax",%progbits
 2164              		.align	1
 2165              		.p2align 2,,3
 2166              		.syntax unified
 2167              		.thumb
 2168              		.thumb_func
 2169              		.fpu fpv5-d16
 2171              	_GLOBAL__sub_I_hw:
 2172              	.LFB5429:
 181:Proliferation.cpp **** 	}
 182:Proliferation.cpp **** }
 2173              		.loc 12 182 1 view -0
 2174              		.cfi_startproc
 2175              		@ args = 0, pretend = 0, frame = 0
 2176              		@ frame_needed = 0, uses_anonymous_args = 0
 2177              	.LBB890:
 2178              	.LBI890:
 2179              		.loc 12 182 1 view .LVU597
 2180              	.LVL149:
 2181              	.LBB891:
 2182              	.LBB892:
 2183              	.LBI892:
  64:../../libDaisy//src/daisy_patch_sm.h ****         ~DaisyPatchSM() {}
 2184              		.loc 2 64 9 view .LVU598
 2185              	.LBB893:
 2186              	.LBB894:
 2187              	.LBI894:
  77:../../libDaisy//src/sys/system.h ****     ~System() {}
 2188              		.loc 8 77 5 view .LVU599
  77:../../libDaisy//src/sys/system.h ****     ~System() {}
 2189              		.loc 8 77 5 is_stmt 0 view .LVU600
 2190              	.LBE894:
 2191              	.LBB895:
 2192              	.LBI895:
 2193              		.file 15 "../../libDaisy//src/per/qspi.h"
   1:../../libDaisy//src/per/qspi.h **** #ifndef DSY_QSPI
   2:../../libDaisy//src/per/qspi.h **** #define DSY_QSPI /**< Macro */
   3:../../libDaisy//src/per/qspi.h **** 
   4:../../libDaisy//src/per/qspi.h **** #ifndef UNIT_TEST // for unit tests, a dummy implementation
   5:../../libDaisy//src/per/qspi.h **** 
ARM GAS  C:\Users\daniel\AppData\Local\Temp\cczs0lix.s 			page 69


   6:../../libDaisy//src/per/qspi.h **** #include <cstdint>
   7:../../libDaisy//src/per/qspi.h **** #include "daisy_core.h" // Added for dsy_gpio_pin typedef
   8:../../libDaisy//src/per/qspi.h **** 
   9:../../libDaisy//src/per/qspi.h **** #define DSY_QSPI_TEXT       \
  10:../../libDaisy//src/per/qspi.h ****     __attribute__((section( \
  11:../../libDaisy//src/per/qspi.h ****         ".qspiflash_text"))) /**< used for reading memory in memory_mapped mode. */
  12:../../libDaisy//src/per/qspi.h **** #define DSY_QSPI_DATA       \
  13:../../libDaisy//src/per/qspi.h ****     __attribute__((section( \
  14:../../libDaisy//src/per/qspi.h ****         ".qspiflash_data"))) /**< used for reading memory in memory_mapped mode. */
  15:../../libDaisy//src/per/qspi.h **** #define DSY_QSPI_BSS        \
  16:../../libDaisy//src/per/qspi.h ****     __attribute__((section( \
  17:../../libDaisy//src/per/qspi.h ****         ".qspiflash_bss"))) /**< used for reading memory in memory_mapped mode. */
  18:../../libDaisy//src/per/qspi.h **** 
  19:../../libDaisy//src/per/qspi.h **** namespace daisy
  20:../../libDaisy//src/per/qspi.h **** {
  21:../../libDaisy//src/per/qspi.h **** /** @addtogroup serial
  22:../../libDaisy//src/per/qspi.h **** @{
  23:../../libDaisy//src/per/qspi.h **** */
  24:../../libDaisy//src/per/qspi.h **** 
  25:../../libDaisy//src/per/qspi.h **** /** 
  26:../../libDaisy//src/per/qspi.h ****  Driver for QSPI peripheral to interface with external flash memory. \n 
  27:../../libDaisy//src/per/qspi.h ****     Currently supported QSPI Devices: \n 
  28:../../libDaisy//src/per/qspi.h ****     * IS25LP080D
  29:../../libDaisy//src/per/qspi.h **** */
  30:../../libDaisy//src/per/qspi.h **** class QSPIHandle
  31:../../libDaisy//src/per/qspi.h **** {
  32:../../libDaisy//src/per/qspi.h ****   public:
  33:../../libDaisy//src/per/qspi.h ****     enum Result
  34:../../libDaisy//src/per/qspi.h ****     {
  35:../../libDaisy//src/per/qspi.h ****         OK = 0,
  36:../../libDaisy//src/per/qspi.h ****         ERR
  37:../../libDaisy//src/per/qspi.h ****     };
  38:../../libDaisy//src/per/qspi.h **** 
  39:../../libDaisy//src/per/qspi.h ****     /** Indicates the current status of the module. 
  40:../../libDaisy//src/per/qspi.h ****          *  Warnings are indicated by a leading W.
  41:../../libDaisy//src/per/qspi.h ****          *  Errors are indicated by a leading E and cause an immediate exit.
  42:../../libDaisy//src/per/qspi.h ****          * 
  43:../../libDaisy//src/per/qspi.h ****          *  \param GOOD - No errors have been reported.
  44:../../libDaisy//src/per/qspi.h ****          *  \param E_HAL_ERROR - HAL code did not return HAL_OK.
  45:../../libDaisy//src/per/qspi.h ****          *  \param E_SWITCHING_MODES - An error was encountered while switching QSPI peripheral mod
  46:../../libDaisy//src/per/qspi.h ****          *  \param E_INVALID_MODE - QSPI should not be written to while the program is executing fr
  47:../../libDaisy//src/per/qspi.h ****          */
  48:../../libDaisy//src/per/qspi.h ****     enum Status
  49:../../libDaisy//src/per/qspi.h ****     {
  50:../../libDaisy//src/per/qspi.h ****         GOOD = 0,
  51:../../libDaisy//src/per/qspi.h ****         E_HAL_ERROR,
  52:../../libDaisy//src/per/qspi.h ****         E_SWITCHING_MODES,
  53:../../libDaisy//src/per/qspi.h ****         E_INVALID_MODE,
  54:../../libDaisy//src/per/qspi.h ****     };
  55:../../libDaisy//src/per/qspi.h **** 
  56:../../libDaisy//src/per/qspi.h ****     /** Configuration structure for interfacing with QSPI Driver */
  57:../../libDaisy//src/per/qspi.h ****     struct Config
  58:../../libDaisy//src/per/qspi.h ****     {
  59:../../libDaisy//src/per/qspi.h ****         /** Flash Devices supported. (Both of these are more-or-less the same, just different sizes
  60:../../libDaisy//src/per/qspi.h ****         enum Device
  61:../../libDaisy//src/per/qspi.h ****         {
  62:../../libDaisy//src/per/qspi.h ****             IS25LP080D,  /**< & */
ARM GAS  C:\Users\daniel\AppData\Local\Temp\cczs0lix.s 			page 70


  63:../../libDaisy//src/per/qspi.h ****             IS25LP064A,  /**< & */
  64:../../libDaisy//src/per/qspi.h ****             DEVICE_LAST, /**< & */
  65:../../libDaisy//src/per/qspi.h ****         };
  66:../../libDaisy//src/per/qspi.h **** 
  67:../../libDaisy//src/per/qspi.h ****         /** 
  68:../../libDaisy//src/per/qspi.h ****         Modes of operation.
  69:../../libDaisy//src/per/qspi.h ****         Memory Mapped mode: QSPI configured so that the QSPI can be
  70:../../libDaisy//src/per/qspi.h ****         read from starting address 0x90000000. Writing is not
  71:../../libDaisy//src/per/qspi.h ****         possible in this mode. \n 
  72:../../libDaisy//src/per/qspi.h ****         Indirect Polling mode: Device driver enabled. 
  73:../../libDaisy//src/per/qspi.h ****         */
  74:../../libDaisy//src/per/qspi.h ****         enum Mode
  75:../../libDaisy//src/per/qspi.h ****         {
  76:../../libDaisy//src/per/qspi.h ****             MEMORY_MAPPED,    /**< & */
  77:../../libDaisy//src/per/qspi.h ****             INDIRECT_POLLING, /**< & */
  78:../../libDaisy//src/per/qspi.h ****             MODE_LAST,
  79:../../libDaisy//src/per/qspi.h ****         };
  80:../../libDaisy//src/per/qspi.h **** 
  81:../../libDaisy//src/per/qspi.h ****         //SCK,  CE# (active low)
  82:../../libDaisy//src/per/qspi.h ****         struct
  83:../../libDaisy//src/per/qspi.h ****         {
  84:../../libDaisy//src/per/qspi.h ****             dsy_gpio_pin io0; /**< & */
  85:../../libDaisy//src/per/qspi.h ****             dsy_gpio_pin io1; /**< & */
  86:../../libDaisy//src/per/qspi.h ****             dsy_gpio_pin io2; /**< & */
  87:../../libDaisy//src/per/qspi.h ****             dsy_gpio_pin io3; /**< & */
  88:../../libDaisy//src/per/qspi.h ****             dsy_gpio_pin clk; /**< & */
  89:../../libDaisy//src/per/qspi.h ****             dsy_gpio_pin ncs; /**< & */
  90:../../libDaisy//src/per/qspi.h ****         } pin_config;
  91:../../libDaisy//src/per/qspi.h **** 
  92:../../libDaisy//src/per/qspi.h ****         Device device;
  93:../../libDaisy//src/per/qspi.h ****         Mode   mode;
  94:../../libDaisy//src/per/qspi.h ****     };
  95:../../libDaisy//src/per/qspi.h **** 
  96:../../libDaisy//src/per/qspi.h ****     /** 
  97:../../libDaisy//src/per/qspi.h ****         Initializes QSPI peripheral, and Resets, and prepares memory for access.
  98:../../libDaisy//src/per/qspi.h ****         \param config should be populated with the mode, device and pin_config before calling this 
  99:../../libDaisy//src/per/qspi.h ****         \return Result::OK or Result::ERR
 100:../../libDaisy//src/per/qspi.h ****         */
 101:../../libDaisy//src/per/qspi.h ****     Result Init(const Config& config);
 102:../../libDaisy//src/per/qspi.h **** 
 103:../../libDaisy//src/per/qspi.h ****     /** Returns the current config. */
 104:../../libDaisy//src/per/qspi.h ****     const Config& GetConfig() const;
 105:../../libDaisy//src/per/qspi.h **** 
 106:../../libDaisy//src/per/qspi.h ****     // Couldn't this just be called before anything else in init? That
 107:../../libDaisy//src/per/qspi.h ****     // would make manually calling it unnecessary.
 108:../../libDaisy//src/per/qspi.h ****     /** 
 109:../../libDaisy//src/per/qspi.h ****         Deinitializes the peripheral
 110:../../libDaisy//src/per/qspi.h ****         This should be called before reinitializing QSPI in a different mode.
 111:../../libDaisy//src/per/qspi.h ****         \return Result::OK or Result::ERR
 112:../../libDaisy//src/per/qspi.h ****         */
 113:../../libDaisy//src/per/qspi.h ****     Result DeInit();
 114:../../libDaisy//src/per/qspi.h **** 
 115:../../libDaisy//src/per/qspi.h ****     /** 
 116:../../libDaisy//src/per/qspi.h ****         Writes a single page to to the specified address on the QSPI chip.
 117:../../libDaisy//src/per/qspi.h ****         For IS25LP*, page size is 256 bytes.
 118:../../libDaisy//src/per/qspi.h ****         \param address Address to write to
 119:../../libDaisy//src/per/qspi.h ****         \param size Buffer size
ARM GAS  C:\Users\daniel\AppData\Local\Temp\cczs0lix.s 			page 71


 120:../../libDaisy//src/per/qspi.h ****         \param buffer Buffer to write
 121:../../libDaisy//src/per/qspi.h ****         \return Result::OK or Result::ERR
 122:../../libDaisy//src/per/qspi.h ****         */
 123:../../libDaisy//src/per/qspi.h ****     Result WritePage(uint32_t address, uint32_t size, uint8_t* buffer);
 124:../../libDaisy//src/per/qspi.h **** 
 125:../../libDaisy//src/per/qspi.h ****     /** 
 126:../../libDaisy//src/per/qspi.h ****         Writes data in buffer to to the QSPI. Starting at address to address+size 
 127:../../libDaisy//src/per/qspi.h ****         \param address Address to write to
 128:../../libDaisy//src/per/qspi.h ****         \param size Buffer size
 129:../../libDaisy//src/per/qspi.h ****         \param buffer Buffer to write
 130:../../libDaisy//src/per/qspi.h ****         \return Result::OK or Result::ERR
 131:../../libDaisy//src/per/qspi.h ****         */
 132:../../libDaisy//src/per/qspi.h ****     Result Write(uint32_t address, uint32_t size, uint8_t* buffer);
 133:../../libDaisy//src/per/qspi.h **** 
 134:../../libDaisy//src/per/qspi.h ****     /** 
 135:../../libDaisy//src/per/qspi.h ****         Erases the area specified on the chip.
 136:../../libDaisy//src/per/qspi.h ****         Erasures will happen by 4K, 32K or 64K increments.
 137:../../libDaisy//src/per/qspi.h ****         Smallest erase possible is 4kB at a time. (on IS25LP*)
 138:../../libDaisy//src/per/qspi.h ****         \param start_addr Address to begin erasing from
 139:../../libDaisy//src/per/qspi.h ****         \param end_addr  Address to stop erasing at
 140:../../libDaisy//src/per/qspi.h ****         \return Result::OK or Result::ERR
 141:../../libDaisy//src/per/qspi.h ****         */
 142:../../libDaisy//src/per/qspi.h ****     Result Erase(uint32_t start_addr, uint32_t end_addr);
 143:../../libDaisy//src/per/qspi.h **** 
 144:../../libDaisy//src/per/qspi.h ****     /**  
 145:../../libDaisy//src/per/qspi.h ****          Erases a single sector of the chip.  
 146:../../libDaisy//src/per/qspi.h ****         TODO: Document the size of this function. 
 147:../../libDaisy//src/per/qspi.h ****         \param address Address of sector to erase
 148:../../libDaisy//src/per/qspi.h ****         \return Result::OK or Result::ERR
 149:../../libDaisy//src/per/qspi.h ****         */
 150:../../libDaisy//src/per/qspi.h ****     Result EraseSector(uint32_t address);
 151:../../libDaisy//src/per/qspi.h **** 
 152:../../libDaisy//src/per/qspi.h ****     /** Returns the current class status. Useful for debugging.
 153:../../libDaisy//src/per/qspi.h ****      *  \returns Status
 154:../../libDaisy//src/per/qspi.h ****      */
 155:../../libDaisy//src/per/qspi.h ****     Status GetStatus();
 156:../../libDaisy//src/per/qspi.h **** 
 157:../../libDaisy//src/per/qspi.h ****     /** Returns a pointer to the actual memory used 
 158:../../libDaisy//src/per/qspi.h ****      *  The memory at this address is read-only
 159:../../libDaisy//src/per/qspi.h ****      *  to write to it use the Write function.
 160:../../libDaisy//src/per/qspi.h ****      * 
 161:../../libDaisy//src/per/qspi.h ****      *  \param offset returns the pointer starting this 
 162:../../libDaisy//src/per/qspi.h ****      *                many bytes into the memory
 163:../../libDaisy//src/per/qspi.h ****     */
 164:../../libDaisy//src/per/qspi.h ****     void* GetData(uint32_t offset = 0);
 165:../../libDaisy//src/per/qspi.h **** 
 166:../../libDaisy//src/per/qspi.h ****     QSPIHandle() : pimpl_(nullptr) {}
 2194              		.loc 15 166 5 is_stmt 1 view .LVU601
 2195              	.LBE895:
 2196              	.LBE893:
 2197              	.LBE892:
 2198              	.LBE891:
 2199              	.LBE890:
 2200              		.loc 12 182 1 is_stmt 0 view .LVU602
 2201 0000 08B5     		push	{r3, lr}
 2202              		.cfi_def_cfa_offset 8
 2203              		.cfi_offset 3, -8
ARM GAS  C:\Users\daniel\AppData\Local\Temp\cczs0lix.s 			page 72


 2204              		.cfi_offset 14, -4
 2205              	.LBB935:
 2206              	.LBB931:
 2207              	.LBB922:
 2208              	.LBB918:
 2209              	.LBB898:
 2210              	.LBB896:
 2211              	.LBB897:
 2212              		.loc 15 166 34 view .LVU603
 2213 0002 1248     		ldr	r0, .L120
 2214 0004 0023     		movs	r3, #0
 2215              	.LBE897:
 2216              	.LBE896:
 2217              	.LBE898:
 2218              	.LBE918:
 2219              	.LBE922:
  10:Proliferation.cpp **** Switch          toggle;
 2220              		.loc 12 10 17 view .LVU604
 2221 0006 124A     		ldr	r2, .L120+4
 2222              	.LBB923:
 2223              	.LBB919:
 2224              	.LBB899:
 2225              	.LBB900:
 2226              	.LBB901:
 2227              	.LBB902:
 2228              	.LBB903:
 2229              		.file 16 "../../libDaisy//src/per/i2c.h"
   1:../../libDaisy//src/per/i2c.h **** #pragma once
   2:../../libDaisy//src/per/i2c.h **** #include "daisy_core.h"
   3:../../libDaisy//src/per/i2c.h **** 
   4:../../libDaisy//src/per/i2c.h **** namespace daisy
   5:../../libDaisy//src/per/i2c.h **** {
   6:../../libDaisy//src/per/i2c.h **** /** A handle for interacting with an I2C peripheral. This is a dumb
   7:../../libDaisy//src/per/i2c.h ****  *  gateway that internally points to one of the four I2C peripherals
   8:../../libDaisy//src/per/i2c.h ****  *  after it was initialised. It can then be copied and passed around.
   9:../../libDaisy//src/per/i2c.h ****  *  Use an I2CHandle like this:
  10:../../libDaisy//src/per/i2c.h ****  *  
  11:../../libDaisy//src/per/i2c.h ****  *      // setup the configuration
  12:../../libDaisy//src/per/i2c.h ****  *      I2CHandle::Config i2c_conf;
  13:../../libDaisy//src/per/i2c.h ****  *      i2c_conf.periph = I2CHandle::Config::Peripheral::I2C_1;
  14:../../libDaisy//src/per/i2c.h ****  *      i2c_conf.speed  = I2CHandle::Config::Speed::I2C_400KHZ;
  15:../../libDaisy//src/per/i2c.h ****  *      i2c_conf.mode   = I2CHandle::Config::Mode::Master;
  16:../../libDaisy//src/per/i2c.h ****  *      i2c_conf.pin_config.scl  = {DSY_GPIOB, 8};
  17:../../libDaisy//src/per/i2c.h ****  *      i2c_conf.pin_config.sda  = {DSY_GPIOB, 9};
  18:../../libDaisy//src/per/i2c.h ****  *      // initialise the peripheral
  19:../../libDaisy//src/per/i2c.h ****  *      I2CHandle i2c;
  20:../../libDaisy//src/per/i2c.h ****  *      i2c.Init(i2c_conf);
  21:../../libDaisy//src/per/i2c.h ****  *      // now i2c points to the corresponding peripheral and can be used.
  22:../../libDaisy//src/per/i2c.h ****  *      i2c.TransmitBlocking( ... );
  23:../../libDaisy//src/per/i2c.h ****  */
  24:../../libDaisy//src/per/i2c.h **** class I2CHandle
  25:../../libDaisy//src/per/i2c.h **** {
  26:../../libDaisy//src/per/i2c.h ****   public:
  27:../../libDaisy//src/per/i2c.h ****     /** Contains settings for initialising an I2C interface. */
  28:../../libDaisy//src/per/i2c.h ****     struct Config
  29:../../libDaisy//src/per/i2c.h ****     {
  30:../../libDaisy//src/per/i2c.h ****         /** Specifies whether the interface will operate in master or slave mode. */
ARM GAS  C:\Users\daniel\AppData\Local\Temp\cczs0lix.s 			page 73


  31:../../libDaisy//src/per/i2c.h ****         enum class Mode
  32:../../libDaisy//src/per/i2c.h ****         {
  33:../../libDaisy//src/per/i2c.h ****             I2C_MASTER,
  34:../../libDaisy//src/per/i2c.h ****             I2C_SLAVE,
  35:../../libDaisy//src/per/i2c.h ****         };
  36:../../libDaisy//src/per/i2c.h **** 
  37:../../libDaisy//src/per/i2c.h ****         /** Specifices the internal peripheral to use (these are mapped to different pins on the ha
  38:../../libDaisy//src/per/i2c.h ****         enum class Peripheral
  39:../../libDaisy//src/per/i2c.h ****         {
  40:../../libDaisy//src/per/i2c.h ****             I2C_1 = 0, /**< & */
  41:../../libDaisy//src/per/i2c.h ****             I2C_2,     /**< & */
  42:../../libDaisy//src/per/i2c.h ****             I2C_3,     /**< & */
  43:../../libDaisy//src/per/i2c.h ****             I2C_4,     /**< & */
  44:../../libDaisy//src/per/i2c.h ****         };
  45:../../libDaisy//src/per/i2c.h **** 
  46:../../libDaisy//src/per/i2c.h ****         /** Rate at which the clock/data will be sent/received. The device being used will have max
  47:../../libDaisy//src/per/i2c.h ****          *  1MHZ Mode is currently 886kHz
  48:../../libDaisy//src/per/i2c.h ****          */
  49:../../libDaisy//src/per/i2c.h ****         enum class Speed
  50:../../libDaisy//src/per/i2c.h ****         {
  51:../../libDaisy//src/per/i2c.h ****             I2C_100KHZ, /**< & */
  52:../../libDaisy//src/per/i2c.h ****             I2C_400KHZ, /**< & */
  53:../../libDaisy//src/per/i2c.h ****             I2C_1MHZ,   /**< & */
  54:../../libDaisy//src/per/i2c.h ****         };
  55:../../libDaisy//src/per/i2c.h **** 
  56:../../libDaisy//src/per/i2c.h ****         Peripheral periph; /**< & */
  57:../../libDaisy//src/per/i2c.h ****         struct
  58:../../libDaisy//src/per/i2c.h ****         {
  59:../../libDaisy//src/per/i2c.h ****             dsy_gpio_pin scl; /**< & */
  60:../../libDaisy//src/per/i2c.h ****             dsy_gpio_pin sda; /**< & */
  61:../../libDaisy//src/per/i2c.h ****         } pin_config;         /**< & */
  62:../../libDaisy//src/per/i2c.h **** 
  63:../../libDaisy//src/per/i2c.h ****         Speed speed; /**< & */
  64:../../libDaisy//src/per/i2c.h ****         Mode  mode;  /**< & */
  65:../../libDaisy//src/per/i2c.h ****         // 0x10 is chosen as a default to avoid conflicts with reserved addresses
  66:../../libDaisy//src/per/i2c.h ****         uint8_t address = 0x10; /**< & */
  67:../../libDaisy//src/per/i2c.h ****     };
  68:../../libDaisy//src/per/i2c.h **** 
  69:../../libDaisy//src/per/i2c.h ****     /** Return values for I2C functions. */
  70:../../libDaisy//src/per/i2c.h ****     enum class Result
  71:../../libDaisy//src/per/i2c.h ****     {
  72:../../libDaisy//src/per/i2c.h ****         OK, /**< & */
  73:../../libDaisy//src/per/i2c.h ****         ERR /**< & */
  74:../../libDaisy//src/per/i2c.h ****     };
  75:../../libDaisy//src/per/i2c.h **** 
  76:../../libDaisy//src/per/i2c.h ****     enum class Direction
  77:../../libDaisy//src/per/i2c.h ****     {
  78:../../libDaisy//src/per/i2c.h ****         TRANSMIT, /**< & */
  79:../../libDaisy//src/per/i2c.h ****         RECEIVE,  /**< & */
  80:../../libDaisy//src/per/i2c.h ****     };
  81:../../libDaisy//src/per/i2c.h **** 
  82:../../libDaisy//src/per/i2c.h ****     I2CHandle() : pimpl_(nullptr) {}
 2230              		.loc 16 82 33 view .LVU605
 2231 0008 0362     		str	r3, [r0, #32]
 2232              	.LBE903:
 2233              	.LBE902:
 2234              	.LBE901:
ARM GAS  C:\Users\daniel\AppData\Local\Temp\cczs0lix.s 			page 74


 2235              	.LBE900:
 2236              	.LBE899:
 2237              	.LBB906:
 2238              	.LBB907:
 2239              	.LBB908:
 2240              		.file 17 "../../libDaisy//src/per/dac.h"
   1:../../libDaisy//src/per/dac.h **** #pragma once
   2:../../libDaisy//src/per/dac.h **** #ifndef DSY_DAC_H
   3:../../libDaisy//src/per/dac.h **** #define DSY_DAC_H
   4:../../libDaisy//src/per/dac.h **** 
   5:../../libDaisy//src/per/dac.h **** #include "daisy_core.h"
   6:../../libDaisy//src/per/dac.h **** 
   7:../../libDaisy//src/per/dac.h **** namespace daisy
   8:../../libDaisy//src/per/dac.h **** {
   9:../../libDaisy//src/per/dac.h **** /** @brief DAC handle for Built-in DAC Peripheral 
  10:../../libDaisy//src/per/dac.h ****  *  @ingroup per_analog
  11:../../libDaisy//src/per/dac.h ****  ** 
  12:../../libDaisy//src/per/dac.h ****  ** For now only Normal Mode is supported,
  13:../../libDaisy//src/per/dac.h ****  ** Sample and hold mode provides reduced power consumption, but requires a bit more setup.
  14:../../libDaisy//src/per/dac.h ****  **
  15:../../libDaisy//src/per/dac.h ****  ** For now connecting the DAC through other internal peripherals is also not supported.
  16:../../libDaisy//src/per/dac.h ****  **
  17:../../libDaisy//src/per/dac.h ****  ** Since the DAC channels have dedicated pins we don't need to pass in a pin config like with
  18:../../libDaisy//src/per/dac.h ****  ** other modules. However, it is still important to not try to use the DAC pins for anything else.
  19:../../libDaisy//src/per/dac.h ****  ** DAC Channel 1 is on PA4, and DAC Channel 2 is on PA5
  20:../../libDaisy//src/per/dac.h ****  ***/
  21:../../libDaisy//src/per/dac.h **** class DacHandle
  22:../../libDaisy//src/per/dac.h **** {
  23:../../libDaisy//src/per/dac.h ****   public:
  24:../../libDaisy//src/per/dac.h ****     /** Return Values for the DacHandle class */
  25:../../libDaisy//src/per/dac.h ****     enum class Result
  26:../../libDaisy//src/per/dac.h ****     {
  27:../../libDaisy//src/per/dac.h ****         OK,
  28:../../libDaisy//src/per/dac.h ****         ERR,
  29:../../libDaisy//src/per/dac.h ****     };
  30:../../libDaisy//src/per/dac.h **** 
  31:../../libDaisy//src/per/dac.h ****     /** Selects which channel(s) will be configured for use. */
  32:../../libDaisy//src/per/dac.h ****     enum class Channel
  33:../../libDaisy//src/per/dac.h ****     {
  34:../../libDaisy//src/per/dac.h ****         ONE,
  35:../../libDaisy//src/per/dac.h ****         TWO,
  36:../../libDaisy//src/per/dac.h ****         BOTH,
  37:../../libDaisy//src/per/dac.h ****     };
  38:../../libDaisy//src/per/dac.h **** 
  39:../../libDaisy//src/per/dac.h ****     /** Sets the Mode for the DAC channels.
  40:../../libDaisy//src/per/dac.h ****      **
  41:../../libDaisy//src/per/dac.h ****      ** Polling mode uses the blocking mode to transmit a single value at a time.
  42:../../libDaisy//src/per/dac.h ****      **
  43:../../libDaisy//src/per/dac.h ****      ** DMA mode uses a buffer, and periodically transmits it triggering a 
  44:../../libDaisy//src/per/dac.h ****      ** callback to fill the buffer when it is ready for more samples.
  45:../../libDaisy//src/per/dac.h ****      ***/
  46:../../libDaisy//src/per/dac.h ****     enum class Mode
  47:../../libDaisy//src/per/dac.h ****     {
  48:../../libDaisy//src/per/dac.h ****         POLLING,
  49:../../libDaisy//src/per/dac.h ****         DMA,
  50:../../libDaisy//src/per/dac.h ****     };
  51:../../libDaisy//src/per/dac.h **** 
ARM GAS  C:\Users\daniel\AppData\Local\Temp\cczs0lix.s 			page 75


  52:../../libDaisy//src/per/dac.h ****     /** Sets the number of bits per sample transmitted out of the DAC.
  53:../../libDaisy//src/per/dac.h ****      ** The output range will be: 0V - VDDA
  54:../../libDaisy//src/per/dac.h ****      ** The resolution will be roughly: bitdepth / (VDDA - 0V) 
  55:../../libDaisy//src/per/dac.h ****      ***/
  56:../../libDaisy//src/per/dac.h ****     enum class BitDepth
  57:../../libDaisy//src/per/dac.h ****     {
  58:../../libDaisy//src/per/dac.h ****         BITS_8,
  59:../../libDaisy//src/per/dac.h ****         BITS_12
  60:../../libDaisy//src/per/dac.h ****     };
  61:../../libDaisy//src/per/dac.h **** 
  62:../../libDaisy//src/per/dac.h ****     /** Sets whether the DAC output is buffered for higher drive ability. */
  63:../../libDaisy//src/per/dac.h ****     enum class BufferState
  64:../../libDaisy//src/per/dac.h ****     {
  65:../../libDaisy//src/per/dac.h ****         ENABLED,
  66:../../libDaisy//src/per/dac.h ****         DISABLED,
  67:../../libDaisy//src/per/dac.h ****     };
  68:../../libDaisy//src/per/dac.h **** 
  69:../../libDaisy//src/per/dac.h ****     /** Configuration structure for initializing the DAC structure. */
  70:../../libDaisy//src/per/dac.h ****     struct Config
  71:../../libDaisy//src/per/dac.h ****     {
  72:../../libDaisy//src/per/dac.h ****         /** Target Samplerate in Hz used to configure the internal 
  73:../../libDaisy//src/per/dac.h ****          ** timebase for DMA mode. Does nothing in POLLING mode.
  74:../../libDaisy//src/per/dac.h ****          ** If the value is 0 at Init time this will default to 48000Hz 
  75:../../libDaisy//src/per/dac.h ****          ** otherwise the driver will attempt meet the target.*/
  76:../../libDaisy//src/per/dac.h ****         uint32_t target_samplerate;
  77:../../libDaisy//src/per/dac.h **** 
  78:../../libDaisy//src/per/dac.h ****         Channel     chn;
  79:../../libDaisy//src/per/dac.h ****         Mode        mode;
  80:../../libDaisy//src/per/dac.h ****         BitDepth    bitdepth;
  81:../../libDaisy//src/per/dac.h ****         BufferState buff_state;
  82:../../libDaisy//src/per/dac.h ****     };
  83:../../libDaisy//src/per/dac.h **** 
  84:../../libDaisy//src/per/dac.h ****     DacHandle() : pimpl_(nullptr) {}
 2241              		.loc 17 84 33 view .LVU606
 2242 000a 8362     		str	r3, [r0, #40]
 2243              	.LBE908:
 2244              	.LBE907:
 2245              	.LBE906:
 2246              	.LBE919:
 2247              	.LBE923:
  10:Proliferation.cpp **** Switch          toggle;
 2248              		.loc 12 10 17 view .LVU607
 2249 000c 1149     		ldr	r1, .L120+8
 2250              	.LBB924:
 2251              	.LBB920:
 2252              	.LBB909:
 2253              	.LBB910:
 2254              	.LBB911:
  95:../../libDaisy//src/hid/audio.h ****     ~AudioHandle() {}
 2255              		.loc 7 95 35 view .LVU608
 2256 000e C0E90333 		strd	r3, r3, [r0, #12]
 2257              	.LVL150:
  95:../../libDaisy//src/hid/audio.h ****     ~AudioHandle() {}
 2258              		.loc 7 95 35 view .LVU609
 2259              	.LBE911:
 2260              	.LBE910:
 2261              	.LBE909:
ARM GAS  C:\Users\daniel\AppData\Local\Temp\cczs0lix.s 			page 76


 2262              	.LBB912:
 2263              	.LBI912:
  92:../../libDaisy//src/per/adc.h ****     ~AdcHandle() {}
 2264              		.loc 6 92 5 is_stmt 1 view .LVU610
  92:../../libDaisy//src/per/adc.h ****     ~AdcHandle() {}
 2265              		.loc 6 92 5 is_stmt 0 view .LVU611
 2266              	.LBE912:
 2267              	.LBB913:
 2268              	.LBI913:
  40:../../libDaisy//src/hid/usb.h **** 
 2269              		.loc 5 40 5 is_stmt 1 view .LVU612
  40:../../libDaisy//src/hid/usb.h **** 
 2270              		.loc 5 40 5 is_stmt 0 view .LVU613
 2271              	.LBE913:
 2272              	.LBB914:
 2273              	.LBI899:
  28:../../libDaisy//src/dev/codec_pcm3060.h ****     ~Pcm3060() {}
 2274              		.loc 4 28 5 is_stmt 1 view .LVU614
 2275              	.LBB905:
 2276              	.LBB904:
 2277              	.LBI901:
 2278              		.loc 16 82 5 view .LVU615
 2279              		.loc 16 82 5 is_stmt 0 view .LVU616
 2280              	.LBE904:
 2281              	.LBE905:
 2282              	.LBE914:
 2283              	.LBB915:
 2284              	.LBI906:
 2285              		.loc 17 84 5 is_stmt 1 view .LVU617
 2286              		.loc 17 84 5 is_stmt 0 view .LVU618
 2287              	.LBE915:
 2288              	.LBE920:
 2289              	.LBE924:
 2290              	.LBE931:
 2291              	.LBE935:
  64:../../libDaisy//src/daisy_patch_sm.h ****         ~DaisyPatchSM() {}
 2292              		.loc 2 64 24 is_stmt 1 view .LVU619
 2293              	.LBB936:
 2294              	.LBB932:
 2295              	.LBB925:
 2296              	.LBB921:
 2297              	.LBB916:
 2298              	.LBI916:
  20:../../libDaisy//src/hid/gatein.h ****     /** GateIn~
 2299              		.loc 3 20 5 view .LVU620
  20:../../libDaisy//src/hid/gatein.h ****     /** GateIn~
 2300              		.loc 3 20 5 is_stmt 0 view .LVU621
 2301              	.LBE916:
 2302              	.LBB917:
 2303              	.LBI917:
  20:../../libDaisy//src/hid/gatein.h ****     /** GateIn~
 2304              		.loc 3 20 5 is_stmt 1 view .LVU622
  20:../../libDaisy//src/hid/gatein.h ****     /** GateIn~
 2305              		.loc 3 20 5 is_stmt 0 view .LVU623
 2306              	.LBE917:
 2307              	.LBE921:
 2308              	.LBE925:
ARM GAS  C:\Users\daniel\AppData\Local\Temp\cczs0lix.s 			page 77


  10:Proliferation.cpp **** Switch          toggle;
 2309              		.loc 12 10 17 view .LVU624
 2310 0012 FFF7FEFF 		bl	__aeabi_atexit
 2311              	.LVL151:
 2312              	.LBB926:
 2313              	.LBI926:
  41:../../libDaisy//src/hid/switch.h ****     ~Switch() {}
 2314              		.loc 1 41 5 is_stmt 1 view .LVU625
  41:../../libDaisy//src/hid/switch.h ****     ~Switch() {}
 2315              		.loc 1 41 5 is_stmt 0 view .LVU626
 2316              	.LBE926:
  11:Proliferation.cpp **** Switch          button;
 2317              		.loc 12 11 17 view .LVU627
 2318 0016 1049     		ldr	r1, .L120+12
 2319 0018 0D4A     		ldr	r2, .L120+4
 2320 001a 1048     		ldr	r0, .L120+16
 2321 001c FFF7FEFF 		bl	__aeabi_atexit
 2322              	.LVL152:
 2323              	.LBB927:
 2324              	.LBI927:
  41:../../libDaisy//src/hid/switch.h ****     ~Switch() {}
 2325              		.loc 1 41 5 is_stmt 1 view .LVU628
  41:../../libDaisy//src/hid/switch.h ****     ~Switch() {}
 2326              		.loc 1 41 5 is_stmt 0 view .LVU629
 2327              	.LBE927:
  12:Proliferation.cpp **** ReverbSc        rv;
 2328              		.loc 12 12 17 view .LVU630
 2329 0020 0B4A     		ldr	r2, .L120+4
 2330 0022 0D49     		ldr	r1, .L120+12
 2331 0024 0E48     		ldr	r0, .L120+20
 2332 0026 FFF7FEFF 		bl	__aeabi_atexit
 2333              	.LVL153:
 2334              	.LBB928:
 2335              	.LBI928:
  40:../../DaisySP//Source/Effects/reverbsc.h ****     ~ReverbSc() {}
 2336              		.loc 10 40 5 is_stmt 1 view .LVU631
  40:../../DaisySP//Source/Effects/reverbsc.h ****     ~ReverbSc() {}
 2337              		.loc 10 40 5 is_stmt 0 view .LVU632
 2338              	.LBE928:
  13:Proliferation.cpp **** Svf             svf;
 2339              		.loc 12 13 17 view .LVU633
 2340 002a 094A     		ldr	r2, .L120+4
 2341 002c 0D49     		ldr	r1, .L120+24
 2342 002e 0E48     		ldr	r0, .L120+28
 2343 0030 FFF7FEFF 		bl	__aeabi_atexit
 2344              	.LVL154:
 2345              	.LBB929:
 2346              	.LBI929:
  21:../../DaisySP//Source/Filters/svf.h ****     ~Svf() {}
 2347              		.loc 9 21 5 is_stmt 1 view .LVU634
  21:../../DaisySP//Source/Filters/svf.h ****     ~Svf() {}
 2348              		.loc 9 21 5 is_stmt 0 view .LVU635
 2349              	.LBE929:
  14:Proliferation.cpp **** 
 2350              		.loc 12 14 17 view .LVU636
 2351 0034 064A     		ldr	r2, .L120+4
 2352 0036 0D49     		ldr	r1, .L120+32
ARM GAS  C:\Users\daniel\AppData\Local\Temp\cczs0lix.s 			page 78


 2353 0038 0D48     		ldr	r0, .L120+36
 2354 003a FFF7FEFF 		bl	__aeabi_atexit
 2355              	.LVL155:
 2356              	.LBB930:
 2357              	.LBI930:
  94:c:\programdata\chocolatey\lib\gcc-arm-embedded\tools\gcc-arm-none-eabi-10-2020-q4-major\arm-none-eabi\include\c++\10.2.1\array ****     {
 2358              		.loc 11 94 12 is_stmt 1 view .LVU637
 2359              	.LBE930:
 2360              	.LBE932:
 2361              	.LBE936:
  94:c:\programdata\chocolatey\lib\gcc-arm-embedded\tools\gcc-arm-none-eabi-10-2020-q4-major\arm-none-eabi\include\c++\10.2.1\array ****     {
 2362              		.loc 11 94 12 view .LVU638
 2363              	.LBB937:
 2364              	.LBB933:
  20:Proliferation.cpp **** int s = 0;
 2365              		.loc 12 20 66 is_stmt 0 view .LVU639
 2366 003e 044A     		ldr	r2, .L120+4
 2367 0040 0C49     		ldr	r1, .L120+40
 2368 0042 0D48     		ldr	r0, .L120+44
 2369              	.LBE933:
 2370              	.LBE937:
 2371              		.loc 12 182 1 view .LVU640
 2372 0044 BDE80840 		pop	{r3, lr}
 2373              		.cfi_restore 14
 2374              		.cfi_restore 3
 2375              		.cfi_def_cfa_offset 0
 2376              	.LBB938:
 2377              	.LBB934:
  20:Proliferation.cpp **** int s = 0;
 2378              		.loc 12 20 66 view .LVU641
 2379 0048 FFF7FEBF 		b	__aeabi_atexit
 2380              	.LVL156:
 2381              	.L121:
 2382              		.align	2
 2383              	.L120:
 2384 004c 00000000 		.word	.LANCHOR0
 2385 0050 00000000 		.word	__dso_handle
 2386 0054 00000000 		.word	_ZN5daisy8patch_sm12DaisyPatchSMD1Ev
 2387 0058 00000000 		.word	_ZN5daisy6SwitchD1Ev
 2388 005c 00000000 		.word	.LANCHOR2
 2389 0060 00000000 		.word	.LANCHOR1
 2390 0064 00000000 		.word	_ZN7daisysp8ReverbScD1Ev
 2391 0068 00000000 		.word	rv
 2392 006c 00000000 		.word	_ZN7daisysp3SvfD1Ev
 2393 0070 00000000 		.word	.LANCHOR4
 2394 0074 00000000 		.word	_ZNSt5arrayI12SampleBufferILj240000EELj8EED1Ev
 2395 0078 00000000 		.word	buffers
 2396              	.LBE934:
 2397              	.LBE938:
 2398              		.cfi_endproc
 2399              	.LFE5429:
 2401              		.section	.init_array,"aw",%init_array
 2402              		.align	2
 2403 0000 00000000 		.word	_GLOBAL__sub_I_hw(target1)
 2404              		.global	s
 2405              		.global	buffers
 2406              		.global	svf
ARM GAS  C:\Users\daniel\AppData\Local\Temp\cczs0lix.s 			page 79


 2407              		.global	rv
 2408              		.global	button
 2409              		.global	toggle
 2410              		.global	hw
 2411              		.section	.bss.button,"aw",%nobits
 2412              		.align	2
 2413              		.set	.LANCHOR1,. + 0
 2416              	button:
 2417 0000 00000000 		.space	16
 2417      00000000 
 2417      00000000 
 2417      00000000 
 2418              		.section	.bss.hw,"aw",%nobits
 2419              		.align	2
 2420              		.set	.LANCHOR0,. + 0
 2423              	hw:
 2424 0000 00000000 		.space	464
 2424      00000000 
 2424      00000000 
 2424      00000000 
 2424      00000000 
 2425              		.section	.bss.rv,"aw",%nobits
 2426              		.align	2
 2429              	rv:
 2430 0000 00000000 		.space	396100
 2430      00000000 
 2430      00000000 
 2430      00000000 
 2430      00000000 
 2431              		.section	.bss.s,"aw",%nobits
 2432              		.align	2
 2433              		.set	.LANCHOR3,. + 0
 2436              	s:
 2437 0000 00000000 		.space	4
 2438              		.section	.bss.svf,"aw",%nobits
 2439              		.align	2
 2440              		.set	.LANCHOR4,. + 0
 2443              	svf:
 2444 0000 00000000 		.space	76
 2444      00000000 
 2444      00000000 
 2444      00000000 
 2444      00000000 
 2445              		.section	.bss.toggle,"aw",%nobits
 2446              		.align	2
 2447              		.set	.LANCHOR2,. + 0
 2450              	toggle:
 2451 0000 00000000 		.space	16
 2451      00000000 
 2451      00000000 
 2451      00000000 
 2452              		.section	.sdram_bss,"aw"
 2453              		.align	2
 2456              	buffers:
 2457 0000 00000000 		.space	7680128
 2457      00000000 
 2457      00000000 
ARM GAS  C:\Users\daniel\AppData\Local\Temp\cczs0lix.s 			page 80


 2457      00000000 
 2457      00000000 
 2458              		.text
 2459              	.Letext0:
 2460              		.file 18 "c:\\programdata\\chocolatey\\lib\\gcc-arm-embedded\\tools\\gcc-arm-none-eabi-10-2020-q4-
 2461              		.file 19 "c:\\programdata\\chocolatey\\lib\\gcc-arm-embedded\\tools\\gcc-arm-none-eabi-10-2020-q4-
 2462              		.file 20 "c:\\programdata\\chocolatey\\lib\\gcc-arm-embedded\\tools\\gcc-arm-none-eabi-10-2020-q4-
 2463              		.file 21 "c:\\programdata\\chocolatey\\lib\\gcc-arm-embedded\\tools\\gcc-arm-none-eabi-10-2020-q4-
 2464              		.file 22 "c:\\programdata\\chocolatey\\lib\\gcc-arm-embedded\\tools\\gcc-arm-none-eabi-10-2020-q4-
 2465              		.file 23 "c:\\programdata\\chocolatey\\lib\\gcc-arm-embedded\\tools\\gcc-arm-none-eabi-10-2020-q4-
 2466              		.file 24 "c:\\programdata\\chocolatey\\lib\\gcc-arm-embedded\\tools\\gcc-arm-none-eabi-10-2020-q4-
 2467              		.file 25 "c:\\programdata\\chocolatey\\lib\\gcc-arm-embedded\\tools\\gcc-arm-none-eabi-10-2020-q4-
 2468              		.file 26 "c:\\programdata\\chocolatey\\lib\\gcc-arm-embedded\\tools\\gcc-arm-none-eabi-10-2020-q4-
 2469              		.file 27 "c:\\programdata\\chocolatey\\lib\\gcc-arm-embedded\\tools\\gcc-arm-none-eabi-10-2020-q4-
 2470              		.file 28 "c:\\programdata\\chocolatey\\lib\\gcc-arm-embedded\\tools\\gcc-arm-none-eabi-10-2020-q4-
 2471              		.file 29 "c:\\programdata\\chocolatey\\lib\\gcc-arm-embedded\\tools\\gcc-arm-none-eabi-10-2020-q4-
 2472              		.file 30 "c:\\programdata\\chocolatey\\lib\\gcc-arm-embedded\\tools\\gcc-arm-none-eabi-10-2020-q4-
 2473              		.file 31 "c:\\programdata\\chocolatey\\lib\\gcc-arm-embedded\\tools\\gcc-arm-none-eabi-10-2020-q4-
 2474              		.file 32 "c:\\programdata\\chocolatey\\lib\\gcc-arm-embedded\\tools\\gcc-arm-none-eabi-10-2020-q4-
 2475              		.file 33 "c:\\programdata\\chocolatey\\lib\\gcc-arm-embedded\\tools\\gcc-arm-none-eabi-10-2020-q4-
 2476              		.file 34 "c:\\programdata\\chocolatey\\lib\\gcc-arm-embedded\\tools\\gcc-arm-none-eabi-10-2020-q4-
 2477              		.file 35 "c:\\programdata\\chocolatey\\lib\\gcc-arm-embedded\\tools\\gcc-arm-none-eabi-10-2020-q4-
 2478              		.file 36 "c:\\programdata\\chocolatey\\lib\\gcc-arm-embedded\\tools\\gcc-arm-none-eabi-10-2020-q4-
 2479              		.file 37 "c:\\programdata\\chocolatey\\lib\\gcc-arm-embedded\\tools\\gcc-arm-none-eabi-10-2020-q4-
 2480              		.file 38 "c:\\programdata\\chocolatey\\lib\\gcc-arm-embedded\\tools\\gcc-arm-none-eabi-10-2020-q4-
 2481              		.file 39 "c:\\programdata\\chocolatey\\lib\\gcc-arm-embedded\\tools\\gcc-arm-none-eabi-10-2020-q4-
 2482              		.file 40 "c:\\programdata\\chocolatey\\lib\\gcc-arm-embedded\\tools\\gcc-arm-none-eabi-10-2020-q4-
 2483              		.file 41 "c:\\programdata\\chocolatey\\lib\\gcc-arm-embedded\\tools\\gcc-arm-none-eabi-10-2020-q4-
 2484              		.file 42 "c:\\programdata\\chocolatey\\lib\\gcc-arm-embedded\\tools\\gcc-arm-none-eabi-10-2020-q4-
 2485              		.file 43 "c:\\programdata\\chocolatey\\lib\\gcc-arm-embedded\\tools\\gcc-arm-none-eabi-10-2020-q4-
 2486              		.file 44 "c:\\programdata\\chocolatey\\lib\\gcc-arm-embedded\\tools\\gcc-arm-none-eabi-10-2020-q4-
 2487              		.file 45 "c:\\programdata\\chocolatey\\lib\\gcc-arm-embedded\\tools\\gcc-arm-none-eabi-10-2020-q4-
 2488              		.file 46 "c:\\programdata\\chocolatey\\lib\\gcc-arm-embedded\\tools\\gcc-arm-none-eabi-10-2020-q4-
 2489              		.file 47 "../../libDaisy//src/daisy_core.h"
 2490              		.file 48 "../../libDaisy//src/per/tim.h"
 2491              		.file 49 "../../libDaisy//src/per/sai.h"
 2492              		.file 50 "../../libDaisy//src/hid/ctrl.h"
 2493              		.file 51 "../../libDaisy//src/util/wav_format.h"
 2494              		.file 52 "../../libDaisy//src/dev/max11300.h"
 2495              		.file 53 "../../libDaisy//src/per/gpio.h"
 2496              		.file 54 "../../libDaisy//src/dev/sdram.h"
 2497              		.file 55 "c:\\programdata\\chocolatey\\lib\\gcc-arm-embedded\\tools\\gcc-arm-none-eabi-10-2020-q4-
 2498              		.file 56 "c:\\programdata\\chocolatey\\lib\\gcc-arm-embedded\\tools\\gcc-arm-none-eabi-10-2020-q4-
 2499              		.file 57 "c:\\programdata\\chocolatey\\lib\\gcc-arm-embedded\\tools\\gcc-arm-none-eabi-10-2020-q4-
 2500              		.file 58 "../../DaisySP//Source/Control/adenv.h"
 2501              		.file 59 "c:\\programdata\\chocolatey\\lib\\gcc-arm-embedded\\tools\\gcc-arm-none-eabi-10-2020-q4-
 2502              		.file 60 "c:\\programdata\\chocolatey\\lib\\gcc-arm-embedded\\tools\\gcc-arm-none-eabi-10-2020-q4-
 2503              		.file 61 "../../libDaisy//src/dev/sr_595.h"
 2504              		.file 62 "<built-in>"
ARM GAS  C:\Users\daniel\AppData\Local\Temp\cczs0lix.s 			page 81


DEFINED SYMBOLS
                            *ABS*:00000000 Proliferation.cpp
C:\Users\daniel\AppData\Local\Temp\cczs0lix.s:17     .text._ZN5daisy6SwitchD2Ev:00000000 $t
C:\Users\daniel\AppData\Local\Temp\cczs0lix.s:26     .text._ZN5daisy6SwitchD2Ev:00000000 _ZN5daisy6SwitchD2Ev
C:\Users\daniel\AppData\Local\Temp\cczs0lix.s:26     .text._ZN5daisy6SwitchD2Ev:00000000 _ZN5daisy6SwitchD1Ev
C:\Users\daniel\AppData\Local\Temp\cczs0lix.s:43     .text._ZN5daisy8patch_sm12DaisyPatchSMD2Ev:00000000 $t
C:\Users\daniel\AppData\Local\Temp\cczs0lix.s:51     .text._ZN5daisy8patch_sm12DaisyPatchSMD2Ev:00000000 _ZN5daisy8patch_sm12DaisyPatchSMD2Ev
C:\Users\daniel\AppData\Local\Temp\cczs0lix.s:51     .text._ZN5daisy8patch_sm12DaisyPatchSMD2Ev:00000000 _ZN5daisy8patch_sm12DaisyPatchSMD1Ev
C:\Users\daniel\AppData\Local\Temp\cczs0lix.s:109    .text._ZN7daisysp3SvfD2Ev:00000000 $t
C:\Users\daniel\AppData\Local\Temp\cczs0lix.s:117    .text._ZN7daisysp3SvfD2Ev:00000000 _ZN7daisysp3SvfD2Ev
C:\Users\daniel\AppData\Local\Temp\cczs0lix.s:117    .text._ZN7daisysp3SvfD2Ev:00000000 _ZN7daisysp3SvfD1Ev
C:\Users\daniel\AppData\Local\Temp\cczs0lix.s:134    .text._ZN7daisysp8ReverbScD2Ev:00000000 $t
C:\Users\daniel\AppData\Local\Temp\cczs0lix.s:142    .text._ZN7daisysp8ReverbScD2Ev:00000000 _ZN7daisysp8ReverbScD2Ev
C:\Users\daniel\AppData\Local\Temp\cczs0lix.s:142    .text._ZN7daisysp8ReverbScD2Ev:00000000 _ZN7daisysp8ReverbScD1Ev
C:\Users\daniel\AppData\Local\Temp\cczs0lix.s:159    .text._ZNSt5arrayI12SampleBufferILj240000EELj8EED2Ev:00000000 $t
C:\Users\daniel\AppData\Local\Temp\cczs0lix.s:167    .text._ZNSt5arrayI12SampleBufferILj240000EELj8EED2Ev:00000000 _ZNSt5arrayI12SampleBufferILj240000EELj8EED2Ev
C:\Users\daniel\AppData\Local\Temp\cczs0lix.s:167    .text._ZNSt5arrayI12SampleBufferILj240000EELj8EED2Ev:00000000 _ZNSt5arrayI12SampleBufferILj240000EELj8EED1Ev
C:\Users\daniel\AppData\Local\Temp\cczs0lix.s:184    .text._Z10getSamplesv:00000000 $t
C:\Users\daniel\AppData\Local\Temp\cczs0lix.s:192    .text._Z10getSamplesv:00000000 _Z10getSamplesv
C:\Users\daniel\AppData\Local\Temp\cczs0lix.s:320    .text._Z10getSamplesv:0000005a $d
C:\Users\daniel\AppData\Local\Temp\cczs0lix.s:328    .text._Z10getSamplesv:00000062 $t
C:\Users\daniel\AppData\Local\Temp\cczs0lix.s:1179   .text._Z10getSamplesv:000002c8 $d
C:\Users\daniel\AppData\Local\Temp\cczs0lix.s:2456   .sdram_bss:00000000 buffers
C:\Users\daniel\AppData\Local\Temp\cczs0lix.s:1201   .text._Z10getSamplesv:00000304 $t
C:\Users\daniel\AppData\Local\Temp\cczs0lix.s:1237   .text._Z10getSamplesv:00000328 $d
C:\Users\daniel\AppData\Local\Temp\cczs0lix.s:1243   .text._Z13AudioCallbackPKPKfPPfj:00000000 $t
C:\Users\daniel\AppData\Local\Temp\cczs0lix.s:1251   .text._Z13AudioCallbackPKPKfPPfj:00000000 _Z13AudioCallbackPKPKfPPfj
C:\Users\daniel\AppData\Local\Temp\cczs0lix.s:1937   .text._Z13AudioCallbackPKPKfPPfj:000001ec $d
C:\Users\daniel\AppData\Local\Temp\cczs0lix.s:2429   .bss.rv:00000000 rv
C:\Users\daniel\AppData\Local\Temp\cczs0lix.s:1956   .text._Z12InitSamplersv:00000000 $t
C:\Users\daniel\AppData\Local\Temp\cczs0lix.s:1964   .text._Z12InitSamplersv:00000000 _Z12InitSamplersv
C:\Users\daniel\AppData\Local\Temp\cczs0lix.s:2039   .text._Z12InitSamplersv:00000030 $d
C:\Users\daniel\AppData\Local\Temp\cczs0lix.s:2046   .text.startup.main:00000000 $t
C:\Users\daniel\AppData\Local\Temp\cczs0lix.s:2054   .text.startup.main:00000000 main
C:\Users\daniel\AppData\Local\Temp\cczs0lix.s:2151   .text.startup.main:00000070 $d
C:\Users\daniel\AppData\Local\Temp\cczs0lix.s:2164   .text.startup._GLOBAL__sub_I_hw:00000000 $t
C:\Users\daniel\AppData\Local\Temp\cczs0lix.s:2171   .text.startup._GLOBAL__sub_I_hw:00000000 _GLOBAL__sub_I_hw
C:\Users\daniel\AppData\Local\Temp\cczs0lix.s:2384   .text.startup._GLOBAL__sub_I_hw:0000004c $d
C:\Users\daniel\AppData\Local\Temp\cczs0lix.s:2402   .init_array:00000000 $d
C:\Users\daniel\AppData\Local\Temp\cczs0lix.s:2436   .bss.s:00000000 s
C:\Users\daniel\AppData\Local\Temp\cczs0lix.s:2443   .bss.svf:00000000 svf
C:\Users\daniel\AppData\Local\Temp\cczs0lix.s:2416   .bss.button:00000000 button
C:\Users\daniel\AppData\Local\Temp\cczs0lix.s:2450   .bss.toggle:00000000 toggle
C:\Users\daniel\AppData\Local\Temp\cczs0lix.s:2423   .bss.hw:00000000 hw
C:\Users\daniel\AppData\Local\Temp\cczs0lix.s:2412   .bss.button:00000000 $d
C:\Users\daniel\AppData\Local\Temp\cczs0lix.s:2419   .bss.hw:00000000 $d
C:\Users\daniel\AppData\Local\Temp\cczs0lix.s:2426   .bss.rv:00000000 $d
C:\Users\daniel\AppData\Local\Temp\cczs0lix.s:2432   .bss.s:00000000 $d
C:\Users\daniel\AppData\Local\Temp\cczs0lix.s:2439   .bss.svf:00000000 $d
C:\Users\daniel\AppData\Local\Temp\cczs0lix.s:2446   .bss.toggle:00000000 $d
C:\Users\daniel\AppData\Local\Temp\cczs0lix.s:2453   .sdram_bss:00000000 $d
                           .group:00000000 _ZN5daisy6SwitchD5Ev
                           .group:00000000 _ZN5daisy8patch_sm12DaisyPatchSMD5Ev
                           .group:00000000 _ZN7daisysp3SvfD5Ev
                           .group:00000000 _ZN7daisysp8ReverbScD5Ev
                           .group:00000000 _ZNSt5arrayI12SampleBufferILj240000EELj8EED5Ev

ARM GAS  C:\Users\daniel\AppData\Local\Temp\cczs0lix.s 			page 82


UNDEFINED SYMBOLS
_ZN5daisy8patch_sm12DaisyPatchSM21ProcessAnalogControlsEv
_ZN5daisy8patch_sm12DaisyPatchSM22ProcessDigitalControlsEv
_ZN5daisy6Switch8DebounceEv
rand
_ZN5daisy6GateIn4TrigEv
memset
_ZN5daisy8patch_sm12DaisyPatchSM11GetAdcValueEi
powf
_ZN7daisysp3Svf7SetFreqEf
_ZN7daisysp3Svf6SetResEf
_ZN7daisysp3Svf8SetDriveEf
_ZN7daisysp3Svf7ProcessEf
_ZN7daisysp8ReverbSc7ProcessERKfS2_PfS3_
_ZN5daisy8patch_sm12DaisyPatchSM4InitEv
_ZN5daisy8patch_sm12DaisyPatchSM15AudioSampleRateEv
_ZN5daisy6Switch4InitE12dsy_gpio_pinf
_ZN7daisysp8ReverbSc4InitEf
_ZN7daisysp3Svf4InitEf
_ZN5daisy8patch_sm12DaisyPatchSM17SetAudioBlockSizeEj
_ZN5daisy8patch_sm12DaisyPatchSM18SetAudioSampleRateENS_9SaiHandle6Config10SampleRateE
_ZN5daisy8patch_sm12DaisyPatchSM10StartAudioEPFvPKPKfPPfjE
_ZN5daisy8patch_sm12DaisyPatchSM2B8E
_ZN5daisy8patch_sm12DaisyPatchSM2B7E
__aeabi_atexit
__dso_handle
