ARM GAS  C:\Users\daniel\AppData\Local\Temp\ccHs5oNB.s 			page 1


   1              		.cpu cortex-m7
   2              		.eabi_attribute 28, 1
   3              		.eabi_attribute 20, 1
   4              		.eabi_attribute 21, 1
   5              		.eabi_attribute 23, 3
   6              		.eabi_attribute 24, 1
   7              		.eabi_attribute 25, 1
   8              		.eabi_attribute 26, 1
   9              		.eabi_attribute 30, 2
  10              		.eabi_attribute 34, 1
  11              		.eabi_attribute 18, 4
  12              		.file	"pitcher.cpp"
  13              		.text
  14              	.Ltext0:
  15              		.cfi_sections	.debug_frame
  16              		.section	.text._ZN5daisy8patch_sm12DaisyPatchSMD2Ev,"axG",%progbits,_ZN5daisy8patch_sm12DaisyPatch
  17              		.align	1
  18              		.p2align 2,,3
  19              		.weak	_ZN5daisy8patch_sm12DaisyPatchSMD2Ev
  20              		.arch armv7e-m
  21              		.syntax unified
  22              		.thumb
  23              		.thumb_func
  24              		.fpu fpv5-d16
  26              	_ZN5daisy8patch_sm12DaisyPatchSMD2Ev:
  27              	.LVL0:
  28              	.LFB2528:
  29              		.file 1 "../../libDaisy//src/daisy_patch_sm.h"
   1:../../libDaisy//src/daisy_patch_sm.h **** #pragma once
   2:../../libDaisy//src/daisy_patch_sm.h **** 
   3:../../libDaisy//src/daisy_patch_sm.h **** #include "daisy.h"
   4:../../libDaisy//src/daisy_patch_sm.h **** 
   5:../../libDaisy//src/daisy_patch_sm.h **** namespace daisy
   6:../../libDaisy//src/daisy_patch_sm.h **** {
   7:../../libDaisy//src/daisy_patch_sm.h **** namespace patch_sm
   8:../../libDaisy//src/daisy_patch_sm.h **** {
   9:../../libDaisy//src/daisy_patch_sm.h ****     /** Accessors for the Analog Controls. 
  10:../../libDaisy//src/daisy_patch_sm.h ****      *  These cover the 8x Bipolar CV inputs
  11:../../libDaisy//src/daisy_patch_sm.h ****      *  as well as the 4x 0-3V3 ADC inputs on
  12:../../libDaisy//src/daisy_patch_sm.h ****      *  the hardware 
  13:../../libDaisy//src/daisy_patch_sm.h ****      * 
  14:../../libDaisy//src/daisy_patch_sm.h ****      *  When reading a value with DaisyPatchSM::GetAdcValue()
  15:../../libDaisy//src/daisy_patch_sm.h ****      * 
  16:../../libDaisy//src/daisy_patch_sm.h ****      *  patch.GetAdcValue(patch_sm::CV_1);
  17:../../libDaisy//src/daisy_patch_sm.h ****      */
  18:../../libDaisy//src/daisy_patch_sm.h ****     enum
  19:../../libDaisy//src/daisy_patch_sm.h ****     {
  20:../../libDaisy//src/daisy_patch_sm.h ****         CV_1 = 0,
  21:../../libDaisy//src/daisy_patch_sm.h ****         CV_2,
  22:../../libDaisy//src/daisy_patch_sm.h ****         CV_3,
  23:../../libDaisy//src/daisy_patch_sm.h ****         CV_4,
  24:../../libDaisy//src/daisy_patch_sm.h ****         CV_5,
  25:../../libDaisy//src/daisy_patch_sm.h ****         CV_6,
  26:../../libDaisy//src/daisy_patch_sm.h ****         CV_7,
  27:../../libDaisy//src/daisy_patch_sm.h ****         CV_8,
  28:../../libDaisy//src/daisy_patch_sm.h ****         ADC_9,
  29:../../libDaisy//src/daisy_patch_sm.h ****         ADC_10,
ARM GAS  C:\Users\daniel\AppData\Local\Temp\ccHs5oNB.s 			page 2


  30:../../libDaisy//src/daisy_patch_sm.h ****         ADC_11,
  31:../../libDaisy//src/daisy_patch_sm.h ****         ADC_12,
  32:../../libDaisy//src/daisy_patch_sm.h ****         ADC_LAST,
  33:../../libDaisy//src/daisy_patch_sm.h ****     };
  34:../../libDaisy//src/daisy_patch_sm.h **** 
  35:../../libDaisy//src/daisy_patch_sm.h ****     /** Enum for addressing the CV Outputs via the WriteCvOut function. */
  36:../../libDaisy//src/daisy_patch_sm.h ****     enum
  37:../../libDaisy//src/daisy_patch_sm.h ****     {
  38:../../libDaisy//src/daisy_patch_sm.h ****         CV_OUT_BOTH = 0,
  39:../../libDaisy//src/daisy_patch_sm.h ****         CV_OUT_1,
  40:../../libDaisy//src/daisy_patch_sm.h ****         CV_OUT_2,
  41:../../libDaisy//src/daisy_patch_sm.h ****     };
  42:../../libDaisy//src/daisy_patch_sm.h **** 
  43:../../libDaisy//src/daisy_patch_sm.h **** 
  44:../../libDaisy//src/daisy_patch_sm.h ****     /** @brief Board support file for DaisyPatchSM hardware
  45:../../libDaisy//src/daisy_patch_sm.h ****      *  @author shensley
  46:../../libDaisy//src/daisy_patch_sm.h ****      *  @ingroup boards
  47:../../libDaisy//src/daisy_patch_sm.h ****      * 
  48:../../libDaisy//src/daisy_patch_sm.h ****      *  Daisy Patch SM is a complete Eurorack module DSP engine.
  49:../../libDaisy//src/daisy_patch_sm.h ****      *  Based on the Daisy Seed, with circuits added for 
  50:../../libDaisy//src/daisy_patch_sm.h ****      *  interfacing directly with eurorack modular synthesizers.
  51:../../libDaisy//src/daisy_patch_sm.h ****      */
  52:../../libDaisy//src/daisy_patch_sm.h ****     class DaisyPatchSM
  53:../../libDaisy//src/daisy_patch_sm.h ****     {
  54:../../libDaisy//src/daisy_patch_sm.h ****       public:
  55:../../libDaisy//src/daisy_patch_sm.h ****         /** Helper for mapping pins, and accessing them using the `GetPin` function */
  56:../../libDaisy//src/daisy_patch_sm.h ****         enum class PinBank
  57:../../libDaisy//src/daisy_patch_sm.h ****         {
  58:../../libDaisy//src/daisy_patch_sm.h ****             A,
  59:../../libDaisy//src/daisy_patch_sm.h ****             B,
  60:../../libDaisy//src/daisy_patch_sm.h ****             C,
  61:../../libDaisy//src/daisy_patch_sm.h ****             D
  62:../../libDaisy//src/daisy_patch_sm.h ****         };
  63:../../libDaisy//src/daisy_patch_sm.h **** 
  64:../../libDaisy//src/daisy_patch_sm.h ****         DaisyPatchSM() {}
  65:../../libDaisy//src/daisy_patch_sm.h ****         ~DaisyPatchSM() {}
  30              		.loc 1 65 9 view -0
  31              		.cfi_startproc
  32              		@ args = 0, pretend = 0, frame = 0
  33              		@ frame_needed = 0, uses_anonymous_args = 0
  34              		@ link register save eliminated.
  35              	.LBB194:
  36              	.LBI194:
  37              		.file 2 "../../libDaisy//src/hid/gatein.h"
   1:../../libDaisy//src/hid/gatein.h **** #pragma once
   2:../../libDaisy//src/hid/gatein.h **** #ifndef DSY_GATEIN_H
   3:../../libDaisy//src/hid/gatein.h **** #define DSY_GATEIN_H
   4:../../libDaisy//src/hid/gatein.h **** #include "per/gpio.h"
   5:../../libDaisy//src/hid/gatein.h **** 
   6:../../libDaisy//src/hid/gatein.h **** namespace daisy
   7:../../libDaisy//src/hid/gatein.h **** {
   8:../../libDaisy//src/hid/gatein.h **** /**
   9:../../libDaisy//src/hid/gatein.h ****    @brief Generic Class for handling gate inputs through GPIO.
  10:../../libDaisy//src/hid/gatein.h ****    @author Stephen Hensley
  11:../../libDaisy//src/hid/gatein.h ****    @date    March 2020
  12:../../libDaisy//src/hid/gatein.h ****    @ingroup controls
  13:../../libDaisy//src/hid/gatein.h **** */
ARM GAS  C:\Users\daniel\AppData\Local\Temp\ccHs5oNB.s 			page 3


  14:../../libDaisy//src/hid/gatein.h **** class GateIn
  15:../../libDaisy//src/hid/gatein.h **** {
  16:../../libDaisy//src/hid/gatein.h ****   public:
  17:../../libDaisy//src/hid/gatein.h ****     /** GateIn 
  18:../../libDaisy//src/hid/gatein.h ****     Constructor 
  19:../../libDaisy//src/hid/gatein.h ****     */
  20:../../libDaisy//src/hid/gatein.h ****     GateIn() {}
  21:../../libDaisy//src/hid/gatein.h ****     /** GateIn~
  22:../../libDaisy//src/hid/gatein.h ****     Destructor 
  23:../../libDaisy//src/hid/gatein.h ****     */
  24:../../libDaisy//src/hid/gatein.h ****     ~GateIn() {}
  38              		.loc 2 24 5 view .LVU1
  39              		.loc 2 24 5 is_stmt 0 view .LVU2
  40              	.LBE194:
  41              	.LBB195:
  42              	.LBI195:
  43              		.loc 2 24 5 is_stmt 1 view .LVU3
  44              		.loc 2 24 5 is_stmt 0 view .LVU4
  45              	.LBE195:
  46              	.LBB196:
  47              	.LBI196:
  48              		.file 3 "../../libDaisy//src/dev/codec_pcm3060.h"
   1:../../libDaisy//src/dev/codec_pcm3060.h **** #pragma once
   2:../../libDaisy//src/dev/codec_pcm3060.h **** #ifndef DSY_CODEC_PCM3060_H
   3:../../libDaisy//src/dev/codec_pcm3060.h **** #define DSY_CODEC_PCM3060_H
   4:../../libDaisy//src/dev/codec_pcm3060.h **** #include "per/i2c.h"
   5:../../libDaisy//src/dev/codec_pcm3060.h **** namespace daisy
   6:../../libDaisy//src/dev/codec_pcm3060.h **** {
   7:../../libDaisy//src/dev/codec_pcm3060.h **** /**
   8:../../libDaisy//src/dev/codec_pcm3060.h ****  * @brief Driver for the TI PCM3060 Audio Codec.
   9:../../libDaisy//src/dev/codec_pcm3060.h ****  * @addtogroup codec
  10:../../libDaisy//src/dev/codec_pcm3060.h ****  * 
  11:../../libDaisy//src/dev/codec_pcm3060.h ****  * For now this is a limited interface that uses I2C to communicate with the PCM3060
  12:../../libDaisy//src/dev/codec_pcm3060.h ****  * The device can also be accessed with SPI, which is not yet supported.
  13:../../libDaisy//src/dev/codec_pcm3060.h ****  * 
  14:../../libDaisy//src/dev/codec_pcm3060.h ****  * For now all registers are set to their defaults, and the Init function will 
  15:../../libDaisy//src/dev/codec_pcm3060.h ****  * perform a MRST and SRST before setting the format to 24bit LJ, and disabling 
  16:../../libDaisy//src/dev/codec_pcm3060.h ****  * power save for both the ADC and DAC.
  17:../../libDaisy//src/dev/codec_pcm3060.h ****  *
  18:../../libDaisy//src/dev/codec_pcm3060.h ****  */
  19:../../libDaisy//src/dev/codec_pcm3060.h **** class Pcm3060
  20:../../libDaisy//src/dev/codec_pcm3060.h **** {
  21:../../libDaisy//src/dev/codec_pcm3060.h ****   public:
  22:../../libDaisy//src/dev/codec_pcm3060.h ****     enum class Result
  23:../../libDaisy//src/dev/codec_pcm3060.h ****     {
  24:../../libDaisy//src/dev/codec_pcm3060.h ****         OK,
  25:../../libDaisy//src/dev/codec_pcm3060.h ****         ERR,
  26:../../libDaisy//src/dev/codec_pcm3060.h ****     };
  27:../../libDaisy//src/dev/codec_pcm3060.h **** 
  28:../../libDaisy//src/dev/codec_pcm3060.h ****     Pcm3060() {}
  29:../../libDaisy//src/dev/codec_pcm3060.h ****     ~Pcm3060() {}
  49              		.loc 3 29 5 is_stmt 1 view .LVU5
  50              		.loc 3 29 5 is_stmt 0 view .LVU6
  51              	.LBE196:
  52              	.LBB197:
  53              	.LBI197:
  54              		.file 4 "../../libDaisy//src/hid/usb.h"
ARM GAS  C:\Users\daniel\AppData\Local\Temp\ccHs5oNB.s 			page 4


   1:../../libDaisy//src/hid/usb.h **** #pragma once
   2:../../libDaisy//src/hid/usb.h **** #ifndef DSY_HID_USB_H
   3:../../libDaisy//src/hid/usb.h **** #define DSY_HID_USB_H
   4:../../libDaisy//src/hid/usb.h **** #include <stdint.h>
   5:../../libDaisy//src/hid/usb.h **** #include <stdlib.h>
   6:../../libDaisy//src/hid/usb.h **** 
   7:../../libDaisy//src/hid/usb.h **** namespace daisy
   8:../../libDaisy//src/hid/usb.h **** /** @addtogroup human_interface
   9:../../libDaisy//src/hid/usb.h ****     @{
  10:../../libDaisy//src/hid/usb.h **** */
  11:../../libDaisy//src/hid/usb.h **** 
  12:../../libDaisy//src/hid/usb.h **** {
  13:../../libDaisy//src/hid/usb.h **** /** 
  14:../../libDaisy//src/hid/usb.h ****     @brief Interface for initializing and using the USB Peripherals on the daisy
  15:../../libDaisy//src/hid/usb.h ****     @author Stephen Hensley
  16:../../libDaisy//src/hid/usb.h ****     @date December 2019
  17:../../libDaisy//src/hid/usb.h **** */
  18:../../libDaisy//src/hid/usb.h **** class UsbHandle
  19:../../libDaisy//src/hid/usb.h **** {
  20:../../libDaisy//src/hid/usb.h ****   public:
  21:../../libDaisy//src/hid/usb.h ****     /** Return values for USBHandle Functions */
  22:../../libDaisy//src/hid/usb.h ****     enum class Result
  23:../../libDaisy//src/hid/usb.h ****     {
  24:../../libDaisy//src/hid/usb.h ****         OK,
  25:../../libDaisy//src/hid/usb.h ****         ERR,
  26:../../libDaisy//src/hid/usb.h ****     };
  27:../../libDaisy//src/hid/usb.h **** 
  28:../../libDaisy//src/hid/usb.h ****     /** Specified which of the two USB Peripherals to initialize. */
  29:../../libDaisy//src/hid/usb.h ****     enum UsbPeriph
  30:../../libDaisy//src/hid/usb.h ****     {
  31:../../libDaisy//src/hid/usb.h ****         FS_INTERNAL, /**< Internal pin */
  32:../../libDaisy//src/hid/usb.h ****         FS_EXTERNAL, /**< FS External D+ pin is Pin 38 (GPIO32). FS External D- pin is Pin 37 (GPIO
  33:../../libDaisy//src/hid/usb.h ****         FS_BOTH,     /**< Both */
  34:../../libDaisy//src/hid/usb.h ****     };
  35:../../libDaisy//src/hid/usb.h **** 
  36:../../libDaisy//src/hid/usb.h **** 
  37:../../libDaisy//src/hid/usb.h ****     /** Function called upon reception of a buffer */
  38:../../libDaisy//src/hid/usb.h ****     typedef void (*ReceiveCallback)(uint8_t* buff, uint32_t* len);
  39:../../libDaisy//src/hid/usb.h **** 
  40:../../libDaisy//src/hid/usb.h ****     UsbHandle() {}
  41:../../libDaisy//src/hid/usb.h **** 
  42:../../libDaisy//src/hid/usb.h ****     ~UsbHandle() {}
  55              		.loc 4 42 5 is_stmt 1 view .LVU7
  56              		.loc 4 42 5 is_stmt 0 view .LVU8
  57              	.LBE197:
  58              	.LBB198:
  59              	.LBI198:
  60              		.file 5 "../../libDaisy//src/per/adc.h"
   1:../../libDaisy//src/per/adc.h **** #pragma once
   2:../../libDaisy//src/per/adc.h **** #ifndef DSY_ADC_H
   3:../../libDaisy//src/per/adc.h **** #define DSY_ADC_H /**< Macro */
   4:../../libDaisy//src/per/adc.h **** #include <stdint.h>
   5:../../libDaisy//src/per/adc.h **** #include <stdlib.h>
   6:../../libDaisy//src/per/adc.h **** #include "daisy_core.h"
   7:../../libDaisy//src/per/adc.h **** #include "per/gpio.h"
   8:../../libDaisy//src/per/adc.h **** 
   9:../../libDaisy//src/per/adc.h **** #define DSY_ADC_MAX_CHANNELS 16 /**< Maximum number of ADC channels */
ARM GAS  C:\Users\daniel\AppData\Local\Temp\ccHs5oNB.s 			page 5


  10:../../libDaisy//src/per/adc.h **** 
  11:../../libDaisy//src/per/adc.h **** namespace daisy
  12:../../libDaisy//src/per/adc.h **** {
  13:../../libDaisy//src/per/adc.h **** /** @addtogroup per_analog
  14:../../libDaisy//src/per/adc.h ****     @{
  15:../../libDaisy//src/per/adc.h **** */
  16:../../libDaisy//src/per/adc.h **** 
  17:../../libDaisy//src/per/adc.h **** /* While there may not be many configuration options here,
  18:../../libDaisy//src/per/adc.h **** using a struct like this allows us to add more configuration
  19:../../libDaisy//src/per/adc.h **** later without breaking existing functionality.
  20:../../libDaisy//src/per/adc.h **** */
  21:../../libDaisy//src/per/adc.h **** 
  22:../../libDaisy//src/per/adc.h **** /** @brief   Configuration Structure for an ADC Channel 
  23:../../libDaisy//src/per/adc.h ****  *  @details This can be used to configure a a single input, 
  24:../../libDaisy//src/per/adc.h ****  *           or a multiplexed input, allowing up to 8 inputs on 
  25:../../libDaisy//src/per/adc.h ****  *           one channel.
  26:../../libDaisy//src/per/adc.h ****  *  @note    Sharing data lines to multiple muxes _is_ possible, but
  27:../../libDaisy//src/per/adc.h ****  *           each channel sharing data lines must be set to the maximum
  28:../../libDaisy//src/per/adc.h ****  *           number of channels, even if some multiplexers have fewer
  29:../../libDaisy//src/per/adc.h ****  *           inputs connected.
  30:../../libDaisy//src/per/adc.h **** */
  31:../../libDaisy//src/per/adc.h **** struct AdcChannelConfig
  32:../../libDaisy//src/per/adc.h **** {
  33:../../libDaisy//src/per/adc.h ****     /** Which pin to use for multiplexing */
  34:../../libDaisy//src/per/adc.h ****     enum MuxPin
  35:../../libDaisy//src/per/adc.h ****     {
  36:../../libDaisy//src/per/adc.h ****         MUX_SEL_0,    /**< & */
  37:../../libDaisy//src/per/adc.h ****         MUX_SEL_1,    /**< & */
  38:../../libDaisy//src/per/adc.h ****         MUX_SEL_2,    /**< & */
  39:../../libDaisy//src/per/adc.h ****         MUX_SEL_LAST, /**< & */
  40:../../libDaisy//src/per/adc.h ****     };
  41:../../libDaisy//src/per/adc.h **** 
  42:../../libDaisy//src/per/adc.h ****     /** Initializes a single ADC pin as an ADC. 
  43:../../libDaisy//src/per/adc.h ****     \param pin Pin to init.
  44:../../libDaisy//src/per/adc.h ****      */
  45:../../libDaisy//src/per/adc.h ****     void InitSingle(dsy_gpio_pin pin);
  46:../../libDaisy//src/per/adc.h **** 
  47:../../libDaisy//src/per/adc.h ****     /** 
  48:../../libDaisy//src/per/adc.h ****     Initializes a single ADC pin as a Multiplexed ADC.
  49:../../libDaisy//src/per/adc.h ****     Requires a CD405X Multiplexer connected to the pin.
  50:../../libDaisy//src/per/adc.h ****     You only need to supply the mux pins that are required,
  51:../../libDaisy//src/per/adc.h ****     e.g. a 4052 mux would only require mux_0 and mux_1.
  52:../../libDaisy//src/per/adc.h ****     Internal Callbacks handle the pin addressing.
  53:../../libDaisy//src/per/adc.h ****     \param mux_channels must be 1-8
  54:../../libDaisy//src/per/adc.h ****     \param mux_0 First mux pin
  55:../../libDaisy//src/per/adc.h ****     \param mux_1 Second mux pin
  56:../../libDaisy//src/per/adc.h ****     \param mux_2 Third mux pin
  57:../../libDaisy//src/per/adc.h ****     \param adc_pin &
  58:../../libDaisy//src/per/adc.h ****     */
  59:../../libDaisy//src/per/adc.h ****     void InitMux(dsy_gpio_pin adc_pin,
  60:../../libDaisy//src/per/adc.h ****                  size_t       mux_channels,
  61:../../libDaisy//src/per/adc.h ****                  dsy_gpio_pin mux_0,
  62:../../libDaisy//src/per/adc.h ****                  dsy_gpio_pin mux_1 = {DSY_GPIOX, 0},
  63:../../libDaisy//src/per/adc.h ****                  dsy_gpio_pin mux_2 = {DSY_GPIOX, 0});
  64:../../libDaisy//src/per/adc.h **** 
  65:../../libDaisy//src/per/adc.h ****     dsy_gpio pin_;                   /**< & */
  66:../../libDaisy//src/per/adc.h ****     dsy_gpio mux_pin_[MUX_SEL_LAST]; /**< & */
ARM GAS  C:\Users\daniel\AppData\Local\Temp\ccHs5oNB.s 			page 6


  67:../../libDaisy//src/per/adc.h ****     uint8_t  mux_channels_;          /**< & */
  68:../../libDaisy//src/per/adc.h **** };
  69:../../libDaisy//src/per/adc.h **** 
  70:../../libDaisy//src/per/adc.h **** /**
  71:../../libDaisy//src/per/adc.h ****    @brief Handler for analog to digital conversion
  72:../../libDaisy//src/per/adc.h **** */
  73:../../libDaisy//src/per/adc.h **** class AdcHandle
  74:../../libDaisy//src/per/adc.h **** {
  75:../../libDaisy//src/per/adc.h ****   public:
  76:../../libDaisy//src/per/adc.h ****     /** Supported oversampling amounts */
  77:../../libDaisy//src/per/adc.h ****     enum OverSampling
  78:../../libDaisy//src/per/adc.h ****     {
  79:../../libDaisy//src/per/adc.h ****         OVS_NONE, /**< & */
  80:../../libDaisy//src/per/adc.h ****         OVS_4,    /**< & */
  81:../../libDaisy//src/per/adc.h ****         OVS_8,    /**< & */
  82:../../libDaisy//src/per/adc.h ****         OVS_16,   /**< & */
  83:../../libDaisy//src/per/adc.h ****         OVS_32,   /**< & */
  84:../../libDaisy//src/per/adc.h ****         OVS_64,   /**< & */
  85:../../libDaisy//src/per/adc.h ****         OVS_128,  /**< & */
  86:../../libDaisy//src/per/adc.h ****         OVS_256,  /**< & */
  87:../../libDaisy//src/per/adc.h ****         OVS_512,  /**< & */
  88:../../libDaisy//src/per/adc.h ****         OVS_1024, /**< & */
  89:../../libDaisy//src/per/adc.h ****         OVS_LAST, /**< & */
  90:../../libDaisy//src/per/adc.h ****     };
  91:../../libDaisy//src/per/adc.h **** 
  92:../../libDaisy//src/per/adc.h ****     AdcHandle() {}
  93:../../libDaisy//src/per/adc.h ****     ~AdcHandle() {}
  61              		.loc 5 93 5 is_stmt 1 view .LVU9
  62              		.loc 5 93 5 is_stmt 0 view .LVU10
  63              	.LBE198:
  64              	.LBB199:
  65              	.LBI199:
  66              		.file 6 "../../libDaisy//src/hid/audio.h"
   1:../../libDaisy//src/hid/audio.h **** #ifndef DSY_AUDIO_H
   2:../../libDaisy//src/hid/audio.h **** #define DSY_AUDIO_H /**< & */
   3:../../libDaisy//src/hid/audio.h **** 
   4:../../libDaisy//src/hid/audio.h **** #include "per/sai.h"
   5:../../libDaisy//src/hid/audio.h **** 
   6:../../libDaisy//src/hid/audio.h **** namespace daisy
   7:../../libDaisy//src/hid/audio.h **** {
   8:../../libDaisy//src/hid/audio.h **** /** @brief Audio Engine Handle
   9:../../libDaisy//src/hid/audio.h ****  *  @ingroup audio 
  10:../../libDaisy//src/hid/audio.h ****  *  @details This class allows for higher level access to an audio engine.
  11:../../libDaisy//src/hid/audio.h ****  *           If you're using a SOM like the DaisySeed or DaisyPatchSM (or any 
  12:../../libDaisy//src/hid/audio.h ****  *            board that includes one of those objects) then the intialization
  13:../../libDaisy//src/hid/audio.h ****  *            is already taken  care of.
  14:../../libDaisy//src/hid/audio.h ****  *           If you're setting up your own custom hardware, or need to make changes
  15:../../libDaisy//src/hid/audio.h ****  *           you will have to take the following steps:
  16:../../libDaisy//src/hid/audio.h ****  *             1. Create and Initialize an SaiHandle or two depending on your requirements
  17:../../libDaisy//src/hid/audio.h ****  *             2. Initialize the Audio Handle with the desired settings and the Initialized SaiHand
  18:../../libDaisy//src/hid/audio.h ****  *             3. If the connected codec requires special configuration or initialization, do so
  19:../../libDaisy//src/hid/audio.h ****  *             4. Write a callback method using either the AudioCallback or the InterleavingAudioCa
  20:../../libDaisy//src/hid/audio.h ****  *             5. Start the Audio using one of the StartAudio function
  21:../../libDaisy//src/hid/audio.h ****  */
  22:../../libDaisy//src/hid/audio.h **** class AudioHandle
  23:../../libDaisy//src/hid/audio.h **** {
  24:../../libDaisy//src/hid/audio.h ****   public:
ARM GAS  C:\Users\daniel\AppData\Local\Temp\ccHs5oNB.s 			page 7


  25:../../libDaisy//src/hid/audio.h ****     /** Manually configurable details about the Audio Engine */
  26:../../libDaisy//src/hid/audio.h ****     /** TODO: Figure out how to get samplerate in here. */
  27:../../libDaisy//src/hid/audio.h ****     struct Config
  28:../../libDaisy//src/hid/audio.h ****     {
  29:../../libDaisy//src/hid/audio.h ****         /** number of samples to process per callback */
  30:../../libDaisy//src/hid/audio.h ****         size_t blocksize;
  31:../../libDaisy//src/hid/audio.h **** 
  32:../../libDaisy//src/hid/audio.h ****         /**< Sample rate of audio */
  33:../../libDaisy//src/hid/audio.h ****         SaiHandle::Config::SampleRate samplerate;
  34:../../libDaisy//src/hid/audio.h **** 
  35:../../libDaisy//src/hid/audio.h ****         /** factor for adjustment before and after callback for hardware that may have extra headro
  36:../../libDaisy//src/hid/audio.h ****         float postgain;
  37:../../libDaisy//src/hid/audio.h **** 
  38:../../libDaisy//src/hid/audio.h ****         /** factor for additional one-sided compensation to audio path for hardware that may
  39:../../libDaisy//src/hid/audio.h ****          *  have unequal input/output ranges
  40:../../libDaisy//src/hid/audio.h ****          */
  41:../../libDaisy//src/hid/audio.h ****         float output_compensation;
  42:../../libDaisy//src/hid/audio.h **** 
  43:../../libDaisy//src/hid/audio.h ****         /** Sets default values for config struct */
  44:../../libDaisy//src/hid/audio.h ****         Config()
  45:../../libDaisy//src/hid/audio.h ****         : blocksize(48),
  46:../../libDaisy//src/hid/audio.h ****           samplerate(SaiHandle::Config::SampleRate::SAI_48KHZ),
  47:../../libDaisy//src/hid/audio.h ****           postgain(1.f),
  48:../../libDaisy//src/hid/audio.h ****           output_compensation(1.f)
  49:../../libDaisy//src/hid/audio.h ****         {
  50:../../libDaisy//src/hid/audio.h ****         }
  51:../../libDaisy//src/hid/audio.h ****     };
  52:../../libDaisy//src/hid/audio.h **** 
  53:../../libDaisy//src/hid/audio.h ****     enum class Result
  54:../../libDaisy//src/hid/audio.h ****     {
  55:../../libDaisy//src/hid/audio.h ****         OK,
  56:../../libDaisy//src/hid/audio.h ****         ERR,
  57:../../libDaisy//src/hid/audio.h ****     };
  58:../../libDaisy//src/hid/audio.h **** 
  59:../../libDaisy//src/hid/audio.h ****     /** Non-Interleaving input buffer
  60:../../libDaisy//src/hid/audio.h ****      * Buffer arranged by float[chn][sample] 
  61:../../libDaisy//src/hid/audio.h ****      * const so that the user can't modify the input
  62:../../libDaisy//src/hid/audio.h ****      */
  63:../../libDaisy//src/hid/audio.h ****     typedef const float* const* InputBuffer;
  64:../../libDaisy//src/hid/audio.h **** 
  65:../../libDaisy//src/hid/audio.h ****     /** Non-Interleaving output buffer
  66:../../libDaisy//src/hid/audio.h ****      * Arranged by float[chn][sample] 
  67:../../libDaisy//src/hid/audio.h ****      */
  68:../../libDaisy//src/hid/audio.h ****     typedef float** OutputBuffer;
  69:../../libDaisy//src/hid/audio.h **** 
  70:../../libDaisy//src/hid/audio.h ****     /** Type for a Non-Interleaving audio callback 
  71:../../libDaisy//src/hid/audio.h ****      * Non-Interleaving audio callbacks in daisy will be of this type
  72:../../libDaisy//src/hid/audio.h ****      */
  73:../../libDaisy//src/hid/audio.h ****     typedef void (*AudioCallback)(InputBuffer  in,
  74:../../libDaisy//src/hid/audio.h ****                                   OutputBuffer out,
  75:../../libDaisy//src/hid/audio.h ****                                   size_t       size);
  76:../../libDaisy//src/hid/audio.h **** 
  77:../../libDaisy//src/hid/audio.h ****     /** Interleaving Input buffer
  78:../../libDaisy//src/hid/audio.h ****      ** audio is prepared as { L0, R0, L1, R1, . . . LN, RN }]
  79:../../libDaisy//src/hid/audio.h ****      ** this is const, as the user shouldn't modify it
  80:../../libDaisy//src/hid/audio.h ****     */
  81:../../libDaisy//src/hid/audio.h ****     typedef const float* InterleavingInputBuffer;
ARM GAS  C:\Users\daniel\AppData\Local\Temp\ccHs5oNB.s 			page 8


  82:../../libDaisy//src/hid/audio.h **** 
  83:../../libDaisy//src/hid/audio.h ****     /** Interleaving Output buffer 
  84:../../libDaisy//src/hid/audio.h ****      ** audio is prepared as { L0, R0, L1, R1, . . . LN, RN }
  85:../../libDaisy//src/hid/audio.h ****     */
  86:../../libDaisy//src/hid/audio.h ****     typedef float* InterleavingOutputBuffer;
  87:../../libDaisy//src/hid/audio.h **** 
  88:../../libDaisy//src/hid/audio.h ****     /** Interleaving Audio Callback 
  89:../../libDaisy//src/hid/audio.h ****      * Interleaving audio callbacks in daisy must be of this type
  90:../../libDaisy//src/hid/audio.h ****      */
  91:../../libDaisy//src/hid/audio.h ****     typedef void (*InterleavingAudioCallback)(InterleavingInputBuffer  in,
  92:../../libDaisy//src/hid/audio.h ****                                               InterleavingOutputBuffer out,
  93:../../libDaisy//src/hid/audio.h ****                                               size_t                   size);
  94:../../libDaisy//src/hid/audio.h **** 
  95:../../libDaisy//src/hid/audio.h ****     AudioHandle() : pimpl_(nullptr) {}
  96:../../libDaisy//src/hid/audio.h ****     ~AudioHandle() {}
  67              		.loc 6 96 5 is_stmt 1 view .LVU11
  68              		.loc 6 96 5 is_stmt 0 view .LVU12
  69              	.LBE199:
  70              	.LBB200:
  71              	.LBI200:
  72              		.file 7 "../../libDaisy//src/sys/system.h"
   1:../../libDaisy//src/sys/system.h **** #ifndef DSY_SYSTEM_H
   2:../../libDaisy//src/sys/system.h **** #define DSY_SYSTEM_H
   3:../../libDaisy//src/sys/system.h **** 
   4:../../libDaisy//src/sys/system.h **** #ifndef UNIT_TEST // for unit tests, a dummy implementation is provided below
   5:../../libDaisy//src/sys/system.h **** 
   6:../../libDaisy//src/sys/system.h **** #include <cstdint>
   7:../../libDaisy//src/sys/system.h **** #include "per/tim.h"
   8:../../libDaisy//src/sys/system.h **** 
   9:../../libDaisy//src/sys/system.h **** namespace daisy
  10:../../libDaisy//src/sys/system.h **** {
  11:../../libDaisy//src/sys/system.h **** /** A handle for interacting with the Core System. 
  12:../../libDaisy//src/sys/system.h ****  ** This includes the Clock tree, MPU, global DMA initialization,
  13:../../libDaisy//src/sys/system.h ****  ** cache handling, and any other necessary global initiailzation
  14:../../libDaisy//src/sys/system.h ****  **
  15:../../libDaisy//src/sys/system.h ****  ** @author shensley
  16:../../libDaisy//src/sys/system.h ****  ** @ingroup system
  17:../../libDaisy//src/sys/system.h ****  */
  18:../../libDaisy//src/sys/system.h **** class System
  19:../../libDaisy//src/sys/system.h **** {
  20:../../libDaisy//src/sys/system.h ****   public:
  21:../../libDaisy//src/sys/system.h ****     /** Contains settings for initializing the System */
  22:../../libDaisy//src/sys/system.h ****     struct Config
  23:../../libDaisy//src/sys/system.h ****     {
  24:../../libDaisy//src/sys/system.h ****         /** Specifies the system clock frequency that feeds APB/AHB clocks, etc. */
  25:../../libDaisy//src/sys/system.h ****         enum class SysClkFreq
  26:../../libDaisy//src/sys/system.h ****         {
  27:../../libDaisy//src/sys/system.h ****             FREQ_400MHZ,
  28:../../libDaisy//src/sys/system.h ****             FREQ_480MHZ,
  29:../../libDaisy//src/sys/system.h ****         };
  30:../../libDaisy//src/sys/system.h **** 
  31:../../libDaisy//src/sys/system.h ****         /** Method to call on the struct to set to defaults
  32:../../libDaisy//src/sys/system.h ****          ** CPU Freq set to 400MHz
  33:../../libDaisy//src/sys/system.h ****          ** Cache Enabled 
  34:../../libDaisy//src/sys/system.h ****          ** */
  35:../../libDaisy//src/sys/system.h ****         void Defaults()
  36:../../libDaisy//src/sys/system.h ****         {
ARM GAS  C:\Users\daniel\AppData\Local\Temp\ccHs5oNB.s 			page 9


  37:../../libDaisy//src/sys/system.h ****             cpu_freq    = SysClkFreq::FREQ_400MHZ;
  38:../../libDaisy//src/sys/system.h ****             use_dcache  = true;
  39:../../libDaisy//src/sys/system.h ****             use_icache  = true;
  40:../../libDaisy//src/sys/system.h ****             skip_clocks = false;
  41:../../libDaisy//src/sys/system.h ****         }
  42:../../libDaisy//src/sys/system.h **** 
  43:../../libDaisy//src/sys/system.h ****         /** Method to call on the struct to set to boost mode:
  44:../../libDaisy//src/sys/system.h ****          ** CPU Freq set to 480MHz
  45:../../libDaisy//src/sys/system.h ****          ** Cache Enabled 
  46:../../libDaisy//src/sys/system.h ****          ** */
  47:../../libDaisy//src/sys/system.h ****         void Boost()
  48:../../libDaisy//src/sys/system.h ****         {
  49:../../libDaisy//src/sys/system.h ****             cpu_freq    = SysClkFreq::FREQ_480MHZ;
  50:../../libDaisy//src/sys/system.h ****             use_dcache  = true;
  51:../../libDaisy//src/sys/system.h ****             use_icache  = true;
  52:../../libDaisy//src/sys/system.h ****             skip_clocks = false;
  53:../../libDaisy//src/sys/system.h ****         }
  54:../../libDaisy//src/sys/system.h **** 
  55:../../libDaisy//src/sys/system.h ****         SysClkFreq cpu_freq;
  56:../../libDaisy//src/sys/system.h ****         bool       use_dcache;
  57:../../libDaisy//src/sys/system.h ****         bool       use_icache;
  58:../../libDaisy//src/sys/system.h ****         bool       skip_clocks;
  59:../../libDaisy//src/sys/system.h ****     };
  60:../../libDaisy//src/sys/system.h **** 
  61:../../libDaisy//src/sys/system.h ****     /** Describes the different regions of memory available to the Daisy
  62:../../libDaisy//src/sys/system.h ****      * 
  63:../../libDaisy//src/sys/system.h ****      */
  64:../../libDaisy//src/sys/system.h ****     enum MemoryRegion
  65:../../libDaisy//src/sys/system.h ****     {
  66:../../libDaisy//src/sys/system.h ****         INTERNAL_FLASH = 0,
  67:../../libDaisy//src/sys/system.h ****         ITCMRAM,
  68:../../libDaisy//src/sys/system.h ****         DTCMRAM,
  69:../../libDaisy//src/sys/system.h ****         SRAM_D1,
  70:../../libDaisy//src/sys/system.h ****         SRAM_D2,
  71:../../libDaisy//src/sys/system.h ****         SRAM_D3,
  72:../../libDaisy//src/sys/system.h ****         SDRAM,
  73:../../libDaisy//src/sys/system.h ****         QSPI,
  74:../../libDaisy//src/sys/system.h ****         INVALID_ADDRESS,
  75:../../libDaisy//src/sys/system.h ****     };
  76:../../libDaisy//src/sys/system.h **** 
  77:../../libDaisy//src/sys/system.h ****     System() {}
  78:../../libDaisy//src/sys/system.h ****     ~System() {}
  73              		.loc 7 78 5 is_stmt 1 view .LVU13
  74              		.loc 7 78 5 is_stmt 0 view .LVU14
  75              	.LBE200:
  76              		.loc 1 65 26 view .LVU15
  77 0000 7047     		bx	lr
  78              		.cfi_endproc
  79              	.LFE2528:
  81              		.weak	_ZN5daisy8patch_sm12DaisyPatchSMD1Ev
  82              		.thumb_set _ZN5daisy8patch_sm12DaisyPatchSMD1Ev,_ZN5daisy8patch_sm12DaisyPatchSMD2Ev
  83 0002 00BF     		.section	.text._ZN7daisysp10OscillatorD2Ev,"axG",%progbits,_ZN7daisysp10OscillatorD5Ev,comdat
  84              		.align	1
  85              		.p2align 2,,3
  86              		.weak	_ZN7daisysp10OscillatorD2Ev
  87              		.syntax unified
  88              		.thumb
ARM GAS  C:\Users\daniel\AppData\Local\Temp\ccHs5oNB.s 			page 10


  89              		.thumb_func
  90              		.fpu fpv5-d16
  92              	_ZN7daisysp10OscillatorD2Ev:
  93              	.LVL1:
  94              	.LFB4222:
  95              		.file 8 "../../DaisySP//Source/Synthesis/oscillator.h"
   1:../../DaisySP//Source/Synthesis/oscillator.h **** #pragma once
   2:../../DaisySP//Source/Synthesis/oscillator.h **** #ifndef DSY_OSCILLATOR_H
   3:../../DaisySP//Source/Synthesis/oscillator.h **** #define DSY_OSCILLATOR_H
   4:../../DaisySP//Source/Synthesis/oscillator.h **** #include <stdint.h>
   5:../../DaisySP//Source/Synthesis/oscillator.h **** #include "Utility/dsp.h"
   6:../../DaisySP//Source/Synthesis/oscillator.h **** #ifdef __cplusplus
   7:../../DaisySP//Source/Synthesis/oscillator.h **** 
   8:../../DaisySP//Source/Synthesis/oscillator.h **** namespace daisysp
   9:../../DaisySP//Source/Synthesis/oscillator.h **** {
  10:../../DaisySP//Source/Synthesis/oscillator.h **** /** Synthesis of several waveforms, including polyBLEP bandlimited waveforms.
  11:../../DaisySP//Source/Synthesis/oscillator.h **** */
  12:../../DaisySP//Source/Synthesis/oscillator.h **** class Oscillator
  13:../../DaisySP//Source/Synthesis/oscillator.h **** {
  14:../../DaisySP//Source/Synthesis/oscillator.h ****   public:
  15:../../DaisySP//Source/Synthesis/oscillator.h ****     Oscillator() {}
  16:../../DaisySP//Source/Synthesis/oscillator.h ****     ~Oscillator() {}
  96              		.loc 8 16 5 is_stmt 1 view -0
  97              		.cfi_startproc
  98              		@ args = 0, pretend = 0, frame = 0
  99              		@ frame_needed = 0, uses_anonymous_args = 0
 100              		@ link register save eliminated.
 101              		.loc 8 16 20 is_stmt 0 view .LVU17
 102 0000 7047     		bx	lr
 103              		.cfi_endproc
 104              	.LFE4222:
 106              		.weak	_ZN7daisysp10OscillatorD1Ev
 107              		.thumb_set _ZN7daisysp10OscillatorD1Ev,_ZN7daisysp10OscillatorD2Ev
 108              		.section	.text._ZN7daisysp12PitchShifterD2Ev,"axG",%progbits,_ZN7daisysp12PitchShifterD5Ev,comdat
 109              		.align	1
 110              		.p2align 2,,3
 111              		.weak	_ZN7daisysp12PitchShifterD2Ev
 112              		.syntax unified
 113              		.thumb
 114              		.thumb_func
 115              		.fpu fpv5-d16
 117              	_ZN7daisysp12PitchShifterD2Ev:
 118              	.LVL2:
 119              	.LFB4447:
 120              		.file 9 "../../DaisySP//Source/Effects/pitchshifter.h"
   1:../../DaisySP//Source/Effects/pitchshifter.h **** #pragma once
   2:../../DaisySP//Source/Effects/pitchshifter.h **** #ifndef DSY_PITCHSHIFTER_H
   3:../../DaisySP//Source/Effects/pitchshifter.h **** #define DSY_PITCHSHIFTER_H
   4:../../DaisySP//Source/Effects/pitchshifter.h **** #include <stdint.h>
   5:../../DaisySP//Source/Effects/pitchshifter.h **** #include <cmath>
   6:../../DaisySP//Source/Effects/pitchshifter.h **** #ifdef USE_ARM_DSP
   7:../../DaisySP//Source/Effects/pitchshifter.h **** #include "arm_math.h"
   8:../../DaisySP//Source/Effects/pitchshifter.h **** #endif
   9:../../DaisySP//Source/Effects/pitchshifter.h **** #include "Utility/dsp.h"
  10:../../DaisySP//Source/Effects/pitchshifter.h **** #include "Utility/delayline.h"
  11:../../DaisySP//Source/Effects/pitchshifter.h **** #include "Control/phasor.h"
  12:../../DaisySP//Source/Effects/pitchshifter.h **** 
ARM GAS  C:\Users\daniel\AppData\Local\Temp\ccHs5oNB.s 			page 11


  13:../../DaisySP//Source/Effects/pitchshifter.h **** /** Shift can be 30-100 ms lets just start with 50 for now.
  14:../../DaisySP//Source/Effects/pitchshifter.h **** 0.050 * SR = 2400 samples (at 48kHz)
  15:../../DaisySP//Source/Effects/pitchshifter.h **** */
  16:../../DaisySP//Source/Effects/pitchshifter.h **** #define SHIFT_BUFFER_SIZE 16384
  17:../../DaisySP//Source/Effects/pitchshifter.h **** //#define SHIFT_BUFFER_SIZE 4800
  18:../../DaisySP//Source/Effects/pitchshifter.h **** //#define SHIFT_BUFFER_SIZE 8192
  19:../../DaisySP//Source/Effects/pitchshifter.h **** //#define SHIFT_BUFFER_SIZE 1024
  20:../../DaisySP//Source/Effects/pitchshifter.h **** 
  21:../../DaisySP//Source/Effects/pitchshifter.h **** namespace daisysp
  22:../../DaisySP//Source/Effects/pitchshifter.h **** {
  23:../../DaisySP//Source/Effects/pitchshifter.h **** static inline uint32_t hash_xs32(uint32_t x)
  24:../../DaisySP//Source/Effects/pitchshifter.h **** {
  25:../../DaisySP//Source/Effects/pitchshifter.h ****     x ^= x << 13;
  26:../../DaisySP//Source/Effects/pitchshifter.h ****     x ^= x >> 17;
  27:../../DaisySP//Source/Effects/pitchshifter.h ****     x ^= x << 5;
  28:../../DaisySP//Source/Effects/pitchshifter.h ****     return x;
  29:../../DaisySP//Source/Effects/pitchshifter.h **** }
  30:../../DaisySP//Source/Effects/pitchshifter.h **** 
  31:../../DaisySP//Source/Effects/pitchshifter.h **** inline uint32_t myrand()
  32:../../DaisySP//Source/Effects/pitchshifter.h **** {
  33:../../DaisySP//Source/Effects/pitchshifter.h ****     static uint32_t seed = 1;
  34:../../DaisySP//Source/Effects/pitchshifter.h ****     seed                 = hash_xs32(seed);
  35:../../DaisySP//Source/Effects/pitchshifter.h ****     return seed;
  36:../../DaisySP//Source/Effects/pitchshifter.h **** }
  37:../../DaisySP//Source/Effects/pitchshifter.h **** 
  38:../../DaisySP//Source/Effects/pitchshifter.h **** /**  time-domain pitchshifter
  39:../../DaisySP//Source/Effects/pitchshifter.h **** 
  40:../../DaisySP//Source/Effects/pitchshifter.h **** Author: shensley
  41:../../DaisySP//Source/Effects/pitchshifter.h **** 
  42:../../DaisySP//Source/Effects/pitchshifter.h **** Based on "Pitch Shifting" from ucsd.edu 
  43:../../DaisySP//Source/Effects/pitchshifter.h **** 
  44:../../DaisySP//Source/Effects/pitchshifter.h **** t = 1 - ((s *f) / R)
  45:../../DaisySP//Source/Effects/pitchshifter.h **** 
  46:../../DaisySP//Source/Effects/pitchshifter.h **** where:
  47:../../DaisySP//Source/Effects/pitchshifter.h ****     s is the size of the delay
  48:../../DaisySP//Source/Effects/pitchshifter.h ****     f is the frequency of the lfo
  49:../../DaisySP//Source/Effects/pitchshifter.h ****     r is the sample_rate
  50:../../DaisySP//Source/Effects/pitchshifter.h **** 
  51:../../DaisySP//Source/Effects/pitchshifter.h **** solving for t = 12.0
  52:../../DaisySP//Source/Effects/pitchshifter.h **** f = (12 - 1) * 48000 / SHIFT_BUFFER_SIZE;
  53:../../DaisySP//Source/Effects/pitchshifter.h **** 
  54:../../DaisySP//Source/Effects/pitchshifter.h **** \todo - move hash_xs32 and myrand to dsp.h and give appropriate names
  55:../../DaisySP//Source/Effects/pitchshifter.h **** */
  56:../../DaisySP//Source/Effects/pitchshifter.h **** class PitchShifter
  57:../../DaisySP//Source/Effects/pitchshifter.h **** {
  58:../../DaisySP//Source/Effects/pitchshifter.h ****   public:
  59:../../DaisySP//Source/Effects/pitchshifter.h ****     PitchShifter() {}
  60:../../DaisySP//Source/Effects/pitchshifter.h ****     ~PitchShifter() {}
 121              		.loc 9 60 5 is_stmt 1 view -0
 122              		.cfi_startproc
 123              		@ args = 0, pretend = 0, frame = 0
 124              		@ frame_needed = 0, uses_anonymous_args = 0
 125              		@ link register save eliminated.
 126              		.loc 9 60 22 is_stmt 0 view .LVU19
 127 0000 7047     		bx	lr
 128              		.cfi_endproc
 129              	.LFE4447:
ARM GAS  C:\Users\daniel\AppData\Local\Temp\ccHs5oNB.s 			page 12


 131              		.weak	_ZN7daisysp12PitchShifterD1Ev
 132              		.thumb_set _ZN7daisysp12PitchShifterD1Ev,_ZN7daisysp12PitchShifterD2Ev
 133              		.section	.text._ZN7daisysp12PitchShifter7ProcessERf,"axG",%progbits,_ZN7daisysp12PitchShifter7Proc
 134              		.align	1
 135              		.p2align 2,,3
 136              		.weak	_ZN7daisysp12PitchShifter7ProcessERf
 137              		.syntax unified
 138              		.thumb
 139              		.thumb_func
 140              		.fpu fpv5-d16
 142              	_ZN7daisysp12PitchShifter7ProcessERf:
 143              	.LVL3:
 144              	.LFB4450:
  61:../../DaisySP//Source/Effects/pitchshifter.h ****     /** Initialize pitch shifter
  62:../../DaisySP//Source/Effects/pitchshifter.h ****     */
  63:../../DaisySP//Source/Effects/pitchshifter.h ****     void Init(float sr)
  64:../../DaisySP//Source/Effects/pitchshifter.h ****     {
  65:../../DaisySP//Source/Effects/pitchshifter.h ****         force_recalc_ = false;
  66:../../DaisySP//Source/Effects/pitchshifter.h ****         sr_           = sr;
  67:../../DaisySP//Source/Effects/pitchshifter.h ****         mod_freq_     = 5.0f;
  68:../../DaisySP//Source/Effects/pitchshifter.h ****         SetSemitones();
  69:../../DaisySP//Source/Effects/pitchshifter.h ****         for(uint8_t i = 0; i < 2; i++)
  70:../../DaisySP//Source/Effects/pitchshifter.h ****         {
  71:../../DaisySP//Source/Effects/pitchshifter.h ****             gain_[i] = 0.0f;
  72:../../DaisySP//Source/Effects/pitchshifter.h ****             d_[i].Init();
  73:../../DaisySP//Source/Effects/pitchshifter.h ****             phs_[i].Init(sr, 50, i == 0 ? 0 : PI_F);
  74:../../DaisySP//Source/Effects/pitchshifter.h ****         }
  75:../../DaisySP//Source/Effects/pitchshifter.h ****         shift_up_ = true;
  76:../../DaisySP//Source/Effects/pitchshifter.h ****         del_size_ = SHIFT_BUFFER_SIZE;
  77:../../DaisySP//Source/Effects/pitchshifter.h ****         SetDelSize(del_size_);
  78:../../DaisySP//Source/Effects/pitchshifter.h ****         fun_ = 0.0f;
  79:../../DaisySP//Source/Effects/pitchshifter.h ****     }
  80:../../DaisySP//Source/Effects/pitchshifter.h **** 
  81:../../DaisySP//Source/Effects/pitchshifter.h ****     /** process pitch shifter
  82:../../DaisySP//Source/Effects/pitchshifter.h ****     */
  83:../../DaisySP//Source/Effects/pitchshifter.h ****     float Process(float &in)
 145              		.loc 9 83 11 is_stmt 1 view -0
 146              		.cfi_startproc
 147              		@ args = 0, pretend = 0, frame = 0
 148              		@ frame_needed = 0, uses_anonymous_args = 0
  84:../../DaisySP//Source/Effects/pitchshifter.h ****     {
  85:../../DaisySP//Source/Effects/pitchshifter.h ****         float val, fade1, fade2;
 149              		.loc 9 85 9 view .LVU21
  86:../../DaisySP//Source/Effects/pitchshifter.h ****         // First Process delay mod/crossfade
  87:../../DaisySP//Source/Effects/pitchshifter.h ****         fade1 = phs_[0].Process();
 150              		.loc 9 87 9 view .LVU22
  83:../../DaisySP//Source/Effects/pitchshifter.h ****     {
 151              		.loc 9 83 11 is_stmt 0 view .LVU23
 152 0000 F8B5     		push	{r3, r4, r5, r6, r7, lr}
 153              		.cfi_def_cfa_offset 24
 154              		.cfi_offset 3, -24
 155              		.cfi_offset 4, -20
 156              		.cfi_offset 5, -16
 157              		.cfi_offset 6, -12
 158              		.cfi_offset 7, -8
 159              		.cfi_offset 14, -4
 160 0002 0546     		mov	r5, r0
ARM GAS  C:\Users\daniel\AppData\Local\Temp\ccHs5oNB.s 			page 13


 161              		.loc 9 87 32 view .LVU24
 162 0004 A748     		ldr	r0, .L15
 163              	.LVL4:
  83:../../DaisySP//Source/Effects/pitchshifter.h ****     {
 164              		.loc 9 83 11 view .LVU25
 165 0006 0E46     		mov	r6, r1
 166              		.loc 9 87 32 view .LVU26
 167 0008 2844     		add	r0, r0, r5
  88:../../DaisySP//Source/Effects/pitchshifter.h ****         fade2 = phs_[1].Process();
  89:../../DaisySP//Source/Effects/pitchshifter.h ****         if(prev_phs_a_ > fade1)
 168              		.loc 9 89 12 view .LVU27
 169 000a 05F50034 		add	r4, r5, #131072
  83:../../DaisySP//Source/Effects/pitchshifter.h ****     {
 170              		.loc 9 83 11 view .LVU28
 171 000e 2DED088B 		vpush.64	{d8, d9, d10, d11}
 172              		.cfi_def_cfa_offset 56
 173              		.cfi_offset 80, -56
 174              		.cfi_offset 81, -52
 175              		.cfi_offset 82, -48
 176              		.cfi_offset 83, -44
 177              		.cfi_offset 84, -40
 178              		.cfi_offset 85, -36
 179              		.cfi_offset 86, -32
 180              		.cfi_offset 87, -28
  87:../../DaisySP//Source/Effects/pitchshifter.h ****         fade2 = phs_[1].Process();
 181              		.loc 9 87 32 view .LVU29
 182 0012 FFF7FEFF 		bl	_ZN7daisysp6Phasor7ProcessEv
 183              	.LVL5:
  88:../../DaisySP//Source/Effects/pitchshifter.h ****         fade2 = phs_[1].Process();
 184              		.loc 9 88 32 view .LVU30
 185 0016 A448     		ldr	r0, .L15+4
  87:../../DaisySP//Source/Effects/pitchshifter.h ****         fade2 = phs_[1].Process();
 186              		.loc 9 87 32 view .LVU31
 187 0018 F0EE409A 		vmov.f32	s19, s0
 188              	.LVL6:
  88:../../DaisySP//Source/Effects/pitchshifter.h ****         fade2 = phs_[1].Process();
 189              		.loc 9 88 9 is_stmt 1 view .LVU32
  88:../../DaisySP//Source/Effects/pitchshifter.h ****         fade2 = phs_[1].Process();
 190              		.loc 9 88 32 is_stmt 0 view .LVU33
 191 001c 2844     		add	r0, r0, r5
 192 001e FFF7FEFF 		bl	_ZN7daisysp6Phasor7ProcessEv
 193              	.LVL7:
 194              		.loc 9 89 9 view .LVU34
 195 0022 D4ED1C7A 		vldr.32	s15, [r4, #112]
  88:../../DaisySP//Source/Effects/pitchshifter.h ****         fade2 = phs_[1].Process();
 196              		.loc 9 88 32 view .LVU35
 197 0026 F0EE40AA 		vmov.f32	s21, s0
 198              	.LVL8:
 199              		.loc 9 89 9 is_stmt 1 view .LVU36
 200 002a F4EEE97A 		vcmpe.f32	s15, s19
 201 002e F1EE10FA 		vmrs	APSR_nzcv, FPSCR
 202 0032 00F3F580 		bgt	.L6
  90:../../DaisySP//Source/Effects/pitchshifter.h ****         {
  91:../../DaisySP//Source/Effects/pitchshifter.h ****             mod_a_amt_ = fun_ * ((float)(myrand() % 255) / 255.0f)
  92:../../DaisySP//Source/Effects/pitchshifter.h ****                          * (del_size_ * 0.5f);
 203              		.loc 9 92 29 is_stmt 0 view .LVU37
 204 0036 236A     		ldr	r3, [r4, #32]
ARM GAS  C:\Users\daniel\AppData\Local\Temp\ccHs5oNB.s 			page 14


  93:../../DaisySP//Source/Effects/pitchshifter.h ****             mod_coeff_[0]
  94:../../DaisySP//Source/Effects/pitchshifter.h ****                 = 0.0002f + (((float)(myrand() % 255) / 255.0f) * 0.001f);
  95:../../DaisySP//Source/Effects/pitchshifter.h ****         }
  96:../../DaisySP//Source/Effects/pitchshifter.h ****         if(prev_phs_b_ > fade2)
  97:../../DaisySP//Source/Effects/pitchshifter.h ****         {
  98:../../DaisySP//Source/Effects/pitchshifter.h ****             mod_b_amt_ = fun_ * ((float)(myrand() % 255) / 255.0f)
  99:../../DaisySP//Source/Effects/pitchshifter.h ****                          * (del_size_ * 0.5f);
 100:../../DaisySP//Source/Effects/pitchshifter.h ****             mod_coeff_[1]
 101:../../DaisySP//Source/Effects/pitchshifter.h ****                 = 0.0002f + (((float)(myrand() % 255) / 255.0f) * 0.001f);
 102:../../DaisySP//Source/Effects/pitchshifter.h ****         }
 103:../../DaisySP//Source/Effects/pitchshifter.h ****         slewed_mod_[0] += mod_coeff_[0] * (mod_a_amt_ - slewed_mod_[0]);
 205              		.loc 9 103 39 view .LVU38
 206 0038 D4ED205A 		vldr.32	s11, [r4, #128]
 207              		.loc 9 103 44 view .LVU39
 208 003c 94ED1A7A 		vldr.32	s14, [r4, #104]
 209              	.L7:
  96:../../DaisySP//Source/Effects/pitchshifter.h ****         {
 210              		.loc 9 96 9 is_stmt 1 view .LVU40
 211 0040 D4ED1D7A 		vldr.32	s15, [r4, #116]
 212 0044 F4EEEA7A 		vcmpe.f32	s15, s21
 213 0048 F1EE10FA 		vmrs	APSR_nzcv, FPSCR
 214 004c 00F3A580 		bgt	.L8
 104:../../DaisySP//Source/Effects/pitchshifter.h ****         slewed_mod_[1] += mod_coeff_[1] * (mod_b_amt_ - slewed_mod_[1]);
 215              		.loc 9 104 39 is_stmt 0 view .LVU41
 216 0050 D4ED216A 		vldr.32	s13, [r4, #132]
 217              		.loc 9 104 44 view .LVU42
 218 0054 D4ED1B7A 		vldr.32	s15, [r4, #108]
 219              	.L9:
 103:../../DaisySP//Source/Effects/pitchshifter.h ****         slewed_mod_[1] += mod_coeff_[1] * (mod_b_amt_ - slewed_mod_[1]);
 220              		.loc 9 103 9 is_stmt 1 view .LVU43
 103:../../DaisySP//Source/Effects/pitchshifter.h ****         slewed_mod_[1] += mod_coeff_[1] * (mod_b_amt_ - slewed_mod_[1]);
 221              		.loc 9 103 24 is_stmt 0 view .LVU44
 222 0058 D4ED1E8A 		vldr.32	s17, [r4, #120]
 223              		.loc 9 104 24 view .LVU45
 224 005c 94ED1F8A 		vldr.32	s16, [r4, #124]
 103:../../DaisySP//Source/Effects/pitchshifter.h ****         slewed_mod_[1] += mod_coeff_[1] * (mod_b_amt_ - slewed_mod_[1]);
 225              		.loc 9 103 55 view .LVU46
 226 0060 37EE687A 		vsub.f32	s14, s14, s17
 105:../../DaisySP//Source/Effects/pitchshifter.h ****         prev_phs_a_ = fade1;
 106:../../DaisySP//Source/Effects/pitchshifter.h ****         prev_phs_b_ = fade2;
 107:../../DaisySP//Source/Effects/pitchshifter.h ****         if(shift_up_)
 227              		.loc 9 107 9 view .LVU47
 228 0064 94F82C20 		ldrb	r2, [r4, #44]	@ zero_extendqisi2
 104:../../DaisySP//Source/Effects/pitchshifter.h ****         prev_phs_a_ = fade1;
 229              		.loc 9 104 55 view .LVU48
 230 0068 77EEC87A 		vsub.f32	s15, s15, s16
 105:../../DaisySP//Source/Effects/pitchshifter.h ****         prev_phs_a_ = fade1;
 231              		.loc 9 105 21 view .LVU49
 232 006c C4ED1C9A 		vstr.32	s19, [r4, #112]
 106:../../DaisySP//Source/Effects/pitchshifter.h ****         if(shift_up_)
 233              		.loc 9 106 21 view .LVU50
 234 0070 C4ED1DAA 		vstr.32	s21, [r4, #116]
 103:../../DaisySP//Source/Effects/pitchshifter.h ****         slewed_mod_[1] += mod_coeff_[1] * (mod_b_amt_ - slewed_mod_[1]);
 235              		.loc 9 103 24 view .LVU51
 236 0074 E7EE258A 		vfma.f32	s17, s14, s11
 104:../../DaisySP//Source/Effects/pitchshifter.h ****         prev_phs_a_ = fade1;
 237              		.loc 9 104 24 view .LVU52
ARM GAS  C:\Users\daniel\AppData\Local\Temp\ccHs5oNB.s 			page 15


 238 0078 A7EEA68A 		vfma.f32	s16, s15, s13
 103:../../DaisySP//Source/Effects/pitchshifter.h ****         slewed_mod_[1] += mod_coeff_[1] * (mod_b_amt_ - slewed_mod_[1]);
 239              		.loc 9 103 24 view .LVU53
 240 007c C4ED1E8A 		vstr.32	s17, [r4, #120]
 104:../../DaisySP//Source/Effects/pitchshifter.h ****         prev_phs_a_ = fade1;
 241              		.loc 9 104 9 is_stmt 1 view .LVU54
 104:../../DaisySP//Source/Effects/pitchshifter.h ****         prev_phs_a_ = fade1;
 242              		.loc 9 104 24 is_stmt 0 view .LVU55
 243 0080 84ED1F8A 		vstr.32	s16, [r4, #124]
 105:../../DaisySP//Source/Effects/pitchshifter.h ****         prev_phs_b_ = fade2;
 244              		.loc 9 105 9 is_stmt 1 view .LVU56
 106:../../DaisySP//Source/Effects/pitchshifter.h ****         if(shift_up_)
 245              		.loc 9 106 9 view .LVU57
 246              		.loc 9 107 9 view .LVU58
 247 0084 2AB1     		cbz	r2, .L10
 108:../../DaisySP//Source/Effects/pitchshifter.h ****         {
 109:../../DaisySP//Source/Effects/pitchshifter.h ****             fade1 = 1.0f - fade1;
 248              		.loc 9 109 13 view .LVU59
 249              		.loc 9 109 19 is_stmt 0 view .LVU60
 250 0086 F7EE007A 		vmov.f32	s15, #1.0e+0
 251 008a 77EEE99A 		vsub.f32	s19, s15, s19
 252              	.LVL9:
 110:../../DaisySP//Source/Effects/pitchshifter.h ****             fade2 = 1.0f - fade2;
 253              		.loc 9 110 13 is_stmt 1 view .LVU61
 254              		.loc 9 110 19 is_stmt 0 view .LVU62
 255 008e 77EEEAAA 		vsub.f32	s21, s15, s21
 256              	.LVL10:
 257              	.L10:
 111:../../DaisySP//Source/Effects/pitchshifter.h ****         }
 112:../../DaisySP//Source/Effects/pitchshifter.h ****         mod_[0] = fade1 * (del_size_ - 1);
 258              		.loc 9 112 9 is_stmt 1 view .LVU63
 259              		.loc 9 112 38 is_stmt 0 view .LVU64
 260 0092 013B     		subs	r3, r3, #1
 113:../../DaisySP//Source/Effects/pitchshifter.h ****         mod_[1] = fade2 * (del_size_ - 1);
 114:../../DaisySP//Source/Effects/pitchshifter.h **** #ifdef USE_ARM_DSP
 115:../../DaisySP//Source/Effects/pitchshifter.h ****         gain_[0] = arm_sin_f32(fade1 * (float)M_PI);
 116:../../DaisySP//Source/Effects/pitchshifter.h ****         gain_[1] = arm_sin_f32(fade2 * (float)M_PI);
 117:../../DaisySP//Source/Effects/pitchshifter.h **** #else
 118:../../DaisySP//Source/Effects/pitchshifter.h ****         gain_[0] = sinf(fade1 * PI_F);
 261              		.loc 9 118 24 view .LVU65
 262 0094 9FED85BA 		vldr.32	s22, .L15+8
 112:../../DaisySP//Source/Effects/pitchshifter.h ****         mod_[1] = fade2 * (del_size_ - 1);
 263              		.loc 9 112 38 view .LVU66
 264 0098 09EE103A 		vmov	s18, r3	@ int
 265              		.loc 9 118 24 view .LVU67
 266 009c 29EE8B0A 		vmul.f32	s0, s19, s22
 112:../../DaisySP//Source/Effects/pitchshifter.h ****         mod_[1] = fade2 * (del_size_ - 1);
 267              		.loc 9 112 25 view .LVU68
 268 00a0 B8EE499A 		vcvt.f32.u32	s18, s18
 269 00a4 69EE299A 		vmul.f32	s19, s18, s19
 270              	.LVL11:
 113:../../DaisySP//Source/Effects/pitchshifter.h ****         mod_[1] = fade2 * (del_size_ - 1);
 271              		.loc 9 113 25 view .LVU69
 272 00a8 29EE2A9A 		vmul.f32	s18, s18, s21
 112:../../DaisySP//Source/Effects/pitchshifter.h ****         mod_[1] = fade2 * (del_size_ - 1);
 273              		.loc 9 112 17 view .LVU70
 274 00ac C4ED169A 		vstr.32	s19, [r4, #88]
ARM GAS  C:\Users\daniel\AppData\Local\Temp\ccHs5oNB.s 			page 16


 113:../../DaisySP//Source/Effects/pitchshifter.h ****         mod_[1] = fade2 * (del_size_ - 1);
 275              		.loc 9 113 9 is_stmt 1 view .LVU71
 119:../../DaisySP//Source/Effects/pitchshifter.h ****         gain_[1] = sinf(fade2 * PI_F);
 120:../../DaisySP//Source/Effects/pitchshifter.h **** #endif
 121:../../DaisySP//Source/Effects/pitchshifter.h **** 
 122:../../DaisySP//Source/Effects/pitchshifter.h ****         // Handle Delay Writing
 123:../../DaisySP//Source/Effects/pitchshifter.h ****         d_[0].Write(in);
 124:../../DaisySP//Source/Effects/pitchshifter.h ****         d_[1].Write(in);
 125:../../DaisySP//Source/Effects/pitchshifter.h ****         // Modulate Delay Lines
 126:../../DaisySP//Source/Effects/pitchshifter.h ****         //mod_a_amt = mod_b_amt = 0.0f;
 127:../../DaisySP//Source/Effects/pitchshifter.h ****         d_[0].SetDelay(mod_[0] + mod_a_amt_);
 128:../../DaisySP//Source/Effects/pitchshifter.h ****         d_[1].SetDelay(mod_[1] + mod_b_amt_);
 129:../../DaisySP//Source/Effects/pitchshifter.h ****         d_[0].SetDelay(mod_[0] + slewed_mod_[0]);
 276              		.loc 9 129 23 is_stmt 0 view .LVU72
 277 00b0 78EEA98A 		vadd.f32	s17, s17, s19
 113:../../DaisySP//Source/Effects/pitchshifter.h **** #ifdef USE_ARM_DSP
 278              		.loc 9 113 17 view .LVU73
 279 00b4 84ED179A 		vstr.32	s18, [r4, #92]
 118:../../DaisySP//Source/Effects/pitchshifter.h ****         gain_[1] = sinf(fade2 * PI_F);
 280              		.loc 9 118 9 is_stmt 1 view .LVU74
 130:../../DaisySP//Source/Effects/pitchshifter.h ****         d_[1].SetDelay(mod_[1] + slewed_mod_[1]);
 281              		.loc 9 130 23 is_stmt 0 view .LVU75
 282 00b8 38EE098A 		vadd.f32	s16, s16, s18
 118:../../DaisySP//Source/Effects/pitchshifter.h ****         gain_[1] = sinf(fade2 * PI_F);
 283              		.loc 9 118 24 view .LVU76
 284 00bc FFF7FEFF 		bl	sinf
 285              	.LVL12:
 286 00c0 B0EE40AA 		vmov.f32	s20, s0
 119:../../DaisySP//Source/Effects/pitchshifter.h **** #endif
 287              		.loc 9 119 24 view .LVU77
 288 00c4 2AEE8B0A 		vmul.f32	s0, s21, s22
 118:../../DaisySP//Source/Effects/pitchshifter.h ****         gain_[1] = sinf(fade2 * PI_F);
 289              		.loc 9 118 18 view .LVU78
 290 00c8 84ED14AA 		vstr.32	s20, [r4, #80]
 119:../../DaisySP//Source/Effects/pitchshifter.h **** #endif
 291              		.loc 9 119 9 is_stmt 1 view .LVU79
 119:../../DaisySP//Source/Effects/pitchshifter.h **** #endif
 292              		.loc 9 119 24 is_stmt 0 view .LVU80
 293 00cc FFF7FEFF 		bl	sinf
 294              	.LVL13:
 295              	.LBB229:
 296              	.LBB230:
 297              		.file 10 "../../DaisySP//Source/Utility/delayline.h"
   1:../../DaisySP//Source/Utility/delayline.h **** #pragma once
   2:../../DaisySP//Source/Utility/delayline.h **** #ifndef DSY_DELAY_H
   3:../../DaisySP//Source/Utility/delayline.h **** #define DSY_DELAY_H
   4:../../DaisySP//Source/Utility/delayline.h **** #include <stdlib.h>
   5:../../DaisySP//Source/Utility/delayline.h **** #include <stdint.h>
   6:../../DaisySP//Source/Utility/delayline.h **** namespace daisysp
   7:../../DaisySP//Source/Utility/delayline.h **** {
   8:../../DaisySP//Source/Utility/delayline.h **** /** Simple Delay line.
   9:../../DaisySP//Source/Utility/delayline.h **** November 2019
  10:../../DaisySP//Source/Utility/delayline.h **** 
  11:../../DaisySP//Source/Utility/delayline.h **** Converted to Template December 2019
  12:../../DaisySP//Source/Utility/delayline.h **** 
  13:../../DaisySP//Source/Utility/delayline.h **** declaration example: (1 second of floats)
  14:../../DaisySP//Source/Utility/delayline.h **** 
ARM GAS  C:\Users\daniel\AppData\Local\Temp\ccHs5oNB.s 			page 17


  15:../../DaisySP//Source/Utility/delayline.h **** DelayLine<float, SAMPLE_RATE> del;
  16:../../DaisySP//Source/Utility/delayline.h **** 
  17:../../DaisySP//Source/Utility/delayline.h **** By: shensley
  18:../../DaisySP//Source/Utility/delayline.h **** */
  19:../../DaisySP//Source/Utility/delayline.h **** template <typename T, size_t max_size>
  20:../../DaisySP//Source/Utility/delayline.h **** class DelayLine
  21:../../DaisySP//Source/Utility/delayline.h **** {
  22:../../DaisySP//Source/Utility/delayline.h ****   public:
  23:../../DaisySP//Source/Utility/delayline.h ****     DelayLine() {}
  24:../../DaisySP//Source/Utility/delayline.h ****     ~DelayLine() {}
  25:../../DaisySP//Source/Utility/delayline.h ****     /** initializes the delay line by clearing the values within, and setting delay to 1 sample.
  26:../../DaisySP//Source/Utility/delayline.h ****     */
  27:../../DaisySP//Source/Utility/delayline.h ****     void Init() { Reset(); }
  28:../../DaisySP//Source/Utility/delayline.h ****     /** clears buffer, sets write ptr to 0, and delay to 1 sample.
  29:../../DaisySP//Source/Utility/delayline.h ****     */
  30:../../DaisySP//Source/Utility/delayline.h ****     void Reset()
  31:../../DaisySP//Source/Utility/delayline.h ****     {
  32:../../DaisySP//Source/Utility/delayline.h ****         for(size_t i = 0; i < max_size; i++)
  33:../../DaisySP//Source/Utility/delayline.h ****         {
  34:../../DaisySP//Source/Utility/delayline.h ****             line_[i] = T(0);
  35:../../DaisySP//Source/Utility/delayline.h ****         }
  36:../../DaisySP//Source/Utility/delayline.h ****         write_ptr_ = 0;
  37:../../DaisySP//Source/Utility/delayline.h ****         delay_     = 1;
  38:../../DaisySP//Source/Utility/delayline.h ****     }
  39:../../DaisySP//Source/Utility/delayline.h **** 
  40:../../DaisySP//Source/Utility/delayline.h ****     /** sets the delay time in samples
  41:../../DaisySP//Source/Utility/delayline.h ****         If a float is passed in, a fractional component will be calculated for interpolating the de
  42:../../DaisySP//Source/Utility/delayline.h ****     */
  43:../../DaisySP//Source/Utility/delayline.h ****     inline void SetDelay(size_t delay)
  44:../../DaisySP//Source/Utility/delayline.h ****     {
  45:../../DaisySP//Source/Utility/delayline.h ****         frac_  = 0.0f;
  46:../../DaisySP//Source/Utility/delayline.h ****         delay_ = delay < max_size ? delay : max_size - 1;
  47:../../DaisySP//Source/Utility/delayline.h ****     }
  48:../../DaisySP//Source/Utility/delayline.h **** 
  49:../../DaisySP//Source/Utility/delayline.h ****     /** sets the delay time in samples
  50:../../DaisySP//Source/Utility/delayline.h ****         If a float is passed in, a fractional component will be calculated for interpolating the de
  51:../../DaisySP//Source/Utility/delayline.h ****     */
  52:../../DaisySP//Source/Utility/delayline.h ****     inline void SetDelay(float delay)
  53:../../DaisySP//Source/Utility/delayline.h ****     {
  54:../../DaisySP//Source/Utility/delayline.h ****         int32_t int_delay = static_cast<int32_t>(delay);
 298              		.loc 10 54 17 view .LVU81
 299 00d0 BDEEE87A 		vcvt.s32.f32	s14, s17
 300              	.LBE230:
 301              	.LBE229:
 302              	.LBB236:
 303              	.LBB237:
  55:../../DaisySP//Source/Utility/delayline.h ****         frac_             = delay - static_cast<float>(int_delay);
  56:../../DaisySP//Source/Utility/delayline.h ****         delay_ = static_cast<size_t>(int_delay) < max_size ? int_delay
  57:../../DaisySP//Source/Utility/delayline.h ****                                                            : max_size - 1;
  58:../../DaisySP//Source/Utility/delayline.h ****     }
  59:../../DaisySP//Source/Utility/delayline.h **** 
  60:../../DaisySP//Source/Utility/delayline.h ****     /** writes the sample of type T to the delay line, and advances the write ptr
  61:../../DaisySP//Source/Utility/delayline.h ****     */
  62:../../DaisySP//Source/Utility/delayline.h ****     inline void Write(const T sample)
  63:../../DaisySP//Source/Utility/delayline.h ****     {
  64:../../DaisySP//Source/Utility/delayline.h ****         line_[write_ptr_] = sample;
 304              		.loc 10 64 15 view .LVU82
ARM GAS  C:\Users\daniel\AppData\Local\Temp\ccHs5oNB.s 			page 18


 305 00d4 6A68     		ldr	r2, [r5, #4]
  65:../../DaisySP//Source/Utility/delayline.h ****         write_ptr_        = (write_ptr_ - 1 + max_size) % max_size;
 306              		.loc 10 65 45 view .LVU83
 307 00d6 43F6FF73 		movw	r3, #16383
 308              	.LBE237:
 309              	.LBE236:
 310              	.LBB242:
 311              	.LBB243:
  54:../../DaisySP//Source/Utility/delayline.h ****         frac_             = delay - static_cast<float>(int_delay);
 312              		.loc 10 54 17 view .LVU84
 313 00da FDEEC87A 		vcvt.s32.f32	s15, s16
 314              	.LBE243:
 315              	.LBE242:
 119:../../DaisySP//Source/Effects/pitchshifter.h **** #endif
 316              		.loc 9 119 18 view .LVU85
 317 00de 84ED150A 		vstr.32	s0, [r4, #84]
 123:../../DaisySP//Source/Effects/pitchshifter.h ****         d_[1].Write(in);
 318              		.loc 9 123 9 is_stmt 1 view .LVU86
 319              	.LBB251:
 320              	.LBB238:
  64:../../DaisySP//Source/Utility/delayline.h ****         write_ptr_        = (write_ptr_ - 1 + max_size) % max_size;
 321              		.loc 10 64 27 is_stmt 0 view .LVU87
 322 00e2 05EB8201 		add	r1, r5, r2, lsl #2
 323              	.LBE238:
 324              	.LBE251:
 123:../../DaisySP//Source/Effects/pitchshifter.h ****         d_[1].Write(in);
 325              		.loc 9 123 20 view .LVU88
 326 00e6 D6F800C0 		ldr	ip, [r6]	@ float
 327              	.LVL14:
 328              	.LBB252:
 329              	.LBI236:
  62:../../DaisySP//Source/Utility/delayline.h ****     {
 330              		.loc 10 62 17 is_stmt 1 view .LVU89
 331              	.LBE252:
 332              	.LBB253:
 333              	.LBB231:
  56:../../DaisySP//Source/Utility/delayline.h ****                                                            : max_size - 1;
 334              		.loc 10 56 60 is_stmt 0 view .LVU90
 335 00ea 17EE104A 		vmov	r4, s14	@ int
 336              	.LBE231:
 337              	.LBE253:
 338              	.LBB254:
 339              	.LBB239:
 340              		.loc 10 65 45 view .LVU91
 341 00ee 1A44     		add	r2, r2, r3
  64:../../DaisySP//Source/Utility/delayline.h ****         write_ptr_        = (write_ptr_ - 1 + max_size) % max_size;
 342              		.loc 10 64 27 view .LVU92
 343 00f0 C1F80CC0 		str	ip, [r1, #12]	@ float
 344              	.LBE239:
 345              	.LBE254:
 346              	.LBB255:
 347              	.LBB244:
  56:../../DaisySP//Source/Utility/delayline.h ****                                                            : max_size - 1;
 348              		.loc 10 56 60 view .LVU93
 349 00f4 17EE900A 		vmov	r0, s15	@ int
 350              	.LBE244:
 351              	.LBE255:
ARM GAS  C:\Users\daniel\AppData\Local\Temp\ccHs5oNB.s 			page 19


 352              	.LBB256:
 353              	.LBB257:
  64:../../DaisySP//Source/Utility/delayline.h ****         write_ptr_        = (write_ptr_ - 1 + max_size) % max_size;
 354              		.loc 10 64 15 view .LVU94
 355 00f8 05F58031 		add	r1, r5, #65536
 356              	.LBE257:
 357              	.LBE256:
 358              	.LBB262:
 359              	.LBB232:
  56:../../DaisySP//Source/Utility/delayline.h ****                                                            : max_size - 1;
 360              		.loc 10 56 60 view .LVU95
 361 00fc 9C42     		cmp	r4, r3
 362              	.LBE232:
 363              	.LBE262:
 364              	.LBB263:
 365              	.LBB240:
 366              		.loc 10 65 57 view .LVU96
 367 00fe C2F30D02 		ubfx	r2, r2, #0, #14
 368              	.LBE240:
 369              	.LBE263:
 370              	.LBB264:
 371              	.LBB233:
  55:../../DaisySP//Source/Utility/delayline.h ****         delay_ = static_cast<size_t>(int_delay) < max_size ? int_delay
 372              		.loc 10 55 37 view .LVU97
 373 0102 F8EEC75A 		vcvt.f32.s32	s11, s14
  56:../../DaisySP//Source/Utility/delayline.h ****                                                            : max_size - 1;
 374              		.loc 10 56 60 view .LVU98
 375 0106 28BF     		it	cs
 376 0108 1C46     		movcs	r4, r3
 377              	.LBE233:
 378              	.LBE264:
 379              	.LBB265:
 380              	.LBB245:
 381 010a 9842     		cmp	r0, r3
 382              	.LBE245:
 383              	.LBE265:
 384              	.LBB266:
 385              	.LBB241:
 386              		.loc 10 65 27 view .LVU99
 387 010c 6A60     		str	r2, [r5, #4]
 388              	.LVL15:
 389              		.loc 10 65 27 view .LVU100
 390              	.LBE241:
 391              	.LBE266:
 124:../../DaisySP//Source/Effects/pitchshifter.h ****         // Modulate Delay Lines
 392              		.loc 9 124 9 is_stmt 1 view .LVU101
 393              	.LBB267:
 394              	.LBI256:
  62:../../DaisySP//Source/Utility/delayline.h ****     {
 395              		.loc 10 62 17 view .LVU102
 396              	.LBE267:
 397              	.LBB268:
 398              	.LBB246:
  55:../../DaisySP//Source/Utility/delayline.h ****         delay_ = static_cast<size_t>(int_delay) < max_size ? int_delay
 399              		.loc 10 55 37 is_stmt 0 view .LVU103
 400 010e B8EEE76A 		vcvt.f32.s32	s12, s15
 401              	.LBE246:
ARM GAS  C:\Users\daniel\AppData\Local\Temp\ccHs5oNB.s 			page 20


 402              	.LBE268:
 403              	.LBB269:
 404              	.LBB258:
  64:../../DaisySP//Source/Utility/delayline.h ****         write_ptr_        = (write_ptr_ - 1 + max_size) % max_size;
 405              		.loc 10 64 15 view .LVU104
 406 0112 0E69     		ldr	r6, [r1, #16]
 407              	.LVL16:
  64:../../DaisySP//Source/Utility/delayline.h ****         write_ptr_        = (write_ptr_ - 1 + max_size) % max_size;
 408              		.loc 10 64 15 view .LVU105
 409              	.LBE258:
 410              	.LBE269:
 411              	.LBB270:
 412              	.LBB247:
  56:../../DaisySP//Source/Utility/delayline.h ****                                                            : max_size - 1;
 413              		.loc 10 56 60 view .LVU106
 414 0114 28BF     		it	cs
 415 0116 1846     		movcs	r0, r3
 416              	.LBE247:
 417              	.LBE270:
 418              	.LBB271:
 419              	.LBB234:
  55:../../DaisySP//Source/Utility/delayline.h ****         delay_ = static_cast<size_t>(int_delay) < max_size ? int_delay
 420              		.loc 10 55 35 view .LVU107
 421 0118 78EEE58A 		vsub.f32	s17, s17, s11
 422              	.LBE234:
 423              	.LBE271:
 424              	.LBB272:
 425              	.LBB273:
  66:../../DaisySP//Source/Utility/delayline.h ****     }
  67:../../DaisySP//Source/Utility/delayline.h **** 
  68:../../DaisySP//Source/Utility/delayline.h ****     /** returns the next sample of type T in the delay line, interpolated if necessary.
  69:../../DaisySP//Source/Utility/delayline.h ****     */
  70:../../DaisySP//Source/Utility/delayline.h ****     inline const T Read() const
  71:../../DaisySP//Source/Utility/delayline.h ****     {
  72:../../DaisySP//Source/Utility/delayline.h ****         T a = line_[(write_ptr_ + delay_) % max_size];
 426              		.loc 10 72 33 view .LVU108
 427 011c 2244     		add	r2, r2, r4
 428              	.LBE273:
 429              	.LBE272:
 430              	.LBB280:
 431              	.LBB259:
  65:../../DaisySP//Source/Utility/delayline.h ****     }
 432              		.loc 10 65 45 view .LVU109
 433 011e 3344     		add	r3, r3, r6
  64:../../DaisySP//Source/Utility/delayline.h ****         write_ptr_        = (write_ptr_ - 1 + max_size) % max_size;
 434              		.loc 10 64 27 view .LVU110
 435 0120 01EB8606 		add	r6, r1, r6, lsl #2
 436              	.LBE259:
 437              	.LBE280:
 438              	.LBB281:
 439              	.LBB248:
  55:../../DaisySP//Source/Utility/delayline.h ****         delay_ = static_cast<size_t>(int_delay) < max_size ? int_delay
 440              		.loc 10 55 35 view .LVU111
 441 0124 38EE468A 		vsub.f32	s16, s16, s12
 442              	.LBE248:
 443              	.LBE281:
 444              	.LBB282:
ARM GAS  C:\Users\daniel\AppData\Local\Temp\ccHs5oNB.s 			page 21


 445              	.LBB260:
  65:../../DaisySP//Source/Utility/delayline.h ****     }
 446              		.loc 10 65 57 view .LVU112
 447 0128 C3F30D03 		ubfx	r3, r3, #0, #14
  64:../../DaisySP//Source/Utility/delayline.h ****         write_ptr_        = (write_ptr_ - 1 + max_size) % max_size;
 448              		.loc 10 64 27 view .LVU113
 449 012c C6F818C0 		str	ip, [r6, #24]	@ float
 450              	.LBE260:
 451              	.LBE282:
 119:../../DaisySP//Source/Effects/pitchshifter.h **** #endif
 452              		.loc 9 119 24 view .LVU114
 453 0130 F0EE406A 		vmov.f32	s13, s0
 131:../../DaisySP//Source/Effects/pitchshifter.h ****         val = 0.0f;
 132:../../DaisySP//Source/Effects/pitchshifter.h ****         val += (d_[0].Read() * gain_[0]);
 454              		.loc 9 132 13 view .LVU115
 455 0134 9FED5E0A 		vldr.32	s0, .L15+12
 456              	.LBB283:
 457              	.LBB261:
  65:../../DaisySP//Source/Utility/delayline.h ****     }
 458              		.loc 10 65 27 view .LVU116
 459 0138 0B61     		str	r3, [r1, #16]
 460              	.LVL17:
  65:../../DaisySP//Source/Utility/delayline.h ****     }
 461              		.loc 10 65 27 view .LVU117
 462              	.LBE261:
 463              	.LBE283:
 127:../../DaisySP//Source/Effects/pitchshifter.h ****         d_[1].SetDelay(mod_[1] + mod_b_amt_);
 464              		.loc 9 127 9 is_stmt 1 view .LVU118
 128:../../DaisySP//Source/Effects/pitchshifter.h ****         d_[0].SetDelay(mod_[0] + slewed_mod_[0]);
 465              		.loc 9 128 9 view .LVU119
 129:../../DaisySP//Source/Effects/pitchshifter.h ****         d_[1].SetDelay(mod_[1] + slewed_mod_[1]);
 466              		.loc 9 129 9 view .LVU120
 467              	.LBB284:
 468              	.LBI229:
  52:../../DaisySP//Source/Utility/delayline.h ****     {
 469              		.loc 10 52 17 view .LVU121
  52:../../DaisySP//Source/Utility/delayline.h ****     {
 470              		.loc 10 52 17 is_stmt 0 view .LVU122
 471              	.LBE284:
 472              	.LBB285:
 473              	.LBB286:
 474              		.loc 10 72 33 view .LVU123
 475 013a 0344     		add	r3, r3, r0
 476              	.LBE286:
 477              	.LBE285:
 478              	.LBB292:
 479              	.LBB235:
  55:../../DaisySP//Source/Utility/delayline.h ****         delay_ = static_cast<size_t>(int_delay) < max_size ? int_delay
 480              		.loc 10 55 27 view .LVU124
 481 013c C5ED008A 		vstr.32	s17, [r5]
  56:../../DaisySP//Source/Utility/delayline.h ****                                                            : max_size - 1;
 482              		.loc 10 56 16 view .LVU125
 483 0140 AC60     		str	r4, [r5, #8]
 484              	.LVL18:
  56:../../DaisySP//Source/Utility/delayline.h ****                                                            : max_size - 1;
 485              		.loc 10 56 16 view .LVU126
 486              	.LBE235:
ARM GAS  C:\Users\daniel\AppData\Local\Temp\ccHs5oNB.s 			page 22


 487              	.LBE292:
 130:../../DaisySP//Source/Effects/pitchshifter.h ****         val = 0.0f;
 488              		.loc 9 130 9 is_stmt 1 view .LVU127
 489              	.LBB293:
 490              	.LBI242:
  52:../../DaisySP//Source/Utility/delayline.h ****     {
 491              		.loc 10 52 17 view .LVU128
 492              	.LBB249:
  56:../../DaisySP//Source/Utility/delayline.h ****                                                            : max_size - 1;
 493              		.loc 10 56 16 is_stmt 0 view .LVU129
 494 0142 4861     		str	r0, [r1, #20]
 495              	.LVL19:
  56:../../DaisySP//Source/Utility/delayline.h ****                                                            : max_size - 1;
 496              		.loc 10 56 16 view .LVU130
 497              	.LBE249:
 498              	.LBE293:
 131:../../DaisySP//Source/Effects/pitchshifter.h ****         val += (d_[0].Read() * gain_[0]);
 499              		.loc 9 131 9 is_stmt 1 view .LVU131
 500              		.loc 9 132 9 view .LVU132
 501              	.LBB294:
 502              	.LBI272:
  70:../../DaisySP//Source/Utility/delayline.h ****     {
 503              		.loc 10 70 20 view .LVU133
 504              	.LBB274:
 505              		.loc 10 72 43 is_stmt 0 view .LVU134
 506 0144 C2F30D00 		ubfx	r0, r2, #0, #14
  73:../../DaisySP//Source/Utility/delayline.h ****         T b = line_[(write_ptr_ + delay_ + 1) % max_size];
 507              		.loc 10 73 42 view .LVU135
 508 0148 0132     		adds	r2, r2, #1
 509              	.LBE274:
 510              	.LBE294:
 511              	.LBB295:
 512              	.LBB250:
  55:../../DaisySP//Source/Utility/delayline.h ****         delay_ = static_cast<size_t>(int_delay) < max_size ? int_delay
 513              		.loc 10 55 27 view .LVU136
 514 014a 81ED038A 		vstr.32	s16, [r1, #12]
 515              	.LBE250:
 516              	.LBE295:
 517              	.LBB296:
 518              	.LBB275:
  72:../../DaisySP//Source/Utility/delayline.h ****         T b = line_[(write_ptr_ + delay_ + 1) % max_size];
 519              		.loc 10 72 11 view .LVU137
 520 014e 05EB8000 		add	r0, r5, r0, lsl #2
 521              		.loc 10 73 47 view .LVU138
 522 0152 C2F30D02 		ubfx	r2, r2, #0, #14
  72:../../DaisySP//Source/Utility/delayline.h ****         T b = line_[(write_ptr_ + delay_ + 1) % max_size];
 523              		.loc 10 72 11 view .LVU139
 524 0156 90ED037A 		vldr.32	s14, [r0, #12]
 525              	.LVL20:
  72:../../DaisySP//Source/Utility/delayline.h ****         T b = line_[(write_ptr_ + delay_ + 1) % max_size];
 526              		.loc 10 72 11 view .LVU140
 527              	.LBE275:
 528              	.LBE296:
 529              	.LBB297:
 530              	.LBB287:
 531              		.loc 10 73 42 view .LVU141
 532 015a 581C     		adds	r0, r3, #1
ARM GAS  C:\Users\daniel\AppData\Local\Temp\ccHs5oNB.s 			page 23


 533              	.LBE287:
 534              	.LBE297:
 535              	.LBB298:
 536              	.LBB276:
 537              		.loc 10 73 11 view .LVU142
 538 015c 05EB8202 		add	r2, r5, r2, lsl #2
 539              	.LBE276:
 540              	.LBE298:
 541              	.LBB299:
 542              	.LBB288:
  72:../../DaisySP//Source/Utility/delayline.h ****         T b = line_[(write_ptr_ + delay_ + 1) % max_size];
 543              		.loc 10 72 43 view .LVU143
 544 0160 C3F30D03 		ubfx	r3, r3, #0, #14
 545              	.LBE288:
 546              	.LBE299:
 547              	.LBB300:
 548              	.LBB277:
  74:../../DaisySP//Source/Utility/delayline.h ****         return a + (b - a) * frac_;
 549              		.loc 10 74 23 view .LVU144
 550 0164 92ED036A 		vldr.32	s12, [r2, #12]
 551              	.LBE277:
 552              	.LBE300:
 553              	.LBB301:
 554              	.LBB289:
  73:../../DaisySP//Source/Utility/delayline.h ****         return a + (b - a) * frac_;
 555              		.loc 10 73 47 view .LVU145
 556 0168 C0F30D02 		ubfx	r2, r0, #0, #14
  72:../../DaisySP//Source/Utility/delayline.h ****         T b = line_[(write_ptr_ + delay_ + 1) % max_size];
 557              		.loc 10 72 11 view .LVU146
 558 016c 01EB8303 		add	r3, r1, r3, lsl #2
 559              	.LBE289:
 560              	.LBE301:
 561              	.LBB302:
 562              	.LBB278:
 563              		.loc 10 74 23 view .LVU147
 564 0170 36EE476A 		vsub.f32	s12, s12, s14
 565              	.LBE278:
 566              	.LBE302:
 567              	.LBB303:
 568              	.LBB290:
  73:../../DaisySP//Source/Utility/delayline.h ****         return a + (b - a) * frac_;
 569              		.loc 10 73 11 view .LVU148
 570 0174 01EB8202 		add	r2, r1, r2, lsl #2
  72:../../DaisySP//Source/Utility/delayline.h ****         T b = line_[(write_ptr_ + delay_ + 1) % max_size];
 571              		.loc 10 72 11 view .LVU149
 572 0178 D3ED067A 		vldr.32	s15, [r3, #24]
 573              	.LBE290:
 574              	.LBE303:
 575              	.LBB304:
 576              	.LBB279:
 577              		.loc 10 74 30 view .LVU150
 578 017c A8EE867A 		vfma.f32	s14, s17, s12
 579              	.LVL21:
 580              		.loc 10 74 30 view .LVU151
 581              	.LBE279:
 582              	.LBE304:
 583              	.LBB305:
ARM GAS  C:\Users\daniel\AppData\Local\Temp\ccHs5oNB.s 			page 24


 584              	.LBB291:
 585              		.loc 10 74 23 view .LVU152
 586 0180 92ED066A 		vldr.32	s12, [r2, #24]
 587 0184 36EE676A 		vsub.f32	s12, s12, s15
 588              		.loc 10 74 30 view .LVU153
 589 0188 E8EE067A 		vfma.f32	s15, s16, s12
 590              	.LBE291:
 591              	.LBE305:
 592              		.loc 9 132 13 view .LVU154
 593 018c AAEE070A 		vfma.f32	s0, s20, s14
 594              	.LVL22:
 133:../../DaisySP//Source/Effects/pitchshifter.h ****         val += (d_[1].Read() * gain_[1]);
 595              		.loc 9 133 9 is_stmt 1 view .LVU155
 596              	.LBB306:
 597              	.LBI285:
  70:../../DaisySP//Source/Utility/delayline.h ****     {
 598              		.loc 10 70 20 view .LVU156
  70:../../DaisySP//Source/Utility/delayline.h ****     {
 599              		.loc 10 70 20 is_stmt 0 view .LVU157
 600              	.LBE306:
 134:../../DaisySP//Source/Effects/pitchshifter.h ****         return val;
 601              		.loc 9 134 9 is_stmt 1 view .LVU158
 135:../../DaisySP//Source/Effects/pitchshifter.h ****     }
 602              		.loc 9 135 5 is_stmt 0 view .LVU159
 603 0190 BDEC088B 		vldm	sp!, {d8-d11}
 604              		.cfi_remember_state
 605              		.cfi_restore 86
 606              		.cfi_restore 87
 607              		.cfi_restore 84
 608              		.cfi_restore 85
 609              		.cfi_restore 82
 610              		.cfi_restore 83
 611              		.cfi_restore 80
 612              		.cfi_restore 81
 613              		.cfi_def_cfa_offset 24
 614 0194 A6EEA70A 		vfma.f32	s0, s13, s15
 615              	.LVL23:
 616              		.loc 9 135 5 view .LVU160
 617 0198 F8BD     		pop	{r3, r4, r5, r6, r7, pc}
 618              	.LVL24:
 619              	.L8:
 620              		.cfi_restore_state
  98:../../DaisySP//Source/Effects/pitchshifter.h ****                          * (del_size_ * 0.5f);
 621              		.loc 9 98 13 is_stmt 1 view .LVU161
 622              	.LBB307:
 623              	.LBI307:
  31:../../DaisySP//Source/Effects/pitchshifter.h **** {
 624              		.loc 9 31 17 view .LVU162
 625              	.LBB308:
  33:../../DaisySP//Source/Effects/pitchshifter.h ****     seed                 = hash_xs32(seed);
 626              		.loc 9 33 5 view .LVU163
  34:../../DaisySP//Source/Effects/pitchshifter.h ****     return seed;
 627              		.loc 9 34 5 view .LVU164
  34:../../DaisySP//Source/Effects/pitchshifter.h ****     return seed;
 628              		.loc 9 34 37 is_stmt 0 view .LVU165
 629 019a 464F     		ldr	r7, .L15+16
 630              	.LBE308:
ARM GAS  C:\Users\daniel\AppData\Local\Temp\ccHs5oNB.s 			page 25


 631              	.LBE307:
  98:../../DaisySP//Source/Effects/pitchshifter.h ****                          * (del_size_ * 0.5f);
 632              		.loc 9 98 51 view .LVU166
 633 019c 4649     		ldr	r1, .L15+20
 634              	.LBB321:
 635              	.LBB317:
  34:../../DaisySP//Source/Effects/pitchshifter.h ****     return seed;
 636              		.loc 9 34 37 view .LVU167
 637 019e 3A68     		ldr	r2, [r7]
 638              	.LVL25:
 639              	.LBB309:
 640              	.LBI309:
  23:../../DaisySP//Source/Effects/pitchshifter.h **** {
 641              		.loc 9 23 24 is_stmt 1 view .LVU168
 642              	.LBB310:
  25:../../DaisySP//Source/Effects/pitchshifter.h ****     x ^= x >> 17;
 643              		.loc 9 25 5 view .LVU169
 644              	.LBE310:
 645              	.LBE309:
 646              	.LBE317:
 647              	.LBE321:
  98:../../DaisySP//Source/Effects/pitchshifter.h ****                          * (del_size_ * 0.5f);
 648              		.loc 9 98 58 is_stmt 0 view .LVU170
 649 01a0 9FED465A 		vldr.32	s10, .L15+24
 650              	.LBB322:
 651              	.LBB318:
 652              	.LBB314:
 653              	.LBB311:
  25:../../DaisySP//Source/Effects/pitchshifter.h ****     x ^= x >> 17;
 654              		.loc 9 25 7 view .LVU171
 655 01a4 82EA4232 		eor	r2, r2, r2, lsl #13
 656              	.LVL26:
  26:../../DaisySP//Source/Effects/pitchshifter.h ****     x ^= x << 5;
 657              		.loc 9 26 5 is_stmt 1 view .LVU172
 658              	.LBE311:
 659              	.LBE314:
 660              	.LBE318:
 661              	.LBE322:
  98:../../DaisySP//Source/Effects/pitchshifter.h ****                          * (del_size_ * 0.5f);
 662              		.loc 9 98 31 is_stmt 0 view .LVU173
 663 01a8 D4ED193A 		vldr.32	s7, [r4, #100]
 101:../../DaisySP//Source/Effects/pitchshifter.h ****         }
 664              		.loc 9 101 27 view .LVU174
 665 01ac 9FED446A 		vldr.32	s12, .L15+28
 666              	.LBB323:
 667              	.LBB319:
 668              	.LBB315:
 669              	.LBB312:
  26:../../DaisySP//Source/Effects/pitchshifter.h ****     x ^= x << 5;
 670              		.loc 9 26 7 view .LVU175
 671 01b0 82EA5242 		eor	r2, r2, r2, lsr #17
 672              	.LVL27:
  27:../../DaisySP//Source/Effects/pitchshifter.h ****     return x;
 673              		.loc 9 27 5 is_stmt 1 view .LVU176
 674              	.LBE312:
 675              	.LBE315:
 676              	.LBE319:
ARM GAS  C:\Users\daniel\AppData\Local\Temp\ccHs5oNB.s 			page 26


 677              	.LBE323:
 101:../../DaisySP//Source/Effects/pitchshifter.h ****         }
 678              		.loc 9 101 27 is_stmt 0 view .LVU177
 679 01b4 DFED434A 		vldr.32	s9, .L15+32
 680              	.LBB324:
 681              	.LBB320:
 682              	.LBB316:
 683              	.LBB313:
  27:../../DaisySP//Source/Effects/pitchshifter.h ****     return x;
 684              		.loc 9 27 7 view .LVU178
 685 01b8 82EA4212 		eor	r2, r2, r2, lsl #5
 686              	.LVL28:
  28:../../DaisySP//Source/Effects/pitchshifter.h **** }
 687              		.loc 9 28 5 is_stmt 1 view .LVU179
  28:../../DaisySP//Source/Effects/pitchshifter.h **** }
 688              		.loc 9 28 5 is_stmt 0 view .LVU180
 689              	.LBE313:
 690              	.LBE316:
  35:../../DaisySP//Source/Effects/pitchshifter.h **** }
 691              		.loc 9 35 5 is_stmt 1 view .LVU181
 692              	.LBE320:
 693              	.LBE324:
 694              	.LBB325:
 695              	.LBB326:
 696              	.LBB327:
 697              	.LBB328:
  25:../../DaisySP//Source/Effects/pitchshifter.h ****     x ^= x >> 17;
 698              		.loc 9 25 7 is_stmt 0 view .LVU182
 699 01bc 82EA4230 		eor	r0, r2, r2, lsl #13
  26:../../DaisySP//Source/Effects/pitchshifter.h ****     x ^= x << 5;
 700              		.loc 9 26 7 view .LVU183
 701 01c0 80EA5040 		eor	r0, r0, r0, lsr #17
  27:../../DaisySP//Source/Effects/pitchshifter.h ****     return x;
 702              		.loc 9 27 7 view .LVU184
 703 01c4 80EA4010 		eor	r0, r0, r0, lsl #5
 704              	.LBE328:
 705              	.LBE327:
  34:../../DaisySP//Source/Effects/pitchshifter.h ****     return seed;
 706              		.loc 9 34 26 view .LVU185
 707 01c8 3860     		str	r0, [r7]
 708              	.LBE326:
 709              	.LBE325:
  98:../../DaisySP//Source/Effects/pitchshifter.h ****                          * (del_size_ * 0.5f);
 710              		.loc 9 98 51 view .LVU186
 711 01ca A1FB027C 		umull	r7, ip, r1, r2
 101:../../DaisySP//Source/Effects/pitchshifter.h ****         }
 712              		.loc 9 101 48 view .LVU187
 713 01ce A1FB0071 		umull	r7, r1, r1, r0
  98:../../DaisySP//Source/Effects/pitchshifter.h ****                          * (del_size_ * 0.5f);
 714              		.loc 9 98 51 view .LVU188
 715 01d2 4FEADC1C 		lsr	ip, ip, #7
 101:../../DaisySP//Source/Effects/pitchshifter.h ****         }
 716              		.loc 9 101 48 view .LVU189
 717 01d6 C909     		lsrs	r1, r1, #7
  98:../../DaisySP//Source/Effects/pitchshifter.h ****                          * (del_size_ * 0.5f);
 718              		.loc 9 98 51 view .LVU190
 719 01d8 CCEB0C2C 		rsb	ip, ip, ip, lsl #8
ARM GAS  C:\Users\daniel\AppData\Local\Temp\ccHs5oNB.s 			page 27


 101:../../DaisySP//Source/Effects/pitchshifter.h ****         }
 720              		.loc 9 101 48 view .LVU191
 721 01dc C1EB0121 		rsb	r1, r1, r1, lsl #8
  98:../../DaisySP//Source/Effects/pitchshifter.h ****                          * (del_size_ * 0.5f);
 722              		.loc 9 98 51 view .LVU192
 723 01e0 A2EB0C02 		sub	r2, r2, ip
 101:../../DaisySP//Source/Effects/pitchshifter.h ****         }
 724              		.loc 9 101 48 view .LVU193
 725 01e4 411A     		subs	r1, r0, r1
  98:../../DaisySP//Source/Effects/pitchshifter.h ****                          * (del_size_ * 0.5f);
 726              		.loc 9 98 34 view .LVU194
 727 01e6 07EE902A 		vmov	s15, r2	@ int
 728 01ea F8EEE76A 		vcvt.f32.s32	s13, s15
  98:../../DaisySP//Source/Effects/pitchshifter.h ****                          * (del_size_ * 0.5f);
 729              		.loc 9 98 58 view .LVU195
 730 01ee C6EE857A 		vdiv.f32	s15, s13, s10
 101:../../DaisySP//Source/Effects/pitchshifter.h ****         }
 731              		.loc 9 101 31 view .LVU196
 732 01f2 06EE901A 		vmov	s13, r1	@ int
 733 01f6 F8EEE66A 		vcvt.f32.s32	s13, s13
 101:../../DaisySP//Source/Effects/pitchshifter.h ****         }
 734              		.loc 9 101 55 view .LVU197
 735 01fa 86EE854A 		vdiv.f32	s8, s13, s10
  99:../../DaisySP//Source/Effects/pitchshifter.h ****             mod_coeff_[1]
 736              		.loc 9 99 26 view .LVU198
 737 01fe 06EE903A 		vmov	s13, r3	@ int
 738 0202 FBEEEF6A 		vcvt.f32.u32	s13, s13, #1
  98:../../DaisySP//Source/Effects/pitchshifter.h ****                          * (del_size_ * 0.5f);
 739              		.loc 9 98 31 view .LVU199
 740 0206 67EEA37A 		vmul.f32	s15, s15, s7
  99:../../DaisySP//Source/Effects/pitchshifter.h ****             mod_coeff_[1]
 741              		.loc 9 99 26 view .LVU200
 742 020a 67EEA67A 		vmul.f32	s15, s15, s13
 101:../../DaisySP//Source/Effects/pitchshifter.h ****         }
 743              		.loc 9 101 27 view .LVU201
 744 020e F0EE466A 		vmov.f32	s13, s12
  98:../../DaisySP//Source/Effects/pitchshifter.h ****                          * (del_size_ * 0.5f);
 745              		.loc 9 98 24 view .LVU202
 746 0212 C4ED1B7A 		vstr.32	s15, [r4, #108]
 100:../../DaisySP//Source/Effects/pitchshifter.h ****                 = 0.0002f + (((float)(myrand() % 255) / 255.0f) * 0.001f);
 747              		.loc 9 100 13 is_stmt 1 view .LVU203
 748              	.LBB332:
 749              	.LBI325:
  31:../../DaisySP//Source/Effects/pitchshifter.h **** {
 750              		.loc 9 31 17 view .LVU204
 751              	.LBB331:
  33:../../DaisySP//Source/Effects/pitchshifter.h ****     seed                 = hash_xs32(seed);
 752              		.loc 9 33 5 view .LVU205
  34:../../DaisySP//Source/Effects/pitchshifter.h ****     return seed;
 753              		.loc 9 34 5 view .LVU206
 754              	.LVL29:
 755              	.LBB330:
 756              	.LBI327:
  23:../../DaisySP//Source/Effects/pitchshifter.h **** {
 757              		.loc 9 23 24 view .LVU207
 758              	.LBB329:
  25:../../DaisySP//Source/Effects/pitchshifter.h ****     x ^= x >> 17;
ARM GAS  C:\Users\daniel\AppData\Local\Temp\ccHs5oNB.s 			page 28


 759              		.loc 9 25 5 view .LVU208
  26:../../DaisySP//Source/Effects/pitchshifter.h ****     x ^= x << 5;
 760              		.loc 9 26 5 view .LVU209
  27:../../DaisySP//Source/Effects/pitchshifter.h ****     return x;
 761              		.loc 9 27 5 view .LVU210
  28:../../DaisySP//Source/Effects/pitchshifter.h **** }
 762              		.loc 9 28 5 view .LVU211
  28:../../DaisySP//Source/Effects/pitchshifter.h **** }
 763              		.loc 9 28 5 is_stmt 0 view .LVU212
 764              	.LBE329:
 765              	.LBE330:
  35:../../DaisySP//Source/Effects/pitchshifter.h **** }
 766              		.loc 9 35 5 is_stmt 1 view .LVU213
 767              	.LBE331:
 768              	.LBE332:
 101:../../DaisySP//Source/Effects/pitchshifter.h ****         }
 769              		.loc 9 101 27 is_stmt 0 view .LVU214
 770 0216 E4EE246A 		vfma.f32	s13, s8, s9
 101:../../DaisySP//Source/Effects/pitchshifter.h ****         }
 771              		.loc 9 101 17 view .LVU215
 772 021a C4ED216A 		vstr.32	s13, [r4, #132]
 773 021e 1BE7     		b	.L9
 774              	.L6:
  91:../../DaisySP//Source/Effects/pitchshifter.h ****                          * (del_size_ * 0.5f);
 775              		.loc 9 91 13 is_stmt 1 view .LVU216
 776              	.LBB333:
 777              	.LBI333:
  31:../../DaisySP//Source/Effects/pitchshifter.h **** {
 778              		.loc 9 31 17 view .LVU217
 779              	.LBB334:
  33:../../DaisySP//Source/Effects/pitchshifter.h ****     seed                 = hash_xs32(seed);
 780              		.loc 9 33 5 view .LVU218
  34:../../DaisySP//Source/Effects/pitchshifter.h ****     return seed;
 781              		.loc 9 34 5 view .LVU219
  34:../../DaisySP//Source/Effects/pitchshifter.h ****     return seed;
 782              		.loc 9 34 37 is_stmt 0 view .LVU220
 783 0220 244F     		ldr	r7, .L15+16
 784              	.LBE334:
 785              	.LBE333:
  91:../../DaisySP//Source/Effects/pitchshifter.h ****                          * (del_size_ * 0.5f);
 786              		.loc 9 91 51 view .LVU221
 787 0222 2548     		ldr	r0, .L15+20
 788              	.LBB347:
 789              	.LBB343:
  34:../../DaisySP//Source/Effects/pitchshifter.h ****     return seed;
 790              		.loc 9 34 37 view .LVU222
 791 0224 3A68     		ldr	r2, [r7]
 792              	.LVL30:
 793              	.LBB335:
 794              	.LBI335:
  23:../../DaisySP//Source/Effects/pitchshifter.h **** {
 795              		.loc 9 23 24 is_stmt 1 view .LVU223
 796              	.LBB336:
  25:../../DaisySP//Source/Effects/pitchshifter.h ****     x ^= x >> 17;
 797              		.loc 9 25 5 view .LVU224
 798              	.LBE336:
 799              	.LBE335:
ARM GAS  C:\Users\daniel\AppData\Local\Temp\ccHs5oNB.s 			page 29


 800              	.LBE343:
 801              	.LBE347:
  91:../../DaisySP//Source/Effects/pitchshifter.h ****                          * (del_size_ * 0.5f);
 802              		.loc 9 91 58 is_stmt 0 view .LVU225
 803 0226 DFED256A 		vldr.32	s13, .L15+24
 804              	.LBB348:
 805              	.LBB344:
 806              	.LBB340:
 807              	.LBB337:
  25:../../DaisySP//Source/Effects/pitchshifter.h ****     x ^= x >> 17;
 808              		.loc 9 25 7 view .LVU226
 809 022a 82EA4232 		eor	r2, r2, r2, lsl #13
 810              	.LVL31:
  26:../../DaisySP//Source/Effects/pitchshifter.h ****     x ^= x << 5;
 811              		.loc 9 26 5 is_stmt 1 view .LVU227
 812              	.LBE337:
 813              	.LBE340:
 814              	.LBE344:
 815              	.LBE348:
  92:../../DaisySP//Source/Effects/pitchshifter.h ****             mod_coeff_[0]
 816              		.loc 9 92 29 is_stmt 0 view .LVU228
 817 022e 236A     		ldr	r3, [r4, #32]
  91:../../DaisySP//Source/Effects/pitchshifter.h ****                          * (del_size_ * 0.5f);
 818              		.loc 9 91 31 view .LVU229
 819 0230 94ED194A 		vldr.32	s8, [r4, #100]
 820              	.LBB349:
 821              	.LBB345:
 822              	.LBB341:
 823              	.LBB338:
  26:../../DaisySP//Source/Effects/pitchshifter.h ****     x ^= x << 5;
 824              		.loc 9 26 7 view .LVU230
 825 0234 82EA5242 		eor	r2, r2, r2, lsr #17
 826              	.LVL32:
  27:../../DaisySP//Source/Effects/pitchshifter.h ****     return x;
 827              		.loc 9 27 5 is_stmt 1 view .LVU231
 828              	.LBE338:
 829              	.LBE341:
 830              	.LBE345:
 831              	.LBE349:
  94:../../DaisySP//Source/Effects/pitchshifter.h ****         }
 832              		.loc 9 94 27 is_stmt 0 view .LVU232
 833 0238 9FED226A 		vldr.32	s12, .L15+32
 834 023c DFED205A 		vldr.32	s11, .L15+28
  92:../../DaisySP//Source/Effects/pitchshifter.h ****             mod_coeff_[0]
 835              		.loc 9 92 39 view .LVU233
 836 0240 04EE903A 		vmov	s9, r3	@ int
 837              	.LBB350:
 838              	.LBB346:
 839              	.LBB342:
 840              	.LBB339:
  27:../../DaisySP//Source/Effects/pitchshifter.h ****     return x;
 841              		.loc 9 27 7 view .LVU234
 842 0244 82EA4212 		eor	r2, r2, r2, lsl #5
 843              	.LVL33:
  28:../../DaisySP//Source/Effects/pitchshifter.h **** }
 844              		.loc 9 28 5 is_stmt 1 view .LVU235
  28:../../DaisySP//Source/Effects/pitchshifter.h **** }
ARM GAS  C:\Users\daniel\AppData\Local\Temp\ccHs5oNB.s 			page 30


 845              		.loc 9 28 5 is_stmt 0 view .LVU236
 846              	.LBE339:
 847              	.LBE342:
  35:../../DaisySP//Source/Effects/pitchshifter.h **** }
 848              		.loc 9 35 5 is_stmt 1 view .LVU237
 849              	.LBE346:
 850              	.LBE350:
  92:../../DaisySP//Source/Effects/pitchshifter.h ****             mod_coeff_[0]
 851              		.loc 9 92 39 is_stmt 0 view .LVU238
 852 0248 FBEEEF4A 		vcvt.f32.u32	s9, s9, #1
 853              	.LBB351:
 854              	.LBB352:
 855              	.LBB353:
 856              	.LBB354:
  25:../../DaisySP//Source/Effects/pitchshifter.h ****     x ^= x >> 17;
 857              		.loc 9 25 7 view .LVU239
 858 024c 82EA4231 		eor	r1, r2, r2, lsl #13
  26:../../DaisySP//Source/Effects/pitchshifter.h ****     x ^= x << 5;
 859              		.loc 9 26 7 view .LVU240
 860 0250 81EA5141 		eor	r1, r1, r1, lsr #17
  27:../../DaisySP//Source/Effects/pitchshifter.h ****     return x;
 861              		.loc 9 27 7 view .LVU241
 862 0254 81EA4111 		eor	r1, r1, r1, lsl #5
 863              	.LBE354:
 864              	.LBE353:
  34:../../DaisySP//Source/Effects/pitchshifter.h ****     return seed;
 865              		.loc 9 34 26 view .LVU242
 866 0258 3960     		str	r1, [r7]
 867              	.LBE352:
 868              	.LBE351:
  91:../../DaisySP//Source/Effects/pitchshifter.h ****                          * (del_size_ * 0.5f);
 869              		.loc 9 91 51 view .LVU243
 870 025a A0FB027C 		umull	r7, ip, r0, r2
  94:../../DaisySP//Source/Effects/pitchshifter.h ****         }
 871              		.loc 9 94 48 view .LVU244
 872 025e A0FB0170 		umull	r7, r0, r0, r1
  91:../../DaisySP//Source/Effects/pitchshifter.h ****                          * (del_size_ * 0.5f);
 873              		.loc 9 91 51 view .LVU245
 874 0262 4FEADC1C 		lsr	ip, ip, #7
  94:../../DaisySP//Source/Effects/pitchshifter.h ****         }
 875              		.loc 9 94 48 view .LVU246
 876 0266 C009     		lsrs	r0, r0, #7
  91:../../DaisySP//Source/Effects/pitchshifter.h ****                          * (del_size_ * 0.5f);
 877              		.loc 9 91 51 view .LVU247
 878 0268 CCEB0C2C 		rsb	ip, ip, ip, lsl #8
  94:../../DaisySP//Source/Effects/pitchshifter.h ****         }
 879              		.loc 9 94 48 view .LVU248
 880 026c C0EB0020 		rsb	r0, r0, r0, lsl #8
  91:../../DaisySP//Source/Effects/pitchshifter.h ****                          * (del_size_ * 0.5f);
 881              		.loc 9 91 51 view .LVU249
 882 0270 A2EB0C02 		sub	r2, r2, ip
  94:../../DaisySP//Source/Effects/pitchshifter.h ****         }
 883              		.loc 9 94 48 view .LVU250
 884 0274 081A     		subs	r0, r1, r0
  91:../../DaisySP//Source/Effects/pitchshifter.h ****                          * (del_size_ * 0.5f);
 885              		.loc 9 91 34 view .LVU251
 886 0276 07EE902A 		vmov	s15, r2	@ int
ARM GAS  C:\Users\daniel\AppData\Local\Temp\ccHs5oNB.s 			page 31


 887 027a F8EEE77A 		vcvt.f32.s32	s15, s15
  91:../../DaisySP//Source/Effects/pitchshifter.h ****                          * (del_size_ * 0.5f);
 888              		.loc 9 91 58 view .LVU252
 889 027e 87EEA67A 		vdiv.f32	s14, s15, s13
  94:../../DaisySP//Source/Effects/pitchshifter.h ****         }
 890              		.loc 9 94 31 view .LVU253
 891 0282 07EE900A 		vmov	s15, r0	@ int
 892 0286 F8EEE77A 		vcvt.f32.s32	s15, s15
  94:../../DaisySP//Source/Effects/pitchshifter.h ****         }
 893              		.loc 9 94 55 view .LVU254
 894 028a 87EEA65A 		vdiv.f32	s10, s15, s13
  91:../../DaisySP//Source/Effects/pitchshifter.h ****                          * (del_size_ * 0.5f);
 895              		.loc 9 91 31 view .LVU255
 896 028e 27EE047A 		vmul.f32	s14, s14, s8
  92:../../DaisySP//Source/Effects/pitchshifter.h ****             mod_coeff_[0]
 897              		.loc 9 92 26 view .LVU256
 898 0292 27EE247A 		vmul.f32	s14, s14, s9
  91:../../DaisySP//Source/Effects/pitchshifter.h ****                          * (del_size_ * 0.5f);
 899              		.loc 9 91 24 view .LVU257
 900 0296 84ED1A7A 		vstr.32	s14, [r4, #104]
  93:../../DaisySP//Source/Effects/pitchshifter.h ****                 = 0.0002f + (((float)(myrand() % 255) / 255.0f) * 0.001f);
 901              		.loc 9 93 13 is_stmt 1 view .LVU258
 902              	.LBB358:
 903              	.LBI351:
  31:../../DaisySP//Source/Effects/pitchshifter.h **** {
 904              		.loc 9 31 17 view .LVU259
 905              	.LBB357:
  33:../../DaisySP//Source/Effects/pitchshifter.h ****     seed                 = hash_xs32(seed);
 906              		.loc 9 33 5 view .LVU260
  34:../../DaisySP//Source/Effects/pitchshifter.h ****     return seed;
 907              		.loc 9 34 5 view .LVU261
 908              	.LVL34:
 909              	.LBB356:
 910              	.LBI353:
  23:../../DaisySP//Source/Effects/pitchshifter.h **** {
 911              		.loc 9 23 24 view .LVU262
 912              	.LBB355:
  25:../../DaisySP//Source/Effects/pitchshifter.h ****     x ^= x >> 17;
 913              		.loc 9 25 5 view .LVU263
  26:../../DaisySP//Source/Effects/pitchshifter.h ****     x ^= x << 5;
 914              		.loc 9 26 5 view .LVU264
  27:../../DaisySP//Source/Effects/pitchshifter.h ****     return x;
 915              		.loc 9 27 5 view .LVU265
  28:../../DaisySP//Source/Effects/pitchshifter.h **** }
 916              		.loc 9 28 5 view .LVU266
  28:../../DaisySP//Source/Effects/pitchshifter.h **** }
 917              		.loc 9 28 5 is_stmt 0 view .LVU267
 918              	.LBE355:
 919              	.LBE356:
  35:../../DaisySP//Source/Effects/pitchshifter.h **** }
 920              		.loc 9 35 5 is_stmt 1 view .LVU268
 921              	.LBE357:
 922              	.LBE358:
  94:../../DaisySP//Source/Effects/pitchshifter.h ****         }
 923              		.loc 9 94 27 is_stmt 0 view .LVU269
 924 029a E5EE065A 		vfma.f32	s11, s10, s12
  94:../../DaisySP//Source/Effects/pitchshifter.h ****         }
ARM GAS  C:\Users\daniel\AppData\Local\Temp\ccHs5oNB.s 			page 32


 925              		.loc 9 94 17 view .LVU270
 926 029e C4ED205A 		vstr.32	s11, [r4, #128]
 927 02a2 CDE6     		b	.L7
 928              	.L16:
 929              		.align	2
 930              	.L15:
 931 02a4 30000200 		.word	131120
 932 02a8 40000200 		.word	131136
 933 02ac DB0F4940 		.word	1078530011
 934 02b0 00000000 		.word	0
 935 02b4 00000000 		.word	_ZZN7daisysp6myrandEvE4seed
 936 02b8 81808080 		.word	-2139062143
 937 02bc 00007F43 		.word	1132396544
 938 02c0 17B75139 		.word	961656599
 939 02c4 6F12833A 		.word	981668463
 940              		.cfi_endproc
 941              	.LFE4450:
 943              		.section	.text._Z13AudioCallbackPKPKfPPfj,"ax",%progbits
 944              		.align	1
 945              		.p2align 2,,3
 946              		.global	_Z13AudioCallbackPKPKfPPfj
 947              		.syntax unified
 948              		.thumb
 949              		.thumb_func
 950              		.fpu fpv5-d16
 952              	_Z13AudioCallbackPKPKfPPfj:
 953              	.LVL35:
 954              	.LFB4783:
 955              		.file 11 "pitcher.cpp"
   1:pitcher.cpp   **** #include "daisy_patch_sm.h"
   2:pitcher.cpp   **** #include "daisysp.h"
   3:pitcher.cpp   **** 
   4:pitcher.cpp   **** using namespace daisy;
   5:pitcher.cpp   **** using namespace patch_sm;
   6:pitcher.cpp   **** using namespace daisysp;
   7:pitcher.cpp   **** 
   8:pitcher.cpp   **** DaisyPatchSM hw;
   9:pitcher.cpp   **** PitchShifter ps;
  10:pitcher.cpp   **** Oscillator   osc;
  11:pitcher.cpp   **** 
  12:pitcher.cpp   **** #define LEFT (i)
  13:pitcher.cpp   **** #define RIGHT (i + 1)
  14:pitcher.cpp   **** 
  15:pitcher.cpp   **** void AudioCallback(AudioHandle::InputBuffer in, AudioHandle::OutputBuffer out, size_t size)
  16:pitcher.cpp   **** {
 956              		.loc 11 16 1 is_stmt 1 view -0
 957              		.cfi_startproc
 958              		@ args = 0, pretend = 0, frame = 16
 959              		@ frame_needed = 0, uses_anonymous_args = 0
  17:pitcher.cpp   ****     hw.ProcessAllControls();
 960              		.loc 11 17 5 view .LVU272
 961              	.LBB370:
 962              	.LBI370:
  66:../../libDaisy//src/daisy_patch_sm.h **** 
  67:../../libDaisy//src/daisy_patch_sm.h ****         /** Initializes the memories, and core peripherals for the Daisy Patch SM */
  68:../../libDaisy//src/daisy_patch_sm.h ****         void Init();
  69:../../libDaisy//src/daisy_patch_sm.h **** 
ARM GAS  C:\Users\daniel\AppData\Local\Temp\ccHs5oNB.s 			page 33


  70:../../libDaisy//src/daisy_patch_sm.h ****         /** Starts a non-interleaving audio callback */
  71:../../libDaisy//src/daisy_patch_sm.h ****         void StartAudio(AudioHandle::AudioCallback cb);
  72:../../libDaisy//src/daisy_patch_sm.h **** 
  73:../../libDaisy//src/daisy_patch_sm.h ****         /** Starts an interleaving audio callback */
  74:../../libDaisy//src/daisy_patch_sm.h ****         void StartAudio(AudioHandle::InterleavingAudioCallback cb);
  75:../../libDaisy//src/daisy_patch_sm.h **** 
  76:../../libDaisy//src/daisy_patch_sm.h ****         /** Changes the callback that is executing.
  77:../../libDaisy//src/daisy_patch_sm.h ****          *  This may cause clicks if done while audio is processing.
  78:../../libDaisy//src/daisy_patch_sm.h ****          */
  79:../../libDaisy//src/daisy_patch_sm.h ****         void ChangeAudioCallback(AudioHandle::AudioCallback cb);
  80:../../libDaisy//src/daisy_patch_sm.h **** 
  81:../../libDaisy//src/daisy_patch_sm.h ****         /** Changes the callback that is executing.
  82:../../libDaisy//src/daisy_patch_sm.h ****          *  This may cause clicks if done while audio is processing.
  83:../../libDaisy//src/daisy_patch_sm.h ****          */
  84:../../libDaisy//src/daisy_patch_sm.h ****         void ChangeAudioCallback(AudioHandle::InterleavingAudioCallback cb);
  85:../../libDaisy//src/daisy_patch_sm.h **** 
  86:../../libDaisy//src/daisy_patch_sm.h ****         /** Stops the transmission of audio. */
  87:../../libDaisy//src/daisy_patch_sm.h ****         void StopAudio();
  88:../../libDaisy//src/daisy_patch_sm.h **** 
  89:../../libDaisy//src/daisy_patch_sm.h ****         /** Sets the number of samples processed in an audio callback. 
  90:../../libDaisy//src/daisy_patch_sm.h ****          *  This will only take effect on the next invocation of `StartAudio`
  91:../../libDaisy//src/daisy_patch_sm.h ****          */
  92:../../libDaisy//src/daisy_patch_sm.h ****         void SetAudioBlockSize(size_t size);
  93:../../libDaisy//src/daisy_patch_sm.h **** 
  94:../../libDaisy//src/daisy_patch_sm.h ****         /** Sets the samplerate for the audio engine 
  95:../../libDaisy//src/daisy_patch_sm.h ****          *  This will set it to the closest valid samplerate. Options being:
  96:../../libDaisy//src/daisy_patch_sm.h ****          *  8kHz, 16kHz, 32kHz, 48kHz, and 96kHz
  97:../../libDaisy//src/daisy_patch_sm.h ****          */
  98:../../libDaisy//src/daisy_patch_sm.h ****         void SetAudioSampleRate(float sr);
  99:../../libDaisy//src/daisy_patch_sm.h **** 
 100:../../libDaisy//src/daisy_patch_sm.h ****         void SetAudioSampleRate(SaiHandle::Config::SampleRate sample_rate);
 101:../../libDaisy//src/daisy_patch_sm.h **** 
 102:../../libDaisy//src/daisy_patch_sm.h ****         /** Returns the number of samples processed in an audio callback */
 103:../../libDaisy//src/daisy_patch_sm.h ****         size_t AudioBlockSize();
 104:../../libDaisy//src/daisy_patch_sm.h **** 
 105:../../libDaisy//src/daisy_patch_sm.h ****         /** Returns the audio engine's samplerate in Hz */
 106:../../libDaisy//src/daisy_patch_sm.h ****         float AudioSampleRate();
 107:../../libDaisy//src/daisy_patch_sm.h **** 
 108:../../libDaisy//src/daisy_patch_sm.h ****         /** Returns the rate at which the audio callback will be called in Hz */
 109:../../libDaisy//src/daisy_patch_sm.h ****         float AudioCallbackRate();
 110:../../libDaisy//src/daisy_patch_sm.h **** 
 111:../../libDaisy//src/daisy_patch_sm.h ****         /** Starts the Control ADCs 
 112:../../libDaisy//src/daisy_patch_sm.h ****          * 
 113:../../libDaisy//src/daisy_patch_sm.h ****          *  This is started automatically when Init() is called.
 114:../../libDaisy//src/daisy_patch_sm.h ****          */
 115:../../libDaisy//src/daisy_patch_sm.h ****         void StartAdc();
 116:../../libDaisy//src/daisy_patch_sm.h **** 
 117:../../libDaisy//src/daisy_patch_sm.h ****         /** Stops the Control ADCs */
 118:../../libDaisy//src/daisy_patch_sm.h ****         void StopAdc();
 119:../../libDaisy//src/daisy_patch_sm.h **** 
 120:../../libDaisy//src/daisy_patch_sm.h ****         /** Reads and filters all of the analog control inputs */
 121:../../libDaisy//src/daisy_patch_sm.h ****         void ProcessAnalogControls();
 122:../../libDaisy//src/daisy_patch_sm.h **** 
 123:../../libDaisy//src/daisy_patch_sm.h ****         /** Reads and debounces any of the digital control inputs 
 124:../../libDaisy//src/daisy_patch_sm.h ****          *  This does nothing on this board at this time.
 125:../../libDaisy//src/daisy_patch_sm.h ****          */
 126:../../libDaisy//src/daisy_patch_sm.h ****         void ProcessDigitalControls();
ARM GAS  C:\Users\daniel\AppData\Local\Temp\ccHs5oNB.s 			page 34


 127:../../libDaisy//src/daisy_patch_sm.h **** 
 128:../../libDaisy//src/daisy_patch_sm.h ****         /** Does both of the above */
 129:../../libDaisy//src/daisy_patch_sm.h ****         void ProcessAllControls()
 963              		.loc 1 129 14 view .LVU273
 964              	.LBB371:
 130:../../libDaisy//src/daisy_patch_sm.h ****         {
 131:../../libDaisy//src/daisy_patch_sm.h ****             ProcessAnalogControls();
 965              		.loc 1 131 13 view .LVU274
 966              	.LBE371:
 967              	.LBE370:
  16:pitcher.cpp   ****     hw.ProcessAllControls();
 968              		.loc 11 16 1 is_stmt 0 view .LVU275
 969 0000 F0B5     		push	{r4, r5, r6, r7, lr}
 970              		.cfi_def_cfa_offset 20
 971              		.cfi_offset 4, -20
 972              		.cfi_offset 5, -16
 973              		.cfi_offset 6, -12
 974              		.cfi_offset 7, -8
 975              		.cfi_offset 14, -4
 976              	.LBB374:
 977              	.LBB372:
 978              		.loc 1 131 34 view .LVU276
 979 0002 4E48     		ldr	r0, .L31
 980              	.LVL36:
 981              		.loc 1 131 34 view .LVU277
 982              	.LBE372:
 983              	.LBE374:
  16:pitcher.cpp   ****     hw.ProcessAllControls();
 984              		.loc 11 16 1 view .LVU278
 985 0004 85B0     		sub	sp, sp, #20
 986              		.cfi_def_cfa_offset 40
  16:pitcher.cpp   ****     hw.ProcessAllControls();
 987              		.loc 11 16 1 view .LVU279
 988 0006 1746     		mov	r7, r2
 989 0008 0E46     		mov	r6, r1
 990              	.LBB375:
 991              	.LBB373:
 992              		.loc 1 131 34 view .LVU280
 993 000a FFF7FEFF 		bl	_ZN5daisy8patch_sm12DaisyPatchSM21ProcessAnalogControlsEv
 994              	.LVL37:
 132:../../libDaisy//src/daisy_patch_sm.h ****             ProcessDigitalControls();
 995              		.loc 1 132 13 is_stmt 1 view .LVU281
 996              		.loc 1 132 35 is_stmt 0 view .LVU282
 997 000e 4B48     		ldr	r0, .L31
 998 0010 FFF7FEFF 		bl	_ZN5daisy8patch_sm12DaisyPatchSM22ProcessDigitalControlsEv
 999              	.LVL38:
 1000              		.loc 1 132 35 view .LVU283
 1001              	.LBE373:
 1002              	.LBE375:
  18:pitcher.cpp   **** 
  19:pitcher.cpp   ****     float shifted, unshifted;
 1003              		.loc 11 19 5 is_stmt 1 view .LVU284
  20:pitcher.cpp   **** 	
  21:pitcher.cpp   ****     for(size_t i = 0; i < size; i += 2)
 1004              		.loc 11 21 5 view .LVU285
 1005              	.LBB376:
 1006              		.loc 11 21 25 view .LVU286
ARM GAS  C:\Users\daniel\AppData\Local\Temp\ccHs5oNB.s 			page 35


 1007 0014 002F     		cmp	r7, #0
 1008 0016 00F08E80 		beq	.L17
 1009              		.loc 11 21 16 is_stmt 0 view .LVU287
 1010 001a 0025     		movs	r5, #0
 1011 001c 484C     		ldr	r4, .L31+4
 1012 001e 25E0     		b	.L18
 1013              	.LVL39:
 1014              	.L30:
 1015              	.LBB377:
 1016              	.LBB378:
 1017              	.LBB379:
 136:../../DaisySP//Source/Effects/pitchshifter.h **** 
 137:../../DaisySP//Source/Effects/pitchshifter.h ****     /** sets transposition in semitones
 138:../../DaisySP//Source/Effects/pitchshifter.h ****     */
 139:../../DaisySP//Source/Effects/pitchshifter.h ****     void SetTransposition(const float &transpose)
 140:../../DaisySP//Source/Effects/pitchshifter.h ****     {
 141:../../DaisySP//Source/Effects/pitchshifter.h ****         float   ratio;
 142:../../DaisySP//Source/Effects/pitchshifter.h ****         uint8_t idx;
 143:../../DaisySP//Source/Effects/pitchshifter.h ****         if(transpose_ != transpose || force_recalc_)
 144:../../DaisySP//Source/Effects/pitchshifter.h ****         {
 145:../../DaisySP//Source/Effects/pitchshifter.h ****             transpose_ = transpose;
 146:../../DaisySP//Source/Effects/pitchshifter.h ****             idx        = (uint8_t)fabsf(transpose);
 147:../../DaisySP//Source/Effects/pitchshifter.h ****             ratio      = semitone_ratios_[idx % 12];
 148:../../DaisySP//Source/Effects/pitchshifter.h ****             ratio *= (uint8_t)(fabsf(transpose) / 12) + 1;
 149:../../DaisySP//Source/Effects/pitchshifter.h ****             if(transpose > 0.0f)
 150:../../DaisySP//Source/Effects/pitchshifter.h ****             {
 151:../../DaisySP//Source/Effects/pitchshifter.h ****                 shift_up_ = true;
 152:../../DaisySP//Source/Effects/pitchshifter.h ****             }
 153:../../DaisySP//Source/Effects/pitchshifter.h ****             else
 154:../../DaisySP//Source/Effects/pitchshifter.h ****             {
 155:../../DaisySP//Source/Effects/pitchshifter.h ****                 shift_up_ = false;
 156:../../DaisySP//Source/Effects/pitchshifter.h ****             }
 157:../../DaisySP//Source/Effects/pitchshifter.h ****             mod_freq_ = ((ratio - 1.0f) * sr_) / del_size_;
 1018              		.loc 9 157 23 view .LVU288
 1019 0020 84ED070A 		vstr.32	s0, [r4, #28]
 1020              	.L22:
 158:../../DaisySP//Source/Effects/pitchshifter.h ****             if(mod_freq_ < 0.0f)
 159:../../DaisySP//Source/Effects/pitchshifter.h ****             {
 160:../../DaisySP//Source/Effects/pitchshifter.h ****                 mod_freq_ = 0.0f;
 161:../../DaisySP//Source/Effects/pitchshifter.h ****             }
 162:../../DaisySP//Source/Effects/pitchshifter.h ****             phs_[0].SetFreq(mod_freq_);
 1021              		.loc 9 162 13 is_stmt 1 view .LVU289
 1022              		.loc 9 162 28 is_stmt 0 view .LVU290
 1023 0024 4748     		ldr	r0, .L31+8
 1024 0026 FFF7FEFF 		bl	_ZN7daisysp6Phasor7SetFreqEf
 1025              	.LVL40:
 163:../../DaisySP//Source/Effects/pitchshifter.h ****             phs_[1].SetFreq(mod_freq_);
 1026              		.loc 9 163 13 is_stmt 1 view .LVU291
 1027              		.loc 9 163 28 is_stmt 0 view .LVU292
 1028 002a 94ED070A 		vldr.32	s0, [r4, #28]
 1029 002e 4648     		ldr	r0, .L31+12
 1030 0030 FFF7FEFF 		bl	_ZN7daisysp6Phasor7SetFreqEf
 1031              	.LVL41:
 164:../../DaisySP//Source/Effects/pitchshifter.h ****             if(force_recalc_)
 1032              		.loc 9 164 13 is_stmt 1 view .LVU293
 165:../../DaisySP//Source/Effects/pitchshifter.h ****             {
 166:../../DaisySP//Source/Effects/pitchshifter.h ****                 force_recalc_ = false;
ARM GAS  C:\Users\daniel\AppData\Local\Temp\ccHs5oNB.s 			page 36


 1033              		.loc 9 166 17 view .LVU294
 164:../../DaisySP//Source/Effects/pitchshifter.h ****             if(force_recalc_)
 1034              		.loc 9 164 13 is_stmt 0 view .LVU295
 1035 0034 94F82430 		ldrb	r3, [r4, #36]	@ zero_extendqisi2
 1036              		.loc 9 166 31 view .LVU296
 1037 0038 0022     		movs	r2, #0
 164:../../DaisySP//Source/Effects/pitchshifter.h ****             if(force_recalc_)
 1038              		.loc 9 164 13 view .LVU297
 1039 003a 0BB1     		cbz	r3, .L20
 1040              		.loc 9 166 31 view .LVU298
 1041 003c 84F82420 		strb	r2, [r4, #36]
 1042              	.L20:
 1043              	.LVL42:
 1044              		.loc 9 166 31 view .LVU299
 1045              	.LBE379:
 1046              	.LBE378:
  22:pitcher.cpp   ****     {
  23:pitcher.cpp   ****         float readK   = hw.GetAdcValue(CV_1);
  24:pitcher.cpp   ****         float transpo = fclamp(readK,0,12);
  25:pitcher.cpp   ****         
  26:pitcher.cpp   ****         // set transposition 1 octave up (12 semitones)
  27:pitcher.cpp   ****         ps.SetTransposition(transpo);
  28:pitcher.cpp   ****         unshifted  = osc.Process();
 1047              		.loc 11 28 9 is_stmt 1 view .LVU300
 1048              		.loc 11 28 33 is_stmt 0 view .LVU301
 1049 0040 4248     		ldr	r0, .L31+16
 1050 0042 FFF7FEFF 		bl	_ZN7daisysp10Oscillator7ProcessEv
 1051              	.LVL43:
  29:pitcher.cpp   ****         shifted    = ps.Process(unshifted);
 1052              		.loc 11 29 32 view .LVU302
 1053 0046 03A9     		add	r1, sp, #12
 1054 0048 4148     		ldr	r0, .L31+20
  28:pitcher.cpp   ****         shifted    = ps.Process(unshifted);
 1055              		.loc 11 28 20 view .LVU303
 1056 004a 8DED030A 		vstr.32	s0, [sp, #12]
 1057              		.loc 11 29 9 is_stmt 1 view .LVU304
 1058              		.loc 11 29 32 is_stmt 0 view .LVU305
 1059 004e FFF7FEFF 		bl	_ZN7daisysp12PitchShifter7ProcessERf
 1060              	.LVL44:
  30:pitcher.cpp   ****         OUT_L[i]  = shifted;
 1061              		.loc 11 30 9 is_stmt 1 view .LVU306
  31:pitcher.cpp   ****         OUT_R[i] = unshifted;
 1062              		.loc 11 31 18 is_stmt 0 view .LVU307
 1063 0052 D6E90023 		ldrd	r2, r3, [r6]
  30:pitcher.cpp   ****         OUT_L[i]  = shifted;
 1064              		.loc 11 30 19 view .LVU308
 1065 0056 02EB8502 		add	r2, r2, r5, lsl #2
 1066              		.loc 11 31 18 view .LVU309
 1067 005a 03EB8503 		add	r3, r3, r5, lsl #2
 1068              	.LBE377:
  21:pitcher.cpp   ****     {
 1069              		.loc 11 21 35 view .LVU310
 1070 005e 0235     		adds	r5, r5, #2
 1071              	.LVL45:
 1072              	.LBB395:
  30:pitcher.cpp   ****         OUT_L[i]  = shifted;
 1073              		.loc 11 30 19 view .LVU311
ARM GAS  C:\Users\daniel\AppData\Local\Temp\ccHs5oNB.s 			page 37


 1074 0060 82ED000A 		vstr.32	s0, [r2]
 1075              		.loc 11 31 9 is_stmt 1 view .LVU312
 1076              		.loc 11 31 18 is_stmt 0 view .LVU313
 1077 0064 039A     		ldr	r2, [sp, #12]	@ float
 1078              	.LBE395:
  21:pitcher.cpp   ****     {
 1079              		.loc 11 21 25 view .LVU314
 1080 0066 AF42     		cmp	r7, r5
 1081              	.LBB396:
 1082              		.loc 11 31 18 view .LVU315
 1083 0068 1A60     		str	r2, [r3]	@ float
 1084              		.loc 11 31 18 view .LVU316
 1085              	.LBE396:
  21:pitcher.cpp   ****     {
 1086              		.loc 11 21 5 is_stmt 1 view .LVU317
 1087              	.LVL46:
  21:pitcher.cpp   ****     {
 1088              		.loc 11 21 25 view .LVU318
 1089 006a 64D9     		bls	.L17
 1090              	.LVL47:
 1091              	.L18:
 1092              	.LBB397:
  23:pitcher.cpp   ****         float transpo = fclamp(readK,0,12);
 1093              		.loc 11 23 9 discriminator 2 view .LVU319
  23:pitcher.cpp   ****         float transpo = fclamp(readK,0,12);
 1094              		.loc 11 23 39 is_stmt 0 discriminator 2 view .LVU320
 1095 006c 0021     		movs	r1, #0
 1096 006e 3348     		ldr	r0, .L31
 1097 0070 FFF7FEFF 		bl	_ZN5daisy8patch_sm12DaisyPatchSM11GetAdcValueEi
 1098              	.LVL48:
 1099              	.LBB383:
 1100              	.LBB380:
 145:../../DaisySP//Source/Effects/pitchshifter.h ****             idx        = (uint8_t)fabsf(transpose);
 1101              		.loc 9 145 13 is_stmt 1 discriminator 2 view .LVU321
 145:../../DaisySP//Source/Effects/pitchshifter.h ****             idx        = (uint8_t)fabsf(transpose);
 1102              		.loc 9 145 13 is_stmt 0 discriminator 2 view .LVU322
 1103              	.LBE380:
 1104              	.LBE383:
  24:pitcher.cpp   ****         
 1105              		.loc 11 24 9 is_stmt 1 discriminator 2 view .LVU323
 1106              	.LBB384:
 1107              	.LBI384:
 1108              		.file 12 "../../DaisySP//Source/Utility/dsp.h"
   1:../../DaisySP//Source/Utility/dsp.h **** /** Helpful defines, functions, and other utilities for use in/with daisysp modules.
   2:../../DaisySP//Source/Utility/dsp.h **** */
   3:../../DaisySP//Source/Utility/dsp.h **** #pragma once
   4:../../DaisySP//Source/Utility/dsp.h **** #ifndef DSY_CORE_DSP
   5:../../DaisySP//Source/Utility/dsp.h **** #define DSY_CORE_DSP
   6:../../DaisySP//Source/Utility/dsp.h **** #include <cassert>
   7:../../DaisySP//Source/Utility/dsp.h **** #include <cstdint>
   8:../../DaisySP//Source/Utility/dsp.h **** #include <random>
   9:../../DaisySP//Source/Utility/dsp.h **** #include <cmath>
  10:../../DaisySP//Source/Utility/dsp.h **** 
  11:../../DaisySP//Source/Utility/dsp.h **** /** PIs
  12:../../DaisySP//Source/Utility/dsp.h **** */
  13:../../DaisySP//Source/Utility/dsp.h **** #define PI_F 3.1415927410125732421875f
  14:../../DaisySP//Source/Utility/dsp.h **** #define TWOPI_F (2.0f * PI_F)
ARM GAS  C:\Users\daniel\AppData\Local\Temp\ccHs5oNB.s 			page 38


  15:../../DaisySP//Source/Utility/dsp.h **** #define HALFPI_F (PI_F * 0.5f)
  16:../../DaisySP//Source/Utility/dsp.h **** #define DSY_MIN(in, mn) (in < mn ? in : mn)
  17:../../DaisySP//Source/Utility/dsp.h **** #define DSY_MAX(in, mx) (in > mx ? in : mx)
  18:../../DaisySP//Source/Utility/dsp.h **** #define DSY_CLAMP(in, mn, mx) (DSY_MIN(DSY_MAX(in, mn), mx))
  19:../../DaisySP//Source/Utility/dsp.h **** #define DSY_COUNTOF(_arr) (sizeof(_arr) / sizeof(_arr[0]))
  20:../../DaisySP//Source/Utility/dsp.h **** 
  21:../../DaisySP//Source/Utility/dsp.h **** namespace daisysp
  22:../../DaisySP//Source/Utility/dsp.h **** {
  23:../../DaisySP//Source/Utility/dsp.h **** //Avoids division for random floats. e.g. rand() * kRandFrac
  24:../../DaisySP//Source/Utility/dsp.h **** static constexpr float kRandFrac = 1.f / (float)RAND_MAX;
  25:../../DaisySP//Source/Utility/dsp.h **** 
  26:../../DaisySP//Source/Utility/dsp.h **** //Convert from semitones to other units. e.g. 2 ^ (kOneTwelfth * x)
  27:../../DaisySP//Source/Utility/dsp.h **** static constexpr float kOneTwelfth = 1.f / 12.f;
  28:../../DaisySP//Source/Utility/dsp.h **** 
  29:../../DaisySP//Source/Utility/dsp.h **** /** efficient floating point min/max
  30:../../DaisySP//Source/Utility/dsp.h **** c/o stephen mccaul
  31:../../DaisySP//Source/Utility/dsp.h **** */
  32:../../DaisySP//Source/Utility/dsp.h **** inline float fmax(float a, float b)
  33:../../DaisySP//Source/Utility/dsp.h **** {
  34:../../DaisySP//Source/Utility/dsp.h ****     float r;
  35:../../DaisySP//Source/Utility/dsp.h **** #ifdef __arm__
  36:../../DaisySP//Source/Utility/dsp.h ****     asm("vmaxnm.f32 %[d], %[n], %[m]" : [d] "=t"(r) : [n] "t"(a), [m] "t"(b) :);
  37:../../DaisySP//Source/Utility/dsp.h **** #else
  38:../../DaisySP//Source/Utility/dsp.h ****     r = (a > b) ? a : b;
  39:../../DaisySP//Source/Utility/dsp.h **** #endif // __arm__
  40:../../DaisySP//Source/Utility/dsp.h ****     return r;
  41:../../DaisySP//Source/Utility/dsp.h **** }
  42:../../DaisySP//Source/Utility/dsp.h **** 
  43:../../DaisySP//Source/Utility/dsp.h **** inline float fmin(float a, float b)
  44:../../DaisySP//Source/Utility/dsp.h **** {
  45:../../DaisySP//Source/Utility/dsp.h ****     float r;
  46:../../DaisySP//Source/Utility/dsp.h **** #ifdef __arm__
  47:../../DaisySP//Source/Utility/dsp.h ****     asm("vminnm.f32 %[d], %[n], %[m]" : [d] "=t"(r) : [n] "t"(a), [m] "t"(b) :);
  48:../../DaisySP//Source/Utility/dsp.h **** #else
  49:../../DaisySP//Source/Utility/dsp.h ****     r = (a < b) ? a : b;
  50:../../DaisySP//Source/Utility/dsp.h **** #endif // __arm__
  51:../../DaisySP//Source/Utility/dsp.h ****     return r;
  52:../../DaisySP//Source/Utility/dsp.h **** }
  53:../../DaisySP//Source/Utility/dsp.h **** 
  54:../../DaisySP//Source/Utility/dsp.h **** /** quick fp clamp
  55:../../DaisySP//Source/Utility/dsp.h **** */
  56:../../DaisySP//Source/Utility/dsp.h **** inline float fclamp(float in, float min, float max)
 1109              		.loc 12 56 14 discriminator 2 view .LVU324
 1110              	.LBE384:
 1111              	.LBE397:
 1112              	.LBE376:
  57:../../DaisySP//Source/Utility/dsp.h **** {
  58:../../DaisySP//Source/Utility/dsp.h ****     return fmin(fmax(in, min), max);
 1113              		.loc 12 58 5 discriminator 2 view .LVU325
 1114              	.LBB399:
 1115              	.LBB398:
 1116              	.LBB391:
 1117              	.LBB385:
 1118              	.LBI385:
  32:../../DaisySP//Source/Utility/dsp.h **** {
 1119              		.loc 12 32 14 discriminator 2 view .LVU326
 1120              	.LBB386:
ARM GAS  C:\Users\daniel\AppData\Local\Temp\ccHs5oNB.s 			page 39


  34:../../DaisySP//Source/Utility/dsp.h **** #ifdef __arm__
 1121              		.loc 12 34 5 discriminator 2 view .LVU327
  36:../../DaisySP//Source/Utility/dsp.h **** #else
 1122              		.loc 12 36 5 discriminator 2 view .LVU328
 1123              	.LBE386:
 1124              	.LBE385:
 1125              	.LBE391:
 1126              	.LBB392:
 1127              	.LBB381:
 143:../../DaisySP//Source/Effects/pitchshifter.h ****         {
 1128              		.loc 9 143 9 is_stmt 0 discriminator 2 view .LVU329
 1129 0074 D4ED186A 		vldr.32	s13, [r4, #96]
 148:../../DaisySP//Source/Effects/pitchshifter.h ****             if(transpose > 0.0f)
 1130              		.loc 9 148 49 discriminator 2 view .LVU330
 1131 0078 F2EE085A 		vmov.f32	s11, #1.2e+1
 1132              	.LBE381:
 1133              	.LBE392:
 1134              	.LBB393:
 1135              	.LBB388:
 1136              	.LBB387:
  36:../../DaisySP//Source/Utility/dsp.h **** #else
 1137              		.loc 12 36 5 discriminator 2 view .LVU331
 1138 007c 9FED356A 		vldr.32	s12, .L31+24
 1139              		.syntax unified
 1140              	@ 36 "../../DaisySP//Source/Utility/dsp.h" 1
 1141 0080 80FE060A 		vmaxnm.f32 s0, s0, s12
 1142              	@ 0 "" 2
 1143              	.LVL49:
  40:../../DaisySP//Source/Utility/dsp.h **** }
 1144              		.loc 12 40 5 is_stmt 1 discriminator 2 view .LVU332
  40:../../DaisySP//Source/Utility/dsp.h **** }
 1145              		.loc 12 40 5 is_stmt 0 discriminator 2 view .LVU333
 1146              		.thumb
 1147              		.syntax unified
 1148              	.LBE387:
 1149              	.LBE388:
 1150              	.LBB389:
 1151              	.LBI389:
  43:../../DaisySP//Source/Utility/dsp.h **** {
 1152              		.loc 12 43 14 is_stmt 1 discriminator 2 view .LVU334
 1153              	.LBB390:
  45:../../DaisySP//Source/Utility/dsp.h **** #ifdef __arm__
 1154              		.loc 12 45 5 discriminator 2 view .LVU335
  47:../../DaisySP//Source/Utility/dsp.h **** #else
 1155              		.loc 12 47 5 discriminator 2 view .LVU336
 1156              		.syntax unified
 1157              	@ 47 "../../DaisySP//Source/Utility/dsp.h" 1
 1158 0084 80FE650A 		vminnm.f32 s0, s0, s11
 1159              	@ 0 "" 2
 1160              	.LVL50:
  51:../../DaisySP//Source/Utility/dsp.h **** }
 1161              		.loc 12 51 5 discriminator 2 view .LVU337
  51:../../DaisySP//Source/Utility/dsp.h **** }
 1162              		.loc 12 51 5 is_stmt 0 discriminator 2 view .LVU338
 1163              		.thumb
 1164              		.syntax unified
 1165              	.LBE390:
ARM GAS  C:\Users\daniel\AppData\Local\Temp\ccHs5oNB.s 			page 40


 1166              	.LBE389:
 1167              	.LBE393:
  27:pitcher.cpp   ****         unshifted  = osc.Process();
 1168              		.loc 11 27 9 is_stmt 1 discriminator 2 view .LVU339
 1169              	.LBB394:
 1170              	.LBI378:
 139:../../DaisySP//Source/Effects/pitchshifter.h ****     {
 1171              		.loc 9 139 10 discriminator 2 view .LVU340
 1172              	.LBB382:
 141:../../DaisySP//Source/Effects/pitchshifter.h ****         uint8_t idx;
 1173              		.loc 9 141 9 discriminator 2 view .LVU341
 142:../../DaisySP//Source/Effects/pitchshifter.h ****         if(transpose_ != transpose || force_recalc_)
 1174              		.loc 9 142 9 discriminator 2 view .LVU342
 143:../../DaisySP//Source/Effects/pitchshifter.h ****         {
 1175              		.loc 9 143 9 discriminator 2 view .LVU343
 1176 0088 B4EE660A 		vcmp.f32	s0, s13
 147:../../DaisySP//Source/Effects/pitchshifter.h ****             ratio *= (uint8_t)(fabsf(transpose) / 12) + 1;
 1177              		.loc 9 147 47 is_stmt 0 discriminator 2 view .LVU344
 1178 008c 324B     		ldr	r3, .L31+28
 157:../../DaisySP//Source/Effects/pitchshifter.h ****             if(mod_freq_ < 0.0f)
 1179              		.loc 9 157 33 discriminator 2 view .LVU345
 1180 008e BFEE007A 		vmov.f32	s14, #-1.0e+0
 147:../../DaisySP//Source/Effects/pitchshifter.h ****             ratio *= (uint8_t)(fabsf(transpose) / 12) + 1;
 1181              		.loc 9 147 24 discriminator 2 view .LVU346
 1182 0092 48F22200 		movw	r0, #32802
 146:../../DaisySP//Source/Effects/pitchshifter.h ****             ratio      = semitone_ratios_[idx % 12];
 1183              		.loc 9 146 40 discriminator 2 view .LVU347
 1184 0096 F0EEC07A 		vabs.f32	s15, s0
 145:../../DaisySP//Source/Effects/pitchshifter.h ****             idx        = (uint8_t)fabsf(transpose);
 1185              		.loc 9 145 24 discriminator 2 view .LVU348
 1186 009a 2D49     		ldr	r1, .L31+20
 143:../../DaisySP//Source/Effects/pitchshifter.h ****         {
 1187              		.loc 9 143 9 discriminator 2 view .LVU349
 1188 009c F1EE10FA 		vmrs	APSR_nzcv, FPSCR
 1189 00a0 03D1     		bne	.L19
 143:../../DaisySP//Source/Effects/pitchshifter.h ****         {
 1190              		.loc 9 143 36 view .LVU350
 1191 00a2 94F82420 		ldrb	r2, [r4, #36]	@ zero_extendqisi2
 1192 00a6 002A     		cmp	r2, #0
 1193 00a8 CAD0     		beq	.L20
 1194              	.L19:
 160:../../DaisySP//Source/Effects/pitchshifter.h ****             }
 1195              		.loc 9 160 17 is_stmt 1 view .LVU351
 148:../../DaisySP//Source/Effects/pitchshifter.h ****             if(transpose > 0.0f)
 1196              		.loc 9 148 49 is_stmt 0 view .LVU352
 1197 00aa 87EEA55A 		vdiv.f32	s10, s15, s11
 157:../../DaisySP//Source/Effects/pitchshifter.h ****             if(mod_freq_ < 0.0f)
 1198              		.loc 9 157 41 view .LVU353
 1199 00ae D4ED0A5A 		vldr.32	s11, [r4, #40]
 145:../../DaisySP//Source/Effects/pitchshifter.h ****             idx        = (uint8_t)fabsf(transpose);
 1200              		.loc 9 145 24 view .LVU354
 1201 00b2 84ED180A 		vstr.32	s0, [r4, #96]
 146:../../DaisySP//Source/Effects/pitchshifter.h ****             ratio      = semitone_ratios_[idx % 12];
 1202              		.loc 9 146 13 is_stmt 1 view .LVU355
 1203              	.LVL51:
 147:../../DaisySP//Source/Effects/pitchshifter.h ****             ratio *= (uint8_t)(fabsf(transpose) / 12) + 1;
 1204              		.loc 9 147 13 view .LVU356
ARM GAS  C:\Users\daniel\AppData\Local\Temp\ccHs5oNB.s 			page 41


 146:../../DaisySP//Source/Effects/pitchshifter.h ****             ratio      = semitone_ratios_[idx % 12];
 1205              		.loc 9 146 24 is_stmt 0 view .LVU357
 1206 00b6 FCEEE77A 		vcvt.u32.f32	s15, s15
 1207              	.LVL52:
 149:../../DaisySP//Source/Effects/pitchshifter.h ****             {
 1208              		.loc 9 149 13 view .LVU358
 1209 00ba B5EEC00A 		vcmpe.f32	s0, #0
 146:../../DaisySP//Source/Effects/pitchshifter.h ****             ratio      = semitone_ratios_[idx % 12];
 1210              		.loc 9 146 24 view .LVU359
 1211 00be CDED017A 		vstr.32	s15, [sp, #4]	@ int
 147:../../DaisySP//Source/Effects/pitchshifter.h ****             ratio *= (uint8_t)(fabsf(transpose) / 12) + 1;
 1212              		.loc 9 147 47 view .LVU360
 1213 00c2 9DF80420 		ldrb	r2, [sp, #4]	@ zero_extendqisi2
 149:../../DaisySP//Source/Effects/pitchshifter.h ****             {
 1214              		.loc 9 149 13 view .LVU361
 1215 00c6 F1EE10FA 		vmrs	APSR_nzcv, FPSCR
 157:../../DaisySP//Source/Effects/pitchshifter.h ****             if(mod_freq_ < 0.0f)
 1216              		.loc 9 157 48 view .LVU362
 1217 00ca D4ED087A 		vldr.32	s15, [r4, #32]	@ int
 147:../../DaisySP//Source/Effects/pitchshifter.h ****             ratio *= (uint8_t)(fabsf(transpose) / 12) + 1;
 1218              		.loc 9 147 47 view .LVU363
 1219 00ce A3FB02C3 		umull	ip, r3, r3, r2
 157:../../DaisySP//Source/Effects/pitchshifter.h ****             if(mod_freq_ < 0.0f)
 1220              		.loc 9 157 48 view .LVU364
 1221 00d2 F8EE676A 		vcvt.f32.u32	s13, s15
 149:../../DaisySP//Source/Effects/pitchshifter.h ****             {
 1222              		.loc 9 149 13 view .LVU365
 1223 00d6 C8BF     		it	gt
 1224 00d8 4FF0010C 		movgt	ip, #1
 147:../../DaisySP//Source/Effects/pitchshifter.h ****             ratio *= (uint8_t)(fabsf(transpose) / 12) + 1;
 1225              		.loc 9 147 47 view .LVU366
 1226 00dc 4FEAD303 		lsr	r3, r3, #3
 149:../../DaisySP//Source/Effects/pitchshifter.h ****             {
 1227              		.loc 9 149 13 view .LVU367
 1228 00e0 D8BF     		it	le
 1229 00e2 4FF0000C 		movle	ip, #0
 147:../../DaisySP//Source/Effects/pitchshifter.h ****             ratio *= (uint8_t)(fabsf(transpose) / 12) + 1;
 1230              		.loc 9 147 47 view .LVU368
 1231 00e6 03EB4303 		add	r3, r3, r3, lsl #1
 149:../../DaisySP//Source/Effects/pitchshifter.h ****             {
 1232              		.loc 9 149 13 view .LVU369
 1233 00ea 84F82CC0 		strb	ip, [r4, #44]
 148:../../DaisySP//Source/Effects/pitchshifter.h ****             if(transpose > 0.0f)
 1234              		.loc 9 148 22 view .LVU370
 1235 00ee FCEEC57A 		vcvt.u32.f32	s15, s10
 147:../../DaisySP//Source/Effects/pitchshifter.h ****             ratio *= (uint8_t)(fabsf(transpose) / 12) + 1;
 1236              		.loc 9 147 47 view .LVU371
 1237 00f2 A2EB8303 		sub	r3, r2, r3, lsl #2
 147:../../DaisySP//Source/Effects/pitchshifter.h ****             ratio *= (uint8_t)(fabsf(transpose) / 12) + 1;
 1238              		.loc 9 147 24 view .LVU372
 1239 00f6 50FA83F3 		uxtab	r3, r0, r3
 148:../../DaisySP//Source/Effects/pitchshifter.h ****             if(transpose > 0.0f)
 1240              		.loc 9 148 22 view .LVU373
 1241 00fa CDED017A 		vstr.32	s15, [sp, #4]	@ int
 147:../../DaisySP//Source/Effects/pitchshifter.h ****             ratio *= (uint8_t)(fabsf(transpose) / 12) + 1;
 1242              		.loc 9 147 24 view .LVU374
 1243 00fe 01EB8303 		add	r3, r1, r3, lsl #2
ARM GAS  C:\Users\daniel\AppData\Local\Temp\ccHs5oNB.s 			page 42


 1244 0102 93ED005A 		vldr.32	s10, [r3]
 1245              	.LVL53:
 148:../../DaisySP//Source/Effects/pitchshifter.h ****             if(transpose > 0.0f)
 1246              		.loc 9 148 13 is_stmt 1 view .LVU375
 149:../../DaisySP//Source/Effects/pitchshifter.h ****             {
 1247              		.loc 9 149 13 view .LVU376
 157:../../DaisySP//Source/Effects/pitchshifter.h ****             if(mod_freq_ < 0.0f)
 1248              		.loc 9 157 13 view .LVU377
 148:../../DaisySP//Source/Effects/pitchshifter.h ****             if(transpose > 0.0f)
 1249              		.loc 9 148 22 is_stmt 0 view .LVU378
 1250 0106 9DF80430 		ldrb	r3, [sp, #4]	@ zero_extendqisi2
 148:../../DaisySP//Source/Effects/pitchshifter.h ****             if(transpose > 0.0f)
 1251              		.loc 9 148 55 view .LVU379
 1252 010a 0133     		adds	r3, r3, #1
 148:../../DaisySP//Source/Effects/pitchshifter.h ****             if(transpose > 0.0f)
 1253              		.loc 9 148 19 view .LVU380
 1254 010c 07EE903A 		vmov	s15, r3	@ int
 1255 0110 F8EEE77A 		vcvt.f32.s32	s15, s15
 157:../../DaisySP//Source/Effects/pitchshifter.h ****             if(mod_freq_ < 0.0f)
 1256              		.loc 9 157 33 view .LVU381
 1257 0114 A5EE277A 		vfma.f32	s14, s10, s15
 157:../../DaisySP//Source/Effects/pitchshifter.h ****             if(mod_freq_ < 0.0f)
 1258              		.loc 9 157 41 view .LVU382
 1259 0118 27EE257A 		vmul.f32	s14, s14, s11
 157:../../DaisySP//Source/Effects/pitchshifter.h ****             if(mod_freq_ < 0.0f)
 1260              		.loc 9 157 48 view .LVU383
 1261 011c 87EE260A 		vdiv.f32	s0, s14, s13
 1262              	.LVL54:
 158:../../DaisySP//Source/Effects/pitchshifter.h ****             {
 1263              		.loc 9 158 13 is_stmt 1 view .LVU384
 1264 0120 B5EEC00A 		vcmpe.f32	s0, #0
 1265 0124 F1EE10FA 		vmrs	APSR_nzcv, FPSCR
 1266 0128 7FF57AAF 		bpl	.L30
 158:../../DaisySP//Source/Effects/pitchshifter.h ****             {
 1267              		.loc 9 158 13 is_stmt 0 view .LVU385
 1268 012c B0EE460A 		vmov.f32	s0, s12
 160:../../DaisySP//Source/Effects/pitchshifter.h ****             }
 1269              		.loc 9 160 27 view .LVU386
 1270 0130 84ED076A 		vstr.32	s12, [r4, #28]
 1271 0134 76E7     		b	.L22
 1272              	.LVL55:
 1273              	.L17:
 160:../../DaisySP//Source/Effects/pitchshifter.h ****             }
 1274              		.loc 9 160 27 view .LVU387
 1275              	.LBE382:
 1276              	.LBE394:
 1277              	.LBE398:
 1278              	.LBE399:
  32:pitcher.cpp   ****     }
  33:pitcher.cpp   **** }
 1279              		.loc 11 33 1 view .LVU388
 1280 0136 05B0     		add	sp, sp, #20
 1281              		.cfi_def_cfa_offset 20
 1282              		@ sp needed
 1283 0138 F0BD     		pop	{r4, r5, r6, r7, pc}
 1284              	.LVL56:
 1285              	.L32:
ARM GAS  C:\Users\daniel\AppData\Local\Temp\ccHs5oNB.s 			page 43


 1286              		.loc 11 33 1 view .LVU389
 1287 013a 00BF     		.align	2
 1288              	.L31:
 1289 013c 00000000 		.word	.LANCHOR0
 1290 0140 00000200 		.word	ps+131072
 1291 0144 30000200 		.word	ps+131120
 1292 0148 40000200 		.word	ps+131136
 1293 014c 00000000 		.word	.LANCHOR1
 1294 0150 00000000 		.word	ps
 1295 0154 00000000 		.word	0
 1296 0158 ABAAAAAA 		.word	-1431655765
 1297              		.cfi_endproc
 1298              	.LFE4783:
 1300              		.section	.text.startup.main,"ax",%progbits
 1301              		.align	1
 1302              		.p2align 2,,3
 1303              		.global	main
 1304              		.syntax unified
 1305              		.thumb
 1306              		.thumb_func
 1307              		.fpu fpv5-d16
 1309              	main:
 1310              	.LFB4784:
  34:pitcher.cpp   **** 
  35:pitcher.cpp   **** int main(void)
  36:pitcher.cpp   **** {
 1311              		.loc 11 36 1 is_stmt 1 view -0
 1312              		.cfi_startproc
 1313              		@ args = 0, pretend = 0, frame = 8
 1314              		@ frame_needed = 0, uses_anonymous_args = 0
  37:pitcher.cpp   ****     // initialize seed hardware and daisysp modules
  38:pitcher.cpp   ****     float sample_rate;
 1315              		.loc 11 38 5 view .LVU391
  39:pitcher.cpp   ****     hw.Init();
 1316              		.loc 11 39 5 view .LVU392
  36:pitcher.cpp   ****     // initialize seed hardware and daisysp modules
 1317              		.loc 11 36 1 is_stmt 0 view .LVU393
 1318 0000 2DE9F041 		push	{r4, r5, r6, r7, r8, lr}
 1319              		.cfi_def_cfa_offset 24
 1320              		.cfi_offset 4, -24
 1321              		.cfi_offset 5, -20
 1322              		.cfi_offset 6, -16
 1323              		.cfi_offset 7, -12
 1324              		.cfi_offset 8, -8
 1325              		.cfi_offset 14, -4
 1326              		.loc 11 39 12 view .LVU394
 1327 0004 7248     		ldr	r0, .L47
 1328              	.LBB422:
 1329              	.LBB423:
  65:../../DaisySP//Source/Effects/pitchshifter.h ****         sr_           = sr;
 1330              		.loc 9 65 23 view .LVU395
 1331 0006 734E     		ldr	r6, .L47+4
 1332              	.LBE423:
 1333              	.LBE422:
  36:pitcher.cpp   ****     // initialize seed hardware and daisysp modules
 1334              		.loc 11 36 1 view .LVU396
 1335 0008 2DED028B 		vpush.64	{d8}
ARM GAS  C:\Users\daniel\AppData\Local\Temp\ccHs5oNB.s 			page 44


 1336              		.cfi_def_cfa_offset 32
 1337              		.cfi_offset 80, -32
 1338              		.cfi_offset 81, -28
 1339 000c 82B0     		sub	sp, sp, #8
 1340              		.cfi_def_cfa_offset 40
 1341 000e 06F18805 		add	r5, r6, #136
 1342              		.loc 11 39 12 view .LVU397
 1343 0012 FFF7FEFF 		bl	_ZN5daisy8patch_sm12DaisyPatchSM4InitEv
 1344              	.LVL57:
  40:pitcher.cpp   ****     hw.SetAudioBlockSize(4);
 1345              		.loc 11 40 5 is_stmt 1 view .LVU398
 1346              		.loc 11 40 25 is_stmt 0 view .LVU399
 1347 0016 0421     		movs	r1, #4
 1348 0018 6D48     		ldr	r0, .L47
 1349 001a FFF7FEFF 		bl	_ZN5daisy8patch_sm12DaisyPatchSM17SetAudioBlockSizeEj
 1350              	.LVL58:
  41:pitcher.cpp   ****     sample_rate = hw.AudioSampleRate();
 1351              		.loc 11 41 5 is_stmt 1 view .LVU400
 1352              		.loc 11 41 37 is_stmt 0 view .LVU401
 1353 001e 6C48     		ldr	r0, .L47
 1354 0020 FFF7FEFF 		bl	_ZN5daisy8patch_sm12DaisyPatchSM15AudioSampleRateEv
 1355              	.LVL59:
 1356              	.LBB484:
 1357              	.LBB480:
  65:../../DaisySP//Source/Effects/pitchshifter.h ****         sr_           = sr;
 1358              		.loc 9 65 23 view .LVU402
 1359 0024 0023     		movs	r3, #0
 1360              	.LBE480:
 1361              	.LBE484:
 1362              		.loc 11 41 37 view .LVU403
 1363 0026 F0EE408A 		vmov.f32	s17, s0
 1364              	.LVL60:
  42:pitcher.cpp   **** 
  43:pitcher.cpp   ****     ps.Init(sample_rate);
 1365              		.loc 11 43 5 is_stmt 1 view .LVU404
 1366              	.LBB485:
 1367              	.LBI422:
  63:../../DaisySP//Source/Effects/pitchshifter.h ****     {
 1368              		.loc 9 63 10 view .LVU405
 1369              	.LBB481:
  65:../../DaisySP//Source/Effects/pitchshifter.h ****         sr_           = sr;
 1370              		.loc 9 65 9 view .LVU406
  67:../../DaisySP//Source/Effects/pitchshifter.h ****         SetSemitones();
 1371              		.loc 9 67 23 is_stmt 0 view .LVU407
 1372 002a 6B4A     		ldr	r2, .L47+8
 1373              	.LBB424:
 1374              	.LBB425:
 167:../../DaisySP//Source/Effects/pitchshifter.h ****             }
 168:../../DaisySP//Source/Effects/pitchshifter.h ****         }
 169:../../DaisySP//Source/Effects/pitchshifter.h ****     }
 170:../../DaisySP//Source/Effects/pitchshifter.h **** 
 171:../../DaisySP//Source/Effects/pitchshifter.h ****     /** sets delay size changing the timbre of the pitchshifting 
 172:../../DaisySP//Source/Effects/pitchshifter.h ****     */
 173:../../DaisySP//Source/Effects/pitchshifter.h ****     void SetDelSize(uint32_t size)
 174:../../DaisySP//Source/Effects/pitchshifter.h ****     {
 175:../../DaisySP//Source/Effects/pitchshifter.h ****         del_size_     = size < SHIFT_BUFFER_SIZE ? size : SHIFT_BUFFER_SIZE;
 176:../../DaisySP//Source/Effects/pitchshifter.h ****         force_recalc_ = true;
ARM GAS  C:\Users\daniel\AppData\Local\Temp\ccHs5oNB.s 			page 45


 177:../../DaisySP//Source/Effects/pitchshifter.h ****         SetTransposition(transpose_);
 178:../../DaisySP//Source/Effects/pitchshifter.h ****     }
 179:../../DaisySP//Source/Effects/pitchshifter.h **** 
 180:../../DaisySP//Source/Effects/pitchshifter.h ****     /** sets an amount of internal random modulation, kind of sounds like tape-flutter
 181:../../DaisySP//Source/Effects/pitchshifter.h ****     */
 182:../../DaisySP//Source/Effects/pitchshifter.h ****     inline void SetFun(float f) { fun_ = f; }
 183:../../DaisySP//Source/Effects/pitchshifter.h **** 
 184:../../DaisySP//Source/Effects/pitchshifter.h ****   private:
 185:../../DaisySP//Source/Effects/pitchshifter.h ****     inline void SetSemitones()
 186:../../DaisySP//Source/Effects/pitchshifter.h ****     {
 187:../../DaisySP//Source/Effects/pitchshifter.h ****         for(size_t i = 0; i < 12; i++)
 1375              		.loc 9 187 20 view .LVU408
 1376 002c 1C46     		mov	r4, r3
 1377              	.LBE425:
 1378              	.LBE424:
  65:../../DaisySP//Source/Effects/pitchshifter.h ****         sr_           = sr;
 1379              		.loc 9 65 23 view .LVU409
 1380 002e 86F82430 		strb	r3, [r6, #36]
  66:../../DaisySP//Source/Effects/pitchshifter.h ****         mod_freq_     = 5.0f;
 1381              		.loc 9 66 9 is_stmt 1 view .LVU410
  66:../../DaisySP//Source/Effects/pitchshifter.h ****         mod_freq_     = 5.0f;
 1382              		.loc 9 66 23 is_stmt 0 view .LVU411
 1383 0032 86ED0A0A 		vstr.32	s0, [r6, #40]
  67:../../DaisySP//Source/Effects/pitchshifter.h ****         SetSemitones();
 1384              		.loc 9 67 9 is_stmt 1 view .LVU412
  67:../../DaisySP//Source/Effects/pitchshifter.h ****         SetSemitones();
 1385              		.loc 9 67 23 is_stmt 0 view .LVU413
 1386 0036 F261     		str	r2, [r6, #28]	@ float
  68:../../DaisySP//Source/Effects/pitchshifter.h ****         for(uint8_t i = 0; i < 2; i++)
 1387              		.loc 9 68 9 is_stmt 1 view .LVU414
 1388              	.LVL61:
 1389              	.LBB427:
 1390              	.LBI424:
 185:../../DaisySP//Source/Effects/pitchshifter.h ****     {
 1391              		.loc 9 185 17 view .LVU415
 1392              	.LBB426:
 1393              		.loc 9 187 29 view .LVU416
 1394              	.L34:
 188:../../DaisySP//Source/Effects/pitchshifter.h ****         {
 189:../../DaisySP//Source/Effects/pitchshifter.h ****             semitone_ratios_[i] = powf(2.0f, (float)i / 12);
 1395              		.loc 9 189 13 view .LVU417
 1396              		.loc 9 189 46 is_stmt 0 view .LVU418
 1397 0038 07EE904A 		vmov	s15, r4	@ int
 1398              		.loc 9 189 39 view .LVU419
 1399 003c B2EE088A 		vmov.f32	s16, #1.2e+1
 187:../../DaisySP//Source/Effects/pitchshifter.h ****         {
 1400              		.loc 9 187 9 view .LVU420
 1401 0040 0134     		adds	r4, r4, #1
 1402              	.LVL62:
 1403              		.loc 9 189 39 view .LVU421
 1404 0042 B0EE000A 		vmov.f32	s0, #2.0e+0
 1405              		.loc 9 189 46 view .LVU422
 1406 0046 F8EEE70A 		vcvt.f32.s32	s1, s15
 1407              		.loc 9 189 39 view .LVU423
 1408 004a C0EE880A 		vdiv.f32	s1, s1, s16
 1409 004e FFF7FEFF 		bl	powf
 1410              	.LVL63:
ARM GAS  C:\Users\daniel\AppData\Local\Temp\ccHs5oNB.s 			page 46


 187:../../DaisySP//Source/Effects/pitchshifter.h ****         {
 1411              		.loc 9 187 29 view .LVU424
 1412 0052 0C2C     		cmp	r4, #12
 1413              		.loc 9 189 33 view .LVU425
 1414 0054 A5EC010A 		vstmia.32	r5!, {s0}
 187:../../DaisySP//Source/Effects/pitchshifter.h ****         {
 1415              		.loc 9 187 9 is_stmt 1 view .LVU426
 1416              	.LVL64:
 187:../../DaisySP//Source/Effects/pitchshifter.h ****         {
 1417              		.loc 9 187 29 view .LVU427
 1418 0058 EED1     		bne	.L34
 1419              	.LVL65:
 187:../../DaisySP//Source/Effects/pitchshifter.h ****         {
 1420              		.loc 9 187 29 is_stmt 0 view .LVU428
 1421              	.LBE426:
 1422              	.LBE427:
 1423              	.LBB428:
  69:../../DaisySP//Source/Effects/pitchshifter.h ****         {
 1424              		.loc 9 69 30 is_stmt 1 view .LVU429
  71:../../DaisySP//Source/Effects/pitchshifter.h ****             d_[i].Init();
 1425              		.loc 9 71 13 view .LVU430
 1426              	.LBB429:
 1427              	.LBB430:
 1428              	.LBB431:
 1429              	.LBB432:
  34:../../DaisySP//Source/Utility/delayline.h ****         }
 1430              		.loc 10 34 22 is_stmt 0 view .LVU431
 1431 005a 0021     		movs	r1, #0
 1432              	.LBE432:
 1433              	.LBE431:
 1434              	.LBE430:
 1435              	.LBE429:
  71:../../DaisySP//Source/Effects/pitchshifter.h ****             d_[i].Init();
 1436              		.loc 9 71 22 view .LVU432
 1437 005c 5F4D     		ldr	r5, .L47+12
 1438              	.LBB451:
 1439              	.LBB444:
 1440              	.LBB437:
  37:../../DaisySP//Source/Utility/delayline.h ****     }
 1441              		.loc 10 37 20 view .LVU433
 1442 005e 0127     		movs	r7, #1
 1443              	.LBE437:
 1444              	.LBE444:
 1445              	.LBE451:
  71:../../DaisySP//Source/Effects/pitchshifter.h ****             d_[i].Init();
 1446              		.loc 9 71 22 view .LVU434
 1447 0060 4FF00008 		mov	r8, #0
 1448              	.LBB452:
 1449              	.LBB445:
 1450              	.LBB438:
  36:../../DaisySP//Source/Utility/delayline.h ****         delay_     = 1;
 1451              		.loc 10 36 20 view .LVU435
 1452 0064 0C46     		mov	r4, r1
 1453              	.LBB433:
  34:../../DaisySP//Source/Utility/delayline.h ****         }
 1454              		.loc 10 34 22 view .LVU436
 1455 0066 4FF48032 		mov	r2, #65536
ARM GAS  C:\Users\daniel\AppData\Local\Temp\ccHs5oNB.s 			page 47


 1456 006a 05F10C00 		add	r0, r5, #12
 1457              	.LBE433:
 1458              	.LBE438:
 1459              	.LBE445:
 1460              	.LBE452:
  71:../../DaisySP//Source/Effects/pitchshifter.h ****             d_[i].Init();
 1461              		.loc 9 71 22 view .LVU437
 1462 006e C6F85080 		str	r8, [r6, #80]	@ float
  72:../../DaisySP//Source/Effects/pitchshifter.h ****             phs_[i].Init(sr, 50, i == 0 ? 0 : PI_F);
 1463              		.loc 9 72 13 is_stmt 1 view .LVU438
 1464              	.LVL66:
 1465              	.LBB453:
 1466              	.LBI429:
  27:../../DaisySP//Source/Utility/delayline.h ****     /** clears buffer, sets write ptr to 0, and delay to 1 sample.
 1467              		.loc 10 27 10 view .LVU439
 1468              	.LBB446:
 1469              	.LBI430:
  30:../../DaisySP//Source/Utility/delayline.h ****     {
 1470              		.loc 10 30 10 view .LVU440
 1471              	.LBB439:
 1472              	.LBB434:
  32:../../DaisySP//Source/Utility/delayline.h ****         {
 1473              		.loc 10 32 29 view .LVU441
  34:../../DaisySP//Source/Utility/delayline.h ****         }
 1474              		.loc 10 34 22 is_stmt 0 view .LVU442
 1475 0072 FFF7FEFF 		bl	memset
 1476              	.LVL67:
  34:../../DaisySP//Source/Utility/delayline.h ****         }
 1477              		.loc 10 34 22 view .LVU443
 1478              	.LBE434:
 1479              	.LBE439:
 1480              	.LBE446:
 1481              	.LBE453:
 1482              	.LBB454:
 1483              	.LBB455:
 1484              		.file 13 "../../DaisySP//Source/Control/phasor.h"
   1:../../DaisySP//Source/Control/phasor.h **** #pragma once
   2:../../DaisySP//Source/Control/phasor.h **** #ifndef DSY_PHASOR_H
   3:../../DaisySP//Source/Control/phasor.h **** #define DSY_PHASOR_H
   4:../../DaisySP//Source/Control/phasor.h **** #ifdef __cplusplus
   5:../../DaisySP//Source/Control/phasor.h **** 
   6:../../DaisySP//Source/Control/phasor.h **** namespace daisysp
   7:../../DaisySP//Source/Control/phasor.h **** {
   8:../../DaisySP//Source/Control/phasor.h **** /** Generates a normalized signal moving from 0-1 at the specified frequency.
   9:../../DaisySP//Source/Control/phasor.h **** 
  10:../../DaisySP//Source/Control/phasor.h **** \todo Selecting which channels should be initialized/included in the sequence conversion.
  11:../../DaisySP//Source/Control/phasor.h **** \todo Setup a similar start function for an external mux, but that seems outside the scope of this 
  12:../../DaisySP//Source/Control/phasor.h **** 
  13:../../DaisySP//Source/Control/phasor.h **** */
  14:../../DaisySP//Source/Control/phasor.h **** class Phasor
  15:../../DaisySP//Source/Control/phasor.h **** {
  16:../../DaisySP//Source/Control/phasor.h ****   public:
  17:../../DaisySP//Source/Control/phasor.h ****     Phasor() {}
  18:../../DaisySP//Source/Control/phasor.h ****     ~Phasor() {}
  19:../../DaisySP//Source/Control/phasor.h ****     /** Initializes the Phasor module
  20:../../DaisySP//Source/Control/phasor.h ****     sample rate, and freq are in Hz
  21:../../DaisySP//Source/Control/phasor.h ****     initial phase is in radians
ARM GAS  C:\Users\daniel\AppData\Local\Temp\ccHs5oNB.s 			page 48


  22:../../DaisySP//Source/Control/phasor.h ****     Additional Init functions have defaults when arg is not specified:
  23:../../DaisySP//Source/Control/phasor.h ****     - phs = 0.0f
  24:../../DaisySP//Source/Control/phasor.h ****     - freq = 1.0f
  25:../../DaisySP//Source/Control/phasor.h ****     */
  26:../../DaisySP//Source/Control/phasor.h ****     inline void Init(float sample_rate, float freq, float initial_phase)
  27:../../DaisySP//Source/Control/phasor.h ****     {
  28:../../DaisySP//Source/Control/phasor.h ****         sample_rate_ = sample_rate;
  29:../../DaisySP//Source/Control/phasor.h ****         phs_         = initial_phase;
  30:../../DaisySP//Source/Control/phasor.h ****         SetFreq(freq);
 1485              		.loc 13 30 16 view .LVU444
 1486 0076 9FED5A0A 		vldr.32	s0, .L47+16
 1487 007a 5A48     		ldr	r0, .L47+20
  28:../../DaisySP//Source/Control/phasor.h ****         phs_         = initial_phase;
 1488              		.loc 13 28 22 view .LVU445
 1489 007c C6ED0D8A 		vstr.32	s17, [r6, #52]
  29:../../DaisySP//Source/Control/phasor.h ****         SetFreq(freq);
 1490              		.loc 13 29 22 view .LVU446
 1491 0080 C6F83C80 		str	r8, [r6, #60]	@ float
 1492              	.LBE455:
 1493              	.LBE454:
 1494              	.LBB459:
 1495              	.LBB447:
 1496              	.LBB440:
  37:../../DaisySP//Source/Utility/delayline.h ****     }
 1497              		.loc 10 37 20 view .LVU447
 1498 0084 C5E90147 		strd	r4, r7, [r5, #4]
 1499              	.LVL68:
  37:../../DaisySP//Source/Utility/delayline.h ****     }
 1500              		.loc 10 37 20 view .LVU448
 1501              	.LBE440:
 1502              	.LBE447:
 1503              	.LBE459:
  73:../../DaisySP//Source/Effects/pitchshifter.h ****         }
 1504              		.loc 9 73 13 is_stmt 1 view .LVU449
 1505              	.LBB460:
 1506              	.LBI454:
  26:../../DaisySP//Source/Control/phasor.h ****     {
 1507              		.loc 13 26 17 view .LVU450
 1508              	.LBB456:
  28:../../DaisySP//Source/Control/phasor.h ****         phs_         = initial_phase;
 1509              		.loc 13 28 9 view .LVU451
  29:../../DaisySP//Source/Control/phasor.h ****         SetFreq(freq);
 1510              		.loc 13 29 9 view .LVU452
 1511              		.loc 13 30 9 view .LVU453
 1512              		.loc 13 30 16 is_stmt 0 view .LVU454
 1513 0088 FFF7FEFF 		bl	_ZN7daisysp6Phasor7SetFreqEf
 1514              	.LVL69:
 1515              		.loc 13 30 16 view .LVU455
 1516              	.LBE456:
 1517              	.LBE460:
  69:../../DaisySP//Source/Effects/pitchshifter.h ****         {
 1518              		.loc 9 69 9 is_stmt 1 view .LVU456
  69:../../DaisySP//Source/Effects/pitchshifter.h ****         {
 1519              		.loc 9 69 30 view .LVU457
  71:../../DaisySP//Source/Effects/pitchshifter.h ****             d_[i].Init();
 1520              		.loc 9 71 13 view .LVU458
 1521              	.LBB461:
ARM GAS  C:\Users\daniel\AppData\Local\Temp\ccHs5oNB.s 			page 49


 1522              	.LBB448:
 1523              	.LBB441:
 1524              	.LBB435:
  34:../../DaisySP//Source/Utility/delayline.h ****         }
 1525              		.loc 10 34 22 is_stmt 0 view .LVU459
 1526 008c 4FF48032 		mov	r2, #65536
 1527 0090 2146     		mov	r1, r4
 1528 0092 5548     		ldr	r0, .L47+24
 1529              	.LBE435:
 1530              	.LBE441:
 1531              	.LBE448:
 1532              	.LBE461:
  71:../../DaisySP//Source/Effects/pitchshifter.h ****             d_[i].Init();
 1533              		.loc 9 71 22 view .LVU460
 1534 0094 C6F85480 		str	r8, [r6, #84]	@ float
  72:../../DaisySP//Source/Effects/pitchshifter.h ****             phs_[i].Init(sr, 50, i == 0 ? 0 : PI_F);
 1535              		.loc 9 72 13 is_stmt 1 view .LVU461
 1536              	.LVL70:
 1537              	.LBB462:
  27:../../DaisySP//Source/Utility/delayline.h ****     /** clears buffer, sets write ptr to 0, and delay to 1 sample.
 1538              		.loc 10 27 10 view .LVU462
 1539              	.LBB449:
  30:../../DaisySP//Source/Utility/delayline.h ****     {
 1540              		.loc 10 30 10 view .LVU463
 1541              	.LBB442:
 1542              	.LBB436:
  32:../../DaisySP//Source/Utility/delayline.h ****         {
 1543              		.loc 10 32 29 view .LVU464
  34:../../DaisySP//Source/Utility/delayline.h ****         }
 1544              		.loc 10 34 22 is_stmt 0 view .LVU465
 1545 0098 FFF7FEFF 		bl	memset
 1546              	.LVL71:
  34:../../DaisySP//Source/Utility/delayline.h ****         }
 1547              		.loc 10 34 22 view .LVU466
 1548              	.LBE436:
  36:../../DaisySP//Source/Utility/delayline.h ****         delay_     = 1;
 1549              		.loc 10 36 20 view .LVU467
 1550 009c 05F58033 		add	r3, r5, #65536
 1551              	.LBE442:
 1552              	.LBE449:
 1553              	.LBE462:
 1554              	.LBB463:
 1555              	.LBB457:
 1556              		.loc 13 30 16 view .LVU468
 1557 00a0 5248     		ldr	r0, .L47+28
 1558 00a2 9FED4F0A 		vldr.32	s0, .L47+16
  28:../../DaisySP//Source/Control/phasor.h ****         phs_         = initial_phase;
 1559              		.loc 13 28 22 view .LVU469
 1560 00a6 C6ED118A 		vstr.32	s17, [r6, #68]
 1561              	.LBE457:
 1562              	.LBE463:
 1563              	.LBB464:
 1564              	.LBB450:
 1565              	.LBB443:
  37:../../DaisySP//Source/Utility/delayline.h ****     }
 1566              		.loc 10 37 20 view .LVU470
 1567 00aa C3E90447 		strd	r4, r7, [r3, #16]
ARM GAS  C:\Users\daniel\AppData\Local\Temp\ccHs5oNB.s 			page 50


 1568              	.LVL72:
  37:../../DaisySP//Source/Utility/delayline.h ****     }
 1569              		.loc 10 37 20 view .LVU471
 1570              	.LBE443:
 1571              	.LBE450:
 1572              	.LBE464:
  73:../../DaisySP//Source/Effects/pitchshifter.h ****         }
 1573              		.loc 9 73 13 is_stmt 1 view .LVU472
 1574              	.LBB465:
  26:../../DaisySP//Source/Control/phasor.h ****     {
 1575              		.loc 13 26 17 view .LVU473
 1576              	.LBB458:
  28:../../DaisySP//Source/Control/phasor.h ****         phs_         = initial_phase;
 1577              		.loc 13 28 9 view .LVU474
  29:../../DaisySP//Source/Control/phasor.h ****         SetFreq(freq);
 1578              		.loc 13 29 9 view .LVU475
  29:../../DaisySP//Source/Control/phasor.h ****         SetFreq(freq);
 1579              		.loc 13 29 22 is_stmt 0 view .LVU476
 1580 00ae 504B     		ldr	r3, .L47+32
 1581 00b0 F364     		str	r3, [r6, #76]	@ float
 1582              		.loc 13 30 9 is_stmt 1 view .LVU477
 1583              		.loc 13 30 16 is_stmt 0 view .LVU478
 1584 00b2 FFF7FEFF 		bl	_ZN7daisysp6Phasor7SetFreqEf
 1585              	.LVL73:
 1586              		.loc 13 30 16 view .LVU479
 1587              	.LBE458:
 1588              	.LBE465:
  69:../../DaisySP//Source/Effects/pitchshifter.h ****         {
 1589              		.loc 9 69 9 is_stmt 1 view .LVU480
  69:../../DaisySP//Source/Effects/pitchshifter.h ****         {
 1590              		.loc 9 69 30 view .LVU481
 1591              	.LBE428:
  75:../../DaisySP//Source/Effects/pitchshifter.h ****         del_size_ = SHIFT_BUFFER_SIZE;
 1592              		.loc 9 75 9 view .LVU482
 1593 00b6 96ED187A 		vldr.32	s14, [r6, #96]
  76:../../DaisySP//Source/Effects/pitchshifter.h ****         SetDelSize(del_size_);
 1594              		.loc 9 76 19 is_stmt 0 view .LVU483
 1595 00ba 4FF48043 		mov	r3, #16384
 1596              	.LBB466:
 1597              	.LBB467:
 1598              	.LBB468:
 1599              	.LBB469:
 147:../../DaisySP//Source/Effects/pitchshifter.h ****             ratio *= (uint8_t)(fabsf(transpose) / 12) + 1;
 1600              		.loc 9 147 47 view .LVU484
 1601 00be 4D4A     		ldr	r2, .L47+36
 147:../../DaisySP//Source/Effects/pitchshifter.h ****             ratio *= (uint8_t)(fabsf(transpose) / 12) + 1;
 1602              		.loc 9 147 24 view .LVU485
 1603 00c0 48F22201 		movw	r1, #32802
 146:../../DaisySP//Source/Effects/pitchshifter.h ****             ratio      = semitone_ratios_[idx % 12];
 1604              		.loc 9 146 40 view .LVU486
 1605 00c4 F0EEC77A 		vabs.f32	s15, s14
 1606              	.LBE469:
 1607              	.LBE468:
 1608              	.LBE467:
 1609              	.LBE466:
  76:../../DaisySP//Source/Effects/pitchshifter.h ****         SetDelSize(del_size_);
 1610              		.loc 9 76 19 view .LVU487
ARM GAS  C:\Users\daniel\AppData\Local\Temp\ccHs5oNB.s 			page 51


 1611 00c8 3362     		str	r3, [r6, #32]
 1612              	.LBB478:
 1613              	.LBB476:
 1614              	.LBB473:
 1615              	.LBB470:
 149:../../DaisySP//Source/Effects/pitchshifter.h ****             {
 1616              		.loc 9 149 13 view .LVU488
 1617 00ca B5EEC07A 		vcmpe.f32	s14, #0
 1618              	.LBE470:
 1619              	.LBE473:
 1620              	.LBE476:
 1621              	.LBE478:
  75:../../DaisySP//Source/Effects/pitchshifter.h ****         del_size_ = SHIFT_BUFFER_SIZE;
 1622              		.loc 9 75 19 view .LVU489
 1623 00ce 86F82C70 		strb	r7, [r6, #44]
  76:../../DaisySP//Source/Effects/pitchshifter.h ****         SetDelSize(del_size_);
 1624              		.loc 9 76 9 is_stmt 1 view .LVU490
  77:../../DaisySP//Source/Effects/pitchshifter.h ****         fun_ = 0.0f;
 1625              		.loc 9 77 9 view .LVU491
 1626              	.LVL74:
 1627              	.LBB479:
 1628              	.LBI466:
 173:../../DaisySP//Source/Effects/pitchshifter.h ****     {
 1629              		.loc 9 173 10 view .LVU492
 1630              	.LBB477:
 175:../../DaisySP//Source/Effects/pitchshifter.h ****         force_recalc_ = true;
 1631              		.loc 9 175 9 view .LVU493
 176:../../DaisySP//Source/Effects/pitchshifter.h ****         SetTransposition(transpose_);
 1632              		.loc 9 176 9 view .LVU494
 177:../../DaisySP//Source/Effects/pitchshifter.h ****     }
 1633              		.loc 9 177 9 view .LVU495
 1634              	.LBB474:
 1635              	.LBI468:
 139:../../DaisySP//Source/Effects/pitchshifter.h ****     {
 1636              		.loc 9 139 10 view .LVU496
 1637              	.LBB471:
 141:../../DaisySP//Source/Effects/pitchshifter.h ****         uint8_t idx;
 1638              		.loc 9 141 9 view .LVU497
 142:../../DaisySP//Source/Effects/pitchshifter.h ****         if(transpose_ != transpose || force_recalc_)
 1639              		.loc 9 142 9 view .LVU498
 143:../../DaisySP//Source/Effects/pitchshifter.h ****         {
 1640              		.loc 9 143 9 view .LVU499
 145:../../DaisySP//Source/Effects/pitchshifter.h ****             idx        = (uint8_t)fabsf(transpose);
 1641              		.loc 9 145 13 view .LVU500
 146:../../DaisySP//Source/Effects/pitchshifter.h ****             ratio      = semitone_ratios_[idx % 12];
 1642              		.loc 9 146 13 view .LVU501
 147:../../DaisySP//Source/Effects/pitchshifter.h ****             ratio *= (uint8_t)(fabsf(transpose) / 12) + 1;
 1643              		.loc 9 147 13 view .LVU502
 1644              	.LBE471:
 1645              	.LBE474:
 176:../../DaisySP//Source/Effects/pitchshifter.h ****         SetTransposition(transpose_);
 1646              		.loc 9 176 23 is_stmt 0 view .LVU503
 1647 00d2 86F82470 		strb	r7, [r6, #36]
 1648              	.LBB475:
 1649              	.LBB472:
 148:../../DaisySP//Source/Effects/pitchshifter.h ****             if(transpose > 0.0f)
 1650              		.loc 9 148 49 view .LVU504
ARM GAS  C:\Users\daniel\AppData\Local\Temp\ccHs5oNB.s 			page 52


 1651 00d6 C7EE886A 		vdiv.f32	s13, s15, s16
 146:../../DaisySP//Source/Effects/pitchshifter.h ****             ratio      = semitone_ratios_[idx % 12];
 1652              		.loc 9 146 24 view .LVU505
 1653 00da FCEEE77A 		vcvt.u32.f32	s15, s15
 1654              	.LVL75:
 149:../../DaisySP//Source/Effects/pitchshifter.h ****             {
 1655              		.loc 9 149 13 view .LVU506
 1656 00de F1EE10FA 		vmrs	APSR_nzcv, FPSCR
 146:../../DaisySP//Source/Effects/pitchshifter.h ****             ratio      = semitone_ratios_[idx % 12];
 1657              		.loc 9 146 24 view .LVU507
 1658 00e2 CDED007A 		vstr.32	s15, [sp]	@ int
 147:../../DaisySP//Source/Effects/pitchshifter.h ****             ratio *= (uint8_t)(fabsf(transpose) / 12) + 1;
 1659              		.loc 9 147 47 view .LVU508
 1660 00e6 9DF80030 		ldrb	r3, [sp]	@ zero_extendqisi2
 1661 00ea A2FB0302 		umull	r0, r2, r2, r3
 1662 00ee 4FEAD202 		lsr	r2, r2, #3
 1663 00f2 02EB4202 		add	r2, r2, r2, lsl #1
 148:../../DaisySP//Source/Effects/pitchshifter.h ****             if(transpose > 0.0f)
 1664              		.loc 9 148 22 view .LVU509
 1665 00f6 FCEEE67A 		vcvt.u32.f32	s15, s13
 147:../../DaisySP//Source/Effects/pitchshifter.h ****             ratio *= (uint8_t)(fabsf(transpose) / 12) + 1;
 1666              		.loc 9 147 47 view .LVU510
 1667 00fa A3EB8203 		sub	r3, r3, r2, lsl #2
 148:../../DaisySP//Source/Effects/pitchshifter.h ****             if(transpose > 0.0f)
 1668              		.loc 9 148 22 view .LVU511
 1669 00fe CDED017A 		vstr.32	s15, [sp, #4]	@ int
 147:../../DaisySP//Source/Effects/pitchshifter.h ****             ratio *= (uint8_t)(fabsf(transpose) / 12) + 1;
 1670              		.loc 9 147 24 view .LVU512
 1671 0102 51FA83F2 		uxtab	r2, r1, r3
 148:../../DaisySP//Source/Effects/pitchshifter.h ****             if(transpose > 0.0f)
 1672              		.loc 9 148 22 view .LVU513
 1673 0106 9DF80430 		ldrb	r3, [sp, #4]	@ zero_extendqisi2
 147:../../DaisySP//Source/Effects/pitchshifter.h ****             ratio *= (uint8_t)(fabsf(transpose) / 12) + 1;
 1674              		.loc 9 147 24 view .LVU514
 1675 010a 05EB8202 		add	r2, r5, r2, lsl #2
 148:../../DaisySP//Source/Effects/pitchshifter.h ****             if(transpose > 0.0f)
 1676              		.loc 9 148 55 view .LVU515
 1677 010e 3B44     		add	r3, r3, r7
 147:../../DaisySP//Source/Effects/pitchshifter.h ****             ratio *= (uint8_t)(fabsf(transpose) / 12) + 1;
 1678              		.loc 9 147 24 view .LVU516
 1679 0110 D2ED006A 		vldr.32	s13, [r2]
 1680              	.LVL76:
 148:../../DaisySP//Source/Effects/pitchshifter.h ****             if(transpose > 0.0f)
 1681              		.loc 9 148 13 is_stmt 1 view .LVU517
 148:../../DaisySP//Source/Effects/pitchshifter.h ****             if(transpose > 0.0f)
 1682              		.loc 9 148 19 is_stmt 0 view .LVU518
 1683 0114 07EE903A 		vmov	s15, r3	@ int
 1684 0118 F8EEE77A 		vcvt.f32.s32	s15, s15
 1685 011c 67EEA67A 		vmul.f32	s15, s15, s13
 1686              	.LVL77:
 149:../../DaisySP//Source/Effects/pitchshifter.h ****             {
 1687              		.loc 9 149 13 is_stmt 1 view .LVU519
 1688 0120 01DC     		bgt	.L35
 155:../../DaisySP//Source/Effects/pitchshifter.h ****             }
 1689              		.loc 9 155 17 view .LVU520
 155:../../DaisySP//Source/Effects/pitchshifter.h ****             }
 1690              		.loc 9 155 27 is_stmt 0 view .LVU521
ARM GAS  C:\Users\daniel\AppData\Local\Temp\ccHs5oNB.s 			page 53


 1691 0122 86F82C40 		strb	r4, [r6, #44]
 1692              	.L35:
 157:../../DaisySP//Source/Effects/pitchshifter.h ****             if(mod_freq_ < 0.0f)
 1693              		.loc 9 157 13 is_stmt 1 view .LVU522
 157:../../DaisySP//Source/Effects/pitchshifter.h ****             if(mod_freq_ < 0.0f)
 1694              		.loc 9 157 33 is_stmt 0 view .LVU523
 1695 0126 B7EE006A 		vmov.f32	s12, #1.0e+0
 157:../../DaisySP//Source/Effects/pitchshifter.h ****             if(mod_freq_ < 0.0f)
 1696              		.loc 9 157 41 view .LVU524
 1697 012a D6ED0A6A 		vldr.32	s13, [r6, #40]
 157:../../DaisySP//Source/Effects/pitchshifter.h ****             if(mod_freq_ < 0.0f)
 1698              		.loc 9 157 48 view .LVU525
 1699 012e 9FED327A 		vldr.32	s14, .L47+40
 1700              	.LVL78:
 158:../../DaisySP//Source/Effects/pitchshifter.h ****             {
 1701              		.loc 9 158 13 view .LVU526
 1702 0132 0023     		movs	r3, #0
 162:../../DaisySP//Source/Effects/pitchshifter.h ****             phs_[1].SetFreq(mod_freq_);
 1703              		.loc 9 162 28 view .LVU527
 1704 0134 2B48     		ldr	r0, .L47+20
 157:../../DaisySP//Source/Effects/pitchshifter.h ****             if(mod_freq_ < 0.0f)
 1705              		.loc 9 157 33 view .LVU528
 1706 0136 77EEC67A 		vsub.f32	s15, s15, s12
 1707              	.LVL79:
 157:../../DaisySP//Source/Effects/pitchshifter.h ****             if(mod_freq_ < 0.0f)
 1708              		.loc 9 157 41 view .LVU529
 1709 013a 67EEA67A 		vmul.f32	s15, s15, s13
 157:../../DaisySP//Source/Effects/pitchshifter.h ****             if(mod_freq_ < 0.0f)
 1710              		.loc 9 157 48 view .LVU530
 1711 013e 67EE877A 		vmul.f32	s15, s15, s14
 158:../../DaisySP//Source/Effects/pitchshifter.h ****             {
 1712              		.loc 9 158 13 is_stmt 1 view .LVU531
 1713 0142 F5EEC07A 		vcmpe.f32	s15, #0
 1714 0146 F1EE10FA 		vmrs	APSR_nzcv, FPSCR
 160:../../DaisySP//Source/Effects/pitchshifter.h ****             }
 1715              		.loc 9 160 27 is_stmt 0 view .LVU532
 1716 014a 4CBF     		ite	mi
 1717 014c F361     		strmi	r3, [r6, #28]	@ float
 157:../../DaisySP//Source/Effects/pitchshifter.h ****             if(mod_freq_ < 0.0f)
 1718              		.loc 9 157 23 view .LVU533
 1719 014e C6ED077A 		vstrpl.32	s15, [r6, #28]
 160:../../DaisySP//Source/Effects/pitchshifter.h ****             }
 1720              		.loc 9 160 17 is_stmt 1 view .LVU534
 162:../../DaisySP//Source/Effects/pitchshifter.h ****             phs_[1].SetFreq(mod_freq_);
 1721              		.loc 9 162 13 view .LVU535
 162:../../DaisySP//Source/Effects/pitchshifter.h ****             phs_[1].SetFreq(mod_freq_);
 1722              		.loc 9 162 28 is_stmt 0 view .LVU536
 1723 0152 96ED070A 		vldr.32	s0, [r6, #28]
 1724 0156 FFF7FEFF 		bl	_ZN7daisysp6Phasor7SetFreqEf
 1725              	.LVL80:
 163:../../DaisySP//Source/Effects/pitchshifter.h ****             if(force_recalc_)
 1726              		.loc 9 163 13 is_stmt 1 view .LVU537
 163:../../DaisySP//Source/Effects/pitchshifter.h ****             if(force_recalc_)
 1727              		.loc 9 163 28 is_stmt 0 view .LVU538
 1728 015a 96ED070A 		vldr.32	s0, [r6, #28]
 1729 015e 2348     		ldr	r0, .L47+28
 1730 0160 FFF7FEFF 		bl	_ZN7daisysp6Phasor7SetFreqEf
ARM GAS  C:\Users\daniel\AppData\Local\Temp\ccHs5oNB.s 			page 54


 1731              	.LVL81:
 164:../../DaisySP//Source/Effects/pitchshifter.h ****             {
 1732              		.loc 9 164 13 is_stmt 1 view .LVU539
 1733 0164 96F82430 		ldrb	r3, [r6, #36]	@ zero_extendqisi2
 1734 0168 13B1     		cbz	r3, .L40
 166:../../DaisySP//Source/Effects/pitchshifter.h ****             }
 1735              		.loc 9 166 17 view .LVU540
 166:../../DaisySP//Source/Effects/pitchshifter.h ****             }
 1736              		.loc 9 166 31 is_stmt 0 view .LVU541
 1737 016a 0023     		movs	r3, #0
 1738 016c 86F82430 		strb	r3, [r6, #36]
 1739              	.L40:
 1740              	.LVL82:
 166:../../DaisySP//Source/Effects/pitchshifter.h ****             }
 1741              		.loc 9 166 31 view .LVU542
 1742              	.LBE472:
 1743              	.LBE475:
 1744              	.LBE477:
 1745              	.LBE479:
  78:../../DaisySP//Source/Effects/pitchshifter.h ****     }
 1746              		.loc 9 78 9 is_stmt 1 view .LVU543
 1747              	.LBE481:
 1748              	.LBE485:
 1749              	.LBB486:
 1750              	.LBB487:
  17:../../DaisySP//Source/Synthesis/oscillator.h ****     /** Choices for output waveforms, POLYBLEP are appropriately labeled. Others are naive forms.
  18:../../DaisySP//Source/Synthesis/oscillator.h ****     */
  19:../../DaisySP//Source/Synthesis/oscillator.h ****     enum
  20:../../DaisySP//Source/Synthesis/oscillator.h ****     {
  21:../../DaisySP//Source/Synthesis/oscillator.h ****         WAVE_SIN,
  22:../../DaisySP//Source/Synthesis/oscillator.h ****         WAVE_TRI,
  23:../../DaisySP//Source/Synthesis/oscillator.h ****         WAVE_SAW,
  24:../../DaisySP//Source/Synthesis/oscillator.h ****         WAVE_RAMP,
  25:../../DaisySP//Source/Synthesis/oscillator.h ****         WAVE_SQUARE,
  26:../../DaisySP//Source/Synthesis/oscillator.h ****         WAVE_POLYBLEP_TRI,
  27:../../DaisySP//Source/Synthesis/oscillator.h ****         WAVE_POLYBLEP_SAW,
  28:../../DaisySP//Source/Synthesis/oscillator.h ****         WAVE_POLYBLEP_SQUARE,
  29:../../DaisySP//Source/Synthesis/oscillator.h ****         WAVE_LAST,
  30:../../DaisySP//Source/Synthesis/oscillator.h ****     };
  31:../../DaisySP//Source/Synthesis/oscillator.h **** 
  32:../../DaisySP//Source/Synthesis/oscillator.h **** 
  33:../../DaisySP//Source/Synthesis/oscillator.h ****     /** Initializes the Oscillator
  34:../../DaisySP//Source/Synthesis/oscillator.h **** 
  35:../../DaisySP//Source/Synthesis/oscillator.h ****         \param sample_rate - sample rate of the audio engine being run, and the frequency that the 
  36:../../DaisySP//Source/Synthesis/oscillator.h **** 
  37:../../DaisySP//Source/Synthesis/oscillator.h ****         Defaults:
  38:../../DaisySP//Source/Synthesis/oscillator.h ****         - freq_ = 100 Hz
  39:../../DaisySP//Source/Synthesis/oscillator.h ****         - amp_ = 0.5
  40:../../DaisySP//Source/Synthesis/oscillator.h ****         - waveform_ = sine wave.
  41:../../DaisySP//Source/Synthesis/oscillator.h ****     */
  42:../../DaisySP//Source/Synthesis/oscillator.h ****     void Init(float sample_rate)
  43:../../DaisySP//Source/Synthesis/oscillator.h ****     {
  44:../../DaisySP//Source/Synthesis/oscillator.h ****         sr_        = sample_rate;
  45:../../DaisySP//Source/Synthesis/oscillator.h ****         sr_recip_  = 1.0f / sample_rate;
 1751              		.loc 8 45 27 is_stmt 0 view .LVU544
 1752 0170 B7EE007A 		vmov.f32	s14, #1.0e+0
  44:../../DaisySP//Source/Synthesis/oscillator.h ****         sr_recip_  = 1.0f / sample_rate;
ARM GAS  C:\Users\daniel\AppData\Local\Temp\ccHs5oNB.s 			page 55


 1753              		.loc 8 44 20 view .LVU545
 1754 0174 214C     		ldr	r4, .L47+44
 1755              	.LBE487:
 1756              	.LBE486:
 1757              	.LBB491:
 1758              	.LBB482:
  78:../../DaisySP//Source/Effects/pitchshifter.h ****     }
 1759              		.loc 9 78 14 view .LVU546
 1760 0176 0023     		movs	r3, #0
 1761              	.LBE482:
 1762              	.LBE491:
 1763              	.LBB492:
 1764              	.LBB488:
  46:../../DaisySP//Source/Synthesis/oscillator.h ****         freq_      = 100.0f;
  47:../../DaisySP//Source/Synthesis/oscillator.h ****         amp_       = 0.5f;
 1765              		.loc 8 47 20 view .LVU547
 1766 0178 4FF07C52 		mov	r2, #1056964608
  46:../../DaisySP//Source/Synthesis/oscillator.h ****         freq_      = 100.0f;
 1767              		.loc 8 46 20 view .LVU548
 1768 017c 9FED200A 		vldr.32	s0, .L47+48
  48:../../DaisySP//Source/Synthesis/oscillator.h ****         phase_     = 0.0f;
  49:../../DaisySP//Source/Synthesis/oscillator.h ****         phase_inc_ = CalcPhaseInc(freq_);
 1769              		.loc 8 49 34 view .LVU549
 1770 0180 2046     		mov	r0, r4
  45:../../DaisySP//Source/Synthesis/oscillator.h ****         freq_      = 100.0f;
 1771              		.loc 8 45 27 view .LVU550
 1772 0182 C7EE287A 		vdiv.f32	s15, s14, s17
 1773              	.LBE488:
 1774              	.LBE492:
 1775              	.LBB493:
 1776              	.LBB483:
  78:../../DaisySP//Source/Effects/pitchshifter.h ****     }
 1777              		.loc 9 78 14 view .LVU551
 1778 0186 7366     		str	r3, [r6, #100]	@ float
 1779              	.LVL83:
  78:../../DaisySP//Source/Effects/pitchshifter.h ****     }
 1780              		.loc 9 78 14 view .LVU552
 1781              	.LBE483:
 1782              	.LBE493:
  44:pitcher.cpp   **** 
  45:pitcher.cpp   ****     //setup oscillator
  46:pitcher.cpp   ****     osc.Init(sample_rate);
 1783              		.loc 11 46 5 is_stmt 1 view .LVU553
 1784              	.LBB494:
 1785              	.LBI486:
  42:../../DaisySP//Source/Synthesis/oscillator.h ****     {
 1786              		.loc 8 42 10 view .LVU554
 1787              	.LBB489:
  44:../../DaisySP//Source/Synthesis/oscillator.h ****         sr_recip_  = 1.0f / sample_rate;
 1788              		.loc 8 44 9 view .LVU555
  47:../../DaisySP//Source/Synthesis/oscillator.h ****         phase_     = 0.0f;
 1789              		.loc 8 47 20 is_stmt 0 view .LVU556
 1790 0188 6260     		str	r2, [r4, #4]	@ float
  48:../../DaisySP//Source/Synthesis/oscillator.h ****         phase_inc_ = CalcPhaseInc(freq_);
 1791              		.loc 8 48 20 view .LVU557
 1792 018a 6361     		str	r3, [r4, #20]	@ float
  44:../../DaisySP//Source/Synthesis/oscillator.h ****         sr_recip_  = 1.0f / sample_rate;
ARM GAS  C:\Users\daniel\AppData\Local\Temp\ccHs5oNB.s 			page 56


 1793              		.loc 8 44 20 view .LVU558
 1794 018c C4ED038A 		vstr.32	s17, [r4, #12]
  45:../../DaisySP//Source/Synthesis/oscillator.h ****         freq_      = 100.0f;
 1795              		.loc 8 45 9 is_stmt 1 view .LVU559
  46:../../DaisySP//Source/Synthesis/oscillator.h ****         amp_       = 0.5f;
 1796              		.loc 8 46 20 is_stmt 0 view .LVU560
 1797 0190 84ED020A 		vstr.32	s0, [r4, #8]
  45:../../DaisySP//Source/Synthesis/oscillator.h ****         freq_      = 100.0f;
 1798              		.loc 8 45 20 view .LVU561
 1799 0194 C4ED047A 		vstr.32	s15, [r4, #16]
  46:../../DaisySP//Source/Synthesis/oscillator.h ****         amp_       = 0.5f;
 1800              		.loc 8 46 9 is_stmt 1 view .LVU562
  47:../../DaisySP//Source/Synthesis/oscillator.h ****         phase_     = 0.0f;
 1801              		.loc 8 47 9 view .LVU563
  48:../../DaisySP//Source/Synthesis/oscillator.h ****         phase_inc_ = CalcPhaseInc(freq_);
 1802              		.loc 8 48 9 view .LVU564
 1803              		.loc 8 49 9 view .LVU565
 1804              		.loc 8 49 34 is_stmt 0 view .LVU566
 1805 0198 FFF7FEFF 		bl	_ZN7daisysp10Oscillator12CalcPhaseIncEf
 1806              	.LVL84:
  50:../../DaisySP//Source/Synthesis/oscillator.h ****         waveform_  = WAVE_SIN;
  51:../../DaisySP//Source/Synthesis/oscillator.h ****         eoc_       = true;
  52:../../DaisySP//Source/Synthesis/oscillator.h ****         eor_       = true;
 1807              		.loc 8 52 20 view .LVU567
 1808 019c 40F20113 		movw	r3, #257
  49:../../DaisySP//Source/Synthesis/oscillator.h ****         waveform_  = WAVE_SIN;
 1809              		.loc 8 49 34 view .LVU568
 1810 01a0 F0EE407A 		vmov.f32	s15, s0
  50:../../DaisySP//Source/Synthesis/oscillator.h ****         waveform_  = WAVE_SIN;
 1811              		.loc 8 50 20 view .LVU569
 1812 01a4 0022     		movs	r2, #0
 1813              	.LBE489:
 1814              	.LBE494:
 1815              	.LBB495:
 1816              	.LBB496:
  53:../../DaisySP//Source/Synthesis/oscillator.h ****     }
  54:../../DaisySP//Source/Synthesis/oscillator.h **** 
  55:../../DaisySP//Source/Synthesis/oscillator.h **** 
  56:../../DaisySP//Source/Synthesis/oscillator.h ****     /** Changes the frequency of the Oscillator, and recalculates phase increment.
  57:../../DaisySP//Source/Synthesis/oscillator.h ****     */
  58:../../DaisySP//Source/Synthesis/oscillator.h ****     inline void SetFreq(const float f)
  59:../../DaisySP//Source/Synthesis/oscillator.h ****     {
  60:../../DaisySP//Source/Synthesis/oscillator.h ****         freq_      = f;
 1817              		.loc 8 60 20 view .LVU570
 1818 01a6 9FED170A 		vldr.32	s0, .L47+52
  61:../../DaisySP//Source/Synthesis/oscillator.h ****         phase_inc_ = CalcPhaseInc(f);
 1819              		.loc 8 61 34 view .LVU571
 1820 01aa 2046     		mov	r0, r4
 1821              	.LBE496:
 1822              	.LBE495:
 1823              	.LBB499:
 1824              	.LBB490:
  52:../../DaisySP//Source/Synthesis/oscillator.h ****     }
 1825              		.loc 8 52 20 view .LVU572
 1826 01ac A384     		strh	r3, [r4, #36]	@ movhi
  49:../../DaisySP//Source/Synthesis/oscillator.h ****         waveform_  = WAVE_SIN;
 1827              		.loc 8 49 20 view .LVU573
ARM GAS  C:\Users\daniel\AppData\Local\Temp\ccHs5oNB.s 			page 57


 1828 01ae C4ED067A 		vstr.32	s15, [r4, #24]
  50:../../DaisySP//Source/Synthesis/oscillator.h ****         eoc_       = true;
 1829              		.loc 8 50 9 is_stmt 1 view .LVU574
  50:../../DaisySP//Source/Synthesis/oscillator.h ****         eoc_       = true;
 1830              		.loc 8 50 20 is_stmt 0 view .LVU575
 1831 01b2 2270     		strb	r2, [r4]
  51:../../DaisySP//Source/Synthesis/oscillator.h ****         eor_       = true;
 1832              		.loc 8 51 9 is_stmt 1 view .LVU576
  52:../../DaisySP//Source/Synthesis/oscillator.h ****     }
 1833              		.loc 8 52 9 view .LVU577
 1834              	.LVL85:
  52:../../DaisySP//Source/Synthesis/oscillator.h ****     }
 1835              		.loc 8 52 9 is_stmt 0 view .LVU578
 1836              	.LBE490:
 1837              	.LBE499:
  47:pitcher.cpp   ****     osc.SetFreq(440.f);
 1838              		.loc 11 47 5 is_stmt 1 view .LVU579
 1839              	.LBB500:
 1840              	.LBI495:
  58:../../DaisySP//Source/Synthesis/oscillator.h ****     {
 1841              		.loc 8 58 17 view .LVU580
 1842              	.LBB497:
  60:../../DaisySP//Source/Synthesis/oscillator.h ****         phase_inc_ = CalcPhaseInc(f);
 1843              		.loc 8 60 9 view .LVU581
  60:../../DaisySP//Source/Synthesis/oscillator.h ****         phase_inc_ = CalcPhaseInc(f);
 1844              		.loc 8 60 20 is_stmt 0 view .LVU582
 1845 01b4 84ED020A 		vstr.32	s0, [r4, #8]
 1846              		.loc 8 61 9 is_stmt 1 view .LVU583
 1847              		.loc 8 61 34 is_stmt 0 view .LVU584
 1848 01b8 FFF7FEFF 		bl	_ZN7daisysp10Oscillator12CalcPhaseIncEf
 1849              	.LVL86:
 1850              	.LBE497:
 1851              	.LBE500:
 1852              	.LBB501:
 1853              	.LBB502:
  62:../../DaisySP//Source/Synthesis/oscillator.h ****     }
  63:../../DaisySP//Source/Synthesis/oscillator.h **** 
  64:../../DaisySP//Source/Synthesis/oscillator.h **** 
  65:../../DaisySP//Source/Synthesis/oscillator.h ****     /** Sets the amplitude of the waveform.
  66:../../DaisySP//Source/Synthesis/oscillator.h ****     */
  67:../../DaisySP//Source/Synthesis/oscillator.h ****     inline void SetAmp(const float a) { amp_ = a; }
  68:../../DaisySP//Source/Synthesis/oscillator.h ****     /** Sets the waveform to be synthesized by the Process() function.
  69:../../DaisySP//Source/Synthesis/oscillator.h ****     */
  70:../../DaisySP//Source/Synthesis/oscillator.h ****     inline void SetWaveform(const uint8_t wf)
  71:../../DaisySP//Source/Synthesis/oscillator.h ****     {
  72:../../DaisySP//Source/Synthesis/oscillator.h ****         waveform_ = wf < WAVE_LAST ? wf : WAVE_SIN;
 1854              		.loc 8 72 19 view .LVU585
 1855 01bc 0123     		movs	r3, #1
 1856              	.LBE502:
 1857              	.LBE501:
  48:pitcher.cpp   ****     osc.SetWaveform(Oscillator::WAVE_TRI);
  49:pitcher.cpp   **** 
  50:pitcher.cpp   ****     // start callback
  51:pitcher.cpp   ****     hw.StartAudio(AudioCallback);
 1858              		.loc 11 51 18 view .LVU586
 1859 01be 1249     		ldr	r1, .L47+56
 1860 01c0 0348     		ldr	r0, .L47
ARM GAS  C:\Users\daniel\AppData\Local\Temp\ccHs5oNB.s 			page 58


 1861              	.LBB504:
 1862              	.LBB498:
  61:../../DaisySP//Source/Synthesis/oscillator.h ****     }
 1863              		.loc 8 61 20 view .LVU587
 1864 01c2 84ED060A 		vstr.32	s0, [r4, #24]
 1865              	.LVL87:
  61:../../DaisySP//Source/Synthesis/oscillator.h ****     }
 1866              		.loc 8 61 20 view .LVU588
 1867              	.LBE498:
 1868              	.LBE504:
  48:pitcher.cpp   ****     osc.SetWaveform(Oscillator::WAVE_TRI);
 1869              		.loc 11 48 5 is_stmt 1 view .LVU589
 1870              	.LBB505:
 1871              	.LBI501:
  70:../../DaisySP//Source/Synthesis/oscillator.h ****     {
 1872              		.loc 8 70 17 view .LVU590
 1873              	.LBB503:
 1874              		.loc 8 72 9 view .LVU591
 1875              		.loc 8 72 19 is_stmt 0 view .LVU592
 1876 01c6 2370     		strb	r3, [r4]
 1877              	.LVL88:
 1878              		.loc 8 72 19 view .LVU593
 1879              	.LBE503:
 1880              	.LBE505:
 1881              		.loc 11 51 5 is_stmt 1 view .LVU594
 1882              		.loc 11 51 18 is_stmt 0 view .LVU595
 1883 01c8 FFF7FEFF 		bl	_ZN5daisy8patch_sm12DaisyPatchSM10StartAudioEPFvPKPKfPPfjE
 1884              	.LVL89:
 1885              	.L41:
  52:pitcher.cpp   **** 
  53:pitcher.cpp   ****     while(1) {
 1886              		.loc 11 53 5 is_stmt 1 discriminator 1 view .LVU596
 1887              		.loc 11 53 5 discriminator 1 view .LVU597
 1888              		.loc 11 53 5 discriminator 1 view .LVU598
 1889              		.loc 11 53 5 discriminator 1 view .LVU599
 1890 01cc FEE7     		b	.L41
 1891              	.L48:
 1892 01ce 00BF     		.align	2
 1893              	.L47:
 1894 01d0 00000000 		.word	.LANCHOR0
 1895 01d4 00000200 		.word	ps+131072
 1896 01d8 0000A040 		.word	1084227584
 1897 01dc 00000000 		.word	ps
 1898 01e0 00004842 		.word	1112014848
 1899 01e4 30000200 		.word	ps+131120
 1900 01e8 18000100 		.word	ps+65560
 1901 01ec 40000200 		.word	ps+131136
 1902 01f0 DB0F4940 		.word	1078530011
 1903 01f4 ABAAAAAA 		.word	-1431655765
 1904 01f8 00008038 		.word	947912704
 1905 01fc 00000000 		.word	.LANCHOR1
 1906 0200 0000C842 		.word	1120403456
 1907 0204 0000DC43 		.word	1138491392
 1908 0208 00000000 		.word	_Z13AudioCallbackPKPKfPPfj
 1909              		.cfi_endproc
 1910              	.LFE4784:
 1912              		.section	.text.startup._GLOBAL__sub_I_hw,"ax",%progbits
ARM GAS  C:\Users\daniel\AppData\Local\Temp\ccHs5oNB.s 			page 59


 1913              		.align	1
 1914              		.p2align 2,,3
 1915              		.syntax unified
 1916              		.thumb
 1917              		.thumb_func
 1918              		.fpu fpv5-d16
 1920              	_GLOBAL__sub_I_hw:
 1921              	.LFB5344:
  54:pitcher.cpp   ****     }
  55:pitcher.cpp   **** }
 1922              		.loc 11 55 1 view -0
 1923              		.cfi_startproc
 1924              		@ args = 0, pretend = 0, frame = 0
 1925              		@ frame_needed = 0, uses_anonymous_args = 0
 1926              	.LBB540:
 1927              	.LBI540:
 1928              		.loc 11 55 1 view .LVU601
 1929              	.LVL90:
 1930              	.LBB541:
 1931              	.LBB542:
 1932              	.LBI542:
  64:../../libDaisy//src/daisy_patch_sm.h ****         ~DaisyPatchSM() {}
 1933              		.loc 1 64 9 view .LVU602
 1934              	.LBB543:
 1935              	.LBB544:
 1936              	.LBI544:
  77:../../libDaisy//src/sys/system.h ****     ~System() {}
 1937              		.loc 7 77 5 view .LVU603
  77:../../libDaisy//src/sys/system.h ****     ~System() {}
 1938              		.loc 7 77 5 is_stmt 0 view .LVU604
 1939              	.LBE544:
 1940              	.LBB545:
 1941              	.LBI545:
 1942              		.file 14 "../../libDaisy//src/per/qspi.h"
   1:../../libDaisy//src/per/qspi.h **** #ifndef DSY_QSPI
   2:../../libDaisy//src/per/qspi.h **** #define DSY_QSPI /**< Macro */
   3:../../libDaisy//src/per/qspi.h **** 
   4:../../libDaisy//src/per/qspi.h **** #ifndef UNIT_TEST // for unit tests, a dummy implementation
   5:../../libDaisy//src/per/qspi.h **** 
   6:../../libDaisy//src/per/qspi.h **** #include <cstdint>
   7:../../libDaisy//src/per/qspi.h **** #include "daisy_core.h" // Added for dsy_gpio_pin typedef
   8:../../libDaisy//src/per/qspi.h **** 
   9:../../libDaisy//src/per/qspi.h **** #define DSY_QSPI_TEXT       \
  10:../../libDaisy//src/per/qspi.h ****     __attribute__((section( \
  11:../../libDaisy//src/per/qspi.h ****         ".qspiflash_text"))) /**< used for reading memory in memory_mapped mode. */
  12:../../libDaisy//src/per/qspi.h **** #define DSY_QSPI_DATA       \
  13:../../libDaisy//src/per/qspi.h ****     __attribute__((section( \
  14:../../libDaisy//src/per/qspi.h ****         ".qspiflash_data"))) /**< used for reading memory in memory_mapped mode. */
  15:../../libDaisy//src/per/qspi.h **** #define DSY_QSPI_BSS        \
  16:../../libDaisy//src/per/qspi.h ****     __attribute__((section( \
  17:../../libDaisy//src/per/qspi.h ****         ".qspiflash_bss"))) /**< used for reading memory in memory_mapped mode. */
  18:../../libDaisy//src/per/qspi.h **** 
  19:../../libDaisy//src/per/qspi.h **** namespace daisy
  20:../../libDaisy//src/per/qspi.h **** {
  21:../../libDaisy//src/per/qspi.h **** /** @addtogroup serial
  22:../../libDaisy//src/per/qspi.h **** @{
  23:../../libDaisy//src/per/qspi.h **** */
ARM GAS  C:\Users\daniel\AppData\Local\Temp\ccHs5oNB.s 			page 60


  24:../../libDaisy//src/per/qspi.h **** 
  25:../../libDaisy//src/per/qspi.h **** /** 
  26:../../libDaisy//src/per/qspi.h ****  Driver for QSPI peripheral to interface with external flash memory. \n 
  27:../../libDaisy//src/per/qspi.h ****     Currently supported QSPI Devices: \n 
  28:../../libDaisy//src/per/qspi.h ****     * IS25LP080D
  29:../../libDaisy//src/per/qspi.h **** */
  30:../../libDaisy//src/per/qspi.h **** class QSPIHandle
  31:../../libDaisy//src/per/qspi.h **** {
  32:../../libDaisy//src/per/qspi.h ****   public:
  33:../../libDaisy//src/per/qspi.h ****     enum Result
  34:../../libDaisy//src/per/qspi.h ****     {
  35:../../libDaisy//src/per/qspi.h ****         OK = 0,
  36:../../libDaisy//src/per/qspi.h ****         ERR
  37:../../libDaisy//src/per/qspi.h ****     };
  38:../../libDaisy//src/per/qspi.h **** 
  39:../../libDaisy//src/per/qspi.h ****     /** Indicates the current status of the module. 
  40:../../libDaisy//src/per/qspi.h ****          *  Warnings are indicated by a leading W.
  41:../../libDaisy//src/per/qspi.h ****          *  Errors are indicated by a leading E and cause an immediate exit.
  42:../../libDaisy//src/per/qspi.h ****          * 
  43:../../libDaisy//src/per/qspi.h ****          *  \param GOOD - No errors have been reported.
  44:../../libDaisy//src/per/qspi.h ****          *  \param E_HAL_ERROR - HAL code did not return HAL_OK.
  45:../../libDaisy//src/per/qspi.h ****          *  \param E_SWITCHING_MODES - An error was encountered while switching QSPI peripheral mod
  46:../../libDaisy//src/per/qspi.h ****          *  \param E_INVALID_MODE - QSPI should not be written to while the program is executing fr
  47:../../libDaisy//src/per/qspi.h ****          */
  48:../../libDaisy//src/per/qspi.h ****     enum Status
  49:../../libDaisy//src/per/qspi.h ****     {
  50:../../libDaisy//src/per/qspi.h ****         GOOD = 0,
  51:../../libDaisy//src/per/qspi.h ****         E_HAL_ERROR,
  52:../../libDaisy//src/per/qspi.h ****         E_SWITCHING_MODES,
  53:../../libDaisy//src/per/qspi.h ****         E_INVALID_MODE,
  54:../../libDaisy//src/per/qspi.h ****     };
  55:../../libDaisy//src/per/qspi.h **** 
  56:../../libDaisy//src/per/qspi.h ****     /** Configuration structure for interfacing with QSPI Driver */
  57:../../libDaisy//src/per/qspi.h ****     struct Config
  58:../../libDaisy//src/per/qspi.h ****     {
  59:../../libDaisy//src/per/qspi.h ****         /** Flash Devices supported. (Both of these are more-or-less the same, just different sizes
  60:../../libDaisy//src/per/qspi.h ****         enum Device
  61:../../libDaisy//src/per/qspi.h ****         {
  62:../../libDaisy//src/per/qspi.h ****             IS25LP080D,  /**< & */
  63:../../libDaisy//src/per/qspi.h ****             IS25LP064A,  /**< & */
  64:../../libDaisy//src/per/qspi.h ****             DEVICE_LAST, /**< & */
  65:../../libDaisy//src/per/qspi.h ****         };
  66:../../libDaisy//src/per/qspi.h **** 
  67:../../libDaisy//src/per/qspi.h ****         /** 
  68:../../libDaisy//src/per/qspi.h ****         Modes of operation.
  69:../../libDaisy//src/per/qspi.h ****         Memory Mapped mode: QSPI configured so that the QSPI can be
  70:../../libDaisy//src/per/qspi.h ****         read from starting address 0x90000000. Writing is not
  71:../../libDaisy//src/per/qspi.h ****         possible in this mode. \n 
  72:../../libDaisy//src/per/qspi.h ****         Indirect Polling mode: Device driver enabled. 
  73:../../libDaisy//src/per/qspi.h ****         */
  74:../../libDaisy//src/per/qspi.h ****         enum Mode
  75:../../libDaisy//src/per/qspi.h ****         {
  76:../../libDaisy//src/per/qspi.h ****             MEMORY_MAPPED,    /**< & */
  77:../../libDaisy//src/per/qspi.h ****             INDIRECT_POLLING, /**< & */
  78:../../libDaisy//src/per/qspi.h ****             MODE_LAST,
  79:../../libDaisy//src/per/qspi.h ****         };
  80:../../libDaisy//src/per/qspi.h **** 
ARM GAS  C:\Users\daniel\AppData\Local\Temp\ccHs5oNB.s 			page 61


  81:../../libDaisy//src/per/qspi.h ****         //SCK,  CE# (active low)
  82:../../libDaisy//src/per/qspi.h ****         struct
  83:../../libDaisy//src/per/qspi.h ****         {
  84:../../libDaisy//src/per/qspi.h ****             dsy_gpio_pin io0; /**< & */
  85:../../libDaisy//src/per/qspi.h ****             dsy_gpio_pin io1; /**< & */
  86:../../libDaisy//src/per/qspi.h ****             dsy_gpio_pin io2; /**< & */
  87:../../libDaisy//src/per/qspi.h ****             dsy_gpio_pin io3; /**< & */
  88:../../libDaisy//src/per/qspi.h ****             dsy_gpio_pin clk; /**< & */
  89:../../libDaisy//src/per/qspi.h ****             dsy_gpio_pin ncs; /**< & */
  90:../../libDaisy//src/per/qspi.h ****         } pin_config;
  91:../../libDaisy//src/per/qspi.h **** 
  92:../../libDaisy//src/per/qspi.h ****         Device device;
  93:../../libDaisy//src/per/qspi.h ****         Mode   mode;
  94:../../libDaisy//src/per/qspi.h ****     };
  95:../../libDaisy//src/per/qspi.h **** 
  96:../../libDaisy//src/per/qspi.h ****     /** 
  97:../../libDaisy//src/per/qspi.h ****         Initializes QSPI peripheral, and Resets, and prepares memory for access.
  98:../../libDaisy//src/per/qspi.h ****         \param config should be populated with the mode, device and pin_config before calling this 
  99:../../libDaisy//src/per/qspi.h ****         \return Result::OK or Result::ERR
 100:../../libDaisy//src/per/qspi.h ****         */
 101:../../libDaisy//src/per/qspi.h ****     Result Init(const Config& config);
 102:../../libDaisy//src/per/qspi.h **** 
 103:../../libDaisy//src/per/qspi.h ****     /** Returns the current config. */
 104:../../libDaisy//src/per/qspi.h ****     const Config& GetConfig() const;
 105:../../libDaisy//src/per/qspi.h **** 
 106:../../libDaisy//src/per/qspi.h ****     // Couldn't this just be called before anything else in init? That
 107:../../libDaisy//src/per/qspi.h ****     // would make manually calling it unnecessary.
 108:../../libDaisy//src/per/qspi.h ****     /** 
 109:../../libDaisy//src/per/qspi.h ****         Deinitializes the peripheral
 110:../../libDaisy//src/per/qspi.h ****         This should be called before reinitializing QSPI in a different mode.
 111:../../libDaisy//src/per/qspi.h ****         \return Result::OK or Result::ERR
 112:../../libDaisy//src/per/qspi.h ****         */
 113:../../libDaisy//src/per/qspi.h ****     Result DeInit();
 114:../../libDaisy//src/per/qspi.h **** 
 115:../../libDaisy//src/per/qspi.h ****     /** 
 116:../../libDaisy//src/per/qspi.h ****         Writes a single page to to the specified address on the QSPI chip.
 117:../../libDaisy//src/per/qspi.h ****         For IS25LP*, page size is 256 bytes.
 118:../../libDaisy//src/per/qspi.h ****         \param address Address to write to
 119:../../libDaisy//src/per/qspi.h ****         \param size Buffer size
 120:../../libDaisy//src/per/qspi.h ****         \param buffer Buffer to write
 121:../../libDaisy//src/per/qspi.h ****         \return Result::OK or Result::ERR
 122:../../libDaisy//src/per/qspi.h ****         */
 123:../../libDaisy//src/per/qspi.h ****     Result WritePage(uint32_t address, uint32_t size, uint8_t* buffer);
 124:../../libDaisy//src/per/qspi.h **** 
 125:../../libDaisy//src/per/qspi.h ****     /** 
 126:../../libDaisy//src/per/qspi.h ****         Writes data in buffer to to the QSPI. Starting at address to address+size 
 127:../../libDaisy//src/per/qspi.h ****         \param address Address to write to
 128:../../libDaisy//src/per/qspi.h ****         \param size Buffer size
 129:../../libDaisy//src/per/qspi.h ****         \param buffer Buffer to write
 130:../../libDaisy//src/per/qspi.h ****         \return Result::OK or Result::ERR
 131:../../libDaisy//src/per/qspi.h ****         */
 132:../../libDaisy//src/per/qspi.h ****     Result Write(uint32_t address, uint32_t size, uint8_t* buffer);
 133:../../libDaisy//src/per/qspi.h **** 
 134:../../libDaisy//src/per/qspi.h ****     /** 
 135:../../libDaisy//src/per/qspi.h ****         Erases the area specified on the chip.
 136:../../libDaisy//src/per/qspi.h ****         Erasures will happen by 4K, 32K or 64K increments.
 137:../../libDaisy//src/per/qspi.h ****         Smallest erase possible is 4kB at a time. (on IS25LP*)
ARM GAS  C:\Users\daniel\AppData\Local\Temp\ccHs5oNB.s 			page 62


 138:../../libDaisy//src/per/qspi.h ****         \param start_addr Address to begin erasing from
 139:../../libDaisy//src/per/qspi.h ****         \param end_addr  Address to stop erasing at
 140:../../libDaisy//src/per/qspi.h ****         \return Result::OK or Result::ERR
 141:../../libDaisy//src/per/qspi.h ****         */
 142:../../libDaisy//src/per/qspi.h ****     Result Erase(uint32_t start_addr, uint32_t end_addr);
 143:../../libDaisy//src/per/qspi.h **** 
 144:../../libDaisy//src/per/qspi.h ****     /**  
 145:../../libDaisy//src/per/qspi.h ****          Erases a single sector of the chip.  
 146:../../libDaisy//src/per/qspi.h ****         TODO: Document the size of this function. 
 147:../../libDaisy//src/per/qspi.h ****         \param address Address of sector to erase
 148:../../libDaisy//src/per/qspi.h ****         \return Result::OK or Result::ERR
 149:../../libDaisy//src/per/qspi.h ****         */
 150:../../libDaisy//src/per/qspi.h ****     Result EraseSector(uint32_t address);
 151:../../libDaisy//src/per/qspi.h **** 
 152:../../libDaisy//src/per/qspi.h ****     /** Returns the current class status. Useful for debugging.
 153:../../libDaisy//src/per/qspi.h ****      *  \returns Status
 154:../../libDaisy//src/per/qspi.h ****      */
 155:../../libDaisy//src/per/qspi.h ****     Status GetStatus();
 156:../../libDaisy//src/per/qspi.h **** 
 157:../../libDaisy//src/per/qspi.h ****     /** Returns a pointer to the actual memory used 
 158:../../libDaisy//src/per/qspi.h ****      *  The memory at this address is read-only
 159:../../libDaisy//src/per/qspi.h ****      *  to write to it use the Write function.
 160:../../libDaisy//src/per/qspi.h ****      * 
 161:../../libDaisy//src/per/qspi.h ****      *  \param offset returns the pointer starting this 
 162:../../libDaisy//src/per/qspi.h ****      *                many bytes into the memory
 163:../../libDaisy//src/per/qspi.h ****     */
 164:../../libDaisy//src/per/qspi.h ****     void* GetData(uint32_t offset = 0);
 165:../../libDaisy//src/per/qspi.h **** 
 166:../../libDaisy//src/per/qspi.h ****     QSPIHandle() : pimpl_(nullptr) {}
 1943              		.loc 14 166 5 is_stmt 1 view .LVU605
 1944              	.LBE545:
 1945              	.LBE543:
 1946              	.LBE542:
 1947              	.LBE541:
 1948              	.LBE540:
 1949              		.loc 11 55 1 is_stmt 0 view .LVU606
 1950 0000 08B5     		push	{r3, lr}
 1951              		.cfi_def_cfa_offset 8
 1952              		.cfi_offset 3, -8
 1953              		.cfi_offset 14, -4
 1954              	.LBB582:
 1955              	.LBB578:
 1956              	.LBB572:
 1957              	.LBB568:
 1958              	.LBB548:
 1959              	.LBB546:
 1960              	.LBB547:
 1961              		.loc 14 166 34 view .LVU607
 1962 0002 0B48     		ldr	r0, .L51
 1963 0004 0023     		movs	r3, #0
 1964              	.LBE547:
 1965              	.LBE546:
 1966              	.LBE548:
 1967              	.LBE568:
 1968              	.LBE572:
   8:pitcher.cpp   **** PitchShifter ps;
 1969              		.loc 11 8 14 view .LVU608
ARM GAS  C:\Users\daniel\AppData\Local\Temp\ccHs5oNB.s 			page 63


 1970 0006 0B4A     		ldr	r2, .L51+4
 1971              	.LBB573:
 1972              	.LBB569:
 1973              	.LBB549:
 1974              	.LBB550:
 1975              	.LBB551:
 1976              	.LBB552:
 1977              	.LBB553:
 1978              		.file 15 "../../libDaisy//src/per/i2c.h"
   1:../../libDaisy//src/per/i2c.h **** #pragma once
   2:../../libDaisy//src/per/i2c.h **** #include "daisy_core.h"
   3:../../libDaisy//src/per/i2c.h **** 
   4:../../libDaisy//src/per/i2c.h **** namespace daisy
   5:../../libDaisy//src/per/i2c.h **** {
   6:../../libDaisy//src/per/i2c.h **** /** A handle for interacting with an I2C peripheral. This is a dumb
   7:../../libDaisy//src/per/i2c.h ****  *  gateway that internally points to one of the four I2C peripherals
   8:../../libDaisy//src/per/i2c.h ****  *  after it was initialised. It can then be copied and passed around.
   9:../../libDaisy//src/per/i2c.h ****  *  Use an I2CHandle like this:
  10:../../libDaisy//src/per/i2c.h ****  *  
  11:../../libDaisy//src/per/i2c.h ****  *      // setup the configuration
  12:../../libDaisy//src/per/i2c.h ****  *      I2CHandle::Config i2c_conf;
  13:../../libDaisy//src/per/i2c.h ****  *      i2c_conf.periph = I2CHandle::Config::Peripheral::I2C_1;
  14:../../libDaisy//src/per/i2c.h ****  *      i2c_conf.speed  = I2CHandle::Config::Speed::I2C_400KHZ;
  15:../../libDaisy//src/per/i2c.h ****  *      i2c_conf.mode   = I2CHandle::Config::Mode::Master;
  16:../../libDaisy//src/per/i2c.h ****  *      i2c_conf.pin_config.scl  = {DSY_GPIOB, 8};
  17:../../libDaisy//src/per/i2c.h ****  *      i2c_conf.pin_config.sda  = {DSY_GPIOB, 9};
  18:../../libDaisy//src/per/i2c.h ****  *      // initialise the peripheral
  19:../../libDaisy//src/per/i2c.h ****  *      I2CHandle i2c;
  20:../../libDaisy//src/per/i2c.h ****  *      i2c.Init(i2c_conf);
  21:../../libDaisy//src/per/i2c.h ****  *      // now i2c points to the corresponding peripheral and can be used.
  22:../../libDaisy//src/per/i2c.h ****  *      i2c.TransmitBlocking( ... );
  23:../../libDaisy//src/per/i2c.h ****  */
  24:../../libDaisy//src/per/i2c.h **** class I2CHandle
  25:../../libDaisy//src/per/i2c.h **** {
  26:../../libDaisy//src/per/i2c.h ****   public:
  27:../../libDaisy//src/per/i2c.h ****     /** Contains settings for initialising an I2C interface. */
  28:../../libDaisy//src/per/i2c.h ****     struct Config
  29:../../libDaisy//src/per/i2c.h ****     {
  30:../../libDaisy//src/per/i2c.h ****         /** Specifies whether the interface will operate in master or slave mode. */
  31:../../libDaisy//src/per/i2c.h ****         enum class Mode
  32:../../libDaisy//src/per/i2c.h ****         {
  33:../../libDaisy//src/per/i2c.h ****             I2C_MASTER,
  34:../../libDaisy//src/per/i2c.h ****             I2C_SLAVE,
  35:../../libDaisy//src/per/i2c.h ****         };
  36:../../libDaisy//src/per/i2c.h **** 
  37:../../libDaisy//src/per/i2c.h ****         /** Specifices the internal peripheral to use (these are mapped to different pins on the ha
  38:../../libDaisy//src/per/i2c.h ****         enum class Peripheral
  39:../../libDaisy//src/per/i2c.h ****         {
  40:../../libDaisy//src/per/i2c.h ****             I2C_1 = 0, /**< & */
  41:../../libDaisy//src/per/i2c.h ****             I2C_2,     /**< & */
  42:../../libDaisy//src/per/i2c.h ****             I2C_3,     /**< & */
  43:../../libDaisy//src/per/i2c.h ****             I2C_4,     /**< & */
  44:../../libDaisy//src/per/i2c.h ****         };
  45:../../libDaisy//src/per/i2c.h **** 
  46:../../libDaisy//src/per/i2c.h ****         /** Rate at which the clock/data will be sent/received. The device being used will have max
  47:../../libDaisy//src/per/i2c.h ****          *  1MHZ Mode is currently 886kHz
  48:../../libDaisy//src/per/i2c.h ****          */
ARM GAS  C:\Users\daniel\AppData\Local\Temp\ccHs5oNB.s 			page 64


  49:../../libDaisy//src/per/i2c.h ****         enum class Speed
  50:../../libDaisy//src/per/i2c.h ****         {
  51:../../libDaisy//src/per/i2c.h ****             I2C_100KHZ, /**< & */
  52:../../libDaisy//src/per/i2c.h ****             I2C_400KHZ, /**< & */
  53:../../libDaisy//src/per/i2c.h ****             I2C_1MHZ,   /**< & */
  54:../../libDaisy//src/per/i2c.h ****         };
  55:../../libDaisy//src/per/i2c.h **** 
  56:../../libDaisy//src/per/i2c.h ****         Peripheral periph; /**< & */
  57:../../libDaisy//src/per/i2c.h ****         struct
  58:../../libDaisy//src/per/i2c.h ****         {
  59:../../libDaisy//src/per/i2c.h ****             dsy_gpio_pin scl; /**< & */
  60:../../libDaisy//src/per/i2c.h ****             dsy_gpio_pin sda; /**< & */
  61:../../libDaisy//src/per/i2c.h ****         } pin_config;         /**< & */
  62:../../libDaisy//src/per/i2c.h **** 
  63:../../libDaisy//src/per/i2c.h ****         Speed speed; /**< & */
  64:../../libDaisy//src/per/i2c.h ****         Mode  mode;  /**< & */
  65:../../libDaisy//src/per/i2c.h ****         // 0x10 is chosen as a default to avoid conflicts with reserved addresses
  66:../../libDaisy//src/per/i2c.h ****         uint8_t address = 0x10; /**< & */
  67:../../libDaisy//src/per/i2c.h ****     };
  68:../../libDaisy//src/per/i2c.h **** 
  69:../../libDaisy//src/per/i2c.h ****     /** Return values for I2C functions. */
  70:../../libDaisy//src/per/i2c.h ****     enum class Result
  71:../../libDaisy//src/per/i2c.h ****     {
  72:../../libDaisy//src/per/i2c.h ****         OK, /**< & */
  73:../../libDaisy//src/per/i2c.h ****         ERR /**< & */
  74:../../libDaisy//src/per/i2c.h ****     };
  75:../../libDaisy//src/per/i2c.h **** 
  76:../../libDaisy//src/per/i2c.h ****     enum class Direction
  77:../../libDaisy//src/per/i2c.h ****     {
  78:../../libDaisy//src/per/i2c.h ****         TRANSMIT, /**< & */
  79:../../libDaisy//src/per/i2c.h ****         RECEIVE,  /**< & */
  80:../../libDaisy//src/per/i2c.h ****     };
  81:../../libDaisy//src/per/i2c.h **** 
  82:../../libDaisy//src/per/i2c.h ****     I2CHandle() : pimpl_(nullptr) {}
 1979              		.loc 15 82 33 view .LVU609
 1980 0008 0362     		str	r3, [r0, #32]
 1981              	.LBE553:
 1982              	.LBE552:
 1983              	.LBE551:
 1984              	.LBE550:
 1985              	.LBE549:
 1986              	.LBB556:
 1987              	.LBB557:
 1988              	.LBB558:
 1989              		.file 16 "../../libDaisy//src/per/dac.h"
   1:../../libDaisy//src/per/dac.h **** #pragma once
   2:../../libDaisy//src/per/dac.h **** #ifndef DSY_DAC_H
   3:../../libDaisy//src/per/dac.h **** #define DSY_DAC_H
   4:../../libDaisy//src/per/dac.h **** 
   5:../../libDaisy//src/per/dac.h **** #include "daisy_core.h"
   6:../../libDaisy//src/per/dac.h **** 
   7:../../libDaisy//src/per/dac.h **** namespace daisy
   8:../../libDaisy//src/per/dac.h **** {
   9:../../libDaisy//src/per/dac.h **** /** @brief DAC handle for Built-in DAC Peripheral 
  10:../../libDaisy//src/per/dac.h ****  *  @ingroup per_analog
  11:../../libDaisy//src/per/dac.h ****  ** 
  12:../../libDaisy//src/per/dac.h ****  ** For now only Normal Mode is supported,
ARM GAS  C:\Users\daniel\AppData\Local\Temp\ccHs5oNB.s 			page 65


  13:../../libDaisy//src/per/dac.h ****  ** Sample and hold mode provides reduced power consumption, but requires a bit more setup.
  14:../../libDaisy//src/per/dac.h ****  **
  15:../../libDaisy//src/per/dac.h ****  ** For now connecting the DAC through other internal peripherals is also not supported.
  16:../../libDaisy//src/per/dac.h ****  **
  17:../../libDaisy//src/per/dac.h ****  ** Since the DAC channels have dedicated pins we don't need to pass in a pin config like with
  18:../../libDaisy//src/per/dac.h ****  ** other modules. However, it is still important to not try to use the DAC pins for anything else.
  19:../../libDaisy//src/per/dac.h ****  ** DAC Channel 1 is on PA4, and DAC Channel 2 is on PA5
  20:../../libDaisy//src/per/dac.h ****  ***/
  21:../../libDaisy//src/per/dac.h **** class DacHandle
  22:../../libDaisy//src/per/dac.h **** {
  23:../../libDaisy//src/per/dac.h ****   public:
  24:../../libDaisy//src/per/dac.h ****     /** Return Values for the DacHandle class */
  25:../../libDaisy//src/per/dac.h ****     enum class Result
  26:../../libDaisy//src/per/dac.h ****     {
  27:../../libDaisy//src/per/dac.h ****         OK,
  28:../../libDaisy//src/per/dac.h ****         ERR,
  29:../../libDaisy//src/per/dac.h ****     };
  30:../../libDaisy//src/per/dac.h **** 
  31:../../libDaisy//src/per/dac.h ****     /** Selects which channel(s) will be configured for use. */
  32:../../libDaisy//src/per/dac.h ****     enum class Channel
  33:../../libDaisy//src/per/dac.h ****     {
  34:../../libDaisy//src/per/dac.h ****         ONE,
  35:../../libDaisy//src/per/dac.h ****         TWO,
  36:../../libDaisy//src/per/dac.h ****         BOTH,
  37:../../libDaisy//src/per/dac.h ****     };
  38:../../libDaisy//src/per/dac.h **** 
  39:../../libDaisy//src/per/dac.h ****     /** Sets the Mode for the DAC channels.
  40:../../libDaisy//src/per/dac.h ****      **
  41:../../libDaisy//src/per/dac.h ****      ** Polling mode uses the blocking mode to transmit a single value at a time.
  42:../../libDaisy//src/per/dac.h ****      **
  43:../../libDaisy//src/per/dac.h ****      ** DMA mode uses a buffer, and periodically transmits it triggering a 
  44:../../libDaisy//src/per/dac.h ****      ** callback to fill the buffer when it is ready for more samples.
  45:../../libDaisy//src/per/dac.h ****      ***/
  46:../../libDaisy//src/per/dac.h ****     enum class Mode
  47:../../libDaisy//src/per/dac.h ****     {
  48:../../libDaisy//src/per/dac.h ****         POLLING,
  49:../../libDaisy//src/per/dac.h ****         DMA,
  50:../../libDaisy//src/per/dac.h ****     };
  51:../../libDaisy//src/per/dac.h **** 
  52:../../libDaisy//src/per/dac.h ****     /** Sets the number of bits per sample transmitted out of the DAC.
  53:../../libDaisy//src/per/dac.h ****      ** The output range will be: 0V - VDDA
  54:../../libDaisy//src/per/dac.h ****      ** The resolution will be roughly: bitdepth / (VDDA - 0V) 
  55:../../libDaisy//src/per/dac.h ****      ***/
  56:../../libDaisy//src/per/dac.h ****     enum class BitDepth
  57:../../libDaisy//src/per/dac.h ****     {
  58:../../libDaisy//src/per/dac.h ****         BITS_8,
  59:../../libDaisy//src/per/dac.h ****         BITS_12
  60:../../libDaisy//src/per/dac.h ****     };
  61:../../libDaisy//src/per/dac.h **** 
  62:../../libDaisy//src/per/dac.h ****     /** Sets whether the DAC output is buffered for higher drive ability. */
  63:../../libDaisy//src/per/dac.h ****     enum class BufferState
  64:../../libDaisy//src/per/dac.h ****     {
  65:../../libDaisy//src/per/dac.h ****         ENABLED,
  66:../../libDaisy//src/per/dac.h ****         DISABLED,
  67:../../libDaisy//src/per/dac.h ****     };
  68:../../libDaisy//src/per/dac.h **** 
  69:../../libDaisy//src/per/dac.h ****     /** Configuration structure for initializing the DAC structure. */
ARM GAS  C:\Users\daniel\AppData\Local\Temp\ccHs5oNB.s 			page 66


  70:../../libDaisy//src/per/dac.h ****     struct Config
  71:../../libDaisy//src/per/dac.h ****     {
  72:../../libDaisy//src/per/dac.h ****         /** Target Samplerate in Hz used to configure the internal 
  73:../../libDaisy//src/per/dac.h ****          ** timebase for DMA mode. Does nothing in POLLING mode.
  74:../../libDaisy//src/per/dac.h ****          ** If the value is 0 at Init time this will default to 48000Hz 
  75:../../libDaisy//src/per/dac.h ****          ** otherwise the driver will attempt meet the target.*/
  76:../../libDaisy//src/per/dac.h ****         uint32_t target_samplerate;
  77:../../libDaisy//src/per/dac.h **** 
  78:../../libDaisy//src/per/dac.h ****         Channel     chn;
  79:../../libDaisy//src/per/dac.h ****         Mode        mode;
  80:../../libDaisy//src/per/dac.h ****         BitDepth    bitdepth;
  81:../../libDaisy//src/per/dac.h ****         BufferState buff_state;
  82:../../libDaisy//src/per/dac.h ****     };
  83:../../libDaisy//src/per/dac.h **** 
  84:../../libDaisy//src/per/dac.h ****     DacHandle() : pimpl_(nullptr) {}
 1990              		.loc 16 84 33 view .LVU610
 1991 000a 8362     		str	r3, [r0, #40]
 1992              	.LBE558:
 1993              	.LBE557:
 1994              	.LBE556:
 1995              	.LBE569:
 1996              	.LBE573:
   8:pitcher.cpp   **** PitchShifter ps;
 1997              		.loc 11 8 14 view .LVU611
 1998 000c 0A49     		ldr	r1, .L51+8
 1999              	.LBB574:
 2000              	.LBB570:
 2001              	.LBB559:
 2002              	.LBB560:
 2003              	.LBB561:
  95:../../libDaisy//src/hid/audio.h ****     ~AudioHandle() {}
 2004              		.loc 6 95 35 view .LVU612
 2005 000e C0E90333 		strd	r3, r3, [r0, #12]
 2006              	.LVL91:
  95:../../libDaisy//src/hid/audio.h ****     ~AudioHandle() {}
 2007              		.loc 6 95 35 view .LVU613
 2008              	.LBE561:
 2009              	.LBE560:
 2010              	.LBE559:
 2011              	.LBB562:
 2012              	.LBI562:
  92:../../libDaisy//src/per/adc.h ****     ~AdcHandle() {}
 2013              		.loc 5 92 5 is_stmt 1 view .LVU614
  92:../../libDaisy//src/per/adc.h ****     ~AdcHandle() {}
 2014              		.loc 5 92 5 is_stmt 0 view .LVU615
 2015              	.LBE562:
 2016              	.LBB563:
 2017              	.LBI563:
  40:../../libDaisy//src/hid/usb.h **** 
 2018              		.loc 4 40 5 is_stmt 1 view .LVU616
  40:../../libDaisy//src/hid/usb.h **** 
 2019              		.loc 4 40 5 is_stmt 0 view .LVU617
 2020              	.LBE563:
 2021              	.LBB564:
 2022              	.LBI549:
  28:../../libDaisy//src/dev/codec_pcm3060.h ****     ~Pcm3060() {}
 2023              		.loc 3 28 5 is_stmt 1 view .LVU618
ARM GAS  C:\Users\daniel\AppData\Local\Temp\ccHs5oNB.s 			page 67


 2024              	.LBB555:
 2025              	.LBB554:
 2026              	.LBI551:
 2027              		.loc 15 82 5 view .LVU619
 2028              		.loc 15 82 5 is_stmt 0 view .LVU620
 2029              	.LBE554:
 2030              	.LBE555:
 2031              	.LBE564:
 2032              	.LBB565:
 2033              	.LBI556:
 2034              		.loc 16 84 5 is_stmt 1 view .LVU621
 2035              		.loc 16 84 5 is_stmt 0 view .LVU622
 2036              	.LBE565:
 2037              	.LBE570:
 2038              	.LBE574:
 2039              	.LBE578:
 2040              	.LBE582:
  64:../../libDaisy//src/daisy_patch_sm.h ****         ~DaisyPatchSM() {}
 2041              		.loc 1 64 24 is_stmt 1 view .LVU623
 2042              	.LBB583:
 2043              	.LBB579:
 2044              	.LBB575:
 2045              	.LBB571:
 2046              	.LBB566:
 2047              	.LBI566:
  20:../../libDaisy//src/hid/gatein.h ****     /** GateIn~
 2048              		.loc 2 20 5 view .LVU624
  20:../../libDaisy//src/hid/gatein.h ****     /** GateIn~
 2049              		.loc 2 20 5 is_stmt 0 view .LVU625
 2050              	.LBE566:
 2051              	.LBB567:
 2052              	.LBI567:
  20:../../libDaisy//src/hid/gatein.h ****     /** GateIn~
 2053              		.loc 2 20 5 is_stmt 1 view .LVU626
  20:../../libDaisy//src/hid/gatein.h ****     /** GateIn~
 2054              		.loc 2 20 5 is_stmt 0 view .LVU627
 2055              	.LBE567:
 2056              	.LBE571:
 2057              	.LBE575:
   8:pitcher.cpp   **** PitchShifter ps;
 2058              		.loc 11 8 14 view .LVU628
 2059 0012 FFF7FEFF 		bl	__aeabi_atexit
 2060              	.LVL92:
 2061              	.LBB576:
 2062              	.LBI576:
  59:../../DaisySP//Source/Effects/pitchshifter.h ****     ~PitchShifter() {}
 2063              		.loc 9 59 5 is_stmt 1 view .LVU629
 2064              	.LBE576:
 2065              	.LBE579:
 2066              	.LBE583:
  59:../../DaisySP//Source/Effects/pitchshifter.h ****     ~PitchShifter() {}
 2067              		.loc 9 59 20 view .LVU630
  59:../../DaisySP//Source/Effects/pitchshifter.h ****     ~PitchShifter() {}
 2068              		.loc 9 59 20 view .LVU631
 2069              	.LBB584:
 2070              	.LBB580:
   9:pitcher.cpp   **** Oscillator   osc;
ARM GAS  C:\Users\daniel\AppData\Local\Temp\ccHs5oNB.s 			page 68


 2071              		.loc 11 9 14 is_stmt 0 view .LVU632
 2072 0016 074A     		ldr	r2, .L51+4
 2073 0018 0849     		ldr	r1, .L51+12
 2074 001a 0948     		ldr	r0, .L51+16
 2075 001c FFF7FEFF 		bl	__aeabi_atexit
 2076              	.LVL93:
 2077              	.LBB577:
 2078              	.LBI577:
  15:../../DaisySP//Source/Synthesis/oscillator.h ****     ~Oscillator() {}
 2079              		.loc 8 15 5 is_stmt 1 view .LVU633
  15:../../DaisySP//Source/Synthesis/oscillator.h ****     ~Oscillator() {}
 2080              		.loc 8 15 5 is_stmt 0 view .LVU634
 2081              	.LBE577:
  10:pitcher.cpp   **** 
 2082              		.loc 11 10 14 view .LVU635
 2083 0020 044A     		ldr	r2, .L51+4
 2084 0022 0849     		ldr	r1, .L51+20
 2085 0024 0848     		ldr	r0, .L51+24
 2086              	.LBE580:
 2087              	.LBE584:
 2088              		.loc 11 55 1 view .LVU636
 2089 0026 BDE80840 		pop	{r3, lr}
 2090              		.cfi_restore 14
 2091              		.cfi_restore 3
 2092              		.cfi_def_cfa_offset 0
 2093              	.LBB585:
 2094              	.LBB581:
  10:pitcher.cpp   **** 
 2095              		.loc 11 10 14 view .LVU637
 2096 002a FFF7FEBF 		b	__aeabi_atexit
 2097              	.LVL94:
 2098              	.L52:
 2099 002e 00BF     		.align	2
 2100              	.L51:
 2101 0030 00000000 		.word	.LANCHOR0
 2102 0034 00000000 		.word	__dso_handle
 2103 0038 00000000 		.word	_ZN5daisy8patch_sm12DaisyPatchSMD1Ev
 2104 003c 00000000 		.word	_ZN7daisysp12PitchShifterD1Ev
 2105 0040 00000000 		.word	ps
 2106 0044 00000000 		.word	_ZN7daisysp10OscillatorD1Ev
 2107 0048 00000000 		.word	.LANCHOR1
 2108              	.LBE581:
 2109              	.LBE585:
 2110              		.cfi_endproc
 2111              	.LFE5344:
 2113              		.section	.init_array,"aw",%init_array
 2114              		.align	2
 2115 0000 00000000 		.word	_GLOBAL__sub_I_hw(target1)
 2116              		.global	osc
 2117              		.global	ps
 2118              		.global	hw
 2119              		.weak	_ZZN7daisysp6myrandEvE4seed
 2120              		.section	.data._ZZN7daisysp6myrandEvE4seed,"awG",%progbits,_ZZN7daisysp6myrandEvE4seed,comdat
 2121              		.align	2
 2124              	_ZZN7daisysp6myrandEvE4seed:
 2125 0000 01000000 		.word	1
 2126              		.section	.bss.hw,"aw",%nobits
ARM GAS  C:\Users\daniel\AppData\Local\Temp\ccHs5oNB.s 			page 69


 2127              		.align	2
 2128              		.set	.LANCHOR0,. + 0
 2131              	hw:
 2132 0000 00000000 		.space	464
 2132      00000000 
 2132      00000000 
 2132      00000000 
 2132      00000000 
 2133              		.section	.bss.osc,"aw",%nobits
 2134              		.align	2
 2135              		.set	.LANCHOR1,. + 0
 2138              	osc:
 2139 0000 00000000 		.space	40
 2139      00000000 
 2139      00000000 
 2139      00000000 
 2139      00000000 
 2140              		.section	.bss.ps,"aw",%nobits
 2141              		.align	2
 2144              	ps:
 2145 0000 00000000 		.space	131256
 2145      00000000 
 2145      00000000 
 2145      00000000 
 2145      00000000 
 2146              		.text
 2147              	.Letext0:
 2148              		.file 17 "c:\\programdata\\chocolatey\\lib\\gcc-arm-embedded\\tools\\gcc-arm-none-eabi-10-2020-q4-
 2149              		.file 18 "c:\\programdata\\chocolatey\\lib\\gcc-arm-embedded\\tools\\gcc-arm-none-eabi-10-2020-q4-
 2150              		.file 19 "c:\\programdata\\chocolatey\\lib\\gcc-arm-embedded\\tools\\gcc-arm-none-eabi-10-2020-q4-
 2151              		.file 20 "c:\\programdata\\chocolatey\\lib\\gcc-arm-embedded\\tools\\gcc-arm-none-eabi-10-2020-q4-
 2152              		.file 21 "c:\\programdata\\chocolatey\\lib\\gcc-arm-embedded\\tools\\gcc-arm-none-eabi-10-2020-q4-
 2153              		.file 22 "c:\\programdata\\chocolatey\\lib\\gcc-arm-embedded\\tools\\gcc-arm-none-eabi-10-2020-q4-
 2154              		.file 23 "c:\\programdata\\chocolatey\\lib\\gcc-arm-embedded\\tools\\gcc-arm-none-eabi-10-2020-q4-
 2155              		.file 24 "c:\\programdata\\chocolatey\\lib\\gcc-arm-embedded\\tools\\gcc-arm-none-eabi-10-2020-q4-
 2156              		.file 25 "c:\\programdata\\chocolatey\\lib\\gcc-arm-embedded\\tools\\gcc-arm-none-eabi-10-2020-q4-
 2157              		.file 26 "c:\\programdata\\chocolatey\\lib\\gcc-arm-embedded\\tools\\gcc-arm-none-eabi-10-2020-q4-
 2158              		.file 27 "c:\\programdata\\chocolatey\\lib\\gcc-arm-embedded\\tools\\gcc-arm-none-eabi-10-2020-q4-
 2159              		.file 28 "c:\\programdata\\chocolatey\\lib\\gcc-arm-embedded\\tools\\gcc-arm-none-eabi-10-2020-q4-
 2160              		.file 29 "c:\\programdata\\chocolatey\\lib\\gcc-arm-embedded\\tools\\gcc-arm-none-eabi-10-2020-q4-
 2161              		.file 30 "c:\\programdata\\chocolatey\\lib\\gcc-arm-embedded\\tools\\gcc-arm-none-eabi-10-2020-q4-
 2162              		.file 31 "c:\\programdata\\chocolatey\\lib\\gcc-arm-embedded\\tools\\gcc-arm-none-eabi-10-2020-q4-
 2163              		.file 32 "c:\\programdata\\chocolatey\\lib\\gcc-arm-embedded\\tools\\gcc-arm-none-eabi-10-2020-q4-
 2164              		.file 33 "c:\\programdata\\chocolatey\\lib\\gcc-arm-embedded\\tools\\gcc-arm-none-eabi-10-2020-q4-
 2165              		.file 34 "c:\\programdata\\chocolatey\\lib\\gcc-arm-embedded\\tools\\gcc-arm-none-eabi-10-2020-q4-
 2166              		.file 35 "c:\\programdata\\chocolatey\\lib\\gcc-arm-embedded\\tools\\gcc-arm-none-eabi-10-2020-q4-
 2167              		.file 36 "c:\\programdata\\chocolatey\\lib\\gcc-arm-embedded\\tools\\gcc-arm-none-eabi-10-2020-q4-
 2168              		.file 37 "c:\\programdata\\chocolatey\\lib\\gcc-arm-embedded\\tools\\gcc-arm-none-eabi-10-2020-q4-
 2169              		.file 38 "c:\\programdata\\chocolatey\\lib\\gcc-arm-embedded\\tools\\gcc-arm-none-eabi-10-2020-q4-
 2170              		.file 39 "c:\\programdata\\chocolatey\\lib\\gcc-arm-embedded\\tools\\gcc-arm-none-eabi-10-2020-q4-
 2171              		.file 40 "c:\\programdata\\chocolatey\\lib\\gcc-arm-embedded\\tools\\gcc-arm-none-eabi-10-2020-q4-
 2172              		.file 41 "c:\\programdata\\chocolatey\\lib\\gcc-arm-embedded\\tools\\gcc-arm-none-eabi-10-2020-q4-
 2173              		.file 42 "c:\\programdata\\chocolatey\\lib\\gcc-arm-embedded\\tools\\gcc-arm-none-eabi-10-2020-q4-
 2174              		.file 43 "c:\\programdata\\chocolatey\\lib\\gcc-arm-embedded\\tools\\gcc-arm-none-eabi-10-2020-q4-
 2175              		.file 44 "c:\\programdata\\chocolatey\\lib\\gcc-arm-embedded\\tools\\gcc-arm-none-eabi-10-2020-q4-
 2176              		.file 45 "c:\\programdata\\chocolatey\\lib\\gcc-arm-embedded\\tools\\gcc-arm-none-eabi-10-2020-q4-
 2177              		.file 46 "../../libDaisy//src/daisy_core.h"
ARM GAS  C:\Users\daniel\AppData\Local\Temp\ccHs5oNB.s 			page 70


 2178              		.file 47 "../../libDaisy//src/per/tim.h"
 2179              		.file 48 "../../libDaisy//src/per/sai.h"
 2180              		.file 49 "../../libDaisy//src/hid/ctrl.h"
 2181              		.file 50 "../../libDaisy//src/util/wav_format.h"
 2182              		.file 51 "../../libDaisy//src/dev/max11300.h"
 2183              		.file 52 "../../libDaisy//src/per/gpio.h"
 2184              		.file 53 "../../libDaisy//src/dev/sdram.h"
 2185              		.file 54 "c:\\programdata\\chocolatey\\lib\\gcc-arm-embedded\\tools\\gcc-arm-none-eabi-10-2020-q4-
 2186              		.file 55 "c:\\programdata\\chocolatey\\lib\\gcc-arm-embedded\\tools\\gcc-arm-none-eabi-10-2020-q4-
 2187              		.file 56 "c:\\programdata\\chocolatey\\lib\\gcc-arm-embedded\\tools\\gcc-arm-none-eabi-10-2020-q4-
 2188              		.file 57 "../../DaisySP//Source/Control/adenv.h"
 2189              		.file 58 "c:\\programdata\\chocolatey\\lib\\gcc-arm-embedded\\tools\\gcc-arm-none-eabi-10-2020-q4-
 2190              		.file 59 "c:\\programdata\\chocolatey\\lib\\gcc-arm-embedded\\tools\\gcc-arm-none-eabi-10-2020-q4-
 2191              		.file 60 "../../libDaisy//src/dev/sr_595.h"
 2192              		.file 61 "<built-in>"
ARM GAS  C:\Users\daniel\AppData\Local\Temp\ccHs5oNB.s 			page 71

