ARM GAS  /var/folders/hl/qgbwny5j0fd895c2c41bk3tw0000gp/T//ccRMOALe.s 			page 1


   1              		.cpu cortex-m7
   2              		.eabi_attribute 28, 1
   3              		.eabi_attribute 20, 1
   4              		.eabi_attribute 21, 1
   5              		.eabi_attribute 23, 3
   6              		.eabi_attribute 24, 1
   7              		.eabi_attribute 25, 1
   8              		.eabi_attribute 26, 1
   9              		.eabi_attribute 30, 2
  10              		.eabi_attribute 34, 1
  11              		.eabi_attribute 18, 4
  12              		.file	"PatchBay.cpp"
  13              		.text
  14              	.Ltext0:
  15              		.cfi_sections	.debug_frame
  16              		.section	.text._ZN5daisy8patch_sm12DaisyPatchSMD2Ev,"axG",%progbits,_ZN5daisy8patch_sm12DaisyPatch
  17              		.align	1
  18              		.p2align 2,,3
  19              		.weak	_ZN5daisy8patch_sm12DaisyPatchSMD2Ev
  20              		.arch armv7e-m
  21              		.syntax unified
  22              		.thumb
  23              		.thumb_func
  24              		.fpu fpv5-d16
  26              	_ZN5daisy8patch_sm12DaisyPatchSMD2Ev:
  27              	.LVL0:
  28              	.LFB2529:
  29              		.file 1 "../../libDaisy//src/daisy_patch_sm.h"
   1:../../libDaisy//src/daisy_patch_sm.h **** #pragma once
   2:../../libDaisy//src/daisy_patch_sm.h **** 
   3:../../libDaisy//src/daisy_patch_sm.h **** #include "daisy.h"
   4:../../libDaisy//src/daisy_patch_sm.h **** 
   5:../../libDaisy//src/daisy_patch_sm.h **** namespace daisy
   6:../../libDaisy//src/daisy_patch_sm.h **** {
   7:../../libDaisy//src/daisy_patch_sm.h **** namespace patch_sm
   8:../../libDaisy//src/daisy_patch_sm.h **** {
   9:../../libDaisy//src/daisy_patch_sm.h ****     /** Accessors for the Analog Controls. 
  10:../../libDaisy//src/daisy_patch_sm.h ****      *  These cover the 8x Bipolar CV inputs
  11:../../libDaisy//src/daisy_patch_sm.h ****      *  as well as the 4x 0-3V3 ADC inputs on
  12:../../libDaisy//src/daisy_patch_sm.h ****      *  the hardware 
  13:../../libDaisy//src/daisy_patch_sm.h ****      * 
  14:../../libDaisy//src/daisy_patch_sm.h ****      *  When reading a value with DaisyPatchSM::GetAdcValue()
  15:../../libDaisy//src/daisy_patch_sm.h ****      * 
  16:../../libDaisy//src/daisy_patch_sm.h ****      *  patch.GetAdcValue(patch_sm::CV_1);
  17:../../libDaisy//src/daisy_patch_sm.h ****      */
  18:../../libDaisy//src/daisy_patch_sm.h ****     enum
  19:../../libDaisy//src/daisy_patch_sm.h ****     {
  20:../../libDaisy//src/daisy_patch_sm.h ****         CV_1 = 0,
  21:../../libDaisy//src/daisy_patch_sm.h ****         CV_2,
  22:../../libDaisy//src/daisy_patch_sm.h ****         CV_3,
  23:../../libDaisy//src/daisy_patch_sm.h ****         CV_4,
  24:../../libDaisy//src/daisy_patch_sm.h ****         CV_5,
  25:../../libDaisy//src/daisy_patch_sm.h ****         CV_6,
  26:../../libDaisy//src/daisy_patch_sm.h ****         CV_7,
  27:../../libDaisy//src/daisy_patch_sm.h ****         CV_8,
  28:../../libDaisy//src/daisy_patch_sm.h ****         ADC_9,
  29:../../libDaisy//src/daisy_patch_sm.h ****         ADC_10,
ARM GAS  /var/folders/hl/qgbwny5j0fd895c2c41bk3tw0000gp/T//ccRMOALe.s 			page 2


  30:../../libDaisy//src/daisy_patch_sm.h ****         ADC_11,
  31:../../libDaisy//src/daisy_patch_sm.h ****         ADC_12,
  32:../../libDaisy//src/daisy_patch_sm.h ****         ADC_LAST,
  33:../../libDaisy//src/daisy_patch_sm.h ****     };
  34:../../libDaisy//src/daisy_patch_sm.h **** 
  35:../../libDaisy//src/daisy_patch_sm.h ****     /** Enum for addressing the CV Outputs via the WriteCvOut function. */
  36:../../libDaisy//src/daisy_patch_sm.h ****     enum
  37:../../libDaisy//src/daisy_patch_sm.h ****     {
  38:../../libDaisy//src/daisy_patch_sm.h ****         CV_OUT_BOTH = 0,
  39:../../libDaisy//src/daisy_patch_sm.h ****         CV_OUT_1,
  40:../../libDaisy//src/daisy_patch_sm.h ****         CV_OUT_2,
  41:../../libDaisy//src/daisy_patch_sm.h ****     };
  42:../../libDaisy//src/daisy_patch_sm.h **** 
  43:../../libDaisy//src/daisy_patch_sm.h **** 
  44:../../libDaisy//src/daisy_patch_sm.h ****     /** @brief Board support file for DaisyPatchSM hardware
  45:../../libDaisy//src/daisy_patch_sm.h ****      *  @author shensley
  46:../../libDaisy//src/daisy_patch_sm.h ****      *  @ingroup boards
  47:../../libDaisy//src/daisy_patch_sm.h ****      * 
  48:../../libDaisy//src/daisy_patch_sm.h ****      *  Daisy Patch SM is a complete Eurorack module DSP engine.
  49:../../libDaisy//src/daisy_patch_sm.h ****      *  Based on the Daisy Seed, with circuits added for 
  50:../../libDaisy//src/daisy_patch_sm.h ****      *  interfacing directly with eurorack modular synthesizers.
  51:../../libDaisy//src/daisy_patch_sm.h ****      */
  52:../../libDaisy//src/daisy_patch_sm.h ****     class DaisyPatchSM
  53:../../libDaisy//src/daisy_patch_sm.h ****     {
  54:../../libDaisy//src/daisy_patch_sm.h ****       public:
  55:../../libDaisy//src/daisy_patch_sm.h ****         /** Helper for mapping pins, and accessing them using the `GetPin` function */
  56:../../libDaisy//src/daisy_patch_sm.h ****         enum class PinBank
  57:../../libDaisy//src/daisy_patch_sm.h ****         {
  58:../../libDaisy//src/daisy_patch_sm.h ****             A,
  59:../../libDaisy//src/daisy_patch_sm.h ****             B,
  60:../../libDaisy//src/daisy_patch_sm.h ****             C,
  61:../../libDaisy//src/daisy_patch_sm.h ****             D
  62:../../libDaisy//src/daisy_patch_sm.h ****         };
  63:../../libDaisy//src/daisy_patch_sm.h **** 
  64:../../libDaisy//src/daisy_patch_sm.h ****         DaisyPatchSM() {}
  65:../../libDaisy//src/daisy_patch_sm.h ****         ~DaisyPatchSM() {}
  30              		.loc 1 65 9 view -0
  31              		.cfi_startproc
  32              		@ args = 0, pretend = 0, frame = 0
  33              		@ frame_needed = 0, uses_anonymous_args = 0
  34              		@ link register save eliminated.
  35              	.LBB427:
  36              	.LBI427:
  37              		.file 2 "../../libDaisy//src/hid/gatein.h"
   1:../../libDaisy//src/hid/gatein.h **** #pragma once
   2:../../libDaisy//src/hid/gatein.h **** #ifndef DSY_GATEIN_H
   3:../../libDaisy//src/hid/gatein.h **** #define DSY_GATEIN_H
   4:../../libDaisy//src/hid/gatein.h **** #include "per/gpio.h"
   5:../../libDaisy//src/hid/gatein.h **** 
   6:../../libDaisy//src/hid/gatein.h **** namespace daisy
   7:../../libDaisy//src/hid/gatein.h **** {
   8:../../libDaisy//src/hid/gatein.h **** /**
   9:../../libDaisy//src/hid/gatein.h ****    @brief Generic Class for handling gate inputs through GPIO.
  10:../../libDaisy//src/hid/gatein.h ****    @author Stephen Hensley
  11:../../libDaisy//src/hid/gatein.h ****    @date    March 2020
  12:../../libDaisy//src/hid/gatein.h ****    @ingroup controls
  13:../../libDaisy//src/hid/gatein.h **** */
ARM GAS  /var/folders/hl/qgbwny5j0fd895c2c41bk3tw0000gp/T//ccRMOALe.s 			page 3


  14:../../libDaisy//src/hid/gatein.h **** class GateIn
  15:../../libDaisy//src/hid/gatein.h **** {
  16:../../libDaisy//src/hid/gatein.h ****   public:
  17:../../libDaisy//src/hid/gatein.h ****     /** GateIn 
  18:../../libDaisy//src/hid/gatein.h ****     Constructor 
  19:../../libDaisy//src/hid/gatein.h ****     */
  20:../../libDaisy//src/hid/gatein.h ****     GateIn() {}
  21:../../libDaisy//src/hid/gatein.h ****     /** GateIn~
  22:../../libDaisy//src/hid/gatein.h ****     Destructor 
  23:../../libDaisy//src/hid/gatein.h ****     */
  24:../../libDaisy//src/hid/gatein.h ****     ~GateIn() {}
  38              		.loc 2 24 5 view .LVU1
  39              		.loc 2 24 5 is_stmt 0 view .LVU2
  40              	.LBE427:
  41              	.LBB428:
  42              	.LBI428:
  43              		.loc 2 24 5 is_stmt 1 view .LVU3
  44              		.loc 2 24 5 is_stmt 0 view .LVU4
  45              	.LBE428:
  46              	.LBB429:
  47              	.LBI429:
  48              		.file 3 "../../libDaisy//src/dev/codec_pcm3060.h"
   1:../../libDaisy//src/dev/codec_pcm3060.h **** #pragma once
   2:../../libDaisy//src/dev/codec_pcm3060.h **** #ifndef DSY_CODEC_PCM3060_H
   3:../../libDaisy//src/dev/codec_pcm3060.h **** #define DSY_CODEC_PCM3060_H
   4:../../libDaisy//src/dev/codec_pcm3060.h **** #include "per/i2c.h"
   5:../../libDaisy//src/dev/codec_pcm3060.h **** namespace daisy
   6:../../libDaisy//src/dev/codec_pcm3060.h **** {
   7:../../libDaisy//src/dev/codec_pcm3060.h **** /**
   8:../../libDaisy//src/dev/codec_pcm3060.h ****  * @brief Driver for the TI PCM3060 Audio Codec.
   9:../../libDaisy//src/dev/codec_pcm3060.h ****  * @addtogroup codec
  10:../../libDaisy//src/dev/codec_pcm3060.h ****  * 
  11:../../libDaisy//src/dev/codec_pcm3060.h ****  * For now this is a limited interface that uses I2C to communicate with the PCM3060
  12:../../libDaisy//src/dev/codec_pcm3060.h ****  * The device can also be accessed with SPI, which is not yet supported.
  13:../../libDaisy//src/dev/codec_pcm3060.h ****  * 
  14:../../libDaisy//src/dev/codec_pcm3060.h ****  * For now all registers are set to their defaults, and the Init function will 
  15:../../libDaisy//src/dev/codec_pcm3060.h ****  * perform a MRST and SRST before setting the format to 24bit LJ, and disabling 
  16:../../libDaisy//src/dev/codec_pcm3060.h ****  * power save for both the ADC and DAC.
  17:../../libDaisy//src/dev/codec_pcm3060.h ****  *
  18:../../libDaisy//src/dev/codec_pcm3060.h ****  */
  19:../../libDaisy//src/dev/codec_pcm3060.h **** class Pcm3060
  20:../../libDaisy//src/dev/codec_pcm3060.h **** {
  21:../../libDaisy//src/dev/codec_pcm3060.h ****   public:
  22:../../libDaisy//src/dev/codec_pcm3060.h ****     enum class Result
  23:../../libDaisy//src/dev/codec_pcm3060.h ****     {
  24:../../libDaisy//src/dev/codec_pcm3060.h ****         OK,
  25:../../libDaisy//src/dev/codec_pcm3060.h ****         ERR,
  26:../../libDaisy//src/dev/codec_pcm3060.h ****     };
  27:../../libDaisy//src/dev/codec_pcm3060.h **** 
  28:../../libDaisy//src/dev/codec_pcm3060.h ****     Pcm3060() {}
  29:../../libDaisy//src/dev/codec_pcm3060.h ****     ~Pcm3060() {}
  49              		.loc 3 29 5 is_stmt 1 view .LVU5
  50              		.loc 3 29 5 is_stmt 0 view .LVU6
  51              	.LBE429:
  52              	.LBB430:
  53              	.LBI430:
  54              		.file 4 "../../libDaisy//src/hid/usb.h"
ARM GAS  /var/folders/hl/qgbwny5j0fd895c2c41bk3tw0000gp/T//ccRMOALe.s 			page 4


   1:../../libDaisy//src/hid/usb.h **** #pragma once
   2:../../libDaisy//src/hid/usb.h **** #ifndef DSY_HID_USB_H
   3:../../libDaisy//src/hid/usb.h **** #define DSY_HID_USB_H
   4:../../libDaisy//src/hid/usb.h **** #include <stdint.h>
   5:../../libDaisy//src/hid/usb.h **** #include <stdlib.h>
   6:../../libDaisy//src/hid/usb.h **** 
   7:../../libDaisy//src/hid/usb.h **** namespace daisy
   8:../../libDaisy//src/hid/usb.h **** /** @addtogroup human_interface
   9:../../libDaisy//src/hid/usb.h ****     @{
  10:../../libDaisy//src/hid/usb.h **** */
  11:../../libDaisy//src/hid/usb.h **** 
  12:../../libDaisy//src/hid/usb.h **** {
  13:../../libDaisy//src/hid/usb.h **** /** 
  14:../../libDaisy//src/hid/usb.h ****     @brief Interface for initializing and using the USB Peripherals on the daisy
  15:../../libDaisy//src/hid/usb.h ****     @author Stephen Hensley
  16:../../libDaisy//src/hid/usb.h ****     @date December 2019
  17:../../libDaisy//src/hid/usb.h **** */
  18:../../libDaisy//src/hid/usb.h **** class UsbHandle
  19:../../libDaisy//src/hid/usb.h **** {
  20:../../libDaisy//src/hid/usb.h ****   public:
  21:../../libDaisy//src/hid/usb.h ****     /** Return values for USBHandle Functions */
  22:../../libDaisy//src/hid/usb.h ****     enum class Result
  23:../../libDaisy//src/hid/usb.h ****     {
  24:../../libDaisy//src/hid/usb.h ****         OK,
  25:../../libDaisy//src/hid/usb.h ****         ERR,
  26:../../libDaisy//src/hid/usb.h ****     };
  27:../../libDaisy//src/hid/usb.h **** 
  28:../../libDaisy//src/hid/usb.h ****     /** Specified which of the two USB Peripherals to initialize. */
  29:../../libDaisy//src/hid/usb.h ****     enum UsbPeriph
  30:../../libDaisy//src/hid/usb.h ****     {
  31:../../libDaisy//src/hid/usb.h ****         FS_INTERNAL, /**< Internal pin */
  32:../../libDaisy//src/hid/usb.h ****         FS_EXTERNAL, /**< FS External D+ pin is Pin 38 (GPIO32). FS External D- pin is Pin 37 (GPIO
  33:../../libDaisy//src/hid/usb.h ****         FS_BOTH,     /**< Both */
  34:../../libDaisy//src/hid/usb.h ****     };
  35:../../libDaisy//src/hid/usb.h **** 
  36:../../libDaisy//src/hid/usb.h **** 
  37:../../libDaisy//src/hid/usb.h ****     /** Function called upon reception of a buffer */
  38:../../libDaisy//src/hid/usb.h ****     typedef void (*ReceiveCallback)(uint8_t* buff, uint32_t* len);
  39:../../libDaisy//src/hid/usb.h **** 
  40:../../libDaisy//src/hid/usb.h ****     UsbHandle() {}
  41:../../libDaisy//src/hid/usb.h **** 
  42:../../libDaisy//src/hid/usb.h ****     ~UsbHandle() {}
  55              		.loc 4 42 5 is_stmt 1 view .LVU7
  56              		.loc 4 42 5 is_stmt 0 view .LVU8
  57              	.LBE430:
  58              	.LBB431:
  59              	.LBI431:
  60              		.file 5 "../../libDaisy//src/per/adc.h"
   1:../../libDaisy//src/per/adc.h **** #pragma once
   2:../../libDaisy//src/per/adc.h **** #ifndef DSY_ADC_H
   3:../../libDaisy//src/per/adc.h **** #define DSY_ADC_H /**< Macro */
   4:../../libDaisy//src/per/adc.h **** #include <stdint.h>
   5:../../libDaisy//src/per/adc.h **** #include <stdlib.h>
   6:../../libDaisy//src/per/adc.h **** #include "daisy_core.h"
   7:../../libDaisy//src/per/adc.h **** #include "per/gpio.h"
   8:../../libDaisy//src/per/adc.h **** 
   9:../../libDaisy//src/per/adc.h **** #define DSY_ADC_MAX_CHANNELS 16 /**< Maximum number of ADC channels */
ARM GAS  /var/folders/hl/qgbwny5j0fd895c2c41bk3tw0000gp/T//ccRMOALe.s 			page 5


  10:../../libDaisy//src/per/adc.h **** 
  11:../../libDaisy//src/per/adc.h **** namespace daisy
  12:../../libDaisy//src/per/adc.h **** {
  13:../../libDaisy//src/per/adc.h **** /** @addtogroup per_analog
  14:../../libDaisy//src/per/adc.h ****     @{
  15:../../libDaisy//src/per/adc.h **** */
  16:../../libDaisy//src/per/adc.h **** 
  17:../../libDaisy//src/per/adc.h **** /* While there may not be many configuration options here,
  18:../../libDaisy//src/per/adc.h **** using a struct like this allows us to add more configuration
  19:../../libDaisy//src/per/adc.h **** later without breaking existing functionality.
  20:../../libDaisy//src/per/adc.h **** */
  21:../../libDaisy//src/per/adc.h **** 
  22:../../libDaisy//src/per/adc.h **** /** @brief   Configuration Structure for an ADC Channel 
  23:../../libDaisy//src/per/adc.h ****  *  @details This can be used to configure a a single input, 
  24:../../libDaisy//src/per/adc.h ****  *           or a multiplexed input, allowing up to 8 inputs on 
  25:../../libDaisy//src/per/adc.h ****  *           one channel.
  26:../../libDaisy//src/per/adc.h ****  *  @note    Sharing data lines to multiple muxes _is_ possible, but
  27:../../libDaisy//src/per/adc.h ****  *           each channel sharing data lines must be set to the maximum
  28:../../libDaisy//src/per/adc.h ****  *           number of channels, even if some multiplexers have fewer
  29:../../libDaisy//src/per/adc.h ****  *           inputs connected.
  30:../../libDaisy//src/per/adc.h **** */
  31:../../libDaisy//src/per/adc.h **** struct AdcChannelConfig
  32:../../libDaisy//src/per/adc.h **** {
  33:../../libDaisy//src/per/adc.h ****     /** Which pin to use for multiplexing */
  34:../../libDaisy//src/per/adc.h ****     enum MuxPin
  35:../../libDaisy//src/per/adc.h ****     {
  36:../../libDaisy//src/per/adc.h ****         MUX_SEL_0,    /**< & */
  37:../../libDaisy//src/per/adc.h ****         MUX_SEL_1,    /**< & */
  38:../../libDaisy//src/per/adc.h ****         MUX_SEL_2,    /**< & */
  39:../../libDaisy//src/per/adc.h ****         MUX_SEL_LAST, /**< & */
  40:../../libDaisy//src/per/adc.h ****     };
  41:../../libDaisy//src/per/adc.h **** 
  42:../../libDaisy//src/per/adc.h ****     /** Initializes a single ADC pin as an ADC. 
  43:../../libDaisy//src/per/adc.h ****     \param pin Pin to init.
  44:../../libDaisy//src/per/adc.h ****      */
  45:../../libDaisy//src/per/adc.h ****     void InitSingle(dsy_gpio_pin pin);
  46:../../libDaisy//src/per/adc.h **** 
  47:../../libDaisy//src/per/adc.h ****     /** 
  48:../../libDaisy//src/per/adc.h ****     Initializes a single ADC pin as a Multiplexed ADC.
  49:../../libDaisy//src/per/adc.h ****     Requires a CD405X Multiplexer connected to the pin.
  50:../../libDaisy//src/per/adc.h ****     You only need to supply the mux pins that are required,
  51:../../libDaisy//src/per/adc.h ****     e.g. a 4052 mux would only require mux_0 and mux_1.
  52:../../libDaisy//src/per/adc.h ****     Internal Callbacks handle the pin addressing.
  53:../../libDaisy//src/per/adc.h ****     \param mux_channels must be 1-8
  54:../../libDaisy//src/per/adc.h ****     \param mux_0 First mux pin
  55:../../libDaisy//src/per/adc.h ****     \param mux_1 Second mux pin
  56:../../libDaisy//src/per/adc.h ****     \param mux_2 Third mux pin
  57:../../libDaisy//src/per/adc.h ****     \param adc_pin &
  58:../../libDaisy//src/per/adc.h ****     */
  59:../../libDaisy//src/per/adc.h ****     void InitMux(dsy_gpio_pin adc_pin,
  60:../../libDaisy//src/per/adc.h ****                  size_t       mux_channels,
  61:../../libDaisy//src/per/adc.h ****                  dsy_gpio_pin mux_0,
  62:../../libDaisy//src/per/adc.h ****                  dsy_gpio_pin mux_1 = {DSY_GPIOX, 0},
  63:../../libDaisy//src/per/adc.h ****                  dsy_gpio_pin mux_2 = {DSY_GPIOX, 0});
  64:../../libDaisy//src/per/adc.h **** 
  65:../../libDaisy//src/per/adc.h ****     dsy_gpio pin_;                   /**< & */
  66:../../libDaisy//src/per/adc.h ****     dsy_gpio mux_pin_[MUX_SEL_LAST]; /**< & */
ARM GAS  /var/folders/hl/qgbwny5j0fd895c2c41bk3tw0000gp/T//ccRMOALe.s 			page 6


  67:../../libDaisy//src/per/adc.h ****     uint8_t  mux_channels_;          /**< & */
  68:../../libDaisy//src/per/adc.h **** };
  69:../../libDaisy//src/per/adc.h **** 
  70:../../libDaisy//src/per/adc.h **** /**
  71:../../libDaisy//src/per/adc.h ****    @brief Handler for analog to digital conversion
  72:../../libDaisy//src/per/adc.h **** */
  73:../../libDaisy//src/per/adc.h **** class AdcHandle
  74:../../libDaisy//src/per/adc.h **** {
  75:../../libDaisy//src/per/adc.h ****   public:
  76:../../libDaisy//src/per/adc.h ****     /** Supported oversampling amounts */
  77:../../libDaisy//src/per/adc.h ****     enum OverSampling
  78:../../libDaisy//src/per/adc.h ****     {
  79:../../libDaisy//src/per/adc.h ****         OVS_NONE, /**< & */
  80:../../libDaisy//src/per/adc.h ****         OVS_4,    /**< & */
  81:../../libDaisy//src/per/adc.h ****         OVS_8,    /**< & */
  82:../../libDaisy//src/per/adc.h ****         OVS_16,   /**< & */
  83:../../libDaisy//src/per/adc.h ****         OVS_32,   /**< & */
  84:../../libDaisy//src/per/adc.h ****         OVS_64,   /**< & */
  85:../../libDaisy//src/per/adc.h ****         OVS_128,  /**< & */
  86:../../libDaisy//src/per/adc.h ****         OVS_256,  /**< & */
  87:../../libDaisy//src/per/adc.h ****         OVS_512,  /**< & */
  88:../../libDaisy//src/per/adc.h ****         OVS_1024, /**< & */
  89:../../libDaisy//src/per/adc.h ****         OVS_LAST, /**< & */
  90:../../libDaisy//src/per/adc.h ****     };
  91:../../libDaisy//src/per/adc.h **** 
  92:../../libDaisy//src/per/adc.h ****     AdcHandle() {}
  93:../../libDaisy//src/per/adc.h ****     ~AdcHandle() {}
  61              		.loc 5 93 5 is_stmt 1 view .LVU9
  62              		.loc 5 93 5 is_stmt 0 view .LVU10
  63              	.LBE431:
  64              	.LBB432:
  65              	.LBI432:
  66              		.file 6 "../../libDaisy//src/hid/audio.h"
   1:../../libDaisy//src/hid/audio.h **** #ifndef DSY_AUDIO_H
   2:../../libDaisy//src/hid/audio.h **** #define DSY_AUDIO_H /**< & */
   3:../../libDaisy//src/hid/audio.h **** 
   4:../../libDaisy//src/hid/audio.h **** #include "per/sai.h"
   5:../../libDaisy//src/hid/audio.h **** 
   6:../../libDaisy//src/hid/audio.h **** namespace daisy
   7:../../libDaisy//src/hid/audio.h **** {
   8:../../libDaisy//src/hid/audio.h **** /** @brief Audio Engine Handle
   9:../../libDaisy//src/hid/audio.h ****  *  @ingroup audio 
  10:../../libDaisy//src/hid/audio.h ****  *  @details This class allows for higher level access to an audio engine.
  11:../../libDaisy//src/hid/audio.h ****  *           If you're using a SOM like the DaisySeed or DaisyPatchSM (or any 
  12:../../libDaisy//src/hid/audio.h ****  *            board that includes one of those objects) then the intialization
  13:../../libDaisy//src/hid/audio.h ****  *            is already taken  care of.
  14:../../libDaisy//src/hid/audio.h ****  *           If you're setting up your own custom hardware, or need to make changes
  15:../../libDaisy//src/hid/audio.h ****  *           you will have to take the following steps:
  16:../../libDaisy//src/hid/audio.h ****  *             1. Create and Initialize an SaiHandle or two depending on your requirements
  17:../../libDaisy//src/hid/audio.h ****  *             2. Initialize the Audio Handle with the desired settings and the Initialized SaiHand
  18:../../libDaisy//src/hid/audio.h ****  *             3. If the connected codec requires special configuration or initialization, do so
  19:../../libDaisy//src/hid/audio.h ****  *             4. Write a callback method using either the AudioCallback or the InterleavingAudioCa
  20:../../libDaisy//src/hid/audio.h ****  *             5. Start the Audio using one of the StartAudio function
  21:../../libDaisy//src/hid/audio.h ****  */
  22:../../libDaisy//src/hid/audio.h **** class AudioHandle
  23:../../libDaisy//src/hid/audio.h **** {
  24:../../libDaisy//src/hid/audio.h ****   public:
ARM GAS  /var/folders/hl/qgbwny5j0fd895c2c41bk3tw0000gp/T//ccRMOALe.s 			page 7


  25:../../libDaisy//src/hid/audio.h ****     /** Manually configurable details about the Audio Engine */
  26:../../libDaisy//src/hid/audio.h ****     /** TODO: Figure out how to get samplerate in here. */
  27:../../libDaisy//src/hid/audio.h ****     struct Config
  28:../../libDaisy//src/hid/audio.h ****     {
  29:../../libDaisy//src/hid/audio.h ****         /** number of samples to process per callback */
  30:../../libDaisy//src/hid/audio.h ****         size_t blocksize;
  31:../../libDaisy//src/hid/audio.h **** 
  32:../../libDaisy//src/hid/audio.h ****         /**< Sample rate of audio */
  33:../../libDaisy//src/hid/audio.h ****         SaiHandle::Config::SampleRate samplerate;
  34:../../libDaisy//src/hid/audio.h **** 
  35:../../libDaisy//src/hid/audio.h ****         /** factor for adjustment before and after callback for hardware that may have extra headro
  36:../../libDaisy//src/hid/audio.h ****         float postgain;
  37:../../libDaisy//src/hid/audio.h **** 
  38:../../libDaisy//src/hid/audio.h ****         /** factor for additional one-sided compensation to audio path for hardware that may
  39:../../libDaisy//src/hid/audio.h ****          *  have unequal input/output ranges
  40:../../libDaisy//src/hid/audio.h ****          */
  41:../../libDaisy//src/hid/audio.h ****         float output_compensation;
  42:../../libDaisy//src/hid/audio.h **** 
  43:../../libDaisy//src/hid/audio.h ****         /** Sets default values for config struct */
  44:../../libDaisy//src/hid/audio.h ****         Config()
  45:../../libDaisy//src/hid/audio.h ****         : blocksize(48),
  46:../../libDaisy//src/hid/audio.h ****           samplerate(SaiHandle::Config::SampleRate::SAI_48KHZ),
  47:../../libDaisy//src/hid/audio.h ****           postgain(1.f),
  48:../../libDaisy//src/hid/audio.h ****           output_compensation(1.f)
  49:../../libDaisy//src/hid/audio.h ****         {
  50:../../libDaisy//src/hid/audio.h ****         }
  51:../../libDaisy//src/hid/audio.h ****     };
  52:../../libDaisy//src/hid/audio.h **** 
  53:../../libDaisy//src/hid/audio.h ****     enum class Result
  54:../../libDaisy//src/hid/audio.h ****     {
  55:../../libDaisy//src/hid/audio.h ****         OK,
  56:../../libDaisy//src/hid/audio.h ****         ERR,
  57:../../libDaisy//src/hid/audio.h ****     };
  58:../../libDaisy//src/hid/audio.h **** 
  59:../../libDaisy//src/hid/audio.h ****     /** Non-Interleaving input buffer
  60:../../libDaisy//src/hid/audio.h ****      * Buffer arranged by float[chn][sample] 
  61:../../libDaisy//src/hid/audio.h ****      * const so that the user can't modify the input
  62:../../libDaisy//src/hid/audio.h ****      */
  63:../../libDaisy//src/hid/audio.h ****     typedef const float* const* InputBuffer;
  64:../../libDaisy//src/hid/audio.h **** 
  65:../../libDaisy//src/hid/audio.h ****     /** Non-Interleaving output buffer
  66:../../libDaisy//src/hid/audio.h ****      * Arranged by float[chn][sample] 
  67:../../libDaisy//src/hid/audio.h ****      */
  68:../../libDaisy//src/hid/audio.h ****     typedef float** OutputBuffer;
  69:../../libDaisy//src/hid/audio.h **** 
  70:../../libDaisy//src/hid/audio.h ****     /** Type for a Non-Interleaving audio callback 
  71:../../libDaisy//src/hid/audio.h ****      * Non-Interleaving audio callbacks in daisy will be of this type
  72:../../libDaisy//src/hid/audio.h ****      */
  73:../../libDaisy//src/hid/audio.h ****     typedef void (*AudioCallback)(InputBuffer  in,
  74:../../libDaisy//src/hid/audio.h ****                                   OutputBuffer out,
  75:../../libDaisy//src/hid/audio.h ****                                   size_t       size);
  76:../../libDaisy//src/hid/audio.h **** 
  77:../../libDaisy//src/hid/audio.h ****     /** Interleaving Input buffer
  78:../../libDaisy//src/hid/audio.h ****      ** audio is prepared as { L0, R0, L1, R1, . . . LN, RN }]
  79:../../libDaisy//src/hid/audio.h ****      ** this is const, as the user shouldn't modify it
  80:../../libDaisy//src/hid/audio.h ****     */
  81:../../libDaisy//src/hid/audio.h ****     typedef const float* InterleavingInputBuffer;
ARM GAS  /var/folders/hl/qgbwny5j0fd895c2c41bk3tw0000gp/T//ccRMOALe.s 			page 8


  82:../../libDaisy//src/hid/audio.h **** 
  83:../../libDaisy//src/hid/audio.h ****     /** Interleaving Output buffer 
  84:../../libDaisy//src/hid/audio.h ****      ** audio is prepared as { L0, R0, L1, R1, . . . LN, RN }
  85:../../libDaisy//src/hid/audio.h ****     */
  86:../../libDaisy//src/hid/audio.h ****     typedef float* InterleavingOutputBuffer;
  87:../../libDaisy//src/hid/audio.h **** 
  88:../../libDaisy//src/hid/audio.h ****     /** Interleaving Audio Callback 
  89:../../libDaisy//src/hid/audio.h ****      * Interleaving audio callbacks in daisy must be of this type
  90:../../libDaisy//src/hid/audio.h ****      */
  91:../../libDaisy//src/hid/audio.h ****     typedef void (*InterleavingAudioCallback)(InterleavingInputBuffer  in,
  92:../../libDaisy//src/hid/audio.h ****                                               InterleavingOutputBuffer out,
  93:../../libDaisy//src/hid/audio.h ****                                               size_t                   size);
  94:../../libDaisy//src/hid/audio.h **** 
  95:../../libDaisy//src/hid/audio.h ****     AudioHandle() : pimpl_(nullptr) {}
  96:../../libDaisy//src/hid/audio.h ****     ~AudioHandle() {}
  67              		.loc 6 96 5 is_stmt 1 view .LVU11
  68              		.loc 6 96 5 is_stmt 0 view .LVU12
  69              	.LBE432:
  70              	.LBB433:
  71              	.LBI433:
  72              		.file 7 "../../libDaisy//src/sys/system.h"
   1:../../libDaisy//src/sys/system.h **** #ifndef DSY_SYSTEM_H
   2:../../libDaisy//src/sys/system.h **** #define DSY_SYSTEM_H
   3:../../libDaisy//src/sys/system.h **** 
   4:../../libDaisy//src/sys/system.h **** #ifndef UNIT_TEST // for unit tests, a dummy implementation is provided below
   5:../../libDaisy//src/sys/system.h **** 
   6:../../libDaisy//src/sys/system.h **** #include <cstdint>
   7:../../libDaisy//src/sys/system.h **** #include "per/tim.h"
   8:../../libDaisy//src/sys/system.h **** 
   9:../../libDaisy//src/sys/system.h **** namespace daisy
  10:../../libDaisy//src/sys/system.h **** {
  11:../../libDaisy//src/sys/system.h **** /** A handle for interacting with the Core System. 
  12:../../libDaisy//src/sys/system.h ****  ** This includes the Clock tree, MPU, global DMA initialization,
  13:../../libDaisy//src/sys/system.h ****  ** cache handling, and any other necessary global initiailzation
  14:../../libDaisy//src/sys/system.h ****  **
  15:../../libDaisy//src/sys/system.h ****  ** @author shensley
  16:../../libDaisy//src/sys/system.h ****  ** @ingroup system
  17:../../libDaisy//src/sys/system.h ****  */
  18:../../libDaisy//src/sys/system.h **** class System
  19:../../libDaisy//src/sys/system.h **** {
  20:../../libDaisy//src/sys/system.h ****   public:
  21:../../libDaisy//src/sys/system.h ****     /** Contains settings for initializing the System */
  22:../../libDaisy//src/sys/system.h ****     struct Config
  23:../../libDaisy//src/sys/system.h ****     {
  24:../../libDaisy//src/sys/system.h ****         /** Specifies the system clock frequency that feeds APB/AHB clocks, etc. */
  25:../../libDaisy//src/sys/system.h ****         enum class SysClkFreq
  26:../../libDaisy//src/sys/system.h ****         {
  27:../../libDaisy//src/sys/system.h ****             FREQ_400MHZ,
  28:../../libDaisy//src/sys/system.h ****             FREQ_480MHZ,
  29:../../libDaisy//src/sys/system.h ****         };
  30:../../libDaisy//src/sys/system.h **** 
  31:../../libDaisy//src/sys/system.h ****         /** Method to call on the struct to set to defaults
  32:../../libDaisy//src/sys/system.h ****          ** CPU Freq set to 400MHz
  33:../../libDaisy//src/sys/system.h ****          ** Cache Enabled 
  34:../../libDaisy//src/sys/system.h ****          ** */
  35:../../libDaisy//src/sys/system.h ****         void Defaults()
  36:../../libDaisy//src/sys/system.h ****         {
ARM GAS  /var/folders/hl/qgbwny5j0fd895c2c41bk3tw0000gp/T//ccRMOALe.s 			page 9


  37:../../libDaisy//src/sys/system.h ****             cpu_freq    = SysClkFreq::FREQ_400MHZ;
  38:../../libDaisy//src/sys/system.h ****             use_dcache  = true;
  39:../../libDaisy//src/sys/system.h ****             use_icache  = true;
  40:../../libDaisy//src/sys/system.h ****             skip_clocks = false;
  41:../../libDaisy//src/sys/system.h ****         }
  42:../../libDaisy//src/sys/system.h **** 
  43:../../libDaisy//src/sys/system.h ****         /** Method to call on the struct to set to boost mode:
  44:../../libDaisy//src/sys/system.h ****          ** CPU Freq set to 480MHz
  45:../../libDaisy//src/sys/system.h ****          ** Cache Enabled 
  46:../../libDaisy//src/sys/system.h ****          ** */
  47:../../libDaisy//src/sys/system.h ****         void Boost()
  48:../../libDaisy//src/sys/system.h ****         {
  49:../../libDaisy//src/sys/system.h ****             cpu_freq    = SysClkFreq::FREQ_480MHZ;
  50:../../libDaisy//src/sys/system.h ****             use_dcache  = true;
  51:../../libDaisy//src/sys/system.h ****             use_icache  = true;
  52:../../libDaisy//src/sys/system.h ****             skip_clocks = false;
  53:../../libDaisy//src/sys/system.h ****         }
  54:../../libDaisy//src/sys/system.h **** 
  55:../../libDaisy//src/sys/system.h ****         SysClkFreq cpu_freq;
  56:../../libDaisy//src/sys/system.h ****         bool       use_dcache;
  57:../../libDaisy//src/sys/system.h ****         bool       use_icache;
  58:../../libDaisy//src/sys/system.h ****         bool       skip_clocks;
  59:../../libDaisy//src/sys/system.h ****     };
  60:../../libDaisy//src/sys/system.h **** 
  61:../../libDaisy//src/sys/system.h ****     /** Describes the different regions of memory available to the Daisy
  62:../../libDaisy//src/sys/system.h ****      * 
  63:../../libDaisy//src/sys/system.h ****      */
  64:../../libDaisy//src/sys/system.h ****     enum MemoryRegion
  65:../../libDaisy//src/sys/system.h ****     {
  66:../../libDaisy//src/sys/system.h ****         INTERNAL_FLASH = 0,
  67:../../libDaisy//src/sys/system.h ****         ITCMRAM,
  68:../../libDaisy//src/sys/system.h ****         DTCMRAM,
  69:../../libDaisy//src/sys/system.h ****         SRAM_D1,
  70:../../libDaisy//src/sys/system.h ****         SRAM_D2,
  71:../../libDaisy//src/sys/system.h ****         SRAM_D3,
  72:../../libDaisy//src/sys/system.h ****         SDRAM,
  73:../../libDaisy//src/sys/system.h ****         QSPI,
  74:../../libDaisy//src/sys/system.h ****         INVALID_ADDRESS,
  75:../../libDaisy//src/sys/system.h ****     };
  76:../../libDaisy//src/sys/system.h **** 
  77:../../libDaisy//src/sys/system.h ****     System() {}
  78:../../libDaisy//src/sys/system.h ****     ~System() {}
  73              		.loc 7 78 5 is_stmt 1 view .LVU13
  74              		.loc 7 78 5 is_stmt 0 view .LVU14
  75              	.LBE433:
  76              		.loc 1 65 26 view .LVU15
  77 0000 7047     		bx	lr
  78              		.cfi_endproc
  79              	.LFE2529:
  81              		.weak	_ZN5daisy8patch_sm12DaisyPatchSMD1Ev
  82              		.thumb_set _ZN5daisy8patch_sm12DaisyPatchSMD1Ev,_ZN5daisy8patch_sm12DaisyPatchSMD2Ev
  83 0002 00BF     		.section	.text._ZN5daisy11OledDisplayINS_13SSD130xDriverILj128ELj64ENS_19SSD130xI2CTransportEEEED2
  84              		.align	1
  85              		.p2align 2,,3
  86              		.weak	_ZN5daisy11OledDisplayINS_13SSD130xDriverILj128ELj64ENS_19SSD130xI2CTransportEEEED2Ev
  87              		.syntax unified
  88              		.thumb
ARM GAS  /var/folders/hl/qgbwny5j0fd895c2c41bk3tw0000gp/T//ccRMOALe.s 			page 10


  89              		.thumb_func
  90              		.fpu fpv5-d16
  92              	_ZN5daisy11OledDisplayINS_13SSD130xDriverILj128ELj64ENS_19SSD130xI2CTransportEEEED2Ev:
  93              	.LVL1:
  94              	.LFB5140:
  95              		.file 8 "../../libDaisy//src/hid/disp/oled_display.h"
   1:../../libDaisy//src/hid/disp/oled_display.h **** #pragma once
   2:../../libDaisy//src/hid/disp/oled_display.h **** #ifndef DSY_OLED_DISPLAY_H
   3:../../libDaisy//src/hid/disp/oled_display.h **** #define DSY_OLED_DISPLAY_H /**< Macro */
   4:../../libDaisy//src/hid/disp/oled_display.h **** 
   5:../../libDaisy//src/hid/disp/oled_display.h **** #include "display.h"
   6:../../libDaisy//src/hid/disp/oled_display.h **** 
   7:../../libDaisy//src/hid/disp/oled_display.h **** namespace daisy
   8:../../libDaisy//src/hid/disp/oled_display.h **** {
   9:../../libDaisy//src/hid/disp/oled_display.h **** /** 
  10:../../libDaisy//src/hid/disp/oled_display.h ****  * This class is for drawing to a monochrome OLED display. 
  11:../../libDaisy//src/hid/disp/oled_display.h ****  * @ingroup device
  12:../../libDaisy//src/hid/disp/oled_display.h **** */
  13:../../libDaisy//src/hid/disp/oled_display.h **** template <typename DisplayDriver>
  14:../../libDaisy//src/hid/disp/oled_display.h **** class OledDisplay : public OneBitGraphicsDisplayImpl<OledDisplay<DisplayDriver>>
  15:../../libDaisy//src/hid/disp/oled_display.h **** {
  16:../../libDaisy//src/hid/disp/oled_display.h ****   public:
  17:../../libDaisy//src/hid/disp/oled_display.h ****     OledDisplay() {}
  18:../../libDaisy//src/hid/disp/oled_display.h ****     virtual ~OledDisplay() {}
  96              		.loc 8 18 13 is_stmt 1 view -0
  97              		.cfi_startproc
  98              		@ args = 0, pretend = 0, frame = 0
  99              		@ frame_needed = 0, uses_anonymous_args = 0
 100              		@ link register save eliminated.
 101              	.LBB434:
 102              	.LBI434:
 103              		.file 9 "../../libDaisy//src/hid/disp/display.h"
   1:../../libDaisy//src/hid/disp/display.h **** #pragma once
   2:../../libDaisy//src/hid/disp/display.h **** #ifndef DSY_DISPLAY_H
   3:../../libDaisy//src/hid/disp/display.h **** #define DSY_DISPLAY_H /**< Macro */
   4:../../libDaisy//src/hid/disp/display.h **** #include <cmath>
   5:../../libDaisy//src/hid/disp/display.h **** #include "util/oled_fonts.h"
   6:../../libDaisy//src/hid/disp/display.h **** #include "daisy_core.h"
   7:../../libDaisy//src/hid/disp/display.h **** #include "graphics_common.h"
   8:../../libDaisy//src/hid/disp/display.h **** 
   9:../../libDaisy//src/hid/disp/display.h **** #ifndef deg2rad
  10:../../libDaisy//src/hid/disp/display.h **** #define deg2rad(deg) ((deg)*3.141592 / 180.0)
  11:../../libDaisy//src/hid/disp/display.h **** #endif
  12:../../libDaisy//src/hid/disp/display.h **** 
  13:../../libDaisy//src/hid/disp/display.h **** namespace daisy
  14:../../libDaisy//src/hid/disp/display.h **** {
  15:../../libDaisy//src/hid/disp/display.h **** /** 
  16:../../libDaisy//src/hid/disp/display.h ****  * This interface is used as a base class for all types of 1bit-per-pixel
  17:../../libDaisy//src/hid/disp/display.h ****  * graphics displays.
  18:../../libDaisy//src/hid/disp/display.h **** */
  19:../../libDaisy//src/hid/disp/display.h **** class OneBitGraphicsDisplay
  20:../../libDaisy//src/hid/disp/display.h **** {
  21:../../libDaisy//src/hid/disp/display.h ****   public:
  22:../../libDaisy//src/hid/disp/display.h ****     OneBitGraphicsDisplay() {}
  23:../../libDaisy//src/hid/disp/display.h ****     virtual ~OneBitGraphicsDisplay() {}
  24:../../libDaisy//src/hid/disp/display.h **** 
  25:../../libDaisy//src/hid/disp/display.h ****     virtual uint16_t Height() const = 0;
ARM GAS  /var/folders/hl/qgbwny5j0fd895c2c41bk3tw0000gp/T//ccRMOALe.s 			page 11


  26:../../libDaisy//src/hid/disp/display.h ****     virtual uint16_t Width() const  = 0;
  27:../../libDaisy//src/hid/disp/display.h **** 
  28:../../libDaisy//src/hid/disp/display.h ****     Rectangle GetBounds() const
  29:../../libDaisy//src/hid/disp/display.h ****     {
  30:../../libDaisy//src/hid/disp/display.h ****         return Rectangle(int16_t(Width()), int16_t(Height()));
  31:../../libDaisy//src/hid/disp/display.h ****     }
  32:../../libDaisy//src/hid/disp/display.h **** 
  33:../../libDaisy//src/hid/disp/display.h **** 
  34:../../libDaisy//src/hid/disp/display.h ****     size_t CurrentX() { return currentX_; };
  35:../../libDaisy//src/hid/disp/display.h ****     size_t CurrentY() { return currentY_; };
  36:../../libDaisy//src/hid/disp/display.h **** 
  37:../../libDaisy//src/hid/disp/display.h ****     /** 
  38:../../libDaisy//src/hid/disp/display.h ****     Fills the entire display with either on/off.
  39:../../libDaisy//src/hid/disp/display.h ****     \param on Sets on or off.
  40:../../libDaisy//src/hid/disp/display.h ****     */
  41:../../libDaisy//src/hid/disp/display.h ****     virtual void Fill(bool on) = 0;
  42:../../libDaisy//src/hid/disp/display.h **** 
  43:../../libDaisy//src/hid/disp/display.h ****     /**
  44:../../libDaisy//src/hid/disp/display.h ****     Sets the pixel at the specified coordinate to be on/off.
  45:../../libDaisy//src/hid/disp/display.h ****     \param x   x Coordinate
  46:../../libDaisy//src/hid/disp/display.h ****     \param y   y coordinate
  47:../../libDaisy//src/hid/disp/display.h ****     \param on  on or off
  48:../../libDaisy//src/hid/disp/display.h ****     */
  49:../../libDaisy//src/hid/disp/display.h ****     virtual void DrawPixel(uint_fast8_t x, uint_fast8_t y, bool on) = 0;
  50:../../libDaisy//src/hid/disp/display.h **** 
  51:../../libDaisy//src/hid/disp/display.h ****     /**
  52:../../libDaisy//src/hid/disp/display.h ****     Draws a line from (x1, y1) to (y1, y2)
  53:../../libDaisy//src/hid/disp/display.h ****     \param x1  x Coordinate of the starting point
  54:../../libDaisy//src/hid/disp/display.h ****     \param y1  y Coordinate of the starting point
  55:../../libDaisy//src/hid/disp/display.h ****     \param x2  x Coordinate of the ending point
  56:../../libDaisy//src/hid/disp/display.h ****     \param y2  y Coordinate of the ending point
  57:../../libDaisy//src/hid/disp/display.h ****     \param on  on or off
  58:../../libDaisy//src/hid/disp/display.h ****     */
  59:../../libDaisy//src/hid/disp/display.h ****     virtual void DrawLine(uint_fast8_t x1,
  60:../../libDaisy//src/hid/disp/display.h ****                           uint_fast8_t y1,
  61:../../libDaisy//src/hid/disp/display.h ****                           uint_fast8_t x2,
  62:../../libDaisy//src/hid/disp/display.h ****                           uint_fast8_t y2,
  63:../../libDaisy//src/hid/disp/display.h ****                           bool         on)
  64:../../libDaisy//src/hid/disp/display.h ****         = 0;
  65:../../libDaisy//src/hid/disp/display.h **** 
  66:../../libDaisy//src/hid/disp/display.h ****     /**
  67:../../libDaisy//src/hid/disp/display.h ****     Draws a rectangle based on two coordinates.
  68:../../libDaisy//src/hid/disp/display.h ****     \param x1 x Coordinate of the first point
  69:../../libDaisy//src/hid/disp/display.h ****     \param y1 y Coordinate of the first point
  70:../../libDaisy//src/hid/disp/display.h ****     \param x2 x Coordinate of the second point
  71:../../libDaisy//src/hid/disp/display.h ****     \param y2 y Coordinate of the second point
  72:../../libDaisy//src/hid/disp/display.h ****     \param on on or off
  73:../../libDaisy//src/hid/disp/display.h ****     \param fill fill the rectangle or draw only the outline
  74:../../libDaisy//src/hid/disp/display.h ****     */
  75:../../libDaisy//src/hid/disp/display.h ****     virtual void DrawRect(uint_fast8_t x1,
  76:../../libDaisy//src/hid/disp/display.h ****                           uint_fast8_t y1,
  77:../../libDaisy//src/hid/disp/display.h ****                           uint_fast8_t x2,
  78:../../libDaisy//src/hid/disp/display.h ****                           uint_fast8_t y2,
  79:../../libDaisy//src/hid/disp/display.h ****                           bool         on,
  80:../../libDaisy//src/hid/disp/display.h ****                           bool         fill = false)
  81:../../libDaisy//src/hid/disp/display.h ****         = 0;
  82:../../libDaisy//src/hid/disp/display.h **** 
ARM GAS  /var/folders/hl/qgbwny5j0fd895c2c41bk3tw0000gp/T//ccRMOALe.s 			page 12


  83:../../libDaisy//src/hid/disp/display.h ****     /**
  84:../../libDaisy//src/hid/disp/display.h ****     Draws a rectangle.
  85:../../libDaisy//src/hid/disp/display.h ****     \param rect the rectangle
  86:../../libDaisy//src/hid/disp/display.h ****     \param on   on or off
  87:../../libDaisy//src/hid/disp/display.h ****     \param fill fill the rectangle or draw only the outline
  88:../../libDaisy//src/hid/disp/display.h ****     */
  89:../../libDaisy//src/hid/disp/display.h ****     void DrawRect(const Rectangle& rect, bool on, bool fill = false)
  90:../../libDaisy//src/hid/disp/display.h ****     {
  91:../../libDaisy//src/hid/disp/display.h ****         DrawRect(rect.GetX(),
  92:../../libDaisy//src/hid/disp/display.h ****                  rect.GetY(),
  93:../../libDaisy//src/hid/disp/display.h ****                  rect.GetRight(),
  94:../../libDaisy//src/hid/disp/display.h ****                  rect.GetBottom(),
  95:../../libDaisy//src/hid/disp/display.h ****                  on,
  96:../../libDaisy//src/hid/disp/display.h ****                  fill);
  97:../../libDaisy//src/hid/disp/display.h ****     }
  98:../../libDaisy//src/hid/disp/display.h **** 
  99:../../libDaisy//src/hid/disp/display.h ****     /**
 100:../../libDaisy//src/hid/disp/display.h ****     Draws an arc around the specified coordinate
 101:../../libDaisy//src/hid/disp/display.h ****     \param x           x Coordinate of the center of the arc
 102:../../libDaisy//src/hid/disp/display.h ****     \param y           y Coordinate of the center of the arc
 103:../../libDaisy//src/hid/disp/display.h ****     \param radius      radius of the arc
 104:../../libDaisy//src/hid/disp/display.h ****     \param start_angle angle where to start the arc
 105:../../libDaisy//src/hid/disp/display.h ****     \param sweep       total angle of the arc
 106:../../libDaisy//src/hid/disp/display.h ****     \param on  on or off
 107:../../libDaisy//src/hid/disp/display.h ****     */
 108:../../libDaisy//src/hid/disp/display.h ****     virtual void DrawArc(uint_fast8_t x,
 109:../../libDaisy//src/hid/disp/display.h ****                          uint_fast8_t y,
 110:../../libDaisy//src/hid/disp/display.h ****                          uint_fast8_t radius,
 111:../../libDaisy//src/hid/disp/display.h ****                          int_fast16_t start_angle,
 112:../../libDaisy//src/hid/disp/display.h ****                          int_fast16_t sweep,
 113:../../libDaisy//src/hid/disp/display.h ****                          bool         on)
 114:../../libDaisy//src/hid/disp/display.h ****         = 0;
 115:../../libDaisy//src/hid/disp/display.h **** 
 116:../../libDaisy//src/hid/disp/display.h ****     /**
 117:../../libDaisy//src/hid/disp/display.h ****     Draws a circle around the specified coordinate
 118:../../libDaisy//src/hid/disp/display.h ****     \param x           x Coordinate of the center of the circle
 119:../../libDaisy//src/hid/disp/display.h ****     \param y           y Coordinate of the center of the circle
 120:../../libDaisy//src/hid/disp/display.h ****     \param radius      radius of the circle
 121:../../libDaisy//src/hid/disp/display.h ****     \param on  on or off
 122:../../libDaisy//src/hid/disp/display.h ****     */
 123:../../libDaisy//src/hid/disp/display.h ****     void
 124:../../libDaisy//src/hid/disp/display.h ****     DrawCircle(uint_fast8_t x, uint_fast8_t y, uint_fast8_t radius, bool on)
 125:../../libDaisy//src/hid/disp/display.h ****     {
 126:../../libDaisy//src/hid/disp/display.h ****         DrawArc(x, y, radius, 0, 360, on);
 127:../../libDaisy//src/hid/disp/display.h ****     };
 128:../../libDaisy//src/hid/disp/display.h **** 
 129:../../libDaisy//src/hid/disp/display.h ****     /** 
 130:../../libDaisy//src/hid/disp/display.h ****     Writes the character with the specific FontDef
 131:../../libDaisy//src/hid/disp/display.h ****     to the display buffer at the current Cursor position.
 132:../../libDaisy//src/hid/disp/display.h ****     \param ch character to be written
 133:../../libDaisy//src/hid/disp/display.h ****     \param font font to be written in
 134:../../libDaisy//src/hid/disp/display.h ****     \param on    on or off
 135:../../libDaisy//src/hid/disp/display.h ****     \return &
 136:../../libDaisy//src/hid/disp/display.h ****     */
 137:../../libDaisy//src/hid/disp/display.h ****     virtual char WriteChar(char ch, FontDef font, bool on) = 0;
 138:../../libDaisy//src/hid/disp/display.h **** 
 139:../../libDaisy//src/hid/disp/display.h ****     /** 
ARM GAS  /var/folders/hl/qgbwny5j0fd895c2c41bk3tw0000gp/T//ccRMOALe.s 			page 13


 140:../../libDaisy//src/hid/disp/display.h ****     Similar to WriteChar, except it will handle an entire String.
 141:../../libDaisy//src/hid/disp/display.h ****     Wrapping does not happen automatically, so the width
 142:../../libDaisy//src/hid/disp/display.h ****     of the string must be kept within the dimensions of the screen.
 143:../../libDaisy//src/hid/disp/display.h ****     \param str string to be written
 144:../../libDaisy//src/hid/disp/display.h ****     \param font font to use
 145:../../libDaisy//src/hid/disp/display.h ****     \param on  on or off
 146:../../libDaisy//src/hid/disp/display.h ****     \return &
 147:../../libDaisy//src/hid/disp/display.h ****     */
 148:../../libDaisy//src/hid/disp/display.h ****     virtual char WriteString(const char* str, FontDef font, bool on) = 0;
 149:../../libDaisy//src/hid/disp/display.h **** 
 150:../../libDaisy//src/hid/disp/display.h ****     /** 
 151:../../libDaisy//src/hid/disp/display.h ****     Similar to WriteString but justified within a bounding box.
 152:../../libDaisy//src/hid/disp/display.h ****     \param str          string to be written
 153:../../libDaisy//src/hid/disp/display.h ****     \param font         font to use
 154:../../libDaisy//src/hid/disp/display.h ****     \param boundingBox  the bounding box to draw the text in
 155:../../libDaisy//src/hid/disp/display.h ****     \param alignment    the alignment to use
 156:../../libDaisy//src/hid/disp/display.h ****     \param on           on or off
 157:../../libDaisy//src/hid/disp/display.h ****     \return The rectangle that was drawn to
 158:../../libDaisy//src/hid/disp/display.h ****     */
 159:../../libDaisy//src/hid/disp/display.h ****     virtual Rectangle WriteStringAligned(const char*    str,
 160:../../libDaisy//src/hid/disp/display.h ****                                          const FontDef& font,
 161:../../libDaisy//src/hid/disp/display.h ****                                          Rectangle      boundingBox,
 162:../../libDaisy//src/hid/disp/display.h ****                                          Alignment      alignment,
 163:../../libDaisy//src/hid/disp/display.h ****                                          bool           on)
 164:../../libDaisy//src/hid/disp/display.h ****         = 0;
 165:../../libDaisy//src/hid/disp/display.h **** 
 166:../../libDaisy//src/hid/disp/display.h ****     /** 
 167:../../libDaisy//src/hid/disp/display.h ****     Moves the 'Cursor' position used for WriteChar, and WriteStr to the specified coordinate.
 168:../../libDaisy//src/hid/disp/display.h ****     \param x x pos
 169:../../libDaisy//src/hid/disp/display.h ****     \param y y pos
 170:../../libDaisy//src/hid/disp/display.h ****     */
 171:../../libDaisy//src/hid/disp/display.h ****     void SetCursor(uint16_t x, uint16_t y)
 172:../../libDaisy//src/hid/disp/display.h ****     {
 173:../../libDaisy//src/hid/disp/display.h ****         currentX_ = (x >= Width()) ? Width() - 1 : x;
 174:../../libDaisy//src/hid/disp/display.h ****         currentY_ = (y >= Height()) ? Height() - 1 : y;
 175:../../libDaisy//src/hid/disp/display.h ****     }
 176:../../libDaisy//src/hid/disp/display.h **** 
 177:../../libDaisy//src/hid/disp/display.h ****     /** 
 178:../../libDaisy//src/hid/disp/display.h ****     Writes the current display buffer to the OLED device using SPI or I2C depending on 
 179:../../libDaisy//src/hid/disp/display.h ****     how the object was initialized.
 180:../../libDaisy//src/hid/disp/display.h ****     */
 181:../../libDaisy//src/hid/disp/display.h ****     virtual void Update() = 0;
 182:../../libDaisy//src/hid/disp/display.h **** 
 183:../../libDaisy//src/hid/disp/display.h ****   protected:
 184:../../libDaisy//src/hid/disp/display.h ****     uint16_t currentX_;
 185:../../libDaisy//src/hid/disp/display.h ****     uint16_t currentY_;
 186:../../libDaisy//src/hid/disp/display.h **** };
 187:../../libDaisy//src/hid/disp/display.h **** 
 188:../../libDaisy//src/hid/disp/display.h **** /** This class is intended as a intermediary class for your actual implementation of the OneBitGrap
 189:../../libDaisy//src/hid/disp/display.h ****  *  interface. It uses the CRTP design pattern where the template argument is the child class. It p
 190:../../libDaisy//src/hid/disp/display.h ****  *  implementations for most of the functions, except DrawPixel(), Update() and Fill(), which you'l
 191:../../libDaisy//src/hid/disp/display.h ****  *  to provide in your child class.
 192:../../libDaisy//src/hid/disp/display.h ****  *  The main goal of this class is to provide common drawing functions without relying on massive a
 193:../../libDaisy//src/hid/disp/display.h ****  *  virtual function calls that would result in a performance loss. To achieve this, any drawing fu
 194:../../libDaisy//src/hid/disp/display.h ****  *  is implemented here and internally calls other drawing functions (e.g. DrawRect() which interna
 195:../../libDaisy//src/hid/disp/display.h ****  *  DrawPixel() and DrawLine()) makes these calls via the qualified name of these functions to expl
 196:../../libDaisy//src/hid/disp/display.h ****  *  suppress the virtual dispatch mechanism like this:
ARM GAS  /var/folders/hl/qgbwny5j0fd895c2c41bk3tw0000gp/T//ccRMOALe.s 			page 14


 197:../../libDaisy//src/hid/disp/display.h ****  * 
 198:../../libDaisy//src/hid/disp/display.h ****  *      ChildType::DrawPixel(...); // no virtual function call; direct call into the child class fu
 199:../../libDaisy//src/hid/disp/display.h ****  *  
 200:../../libDaisy//src/hid/disp/display.h ****  *  To create a custom OneBitGraphicsDisplay implementation, you can 
 201:../../libDaisy//src/hid/disp/display.h ****  *  A) inherit from OneBitGraphicsDisplay directly and provide all the drawing functions yourself
 202:../../libDaisy//src/hid/disp/display.h ****  *  B) Inherit from OneBitGraphicsDisplayImpl and only provide DrawPixel(), Fill() and Update()
 203:../../libDaisy//src/hid/disp/display.h ****  *     like this:
 204:../../libDaisy//src/hid/disp/display.h ****  *  
 205:../../libDaisy//src/hid/disp/display.h ****  *      class MyDisplayClass : public OneBitGraphicsDisplayImpl<MyDisplayClass> 
 206:../../libDaisy//src/hid/disp/display.h ****  *      {
 207:../../libDaisy//src/hid/disp/display.h ****  *      public:
 208:../../libDaisy//src/hid/disp/display.h ****  *          void Fill() override { ... };
 209:../../libDaisy//src/hid/disp/display.h ****  *          void DrawPixel(uint_fast8_t x, uint_fast8_t y, bool on) override { ... };
 210:../../libDaisy//src/hid/disp/display.h ****  *          void Update() override { ... }
 211:../../libDaisy//src/hid/disp/display.h ****  *      };
 212:../../libDaisy//src/hid/disp/display.h ****  *  
 213:../../libDaisy//src/hid/disp/display.h ****  */
 214:../../libDaisy//src/hid/disp/display.h **** template <class ChildType>
 215:../../libDaisy//src/hid/disp/display.h **** class OneBitGraphicsDisplayImpl : public OneBitGraphicsDisplay
 216:../../libDaisy//src/hid/disp/display.h **** {
 217:../../libDaisy//src/hid/disp/display.h ****   public:
 218:../../libDaisy//src/hid/disp/display.h ****     OneBitGraphicsDisplayImpl() {}
 219:../../libDaisy//src/hid/disp/display.h ****     virtual ~OneBitGraphicsDisplayImpl() {}
 104              		.loc 9 219 13 view .LVU17
 105              	.LBB435:
 106              	.LBI435:
  23:../../libDaisy//src/hid/disp/display.h **** 
 107              		.loc 9 23 13 view .LVU18
  23:../../libDaisy//src/hid/disp/display.h **** 
 108              		.loc 9 23 13 is_stmt 0 view .LVU19
 109              	.LBE435:
 110              	.LBE434:
 111              		.loc 8 18 29 view .LVU20
 112 0000 7047     		bx	lr
 113              		.cfi_endproc
 114              	.LFE5140:
 116              		.weak	_ZN5daisy11OledDisplayINS_13SSD130xDriverILj128ELj64ENS_19SSD130xI2CTransportEEEED1Ev
 117              		.thumb_set _ZN5daisy11OledDisplayINS_13SSD130xDriverILj128ELj64ENS_19SSD130xI2CTransportEEEED1Ev,_
 118 0002 00BF     		.section	.text._ZN5daisy11OledDisplayINS_13SSD130xDriverILj128ELj64ENS_19SSD130xI2CTransportEEEE4F
 119              		.align	1
 120              		.p2align 2,,3
 121              		.weak	_ZN5daisy11OledDisplayINS_13SSD130xDriverILj128ELj64ENS_19SSD130xI2CTransportEEEE4FillEb
 122              		.syntax unified
 123              		.thumb
 124              		.thumb_func
 125              		.fpu fpv5-d16
 127              	_ZN5daisy11OledDisplayINS_13SSD130xDriverILj128ELj64ENS_19SSD130xI2CTransportEEEE4FillEb:
 128              	.LVL2:
 129              	.LFB5143:
  19:../../libDaisy//src/hid/disp/oled_display.h **** 
  20:../../libDaisy//src/hid/disp/oled_display.h ****     struct Config
  21:../../libDaisy//src/hid/disp/oled_display.h ****     {
  22:../../libDaisy//src/hid/disp/oled_display.h ****         typename DisplayDriver::Config driver_config;
  23:../../libDaisy//src/hid/disp/oled_display.h ****     };
  24:../../libDaisy//src/hid/disp/oled_display.h **** 
  25:../../libDaisy//src/hid/disp/oled_display.h ****     void Init(Config config) { driver_.Init(config.driver_config); }
  26:../../libDaisy//src/hid/disp/oled_display.h **** 
ARM GAS  /var/folders/hl/qgbwny5j0fd895c2c41bk3tw0000gp/T//ccRMOALe.s 			page 15


  27:../../libDaisy//src/hid/disp/oled_display.h ****     uint16_t Height() const override { return driver_.Height(); }
  28:../../libDaisy//src/hid/disp/oled_display.h ****     uint16_t Width() const override { return driver_.Width(); }
  29:../../libDaisy//src/hid/disp/oled_display.h **** 
  30:../../libDaisy//src/hid/disp/oled_display.h ****     /** 
  31:../../libDaisy//src/hid/disp/oled_display.h ****     Fills the entire display with either on/off.
  32:../../libDaisy//src/hid/disp/oled_display.h ****     \param on Sets on or off.
  33:../../libDaisy//src/hid/disp/oled_display.h ****     */
  34:../../libDaisy//src/hid/disp/oled_display.h ****     void Fill(bool on) override { driver_.Fill(on); }
 130              		.loc 8 34 10 is_stmt 1 view -0
 131              		.cfi_startproc
 132              		@ args = 0, pretend = 0, frame = 0
 133              		@ frame_needed = 0, uses_anonymous_args = 0
 134              		@ link register save eliminated.
 135              	.LBB436:
 136              	.LBI436:
 137              		.file 10 "../../libDaisy//src/dev/oled_ssd130x.h"
   1:../../libDaisy//src/dev/oled_ssd130x.h **** #pragma once
   2:../../libDaisy//src/dev/oled_ssd130x.h **** #ifndef SA_OLED_SSD130X_H
   3:../../libDaisy//src/dev/oled_ssd130x.h **** #define SA_OLED_SSD130X_H /**< & */
   4:../../libDaisy//src/dev/oled_ssd130x.h **** 
   5:../../libDaisy//src/dev/oled_ssd130x.h **** #include "per/i2c.h"
   6:../../libDaisy//src/dev/oled_ssd130x.h **** #include "per/spi.h"
   7:../../libDaisy//src/dev/oled_ssd130x.h **** #include "per/gpio.h"
   8:../../libDaisy//src/dev/oled_ssd130x.h **** #include "sys/system.h"
   9:../../libDaisy//src/dev/oled_ssd130x.h **** 
  10:../../libDaisy//src/dev/oled_ssd130x.h **** namespace daisy
  11:../../libDaisy//src/dev/oled_ssd130x.h **** {
  12:../../libDaisy//src/dev/oled_ssd130x.h **** /**
  13:../../libDaisy//src/dev/oled_ssd130x.h ****  * I2C Transport for SSD1306 / SSD1309 OLED display devices
  14:../../libDaisy//src/dev/oled_ssd130x.h ****  */
  15:../../libDaisy//src/dev/oled_ssd130x.h **** class SSD130xI2CTransport
  16:../../libDaisy//src/dev/oled_ssd130x.h **** {
  17:../../libDaisy//src/dev/oled_ssd130x.h ****   public:
  18:../../libDaisy//src/dev/oled_ssd130x.h ****     struct Config
  19:../../libDaisy//src/dev/oled_ssd130x.h ****     {
  20:../../libDaisy//src/dev/oled_ssd130x.h ****         Config()
  21:../../libDaisy//src/dev/oled_ssd130x.h ****         {
  22:../../libDaisy//src/dev/oled_ssd130x.h ****             // Intialize using defaults
  23:../../libDaisy//src/dev/oled_ssd130x.h ****             Defaults();
  24:../../libDaisy//src/dev/oled_ssd130x.h ****         }
  25:../../libDaisy//src/dev/oled_ssd130x.h ****         I2CHandle::Config i2c_config;
  26:../../libDaisy//src/dev/oled_ssd130x.h ****         uint8_t           i2c_address;
  27:../../libDaisy//src/dev/oled_ssd130x.h ****         void              Defaults()
  28:../../libDaisy//src/dev/oled_ssd130x.h ****         {
  29:../../libDaisy//src/dev/oled_ssd130x.h ****             i2c_config.periph         = I2CHandle::Config::Peripheral::I2C_1;
  30:../../libDaisy//src/dev/oled_ssd130x.h ****             i2c_config.speed          = I2CHandle::Config::Speed::I2C_1MHZ;
  31:../../libDaisy//src/dev/oled_ssd130x.h ****             i2c_config.mode           = I2CHandle::Config::Mode::I2C_MASTER;
  32:../../libDaisy//src/dev/oled_ssd130x.h ****             i2c_config.pin_config.scl = {DSY_GPIOB, 8};
  33:../../libDaisy//src/dev/oled_ssd130x.h ****             i2c_config.pin_config.sda = {DSY_GPIOB, 9};
  34:../../libDaisy//src/dev/oled_ssd130x.h ****             i2c_address               = 0x3C;
  35:../../libDaisy//src/dev/oled_ssd130x.h ****         }
  36:../../libDaisy//src/dev/oled_ssd130x.h ****     };
  37:../../libDaisy//src/dev/oled_ssd130x.h ****     void Init(const Config& config)
  38:../../libDaisy//src/dev/oled_ssd130x.h ****     {
  39:../../libDaisy//src/dev/oled_ssd130x.h ****         i2c_address_ = config.i2c_address;
  40:../../libDaisy//src/dev/oled_ssd130x.h ****         i2c_.Init(config.i2c_config);
  41:../../libDaisy//src/dev/oled_ssd130x.h ****     };
ARM GAS  /var/folders/hl/qgbwny5j0fd895c2c41bk3tw0000gp/T//ccRMOALe.s 			page 16


  42:../../libDaisy//src/dev/oled_ssd130x.h ****     void SendCommand(uint8_t cmd)
  43:../../libDaisy//src/dev/oled_ssd130x.h ****     {
  44:../../libDaisy//src/dev/oled_ssd130x.h ****         uint8_t buf[2] = {0X00, cmd};
  45:../../libDaisy//src/dev/oled_ssd130x.h ****         i2c_.TransmitBlocking(i2c_address_, buf, 2, 1000);
  46:../../libDaisy//src/dev/oled_ssd130x.h ****     };
  47:../../libDaisy//src/dev/oled_ssd130x.h **** 
  48:../../libDaisy//src/dev/oled_ssd130x.h ****     void SendData(uint8_t* buff, size_t size)
  49:../../libDaisy//src/dev/oled_ssd130x.h ****     {
  50:../../libDaisy//src/dev/oled_ssd130x.h ****         for(size_t i = 0; i < size; i++)
  51:../../libDaisy//src/dev/oled_ssd130x.h ****         {
  52:../../libDaisy//src/dev/oled_ssd130x.h ****             uint8_t buf[2] = {0X40, buff[i]};
  53:../../libDaisy//src/dev/oled_ssd130x.h ****             i2c_.TransmitBlocking(i2c_address_, buf, 2, 1000);
  54:../../libDaisy//src/dev/oled_ssd130x.h ****         }
  55:../../libDaisy//src/dev/oled_ssd130x.h ****     };
  56:../../libDaisy//src/dev/oled_ssd130x.h **** 
  57:../../libDaisy//src/dev/oled_ssd130x.h ****   private:
  58:../../libDaisy//src/dev/oled_ssd130x.h ****     daisy::I2CHandle i2c_;
  59:../../libDaisy//src/dev/oled_ssd130x.h ****     uint8_t          i2c_address_;
  60:../../libDaisy//src/dev/oled_ssd130x.h **** };
  61:../../libDaisy//src/dev/oled_ssd130x.h **** 
  62:../../libDaisy//src/dev/oled_ssd130x.h **** /**
  63:../../libDaisy//src/dev/oled_ssd130x.h ****  * 4 Wire SPI Transport for SSD1306 / SSD1309 OLED display devices
  64:../../libDaisy//src/dev/oled_ssd130x.h ****  */
  65:../../libDaisy//src/dev/oled_ssd130x.h **** class SSD130x4WireSpiTransport
  66:../../libDaisy//src/dev/oled_ssd130x.h **** {
  67:../../libDaisy//src/dev/oled_ssd130x.h ****   public:
  68:../../libDaisy//src/dev/oled_ssd130x.h ****     struct Config
  69:../../libDaisy//src/dev/oled_ssd130x.h ****     {
  70:../../libDaisy//src/dev/oled_ssd130x.h ****         Config()
  71:../../libDaisy//src/dev/oled_ssd130x.h ****         {
  72:../../libDaisy//src/dev/oled_ssd130x.h ****             // Initialize using defaults
  73:../../libDaisy//src/dev/oled_ssd130x.h ****             Defaults();
  74:../../libDaisy//src/dev/oled_ssd130x.h ****         }
  75:../../libDaisy//src/dev/oled_ssd130x.h ****         SpiHandle::Config spi_config;
  76:../../libDaisy//src/dev/oled_ssd130x.h ****         struct
  77:../../libDaisy//src/dev/oled_ssd130x.h ****         {
  78:../../libDaisy//src/dev/oled_ssd130x.h ****             dsy_gpio_pin dc;    /**< & */
  79:../../libDaisy//src/dev/oled_ssd130x.h ****             dsy_gpio_pin reset; /**< & */
  80:../../libDaisy//src/dev/oled_ssd130x.h ****         } pin_config;
  81:../../libDaisy//src/dev/oled_ssd130x.h ****         void Defaults()
  82:../../libDaisy//src/dev/oled_ssd130x.h ****         {
  83:../../libDaisy//src/dev/oled_ssd130x.h ****             // SPI peripheral config
  84:../../libDaisy//src/dev/oled_ssd130x.h ****             spi_config.periph = SpiHandle::Config::Peripheral::SPI_1;
  85:../../libDaisy//src/dev/oled_ssd130x.h ****             spi_config.mode   = SpiHandle::Config::Mode::MASTER;
  86:../../libDaisy//src/dev/oled_ssd130x.h ****             spi_config.direction
  87:../../libDaisy//src/dev/oled_ssd130x.h ****                 = SpiHandle::Config::Direction::TWO_LINES_TX_ONLY;
  88:../../libDaisy//src/dev/oled_ssd130x.h ****             spi_config.datasize       = 8;
  89:../../libDaisy//src/dev/oled_ssd130x.h ****             spi_config.clock_polarity = SpiHandle::Config::ClockPolarity::LOW;
  90:../../libDaisy//src/dev/oled_ssd130x.h ****             spi_config.clock_phase    = SpiHandle::Config::ClockPhase::ONE_EDGE;
  91:../../libDaisy//src/dev/oled_ssd130x.h ****             spi_config.nss            = SpiHandle::Config::NSS::HARD_OUTPUT;
  92:../../libDaisy//src/dev/oled_ssd130x.h ****             spi_config.baud_prescaler = SpiHandle::Config::BaudPrescaler::PS_8;
  93:../../libDaisy//src/dev/oled_ssd130x.h ****             // SPI pin config
  94:../../libDaisy//src/dev/oled_ssd130x.h ****             spi_config.pin_config.sclk = {DSY_GPIOG, 11};
  95:../../libDaisy//src/dev/oled_ssd130x.h ****             spi_config.pin_config.miso = {DSY_GPIOX, 0};
  96:../../libDaisy//src/dev/oled_ssd130x.h ****             spi_config.pin_config.mosi = {DSY_GPIOB, 5};
  97:../../libDaisy//src/dev/oled_ssd130x.h ****             spi_config.pin_config.nss  = {DSY_GPIOG, 10};
  98:../../libDaisy//src/dev/oled_ssd130x.h ****             // SSD130x control pin config
ARM GAS  /var/folders/hl/qgbwny5j0fd895c2c41bk3tw0000gp/T//ccRMOALe.s 			page 17


  99:../../libDaisy//src/dev/oled_ssd130x.h ****             pin_config.dc    = {DSY_GPIOB, 4};
 100:../../libDaisy//src/dev/oled_ssd130x.h ****             pin_config.reset = {DSY_GPIOB, 15};
 101:../../libDaisy//src/dev/oled_ssd130x.h ****         }
 102:../../libDaisy//src/dev/oled_ssd130x.h ****     };
 103:../../libDaisy//src/dev/oled_ssd130x.h ****     void Init(const Config& config)
 104:../../libDaisy//src/dev/oled_ssd130x.h ****     {
 105:../../libDaisy//src/dev/oled_ssd130x.h ****         // Initialize both GPIO
 106:../../libDaisy//src/dev/oled_ssd130x.h ****         pin_dc_.mode = DSY_GPIO_MODE_OUTPUT_PP;
 107:../../libDaisy//src/dev/oled_ssd130x.h ****         pin_dc_.pin  = config.pin_config.dc;
 108:../../libDaisy//src/dev/oled_ssd130x.h ****         dsy_gpio_init(&pin_dc_);
 109:../../libDaisy//src/dev/oled_ssd130x.h ****         pin_reset_.mode = DSY_GPIO_MODE_OUTPUT_PP;
 110:../../libDaisy//src/dev/oled_ssd130x.h ****         pin_reset_.pin  = config.pin_config.reset;
 111:../../libDaisy//src/dev/oled_ssd130x.h ****         dsy_gpio_init(&pin_reset_);
 112:../../libDaisy//src/dev/oled_ssd130x.h **** 
 113:../../libDaisy//src/dev/oled_ssd130x.h ****         // Initialize SPI
 114:../../libDaisy//src/dev/oled_ssd130x.h ****         spi_.Init(config.spi_config);
 115:../../libDaisy//src/dev/oled_ssd130x.h **** 
 116:../../libDaisy//src/dev/oled_ssd130x.h ****         // Reset and Configure OLED.
 117:../../libDaisy//src/dev/oled_ssd130x.h ****         dsy_gpio_write(&pin_reset_, 0);
 118:../../libDaisy//src/dev/oled_ssd130x.h ****         System::Delay(10);
 119:../../libDaisy//src/dev/oled_ssd130x.h ****         dsy_gpio_write(&pin_reset_, 1);
 120:../../libDaisy//src/dev/oled_ssd130x.h ****         System::Delay(10);
 121:../../libDaisy//src/dev/oled_ssd130x.h ****     };
 122:../../libDaisy//src/dev/oled_ssd130x.h ****     void SendCommand(uint8_t cmd)
 123:../../libDaisy//src/dev/oled_ssd130x.h ****     {
 124:../../libDaisy//src/dev/oled_ssd130x.h ****         dsy_gpio_write(&pin_dc_, 0);
 125:../../libDaisy//src/dev/oled_ssd130x.h ****         spi_.BlockingTransmit(&cmd, 1);
 126:../../libDaisy//src/dev/oled_ssd130x.h ****     };
 127:../../libDaisy//src/dev/oled_ssd130x.h **** 
 128:../../libDaisy//src/dev/oled_ssd130x.h ****     void SendData(uint8_t* buff, size_t size)
 129:../../libDaisy//src/dev/oled_ssd130x.h ****     {
 130:../../libDaisy//src/dev/oled_ssd130x.h ****         dsy_gpio_write(&pin_dc_, 1);
 131:../../libDaisy//src/dev/oled_ssd130x.h ****         spi_.BlockingTransmit(buff, size);
 132:../../libDaisy//src/dev/oled_ssd130x.h ****     };
 133:../../libDaisy//src/dev/oled_ssd130x.h **** 
 134:../../libDaisy//src/dev/oled_ssd130x.h ****   private:
 135:../../libDaisy//src/dev/oled_ssd130x.h ****     SpiHandle spi_;
 136:../../libDaisy//src/dev/oled_ssd130x.h ****     dsy_gpio  pin_reset_;
 137:../../libDaisy//src/dev/oled_ssd130x.h ****     dsy_gpio  pin_dc_;
 138:../../libDaisy//src/dev/oled_ssd130x.h **** };
 139:../../libDaisy//src/dev/oled_ssd130x.h **** 
 140:../../libDaisy//src/dev/oled_ssd130x.h **** /**
 141:../../libDaisy//src/dev/oled_ssd130x.h ****  * Soft SPI Transport for SSD1306 / SSD1309 OLED display devices
 142:../../libDaisy//src/dev/oled_ssd130x.h ****  */
 143:../../libDaisy//src/dev/oled_ssd130x.h **** class SSD130x4WireSoftSpiTransport
 144:../../libDaisy//src/dev/oled_ssd130x.h **** {
 145:../../libDaisy//src/dev/oled_ssd130x.h ****   public:
 146:../../libDaisy//src/dev/oled_ssd130x.h ****     struct Config
 147:../../libDaisy//src/dev/oled_ssd130x.h ****     {
 148:../../libDaisy//src/dev/oled_ssd130x.h ****         Config()
 149:../../libDaisy//src/dev/oled_ssd130x.h ****         {
 150:../../libDaisy//src/dev/oled_ssd130x.h ****             // Initialize using defaults
 151:../../libDaisy//src/dev/oled_ssd130x.h ****             Defaults();
 152:../../libDaisy//src/dev/oled_ssd130x.h ****         }
 153:../../libDaisy//src/dev/oled_ssd130x.h ****         struct
 154:../../libDaisy//src/dev/oled_ssd130x.h ****         {
 155:../../libDaisy//src/dev/oled_ssd130x.h ****             uint32_t     sclk_delay;
ARM GAS  /var/folders/hl/qgbwny5j0fd895c2c41bk3tw0000gp/T//ccRMOALe.s 			page 18


 156:../../libDaisy//src/dev/oled_ssd130x.h ****             dsy_gpio_pin sclk;
 157:../../libDaisy//src/dev/oled_ssd130x.h ****             dsy_gpio_pin mosi;
 158:../../libDaisy//src/dev/oled_ssd130x.h ****             dsy_gpio_pin dc;
 159:../../libDaisy//src/dev/oled_ssd130x.h ****             dsy_gpio_pin reset;
 160:../../libDaisy//src/dev/oled_ssd130x.h ****         } pin_config;
 161:../../libDaisy//src/dev/oled_ssd130x.h ****         void Defaults()
 162:../../libDaisy//src/dev/oled_ssd130x.h ****         {
 163:../../libDaisy//src/dev/oled_ssd130x.h ****             pin_config.sclk_delay = 0; // fast as possible?!
 164:../../libDaisy//src/dev/oled_ssd130x.h ****             // SPI peripheral config
 165:../../libDaisy//src/dev/oled_ssd130x.h ****             pin_config.sclk = {DSY_GPIOD, 3}; /**< D10 - SPI2 SCK  */
 166:../../libDaisy//src/dev/oled_ssd130x.h ****             pin_config.mosi = {DSY_GPIOC, 3}; /**< D9  - SPI2 MOSI */
 167:../../libDaisy//src/dev/oled_ssd130x.h ****             // SSD130x control pin config
 168:../../libDaisy//src/dev/oled_ssd130x.h ****             pin_config.dc    = {DSY_GPIOC, 11}; //D2
 169:../../libDaisy//src/dev/oled_ssd130x.h ****             pin_config.reset = {DSY_GPIOC, 10}; //D3
 170:../../libDaisy//src/dev/oled_ssd130x.h ****         }
 171:../../libDaisy//src/dev/oled_ssd130x.h ****     };
 172:../../libDaisy//src/dev/oled_ssd130x.h ****     void Init(const Config& config)
 173:../../libDaisy//src/dev/oled_ssd130x.h ****     {
 174:../../libDaisy//src/dev/oled_ssd130x.h ****         // Initialize both GPIO
 175:../../libDaisy//src/dev/oled_ssd130x.h ****         pin_sclk_.mode = DSY_GPIO_MODE_OUTPUT_PP;
 176:../../libDaisy//src/dev/oled_ssd130x.h ****         pin_sclk_.pin  = config.pin_config.sclk;
 177:../../libDaisy//src/dev/oled_ssd130x.h ****         dsy_gpio_init(&pin_sclk_);
 178:../../libDaisy//src/dev/oled_ssd130x.h ****         dsy_gpio_write(&pin_sclk_, 1); //ClockPolarity::LOW
 179:../../libDaisy//src/dev/oled_ssd130x.h ****         clk_delay      = config.pin_config.sclk_delay;
 180:../../libDaisy//src/dev/oled_ssd130x.h ****         pin_mosi_.mode = DSY_GPIO_MODE_OUTPUT_PP;
 181:../../libDaisy//src/dev/oled_ssd130x.h ****         pin_mosi_.pin  = config.pin_config.mosi;
 182:../../libDaisy//src/dev/oled_ssd130x.h ****         dsy_gpio_init(&pin_mosi_);
 183:../../libDaisy//src/dev/oled_ssd130x.h ****         dsy_gpio_write(&pin_mosi_, 0);
 184:../../libDaisy//src/dev/oled_ssd130x.h **** 
 185:../../libDaisy//src/dev/oled_ssd130x.h ****         pin_dc_.mode = DSY_GPIO_MODE_OUTPUT_PP;
 186:../../libDaisy//src/dev/oled_ssd130x.h ****         pin_dc_.pin  = config.pin_config.dc;
 187:../../libDaisy//src/dev/oled_ssd130x.h ****         dsy_gpio_init(&pin_dc_);
 188:../../libDaisy//src/dev/oled_ssd130x.h ****         pin_reset_.mode = DSY_GPIO_MODE_OUTPUT_PP;
 189:../../libDaisy//src/dev/oled_ssd130x.h ****         pin_reset_.pin  = config.pin_config.reset;
 190:../../libDaisy//src/dev/oled_ssd130x.h ****         dsy_gpio_init(&pin_reset_);
 191:../../libDaisy//src/dev/oled_ssd130x.h **** 
 192:../../libDaisy//src/dev/oled_ssd130x.h ****         // Reset and Configure OLED.
 193:../../libDaisy//src/dev/oled_ssd130x.h ****         dsy_gpio_write(&pin_reset_, 0);
 194:../../libDaisy//src/dev/oled_ssd130x.h ****         System::Delay(10);
 195:../../libDaisy//src/dev/oled_ssd130x.h ****         dsy_gpio_write(&pin_reset_, 1);
 196:../../libDaisy//src/dev/oled_ssd130x.h ****         System::Delay(10);
 197:../../libDaisy//src/dev/oled_ssd130x.h ****     };
 198:../../libDaisy//src/dev/oled_ssd130x.h ****     void SendCommand(uint8_t cmd)
 199:../../libDaisy//src/dev/oled_ssd130x.h ****     {
 200:../../libDaisy//src/dev/oled_ssd130x.h ****         dsy_gpio_write(&pin_dc_, 0);
 201:../../libDaisy//src/dev/oled_ssd130x.h ****         SoftSpiTransmit(cmd);
 202:../../libDaisy//src/dev/oled_ssd130x.h ****     };
 203:../../libDaisy//src/dev/oled_ssd130x.h **** 
 204:../../libDaisy//src/dev/oled_ssd130x.h ****     void SendData(uint8_t* buff, size_t size)
 205:../../libDaisy//src/dev/oled_ssd130x.h ****     {
 206:../../libDaisy//src/dev/oled_ssd130x.h ****         dsy_gpio_write(&pin_dc_, 1);
 207:../../libDaisy//src/dev/oled_ssd130x.h ****         for(size_t i = 0; i < size; i++)
 208:../../libDaisy//src/dev/oled_ssd130x.h ****             SoftSpiTransmit(buff[i]);
 209:../../libDaisy//src/dev/oled_ssd130x.h ****     };
 210:../../libDaisy//src/dev/oled_ssd130x.h **** 
 211:../../libDaisy//src/dev/oled_ssd130x.h ****   private:
 212:../../libDaisy//src/dev/oled_ssd130x.h ****     void SoftSpiTransmit(uint8_t val)
ARM GAS  /var/folders/hl/qgbwny5j0fd895c2c41bk3tw0000gp/T//ccRMOALe.s 			page 19


 213:../../libDaisy//src/dev/oled_ssd130x.h ****     {
 214:../../libDaisy//src/dev/oled_ssd130x.h ****         // bit flip
 215:../../libDaisy//src/dev/oled_ssd130x.h ****         val = ((val & 0x01) << 7) | ((val & 0x02) << 5) | ((val & 0x04) << 3)
 216:../../libDaisy//src/dev/oled_ssd130x.h ****               | ((val & 0x08) << 1) | ((val & 0x10) >> 1) | ((val & 0x20) >> 3)
 217:../../libDaisy//src/dev/oled_ssd130x.h ****               | ((val & 0x40) >> 5) | ((val & 0x80) >> 7);
 218:../../libDaisy//src/dev/oled_ssd130x.h **** 
 219:../../libDaisy//src/dev/oled_ssd130x.h ****         for(uint8_t bit = 0u; bit < 8u; bit++)
 220:../../libDaisy//src/dev/oled_ssd130x.h ****         {
 221:../../libDaisy//src/dev/oled_ssd130x.h ****             dsy_gpio_write(&pin_mosi_, ((val & (1 << bit)) ? 1 : 0));
 222:../../libDaisy//src/dev/oled_ssd130x.h **** 
 223:../../libDaisy//src/dev/oled_ssd130x.h ****             System::DelayTicks(clk_delay);
 224:../../libDaisy//src/dev/oled_ssd130x.h **** 
 225:../../libDaisy//src/dev/oled_ssd130x.h ****             dsy_gpio_toggle(&pin_sclk_);
 226:../../libDaisy//src/dev/oled_ssd130x.h **** 
 227:../../libDaisy//src/dev/oled_ssd130x.h ****             System::DelayTicks(clk_delay);
 228:../../libDaisy//src/dev/oled_ssd130x.h **** 
 229:../../libDaisy//src/dev/oled_ssd130x.h ****             dsy_gpio_toggle(&pin_sclk_);
 230:../../libDaisy//src/dev/oled_ssd130x.h ****         }
 231:../../libDaisy//src/dev/oled_ssd130x.h ****     }
 232:../../libDaisy//src/dev/oled_ssd130x.h **** 
 233:../../libDaisy//src/dev/oled_ssd130x.h ****     uint32_t clk_delay;
 234:../../libDaisy//src/dev/oled_ssd130x.h ****     dsy_gpio pin_sclk_;
 235:../../libDaisy//src/dev/oled_ssd130x.h ****     dsy_gpio pin_mosi_;
 236:../../libDaisy//src/dev/oled_ssd130x.h ****     dsy_gpio pin_reset_;
 237:../../libDaisy//src/dev/oled_ssd130x.h ****     dsy_gpio pin_dc_;
 238:../../libDaisy//src/dev/oled_ssd130x.h **** };
 239:../../libDaisy//src/dev/oled_ssd130x.h **** 
 240:../../libDaisy//src/dev/oled_ssd130x.h **** 
 241:../../libDaisy//src/dev/oled_ssd130x.h **** /**
 242:../../libDaisy//src/dev/oled_ssd130x.h ****  * A driver implementation for the SSD1306/SSD1309
 243:../../libDaisy//src/dev/oled_ssd130x.h ****  */
 244:../../libDaisy//src/dev/oled_ssd130x.h **** template <size_t width, size_t height, typename Transport>
 245:../../libDaisy//src/dev/oled_ssd130x.h **** class SSD130xDriver
 246:../../libDaisy//src/dev/oled_ssd130x.h **** {
 247:../../libDaisy//src/dev/oled_ssd130x.h ****   public:
 248:../../libDaisy//src/dev/oled_ssd130x.h ****     struct Config
 249:../../libDaisy//src/dev/oled_ssd130x.h ****     {
 250:../../libDaisy//src/dev/oled_ssd130x.h ****         typename Transport::Config transport_config;
 251:../../libDaisy//src/dev/oled_ssd130x.h ****     };
 252:../../libDaisy//src/dev/oled_ssd130x.h **** 
 253:../../libDaisy//src/dev/oled_ssd130x.h ****     void Init(Config config)
 254:../../libDaisy//src/dev/oled_ssd130x.h ****     {
 255:../../libDaisy//src/dev/oled_ssd130x.h ****         transport_.Init(config.transport_config);
 256:../../libDaisy//src/dev/oled_ssd130x.h **** 
 257:../../libDaisy//src/dev/oled_ssd130x.h ****         // Init routine...
 258:../../libDaisy//src/dev/oled_ssd130x.h **** 
 259:../../libDaisy//src/dev/oled_ssd130x.h ****         // Display Off
 260:../../libDaisy//src/dev/oled_ssd130x.h ****         transport_.SendCommand(0xaE);
 261:../../libDaisy//src/dev/oled_ssd130x.h ****         // Dimension dependent commands...
 262:../../libDaisy//src/dev/oled_ssd130x.h ****         switch(height)
 263:../../libDaisy//src/dev/oled_ssd130x.h ****         {
 264:../../libDaisy//src/dev/oled_ssd130x.h ****             case 16:
 265:../../libDaisy//src/dev/oled_ssd130x.h ****                 // Display Clock Divide Ratio
 266:../../libDaisy//src/dev/oled_ssd130x.h ****                 transport_.SendCommand(0xD5);
 267:../../libDaisy//src/dev/oled_ssd130x.h ****                 transport_.SendCommand(0x60);
 268:../../libDaisy//src/dev/oled_ssd130x.h ****                 // Multiplex Ratio
 269:../../libDaisy//src/dev/oled_ssd130x.h ****                 transport_.SendCommand(0xA8);
ARM GAS  /var/folders/hl/qgbwny5j0fd895c2c41bk3tw0000gp/T//ccRMOALe.s 			page 20


 270:../../libDaisy//src/dev/oled_ssd130x.h ****                 transport_.SendCommand(0x0F);
 271:../../libDaisy//src/dev/oled_ssd130x.h ****                 // COM Pins
 272:../../libDaisy//src/dev/oled_ssd130x.h ****                 transport_.SendCommand(0xDA);
 273:../../libDaisy//src/dev/oled_ssd130x.h ****                 transport_.SendCommand(0x02);
 274:../../libDaisy//src/dev/oled_ssd130x.h ****                 break;
 275:../../libDaisy//src/dev/oled_ssd130x.h ****             case 32:
 276:../../libDaisy//src/dev/oled_ssd130x.h ****                 // Display Clock Divide Ratio
 277:../../libDaisy//src/dev/oled_ssd130x.h ****                 transport_.SendCommand(0xD5);
 278:../../libDaisy//src/dev/oled_ssd130x.h ****                 transport_.SendCommand(0x80);
 279:../../libDaisy//src/dev/oled_ssd130x.h ****                 // Multiplex Ratio
 280:../../libDaisy//src/dev/oled_ssd130x.h ****                 transport_.SendCommand(0xA8);
 281:../../libDaisy//src/dev/oled_ssd130x.h ****                 transport_.SendCommand(0x1F);
 282:../../libDaisy//src/dev/oled_ssd130x.h ****                 // COM Pins
 283:../../libDaisy//src/dev/oled_ssd130x.h ****                 transport_.SendCommand(0xDA);
 284:../../libDaisy//src/dev/oled_ssd130x.h ****                 if(width == 64)
 285:../../libDaisy//src/dev/oled_ssd130x.h ****                 {
 286:../../libDaisy//src/dev/oled_ssd130x.h ****                     transport_.SendCommand(0x12);
 287:../../libDaisy//src/dev/oled_ssd130x.h ****                 }
 288:../../libDaisy//src/dev/oled_ssd130x.h ****                 else
 289:../../libDaisy//src/dev/oled_ssd130x.h ****                 {
 290:../../libDaisy//src/dev/oled_ssd130x.h ****                     transport_.SendCommand(0x02);
 291:../../libDaisy//src/dev/oled_ssd130x.h ****                 }
 292:../../libDaisy//src/dev/oled_ssd130x.h **** 
 293:../../libDaisy//src/dev/oled_ssd130x.h ****                 break;
 294:../../libDaisy//src/dev/oled_ssd130x.h ****             case 48:
 295:../../libDaisy//src/dev/oled_ssd130x.h ****                 // Display Clock Divide Ratio
 296:../../libDaisy//src/dev/oled_ssd130x.h ****                 transport_.SendCommand(0xD5);
 297:../../libDaisy//src/dev/oled_ssd130x.h ****                 transport_.SendCommand(0x80);
 298:../../libDaisy//src/dev/oled_ssd130x.h ****                 // Multiplex Ratio
 299:../../libDaisy//src/dev/oled_ssd130x.h ****                 transport_.SendCommand(0xA8);
 300:../../libDaisy//src/dev/oled_ssd130x.h ****                 transport_.SendCommand(0x2F);
 301:../../libDaisy//src/dev/oled_ssd130x.h ****                 // COM Pins
 302:../../libDaisy//src/dev/oled_ssd130x.h ****                 transport_.SendCommand(0xDA);
 303:../../libDaisy//src/dev/oled_ssd130x.h ****                 transport_.SendCommand(0x12);
 304:../../libDaisy//src/dev/oled_ssd130x.h ****                 break;
 305:../../libDaisy//src/dev/oled_ssd130x.h ****             default: // 128
 306:../../libDaisy//src/dev/oled_ssd130x.h ****                 // Display Clock Divide Ratio
 307:../../libDaisy//src/dev/oled_ssd130x.h ****                 transport_.SendCommand(0xD5);
 308:../../libDaisy//src/dev/oled_ssd130x.h ****                 transport_.SendCommand(0x80);
 309:../../libDaisy//src/dev/oled_ssd130x.h ****                 // Multiplex Ratio
 310:../../libDaisy//src/dev/oled_ssd130x.h ****                 transport_.SendCommand(0xA8);
 311:../../libDaisy//src/dev/oled_ssd130x.h ****                 transport_.SendCommand(0x3F);
 312:../../libDaisy//src/dev/oled_ssd130x.h ****                 // COM Pins
 313:../../libDaisy//src/dev/oled_ssd130x.h ****                 transport_.SendCommand(0xDA);
 314:../../libDaisy//src/dev/oled_ssd130x.h ****                 transport_.SendCommand(0x12);
 315:../../libDaisy//src/dev/oled_ssd130x.h ****                 break;
 316:../../libDaisy//src/dev/oled_ssd130x.h ****         }
 317:../../libDaisy//src/dev/oled_ssd130x.h **** 
 318:../../libDaisy//src/dev/oled_ssd130x.h ****         // Display Offset
 319:../../libDaisy//src/dev/oled_ssd130x.h ****         transport_.SendCommand(0xD3);
 320:../../libDaisy//src/dev/oled_ssd130x.h ****         transport_.SendCommand(0x00);
 321:../../libDaisy//src/dev/oled_ssd130x.h ****         // Start Line Address
 322:../../libDaisy//src/dev/oled_ssd130x.h ****         transport_.SendCommand(0x40);
 323:../../libDaisy//src/dev/oled_ssd130x.h ****         // Normal Display
 324:../../libDaisy//src/dev/oled_ssd130x.h ****         transport_.SendCommand(0xA6);
 325:../../libDaisy//src/dev/oled_ssd130x.h ****         // All On Resume
 326:../../libDaisy//src/dev/oled_ssd130x.h ****         transport_.SendCommand(0xA4);
ARM GAS  /var/folders/hl/qgbwny5j0fd895c2c41bk3tw0000gp/T//ccRMOALe.s 			page 21


 327:../../libDaisy//src/dev/oled_ssd130x.h ****         // Charge Pump
 328:../../libDaisy//src/dev/oled_ssd130x.h ****         transport_.SendCommand(0x8D);
 329:../../libDaisy//src/dev/oled_ssd130x.h ****         transport_.SendCommand(0x14);
 330:../../libDaisy//src/dev/oled_ssd130x.h ****         // Set Segment Remap
 331:../../libDaisy//src/dev/oled_ssd130x.h ****         transport_.SendCommand(0xA1);
 332:../../libDaisy//src/dev/oled_ssd130x.h ****         // COM Output Scan Direction
 333:../../libDaisy//src/dev/oled_ssd130x.h ****         transport_.SendCommand(0xC8);
 334:../../libDaisy//src/dev/oled_ssd130x.h ****         // Contrast Control
 335:../../libDaisy//src/dev/oled_ssd130x.h ****         transport_.SendCommand(0x81);
 336:../../libDaisy//src/dev/oled_ssd130x.h ****         transport_.SendCommand(0x8F);
 337:../../libDaisy//src/dev/oled_ssd130x.h ****         // Pre Charge
 338:../../libDaisy//src/dev/oled_ssd130x.h ****         transport_.SendCommand(0xD9);
 339:../../libDaisy//src/dev/oled_ssd130x.h ****         transport_.SendCommand(0x25);
 340:../../libDaisy//src/dev/oled_ssd130x.h ****         // VCOM Detect
 341:../../libDaisy//src/dev/oled_ssd130x.h ****         transport_.SendCommand(0xDB);
 342:../../libDaisy//src/dev/oled_ssd130x.h ****         transport_.SendCommand(0x34);
 343:../../libDaisy//src/dev/oled_ssd130x.h **** 
 344:../../libDaisy//src/dev/oled_ssd130x.h **** 
 345:../../libDaisy//src/dev/oled_ssd130x.h ****         // Display On
 346:../../libDaisy//src/dev/oled_ssd130x.h ****         transport_.SendCommand(0xAF); //--turn on oled panel
 347:../../libDaisy//src/dev/oled_ssd130x.h ****     };
 348:../../libDaisy//src/dev/oled_ssd130x.h **** 
 349:../../libDaisy//src/dev/oled_ssd130x.h ****     size_t Width() const { return width; };
 350:../../libDaisy//src/dev/oled_ssd130x.h ****     size_t Height() const { return height; };
 351:../../libDaisy//src/dev/oled_ssd130x.h **** 
 352:../../libDaisy//src/dev/oled_ssd130x.h ****     void DrawPixel(uint_fast8_t x, uint_fast8_t y, bool on)
 353:../../libDaisy//src/dev/oled_ssd130x.h ****     {
 354:../../libDaisy//src/dev/oled_ssd130x.h ****         if(x >= width || y >= height)
 355:../../libDaisy//src/dev/oled_ssd130x.h ****             return;
 356:../../libDaisy//src/dev/oled_ssd130x.h ****         if(on)
 357:../../libDaisy//src/dev/oled_ssd130x.h ****             buffer_[x + (y / 8) * width] |= (1 << (y % 8));
 358:../../libDaisy//src/dev/oled_ssd130x.h ****         else
 359:../../libDaisy//src/dev/oled_ssd130x.h ****             buffer_[x + (y / 8) * width] &= ~(1 << (y % 8));
 360:../../libDaisy//src/dev/oled_ssd130x.h ****     }
 361:../../libDaisy//src/dev/oled_ssd130x.h **** 
 362:../../libDaisy//src/dev/oled_ssd130x.h ****     void Fill(bool on)
 138              		.loc 10 362 10 view .LVU22
 139              	.LBB437:
 363:../../libDaisy//src/dev/oled_ssd130x.h ****     {
 364:../../libDaisy//src/dev/oled_ssd130x.h ****         for(size_t i = 0; i < sizeof(buffer_); i++)
 140              		.loc 10 364 29 view .LVU23
 365:../../libDaisy//src/dev/oled_ssd130x.h ****         {
 366:../../libDaisy//src/dev/oled_ssd130x.h ****             buffer_[i] = on ? 0xff : 0x00;
 141              		.loc 10 366 24 is_stmt 0 view .LVU24
 142 0000 4942     		rsbs	r1, r1, #0
 143              	.LVL3:
 144              		.loc 10 366 24 view .LVU25
 145 0002 4FF48062 		mov	r2, #1024
 146 0006 1030     		adds	r0, r0, #16
 147              	.LVL4:
 148              		.loc 10 366 24 view .LVU26
 149 0008 C9B2     		uxtb	r1, r1
 150 000a FFF7FEBF 		b	memset
 151              	.LVL5:
 152              		.loc 10 366 24 view .LVU27
 153              	.LBE437:
 154              	.LBE436:
ARM GAS  /var/folders/hl/qgbwny5j0fd895c2c41bk3tw0000gp/T//ccRMOALe.s 			page 22


 155              		.cfi_endproc
 156              	.LFE5143:
 158 000e 00BF     		.section	.text._ZN5daisy9Patch_BayD2Ev,"axG",%progbits,_ZN5daisy9Patch_BayD5Ev,comdat
 159              		.align	1
 160              		.p2align 2,,3
 161              		.weak	_ZN5daisy9Patch_BayD2Ev
 162              		.syntax unified
 163              		.thumb
 164              		.thumb_func
 165              		.fpu fpv5-d16
 167              	_ZN5daisy9Patch_BayD2Ev:
 168              	.LVL6:
 169              	.LFB5414:
 170              		.file 11 "patch_bay.h"
   1:patch_bay.h   **** #pragma once 
   2:patch_bay.h   **** #ifndef PATCH_BAY_BSP_H
   3:patch_bay.h   **** #define PATCH_BAY_BSP_H
   4:patch_bay.h   **** 
   5:patch_bay.h   **** #include "daisy.h"
   6:patch_bay.h   **** #include "daisy_patch_sm.h"
   7:patch_bay.h   **** #include "dev/oled_ssd130x.h"
   8:patch_bay.h   **** 
   9:patch_bay.h   **** using namespace daisy;
  10:patch_bay.h   **** using namespace patch_sm;
  11:patch_bay.h   **** 
  12:patch_bay.h   **** namespace daisy {
  13:patch_bay.h   **** 
  14:patch_bay.h   **** class Patch_Bay
 171              		.loc 11 14 7 is_stmt 1 view -0
 172              		.cfi_startproc
 173              		@ args = 0, pretend = 0, frame = 0
 174              		@ frame_needed = 0, uses_anonymous_args = 0
 175              		@ link register save eliminated.
 176              	.LBB438:
 177              	.LBI438:
 178              		.file 12 "../../libDaisy//src/hid/led.h"
   1:../../libDaisy//src/hid/led.h **** 
   2:../../libDaisy//src/hid/led.h **** #pragma once
   3:../../libDaisy//src/hid/led.h **** #ifndef DSY_LED_H
   4:../../libDaisy//src/hid/led.h **** #define DSY_LED_H
   5:../../libDaisy//src/hid/led.h **** #include "daisy_core.h"
   6:../../libDaisy//src/hid/led.h **** #include "per/gpio.h"
   7:../../libDaisy//src/hid/led.h **** 
   8:../../libDaisy//src/hid/led.h **** /* TODO - Get this set up to work with the dev_leddriver stuff as well
   9:../../libDaisy//src/hid/led.h **** - Setup Hardware PWM for pins that have it
  10:../../libDaisy//src/hid/led.h **** */
  11:../../libDaisy//src/hid/led.h **** 
  12:../../libDaisy//src/hid/led.h **** namespace daisy
  13:../../libDaisy//src/hid/led.h **** {
  14:../../libDaisy//src/hid/led.h **** /**
  15:../../libDaisy//src/hid/led.h ****     @brief LED Class providing simple Software PWM ability, etc \n 
  16:../../libDaisy//src/hid/led.h ****     Eventually this will work with hardware PWM, and external LED Driver devices as well.
  17:../../libDaisy//src/hid/led.h ****     @author shensley
  18:../../libDaisy//src/hid/led.h ****     @date March 2020
  19:../../libDaisy//src/hid/led.h ****     @ingroup feedback
  20:../../libDaisy//src/hid/led.h **** */
  21:../../libDaisy//src/hid/led.h **** class Led
ARM GAS  /var/folders/hl/qgbwny5j0fd895c2c41bk3tw0000gp/T//ccRMOALe.s 			page 23


  22:../../libDaisy//src/hid/led.h **** {
  23:../../libDaisy//src/hid/led.h ****   public:
  24:../../libDaisy//src/hid/led.h ****     Led() {}
  25:../../libDaisy//src/hid/led.h ****     ~Led() {}
 179              		.loc 12 25 5 view .LVU29
 180              		.loc 12 25 5 is_stmt 0 view .LVU30
 181              	.LBE438:
 182              	.LBB439:
 183              	.LBI439:
 184              		.loc 12 25 5 is_stmt 1 view .LVU31
 185              		.loc 12 25 5 is_stmt 0 view .LVU32
 186              	.LBE439:
 187              	.LBB440:
 188              	.LBI440:
 189              		.loc 12 25 5 is_stmt 1 view .LVU33
 190              		.loc 12 25 5 is_stmt 0 view .LVU34
 191              	.LBE440:
 192              	.LBB441:
 193              	.LBI441:
  18:../../libDaisy//src/hid/disp/oled_display.h **** 
 194              		.loc 8 18 13 is_stmt 1 view .LVU35
 195              	.LBB442:
 196              	.LBI442:
 197              		.loc 9 219 13 view .LVU36
 198              	.LBB443:
 199              	.LBI443:
  23:../../libDaisy//src/hid/disp/display.h **** 
 200              		.loc 9 23 13 view .LVU37
  23:../../libDaisy//src/hid/disp/display.h **** 
 201              		.loc 9 23 13 is_stmt 0 view .LVU38
 202              	.LBE443:
 203              	.LBE442:
 204              	.LBE441:
 205              	.LBB444:
 206              	.LBI444:
 207              		.file 13 "../../libDaisy//src/hid/encoder.h"
   1:../../libDaisy//src/hid/encoder.h **** #pragma once
   2:../../libDaisy//src/hid/encoder.h **** #ifndef DSY_ENCODER_H
   3:../../libDaisy//src/hid/encoder.h **** #define DSY_ENCODER_H
   4:../../libDaisy//src/hid/encoder.h **** #include "daisy_core.h"
   5:../../libDaisy//src/hid/encoder.h **** #include "per/gpio.h"
   6:../../libDaisy//src/hid/encoder.h **** #include "hid/switch.h"
   7:../../libDaisy//src/hid/encoder.h **** 
   8:../../libDaisy//src/hid/encoder.h **** namespace daisy
   9:../../libDaisy//src/hid/encoder.h **** {
  10:../../libDaisy//src/hid/encoder.h **** /** 
  11:../../libDaisy//src/hid/encoder.h ****     @brief Generic Class for handling Quadrature Encoders \n 
  12:../../libDaisy//src/hid/encoder.h ****     Inspired/influenced by Mutable Instruments (pichenettes) Encoder classes
  13:../../libDaisy//src/hid/encoder.h ****     @author Stephen Hensley
  14:../../libDaisy//src/hid/encoder.h ****     @date December 2019
  15:../../libDaisy//src/hid/encoder.h ****     @ingroup controls
  16:../../libDaisy//src/hid/encoder.h **** */
  17:../../libDaisy//src/hid/encoder.h **** class Encoder
  18:../../libDaisy//src/hid/encoder.h **** {
  19:../../libDaisy//src/hid/encoder.h ****   public:
  20:../../libDaisy//src/hid/encoder.h ****     Encoder() {}
  21:../../libDaisy//src/hid/encoder.h ****     ~Encoder() {}
ARM GAS  /var/folders/hl/qgbwny5j0fd895c2c41bk3tw0000gp/T//ccRMOALe.s 			page 24


 208              		.loc 13 21 5 is_stmt 1 view .LVU39
 209              	.LBB445:
 210              	.LBI445:
 211              		.file 14 "../../libDaisy//src/hid/switch.h"
   1:../../libDaisy//src/hid/switch.h **** #pragma once
   2:../../libDaisy//src/hid/switch.h **** #ifndef DSY_SWITCH_H
   3:../../libDaisy//src/hid/switch.h **** #define DSY_SWITCH_H
   4:../../libDaisy//src/hid/switch.h **** #include "daisy_core.h"
   5:../../libDaisy//src/hid/switch.h **** #include "per/gpio.h"
   6:../../libDaisy//src/hid/switch.h **** #include "sys/system.h"
   7:../../libDaisy//src/hid/switch.h **** 
   8:../../libDaisy//src/hid/switch.h **** namespace daisy
   9:../../libDaisy//src/hid/switch.h **** {
  10:../../libDaisy//src/hid/switch.h **** /** 
  11:../../libDaisy//src/hid/switch.h ****     Generic Class for handling momentary/latching switches \n 
  12:../../libDaisy//src/hid/switch.h ****     Inspired/influenced by Mutable Instruments (pichenettes) Switch classes
  13:../../libDaisy//src/hid/switch.h ****     @author Stephen Hensley
  14:../../libDaisy//src/hid/switch.h ****     @date December 2019
  15:../../libDaisy//src/hid/switch.h ****     @ingroup controls
  16:../../libDaisy//src/hid/switch.h **** */
  17:../../libDaisy//src/hid/switch.h **** class Switch
  18:../../libDaisy//src/hid/switch.h **** {
  19:../../libDaisy//src/hid/switch.h ****   public:
  20:../../libDaisy//src/hid/switch.h ****     /** Specifies the expected behavior of the switch */
  21:../../libDaisy//src/hid/switch.h ****     enum Type
  22:../../libDaisy//src/hid/switch.h ****     {
  23:../../libDaisy//src/hid/switch.h ****         TYPE_TOGGLE,    /**< & */
  24:../../libDaisy//src/hid/switch.h ****         TYPE_MOMENTARY, /**< & */
  25:../../libDaisy//src/hid/switch.h ****     };
  26:../../libDaisy//src/hid/switch.h ****     /** Specifies whether the pressed is HIGH or LOW. */
  27:../../libDaisy//src/hid/switch.h ****     enum Polarity
  28:../../libDaisy//src/hid/switch.h ****     {
  29:../../libDaisy//src/hid/switch.h ****         POLARITY_NORMAL,   /**< & */
  30:../../libDaisy//src/hid/switch.h ****         POLARITY_INVERTED, /**< & */
  31:../../libDaisy//src/hid/switch.h ****     };
  32:../../libDaisy//src/hid/switch.h **** 
  33:../../libDaisy//src/hid/switch.h ****     /** Specifies whether to use built-in Pull Up/Down resistors to hold button at a given state wh
  34:../../libDaisy//src/hid/switch.h ****     enum Pull
  35:../../libDaisy//src/hid/switch.h ****     {
  36:../../libDaisy//src/hid/switch.h ****         PULL_UP,   /**< & */
  37:../../libDaisy//src/hid/switch.h ****         PULL_DOWN, /**< & */
  38:../../libDaisy//src/hid/switch.h ****         PULL_NONE, /**< & */
  39:../../libDaisy//src/hid/switch.h ****     };
  40:../../libDaisy//src/hid/switch.h **** 
  41:../../libDaisy//src/hid/switch.h ****     Switch() {}
  42:../../libDaisy//src/hid/switch.h ****     ~Switch() {}
 212              		.loc 14 42 5 view .LVU40
 213              		.loc 14 42 5 is_stmt 0 view .LVU41
 214              	.LBE445:
 215              	.LBE444:
 216              	.LBB446:
 217              	.LBI446:
 218              		.loc 14 42 5 is_stmt 1 view .LVU42
 219              		.loc 14 42 5 is_stmt 0 view .LVU43
 220              	.LBE446:
 221              	.LBB447:
 222              	.LBI447:
ARM GAS  /var/folders/hl/qgbwny5j0fd895c2c41bk3tw0000gp/T//ccRMOALe.s 			page 25


 223              		.file 15 "../../libDaisy//src/per/sdmmc.h"
   1:../../libDaisy//src/per/sdmmc.h **** /*
   2:../../libDaisy//src/per/sdmmc.h **** TODO: 
   3:../../libDaisy//src/per/sdmmc.h **** - Implement configuration (currently all settings are fixed).
   4:../../libDaisy//src/per/sdmmc.h **** */
   5:../../libDaisy//src/per/sdmmc.h **** #pragma once
   6:../../libDaisy//src/per/sdmmc.h **** #ifndef DSY_SDMMC_H
   7:../../libDaisy//src/per/sdmmc.h **** #define DSY_SDMMC_H /**< macro */
   8:../../libDaisy//src/per/sdmmc.h **** 
   9:../../libDaisy//src/per/sdmmc.h **** #include <stdint.h>
  10:../../libDaisy//src/per/sdmmc.h **** 
  11:../../libDaisy//src/per/sdmmc.h **** 
  12:../../libDaisy//src/per/sdmmc.h **** namespace daisy
  13:../../libDaisy//src/per/sdmmc.h **** {
  14:../../libDaisy//src/per/sdmmc.h **** /** @ingroup peripheral
  15:../../libDaisy//src/per/sdmmc.h ****     @{
  16:../../libDaisy//src/per/sdmmc.h ****     */
  17:../../libDaisy//src/per/sdmmc.h **** 
  18:../../libDaisy//src/per/sdmmc.h **** /** Configuration for interfacing with SD cards.
  19:../../libDaisy//src/per/sdmmc.h ****  *  Currently only supports operation using FatFS filesystem
  20:../../libDaisy//src/per/sdmmc.h ****  * 
  21:../../libDaisy//src/per/sdmmc.h ****  *  Only SDMMC1 is supported at this time.
  22:../../libDaisy//src/per/sdmmc.h ****  *
  23:../../libDaisy//src/per/sdmmc.h ****  *  Pins are fixed to the following:
  24:../../libDaisy//src/per/sdmmc.h ****  *  PC12 - SDMMC1 CK
  25:../../libDaisy//src/per/sdmmc.h ****  *  PD2  - SDMMC1 CMD
  26:../../libDaisy//src/per/sdmmc.h ****  *  PC8  - SDMMC1 D0
  27:../../libDaisy//src/per/sdmmc.h ****  *  PC9  - SDMMC1 D1 (optional)
  28:../../libDaisy//src/per/sdmmc.h ****  *  PC10 - SDMMC1 D2 (optional)
  29:../../libDaisy//src/per/sdmmc.h ****  *  PC11 - SDMMC1 D3 (optional)
  30:../../libDaisy//src/per/sdmmc.h **** */
  31:../../libDaisy//src/per/sdmmc.h **** class SdmmcHandler
  32:../../libDaisy//src/per/sdmmc.h **** {
  33:../../libDaisy//src/per/sdmmc.h ****   public:
  34:../../libDaisy//src/per/sdmmc.h ****     /** Return values for the SdmmcHandler class */
  35:../../libDaisy//src/per/sdmmc.h ****     enum class Result
  36:../../libDaisy//src/per/sdmmc.h ****     {
  37:../../libDaisy//src/per/sdmmc.h ****         OK,
  38:../../libDaisy//src/per/sdmmc.h ****         ERROR,
  39:../../libDaisy//src/per/sdmmc.h ****     };
  40:../../libDaisy//src/per/sdmmc.h **** 
  41:../../libDaisy//src/per/sdmmc.h ****     /** Sets whether 4-bit mode or 1-bit mode is used for the SDMMC */
  42:../../libDaisy//src/per/sdmmc.h ****     enum class BusWidth
  43:../../libDaisy//src/per/sdmmc.h ****     {
  44:../../libDaisy//src/per/sdmmc.h ****         BITS_1, /**< Only 1 bit of data per clock is transferred */
  45:../../libDaisy//src/per/sdmmc.h ****         BITS_4, /**< 4-bits of parallel data for each clock pulse */
  46:../../libDaisy//src/per/sdmmc.h ****     };
  47:../../libDaisy//src/per/sdmmc.h **** 
  48:../../libDaisy//src/per/sdmmc.h ****     /** 
  49:../../libDaisy//src/per/sdmmc.h ****     Sets the desired clock speed of the SD card bus. \n 
  50:../../libDaisy//src/per/sdmmc.h ****     Initialization is always done at or below 400kHz, and then the user speed is set.
  51:../../libDaisy//src/per/sdmmc.h ****     */
  52:../../libDaisy//src/per/sdmmc.h ****     enum class Speed
  53:../../libDaisy//src/per/sdmmc.h ****     {
  54:../../libDaisy//src/per/sdmmc.h ****         SLOW, /**< 400kHz, initialization  performed at this rate, before moving to user value */
  55:../../libDaisy//src/per/sdmmc.h ****         MEDIUM_SLOW, /**< 12.5MHz - half of standard rate */
  56:../../libDaisy//src/per/sdmmc.h ****         STANDARD,    /**< 25MHz - DS (Default Speed for SDMMC) */
ARM GAS  /var/folders/hl/qgbwny5j0fd895c2c41bk3tw0000gp/T//ccRMOALe.s 			page 26


  57:../../libDaisy//src/per/sdmmc.h ****         FAST,        /**< 50MHz - HS (High Speed signaling) */
  58:../../libDaisy//src/per/sdmmc.h ****         VERY_FAST, /**< 100MHz - SDR50 Overclocked rate for maximum transfer rates */
  59:../../libDaisy//src/per/sdmmc.h ****     };
  60:../../libDaisy//src/per/sdmmc.h **** 
  61:../../libDaisy//src/per/sdmmc.h ****     struct Config
  62:../../libDaisy//src/per/sdmmc.h ****     {
  63:../../libDaisy//src/per/sdmmc.h ****         Speed    speed;
  64:../../libDaisy//src/per/sdmmc.h ****         BusWidth width;
  65:../../libDaisy//src/per/sdmmc.h ****         bool
  66:../../libDaisy//src/per/sdmmc.h ****             clock_powersave; /**< When true, the clock will stop between transfers to save power. *
  67:../../libDaisy//src/per/sdmmc.h **** 
  68:../../libDaisy//src/per/sdmmc.h ****         /** Configures settings to their default settings */
  69:../../libDaisy//src/per/sdmmc.h ****         void Defaults()
  70:../../libDaisy//src/per/sdmmc.h ****         {
  71:../../libDaisy//src/per/sdmmc.h ****             speed           = Speed::FAST;
  72:../../libDaisy//src/per/sdmmc.h ****             width           = BusWidth::BITS_4;
  73:../../libDaisy//src/per/sdmmc.h ****             clock_powersave = false;
  74:../../libDaisy//src/per/sdmmc.h ****         }
  75:../../libDaisy//src/per/sdmmc.h ****     };
  76:../../libDaisy//src/per/sdmmc.h **** 
  77:../../libDaisy//src/per/sdmmc.h ****     SdmmcHandler() {}
  78:../../libDaisy//src/per/sdmmc.h ****     ~SdmmcHandler() {}
 224              		.loc 15 78 5 is_stmt 1 view .LVU44
 225              		.loc 15 78 5 is_stmt 0 view .LVU45
 226              	.LBE447:
 227              		.loc 11 14 7 view .LVU46
 228 0000 7047     		bx	lr
 229              		.cfi_endproc
 230              	.LFE5414:
 232              		.weak	_ZN5daisy9Patch_BayD1Ev
 233              		.thumb_set _ZN5daisy9Patch_BayD1Ev,_ZN5daisy9Patch_BayD2Ev
 234 0002 00BF     		.section	.text._ZNK5daisy11OledDisplayINS_13SSD130xDriverILj128ELj64ENS_19SSD130xI2CTransportEEEE6
 235              		.align	1
 236              		.p2align 2,,3
 237              		.weak	_ZNK5daisy11OledDisplayINS_13SSD130xDriverILj128ELj64ENS_19SSD130xI2CTransportEEEE6HeightEv
 238              		.syntax unified
 239              		.thumb
 240              		.thumb_func
 241              		.fpu fpv5-d16
 243              	_ZNK5daisy11OledDisplayINS_13SSD130xDriverILj128ELj64ENS_19SSD130xI2CTransportEEEE6HeightEv:
 244              	.LVL7:
 245              	.LFB5416:
  27:../../libDaisy//src/hid/disp/oled_display.h ****     uint16_t Width() const override { return driver_.Width(); }
 246              		.loc 8 27 14 is_stmt 1 view -0
 247              		.cfi_startproc
 248              		@ args = 0, pretend = 0, frame = 0
 249              		@ frame_needed = 0, uses_anonymous_args = 0
 250              		@ link register save eliminated.
  27:../../libDaisy//src/hid/disp/oled_display.h ****     uint16_t Width() const override { return driver_.Width(); }
 251              		.loc 8 27 65 is_stmt 0 view .LVU48
 252 0000 4020     		movs	r0, #64
 253              	.LVL8:
  27:../../libDaisy//src/hid/disp/oled_display.h ****     uint16_t Width() const override { return driver_.Width(); }
 254              		.loc 8 27 65 view .LVU49
 255 0002 7047     		bx	lr
 256              		.cfi_endproc
 257              	.LFE5416:
ARM GAS  /var/folders/hl/qgbwny5j0fd895c2c41bk3tw0000gp/T//ccRMOALe.s 			page 27


 259              		.section	.text._ZNK5daisy11OledDisplayINS_13SSD130xDriverILj128ELj64ENS_19SSD130xI2CTransportEEEE5
 260              		.align	1
 261              		.p2align 2,,3
 262              		.weak	_ZNK5daisy11OledDisplayINS_13SSD130xDriverILj128ELj64ENS_19SSD130xI2CTransportEEEE5WidthEv
 263              		.syntax unified
 264              		.thumb
 265              		.thumb_func
 266              		.fpu fpv5-d16
 268              	_ZNK5daisy11OledDisplayINS_13SSD130xDriverILj128ELj64ENS_19SSD130xI2CTransportEEEE5WidthEv:
 269              	.LVL9:
 270              	.LFB5417:
  28:../../libDaisy//src/hid/disp/oled_display.h **** 
 271              		.loc 8 28 14 is_stmt 1 view -0
 272              		.cfi_startproc
 273              		@ args = 0, pretend = 0, frame = 0
 274              		@ frame_needed = 0, uses_anonymous_args = 0
 275              		@ link register save eliminated.
  28:../../libDaisy//src/hid/disp/oled_display.h **** 
 276              		.loc 8 28 63 is_stmt 0 view .LVU51
 277 0000 8020     		movs	r0, #128
 278              	.LVL10:
  28:../../libDaisy//src/hid/disp/oled_display.h **** 
 279              		.loc 8 28 63 view .LVU52
 280 0002 7047     		bx	lr
 281              		.cfi_endproc
 282              	.LFE5417:
 284              		.section	.text._Z13AudioCallbackPKPKfPPfj,"ax",%progbits
 285              		.align	1
 286              		.p2align 2,,3
 287              		.global	_Z13AudioCallbackPKPKfPPfj
 288              		.syntax unified
 289              		.thumb
 290              		.thumb_func
 291              		.fpu fpv5-d16
 293              	_Z13AudioCallbackPKPKfPPfj:
 294              	.LVL11:
 295              	.LFB4824:
 296              		.file 16 "PatchBay.cpp"
   1:PatchBay.cpp  **** #include "daisy_patch_sm.h"
   2:PatchBay.cpp  **** #include "daisysp.h"
   3:PatchBay.cpp  **** #include "patch_bay.h"
   4:PatchBay.cpp  **** 
   5:PatchBay.cpp  **** using namespace daisy;
   6:PatchBay.cpp  **** using namespace patch_sm;
   7:PatchBay.cpp  **** using namespace daisysp;
   8:PatchBay.cpp  **** 
   9:PatchBay.cpp  **** DaisyPatchSM hw;
  10:PatchBay.cpp  **** Patch_Bay    pb;
  11:PatchBay.cpp  **** 
  12:PatchBay.cpp  **** void AudioCallback(AudioHandle::InputBuffer in, AudioHandle::OutputBuffer out, size_t size)
  13:PatchBay.cpp  **** {
 297              		.loc 16 13 1 is_stmt 1 view -0
 298              		.cfi_startproc
 299              		@ args = 0, pretend = 0, frame = 0
 300              		@ frame_needed = 0, uses_anonymous_args = 0
  14:PatchBay.cpp  **** 	hw.ProcessAllControls();
 301              		.loc 16 14 2 view .LVU54
ARM GAS  /var/folders/hl/qgbwny5j0fd895c2c41bk3tw0000gp/T//ccRMOALe.s 			page 28


 302              	.LBB448:
 303              	.LBI448:
  66:../../libDaisy//src/daisy_patch_sm.h **** 
  67:../../libDaisy//src/daisy_patch_sm.h ****         /** Initializes the memories, and core peripherals for the Daisy Patch SM */
  68:../../libDaisy//src/daisy_patch_sm.h ****         void Init();
  69:../../libDaisy//src/daisy_patch_sm.h **** 
  70:../../libDaisy//src/daisy_patch_sm.h ****         /** Starts a non-interleaving audio callback */
  71:../../libDaisy//src/daisy_patch_sm.h ****         void StartAudio(AudioHandle::AudioCallback cb);
  72:../../libDaisy//src/daisy_patch_sm.h **** 
  73:../../libDaisy//src/daisy_patch_sm.h ****         /** Starts an interleaving audio callback */
  74:../../libDaisy//src/daisy_patch_sm.h ****         void StartAudio(AudioHandle::InterleavingAudioCallback cb);
  75:../../libDaisy//src/daisy_patch_sm.h **** 
  76:../../libDaisy//src/daisy_patch_sm.h ****         /** Changes the callback that is executing.
  77:../../libDaisy//src/daisy_patch_sm.h ****          *  This may cause clicks if done while audio is processing.
  78:../../libDaisy//src/daisy_patch_sm.h ****          */
  79:../../libDaisy//src/daisy_patch_sm.h ****         void ChangeAudioCallback(AudioHandle::AudioCallback cb);
  80:../../libDaisy//src/daisy_patch_sm.h **** 
  81:../../libDaisy//src/daisy_patch_sm.h ****         /** Changes the callback that is executing.
  82:../../libDaisy//src/daisy_patch_sm.h ****          *  This may cause clicks if done while audio is processing.
  83:../../libDaisy//src/daisy_patch_sm.h ****          */
  84:../../libDaisy//src/daisy_patch_sm.h ****         void ChangeAudioCallback(AudioHandle::InterleavingAudioCallback cb);
  85:../../libDaisy//src/daisy_patch_sm.h **** 
  86:../../libDaisy//src/daisy_patch_sm.h ****         /** Stops the transmission of audio. */
  87:../../libDaisy//src/daisy_patch_sm.h ****         void StopAudio();
  88:../../libDaisy//src/daisy_patch_sm.h **** 
  89:../../libDaisy//src/daisy_patch_sm.h ****         /** Sets the number of samples processed in an audio callback. 
  90:../../libDaisy//src/daisy_patch_sm.h ****          *  This will only take effect on the next invocation of `StartAudio`
  91:../../libDaisy//src/daisy_patch_sm.h ****          */
  92:../../libDaisy//src/daisy_patch_sm.h ****         void SetAudioBlockSize(size_t size);
  93:../../libDaisy//src/daisy_patch_sm.h **** 
  94:../../libDaisy//src/daisy_patch_sm.h ****         /** Sets the samplerate for the audio engine 
  95:../../libDaisy//src/daisy_patch_sm.h ****          *  This will set it to the closest valid samplerate. Options being:
  96:../../libDaisy//src/daisy_patch_sm.h ****          *  8kHz, 16kHz, 32kHz, 48kHz, and 96kHz
  97:../../libDaisy//src/daisy_patch_sm.h ****          */
  98:../../libDaisy//src/daisy_patch_sm.h ****         void SetAudioSampleRate(float sr);
  99:../../libDaisy//src/daisy_patch_sm.h **** 
 100:../../libDaisy//src/daisy_patch_sm.h ****         void SetAudioSampleRate(SaiHandle::Config::SampleRate sample_rate);
 101:../../libDaisy//src/daisy_patch_sm.h **** 
 102:../../libDaisy//src/daisy_patch_sm.h ****         /** Returns the number of samples processed in an audio callback */
 103:../../libDaisy//src/daisy_patch_sm.h ****         size_t AudioBlockSize();
 104:../../libDaisy//src/daisy_patch_sm.h **** 
 105:../../libDaisy//src/daisy_patch_sm.h ****         /** Returns the audio engine's samplerate in Hz */
 106:../../libDaisy//src/daisy_patch_sm.h ****         float AudioSampleRate();
 107:../../libDaisy//src/daisy_patch_sm.h **** 
 108:../../libDaisy//src/daisy_patch_sm.h ****         /** Returns the rate at which the audio callback will be called in Hz */
 109:../../libDaisy//src/daisy_patch_sm.h ****         float AudioCallbackRate();
 110:../../libDaisy//src/daisy_patch_sm.h **** 
 111:../../libDaisy//src/daisy_patch_sm.h ****         /** Starts the Control ADCs 
 112:../../libDaisy//src/daisy_patch_sm.h ****          * 
 113:../../libDaisy//src/daisy_patch_sm.h ****          *  This is started automatically when Init() is called.
 114:../../libDaisy//src/daisy_patch_sm.h ****          */
 115:../../libDaisy//src/daisy_patch_sm.h ****         void StartAdc();
 116:../../libDaisy//src/daisy_patch_sm.h **** 
 117:../../libDaisy//src/daisy_patch_sm.h ****         /** Stops the Control ADCs */
 118:../../libDaisy//src/daisy_patch_sm.h ****         void StopAdc();
 119:../../libDaisy//src/daisy_patch_sm.h **** 
 120:../../libDaisy//src/daisy_patch_sm.h ****         /** Reads and filters all of the analog control inputs */
ARM GAS  /var/folders/hl/qgbwny5j0fd895c2c41bk3tw0000gp/T//ccRMOALe.s 			page 29


 121:../../libDaisy//src/daisy_patch_sm.h ****         void ProcessAnalogControls();
 122:../../libDaisy//src/daisy_patch_sm.h **** 
 123:../../libDaisy//src/daisy_patch_sm.h ****         /** Reads and debounces any of the digital control inputs 
 124:../../libDaisy//src/daisy_patch_sm.h ****          *  This does nothing on this board at this time.
 125:../../libDaisy//src/daisy_patch_sm.h ****          */
 126:../../libDaisy//src/daisy_patch_sm.h ****         void ProcessDigitalControls();
 127:../../libDaisy//src/daisy_patch_sm.h **** 
 128:../../libDaisy//src/daisy_patch_sm.h ****         /** Does both of the above */
 129:../../libDaisy//src/daisy_patch_sm.h ****         void ProcessAllControls()
 304              		.loc 1 129 14 view .LVU55
 305              	.LBB449:
 130:../../libDaisy//src/daisy_patch_sm.h ****         {
 131:../../libDaisy//src/daisy_patch_sm.h ****             ProcessAnalogControls();
 306              		.loc 1 131 13 view .LVU56
 307              	.LBE449:
 308              	.LBE448:
  13:PatchBay.cpp  **** 	hw.ProcessAllControls();
 309              		.loc 16 13 1 is_stmt 0 view .LVU57
 310 0000 F8B5     		push	{r3, r4, r5, r6, r7, lr}
 311              		.cfi_def_cfa_offset 24
 312              		.cfi_offset 3, -24
 313              		.cfi_offset 4, -20
 314              		.cfi_offset 5, -16
 315              		.cfi_offset 6, -12
 316              		.cfi_offset 7, -8
 317              		.cfi_offset 14, -4
  13:PatchBay.cpp  **** 	hw.ProcessAllControls();
 318              		.loc 16 13 1 view .LVU58
 319 0002 1546     		mov	r5, r2
 320 0004 0746     		mov	r7, r0
 321              	.LBB452:
 322              	.LBB450:
 323              		.loc 1 131 34 view .LVU59
 324 0006 0C48     		ldr	r0, .L16
 325              	.LVL12:
 326              		.loc 1 131 34 view .LVU60
 327              	.LBE450:
 328              	.LBE452:
  13:PatchBay.cpp  **** 	hw.ProcessAllControls();
 329              		.loc 16 13 1 view .LVU61
 330 0008 0E46     		mov	r6, r1
 331              	.LBB453:
 332              	.LBB451:
 333              		.loc 1 131 34 view .LVU62
 334 000a FFF7FEFF 		bl	_ZN5daisy8patch_sm12DaisyPatchSM21ProcessAnalogControlsEv
 335              	.LVL13:
 132:../../libDaisy//src/daisy_patch_sm.h ****             ProcessDigitalControls();
 336              		.loc 1 132 13 is_stmt 1 view .LVU63
 337              		.loc 1 132 35 is_stmt 0 view .LVU64
 338 000e 0A48     		ldr	r0, .L16
 339 0010 FFF7FEFF 		bl	_ZN5daisy8patch_sm12DaisyPatchSM22ProcessDigitalControlsEv
 340              	.LVL14:
 341              		.loc 1 132 35 view .LVU65
 342              	.LBE451:
 343              	.LBE453:
  15:PatchBay.cpp  **** 	for (size_t i = 0; i < size; i++)
 344              		.loc 16 15 2 is_stmt 1 view .LVU66
ARM GAS  /var/folders/hl/qgbwny5j0fd895c2c41bk3tw0000gp/T//ccRMOALe.s 			page 30


 345              	.LBB454:
 346              		.loc 16 15 23 view .LVU67
 347 0014 7DB1     		cbz	r5, .L8
 348 0016 3B68     		ldr	r3, [r7]
 349 0018 3468     		ldr	r4, [r6]
 350 001a 7868     		ldr	r0, [r7, #4]
 351 001c 03EB850C 		add	ip, r3, r5, lsl #2
 352 0020 7168     		ldr	r1, [r6, #4]
 353              	.LVL15:
 354              	.L10:
  16:PatchBay.cpp  **** 	{
  17:PatchBay.cpp  **** 		OUT_L[i] = IN_L[i];
 355              		.loc 16 17 3 discriminator 2 view .LVU68
 356              		.loc 16 17 20 is_stmt 0 discriminator 2 view .LVU69
 357 0022 53F8042B 		ldr	r2, [r3], #4	@ float
 358              		.loc 16 17 12 discriminator 2 view .LVU70
 359 0026 44F8042B 		str	r2, [r4], #4	@ float
  18:PatchBay.cpp  **** 		OUT_R[i] = IN_R[i];
 360              		.loc 16 18 3 is_stmt 1 discriminator 2 view .LVU71
  15:PatchBay.cpp  **** 	for (size_t i = 0; i < size; i++)
 361              		.loc 16 15 23 is_stmt 0 discriminator 2 view .LVU72
 362 002a 6345     		cmp	r3, ip
 363              		.loc 16 18 20 discriminator 2 view .LVU73
 364 002c 50F8042B 		ldr	r2, [r0], #4	@ float
 365              		.loc 16 18 12 discriminator 2 view .LVU74
 366 0030 41F8042B 		str	r2, [r1], #4	@ float
  15:PatchBay.cpp  **** 	for (size_t i = 0; i < size; i++)
 367              		.loc 16 15 2 is_stmt 1 discriminator 2 view .LVU75
  15:PatchBay.cpp  **** 	for (size_t i = 0; i < size; i++)
 368              		.loc 16 15 23 discriminator 2 view .LVU76
 369 0034 F5D1     		bne	.L10
 370              	.L8:
 371              	.LBE454:
  19:PatchBay.cpp  **** 	}
  20:PatchBay.cpp  **** }
 372              		.loc 16 20 1 is_stmt 0 view .LVU77
 373 0036 F8BD     		pop	{r3, r4, r5, r6, r7, pc}
 374              	.LVL16:
 375              	.L17:
 376              		.loc 16 20 1 view .LVU78
 377              		.align	2
 378              	.L16:
 379 0038 00000000 		.word	.LANCHOR0
 380              		.cfi_endproc
 381              	.LFE4824:
 383              		.section	.text._ZN5daisy11OledDisplayINS_13SSD130xDriverILj128ELj64ENS_19SSD130xI2CTransportEEEED0
 384              		.align	1
 385              		.p2align 2,,3
 386              		.weak	_ZN5daisy11OledDisplayINS_13SSD130xDriverILj128ELj64ENS_19SSD130xI2CTransportEEEED0Ev
 387              		.syntax unified
 388              		.thumb
 389              		.thumb_func
 390              		.fpu fpv5-d16
 392              	_ZN5daisy11OledDisplayINS_13SSD130xDriverILj128ELj64ENS_19SSD130xI2CTransportEEEED0Ev:
 393              	.LVL17:
 394              	.LFB5142:
  18:../../libDaisy//src/hid/disp/oled_display.h **** 
ARM GAS  /var/folders/hl/qgbwny5j0fd895c2c41bk3tw0000gp/T//ccRMOALe.s 			page 31


 395              		.loc 8 18 13 is_stmt 1 view -0
 396              		.cfi_startproc
 397              		@ args = 0, pretend = 0, frame = 0
 398              		@ frame_needed = 0, uses_anonymous_args = 0
  18:../../libDaisy//src/hid/disp/oled_display.h **** 
 399              		.loc 8 18 13 is_stmt 0 view .LVU80
 400 0000 10B5     		push	{r4, lr}
 401              		.cfi_def_cfa_offset 8
 402              		.cfi_offset 4, -8
 403              		.cfi_offset 14, -4
  18:../../libDaisy//src/hid/disp/oled_display.h **** 
 404              		.loc 8 18 13 view .LVU81
 405 0002 0446     		mov	r4, r0
 406              	.LVL18:
 407              	.LBB455:
 408              	.LBI455:
  18:../../libDaisy//src/hid/disp/oled_display.h **** 
 409              		.loc 8 18 13 is_stmt 1 view .LVU82
 410              	.LBB456:
 411              	.LBI456:
 412              		.loc 9 219 13 view .LVU83
 413              	.LBB457:
 414              	.LBI457:
  23:../../libDaisy//src/hid/disp/display.h **** 
 415              		.loc 9 23 13 view .LVU84
  23:../../libDaisy//src/hid/disp/display.h **** 
 416              		.loc 9 23 13 is_stmt 0 view .LVU85
 417              	.LBE457:
 418              	.LBE456:
 419              	.LBE455:
  18:../../libDaisy//src/hid/disp/oled_display.h **** 
 420              		.loc 8 18 29 view .LVU86
 421 0004 4FF48261 		mov	r1, #1040
 422 0008 FFF7FEFF 		bl	_ZdlPvj
 423              	.LVL19:
  18:../../libDaisy//src/hid/disp/oled_display.h **** 
 424              		.loc 8 18 29 view .LVU87
 425 000c 2046     		mov	r0, r4
 426 000e 10BD     		pop	{r4, pc}
  18:../../libDaisy//src/hid/disp/oled_display.h **** 
 427              		.loc 8 18 29 view .LVU88
 428              		.cfi_endproc
 429              	.LFE5142:
 431              		.section	.text._ZN5daisy11OledDisplayINS_13SSD130xDriverILj128ELj64ENS_19SSD130xI2CTransportEEEE6U
 432              		.align	1
 433              		.p2align 2,,3
 434              		.weak	_ZN5daisy11OledDisplayINS_13SSD130xDriverILj128ELj64ENS_19SSD130xI2CTransportEEEE6UpdateEv
 435              		.syntax unified
 436              		.thumb
 437              		.thumb_func
 438              		.fpu fpv5-d16
 440              	_ZN5daisy11OledDisplayINS_13SSD130xDriverILj128ELj64ENS_19SSD130xI2CTransportEEEE6UpdateEv:
 441              	.LVL20:
 442              	.LFB5145:
  35:../../libDaisy//src/hid/disp/oled_display.h **** 
  36:../../libDaisy//src/hid/disp/oled_display.h ****     /**
  37:../../libDaisy//src/hid/disp/oled_display.h ****     Sets the pixel at the specified coordinate to be on/off.
ARM GAS  /var/folders/hl/qgbwny5j0fd895c2c41bk3tw0000gp/T//ccRMOALe.s 			page 32


  38:../../libDaisy//src/hid/disp/oled_display.h ****     \param x   x Coordinate
  39:../../libDaisy//src/hid/disp/oled_display.h ****     \param y   y coordinate
  40:../../libDaisy//src/hid/disp/oled_display.h ****     \param on  on or off
  41:../../libDaisy//src/hid/disp/oled_display.h ****     */
  42:../../libDaisy//src/hid/disp/oled_display.h ****     void DrawPixel(uint_fast8_t x, uint_fast8_t y, bool on) override
  43:../../libDaisy//src/hid/disp/oled_display.h ****     {
  44:../../libDaisy//src/hid/disp/oled_display.h ****         driver_.DrawPixel(x, y, on);
  45:../../libDaisy//src/hid/disp/oled_display.h ****     }
  46:../../libDaisy//src/hid/disp/oled_display.h **** 
  47:../../libDaisy//src/hid/disp/oled_display.h ****     /** 
  48:../../libDaisy//src/hid/disp/oled_display.h ****     Writes the current display buffer to the OLED device using SPI or I2C depending on 
  49:../../libDaisy//src/hid/disp/oled_display.h ****     how the object was initialized.
  50:../../libDaisy//src/hid/disp/oled_display.h ****     */
  51:../../libDaisy//src/hid/disp/oled_display.h ****     void Update() override { driver_.Update(); }
 443              		.loc 8 51 10 is_stmt 1 view -0
 444              		.cfi_startproc
 445              		@ args = 0, pretend = 0, frame = 8
 446              		@ frame_needed = 0, uses_anonymous_args = 0
 447              		.loc 8 51 10 is_stmt 0 view .LVU90
 448 0000 2DE9F04F 		push	{r4, r5, r6, r7, r8, r9, r10, fp, lr}
 449              		.cfi_def_cfa_offset 36
 450              		.cfi_offset 4, -36
 451              		.cfi_offset 5, -32
 452              		.cfi_offset 6, -28
 453              		.cfi_offset 7, -24
 454              		.cfi_offset 8, -20
 455              		.cfi_offset 9, -16
 456              		.cfi_offset 10, -12
 457              		.cfi_offset 11, -8
 458              		.cfi_offset 14, -4
 459              	.LBB470:
 460              	.LBB471:
 461              	.LBB472:
 462              	.LBB473:
  45:../../libDaisy//src/dev/oled_ssd130x.h ****     };
 463              		.loc 10 45 30 view .LVU91
 464 0004 4FF0B008 		mov	r8, #176
 465              	.LBE473:
 466              	.LBE472:
 467              	.LBE471:
 468              	.LBE470:
 469              		.loc 8 51 10 view .LVU92
 470 0008 85B0     		sub	sp, sp, #20
 471              		.cfi_def_cfa_offset 56
 472              		.loc 8 51 10 view .LVU93
 473 000a 0546     		mov	r5, r0
 474              	.LVL21:
 475              	.LBB485:
 476              	.LBI470:
 367:../../libDaisy//src/dev/oled_ssd130x.h ****         }
 368:../../libDaisy//src/dev/oled_ssd130x.h ****     };
 369:../../libDaisy//src/dev/oled_ssd130x.h **** 
 370:../../libDaisy//src/dev/oled_ssd130x.h ****     /**
 371:../../libDaisy//src/dev/oled_ssd130x.h ****      * Update the display 
 372:../../libDaisy//src/dev/oled_ssd130x.h ****     */
 373:../../libDaisy//src/dev/oled_ssd130x.h ****     void Update()
 477              		.loc 10 373 10 is_stmt 1 view .LVU94
ARM GAS  /var/folders/hl/qgbwny5j0fd895c2c41bk3tw0000gp/T//ccRMOALe.s 			page 33


 478              	.LBB484:
 374:../../libDaisy//src/dev/oled_ssd130x.h ****     {
 375:../../libDaisy//src/dev/oled_ssd130x.h ****         uint8_t i;
 376:../../libDaisy//src/dev/oled_ssd130x.h ****         uint8_t high_column_addr;
 377:../../libDaisy//src/dev/oled_ssd130x.h ****         switch(height)
 378:../../libDaisy//src/dev/oled_ssd130x.h ****         {
 379:../../libDaisy//src/dev/oled_ssd130x.h ****             case 32: high_column_addr = 0x12; break;
 380:../../libDaisy//src/dev/oled_ssd130x.h **** 
 381:../../libDaisy//src/dev/oled_ssd130x.h ****             default: high_column_addr = 0x10; break;
 382:../../libDaisy//src/dev/oled_ssd130x.h ****         }
 383:../../libDaisy//src/dev/oled_ssd130x.h ****         for(i = 0; i < (height / 8); i++)
 479              		.loc 10 383 22 view .LVU95
 480              	.LBB476:
 481              	.LBB474:
  45:../../libDaisy//src/dev/oled_ssd130x.h ****     };
 482              		.loc 10 45 30 is_stmt 0 view .LVU96
 483 000c 00F10807 		add	r7, r0, #8
 484              	.LVL22:
  45:../../libDaisy//src/dev/oled_ssd130x.h ****     };
 485              		.loc 10 45 30 view .LVU97
 486 0010 00F18F06 		add	r6, r0, #143
 487 0014 00F28F49 		addw	r9, r0, #1167
 488              	.LVL23:
 489              	.L22:
  45:../../libDaisy//src/dev/oled_ssd130x.h ****     };
 490              		.loc 10 45 30 view .LVU98
 491              	.LBE474:
 492              	.LBI472:
  42:../../libDaisy//src/dev/oled_ssd130x.h ****     {
 493              		.loc 10 42 10 is_stmt 1 view .LVU99
 494              	.LBB475:
  44:../../libDaisy//src/dev/oled_ssd130x.h ****         i2c_.TransmitBlocking(i2c_address_, buf, 2, 1000);
 495              		.loc 10 44 9 view .LVU100
  45:../../libDaisy//src/dev/oled_ssd130x.h ****     };
 496              		.loc 10 45 30 is_stmt 0 view .LVU101
 497 0018 4FF47A7B 		mov	fp, #1000
  44:../../libDaisy//src/dev/oled_ssd130x.h ****         i2c_.TransmitBlocking(i2c_address_, buf, 2, 1000);
 498              		.loc 10 44 17 view .LVU102
 499 001c 4FF0000A 		mov	r10, #0
  45:../../libDaisy//src/dev/oled_ssd130x.h ****     };
 500              		.loc 10 45 30 view .LVU103
 501 0020 297B     		ldrb	r1, [r5, #12]	@ zero_extendqisi2
 502 0022 0223     		movs	r3, #2
 503 0024 03AA     		add	r2, sp, #12
 504 0026 3846     		mov	r0, r7
 505 0028 CDF800B0 		str	fp, [sp]
 506 002c A6F18004 		sub	r4, r6, #128
  44:../../libDaisy//src/dev/oled_ssd130x.h ****         i2c_.TransmitBlocking(i2c_address_, buf, 2, 1000);
 507              		.loc 10 44 17 view .LVU104
 508 0030 8DF80CA0 		strb	r10, [sp, #12]
  44:../../libDaisy//src/dev/oled_ssd130x.h ****         i2c_.TransmitBlocking(i2c_address_, buf, 2, 1000);
 509              		.loc 10 44 36 view .LVU105
 510 0034 8DF80D80 		strb	r8, [sp, #13]
  45:../../libDaisy//src/dev/oled_ssd130x.h ****     };
 511              		.loc 10 45 9 is_stmt 1 view .LVU106
  45:../../libDaisy//src/dev/oled_ssd130x.h ****     };
 512              		.loc 10 45 30 is_stmt 0 view .LVU107
ARM GAS  /var/folders/hl/qgbwny5j0fd895c2c41bk3tw0000gp/T//ccRMOALe.s 			page 34


 513 0038 FFF7FEFF 		bl	_ZN5daisy9I2CHandle16TransmitBlockingEtPhtm
 514              	.LVL24:
  45:../../libDaisy//src/dev/oled_ssd130x.h ****     };
 515              		.loc 10 45 30 view .LVU108
 516              	.LBE475:
 517              	.LBE476:
 518              	.LBB477:
 519              	.LBI477:
  42:../../libDaisy//src/dev/oled_ssd130x.h ****     {
 520              		.loc 10 42 10 is_stmt 1 view .LVU109
 521              	.LBB478:
  44:../../libDaisy//src/dev/oled_ssd130x.h ****         i2c_.TransmitBlocking(i2c_address_, buf, 2, 1000);
 522              		.loc 10 44 9 view .LVU110
  45:../../libDaisy//src/dev/oled_ssd130x.h ****     };
 523              		.loc 10 45 30 is_stmt 0 view .LVU111
 524 003c 297B     		ldrb	r1, [r5, #12]	@ zero_extendqisi2
 525 003e 0223     		movs	r3, #2
 526 0040 03AA     		add	r2, sp, #12
 527 0042 3846     		mov	r0, r7
 528 0044 CDF800B0 		str	fp, [sp]
  44:../../libDaisy//src/dev/oled_ssd130x.h ****         i2c_.TransmitBlocking(i2c_address_, buf, 2, 1000);
 529              		.loc 10 44 17 view .LVU112
 530 0048 8DF80CA0 		strb	r10, [sp, #12]
  44:../../libDaisy//src/dev/oled_ssd130x.h ****         i2c_.TransmitBlocking(i2c_address_, buf, 2, 1000);
 531              		.loc 10 44 36 view .LVU113
 532 004c 8DF80DA0 		strb	r10, [sp, #13]
  45:../../libDaisy//src/dev/oled_ssd130x.h ****     };
 533              		.loc 10 45 9 is_stmt 1 view .LVU114
  45:../../libDaisy//src/dev/oled_ssd130x.h ****     };
 534              		.loc 10 45 30 is_stmt 0 view .LVU115
 535 0050 FFF7FEFF 		bl	_ZN5daisy9I2CHandle16TransmitBlockingEtPhtm
 536              	.LVL25:
  45:../../libDaisy//src/dev/oled_ssd130x.h ****     };
 537              		.loc 10 45 30 view .LVU116
 538              	.LBE478:
 539              	.LBE477:
 540              	.LBB479:
 541              	.LBI479:
  42:../../libDaisy//src/dev/oled_ssd130x.h ****     {
 542              		.loc 10 42 10 is_stmt 1 view .LVU117
 543              	.LBB480:
  44:../../libDaisy//src/dev/oled_ssd130x.h ****         i2c_.TransmitBlocking(i2c_address_, buf, 2, 1000);
 544              		.loc 10 44 9 view .LVU118
  44:../../libDaisy//src/dev/oled_ssd130x.h ****         i2c_.TransmitBlocking(i2c_address_, buf, 2, 1000);
 545              		.loc 10 44 36 is_stmt 0 view .LVU119
 546 0054 4FF0100C 		mov	ip, #16
  45:../../libDaisy//src/dev/oled_ssd130x.h ****     };
 547              		.loc 10 45 30 view .LVU120
 548 0058 297B     		ldrb	r1, [r5, #12]	@ zero_extendqisi2
 549 005a 0223     		movs	r3, #2
 550 005c 03AA     		add	r2, sp, #12
 551 005e 3846     		mov	r0, r7
 552 0060 CDF800B0 		str	fp, [sp]
  44:../../libDaisy//src/dev/oled_ssd130x.h ****         i2c_.TransmitBlocking(i2c_address_, buf, 2, 1000);
 553              		.loc 10 44 17 view .LVU121
 554 0064 8DF80CA0 		strb	r10, [sp, #12]
  44:../../libDaisy//src/dev/oled_ssd130x.h ****         i2c_.TransmitBlocking(i2c_address_, buf, 2, 1000);
ARM GAS  /var/folders/hl/qgbwny5j0fd895c2c41bk3tw0000gp/T//ccRMOALe.s 			page 35


 555              		.loc 10 44 36 view .LVU122
 556 0068 8DF80DC0 		strb	ip, [sp, #13]
  45:../../libDaisy//src/dev/oled_ssd130x.h ****     };
 557              		.loc 10 45 9 is_stmt 1 view .LVU123
  45:../../libDaisy//src/dev/oled_ssd130x.h ****     };
 558              		.loc 10 45 30 is_stmt 0 view .LVU124
 559 006c FFF7FEFF 		bl	_ZN5daisy9I2CHandle16TransmitBlockingEtPhtm
 560              	.LVL26:
  45:../../libDaisy//src/dev/oled_ssd130x.h ****     };
 561              		.loc 10 45 30 view .LVU125
 562              	.LBE480:
 563              	.LBE479:
 564              	.LBB481:
 565              	.LBI481:
  48:../../libDaisy//src/dev/oled_ssd130x.h ****     {
 566              		.loc 10 48 10 is_stmt 1 view .LVU126
 567              	.LBB482:
  50:../../libDaisy//src/dev/oled_ssd130x.h ****         {
 568              		.loc 10 50 29 view .LVU127
 569              	.L21:
 570              	.LBB483:
  52:../../libDaisy//src/dev/oled_ssd130x.h ****             i2c_.TransmitBlocking(i2c_address_, buf, 2, 1000);
 571              		.loc 10 52 13 view .LVU128
  53:../../libDaisy//src/dev/oled_ssd130x.h ****         }
 572              		.loc 10 53 34 is_stmt 0 view .LVU129
 573 0070 4FF47A70 		mov	r0, #1000
  52:../../libDaisy//src/dev/oled_ssd130x.h ****             i2c_.TransmitBlocking(i2c_address_, buf, 2, 1000);
 574              		.loc 10 52 44 view .LVU130
 575 0074 14F801CF 		ldrb	ip, [r4, #1]!	@ zero_extendqisi2
 576              	.LVL27:
  52:../../libDaisy//src/dev/oled_ssd130x.h ****             i2c_.TransmitBlocking(i2c_address_, buf, 2, 1000);
 577              		.loc 10 52 21 view .LVU131
 578 0078 4FF0400E 		mov	lr, #64
  53:../../libDaisy//src/dev/oled_ssd130x.h ****         }
 579              		.loc 10 53 34 view .LVU132
 580 007c 297B     		ldrb	r1, [r5, #12]	@ zero_extendqisi2
 581 007e 0223     		movs	r3, #2
 582 0080 0090     		str	r0, [sp]
 583 0082 03AA     		add	r2, sp, #12
 584 0084 3846     		mov	r0, r7
  52:../../libDaisy//src/dev/oled_ssd130x.h ****             i2c_.TransmitBlocking(i2c_address_, buf, 2, 1000);
 585              		.loc 10 52 21 view .LVU133
 586 0086 8DF80CE0 		strb	lr, [sp, #12]
  52:../../libDaisy//src/dev/oled_ssd130x.h ****             i2c_.TransmitBlocking(i2c_address_, buf, 2, 1000);
 587              		.loc 10 52 44 view .LVU134
 588 008a 8DF80DC0 		strb	ip, [sp, #13]
  53:../../libDaisy//src/dev/oled_ssd130x.h ****         }
 589              		.loc 10 53 13 is_stmt 1 view .LVU135
  53:../../libDaisy//src/dev/oled_ssd130x.h ****         }
 590              		.loc 10 53 34 is_stmt 0 view .LVU136
 591 008e FFF7FEFF 		bl	_ZN5daisy9I2CHandle16TransmitBlockingEtPhtm
 592              	.LVL28:
 593              	.LBE483:
  50:../../libDaisy//src/dev/oled_ssd130x.h ****         {
 594              		.loc 10 50 9 is_stmt 1 view .LVU137
  50:../../libDaisy//src/dev/oled_ssd130x.h ****         {
 595              		.loc 10 50 29 view .LVU138
ARM GAS  /var/folders/hl/qgbwny5j0fd895c2c41bk3tw0000gp/T//ccRMOALe.s 			page 36


 596 0092 B442     		cmp	r4, r6
 597 0094 ECD1     		bne	.L21
 598              	.LVL29:
  50:../../libDaisy//src/dev/oled_ssd130x.h ****         {
 599              		.loc 10 50 29 is_stmt 0 view .LVU139
 600              	.LBE482:
 601              	.LBE481:
 602              		.loc 10 383 9 is_stmt 1 view .LVU140
 603              		.loc 10 383 22 view .LVU141
 604 0096 04F18006 		add	r6, r4, #128
 605 009a 08F10108 		add	r8, r8, #1
 606              	.LVL30:
 607              		.loc 10 383 22 is_stmt 0 view .LVU142
 608 009e 4E45     		cmp	r6, r9
 609 00a0 5FFA88F8 		uxtb	r8, r8
 610 00a4 B8D1     		bne	.L22
 611              	.LBE484:
 612              	.LBE485:
 613              		.loc 8 51 48 view .LVU143
 614 00a6 05B0     		add	sp, sp, #20
 615              		.cfi_def_cfa_offset 36
 616              		@ sp needed
 617 00a8 BDE8F08F 		pop	{r4, r5, r6, r7, r8, r9, r10, fp, pc}
 618              		.loc 8 51 48 view .LVU144
 619              		.cfi_endproc
 620              	.LFE5145:
 622              		.section	.text._ZN5daisy25OneBitGraphicsDisplayImplINS_11OledDisplayINS_13SSD130xDriverILj128ELj64
 623              		.align	1
 624              		.p2align 2,,3
 625              		.weak	_ZN5daisy25OneBitGraphicsDisplayImplINS_11OledDisplayINS_13SSD130xDriverILj128ELj64ENS_19SSD
 626              		.syntax unified
 627              		.thumb
 628              		.thumb_func
 629              		.fpu fpv5-d16
 631              	_ZN5daisy25OneBitGraphicsDisplayImplINS_11OledDisplayINS_13SSD130xDriverILj128ELj64ENS_19SSD130xI2C
 632              	.LVL31:
 633              	.LFB5271:
 220:../../libDaisy//src/hid/disp/display.h **** 
 221:../../libDaisy//src/hid/disp/display.h ****     void DrawLine(uint_fast8_t x1,
 222:../../libDaisy//src/hid/disp/display.h ****                   uint_fast8_t y1,
 223:../../libDaisy//src/hid/disp/display.h ****                   uint_fast8_t x2,
 224:../../libDaisy//src/hid/disp/display.h ****                   uint_fast8_t y2,
 225:../../libDaisy//src/hid/disp/display.h ****                   bool         on) override
 226:../../libDaisy//src/hid/disp/display.h ****     {
 227:../../libDaisy//src/hid/disp/display.h ****         int_fast16_t deltaX = abs((int_fast16_t)x2 - (int_fast16_t)x1);
 228:../../libDaisy//src/hid/disp/display.h ****         int_fast16_t deltaY = abs((int_fast16_t)y2 - (int_fast16_t)y1);
 229:../../libDaisy//src/hid/disp/display.h ****         int_fast16_t signX  = ((x1 < x2) ? 1 : -1);
 230:../../libDaisy//src/hid/disp/display.h ****         int_fast16_t signY  = ((y1 < y2) ? 1 : -1);
 231:../../libDaisy//src/hid/disp/display.h ****         int_fast16_t error  = deltaX - deltaY;
 232:../../libDaisy//src/hid/disp/display.h ****         int_fast16_t error2;
 233:../../libDaisy//src/hid/disp/display.h **** 
 234:../../libDaisy//src/hid/disp/display.h ****         // If we write "ChildType::DrawPixel(x2, y2, on);", we end up with
 235:../../libDaisy//src/hid/disp/display.h ****         // all sorts of weird compiler errors when the Child class is a template
 236:../../libDaisy//src/hid/disp/display.h ****         // class. The only way around this is to use this very verbose syntax:
 237:../../libDaisy//src/hid/disp/display.h ****         ((ChildType*)(this))->ChildType::DrawPixel(x2, y2, on);
 238:../../libDaisy//src/hid/disp/display.h **** 
 239:../../libDaisy//src/hid/disp/display.h ****         while((x1 != x2) || (y1 != y2))
ARM GAS  /var/folders/hl/qgbwny5j0fd895c2c41bk3tw0000gp/T//ccRMOALe.s 			page 37


 240:../../libDaisy//src/hid/disp/display.h ****         {
 241:../../libDaisy//src/hid/disp/display.h ****             ((ChildType*)(this))->ChildType::DrawPixel(x1, y1, on);
 242:../../libDaisy//src/hid/disp/display.h ****             error2 = error * 2;
 243:../../libDaisy//src/hid/disp/display.h ****             if(error2 > -deltaY)
 244:../../libDaisy//src/hid/disp/display.h ****             {
 245:../../libDaisy//src/hid/disp/display.h ****                 error -= deltaY;
 246:../../libDaisy//src/hid/disp/display.h ****                 x1 += signX;
 247:../../libDaisy//src/hid/disp/display.h ****             }
 248:../../libDaisy//src/hid/disp/display.h **** 
 249:../../libDaisy//src/hid/disp/display.h ****             if(error2 < deltaX)
 250:../../libDaisy//src/hid/disp/display.h ****             {
 251:../../libDaisy//src/hid/disp/display.h ****                 error += deltaX;
 252:../../libDaisy//src/hid/disp/display.h ****                 y1 += signY;
 253:../../libDaisy//src/hid/disp/display.h ****             }
 254:../../libDaisy//src/hid/disp/display.h ****         }
 255:../../libDaisy//src/hid/disp/display.h ****     }
 256:../../libDaisy//src/hid/disp/display.h **** 
 257:../../libDaisy//src/hid/disp/display.h ****     void DrawRect(uint_fast8_t x1,
 258:../../libDaisy//src/hid/disp/display.h ****                   uint_fast8_t y1,
 259:../../libDaisy//src/hid/disp/display.h ****                   uint_fast8_t x2,
 260:../../libDaisy//src/hid/disp/display.h ****                   uint_fast8_t y2,
 261:../../libDaisy//src/hid/disp/display.h ****                   bool         on,
 262:../../libDaisy//src/hid/disp/display.h ****                   bool         fill = false) override
 263:../../libDaisy//src/hid/disp/display.h ****     {
 264:../../libDaisy//src/hid/disp/display.h ****         if(fill)
 265:../../libDaisy//src/hid/disp/display.h ****         {
 266:../../libDaisy//src/hid/disp/display.h ****             for(uint_fast8_t x = x1; x <= x2; x++)
 267:../../libDaisy//src/hid/disp/display.h ****             {
 268:../../libDaisy//src/hid/disp/display.h ****                 for(uint_fast8_t y = y1; y <= y2; y++)
 269:../../libDaisy//src/hid/disp/display.h ****                 {
 270:../../libDaisy//src/hid/disp/display.h ****                     ((ChildType*)(this))->ChildType::DrawPixel(x, y, on);
 271:../../libDaisy//src/hid/disp/display.h ****                 }
 272:../../libDaisy//src/hid/disp/display.h ****             }
 273:../../libDaisy//src/hid/disp/display.h ****         }
 274:../../libDaisy//src/hid/disp/display.h ****         else
 275:../../libDaisy//src/hid/disp/display.h ****         {
 276:../../libDaisy//src/hid/disp/display.h ****             ((ChildType*)(this))->ChildType::DrawLine(x1, y1, x2, y1, on);
 277:../../libDaisy//src/hid/disp/display.h ****             ((ChildType*)(this))->ChildType::DrawLine(x2, y1, x2, y2, on);
 278:../../libDaisy//src/hid/disp/display.h ****             ((ChildType*)(this))->ChildType::DrawLine(x2, y2, x1, y2, on);
 279:../../libDaisy//src/hid/disp/display.h ****             ((ChildType*)(this))->ChildType::DrawLine(x1, y2, x1, y1, on);
 280:../../libDaisy//src/hid/disp/display.h ****         }
 281:../../libDaisy//src/hid/disp/display.h ****     }
 282:../../libDaisy//src/hid/disp/display.h **** 
 283:../../libDaisy//src/hid/disp/display.h ****     void DrawArc(uint_fast8_t x,
 284:../../libDaisy//src/hid/disp/display.h ****                  uint_fast8_t y,
 285:../../libDaisy//src/hid/disp/display.h ****                  uint_fast8_t radius,
 286:../../libDaisy//src/hid/disp/display.h ****                  int_fast16_t start_angle,
 287:../../libDaisy//src/hid/disp/display.h ****                  int_fast16_t sweep,
 288:../../libDaisy//src/hid/disp/display.h ****                  bool         on) override
 289:../../libDaisy//src/hid/disp/display.h ****     {
 290:../../libDaisy//src/hid/disp/display.h ****         // Values to calculate the circle
 291:../../libDaisy//src/hid/disp/display.h ****         int_fast16_t t_x, t_y, err, e2;
 292:../../libDaisy//src/hid/disp/display.h **** 
 293:../../libDaisy//src/hid/disp/display.h ****         // Temporary values to speed up comparisons
 294:../../libDaisy//src/hid/disp/display.h ****         float t_sxy, t_syx, t_sxny, t_synx;
 295:../../libDaisy//src/hid/disp/display.h ****         float t_exy, t_eyx, t_exny, t_eynx;
 296:../../libDaisy//src/hid/disp/display.h **** 
ARM GAS  /var/folders/hl/qgbwny5j0fd895c2c41bk3tw0000gp/T//ccRMOALe.s 			page 38


 297:../../libDaisy//src/hid/disp/display.h ****         float start_angle_rad, end_angle_rad;
 298:../../libDaisy//src/hid/disp/display.h ****         float start_x, start_y, end_x, end_y;
 299:../../libDaisy//src/hid/disp/display.h **** 
 300:../../libDaisy//src/hid/disp/display.h ****         bool d1, d2, d3, d4;
 301:../../libDaisy//src/hid/disp/display.h **** 
 302:../../libDaisy//src/hid/disp/display.h ****         d1 = d2 = d3 = d4 = true;
 303:../../libDaisy//src/hid/disp/display.h **** 
 304:../../libDaisy//src/hid/disp/display.h ****         bool circle = false;
 305:../../libDaisy//src/hid/disp/display.h **** 
 306:../../libDaisy//src/hid/disp/display.h ****         if(sweep < 0)
 307:../../libDaisy//src/hid/disp/display.h ****         {
 308:../../libDaisy//src/hid/disp/display.h ****             start_angle += sweep;
 309:../../libDaisy//src/hid/disp/display.h ****             sweep = -sweep;
 310:../../libDaisy//src/hid/disp/display.h ****         }
 311:../../libDaisy//src/hid/disp/display.h **** 
 312:../../libDaisy//src/hid/disp/display.h ****         start_angle_rad = deg2rad(start_angle);
 313:../../libDaisy//src/hid/disp/display.h ****         end_angle_rad   = deg2rad(start_angle + sweep);
 314:../../libDaisy//src/hid/disp/display.h **** 
 315:../../libDaisy//src/hid/disp/display.h ****         start_x = cos(start_angle_rad) * radius;
 316:../../libDaisy//src/hid/disp/display.h ****         start_y = -sin(start_angle_rad) * radius;
 317:../../libDaisy//src/hid/disp/display.h ****         end_x   = cos(end_angle_rad) * radius;
 318:../../libDaisy//src/hid/disp/display.h ****         end_y   = -sin(end_angle_rad) * radius;
 319:../../libDaisy//src/hid/disp/display.h **** 
 320:../../libDaisy//src/hid/disp/display.h ****         // Check if start and endpoint are very near
 321:../../libDaisy//src/hid/disp/display.h ****         if((end_x - start_x) * (end_x - start_x)
 322:../../libDaisy//src/hid/disp/display.h ****                + (end_y - start_y) * (end_y - start_y)
 323:../../libDaisy//src/hid/disp/display.h ****            < 2.0f)
 324:../../libDaisy//src/hid/disp/display.h ****         {
 325:../../libDaisy//src/hid/disp/display.h ****             if(sweep > 180)
 326:../../libDaisy//src/hid/disp/display.h ****                 circle = true;
 327:../../libDaisy//src/hid/disp/display.h ****             else
 328:../../libDaisy//src/hid/disp/display.h ****                 // Nothing to draw
 329:../../libDaisy//src/hid/disp/display.h ****                 return;
 330:../../libDaisy//src/hid/disp/display.h ****         }
 331:../../libDaisy//src/hid/disp/display.h **** 
 332:../../libDaisy//src/hid/disp/display.h ****         t_x = -radius;
 333:../../libDaisy//src/hid/disp/display.h ****         t_y = 0;
 334:../../libDaisy//src/hid/disp/display.h ****         err = 2 - 2 * radius;
 335:../../libDaisy//src/hid/disp/display.h **** 
 336:../../libDaisy//src/hid/disp/display.h ****         do
 337:../../libDaisy//src/hid/disp/display.h ****         {
 338:../../libDaisy//src/hid/disp/display.h ****             if(!circle)
 339:../../libDaisy//src/hid/disp/display.h ****             {
 340:../../libDaisy//src/hid/disp/display.h ****                 t_sxy  = start_x * t_y;
 341:../../libDaisy//src/hid/disp/display.h ****                 t_syx  = start_y * t_x;
 342:../../libDaisy//src/hid/disp/display.h ****                 t_sxny = start_x * -t_y;
 343:../../libDaisy//src/hid/disp/display.h ****                 t_synx = start_y * -t_x;
 344:../../libDaisy//src/hid/disp/display.h ****                 t_exy  = end_x * t_y;
 345:../../libDaisy//src/hid/disp/display.h ****                 t_eyx  = end_y * t_x;
 346:../../libDaisy//src/hid/disp/display.h ****                 t_exny = end_x * -t_y;
 347:../../libDaisy//src/hid/disp/display.h ****                 t_eynx = end_y * -t_x;
 348:../../libDaisy//src/hid/disp/display.h **** 
 349:../../libDaisy//src/hid/disp/display.h ****                 if(sweep > 180)
 350:../../libDaisy//src/hid/disp/display.h ****                 {
 351:../../libDaisy//src/hid/disp/display.h ****                     d1 = (t_sxy - t_synx < 0 || t_exy - t_eynx > 0);
 352:../../libDaisy//src/hid/disp/display.h ****                     d2 = (t_sxy - t_syx < 0 || t_exy - t_eyx > 0);
 353:../../libDaisy//src/hid/disp/display.h ****                     d3 = (t_sxny - t_syx < 0 || t_exny - t_eyx > 0);
ARM GAS  /var/folders/hl/qgbwny5j0fd895c2c41bk3tw0000gp/T//ccRMOALe.s 			page 39


 354:../../libDaisy//src/hid/disp/display.h ****                     d4 = (t_sxny - t_synx < 0 || t_exny - t_eynx > 0);
 355:../../libDaisy//src/hid/disp/display.h ****                 }
 356:../../libDaisy//src/hid/disp/display.h ****                 else
 357:../../libDaisy//src/hid/disp/display.h ****                 {
 358:../../libDaisy//src/hid/disp/display.h ****                     d1 = (t_sxy - t_synx < 0 && t_exy - t_eynx > 0);
 359:../../libDaisy//src/hid/disp/display.h ****                     d2 = (t_sxy - t_syx < 0 && t_exy - t_eyx > 0);
 360:../../libDaisy//src/hid/disp/display.h ****                     d3 = (t_sxny - t_syx < 0 && t_exny - t_eyx > 0);
 361:../../libDaisy//src/hid/disp/display.h ****                     d4 = (t_sxny - t_synx < 0 && t_exny - t_eynx > 0);
 362:../../libDaisy//src/hid/disp/display.h ****                 }
 363:../../libDaisy//src/hid/disp/display.h ****             }
 364:../../libDaisy//src/hid/disp/display.h **** 
 365:../../libDaisy//src/hid/disp/display.h ****             if(d1)
 366:../../libDaisy//src/hid/disp/display.h ****                 ((ChildType*)(this))
 367:../../libDaisy//src/hid/disp/display.h ****                     ->ChildType::DrawPixel(x - t_x, y + t_y, on);
 368:../../libDaisy//src/hid/disp/display.h ****             if(d2)
 369:../../libDaisy//src/hid/disp/display.h ****                 ((ChildType*)(this))
 370:../../libDaisy//src/hid/disp/display.h ****                     ->ChildType::DrawPixel(x + t_x, y + t_y, on);
 371:../../libDaisy//src/hid/disp/display.h ****             if(d3)
 372:../../libDaisy//src/hid/disp/display.h ****                 ((ChildType*)(this))
 373:../../libDaisy//src/hid/disp/display.h ****                     ->ChildType::DrawPixel(x + t_x, y - t_y, on);
 374:../../libDaisy//src/hid/disp/display.h ****             if(d4)
 375:../../libDaisy//src/hid/disp/display.h ****                 ((ChildType*)(this))
 376:../../libDaisy//src/hid/disp/display.h ****                     ->ChildType::DrawPixel(x - t_x, y - t_y, on);
 377:../../libDaisy//src/hid/disp/display.h **** 
 378:../../libDaisy//src/hid/disp/display.h ****             e2 = err;
 379:../../libDaisy//src/hid/disp/display.h ****             if(e2 <= t_y)
 380:../../libDaisy//src/hid/disp/display.h ****             {
 381:../../libDaisy//src/hid/disp/display.h ****                 t_y++;
 382:../../libDaisy//src/hid/disp/display.h ****                 err = err + (t_y * 2 + 1);
 383:../../libDaisy//src/hid/disp/display.h ****                 if(-t_x == t_y && e2 <= t_x)
 384:../../libDaisy//src/hid/disp/display.h ****                 {
 385:../../libDaisy//src/hid/disp/display.h ****                     e2 = 0;
 386:../../libDaisy//src/hid/disp/display.h ****                 }
 387:../../libDaisy//src/hid/disp/display.h ****             }
 388:../../libDaisy//src/hid/disp/display.h ****             if(e2 > t_x)
 389:../../libDaisy//src/hid/disp/display.h ****             {
 390:../../libDaisy//src/hid/disp/display.h ****                 t_x++;
 391:../../libDaisy//src/hid/disp/display.h ****                 err = err + (t_x * 2 + 1);
 392:../../libDaisy//src/hid/disp/display.h ****             }
 393:../../libDaisy//src/hid/disp/display.h ****         } while(t_x <= 0);
 394:../../libDaisy//src/hid/disp/display.h ****     }
 395:../../libDaisy//src/hid/disp/display.h **** 
 396:../../libDaisy//src/hid/disp/display.h ****     char WriteChar(char ch, FontDef font, bool on) override
 634              		.loc 9 396 10 is_stmt 1 view -0
 635              		.cfi_startproc
 636              		@ args = 4, pretend = 0, frame = 16
 637              		@ frame_needed = 0, uses_anonymous_args = 0
 638              		.loc 9 396 10 is_stmt 0 view .LVU146
 639 0000 2DE9F04F 		push	{r4, r5, r6, r7, r8, r9, r10, fp, lr}
 640              		.cfi_def_cfa_offset 36
 641              		.cfi_offset 4, -36
 642              		.cfi_offset 5, -32
 643              		.cfi_offset 6, -28
 644              		.cfi_offset 7, -24
 645              		.cfi_offset 8, -20
 646              		.cfi_offset 9, -16
 647              		.cfi_offset 10, -12
ARM GAS  /var/folders/hl/qgbwny5j0fd895c2c41bk3tw0000gp/T//ccRMOALe.s 			page 40


 648              		.cfi_offset 11, -8
 649              		.cfi_offset 14, -4
 650 0004 85B0     		sub	sp, sp, #20
 651              		.cfi_def_cfa_offset 56
 652              	.LVL32:
 397:../../libDaisy//src/hid/disp/display.h ****     {
 398:../../libDaisy//src/hid/disp/display.h ****         uint32_t i, b, j;
 399:../../libDaisy//src/hid/disp/display.h **** 
 400:../../libDaisy//src/hid/disp/display.h ****         // Check if character is valid
 401:../../libDaisy//src/hid/disp/display.h ****         if(ch < 32 || ch > 126)
 653              		.loc 9 401 20 view .LVU147
 654 0006 A1F12005 		sub	r5, r1, #32
 396:../../libDaisy//src/hid/disp/display.h ****     {
 655              		.loc 9 396 10 view .LVU148
 656 000a 04AC     		add	r4, sp, #16
 657 000c 9DF83870 		ldrb	r7, [sp, #56]	@ zero_extendqisi2
 658 0010 0091     		str	r1, [sp]
 659 0012 04E90C00 		stmdb	r4, {r2, r3}
 660              	.LVL33:
 661              		.loc 9 401 9 view .LVU149
 662 0016 EBB2     		uxtb	r3, r5
 663 0018 5E2B     		cmp	r3, #94
 664 001a 00F29580 		bhi	.L30
 402:../../libDaisy//src/hid/disp/display.h ****             return 0;
 403:../../libDaisy//src/hid/disp/display.h **** 
 404:../../libDaisy//src/hid/disp/display.h ****         // Check remaining space on current line
 405:../../libDaisy//src/hid/disp/display.h ****         if(Width() < (currentX_ + font.FontWidth)
 665              		.loc 9 405 17 view .LVU150
 666 001e 0368     		ldr	r3, [r0]
 667 0020 8046     		mov	r8, r0
 668 0022 5D4A     		ldr	r2, .L65
 669 0024 DB68     		ldr	r3, [r3, #12]
 670 0026 9DF80840 		ldrb	r4, [sp, #8]	@ zero_extendqisi2
 671 002a 9342     		cmp	r3, r2
 672 002c 9DF80960 		ldrb	r6, [sp, #9]	@ zero_extendqisi2
 673 0030 40F09480 		bne	.L57
 674 0034 8020     		movs	r0, #128
 675              	.LVL34:
 676              	.L29:
 677              		.loc 9 405 23 view .LVU151
 678 0036 B8F80430 		ldrh	r3, [r8, #4]
 679              		.loc 9 405 33 view .LVU152
 680 003a 2344     		add	r3, r3, r4
 406:../../libDaisy//src/hid/disp/display.h ****            || Height() < (currentY_ + font.FontHeight))
 681              		.loc 9 406 12 view .LVU153
 682 003c 8342     		cmp	r3, r0
 683 003e 00F38380 		bgt	.L30
 684              		.loc 9 406 21 discriminator 2 view .LVU154
 685 0042 D8F80030 		ldr	r3, [r8]
 686 0046 554A     		ldr	r2, .L65+4
 687 0048 9B68     		ldr	r3, [r3, #8]
 688 004a 9342     		cmp	r3, r2
 689 004c 40F08880 		bne	.L58
 690              		.loc 9 406 21 view .LVU155
 691 0050 4020     		movs	r0, #64
 692              	.L31:
 693              		.loc 9 406 27 discriminator 2 view .LVU156
ARM GAS  /var/folders/hl/qgbwny5j0fd895c2c41bk3tw0000gp/T//ccRMOALe.s 			page 41


 694 0052 B8F80620 		ldrh	r2, [r8, #6]
 695              		.loc 9 406 37 discriminator 2 view .LVU157
 696 0056 9319     		adds	r3, r2, r6
 697              		.loc 9 406 27 discriminator 2 view .LVU158
 698 0058 0192     		str	r2, [sp, #4]
 699              		.loc 9 406 12 discriminator 2 view .LVU159
 700 005a 8342     		cmp	r3, r0
 701 005c 74DC     		bgt	.L30
 702              	.LVL35:
 407:../../libDaisy//src/hid/disp/display.h ****         {
 408:../../libDaisy//src/hid/disp/display.h ****             // Not enough space on current line
 409:../../libDaisy//src/hid/disp/display.h ****             return 0;
 410:../../libDaisy//src/hid/disp/display.h ****         }
 411:../../libDaisy//src/hid/disp/display.h **** 
 412:../../libDaisy//src/hid/disp/display.h ****         // Use the font to write
 413:../../libDaisy//src/hid/disp/display.h ****         for(i = 0; i < font.FontHeight; i++)
 703              		.loc 9 413 22 is_stmt 1 view .LVU160
 704 005e 002E     		cmp	r6, #0
 705 0060 00F08980 		beq	.L32
 414:../../libDaisy//src/hid/disp/display.h ****         {
 415:../../libDaisy//src/hid/disp/display.h ****             b = font.data[(ch - 32) * font.FontHeight + i];
 706              		.loc 9 415 37 is_stmt 0 view .LVU161
 707 0064 06FB05F5 		mul	r5, r6, r5
 708 0068 6FF00040 		mvn	r0, #-2147483648
 709              		.loc 9 415 22 view .LVU162
 710 006c 039B     		ldr	r3, [sp, #12]
 711 006e 9646     		mov	lr, r2
 712 0070 2844     		add	r0, r0, r5
 713 0072 2E44     		add	r6, r6, r5
 416:../../libDaisy//src/hid/disp/display.h ****             for(j = 0; j < font.FontWidth; j++)
 417:../../libDaisy//src/hid/disp/display.h ****             {
 418:../../libDaisy//src/hid/disp/display.h ****                 if((b << j) & 0x8000)
 419:../../libDaisy//src/hid/disp/display.h ****                 {
 420:../../libDaisy//src/hid/disp/display.h ****                     ((ChildType*)(this))
 421:../../libDaisy//src/hid/disp/display.h ****                         ->ChildType::DrawPixel(
 422:../../libDaisy//src/hid/disp/display.h ****                             currentX_ + j, (currentY_ + i), on);
 423:../../libDaisy//src/hid/disp/display.h ****                 }
 424:../../libDaisy//src/hid/disp/display.h ****                 else
 425:../../libDaisy//src/hid/disp/display.h ****                 {
 426:../../libDaisy//src/hid/disp/display.h ****                     ((ChildType*)(this))
 427:../../libDaisy//src/hid/disp/display.h ****                         ->ChildType::DrawPixel(
 428:../../libDaisy//src/hid/disp/display.h ****                             currentX_ + j, (currentY_ + i), !on);
 429:../../libDaisy//src/hid/disp/display.h ****                 }
 430:../../libDaisy//src/hid/disp/display.h ****             }
 431:../../libDaisy//src/hid/disp/display.h ****         }
 432:../../libDaisy//src/hid/disp/display.h **** 
 433:../../libDaisy//src/hid/disp/display.h ****         // The current space is now taken
 434:../../libDaisy//src/hid/disp/display.h ****         SetCursor(currentX_ + font.FontWidth, currentY_);
 714              		.loc 9 434 19 view .LVU163
 715 0074 B8F804A0 		ldrh	r10, [r8, #4]
 716 0078 03EB4000 		add	r0, r3, r0, lsl #1
 717 007c 023B     		subs	r3, r3, #2
 718 007e 03EB460B 		add	fp, r3, r6, lsl #1
 719              	.LVL36:
 720              	.L35:
 415:../../libDaisy//src/hid/disp/display.h ****             for(j = 0; j < font.FontWidth; j++)
 721              		.loc 9 415 15 view .LVU164
ARM GAS  /var/folders/hl/qgbwny5j0fd895c2c41bk3tw0000gp/T//ccRMOALe.s 			page 42


 722 0082 30F8026F 		ldrh	r6, [r0, #2]!
 723              	.LVL37:
 416:../../libDaisy//src/hid/disp/display.h ****             for(j = 0; j < font.FontWidth; j++)
 724              		.loc 9 416 26 is_stmt 1 view .LVU165
 725 0086 BCB3     		cbz	r4, .L40
 726              	.LBB516:
 727              	.LBB517:
 728              	.LBB518:
 729              	.LBB519:
 730              	.LBB520:
 359:../../libDaisy//src/dev/oled_ssd130x.h ****     }
 731              		.loc 10 359 55 is_stmt 0 view .LVU166
 732 0088 0EF00703 		and	r3, lr, #7
 359:../../libDaisy//src/dev/oled_ssd130x.h ****     }
 733              		.loc 10 359 49 view .LVU167
 734 008c 4FF0010C 		mov	ip, #1
 359:../../libDaisy//src/dev/oled_ssd130x.h ****     }
 735              		.loc 10 359 28 view .LVU168
 736 0090 4FEADE02 		lsr	r2, lr, #3
 737 0094 5146     		mov	r1, r10
 359:../../libDaisy//src/dev/oled_ssd130x.h ****     }
 738              		.loc 10 359 49 view .LVU169
 739 0096 0CFA03FC 		lsl	ip, ip, r3
 740 009a 0AF11003 		add	r3, r10, #16
 359:../../libDaisy//src/dev/oled_ssd130x.h ****     }
 741              		.loc 10 359 42 view .LVU170
 742 009e 4FFA8CFC 		sxtb	ip, ip
 743 00a2 03EBC212 		add	r2, r3, r2, lsl #7
 744              	.LBE520:
 745              	.LBE519:
 746              	.LBE518:
 747              	.LBE517:
 748              	.LBE516:
 416:../../libDaisy//src/hid/disp/display.h ****             for(j = 0; j < font.FontWidth; j++)
 749              		.loc 9 416 19 view .LVU171
 750 00a6 0023     		movs	r3, #0
 751              	.LBB538:
 752              	.LBB533:
 753              	.LBB528:
 754              	.LBB524:
 755              	.LBB521:
 359:../../libDaisy//src/dev/oled_ssd130x.h ****     }
 756              		.loc 10 359 42 view .LVU172
 757 00a8 6FEA0C09 		mvn	r9, ip
 758 00ac 4244     		add	r2, r2, r8
 759 00ae 0EE0     		b	.L41
 760              	.LVL38:
 761              	.L59:
 359:../../libDaisy//src/dev/oled_ssd130x.h ****     }
 762              		.loc 10 359 42 view .LVU173
 763              	.LBE521:
 764              	.LBE524:
 765              	.LBE528:
 766              	.LBE533:
 767              	.LBE538:
 768              	.LBB539:
 769              	.LBI539:
ARM GAS  /var/folders/hl/qgbwny5j0fd895c2c41bk3tw0000gp/T//ccRMOALe.s 			page 43


  42:../../libDaisy//src/hid/disp/oled_display.h ****     {
 770              		.loc 8 42 10 is_stmt 1 view .LVU174
 771              	.LBB540:
 772              	.LBI540:
 352:../../libDaisy//src/dev/oled_ssd130x.h ****     {
 773              		.loc 10 352 10 view .LVU175
 774              	.LBB541:
 354:../../libDaisy//src/dev/oled_ssd130x.h ****             return;
 775              		.loc 10 354 9 is_stmt 0 view .LVU176
 776 00b0 7F29     		cmp	r1, #127
 777 00b2 07D8     		bhi	.L37
 778 00b4 BEF13F0F 		cmp	lr, #63
 779 00b8 04D8     		bhi	.L37
 357:../../libDaisy//src/dev/oled_ssd130x.h ****         else
 780              		.loc 10 357 42 view .LVU177
 781 00ba 1578     		ldrb	r5, [r2]	@ zero_extendqisi2
 356:../../libDaisy//src/dev/oled_ssd130x.h ****             buffer_[x + (y / 8) * width] |= (1 << (y % 8));
 782              		.loc 10 356 9 view .LVU178
 783 00bc 9FB1     		cbz	r7, .L39
 784              	.L56:
 356:../../libDaisy//src/dev/oled_ssd130x.h ****             buffer_[x + (y / 8) * width] |= (1 << (y % 8));
 785              		.loc 10 356 9 view .LVU179
 786              	.LBE541:
 787              	.LBE540:
 788              	.LBE539:
 789              	.LBB542:
 790              	.LBB534:
 791              	.LBB529:
 357:../../libDaisy//src/dev/oled_ssd130x.h ****         else
 792              		.loc 10 357 42 view .LVU180
 793 00be 4CEA0505 		orr	r5, ip, r5
 794 00c2 1570     		strb	r5, [r2]
 795              	.L37:
 796              	.LBE529:
 797              	.LBE534:
 798              	.LBE542:
 416:../../libDaisy//src/hid/disp/display.h ****             {
 799              		.loc 9 416 13 is_stmt 1 discriminator 2 view .LVU181
 800 00c4 0133     		adds	r3, r3, #1
 801              	.LVL39:
 416:../../libDaisy//src/hid/disp/display.h ****             {
 802              		.loc 9 416 26 discriminator 2 view .LVU182
 803 00c6 0132     		adds	r2, r2, #1
 804 00c8 0131     		adds	r1, r1, #1
 805 00ca 9C42     		cmp	r4, r3
 806 00cc 14D0     		beq	.L40
 807              	.LVL40:
 808              	.L41:
 418:../../libDaisy//src/hid/disp/display.h ****                 {
 809              		.loc 9 418 23 is_stmt 0 view .LVU183
 810 00ce 06FA03F5 		lsl	r5, r6, r3
 418:../../libDaisy//src/hid/disp/display.h ****                 {
 811              		.loc 9 418 17 view .LVU184
 812 00d2 2D04     		lsls	r5, r5, #16
 813 00d4 ECD4     		bmi	.L59
 814              	.LVL41:
 815              	.LBB543:
ARM GAS  /var/folders/hl/qgbwny5j0fd895c2c41bk3tw0000gp/T//ccRMOALe.s 			page 44


 816              	.LBI516:
  42:../../libDaisy//src/hid/disp/oled_display.h ****     {
 817              		.loc 8 42 10 is_stmt 1 view .LVU185
 818              	.LBB535:
 819              	.LBI517:
 352:../../libDaisy//src/dev/oled_ssd130x.h ****     {
 820              		.loc 10 352 10 view .LVU186
 821              	.LBB530:
 354:../../libDaisy//src/dev/oled_ssd130x.h ****             return;
 822              		.loc 10 354 9 is_stmt 0 view .LVU187
 823 00d6 7F29     		cmp	r1, #127
 824 00d8 F4D8     		bhi	.L37
 825 00da BEF13F0F 		cmp	lr, #63
 826 00de F1D8     		bhi	.L37
 357:../../libDaisy//src/dev/oled_ssd130x.h ****         else
 827              		.loc 10 357 42 view .LVU188
 828 00e0 1578     		ldrb	r5, [r2]	@ zero_extendqisi2
 356:../../libDaisy//src/dev/oled_ssd130x.h ****             buffer_[x + (y / 8) * width] |= (1 << (y % 8));
 829              		.loc 10 356 9 view .LVU189
 830 00e2 002F     		cmp	r7, #0
 831 00e4 EBD0     		beq	.L56
 832              	.L39:
 833              	.LVL42:
 834              	.LBB525:
 835              	.LBI519:
 352:../../libDaisy//src/dev/oled_ssd130x.h ****     {
 836              		.loc 10 352 10 is_stmt 1 view .LVU190
 352:../../libDaisy//src/dev/oled_ssd130x.h ****     {
 837              		.loc 10 352 10 is_stmt 0 view .LVU191
 838              	.LBE525:
 839              	.LBE530:
 840              	.LBE535:
 841              	.LBE543:
 416:../../libDaisy//src/hid/disp/display.h ****             {
 842              		.loc 9 416 13 view .LVU192
 843 00e6 0133     		adds	r3, r3, #1
 844              	.LVL43:
 845              	.LBB544:
 846              	.LBB536:
 847              	.LBB531:
 848              	.LBB526:
 849              	.LBB522:
 359:../../libDaisy//src/dev/oled_ssd130x.h ****     }
 850              		.loc 10 359 42 view .LVU193
 851 00e8 09EA0505 		and	r5, r9, r5
 852              	.LBE522:
 853              	.LBE526:
 854              	.LBE531:
 855              	.LBE536:
 856              	.LBE544:
 416:../../libDaisy//src/hid/disp/display.h ****             {
 857              		.loc 9 416 26 view .LVU194
 858 00ec 0132     		adds	r2, r2, #1
 859 00ee 0131     		adds	r1, r1, #1
 860 00f0 9C42     		cmp	r4, r3
 861              	.LBB545:
 862              	.LBB537:
ARM GAS  /var/folders/hl/qgbwny5j0fd895c2c41bk3tw0000gp/T//ccRMOALe.s 			page 45


 863              	.LBB532:
 864              	.LBB527:
 865              	.LBB523:
 359:../../libDaisy//src/dev/oled_ssd130x.h ****     }
 866              		.loc 10 359 42 view .LVU195
 867 00f2 02F8015C 		strb	r5, [r2, #-1]
 359:../../libDaisy//src/dev/oled_ssd130x.h ****     }
 868              		.loc 10 359 42 view .LVU196
 869              	.LBE523:
 870              	.LBE527:
 871              	.LBE532:
 872              	.LBE537:
 873              	.LBE545:
 416:../../libDaisy//src/hid/disp/display.h ****             {
 874              		.loc 9 416 13 is_stmt 1 view .LVU197
 875              	.LVL44:
 416:../../libDaisy//src/hid/disp/display.h ****             {
 876              		.loc 9 416 26 view .LVU198
 877 00f6 EAD1     		bne	.L41
 878              	.LVL45:
 879              	.L40:
 413:../../libDaisy//src/hid/disp/display.h ****         {
 880              		.loc 9 413 9 view .LVU199
 413:../../libDaisy//src/hid/disp/display.h ****         {
 881              		.loc 9 413 22 view .LVU200
 882 00f8 5845     		cmp	r0, fp
 883 00fa 0EF1010E 		add	lr, lr, #1
 884 00fe C0D1     		bne	.L35
 885              	.LVL46:
 886              	.L34:
 887              	.LBB546:
 888              	.LBB547:
 173:../../libDaisy//src/hid/disp/display.h ****         currentY_ = (y >= Height()) ? Height() - 1 : y;
 889              		.loc 9 173 33 is_stmt 0 view .LVU201
 890 0100 D8F80030 		ldr	r3, [r8]
 891              	.LBE547:
 892              	.LBE546:
 893              		.loc 9 434 18 view .LVU202
 894 0104 5444     		add	r4, r4, r10
 895 0106 2449     		ldr	r1, .L65
 896              	.LBB553:
 897              	.LBB548:
 173:../../libDaisy//src/hid/disp/display.h ****         currentY_ = (y >= Height()) ? Height() - 1 : y;
 898              		.loc 9 173 33 view .LVU203
 899 0108 DA68     		ldr	r2, [r3, #12]
 900              	.LBE548:
 901              	.LBE553:
 902              		.loc 9 434 18 view .LVU204
 903 010a A4B2     		uxth	r4, r4
 904              	.LVL47:
 905              	.LBB554:
 906              	.LBI546:
 171:../../libDaisy//src/hid/disp/display.h ****     {
 907              		.loc 9 171 10 is_stmt 1 view .LVU205
 908              	.LBB549:
 173:../../libDaisy//src/hid/disp/display.h ****         currentY_ = (y >= Height()) ? Height() - 1 : y;
 909              		.loc 9 173 9 view .LVU206
ARM GAS  /var/folders/hl/qgbwny5j0fd895c2c41bk3tw0000gp/T//ccRMOALe.s 			page 46


 910 010c 8A42     		cmp	r2, r1
 911 010e 2DD1     		bne	.L60
 173:../../libDaisy//src/hid/disp/display.h ****         currentY_ = (y >= Height()) ? Height() - 1 : y;
 912              		.loc 9 173 33 is_stmt 0 view .LVU207
 913 0110 8020     		movs	r0, #128
 914              	.L42:
 173:../../libDaisy//src/hid/disp/display.h ****         currentY_ = (y >= Height()) ? Height() - 1 : y;
 915              		.loc 9 173 19 view .LVU208
 916 0112 8442     		cmp	r4, r0
 917 0114 1CD2     		bcs	.L61
 918              	.LVL48:
 919              	.L43:
 174:../../libDaisy//src/hid/disp/display.h ****     }
 920              		.loc 9 174 34 view .LVU209
 921 0116 9B68     		ldr	r3, [r3, #8]
 922 0118 204A     		ldr	r2, .L65+4
 173:../../libDaisy//src/hid/disp/display.h ****         currentY_ = (y >= Height()) ? Height() - 1 : y;
 923              		.loc 9 173 19 view .LVU210
 924 011a A8F80440 		strh	r4, [r8, #4]	@ movhi
 174:../../libDaisy//src/hid/disp/display.h ****     }
 925              		.loc 9 174 9 is_stmt 1 view .LVU211
 926 011e 9342     		cmp	r3, r2
 927 0120 21D1     		bne	.L62
 174:../../libDaisy//src/hid/disp/display.h ****     }
 928              		.loc 9 174 34 is_stmt 0 view .LVU212
 929 0122 4020     		movs	r0, #64
 930              	.L45:
 174:../../libDaisy//src/hid/disp/display.h ****     }
 931              		.loc 9 174 19 view .LVU213
 932 0124 019B     		ldr	r3, [sp, #4]
 933 0126 8342     		cmp	r3, r0
 934 0128 07D3     		bcc	.L46
 174:../../libDaisy//src/hid/disp/display.h ****     }
 935              		.loc 9 174 46 view .LVU214
 936 012a D8F80030 		ldr	r3, [r8]
 937 012e 1B4A     		ldr	r2, .L65+4
 938 0130 9B68     		ldr	r3, [r3, #8]
 939 0132 9342     		cmp	r3, r2
 940 0134 29D1     		bne	.L63
 941 0136 3F23     		movs	r3, #63
 942 0138 0193     		str	r3, [sp, #4]
 943              	.LVL49:
 944              	.L46:
 174:../../libDaisy//src/hid/disp/display.h ****     }
 945              		.loc 9 174 19 view .LVU215
 946 013a DDE90003 		ldrd	r0, r3, [sp]
 947 013e A8F80630 		strh	r3, [r8, #6]	@ movhi
 948              	.LVL50:
 174:../../libDaisy//src/hid/disp/display.h ****     }
 949              		.loc 9 174 19 view .LVU216
 950              	.LBE549:
 951              	.LBE554:
 435:../../libDaisy//src/hid/disp/display.h **** 
 436:../../libDaisy//src/hid/disp/display.h ****         // Return written char for validation
 437:../../libDaisy//src/hid/disp/display.h ****         return ch;
 438:../../libDaisy//src/hid/disp/display.h ****     }
 952              		.loc 9 438 5 view .LVU217
ARM GAS  /var/folders/hl/qgbwny5j0fd895c2c41bk3tw0000gp/T//ccRMOALe.s 			page 47


 953 0142 05B0     		add	sp, sp, #20
 954              		.cfi_remember_state
 955              		.cfi_def_cfa_offset 36
 956              		@ sp needed
 957 0144 BDE8F08F 		pop	{r4, r5, r6, r7, r8, r9, r10, fp, pc}
 958              	.LVL51:
 959              	.L30:
 960              		.cfi_restore_state
 402:../../libDaisy//src/hid/disp/display.h **** 
 961              		.loc 9 402 20 view .LVU218
 962 0148 0020     		movs	r0, #0
 963              		.loc 9 438 5 view .LVU219
 964 014a 05B0     		add	sp, sp, #20
 965              		.cfi_remember_state
 966              		.cfi_def_cfa_offset 36
 967              		@ sp needed
 968 014c BDE8F08F 		pop	{r4, r5, r6, r7, r8, r9, r10, fp, pc}
 969              	.LVL52:
 970              	.L61:
 971              		.cfi_restore_state
 972              	.LBB555:
 973              	.LBB550:
 173:../../libDaisy//src/hid/disp/display.h ****         currentY_ = (y >= Height()) ? Height() - 1 : y;
 974              		.loc 9 173 44 view .LVU220
 975 0150 DA68     		ldr	r2, [r3, #12]
 976 0152 1149     		ldr	r1, .L65
 977 0154 8A42     		cmp	r2, r1
 978 0156 11D1     		bne	.L64
 979 0158 7F24     		movs	r4, #127
 980              	.LVL53:
 173:../../libDaisy//src/hid/disp/display.h ****         currentY_ = (y >= Height()) ? Height() - 1 : y;
 981              		.loc 9 173 44 view .LVU221
 982 015a DCE7     		b	.L43
 983              	.LVL54:
 984              	.L57:
 173:../../libDaisy//src/hid/disp/display.h ****         currentY_ = (y >= Height()) ? Height() - 1 : y;
 985              		.loc 9 173 44 view .LVU222
 986              	.LBE550:
 987              	.LBE555:
 405:../../libDaisy//src/hid/disp/display.h ****            || Height() < (currentY_ + font.FontHeight))
 988              		.loc 9 405 17 view .LVU223
 989 015c 9847     		blx	r3
 990              	.LVL55:
 405:../../libDaisy//src/hid/disp/display.h ****            || Height() < (currentY_ + font.FontHeight))
 991              		.loc 9 405 17 view .LVU224
 992 015e 6AE7     		b	.L29
 993              	.L58:
 406:../../libDaisy//src/hid/disp/display.h ****         {
 994              		.loc 9 406 21 discriminator 2 view .LVU225
 995 0160 4046     		mov	r0, r8
 996 0162 9847     		blx	r3
 997              	.LVL56:
 998 0164 75E7     		b	.L31
 999              	.LVL57:
 1000              	.L62:
 1001              	.LBB556:
 1002              	.LBB551:
ARM GAS  /var/folders/hl/qgbwny5j0fd895c2c41bk3tw0000gp/T//ccRMOALe.s 			page 48


 174:../../libDaisy//src/hid/disp/display.h ****     }
 1003              		.loc 9 174 33 view .LVU226
 1004 0166 4046     		mov	r0, r8
 1005 0168 9847     		blx	r3
 1006              	.LVL58:
 1007 016a DBE7     		b	.L45
 1008              	.LVL59:
 1009              	.L60:
 173:../../libDaisy//src/hid/disp/display.h ****         currentY_ = (y >= Height()) ? Height() - 1 : y;
 1010              		.loc 9 173 32 view .LVU227
 1011 016c 4046     		mov	r0, r8
 1012 016e 9047     		blx	r2
 1013              	.LVL60:
 173:../../libDaisy//src/hid/disp/display.h ****         currentY_ = (y >= Height()) ? Height() - 1 : y;
 1014              		.loc 9 173 44 view .LVU228
 1015 0170 D8F80030 		ldr	r3, [r8]
 1016 0174 CDE7     		b	.L42
 1017              	.LVL61:
 1018              	.L32:
 173:../../libDaisy//src/hid/disp/display.h ****         currentY_ = (y >= Height()) ? Height() - 1 : y;
 1019              		.loc 9 173 44 view .LVU229
 1020              	.LBE551:
 1021              	.LBE556:
 434:../../libDaisy//src/hid/disp/display.h **** 
 1022              		.loc 9 434 19 view .LVU230
 1023 0176 B8F804A0 		ldrh	r10, [r8, #4]
 1024 017a C1E7     		b	.L34
 1025              	.LVL62:
 1026              	.L64:
 1027              	.LBB557:
 1028              	.LBB552:
 173:../../libDaisy//src/hid/disp/display.h ****         currentY_ = (y >= Height()) ? Height() - 1 : y;
 1029              		.loc 9 173 43 view .LVU231
 1030 017c 4046     		mov	r0, r8
 1031 017e 9047     		blx	r2
 1032              	.LVL63:
 173:../../libDaisy//src/hid/disp/display.h ****         currentY_ = (y >= Height()) ? Height() - 1 : y;
 1033              		.loc 9 173 19 view .LVU232
 1034 0180 0138     		subs	r0, r0, #1
 174:../../libDaisy//src/hid/disp/display.h ****     }
 1035              		.loc 9 174 34 view .LVU233
 1036 0182 D8F80030 		ldr	r3, [r8]
 173:../../libDaisy//src/hid/disp/display.h ****         currentY_ = (y >= Height()) ? Height() - 1 : y;
 1037              		.loc 9 173 19 view .LVU234
 1038 0186 84B2     		uxth	r4, r0
 1039              	.LVL64:
 173:../../libDaisy//src/hid/disp/display.h ****         currentY_ = (y >= Height()) ? Height() - 1 : y;
 1040              		.loc 9 173 19 view .LVU235
 1041 0188 C5E7     		b	.L43
 1042              	.L63:
 174:../../libDaisy//src/hid/disp/display.h ****     }
 1043              		.loc 9 174 45 view .LVU236
 1044 018a 4046     		mov	r0, r8
 1045 018c 9847     		blx	r3
 1046              	.LVL65:
 174:../../libDaisy//src/hid/disp/display.h ****     }
 1047              		.loc 9 174 19 view .LVU237
ARM GAS  /var/folders/hl/qgbwny5j0fd895c2c41bk3tw0000gp/T//ccRMOALe.s 			page 49


 1048 018e 0138     		subs	r0, r0, #1
 1049 0190 83B2     		uxth	r3, r0
 1050 0192 0193     		str	r3, [sp, #4]
 1051              	.LVL66:
 174:../../libDaisy//src/hid/disp/display.h ****     }
 1052              		.loc 9 174 19 view .LVU238
 1053 0194 D1E7     		b	.L46
 1054              	.L66:
 1055 0196 00BF     		.align	2
 1056              	.L65:
 1057 0198 00000000 		.word	_ZNK5daisy11OledDisplayINS_13SSD130xDriverILj128ELj64ENS_19SSD130xI2CTransportEEEE5WidthEv
 1058 019c 00000000 		.word	_ZNK5daisy11OledDisplayINS_13SSD130xDriverILj128ELj64ENS_19SSD130xI2CTransportEEEE6HeightEv
 1059              	.LBE552:
 1060              	.LBE557:
 1061              		.cfi_endproc
 1062              	.LFE5271:
 1064              		.section	.text._ZN5daisy25OneBitGraphicsDisplayImplINS_11OledDisplayINS_13SSD130xDriverILj128ELj64
 1065              		.align	1
 1066              		.p2align 2,,3
 1067              		.weak	_ZN5daisy25OneBitGraphicsDisplayImplINS_11OledDisplayINS_13SSD130xDriverILj128ELj64ENS_19SSD
 1068              		.syntax unified
 1069              		.thumb
 1070              		.thumb_func
 1071              		.fpu fpv5-d16
 1073              	_ZN5daisy25OneBitGraphicsDisplayImplINS_11OledDisplayINS_13SSD130xDriverILj128ELj64ENS_19SSD130xI2C
 1074              	.LVL67:
 1075              	.LFB5144:
 439:../../libDaisy//src/hid/disp/display.h **** 
 440:../../libDaisy//src/hid/disp/display.h ****     char WriteString(const char* str, FontDef font, bool on) override
 1076              		.loc 9 440 10 is_stmt 1 view -0
 1077              		.cfi_startproc
 1078              		@ args = 4, pretend = 0, frame = 32
 1079              		@ frame_needed = 0, uses_anonymous_args = 0
 1080              		.loc 9 440 10 is_stmt 0 view .LVU240
 1081 0000 2DE9F04F 		push	{r4, r5, r6, r7, r8, r9, r10, fp, lr}
 1082              		.cfi_def_cfa_offset 36
 1083              		.cfi_offset 4, -36
 1084              		.cfi_offset 5, -32
 1085              		.cfi_offset 6, -28
 1086              		.cfi_offset 7, -24
 1087              		.cfi_offset 8, -20
 1088              		.cfi_offset 9, -16
 1089              		.cfi_offset 10, -12
 1090              		.cfi_offset 11, -8
 1091              		.cfi_offset 14, -4
 1092 0004 89B0     		sub	sp, sp, #36
 1093              		.cfi_def_cfa_offset 72
 1094              		.loc 9 440 10 view .LVU241
 1095 0006 08AC     		add	r4, sp, #32
 1096 0008 9DF84870 		ldrb	r7, [sp, #72]	@ zero_extendqisi2
 1097 000c 0191     		str	r1, [sp, #4]
 1098 000e 04E90C00 		stmdb	r4, {r2, r3}
 441:../../libDaisy//src/hid/disp/display.h ****     {
 442:../../libDaisy//src/hid/disp/display.h ****         // Write until null-byte
 443:../../libDaisy//src/hid/disp/display.h ****         while(*str)
 1099              		.loc 9 443 9 is_stmt 1 view .LVU242
 1100 0012 0B78     		ldrb	r3, [r1]	@ zero_extendqisi2
ARM GAS  /var/folders/hl/qgbwny5j0fd895c2c41bk3tw0000gp/T//ccRMOALe.s 			page 50


 1101 0014 002B     		cmp	r3, #0
 1102 0016 00F0AB80 		beq	.L91
 1103 001a 1A46     		mov	r2, r3
 1104 001c 9DF81880 		ldrb	r8, [sp, #24]	@ zero_extendqisi2
 1105 0020 9DF81930 		ldrb	r3, [sp, #25]	@ zero_extendqisi2
 1106 0024 0646     		mov	r6, r0
 1107 0026 4546     		mov	r5, r8
 1108 0028 9046     		mov	r8, r2
 1109 002a 0393     		str	r3, [sp, #12]
 1110 002c 079B     		ldr	r3, [sp, #28]
 1111 002e 0593     		str	r3, [sp, #20]
 1112              	.LVL68:
 1113              	.L92:
 1114              	.LBB586:
 1115              	.LBI586:
 396:../../libDaisy//src/hid/disp/display.h ****     {
 1116              		.loc 9 396 10 view .LVU243
 1117              	.LBB587:
 401:../../libDaisy//src/hid/disp/display.h ****             return 0;
 1118              		.loc 9 401 20 is_stmt 0 view .LVU244
 1119 0030 A8F12004 		sub	r4, r8, #32
 401:../../libDaisy//src/hid/disp/display.h ****             return 0;
 1120              		.loc 9 401 9 view .LVU245
 1121 0034 E3B2     		uxtb	r3, r4
 1122 0036 5E2B     		cmp	r3, #94
 1123 0038 00F29E80 		bhi	.L73
 405:../../libDaisy//src/hid/disp/display.h ****            || Height() < (currentY_ + font.FontHeight))
 1124              		.loc 9 405 17 view .LVU246
 1125 003c 3368     		ldr	r3, [r6]
 1126 003e 5E4A     		ldr	r2, .L113
 1127 0040 DB68     		ldr	r3, [r3, #12]
 1128 0042 9342     		cmp	r3, r2
 1129 0044 40F09B80 		bne	.L106
 1130 0048 8020     		movs	r0, #128
 1131              	.L72:
 405:../../libDaisy//src/hid/disp/display.h ****            || Height() < (currentY_ + font.FontHeight))
 1132              		.loc 9 405 23 view .LVU247
 1133 004a B388     		ldrh	r3, [r6, #4]
 405:../../libDaisy//src/hid/disp/display.h ****            || Height() < (currentY_ + font.FontHeight))
 1134              		.loc 9 405 33 view .LVU248
 1135 004c 2B44     		add	r3, r3, r5
 406:../../libDaisy//src/hid/disp/display.h ****         {
 1136              		.loc 9 406 12 view .LVU249
 1137 004e 8342     		cmp	r3, r0
 1138 0050 00F39280 		bgt	.L73
 406:../../libDaisy//src/hid/disp/display.h ****         {
 1139              		.loc 9 406 21 view .LVU250
 1140 0054 3368     		ldr	r3, [r6]
 1141 0056 594A     		ldr	r2, .L113+4
 1142 0058 9B68     		ldr	r3, [r3, #8]
 1143 005a 9342     		cmp	r3, r2
 1144 005c 40F09280 		bne	.L107
 1145 0060 4020     		movs	r0, #64
 1146              	.L74:
 406:../../libDaisy//src/hid/disp/display.h ****         {
 1147              		.loc 9 406 27 view .LVU251
 1148 0062 F188     		ldrh	r1, [r6, #6]
ARM GAS  /var/folders/hl/qgbwny5j0fd895c2c41bk3tw0000gp/T//ccRMOALe.s 			page 51


 406:../../libDaisy//src/hid/disp/display.h ****         {
 1149              		.loc 9 406 37 view .LVU252
 1150 0064 039A     		ldr	r2, [sp, #12]
 406:../../libDaisy//src/hid/disp/display.h ****         {
 1151              		.loc 9 406 27 view .LVU253
 1152 0066 0291     		str	r1, [sp, #8]
 406:../../libDaisy//src/hid/disp/display.h ****         {
 1153              		.loc 9 406 37 view .LVU254
 1154 0068 8B18     		adds	r3, r1, r2
 406:../../libDaisy//src/hid/disp/display.h ****         {
 1155              		.loc 9 406 12 view .LVU255
 1156 006a 8342     		cmp	r3, r0
 1157 006c 00F38480 		bgt	.L73
 1158              	.LVL69:
 413:../../libDaisy//src/hid/disp/display.h ****         {
 1159              		.loc 9 413 22 is_stmt 1 view .LVU256
 1160 0070 002A     		cmp	r2, #0
 1161 0072 00F09180 		beq	.L75
 415:../../libDaisy//src/hid/disp/display.h ****             for(j = 0; j < font.FontWidth; j++)
 1162              		.loc 9 415 37 is_stmt 0 view .LVU257
 1163 0076 02FB04F4 		mul	r4, r2, r4
 1164 007a 6FF00049 		mvn	r9, #-2147483648
 1165 007e 059B     		ldr	r3, [sp, #20]
 1166 0080 A144     		add	r9, r9, r4
 1167 0082 1444     		add	r4, r4, r2
 434:../../libDaisy//src/hid/disp/display.h **** 
 1168              		.loc 9 434 19 view .LVU258
 1169 0084 B6F804B0 		ldrh	fp, [r6, #4]
 1170 0088 03EB4909 		add	r9, r3, r9, lsl #1
 1171 008c 023B     		subs	r3, r3, #2
 1172 008e CDF81080 		str	r8, [sp, #16]
 1173 0092 03EB4403 		add	r3, r3, r4, lsl #1
 1174 0096 0C46     		mov	r4, r1
 1175 0098 9A46     		mov	r10, r3
 1176              	.LVL70:
 1177              	.L78:
 415:../../libDaisy//src/hid/disp/display.h ****             for(j = 0; j < font.FontWidth; j++)
 1178              		.loc 9 415 15 view .LVU259
 1179 009a 39F802CF 		ldrh	ip, [r9, #2]!
 1180              	.LVL71:
 416:../../libDaisy//src/hid/disp/display.h ****             {
 1181              		.loc 9 416 26 is_stmt 1 view .LVU260
 1182 009e A5B3     		cbz	r5, .L83
 1183              	.LBB588:
 1184              	.LBB589:
 1185              	.LBB590:
 1186              	.LBB591:
 1187              	.LBB592:
 359:../../libDaisy//src/dev/oled_ssd130x.h ****     }
 1188              		.loc 10 359 55 is_stmt 0 view .LVU261
 1189 00a0 04F00703 		and	r3, r4, #7
 359:../../libDaisy//src/dev/oled_ssd130x.h ****     }
 1190              		.loc 10 359 49 view .LVU262
 1191 00a4 4FF0010E 		mov	lr, #1
 359:../../libDaisy//src/dev/oled_ssd130x.h ****     }
 1192              		.loc 10 359 28 view .LVU263
 1193 00a8 E208     		lsrs	r2, r4, #3
ARM GAS  /var/folders/hl/qgbwny5j0fd895c2c41bk3tw0000gp/T//ccRMOALe.s 			page 52


 1194 00aa 5946     		mov	r1, fp
 359:../../libDaisy//src/dev/oled_ssd130x.h ****     }
 1195              		.loc 10 359 49 view .LVU264
 1196 00ac 0EFA03FE 		lsl	lr, lr, r3
 1197 00b0 0BF11003 		add	r3, fp, #16
 359:../../libDaisy//src/dev/oled_ssd130x.h ****     }
 1198              		.loc 10 359 42 view .LVU265
 1199 00b4 4FFA8EFE 		sxtb	lr, lr
 1200 00b8 03EBC212 		add	r2, r3, r2, lsl #7
 1201              	.LBE592:
 1202              	.LBE591:
 1203              	.LBE590:
 1204              	.LBE589:
 1205              	.LBE588:
 416:../../libDaisy//src/hid/disp/display.h ****             {
 1206              		.loc 9 416 19 view .LVU266
 1207 00bc 0023     		movs	r3, #0
 1208              	.LBB610:
 1209              	.LBB605:
 1210              	.LBB600:
 1211              	.LBB596:
 1212              	.LBB593:
 359:../../libDaisy//src/dev/oled_ssd130x.h ****     }
 1213              		.loc 10 359 42 view .LVU267
 1214 00be 6FEA0E08 		mvn	r8, lr
 1215 00c2 3244     		add	r2, r2, r6
 1216 00c4 0DE0     		b	.L84
 1217              	.LVL72:
 1218              	.L108:
 359:../../libDaisy//src/dev/oled_ssd130x.h ****     }
 1219              		.loc 10 359 42 view .LVU268
 1220              	.LBE593:
 1221              	.LBE596:
 1222              	.LBE600:
 1223              	.LBE605:
 1224              	.LBE610:
 1225              	.LBB611:
 1226              	.LBI611:
  42:../../libDaisy//src/hid/disp/oled_display.h ****     {
 1227              		.loc 8 42 10 is_stmt 1 view .LVU269
 1228              	.LBB612:
 1229              	.LBI612:
 352:../../libDaisy//src/dev/oled_ssd130x.h ****     {
 1230              		.loc 10 352 10 view .LVU270
 1231              	.LBB613:
 354:../../libDaisy//src/dev/oled_ssd130x.h ****             return;
 1232              		.loc 10 354 9 is_stmt 0 view .LVU271
 1233 00c6 7F29     		cmp	r1, #127
 1234 00c8 06D8     		bhi	.L80
 1235 00ca 3F2C     		cmp	r4, #63
 1236 00cc 04D8     		bhi	.L80
 357:../../libDaisy//src/dev/oled_ssd130x.h ****         else
 1237              		.loc 10 357 42 view .LVU272
 1238 00ce 1078     		ldrb	r0, [r2]	@ zero_extendqisi2
 356:../../libDaisy//src/dev/oled_ssd130x.h ****             buffer_[x + (y / 8) * width] |= (1 << (y % 8));
 1239              		.loc 10 356 9 view .LVU273
 1240 00d0 97B1     		cbz	r7, .L82
ARM GAS  /var/folders/hl/qgbwny5j0fd895c2c41bk3tw0000gp/T//ccRMOALe.s 			page 53


 1241              	.L105:
 356:../../libDaisy//src/dev/oled_ssd130x.h ****             buffer_[x + (y / 8) * width] |= (1 << (y % 8));
 1242              		.loc 10 356 9 view .LVU274
 1243              	.LBE613:
 1244              	.LBE612:
 1245              	.LBE611:
 1246              	.LBB614:
 1247              	.LBB606:
 1248              	.LBB601:
 357:../../libDaisy//src/dev/oled_ssd130x.h ****         else
 1249              		.loc 10 357 42 view .LVU275
 1250 00d2 4EEA0000 		orr	r0, lr, r0
 1251 00d6 1070     		strb	r0, [r2]
 1252              	.L80:
 1253              	.LBE601:
 1254              	.LBE606:
 1255              	.LBE614:
 416:../../libDaisy//src/hid/disp/display.h ****             {
 1256              		.loc 9 416 13 is_stmt 1 view .LVU276
 1257 00d8 0133     		adds	r3, r3, #1
 1258              	.LVL73:
 416:../../libDaisy//src/hid/disp/display.h ****             {
 1259              		.loc 9 416 26 view .LVU277
 1260 00da 0132     		adds	r2, r2, #1
 1261 00dc 0131     		adds	r1, r1, #1
 1262 00de AB42     		cmp	r3, r5
 1263 00e0 13D0     		beq	.L83
 1264              	.LVL74:
 1265              	.L84:
 418:../../libDaisy//src/hid/disp/display.h ****                 {
 1266              		.loc 9 418 23 is_stmt 0 view .LVU278
 1267 00e2 0CFA03F0 		lsl	r0, ip, r3
 418:../../libDaisy//src/hid/disp/display.h ****                 {
 1268              		.loc 9 418 17 view .LVU279
 1269 00e6 0004     		lsls	r0, r0, #16
 1270 00e8 EDD4     		bmi	.L108
 1271              	.LVL75:
 1272              	.LBB615:
 1273              	.LBI588:
  42:../../libDaisy//src/hid/disp/oled_display.h ****     {
 1274              		.loc 8 42 10 is_stmt 1 view .LVU280
 1275              	.LBB607:
 1276              	.LBI589:
 352:../../libDaisy//src/dev/oled_ssd130x.h ****     {
 1277              		.loc 10 352 10 view .LVU281
 1278              	.LBB602:
 354:../../libDaisy//src/dev/oled_ssd130x.h ****             return;
 1279              		.loc 10 354 9 is_stmt 0 view .LVU282
 1280 00ea 7F29     		cmp	r1, #127
 1281 00ec F4D8     		bhi	.L80
 1282 00ee 3F2C     		cmp	r4, #63
 1283 00f0 F2D8     		bhi	.L80
 357:../../libDaisy//src/dev/oled_ssd130x.h ****         else
 1284              		.loc 10 357 42 view .LVU283
 1285 00f2 1078     		ldrb	r0, [r2]	@ zero_extendqisi2
 356:../../libDaisy//src/dev/oled_ssd130x.h ****             buffer_[x + (y / 8) * width] |= (1 << (y % 8));
 1286              		.loc 10 356 9 view .LVU284
ARM GAS  /var/folders/hl/qgbwny5j0fd895c2c41bk3tw0000gp/T//ccRMOALe.s 			page 54


 1287 00f4 002F     		cmp	r7, #0
 1288 00f6 ECD0     		beq	.L105
 1289              	.L82:
 1290              	.LVL76:
 1291              	.LBB597:
 1292              	.LBI591:
 352:../../libDaisy//src/dev/oled_ssd130x.h ****     {
 1293              		.loc 10 352 10 is_stmt 1 view .LVU285
 352:../../libDaisy//src/dev/oled_ssd130x.h ****     {
 1294              		.loc 10 352 10 is_stmt 0 view .LVU286
 1295              	.LBE597:
 1296              	.LBE602:
 1297              	.LBE607:
 1298              	.LBE615:
 416:../../libDaisy//src/hid/disp/display.h ****             {
 1299              		.loc 9 416 13 view .LVU287
 1300 00f8 0133     		adds	r3, r3, #1
 1301              	.LVL77:
 1302              	.LBB616:
 1303              	.LBB608:
 1304              	.LBB603:
 1305              	.LBB598:
 1306              	.LBB594:
 359:../../libDaisy//src/dev/oled_ssd130x.h ****     }
 1307              		.loc 10 359 42 view .LVU288
 1308 00fa 08EA0000 		and	r0, r8, r0
 1309              	.LBE594:
 1310              	.LBE598:
 1311              	.LBE603:
 1312              	.LBE608:
 1313              	.LBE616:
 416:../../libDaisy//src/hid/disp/display.h ****             {
 1314              		.loc 9 416 26 view .LVU289
 1315 00fe 0132     		adds	r2, r2, #1
 1316 0100 0131     		adds	r1, r1, #1
 1317 0102 AB42     		cmp	r3, r5
 1318              	.LBB617:
 1319              	.LBB609:
 1320              	.LBB604:
 1321              	.LBB599:
 1322              	.LBB595:
 359:../../libDaisy//src/dev/oled_ssd130x.h ****     }
 1323              		.loc 10 359 42 view .LVU290
 1324 0104 02F8010C 		strb	r0, [r2, #-1]
 359:../../libDaisy//src/dev/oled_ssd130x.h ****     }
 1325              		.loc 10 359 42 view .LVU291
 1326              	.LBE595:
 1327              	.LBE599:
 1328              	.LBE604:
 1329              	.LBE609:
 1330              	.LBE617:
 416:../../libDaisy//src/hid/disp/display.h ****             {
 1331              		.loc 9 416 13 is_stmt 1 view .LVU292
 1332              	.LVL78:
 416:../../libDaisy//src/hid/disp/display.h ****             {
 1333              		.loc 9 416 26 view .LVU293
 1334 0108 EBD1     		bne	.L84
ARM GAS  /var/folders/hl/qgbwny5j0fd895c2c41bk3tw0000gp/T//ccRMOALe.s 			page 55


 1335              	.LVL79:
 1336              	.L83:
 413:../../libDaisy//src/hid/disp/display.h ****         {
 1337              		.loc 9 413 9 view .LVU294
 413:../../libDaisy//src/hid/disp/display.h ****         {
 1338              		.loc 9 413 22 view .LVU295
 1339 010a D145     		cmp	r9, r10
 1340 010c 04F10104 		add	r4, r4, #1
 1341 0110 C3D1     		bne	.L78
 1342 0112 DDF81080 		ldr	r8, [sp, #16]
 1343              	.LVL80:
 1344              	.L77:
 1345              	.LBB618:
 1346              	.LBB619:
 173:../../libDaisy//src/hid/disp/display.h ****         currentY_ = (y >= Height()) ? Height() - 1 : y;
 1347              		.loc 9 173 33 is_stmt 0 view .LVU296
 1348 0116 3268     		ldr	r2, [r6]
 1349              	.LBE619:
 1350              	.LBE618:
 434:../../libDaisy//src/hid/disp/display.h **** 
 1351              		.loc 9 434 18 view .LVU297
 1352 0118 0BEB0504 		add	r4, fp, r5
 1353 011c 2649     		ldr	r1, .L113
 1354              	.LBB624:
 1355              	.LBB620:
 173:../../libDaisy//src/hid/disp/display.h ****         currentY_ = (y >= Height()) ? Height() - 1 : y;
 1356              		.loc 9 173 33 view .LVU298
 1357 011e D368     		ldr	r3, [r2, #12]
 1358              	.LBE620:
 1359              	.LBE624:
 434:../../libDaisy//src/hid/disp/display.h **** 
 1360              		.loc 9 434 18 view .LVU299
 1361 0120 A4B2     		uxth	r4, r4
 1362              	.LVL81:
 1363              	.LBB625:
 1364              	.LBI618:
 171:../../libDaisy//src/hid/disp/display.h ****     {
 1365              		.loc 9 171 10 is_stmt 1 view .LVU300
 1366              	.LBB621:
 173:../../libDaisy//src/hid/disp/display.h ****         currentY_ = (y >= Height()) ? Height() - 1 : y;
 1367              		.loc 9 173 9 view .LVU301
 1368 0122 8B42     		cmp	r3, r1
 1369 0124 34D1     		bne	.L109
 173:../../libDaisy//src/hid/disp/display.h ****         currentY_ = (y >= Height()) ? Height() - 1 : y;
 1370              		.loc 9 173 33 is_stmt 0 view .LVU302
 1371 0126 8020     		movs	r0, #128
 1372              	.L85:
 173:../../libDaisy//src/hid/disp/display.h ****         currentY_ = (y >= Height()) ? Height() - 1 : y;
 1373              		.loc 9 173 19 view .LVU303
 1374 0128 8442     		cmp	r4, r0
 1375 012a 04D3     		bcc	.L86
 173:../../libDaisy//src/hid/disp/display.h ****         currentY_ = (y >= Height()) ? Height() - 1 : y;
 1376              		.loc 9 173 44 view .LVU304
 1377 012c D368     		ldr	r3, [r2, #12]
 1378 012e 2249     		ldr	r1, .L113
 1379 0130 8B42     		cmp	r3, r1
 1380 0132 3AD1     		bne	.L110
ARM GAS  /var/folders/hl/qgbwny5j0fd895c2c41bk3tw0000gp/T//ccRMOALe.s 			page 56


 1381 0134 7F24     		movs	r4, #127
 1382              	.LVL82:
 1383              	.L86:
 174:../../libDaisy//src/hid/disp/display.h ****     }
 1384              		.loc 9 174 34 view .LVU305
 1385 0136 9368     		ldr	r3, [r2, #8]
 1386 0138 204A     		ldr	r2, .L113+4
 173:../../libDaisy//src/hid/disp/display.h ****         currentY_ = (y >= Height()) ? Height() - 1 : y;
 1387              		.loc 9 173 19 view .LVU306
 1388 013a B480     		strh	r4, [r6, #4]	@ movhi
 174:../../libDaisy//src/hid/disp/display.h ****     }
 1389              		.loc 9 174 9 is_stmt 1 view .LVU307
 1390 013c 9342     		cmp	r3, r2
 1391 013e 24D1     		bne	.L111
 174:../../libDaisy//src/hid/disp/display.h ****     }
 1392              		.loc 9 174 34 is_stmt 0 view .LVU308
 1393 0140 4020     		movs	r0, #64
 1394              	.L88:
 174:../../libDaisy//src/hid/disp/display.h ****     }
 1395              		.loc 9 174 19 view .LVU309
 1396 0142 029B     		ldr	r3, [sp, #8]
 1397 0144 8342     		cmp	r3, r0
 1398 0146 06D3     		bcc	.L89
 174:../../libDaisy//src/hid/disp/display.h ****     }
 1399              		.loc 9 174 46 view .LVU310
 1400 0148 3368     		ldr	r3, [r6]
 1401 014a 1C4A     		ldr	r2, .L113+4
 1402 014c 9B68     		ldr	r3, [r3, #8]
 1403 014e 9342     		cmp	r3, r2
 1404 0150 25D1     		bne	.L112
 1405 0152 3F23     		movs	r3, #63
 1406 0154 0293     		str	r3, [sp, #8]
 1407              	.LVL83:
 1408              	.L89:
 174:../../libDaisy//src/hid/disp/display.h ****     }
 1409              		.loc 9 174 19 view .LVU311
 1410 0156 029B     		ldr	r3, [sp, #8]
 1411 0158 F380     		strh	r3, [r6, #6]	@ movhi
 1412              	.LVL84:
 1413              	.L71:
 174:../../libDaisy//src/hid/disp/display.h ****     }
 1414              		.loc 9 174 19 view .LVU312
 1415              	.LBE621:
 1416              	.LBE625:
 1417              	.LBE587:
 1418              	.LBE586:
 444:../../libDaisy//src/hid/disp/display.h ****         {
 445:../../libDaisy//src/hid/disp/display.h ****             if(((ChildType*)(this))->ChildType::WriteChar(*str, font, on)
 446:../../libDaisy//src/hid/disp/display.h ****                != *str)
 1419              		.loc 9 446 16 view .LVU313
 1420 015a 019B     		ldr	r3, [sp, #4]
 1421 015c 1878     		ldrb	r0, [r3]	@ zero_extendqisi2
 445:../../libDaisy//src/hid/disp/display.h ****                != *str)
 1422              		.loc 9 445 13 view .LVU314
 1423 015e 4045     		cmp	r0, r8
 1424 0160 07D1     		bne	.L69
 1425              	.LVL85:
ARM GAS  /var/folders/hl/qgbwny5j0fd895c2c41bk3tw0000gp/T//ccRMOALe.s 			page 57


 443:../../libDaisy//src/hid/disp/display.h ****         {
 1426              		.loc 9 443 9 is_stmt 1 view .LVU315
 1427 0162 13F8018F 		ldrb	r8, [r3, #1]!	@ zero_extendqisi2
 1428              	.LVL86:
 443:../../libDaisy//src/hid/disp/display.h ****         {
 1429              		.loc 9 443 9 is_stmt 0 view .LVU316
 1430 0166 0193     		str	r3, [sp, #4]
 1431 0168 B8F1000F 		cmp	r8, #0
 1432 016c 7FF460AF 		bne	.L92
 1433              	.LVL87:
 1434              	.L91:
 1435              	.LBB630:
 1436              	.LBB628:
 402:../../libDaisy//src/hid/disp/display.h **** 
 1437              		.loc 9 402 20 view .LVU317
 1438 0170 0020     		movs	r0, #0
 1439              	.L69:
 1440              	.LBE628:
 1441              	.LBE630:
 447:../../libDaisy//src/hid/disp/display.h ****             {
 448:../../libDaisy//src/hid/disp/display.h ****                 // Char could not be written
 449:../../libDaisy//src/hid/disp/display.h ****                 return *str;
 450:../../libDaisy//src/hid/disp/display.h ****             }
 451:../../libDaisy//src/hid/disp/display.h **** 
 452:../../libDaisy//src/hid/disp/display.h ****             // Next char
 453:../../libDaisy//src/hid/disp/display.h ****             str++;
 454:../../libDaisy//src/hid/disp/display.h ****         }
 455:../../libDaisy//src/hid/disp/display.h **** 
 456:../../libDaisy//src/hid/disp/display.h ****         // Everything ok
 457:../../libDaisy//src/hid/disp/display.h ****         return *str;
 458:../../libDaisy//src/hid/disp/display.h ****     }
 1442              		.loc 9 458 5 view .LVU318
 1443 0172 09B0     		add	sp, sp, #36
 1444              		.cfi_remember_state
 1445              		.cfi_def_cfa_offset 36
 1446              		@ sp needed
 1447 0174 BDE8F08F 		pop	{r4, r5, r6, r7, r8, r9, r10, fp, pc}
 1448              	.LVL88:
 1449              	.L73:
 1450              		.cfi_restore_state
 1451              	.LBB631:
 1452              	.LBB629:
 402:../../libDaisy//src/hid/disp/display.h **** 
 1453              		.loc 9 402 20 view .LVU319
 1454 0178 4FF00008 		mov	r8, #0
 1455              	.LVL89:
 402:../../libDaisy//src/hid/disp/display.h **** 
 1456              		.loc 9 402 20 view .LVU320
 1457 017c EDE7     		b	.L71
 1458              	.LVL90:
 1459              	.L106:
 405:../../libDaisy//src/hid/disp/display.h ****            || Height() < (currentY_ + font.FontHeight))
 1460              		.loc 9 405 17 view .LVU321
 1461 017e 3046     		mov	r0, r6
 1462 0180 9847     		blx	r3
 1463              	.LVL91:
 1464 0182 62E7     		b	.L72
ARM GAS  /var/folders/hl/qgbwny5j0fd895c2c41bk3tw0000gp/T//ccRMOALe.s 			page 58


 1465              	.L107:
 406:../../libDaisy//src/hid/disp/display.h ****         {
 1466              		.loc 9 406 21 view .LVU322
 1467 0184 3046     		mov	r0, r6
 1468 0186 9847     		blx	r3
 1469              	.LVL92:
 1470 0188 6BE7     		b	.L74
 1471              	.LVL93:
 1472              	.L111:
 1473              	.LBB626:
 1474              	.LBB622:
 174:../../libDaisy//src/hid/disp/display.h ****     }
 1475              		.loc 9 174 33 view .LVU323
 1476 018a 3046     		mov	r0, r6
 1477 018c 9847     		blx	r3
 1478              	.LVL94:
 1479 018e D8E7     		b	.L88
 1480              	.LVL95:
 1481              	.L109:
 173:../../libDaisy//src/hid/disp/display.h ****         currentY_ = (y >= Height()) ? Height() - 1 : y;
 1482              		.loc 9 173 32 view .LVU324
 1483 0190 3046     		mov	r0, r6
 1484 0192 9847     		blx	r3
 1485              	.LVL96:
 173:../../libDaisy//src/hid/disp/display.h ****         currentY_ = (y >= Height()) ? Height() - 1 : y;
 1486              		.loc 9 173 44 view .LVU325
 1487 0194 3268     		ldr	r2, [r6]
 1488 0196 C7E7     		b	.L85
 1489              	.LVL97:
 1490              	.L75:
 173:../../libDaisy//src/hid/disp/display.h ****         currentY_ = (y >= Height()) ? Height() - 1 : y;
 1491              		.loc 9 173 44 view .LVU326
 1492              	.LBE622:
 1493              	.LBE626:
 434:../../libDaisy//src/hid/disp/display.h **** 
 1494              		.loc 9 434 19 view .LVU327
 1495 0198 B6F804B0 		ldrh	fp, [r6, #4]
 1496 019c BBE7     		b	.L77
 1497              	.LVL98:
 1498              	.L112:
 1499              	.LBB627:
 1500              	.LBB623:
 174:../../libDaisy//src/hid/disp/display.h ****     }
 1501              		.loc 9 174 45 view .LVU328
 1502 019e 3046     		mov	r0, r6
 1503 01a0 9847     		blx	r3
 1504              	.LVL99:
 174:../../libDaisy//src/hid/disp/display.h ****     }
 1505              		.loc 9 174 19 view .LVU329
 1506 01a2 431E     		subs	r3, r0, #1
 1507 01a4 9BB2     		uxth	r3, r3
 1508 01a6 0293     		str	r3, [sp, #8]
 1509              	.LVL100:
 174:../../libDaisy//src/hid/disp/display.h ****     }
 1510              		.loc 9 174 19 view .LVU330
 1511 01a8 D5E7     		b	.L89
 1512              	.LVL101:
ARM GAS  /var/folders/hl/qgbwny5j0fd895c2c41bk3tw0000gp/T//ccRMOALe.s 			page 59


 1513              	.L110:
 173:../../libDaisy//src/hid/disp/display.h ****         currentY_ = (y >= Height()) ? Height() - 1 : y;
 1514              		.loc 9 173 43 view .LVU331
 1515 01aa 3046     		mov	r0, r6
 1516 01ac 9847     		blx	r3
 1517              	.LVL102:
 173:../../libDaisy//src/hid/disp/display.h ****         currentY_ = (y >= Height()) ? Height() - 1 : y;
 1518              		.loc 9 173 19 view .LVU332
 1519 01ae 0138     		subs	r0, r0, #1
 174:../../libDaisy//src/hid/disp/display.h ****     }
 1520              		.loc 9 174 34 view .LVU333
 1521 01b0 3268     		ldr	r2, [r6]
 173:../../libDaisy//src/hid/disp/display.h ****         currentY_ = (y >= Height()) ? Height() - 1 : y;
 1522              		.loc 9 173 19 view .LVU334
 1523 01b2 84B2     		uxth	r4, r0
 1524              	.LVL103:
 173:../../libDaisy//src/hid/disp/display.h ****         currentY_ = (y >= Height()) ? Height() - 1 : y;
 1525              		.loc 9 173 19 view .LVU335
 1526 01b4 BFE7     		b	.L86
 1527              	.L114:
 1528 01b6 00BF     		.align	2
 1529              	.L113:
 1530 01b8 00000000 		.word	_ZNK5daisy11OledDisplayINS_13SSD130xDriverILj128ELj64ENS_19SSD130xI2CTransportEEEE5WidthEv
 1531 01bc 00000000 		.word	_ZNK5daisy11OledDisplayINS_13SSD130xDriverILj128ELj64ENS_19SSD130xI2CTransportEEEE6HeightEv
 1532              	.LBE623:
 1533              	.LBE627:
 1534              	.LBE629:
 1535              	.LBE631:
 1536              		.cfi_endproc
 1537              	.LFE5144:
 1539              		.section	.text._ZN5daisy11OledDisplayINS_13SSD130xDriverILj128ELj64ENS_19SSD130xI2CTransportEEEE9D
 1540              		.align	1
 1541              		.p2align 2,,3
 1542              		.weak	_ZN5daisy11OledDisplayINS_13SSD130xDriverILj128ELj64ENS_19SSD130xI2CTransportEEEE9DrawPixelE
 1543              		.syntax unified
 1544              		.thumb
 1545              		.thumb_func
 1546              		.fpu fpv5-d16
 1548              	_ZN5daisy11OledDisplayINS_13SSD130xDriverILj128ELj64ENS_19SSD130xI2CTransportEEEE9DrawPixelEjjb:
 1549              	.LVL104:
 1550              	.LFB5316:
  42:../../libDaisy//src/hid/disp/oled_display.h ****     {
 1551              		.loc 8 42 10 is_stmt 1 view -0
 1552              		.cfi_startproc
 1553              		@ args = 0, pretend = 0, frame = 0
 1554              		@ frame_needed = 0, uses_anonymous_args = 0
 1555              		@ link register save eliminated.
 1556              	.LBB636:
 1557              	.LBI636:
 352:../../libDaisy//src/dev/oled_ssd130x.h ****     {
 1558              		.loc 10 352 10 view .LVU337
 1559              	.LBB637:
 354:../../libDaisy//src/dev/oled_ssd130x.h ****             return;
 1560              		.loc 10 354 9 is_stmt 0 view .LVU338
 1561 0000 7F29     		cmp	r1, #127
 1562 0002 1ED8     		bhi	.L115
 1563 0004 3F2A     		cmp	r2, #63
ARM GAS  /var/folders/hl/qgbwny5j0fd895c2c41bk3tw0000gp/T//ccRMOALe.s 			page 60


 1564 0006 1CD8     		bhi	.L115
 356:../../libDaisy//src/dev/oled_ssd130x.h ****             buffer_[x + (y / 8) * width] |= (1 << (y % 8));
 1565              		.loc 10 356 9 view .LVU339
 1566 0008 6BB1     		cbz	r3, .L117
 357:../../libDaisy//src/dev/oled_ssd130x.h ****         else
 1567              		.loc 10 357 28 view .LVU340
 1568 000a D308     		lsrs	r3, r2, #3
 1569              	.LVL105:
 357:../../libDaisy//src/dev/oled_ssd130x.h ****         else
 1570              		.loc 10 357 48 view .LVU341
 1571 000c 4FF0010C 		mov	ip, #1
 357:../../libDaisy//src/dev/oled_ssd130x.h ****         else
 1572              		.loc 10 357 54 view .LVU342
 1573 0010 02F00702 		and	r2, r2, #7
 1574              	.LVL106:
 357:../../libDaisy//src/dev/oled_ssd130x.h ****         else
 1575              		.loc 10 357 42 view .LVU343
 1576 0014 01EBC313 		add	r3, r1, r3, lsl #7
 357:../../libDaisy//src/dev/oled_ssd130x.h ****         else
 1577              		.loc 10 357 48 view .LVU344
 1578 0018 0CFA02F2 		lsl	r2, ip, r2
 357:../../libDaisy//src/dev/oled_ssd130x.h ****         else
 1579              		.loc 10 357 42 view .LVU345
 1580 001c C118     		adds	r1, r0, r3
 1581              	.LVL107:
 357:../../libDaisy//src/dev/oled_ssd130x.h ****         else
 1582              		.loc 10 357 42 view .LVU346
 1583 001e 0B7C     		ldrb	r3, [r1, #16]	@ zero_extendqisi2
 1584 0020 1A43     		orrs	r2, r2, r3
 1585 0022 0A74     		strb	r2, [r1, #16]
 1586 0024 7047     		bx	lr
 1587              	.LVL108:
 1588              	.L117:
 1589              	.LBB638:
 1590              	.LBI638:
 352:../../libDaisy//src/dev/oled_ssd130x.h ****     {
 1591              		.loc 10 352 10 is_stmt 1 view .LVU347
 1592              	.LBB639:
 359:../../libDaisy//src/dev/oled_ssd130x.h ****     }
 1593              		.loc 10 359 28 is_stmt 0 view .LVU348
 1594 0026 D308     		lsrs	r3, r2, #3
 1595              	.LVL109:
 359:../../libDaisy//src/dev/oled_ssd130x.h ****     }
 1596              		.loc 10 359 49 view .LVU349
 1597 0028 4FF0010C 		mov	ip, #1
 359:../../libDaisy//src/dev/oled_ssd130x.h ****     }
 1598              		.loc 10 359 55 view .LVU350
 1599 002c 02F00702 		and	r2, r2, #7
 1600              	.LVL110:
 359:../../libDaisy//src/dev/oled_ssd130x.h ****     }
 1601              		.loc 10 359 42 view .LVU351
 1602 0030 01EBC313 		add	r3, r1, r3, lsl #7
 359:../../libDaisy//src/dev/oled_ssd130x.h ****     }
 1603              		.loc 10 359 49 view .LVU352
 1604 0034 0CFA02FC 		lsl	ip, ip, r2
 359:../../libDaisy//src/dev/oled_ssd130x.h ****     }
 1605              		.loc 10 359 42 view .LVU353
ARM GAS  /var/folders/hl/qgbwny5j0fd895c2c41bk3tw0000gp/T//ccRMOALe.s 			page 61


 1606 0038 C118     		adds	r1, r0, r3
 1607              	.LVL111:
 359:../../libDaisy//src/dev/oled_ssd130x.h ****     }
 1608              		.loc 10 359 42 view .LVU354
 1609 003a 0A7C     		ldrb	r2, [r1, #16]	@ zero_extendqisi2
 1610 003c 22EA0C02 		bic	r2, r2, ip
 1611 0040 0A74     		strb	r2, [r1, #16]
 1612              	.LVL112:
 1613              	.L115:
 359:../../libDaisy//src/dev/oled_ssd130x.h ****     }
 1614              		.loc 10 359 42 view .LVU355
 1615              	.LBE639:
 1616              	.LBE638:
 1617              	.LBE637:
 1618              	.LBE636:
  45:../../libDaisy//src/hid/disp/oled_display.h **** 
 1619              		.loc 8 45 5 view .LVU356
 1620 0042 7047     		bx	lr
 1621              		.cfi_endproc
 1622              	.LFE5316:
 1624              		.section	.text._ZN5daisy25OneBitGraphicsDisplayImplINS_11OledDisplayINS_13SSD130xDriverILj128ELj64
 1625              		.align	1
 1626              		.p2align 2,,3
 1627              		.weak	_ZN5daisy25OneBitGraphicsDisplayImplINS_11OledDisplayINS_13SSD130xDriverILj128ELj64ENS_19SSD
 1628              		.syntax unified
 1629              		.thumb
 1630              		.thumb_func
 1631              		.fpu fpv5-d16
 1633              	_ZN5daisy25OneBitGraphicsDisplayImplINS_11OledDisplayINS_13SSD130xDriverILj128ELj64ENS_19SSD130xI2C
 1634              	.LVL113:
 1635              	.LFB5418:
 221:../../libDaisy//src/hid/disp/display.h ****                   uint_fast8_t y1,
 1636              		.loc 9 221 10 is_stmt 1 view -0
 1637              		.cfi_startproc
 1638              		@ args = 8, pretend = 0, frame = 8
 1639              		@ frame_needed = 0, uses_anonymous_args = 0
 221:../../libDaisy//src/hid/disp/display.h ****                   uint_fast8_t y1,
 1640              		.loc 9 221 10 is_stmt 0 view .LVU358
 1641 0000 2DE9F04F 		push	{r4, r5, r6, r7, r8, r9, r10, fp, lr}
 1642              		.cfi_def_cfa_offset 36
 1643              		.cfi_offset 4, -36
 1644              		.cfi_offset 5, -32
 1645              		.cfi_offset 6, -28
 1646              		.cfi_offset 7, -24
 1647              		.cfi_offset 8, -20
 1648              		.cfi_offset 9, -16
 1649              		.cfi_offset 10, -12
 1650              		.cfi_offset 11, -8
 1651              		.cfi_offset 14, -4
 1652 0004 83B0     		sub	sp, sp, #12
 1653              		.cfi_def_cfa_offset 48
 227:../../libDaisy//src/hid/disp/display.h ****         int_fast16_t deltaY = abs((int_fast16_t)y2 - (int_fast16_t)y1);
 1654              		.loc 9 227 52 view .LVU359
 1655 0006 5C1A     		subs	r4, r3, r1
 221:../../libDaisy//src/hid/disp/display.h ****                   uint_fast8_t y1,
 1656              		.loc 9 221 10 view .LVU360
 1657 0008 0C9E     		ldr	r6, [sp, #48]
ARM GAS  /var/folders/hl/qgbwny5j0fd895c2c41bk3tw0000gp/T//ccRMOALe.s 			page 62


 227:../../libDaisy//src/hid/disp/display.h ****         int_fast16_t deltaY = abs((int_fast16_t)y2 - (int_fast16_t)y1);
 1658              		.loc 9 227 22 view .LVU361
 1659 000a 002C     		cmp	r4, #0
 221:../../libDaisy//src/hid/disp/display.h ****                   uint_fast8_t y1,
 1660              		.loc 9 221 10 view .LVU362
 1661 000c 9DF83490 		ldrb	r9, [sp, #52]	@ zero_extendqisi2
 228:../../libDaisy//src/hid/disp/display.h ****         int_fast16_t signX  = ((x1 < x2) ? 1 : -1);
 1662              		.loc 9 228 52 view .LVU363
 1663 0010 A6EB0208 		sub	r8, r6, r2
 227:../../libDaisy//src/hid/disp/display.h ****         int_fast16_t deltaY = abs((int_fast16_t)y2 - (int_fast16_t)y1);
 1664              		.loc 9 227 22 view .LVU364
 1665 0014 B8BF     		it	lt
 1666 0016 6442     		rsblt	r4, r4, #0
 1667              	.LVL114:
 228:../../libDaisy//src/hid/disp/display.h ****         int_fast16_t signX  = ((x1 < x2) ? 1 : -1);
 1668              		.loc 9 228 22 view .LVU365
 1669 0018 B8F1000F 		cmp	r8, #0
 1670 001c B8BF     		it	lt
 1671 001e C8F10008 		rsblt	r8, r8, #0
 1672              	.LVL115:
 229:../../libDaisy//src/hid/disp/display.h ****         int_fast16_t signY  = ((y1 < y2) ? 1 : -1);
 1673              		.loc 9 229 42 view .LVU366
 1674 0022 8B42     		cmp	r3, r1
 1675 0024 8CBF     		ite	hi
 1676 0026 4FF0010A 		movhi	r10, #1
 1677 002a 4FF0FF3A 		movls	r10, #-1
 1678              	.LVL116:
 230:../../libDaisy//src/hid/disp/display.h ****         int_fast16_t error  = deltaX - deltaY;
 1679              		.loc 9 230 42 view .LVU367
 1680 002e 9642     		cmp	r6, r2
 231:../../libDaisy//src/hid/disp/display.h ****         int_fast16_t error2;
 1681              		.loc 9 231 22 view .LVU368
 1682 0030 A4EB080C 		sub	ip, r4, r8
 230:../../libDaisy//src/hid/disp/display.h ****         int_fast16_t error  = deltaX - deltaY;
 1683              		.loc 9 230 42 view .LVU369
 1684 0034 51D8     		bhi	.L120
 1685              	.LVL117:
 1686              	.LBB656:
 1687              	.LBI656:
  42:../../libDaisy//src/hid/disp/oled_display.h ****     {
 1688              		.loc 8 42 10 is_stmt 1 discriminator 4 view .LVU370
 1689              	.LBB657:
 1690              	.LBI657:
 352:../../libDaisy//src/dev/oled_ssd130x.h ****     {
 1691              		.loc 10 352 10 discriminator 4 view .LVU371
 1692              	.LBE657:
 1693              	.LBE656:
 230:../../libDaisy//src/hid/disp/display.h ****         int_fast16_t error  = deltaX - deltaY;
 1694              		.loc 9 230 42 is_stmt 0 discriminator 4 view .LVU372
 1695 0036 4FF0FF35 		mov	r5, #-1
 1696              	.LBB673:
 1697              	.LBB667:
 1698              	.LBB658:
 354:../../libDaisy//src/dev/oled_ssd130x.h ****             return;
 1699              		.loc 10 354 9 discriminator 4 view .LVU373
 1700 003a 7F2B     		cmp	r3, #127
 1701              	.LBE658:
ARM GAS  /var/folders/hl/qgbwny5j0fd895c2c41bk3tw0000gp/T//ccRMOALe.s 			page 63


 1702              	.LBE667:
 1703              	.LBE673:
 230:../../libDaisy//src/hid/disp/display.h ****         int_fast16_t error  = deltaX - deltaY;
 1704              		.loc 9 230 42 discriminator 4 view .LVU374
 1705 003c 0195     		str	r5, [sp, #4]
 1706              	.LBB674:
 1707              	.LBB668:
 1708              	.LBB663:
 354:../../libDaisy//src/dev/oled_ssd130x.h ****             return;
 1709              		.loc 10 354 9 discriminator 4 view .LVU375
 1710 003e 12D8     		bhi	.L121
 1711 0040 3F2E     		cmp	r6, #63
 1712 0042 10D8     		bhi	.L121
 1713              	.LVL118:
 1714              	.L132:
 357:../../libDaisy//src/dev/oled_ssd130x.h ****         else
 1715              		.loc 10 357 28 view .LVU376
 1716 0044 F508     		lsrs	r5, r6, #3
 357:../../libDaisy//src/dev/oled_ssd130x.h ****         else
 1717              		.loc 10 357 54 view .LVU377
 1718 0046 06F0070E 		and	lr, r6, #7
 357:../../libDaisy//src/dev/oled_ssd130x.h ****         else
 1719              		.loc 10 357 48 view .LVU378
 1720 004a 0127     		movs	r7, #1
 357:../../libDaisy//src/dev/oled_ssd130x.h ****         else
 1721              		.loc 10 357 42 view .LVU379
 1722 004c 03EBC515 		add	r5, r3, r5, lsl #7
 1723 0050 0544     		add	r5, r5, r0
 356:../../libDaisy//src/dev/oled_ssd130x.h ****             buffer_[x + (y / 8) * width] |= (1 << (y % 8));
 1724              		.loc 10 356 9 view .LVU380
 1725 0052 B9F1000F 		cmp	r9, #0
 1726 0056 47D0     		beq	.L122
 357:../../libDaisy//src/dev/oled_ssd130x.h ****         else
 1727              		.loc 10 357 48 view .LVU381
 1728 0058 07FA0EF7 		lsl	r7, r7, lr
 357:../../libDaisy//src/dev/oled_ssd130x.h ****         else
 1729              		.loc 10 357 42 view .LVU382
 1730 005c 95F810E0 		ldrb	lr, [r5, #16]	@ zero_extendqisi2
 1731 0060 47EA0E07 		orr	r7, r7, lr
 1732 0064 2F74     		strb	r7, [r5, #16]
 1733              	.LVL119:
 1734              	.L121:
 357:../../libDaisy//src/dev/oled_ssd130x.h ****         else
 1735              		.loc 10 357 42 view .LVU383
 1736              	.LBE663:
 1737              	.LBE668:
 1738              	.LBE674:
 239:../../libDaisy//src/hid/disp/display.h ****         {
 1739              		.loc 9 239 26 is_stmt 1 view .LVU384
 1740 0066 9642     		cmp	r6, r2
 1741 0068 01D1     		bne	.L125
 1742              	.L144:
 239:../../libDaisy//src/hid/disp/display.h ****         {
 1743              		.loc 9 239 26 is_stmt 0 view .LVU385
 1744 006a 8B42     		cmp	r3, r1
 1745 006c 29D0     		beq	.L118
 1746              	.L125:
ARM GAS  /var/folders/hl/qgbwny5j0fd895c2c41bk3tw0000gp/T//ccRMOALe.s 			page 64


 1747              	.LVL120:
 243:../../libDaisy//src/hid/disp/display.h ****             {
 1748              		.loc 9 243 23 view .LVU386
 1749 006e C8F10007 		rsb	r7, r8, #0
 1750              	.L127:
 1751              	.LVL121:
 1752              	.LBB675:
 1753              	.LBI675:
  42:../../libDaisy//src/hid/disp/oled_display.h ****     {
 1754              		.loc 8 42 10 is_stmt 1 view .LVU387
 1755              	.LBB676:
 1756              	.LBI676:
 352:../../libDaisy//src/dev/oled_ssd130x.h ****     {
 1757              		.loc 10 352 10 view .LVU388
 1758              	.LBB677:
 354:../../libDaisy//src/dev/oled_ssd130x.h ****             return;
 1759              		.loc 10 354 9 is_stmt 0 view .LVU389
 1760 0072 7F29     		cmp	r1, #127
 1761 0074 14D8     		bhi	.L128
 1762 0076 3F2A     		cmp	r2, #63
 1763 0078 12D8     		bhi	.L128
 357:../../libDaisy//src/dev/oled_ssd130x.h ****         else
 1764              		.loc 10 357 28 view .LVU390
 1765 007a D508     		lsrs	r5, r2, #3
 357:../../libDaisy//src/dev/oled_ssd130x.h ****         else
 1766              		.loc 10 357 54 view .LVU391
 1767 007c 02F0070B 		and	fp, r2, #7
 357:../../libDaisy//src/dev/oled_ssd130x.h ****         else
 1768              		.loc 10 357 48 view .LVU392
 1769 0080 4FF0010E 		mov	lr, #1
 357:../../libDaisy//src/dev/oled_ssd130x.h ****         else
 1770              		.loc 10 357 42 view .LVU393
 1771 0084 01EBC515 		add	r5, r1, r5, lsl #7
 1772 0088 0544     		add	r5, r5, r0
 356:../../libDaisy//src/dev/oled_ssd130x.h ****             buffer_[x + (y / 8) * width] |= (1 << (y % 8));
 1773              		.loc 10 356 9 view .LVU394
 1774 008a B9F1000F 		cmp	r9, #0
 1775 008e 1BD0     		beq	.L129
 357:../../libDaisy//src/dev/oled_ssd130x.h ****         else
 1776              		.loc 10 357 48 view .LVU395
 1777 0090 0EFA0BFE 		lsl	lr, lr, fp
 357:../../libDaisy//src/dev/oled_ssd130x.h ****         else
 1778              		.loc 10 357 42 view .LVU396
 1779 0094 95F810B0 		ldrb	fp, [r5, #16]	@ zero_extendqisi2
 1780 0098 4EEA0B0E 		orr	lr, lr, fp
 1781 009c 85F810E0 		strb	lr, [r5, #16]
 1782              	.L128:
 1783              	.LVL122:
 357:../../libDaisy//src/dev/oled_ssd130x.h ****         else
 1784              		.loc 10 357 42 view .LVU397
 1785              	.LBE677:
 1786              	.LBE676:
 1787              	.LBE675:
 243:../../libDaisy//src/hid/disp/display.h ****             {
 1788              		.loc 9 243 13 view .LVU398
 1789 00a0 B7EB4C0F 		cmp	r7, ip, lsl #1
 242:../../libDaisy//src/hid/disp/display.h ****             if(error2 > -deltaY)
ARM GAS  /var/folders/hl/qgbwny5j0fd895c2c41bk3tw0000gp/T//ccRMOALe.s 			page 65


 1790              		.loc 9 242 20 view .LVU399
 1791 00a4 4FEA4C05 		lsl	r5, ip, #1
 1792              	.LVL123:
 243:../../libDaisy//src/hid/disp/display.h ****             {
 1793              		.loc 9 243 13 view .LVU400
 1794 00a8 02DA     		bge	.L130
 245:../../libDaisy//src/hid/disp/display.h ****                 x1 += signX;
 1795              		.loc 9 245 23 view .LVU401
 1796 00aa ACEB080C 		sub	ip, ip, r8
 1797              	.LVL124:
 246:../../libDaisy//src/hid/disp/display.h ****             }
 1798              		.loc 9 246 20 view .LVU402
 1799 00ae 5144     		add	r1, r1, r10
 1800              	.LVL125:
 1801              	.L130:
 249:../../libDaisy//src/hid/disp/display.h ****             {
 1802              		.loc 9 249 13 view .LVU403
 1803 00b0 AC42     		cmp	r4, r5
 1804 00b2 02DD     		ble	.L131
 252:../../libDaisy//src/hid/disp/display.h ****             }
 1805              		.loc 9 252 20 view .LVU404
 1806 00b4 019D     		ldr	r5, [sp, #4]
 1807              	.LVL126:
 251:../../libDaisy//src/hid/disp/display.h ****                 y1 += signY;
 1808              		.loc 9 251 23 view .LVU405
 1809 00b6 A444     		add	ip, ip, r4
 1810              	.LVL127:
 252:../../libDaisy//src/hid/disp/display.h ****             }
 1811              		.loc 9 252 20 view .LVU406
 1812 00b8 2A44     		add	r2, r2, r5
 1813              	.LVL128:
 1814              	.L131:
 239:../../libDaisy//src/hid/disp/display.h ****         {
 1815              		.loc 9 239 26 is_stmt 1 view .LVU407
 1816 00ba 9942     		cmp	r1, r3
 1817 00bc D9D1     		bne	.L127
 239:../../libDaisy//src/hid/disp/display.h ****         {
 1818              		.loc 9 239 26 is_stmt 0 view .LVU408
 1819 00be 9642     		cmp	r6, r2
 1820 00c0 D7D1     		bne	.L127
 1821              	.L118:
 255:../../libDaisy//src/hid/disp/display.h **** 
 1822              		.loc 9 255 5 view .LVU409
 1823 00c2 03B0     		add	sp, sp, #12
 1824              		.cfi_remember_state
 1825              		.cfi_def_cfa_offset 36
 1826              		@ sp needed
 1827 00c4 BDE8F08F 		pop	{r4, r5, r6, r7, r8, r9, r10, fp, pc}
 1828              	.LVL129:
 1829              	.L129:
 1830              		.cfi_restore_state
 1831              	.LBB682:
 1832              	.LBB681:
 1833              	.LBB680:
 1834              	.LBB678:
 1835              	.LBI678:
 352:../../libDaisy//src/dev/oled_ssd130x.h ****     {
ARM GAS  /var/folders/hl/qgbwny5j0fd895c2c41bk3tw0000gp/T//ccRMOALe.s 			page 66


 1836              		.loc 10 352 10 is_stmt 1 view .LVU410
 1837              	.LBB679:
 359:../../libDaisy//src/dev/oled_ssd130x.h ****     }
 1838              		.loc 10 359 49 is_stmt 0 view .LVU411
 1839 00c8 0EFA0BFB 		lsl	fp, lr, fp
 359:../../libDaisy//src/dev/oled_ssd130x.h ****     }
 1840              		.loc 10 359 42 view .LVU412
 1841 00cc 95F810E0 		ldrb	lr, [r5, #16]	@ zero_extendqisi2
 1842 00d0 2EEA0B0E 		bic	lr, lr, fp
 1843 00d4 85F810E0 		strb	lr, [r5, #16]
 1844 00d8 E2E7     		b	.L128
 1845              	.LVL130:
 1846              	.L120:
 359:../../libDaisy//src/dev/oled_ssd130x.h ****     }
 1847              		.loc 10 359 42 view .LVU413
 1848              	.LBE679:
 1849              	.LBE678:
 1850              	.LBE680:
 1851              	.LBE681:
 1852              	.LBE682:
 1853              	.LBB683:
  42:../../libDaisy//src/hid/disp/oled_display.h ****     {
 1854              		.loc 8 42 10 is_stmt 1 view .LVU414
 1855              	.LBB669:
 352:../../libDaisy//src/dev/oled_ssd130x.h ****     {
 1856              		.loc 10 352 10 view .LVU415
 1857              	.LBE669:
 1858              	.LBE683:
 230:../../libDaisy//src/hid/disp/display.h ****         int_fast16_t error  = deltaX - deltaY;
 1859              		.loc 9 230 42 is_stmt 0 view .LVU416
 1860 00da 0125     		movs	r5, #1
 1861              	.LBB684:
 1862              	.LBB670:
 1863              	.LBB664:
 354:../../libDaisy//src/dev/oled_ssd130x.h ****             return;
 1864              		.loc 10 354 9 view .LVU417
 1865 00dc 7F2B     		cmp	r3, #127
 1866              	.LBE664:
 1867              	.LBE670:
 1868              	.LBE684:
 230:../../libDaisy//src/hid/disp/display.h ****         int_fast16_t error  = deltaX - deltaY;
 1869              		.loc 9 230 42 view .LVU418
 1870 00de 0195     		str	r5, [sp, #4]
 1871              	.LBB685:
 1872              	.LBB671:
 1873              	.LBB665:
 354:../../libDaisy//src/dev/oled_ssd130x.h ****             return;
 1874              		.loc 10 354 9 view .LVU419
 1875 00e0 C5D8     		bhi	.L125
 1876 00e2 3F2E     		cmp	r6, #63
 1877 00e4 AED9     		bls	.L132
 1878 00e6 C2E7     		b	.L125
 1879              	.LVL131:
 1880              	.L122:
 1881              	.LBB659:
 1882              	.LBI659:
 352:../../libDaisy//src/dev/oled_ssd130x.h ****     {
ARM GAS  /var/folders/hl/qgbwny5j0fd895c2c41bk3tw0000gp/T//ccRMOALe.s 			page 67


 1883              		.loc 10 352 10 is_stmt 1 view .LVU420
 1884              	.LBB660:
 359:../../libDaisy//src/dev/oled_ssd130x.h ****     }
 1885              		.loc 10 359 49 is_stmt 0 view .LVU421
 1886 00e8 07FA0EFE 		lsl	lr, r7, lr
 359:../../libDaisy//src/dev/oled_ssd130x.h ****     }
 1887              		.loc 10 359 42 view .LVU422
 1888 00ec 2F7C     		ldrb	r7, [r5, #16]	@ zero_extendqisi2
 1889              	.LBE660:
 1890              	.LBE659:
 1891              	.LBE665:
 1892              	.LBE671:
 1893              	.LBE685:
 239:../../libDaisy//src/hid/disp/display.h ****         {
 1894              		.loc 9 239 26 view .LVU423
 1895 00ee 9642     		cmp	r6, r2
 1896              	.LBB686:
 1897              	.LBB672:
 1898              	.LBB666:
 1899              	.LBB662:
 1900              	.LBB661:
 359:../../libDaisy//src/dev/oled_ssd130x.h ****     }
 1901              		.loc 10 359 42 view .LVU424
 1902 00f0 27EA0E07 		bic	r7, r7, lr
 1903 00f4 2F74     		strb	r7, [r5, #16]
 1904              	.LVL132:
 359:../../libDaisy//src/dev/oled_ssd130x.h ****     }
 1905              		.loc 10 359 42 view .LVU425
 1906              	.LBE661:
 1907              	.LBE662:
 1908              	.LBE666:
 1909              	.LBE672:
 1910              	.LBE686:
 239:../../libDaisy//src/hid/disp/display.h ****         {
 1911              		.loc 9 239 26 is_stmt 1 view .LVU426
 1912 00f6 B8D0     		beq	.L144
 1913 00f8 B9E7     		b	.L125
 1914              		.cfi_endproc
 1915              	.LFE5418:
 1917 00fa 00BF     		.section	.text._ZN5daisy25OneBitGraphicsDisplayImplINS_11OledDisplayINS_13SSD130xDriverILj128ELj64
 1918              		.align	1
 1919              		.p2align 2,,3
 1920              		.weak	_ZN5daisy25OneBitGraphicsDisplayImplINS_11OledDisplayINS_13SSD130xDriverILj128ELj64ENS_19SSD
 1921              		.syntax unified
 1922              		.thumb
 1923              		.thumb_func
 1924              		.fpu fpv5-d16
 1926              	_ZN5daisy25OneBitGraphicsDisplayImplINS_11OledDisplayINS_13SSD130xDriverILj128ELj64ENS_19SSD130xI2C
 1927              	.LVL133:
 1928              	.LFB5420:
 283:../../libDaisy//src/hid/disp/display.h ****                  uint_fast8_t y,
 1929              		.loc 9 283 10 view -0
 1930              		.cfi_startproc
 1931              		@ args = 12, pretend = 0, frame = 8
 1932              		@ frame_needed = 0, uses_anonymous_args = 0
 283:../../libDaisy//src/hid/disp/display.h ****                  uint_fast8_t y,
 1933              		.loc 9 283 10 is_stmt 0 view .LVU428
ARM GAS  /var/folders/hl/qgbwny5j0fd895c2c41bk3tw0000gp/T//ccRMOALe.s 			page 68


 1934 0000 2DE9F04F 		push	{r4, r5, r6, r7, r8, r9, r10, fp, lr}
 1935              		.cfi_def_cfa_offset 36
 1936              		.cfi_offset 4, -36
 1937              		.cfi_offset 5, -32
 1938              		.cfi_offset 6, -28
 1939              		.cfi_offset 7, -24
 1940              		.cfi_offset 8, -20
 1941              		.cfi_offset 9, -16
 1942              		.cfi_offset 10, -12
 1943              		.cfi_offset 11, -8
 1944              		.cfi_offset 14, -4
 1945 0004 2DED068B 		vpush.64	{d8, d9, d10}
 1946              		.cfi_def_cfa_offset 60
 1947              		.cfi_offset 80, -60
 1948              		.cfi_offset 81, -56
 1949              		.cfi_offset 82, -52
 1950              		.cfi_offset 83, -48
 1951              		.cfi_offset 84, -44
 1952              		.cfi_offset 85, -40
 1953 0008 83B0     		sub	sp, sp, #12
 1954              		.cfi_def_cfa_offset 72
 283:../../libDaisy//src/hid/disp/display.h ****                  uint_fast8_t y,
 1955              		.loc 9 283 10 view .LVU429
 1956 000a 1F46     		mov	r7, r3
 1957 000c 8046     		mov	r8, r0
 1958 000e 0D46     		mov	r5, r1
 1959 0010 9DF85030 		ldrb	r3, [sp, #80]	@ zero_extendqisi2
 1960              	.LVL134:
 283:../../libDaisy//src/hid/disp/display.h ****                  uint_fast8_t y,
 1961              		.loc 9 283 10 view .LVU430
 1962 0014 1646     		mov	r6, r2
 1963 0016 0193     		str	r3, [sp, #4]
 306:../../libDaisy//src/hid/disp/display.h ****         {
 1964              		.loc 9 306 9 view .LVU431
 1965 0018 139B     		ldr	r3, [sp, #76]
 1966 001a 002B     		cmp	r3, #0
 1967 001c C0F22182 		blt	.L146
 313:../../libDaisy//src/hid/disp/display.h **** 
 1968              		.loc 9 313 27 view .LVU432
 1969 0020 129A     		ldr	r2, [sp, #72]
 1970              	.LVL135:
 313:../../libDaisy//src/hid/disp/display.h **** 
 1971              		.loc 9 313 27 view .LVU433
 1972 0022 1344     		add	r3, r3, r2
 1973 0024 06EE103A 		vmov	s12, r3	@ int
 1974              	.LVL136:
 1975              	.L147:
 312:../../libDaisy//src/hid/disp/display.h ****         end_angle_rad   = deg2rad(start_angle + sweep);
 1976              		.loc 9 312 27 view .LVU434
 1977 0028 DDED127A 		vldr.32	s15, [sp, #72]	@ int
 313:../../libDaisy//src/hid/disp/display.h **** 
 1978              		.loc 9 313 27 view .LVU435
 1979 002c B8EEC66B 		vcvt.f64.s32	d6, s12
 312:../../libDaisy//src/hid/disp/display.h ****         end_angle_rad   = deg2rad(start_angle + sweep);
 1980              		.loc 9 312 27 view .LVU436
 1981 0030 9FEDCD4B 		vldr.64	d4, .L222
 1982 0034 B8EEE77B 		vcvt.f64.s32	d7, s15
ARM GAS  /var/folders/hl/qgbwny5j0fd895c2c41bk3tw0000gp/T//ccRMOALe.s 			page 69


 1983 0038 9FEDCD5B 		vldr.64	d5, .L222+8
 1984 003c 27EE047B 		vmul.f64	d7, d7, d4
 313:../../libDaisy//src/hid/disp/display.h **** 
 1985              		.loc 9 313 27 view .LVU437
 1986 0040 26EE046B 		vmul.f64	d6, d6, d4
 312:../../libDaisy//src/hid/disp/display.h ****         end_angle_rad   = deg2rad(start_angle + sweep);
 1987              		.loc 9 312 27 view .LVU438
 1988 0044 87EE050B 		vdiv.f64	d0, d7, d5
 313:../../libDaisy//src/hid/disp/display.h **** 
 1989              		.loc 9 313 27 view .LVU439
 1990 0048 86EE05AB 		vdiv.f64	d10, d6, d5
 312:../../libDaisy//src/hid/disp/display.h ****         end_angle_rad   = deg2rad(start_angle + sweep);
 1991              		.loc 9 312 25 view .LVU440
 1992 004c F7EEC08B 		vcvt.f32.f64	s17, d0
 1993              	.LVL137:
 1994              	.LBB719:
 1995              	.LBB720:
 1996              		.file 17 "/opt/homebrew/Cellar/arm-none-eabi-gcc/10.3-2021.07/gcc/arm-none-eabi/include/c++/10.3.1
   1:/opt/homebrew/Cellar/arm-none-eabi-gcc/10.3-2021.07/gcc/arm-none-eabi/include/c++/10.3.1/cmath **** // -*- C++ -*- C forwarding header.
   2:/opt/homebrew/Cellar/arm-none-eabi-gcc/10.3-2021.07/gcc/arm-none-eabi/include/c++/10.3.1/cmath **** 
   3:/opt/homebrew/Cellar/arm-none-eabi-gcc/10.3-2021.07/gcc/arm-none-eabi/include/c++/10.3.1/cmath **** // Copyright (C) 1997-2020 Free Software Foundation, Inc.
   4:/opt/homebrew/Cellar/arm-none-eabi-gcc/10.3-2021.07/gcc/arm-none-eabi/include/c++/10.3.1/cmath **** //
   5:/opt/homebrew/Cellar/arm-none-eabi-gcc/10.3-2021.07/gcc/arm-none-eabi/include/c++/10.3.1/cmath **** // This file is part of the GNU ISO C++ Library.  This library is free
   6:/opt/homebrew/Cellar/arm-none-eabi-gcc/10.3-2021.07/gcc/arm-none-eabi/include/c++/10.3.1/cmath **** // software; you can redistribute it and/or modify it under the
   7:/opt/homebrew/Cellar/arm-none-eabi-gcc/10.3-2021.07/gcc/arm-none-eabi/include/c++/10.3.1/cmath **** // terms of the GNU General Public License as published by the
   8:/opt/homebrew/Cellar/arm-none-eabi-gcc/10.3-2021.07/gcc/arm-none-eabi/include/c++/10.3.1/cmath **** // Free Software Foundation; either version 3, or (at your option)
   9:/opt/homebrew/Cellar/arm-none-eabi-gcc/10.3-2021.07/gcc/arm-none-eabi/include/c++/10.3.1/cmath **** // any later version.
  10:/opt/homebrew/Cellar/arm-none-eabi-gcc/10.3-2021.07/gcc/arm-none-eabi/include/c++/10.3.1/cmath **** 
  11:/opt/homebrew/Cellar/arm-none-eabi-gcc/10.3-2021.07/gcc/arm-none-eabi/include/c++/10.3.1/cmath **** // This library is distributed in the hope that it will be useful,
  12:/opt/homebrew/Cellar/arm-none-eabi-gcc/10.3-2021.07/gcc/arm-none-eabi/include/c++/10.3.1/cmath **** // but WITHOUT ANY WARRANTY; without even the implied warranty of
  13:/opt/homebrew/Cellar/arm-none-eabi-gcc/10.3-2021.07/gcc/arm-none-eabi/include/c++/10.3.1/cmath **** // MERCHANTABILITY or FITNESS FOR A PARTICULAR PURPOSE.  See the
  14:/opt/homebrew/Cellar/arm-none-eabi-gcc/10.3-2021.07/gcc/arm-none-eabi/include/c++/10.3.1/cmath **** // GNU General Public License for more details.
  15:/opt/homebrew/Cellar/arm-none-eabi-gcc/10.3-2021.07/gcc/arm-none-eabi/include/c++/10.3.1/cmath **** 
  16:/opt/homebrew/Cellar/arm-none-eabi-gcc/10.3-2021.07/gcc/arm-none-eabi/include/c++/10.3.1/cmath **** // Under Section 7 of GPL version 3, you are granted additional
  17:/opt/homebrew/Cellar/arm-none-eabi-gcc/10.3-2021.07/gcc/arm-none-eabi/include/c++/10.3.1/cmath **** // permissions described in the GCC Runtime Library Exception, version
  18:/opt/homebrew/Cellar/arm-none-eabi-gcc/10.3-2021.07/gcc/arm-none-eabi/include/c++/10.3.1/cmath **** // 3.1, as published by the Free Software Foundation.
  19:/opt/homebrew/Cellar/arm-none-eabi-gcc/10.3-2021.07/gcc/arm-none-eabi/include/c++/10.3.1/cmath **** 
  20:/opt/homebrew/Cellar/arm-none-eabi-gcc/10.3-2021.07/gcc/arm-none-eabi/include/c++/10.3.1/cmath **** // You should have received a copy of the GNU General Public License and
  21:/opt/homebrew/Cellar/arm-none-eabi-gcc/10.3-2021.07/gcc/arm-none-eabi/include/c++/10.3.1/cmath **** // a copy of the GCC Runtime Library Exception along with this program;
  22:/opt/homebrew/Cellar/arm-none-eabi-gcc/10.3-2021.07/gcc/arm-none-eabi/include/c++/10.3.1/cmath **** // see the files COPYING3 and COPYING.RUNTIME respectively.  If not, see
  23:/opt/homebrew/Cellar/arm-none-eabi-gcc/10.3-2021.07/gcc/arm-none-eabi/include/c++/10.3.1/cmath **** // <http://www.gnu.org/licenses/>.
  24:/opt/homebrew/Cellar/arm-none-eabi-gcc/10.3-2021.07/gcc/arm-none-eabi/include/c++/10.3.1/cmath **** 
  25:/opt/homebrew/Cellar/arm-none-eabi-gcc/10.3-2021.07/gcc/arm-none-eabi/include/c++/10.3.1/cmath **** /** @file include/cmath
  26:/opt/homebrew/Cellar/arm-none-eabi-gcc/10.3-2021.07/gcc/arm-none-eabi/include/c++/10.3.1/cmath ****  *  This is a Standard C++ Library file.  You should @c \#include this file
  27:/opt/homebrew/Cellar/arm-none-eabi-gcc/10.3-2021.07/gcc/arm-none-eabi/include/c++/10.3.1/cmath ****  *  in your programs, rather than any of the @a *.h implementation files.
  28:/opt/homebrew/Cellar/arm-none-eabi-gcc/10.3-2021.07/gcc/arm-none-eabi/include/c++/10.3.1/cmath ****  *
  29:/opt/homebrew/Cellar/arm-none-eabi-gcc/10.3-2021.07/gcc/arm-none-eabi/include/c++/10.3.1/cmath ****  *  This is the C++ version of the Standard C Library header @c math.h,
  30:/opt/homebrew/Cellar/arm-none-eabi-gcc/10.3-2021.07/gcc/arm-none-eabi/include/c++/10.3.1/cmath ****  *  and its contents are (mostly) the same as that header, but are all
  31:/opt/homebrew/Cellar/arm-none-eabi-gcc/10.3-2021.07/gcc/arm-none-eabi/include/c++/10.3.1/cmath ****  *  contained in the namespace @c std (except for names which are defined
  32:/opt/homebrew/Cellar/arm-none-eabi-gcc/10.3-2021.07/gcc/arm-none-eabi/include/c++/10.3.1/cmath ****  *  as macros in C).
  33:/opt/homebrew/Cellar/arm-none-eabi-gcc/10.3-2021.07/gcc/arm-none-eabi/include/c++/10.3.1/cmath ****  */
  34:/opt/homebrew/Cellar/arm-none-eabi-gcc/10.3-2021.07/gcc/arm-none-eabi/include/c++/10.3.1/cmath **** 
  35:/opt/homebrew/Cellar/arm-none-eabi-gcc/10.3-2021.07/gcc/arm-none-eabi/include/c++/10.3.1/cmath **** //
  36:/opt/homebrew/Cellar/arm-none-eabi-gcc/10.3-2021.07/gcc/arm-none-eabi/include/c++/10.3.1/cmath **** // ISO C++ 14882: 26.5  C library
  37:/opt/homebrew/Cellar/arm-none-eabi-gcc/10.3-2021.07/gcc/arm-none-eabi/include/c++/10.3.1/cmath **** //
  38:/opt/homebrew/Cellar/arm-none-eabi-gcc/10.3-2021.07/gcc/arm-none-eabi/include/c++/10.3.1/cmath **** 
  39:/opt/homebrew/Cellar/arm-none-eabi-gcc/10.3-2021.07/gcc/arm-none-eabi/include/c++/10.3.1/cmath **** #pragma GCC system_header
ARM GAS  /var/folders/hl/qgbwny5j0fd895c2c41bk3tw0000gp/T//ccRMOALe.s 			page 70


  40:/opt/homebrew/Cellar/arm-none-eabi-gcc/10.3-2021.07/gcc/arm-none-eabi/include/c++/10.3.1/cmath **** 
  41:/opt/homebrew/Cellar/arm-none-eabi-gcc/10.3-2021.07/gcc/arm-none-eabi/include/c++/10.3.1/cmath **** #include <bits/c++config.h>
  42:/opt/homebrew/Cellar/arm-none-eabi-gcc/10.3-2021.07/gcc/arm-none-eabi/include/c++/10.3.1/cmath **** #include <bits/cpp_type_traits.h>
  43:/opt/homebrew/Cellar/arm-none-eabi-gcc/10.3-2021.07/gcc/arm-none-eabi/include/c++/10.3.1/cmath **** #include <ext/type_traits.h>
  44:/opt/homebrew/Cellar/arm-none-eabi-gcc/10.3-2021.07/gcc/arm-none-eabi/include/c++/10.3.1/cmath **** #define _GLIBCXX_INCLUDE_NEXT_C_HEADERS
  45:/opt/homebrew/Cellar/arm-none-eabi-gcc/10.3-2021.07/gcc/arm-none-eabi/include/c++/10.3.1/cmath **** #include_next <math.h>
  46:/opt/homebrew/Cellar/arm-none-eabi-gcc/10.3-2021.07/gcc/arm-none-eabi/include/c++/10.3.1/cmath **** #undef _GLIBCXX_INCLUDE_NEXT_C_HEADERS
  47:/opt/homebrew/Cellar/arm-none-eabi-gcc/10.3-2021.07/gcc/arm-none-eabi/include/c++/10.3.1/cmath **** #include <bits/std_abs.h>
  48:/opt/homebrew/Cellar/arm-none-eabi-gcc/10.3-2021.07/gcc/arm-none-eabi/include/c++/10.3.1/cmath **** 
  49:/opt/homebrew/Cellar/arm-none-eabi-gcc/10.3-2021.07/gcc/arm-none-eabi/include/c++/10.3.1/cmath **** #ifndef _GLIBCXX_CMATH
  50:/opt/homebrew/Cellar/arm-none-eabi-gcc/10.3-2021.07/gcc/arm-none-eabi/include/c++/10.3.1/cmath **** #define _GLIBCXX_CMATH 1
  51:/opt/homebrew/Cellar/arm-none-eabi-gcc/10.3-2021.07/gcc/arm-none-eabi/include/c++/10.3.1/cmath **** 
  52:/opt/homebrew/Cellar/arm-none-eabi-gcc/10.3-2021.07/gcc/arm-none-eabi/include/c++/10.3.1/cmath **** // Get rid of those macros defined in <math.h> in lieu of real functions.
  53:/opt/homebrew/Cellar/arm-none-eabi-gcc/10.3-2021.07/gcc/arm-none-eabi/include/c++/10.3.1/cmath **** #undef div
  54:/opt/homebrew/Cellar/arm-none-eabi-gcc/10.3-2021.07/gcc/arm-none-eabi/include/c++/10.3.1/cmath **** #undef acos
  55:/opt/homebrew/Cellar/arm-none-eabi-gcc/10.3-2021.07/gcc/arm-none-eabi/include/c++/10.3.1/cmath **** #undef asin
  56:/opt/homebrew/Cellar/arm-none-eabi-gcc/10.3-2021.07/gcc/arm-none-eabi/include/c++/10.3.1/cmath **** #undef atan
  57:/opt/homebrew/Cellar/arm-none-eabi-gcc/10.3-2021.07/gcc/arm-none-eabi/include/c++/10.3.1/cmath **** #undef atan2
  58:/opt/homebrew/Cellar/arm-none-eabi-gcc/10.3-2021.07/gcc/arm-none-eabi/include/c++/10.3.1/cmath **** #undef ceil
  59:/opt/homebrew/Cellar/arm-none-eabi-gcc/10.3-2021.07/gcc/arm-none-eabi/include/c++/10.3.1/cmath **** #undef cos
  60:/opt/homebrew/Cellar/arm-none-eabi-gcc/10.3-2021.07/gcc/arm-none-eabi/include/c++/10.3.1/cmath **** #undef cosh
  61:/opt/homebrew/Cellar/arm-none-eabi-gcc/10.3-2021.07/gcc/arm-none-eabi/include/c++/10.3.1/cmath **** #undef exp
  62:/opt/homebrew/Cellar/arm-none-eabi-gcc/10.3-2021.07/gcc/arm-none-eabi/include/c++/10.3.1/cmath **** #undef fabs
  63:/opt/homebrew/Cellar/arm-none-eabi-gcc/10.3-2021.07/gcc/arm-none-eabi/include/c++/10.3.1/cmath **** #undef floor
  64:/opt/homebrew/Cellar/arm-none-eabi-gcc/10.3-2021.07/gcc/arm-none-eabi/include/c++/10.3.1/cmath **** #undef fmod
  65:/opt/homebrew/Cellar/arm-none-eabi-gcc/10.3-2021.07/gcc/arm-none-eabi/include/c++/10.3.1/cmath **** #undef frexp
  66:/opt/homebrew/Cellar/arm-none-eabi-gcc/10.3-2021.07/gcc/arm-none-eabi/include/c++/10.3.1/cmath **** #undef ldexp
  67:/opt/homebrew/Cellar/arm-none-eabi-gcc/10.3-2021.07/gcc/arm-none-eabi/include/c++/10.3.1/cmath **** #undef log
  68:/opt/homebrew/Cellar/arm-none-eabi-gcc/10.3-2021.07/gcc/arm-none-eabi/include/c++/10.3.1/cmath **** #undef log10
  69:/opt/homebrew/Cellar/arm-none-eabi-gcc/10.3-2021.07/gcc/arm-none-eabi/include/c++/10.3.1/cmath **** #undef modf
  70:/opt/homebrew/Cellar/arm-none-eabi-gcc/10.3-2021.07/gcc/arm-none-eabi/include/c++/10.3.1/cmath **** #undef pow
  71:/opt/homebrew/Cellar/arm-none-eabi-gcc/10.3-2021.07/gcc/arm-none-eabi/include/c++/10.3.1/cmath **** #undef sin
  72:/opt/homebrew/Cellar/arm-none-eabi-gcc/10.3-2021.07/gcc/arm-none-eabi/include/c++/10.3.1/cmath **** #undef sinh
  73:/opt/homebrew/Cellar/arm-none-eabi-gcc/10.3-2021.07/gcc/arm-none-eabi/include/c++/10.3.1/cmath **** #undef sqrt
  74:/opt/homebrew/Cellar/arm-none-eabi-gcc/10.3-2021.07/gcc/arm-none-eabi/include/c++/10.3.1/cmath **** #undef tan
  75:/opt/homebrew/Cellar/arm-none-eabi-gcc/10.3-2021.07/gcc/arm-none-eabi/include/c++/10.3.1/cmath **** #undef tanh
  76:/opt/homebrew/Cellar/arm-none-eabi-gcc/10.3-2021.07/gcc/arm-none-eabi/include/c++/10.3.1/cmath **** 
  77:/opt/homebrew/Cellar/arm-none-eabi-gcc/10.3-2021.07/gcc/arm-none-eabi/include/c++/10.3.1/cmath **** extern "C++"
  78:/opt/homebrew/Cellar/arm-none-eabi-gcc/10.3-2021.07/gcc/arm-none-eabi/include/c++/10.3.1/cmath **** {
  79:/opt/homebrew/Cellar/arm-none-eabi-gcc/10.3-2021.07/gcc/arm-none-eabi/include/c++/10.3.1/cmath **** namespace std _GLIBCXX_VISIBILITY(default)
  80:/opt/homebrew/Cellar/arm-none-eabi-gcc/10.3-2021.07/gcc/arm-none-eabi/include/c++/10.3.1/cmath **** {
  81:/opt/homebrew/Cellar/arm-none-eabi-gcc/10.3-2021.07/gcc/arm-none-eabi/include/c++/10.3.1/cmath **** _GLIBCXX_BEGIN_NAMESPACE_VERSION
  82:/opt/homebrew/Cellar/arm-none-eabi-gcc/10.3-2021.07/gcc/arm-none-eabi/include/c++/10.3.1/cmath **** 
  83:/opt/homebrew/Cellar/arm-none-eabi-gcc/10.3-2021.07/gcc/arm-none-eabi/include/c++/10.3.1/cmath ****   using ::acos;
  84:/opt/homebrew/Cellar/arm-none-eabi-gcc/10.3-2021.07/gcc/arm-none-eabi/include/c++/10.3.1/cmath **** 
  85:/opt/homebrew/Cellar/arm-none-eabi-gcc/10.3-2021.07/gcc/arm-none-eabi/include/c++/10.3.1/cmath **** #ifndef __CORRECT_ISO_CPP_MATH_H_PROTO
  86:/opt/homebrew/Cellar/arm-none-eabi-gcc/10.3-2021.07/gcc/arm-none-eabi/include/c++/10.3.1/cmath ****   inline _GLIBCXX_CONSTEXPR float
  87:/opt/homebrew/Cellar/arm-none-eabi-gcc/10.3-2021.07/gcc/arm-none-eabi/include/c++/10.3.1/cmath ****   acos(float __x)
  88:/opt/homebrew/Cellar/arm-none-eabi-gcc/10.3-2021.07/gcc/arm-none-eabi/include/c++/10.3.1/cmath ****   { return __builtin_acosf(__x); }
  89:/opt/homebrew/Cellar/arm-none-eabi-gcc/10.3-2021.07/gcc/arm-none-eabi/include/c++/10.3.1/cmath **** 
  90:/opt/homebrew/Cellar/arm-none-eabi-gcc/10.3-2021.07/gcc/arm-none-eabi/include/c++/10.3.1/cmath ****   inline _GLIBCXX_CONSTEXPR long double
  91:/opt/homebrew/Cellar/arm-none-eabi-gcc/10.3-2021.07/gcc/arm-none-eabi/include/c++/10.3.1/cmath ****   acos(long double __x)
  92:/opt/homebrew/Cellar/arm-none-eabi-gcc/10.3-2021.07/gcc/arm-none-eabi/include/c++/10.3.1/cmath ****   { return __builtin_acosl(__x); }
  93:/opt/homebrew/Cellar/arm-none-eabi-gcc/10.3-2021.07/gcc/arm-none-eabi/include/c++/10.3.1/cmath **** #endif
  94:/opt/homebrew/Cellar/arm-none-eabi-gcc/10.3-2021.07/gcc/arm-none-eabi/include/c++/10.3.1/cmath **** 
  95:/opt/homebrew/Cellar/arm-none-eabi-gcc/10.3-2021.07/gcc/arm-none-eabi/include/c++/10.3.1/cmath ****   template<typename _Tp>
  96:/opt/homebrew/Cellar/arm-none-eabi-gcc/10.3-2021.07/gcc/arm-none-eabi/include/c++/10.3.1/cmath ****     inline _GLIBCXX_CONSTEXPR
ARM GAS  /var/folders/hl/qgbwny5j0fd895c2c41bk3tw0000gp/T//ccRMOALe.s 			page 71


  97:/opt/homebrew/Cellar/arm-none-eabi-gcc/10.3-2021.07/gcc/arm-none-eabi/include/c++/10.3.1/cmath ****     typename __gnu_cxx::__enable_if<__is_integer<_Tp>::__value, 
  98:/opt/homebrew/Cellar/arm-none-eabi-gcc/10.3-2021.07/gcc/arm-none-eabi/include/c++/10.3.1/cmath ****                                     double>::__type
  99:/opt/homebrew/Cellar/arm-none-eabi-gcc/10.3-2021.07/gcc/arm-none-eabi/include/c++/10.3.1/cmath ****     acos(_Tp __x)
 100:/opt/homebrew/Cellar/arm-none-eabi-gcc/10.3-2021.07/gcc/arm-none-eabi/include/c++/10.3.1/cmath ****     { return __builtin_acos(__x); }
 101:/opt/homebrew/Cellar/arm-none-eabi-gcc/10.3-2021.07/gcc/arm-none-eabi/include/c++/10.3.1/cmath **** 
 102:/opt/homebrew/Cellar/arm-none-eabi-gcc/10.3-2021.07/gcc/arm-none-eabi/include/c++/10.3.1/cmath ****   using ::asin;
 103:/opt/homebrew/Cellar/arm-none-eabi-gcc/10.3-2021.07/gcc/arm-none-eabi/include/c++/10.3.1/cmath **** 
 104:/opt/homebrew/Cellar/arm-none-eabi-gcc/10.3-2021.07/gcc/arm-none-eabi/include/c++/10.3.1/cmath **** #ifndef __CORRECT_ISO_CPP_MATH_H_PROTO
 105:/opt/homebrew/Cellar/arm-none-eabi-gcc/10.3-2021.07/gcc/arm-none-eabi/include/c++/10.3.1/cmath ****   inline _GLIBCXX_CONSTEXPR float
 106:/opt/homebrew/Cellar/arm-none-eabi-gcc/10.3-2021.07/gcc/arm-none-eabi/include/c++/10.3.1/cmath ****   asin(float __x)
 107:/opt/homebrew/Cellar/arm-none-eabi-gcc/10.3-2021.07/gcc/arm-none-eabi/include/c++/10.3.1/cmath ****   { return __builtin_asinf(__x); }
 108:/opt/homebrew/Cellar/arm-none-eabi-gcc/10.3-2021.07/gcc/arm-none-eabi/include/c++/10.3.1/cmath **** 
 109:/opt/homebrew/Cellar/arm-none-eabi-gcc/10.3-2021.07/gcc/arm-none-eabi/include/c++/10.3.1/cmath ****   inline _GLIBCXX_CONSTEXPR long double
 110:/opt/homebrew/Cellar/arm-none-eabi-gcc/10.3-2021.07/gcc/arm-none-eabi/include/c++/10.3.1/cmath ****   asin(long double __x)
 111:/opt/homebrew/Cellar/arm-none-eabi-gcc/10.3-2021.07/gcc/arm-none-eabi/include/c++/10.3.1/cmath ****   { return __builtin_asinl(__x); }
 112:/opt/homebrew/Cellar/arm-none-eabi-gcc/10.3-2021.07/gcc/arm-none-eabi/include/c++/10.3.1/cmath **** #endif
 113:/opt/homebrew/Cellar/arm-none-eabi-gcc/10.3-2021.07/gcc/arm-none-eabi/include/c++/10.3.1/cmath **** 
 114:/opt/homebrew/Cellar/arm-none-eabi-gcc/10.3-2021.07/gcc/arm-none-eabi/include/c++/10.3.1/cmath ****   template<typename _Tp>
 115:/opt/homebrew/Cellar/arm-none-eabi-gcc/10.3-2021.07/gcc/arm-none-eabi/include/c++/10.3.1/cmath ****     inline _GLIBCXX_CONSTEXPR
 116:/opt/homebrew/Cellar/arm-none-eabi-gcc/10.3-2021.07/gcc/arm-none-eabi/include/c++/10.3.1/cmath ****     typename __gnu_cxx::__enable_if<__is_integer<_Tp>::__value,
 117:/opt/homebrew/Cellar/arm-none-eabi-gcc/10.3-2021.07/gcc/arm-none-eabi/include/c++/10.3.1/cmath ****                                     double>::__type
 118:/opt/homebrew/Cellar/arm-none-eabi-gcc/10.3-2021.07/gcc/arm-none-eabi/include/c++/10.3.1/cmath ****     asin(_Tp __x)
 119:/opt/homebrew/Cellar/arm-none-eabi-gcc/10.3-2021.07/gcc/arm-none-eabi/include/c++/10.3.1/cmath ****     { return __builtin_asin(__x); }
 120:/opt/homebrew/Cellar/arm-none-eabi-gcc/10.3-2021.07/gcc/arm-none-eabi/include/c++/10.3.1/cmath **** 
 121:/opt/homebrew/Cellar/arm-none-eabi-gcc/10.3-2021.07/gcc/arm-none-eabi/include/c++/10.3.1/cmath ****   using ::atan;
 122:/opt/homebrew/Cellar/arm-none-eabi-gcc/10.3-2021.07/gcc/arm-none-eabi/include/c++/10.3.1/cmath **** 
 123:/opt/homebrew/Cellar/arm-none-eabi-gcc/10.3-2021.07/gcc/arm-none-eabi/include/c++/10.3.1/cmath **** #ifndef __CORRECT_ISO_CPP_MATH_H_PROTO
 124:/opt/homebrew/Cellar/arm-none-eabi-gcc/10.3-2021.07/gcc/arm-none-eabi/include/c++/10.3.1/cmath ****   inline _GLIBCXX_CONSTEXPR float
 125:/opt/homebrew/Cellar/arm-none-eabi-gcc/10.3-2021.07/gcc/arm-none-eabi/include/c++/10.3.1/cmath ****   atan(float __x)
 126:/opt/homebrew/Cellar/arm-none-eabi-gcc/10.3-2021.07/gcc/arm-none-eabi/include/c++/10.3.1/cmath ****   { return __builtin_atanf(__x); }
 127:/opt/homebrew/Cellar/arm-none-eabi-gcc/10.3-2021.07/gcc/arm-none-eabi/include/c++/10.3.1/cmath **** 
 128:/opt/homebrew/Cellar/arm-none-eabi-gcc/10.3-2021.07/gcc/arm-none-eabi/include/c++/10.3.1/cmath ****   inline _GLIBCXX_CONSTEXPR long double
 129:/opt/homebrew/Cellar/arm-none-eabi-gcc/10.3-2021.07/gcc/arm-none-eabi/include/c++/10.3.1/cmath ****   atan(long double __x)
 130:/opt/homebrew/Cellar/arm-none-eabi-gcc/10.3-2021.07/gcc/arm-none-eabi/include/c++/10.3.1/cmath ****   { return __builtin_atanl(__x); }
 131:/opt/homebrew/Cellar/arm-none-eabi-gcc/10.3-2021.07/gcc/arm-none-eabi/include/c++/10.3.1/cmath **** #endif
 132:/opt/homebrew/Cellar/arm-none-eabi-gcc/10.3-2021.07/gcc/arm-none-eabi/include/c++/10.3.1/cmath **** 
 133:/opt/homebrew/Cellar/arm-none-eabi-gcc/10.3-2021.07/gcc/arm-none-eabi/include/c++/10.3.1/cmath ****   template<typename _Tp>
 134:/opt/homebrew/Cellar/arm-none-eabi-gcc/10.3-2021.07/gcc/arm-none-eabi/include/c++/10.3.1/cmath ****     inline _GLIBCXX_CONSTEXPR
 135:/opt/homebrew/Cellar/arm-none-eabi-gcc/10.3-2021.07/gcc/arm-none-eabi/include/c++/10.3.1/cmath ****     typename __gnu_cxx::__enable_if<__is_integer<_Tp>::__value,
 136:/opt/homebrew/Cellar/arm-none-eabi-gcc/10.3-2021.07/gcc/arm-none-eabi/include/c++/10.3.1/cmath ****                                     double>::__type
 137:/opt/homebrew/Cellar/arm-none-eabi-gcc/10.3-2021.07/gcc/arm-none-eabi/include/c++/10.3.1/cmath ****     atan(_Tp __x)
 138:/opt/homebrew/Cellar/arm-none-eabi-gcc/10.3-2021.07/gcc/arm-none-eabi/include/c++/10.3.1/cmath ****     { return __builtin_atan(__x); }
 139:/opt/homebrew/Cellar/arm-none-eabi-gcc/10.3-2021.07/gcc/arm-none-eabi/include/c++/10.3.1/cmath **** 
 140:/opt/homebrew/Cellar/arm-none-eabi-gcc/10.3-2021.07/gcc/arm-none-eabi/include/c++/10.3.1/cmath ****   using ::atan2;
 141:/opt/homebrew/Cellar/arm-none-eabi-gcc/10.3-2021.07/gcc/arm-none-eabi/include/c++/10.3.1/cmath **** 
 142:/opt/homebrew/Cellar/arm-none-eabi-gcc/10.3-2021.07/gcc/arm-none-eabi/include/c++/10.3.1/cmath **** #ifndef __CORRECT_ISO_CPP_MATH_H_PROTO
 143:/opt/homebrew/Cellar/arm-none-eabi-gcc/10.3-2021.07/gcc/arm-none-eabi/include/c++/10.3.1/cmath ****   inline _GLIBCXX_CONSTEXPR float
 144:/opt/homebrew/Cellar/arm-none-eabi-gcc/10.3-2021.07/gcc/arm-none-eabi/include/c++/10.3.1/cmath ****   atan2(float __y, float __x)
 145:/opt/homebrew/Cellar/arm-none-eabi-gcc/10.3-2021.07/gcc/arm-none-eabi/include/c++/10.3.1/cmath ****   { return __builtin_atan2f(__y, __x); }
 146:/opt/homebrew/Cellar/arm-none-eabi-gcc/10.3-2021.07/gcc/arm-none-eabi/include/c++/10.3.1/cmath **** 
 147:/opt/homebrew/Cellar/arm-none-eabi-gcc/10.3-2021.07/gcc/arm-none-eabi/include/c++/10.3.1/cmath ****   inline _GLIBCXX_CONSTEXPR long double
 148:/opt/homebrew/Cellar/arm-none-eabi-gcc/10.3-2021.07/gcc/arm-none-eabi/include/c++/10.3.1/cmath ****   atan2(long double __y, long double __x)
 149:/opt/homebrew/Cellar/arm-none-eabi-gcc/10.3-2021.07/gcc/arm-none-eabi/include/c++/10.3.1/cmath ****   { return __builtin_atan2l(__y, __x); }
 150:/opt/homebrew/Cellar/arm-none-eabi-gcc/10.3-2021.07/gcc/arm-none-eabi/include/c++/10.3.1/cmath **** #endif
 151:/opt/homebrew/Cellar/arm-none-eabi-gcc/10.3-2021.07/gcc/arm-none-eabi/include/c++/10.3.1/cmath **** 
 152:/opt/homebrew/Cellar/arm-none-eabi-gcc/10.3-2021.07/gcc/arm-none-eabi/include/c++/10.3.1/cmath ****   template<typename _Tp, typename _Up>
 153:/opt/homebrew/Cellar/arm-none-eabi-gcc/10.3-2021.07/gcc/arm-none-eabi/include/c++/10.3.1/cmath ****     inline _GLIBCXX_CONSTEXPR
ARM GAS  /var/folders/hl/qgbwny5j0fd895c2c41bk3tw0000gp/T//ccRMOALe.s 			page 72


 154:/opt/homebrew/Cellar/arm-none-eabi-gcc/10.3-2021.07/gcc/arm-none-eabi/include/c++/10.3.1/cmath ****     typename __gnu_cxx::__promote_2<_Tp, _Up>::__type
 155:/opt/homebrew/Cellar/arm-none-eabi-gcc/10.3-2021.07/gcc/arm-none-eabi/include/c++/10.3.1/cmath ****     atan2(_Tp __y, _Up __x)
 156:/opt/homebrew/Cellar/arm-none-eabi-gcc/10.3-2021.07/gcc/arm-none-eabi/include/c++/10.3.1/cmath ****     {
 157:/opt/homebrew/Cellar/arm-none-eabi-gcc/10.3-2021.07/gcc/arm-none-eabi/include/c++/10.3.1/cmath ****       typedef typename __gnu_cxx::__promote_2<_Tp, _Up>::__type __type;
 158:/opt/homebrew/Cellar/arm-none-eabi-gcc/10.3-2021.07/gcc/arm-none-eabi/include/c++/10.3.1/cmath ****       return atan2(__type(__y), __type(__x));
 159:/opt/homebrew/Cellar/arm-none-eabi-gcc/10.3-2021.07/gcc/arm-none-eabi/include/c++/10.3.1/cmath ****     }
 160:/opt/homebrew/Cellar/arm-none-eabi-gcc/10.3-2021.07/gcc/arm-none-eabi/include/c++/10.3.1/cmath **** 
 161:/opt/homebrew/Cellar/arm-none-eabi-gcc/10.3-2021.07/gcc/arm-none-eabi/include/c++/10.3.1/cmath ****   using ::ceil;
 162:/opt/homebrew/Cellar/arm-none-eabi-gcc/10.3-2021.07/gcc/arm-none-eabi/include/c++/10.3.1/cmath **** 
 163:/opt/homebrew/Cellar/arm-none-eabi-gcc/10.3-2021.07/gcc/arm-none-eabi/include/c++/10.3.1/cmath **** #ifndef __CORRECT_ISO_CPP_MATH_H_PROTO
 164:/opt/homebrew/Cellar/arm-none-eabi-gcc/10.3-2021.07/gcc/arm-none-eabi/include/c++/10.3.1/cmath ****   inline _GLIBCXX_CONSTEXPR float
 165:/opt/homebrew/Cellar/arm-none-eabi-gcc/10.3-2021.07/gcc/arm-none-eabi/include/c++/10.3.1/cmath ****   ceil(float __x)
 166:/opt/homebrew/Cellar/arm-none-eabi-gcc/10.3-2021.07/gcc/arm-none-eabi/include/c++/10.3.1/cmath ****   { return __builtin_ceilf(__x); }
 167:/opt/homebrew/Cellar/arm-none-eabi-gcc/10.3-2021.07/gcc/arm-none-eabi/include/c++/10.3.1/cmath **** 
 168:/opt/homebrew/Cellar/arm-none-eabi-gcc/10.3-2021.07/gcc/arm-none-eabi/include/c++/10.3.1/cmath ****   inline _GLIBCXX_CONSTEXPR long double
 169:/opt/homebrew/Cellar/arm-none-eabi-gcc/10.3-2021.07/gcc/arm-none-eabi/include/c++/10.3.1/cmath ****   ceil(long double __x)
 170:/opt/homebrew/Cellar/arm-none-eabi-gcc/10.3-2021.07/gcc/arm-none-eabi/include/c++/10.3.1/cmath ****   { return __builtin_ceill(__x); }
 171:/opt/homebrew/Cellar/arm-none-eabi-gcc/10.3-2021.07/gcc/arm-none-eabi/include/c++/10.3.1/cmath **** #endif
 172:/opt/homebrew/Cellar/arm-none-eabi-gcc/10.3-2021.07/gcc/arm-none-eabi/include/c++/10.3.1/cmath **** 
 173:/opt/homebrew/Cellar/arm-none-eabi-gcc/10.3-2021.07/gcc/arm-none-eabi/include/c++/10.3.1/cmath ****   template<typename _Tp>
 174:/opt/homebrew/Cellar/arm-none-eabi-gcc/10.3-2021.07/gcc/arm-none-eabi/include/c++/10.3.1/cmath ****     inline _GLIBCXX_CONSTEXPR
 175:/opt/homebrew/Cellar/arm-none-eabi-gcc/10.3-2021.07/gcc/arm-none-eabi/include/c++/10.3.1/cmath ****     typename __gnu_cxx::__enable_if<__is_integer<_Tp>::__value, 
 176:/opt/homebrew/Cellar/arm-none-eabi-gcc/10.3-2021.07/gcc/arm-none-eabi/include/c++/10.3.1/cmath ****                                     double>::__type
 177:/opt/homebrew/Cellar/arm-none-eabi-gcc/10.3-2021.07/gcc/arm-none-eabi/include/c++/10.3.1/cmath ****     ceil(_Tp __x)
 178:/opt/homebrew/Cellar/arm-none-eabi-gcc/10.3-2021.07/gcc/arm-none-eabi/include/c++/10.3.1/cmath ****     { return __builtin_ceil(__x); }
 179:/opt/homebrew/Cellar/arm-none-eabi-gcc/10.3-2021.07/gcc/arm-none-eabi/include/c++/10.3.1/cmath **** 
 180:/opt/homebrew/Cellar/arm-none-eabi-gcc/10.3-2021.07/gcc/arm-none-eabi/include/c++/10.3.1/cmath ****   using ::cos;
 181:/opt/homebrew/Cellar/arm-none-eabi-gcc/10.3-2021.07/gcc/arm-none-eabi/include/c++/10.3.1/cmath **** 
 182:/opt/homebrew/Cellar/arm-none-eabi-gcc/10.3-2021.07/gcc/arm-none-eabi/include/c++/10.3.1/cmath **** #ifndef __CORRECT_ISO_CPP_MATH_H_PROTO
