ARM GAS  /var/folders/hl/qgbwny5j0fd895c2c41bk3tw0000gp/T//ccRMOALe.s 			page 1


   1              		.cpu cortex-m7
   2              		.eabi_attribute 28, 1
   3              		.eabi_attribute 20, 1
   4              		.eabi_attribute 21, 1
   5              		.eabi_attribute 23, 3
   6              		.eabi_attribute 24, 1
   7              		.eabi_attribute 25, 1
   8              		.eabi_attribute 26, 1
   9              		.eabi_attribute 30, 2
  10              		.eabi_attribute 34, 1
  11              		.eabi_attribute 18, 4
  12              		.file	"PatchBay.cpp"
  13              		.text
  14              	.Ltext0:
  15              		.cfi_sections	.debug_frame
  16              		.section	.text._ZN5daisy8patch_sm12DaisyPatchSMD2Ev,"axG",%progbits,_ZN5daisy8patch_sm12DaisyPatch
  17              		.align	1
  18              		.p2align 2,,3
  19              		.weak	_ZN5daisy8patch_sm12DaisyPatchSMD2Ev
  20              		.arch armv7e-m
  21              		.syntax unified
  22              		.thumb
  23              		.thumb_func
  24              		.fpu fpv5-d16
  26              	_ZN5daisy8patch_sm12DaisyPatchSMD2Ev:
  27              	.LVL0:
  28              	.LFB2529:
  29              		.file 1 "../../libDaisy//src/daisy_patch_sm.h"
   1:../../libDaisy//src/daisy_patch_sm.h **** #pragma once
   2:../../libDaisy//src/daisy_patch_sm.h **** 
   3:../../libDaisy//src/daisy_patch_sm.h **** #include "daisy.h"
   4:../../libDaisy//src/daisy_patch_sm.h **** 
   5:../../libDaisy//src/daisy_patch_sm.h **** namespace daisy
   6:../../libDaisy//src/daisy_patch_sm.h **** {
   7:../../libDaisy//src/daisy_patch_sm.h **** namespace patch_sm
   8:../../libDaisy//src/daisy_patch_sm.h **** {
   9:../../libDaisy//src/daisy_patch_sm.h ****     /** Accessors for the Analog Controls. 
  10:../../libDaisy//src/daisy_patch_sm.h ****      *  These cover the 8x Bipolar CV inputs
  11:../../libDaisy//src/daisy_patch_sm.h ****      *  as well as the 4x 0-3V3 ADC inputs on
  12:../../libDaisy//src/daisy_patch_sm.h ****      *  the hardware 
  13:../../libDaisy//src/daisy_patch_sm.h ****      * 
  14:../../libDaisy//src/daisy_patch_sm.h ****      *  When reading a value with DaisyPatchSM::GetAdcValue()
  15:../../libDaisy//src/daisy_patch_sm.h ****      * 
  16:../../libDaisy//src/daisy_patch_sm.h ****      *  patch.GetAdcValue(patch_sm::CV_1);
  17:../../libDaisy//src/daisy_patch_sm.h ****      */
  18:../../libDaisy//src/daisy_patch_sm.h ****     enum
  19:../../libDaisy//src/daisy_patch_sm.h ****     {
  20:../../libDaisy//src/daisy_patch_sm.h ****         CV_1 = 0,
  21:../../libDaisy//src/daisy_patch_sm.h ****         CV_2,
  22:../../libDaisy//src/daisy_patch_sm.h ****         CV_3,
  23:../../libDaisy//src/daisy_patch_sm.h ****         CV_4,
  24:../../libDaisy//src/daisy_patch_sm.h ****         CV_5,
  25:../../libDaisy//src/daisy_patch_sm.h ****         CV_6,
  26:../../libDaisy//src/daisy_patch_sm.h ****         CV_7,
  27:../../libDaisy//src/daisy_patch_sm.h ****         CV_8,
  28:../../libDaisy//src/daisy_patch_sm.h ****         ADC_9,
  29:../../libDaisy//src/daisy_patch_sm.h ****         ADC_10,
ARM GAS  /var/folders/hl/qgbwny5j0fd895c2c41bk3tw0000gp/T//ccRMOALe.s 			page 2


  30:../../libDaisy//src/daisy_patch_sm.h ****         ADC_11,
  31:../../libDaisy//src/daisy_patch_sm.h ****         ADC_12,
  32:../../libDaisy//src/daisy_patch_sm.h ****         ADC_LAST,
  33:../../libDaisy//src/daisy_patch_sm.h ****     };
  34:../../libDaisy//src/daisy_patch_sm.h **** 
  35:../../libDaisy//src/daisy_patch_sm.h ****     /** Enum for addressing the CV Outputs via the WriteCvOut function. */
  36:../../libDaisy//src/daisy_patch_sm.h ****     enum
  37:../../libDaisy//src/daisy_patch_sm.h ****     {
  38:../../libDaisy//src/daisy_patch_sm.h ****         CV_OUT_BOTH = 0,
  39:../../libDaisy//src/daisy_patch_sm.h ****         CV_OUT_1,
  40:../../libDaisy//src/daisy_patch_sm.h ****         CV_OUT_2,
  41:../../libDaisy//src/daisy_patch_sm.h ****     };
  42:../../libDaisy//src/daisy_patch_sm.h **** 
  43:../../libDaisy//src/daisy_patch_sm.h **** 
  44:../../libDaisy//src/daisy_patch_sm.h ****     /** @brief Board support file for DaisyPatchSM hardware
  45:../../libDaisy//src/daisy_patch_sm.h ****      *  @author shensley
  46:../../libDaisy//src/daisy_patch_sm.h ****      *  @ingroup boards
  47:../../libDaisy//src/daisy_patch_sm.h ****      * 
  48:../../libDaisy//src/daisy_patch_sm.h ****      *  Daisy Patch SM is a complete Eurorack module DSP engine.
  49:../../libDaisy//src/daisy_patch_sm.h ****      *  Based on the Daisy Seed, with circuits added for 
  50:../../libDaisy//src/daisy_patch_sm.h ****      *  interfacing directly with eurorack modular synthesizers.
  51:../../libDaisy//src/daisy_patch_sm.h ****      */
  52:../../libDaisy//src/daisy_patch_sm.h ****     class DaisyPatchSM
  53:../../libDaisy//src/daisy_patch_sm.h ****     {
  54:../../libDaisy//src/daisy_patch_sm.h ****       public:
  55:../../libDaisy//src/daisy_patch_sm.h ****         /** Helper for mapping pins, and accessing them using the `GetPin` function */
  56:../../libDaisy//src/daisy_patch_sm.h ****         enum class PinBank
  57:../../libDaisy//src/daisy_patch_sm.h ****         {
  58:../../libDaisy//src/daisy_patch_sm.h ****             A,
  59:../../libDaisy//src/daisy_patch_sm.h ****             B,
  60:../../libDaisy//src/daisy_patch_sm.h ****             C,
  61:../../libDaisy//src/daisy_patch_sm.h ****             D
  62:../../libDaisy//src/daisy_patch_sm.h ****         };
  63:../../libDaisy//src/daisy_patch_sm.h **** 
  64:../../libDaisy//src/daisy_patch_sm.h ****         DaisyPatchSM() {}
  65:../../libDaisy//src/daisy_patch_sm.h ****         ~DaisyPatchSM() {}
  30              		.loc 1 65 9 view -0
  31              		.cfi_startproc
  32              		@ args = 0, pretend = 0, frame = 0
  33              		@ frame_needed = 0, uses_anonymous_args = 0
  34              		@ link register save eliminated.
  35              	.LBB427:
  36              	.LBI427:
  37              		.file 2 "../../libDaisy//src/hid/gatein.h"
   1:../../libDaisy//src/hid/gatein.h **** #pragma once
   2:../../libDaisy//src/hid/gatein.h **** #ifndef DSY_GATEIN_H
   3:../../libDaisy//src/hid/gatein.h **** #define DSY_GATEIN_H
   4:../../libDaisy//src/hid/gatein.h **** #include "per/gpio.h"
   5:../../libDaisy//src/hid/gatein.h **** 
   6:../../libDaisy//src/hid/gatein.h **** namespace daisy
   7:../../libDaisy//src/hid/gatein.h **** {
   8:../../libDaisy//src/hid/gatein.h **** /**
   9:../../libDaisy//src/hid/gatein.h ****    @brief Generic Class for handling gate inputs through GPIO.
  10:../../libDaisy//src/hid/gatein.h ****    @author Stephen Hensley
  11:../../libDaisy//src/hid/gatein.h ****    @date    March 2020
  12:../../libDaisy//src/hid/gatein.h ****    @ingroup controls
  13:../../libDaisy//src/hid/gatein.h **** */
ARM GAS  /var/folders/hl/qgbwny5j0fd895c2c41bk3tw0000gp/T//ccRMOALe.s 			page 3


  14:../../libDaisy//src/hid/gatein.h **** class GateIn
  15:../../libDaisy//src/hid/gatein.h **** {
  16:../../libDaisy//src/hid/gatein.h ****   public:
  17:../../libDaisy//src/hid/gatein.h ****     /** GateIn 
  18:../../libDaisy//src/hid/gatein.h ****     Constructor 
  19:../../libDaisy//src/hid/gatein.h ****     */
  20:../../libDaisy//src/hid/gatein.h ****     GateIn() {}
  21:../../libDaisy//src/hid/gatein.h ****     /** GateIn~
  22:../../libDaisy//src/hid/gatein.h ****     Destructor 
  23:../../libDaisy//src/hid/gatein.h ****     */
  24:../../libDaisy//src/hid/gatein.h ****     ~GateIn() {}
  38              		.loc 2 24 5 view .LVU1
  39              		.loc 2 24 5 is_stmt 0 view .LVU2
  40              	.LBE427:
  41              	.LBB428:
  42              	.LBI428:
  43              		.loc 2 24 5 is_stmt 1 view .LVU3
  44              		.loc 2 24 5 is_stmt 0 view .LVU4
  45              	.LBE428:
  46              	.LBB429:
  47              	.LBI429:
  48              		.file 3 "../../libDaisy//src/dev/codec_pcm3060.h"
   1:../../libDaisy//src/dev/codec_pcm3060.h **** #pragma once
   2:../../libDaisy//src/dev/codec_pcm3060.h **** #ifndef DSY_CODEC_PCM3060_H
   3:../../libDaisy//src/dev/codec_pcm3060.h **** #define DSY_CODEC_PCM3060_H
   4:../../libDaisy//src/dev/codec_pcm3060.h **** #include "per/i2c.h"
   5:../../libDaisy//src/dev/codec_pcm3060.h **** namespace daisy
   6:../../libDaisy//src/dev/codec_pcm3060.h **** {
   7:../../libDaisy//src/dev/codec_pcm3060.h **** /**
   8:../../libDaisy//src/dev/codec_pcm3060.h ****  * @brief Driver for the TI PCM3060 Audio Codec.
   9:../../libDaisy//src/dev/codec_pcm3060.h ****  * @addtogroup codec
  10:../../libDaisy//src/dev/codec_pcm3060.h ****  * 
  11:../../libDaisy//src/dev/codec_pcm3060.h ****  * For now this is a limited interface that uses I2C to communicate with the PCM3060
  12:../../libDaisy//src/dev/codec_pcm3060.h ****  * The device can also be accessed with SPI, which is not yet supported.
  13:../../libDaisy//src/dev/codec_pcm3060.h ****  * 
  14:../../libDaisy//src/dev/codec_pcm3060.h ****  * For now all registers are set to their defaults, and the Init function will 
  15:../../libDaisy//src/dev/codec_pcm3060.h ****  * perform a MRST and SRST before setting the format to 24bit LJ, and disabling 
  16:../../libDaisy//src/dev/codec_pcm3060.h ****  * power save for both the ADC and DAC.
  17:../../libDaisy//src/dev/codec_pcm3060.h ****  *
  18:../../libDaisy//src/dev/codec_pcm3060.h ****  */
  19:../../libDaisy//src/dev/codec_pcm3060.h **** class Pcm3060
  20:../../libDaisy//src/dev/codec_pcm3060.h **** {
  21:../../libDaisy//src/dev/codec_pcm3060.h ****   public:
  22:../../libDaisy//src/dev/codec_pcm3060.h ****     enum class Result
  23:../../libDaisy//src/dev/codec_pcm3060.h ****     {
  24:../../libDaisy//src/dev/codec_pcm3060.h ****         OK,
  25:../../libDaisy//src/dev/codec_pcm3060.h ****         ERR,
  26:../../libDaisy//src/dev/codec_pcm3060.h ****     };
  27:../../libDaisy//src/dev/codec_pcm3060.h **** 
  28:../../libDaisy//src/dev/codec_pcm3060.h ****     Pcm3060() {}
  29:../../libDaisy//src/dev/codec_pcm3060.h ****     ~Pcm3060() {}
  49              		.loc 3 29 5 is_stmt 1 view .LVU5
  50              		.loc 3 29 5 is_stmt 0 view .LVU6
  51              	.LBE429:
  52              	.LBB430:
  53              	.LBI430:
  54              		.file 4 "../../libDaisy//src/hid/usb.h"
ARM GAS  /var/folders/hl/qgbwny5j0fd895c2c41bk3tw0000gp/T//ccRMOALe.s 			page 4


   1:../../libDaisy//src/hid/usb.h **** #pragma once
   2:../../libDaisy//src/hid/usb.h **** #ifndef DSY_HID_USB_H
   3:../../libDaisy//src/hid/usb.h **** #define DSY_HID_USB_H
   4:../../libDaisy//src/hid/usb.h **** #include <stdint.h>
   5:../../libDaisy//src/hid/usb.h **** #include <stdlib.h>
   6:../../libDaisy//src/hid/usb.h **** 
   7:../../libDaisy//src/hid/usb.h **** namespace daisy
   8:../../libDaisy//src/hid/usb.h **** /** @addtogroup human_interface
   9:../../libDaisy//src/hid/usb.h ****     @{
  10:../../libDaisy//src/hid/usb.h **** */
  11:../../libDaisy//src/hid/usb.h **** 
  12:../../libDaisy//src/hid/usb.h **** {
  13:../../libDaisy//src/hid/usb.h **** /** 
  14:../../libDaisy//src/hid/usb.h ****     @brief Interface for initializing and using the USB Peripherals on the daisy
  15:../../libDaisy//src/hid/usb.h ****     @author Stephen Hensley
  16:../../libDaisy//src/hid/usb.h ****     @date December 2019
  17:../../libDaisy//src/hid/usb.h **** */
  18:../../libDaisy//src/hid/usb.h **** class UsbHandle
  19:../../libDaisy//src/hid/usb.h **** {
  20:../../libDaisy//src/hid/usb.h ****   public:
  21:../../libDaisy//src/hid/usb.h ****     /** Return values for USBHandle Functions */
  22:../../libDaisy//src/hid/usb.h ****     enum class Result
  23:../../libDaisy//src/hid/usb.h ****     {
  24:../../libDaisy//src/hid/usb.h ****         OK,
  25:../../libDaisy//src/hid/usb.h ****         ERR,
  26:../../libDaisy//src/hid/usb.h ****     };
  27:../../libDaisy//src/hid/usb.h **** 
  28:../../libDaisy//src/hid/usb.h ****     /** Specified which of the two USB Peripherals to initialize. */
  29:../../libDaisy//src/hid/usb.h ****     enum UsbPeriph
  30:../../libDaisy//src/hid/usb.h ****     {
  31:../../libDaisy//src/hid/usb.h ****         FS_INTERNAL, /**< Internal pin */
  32:../../libDaisy//src/hid/usb.h ****         FS_EXTERNAL, /**< FS External D+ pin is Pin 38 (GPIO32). FS External D- pin is Pin 37 (GPIO
  33:../../libDaisy//src/hid/usb.h ****         FS_BOTH,     /**< Both */
  34:../../libDaisy//src/hid/usb.h ****     };
  35:../../libDaisy//src/hid/usb.h **** 
  36:../../libDaisy//src/hid/usb.h **** 
  37:../../libDaisy//src/hid/usb.h ****     /** Function called upon reception of a buffer */
  38:../../libDaisy//src/hid/usb.h ****     typedef void (*ReceiveCallback)(uint8_t* buff, uint32_t* len);
  39:../../libDaisy//src/hid/usb.h **** 
  40:../../libDaisy//src/hid/usb.h ****     UsbHandle() {}
  41:../../libDaisy//src/hid/usb.h **** 
  42:../../libDaisy//src/hid/usb.h ****     ~UsbHandle() {}
  55              		.loc 4 42 5 is_stmt 1 view .LVU7
  56              		.loc 4 42 5 is_stmt 0 view .LVU8
  57              	.LBE430:
  58              	.LBB431:
  59              	.LBI431:
  60              		.file 5 "../../libDaisy//src/per/adc.h"
   1:../../libDaisy//src/per/adc.h **** #pragma once
   2:../../libDaisy//src/per/adc.h **** #ifndef DSY_ADC_H
   3:../../libDaisy//src/per/adc.h **** #define DSY_ADC_H /**< Macro */
   4:../../libDaisy//src/per/adc.h **** #include <stdint.h>
   5:../../libDaisy//src/per/adc.h **** #include <stdlib.h>
   6:../../libDaisy//src/per/adc.h **** #include "daisy_core.h"
   7:../../libDaisy//src/per/adc.h **** #include "per/gpio.h"
   8:../../libDaisy//src/per/adc.h **** 
   9:../../libDaisy//src/per/adc.h **** #define DSY_ADC_MAX_CHANNELS 16 /**< Maximum number of ADC channels */
ARM GAS  /var/folders/hl/qgbwny5j0fd895c2c41bk3tw0000gp/T//ccRMOALe.s 			page 5


  10:../../libDaisy//src/per/adc.h **** 
  11:../../libDaisy//src/per/adc.h **** namespace daisy
  12:../../libDaisy//src/per/adc.h **** {
  13:../../libDaisy//src/per/adc.h **** /** @addtogroup per_analog
  14:../../libDaisy//src/per/adc.h ****     @{
  15:../../libDaisy//src/per/adc.h **** */
  16:../../libDaisy//src/per/adc.h **** 
  17:../../libDaisy//src/per/adc.h **** /* While there may not be many configuration options here,
  18:../../libDaisy//src/per/adc.h **** using a struct like this allows us to add more configuration
  19:../../libDaisy//src/per/adc.h **** later without breaking existing functionality.
  20:../../libDaisy//src/per/adc.h **** */
  21:../../libDaisy//src/per/adc.h **** 
  22:../../libDaisy//src/per/adc.h **** /** @brief   Configuration Structure for an ADC Channel 
  23:../../libDaisy//src/per/adc.h ****  *  @details This can be used to configure a a single input, 
  24:../../libDaisy//src/per/adc.h ****  *           or a multiplexed input, allowing up to 8 inputs on 
  25:../../libDaisy//src/per/adc.h ****  *           one channel.
  26:../../libDaisy//src/per/adc.h ****  *  @note    Sharing data lines to multiple muxes _is_ possible, but
  27:../../libDaisy//src/per/adc.h ****  *           each channel sharing data lines must be set to the maximum
  28:../../libDaisy//src/per/adc.h ****  *           number of channels, even if some multiplexers have fewer
  29:../../libDaisy//src/per/adc.h ****  *           inputs connected.
  30:../../libDaisy//src/per/adc.h **** */
  31:../../libDaisy//src/per/adc.h **** struct AdcChannelConfig
  32:../../libDaisy//src/per/adc.h **** {
  33:../../libDaisy//src/per/adc.h ****     /** Which pin to use for multiplexing */
  34:../../libDaisy//src/per/adc.h ****     enum MuxPin
  35:../../libDaisy//src/per/adc.h ****     {
  36:../../libDaisy//src/per/adc.h ****         MUX_SEL_0,    /**< & */
  37:../../libDaisy//src/per/adc.h ****         MUX_SEL_1,    /**< & */
  38:../../libDaisy//src/per/adc.h ****         MUX_SEL_2,    /**< & */
  39:../../libDaisy//src/per/adc.h ****         MUX_SEL_LAST, /**< & */
  40:../../libDaisy//src/per/adc.h ****     };
  41:../../libDaisy//src/per/adc.h **** 
  42:../../libDaisy//src/per/adc.h ****     /** Initializes a single ADC pin as an ADC. 
  43:../../libDaisy//src/per/adc.h ****     \param pin Pin to init.
  44:../../libDaisy//src/per/adc.h ****      */
  45:../../libDaisy//src/per/adc.h ****     void InitSingle(dsy_gpio_pin pin);
  46:../../libDaisy//src/per/adc.h **** 
  47:../../libDaisy//src/per/adc.h ****     /** 
  48:../../libDaisy//src/per/adc.h ****     Initializes a single ADC pin as a Multiplexed ADC.
  49:../../libDaisy//src/per/adc.h ****     Requires a CD405X Multiplexer connected to the pin.
  50:../../libDaisy//src/per/adc.h ****     You only need to supply the mux pins that are required,
  51:../../libDaisy//src/per/adc.h ****     e.g. a 4052 mux would only require mux_0 and mux_1.
  52:../../libDaisy//src/per/adc.h ****     Internal Callbacks handle the pin addressing.
  53:../../libDaisy//src/per/adc.h ****     \param mux_channels must be 1-8
  54:../../libDaisy//src/per/adc.h ****     \param mux_0 First mux pin
  55:../../libDaisy//src/per/adc.h ****     \param mux_1 Second mux pin
  56:../../libDaisy//src/per/adc.h ****     \param mux_2 Third mux pin
  57:../../libDaisy//src/per/adc.h ****     \param adc_pin &
  58:../../libDaisy//src/per/adc.h ****     */
  59:../../libDaisy//src/per/adc.h ****     void InitMux(dsy_gpio_pin adc_pin,
  60:../../libDaisy//src/per/adc.h ****                  size_t       mux_channels,
  61:../../libDaisy//src/per/adc.h ****                  dsy_gpio_pin mux_0,
  62:../../libDaisy//src/per/adc.h ****                  dsy_gpio_pin mux_1 = {DSY_GPIOX, 0},
  63:../../libDaisy//src/per/adc.h ****                  dsy_gpio_pin mux_2 = {DSY_GPIOX, 0});
  64:../../libDaisy//src/per/adc.h **** 
  65:../../libDaisy//src/per/adc.h ****     dsy_gpio pin_;                   /**< & */
  66:../../libDaisy//src/per/adc.h ****     dsy_gpio mux_pin_[MUX_SEL_LAST]; /**< & */
ARM GAS  /var/folders/hl/qgbwny5j0fd895c2c41bk3tw0000gp/T//ccRMOALe.s 			page 6


  67:../../libDaisy//src/per/adc.h ****     uint8_t  mux_channels_;          /**< & */
  68:../../libDaisy//src/per/adc.h **** };
  69:../../libDaisy//src/per/adc.h **** 
  70:../../libDaisy//src/per/adc.h **** /**
  71:../../libDaisy//src/per/adc.h ****    @brief Handler for analog to digital conversion
  72:../../libDaisy//src/per/adc.h **** */
  73:../../libDaisy//src/per/adc.h **** class AdcHandle
  74:../../libDaisy//src/per/adc.h **** {
  75:../../libDaisy//src/per/adc.h ****   public:
  76:../../libDaisy//src/per/adc.h ****     /** Supported oversampling amounts */
  77:../../libDaisy//src/per/adc.h ****     enum OverSampling
  78:../../libDaisy//src/per/adc.h ****     {
  79:../../libDaisy//src/per/adc.h ****         OVS_NONE, /**< & */
  80:../../libDaisy//src/per/adc.h ****         OVS_4,    /**< & */
  81:../../libDaisy//src/per/adc.h ****         OVS_8,    /**< & */
  82:../../libDaisy//src/per/adc.h ****         OVS_16,   /**< & */
  83:../../libDaisy//src/per/adc.h ****         OVS_32,   /**< & */
  84:../../libDaisy//src/per/adc.h ****         OVS_64,   /**< & */
  85:../../libDaisy//src/per/adc.h ****         OVS_128,  /**< & */
  86:../../libDaisy//src/per/adc.h ****         OVS_256,  /**< & */
  87:../../libDaisy//src/per/adc.h ****         OVS_512,  /**< & */
  88:../../libDaisy//src/per/adc.h ****         OVS_1024, /**< & */
  89:../../libDaisy//src/per/adc.h ****         OVS_LAST, /**< & */
  90:../../libDaisy//src/per/adc.h ****     };
  91:../../libDaisy//src/per/adc.h **** 
  92:../../libDaisy//src/per/adc.h ****     AdcHandle() {}
  93:../../libDaisy//src/per/adc.h ****     ~AdcHandle() {}
  61              		.loc 5 93 5 is_stmt 1 view .LVU9
  62              		.loc 5 93 5 is_stmt 0 view .LVU10
  63              	.LBE431:
  64              	.LBB432:
  65              	.LBI432:
  66              		.file 6 "../../libDaisy//src/hid/audio.h"
   1:../../libDaisy//src/hid/audio.h **** #ifndef DSY_AUDIO_H
   2:../../libDaisy//src/hid/audio.h **** #define DSY_AUDIO_H /**< & */
   3:../../libDaisy//src/hid/audio.h **** 
   4:../../libDaisy//src/hid/audio.h **** #include "per/sai.h"
   5:../../libDaisy//src/hid/audio.h **** 
   6:../../libDaisy//src/hid/audio.h **** namespace daisy
   7:../../libDaisy//src/hid/audio.h **** {
   8:../../libDaisy//src/hid/audio.h **** /** @brief Audio Engine Handle
   9:../../libDaisy//src/hid/audio.h ****  *  @ingroup audio 
  10:../../libDaisy//src/hid/audio.h ****  *  @details This class allows for higher level access to an audio engine.
  11:../../libDaisy//src/hid/audio.h ****  *           If you're using a SOM like the DaisySeed or DaisyPatchSM (or any 
  12:../../libDaisy//src/hid/audio.h ****  *            board that includes one of those objects) then the intialization
  13:../../libDaisy//src/hid/audio.h ****  *            is already taken  care of.
  14:../../libDaisy//src/hid/audio.h ****  *           If you're setting up your own custom hardware, or need to make changes
  15:../../libDaisy//src/hid/audio.h ****  *           you will have to take the following steps:
  16:../../libDaisy//src/hid/audio.h ****  *             1. Create and Initialize an SaiHandle or two depending on your requirements
  17:../../libDaisy//src/hid/audio.h ****  *             2. Initialize the Audio Handle with the desired settings and the Initialized SaiHand
  18:../../libDaisy//src/hid/audio.h ****  *             3. If the connected codec requires special configuration or initialization, do so
  19:../../libDaisy//src/hid/audio.h ****  *             4. Write a callback method using either the AudioCallback or the InterleavingAudioCa
  20:../../libDaisy//src/hid/audio.h ****  *             5. Start the Audio using one of the StartAudio function
  21:../../libDaisy//src/hid/audio.h ****  */
  22:../../libDaisy//src/hid/audio.h **** class AudioHandle
  23:../../libDaisy//src/hid/audio.h **** {
  24:../../libDaisy//src/hid/audio.h ****   public:
ARM GAS  /var/folders/hl/qgbwny5j0fd895c2c41bk3tw0000gp/T//ccRMOALe.s 			page 7


  25:../../libDaisy//src/hid/audio.h ****     /** Manually configurable details about the Audio Engine */
  26:../../libDaisy//src/hid/audio.h ****     /** TODO: Figure out how to get samplerate in here. */
  27:../../libDaisy//src/hid/audio.h ****     struct Config
  28:../../libDaisy//src/hid/audio.h ****     {
  29:../../libDaisy//src/hid/audio.h ****         /** number of samples to process per callback */
  30:../../libDaisy//src/hid/audio.h ****         size_t blocksize;
  31:../../libDaisy//src/hid/audio.h **** 
  32:../../libDaisy//src/hid/audio.h ****         /**< Sample rate of audio */
  33:../../libDaisy//src/hid/audio.h ****         SaiHandle::Config::SampleRate samplerate;
  34:../../libDaisy//src/hid/audio.h **** 
  35:../../libDaisy//src/hid/audio.h ****         /** factor for adjustment before and after callback for hardware that may have extra headro
  36:../../libDaisy//src/hid/audio.h ****         float postgain;
  37:../../libDaisy//src/hid/audio.h **** 
  38:../../libDaisy//src/hid/audio.h ****         /** factor for additional one-sided compensation to audio path for hardware that may
  39:../../libDaisy//src/hid/audio.h ****          *  have unequal input/output ranges
  40:../../libDaisy//src/hid/audio.h ****          */
  41:../../libDaisy//src/hid/audio.h ****         float output_compensation;
  42:../../libDaisy//src/hid/audio.h **** 
  43:../../libDaisy//src/hid/audio.h ****         /** Sets default values for config struct */
  44:../../libDaisy//src/hid/audio.h ****         Config()
  45:../../libDaisy//src/hid/audio.h ****         : blocksize(48),
  46:../../libDaisy//src/hid/audio.h ****           samplerate(SaiHandle::Config::SampleRate::SAI_48KHZ),
  47:../../libDaisy//src/hid/audio.h ****           postgain(1.f),
  48:../../libDaisy//src/hid/audio.h ****           output_compensation(1.f)
  49:../../libDaisy//src/hid/audio.h ****         {
  50:../../libDaisy//src/hid/audio.h ****         }
  51:../../libDaisy//src/hid/audio.h ****     };
  52:../../libDaisy//src/hid/audio.h **** 
  53:../../libDaisy//src/hid/audio.h ****     enum class Result
  54:../../libDaisy//src/hid/audio.h ****     {
  55:../../libDaisy//src/hid/audio.h ****         OK,
  56:../../libDaisy//src/hid/audio.h ****         ERR,
  57:../../libDaisy//src/hid/audio.h ****     };
  58:../../libDaisy//src/hid/audio.h **** 
  59:../../libDaisy//src/hid/audio.h ****     /** Non-Interleaving input buffer
  60:../../libDaisy//src/hid/audio.h ****      * Buffer arranged by float[chn][sample] 
  61:../../libDaisy//src/hid/audio.h ****      * const so that the user can't modify the input
  62:../../libDaisy//src/hid/audio.h ****      */
  63:../../libDaisy//src/hid/audio.h ****     typedef const float* const* InputBuffer;
  64:../../libDaisy//src/hid/audio.h **** 
  65:../../libDaisy//src/hid/audio.h ****     /** Non-Interleaving output buffer
  66:../../libDaisy//src/hid/audio.h ****      * Arranged by float[chn][sample] 
  67:../../libDaisy//src/hid/audio.h ****      */
  68:../../libDaisy//src/hid/audio.h ****     typedef float** OutputBuffer;
  69:../../libDaisy//src/hid/audio.h **** 
  70:../../libDaisy//src/hid/audio.h ****     /** Type for a Non-Interleaving audio callback 
  71:../../libDaisy//src/hid/audio.h ****      * Non-Interleaving audio callbacks in daisy will be of this type
  72:../../libDaisy//src/hid/audio.h ****      */
  73:../../libDaisy//src/hid/audio.h ****     typedef void (*AudioCallback)(InputBuffer  in,
  74:../../libDaisy//src/hid/audio.h ****                                   OutputBuffer out,
  75:../../libDaisy//src/hid/audio.h ****                                   size_t       size);
  76:../../libDaisy//src/hid/audio.h **** 
  77:../../libDaisy//src/hid/audio.h ****     /** Interleaving Input buffer
  78:../../libDaisy//src/hid/audio.h ****      ** audio is prepared as { L0, R0, L1, R1, . . . LN, RN }]
  79:../../libDaisy//src/hid/audio.h ****      ** this is const, as the user shouldn't modify it
  80:../../libDaisy//src/hid/audio.h ****     */
  81:../../libDaisy//src/hid/audio.h ****     typedef const float* InterleavingInputBuffer;
ARM GAS  /var/folders/hl/qgbwny5j0fd895c2c41bk3tw0000gp/T//ccRMOALe.s 			page 8


  82:../../libDaisy//src/hid/audio.h **** 
  83:../../libDaisy//src/hid/audio.h ****     /** Interleaving Output buffer 
  84:../../libDaisy//src/hid/audio.h ****      ** audio is prepared as { L0, R0, L1, R1, . . . LN, RN }
  85:../../libDaisy//src/hid/audio.h ****     */
  86:../../libDaisy//src/hid/audio.h ****     typedef float* InterleavingOutputBuffer;
  87:../../libDaisy//src/hid/audio.h **** 
  88:../../libDaisy//src/hid/audio.h ****     /** Interleaving Audio Callback 
  89:../../libDaisy//src/hid/audio.h ****      * Interleaving audio callbacks in daisy must be of this type
  90:../../libDaisy//src/hid/audio.h ****      */
  91:../../libDaisy//src/hid/audio.h ****     typedef void (*InterleavingAudioCallback)(InterleavingInputBuffer  in,
  92:../../libDaisy//src/hid/audio.h ****                                               InterleavingOutputBuffer out,
  93:../../libDaisy//src/hid/audio.h ****                                               size_t                   size);
  94:../../libDaisy//src/hid/audio.h **** 
  95:../../libDaisy//src/hid/audio.h ****     AudioHandle() : pimpl_(nullptr) {}
  96:../../libDaisy//src/hid/audio.h ****     ~AudioHandle() {}
  67              		.loc 6 96 5 is_stmt 1 view .LVU11
  68              		.loc 6 96 5 is_stmt 0 view .LVU12
  69              	.LBE432:
  70              	.LBB433:
  71              	.LBI433:
  72              		.file 7 "../../libDaisy//src/sys/system.h"
   1:../../libDaisy//src/sys/system.h **** #ifndef DSY_SYSTEM_H
   2:../../libDaisy//src/sys/system.h **** #define DSY_SYSTEM_H
   3:../../libDaisy//src/sys/system.h **** 
   4:../../libDaisy//src/sys/system.h **** #ifndef UNIT_TEST // for unit tests, a dummy implementation is provided below
   5:../../libDaisy//src/sys/system.h **** 
   6:../../libDaisy//src/sys/system.h **** #include <cstdint>
   7:../../libDaisy//src/sys/system.h **** #include "per/tim.h"
   8:../../libDaisy//src/sys/system.h **** 
   9:../../libDaisy//src/sys/system.h **** namespace daisy
  10:../../libDaisy//src/sys/system.h **** {
  11:../../libDaisy//src/sys/system.h **** /** A handle for interacting with the Core System. 
  12:../../libDaisy//src/sys/system.h ****  ** This includes the Clock tree, MPU, global DMA initialization,
  13:../../libDaisy//src/sys/system.h ****  ** cache handling, and any other necessary global initiailzation
  14:../../libDaisy//src/sys/system.h ****  **
  15:../../libDaisy//src/sys/system.h ****  ** @author shensley
  16:../../libDaisy//src/sys/system.h ****  ** @ingroup system
  17:../../libDaisy//src/sys/system.h ****  */
  18:../../libDaisy//src/sys/system.h **** class System
  19:../../libDaisy//src/sys/system.h **** {
  20:../../libDaisy//src/sys/system.h ****   public:
  21:../../libDaisy//src/sys/system.h ****     /** Contains settings for initializing the System */
  22:../../libDaisy//src/sys/system.h ****     struct Config
  23:../../libDaisy//src/sys/system.h ****     {
  24:../../libDaisy//src/sys/system.h ****         /** Specifies the system clock frequency that feeds APB/AHB clocks, etc. */
  25:../../libDaisy//src/sys/system.h ****         enum class SysClkFreq
  26:../../libDaisy//src/sys/system.h ****         {
  27:../../libDaisy//src/sys/system.h ****             FREQ_400MHZ,
  28:../../libDaisy//src/sys/system.h ****             FREQ_480MHZ,
  29:../../libDaisy//src/sys/system.h ****         };
  30:../../libDaisy//src/sys/system.h **** 
  31:../../libDaisy//src/sys/system.h ****         /** Method to call on the struct to set to defaults
  32:../../libDaisy//src/sys/system.h ****          ** CPU Freq set to 400MHz
  33:../../libDaisy//src/sys/system.h ****          ** Cache Enabled 
  34:../../libDaisy//src/sys/system.h ****          ** */
  35:../../libDaisy//src/sys/system.h ****         void Defaults()
  36:../../libDaisy//src/sys/system.h ****         {
ARM GAS  /var/folders/hl/qgbwny5j0fd895c2c41bk3tw0000gp/T//ccRMOALe.s 			page 9


  37:../../libDaisy//src/sys/system.h ****             cpu_freq    = SysClkFreq::FREQ_400MHZ;
  38:../../libDaisy//src/sys/system.h ****             use_dcache  = true;
  39:../../libDaisy//src/sys/system.h ****             use_icache  = true;
  40:../../libDaisy//src/sys/system.h ****             skip_clocks = false;
  41:../../libDaisy//src/sys/system.h ****         }
  42:../../libDaisy//src/sys/system.h **** 
  43:../../libDaisy//src/sys/system.h ****         /** Method to call on the struct to set to boost mode:
  44:../../libDaisy//src/sys/system.h ****          ** CPU Freq set to 480MHz
  45:../../libDaisy//src/sys/system.h ****          ** Cache Enabled 
  46:../../libDaisy//src/sys/system.h ****          ** */
  47:../../libDaisy//src/sys/system.h ****         void Boost()
  48:../../libDaisy//src/sys/system.h ****         {
  49:../../libDaisy//src/sys/system.h ****             cpu_freq    = SysClkFreq::FREQ_480MHZ;
  50:../../libDaisy//src/sys/system.h ****             use_dcache  = true;
  51:../../libDaisy//src/sys/system.h ****             use_icache  = true;
  52:../../libDaisy//src/sys/system.h ****             skip_clocks = false;
  53:../../libDaisy//src/sys/system.h ****         }
  54:../../libDaisy//src/sys/system.h **** 
  55:../../libDaisy//src/sys/system.h ****         SysClkFreq cpu_freq;
  56:../../libDaisy//src/sys/system.h ****         bool       use_dcache;
  57:../../libDaisy//src/sys/system.h ****         bool       use_icache;
  58:../../libDaisy//src/sys/system.h ****         bool       skip_clocks;
  59:../../libDaisy//src/sys/system.h ****     };
  60:../../libDaisy//src/sys/system.h **** 
  61:../../libDaisy//src/sys/system.h ****     /** Describes the different regions of memory available to the Daisy
  62:../../libDaisy//src/sys/system.h ****      * 
  63:../../libDaisy//src/sys/system.h ****      */
  64:../../libDaisy//src/sys/system.h ****     enum MemoryRegion
  65:../../libDaisy//src/sys/system.h ****     {
  66:../../libDaisy//src/sys/system.h ****         INTERNAL_FLASH = 0,
  67:../../libDaisy//src/sys/system.h ****         ITCMRAM,
  68:../../libDaisy//src/sys/system.h ****         DTCMRAM,
  69:../../libDaisy//src/sys/system.h ****         SRAM_D1,
  70:../../libDaisy//src/sys/system.h ****         SRAM_D2,
  71:../../libDaisy//src/sys/system.h ****         SRAM_D3,
  72:../../libDaisy//src/sys/system.h ****         SDRAM,
  73:../../libDaisy//src/sys/system.h ****         QSPI,
  74:../../libDaisy//src/sys/system.h ****         INVALID_ADDRESS,
  75:../../libDaisy//src/sys/system.h ****     };
  76:../../libDaisy//src/sys/system.h **** 
  77:../../libDaisy//src/sys/system.h ****     System() {}
  78:../../libDaisy//src/sys/system.h ****     ~System() {}
  73              		.loc 7 78 5 is_stmt 1 view .LVU13
  74              		.loc 7 78 5 is_stmt 0 view .LVU14
  75              	.LBE433:
  76              		.loc 1 65 26 view .LVU15
  77 0000 7047     		bx	lr
  78              		.cfi_endproc
  79              	.LFE2529:
  81              		.weak	_ZN5daisy8patch_sm12DaisyPatchSMD1Ev
  82              		.thumb_set _ZN5daisy8patch_sm12DaisyPatchSMD1Ev,_ZN5daisy8patch_sm12DaisyPatchSMD2Ev
  83 0002 00BF     		.section	.text._ZN5daisy11OledDisplayINS_13SSD130xDriverILj128ELj64ENS_19SSD130xI2CTransportEEEED2
  84              		.align	1
  85              		.p2align 2,,3
  86              		.weak	_ZN5daisy11OledDisplayINS_13SSD130xDriverILj128ELj64ENS_19SSD130xI2CTransportEEEED2Ev
  87              		.syntax unified
  88              		.thumb
ARM GAS  /var/folders/hl/qgbwny5j0fd895c2c41bk3tw0000gp/T//ccRMOALe.s 			page 10


  89              		.thumb_func
  90              		.fpu fpv5-d16
  92              	_ZN5daisy11OledDisplayINS_13SSD130xDriverILj128ELj64ENS_19SSD130xI2CTransportEEEED2Ev:
  93              	.LVL1:
  94              	.LFB5140:
  95              		.file 8 "../../libDaisy//src/hid/disp/oled_display.h"
   1:../../libDaisy//src/hid/disp/oled_display.h **** #pragma once
   2:../../libDaisy//src/hid/disp/oled_display.h **** #ifndef DSY_OLED_DISPLAY_H
   3:../../libDaisy//src/hid/disp/oled_display.h **** #define DSY_OLED_DISPLAY_H /**< Macro */
   4:../../libDaisy//src/hid/disp/oled_display.h **** 
   5:../../libDaisy//src/hid/disp/oled_display.h **** #include "display.h"
   6:../../libDaisy//src/hid/disp/oled_display.h **** 
   7:../../libDaisy//src/hid/disp/oled_display.h **** namespace daisy
   8:../../libDaisy//src/hid/disp/oled_display.h **** {
   9:../../libDaisy//src/hid/disp/oled_display.h **** /** 
  10:../../libDaisy//src/hid/disp/oled_display.h ****  * This class is for drawing to a monochrome OLED display. 
  11:../../libDaisy//src/hid/disp/oled_display.h ****  * @ingroup device
  12:../../libDaisy//src/hid/disp/oled_display.h **** */
  13:../../libDaisy//src/hid/disp/oled_display.h **** template <typename DisplayDriver>
  14:../../libDaisy//src/hid/disp/oled_display.h **** class OledDisplay : public OneBitGraphicsDisplayImpl<OledDisplay<DisplayDriver>>
  15:../../libDaisy//src/hid/disp/oled_display.h **** {
  16:../../libDaisy//src/hid/disp/oled_display.h ****   public:
  17:../../libDaisy//src/hid/disp/oled_display.h ****     OledDisplay() {}
  18:../../libDaisy//src/hid/disp/oled_display.h ****     virtual ~OledDisplay() {}
  96              		.loc 8 18 13 is_stmt 1 view -0
  97              		.cfi_startproc
  98              		@ args = 0, pretend = 0, frame = 0
  99              		@ frame_needed = 0, uses_anonymous_args = 0
 100              		@ link register save eliminated.
 101              	.LBB434:
 102              	.LBI434:
 103              		.file 9 "../../libDaisy//src/hid/disp/display.h"
   1:../../libDaisy//src/hid/disp/display.h **** #pragma once
   2:../../libDaisy//src/hid/disp/display.h **** #ifndef DSY_DISPLAY_H
   3:../../libDaisy//src/hid/disp/display.h **** #define DSY_DISPLAY_H /**< Macro */
   4:../../libDaisy//src/hid/disp/display.h **** #include <cmath>
   5:../../libDaisy//src/hid/disp/display.h **** #include "util/oled_fonts.h"
   6:../../libDaisy//src/hid/disp/display.h **** #include "daisy_core.h"
   7:../../libDaisy//src/hid/disp/display.h **** #include "graphics_common.h"
   8:../../libDaisy//src/hid/disp/display.h **** 
   9:../../libDaisy//src/hid/disp/display.h **** #ifndef deg2rad
  10:../../libDaisy//src/hid/disp/display.h **** #define deg2rad(deg) ((deg)*3.141592 / 180.0)
  11:../../libDaisy//src/hid/disp/display.h **** #endif
  12:../../libDaisy//src/hid/disp/display.h **** 
  13:../../libDaisy//src/hid/disp/display.h **** namespace daisy
  14:../../libDaisy//src/hid/disp/display.h **** {
  15:../../libDaisy//src/hid/disp/display.h **** /** 
  16:../../libDaisy//src/hid/disp/display.h ****  * This interface is used as a base class for all types of 1bit-per-pixel
  17:../../libDaisy//src/hid/disp/display.h ****  * graphics displays.
  18:../../libDaisy//src/hid/disp/display.h **** */
  19:../../libDaisy//src/hid/disp/display.h **** class OneBitGraphicsDisplay
  20:../../libDaisy//src/hid/disp/display.h **** {
  21:../../libDaisy//src/hid/disp/display.h ****   public:
  22:../../libDaisy//src/hid/disp/display.h ****     OneBitGraphicsDisplay() {}
  23:../../libDaisy//src/hid/disp/display.h ****     virtual ~OneBitGraphicsDisplay() {}
  24:../../libDaisy//src/hid/disp/display.h **** 
  25:../../libDaisy//src/hid/disp/display.h ****     virtual uint16_t Height() const = 0;
ARM GAS  /var/folders/hl/qgbwny5j0fd895c2c41bk3tw0000gp/T//ccRMOALe.s 			page 11


  26:../../libDaisy//src/hid/disp/display.h ****     virtual uint16_t Width() const  = 0;
  27:../../libDaisy//src/hid/disp/display.h **** 
  28:../../libDaisy//src/hid/disp/display.h ****     Rectangle GetBounds() const
  29:../../libDaisy//src/hid/disp/display.h ****     {
  30:../../libDaisy//src/hid/disp/display.h ****         return Rectangle(int16_t(Width()), int16_t(Height()));
  31:../../libDaisy//src/hid/disp/display.h ****     }
  32:../../libDaisy//src/hid/disp/display.h **** 
  33:../../libDaisy//src/hid/disp/display.h **** 
  34:../../libDaisy//src/hid/disp/display.h ****     size_t CurrentX() { return currentX_; };
  35:../../libDaisy//src/hid/disp/display.h ****     size_t CurrentY() { return currentY_; };
  36:../../libDaisy//src/hid/disp/display.h **** 
  37:../../libDaisy//src/hid/disp/display.h ****     /** 
  38:../../libDaisy//src/hid/disp/display.h ****     Fills the entire display with either on/off.
  39:../../libDaisy//src/hid/disp/display.h ****     \param on Sets on or off.
  40:../../libDaisy//src/hid/disp/display.h ****     */
  41:../../libDaisy//src/hid/disp/display.h ****     virtual void Fill(bool on) = 0;
  42:../../libDaisy//src/hid/disp/display.h **** 
  43:../../libDaisy//src/hid/disp/display.h ****     /**
  44:../../libDaisy//src/hid/disp/display.h ****     Sets the pixel at the specified coordinate to be on/off.
  45:../../libDaisy//src/hid/disp/display.h ****     \param x   x Coordinate
  46:../../libDaisy//src/hid/disp/display.h ****     \param y   y coordinate
  47:../../libDaisy//src/hid/disp/display.h ****     \param on  on or off
  48:../../libDaisy//src/hid/disp/display.h ****     */
  49:../../libDaisy//src/hid/disp/display.h ****     virtual void DrawPixel(uint_fast8_t x, uint_fast8_t y, bool on) = 0;
  50:../../libDaisy//src/hid/disp/display.h **** 
  51:../../libDaisy//src/hid/disp/display.h ****     /**
  52:../../libDaisy//src/hid/disp/display.h ****     Draws a line from (x1, y1) to (y1, y2)
  53:../../libDaisy//src/hid/disp/display.h ****     \param x1  x Coordinate of the starting point
  54:../../libDaisy//src/hid/disp/display.h ****     \param y1  y Coordinate of the starting point
  55:../../libDaisy//src/hid/disp/display.h ****     \param x2  x Coordinate of the ending point
  56:../../libDaisy//src/hid/disp/display.h ****     \param y2  y Coordinate of the ending point
  57:../../libDaisy//src/hid/disp/display.h ****     \param on  on or off
  58:../../libDaisy//src/hid/disp/display.h ****     */
  59:../../libDaisy//src/hid/disp/display.h ****     virtual void DrawLine(uint_fast8_t x1,
  60:../../libDaisy//src/hid/disp/display.h ****                           uint_fast8_t y1,
  61:../../libDaisy//src/hid/disp/display.h ****                           uint_fast8_t x2,
  62:../../libDaisy//src/hid/disp/display.h ****                           uint_fast8_t y2,
  63:../../libDaisy//src/hid/disp/display.h ****                           bool         on)
  64:../../libDaisy//src/hid/disp/display.h ****         = 0;
  65:../../libDaisy//src/hid/disp/display.h **** 
  66:../../libDaisy//src/hid/disp/display.h ****     /**
  67:../../libDaisy//src/hid/disp/display.h ****     Draws a rectangle based on two coordinates.
  68:../../libDaisy//src/hid/disp/display.h ****     \param x1 x Coordinate of the first point
  69:../../libDaisy//src/hid/disp/display.h ****     \param y1 y Coordinate of the first point
  70:../../libDaisy//src/hid/disp/display.h ****     \param x2 x Coordinate of the second point
  71:../../libDaisy//src/hid/disp/display.h ****     \param y2 y Coordinate of the second point
  72:../../libDaisy//src/hid/disp/display.h ****     \param on on or off
  73:../../libDaisy//src/hid/disp/display.h ****     \param fill fill the rectangle or draw only the outline
  74:../../libDaisy//src/hid/disp/display.h ****     */
  75:../../libDaisy//src/hid/disp/display.h ****     virtual void DrawRect(uint_fast8_t x1,
  76:../../libDaisy//src/hid/disp/display.h ****                           uint_fast8_t y1,
  77:../../libDaisy//src/hid/disp/display.h ****                           uint_fast8_t x2,
  78:../../libDaisy//src/hid/disp/display.h ****                           uint_fast8_t y2,
  79:../../libDaisy//src/hid/disp/display.h ****                           bool         on,
  80:../../libDaisy//src/hid/disp/display.h ****                           bool         fill = false)
  81:../../libDaisy//src/hid/disp/display.h ****         = 0;
  82:../../libDaisy//src/hid/disp/display.h **** 
ARM GAS  /var/folders/hl/qgbwny5j0fd895c2c41bk3tw0000gp/T//ccRMOALe.s 			page 12


  83:../../libDaisy//src/hid/disp/display.h ****     /**
  84:../../libDaisy//src/hid/disp/display.h ****     Draws a rectangle.
  85:../../libDaisy//src/hid/disp/display.h ****     \param rect the rectangle
  86:../../libDaisy//src/hid/disp/display.h ****     \param on   on or off
  87:../../libDaisy//src/hid/disp/display.h ****     \param fill fill the rectangle or draw only the outline
  88:../../libDaisy//src/hid/disp/display.h ****     */
  89:../../libDaisy//src/hid/disp/display.h ****     void DrawRect(const Rectangle& rect, bool on, bool fill = false)
  90:../../libDaisy//src/hid/disp/display.h ****     {
  91:../../libDaisy//src/hid/disp/display.h ****         DrawRect(rect.GetX(),
  92:../../libDaisy//src/hid/disp/display.h ****                  rect.GetY(),
  93:../../libDaisy//src/hid/disp/display.h ****                  rect.GetRight(),
  94:../../libDaisy//src/hid/disp/display.h ****                  rect.GetBottom(),
  95:../../libDaisy//src/hid/disp/display.h ****                  on,
  96:../../libDaisy//src/hid/disp/display.h ****                  fill);
  97:../../libDaisy//src/hid/disp/display.h ****     }
  98:../../libDaisy//src/hid/disp/display.h **** 
  99:../../libDaisy//src/hid/disp/display.h ****     /**
 100:../../libDaisy//src/hid/disp/display.h ****     Draws an arc around the specified coordinate
 101:../../libDaisy//src/hid/disp/display.h ****     \param x           x Coordinate of the center of the arc
 102:../../libDaisy//src/hid/disp/display.h ****     \param y           y Coordinate of the center of the arc
 103:../../libDaisy//src/hid/disp/display.h ****     \param radius      radius of the arc
 104:../../libDaisy//src/hid/disp/display.h ****     \param start_angle angle where to start the arc
 105:../../libDaisy//src/hid/disp/display.h ****     \param sweep       total angle of the arc
 106:../../libDaisy//src/hid/disp/display.h ****     \param on  on or off
 107:../../libDaisy//src/hid/disp/display.h ****     */
 108:../../libDaisy//src/hid/disp/display.h ****     virtual void DrawArc(uint_fast8_t x,
 109:../../libDaisy//src/hid/disp/display.h ****                          uint_fast8_t y,
 110:../../libDaisy//src/hid/disp/display.h ****                          uint_fast8_t radius,
 111:../../libDaisy//src/hid/disp/display.h ****                          int_fast16_t start_angle,
 112:../../libDaisy//src/hid/disp/display.h ****                          int_fast16_t sweep,
 113:../../libDaisy//src/hid/disp/display.h ****                          bool         on)
 114:../../libDaisy//src/hid/disp/display.h ****         = 0;
 115:../../libDaisy//src/hid/disp/display.h **** 
 116:../../libDaisy//src/hid/disp/display.h ****     /**
 117:../../libDaisy//src/hid/disp/display.h ****     Draws a circle around the specified coordinate
 118:../../libDaisy//src/hid/disp/display.h ****     \param x           x Coordinate of the center of the circle
 119:../../libDaisy//src/hid/disp/display.h ****     \param y           y Coordinate of the center of the circle
 120:../../libDaisy//src/hid/disp/display.h ****     \param radius      radius of the circle
 121:../../libDaisy//src/hid/disp/display.h ****     \param on  on or off
 122:../../libDaisy//src/hid/disp/display.h ****     */
 123:../../libDaisy//src/hid/disp/display.h ****     void
 124:../../libDaisy//src/hid/disp/display.h ****     DrawCircle(uint_fast8_t x, uint_fast8_t y, uint_fast8_t radius, bool on)
 125:../../libDaisy//src/hid/disp/display.h ****     {
 126:../../libDaisy//src/hid/disp/display.h ****         DrawArc(x, y, radius, 0, 360, on);
 127:../../libDaisy//src/hid/disp/display.h ****     };
 128:../../libDaisy//src/hid/disp/display.h **** 
 129:../../libDaisy//src/hid/disp/display.h ****     /** 
 130:../../libDaisy//src/hid/disp/display.h ****     Writes the character with the specific FontDef
 131:../../libDaisy//src/hid/disp/display.h ****     to the display buffer at the current Cursor position.
 132:../../libDaisy//src/hid/disp/display.h ****     \param ch character to be written
 133:../../libDaisy//src/hid/disp/display.h ****     \param font font to be written in
 134:../../libDaisy//src/hid/disp/display.h ****     \param on    on or off
 135:../../libDaisy//src/hid/disp/display.h ****     \return &
 136:../../libDaisy//src/hid/disp/display.h ****     */
 137:../../libDaisy//src/hid/disp/display.h ****     virtual char WriteChar(char ch, FontDef font, bool on) = 0;
 138:../../libDaisy//src/hid/disp/display.h **** 
 139:../../libDaisy//src/hid/disp/display.h ****     /** 
ARM GAS  /var/folders/hl/qgbwny5j0fd895c2c41bk3tw0000gp/T//ccRMOALe.s 			page 13


 140:../../libDaisy//src/hid/disp/display.h ****     Similar to WriteChar, except it will handle an entire String.
 141:../../libDaisy//src/hid/disp/display.h ****     Wrapping does not happen automatically, so the width
 142:../../libDaisy//src/hid/disp/display.h ****     of the string must be kept within the dimensions of the screen.
 143:../../libDaisy//src/hid/disp/display.h ****     \param str string to be written
 144:../../libDaisy//src/hid/disp/display.h ****     \param font font to use
 145:../../libDaisy//src/hid/disp/display.h ****     \param on  on or off
 146:../../libDaisy//src/hid/disp/display.h ****     \return &
 147:../../libDaisy//src/hid/disp/display.h ****     */
 148:../../libDaisy//src/hid/disp/display.h ****     virtual char WriteString(const char* str, FontDef font, bool on) = 0;
 149:../../libDaisy//src/hid/disp/display.h **** 
 150:../../libDaisy//src/hid/disp/display.h ****     /** 
 151:../../libDaisy//src/hid/disp/display.h ****     Similar to WriteString but justified within a bounding box.
 152:../../libDaisy//src/hid/disp/display.h ****     \param str          string to be written
 153:../../libDaisy//src/hid/disp/display.h ****     \param font         font to use
 154:../../libDaisy//src/hid/disp/display.h ****     \param boundingBox  the bounding box to draw the text in
 155:../../libDaisy//src/hid/disp/display.h ****     \param alignment    the alignment to use
 156:../../libDaisy//src/hid/disp/display.h ****     \param on           on or off
 157:../../libDaisy//src/hid/disp/display.h ****     \return The rectangle that was drawn to
 158:../../libDaisy//src/hid/disp/display.h ****     */
 159:../../libDaisy//src/hid/disp/display.h ****     virtual Rectangle WriteStringAligned(const char*    str,
 160:../../libDaisy//src/hid/disp/display.h ****                                          const FontDef& font,
 161:../../libDaisy//src/hid/disp/display.h ****                                          Rectangle      boundingBox,
 162:../../libDaisy//src/hid/disp/display.h ****                                          Alignment      alignment,
 163:../../libDaisy//src/hid/disp/display.h ****                                          bool           on)
 164:../../libDaisy//src/hid/disp/display.h ****         = 0;
 165:../../libDaisy//src/hid/disp/display.h **** 
 166:../../libDaisy//src/hid/disp/display.h ****     /** 
 167:../../libDaisy//src/hid/disp/display.h ****     Moves the 'Cursor' position used for WriteChar, and WriteStr to the specified coordinate.
 168:../../libDaisy//src/hid/disp/display.h ****     \param x x pos
 169:../../libDaisy//src/hid/disp/display.h ****     \param y y pos
 170:../../libDaisy//src/hid/disp/display.h ****     */
 171:../../libDaisy//src/hid/disp/display.h ****     void SetCursor(uint16_t x, uint16_t y)
 172:../../libDaisy//src/hid/disp/display.h ****     {
 173:../../libDaisy//src/hid/disp/display.h ****         currentX_ = (x >= Width()) ? Width() - 1 : x;
 174:../../libDaisy//src/hid/disp/display.h ****         currentY_ = (y >= Height()) ? Height() - 1 : y;
 175:../../libDaisy//src/hid/disp/display.h ****     }
 176:../../libDaisy//src/hid/disp/display.h **** 
 177:../../libDaisy//src/hid/disp/display.h ****     /** 
 178:../../libDaisy//src/hid/disp/display.h ****     Writes the current display buffer to the OLED device using SPI or I2C depending on 
 179:../../libDaisy//src/hid/disp/display.h ****     how the object was initialized.
 180:../../libDaisy//src/hid/disp/display.h ****     */
 181:../../libDaisy//src/hid/disp/display.h ****     virtual void Update() = 0;
 182:../../libDaisy//src/hid/disp/display.h **** 
 183:../../libDaisy//src/hid/disp/display.h ****   protected:
 184:../../libDaisy//src/hid/disp/display.h ****     uint16_t currentX_;
 185:../../libDaisy//src/hid/disp/display.h ****     uint16_t currentY_;
 186:../../libDaisy//src/hid/disp/display.h **** };
 187:../../libDaisy//src/hid/disp/display.h **** 
 188:../../libDaisy//src/hid/disp/display.h **** /** This class is intended as a intermediary class for your actual implementation of the OneBitGrap
 189:../../libDaisy//src/hid/disp/display.h ****  *  interface. It uses the CRTP design pattern where the template argument is the child class. It p
 190:../../libDaisy//src/hid/disp/display.h ****  *  implementations for most of the functions, except DrawPixel(), Update() and Fill(), which you'l
 191:../../libDaisy//src/hid/disp/display.h ****  *  to provide in your child class.
 192:../../libDaisy//src/hid/disp/display.h ****  *  The main goal of this class is to provide common drawing functions without relying on massive a
 193:../../libDaisy//src/hid/disp/display.h ****  *  virtual function calls that would result in a performance loss. To achieve this, any drawing fu
 194:../../libDaisy//src/hid/disp/display.h ****  *  is implemented here and internally calls other drawing functions (e.g. DrawRect() which interna
 195:../../libDaisy//src/hid/disp/display.h ****  *  DrawPixel() and DrawLine()) makes these calls via the qualified name of these functions to expl
 196:../../libDaisy//src/hid/disp/display.h ****  *  suppress the virtual dispatch mechanism like this:
ARM GAS  /var/folders/hl/qgbwny5j0fd895c2c41bk3tw0000gp/T//ccRMOALe.s 			page 14


 197:../../libDaisy//src/hid/disp/display.h ****  * 
 198:../../libDaisy//src/hid/disp/display.h ****  *      ChildType::DrawPixel(...); // no virtual function call; direct call into the child class fu
 199:../../libDaisy//src/hid/disp/display.h ****  *  
 200:../../libDaisy//src/hid/disp/display.h ****  *  To create a custom OneBitGraphicsDisplay implementation, you can 
 201:../../libDaisy//src/hid/disp/display.h ****  *  A) inherit from OneBitGraphicsDisplay directly and provide all the drawing functions yourself
 202:../../libDaisy//src/hid/disp/display.h ****  *  B) Inherit from OneBitGraphicsDisplayImpl and only provide DrawPixel(), Fill() and Update()
 203:../../libDaisy//src/hid/disp/display.h ****  *     like this:
 204:../../libDaisy//src/hid/disp/display.h ****  *  
 205:../../libDaisy//src/hid/disp/display.h ****  *      class MyDisplayClass : public OneBitGraphicsDisplayImpl<MyDisplayClass> 
 206:../../libDaisy//src/hid/disp/display.h ****  *      {
 207:../../libDaisy//src/hid/disp/display.h ****  *      public:
 208:../../libDaisy//src/hid/disp/display.h ****  *          void Fill() override { ... };
 209:../../libDaisy//src/hid/disp/display.h ****  *          void DrawPixel(uint_fast8_t x, uint_fast8_t y, bool on) override { ... };
 210:../../libDaisy//src/hid/disp/display.h ****  *          void Update() override { ... }
 211:../../libDaisy//src/hid/disp/display.h ****  *      };
 212:../../libDaisy//src/hid/disp/display.h ****  *  
 213:../../libDaisy//src/hid/disp/display.h ****  */
 214:../../libDaisy//src/hid/disp/display.h **** template <class ChildType>
 215:../../libDaisy//src/hid/disp/display.h **** class OneBitGraphicsDisplayImpl : public OneBitGraphicsDisplay
 216:../../libDaisy//src/hid/disp/display.h **** {
 217:../../libDaisy//src/hid/disp/display.h ****   public:
 218:../../libDaisy//src/hid/disp/display.h ****     OneBitGraphicsDisplayImpl() {}
 219:../../libDaisy//src/hid/disp/display.h ****     virtual ~OneBitGraphicsDisplayImpl() {}
 104              		.loc 9 219 13 view .LVU17
 105              	.LBB435:
 106              	.LBI435:
  23:../../libDaisy//src/hid/disp/display.h **** 
 107              		.loc 9 23 13 view .LVU18
  23:../../libDaisy//src/hid/disp/display.h **** 
 108              		.loc 9 23 13 is_stmt 0 view .LVU19
 109              	.LBE435:
 110              	.LBE434:
 111              		.loc 8 18 29 view .LVU20
 112 0000 7047     		bx	lr
 113              		.cfi_endproc
 114              	.LFE5140:
 116              		.weak	_ZN5daisy11OledDisplayINS_13SSD130xDriverILj128ELj64ENS_19SSD130xI2CTransportEEEED1Ev
 117              		.thumb_set _ZN5daisy11OledDisplayINS_13SSD130xDriverILj128ELj64ENS_19SSD130xI2CTransportEEEED1Ev,_
 118 0002 00BF     		.section	.text._ZN5daisy11OledDisplayINS_13SSD130xDriverILj128ELj64ENS_19SSD130xI2CTransportEEEE4F
 119              		.align	1
 120              		.p2align 2,,3
 121              		.weak	_ZN5daisy11OledDisplayINS_13SSD130xDriverILj128ELj64ENS_19SSD130xI2CTransportEEEE4FillEb
 122              		.syntax unified
 123              		.thumb
 124              		.thumb_func
 125              		.fpu fpv5-d16
 127              	_ZN5daisy11OledDisplayINS_13SSD130xDriverILj128ELj64ENS_19SSD130xI2CTransportEEEE4FillEb:
 128              	.LVL2:
 129              	.LFB5143:
  19:../../libDaisy//src/hid/disp/oled_display.h **** 
  20:../../libDaisy//src/hid/disp/oled_display.h ****     struct Config
  21:../../libDaisy//src/hid/disp/oled_display.h ****     {
  22:../../libDaisy//src/hid/disp/oled_display.h ****         typename DisplayDriver::Config driver_config;
  23:../../libDaisy//src/hid/disp/oled_display.h ****     };
  24:../../libDaisy//src/hid/disp/oled_display.h **** 
  25:../../libDaisy//src/hid/disp/oled_display.h ****     void Init(Config config) { driver_.Init(config.driver_config); }
  26:../../libDaisy//src/hid/disp/oled_display.h **** 
ARM GAS  /var/folders/hl/qgbwny5j0fd895c2c41bk3tw0000gp/T//ccRMOALe.s 			page 15


  27:../../libDaisy//src/hid/disp/oled_display.h ****     uint16_t Height() const override { return driver_.Height(); }
  28:../../libDaisy//src/hid/disp/oled_display.h ****     uint16_t Width() const override { return driver_.Width(); }
  29:../../libDaisy//src/hid/disp/oled_display.h **** 
  30:../../libDaisy//src/hid/disp/oled_display.h ****     /** 
  31:../../libDaisy//src/hid/disp/oled_display.h ****     Fills the entire display with either on/off.
  32:../../libDaisy//src/hid/disp/oled_display.h ****     \param on Sets on or off.
  33:../../libDaisy//src/hid/disp/oled_display.h ****     */
  34:../../libDaisy//src/hid/disp/oled_display.h ****     void Fill(bool on) override { driver_.Fill(on); }
 130              		.loc 8 34 10 is_stmt 1 view -0
 131              		.cfi_startproc
 132              		@ args = 0, pretend = 0, frame = 0
 133              		@ frame_needed = 0, uses_anonymous_args = 0
 134              		@ link register save eliminated.
 135              	.LBB436:
 136              	.LBI436:
 137              		.file 10 "../../libDaisy//src/dev/oled_ssd130x.h"
   1:../../libDaisy//src/dev/oled_ssd130x.h **** #pragma once
   2:../../libDaisy//src/dev/oled_ssd130x.h **** #ifndef SA_OLED_SSD130X_H
   3:../../libDaisy//src/dev/oled_ssd130x.h **** #define SA_OLED_SSD130X_H /**< & */
   4:../../libDaisy//src/dev/oled_ssd130x.h **** 
   5:../../libDaisy//src/dev/oled_ssd130x.h **** #include "per/i2c.h"
   6:../../libDaisy//src/dev/oled_ssd130x.h **** #include "per/spi.h"
   7:../../libDaisy//src/dev/oled_ssd130x.h **** #include "per/gpio.h"
   8:../../libDaisy//src/dev/oled_ssd130x.h **** #include "sys/system.h"
   9:../../libDaisy//src/dev/oled_ssd130x.h **** 
  10:../../libDaisy//src/dev/oled_ssd130x.h **** namespace daisy
  11:../../libDaisy//src/dev/oled_ssd130x.h **** {
  12:../../libDaisy//src/dev/oled_ssd130x.h **** /**
  13:../../libDaisy//src/dev/oled_ssd130x.h ****  * I2C Transport for SSD1306 / SSD1309 OLED display devices
  14:../../libDaisy//src/dev/oled_ssd130x.h ****  */
  15:../../libDaisy//src/dev/oled_ssd130x.h **** class SSD130xI2CTransport
  16:../../libDaisy//src/dev/oled_ssd130x.h **** {
  17:../../libDaisy//src/dev/oled_ssd130x.h ****   public:
  18:../../libDaisy//src/dev/oled_ssd130x.h ****     struct Config
  19:../../libDaisy//src/dev/oled_ssd130x.h ****     {
  20:../../libDaisy//src/dev/oled_ssd130x.h ****         Config()
  21:../../libDaisy//src/dev/oled_ssd130x.h ****         {
  22:../../libDaisy//src/dev/oled_ssd130x.h ****             // Intialize using defaults
  23:../../libDaisy//src/dev/oled_ssd130x.h ****             Defaults();
  24:../../libDaisy//src/dev/oled_ssd130x.h ****         }
  25:../../libDaisy//src/dev/oled_ssd130x.h ****         I2CHandle::Config i2c_config;
  26:../../libDaisy//src/dev/oled_ssd130x.h ****         uint8_t           i2c_address;
  27:../../libDaisy//src/dev/oled_ssd130x.h ****         void              Defaults()
  28:../../libDaisy//src/dev/oled_ssd130x.h ****         {
  29:../../libDaisy//src/dev/oled_ssd130x.h ****             i2c_config.periph         = I2CHandle::Config::Peripheral::I2C_1;
  30:../../libDaisy//src/dev/oled_ssd130x.h ****             i2c_config.speed          = I2CHandle::Config::Speed::I2C_1MHZ;
  31:../../libDaisy//src/dev/oled_ssd130x.h ****             i2c_config.mode           = I2CHandle::Config::Mode::I2C_MASTER;
  32:../../libDaisy//src/dev/oled_ssd130x.h ****             i2c_config.pin_config.scl = {DSY_GPIOB, 8};
  33:../../libDaisy//src/dev/oled_ssd130x.h ****             i2c_config.pin_config.sda = {DSY_GPIOB, 9};
  34:../../libDaisy//src/dev/oled_ssd130x.h ****             i2c_address               = 0x3C;
  35:../../libDaisy//src/dev/oled_ssd130x.h ****         }
  36:../../libDaisy//src/dev/oled_ssd130x.h ****     };
  37:../../libDaisy//src/dev/oled_ssd130x.h ****     void Init(const Config& config)
  38:../../libDaisy//src/dev/oled_ssd130x.h ****     {
  39:../../libDaisy//src/dev/oled_ssd130x.h ****         i2c_address_ = config.i2c_address;
  40:../../libDaisy//src/dev/oled_ssd130x.h ****         i2c_.Init(config.i2c_config);
  41:../../libDaisy//src/dev/oled_ssd130x.h ****     };
ARM GAS  /var/folders/hl/qgbwny5j0fd895c2c41bk3tw0000gp/T//ccRMOALe.s 			page 16


  42:../../libDaisy//src/dev/oled_ssd130x.h ****     void SendCommand(uint8_t cmd)
  43:../../libDaisy//src/dev/oled_ssd130x.h ****     {
  44:../../libDaisy//src/dev/oled_ssd130x.h ****         uint8_t buf[2] = {0X00, cmd};
  45:../../libDaisy//src/dev/oled_ssd130x.h ****         i2c_.TransmitBlocking(i2c_address_, buf, 2, 1000);
  46:../../libDaisy//src/dev/oled_ssd130x.h ****     };
  47:../../libDaisy//src/dev/oled_ssd130x.h **** 
  48:../../libDaisy//src/dev/oled_ssd130x.h ****     void SendData(uint8_t* buff, size_t size)
  49:../../libDaisy//src/dev/oled_ssd130x.h ****     {
  50:../../libDaisy//src/dev/oled_ssd130x.h ****         for(size_t i = 0; i < size; i++)
  51:../../libDaisy//src/dev/oled_ssd130x.h ****         {
  52:../../libDaisy//src/dev/oled_ssd130x.h ****             uint8_t buf[2] = {0X40, buff[i]};
  53:../../libDaisy//src/dev/oled_ssd130x.h ****             i2c_.TransmitBlocking(i2c_address_, buf, 2, 1000);
  54:../../libDaisy//src/dev/oled_ssd130x.h ****         }
  55:../../libDaisy//src/dev/oled_ssd130x.h ****     };
  56:../../libDaisy//src/dev/oled_ssd130x.h **** 
  57:../../libDaisy//src/dev/oled_ssd130x.h ****   private:
  58:../../libDaisy//src/dev/oled_ssd130x.h ****     daisy::I2CHandle i2c_;
  59:../../libDaisy//src/dev/oled_ssd130x.h ****     uint8_t          i2c_address_;
  60:../../libDaisy//src/dev/oled_ssd130x.h **** };
  61:../../libDaisy//src/dev/oled_ssd130x.h **** 
  62:../../libDaisy//src/dev/oled_ssd130x.h **** /**
  63:../../libDaisy//src/dev/oled_ssd130x.h ****  * 4 Wire SPI Transport for SSD1306 / SSD1309 OLED display devices
  64:../../libDaisy//src/dev/oled_ssd130x.h ****  */
  65:../../libDaisy//src/dev/oled_ssd130x.h **** class SSD130x4WireSpiTransport
  66:../../libDaisy//src/dev/oled_ssd130x.h **** {
  67:../../libDaisy//src/dev/oled_ssd130x.h ****   public:
  68:../../libDaisy//src/dev/oled_ssd130x.h ****     struct Config
  69:../../libDaisy//src/dev/oled_ssd130x.h ****     {
  70:../../libDaisy//src/dev/oled_ssd130x.h ****         Config()
  71:../../libDaisy//src/dev/oled_ssd130x.h ****         {
  72:../../libDaisy//src/dev/oled_ssd130x.h ****             // Initialize using defaults
  73:../../libDaisy//src/dev/oled_ssd130x.h ****             Defaults();
  74:../../libDaisy//src/dev/oled_ssd130x.h ****         }
  75:../../libDaisy//src/dev/oled_ssd130x.h ****         SpiHandle::Config spi_config;
  76:../../libDaisy//src/dev/oled_ssd130x.h ****         struct
  77:../../libDaisy//src/dev/oled_ssd130x.h ****         {
  78:../../libDaisy//src/dev/oled_ssd130x.h ****             dsy_gpio_pin dc;    /**< & */
  79:../../libDaisy//src/dev/oled_ssd130x.h ****             dsy_gpio_pin reset; /**< & */
  80:../../libDaisy//src/dev/oled_ssd130x.h ****         } pin_config;
  81:../../libDaisy//src/dev/oled_ssd130x.h ****         void Defaults()
  82:../../libDaisy//src/dev/oled_ssd130x.h ****         {
  83:../../libDaisy//src/dev/oled_ssd130x.h ****             // SPI peripheral config
  84:../../libDaisy//src/dev/oled_ssd130x.h ****             spi_config.periph = SpiHandle::Config::Peripheral::SPI_1;
  85:../../libDaisy//src/dev/oled_ssd130x.h ****             spi_config.mode   = SpiHandle::Config::Mode::MASTER;
  86:../../libDaisy//src/dev/oled_ssd130x.h ****             spi_config.direction
  87:../../libDaisy//src/dev/oled_ssd130x.h ****                 = SpiHandle::Config::Direction::TWO_LINES_TX_ONLY;
  88:../../libDaisy//src/dev/oled_ssd130x.h ****             spi_config.datasize       = 8;
  89:../../libDaisy//src/dev/oled_ssd130x.h ****             spi_config.clock_polarity = SpiHandle::Config::ClockPolarity::LOW;
  90:../../libDaisy//src/dev/oled_ssd130x.h ****             spi_config.clock_phase    = SpiHandle::Config::ClockPhase::ONE_EDGE;
  91:../../libDaisy//src/dev/oled_ssd130x.h ****             spi_config.nss            = SpiHandle::Config::NSS::HARD_OUTPUT;
  92:../../libDaisy//src/dev/oled_ssd130x.h ****             spi_config.baud_prescaler = SpiHandle::Config::BaudPrescaler::PS_8;
  93:../../libDaisy//src/dev/oled_ssd130x.h ****             // SPI pin config
  94:../../libDaisy//src/dev/oled_ssd130x.h ****             spi_config.pin_config.sclk = {DSY_GPIOG, 11};
  95:../../libDaisy//src/dev/oled_ssd130x.h ****             spi_config.pin_config.miso = {DSY_GPIOX, 0};
  96:../../libDaisy//src/dev/oled_ssd130x.h ****             spi_config.pin_config.mosi = {DSY_GPIOB, 5};
  97:../../libDaisy//src/dev/oled_ssd130x.h ****             spi_config.pin_config.nss  = {DSY_GPIOG, 10};
  98:../../libDaisy//src/dev/oled_ssd130x.h ****             // SSD130x control pin config
ARM GAS  /var/folders/hl/qgbwny5j0fd895c2c41bk3tw0000gp/T//ccRMOALe.s 			page 17


  99:../../libDaisy//src/dev/oled_ssd130x.h ****             pin_config.dc    = {DSY_GPIOB, 4};
 100:../../libDaisy//src/dev/oled_ssd130x.h ****             pin_config.reset = {DSY_GPIOB, 15};
 101:../../libDaisy//src/dev/oled_ssd130x.h ****         }
 102:../../libDaisy//src/dev/oled_ssd130x.h ****     };
 103:../../libDaisy//src/dev/oled_ssd130x.h ****     void Init(const Config& config)
 104:../../libDaisy//src/dev/oled_ssd130x.h ****     {
 105:../../libDaisy//src/dev/oled_ssd130x.h ****         // Initialize both GPIO
 106:../../libDaisy//src/dev/oled_ssd130x.h ****         pin_dc_.mode = DSY_GPIO_MODE_OUTPUT_PP;
 107:../../libDaisy//src/dev/oled_ssd130x.h ****         pin_dc_.pin  = config.pin_config.dc;
 108:../../libDaisy//src/dev/oled_ssd130x.h ****         dsy_gpio_init(&pin_dc_);
 109:../../libDaisy//src/dev/oled_ssd130x.h ****         pin_reset_.mode = DSY_GPIO_MODE_OUTPUT_PP;
 110:../../libDaisy//src/dev/oled_ssd130x.h ****         pin_reset_.pin  = config.pin_config.reset;
 111:../../libDaisy//src/dev/oled_ssd130x.h ****         dsy_gpio_init(&pin_reset_);
 112:../../libDaisy//src/dev/oled_ssd130x.h **** 
 113:../../libDaisy//src/dev/oled_ssd130x.h ****         // Initialize SPI
 114:../../libDaisy//src/dev/oled_ssd130x.h ****         spi_.Init(config.spi_config);
 115:../../libDaisy//src/dev/oled_ssd130x.h **** 
 116:../../libDaisy//src/dev/oled_ssd130x.h ****         // Reset and Configure OLED.
 117:../../libDaisy//src/dev/oled_ssd130x.h ****         dsy_gpio_write(&pin_reset_, 0);
 118:../../libDaisy//src/dev/oled_ssd130x.h ****         System::Delay(10);
 119:../../libDaisy//src/dev/oled_ssd130x.h ****         dsy_gpio_write(&pin_reset_, 1);
 120:../../libDaisy//src/dev/oled_ssd130x.h ****         System::Delay(10);
 121:../../libDaisy//src/dev/oled_ssd130x.h ****     };
 122:../../libDaisy//src/dev/oled_ssd130x.h ****     void SendCommand(uint8_t cmd)
 123:../../libDaisy//src/dev/oled_ssd130x.h ****     {
 124:../../libDaisy//src/dev/oled_ssd130x.h ****         dsy_gpio_write(&pin_dc_, 0);
 125:../../libDaisy//src/dev/oled_ssd130x.h ****         spi_.BlockingTransmit(&cmd, 1);
 126:../../libDaisy//src/dev/oled_ssd130x.h ****     };
 127:../../libDaisy//src/dev/oled_ssd130x.h **** 
 128:../../libDaisy//src/dev/oled_ssd130x.h ****     void SendData(uint8_t* buff, size_t size)
 129:../../libDaisy//src/dev/oled_ssd130x.h ****     {
 130:../../libDaisy//src/dev/oled_ssd130x.h ****         dsy_gpio_write(&pin_dc_, 1);
 131:../../libDaisy//src/dev/oled_ssd130x.h ****         spi_.BlockingTransmit(buff, size);
 132:../../libDaisy//src/dev/oled_ssd130x.h ****     };
 133:../../libDaisy//src/dev/oled_ssd130x.h **** 
 134:../../libDaisy//src/dev/oled_ssd130x.h ****   private:
 135:../../libDaisy//src/dev/oled_ssd130x.h ****     SpiHandle spi_;
 136:../../libDaisy//src/dev/oled_ssd130x.h ****     dsy_gpio  pin_reset_;
 137:../../libDaisy//src/dev/oled_ssd130x.h ****     dsy_gpio  pin_dc_;
 138:../../libDaisy//src/dev/oled_ssd130x.h **** };
 139:../../libDaisy//src/dev/oled_ssd130x.h **** 
 140:../../libDaisy//src/dev/oled_ssd130x.h **** /**
 141:../../libDaisy//src/dev/oled_ssd130x.h ****  * Soft SPI Transport for SSD1306 / SSD1309 OLED display devices
 142:../../libDaisy//src/dev/oled_ssd130x.h ****  */
 143:../../libDaisy//src/dev/oled_ssd130x.h **** class SSD130x4WireSoftSpiTransport
 144:../../libDaisy//src/dev/oled_ssd130x.h **** {
 145:../../libDaisy//src/dev/oled_ssd130x.h ****   public:
 146:../../libDaisy//src/dev/oled_ssd130x.h ****     struct Config
 147:../../libDaisy//src/dev/oled_ssd130x.h ****     {
 148:../../libDaisy//src/dev/oled_ssd130x.h ****         Config()
 149:../../libDaisy//src/dev/oled_ssd130x.h ****         {
 150:../../libDaisy//src/dev/oled_ssd130x.h ****             // Initialize using defaults
 151:../../libDaisy//src/dev/oled_ssd130x.h ****             Defaults();
 152:../../libDaisy//src/dev/oled_ssd130x.h ****         }
 153:../../libDaisy//src/dev/oled_ssd130x.h ****         struct
 154:../../libDaisy//src/dev/oled_ssd130x.h ****         {
 155:../../libDaisy//src/dev/oled_ssd130x.h ****             uint32_t     sclk_delay;
ARM GAS  /var/folders/hl/qgbwny5j0fd895c2c41bk3tw0000gp/T//ccRMOALe.s 			page 18


 156:../../libDaisy//src/dev/oled_ssd130x.h ****             dsy_gpio_pin sclk;
 157:../../libDaisy//src/dev/oled_ssd130x.h ****             dsy_gpio_pin mosi;
 158:../../libDaisy//src/dev/oled_ssd130x.h ****             dsy_gpio_pin dc;
 159:../../libDaisy//src/dev/oled_ssd130x.h ****             dsy_gpio_pin reset;
 160:../../libDaisy//src/dev/oled_ssd130x.h ****         } pin_config;
 161:../../libDaisy//src/dev/oled_ssd130x.h ****         void Defaults()
 162:../../libDaisy//src/dev/oled_ssd130x.h ****         {
 163:../../libDaisy//src/dev/oled_ssd130x.h ****             pin_config.sclk_delay = 0; // fast as possible?!
 164:../../libDaisy//src/dev/oled_ssd130x.h ****             // SPI peripheral config
 165:../../libDaisy//src/dev/oled_ssd130x.h ****             pin_config.sclk = {DSY_GPIOD, 3}; /**< D10 - SPI2 SCK  */
 166:../../libDaisy//src/dev/oled_ssd130x.h ****             pin_config.mosi = {DSY_GPIOC, 3}; /**< D9  - SPI2 MOSI */
 167:../../libDaisy//src/dev/oled_ssd130x.h ****             // SSD130x control pin config
 168:../../libDaisy//src/dev/oled_ssd130x.h ****             pin_config.dc    = {DSY_GPIOC, 11}; //D2
 169:../../libDaisy//src/dev/oled_ssd130x.h ****             pin_config.reset = {DSY_GPIOC, 10}; //D3
 170:../../libDaisy//src/dev/oled_ssd130x.h ****         }
 171:../../libDaisy//src/dev/oled_ssd130x.h ****     };
 172:../../libDaisy//src/dev/oled_ssd130x.h ****     void Init(const Config& config)
 173:../../libDaisy//src/dev/oled_ssd130x.h ****     {
 174:../../libDaisy//src/dev/oled_ssd130x.h ****         // Initialize both GPIO
 175:../../libDaisy//src/dev/oled_ssd130x.h ****         pin_sclk_.mode = DSY_GPIO_MODE_OUTPUT_PP;
 176:../../libDaisy//src/dev/oled_ssd130x.h ****         pin_sclk_.pin  = config.pin_config.sclk;
 177:../../libDaisy//src/dev/oled_ssd130x.h ****         dsy_gpio_init(&pin_sclk_);
 178:../../libDaisy//src/dev/oled_ssd130x.h ****         dsy_gpio_write(&pin_sclk_, 1); //ClockPolarity::LOW
 179:../../libDaisy//src/dev/oled_ssd130x.h ****         clk_delay      = config.pin_config.sclk_delay;
 180:../../libDaisy//src/dev/oled_ssd130x.h ****         pin_mosi_.mode = DSY_GPIO_MODE_OUTPUT_PP;
 181:../../libDaisy//src/dev/oled_ssd130x.h ****         pin_mosi_.pin  = config.pin_config.mosi;
 182:../../libDaisy//src/dev/oled_ssd130x.h ****         dsy_gpio_init(&pin_mosi_);
 183:../../libDaisy//src/dev/oled_ssd130x.h ****         dsy_gpio_write(&pin_mosi_, 0);
 184:../../libDaisy//src/dev/oled_ssd130x.h **** 
 185:../../libDaisy//src/dev/oled_ssd130x.h ****         pin_dc_.mode = DSY_GPIO_MODE_OUTPUT_PP;
 186:../../libDaisy//src/dev/oled_ssd130x.h ****         pin_dc_.pin  = config.pin_config.dc;
 187:../../libDaisy//src/dev/oled_ssd130x.h ****         dsy_gpio_init(&pin_dc_);
 188:../../libDaisy//src/dev/oled_ssd130x.h ****         pin_reset_.mode = DSY_GPIO_MODE_OUTPUT_PP;
 189:../../libDaisy//src/dev/oled_ssd130x.h ****         pin_reset_.pin  = config.pin_config.reset;
 190:../../libDaisy//src/dev/oled_ssd130x.h ****         dsy_gpio_init(&pin_reset_);
 191:../../libDaisy//src/dev/oled_ssd130x.h **** 
 192:../../libDaisy//src/dev/oled_ssd130x.h ****         // Reset and Configure OLED.
 193:../../libDaisy//src/dev/oled_ssd130x.h ****         dsy_gpio_write(&pin_reset_, 0);
 194:../../libDaisy//src/dev/oled_ssd130x.h ****         System::Delay(10);
 195:../../libDaisy//src/dev/oled_ssd130x.h ****         dsy_gpio_write(&pin_reset_, 1);
 196:../../libDaisy//src/dev/oled_ssd130x.h ****         System::Delay(10);
 197:../../libDaisy//src/dev/oled_ssd130x.h ****     };
 198:../../libDaisy//src/dev/oled_ssd130x.h ****     void SendCommand(uint8_t cmd)
 199:../../libDaisy//src/dev/oled_ssd130x.h ****     {
 200:../../libDaisy//src/dev/oled_ssd130x.h ****         dsy_gpio_write(&pin_dc_, 0);
 201:../../libDaisy//src/dev/oled_ssd130x.h ****         SoftSpiTransmit(cmd);
 202:../../libDaisy//src/dev/oled_ssd130x.h ****     };
 203:../../libDaisy//src/dev/oled_ssd130x.h **** 
 204:../../libDaisy//src/dev/oled_ssd130x.h ****     void SendData(uint8_t* buff, size_t size)
 205:../../libDaisy//src/dev/oled_ssd130x.h ****     {
 206:../../libDaisy//src/dev/oled_ssd130x.h ****         dsy_gpio_write(&pin_dc_, 1);
 207:../../libDaisy//src/dev/oled_ssd130x.h ****         for(size_t i = 0; i < size; i++)
 208:../../libDaisy//src/dev/oled_ssd130x.h ****             SoftSpiTransmit(buff[i]);
 209:../../libDaisy//src/dev/oled_ssd130x.h ****     };
 210:../../libDaisy//src/dev/oled_ssd130x.h **** 
 211:../../libDaisy//src/dev/oled_ssd130x.h ****   private:
 212:../../libDaisy//src/dev/oled_ssd130x.h ****     void SoftSpiTransmit(uint8_t val)
ARM GAS  /var/folders/hl/qgbwny5j0fd895c2c41bk3tw0000gp/T//ccRMOALe.s 			page 19


 213:../../libDaisy//src/dev/oled_ssd130x.h ****     {
 214:../../libDaisy//src/dev/oled_ssd130x.h ****         // bit flip
 215:../../libDaisy//src/dev/oled_ssd130x.h ****         val = ((val & 0x01) << 7) | ((val & 0x02) << 5) | ((val & 0x04) << 3)
 216:../../libDaisy//src/dev/oled_ssd130x.h ****               | ((val & 0x08) << 1) | ((val & 0x10) >> 1) | ((val & 0x20) >> 3)
 217:../../libDaisy//src/dev/oled_ssd130x.h ****               | ((val & 0x40) >> 5) | ((val & 0x80) >> 7);
 218:../../libDaisy//src/dev/oled_ssd130x.h **** 
 219:../../libDaisy//src/dev/oled_ssd130x.h ****         for(uint8_t bit = 0u; bit < 8u; bit++)
 220:../../libDaisy//src/dev/oled_ssd130x.h ****         {
 221:../../libDaisy//src/dev/oled_ssd130x.h ****             dsy_gpio_write(&pin_mosi_, ((val & (1 << bit)) ? 1 : 0));
 222:../../libDaisy//src/dev/oled_ssd130x.h **** 
 223:../../libDaisy//src/dev/oled_ssd130x.h ****             System::DelayTicks(clk_delay);
 224:../../libDaisy//src/dev/oled_ssd130x.h **** 
 225:../../libDaisy//src/dev/oled_ssd130x.h ****             dsy_gpio_toggle(&pin_sclk_);
 226:../../libDaisy//src/dev/oled_ssd130x.h **** 
 227:../../libDaisy//src/dev/oled_ssd130x.h ****             System::DelayTicks(clk_delay);
 228:../../libDaisy//src/dev/oled_ssd130x.h **** 
 229:../../libDaisy//src/dev/oled_ssd130x.h ****             dsy_gpio_toggle(&pin_sclk_);
 230:../../libDaisy//src/dev/oled_ssd130x.h ****         }
 231:../../libDaisy//src/dev/oled_ssd130x.h ****     }
 232:../../libDaisy//src/dev/oled_ssd130x.h **** 
 233:../../libDaisy//src/dev/oled_ssd130x.h ****     uint32_t clk_delay;
 234:../../libDaisy//src/dev/oled_ssd130x.h ****     dsy_gpio pin_sclk_;
 235:../../libDaisy//src/dev/oled_ssd130x.h ****     dsy_gpio pin_mosi_;
 236:../../libDaisy//src/dev/oled_ssd130x.h ****     dsy_gpio pin_reset_;
 237:../../libDaisy//src/dev/oled_ssd130x.h ****     dsy_gpio pin_dc_;
 238:../../libDaisy//src/dev/oled_ssd130x.h **** };
 239:../../libDaisy//src/dev/oled_ssd130x.h **** 
 240:../../libDaisy//src/dev/oled_ssd130x.h **** 
 241:../../libDaisy//src/dev/oled_ssd130x.h **** /**
 242:../../libDaisy//src/dev/oled_ssd130x.h ****  * A driver implementation for the SSD1306/SSD1309
 243:../../libDaisy//src/dev/oled_ssd130x.h ****  */
 244:../../libDaisy//src/dev/oled_ssd130x.h **** template <size_t width, size_t height, typename Transport>
 245:../../libDaisy//src/dev/oled_ssd130x.h **** class SSD130xDriver
 246:../../libDaisy//src/dev/oled_ssd130x.h **** {
 247:../../libDaisy//src/dev/oled_ssd130x.h ****   public:
 248:../../libDaisy//src/dev/oled_ssd130x.h ****     struct Config
 249:../../libDaisy//src/dev/oled_ssd130x.h ****     {
 250:../../libDaisy//src/dev/oled_ssd130x.h ****         typename Transport::Config transport_config;
 251:../../libDaisy//src/dev/oled_ssd130x.h ****     };
 252:../../libDaisy//src/dev/oled_ssd130x.h **** 
 253:../../libDaisy//src/dev/oled_ssd130x.h ****     void Init(Config config)
 254:../../libDaisy//src/dev/oled_ssd130x.h ****     {
 255:../../libDaisy//src/dev/oled_ssd130x.h ****         transport_.Init(config.transport_config);
 256:../../libDaisy//src/dev/oled_ssd130x.h **** 
 257:../../libDaisy//src/dev/oled_ssd130x.h ****         // Init routine...
 258:../../libDaisy//src/dev/oled_ssd130x.h **** 
 259:../../libDaisy//src/dev/oled_ssd130x.h ****         // Display Off
 260:../../libDaisy//src/dev/oled_ssd130x.h ****         transport_.SendCommand(0xaE);
 261:../../libDaisy//src/dev/oled_ssd130x.h ****         // Dimension dependent commands...
 262:../../libDaisy//src/dev/oled_ssd130x.h ****         switch(height)
 263:../../libDaisy//src/dev/oled_ssd130x.h ****         {
 264:../../libDaisy//src/dev/oled_ssd130x.h ****             case 16:
 265:../../libDaisy//src/dev/oled_ssd130x.h ****                 // Display Clock Divide Ratio
 266:../../libDaisy//src/dev/oled_ssd130x.h ****                 transport_.SendCommand(0xD5);
 267:../../libDaisy//src/dev/oled_ssd130x.h ****                 transport_.SendCommand(0x60);
 268:../../libDaisy//src/dev/oled_ssd130x.h ****                 // Multiplex Ratio
 269:../../libDaisy//src/dev/oled_ssd130x.h ****                 transport_.SendCommand(0xA8);
ARM GAS  /var/folders/hl/qgbwny5j0fd895c2c41bk3tw0000gp/T//ccRMOALe.s 			page 20


 270:../../libDaisy//src/dev/oled_ssd130x.h ****                 transport_.SendCommand(0x0F);
 271:../../libDaisy//src/dev/oled_ssd130x.h ****                 // COM Pins
 272:../../libDaisy//src/dev/oled_ssd130x.h ****                 transport_.SendCommand(0xDA);
 273:../../libDaisy//src/dev/oled_ssd130x.h ****                 transport_.SendCommand(0x02);
 274:../../libDaisy//src/dev/oled_ssd130x.h ****                 break;
 275:../../libDaisy//src/dev/oled_ssd130x.h ****             case 32:
 276:../../libDaisy//src/dev/oled_ssd130x.h ****                 // Display Clock Divide Ratio
 277:../../libDaisy//src/dev/oled_ssd130x.h ****                 transport_.SendCommand(0xD5);
 278:../../libDaisy//src/dev/oled_ssd130x.h ****                 transport_.SendCommand(0x80);
 279:../../libDaisy//src/dev/oled_ssd130x.h ****                 // Multiplex Ratio
 280:../../libDaisy//src/dev/oled_ssd130x.h ****                 transport_.SendCommand(0xA8);
 281:../../libDaisy//src/dev/oled_ssd130x.h ****                 transport_.SendCommand(0x1F);
 282:../../libDaisy//src/dev/oled_ssd130x.h ****                 // COM Pins
 283:../../libDaisy//src/dev/oled_ssd130x.h ****                 transport_.SendCommand(0xDA);
 284:../../libDaisy//src/dev/oled_ssd130x.h ****                 if(width == 64)
 285:../../libDaisy//src/dev/oled_ssd130x.h ****                 {
 286:../../libDaisy//src/dev/oled_ssd130x.h ****                     transport_.SendCommand(0x12);
 287:../../libDaisy//src/dev/oled_ssd130x.h ****                 }
 288:../../libDaisy//src/dev/oled_ssd130x.h ****                 else
 289:../../libDaisy//src/dev/oled_ssd130x.h ****                 {
 290:../../libDaisy//src/dev/oled_ssd130x.h ****                     transport_.SendCommand(0x02);
 291:../../libDaisy//src/dev/oled_ssd130x.h ****                 }
 292:../../libDaisy//src/dev/oled_ssd130x.h **** 
 293:../../libDaisy//src/dev/oled_ssd130x.h ****                 break;
 294:../../libDaisy//src/dev/oled_ssd130x.h ****             case 48:
 295:../../libDaisy//src/dev/oled_ssd130x.h ****                 // Display Clock Divide Ratio
 296:../../libDaisy//src/dev/oled_ssd130x.h ****                 transport_.SendCommand(0xD5);
 297:../../libDaisy//src/dev/oled_ssd130x.h ****                 transport_.SendCommand(0x80);
 298:../../libDaisy//src/dev/oled_ssd130x.h ****                 // Multiplex Ratio
 299:../../libDaisy//src/dev/oled_ssd130x.h ****                 transport_.SendCommand(0xA8);
 300:../../libDaisy//src/dev/oled_ssd130x.h ****                 transport_.SendCommand(0x2F);
 301:../../libDaisy//src/dev/oled_ssd130x.h ****                 // COM Pins
 302:../../libDaisy//src/dev/oled_ssd130x.h ****                 transport_.SendCommand(0xDA);
 303:../../libDaisy//src/dev/oled_ssd130x.h ****                 transport_.SendCommand(0x12);
 304:../../libDaisy//src/dev/oled_ssd130x.h ****                 break;
 305:../../libDaisy//src/dev/oled_ssd130x.h ****             default: // 128
 306:../../libDaisy//src/dev/oled_ssd130x.h ****                 // Display Clock Divide Ratio
 307:../../libDaisy//src/dev/oled_ssd130x.h ****                 transport_.SendCommand(0xD5);
 308:../../libDaisy//src/dev/oled_ssd130x.h ****                 transport_.SendCommand(0x80);
 309:../../libDaisy//src/dev/oled_ssd130x.h ****                 // Multiplex Ratio
 310:../../libDaisy//src/dev/oled_ssd130x.h ****                 transport_.SendCommand(0xA8);
 311:../../libDaisy//src/dev/oled_ssd130x.h ****                 transport_.SendCommand(0x3F);
 312:../../libDaisy//src/dev/oled_ssd130x.h ****                 // COM Pins
 313:../../libDaisy//src/dev/oled_ssd130x.h ****                 transport_.SendCommand(0xDA);
 314:../../libDaisy//src/dev/oled_ssd130x.h ****                 transport_.SendCommand(0x12);
 315:../../libDaisy//src/dev/oled_ssd130x.h ****                 break;
 316:../../libDaisy//src/dev/oled_ssd130x.h ****         }
 317:../../libDaisy//src/dev/oled_ssd130x.h **** 
 318:../../libDaisy//src/dev/oled_ssd130x.h ****         // Display Offset
 319:../../libDaisy//src/dev/oled_ssd130x.h ****         transport_.SendCommand(0xD3);
 320:../../libDaisy//src/dev/oled_ssd130x.h ****         transport_.SendCommand(0x00);
 321:../../libDaisy//src/dev/oled_ssd130x.h ****         // Start Line Address
 322:../../libDaisy//src/dev/oled_ssd130x.h ****         transport_.SendCommand(0x40);
 323:../../libDaisy//src/dev/oled_ssd130x.h ****         // Normal Display
 324:../../libDaisy//src/dev/oled_ssd130x.h ****         transport_.SendCommand(0xA6);
 325:../../libDaisy//src/dev/oled_ssd130x.h ****         // All On Resume
 326:../../libDaisy//src/dev/oled_ssd130x.h ****         transport_.SendCommand(0xA4);
ARM GAS  /var/folders/hl/qgbwny5j0fd895c2c41bk3tw0000gp/T//ccRMOALe.s 			page 21


 327:../../libDaisy//src/dev/oled_ssd130x.h ****         // Charge Pump
 328:../../libDaisy//src/dev/oled_ssd130x.h ****         transport_.SendCommand(0x8D);
 329:../../libDaisy//src/dev/oled_ssd130x.h ****         transport_.SendCommand(0x14);
 330:../../libDaisy//src/dev/oled_ssd130x.h ****         // Set Segment Remap
 331:../../libDaisy//src/dev/oled_ssd130x.h ****         transport_.SendCommand(0xA1);
 332:../../libDaisy//src/dev/oled_ssd130x.h ****         // COM Output Scan Direction
 333:../../libDaisy//src/dev/oled_ssd130x.h ****         transport_.SendCommand(0xC8);
 334:../../libDaisy//src/dev/oled_ssd130x.h ****         // Contrast Control
 335:../../libDaisy//src/dev/oled_ssd130x.h ****         transport_.SendCommand(0x81);
 336:../../libDaisy//src/dev/oled_ssd130x.h ****         transport_.SendCommand(0x8F);
 337:../../libDaisy//src/dev/oled_ssd130x.h ****         // Pre Charge
 338:../../libDaisy//src/dev/oled_ssd130x.h ****         transport_.SendCommand(0xD9);
 339:../../libDaisy//src/dev/oled_ssd130x.h ****         transport_.SendCommand(0x25);
 340:../../libDaisy//src/dev/oled_ssd130x.h ****         // VCOM Detect
 341:../../libDaisy//src/dev/oled_ssd130x.h ****         transport_.SendCommand(0xDB);
 342:../../libDaisy//src/dev/oled_ssd130x.h ****         transport_.SendCommand(0x34);
 343:../../libDaisy//src/dev/oled_ssd130x.h **** 
 344:../../libDaisy//src/dev/oled_ssd130x.h **** 
 345:../../libDaisy//src/dev/oled_ssd130x.h ****         // Display On
 346:../../libDaisy//src/dev/oled_ssd130x.h ****         transport_.SendCommand(0xAF); //--turn on oled panel
 347:../../libDaisy//src/dev/oled_ssd130x.h ****     };
 348:../../libDaisy//src/dev/oled_ssd130x.h **** 
 349:../../libDaisy//src/dev/oled_ssd130x.h ****     size_t Width() const { return width; };
 350:../../libDaisy//src/dev/oled_ssd130x.h ****     size_t Height() const { return height; };
 351:../../libDaisy//src/dev/oled_ssd130x.h **** 
 352:../../libDaisy//src/dev/oled_ssd130x.h ****     void DrawPixel(uint_fast8_t x, uint_fast8_t y, bool on)
 353:../../libDaisy//src/dev/oled_ssd130x.h ****     {
 354:../../libDaisy//src/dev/oled_ssd130x.h ****         if(x >= width || y >= height)
 355:../../libDaisy//src/dev/oled_ssd130x.h ****             return;
 356:../../libDaisy//src/dev/oled_ssd130x.h ****         if(on)
 357:../../libDaisy//src/dev/oled_ssd130x.h ****             buffer_[x + (y / 8) * width] |= (1 << (y % 8));
 358:../../libDaisy//src/dev/oled_ssd130x.h ****         else
 359:../../libDaisy//src/dev/oled_ssd130x.h ****             buffer_[x + (y / 8) * width] &= ~(1 << (y % 8));
 360:../../libDaisy//src/dev/oled_ssd130x.h ****     }
 361:../../libDaisy//src/dev/oled_ssd130x.h **** 
 362:../../libDaisy//src/dev/oled_ssd130x.h ****     void Fill(bool on)
 138              		.loc 10 362 10 view .LVU22
 139              	.LBB437:
 363:../../libDaisy//src/dev/oled_ssd130x.h ****     {
 364:../../libDaisy//src/dev/oled_ssd130x.h ****         for(size_t i = 0; i < sizeof(buffer_); i++)
 140              		.loc 10 364 29 view .LVU23
 365:../../libDaisy//src/dev/oled_ssd130x.h ****         {
 366:../../libDaisy//src/dev/oled_ssd130x.h ****             buffer_[i] = on ? 0xff : 0x00;
 141              		.loc 10 366 24 is_stmt 0 view .LVU24
 142 0000 4942     		rsbs	r1, r1, #0
 143              	.LVL3:
 144              		.loc 10 366 24 view .LVU25
 145 0002 4FF48062 		mov	r2, #1024
 146 0006 1030     		adds	r0, r0, #16
 147              	.LVL4:
 148              		.loc 10 366 24 view .LVU26
 149 0008 C9B2     		uxtb	r1, r1
 150 000a FFF7FEBF 		b	memset
 151              	.LVL5:
 152              		.loc 10 366 24 view .LVU27
 153              	.LBE437:
 154              	.LBE436:
ARM GAS  /var/folders/hl/qgbwny5j0fd895c2c41bk3tw0000gp/T//ccRMOALe.s 			page 22


 155              		.cfi_endproc
 156              	.LFE5143:
 158 000e 00BF     		.section	.text._ZN5daisy9Patch_BayD2Ev,"axG",%progbits,_ZN5daisy9Patch_BayD5Ev,comdat
 159              		.align	1
 160              		.p2align 2,,3
 161              		.weak	_ZN5daisy9Patch_BayD2Ev
 162              		.syntax unified
 163              		.thumb
 164              		.thumb_func
 165              		.fpu fpv5-d16
 167              	_ZN5daisy9Patch_BayD2Ev:
 168              	.LVL6:
 169              	.LFB5414:
 170              		.file 11 "patch_bay.h"
   1:patch_bay.h   **** #pragma once 
   2:patch_bay.h   **** #ifndef PATCH_BAY_BSP_H
   3:patch_bay.h   **** #define PATCH_BAY_BSP_H
   4:patch_bay.h   **** 
   5:patch_bay.h   **** #include "daisy.h"
   6:patch_bay.h   **** #include "daisy_patch_sm.h"
   7:patch_bay.h   **** #include "dev/oled_ssd130x.h"
   8:patch_bay.h   **** 
   9:patch_bay.h   **** using namespace daisy;
  10:patch_bay.h   **** using namespace patch_sm;
  11:patch_bay.h   **** 
  12:patch_bay.h   **** namespace daisy {
  13:patch_bay.h   **** 
  14:patch_bay.h   **** class Patch_Bay
 171              		.loc 11 14 7 is_stmt 1 view -0
 172              		.cfi_startproc
 173              		@ args = 0, pretend = 0, frame = 0
 174              		@ frame_needed = 0, uses_anonymous_args = 0
 175              		@ link register save eliminated.
 176              	.LBB438:
 177              	.LBI438:
 178              		.file 12 "../../libDaisy//src/hid/led.h"
   1:../../libDaisy//src/hid/led.h **** 
   2:../../libDaisy//src/hid/led.h **** #pragma once
   3:../../libDaisy//src/hid/led.h **** #ifndef DSY_LED_H
   4:../../libDaisy//src/hid/led.h **** #define DSY_LED_H
   5:../../libDaisy//src/hid/led.h **** #include "daisy_core.h"
   6:../../libDaisy//src/hid/led.h **** #include "per/gpio.h"
   7:../../libDaisy//src/hid/led.h **** 
   8:../../libDaisy//src/hid/led.h **** /* TODO - Get this set up to work with the dev_leddriver stuff as well
   9:../../libDaisy//src/hid/led.h **** - Setup Hardware PWM for pins that have it
  10:../../libDaisy//src/hid/led.h **** */
  11:../../libDaisy//src/hid/led.h **** 
  12:../../libDaisy//src/hid/led.h **** namespace daisy
  13:../../libDaisy//src/hid/led.h **** {
  14:../../libDaisy//src/hid/led.h **** /**
  15:../../libDaisy//src/hid/led.h ****     @brief LED Class providing simple Software PWM ability, etc \n 
  16:../../libDaisy//src/hid/led.h ****     Eventually this will work with hardware PWM, and external LED Driver devices as well.
  17:../../libDaisy//src/hid/led.h ****     @author shensley
  18:../../libDaisy//src/hid/led.h ****     @date March 2020
  19:../../libDaisy//src/hid/led.h ****     @ingroup feedback
  20:../../libDaisy//src/hid/led.h **** */
  21:../../libDaisy//src/hid/led.h **** class Led
ARM GAS  /var/folders/hl/qgbwny5j0fd895c2c41bk3tw0000gp/T//ccRMOALe.s 			page 23


  22:../../libDaisy//src/hid/led.h **** {
  23:../../libDaisy//src/hid/led.h ****   public:
  24:../../libDaisy//src/hid/led.h ****     Led() {}
  25:../../libDaisy//src/hid/led.h ****     ~Led() {}
 179              		.loc 12 25 5 view .LVU29
 180              		.loc 12 25 5 is_stmt 0 view .LVU30
 181              	.LBE438:
 182              	.LBB439:
 183              	.LBI439:
 184              		.loc 12 25 5 is_stmt 1 view .LVU31
 185              		.loc 12 25 5 is_stmt 0 view .LVU32
 186              	.LBE439:
 187              	.LBB440:
 188              	.LBI440:
 189              		.loc 12 25 5 is_stmt 1 view .LVU33
 190              		.loc 12 25 5 is_stmt 0 view .LVU34
 191              	.LBE440:
 192              	.LBB441:
 193              	.LBI441:
  18:../../libDaisy//src/hid/disp/oled_display.h **** 
 194              		.loc 8 18 13 is_stmt 1 view .LVU35
 195              	.LBB442:
 196              	.LBI442:
 197              		.loc 9 219 13 view .LVU36
 198              	.LBB443:
 199              	.LBI443:
  23:../../libDaisy//src/hid/disp/display.h **** 
 200              		.loc 9 23 13 view .LVU37
  23:../../libDaisy//src/hid/disp/display.h **** 
 201              		.loc 9 23 13 is_stmt 0 view .LVU38
 202              	.LBE443:
 203              	.LBE442:
 204              	.LBE441:
 205              	.LBB444:
 206              	.LBI444:
 207              		.file 13 "../../libDaisy//src/hid/encoder.h"
   1:../../libDaisy//src/hid/encoder.h **** #pragma once
   2:../../libDaisy//src/hid/encoder.h **** #ifndef DSY_ENCODER_H
   3:../../libDaisy//src/hid/encoder.h **** #define DSY_ENCODER_H
   4:../../libDaisy//src/hid/encoder.h **** #include "daisy_core.h"
   5:../../libDaisy//src/hid/encoder.h **** #include "per/gpio.h"
   6:../../libDaisy//src/hid/encoder.h **** #include "hid/switch.h"
   7:../../libDaisy//src/hid/encoder.h **** 
   8:../../libDaisy//src/hid/encoder.h **** namespace daisy
   9:../../libDaisy//src/hid/encoder.h **** {
  10:../../libDaisy//src/hid/encoder.h **** /** 
  11:../../libDaisy//src/hid/encoder.h ****     @brief Generic Class for handling Quadrature Encoders \n 
  12:../../libDaisy//src/hid/encoder.h ****     Inspired/influenced by Mutable Instruments (pichenettes) Encoder classes
  13:../../libDaisy//src/hid/encoder.h ****     @author Stephen Hensley
  14:../../libDaisy//src/hid/encoder.h ****     @date December 2019
  15:../../libDaisy//src/hid/encoder.h ****     @ingroup controls
  16:../../libDaisy//src/hid/encoder.h **** */
  17:../../libDaisy//src/hid/encoder.h **** class Encoder
  18:../../libDaisy//src/hid/encoder.h **** {
  19:../../libDaisy//src/hid/encoder.h ****   public:
  20:../../libDaisy//src/hid/encoder.h ****     Encoder() {}
  21:../../libDaisy//src/hid/encoder.h ****     ~Encoder() {}
ARM GAS  /var/folders/hl/qgbwny5j0fd895c2c41bk3tw0000gp/T//ccRMOALe.s 			page 24


 208              		.loc 13 21 5 is_stmt 1 view .LVU39
 209              	.LBB445:
 210              	.LBI445:
 211              		.file 14 "../../libDaisy//src/hid/switch.h"
   1:../../libDaisy//src/hid/switch.h **** #pragma once
   2:../../libDaisy//src/hid/switch.h **** #ifndef DSY_SWITCH_H
   3:../../libDaisy//src/hid/switch.h **** #define DSY_SWITCH_H
   4:../../libDaisy//src/hid/switch.h **** #include "daisy_core.h"
   5:../../libDaisy//src/hid/switch.h **** #include "per/gpio.h"
   6:../../libDaisy//src/hid/switch.h **** #include "sys/system.h"
   7:../../libDaisy//src/hid/switch.h **** 
   8:../../libDaisy//src/hid/switch.h **** namespace daisy
   9:../../libDaisy//src/hid/switch.h **** {
  10:../../libDaisy//src/hid/switch.h **** /** 
  11:../../libDaisy//src/hid/switch.h ****     Generic Class for handling momentary/latching switches \n 
  12:../../libDaisy//src/hid/switch.h ****     Inspired/influenced by Mutable Instruments (pichenettes) Switch classes
  13:../../libDaisy//src/hid/switch.h ****     @author Stephen Hensley
  14:../../libDaisy//src/hid/switch.h ****     @date December 2019
  15:../../libDaisy//src/hid/switch.h ****     @ingroup controls
  16:../../libDaisy//src/hid/switch.h **** */
  17:../../libDaisy//src/hid/switch.h **** class Switch
  18:../../libDaisy//src/hid/switch.h **** {
  19:../../libDaisy//src/hid/switch.h ****   public:
  20:../../libDaisy//src/hid/switch.h ****     /** Specifies the expected behavior of the switch */
  21:../../libDaisy//src/hid/switch.h ****     enum Type
  22:../../libDaisy//src/hid/switch.h ****     {
  23:../../libDaisy//src/hid/switch.h ****         TYPE_TOGGLE,    /**< & */
  24:../../libDaisy//src/hid/switch.h ****         TYPE_MOMENTARY, /**< & */
  25:../../libDaisy//src/hid/switch.h ****     };
  26:../../libDaisy//src/hid/switch.h ****     /** Specifies whether the pressed is HIGH or LOW. */
  27:../../libDaisy//src/hid/switch.h ****     enum Polarity
  28:../../libDaisy//src/hid/switch.h ****     {
  29:../../libDaisy//src/hid/switch.h ****         POLARITY_NORMAL,   /**< & */
  30:../../libDaisy//src/hid/switch.h ****         POLARITY_INVERTED, /**< & */
  31:../../libDaisy//src/hid/switch.h ****     };
  32:../../libDaisy//src/hid/switch.h **** 
  33:../../libDaisy//src/hid/switch.h ****     /** Specifies whether to use built-in Pull Up/Down resistors to hold button at a given state wh
  34:../../libDaisy//src/hid/switch.h ****     enum Pull
  35:../../libDaisy//src/hid/switch.h ****     {
  36:../../libDaisy//src/hid/switch.h ****         PULL_UP,   /**< & */
  37:../../libDaisy//src/hid/switch.h ****         PULL_DOWN, /**< & */
  38:../../libDaisy//src/hid/switch.h ****         PULL_NONE, /**< & */
  39:../../libDaisy//src/hid/switch.h ****     };
  40:../../libDaisy//src/hid/switch.h **** 
  41:../../libDaisy//src/hid/switch.h ****     Switch() {}
  42:../../libDaisy//src/hid/switch.h ****     ~Switch() {}
 212              		.loc 14 42 5 view .LVU40
 213              		.loc 14 42 5 is_stmt 0 view .LVU41
 214              	.LBE445:
 215              	.LBE444:
 216              	.LBB446:
 217              	.LBI446:
 218              		.loc 14 42 5 is_stmt 1 view .LVU42
 219              		.loc 14 42 5 is_stmt 0 view .LVU43
 220              	.LBE446:
 221              	.LBB447:
 222              	.LBI447:
ARM GAS  /var/folders/hl/qgbwny5j0fd895c2c41bk3tw0000gp/T//ccRMOALe.s 			page 25


 223              		.file 15 "../../libDaisy//src/per/sdmmc.h"
   1:../../libDaisy//src/per/sdmmc.h **** /*
   2:../../libDaisy//src/per/sdmmc.h **** TODO: 
   3:../../libDaisy//src/per/sdmmc.h **** - Implement configuration (currently all settings are fixed).
   4:../../libDaisy//src/per/sdmmc.h **** */
   5:../../libDaisy//src/per/sdmmc.h **** #pragma once
   6:../../libDaisy//src/per/sdmmc.h **** #ifndef DSY_SDMMC_H
   7:../../libDaisy//src/per/sdmmc.h **** #define DSY_SDMMC_H /**< macro */
   8:../../libDaisy//src/per/sdmmc.h **** 
   9:../../libDaisy//src/per/sdmmc.h **** #include <stdint.h>
  10:../../libDaisy//src/per/sdmmc.h **** 
  11:../../libDaisy//src/per/sdmmc.h **** 
  12:../../libDaisy//src/per/sdmmc.h **** namespace daisy
  13:../../libDaisy//src/per/sdmmc.h **** {
  14:../../libDaisy//src/per/sdmmc.h **** /** @ingroup peripheral
  15:../../libDaisy//src/per/sdmmc.h ****     @{
  16:../../libDaisy//src/per/sdmmc.h ****     */
  17:../../libDaisy//src/per/sdmmc.h **** 
  18:../../libDaisy//src/per/sdmmc.h **** /** Configuration for interfacing with SD cards.
  19:../../libDaisy//src/per/sdmmc.h ****  *  Currently only supports operation using FatFS filesystem
  20:../../libDaisy//src/per/sdmmc.h ****  * 
  21:../../libDaisy//src/per/sdmmc.h ****  *  Only SDMMC1 is supported at this time.
  22:../../libDaisy//src/per/sdmmc.h ****  *
  23:../../libDaisy//src/per/sdmmc.h ****  *  Pins are fixed to the following:
  24:../../libDaisy//src/per/sdmmc.h ****  *  PC12 - SDMMC1 CK
  25:../../libDaisy//src/per/sdmmc.h ****  *  PD2  - SDMMC1 CMD
  26:../../libDaisy//src/per/sdmmc.h ****  *  PC8  - SDMMC1 D0
  27:../../libDaisy//src/per/sdmmc.h ****  *  PC9  - SDMMC1 D1 (optional)
  28:../../libDaisy//src/per/sdmmc.h ****  *  PC10 - SDMMC1 D2 (optional)
  29:../../libDaisy//src/per/sdmmc.h ****  *  PC11 - SDMMC1 D3 (optional)
  30:../../libDaisy//src/per/sdmmc.h **** */
  31:../../libDaisy//src/per/sdmmc.h **** class SdmmcHandler
  32:../../libDaisy//src/per/sdmmc.h **** {
  33:../../libDaisy//src/per/sdmmc.h ****   public:
  34:../../libDaisy//src/per/sdmmc.h ****     /** Return values for the SdmmcHandler class */
  35:../../libDaisy//src/per/sdmmc.h ****     enum class Result
  36:../../libDaisy//src/per/sdmmc.h ****     {
  37:../../libDaisy//src/per/sdmmc.h ****         OK,
  38:../../libDaisy//src/per/sdmmc.h ****         ERROR,
  39:../../libDaisy//src/per/sdmmc.h ****     };
  40:../../libDaisy//src/per/sdmmc.h **** 
  41:../../libDaisy//src/per/sdmmc.h ****     /** Sets whether 4-bit mode or 1-bit mode is used for the SDMMC */
  42:../../libDaisy//src/per/sdmmc.h ****     enum class BusWidth
  43:../../libDaisy//src/per/sdmmc.h ****     {
  44:../../libDaisy//src/per/sdmmc.h ****         BITS_1, /**< Only 1 bit of data per clock is transferred */
  45:../../libDaisy//src/per/sdmmc.h ****         BITS_4, /**< 4-bits of parallel data for each clock pulse */
  46:../../libDaisy//src/per/sdmmc.h ****     };
  47:../../libDaisy//src/per/sdmmc.h **** 
  48:../../libDaisy//src/per/sdmmc.h ****     /** 
  49:../../libDaisy//src/per/sdmmc.h ****     Sets the desired clock speed of the SD card bus. \n 
  50:../../libDaisy//src/per/sdmmc.h ****     Initialization is always done at or below 400kHz, and then the user speed is set.
  51:../../libDaisy//src/per/sdmmc.h ****     */
  52:../../libDaisy//src/per/sdmmc.h ****     enum class Speed
  53:../../libDaisy//src/per/sdmmc.h ****     {
  54:../../libDaisy//src/per/sdmmc.h ****         SLOW, /**< 400kHz, initialization  performed at this rate, before moving to user value */
  55:../../libDaisy//src/per/sdmmc.h ****         MEDIUM_SLOW, /**< 12.5MHz - half of standard rate */
  56:../../libDaisy//src/per/sdmmc.h ****         STANDARD,    /**< 25MHz - DS (Default Speed for SDMMC) */
ARM GAS  /var/folders/hl/qgbwny5j0fd895c2c41bk3tw0000gp/T//ccRMOALe.s 			page 26


  57:../../libDaisy//src/per/sdmmc.h ****         FAST,        /**< 50MHz - HS (High Speed signaling) */
  58:../../libDaisy//src/per/sdmmc.h ****         VERY_FAST, /**< 100MHz - SDR50 Overclocked rate for maximum transfer rates */
  59:../../libDaisy//src/per/sdmmc.h ****     };
  60:../../libDaisy//src/per/sdmmc.h **** 
  61:../../libDaisy//src/per/sdmmc.h ****     struct Config
  62:../../libDaisy//src/per/sdmmc.h ****     {
  63:../../libDaisy//src/per/sdmmc.h ****         Speed    speed;
  64:../../libDaisy//src/per/sdmmc.h ****         BusWidth width;
  65:../../libDaisy//src/per/sdmmc.h ****         bool
  66:../../libDaisy//src/per/sdmmc.h ****             clock_powersave; /**< When true, the clock will stop between transfers to save power. *
  67:../../libDaisy//src/per/sdmmc.h **** 
  68:../../libDaisy//src/per/sdmmc.h ****         /** Configures settings to their default settings */
  69:../../libDaisy//src/per/sdmmc.h ****         void Defaults()
  70:../../libDaisy//src/per/sdmmc.h ****         {
  71:../../libDaisy//src/per/sdmmc.h ****             speed           = Speed::FAST;
  72:../../libDaisy//src/per/sdmmc.h ****             width           = BusWidth::BITS_4;
  73:../../libDaisy//src/per/sdmmc.h ****             clock_powersave = false;
  74:../../libDaisy//src/per/sdmmc.h ****         }
  75:../../libDaisy//src/per/sdmmc.h ****     };
  76:../../libDaisy//src/per/sdmmc.h **** 
  77:../../libDaisy//src/per/sdmmc.h ****     SdmmcHandler() {}
  78:../../libDaisy//src/per/sdmmc.h ****     ~SdmmcHandler() {}
 224              		.loc 15 78 5 is_stmt 1 view .LVU44
 225              		.loc 15 78 5 is_stmt 0 view .LVU45
 226              	.LBE447:
 227              		.loc 11 14 7 view .LVU46
 228 0000 7047     		bx	lr
 229              		.cfi_endproc
 230              	.LFE5414:
 232              		.weak	_ZN5daisy9Patch_BayD1Ev
 233              		.thumb_set _ZN5daisy9Patch_BayD1Ev,_ZN5daisy9Patch_BayD2Ev
 234 0002 00BF     		.section	.text._ZNK5daisy11OledDisplayINS_13SSD130xDriverILj128ELj64ENS_19SSD130xI2CTransportEEEE6
 235              		.align	1
 236              		.p2align 2,,3
 237              		.weak	_ZNK5daisy11OledDisplayINS_13SSD130xDriverILj128ELj64ENS_19SSD130xI2CTransportEEEE6HeightEv
 238              		.syntax unified
 239              		.thumb
 240              		.thumb_func
 241              		.fpu fpv5-d16
 243              	_ZNK5daisy11OledDisplayINS_13SSD130xDriverILj128ELj64ENS_19SSD130xI2CTransportEEEE6HeightEv:
 244              	.LVL7:
 245              	.LFB5416:
  27:../../libDaisy//src/hid/disp/oled_display.h ****     uint16_t Width() const override { return driver_.Width(); }
 246              		.loc 8 27 14 is_stmt 1 view -0
 247              		.cfi_startproc
 248              		@ args = 0, pretend = 0, frame = 0
 249              		@ frame_needed = 0, uses_anonymous_args = 0
 250              		@ link register save eliminated.
  27:../../libDaisy//src/hid/disp/oled_display.h ****     uint16_t Width() const override { return driver_.Width(); }
 251              		.loc 8 27 65 is_stmt 0 view .LVU48
 252 0000 4020     		movs	r0, #64
 253              	.LVL8:
  27:../../libDaisy//src/hid/disp/oled_display.h ****     uint16_t Width() const override { return driver_.Width(); }
 254              		.loc 8 27 65 view .LVU49
 255 0002 7047     		bx	lr
 256              		.cfi_endproc
 257              	.LFE5416:
ARM GAS  /var/folders/hl/qgbwny5j0fd895c2c41bk3tw0000gp/T//ccRMOALe.s 			page 27


 259              		.section	.text._ZNK5daisy11OledDisplayINS_13SSD130xDriverILj128ELj64ENS_19SSD130xI2CTransportEEEE5
 260              		.align	1
 261              		.p2align 2,,3
 262              		.weak	_ZNK5daisy11OledDisplayINS_13SSD130xDriverILj128ELj64ENS_19SSD130xI2CTransportEEEE5WidthEv
 263              		.syntax unified
 264              		.thumb
 265              		.thumb_func
 266              		.fpu fpv5-d16
 268              	_ZNK5daisy11OledDisplayINS_13SSD130xDriverILj128ELj64ENS_19SSD130xI2CTransportEEEE5WidthEv:
 269              	.LVL9:
 270              	.LFB5417:
  28:../../libDaisy//src/hid/disp/oled_display.h **** 
 271              		.loc 8 28 14 is_stmt 1 view -0
 272              		.cfi_startproc
 273              		@ args = 0, pretend = 0, frame = 0
 274              		@ frame_needed = 0, uses_anonymous_args = 0
 275              		@ link register save eliminated.
  28:../../libDaisy//src/hid/disp/oled_display.h **** 
 276              		.loc 8 28 63 is_stmt 0 view .LVU51
 277 0000 8020     		movs	r0, #128
 278              	.LVL10:
  28:../../libDaisy//src/hid/disp/oled_display.h **** 
 279              		.loc 8 28 63 view .LVU52
 280 0002 7047     		bx	lr
 281              		.cfi_endproc
 282              	.LFE5417:
 284              		.section	.text._Z13AudioCallbackPKPKfPPfj,"ax",%progbits
 285              		.align	1
 286              		.p2align 2,,3
 287              		.global	_Z13AudioCallbackPKPKfPPfj
 288              		.syntax unified
 289              		.thumb
 290              		.thumb_func
 291              		.fpu fpv5-d16
 293              	_Z13AudioCallbackPKPKfPPfj:
 294              	.LVL11:
 295              	.LFB4824:
 296              		.file 16 "PatchBay.cpp"
   1:PatchBay.cpp  **** #include "daisy_patch_sm.h"
   2:PatchBay.cpp  **** #include "daisysp.h"
   3:PatchBay.cpp  **** #include "patch_bay.h"
   4:PatchBay.cpp  **** 
   5:PatchBay.cpp  **** using namespace daisy;
   6:PatchBay.cpp  **** using namespace patch_sm;
   7:PatchBay.cpp  **** using namespace daisysp;
   8:PatchBay.cpp  **** 
   9:PatchBay.cpp  **** DaisyPatchSM hw;
  10:PatchBay.cpp  **** Patch_Bay    pb;
  11:PatchBay.cpp  **** 
  12:PatchBay.cpp  **** void AudioCallback(AudioHandle::InputBuffer in, AudioHandle::OutputBuffer out, size_t size)
  13:PatchBay.cpp  **** {
 297              		.loc 16 13 1 is_stmt 1 view -0
 298              		.cfi_startproc
 299              		@ args = 0, pretend = 0, frame = 0
 300              		@ frame_needed = 0, uses_anonymous_args = 0
  14:PatchBay.cpp  **** 	hw.ProcessAllControls();
 301              		.loc 16 14 2 view .LVU54
ARM GAS  /var/folders/hl/qgbwny5j0fd895c2c41bk3tw0000gp/T//ccRMOALe.s 			page 28


 302              	.LBB448:
 303              	.LBI448:
  66:../../libDaisy//src/daisy_patch_sm.h **** 
  67:../../libDaisy//src/daisy_patch_sm.h ****         /** Initializes the memories, and core peripherals for the Daisy Patch SM */
  68:../../libDaisy//src/daisy_patch_sm.h ****         void Init();
  69:../../libDaisy//src/daisy_patch_sm.h **** 
  70:../../libDaisy//src/daisy_patch_sm.h ****         /** Starts a non-interleaving audio callback */
  71:../../libDaisy//src/daisy_patch_sm.h ****         void StartAudio(AudioHandle::AudioCallback cb);
  72:../../libDaisy//src/daisy_patch_sm.h **** 
  73:../../libDaisy//src/daisy_patch_sm.h ****         /** Starts an interleaving audio callback */
  74:../../libDaisy//src/daisy_patch_sm.h ****         void StartAudio(AudioHandle::InterleavingAudioCallback cb);
  75:../../libDaisy//src/daisy_patch_sm.h **** 
  76:../../libDaisy//src/daisy_patch_sm.h ****         /** Changes the callback that is executing.
  77:../../libDaisy//src/daisy_patch_sm.h ****          *  This may cause clicks if done while audio is processing.
  78:../../libDaisy//src/daisy_patch_sm.h ****          */
  79:../../libDaisy//src/daisy_patch_sm.h ****         void ChangeAudioCallback(AudioHandle::AudioCallback cb);
  80:../../libDaisy//src/daisy_patch_sm.h **** 
  81:../../libDaisy//src/daisy_patch_sm.h ****         /** Changes the callback that is executing.
  82:../../libDaisy//src/daisy_patch_sm.h ****          *  This may cause clicks if done while audio is processing.
  83:../../libDaisy//src/daisy_patch_sm.h ****          */
  84:../../libDaisy//src/daisy_patch_sm.h ****         void ChangeAudioCallback(AudioHandle::InterleavingAudioCallback cb);
  85:../../libDaisy//src/daisy_patch_sm.h **** 
  86:../../libDaisy//src/daisy_patch_sm.h ****         /** Stops the transmission of audio. */
  87:../../libDaisy//src/daisy_patch_sm.h ****         void StopAudio();
  88:../../libDaisy//src/daisy_patch_sm.h **** 
  89:../../libDaisy//src/daisy_patch_sm.h ****         /** Sets the number of samples processed in an audio callback. 
  90:../../libDaisy//src/daisy_patch_sm.h ****          *  This will only take effect on the next invocation of `StartAudio`
  91:../../libDaisy//src/daisy_patch_sm.h ****          */
  92:../../libDaisy//src/daisy_patch_sm.h ****         void SetAudioBlockSize(size_t size);
  93:../../libDaisy//src/daisy_patch_sm.h **** 
  94:../../libDaisy//src/daisy_patch_sm.h ****         /** Sets the samplerate for the audio engine 
  95:../../libDaisy//src/daisy_patch_sm.h ****          *  This will set it to the closest valid samplerate. Options being:
  96:../../libDaisy//src/daisy_patch_sm.h ****          *  8kHz, 16kHz, 32kHz, 48kHz, and 96kHz
  97:../../libDaisy//src/daisy_patch_sm.h ****          */
  98:../../libDaisy//src/daisy_patch_sm.h ****         void SetAudioSampleRate(float sr);
  99:../../libDaisy//src/daisy_patch_sm.h **** 
 100:../../libDaisy//src/daisy_patch_sm.h ****         void SetAudioSampleRate(SaiHandle::Config::SampleRate sample_rate);
 101:../../libDaisy//src/daisy_patch_sm.h **** 
 102:../../libDaisy//src/daisy_patch_sm.h ****         /** Returns the number of samples processed in an audio callback */
 103:../../libDaisy//src/daisy_patch_sm.h ****         size_t AudioBlockSize();
 104:../../libDaisy//src/daisy_patch_sm.h **** 
 105:../../libDaisy//src/daisy_patch_sm.h ****         /** Returns the audio engine's samplerate in Hz */
 106:../../libDaisy//src/daisy_patch_sm.h ****         float AudioSampleRate();
 107:../../libDaisy//src/daisy_patch_sm.h **** 
 108:../../libDaisy//src/daisy_patch_sm.h ****         /** Returns the rate at which the audio callback will be called in Hz */
 109:../../libDaisy//src/daisy_patch_sm.h ****         float AudioCallbackRate();
 110:../../libDaisy//src/daisy_patch_sm.h **** 
 111:../../libDaisy//src/daisy_patch_sm.h ****         /** Starts the Control ADCs 
 112:../../libDaisy//src/daisy_patch_sm.h ****          * 
 113:../../libDaisy//src/daisy_patch_sm.h ****          *  This is started automatically when Init() is called.
 114:../../libDaisy//src/daisy_patch_sm.h ****          */
 115:../../libDaisy//src/daisy_patch_sm.h ****         void StartAdc();
 116:../../libDaisy//src/daisy_patch_sm.h **** 
 117:../../libDaisy//src/daisy_patch_sm.h ****         /** Stops the Control ADCs */
 118:../../libDaisy//src/daisy_patch_sm.h ****         void StopAdc();
 119:../../libDaisy//src/daisy_patch_sm.h **** 
 120:../../libDaisy//src/daisy_patch_sm.h ****         /** Reads and filters all of the analog control inputs */
ARM GAS  /var/folders/hl/qgbwny5j0fd895c2c41bk3tw0000gp/T//ccRMOALe.s 			page 29


 121:../../libDaisy//src/daisy_patch_sm.h ****         void ProcessAnalogControls();
 122:../../libDaisy//src/daisy_patch_sm.h **** 
 123:../../libDaisy//src/daisy_patch_sm.h ****         /** Reads and debounces any of the digital control inputs 
 124:../../libDaisy//src/daisy_patch_sm.h ****          *  This does nothing on this board at this time.
 125:../../libDaisy//src/daisy_patch_sm.h ****          */
 126:../../libDaisy//src/daisy_patch_sm.h ****         void ProcessDigitalControls();
 127:../../libDaisy//src/daisy_patch_sm.h **** 
 128:../../libDaisy//src/daisy_patch_sm.h ****         /** Does both of the above */
 129:../../libDaisy//src/daisy_patch_sm.h ****         void ProcessAllControls()
 304              		.loc 1 129 14 view .LVU55
 305              	.LBB449:
 130:../../libDaisy//src/daisy_patch_sm.h ****         {
 131:../../libDaisy//src/daisy_patch_sm.h ****             ProcessAnalogControls();
 306              		.loc 1 131 13 view .LVU56
 307              	.LBE449:
 308              	.LBE448:
  13:PatchBay.cpp  **** 	hw.ProcessAllControls();
 309              		.loc 16 13 1 is_stmt 0 view .LVU57
 310 0000 F8B5     		push	{r3, r4, r5, r6, r7, lr}
 311              		.cfi_def_cfa_offset 24
 312              		.cfi_offset 3, -24
 313              		.cfi_offset 4, -20
 314              		.cfi_offset 5, -16
 315              		.cfi_offset 6, -12
 316              		.cfi_offset 7, -8
 317              		.cfi_offset 14, -4
  13:PatchBay.cpp  **** 	hw.ProcessAllControls();
 318              		.loc 16 13 1 view .LVU58
 319 0002 1546     		mov	r5, r2
 320 0004 0746     		mov	r7, r0
 321              	.LBB452:
 322              	.LBB450:
 323              		.loc 1 131 34 view .LVU59
 324 0006 0C48     		ldr	r0, .L16
 325              	.LVL12:
 326              		.loc 1 131 34 view .LVU60
 327              	.LBE450:
 328              	.LBE452:
  13:PatchBay.cpp  **** 	hw.ProcessAllControls();
 329              		.loc 16 13 1 view .LVU61
 330 0008 0E46     		mov	r6, r1
 331              	.LBB453:
 332              	.LBB451:
 333              		.loc 1 131 34 view .LVU62
 334 000a FFF7FEFF 		bl	_ZN5daisy8patch_sm12DaisyPatchSM21ProcessAnalogControlsEv
 335              	.LVL13:
 132:../../libDaisy//src/daisy_patch_sm.h ****             ProcessDigitalControls();
 336              		.loc 1 132 13 is_stmt 1 view .LVU63
 337              		.loc 1 132 35 is_stmt 0 view .LVU64
 338 000e 0A48     		ldr	r0, .L16
 339 0010 FFF7FEFF 		bl	_ZN5daisy8patch_sm12DaisyPatchSM22ProcessDigitalControlsEv
 340              	.LVL14:
 341              		.loc 1 132 35 view .LVU65
 342              	.LBE451:
 343              	.LBE453:
  15:PatchBay.cpp  **** 	for (size_t i = 0; i < size; i++)
 344              		.loc 16 15 2 is_stmt 1 view .LVU66
ARM GAS  /var/folders/hl/qgbwny5j0fd895c2c41bk3tw0000gp/T//ccRMOALe.s 			page 30


 345              	.LBB454:
 346              		.loc 16 15 23 view .LVU67
 347 0014 7DB1     		cbz	r5, .L8
 348 0016 3B68     		ldr	r3, [r7]
 349 0018 3468     		ldr	r4, [r6]
 350 001a 7868     		ldr	r0, [r7, #4]
 351 001c 03EB850C 		add	ip, r3, r5, lsl #2
 352 0020 7168     		ldr	r1, [r6, #4]
 353              	.LVL15:
 354              	.L10:
  16:PatchBay.cpp  **** 	{
  17:PatchBay.cpp  **** 		OUT_L[i] = IN_L[i];
 355              		.loc 16 17 3 discriminator 2 view .LVU68
 356              		.loc 16 17 20 is_stmt 0 discriminator 2 view .LVU69
 357 0022 53F8042B 		ldr	r2, [r3], #4	@ float
 358              		.loc 16 17 12 discriminator 2 view .LVU70
 359 0026 44F8042B 		str	r2, [r4], #4	@ float
  18:PatchBay.cpp  **** 		OUT_R[i] = IN_R[i];
 360              		.loc 16 18 3 is_stmt 1 discriminator 2 view .LVU71
  15:PatchBay.cpp  **** 	for (size_t i = 0; i < size; i++)
 361              		.loc 16 15 23 is_stmt 0 discriminator 2 view .LVU72
 362 002a 6345     		cmp	r3, ip
 363              		.loc 16 18 20 discriminator 2 view .LVU73
 364 002c 50F8042B 		ldr	r2, [r0], #4	@ float
 365              		.loc 16 18 12 discriminator 2 view .LVU74
 366 0030 41F8042B 		str	r2, [r1], #4	@ float
  15:PatchBay.cpp  **** 	for (size_t i = 0; i < size; i++)
 367              		.loc 16 15 2 is_stmt 1 discriminator 2 view .LVU75
  15:PatchBay.cpp  **** 	for (size_t i = 0; i < size; i++)
 368              		.loc 16 15 23 discriminator 2 view .LVU76
 369 0034 F5D1     		bne	.L10
 370              	.L8:
 371              	.LBE454:
  19:PatchBay.cpp  **** 	}
  20:PatchBay.cpp  **** }
 372              		.loc 16 20 1 is_stmt 0 view .LVU77
 373 0036 F8BD     		pop	{r3, r4, r5, r6, r7, pc}
 374              	.LVL16:
 375              	.L17:
 376              		.loc 16 20 1 view .LVU78
 377              		.align	2
 378              	.L16:
 379 0038 00000000 		.word	.LANCHOR0
 380              		.cfi_endproc
 381              	.LFE4824:
 383              		.section	.text._ZN5daisy11OledDisplayINS_13SSD130xDriverILj128ELj64ENS_19SSD130xI2CTransportEEEED0
 384              		.align	1
 385              		.p2align 2,,3
 386              		.weak	_ZN5daisy11OledDisplayINS_13SSD130xDriverILj128ELj64ENS_19SSD130xI2CTransportEEEED0Ev
 387              		.syntax unified
 388              		.thumb
 389              		.thumb_func
 390              		.fpu fpv5-d16
 392              	_ZN5daisy11OledDisplayINS_13SSD130xDriverILj128ELj64ENS_19SSD130xI2CTransportEEEED0Ev:
 393              	.LVL17:
 394              	.LFB5142:
  18:../../libDaisy//src/hid/disp/oled_display.h **** 
ARM GAS  /var/folders/hl/qgbwny5j0fd895c2c41bk3tw0000gp/T//ccRMOALe.s 			page 31


 395              		.loc 8 18 13 is_stmt 1 view -0
 396              		.cfi_startproc
 397              		@ args = 0, pretend = 0, frame = 0
 398              		@ frame_needed = 0, uses_anonymous_args = 0
  18:../../libDaisy//src/hid/disp/oled_display.h **** 
 399              		.loc 8 18 13 is_stmt 0 view .LVU80
 400 0000 10B5     		push	{r4, lr}
 401              		.cfi_def_cfa_offset 8
 402              		.cfi_offset 4, -8
 403              		.cfi_offset 14, -4
  18:../../libDaisy//src/hid/disp/oled_display.h **** 
 404              		.loc 8 18 13 view .LVU81
 405 0002 0446     		mov	r4, r0
 406              	.LVL18:
 407              	.LBB455:
 408              	.LBI455:
  18:../../libDaisy//src/hid/disp/oled_display.h **** 
 409              		.loc 8 18 13 is_stmt 1 view .LVU82
 410              	.LBB456:
 411              	.LBI456:
 412              		.loc 9 219 13 view .LVU83
 413              	.LBB457:
 414              	.LBI457:
  23:../../libDaisy//src/hid/disp/display.h **** 
 415              		.loc 9 23 13 view .LVU84
  23:../../libDaisy//src/hid/disp/display.h **** 
 416              		.loc 9 23 13 is_stmt 0 view .LVU85
 417              	.LBE457:
 418              	.LBE456:
 419              	.LBE455:
  18:../../libDaisy//src/hid/disp/oled_display.h **** 
 420              		.loc 8 18 29 view .LVU86
 421 0004 4FF48261 		mov	r1, #1040
 422 0008 FFF7FEFF 		bl	_ZdlPvj
 423              	.LVL19:
  18:../../libDaisy//src/hid/disp/oled_display.h **** 
 424              		.loc 8 18 29 view .LVU87
 425 000c 2046     		mov	r0, r4
 426 000e 10BD     		pop	{r4, pc}
  18:../../libDaisy//src/hid/disp/oled_display.h **** 
 427              		.loc 8 18 29 view .LVU88
 428              		.cfi_endproc
 429              	.LFE5142:
 431              		.section	.text._ZN5daisy11OledDisplayINS_13SSD130xDriverILj128ELj64ENS_19SSD130xI2CTransportEEEE6U
 432              		.align	1
 433              		.p2align 2,,3
 434              		.weak	_ZN5daisy11OledDisplayINS_13SSD130xDriverILj128ELj64ENS_19SSD130xI2CTransportEEEE6UpdateEv
 435              		.syntax unified
 436              		.thumb
 437              		.thumb_func
 438              		.fpu fpv5-d16
 440              	_ZN5daisy11OledDisplayINS_13SSD130xDriverILj128ELj64ENS_19SSD130xI2CTransportEEEE6UpdateEv:
 441              	.LVL20:
 442              	.LFB5145:
  35:../../libDaisy//src/hid/disp/oled_display.h **** 
  36:../../libDaisy//src/hid/disp/oled_display.h ****     /**
  37:../../libDaisy//src/hid/disp/oled_display.h ****     Sets the pixel at the specified coordinate to be on/off.
ARM GAS  /var/folders/hl/qgbwny5j0fd895c2c41bk3tw0000gp/T//ccRMOALe.s 			page 32


  38:../../libDaisy//src/hid/disp/oled_display.h ****     \param x   x Coordinate
  39:../../libDaisy//src/hid/disp/oled_display.h ****     \param y   y coordinate
  40:../../libDaisy//src/hid/disp/oled_display.h ****     \param on  on or off
  41:../../libDaisy//src/hid/disp/oled_display.h ****     */
  42:../../libDaisy//src/hid/disp/oled_display.h ****     void DrawPixel(uint_fast8_t x, uint_fast8_t y, bool on) override
  43:../../libDaisy//src/hid/disp/oled_display.h ****     {
  44:../../libDaisy//src/hid/disp/oled_display.h ****         driver_.DrawPixel(x, y, on);
  45:../../libDaisy//src/hid/disp/oled_display.h ****     }
  46:../../libDaisy//src/hid/disp/oled_display.h **** 
  47:../../libDaisy//src/hid/disp/oled_display.h ****     /** 
  48:../../libDaisy//src/hid/disp/oled_display.h ****     Writes the current display buffer to the OLED device using SPI or I2C depending on 
  49:../../libDaisy//src/hid/disp/oled_display.h ****     how the object was initialized.
  50:../../libDaisy//src/hid/disp/oled_display.h ****     */
  51:../../libDaisy//src/hid/disp/oled_display.h ****     void Update() override { driver_.Update(); }
 443              		.loc 8 51 10 is_stmt 1 view -0
 444              		.cfi_startproc
 445              		@ args = 0, pretend = 0, frame = 8
 446              		@ frame_needed = 0, uses_anonymous_args = 0
 447              		.loc 8 51 10 is_stmt 0 view .LVU90
 448 0000 2DE9F04F 		push	{r4, r5, r6, r7, r8, r9, r10, fp, lr}
 449              		.cfi_def_cfa_offset 36
 450              		.cfi_offset 4, -36
 451              		.cfi_offset 5, -32
 452              		.cfi_offset 6, -28
 453              		.cfi_offset 7, -24
 454              		.cfi_offset 8, -20
 455              		.cfi_offset 9, -16
 456              		.cfi_offset 10, -12
 457              		.cfi_offset 11, -8
 458              		.cfi_offset 14, -4
 459              	.LBB470:
 460              	.LBB471:
 461              	.LBB472:
 462              	.LBB473:
  45:../../libDaisy//src/dev/oled_ssd130x.h ****     };
 463              		.loc 10 45 30 view .LVU91
 464 0004 4FF0B008 		mov	r8, #176
 465              	.LBE473:
 466              	.LBE472:
 467              	.LBE471:
 468              	.LBE470:
 469              		.loc 8 51 10 view .LVU92
 470 0008 85B0     		sub	sp, sp, #20
 471              		.cfi_def_cfa_offset 56
 472              		.loc 8 51 10 view .LVU93
 473 000a 0546     		mov	r5, r0
 474              	.LVL21:
 475              	.LBB485:
 476              	.LBI470:
 367:../../libDaisy//src/dev/oled_ssd130x.h ****         }
 368:../../libDaisy//src/dev/oled_ssd130x.h ****     };
 369:../../libDaisy//src/dev/oled_ssd130x.h **** 
 370:../../libDaisy//src/dev/oled_ssd130x.h ****     /**
 371:../../libDaisy//src/dev/oled_ssd130x.h ****      * Update the display 
 372:../../libDaisy//src/dev/oled_ssd130x.h ****     */
 373:../../libDaisy//src/dev/oled_ssd130x.h ****     void Update()
 477              		.loc 10 373 10 is_stmt 1 view .LVU94
ARM GAS  /var/folders/hl/qgbwny5j0fd895c2c41bk3tw0000gp/T//ccRMOALe.s 			page 33


 478              	.LBB484:
 374:../../libDaisy//src/dev/oled_ssd130x.h ****     {
 375:../../libDaisy//src/dev/oled_ssd130x.h ****         uint8_t i;
 376:../../libDaisy//src/dev/oled_ssd130x.h ****         uint8_t high_column_addr;
 377:../../libDaisy//src/dev/oled_ssd130x.h ****         switch(height)
 378:../../libDaisy//src/dev/oled_ssd130x.h ****         {
 379:../../libDaisy//src/dev/oled_ssd130x.h ****             case 32: high_column_addr = 0x12; break;
 380:../../libDaisy//src/dev/oled_ssd130x.h **** 
 381:../../libDaisy//src/dev/oled_ssd130x.h ****             default: high_column_addr = 0x10; break;
 382:../../libDaisy//src/dev/oled_ssd130x.h ****         }
 383:../../libDaisy//src/dev/oled_ssd130x.h ****         for(i = 0; i < (height / 8); i++)
 479              		.loc 10 383 22 view .LVU95
 480              	.LBB476:
 481              	.LBB474:
  45:../../libDaisy//src/dev/oled_ssd130x.h ****     };
 482              		.loc 10 45 30 is_stmt 0 view .LVU96
 483 000c 00F10807 		add	r7, r0, #8
 484              	.LVL22:
  45:../../libDaisy//src/dev/oled_ssd130x.h ****     };
 485              		.loc 10 45 30 view .LVU97
 486 0010 00F18F06 		add	r6, r0, #143
 487 0014 00F28F49 		addw	r9, r0, #1167
 488              	.LVL23:
 489              	.L22:
  45:../../libDaisy//src/dev/oled_ssd130x.h ****     };
 490              		.loc 10 45 30 view .LVU98
 491              	.LBE474:
 492              	.LBI472:
  42:../../libDaisy//src/dev/oled_ssd130x.h ****     {
 493              		.loc 10 42 10 is_stmt 1 view .LVU99
 494              	.LBB475:
  44:../../libDaisy//src/dev/oled_ssd130x.h ****         i2c_.TransmitBlocking(i2c_address_, buf, 2, 1000);
 495              		.loc 10 44 9 view .LVU100
  45:../../libDaisy//src/dev/oled_ssd130x.h ****     };
 496              		.loc 10 45 30 is_stmt 0 view .LVU101
 497 0018 4FF47A7B 		mov	fp, #1000
  44:../../libDaisy//src/dev/oled_ssd130x.h ****         i2c_.TransmitBlocking(i2c_address_, buf, 2, 1000);
 498              		.loc 10 44 17 view .LVU102
 499 001c 4FF0000A 		mov	r10, #0
  45:../../libDaisy//src/dev/oled_ssd130x.h ****     };
 500              		.loc 10 45 30 view .LVU103
 501 0020 297B     		ldrb	r1, [r5, #12]	@ zero_extendqisi2
 502 0022 0223     		movs	r3, #2
 503 0024 03AA     		add	r2, sp, #12
 504 0026 3846     		mov	r0, r7
 505 0028 CDF800B0 		str	fp, [sp]
 506 002c A6F18004 		sub	r4, r6, #128
  44:../../libDaisy//src/dev/oled_ssd130x.h ****         i2c_.TransmitBlocking(i2c_address_, buf, 2, 1000);
 507              		.loc 10 44 17 view .LVU104
 508 0030 8DF80CA0 		strb	r10, [sp, #12]
  44:../../libDaisy//src/dev/oled_ssd130x.h ****         i2c_.TransmitBlocking(i2c_address_, buf, 2, 1000);
 509              		.loc 10 44 36 view .LVU105
 510 0034 8DF80D80 		strb	r8, [sp, #13]
  45:../../libDaisy//src/dev/oled_ssd130x.h ****     };
 511              		.loc 10 45 9 is_stmt 1 view .LVU106
  45:../../libDaisy//src/dev/oled_ssd130x.h ****     };
 512              		.loc 10 45 30 is_stmt 0 view .LVU107
ARM GAS  /var/folders/hl/qgbwny5j0fd895c2c41bk3tw0000gp/T//ccRMOALe.s 			page 34


 513 0038 FFF7FEFF 		bl	_ZN5daisy9I2CHandle16TransmitBlockingEtPhtm
 514              	.LVL24:
  45:../../libDaisy//src/dev/oled_ssd130x.h ****     };
 515              		.loc 10 45 30 view .LVU108
 516              	.LBE475:
 517              	.LBE476:
 518              	.LBB477:
 519              	.LBI477:
  42:../../libDaisy//src/dev/oled_ssd130x.h ****     {
 520              		.loc 10 42 10 is_stmt 1 view .LVU109
 521              	.LBB478:
  44:../../libDaisy//src/dev/oled_ssd130x.h ****         i2c_.TransmitBlocking(i2c_address_, buf, 2, 1000);
 522              		.loc 10 44 9 view .LVU110
  45:../../libDaisy//src/dev/oled_ssd130x.h ****     };
 523              		.loc 10 45 30 is_stmt 0 view .LVU111
 524 003c 297B     		ldrb	r1, [r5, #12]	@ zero_extendqisi2
 525 003e 0223     		movs	r3, #2
 526 0040 03AA     		add	r2, sp, #12
 527 0042 3846     		mov	r0, r7
 528 0044 CDF800B0 		str	fp, [sp]
  44:../../libDaisy//src/dev/oled_ssd130x.h ****         i2c_.TransmitBlocking(i2c_address_, buf, 2, 1000);
 529              		.loc 10 44 17 view .LVU112
 530 0048 8DF80CA0 		strb	r10, [sp, #12]
  44:../../libDaisy//src/dev/oled_ssd130x.h ****         i2c_.TransmitBlocking(i2c_address_, buf, 2, 1000);
 531              		.loc 10 44 36 view .LVU113
 532 004c 8DF80DA0 		strb	r10, [sp, #13]
  45:../../libDaisy//src/dev/oled_ssd130x.h ****     };
 533              		.loc 10 45 9 is_stmt 1 view .LVU114
  45:../../libDaisy//src/dev/oled_ssd130x.h ****     };
 534              		.loc 10 45 30 is_stmt 0 view .LVU115
 535 0050 FFF7FEFF 		bl	_ZN5daisy9I2CHandle16TransmitBlockingEtPhtm
 536              	.LVL25:
  45:../../libDaisy//src/dev/oled_ssd130x.h ****     };
 537              		.loc 10 45 30 view .LVU116
 538              	.LBE478:
 539              	.LBE477:
 540              	.LBB479:
 541              	.LBI479:
  42:../../libDaisy//src/dev/oled_ssd130x.h ****     {
 542              		.loc 10 42 10 is_stmt 1 view .LVU117
 543              	.LBB480:
  44:../../libDaisy//src/dev/oled_ssd130x.h ****         i2c_.TransmitBlocking(i2c_address_, buf, 2, 1000);
 544              		.loc 10 44 9 view .LVU118
  44:../../libDaisy//src/dev/oled_ssd130x.h ****         i2c_.TransmitBlocking(i2c_address_, buf, 2, 1000);
 545              		.loc 10 44 36 is_stmt 0 view .LVU119
 546 0054 4FF0100C 		mov	ip, #16
  45:../../libDaisy//src/dev/oled_ssd130x.h ****     };
 547              		.loc 10 45 30 view .LVU120
 548 0058 297B     		ldrb	r1, [r5, #12]	@ zero_extendqisi2
 549 005a 0223     		movs	r3, #2
 550 005c 03AA     		add	r2, sp, #12
 551 005e 3846     		mov	r0, r7
 552 0060 CDF800B0 		str	fp, [sp]
  44:../../libDaisy//src/dev/oled_ssd130x.h ****         i2c_.TransmitBlocking(i2c_address_, buf, 2, 1000);
 553              		.loc 10 44 17 view .LVU121
 554 0064 8DF80CA0 		strb	r10, [sp, #12]
  44:../../libDaisy//src/dev/oled_ssd130x.h ****         i2c_.TransmitBlocking(i2c_address_, buf, 2, 1000);
ARM GAS  /var/folders/hl/qgbwny5j0fd895c2c41bk3tw0000gp/T//ccRMOALe.s 			page 35


 555              		.loc 10 44 36 view .LVU122
 556 0068 8DF80DC0 		strb	ip, [sp, #13]
  45:../../libDaisy//src/dev/oled_ssd130x.h ****     };
 557              		.loc 10 45 9 is_stmt 1 view .LVU123
  45:../../libDaisy//src/dev/oled_ssd130x.h ****     };
 558              		.loc 10 45 30 is_stmt 0 view .LVU124
 559 006c FFF7FEFF 		bl	_ZN5daisy9I2CHandle16TransmitBlockingEtPhtm
 560              	.LVL26:
  45:../../libDaisy//src/dev/oled_ssd130x.h ****     };
 561              		.loc 10 45 30 view .LVU125
 562              	.LBE480:
 563              	.LBE479:
 564              	.LBB481:
 565              	.LBI481:
  48:../../libDaisy//src/dev/oled_ssd130x.h ****     {
 566              		.loc 10 48 10 is_stmt 1 view .LVU126
 567              	.LBB482:
  50:../../libDaisy//src/dev/oled_ssd130x.h ****         {
 568              		.loc 10 50 29 view .LVU127
 569              	.L21:
 570              	.LBB483:
  52:../../libDaisy//src/dev/oled_ssd130x.h ****             i2c_.TransmitBlocking(i2c_address_, buf, 2, 1000);
 571              		.loc 10 52 13 view .LVU128
  53:../../libDaisy//src/dev/oled_ssd130x.h ****         }
 572              		.loc 10 53 34 is_stmt 0 view .LVU129
 573 0070 4FF47A70 		mov	r0, #1000
  52:../../libDaisy//src/dev/oled_ssd130x.h ****             i2c_.TransmitBlocking(i2c_address_, buf, 2, 1000);
 574              		.loc 10 52 44 view .LVU130
 575 0074 14F801CF 		ldrb	ip, [r4, #1]!	@ zero_extendqisi2
 576              	.LVL27:
  52:../../libDaisy//src/dev/oled_ssd130x.h ****             i2c_.TransmitBlocking(i2c_address_, buf, 2, 1000);
 577              		.loc 10 52 21 view .LVU131
 578 0078 4FF0400E 		mov	lr, #64
  53:../../libDaisy//src/dev/oled_ssd130x.h ****         }
 579              		.loc 10 53 34 view .LVU132
 580 007c 297B     		ldrb	r1, [r5, #12]	@ zero_extendqisi2
 581 007e 0223     		movs	r3, #2
 582 0080 0090     		str	r0, [sp]
 583 0082 03AA     		add	r2, sp, #12
 584 0084 3846     		mov	r0, r7
  52:../../libDaisy//src/dev/oled_ssd130x.h ****             i2c_.TransmitBlocking(i2c_address_, buf, 2, 1000);
 585              		.loc 10 52 21 view .LVU133
 586 0086 8DF80CE0 		strb	lr, [sp, #12]
  52:../../libDaisy//src/dev/oled_ssd130x.h ****             i2c_.TransmitBlocking(i2c_address_, buf, 2, 1000);
 587              		.loc 10 52 44 view .LVU134
 588 008a 8DF80DC0 		strb	ip, [sp, #13]
  53:../../libDaisy//src/dev/oled_ssd130x.h ****         }
 589              		.loc 10 53 13 is_stmt 1 view .LVU135
  53:../../libDaisy//src/dev/oled_ssd130x.h ****         }
 590              		.loc 10 53 34 is_stmt 0 view .LVU136
 591 008e FFF7FEFF 		bl	_ZN5daisy9I2CHandle16TransmitBlockingEtPhtm
 592              	.LVL28:
 593              	.LBE483:
  50:../../libDaisy//src/dev/oled_ssd130x.h ****         {
 594              		.loc 10 50 9 is_stmt 1 view .LVU137
  50:../../libDaisy//src/dev/oled_ssd130x.h ****         {
 595              		.loc 10 50 29 view .LVU138
ARM GAS  /var/folders/hl/qgbwny5j0fd895c2c41bk3tw0000gp/T//ccRMOALe.s 			page 36


 596 0092 B442     		cmp	r4, r6
 597 0094 ECD1     		bne	.L21
 598              	.LVL29:
  50:../../libDaisy//src/dev/oled_ssd130x.h ****         {
 599              		.loc 10 50 29 is_stmt 0 view .LVU139
 600              	.LBE482:
 601              	.LBE481:
 602              		.loc 10 383 9 is_stmt 1 view .LVU140
 603              		.loc 10 383 22 view .LVU141
 604 0096 04F18006 		add	r6, r4, #128
 605 009a 08F10108 		add	r8, r8, #1
 606              	.LVL30:
 607              		.loc 10 383 22 is_stmt 0 view .LVU142
 608 009e 4E45     		cmp	r6, r9
 609 00a0 5FFA88F8 		uxtb	r8, r8
 610 00a4 B8D1     		bne	.L22
 611              	.LBE484:
 612              	.LBE485:
 613              		.loc 8 51 48 view .LVU143
 614 00a6 05B0     		add	sp, sp, #20
 615              		.cfi_def_cfa_offset 36
 616              		@ sp needed
 617 00a8 BDE8F08F 		pop	{r4, r5, r6, r7, r8, r9, r10, fp, pc}
 618              		.loc 8 51 48 view .LVU144
 619              		.cfi_endproc
 620              	.LFE5145:
 622              		.section	.text._ZN5daisy25OneBitGraphicsDisplayImplINS_11OledDisplayINS_13SSD130xDriverILj128ELj64
 623              		.align	1
 624              		.p2align 2,,3
 625              		.weak	_ZN5daisy25OneBitGraphicsDisplayImplINS_11OledDisplayINS_13SSD130xDriverILj128ELj64ENS_19SSD
 626              		.syntax unified
 627              		.thumb
 628              		.thumb_func
 629              		.fpu fpv5-d16
 631              	_ZN5daisy25OneBitGraphicsDisplayImplINS_11OledDisplayINS_13SSD130xDriverILj128ELj64ENS_19SSD130xI2C
 632              	.LVL31:
 633              	.LFB5271:
 220:../../libDaisy//src/hid/disp/display.h **** 
 221:../../libDaisy//src/hid/disp/display.h ****     void DrawLine(uint_fast8_t x1,
 222:../../libDaisy//src/hid/disp/display.h ****                   uint_fast8_t y1,
 223:../../libDaisy//src/hid/disp/display.h ****                   uint_fast8_t x2,
 224:../../libDaisy//src/hid/disp/display.h ****                   uint_fast8_t y2,
 225:../../libDaisy//src/hid/disp/display.h ****                   bool         on) override
 226:../../libDaisy//src/hid/disp/display.h ****     {
 227:../../libDaisy//src/hid/disp/display.h ****         int_fast16_t deltaX = abs((int_fast16_t)x2 - (int_fast16_t)x1);
 228:../../libDaisy//src/hid/disp/display.h ****         int_fast16_t deltaY = abs((int_fast16_t)y2 - (int_fast16_t)y1);
 229:../../libDaisy//src/hid/disp/display.h ****         int_fast16_t signX  = ((x1 < x2) ? 1 : -1);
 230:../../libDaisy//src/hid/disp/display.h ****         int_fast16_t signY  = ((y1 < y2) ? 1 : -1);
 231:../../libDaisy//src/hid/disp/display.h ****         int_fast16_t error  = deltaX - deltaY;
 232:../../libDaisy//src/hid/disp/display.h ****         int_fast16_t error2;
 233:../../libDaisy//src/hid/disp/display.h **** 
 234:../../libDaisy//src/hid/disp/display.h ****         // If we write "ChildType::DrawPixel(x2, y2, on);", we end up with
 235:../../libDaisy//src/hid/disp/display.h ****         // all sorts of weird compiler errors when the Child class is a template
 236:../../libDaisy//src/hid/disp/display.h ****         // class. The only way around this is to use this very verbose syntax:
 237:../../libDaisy//src/hid/disp/display.h ****         ((ChildType*)(this))->ChildType::DrawPixel(x2, y2, on);
 238:../../libDaisy//src/hid/disp/display.h **** 
 239:../../libDaisy//src/hid/disp/display.h ****         while((x1 != x2) || (y1 != y2))
ARM GAS  /var/folders/hl/qgbwny5j0fd895c2c41bk3tw0000gp/T//ccRMOALe.s 			page 37


 240:../../libDaisy//src/hid/disp/display.h ****         {
 241:../../libDaisy//src/hid/disp/display.h ****             ((ChildType*)(this))->ChildType::DrawPixel(x1, y1, on);
 242:../../libDaisy//src/hid/disp/display.h ****             error2 = error * 2;
 243:../../libDaisy//src/hid/disp/display.h ****             if(error2 > -deltaY)
 244:../../libDaisy//src/hid/disp/display.h ****             {
 245:../../libDaisy//src/hid/disp/display.h ****                 error -= deltaY;
 246:../../libDaisy//src/hid/disp/display.h ****                 x1 += signX;
 247:../../libDaisy//src/hid/disp/display.h ****             }
 248:../../libDaisy//src/hid/disp/display.h **** 
 249:../../libDaisy//src/hid/disp/display.h ****             if(error2 < deltaX)
 250:../../libDaisy//src/hid/disp/display.h ****             {
 251:../../libDaisy//src/hid/disp/display.h ****                 error += deltaX;
 252:../../libDaisy//src/hid/disp/display.h ****                 y1 += signY;
 253:../../libDaisy//src/hid/disp/display.h ****             }
 254:../../libDaisy//src/hid/disp/display.h ****         }
 255:../../libDaisy//src/hid/disp/display.h ****     }
 256:../../libDaisy//src/hid/disp/display.h **** 
 257:../../libDaisy//src/hid/disp/display.h ****     void DrawRect(uint_fast8_t x1,
 258:../../libDaisy//src/hid/disp/display.h ****                   uint_fast8_t y1,
 259:../../libDaisy//src/hid/disp/display.h ****                   uint_fast8_t x2,
 260:../../libDaisy//src/hid/disp/display.h ****                   uint_fast8_t y2,
 261:../../libDaisy//src/hid/disp/display.h ****                   bool         on,
 262:../../libDaisy//src/hid/disp/display.h ****                   bool         fill = false) override
 263:../../libDaisy//src/hid/disp/display.h ****     {
 264:../../libDaisy//src/hid/disp/display.h ****         if(fill)
 265:../../libDaisy//src/hid/disp/display.h ****         {
 266:../../libDaisy//src/hid/disp/display.h ****             for(uint_fast8_t x = x1; x <= x2; x++)
 267:../../libDaisy//src/hid/disp/display.h ****             {
 268:../../libDaisy//src/hid/disp/display.h ****                 for(uint_fast8_t y = y1; y <= y2; y++)
 269:../../libDaisy//src/hid/disp/display.h ****                 {
 270:../../libDaisy//src/hid/disp/display.h ****                     ((ChildType*)(this))->ChildType::DrawPixel(x, y, on);
 271:../../libDaisy//src/hid/disp/display.h ****                 }
 272:../../libDaisy//src/hid/disp/display.h ****             }
 273:../../libDaisy//src/hid/disp/display.h ****         }
 274:../../libDaisy//src/hid/disp/display.h ****         else
 275:../../libDaisy//src/hid/disp/display.h ****         {
 276:../../libDaisy//src/hid/disp/display.h ****             ((ChildType*)(this))->ChildType::DrawLine(x1, y1, x2, y1, on);
 277:../../libDaisy//src/hid/disp/display.h ****             ((ChildType*)(this))->ChildType::DrawLine(x2, y1, x2, y2, on);
 278:../../libDaisy//src/hid/disp/display.h ****             ((ChildType*)(this))->ChildType::DrawLine(x2, y2, x1, y2, on);
 279:../../libDaisy//src/hid/disp/display.h ****             ((ChildType*)(this))->ChildType::DrawLine(x1, y2, x1, y1, on);
 280:../../libDaisy//src/hid/disp/display.h ****         }
 281:../../libDaisy//src/hid/disp/display.h ****     }
 282:../../libDaisy//src/hid/disp/display.h **** 
 283:../../libDaisy//src/hid/disp/display.h ****     void DrawArc(uint_fast8_t x,
 284:../../libDaisy//src/hid/disp/display.h ****                  uint_fast8_t y,
 285:../../libDaisy//src/hid/disp/display.h ****                  uint_fast8_t radius,
 286:../../libDaisy//src/hid/disp/display.h ****                  int_fast16_t start_angle,
 287:../../libDaisy//src/hid/disp/display.h ****                  int_fast16_t sweep,
 288:../../libDaisy//src/hid/disp/display.h ****                  bool         on) override
 289:../../libDaisy//src/hid/disp/display.h ****     {
 290:../../libDaisy//src/hid/disp/display.h ****         // Values to calculate the circle
 291:../../libDaisy//src/hid/disp/display.h ****         int_fast16_t t_x, t_y, err, e2;
 292:../../libDaisy//src/hid/disp/display.h **** 
 293:../../libDaisy//src/hid/disp/display.h ****         // Temporary values to speed up comparisons
 294:../../libDaisy//src/hid/disp/display.h ****         float t_sxy, t_syx, t_sxny, t_synx;
 295:../../libDaisy//src/hid/disp/display.h ****         float t_exy, t_eyx, t_exny, t_eynx;
 296:../../libDaisy//src/hid/disp/display.h **** 
ARM GAS  /var/folders/hl/qgbwny5j0fd895c2c41bk3tw0000gp/T//ccRMOALe.s 			page 38


 297:../../libDaisy//src/hid/disp/display.h ****         float start_angle_rad, end_angle_rad;
 298:../../libDaisy//src/hid/disp/display.h ****         float start_x, start_y, end_x, end_y;
 299:../../libDaisy//src/hid/disp/display.h **** 
 300:../../libDaisy//src/hid/disp/display.h ****         bool d1, d2, d3, d4;
 301:../../libDaisy//src/hid/disp/display.h **** 
 302:../../libDaisy//src/hid/disp/display.h ****         d1 = d2 = d3 = d4 = true;
 303:../../libDaisy//src/hid/disp/display.h **** 
 304:../../libDaisy//src/hid/disp/display.h ****         bool circle = false;
 305:../../libDaisy//src/hid/disp/display.h **** 
 306:../../libDaisy//src/hid/disp/display.h ****         if(sweep < 0)
 307:../../libDaisy//src/hid/disp/display.h ****         {
 308:../../libDaisy//src/hid/disp/display.h ****             start_angle += sweep;
 309:../../libDaisy//src/hid/disp/display.h ****             sweep = -sweep;
 310:../../libDaisy//src/hid/disp/display.h ****         }
 311:../../libDaisy//src/hid/disp/display.h **** 
 312:../../libDaisy//src/hid/disp/display.h ****         start_angle_rad = deg2rad(start_angle);
 313:../../libDaisy//src/hid/disp/display.h ****         end_angle_rad   = deg2rad(start_angle + sweep);
 314:../../libDaisy//src/hid/disp/display.h **** 
 315:../../libDaisy//src/hid/disp/display.h ****         start_x = cos(start_angle_rad) * radius;
 316:../../libDaisy//src/hid/disp/display.h ****         start_y = -sin(start_angle_rad) * radius;
 317:../../libDaisy//src/hid/disp/display.h ****         end_x   = cos(end_angle_rad) * radius;
 318:../../libDaisy//src/hid/disp/display.h ****         end_y   = -sin(end_angle_rad) * radius;
 319:../../libDaisy//src/hid/disp/display.h **** 
 320:../../libDaisy//src/hid/disp/display.h ****         // Check if start and endpoint are very near
 321:../../libDaisy//src/hid/disp/display.h ****         if((end_x - start_x) * (end_x - start_x)
 322:../../libDaisy//src/hid/disp/display.h ****                + (end_y - start_y) * (end_y - start_y)
 323:../../libDaisy//src/hid/disp/display.h ****            < 2.0f)
 324:../../libDaisy//src/hid/disp/display.h ****         {
 325:../../libDaisy//src/hid/disp/display.h ****             if(sweep > 180)
 326:../../libDaisy//src/hid/disp/display.h ****                 circle = true;
 327:../../libDaisy//src/hid/disp/display.h ****             else
 328:../../libDaisy//src/hid/disp/display.h ****                 // Nothing to draw
 329:../../libDaisy//src/hid/disp/display.h ****                 return;
 330:../../libDaisy//src/hid/disp/display.h ****         }
 331:../../libDaisy//src/hid/disp/display.h **** 
 332:../../libDaisy//src/hid/disp/display.h ****         t_x = -radius;
 333:../../libDaisy//src/hid/disp/display.h ****         t_y = 0;
 334:../../libDaisy//src/hid/disp/display.h ****         err = 2 - 2 * radius;
 335:../../libDaisy//src/hid/disp/display.h **** 
 336:../../libDaisy//src/hid/disp/display.h ****         do
 337:../../libDaisy//src/hid/disp/display.h ****         {
 338:../../libDaisy//src/hid/disp/display.h ****             if(!circle)
 339:../../libDaisy//src/hid/disp/display.h ****             {
 340:../../libDaisy//src/hid/disp/display.h ****                 t_sxy  = start_x * t_y;
 341:../../libDaisy//src/hid/disp/display.h ****                 t_syx  = start_y * t_x;
 342:../../libDaisy//src/hid/disp/display.h ****                 t_sxny = start_x * -t_y;
 343:../../libDaisy//src/hid/disp/display.h ****                 t_synx = start_y * -t_x;
 344:../../libDaisy//src/hid/disp/display.h ****                 t_exy  = end_x * t_y;
 345:../../libDaisy//src/hid/disp/display.h ****                 t_eyx  = end_y * t_x;
 346:../../libDaisy//src/hid/disp/display.h ****                 t_exny = end_x * -t_y;
 347:../../libDaisy//src/hid/disp/display.h ****                 t_eynx = end_y * -t_x;
 348:../../libDaisy//src/hid/disp/display.h **** 
 349:../../libDaisy//src/hid/disp/display.h ****                 if(sweep > 180)
 350:../../libDaisy//src/hid/disp/display.h ****                 {
 351:../../libDaisy//src/hid/disp/display.h ****                     d1 = (t_sxy - t_synx < 0 || t_exy - t_eynx > 0);
 352:../../libDaisy//src/hid/disp/display.h ****                     d2 = (t_sxy - t_syx < 0 || t_exy - t_eyx > 0);
 353:../../libDaisy//src/hid/disp/display.h ****                     d3 = (t_sxny - t_syx < 0 || t_exny - t_eyx > 0);
ARM GAS  /var/folders/hl/qgbwny5j0fd895c2c41bk3tw0000gp/T//ccRMOALe.s 			page 39


 354:../../libDaisy//src/hid/disp/display.h ****                     d4 = (t_sxny - t_synx < 0 || t_exny - t_eynx > 0);
 355:../../libDaisy//src/hid/disp/display.h ****                 }
 356:../../libDaisy//src/hid/disp/display.h ****                 else
 357:../../libDaisy//src/hid/disp/display.h ****                 {
 358:../../libDaisy//src/hid/disp/display.h ****                     d1 = (t_sxy - t_synx < 0 && t_exy - t_eynx > 0);
 359:../../libDaisy//src/hid/disp/display.h ****                     d2 = (t_sxy - t_syx < 0 && t_exy - t_eyx > 0);
 360:../../libDaisy//src/hid/disp/display.h ****                     d3 = (t_sxny - t_syx < 0 && t_exny - t_eyx > 0);
 361:../../libDaisy//src/hid/disp/display.h ****                     d4 = (t_sxny - t_synx < 0 && t_exny - t_eynx > 0);
 362:../../libDaisy//src/hid/disp/display.h ****                 }
 363:../../libDaisy//src/hid/disp/display.h ****             }
 364:../../libDaisy//src/hid/disp/display.h **** 
 365:../../libDaisy//src/hid/disp/display.h ****             if(d1)
 366:../../libDaisy//src/hid/disp/display.h ****                 ((ChildType*)(this))
 367:../../libDaisy//src/hid/disp/display.h ****                     ->ChildType::DrawPixel(x - t_x, y + t_y, on);
 368:../../libDaisy//src/hid/disp/display.h ****             if(d2)
 369:../../libDaisy//src/hid/disp/display.h ****                 ((ChildType*)(this))
 370:../../libDaisy//src/hid/disp/display.h ****                     ->ChildType::DrawPixel(x + t_x, y + t_y, on);
 371:../../libDaisy//src/hid/disp/display.h ****             if(d3)
 372:../../libDaisy//src/hid/disp/display.h ****                 ((ChildType*)(this))
 373:../../libDaisy//src/hid/disp/display.h ****                     ->ChildType::DrawPixel(x + t_x, y - t_y, on);
 374:../../libDaisy//src/hid/disp/display.h ****             if(d4)
 375:../../libDaisy//src/hid/disp/display.h ****                 ((ChildType*)(this))
 376:../../libDaisy//src/hid/disp/display.h ****                     ->ChildType::DrawPixel(x - t_x, y - t_y, on);
 377:../../libDaisy//src/hid/disp/display.h **** 
 378:../../libDaisy//src/hid/disp/display.h ****             e2 = err;
 379:../../libDaisy//src/hid/disp/display.h ****             if(e2 <= t_y)
 380:../../libDaisy//src/hid/disp/display.h ****             {
 381:../../libDaisy//src/hid/disp/display.h ****                 t_y++;
 382:../../libDaisy//src/hid/disp/display.h ****                 err = err + (t_y * 2 + 1);
 383:../../libDaisy//src/hid/disp/display.h ****                 if(-t_x == t_y && e2 <= t_x)
 384:../../libDaisy//src/hid/disp/display.h ****                 {
 385:../../libDaisy//src/hid/disp/display.h ****                     e2 = 0;
 386:../../libDaisy//src/hid/disp/display.h ****                 }
 387:../../libDaisy//src/hid/disp/display.h ****             }
 388:../../libDaisy//src/hid/disp/display.h ****             if(e2 > t_x)
 389:../../libDaisy//src/hid/disp/display.h ****             {
 390:../../libDaisy//src/hid/disp/display.h ****                 t_x++;
 391:../../libDaisy//src/hid/disp/display.h ****                 err = err + (t_x * 2 + 1);
 392:../../libDaisy//src/hid/disp/display.h ****             }
 393:../../libDaisy//src/hid/disp/display.h ****         } while(t_x <= 0);
 394:../../libDaisy//src/hid/disp/display.h ****     }
 395:../../libDaisy//src/hid/disp/display.h **** 
 396:../../libDaisy//src/hid/disp/display.h ****     char WriteChar(char ch, FontDef font, bool on) override
 634              		.loc 9 396 10 is_stmt 1 view -0
 635              		.cfi_startproc
 636              		@ args = 4, pretend = 0, frame = 16
 637              		@ frame_needed = 0, uses_anonymous_args = 0
 638              		.loc 9 396 10 is_stmt 0 view .LVU146
 639 0000 2DE9F04F 		push	{r4, r5, r6, r7, r8, r9, r10, fp, lr}
 640              		.cfi_def_cfa_offset 36
 641              		.cfi_offset 4, -36
 642              		.cfi_offset 5, -32
 643              		.cfi_offset 6, -28
 644              		.cfi_offset 7, -24
 645              		.cfi_offset 8, -20
 646              		.cfi_offset 9, -16
 647              		.cfi_offset 10, -12
ARM GAS  /var/folders/hl/qgbwny5j0fd895c2c41bk3tw0000gp/T//ccRMOALe.s 			page 40


 648              		.cfi_offset 11, -8
 649              		.cfi_offset 14, -4
 650 0004 85B0     		sub	sp, sp, #20
 651              		.cfi_def_cfa_offset 56
 652              	.LVL32:
 397:../../libDaisy//src/hid/disp/display.h ****     {
 398:../../libDaisy//src/hid/disp/display.h ****         uint32_t i, b, j;
 399:../../libDaisy//src/hid/disp/display.h **** 
 400:../../libDaisy//src/hid/disp/display.h ****         // Check if character is valid
 401:../../libDaisy//src/hid/disp/display.h ****         if(ch < 32 || ch > 126)
 653              		.loc 9 401 20 view .LVU147
 654 0006 A1F12005 		sub	r5, r1, #32
 396:../../libDaisy//src/hid/disp/display.h ****     {
 655              		.loc 9 396 10 view .LVU148
 656 000a 04AC     		add	r4, sp, #16
 657 000c 9DF83870 		ldrb	r7, [sp, #56]	@ zero_extendqisi2
 658 0010 0091     		str	r1, [sp]
 659 0012 04E90C00 		stmdb	r4, {r2, r3}
 660              	.LVL33:
 661              		.loc 9 401 9 view .LVU149
 662 0016 EBB2     		uxtb	r3, r5
 663 0018 5E2B     		cmp	r3, #94
 664 001a 00F29580 		bhi	.L30
 402:../../libDaisy//src/hid/disp/display.h ****             return 0;
 403:../../libDaisy//src/hid/disp/display.h **** 
 404:../../libDaisy//src/hid/disp/display.h ****         // Check remaining space on current line
 405:../../libDaisy//src/hid/disp/display.h ****         if(Width() < (currentX_ + font.FontWidth)
 665              		.loc 9 405 17 view .LVU150
 666 001e 0368     		ldr	r3, [r0]
 667 0020 8046     		mov	r8, r0
 668 0022 5D4A     		ldr	r2, .L65
 669 0024 DB68     		ldr	r3, [r3, #12]
 670 0026 9DF80840 		ldrb	r4, [sp, #8]	@ zero_extendqisi2
 671 002a 9342     		cmp	r3, r2
 672 002c 9DF80960 		ldrb	r6, [sp, #9]	@ zero_extendqisi2
 673 0030 40F09480 		bne	.L57
 674 0034 8020     		movs	r0, #128
 675              	.LVL34:
 676              	.L29:
 677              		.loc 9 405 23 view .LVU151
 678 0036 B8F80430 		ldrh	r3, [r8, #4]
 679              		.loc 9 405 33 view .LVU152
 680 003a 2344     		add	r3, r3, r4
 406:../../libDaisy//src/hid/disp/display.h ****            || Height() < (currentY_ + font.FontHeight))
 681              		.loc 9 406 12 view .LVU153
 682 003c 8342     		cmp	r3, r0
 683 003e 00F38380 		bgt	.L30
 684              		.loc 9 406 21 discriminator 2 view .LVU154
 685 0042 D8F80030 		ldr	r3, [r8]
 686 0046 554A     		ldr	r2, .L65+4
 687 0048 9B68     		ldr	r3, [r3, #8]
 688 004a 9342     		cmp	r3, r2
 689 004c 40F08880 		bne	.L58
 690              		.loc 9 406 21 view .LVU155
 691 0050 4020     		movs	r0, #64
 692              	.L31:
 693              		.loc 9 406 27 discriminator 2 view .LVU156
ARM GAS  /var/folders/hl/qgbwny5j0fd895c2c41bk3tw0000gp/T//ccRMOALe.s 			page 41


 694 0052 B8F80620 		ldrh	r2, [r8, #6]
 695              		.loc 9 406 37 discriminator 2 view .LVU157
 696 0056 9319     		adds	r3, r2, r6
 697              		.loc 9 406 27 discriminator 2 view .LVU158
 698 0058 0192     		str	r2, [sp, #4]
 699              		.loc 9 406 12 discriminator 2 view .LVU159
 700 005a 8342     		cmp	r3, r0
 701 005c 74DC     		bgt	.L30
 702              	.LVL35:
 407:../../libDaisy//src/hid/disp/display.h ****         {
 408:../../libDaisy//src/hid/disp/display.h ****             // Not enough space on current line
 409:../../libDaisy//src/hid/disp/display.h ****             return 0;
 410:../../libDaisy//src/hid/disp/display.h ****         }
 411:../../libDaisy//src/hid/disp/display.h **** 
 412:../../libDaisy//src/hid/disp/display.h ****         // Use the font to write
 413:../../libDaisy//src/hid/disp/display.h ****         for(i = 0; i < font.FontHeight; i++)
 703              		.loc 9 413 22 is_stmt 1 view .LVU160
 704 005e 002E     		cmp	r6, #0
 705 0060 00F08980 		beq	.L32
 414:../../libDaisy//src/hid/disp/display.h ****         {
 415:../../libDaisy//src/hid/disp/display.h ****             b = font.data[(ch - 32) * font.FontHeight + i];
 706              		.loc 9 415 37 is_stmt 0 view .LVU161
 707 0064 06FB05F5 		mul	r5, r6, r5
 708 0068 6FF00040 		mvn	r0, #-2147483648
 709              		.loc 9 415 22 view .LVU162
 710 006c 039B     		ldr	r3, [sp, #12]
 711 006e 9646     		mov	lr, r2
 712 0070 2844     		add	r0, r0, r5
 713 0072 2E44     		add	r6, r6, r5
 416:../../libDaisy//src/hid/disp/display.h ****             for(j = 0; j < font.FontWidth; j++)
 417:../../libDaisy//src/hid/disp/display.h ****             {
 418:../../libDaisy//src/hid/disp/display.h ****                 if((b << j) & 0x8000)
 419:../../libDaisy//src/hid/disp/display.h ****                 {
 420:../../libDaisy//src/hid/disp/display.h ****                     ((ChildType*)(this))
 421:../../libDaisy//src/hid/disp/display.h ****                         ->ChildType::DrawPixel(
 422:../../libDaisy//src/hid/disp/display.h ****                             currentX_ + j, (currentY_ + i), on);
 423:../../libDaisy//src/hid/disp/display.h ****                 }
 424:../../libDaisy//src/hid/disp/display.h ****                 else
 425:../../libDaisy//src/hid/disp/display.h ****                 {
 426:../../libDaisy//src/hid/disp/display.h ****                     ((ChildType*)(this))
 427:../../libDaisy//src/hid/disp/display.h ****                         ->ChildType::DrawPixel(
 428:../../libDaisy//src/hid/disp/display.h ****                             currentX_ + j, (currentY_ + i), !on);
 429:../../libDaisy//src/hid/disp/display.h ****                 }
 430:../../libDaisy//src/hid/disp/display.h ****             }
 431:../../libDaisy//src/hid/disp/display.h ****         }
 432:../../libDaisy//src/hid/disp/display.h **** 
 433:../../libDaisy//src/hid/disp/display.h ****         // The current space is now taken
 434:../../libDaisy//src/hid/disp/display.h ****         SetCursor(currentX_ + font.FontWidth, currentY_);
 714              		.loc 9 434 19 view .LVU163
 715 0074 B8F804A0 		ldrh	r10, [r8, #4]
 716 0078 03EB4000 		add	r0, r3, r0, lsl #1
 717 007c 023B     		subs	r3, r3, #2
 718 007e 03EB460B 		add	fp, r3, r6, lsl #1
 719              	.LVL36:
 720              	.L35:
 415:../../libDaisy//src/hid/disp/display.h ****             for(j = 0; j < font.FontWidth; j++)
 721              		.loc 9 415 15 view .LVU164
ARM GAS  /var/folders/hl/qgbwny5j0fd895c2c41bk3tw0000gp/T//ccRMOALe.s 			page 42


 722 0082 30F8026F 		ldrh	r6, [r0, #2]!
 723              	.LVL37:
 416:../../libDaisy//src/hid/disp/display.h ****             for(j = 0; j < font.FontWidth; j++)
 724              		.loc 9 416 26 is_stmt 1 view .LVU165
 725 0086 BCB3     		cbz	r4, .L40
 726              	.LBB516:
 727              	.LBB517:
 728              	.LBB518:
 729              	.LBB519:
 730              	.LBB520:
 359:../../libDaisy//src/dev/oled_ssd130x.h ****     }
 731              		.loc 10 359 55 is_stmt 0 view .LVU166
 732 0088 0EF00703 		and	r3, lr, #7
 359:../../libDaisy//src/dev/oled_ssd130x.h ****     }
 733              		.loc 10 359 49 view .LVU167
 734 008c 4FF0010C 		mov	ip, #1
 359:../../libDaisy//src/dev/oled_ssd130x.h ****     }
 735              		.loc 10 359 28 view .LVU168
 736 0090 4FEADE02 		lsr	r2, lr, #3
 737 0094 5146     		mov	r1, r10
 359:../../libDaisy//src/dev/oled_ssd130x.h ****     }
 738              		.loc 10 359 49 view .LVU169
 739 0096 0CFA03FC 		lsl	ip, ip, r3
 740 009a 0AF11003 		add	r3, r10, #16
 359:../../libDaisy//src/dev/oled_ssd130x.h ****     }
 741              		.loc 10 359 42 view .LVU170
 742 009e 4FFA8CFC 		sxtb	ip, ip
 743 00a2 03EBC212 		add	r2, r3, r2, lsl #7
 744              	.LBE520:
 745              	.LBE519:
 746              	.LBE518:
 747              	.LBE517:
 748              	.LBE516:
 416:../../libDaisy//src/hid/disp/display.h ****             for(j = 0; j < font.FontWidth; j++)
 749              		.loc 9 416 19 view .LVU171
 750 00a6 0023     		movs	r3, #0
 751              	.LBB538:
 752              	.LBB533:
 753              	.LBB528:
 754              	.LBB524:
 755              	.LBB521:
 359:../../libDaisy//src/dev/oled_ssd130x.h ****     }
 756              		.loc 10 359 42 view .LVU172
 757 00a8 6FEA0C09 		mvn	r9, ip
 758 00ac 4244     		add	r2, r2, r8
 759 00ae 0EE0     		b	.L41
 760              	.LVL38:
 761              	.L59:
 359:../../libDaisy//src/dev/oled_ssd130x.h ****     }
 762              		.loc 10 359 42 view .LVU173
 763              	.LBE521:
 764              	.LBE524:
 765              	.LBE528:
 766              	.LBE533:
 767              	.LBE538:
 768              	.LBB539:
 769              	.LBI539:
ARM GAS  /var/folders/hl/qgbwny5j0fd895c2c41bk3tw0000gp/T//ccRMOALe.s 			page 43


  42:../../libDaisy//src/hid/disp/oled_display.h ****     {
 770              		.loc 8 42 10 is_stmt 1 view .LVU174
 771              	.LBB540:
 772              	.LBI540:
 352:../../libDaisy//src/dev/oled_ssd130x.h ****     {
 773              		.loc 10 352 10 view .LVU175
 774              	.LBB541:
 354:../../libDaisy//src/dev/oled_ssd130x.h ****             return;
 775              		.loc 10 354 9 is_stmt 0 view .LVU176
 776 00b0 7F29     		cmp	r1, #127
 777 00b2 07D8     		bhi	.L37
 778 00b4 BEF13F0F 		cmp	lr, #63
 779 00b8 04D8     		bhi	.L37
 357:../../libDaisy//src/dev/oled_ssd130x.h ****         else
 780              		.loc 10 357 42 view .LVU177
 781 00ba 1578     		ldrb	r5, [r2]	@ zero_extendqisi2
 356:../../libDaisy//src/dev/oled_ssd130x.h ****             buffer_[x + (y / 8) * width] |= (1 << (y % 8));
 782              		.loc 10 356 9 view .LVU178
 783 00bc 9FB1     		cbz	r7, .L39
 784              	.L56:
 356:../../libDaisy//src/dev/oled_ssd130x.h ****             buffer_[x + (y / 8) * width] |= (1 << (y % 8));
 785              		.loc 10 356 9 view .LVU179
 786              	.LBE541:
 787              	.LBE540:
 788              	.LBE539:
 789              	.LBB542:
 790              	.LBB534:
 791              	.LBB529:
 357:../../libDaisy//src/dev/oled_ssd130x.h ****         else
 792              		.loc 10 357 42 view .LVU180
 793 00be 4CEA0505 		orr	r5, ip, r5
 794 00c2 1570     		strb	r5, [r2]
 795              	.L37:
 796              	.LBE529:
 797              	.LBE534:
 798              	.LBE542:
 416:../../libDaisy//src/hid/disp/display.h ****             {
 799              		.loc 9 416 13 is_stmt 1 discriminator 2 view .LVU181
 800 00c4 0133     		adds	r3, r3, #1
 801              	.LVL39:
 416:../../libDaisy//src/hid/disp/display.h ****             {
 802              		.loc 9 416 26 discriminator 2 view .LVU182
 803 00c6 0132     		adds	r2, r2, #1
 804 00c8 0131     		adds	r1, r1, #1
 805 00ca 9C42     		cmp	r4, r3
 806 00cc 14D0     		beq	.L40
 807              	.LVL40:
 808              	.L41:
 418:../../libDaisy//src/hid/disp/display.h ****                 {
 809              		.loc 9 418 23 is_stmt 0 view .LVU183
 810 00ce 06FA03F5 		lsl	r5, r6, r3
 418:../../libDaisy//src/hid/disp/display.h ****                 {
 811              		.loc 9 418 17 view .LVU184
 812 00d2 2D04     		lsls	r5, r5, #16
 813 00d4 ECD4     		bmi	.L59
 814              	.LVL41:
 815              	.LBB543:
ARM GAS  /var/folders/hl/qgbwny5j0fd895c2c41bk3tw0000gp/T//ccRMOALe.s 			page 44


 816              	.LBI516:
  42:../../libDaisy//src/hid/disp/oled_display.h ****     {
 817              		.loc 8 42 10 is_stmt 1 view .LVU185
 818              	.LBB535:
 819              	.LBI517:
 352:../../libDaisy//src/dev/oled_ssd130x.h ****     {
 820              		.loc 10 352 10 view .LVU186
 821              	.LBB530:
 354:../../libDaisy//src/dev/oled_ssd130x.h ****             return;
 822              		.loc 10 354 9 is_stmt 0 view .LVU187
 823 00d6 7F29     		cmp	r1, #127
 824 00d8 F4D8     		bhi	.L37
 825 00da BEF13F0F 		cmp	lr, #63
 826 00de F1D8     		bhi	.L37
 357:../../libDaisy//src/dev/oled_ssd130x.h ****         else
 827              		.loc 10 357 42 view .LVU188
 828 00e0 1578     		ldrb	r5, [r2]	@ zero_extendqisi2
 356:../../libDaisy//src/dev/oled_ssd130x.h ****             buffer_[x + (y / 8) * width] |= (1 << (y % 8));
 829              		.loc 10 356 9 view .LVU189
 830 00e2 002F     		cmp	r7, #0
 831 00e4 EBD0     		beq	.L56
 832              	.L39:
 833              	.LVL42:
 834              	.LBB525:
 835              	.LBI519:
 352:../../libDaisy//src/dev/oled_ssd130x.h ****     {
 836              		.loc 10 352 10 is_stmt 1 view .LVU190
 352:../../libDaisy//src/dev/oled_ssd130x.h ****     {
 837              		.loc 10 352 10 is_stmt 0 view .LVU191
 838              	.LBE525:
 839              	.LBE530:
 840              	.LBE535:
 841              	.LBE543:
 416:../../libDaisy//src/hid/disp/display.h ****             {
 842              		.loc 9 416 13 view .LVU192
 843 00e6 0133     		adds	r3, r3, #1
 844              	.LVL43:
 845              	.LBB544:
 846              	.LBB536:
 847              	.LBB531:
 848              	.LBB526:
 849              	.LBB522:
 359:../../libDaisy//src/dev/oled_ssd130x.h ****     }
 850              		.loc 10 359 42 view .LVU193
 851 00e8 09EA0505 		and	r5, r9, r5
 852              	.LBE522:
 853              	.LBE526:
 854              	.LBE531:
 855              	.LBE536:
 856              	.LBE544:
 416:../../libDaisy//src/hid/disp/display.h ****             {
 857              		.loc 9 416 26 view .LVU194
 858 00ec 0132     		adds	r2, r2, #1
 859 00ee 0131     		adds	r1, r1, #1
 860 00f0 9C42     		cmp	r4, r3
 861              	.LBB545:
 862              	.LBB537:
ARM GAS  /var/folders/hl/qgbwny5j0fd895c2c41bk3tw0000gp/T//ccRMOALe.s 			page 45


 863              	.LBB532:
 864              	.LBB527:
 865              	.LBB523:
 359:../../libDaisy//src/dev/oled_ssd130x.h ****     }
 866              		.loc 10 359 42 view .LVU195
 867 00f2 02F8015C 		strb	r5, [r2, #-1]
 359:../../libDaisy//src/dev/oled_ssd130x.h ****     }
 868              		.loc 10 359 42 view .LVU196
 869              	.LBE523:
 870              	.LBE527:
 871              	.LBE532:
 872              	.LBE537:
 873              	.LBE545:
 416:../../libDaisy//src/hid/disp/display.h ****             {
 874              		.loc 9 416 13 is_stmt 1 view .LVU197
 875              	.LVL44:
 416:../../libDaisy//src/hid/disp/display.h ****             {
 876              		.loc 9 416 26 view .LVU198
 877 00f6 EAD1     		bne	.L41
 878              	.LVL45:
 879              	.L40:
 413:../../libDaisy//src/hid/disp/display.h ****         {
 880              		.loc 9 413 9 view .LVU199
 413:../../libDaisy//src/hid/disp/display.h ****         {
 881              		.loc 9 413 22 view .LVU200
 882 00f8 5845     		cmp	r0, fp
 883 00fa 0EF1010E 		add	lr, lr, #1
 884 00fe C0D1     		bne	.L35
 885              	.LVL46:
 886              	.L34:
 887              	.LBB546:
 888              	.LBB547:
 173:../../libDaisy//src/hid/disp/display.h ****         currentY_ = (y >= Height()) ? Height() - 1 : y;
 889              		.loc 9 173 33 is_stmt 0 view .LVU201
 890 0100 D8F80030 		ldr	r3, [r8]
 891              	.LBE547:
 892              	.LBE546:
 893              		.loc 9 434 18 view .LVU202
 894 0104 5444     		add	r4, r4, r10
 895 0106 2449     		ldr	r1, .L65
 896              	.LBB553:
 897              	.LBB548:
 173:../../libDaisy//src/hid/disp/display.h ****         currentY_ = (y >= Height()) ? Height() - 1 : y;
 898              		.loc 9 173 33 view .LVU203
 899 0108 DA68     		ldr	r2, [r3, #12]
 900              	.LBE548:
 901              	.LBE553:
 902              		.loc 9 434 18 view .LVU204
 903 010a A4B2     		uxth	r4, r4
 904              	.LVL47:
 905              	.LBB554:
 906              	.LBI546:
 171:../../libDaisy//src/hid/disp/display.h ****     {
 907              		.loc 9 171 10 is_stmt 1 view .LVU205
 908              	.LBB549:
 173:../../libDaisy//src/hid/disp/display.h ****         currentY_ = (y >= Height()) ? Height() - 1 : y;
 909              		.loc 9 173 9 view .LVU206
ARM GAS  /var/folders/hl/qgbwny5j0fd895c2c41bk3tw0000gp/T//ccRMOALe.s 			page 46


 910 010c 8A42     		cmp	r2, r1
 911 010e 2DD1     		bne	.L60
 173:../../libDaisy//src/hid/disp/display.h ****         currentY_ = (y >= Height()) ? Height() - 1 : y;
 912              		.loc 9 173 33 is_stmt 0 view .LVU207
 913 0110 8020     		movs	r0, #128
 914              	.L42:
 173:../../libDaisy//src/hid/disp/display.h ****         currentY_ = (y >= Height()) ? Height() - 1 : y;
 915              		.loc 9 173 19 view .LVU208
 916 0112 8442     		cmp	r4, r0
 917 0114 1CD2     		bcs	.L61
 918              	.LVL48:
 919              	.L43:
 174:../../libDaisy//src/hid/disp/display.h ****     }
 920              		.loc 9 174 34 view .LVU209
 921 0116 9B68     		ldr	r3, [r3, #8]
 922 0118 204A     		ldr	r2, .L65+4
 173:../../libDaisy//src/hid/disp/display.h ****         currentY_ = (y >= Height()) ? Height() - 1 : y;
 923              		.loc 9 173 19 view .LVU210
 924 011a A8F80440 		strh	r4, [r8, #4]	@ movhi
 174:../../libDaisy//src/hid/disp/display.h ****     }
 925              		.loc 9 174 9 is_stmt 1 view .LVU211
 926 011e 9342     		cmp	r3, r2
 927 0120 21D1     		bne	.L62
 174:../../libDaisy//src/hid/disp/display.h ****     }
 928              		.loc 9 174 34 is_stmt 0 view .LVU212
 929 0122 4020     		movs	r0, #64
 930              	.L45:
 174:../../libDaisy//src/hid/disp/display.h ****     }
 931              		.loc 9 174 19 view .LVU213
 932 0124 019B     		ldr	r3, [sp, #4]
 933 0126 8342     		cmp	r3, r0
 934 0128 07D3     		bcc	.L46
 174:../../libDaisy//src/hid/disp/display.h ****     }
 935              		.loc 9 174 46 view .LVU214
 936 012a D8F80030 		ldr	r3, [r8]
 937 012e 1B4A     		ldr	r2, .L65+4
 938 0130 9B68     		ldr	r3, [r3, #8]
 939 0132 9342     		cmp	r3, r2
 940 0134 29D1     		bne	.L63
 941 0136 3F23     		movs	r3, #63
 942 0138 0193     		str	r3, [sp, #4]
 943              	.LVL49:
 944              	.L46:
 174:../../libDaisy//src/hid/disp/display.h ****     }
 945              		.loc 9 174 19 view .LVU215
 946 013a DDE90003 		ldrd	r0, r3, [sp]
 947 013e A8F80630 		strh	r3, [r8, #6]	@ movhi
 948              	.LVL50:
 174:../../libDaisy//src/hid/disp/display.h ****     }
 949              		.loc 9 174 19 view .LVU216
 950              	.LBE549:
 951              	.LBE554:
 435:../../libDaisy//src/hid/disp/display.h **** 
 436:../../libDaisy//src/hid/disp/display.h ****         // Return written char for validation
 437:../../libDaisy//src/hid/disp/display.h ****         return ch;
 438:../../libDaisy//src/hid/disp/display.h ****     }
 952              		.loc 9 438 5 view .LVU217
ARM GAS  /var/folders/hl/qgbwny5j0fd895c2c41bk3tw0000gp/T//ccRMOALe.s 			page 47


 953 0142 05B0     		add	sp, sp, #20
 954              		.cfi_remember_state
 955              		.cfi_def_cfa_offset 36
 956              		@ sp needed
 957 0144 BDE8F08F 		pop	{r4, r5, r6, r7, r8, r9, r10, fp, pc}
 958              	.LVL51:
 959              	.L30:
 960              		.cfi_restore_state
 402:../../libDaisy//src/hid/disp/display.h **** 
 961              		.loc 9 402 20 view .LVU218
 962 0148 0020     		movs	r0, #0
 963              		.loc 9 438 5 view .LVU219
 964 014a 05B0     		add	sp, sp, #20
 965              		.cfi_remember_state
 966              		.cfi_def_cfa_offset 36
 967              		@ sp needed
 968 014c BDE8F08F 		pop	{r4, r5, r6, r7, r8, r9, r10, fp, pc}
 969              	.LVL52:
 970              	.L61:
 971              		.cfi_restore_state
 972              	.LBB555:
 973              	.LBB550:
 173:../../libDaisy//src/hid/disp/display.h ****         currentY_ = (y >= Height()) ? Height() - 1 : y;
 974              		.loc 9 173 44 view .LVU220
 975 0150 DA68     		ldr	r2, [r3, #12]
 976 0152 1149     		ldr	r1, .L65
 977 0154 8A42     		cmp	r2, r1
 978 0156 11D1     		bne	.L64
 979 0158 7F24     		movs	r4, #127
 980              	.LVL53:
 173:../../libDaisy//src/hid/disp/display.h ****         currentY_ = (y >= Height()) ? Height() - 1 : y;
 981              		.loc 9 173 44 view .LVU221
 982 015a DCE7     		b	.L43
 983              	.LVL54:
 984              	.L57:
 173:../../libDaisy//src/hid/disp/display.h ****         currentY_ = (y >= Height()) ? Height() - 1 : y;
 985              		.loc 9 173 44 view .LVU222
 986              	.LBE550:
 987              	.LBE555:
 405:../../libDaisy//src/hid/disp/display.h ****            || Height() < (currentY_ + font.FontHeight))
 988              		.loc 9 405 17 view .LVU223
 989 015c 9847     		blx	r3
 990              	.LVL55:
 405:../../libDaisy//src/hid/disp/display.h ****            || Height() < (currentY_ + font.FontHeight))
 991              		.loc 9 405 17 view .LVU224
 992 015e 6AE7     		b	.L29
 993              	.L58:
 406:../../libDaisy//src/hid/disp/display.h ****         {
 994              		.loc 9 406 21 discriminator 2 view .LVU225
 995 0160 4046     		mov	r0, r8
 996 0162 9847     		blx	r3
 997              	.LVL56:
 998 0164 75E7     		b	.L31
 999              	.LVL57:
 1000              	.L62:
 1001              	.LBB556:
 1002              	.LBB551:
ARM GAS  /var/folders/hl/qgbwny5j0fd895c2c41bk3tw0000gp/T//ccRMOALe.s 			page 48


 174:../../libDaisy//src/hid/disp/display.h ****     }
 1003              		.loc 9 174 33 view .LVU226
 1004 0166 4046     		mov	r0, r8
 1005 0168 9847     		blx	r3
 1006              	.LVL58:
 1007 016a DBE7     		b	.L45
 1008              	.LVL59:
 1009              	.L60:
 173:../../libDaisy//src/hid/disp/display.h ****         currentY_ = (y >= Height()) ? Height() - 1 : y;
 1010              		.loc 9 173 32 view .LVU227
 1011 016c 4046     		mov	r0, r8
 1012 016e 9047     		blx	r2
 1013              	.LVL60:
 173:../../libDaisy//src/hid/disp/display.h ****         currentY_ = (y >= Height()) ? Height() - 1 : y;
 1014              		.loc 9 173 44 view .LVU228
 1015 0170 D8F80030 		ldr	r3, [r8]
 1016 0174 CDE7     		b	.L42
 1017              	.LVL61:
 1018              	.L32:
 173:../../libDaisy//src/hid/disp/display.h ****         currentY_ = (y >= Height()) ? Height() - 1 : y;
 1019              		.loc 9 173 44 view .LVU229
 1020              	.LBE551:
 1021              	.LBE556:
 434:../../libDaisy//src/hid/disp/display.h **** 
 1022              		.loc 9 434 19 view .LVU230
 1023 0176 B8F804A0 		ldrh	r10, [r8, #4]
 1024 017a C1E7     		b	.L34
 1025              	.LVL62:
 1026              	.L64:
 1027              	.LBB557:
 1028              	.LBB552:
 173:../../libDaisy//src/hid/disp/display.h ****         currentY_ = (y >= Height()) ? Height() - 1 : y;
 1029              		.loc 9 173 43 view .LVU231
 1030 017c 4046     		mov	r0, r8
 1031 017e 9047     		blx	r2
 1032              	.LVL63:
 173:../../libDaisy//src/hid/disp/display.h ****         currentY_ = (y >= Height()) ? Height() - 1 : y;
 1033              		.loc 9 173 19 view .LVU232
 1034 0180 0138     		subs	r0, r0, #1
 174:../../libDaisy//src/hid/disp/display.h ****     }
 1035              		.loc 9 174 34 view .LVU233
 1036 0182 D8F80030 		ldr	r3, [r8]
 173:../../libDaisy//src/hid/disp/display.h ****         currentY_ = (y >= Height()) ? Height() - 1 : y;
 1037              		.loc 9 173 19 view .LVU234
 1038 0186 84B2     		uxth	r4, r0
 1039              	.LVL64:
 173:../../libDaisy//src/hid/disp/display.h ****         currentY_ = (y >= Height()) ? Height() - 1 : y;
 1040              		.loc 9 173 19 view .LVU235
 1041 0188 C5E7     		b	.L43
 1042              	.L63:
 174:../../libDaisy//src/hid/disp/display.h ****     }
 1043              		.loc 9 174 45 view .LVU236
 1044 018a 4046     		mov	r0, r8
 1045 018c 9847     		blx	r3
 1046              	.LVL65:
 174:../../libDaisy//src/hid/disp/display.h ****     }
 1047              		.loc 9 174 19 view .LVU237
ARM GAS  /var/folders/hl/qgbwny5j0fd895c2c41bk3tw0000gp/T//ccRMOALe.s 			page 49


 1048 018e 0138     		subs	r0, r0, #1
 1049 0190 83B2     		uxth	r3, r0
 1050 0192 0193     		str	r3, [sp, #4]
 1051              	.LVL66:
 174:../../libDaisy//src/hid/disp/display.h ****     }
 1052              		.loc 9 174 19 view .LVU238
 1053 0194 D1E7     		b	.L46
 1054              	.L66:
 1055 0196 00BF     		.align	2
 1056              	.L65:
 1057 0198 00000000 		.word	_ZNK5daisy11OledDisplayINS_13SSD130xDriverILj128ELj64ENS_19SSD130xI2CTransportEEEE5WidthEv
 1058 019c 00000000 		.word	_ZNK5daisy11OledDisplayINS_13SSD130xDriverILj128ELj64ENS_19SSD130xI2CTransportEEEE6HeightEv
 1059              	.LBE552:
 1060              	.LBE557:
 1061              		.cfi_endproc
 1062              	.LFE5271:
 1064              		.section	.text._ZN5daisy25OneBitGraphicsDisplayImplINS_11OledDisplayINS_13SSD130xDriverILj128ELj64
 1065              		.align	1
 1066              		.p2align 2,,3
 1067              		.weak	_ZN5daisy25OneBitGraphicsDisplayImplINS_11OledDisplayINS_13SSD130xDriverILj128ELj64ENS_19SSD
 1068              		.syntax unified
 1069              		.thumb
 1070              		.thumb_func
 1071              		.fpu fpv5-d16
 1073              	_ZN5daisy25OneBitGraphicsDisplayImplINS_11OledDisplayINS_13SSD130xDriverILj128ELj64ENS_19SSD130xI2C
 1074              	.LVL67:
 1075              	.LFB5144:
 439:../../libDaisy//src/hid/disp/display.h **** 
 440:../../libDaisy//src/hid/disp/display.h ****     char WriteString(const char* str, FontDef font, bool on) override
 1076              		.loc 9 440 10 is_stmt 1 view -0
 1077              		.cfi_startproc
 1078              		@ args = 4, pretend = 0, frame = 32
 1079              		@ frame_needed = 0, uses_anonymous_args = 0
 1080              		.loc 9 440 10 is_stmt 0 view .LVU240
 1081 0000 2DE9F04F 		push	{r4, r5, r6, r7, r8, r9, r10, fp, lr}
 1082              		.cfi_def_cfa_offset 36
 1083              		.cfi_offset 4, -36
 1084              		.cfi_offset 5, -32
 1085              		.cfi_offset 6, -28
 1086              		.cfi_offset 7, -24
 1087              		.cfi_offset 8, -20
 1088              		.cfi_offset 9, -16
 1089              		.cfi_offset 10, -12
 1090              		.cfi_offset 11, -8
 1091              		.cfi_offset 14, -4
 1092 0004 89B0     		sub	sp, sp, #36
 1093              		.cfi_def_cfa_offset 72
 1094              		.loc 9 440 10 view .LVU241
 1095 0006 08AC     		add	r4, sp, #32
 1096 0008 9DF84870 		ldrb	r7, [sp, #72]	@ zero_extendqisi2
 1097 000c 0191     		str	r1, [sp, #4]
 1098 000e 04E90C00 		stmdb	r4, {r2, r3}
 441:../../libDaisy//src/hid/disp/display.h ****     {
 442:../../libDaisy//src/hid/disp/display.h ****         // Write until null-byte
 443:../../libDaisy//src/hid/disp/display.h ****         while(*str)
 1099              		.loc 9 443 9 is_stmt 1 view .LVU242
 1100 0012 0B78     		ldrb	r3, [r1]	@ zero_extendqisi2
ARM GAS  /var/folders/hl/qgbwny5j0fd895c2c41bk3tw0000gp/T//ccRMOALe.s 			page 50


 1101 0014 002B     		cmp	r3, #0
 1102 0016 00F0AB80 		beq	.L91
 1103 001a 1A46     		mov	r2, r3
 1104 001c 9DF81880 		ldrb	r8, [sp, #24]	@ zero_extendqisi2
 1105 0020 9DF81930 		ldrb	r3, [sp, #25]	@ zero_extendqisi2
 1106 0024 0646     		mov	r6, r0
 1107 0026 4546     		mov	r5, r8
 1108 0028 9046     		mov	r8, r2
 1109 002a 0393     		str	r3, [sp, #12]
 1110 002c 079B     		ldr	r3, [sp, #28]
 1111 002e 0593     		str	r3, [sp, #20]
 1112              	.LVL68:
 1113              	.L92:
 1114              	.LBB586:
 1115              	.LBI586:
 396:../../libDaisy//src/hid/disp/display.h ****     {
 1116              		.loc 9 396 10 view .LVU243
 1117              	.LBB587:
 401:../../libDaisy//src/hid/disp/display.h ****             return 0;
 1118              		.loc 9 401 20 is_stmt 0 view .LVU244
 1119 0030 A8F12004 		sub	r4, r8, #32
 401:../../libDaisy//src/hid/disp/display.h ****             return 0;
 1120              		.loc 9 401 9 view .LVU245
 1121 0034 E3B2     		uxtb	r3, r4
 1122 0036 5E2B     		cmp	r3, #94
 1123 0038 00F29E80 		bhi	.L73
 405:../../libDaisy//src/hid/disp/display.h ****            || Height() < (currentY_ + font.FontHeight))
 1124              		.loc 9 405 17 view .LVU246
 1125 003c 3368     		ldr	r3, [r6]
 1126 003e 5E4A     		ldr	r2, .L113
 1127 0040 DB68     		ldr	r3, [r3, #12]
 1128 0042 9342     		cmp	r3, r2
 1129 0044 40F09B80 		bne	.L106
 1130 0048 8020     		movs	r0, #128
 1131              	.L72:
 405:../../libDaisy//src/hid/disp/display.h ****            || Height() < (currentY_ + font.FontHeight))
 1132              		.loc 9 405 23 view .LVU247
 1133 004a B388     		ldrh	r3, [r6, #4]
 405:../../libDaisy//src/hid/disp/display.h ****            || Height() < (currentY_ + font.FontHeight))
 1134              		.loc 9 405 33 view .LVU248
 1135 004c 2B44     		add	r3, r3, r5
 406:../../libDaisy//src/hid/disp/display.h ****         {
 1136              		.loc 9 406 12 view .LVU249
 1137 004e 8342     		cmp	r3, r0
 1138 0050 00F39280 		bgt	.L73
 406:../../libDaisy//src/hid/disp/display.h ****         {
 1139              		.loc 9 406 21 view .LVU250
 1140 0054 3368     		ldr	r3, [r6]
 1141 0056 594A     		ldr	r2, .L113+4
 1142 0058 9B68     		ldr	r3, [r3, #8]
 1143 005a 9342     		cmp	r3, r2
 1144 005c 40F09280 		bne	.L107
 1145 0060 4020     		movs	r0, #64
 1146              	.L74:
 406:../../libDaisy//src/hid/disp/display.h ****         {
 1147              		.loc 9 406 27 view .LVU251
 1148 0062 F188     		ldrh	r1, [r6, #6]
ARM GAS  /var/folders/hl/qgbwny5j0fd895c2c41bk3tw0000gp/T//ccRMOALe.s 			page 51


 406:../../libDaisy//src/hid/disp/display.h ****         {
 1149              		.loc 9 406 37 view .LVU252
 1150 0064 039A     		ldr	r2, [sp, #12]
 406:../../libDaisy//src/hid/disp/display.h ****         {
 1151              		.loc 9 406 27 view .LVU253
 1152 0066 0291     		str	r1, [sp, #8]
 406:../../libDaisy//src/hid/disp/display.h ****         {
 1153              		.loc 9 406 37 view .LVU254
 1154 0068 8B18     		adds	r3, r1, r2
 406:../../libDaisy//src/hid/disp/display.h ****         {
 1155              		.loc 9 406 12 view .LVU255
 1156 006a 8342     		cmp	r3, r0
 1157 006c 00F38480 		bgt	.L73
 1158              	.LVL69:
 413:../../libDaisy//src/hid/disp/display.h ****         {
 1159              		.loc 9 413 22 is_stmt 1 view .LVU256
 1160 0070 002A     		cmp	r2, #0
 1161 0072 00F09180 		beq	.L75
 415:../../libDaisy//src/hid/disp/display.h ****             for(j = 0; j < font.FontWidth; j++)
 1162              		.loc 9 415 37 is_stmt 0 view .LVU257
 1163 0076 02FB04F4 		mul	r4, r2, r4
 1164 007a 6FF00049 		mvn	r9, #-2147483648
 1165 007e 059B     		ldr	r3, [sp, #20]
 1166 0080 A144     		add	r9, r9, r4
 1167 0082 1444     		add	r4, r4, r2
 434:../../libDaisy//src/hid/disp/display.h **** 
 1168              		.loc 9 434 19 view .LVU258
 1169 0084 B6F804B0 		ldrh	fp, [r6, #4]
 1170 0088 03EB4909 		add	r9, r3, r9, lsl #1
 1171 008c 023B     		subs	r3, r3, #2
 1172 008e CDF81080 		str	r8, [sp, #16]
 1173 0092 03EB4403 		add	r3, r3, r4, lsl #1
 1174 0096 0C46     		mov	r4, r1
 1175 0098 9A46     		mov	r10, r3
 1176              	.LVL70:
 1177              	.L78:
 415:../../libDaisy//src/hid/disp/display.h ****             for(j = 0; j < font.FontWidth; j++)
 1178              		.loc 9 415 15 view .LVU259
 1179 009a 39F802CF 		ldrh	ip, [r9, #2]!
 1180              	.LVL71:
 416:../../libDaisy//src/hid/disp/display.h ****             {
 1181              		.loc 9 416 26 is_stmt 1 view .LVU260
 1182 009e A5B3     		cbz	r5, .L83
 1183              	.LBB588:
 1184              	.LBB589:
 1185              	.LBB590:
 1186              	.LBB591:
 1187              	.LBB592:
 359:../../libDaisy//src/dev/oled_ssd130x.h ****     }
 1188              		.loc 10 359 55 is_stmt 0 view .LVU261
 1189 00a0 04F00703 		and	r3, r4, #7
 359:../../libDaisy//src/dev/oled_ssd130x.h ****     }
 1190              		.loc 10 359 49 view .LVU262
 1191 00a4 4FF0010E 		mov	lr, #1
 359:../../libDaisy//src/dev/oled_ssd130x.h ****     }
 1192              		.loc 10 359 28 view .LVU263
 1193 00a8 E208     		lsrs	r2, r4, #3
ARM GAS  /var/folders/hl/qgbwny5j0fd895c2c41bk3tw0000gp/T//ccRMOALe.s 			page 52


 1194 00aa 5946     		mov	r1, fp
 359:../../libDaisy//src/dev/oled_ssd130x.h ****     }
 1195              		.loc 10 359 49 view .LVU264
 1196 00ac 0EFA03FE 		lsl	lr, lr, r3
 1197 00b0 0BF11003 		add	r3, fp, #16
 359:../../libDaisy//src/dev/oled_ssd130x.h ****     }
 1198              		.loc 10 359 42 view .LVU265
 1199 00b4 4FFA8EFE 		sxtb	lr, lr
 1200 00b8 03EBC212 		add	r2, r3, r2, lsl #7
 1201              	.LBE592:
 1202              	.LBE591:
 1203              	.LBE590:
 1204              	.LBE589:
 1205              	.LBE588:
 416:../../libDaisy//src/hid/disp/display.h ****             {
 1206              		.loc 9 416 19 view .LVU266
 1207 00bc 0023     		movs	r3, #0
 1208              	.LBB610:
 1209              	.LBB605:
 1210              	.LBB600:
 1211              	.LBB596:
 1212              	.LBB593:
 359:../../libDaisy//src/dev/oled_ssd130x.h ****     }
 1213              		.loc 10 359 42 view .LVU267
 1214 00be 6FEA0E08 		mvn	r8, lr
 1215 00c2 3244     		add	r2, r2, r6
 1216 00c4 0DE0     		b	.L84
 1217              	.LVL72:
 1218              	.L108:
 359:../../libDaisy//src/dev/oled_ssd130x.h ****     }
 1219              		.loc 10 359 42 view .LVU268
 1220              	.LBE593:
 1221              	.LBE596:
 1222              	.LBE600:
 1223              	.LBE605:
 1224              	.LBE610:
 1225              	.LBB611:
 1226              	.LBI611:
  42:../../libDaisy//src/hid/disp/oled_display.h ****     {
 1227              		.loc 8 42 10 is_stmt 1 view .LVU269
 1228              	.LBB612:
 1229              	.LBI612:
 352:../../libDaisy//src/dev/oled_ssd130x.h ****     {
 1230              		.loc 10 352 10 view .LVU270
 1231              	.LBB613:
 354:../../libDaisy//src/dev/oled_ssd130x.h ****             return;
 1232              		.loc 10 354 9 is_stmt 0 view .LVU271
 1233 00c6 7F29     		cmp	r1, #127
 1234 00c8 06D8     		bhi	.L80
 1235 00ca 3F2C     		cmp	r4, #63
 1236 00cc 04D8     		bhi	.L80
 357:../../libDaisy//src/dev/oled_ssd130x.h ****         else
 1237              		.loc 10 357 42 view .LVU272
 1238 00ce 1078     		ldrb	r0, [r2]	@ zero_extendqisi2
 356:../../libDaisy//src/dev/oled_ssd130x.h ****             buffer_[x + (y / 8) * width] |= (1 << (y % 8));
 1239              		.loc 10 356 9 view .LVU273
 1240 00d0 97B1     		cbz	r7, .L82
ARM GAS  /var/folders/hl/qgbwny5j0fd895c2c41bk3tw0000gp/T//ccRMOALe.s 			page 53


 1241              	.L105:
 356:../../libDaisy//src/dev/oled_ssd130x.h ****             buffer_[x + (y / 8) * width] |= (1 << (y % 8));
 1242              		.loc 10 356 9 view .LVU274
 1243              	.LBE613:
 1244              	.LBE612:
 1245              	.LBE611:
 1246              	.LBB614:
 1247              	.LBB606:
 1248              	.LBB601:
 357:../../libDaisy//src/dev/oled_ssd130x.h ****         else
 1249              		.loc 10 357 42 view .LVU275
 1250 00d2 4EEA0000 		orr	r0, lr, r0
 1251 00d6 1070     		strb	r0, [r2]
 1252              	.L80:
 1253              	.LBE601:
 1254              	.LBE606:
 1255              	.LBE614:
 416:../../libDaisy//src/hid/disp/display.h ****             {
 1256              		.loc 9 416 13 is_stmt 1 view .LVU276
 1257 00d8 0133     		adds	r3, r3, #1
 1258              	.LVL73:
 416:../../libDaisy//src/hid/disp/display.h ****             {
 1259              		.loc 9 416 26 view .LVU277
 1260 00da 0132     		adds	r2, r2, #1
 1261 00dc 0131     		adds	r1, r1, #1
 1262 00de AB42     		cmp	r3, r5
 1263 00e0 13D0     		beq	.L83
 1264              	.LVL74:
 1265              	.L84:
 418:../../libDaisy//src/hid/disp/display.h ****                 {
 1266              		.loc 9 418 23 is_stmt 0 view .LVU278
 1267 00e2 0CFA03F0 		lsl	r0, ip, r3
 418:../../libDaisy//src/hid/disp/display.h ****                 {
 1268              		.loc 9 418 17 view .LVU279
 1269 00e6 0004     		lsls	r0, r0, #16
 1270 00e8 EDD4     		bmi	.L108
 1271              	.LVL75:
 1272              	.LBB615:
 1273              	.LBI588:
  42:../../libDaisy//src/hid/disp/oled_display.h ****     {
 1274              		.loc 8 42 10 is_stmt 1 view .LVU280
 1275              	.LBB607:
 1276              	.LBI589:
 352:../../libDaisy//src/dev/oled_ssd130x.h ****     {
 1277              		.loc 10 352 10 view .LVU281
 1278              	.LBB602:
 354:../../libDaisy//src/dev/oled_ssd130x.h ****             return;
 1279              		.loc 10 354 9 is_stmt 0 view .LVU282
 1280 00ea 7F29     		cmp	r1, #127
 1281 00ec F4D8     		bhi	.L80
 1282 00ee 3F2C     		cmp	r4, #63
 1283 00f0 F2D8     		bhi	.L80
 357:../../libDaisy//src/dev/oled_ssd130x.h ****         else
 1284              		.loc 10 357 42 view .LVU283
 1285 00f2 1078     		ldrb	r0, [r2]	@ zero_extendqisi2
 356:../../libDaisy//src/dev/oled_ssd130x.h ****             buffer_[x + (y / 8) * width] |= (1 << (y % 8));
 1286              		.loc 10 356 9 view .LVU284
ARM GAS  /var/folders/hl/qgbwny5j0fd895c2c41bk3tw0000gp/T//ccRMOALe.s 			page 54


 1287 00f4 002F     		cmp	r7, #0
 1288 00f6 ECD0     		beq	.L105
 1289              	.L82:
 1290              	.LVL76:
 1291              	.LBB597:
 1292              	.LBI591:
 352:../../libDaisy//src/dev/oled_ssd130x.h ****     {
 1293              		.loc 10 352 10 is_stmt 1 view .LVU285
 352:../../libDaisy//src/dev/oled_ssd130x.h ****     {
 1294              		.loc 10 352 10 is_stmt 0 view .LVU286
 1295              	.LBE597:
 1296              	.LBE602:
 1297              	.LBE607:
 1298              	.LBE615:
 416:../../libDaisy//src/hid/disp/display.h ****             {
 1299              		.loc 9 416 13 view .LVU287
 1300 00f8 0133     		adds	r3, r3, #1
 1301              	.LVL77:
 1302              	.LBB616:
 1303              	.LBB608:
 1304              	.LBB603:
 1305              	.LBB598:
 1306              	.LBB594:
 359:../../libDaisy//src/dev/oled_ssd130x.h ****     }
 1307              		.loc 10 359 42 view .LVU288
 1308 00fa 08EA0000 		and	r0, r8, r0
 1309              	.LBE594:
 1310              	.LBE598:
 1311              	.LBE603:
 1312              	.LBE608:
 1313              	.LBE616:
 416:../../libDaisy//src/hid/disp/display.h ****             {
 1314              		.loc 9 416 26 view .LVU289
 1315 00fe 0132     		adds	r2, r2, #1
 1316 0100 0131     		adds	r1, r1, #1
 1317 0102 AB42     		cmp	r3, r5
 1318              	.LBB617:
 1319              	.LBB609:
 1320              	.LBB604:
 1321              	.LBB599:
 1322              	.LBB595:
 359:../../libDaisy//src/dev/oled_ssd130x.h ****     }
 1323              		.loc 10 359 42 view .LVU290
 1324 0104 02F8010C 		strb	r0, [r2, #-1]
 359:../../libDaisy//src/dev/oled_ssd130x.h ****     }
 1325              		.loc 10 359 42 view .LVU291
 1326              	.LBE595:
 1327              	.LBE599:
 1328              	.LBE604:
 1329              	.LBE609:
 1330              	.LBE617:
 416:../../libDaisy//src/hid/disp/display.h ****             {
 1331              		.loc 9 416 13 is_stmt 1 view .LVU292
 1332              	.LVL78:
 416:../../libDaisy//src/hid/disp/display.h ****             {
 1333              		.loc 9 416 26 view .LVU293
 1334 0108 EBD1     		bne	.L84
ARM GAS  /var/folders/hl/qgbwny5j0fd895c2c41bk3tw0000gp/T//ccRMOALe.s 			page 55


 1335              	.LVL79:
 1336              	.L83:
 413:../../libDaisy//src/hid/disp/display.h ****         {
 1337              		.loc 9 413 9 view .LVU294
 413:../../libDaisy//src/hid/disp/display.h ****         {
 1338              		.loc 9 413 22 view .LVU295
 1339 010a D145     		cmp	r9, r10
 1340 010c 04F10104 		add	r4, r4, #1
 1341 0110 C3D1     		bne	.L78
 1342 0112 DDF81080 		ldr	r8, [sp, #16]
 1343              	.LVL80:
 1344              	.L77:
 1345              	.LBB618:
 1346              	.LBB619:
 173:../../libDaisy//src/hid/disp/display.h ****         currentY_ = (y >= Height()) ? Height() - 1 : y;
 1347              		.loc 9 173 33 is_stmt 0 view .LVU296
 1348 0116 3268     		ldr	r2, [r6]
 1349              	.LBE619:
 1350              	.LBE618:
 434:../../libDaisy//src/hid/disp/display.h **** 
 1351              		.loc 9 434 18 view .LVU297
 1352 0118 0BEB0504 		add	r4, fp, r5
 1353 011c 2649     		ldr	r1, .L113
 1354              	.LBB624:
 1355              	.LBB620:
 173:../../libDaisy//src/hid/disp/display.h ****         currentY_ = (y >= Height()) ? Height() - 1 : y;
 1356              		.loc 9 173 33 view .LVU298
 1357 011e D368     		ldr	r3, [r2, #12]
 1358              	.LBE620:
 1359              	.LBE624:
 434:../../libDaisy//src/hid/disp/display.h **** 
 1360              		.loc 9 434 18 view .LVU299
 1361 0120 A4B2     		uxth	r4, r4
 1362              	.LVL81:
 1363              	.LBB625:
 1364              	.LBI618:
 171:../../libDaisy//src/hid/disp/display.h ****     {
 1365              		.loc 9 171 10 is_stmt 1 view .LVU300
 1366              	.LBB621:
 173:../../libDaisy//src/hid/disp/display.h ****         currentY_ = (y >= Height()) ? Height() - 1 : y;
 1367              		.loc 9 173 9 view .LVU301
 1368 0122 8B42     		cmp	r3, r1
 1369 0124 34D1     		bne	.L109
 173:../../libDaisy//src/hid/disp/display.h ****         currentY_ = (y >= Height()) ? Height() - 1 : y;
 1370              		.loc 9 173 33 is_stmt 0 view .LVU302
 1371 0126 8020     		movs	r0, #128
 1372              	.L85:
 173:../../libDaisy//src/hid/disp/display.h ****         currentY_ = (y >= Height()) ? Height() - 1 : y;
 1373              		.loc 9 173 19 view .LVU303
 1374 0128 8442     		cmp	r4, r0
 1375 012a 04D3     		bcc	.L86
 173:../../libDaisy//src/hid/disp/display.h ****         currentY_ = (y >= Height()) ? Height() - 1 : y;
 1376              		.loc 9 173 44 view .LVU304
 1377 012c D368     		ldr	r3, [r2, #12]
 1378 012e 2249     		ldr	r1, .L113
 1379 0130 8B42     		cmp	r3, r1
 1380 0132 3AD1     		bne	.L110
ARM GAS  /var/folders/hl/qgbwny5j0fd895c2c41bk3tw0000gp/T//ccRMOALe.s 			page 56


 1381 0134 7F24     		movs	r4, #127
 1382              	.LVL82:
 1383              	.L86:
 174:../../libDaisy//src/hid/disp/display.h ****     }
 1384              		.loc 9 174 34 view .LVU305
 1385 0136 9368     		ldr	r3, [r2, #8]
 1386 0138 204A     		ldr	r2, .L113+4
 173:../../libDaisy//src/hid/disp/display.h ****         currentY_ = (y >= Height()) ? Height() - 1 : y;
 1387              		.loc 9 173 19 view .LVU306
 1388 013a B480     		strh	r4, [r6, #4]	@ movhi
 174:../../libDaisy//src/hid/disp/display.h ****     }
 1389              		.loc 9 174 9 is_stmt 1 view .LVU307
 1390 013c 9342     		cmp	r3, r2
 1391 013e 24D1     		bne	.L111
 174:../../libDaisy//src/hid/disp/display.h ****     }
 1392              		.loc 9 174 34 is_stmt 0 view .LVU308
 1393 0140 4020     		movs	r0, #64
 1394              	.L88:
 174:../../libDaisy//src/hid/disp/display.h ****     }
 1395              		.loc 9 174 19 view .LVU309
 1396 0142 029B     		ldr	r3, [sp, #8]
 1397 0144 8342     		cmp	r3, r0
 1398 0146 06D3     		bcc	.L89
 174:../../libDaisy//src/hid/disp/display.h ****     }
 1399              		.loc 9 174 46 view .LVU310
 1400 0148 3368     		ldr	r3, [r6]
 1401 014a 1C4A     		ldr	r2, .L113+4
 1402 014c 9B68     		ldr	r3, [r3, #8]
 1403 014e 9342     		cmp	r3, r2
 1404 0150 25D1     		bne	.L112
 1405 0152 3F23     		movs	r3, #63
 1406 0154 0293     		str	r3, [sp, #8]
 1407              	.LVL83:
 1408              	.L89:
 174:../../libDaisy//src/hid/disp/display.h ****     }
 1409              		.loc 9 174 19 view .LVU311
 1410 0156 029B     		ldr	r3, [sp, #8]
 1411 0158 F380     		strh	r3, [r6, #6]	@ movhi
 1412              	.LVL84:
 1413              	.L71:
 174:../../libDaisy//src/hid/disp/display.h ****     }
 1414              		.loc 9 174 19 view .LVU312
 1415              	.LBE621:
 1416              	.LBE625:
 1417              	.LBE587:
 1418              	.LBE586:
 444:../../libDaisy//src/hid/disp/display.h ****         {
 445:../../libDaisy//src/hid/disp/display.h ****             if(((ChildType*)(this))->ChildType::WriteChar(*str, font, on)
 446:../../libDaisy//src/hid/disp/display.h ****                != *str)
 1419              		.loc 9 446 16 view .LVU313
 1420 015a 019B     		ldr	r3, [sp, #4]
 1421 015c 1878     		ldrb	r0, [r3]	@ zero_extendqisi2
 445:../../libDaisy//src/hid/disp/display.h ****                != *str)
 1422              		.loc 9 445 13 view .LVU314
 1423 015e 4045     		cmp	r0, r8
 1424 0160 07D1     		bne	.L69
 1425              	.LVL85:
ARM GAS  /var/folders/hl/qgbwny5j0fd895c2c41bk3tw0000gp/T//ccRMOALe.s 			page 57


 443:../../libDaisy//src/hid/disp/display.h ****         {
 1426              		.loc 9 443 9 is_stmt 1 view .LVU315
 1427 0162 13F8018F 		ldrb	r8, [r3, #1]!	@ zero_extendqisi2
 1428              	.LVL86:
 443:../../libDaisy//src/hid/disp/display.h ****         {
 1429              		.loc 9 443 9 is_stmt 0 view .LVU316
 1430 0166 0193     		str	r3, [sp, #4]
 1431 0168 B8F1000F 		cmp	r8, #0
 1432 016c 7FF460AF 		bne	.L92
 1433              	.LVL87:
 1434              	.L91:
 1435              	.LBB630:
 1436              	.LBB628:
 402:../../libDaisy//src/hid/disp/display.h **** 
 1437              		.loc 9 402 20 view .LVU317
 1438 0170 0020     		movs	r0, #0
 1439              	.L69:
 1440              	.LBE628:
 1441              	.LBE630:
 447:../../libDaisy//src/hid/disp/display.h ****             {
 448:../../libDaisy//src/hid/disp/display.h ****                 // Char could not be written
 449:../../libDaisy//src/hid/disp/display.h ****                 return *str;
 450:../../libDaisy//src/hid/disp/display.h ****             }
 451:../../libDaisy//src/hid/disp/display.h **** 
 452:../../libDaisy//src/hid/disp/display.h ****             // Next char
 453:../../libDaisy//src/hid/disp/display.h ****             str++;
 454:../../libDaisy//src/hid/disp/display.h ****         }
 455:../../libDaisy//src/hid/disp/display.h **** 
 456:../../libDaisy//src/hid/disp/display.h ****         // Everything ok
 457:../../libDaisy//src/hid/disp/display.h ****         return *str;
 458:../../libDaisy//src/hid/disp/display.h ****     }
 1442              		.loc 9 458 5 view .LVU318
 1443 0172 09B0     		add	sp, sp, #36
 1444              		.cfi_remember_state
 1445              		.cfi_def_cfa_offset 36
 1446              		@ sp needed
 1447 0174 BDE8F08F 		pop	{r4, r5, r6, r7, r8, r9, r10, fp, pc}
 1448              	.LVL88:
 1449              	.L73:
 1450              		.cfi_restore_state
 1451              	.LBB631:
 1452              	.LBB629:
 402:../../libDaisy//src/hid/disp/display.h **** 
 1453              		.loc 9 402 20 view .LVU319
 1454 0178 4FF00008 		mov	r8, #0
 1455              	.LVL89:
 402:../../libDaisy//src/hid/disp/display.h **** 
 1456              		.loc 9 402 20 view .LVU320
 1457 017c EDE7     		b	.L71
 1458              	.LVL90:
 1459              	.L106:
 405:../../libDaisy//src/hid/disp/display.h ****            || Height() < (currentY_ + font.FontHeight))
 1460              		.loc 9 405 17 view .LVU321
 1461 017e 3046     		mov	r0, r6
 1462 0180 9847     		blx	r3
 1463              	.LVL91:
 1464 0182 62E7     		b	.L72
ARM GAS  /var/folders/hl/qgbwny5j0fd895c2c41bk3tw0000gp/T//ccRMOALe.s 			page 58


 1465              	.L107:
 406:../../libDaisy//src/hid/disp/display.h ****         {
 1466              		.loc 9 406 21 view .LVU322
 1467 0184 3046     		mov	r0, r6
 1468 0186 9847     		blx	r3
 1469              	.LVL92:
 1470 0188 6BE7     		b	.L74
 1471              	.LVL93:
 1472              	.L111:
 1473              	.LBB626:
 1474              	.LBB622:
 174:../../libDaisy//src/hid/disp/display.h ****     }
 1475              		.loc 9 174 33 view .LVU323
 1476 018a 3046     		mov	r0, r6
 1477 018c 9847     		blx	r3
 1478              	.LVL94:
 1479 018e D8E7     		b	.L88
 1480              	.LVL95:
 1481              	.L109:
 173:../../libDaisy//src/hid/disp/display.h ****         currentY_ = (y >= Height()) ? Height() - 1 : y;
 1482              		.loc 9 173 32 view .LVU324
 1483 0190 3046     		mov	r0, r6
 1484 0192 9847     		blx	r3
 1485              	.LVL96:
 173:../../libDaisy//src/hid/disp/display.h ****         currentY_ = (y >= Height()) ? Height() - 1 : y;
 1486              		.loc 9 173 44 view .LVU325
 1487 0194 3268     		ldr	r2, [r6]
 1488 0196 C7E7     		b	.L85
 1489              	.LVL97:
 1490              	.L75:
 173:../../libDaisy//src/hid/disp/display.h ****         currentY_ = (y >= Height()) ? Height() - 1 : y;
 1491              		.loc 9 173 44 view .LVU326
 1492              	.LBE622:
 1493              	.LBE626:
 434:../../libDaisy//src/hid/disp/display.h **** 
 1494              		.loc 9 434 19 view .LVU327
 1495 0198 B6F804B0 		ldrh	fp, [r6, #4]
 1496 019c BBE7     		b	.L77
 1497              	.LVL98:
 1498              	.L112:
 1499              	.LBB627:
 1500              	.LBB623:
 174:../../libDaisy//src/hid/disp/display.h ****     }
 1501              		.loc 9 174 45 view .LVU328
 1502 019e 3046     		mov	r0, r6
 1503 01a0 9847     		blx	r3
 1504              	.LVL99:
 174:../../libDaisy//src/hid/disp/display.h ****     }
 1505              		.loc 9 174 19 view .LVU329
 1506 01a2 431E     		subs	r3, r0, #1
 1507 01a4 9BB2     		uxth	r3, r3
 1508 01a6 0293     		str	r3, [sp, #8]
 1509              	.LVL100:
 174:../../libDaisy//src/hid/disp/display.h ****     }
 1510              		.loc 9 174 19 view .LVU330
 1511 01a8 D5E7     		b	.L89
 1512              	.LVL101:
ARM GAS  /var/folders/hl/qgbwny5j0fd895c2c41bk3tw0000gp/T//ccRMOALe.s 			page 59


 1513              	.L110:
 173:../../libDaisy//src/hid/disp/display.h ****         currentY_ = (y >= Height()) ? Height() - 1 : y;
 1514              		.loc 9 173 43 view .LVU331
 1515 01aa 3046     		mov	r0, r6
 1516 01ac 9847     		blx	r3
 1517              	.LVL102:
 173:../../libDaisy//src/hid/disp/display.h ****         currentY_ = (y >= Height()) ? Height() - 1 : y;
 1518              		.loc 9 173 19 view .LVU332
 1519 01ae 0138     		subs	r0, r0, #1
 174:../../libDaisy//src/hid/disp/display.h ****     }
 1520              		.loc 9 174 34 view .LVU333
 1521 01b0 3268     		ldr	r2, [r6]
 173:../../libDaisy//src/hid/disp/display.h ****         currentY_ = (y >= Height()) ? Height() - 1 : y;
 1522              		.loc 9 173 19 view .LVU334
 1523 01b2 84B2     		uxth	r4, r0
 1524              	.LVL103:
 173:../../libDaisy//src/hid/disp/display.h ****         currentY_ = (y >= Height()) ? Height() - 1 : y;
 1525              		.loc 9 173 19 view .LVU335
 1526 01b4 BFE7     		b	.L86
 1527              	.L114:
 1528 01b6 00BF     		.align	2
 1529              	.L113:
 1530 01b8 00000000 		.word	_ZNK5daisy11OledDisplayINS_13SSD130xDriverILj128ELj64ENS_19SSD130xI2CTransportEEEE5WidthEv
 1531 01bc 00000000 		.word	_ZNK5daisy11OledDisplayINS_13SSD130xDriverILj128ELj64ENS_19SSD130xI2CTransportEEEE6HeightEv
 1532              	.LBE623:
 1533              	.LBE627:
 1534              	.LBE629:
 1535              	.LBE631:
 1536              		.cfi_endproc
 1537              	.LFE5144:
 1539              		.section	.text._ZN5daisy11OledDisplayINS_13SSD130xDriverILj128ELj64ENS_19SSD130xI2CTransportEEEE9D
 1540              		.align	1
 1541              		.p2align 2,,3
 1542              		.weak	_ZN5daisy11OledDisplayINS_13SSD130xDriverILj128ELj64ENS_19SSD130xI2CTransportEEEE9DrawPixelE
 1543              		.syntax unified
 1544              		.thumb
 1545              		.thumb_func
 1546              		.fpu fpv5-d16
 1548              	_ZN5daisy11OledDisplayINS_13SSD130xDriverILj128ELj64ENS_19SSD130xI2CTransportEEEE9DrawPixelEjjb:
 1549              	.LVL104:
 1550              	.LFB5316:
  42:../../libDaisy//src/hid/disp/oled_display.h ****     {
 1551              		.loc 8 42 10 is_stmt 1 view -0
 1552              		.cfi_startproc
 1553              		@ args = 0, pretend = 0, frame = 0
 1554              		@ frame_needed = 0, uses_anonymous_args = 0
 1555              		@ link register save eliminated.
 1556              	.LBB636:
 1557              	.LBI636:
 352:../../libDaisy//src/dev/oled_ssd130x.h ****     {
 1558              		.loc 10 352 10 view .LVU337
 1559              	.LBB637:
 354:../../libDaisy//src/dev/oled_ssd130x.h ****             return;
 1560              		.loc 10 354 9 is_stmt 0 view .LVU338
 1561 0000 7F29     		cmp	r1, #127
 1562 0002 1ED8     		bhi	.L115
 1563 0004 3F2A     		cmp	r2, #63
ARM GAS  /var/folders/hl/qgbwny5j0fd895c2c41bk3tw0000gp/T//ccRMOALe.s 			page 60


 1564 0006 1CD8     		bhi	.L115
 356:../../libDaisy//src/dev/oled_ssd130x.h ****             buffer_[x + (y / 8) * width] |= (1 << (y % 8));
 1565              		.loc 10 356 9 view .LVU339
 1566 0008 6BB1     		cbz	r3, .L117
 357:../../libDaisy//src/dev/oled_ssd130x.h ****         else
 1567              		.loc 10 357 28 view .LVU340
 1568 000a D308     		lsrs	r3, r2, #3
 1569              	.LVL105:
 357:../../libDaisy//src/dev/oled_ssd130x.h ****         else
 1570              		.loc 10 357 48 view .LVU341
 1571 000c 4FF0010C 		mov	ip, #1
 357:../../libDaisy//src/dev/oled_ssd130x.h ****         else
 1572              		.loc 10 357 54 view .LVU342
 1573 0010 02F00702 		and	r2, r2, #7
 1574              	.LVL106:
 357:../../libDaisy//src/dev/oled_ssd130x.h ****         else
 1575              		.loc 10 357 42 view .LVU343
 1576 0014 01EBC313 		add	r3, r1, r3, lsl #7
 357:../../libDaisy//src/dev/oled_ssd130x.h ****         else
 1577              		.loc 10 357 48 view .LVU344
 1578 0018 0CFA02F2 		lsl	r2, ip, r2
 357:../../libDaisy//src/dev/oled_ssd130x.h ****         else
 1579              		.loc 10 357 42 view .LVU345
 1580 001c C118     		adds	r1, r0, r3
 1581              	.LVL107:
 357:../../libDaisy//src/dev/oled_ssd130x.h ****         else
 1582              		.loc 10 357 42 view .LVU346
 1583 001e 0B7C     		ldrb	r3, [r1, #16]	@ zero_extendqisi2
 1584 0020 1A43     		orrs	r2, r2, r3
 1585 0022 0A74     		strb	r2, [r1, #16]
 1586 0024 7047     		bx	lr
 1587              	.LVL108:
 1588              	.L117:
 1589              	.LBB638:
 1590              	.LBI638:
 352:../../libDaisy//src/dev/oled_ssd130x.h ****     {
 1591              		.loc 10 352 10 is_stmt 1 view .LVU347
 1592              	.LBB639:
 359:../../libDaisy//src/dev/oled_ssd130x.h ****     }
 1593              		.loc 10 359 28 is_stmt 0 view .LVU348
 1594 0026 D308     		lsrs	r3, r2, #3
 1595              	.LVL109:
 359:../../libDaisy//src/dev/oled_ssd130x.h ****     }
 1596              		.loc 10 359 49 view .LVU349
 1597 0028 4FF0010C 		mov	ip, #1
 359:../../libDaisy//src/dev/oled_ssd130x.h ****     }
 1598              		.loc 10 359 55 view .LVU350
 1599 002c 02F00702 		and	r2, r2, #7
 1600              	.LVL110:
 359:../../libDaisy//src/dev/oled_ssd130x.h ****     }
 1601              		.loc 10 359 42 view .LVU351
 1602 0030 01EBC313 		add	r3, r1, r3, lsl #7
 359:../../libDaisy//src/dev/oled_ssd130x.h ****     }
 1603              		.loc 10 359 49 view .LVU352
 1604 0034 0CFA02FC 		lsl	ip, ip, r2
 359:../../libDaisy//src/dev/oled_ssd130x.h ****     }
 1605              		.loc 10 359 42 view .LVU353
ARM GAS  /var/folders/hl/qgbwny5j0fd895c2c41bk3tw0000gp/T//ccRMOALe.s 			page 61


 1606 0038 C118     		adds	r1, r0, r3
 1607              	.LVL111:
 359:../../libDaisy//src/dev/oled_ssd130x.h ****     }
 1608              		.loc 10 359 42 view .LVU354
 1609 003a 0A7C     		ldrb	r2, [r1, #16]	@ zero_extendqisi2
 1610 003c 22EA0C02 		bic	r2, r2, ip
 1611 0040 0A74     		strb	r2, [r1, #16]
 1612              	.LVL112:
 1613              	.L115:
 359:../../libDaisy//src/dev/oled_ssd130x.h ****     }
 1614              		.loc 10 359 42 view .LVU355
 1615              	.LBE639:
 1616              	.LBE638:
 1617              	.LBE637:
 1618              	.LBE636:
  45:../../libDaisy//src/hid/disp/oled_display.h **** 
 1619              		.loc 8 45 5 view .LVU356
 1620 0042 7047     		bx	lr
 1621              		.cfi_endproc
 1622              	.LFE5316:
 1624              		.section	.text._ZN5daisy25OneBitGraphicsDisplayImplINS_11OledDisplayINS_13SSD130xDriverILj128ELj64
 1625              		.align	1
 1626              		.p2align 2,,3
 1627              		.weak	_ZN5daisy25OneBitGraphicsDisplayImplINS_11OledDisplayINS_13SSD130xDriverILj128ELj64ENS_19SSD
 1628              		.syntax unified
 1629              		.thumb
 1630              		.thumb_func
 1631              		.fpu fpv5-d16
 1633              	_ZN5daisy25OneBitGraphicsDisplayImplINS_11OledDisplayINS_13SSD130xDriverILj128ELj64ENS_19SSD130xI2C
 1634              	.LVL113:
 1635              	.LFB5418:
 221:../../libDaisy//src/hid/disp/display.h ****                   uint_fast8_t y1,
 1636              		.loc 9 221 10 is_stmt 1 view -0
 1637              		.cfi_startproc
 1638              		@ args = 8, pretend = 0, frame = 8
 1639              		@ frame_needed = 0, uses_anonymous_args = 0
 221:../../libDaisy//src/hid/disp/display.h ****                   uint_fast8_t y1,
 1640              		.loc 9 221 10 is_stmt 0 view .LVU358
 1641 0000 2DE9F04F 		push	{r4, r5, r6, r7, r8, r9, r10, fp, lr}
 1642              		.cfi_def_cfa_offset 36
 1643              		.cfi_offset 4, -36
 1644              		.cfi_offset 5, -32
 1645              		.cfi_offset 6, -28
 1646              		.cfi_offset 7, -24
 1647              		.cfi_offset 8, -20
 1648              		.cfi_offset 9, -16
 1649              		.cfi_offset 10, -12
 1650              		.cfi_offset 11, -8
 1651              		.cfi_offset 14, -4
 1652 0004 83B0     		sub	sp, sp, #12
 1653              		.cfi_def_cfa_offset 48
 227:../../libDaisy//src/hid/disp/display.h ****         int_fast16_t deltaY = abs((int_fast16_t)y2 - (int_fast16_t)y1);
 1654              		.loc 9 227 52 view .LVU359
 1655 0006 5C1A     		subs	r4, r3, r1
 221:../../libDaisy//src/hid/disp/display.h ****                   uint_fast8_t y1,
 1656              		.loc 9 221 10 view .LVU360
 1657 0008 0C9E     		ldr	r6, [sp, #48]
ARM GAS  /var/folders/hl/qgbwny5j0fd895c2c41bk3tw0000gp/T//ccRMOALe.s 			page 62


 227:../../libDaisy//src/hid/disp/display.h ****         int_fast16_t deltaY = abs((int_fast16_t)y2 - (int_fast16_t)y1);
 1658              		.loc 9 227 22 view .LVU361
 1659 000a 002C     		cmp	r4, #0
 221:../../libDaisy//src/hid/disp/display.h ****                   uint_fast8_t y1,
 1660              		.loc 9 221 10 view .LVU362
 1661 000c 9DF83490 		ldrb	r9, [sp, #52]	@ zero_extendqisi2
 228:../../libDaisy//src/hid/disp/display.h ****         int_fast16_t signX  = ((x1 < x2) ? 1 : -1);
 1662              		.loc 9 228 52 view .LVU363
 1663 0010 A6EB0208 		sub	r8, r6, r2
 227:../../libDaisy//src/hid/disp/display.h ****         int_fast16_t deltaY = abs((int_fast16_t)y2 - (int_fast16_t)y1);
 1664              		.loc 9 227 22 view .LVU364
 1665 0014 B8BF     		it	lt
 1666 0016 6442     		rsblt	r4, r4, #0
 1667              	.LVL114:
 228:../../libDaisy//src/hid/disp/display.h ****         int_fast16_t signX  = ((x1 < x2) ? 1 : -1);
 1668              		.loc 9 228 22 view .LVU365
 1669 0018 B8F1000F 		cmp	r8, #0
 1670 001c B8BF     		it	lt
 1671 001e C8F10008 		rsblt	r8, r8, #0
 1672              	.LVL115:
 229:../../libDaisy//src/hid/disp/display.h ****         int_fast16_t signY  = ((y1 < y2) ? 1 : -1);
 1673              		.loc 9 229 42 view .LVU366
 1674 0022 8B42     		cmp	r3, r1
 1675 0024 8CBF     		ite	hi
 1676 0026 4FF0010A 		movhi	r10, #1
 1677 002a 4FF0FF3A 		movls	r10, #-1
 1678              	.LVL116:
 230:../../libDaisy//src/hid/disp/display.h ****         int_fast16_t error  = deltaX - deltaY;
 1679              		.loc 9 230 42 view .LVU367
 1680 002e 9642     		cmp	r6, r2
 231:../../libDaisy//src/hid/disp/display.h ****         int_fast16_t error2;
 1681              		.loc 9 231 22 view .LVU368
 1682 0030 A4EB080C 		sub	ip, r4, r8
 230:../../libDaisy//src/hid/disp/display.h ****         int_fast16_t error  = deltaX - deltaY;
 1683              		.loc 9 230 42 view .LVU369
 1684 0034 51D8     		bhi	.L120
 1685              	.LVL117:
 1686              	.LBB656:
 1687              	.LBI656:
  42:../../libDaisy//src/hid/disp/oled_display.h ****     {
 1688              		.loc 8 42 10 is_stmt 1 discriminator 4 view .LVU370
 1689              	.LBB657:
 1690              	.LBI657:
 352:../../libDaisy//src/dev/oled_ssd130x.h ****     {
 1691              		.loc 10 352 10 discriminator 4 view .LVU371
 1692              	.LBE657:
 1693              	.LBE656:
 230:../../libDaisy//src/hid/disp/display.h ****         int_fast16_t error  = deltaX - deltaY;
 1694              		.loc 9 230 42 is_stmt 0 discriminator 4 view .LVU372
 1695 0036 4FF0FF35 		mov	r5, #-1
 1696              	.LBB673:
 1697              	.LBB667:
 1698              	.LBB658:
 354:../../libDaisy//src/dev/oled_ssd130x.h ****             return;
 1699              		.loc 10 354 9 discriminator 4 view .LVU373
 1700 003a 7F2B     		cmp	r3, #127
 1701              	.LBE658:
ARM GAS  /var/folders/hl/qgbwny5j0fd895c2c41bk3tw0000gp/T//ccRMOALe.s 			page 63


 1702              	.LBE667:
 1703              	.LBE673:
 230:../../libDaisy//src/hid/disp/display.h ****         int_fast16_t error  = deltaX - deltaY;
 1704              		.loc 9 230 42 discriminator 4 view .LVU374
 1705 003c 0195     		str	r5, [sp, #4]
 1706              	.LBB674:
 1707              	.LBB668:
 1708              	.LBB663:
 354:../../libDaisy//src/dev/oled_ssd130x.h ****             return;
 1709              		.loc 10 354 9 discriminator 4 view .LVU375
 1710 003e 12D8     		bhi	.L121
 1711 0040 3F2E     		cmp	r6, #63
 1712 0042 10D8     		bhi	.L121
 1713              	.LVL118:
 1714              	.L132:
 357:../../libDaisy//src/dev/oled_ssd130x.h ****         else
 1715              		.loc 10 357 28 view .LVU376
 1716 0044 F508     		lsrs	r5, r6, #3
 357:../../libDaisy//src/dev/oled_ssd130x.h ****         else
 1717              		.loc 10 357 54 view .LVU377
 1718 0046 06F0070E 		and	lr, r6, #7
 357:../../libDaisy//src/dev/oled_ssd130x.h ****         else
 1719              		.loc 10 357 48 view .LVU378
 1720 004a 0127     		movs	r7, #1
 357:../../libDaisy//src/dev/oled_ssd130x.h ****         else
 1721              		.loc 10 357 42 view .LVU379
 1722 004c 03EBC515 		add	r5, r3, r5, lsl #7
 1723 0050 0544     		add	r5, r5, r0
 356:../../libDaisy//src/dev/oled_ssd130x.h ****             buffer_[x + (y / 8) * width] |= (1 << (y % 8));
 1724              		.loc 10 356 9 view .LVU380
 1725 0052 B9F1000F 		cmp	r9, #0
 1726 0056 47D0     		beq	.L122
 357:../../libDaisy//src/dev/oled_ssd130x.h ****         else
 1727              		.loc 10 357 48 view .LVU381
 1728 0058 07FA0EF7 		lsl	r7, r7, lr
 357:../../libDaisy//src/dev/oled_ssd130x.h ****         else
 1729              		.loc 10 357 42 view .LVU382
 1730 005c 95F810E0 		ldrb	lr, [r5, #16]	@ zero_extendqisi2
 1731 0060 47EA0E07 		orr	r7, r7, lr
 1732 0064 2F74     		strb	r7, [r5, #16]
 1733              	.LVL119:
 1734              	.L121:
 357:../../libDaisy//src/dev/oled_ssd130x.h ****         else
 1735              		.loc 10 357 42 view .LVU383
 1736              	.LBE663:
 1737              	.LBE668:
 1738              	.LBE674:
 239:../../libDaisy//src/hid/disp/display.h ****         {
 1739              		.loc 9 239 26 is_stmt 1 view .LVU384
 1740 0066 9642     		cmp	r6, r2
 1741 0068 01D1     		bne	.L125
 1742              	.L144:
 239:../../libDaisy//src/hid/disp/display.h ****         {
 1743              		.loc 9 239 26 is_stmt 0 view .LVU385
 1744 006a 8B42     		cmp	r3, r1
 1745 006c 29D0     		beq	.L118
 1746              	.L125:
ARM GAS  /var/folders/hl/qgbwny5j0fd895c2c41bk3tw0000gp/T//ccRMOALe.s 			page 64


 1747              	.LVL120:
 243:../../libDaisy//src/hid/disp/display.h ****             {
 1748              		.loc 9 243 23 view .LVU386
 1749 006e C8F10007 		rsb	r7, r8, #0
 1750              	.L127:
 1751              	.LVL121:
 1752              	.LBB675:
 1753              	.LBI675:
  42:../../libDaisy//src/hid/disp/oled_display.h ****     {
 1754              		.loc 8 42 10 is_stmt 1 view .LVU387
 1755              	.LBB676:
 1756              	.LBI676:
 352:../../libDaisy//src/dev/oled_ssd130x.h ****     {
 1757              		.loc 10 352 10 view .LVU388
 1758              	.LBB677:
 354:../../libDaisy//src/dev/oled_ssd130x.h ****             return;
 1759              		.loc 10 354 9 is_stmt 0 view .LVU389
 1760 0072 7F29     		cmp	r1, #127
 1761 0074 14D8     		bhi	.L128
 1762 0076 3F2A     		cmp	r2, #63
 1763 0078 12D8     		bhi	.L128
 357:../../libDaisy//src/dev/oled_ssd130x.h ****         else
 1764              		.loc 10 357 28 view .LVU390
 1765 007a D508     		lsrs	r5, r2, #3
 357:../../libDaisy//src/dev/oled_ssd130x.h ****         else
 1766              		.loc 10 357 54 view .LVU391
 1767 007c 02F0070B 		and	fp, r2, #7
 357:../../libDaisy//src/dev/oled_ssd130x.h ****         else
 1768              		.loc 10 357 48 view .LVU392
 1769 0080 4FF0010E 		mov	lr, #1
 357:../../libDaisy//src/dev/oled_ssd130x.h ****         else
 1770              		.loc 10 357 42 view .LVU393
 1771 0084 01EBC515 		add	r5, r1, r5, lsl #7
 1772 0088 0544     		add	r5, r5, r0
 356:../../libDaisy//src/dev/oled_ssd130x.h ****             buffer_[x + (y / 8) * width] |= (1 << (y % 8));
 1773              		.loc 10 356 9 view .LVU394
 1774 008a B9F1000F 		cmp	r9, #0
 1775 008e 1BD0     		beq	.L129
 357:../../libDaisy//src/dev/oled_ssd130x.h ****         else
 1776              		.loc 10 357 48 view .LVU395
 1777 0090 0EFA0BFE 		lsl	lr, lr, fp
 357:../../libDaisy//src/dev/oled_ssd130x.h ****         else
 1778              		.loc 10 357 42 view .LVU396
 1779 0094 95F810B0 		ldrb	fp, [r5, #16]	@ zero_extendqisi2
 1780 0098 4EEA0B0E 		orr	lr, lr, fp
 1781 009c 85F810E0 		strb	lr, [r5, #16]
 1782              	.L128:
 1783              	.LVL122:
 357:../../libDaisy//src/dev/oled_ssd130x.h ****         else
 1784              		.loc 10 357 42 view .LVU397
 1785              	.LBE677:
 1786              	.LBE676:
 1787              	.LBE675:
 243:../../libDaisy//src/hid/disp/display.h ****             {
 1788              		.loc 9 243 13 view .LVU398
 1789 00a0 B7EB4C0F 		cmp	r7, ip, lsl #1
 242:../../libDaisy//src/hid/disp/display.h ****             if(error2 > -deltaY)
ARM GAS  /var/folders/hl/qgbwny5j0fd895c2c41bk3tw0000gp/T//ccRMOALe.s 			page 65


 1790              		.loc 9 242 20 view .LVU399
 1791 00a4 4FEA4C05 		lsl	r5, ip, #1
 1792              	.LVL123:
 243:../../libDaisy//src/hid/disp/display.h ****             {
 1793              		.loc 9 243 13 view .LVU400
 1794 00a8 02DA     		bge	.L130
 245:../../libDaisy//src/hid/disp/display.h ****                 x1 += signX;
 1795              		.loc 9 245 23 view .LVU401
 1796 00aa ACEB080C 		sub	ip, ip, r8
 1797              	.LVL124:
 246:../../libDaisy//src/hid/disp/display.h ****             }
 1798              		.loc 9 246 20 view .LVU402
 1799 00ae 5144     		add	r1, r1, r10
 1800              	.LVL125:
 1801              	.L130:
 249:../../libDaisy//src/hid/disp/display.h ****             {
 1802              		.loc 9 249 13 view .LVU403
 1803 00b0 AC42     		cmp	r4, r5
 1804 00b2 02DD     		ble	.L131
 252:../../libDaisy//src/hid/disp/display.h ****             }
 1805              		.loc 9 252 20 view .LVU404
 1806 00b4 019D     		ldr	r5, [sp, #4]
 1807              	.LVL126:
 251:../../libDaisy//src/hid/disp/display.h ****                 y1 += signY;
 1808              		.loc 9 251 23 view .LVU405
 1809 00b6 A444     		add	ip, ip, r4
 1810              	.LVL127:
 252:../../libDaisy//src/hid/disp/display.h ****             }
 1811              		.loc 9 252 20 view .LVU406
 1812 00b8 2A44     		add	r2, r2, r5
 1813              	.LVL128:
 1814              	.L131:
 239:../../libDaisy//src/hid/disp/display.h ****         {
 1815              		.loc 9 239 26 is_stmt 1 view .LVU407
 1816 00ba 9942     		cmp	r1, r3
 1817 00bc D9D1     		bne	.L127
 239:../../libDaisy//src/hid/disp/display.h ****         {
 1818              		.loc 9 239 26 is_stmt 0 view .LVU408
 1819 00be 9642     		cmp	r6, r2
 1820 00c0 D7D1     		bne	.L127
 1821              	.L118:
 255:../../libDaisy//src/hid/disp/display.h **** 
 1822              		.loc 9 255 5 view .LVU409
 1823 00c2 03B0     		add	sp, sp, #12
 1824              		.cfi_remember_state
 1825              		.cfi_def_cfa_offset 36
 1826              		@ sp needed
 1827 00c4 BDE8F08F 		pop	{r4, r5, r6, r7, r8, r9, r10, fp, pc}
 1828              	.LVL129:
 1829              	.L129:
 1830              		.cfi_restore_state
 1831              	.LBB682:
 1832              	.LBB681:
 1833              	.LBB680:
 1834              	.LBB678:
 1835              	.LBI678:
 352:../../libDaisy//src/dev/oled_ssd130x.h ****     {
ARM GAS  /var/folders/hl/qgbwny5j0fd895c2c41bk3tw0000gp/T//ccRMOALe.s 			page 66


 1836              		.loc 10 352 10 is_stmt 1 view .LVU410
 1837              	.LBB679:
 359:../../libDaisy//src/dev/oled_ssd130x.h ****     }
 1838              		.loc 10 359 49 is_stmt 0 view .LVU411
 1839 00c8 0EFA0BFB 		lsl	fp, lr, fp
 359:../../libDaisy//src/dev/oled_ssd130x.h ****     }
 1840              		.loc 10 359 42 view .LVU412
 1841 00cc 95F810E0 		ldrb	lr, [r5, #16]	@ zero_extendqisi2
 1842 00d0 2EEA0B0E 		bic	lr, lr, fp
 1843 00d4 85F810E0 		strb	lr, [r5, #16]
 1844 00d8 E2E7     		b	.L128
 1845              	.LVL130:
 1846              	.L120:
 359:../../libDaisy//src/dev/oled_ssd130x.h ****     }
 1847              		.loc 10 359 42 view .LVU413
 1848              	.LBE679:
 1849              	.LBE678:
 1850              	.LBE680:
 1851              	.LBE681:
 1852              	.LBE682:
 1853              	.LBB683:
  42:../../libDaisy//src/hid/disp/oled_display.h ****     {
 1854              		.loc 8 42 10 is_stmt 1 view .LVU414
 1855              	.LBB669:
 352:../../libDaisy//src/dev/oled_ssd130x.h ****     {
 1856              		.loc 10 352 10 view .LVU415
 1857              	.LBE669:
 1858              	.LBE683:
 230:../../libDaisy//src/hid/disp/display.h ****         int_fast16_t error  = deltaX - deltaY;
 1859              		.loc 9 230 42 is_stmt 0 view .LVU416
 1860 00da 0125     		movs	r5, #1
 1861              	.LBB684:
 1862              	.LBB670:
 1863              	.LBB664:
 354:../../libDaisy//src/dev/oled_ssd130x.h ****             return;
 1864              		.loc 10 354 9 view .LVU417
 1865 00dc 7F2B     		cmp	r3, #127
 1866              	.LBE664:
 1867              	.LBE670:
 1868              	.LBE684:
 230:../../libDaisy//src/hid/disp/display.h ****         int_fast16_t error  = deltaX - deltaY;
 1869              		.loc 9 230 42 view .LVU418
 1870 00de 0195     		str	r5, [sp, #4]
 1871              	.LBB685:
 1872              	.LBB671:
 1873              	.LBB665:
 354:../../libDaisy//src/dev/oled_ssd130x.h ****             return;
 1874              		.loc 10 354 9 view .LVU419
 1875 00e0 C5D8     		bhi	.L125
 1876 00e2 3F2E     		cmp	r6, #63
 1877 00e4 AED9     		bls	.L132
 1878 00e6 C2E7     		b	.L125
 1879              	.LVL131:
 1880              	.L122:
 1881              	.LBB659:
 1882              	.LBI659:
 352:../../libDaisy//src/dev/oled_ssd130x.h ****     {
ARM GAS  /var/folders/hl/qgbwny5j0fd895c2c41bk3tw0000gp/T//ccRMOALe.s 			page 67


 1883              		.loc 10 352 10 is_stmt 1 view .LVU420
 1884              	.LBB660:
 359:../../libDaisy//src/dev/oled_ssd130x.h ****     }
 1885              		.loc 10 359 49 is_stmt 0 view .LVU421
 1886 00e8 07FA0EFE 		lsl	lr, r7, lr
 359:../../libDaisy//src/dev/oled_ssd130x.h ****     }
 1887              		.loc 10 359 42 view .LVU422
 1888 00ec 2F7C     		ldrb	r7, [r5, #16]	@ zero_extendqisi2
 1889              	.LBE660:
 1890              	.LBE659:
 1891              	.LBE665:
 1892              	.LBE671:
 1893              	.LBE685:
 239:../../libDaisy//src/hid/disp/display.h ****         {
 1894              		.loc 9 239 26 view .LVU423
 1895 00ee 9642     		cmp	r6, r2
 1896              	.LBB686:
 1897              	.LBB672:
 1898              	.LBB666:
 1899              	.LBB662:
 1900              	.LBB661:
 359:../../libDaisy//src/dev/oled_ssd130x.h ****     }
 1901              		.loc 10 359 42 view .LVU424
 1902 00f0 27EA0E07 		bic	r7, r7, lr
 1903 00f4 2F74     		strb	r7, [r5, #16]
 1904              	.LVL132:
 359:../../libDaisy//src/dev/oled_ssd130x.h ****     }
 1905              		.loc 10 359 42 view .LVU425
 1906              	.LBE661:
 1907              	.LBE662:
 1908              	.LBE666:
 1909              	.LBE672:
 1910              	.LBE686:
 239:../../libDaisy//src/hid/disp/display.h ****         {
 1911              		.loc 9 239 26 is_stmt 1 view .LVU426
 1912 00f6 B8D0     		beq	.L144
 1913 00f8 B9E7     		b	.L125
 1914              		.cfi_endproc
 1915              	.LFE5418:
 1917 00fa 00BF     		.section	.text._ZN5daisy25OneBitGraphicsDisplayImplINS_11OledDisplayINS_13SSD130xDriverILj128ELj64
 1918              		.align	1
 1919              		.p2align 2,,3
 1920              		.weak	_ZN5daisy25OneBitGraphicsDisplayImplINS_11OledDisplayINS_13SSD130xDriverILj128ELj64ENS_19SSD
 1921              		.syntax unified
 1922              		.thumb
 1923              		.thumb_func
 1924              		.fpu fpv5-d16
 1926              	_ZN5daisy25OneBitGraphicsDisplayImplINS_11OledDisplayINS_13SSD130xDriverILj128ELj64ENS_19SSD130xI2C
 1927              	.LVL133:
 1928              	.LFB5420:
 283:../../libDaisy//src/hid/disp/display.h ****                  uint_fast8_t y,
 1929              		.loc 9 283 10 view -0
 1930              		.cfi_startproc
 1931              		@ args = 12, pretend = 0, frame = 8
 1932              		@ frame_needed = 0, uses_anonymous_args = 0
 283:../../libDaisy//src/hid/disp/display.h ****                  uint_fast8_t y,
 1933              		.loc 9 283 10 is_stmt 0 view .LVU428
ARM GAS  /var/folders/hl/qgbwny5j0fd895c2c41bk3tw0000gp/T//ccRMOALe.s 			page 68


 1934 0000 2DE9F04F 		push	{r4, r5, r6, r7, r8, r9, r10, fp, lr}
 1935              		.cfi_def_cfa_offset 36
 1936              		.cfi_offset 4, -36
 1937              		.cfi_offset 5, -32
 1938              		.cfi_offset 6, -28
 1939              		.cfi_offset 7, -24
 1940              		.cfi_offset 8, -20
 1941              		.cfi_offset 9, -16
 1942              		.cfi_offset 10, -12
 1943              		.cfi_offset 11, -8
 1944              		.cfi_offset 14, -4
 1945 0004 2DED068B 		vpush.64	{d8, d9, d10}
 1946              		.cfi_def_cfa_offset 60
 1947              		.cfi_offset 80, -60
 1948              		.cfi_offset 81, -56
 1949              		.cfi_offset 82, -52
 1950              		.cfi_offset 83, -48
 1951              		.cfi_offset 84, -44
 1952              		.cfi_offset 85, -40
 1953 0008 83B0     		sub	sp, sp, #12
 1954              		.cfi_def_cfa_offset 72
 283:../../libDaisy//src/hid/disp/display.h ****                  uint_fast8_t y,
 1955              		.loc 9 283 10 view .LVU429
 1956 000a 1F46     		mov	r7, r3
 1957 000c 8046     		mov	r8, r0
 1958 000e 0D46     		mov	r5, r1
 1959 0010 9DF85030 		ldrb	r3, [sp, #80]	@ zero_extendqisi2
 1960              	.LVL134:
 283:../../libDaisy//src/hid/disp/display.h ****                  uint_fast8_t y,
 1961              		.loc 9 283 10 view .LVU430
 1962 0014 1646     		mov	r6, r2
 1963 0016 0193     		str	r3, [sp, #4]
 306:../../libDaisy//src/hid/disp/display.h ****         {
 1964              		.loc 9 306 9 view .LVU431
 1965 0018 139B     		ldr	r3, [sp, #76]
 1966 001a 002B     		cmp	r3, #0
 1967 001c C0F22182 		blt	.L146
 313:../../libDaisy//src/hid/disp/display.h **** 
 1968              		.loc 9 313 27 view .LVU432
 1969 0020 129A     		ldr	r2, [sp, #72]
 1970              	.LVL135:
 313:../../libDaisy//src/hid/disp/display.h **** 
 1971              		.loc 9 313 27 view .LVU433
 1972 0022 1344     		add	r3, r3, r2
 1973 0024 06EE103A 		vmov	s12, r3	@ int
 1974              	.LVL136:
 1975              	.L147:
 312:../../libDaisy//src/hid/disp/display.h ****         end_angle_rad   = deg2rad(start_angle + sweep);
 1976              		.loc 9 312 27 view .LVU434
 1977 0028 DDED127A 		vldr.32	s15, [sp, #72]	@ int
 313:../../libDaisy//src/hid/disp/display.h **** 
 1978              		.loc 9 313 27 view .LVU435
 1979 002c B8EEC66B 		vcvt.f64.s32	d6, s12
 312:../../libDaisy//src/hid/disp/display.h ****         end_angle_rad   = deg2rad(start_angle + sweep);
 1980              		.loc 9 312 27 view .LVU436
 1981 0030 9FEDCD4B 		vldr.64	d4, .L222
 1982 0034 B8EEE77B 		vcvt.f64.s32	d7, s15
ARM GAS  /var/folders/hl/qgbwny5j0fd895c2c41bk3tw0000gp/T//ccRMOALe.s 			page 69


 1983 0038 9FEDCD5B 		vldr.64	d5, .L222+8
 1984 003c 27EE047B 		vmul.f64	d7, d7, d4
 313:../../libDaisy//src/hid/disp/display.h **** 
 1985              		.loc 9 313 27 view .LVU437
 1986 0040 26EE046B 		vmul.f64	d6, d6, d4
 312:../../libDaisy//src/hid/disp/display.h ****         end_angle_rad   = deg2rad(start_angle + sweep);
 1987              		.loc 9 312 27 view .LVU438
 1988 0044 87EE050B 		vdiv.f64	d0, d7, d5
 313:../../libDaisy//src/hid/disp/display.h **** 
 1989              		.loc 9 313 27 view .LVU439
 1990 0048 86EE05AB 		vdiv.f64	d10, d6, d5
 312:../../libDaisy//src/hid/disp/display.h ****         end_angle_rad   = deg2rad(start_angle + sweep);
 1991              		.loc 9 312 25 view .LVU440
 1992 004c F7EEC08B 		vcvt.f32.f64	s17, d0
 1993              	.LVL137:
 1994              	.LBB719:
 1995              	.LBB720:
 1996              		.file 17 "/opt/homebrew/Cellar/arm-none-eabi-gcc/10.3-2021.07/gcc/arm-none-eabi/include/c++/10.3.1
   1:/opt/homebrew/Cellar/arm-none-eabi-gcc/10.3-2021.07/gcc/arm-none-eabi/include/c++/10.3.1/cmath **** // -*- C++ -*- C forwarding header.
   2:/opt/homebrew/Cellar/arm-none-eabi-gcc/10.3-2021.07/gcc/arm-none-eabi/include/c++/10.3.1/cmath **** 
   3:/opt/homebrew/Cellar/arm-none-eabi-gcc/10.3-2021.07/gcc/arm-none-eabi/include/c++/10.3.1/cmath **** // Copyright (C) 1997-2020 Free Software Foundation, Inc.
   4:/opt/homebrew/Cellar/arm-none-eabi-gcc/10.3-2021.07/gcc/arm-none-eabi/include/c++/10.3.1/cmath **** //
   5:/opt/homebrew/Cellar/arm-none-eabi-gcc/10.3-2021.07/gcc/arm-none-eabi/include/c++/10.3.1/cmath **** // This file is part of the GNU ISO C++ Library.  This library is free
   6:/opt/homebrew/Cellar/arm-none-eabi-gcc/10.3-2021.07/gcc/arm-none-eabi/include/c++/10.3.1/cmath **** // software; you can redistribute it and/or modify it under the
   7:/opt/homebrew/Cellar/arm-none-eabi-gcc/10.3-2021.07/gcc/arm-none-eabi/include/c++/10.3.1/cmath **** // terms of the GNU General Public License as published by the
   8:/opt/homebrew/Cellar/arm-none-eabi-gcc/10.3-2021.07/gcc/arm-none-eabi/include/c++/10.3.1/cmath **** // Free Software Foundation; either version 3, or (at your option)
   9:/opt/homebrew/Cellar/arm-none-eabi-gcc/10.3-2021.07/gcc/arm-none-eabi/include/c++/10.3.1/cmath **** // any later version.
  10:/opt/homebrew/Cellar/arm-none-eabi-gcc/10.3-2021.07/gcc/arm-none-eabi/include/c++/10.3.1/cmath **** 
  11:/opt/homebrew/Cellar/arm-none-eabi-gcc/10.3-2021.07/gcc/arm-none-eabi/include/c++/10.3.1/cmath **** // This library is distributed in the hope that it will be useful,
  12:/opt/homebrew/Cellar/arm-none-eabi-gcc/10.3-2021.07/gcc/arm-none-eabi/include/c++/10.3.1/cmath **** // but WITHOUT ANY WARRANTY; without even the implied warranty of
  13:/opt/homebrew/Cellar/arm-none-eabi-gcc/10.3-2021.07/gcc/arm-none-eabi/include/c++/10.3.1/cmath **** // MERCHANTABILITY or FITNESS FOR A PARTICULAR PURPOSE.  See the
  14:/opt/homebrew/Cellar/arm-none-eabi-gcc/10.3-2021.07/gcc/arm-none-eabi/include/c++/10.3.1/cmath **** // GNU General Public License for more details.
  15:/opt/homebrew/Cellar/arm-none-eabi-gcc/10.3-2021.07/gcc/arm-none-eabi/include/c++/10.3.1/cmath **** 
  16:/opt/homebrew/Cellar/arm-none-eabi-gcc/10.3-2021.07/gcc/arm-none-eabi/include/c++/10.3.1/cmath **** // Under Section 7 of GPL version 3, you are granted additional
  17:/opt/homebrew/Cellar/arm-none-eabi-gcc/10.3-2021.07/gcc/arm-none-eabi/include/c++/10.3.1/cmath **** // permissions described in the GCC Runtime Library Exception, version
  18:/opt/homebrew/Cellar/arm-none-eabi-gcc/10.3-2021.07/gcc/arm-none-eabi/include/c++/10.3.1/cmath **** // 3.1, as published by the Free Software Foundation.
  19:/opt/homebrew/Cellar/arm-none-eabi-gcc/10.3-2021.07/gcc/arm-none-eabi/include/c++/10.3.1/cmath **** 
  20:/opt/homebrew/Cellar/arm-none-eabi-gcc/10.3-2021.07/gcc/arm-none-eabi/include/c++/10.3.1/cmath **** // You should have received a copy of the GNU General Public License and
  21:/opt/homebrew/Cellar/arm-none-eabi-gcc/10.3-2021.07/gcc/arm-none-eabi/include/c++/10.3.1/cmath **** // a copy of the GCC Runtime Library Exception along with this program;
  22:/opt/homebrew/Cellar/arm-none-eabi-gcc/10.3-2021.07/gcc/arm-none-eabi/include/c++/10.3.1/cmath **** // see the files COPYING3 and COPYING.RUNTIME respectively.  If not, see
  23:/opt/homebrew/Cellar/arm-none-eabi-gcc/10.3-2021.07/gcc/arm-none-eabi/include/c++/10.3.1/cmath **** // <http://www.gnu.org/licenses/>.
  24:/opt/homebrew/Cellar/arm-none-eabi-gcc/10.3-2021.07/gcc/arm-none-eabi/include/c++/10.3.1/cmath **** 
  25:/opt/homebrew/Cellar/arm-none-eabi-gcc/10.3-2021.07/gcc/arm-none-eabi/include/c++/10.3.1/cmath **** /** @file include/cmath
  26:/opt/homebrew/Cellar/arm-none-eabi-gcc/10.3-2021.07/gcc/arm-none-eabi/include/c++/10.3.1/cmath ****  *  This is a Standard C++ Library file.  You should @c \#include this file
  27:/opt/homebrew/Cellar/arm-none-eabi-gcc/10.3-2021.07/gcc/arm-none-eabi/include/c++/10.3.1/cmath ****  *  in your programs, rather than any of the @a *.h implementation files.
  28:/opt/homebrew/Cellar/arm-none-eabi-gcc/10.3-2021.07/gcc/arm-none-eabi/include/c++/10.3.1/cmath ****  *
  29:/opt/homebrew/Cellar/arm-none-eabi-gcc/10.3-2021.07/gcc/arm-none-eabi/include/c++/10.3.1/cmath ****  *  This is the C++ version of the Standard C Library header @c math.h,
  30:/opt/homebrew/Cellar/arm-none-eabi-gcc/10.3-2021.07/gcc/arm-none-eabi/include/c++/10.3.1/cmath ****  *  and its contents are (mostly) the same as that header, but are all
  31:/opt/homebrew/Cellar/arm-none-eabi-gcc/10.3-2021.07/gcc/arm-none-eabi/include/c++/10.3.1/cmath ****  *  contained in the namespace @c std (except for names which are defined
  32:/opt/homebrew/Cellar/arm-none-eabi-gcc/10.3-2021.07/gcc/arm-none-eabi/include/c++/10.3.1/cmath ****  *  as macros in C).
  33:/opt/homebrew/Cellar/arm-none-eabi-gcc/10.3-2021.07/gcc/arm-none-eabi/include/c++/10.3.1/cmath ****  */
  34:/opt/homebrew/Cellar/arm-none-eabi-gcc/10.3-2021.07/gcc/arm-none-eabi/include/c++/10.3.1/cmath **** 
  35:/opt/homebrew/Cellar/arm-none-eabi-gcc/10.3-2021.07/gcc/arm-none-eabi/include/c++/10.3.1/cmath **** //
  36:/opt/homebrew/Cellar/arm-none-eabi-gcc/10.3-2021.07/gcc/arm-none-eabi/include/c++/10.3.1/cmath **** // ISO C++ 14882: 26.5  C library
  37:/opt/homebrew/Cellar/arm-none-eabi-gcc/10.3-2021.07/gcc/arm-none-eabi/include/c++/10.3.1/cmath **** //
  38:/opt/homebrew/Cellar/arm-none-eabi-gcc/10.3-2021.07/gcc/arm-none-eabi/include/c++/10.3.1/cmath **** 
  39:/opt/homebrew/Cellar/arm-none-eabi-gcc/10.3-2021.07/gcc/arm-none-eabi/include/c++/10.3.1/cmath **** #pragma GCC system_header
ARM GAS  /var/folders/hl/qgbwny5j0fd895c2c41bk3tw0000gp/T//ccRMOALe.s 			page 70


  40:/opt/homebrew/Cellar/arm-none-eabi-gcc/10.3-2021.07/gcc/arm-none-eabi/include/c++/10.3.1/cmath **** 
  41:/opt/homebrew/Cellar/arm-none-eabi-gcc/10.3-2021.07/gcc/arm-none-eabi/include/c++/10.3.1/cmath **** #include <bits/c++config.h>
  42:/opt/homebrew/Cellar/arm-none-eabi-gcc/10.3-2021.07/gcc/arm-none-eabi/include/c++/10.3.1/cmath **** #include <bits/cpp_type_traits.h>
  43:/opt/homebrew/Cellar/arm-none-eabi-gcc/10.3-2021.07/gcc/arm-none-eabi/include/c++/10.3.1/cmath **** #include <ext/type_traits.h>
  44:/opt/homebrew/Cellar/arm-none-eabi-gcc/10.3-2021.07/gcc/arm-none-eabi/include/c++/10.3.1/cmath **** #define _GLIBCXX_INCLUDE_NEXT_C_HEADERS
  45:/opt/homebrew/Cellar/arm-none-eabi-gcc/10.3-2021.07/gcc/arm-none-eabi/include/c++/10.3.1/cmath **** #include_next <math.h>
  46:/opt/homebrew/Cellar/arm-none-eabi-gcc/10.3-2021.07/gcc/arm-none-eabi/include/c++/10.3.1/cmath **** #undef _GLIBCXX_INCLUDE_NEXT_C_HEADERS
  47:/opt/homebrew/Cellar/arm-none-eabi-gcc/10.3-2021.07/gcc/arm-none-eabi/include/c++/10.3.1/cmath **** #include <bits/std_abs.h>
  48:/opt/homebrew/Cellar/arm-none-eabi-gcc/10.3-2021.07/gcc/arm-none-eabi/include/c++/10.3.1/cmath **** 
  49:/opt/homebrew/Cellar/arm-none-eabi-gcc/10.3-2021.07/gcc/arm-none-eabi/include/c++/10.3.1/cmath **** #ifndef _GLIBCXX_CMATH
  50:/opt/homebrew/Cellar/arm-none-eabi-gcc/10.3-2021.07/gcc/arm-none-eabi/include/c++/10.3.1/cmath **** #define _GLIBCXX_CMATH 1
  51:/opt/homebrew/Cellar/arm-none-eabi-gcc/10.3-2021.07/gcc/arm-none-eabi/include/c++/10.3.1/cmath **** 
  52:/opt/homebrew/Cellar/arm-none-eabi-gcc/10.3-2021.07/gcc/arm-none-eabi/include/c++/10.3.1/cmath **** // Get rid of those macros defined in <math.h> in lieu of real functions.
  53:/opt/homebrew/Cellar/arm-none-eabi-gcc/10.3-2021.07/gcc/arm-none-eabi/include/c++/10.3.1/cmath **** #undef div
  54:/opt/homebrew/Cellar/arm-none-eabi-gcc/10.3-2021.07/gcc/arm-none-eabi/include/c++/10.3.1/cmath **** #undef acos
  55:/opt/homebrew/Cellar/arm-none-eabi-gcc/10.3-2021.07/gcc/arm-none-eabi/include/c++/10.3.1/cmath **** #undef asin
  56:/opt/homebrew/Cellar/arm-none-eabi-gcc/10.3-2021.07/gcc/arm-none-eabi/include/c++/10.3.1/cmath **** #undef atan
  57:/opt/homebrew/Cellar/arm-none-eabi-gcc/10.3-2021.07/gcc/arm-none-eabi/include/c++/10.3.1/cmath **** #undef atan2
  58:/opt/homebrew/Cellar/arm-none-eabi-gcc/10.3-2021.07/gcc/arm-none-eabi/include/c++/10.3.1/cmath **** #undef ceil
  59:/opt/homebrew/Cellar/arm-none-eabi-gcc/10.3-2021.07/gcc/arm-none-eabi/include/c++/10.3.1/cmath **** #undef cos
  60:/opt/homebrew/Cellar/arm-none-eabi-gcc/10.3-2021.07/gcc/arm-none-eabi/include/c++/10.3.1/cmath **** #undef cosh
  61:/opt/homebrew/Cellar/arm-none-eabi-gcc/10.3-2021.07/gcc/arm-none-eabi/include/c++/10.3.1/cmath **** #undef exp
  62:/opt/homebrew/Cellar/arm-none-eabi-gcc/10.3-2021.07/gcc/arm-none-eabi/include/c++/10.3.1/cmath **** #undef fabs
  63:/opt/homebrew/Cellar/arm-none-eabi-gcc/10.3-2021.07/gcc/arm-none-eabi/include/c++/10.3.1/cmath **** #undef floor
  64:/opt/homebrew/Cellar/arm-none-eabi-gcc/10.3-2021.07/gcc/arm-none-eabi/include/c++/10.3.1/cmath **** #undef fmod
  65:/opt/homebrew/Cellar/arm-none-eabi-gcc/10.3-2021.07/gcc/arm-none-eabi/include/c++/10.3.1/cmath **** #undef frexp
  66:/opt/homebrew/Cellar/arm-none-eabi-gcc/10.3-2021.07/gcc/arm-none-eabi/include/c++/10.3.1/cmath **** #undef ldexp
  67:/opt/homebrew/Cellar/arm-none-eabi-gcc/10.3-2021.07/gcc/arm-none-eabi/include/c++/10.3.1/cmath **** #undef log
  68:/opt/homebrew/Cellar/arm-none-eabi-gcc/10.3-2021.07/gcc/arm-none-eabi/include/c++/10.3.1/cmath **** #undef log10
  69:/opt/homebrew/Cellar/arm-none-eabi-gcc/10.3-2021.07/gcc/arm-none-eabi/include/c++/10.3.1/cmath **** #undef modf
  70:/opt/homebrew/Cellar/arm-none-eabi-gcc/10.3-2021.07/gcc/arm-none-eabi/include/c++/10.3.1/cmath **** #undef pow
  71:/opt/homebrew/Cellar/arm-none-eabi-gcc/10.3-2021.07/gcc/arm-none-eabi/include/c++/10.3.1/cmath **** #undef sin
  72:/opt/homebrew/Cellar/arm-none-eabi-gcc/10.3-2021.07/gcc/arm-none-eabi/include/c++/10.3.1/cmath **** #undef sinh
  73:/opt/homebrew/Cellar/arm-none-eabi-gcc/10.3-2021.07/gcc/arm-none-eabi/include/c++/10.3.1/cmath **** #undef sqrt
  74:/opt/homebrew/Cellar/arm-none-eabi-gcc/10.3-2021.07/gcc/arm-none-eabi/include/c++/10.3.1/cmath **** #undef tan
  75:/opt/homebrew/Cellar/arm-none-eabi-gcc/10.3-2021.07/gcc/arm-none-eabi/include/c++/10.3.1/cmath **** #undef tanh
  76:/opt/homebrew/Cellar/arm-none-eabi-gcc/10.3-2021.07/gcc/arm-none-eabi/include/c++/10.3.1/cmath **** 
  77:/opt/homebrew/Cellar/arm-none-eabi-gcc/10.3-2021.07/gcc/arm-none-eabi/include/c++/10.3.1/cmath **** extern "C++"
  78:/opt/homebrew/Cellar/arm-none-eabi-gcc/10.3-2021.07/gcc/arm-none-eabi/include/c++/10.3.1/cmath **** {
  79:/opt/homebrew/Cellar/arm-none-eabi-gcc/10.3-2021.07/gcc/arm-none-eabi/include/c++/10.3.1/cmath **** namespace std _GLIBCXX_VISIBILITY(default)
  80:/opt/homebrew/Cellar/arm-none-eabi-gcc/10.3-2021.07/gcc/arm-none-eabi/include/c++/10.3.1/cmath **** {
  81:/opt/homebrew/Cellar/arm-none-eabi-gcc/10.3-2021.07/gcc/arm-none-eabi/include/c++/10.3.1/cmath **** _GLIBCXX_BEGIN_NAMESPACE_VERSION
  82:/opt/homebrew/Cellar/arm-none-eabi-gcc/10.3-2021.07/gcc/arm-none-eabi/include/c++/10.3.1/cmath **** 
  83:/opt/homebrew/Cellar/arm-none-eabi-gcc/10.3-2021.07/gcc/arm-none-eabi/include/c++/10.3.1/cmath ****   using ::acos;
  84:/opt/homebrew/Cellar/arm-none-eabi-gcc/10.3-2021.07/gcc/arm-none-eabi/include/c++/10.3.1/cmath **** 
  85:/opt/homebrew/Cellar/arm-none-eabi-gcc/10.3-2021.07/gcc/arm-none-eabi/include/c++/10.3.1/cmath **** #ifndef __CORRECT_ISO_CPP_MATH_H_PROTO
  86:/opt/homebrew/Cellar/arm-none-eabi-gcc/10.3-2021.07/gcc/arm-none-eabi/include/c++/10.3.1/cmath ****   inline _GLIBCXX_CONSTEXPR float
  87:/opt/homebrew/Cellar/arm-none-eabi-gcc/10.3-2021.07/gcc/arm-none-eabi/include/c++/10.3.1/cmath ****   acos(float __x)
  88:/opt/homebrew/Cellar/arm-none-eabi-gcc/10.3-2021.07/gcc/arm-none-eabi/include/c++/10.3.1/cmath ****   { return __builtin_acosf(__x); }
  89:/opt/homebrew/Cellar/arm-none-eabi-gcc/10.3-2021.07/gcc/arm-none-eabi/include/c++/10.3.1/cmath **** 
  90:/opt/homebrew/Cellar/arm-none-eabi-gcc/10.3-2021.07/gcc/arm-none-eabi/include/c++/10.3.1/cmath ****   inline _GLIBCXX_CONSTEXPR long double
  91:/opt/homebrew/Cellar/arm-none-eabi-gcc/10.3-2021.07/gcc/arm-none-eabi/include/c++/10.3.1/cmath ****   acos(long double __x)
  92:/opt/homebrew/Cellar/arm-none-eabi-gcc/10.3-2021.07/gcc/arm-none-eabi/include/c++/10.3.1/cmath ****   { return __builtin_acosl(__x); }
  93:/opt/homebrew/Cellar/arm-none-eabi-gcc/10.3-2021.07/gcc/arm-none-eabi/include/c++/10.3.1/cmath **** #endif
  94:/opt/homebrew/Cellar/arm-none-eabi-gcc/10.3-2021.07/gcc/arm-none-eabi/include/c++/10.3.1/cmath **** 
  95:/opt/homebrew/Cellar/arm-none-eabi-gcc/10.3-2021.07/gcc/arm-none-eabi/include/c++/10.3.1/cmath ****   template<typename _Tp>
  96:/opt/homebrew/Cellar/arm-none-eabi-gcc/10.3-2021.07/gcc/arm-none-eabi/include/c++/10.3.1/cmath ****     inline _GLIBCXX_CONSTEXPR
ARM GAS  /var/folders/hl/qgbwny5j0fd895c2c41bk3tw0000gp/T//ccRMOALe.s 			page 71


  97:/opt/homebrew/Cellar/arm-none-eabi-gcc/10.3-2021.07/gcc/arm-none-eabi/include/c++/10.3.1/cmath ****     typename __gnu_cxx::__enable_if<__is_integer<_Tp>::__value, 
  98:/opt/homebrew/Cellar/arm-none-eabi-gcc/10.3-2021.07/gcc/arm-none-eabi/include/c++/10.3.1/cmath ****                                     double>::__type
  99:/opt/homebrew/Cellar/arm-none-eabi-gcc/10.3-2021.07/gcc/arm-none-eabi/include/c++/10.3.1/cmath ****     acos(_Tp __x)
 100:/opt/homebrew/Cellar/arm-none-eabi-gcc/10.3-2021.07/gcc/arm-none-eabi/include/c++/10.3.1/cmath ****     { return __builtin_acos(__x); }
 101:/opt/homebrew/Cellar/arm-none-eabi-gcc/10.3-2021.07/gcc/arm-none-eabi/include/c++/10.3.1/cmath **** 
 102:/opt/homebrew/Cellar/arm-none-eabi-gcc/10.3-2021.07/gcc/arm-none-eabi/include/c++/10.3.1/cmath ****   using ::asin;
 103:/opt/homebrew/Cellar/arm-none-eabi-gcc/10.3-2021.07/gcc/arm-none-eabi/include/c++/10.3.1/cmath **** 
 104:/opt/homebrew/Cellar/arm-none-eabi-gcc/10.3-2021.07/gcc/arm-none-eabi/include/c++/10.3.1/cmath **** #ifndef __CORRECT_ISO_CPP_MATH_H_PROTO
 105:/opt/homebrew/Cellar/arm-none-eabi-gcc/10.3-2021.07/gcc/arm-none-eabi/include/c++/10.3.1/cmath ****   inline _GLIBCXX_CONSTEXPR float
 106:/opt/homebrew/Cellar/arm-none-eabi-gcc/10.3-2021.07/gcc/arm-none-eabi/include/c++/10.3.1/cmath ****   asin(float __x)
 107:/opt/homebrew/Cellar/arm-none-eabi-gcc/10.3-2021.07/gcc/arm-none-eabi/include/c++/10.3.1/cmath ****   { return __builtin_asinf(__x); }
 108:/opt/homebrew/Cellar/arm-none-eabi-gcc/10.3-2021.07/gcc/arm-none-eabi/include/c++/10.3.1/cmath **** 
 109:/opt/homebrew/Cellar/arm-none-eabi-gcc/10.3-2021.07/gcc/arm-none-eabi/include/c++/10.3.1/cmath ****   inline _GLIBCXX_CONSTEXPR long double
 110:/opt/homebrew/Cellar/arm-none-eabi-gcc/10.3-2021.07/gcc/arm-none-eabi/include/c++/10.3.1/cmath ****   asin(long double __x)
 111:/opt/homebrew/Cellar/arm-none-eabi-gcc/10.3-2021.07/gcc/arm-none-eabi/include/c++/10.3.1/cmath ****   { return __builtin_asinl(__x); }
 112:/opt/homebrew/Cellar/arm-none-eabi-gcc/10.3-2021.07/gcc/arm-none-eabi/include/c++/10.3.1/cmath **** #endif
 113:/opt/homebrew/Cellar/arm-none-eabi-gcc/10.3-2021.07/gcc/arm-none-eabi/include/c++/10.3.1/cmath **** 
 114:/opt/homebrew/Cellar/arm-none-eabi-gcc/10.3-2021.07/gcc/arm-none-eabi/include/c++/10.3.1/cmath ****   template<typename _Tp>
 115:/opt/homebrew/Cellar/arm-none-eabi-gcc/10.3-2021.07/gcc/arm-none-eabi/include/c++/10.3.1/cmath ****     inline _GLIBCXX_CONSTEXPR
 116:/opt/homebrew/Cellar/arm-none-eabi-gcc/10.3-2021.07/gcc/arm-none-eabi/include/c++/10.3.1/cmath ****     typename __gnu_cxx::__enable_if<__is_integer<_Tp>::__value,
 117:/opt/homebrew/Cellar/arm-none-eabi-gcc/10.3-2021.07/gcc/arm-none-eabi/include/c++/10.3.1/cmath ****                                     double>::__type
 118:/opt/homebrew/Cellar/arm-none-eabi-gcc/10.3-2021.07/gcc/arm-none-eabi/include/c++/10.3.1/cmath ****     asin(_Tp __x)
 119:/opt/homebrew/Cellar/arm-none-eabi-gcc/10.3-2021.07/gcc/arm-none-eabi/include/c++/10.3.1/cmath ****     { return __builtin_asin(__x); }
 120:/opt/homebrew/Cellar/arm-none-eabi-gcc/10.3-2021.07/gcc/arm-none-eabi/include/c++/10.3.1/cmath **** 
 121:/opt/homebrew/Cellar/arm-none-eabi-gcc/10.3-2021.07/gcc/arm-none-eabi/include/c++/10.3.1/cmath ****   using ::atan;
 122:/opt/homebrew/Cellar/arm-none-eabi-gcc/10.3-2021.07/gcc/arm-none-eabi/include/c++/10.3.1/cmath **** 
 123:/opt/homebrew/Cellar/arm-none-eabi-gcc/10.3-2021.07/gcc/arm-none-eabi/include/c++/10.3.1/cmath **** #ifndef __CORRECT_ISO_CPP_MATH_H_PROTO
 124:/opt/homebrew/Cellar/arm-none-eabi-gcc/10.3-2021.07/gcc/arm-none-eabi/include/c++/10.3.1/cmath ****   inline _GLIBCXX_CONSTEXPR float
 125:/opt/homebrew/Cellar/arm-none-eabi-gcc/10.3-2021.07/gcc/arm-none-eabi/include/c++/10.3.1/cmath ****   atan(float __x)
 126:/opt/homebrew/Cellar/arm-none-eabi-gcc/10.3-2021.07/gcc/arm-none-eabi/include/c++/10.3.1/cmath ****   { return __builtin_atanf(__x); }
 127:/opt/homebrew/Cellar/arm-none-eabi-gcc/10.3-2021.07/gcc/arm-none-eabi/include/c++/10.3.1/cmath **** 
 128:/opt/homebrew/Cellar/arm-none-eabi-gcc/10.3-2021.07/gcc/arm-none-eabi/include/c++/10.3.1/cmath ****   inline _GLIBCXX_CONSTEXPR long double
 129:/opt/homebrew/Cellar/arm-none-eabi-gcc/10.3-2021.07/gcc/arm-none-eabi/include/c++/10.3.1/cmath ****   atan(long double __x)
 130:/opt/homebrew/Cellar/arm-none-eabi-gcc/10.3-2021.07/gcc/arm-none-eabi/include/c++/10.3.1/cmath ****   { return __builtin_atanl(__x); }
 131:/opt/homebrew/Cellar/arm-none-eabi-gcc/10.3-2021.07/gcc/arm-none-eabi/include/c++/10.3.1/cmath **** #endif
 132:/opt/homebrew/Cellar/arm-none-eabi-gcc/10.3-2021.07/gcc/arm-none-eabi/include/c++/10.3.1/cmath **** 
 133:/opt/homebrew/Cellar/arm-none-eabi-gcc/10.3-2021.07/gcc/arm-none-eabi/include/c++/10.3.1/cmath ****   template<typename _Tp>
 134:/opt/homebrew/Cellar/arm-none-eabi-gcc/10.3-2021.07/gcc/arm-none-eabi/include/c++/10.3.1/cmath ****     inline _GLIBCXX_CONSTEXPR
 135:/opt/homebrew/Cellar/arm-none-eabi-gcc/10.3-2021.07/gcc/arm-none-eabi/include/c++/10.3.1/cmath ****     typename __gnu_cxx::__enable_if<__is_integer<_Tp>::__value,
 136:/opt/homebrew/Cellar/arm-none-eabi-gcc/10.3-2021.07/gcc/arm-none-eabi/include/c++/10.3.1/cmath ****                                     double>::__type
 137:/opt/homebrew/Cellar/arm-none-eabi-gcc/10.3-2021.07/gcc/arm-none-eabi/include/c++/10.3.1/cmath ****     atan(_Tp __x)
 138:/opt/homebrew/Cellar/arm-none-eabi-gcc/10.3-2021.07/gcc/arm-none-eabi/include/c++/10.3.1/cmath ****     { return __builtin_atan(__x); }
 139:/opt/homebrew/Cellar/arm-none-eabi-gcc/10.3-2021.07/gcc/arm-none-eabi/include/c++/10.3.1/cmath **** 
 140:/opt/homebrew/Cellar/arm-none-eabi-gcc/10.3-2021.07/gcc/arm-none-eabi/include/c++/10.3.1/cmath ****   using ::atan2;
 141:/opt/homebrew/Cellar/arm-none-eabi-gcc/10.3-2021.07/gcc/arm-none-eabi/include/c++/10.3.1/cmath **** 
 142:/opt/homebrew/Cellar/arm-none-eabi-gcc/10.3-2021.07/gcc/arm-none-eabi/include/c++/10.3.1/cmath **** #ifndef __CORRECT_ISO_CPP_MATH_H_PROTO
 143:/opt/homebrew/Cellar/arm-none-eabi-gcc/10.3-2021.07/gcc/arm-none-eabi/include/c++/10.3.1/cmath ****   inline _GLIBCXX_CONSTEXPR float
 144:/opt/homebrew/Cellar/arm-none-eabi-gcc/10.3-2021.07/gcc/arm-none-eabi/include/c++/10.3.1/cmath ****   atan2(float __y, float __x)
 145:/opt/homebrew/Cellar/arm-none-eabi-gcc/10.3-2021.07/gcc/arm-none-eabi/include/c++/10.3.1/cmath ****   { return __builtin_atan2f(__y, __x); }
 146:/opt/homebrew/Cellar/arm-none-eabi-gcc/10.3-2021.07/gcc/arm-none-eabi/include/c++/10.3.1/cmath **** 
 147:/opt/homebrew/Cellar/arm-none-eabi-gcc/10.3-2021.07/gcc/arm-none-eabi/include/c++/10.3.1/cmath ****   inline _GLIBCXX_CONSTEXPR long double
 148:/opt/homebrew/Cellar/arm-none-eabi-gcc/10.3-2021.07/gcc/arm-none-eabi/include/c++/10.3.1/cmath ****   atan2(long double __y, long double __x)
 149:/opt/homebrew/Cellar/arm-none-eabi-gcc/10.3-2021.07/gcc/arm-none-eabi/include/c++/10.3.1/cmath ****   { return __builtin_atan2l(__y, __x); }
 150:/opt/homebrew/Cellar/arm-none-eabi-gcc/10.3-2021.07/gcc/arm-none-eabi/include/c++/10.3.1/cmath **** #endif
 151:/opt/homebrew/Cellar/arm-none-eabi-gcc/10.3-2021.07/gcc/arm-none-eabi/include/c++/10.3.1/cmath **** 
 152:/opt/homebrew/Cellar/arm-none-eabi-gcc/10.3-2021.07/gcc/arm-none-eabi/include/c++/10.3.1/cmath ****   template<typename _Tp, typename _Up>
 153:/opt/homebrew/Cellar/arm-none-eabi-gcc/10.3-2021.07/gcc/arm-none-eabi/include/c++/10.3.1/cmath ****     inline _GLIBCXX_CONSTEXPR
ARM GAS  /var/folders/hl/qgbwny5j0fd895c2c41bk3tw0000gp/T//ccRMOALe.s 			page 72


 154:/opt/homebrew/Cellar/arm-none-eabi-gcc/10.3-2021.07/gcc/arm-none-eabi/include/c++/10.3.1/cmath ****     typename __gnu_cxx::__promote_2<_Tp, _Up>::__type
 155:/opt/homebrew/Cellar/arm-none-eabi-gcc/10.3-2021.07/gcc/arm-none-eabi/include/c++/10.3.1/cmath ****     atan2(_Tp __y, _Up __x)
 156:/opt/homebrew/Cellar/arm-none-eabi-gcc/10.3-2021.07/gcc/arm-none-eabi/include/c++/10.3.1/cmath ****     {
 157:/opt/homebrew/Cellar/arm-none-eabi-gcc/10.3-2021.07/gcc/arm-none-eabi/include/c++/10.3.1/cmath ****       typedef typename __gnu_cxx::__promote_2<_Tp, _Up>::__type __type;
 158:/opt/homebrew/Cellar/arm-none-eabi-gcc/10.3-2021.07/gcc/arm-none-eabi/include/c++/10.3.1/cmath ****       return atan2(__type(__y), __type(__x));
 159:/opt/homebrew/Cellar/arm-none-eabi-gcc/10.3-2021.07/gcc/arm-none-eabi/include/c++/10.3.1/cmath ****     }
 160:/opt/homebrew/Cellar/arm-none-eabi-gcc/10.3-2021.07/gcc/arm-none-eabi/include/c++/10.3.1/cmath **** 
 161:/opt/homebrew/Cellar/arm-none-eabi-gcc/10.3-2021.07/gcc/arm-none-eabi/include/c++/10.3.1/cmath ****   using ::ceil;
 162:/opt/homebrew/Cellar/arm-none-eabi-gcc/10.3-2021.07/gcc/arm-none-eabi/include/c++/10.3.1/cmath **** 
 163:/opt/homebrew/Cellar/arm-none-eabi-gcc/10.3-2021.07/gcc/arm-none-eabi/include/c++/10.3.1/cmath **** #ifndef __CORRECT_ISO_CPP_MATH_H_PROTO
 164:/opt/homebrew/Cellar/arm-none-eabi-gcc/10.3-2021.07/gcc/arm-none-eabi/include/c++/10.3.1/cmath ****   inline _GLIBCXX_CONSTEXPR float
 165:/opt/homebrew/Cellar/arm-none-eabi-gcc/10.3-2021.07/gcc/arm-none-eabi/include/c++/10.3.1/cmath ****   ceil(float __x)
 166:/opt/homebrew/Cellar/arm-none-eabi-gcc/10.3-2021.07/gcc/arm-none-eabi/include/c++/10.3.1/cmath ****   { return __builtin_ceilf(__x); }
 167:/opt/homebrew/Cellar/arm-none-eabi-gcc/10.3-2021.07/gcc/arm-none-eabi/include/c++/10.3.1/cmath **** 
 168:/opt/homebrew/Cellar/arm-none-eabi-gcc/10.3-2021.07/gcc/arm-none-eabi/include/c++/10.3.1/cmath ****   inline _GLIBCXX_CONSTEXPR long double
 169:/opt/homebrew/Cellar/arm-none-eabi-gcc/10.3-2021.07/gcc/arm-none-eabi/include/c++/10.3.1/cmath ****   ceil(long double __x)
 170:/opt/homebrew/Cellar/arm-none-eabi-gcc/10.3-2021.07/gcc/arm-none-eabi/include/c++/10.3.1/cmath ****   { return __builtin_ceill(__x); }
 171:/opt/homebrew/Cellar/arm-none-eabi-gcc/10.3-2021.07/gcc/arm-none-eabi/include/c++/10.3.1/cmath **** #endif
 172:/opt/homebrew/Cellar/arm-none-eabi-gcc/10.3-2021.07/gcc/arm-none-eabi/include/c++/10.3.1/cmath **** 
 173:/opt/homebrew/Cellar/arm-none-eabi-gcc/10.3-2021.07/gcc/arm-none-eabi/include/c++/10.3.1/cmath ****   template<typename _Tp>
 174:/opt/homebrew/Cellar/arm-none-eabi-gcc/10.3-2021.07/gcc/arm-none-eabi/include/c++/10.3.1/cmath ****     inline _GLIBCXX_CONSTEXPR
 175:/opt/homebrew/Cellar/arm-none-eabi-gcc/10.3-2021.07/gcc/arm-none-eabi/include/c++/10.3.1/cmath ****     typename __gnu_cxx::__enable_if<__is_integer<_Tp>::__value, 
 176:/opt/homebrew/Cellar/arm-none-eabi-gcc/10.3-2021.07/gcc/arm-none-eabi/include/c++/10.3.1/cmath ****                                     double>::__type
 177:/opt/homebrew/Cellar/arm-none-eabi-gcc/10.3-2021.07/gcc/arm-none-eabi/include/c++/10.3.1/cmath ****     ceil(_Tp __x)
 178:/opt/homebrew/Cellar/arm-none-eabi-gcc/10.3-2021.07/gcc/arm-none-eabi/include/c++/10.3.1/cmath ****     { return __builtin_ceil(__x); }
 179:/opt/homebrew/Cellar/arm-none-eabi-gcc/10.3-2021.07/gcc/arm-none-eabi/include/c++/10.3.1/cmath **** 
 180:/opt/homebrew/Cellar/arm-none-eabi-gcc/10.3-2021.07/gcc/arm-none-eabi/include/c++/10.3.1/cmath ****   using ::cos;
 181:/opt/homebrew/Cellar/arm-none-eabi-gcc/10.3-2021.07/gcc/arm-none-eabi/include/c++/10.3.1/cmath **** 
 182:/opt/homebrew/Cellar/arm-none-eabi-gcc/10.3-2021.07/gcc/arm-none-eabi/include/c++/10.3.1/cmath **** #ifndef __CORRECT_ISO_CPP_MATH_H_PROTO
 183:/opt/homebrew/Cellar/arm-none-eabi-gcc/10.3-2021.07/gcc/arm-none-eabi/include/c++/10.3.1/cmath ****   inline _GLIBCXX_CONSTEXPR float
 184:/opt/homebrew/Cellar/arm-none-eabi-gcc/10.3-2021.07/gcc/arm-none-eabi/include/c++/10.3.1/cmath ****   cos(float __x)
 185:/opt/homebrew/Cellar/arm-none-eabi-gcc/10.3-2021.07/gcc/arm-none-eabi/include/c++/10.3.1/cmath ****   { return __builtin_cosf(__x); }
 1997              		.loc 17 185 26 view .LVU441
 1998 0050 B0EE680A 		vmov.f32	s0, s17
 1999 0054 FFF7FEFF 		bl	cosf
 2000              	.LVL138:
 2001              		.loc 17 185 26 view .LVU442
 2002              	.LBE720:
 2003              	.LBE719:
 315:../../libDaisy//src/hid/disp/display.h ****         start_y = -sin(start_angle_rad) * radius;
 2004              		.loc 9 315 17 view .LVU443
 2005 0058 07EE907A 		vmov	s15, r7	@ int
 313:../../libDaisy//src/hid/disp/display.h **** 
 2006              		.loc 9 313 25 view .LVU444
 2007 005c B7EECAAB 		vcvt.f32.f64	s20, d10
 2008              	.LVL139:
 2009              	.LBB723:
 2010              	.LBI719:
 184:/opt/homebrew/Cellar/arm-none-eabi-gcc/10.3-2021.07/gcc/arm-none-eabi/include/c++/10.3.1/cmath ****   { return __builtin_cosf(__x); }
 2011              		.loc 17 184 3 is_stmt 1 view .LVU445
 2012              	.LBB721:
 2013              		.loc 17 185 5 view .LVU446
 2014              		.loc 17 185 5 is_stmt 0 view .LVU447
 2015              	.LBE721:
 2016              	.LBE723:
 315:../../libDaisy//src/hid/disp/display.h ****         start_y = -sin(start_angle_rad) * radius;
 2017              		.loc 9 315 17 view .LVU448
ARM GAS  /var/folders/hl/qgbwny5j0fd895c2c41bk3tw0000gp/T//ccRMOALe.s 			page 73


 2018 0060 F8EE679A 		vcvt.f32.u32	s19, s15
 2019              	.LBB724:
 2020              	.LBB722:
 2021              		.loc 17 185 26 view .LVU449
 2022 0064 B0EE408A 		vmov.f32	s16, s0
 2023              	.LBE722:
 2024              	.LBE724:
 2025              	.LBB725:
 2026              	.LBB726:
 186:/opt/homebrew/Cellar/arm-none-eabi-gcc/10.3-2021.07/gcc/arm-none-eabi/include/c++/10.3.1/cmath **** 
 187:/opt/homebrew/Cellar/arm-none-eabi-gcc/10.3-2021.07/gcc/arm-none-eabi/include/c++/10.3.1/cmath ****   inline _GLIBCXX_CONSTEXPR long double
 188:/opt/homebrew/Cellar/arm-none-eabi-gcc/10.3-2021.07/gcc/arm-none-eabi/include/c++/10.3.1/cmath ****   cos(long double __x)
 189:/opt/homebrew/Cellar/arm-none-eabi-gcc/10.3-2021.07/gcc/arm-none-eabi/include/c++/10.3.1/cmath ****   { return __builtin_cosl(__x); }
 190:/opt/homebrew/Cellar/arm-none-eabi-gcc/10.3-2021.07/gcc/arm-none-eabi/include/c++/10.3.1/cmath **** #endif
 191:/opt/homebrew/Cellar/arm-none-eabi-gcc/10.3-2021.07/gcc/arm-none-eabi/include/c++/10.3.1/cmath **** 
 192:/opt/homebrew/Cellar/arm-none-eabi-gcc/10.3-2021.07/gcc/arm-none-eabi/include/c++/10.3.1/cmath ****   template<typename _Tp>
 193:/opt/homebrew/Cellar/arm-none-eabi-gcc/10.3-2021.07/gcc/arm-none-eabi/include/c++/10.3.1/cmath ****     inline _GLIBCXX_CONSTEXPR
 194:/opt/homebrew/Cellar/arm-none-eabi-gcc/10.3-2021.07/gcc/arm-none-eabi/include/c++/10.3.1/cmath ****     typename __gnu_cxx::__enable_if<__is_integer<_Tp>::__value,
 195:/opt/homebrew/Cellar/arm-none-eabi-gcc/10.3-2021.07/gcc/arm-none-eabi/include/c++/10.3.1/cmath ****                                     double>::__type
 196:/opt/homebrew/Cellar/arm-none-eabi-gcc/10.3-2021.07/gcc/arm-none-eabi/include/c++/10.3.1/cmath ****     cos(_Tp __x)
 197:/opt/homebrew/Cellar/arm-none-eabi-gcc/10.3-2021.07/gcc/arm-none-eabi/include/c++/10.3.1/cmath ****     { return __builtin_cos(__x); }
 198:/opt/homebrew/Cellar/arm-none-eabi-gcc/10.3-2021.07/gcc/arm-none-eabi/include/c++/10.3.1/cmath **** 
 199:/opt/homebrew/Cellar/arm-none-eabi-gcc/10.3-2021.07/gcc/arm-none-eabi/include/c++/10.3.1/cmath ****   using ::cosh;
 200:/opt/homebrew/Cellar/arm-none-eabi-gcc/10.3-2021.07/gcc/arm-none-eabi/include/c++/10.3.1/cmath **** 
 201:/opt/homebrew/Cellar/arm-none-eabi-gcc/10.3-2021.07/gcc/arm-none-eabi/include/c++/10.3.1/cmath **** #ifndef __CORRECT_ISO_CPP_MATH_H_PROTO
 202:/opt/homebrew/Cellar/arm-none-eabi-gcc/10.3-2021.07/gcc/arm-none-eabi/include/c++/10.3.1/cmath ****   inline _GLIBCXX_CONSTEXPR float
 203:/opt/homebrew/Cellar/arm-none-eabi-gcc/10.3-2021.07/gcc/arm-none-eabi/include/c++/10.3.1/cmath ****   cosh(float __x)
 204:/opt/homebrew/Cellar/arm-none-eabi-gcc/10.3-2021.07/gcc/arm-none-eabi/include/c++/10.3.1/cmath ****   { return __builtin_coshf(__x); }
 205:/opt/homebrew/Cellar/arm-none-eabi-gcc/10.3-2021.07/gcc/arm-none-eabi/include/c++/10.3.1/cmath **** 
 206:/opt/homebrew/Cellar/arm-none-eabi-gcc/10.3-2021.07/gcc/arm-none-eabi/include/c++/10.3.1/cmath ****   inline _GLIBCXX_CONSTEXPR long double
 207:/opt/homebrew/Cellar/arm-none-eabi-gcc/10.3-2021.07/gcc/arm-none-eabi/include/c++/10.3.1/cmath ****   cosh(long double __x)
 208:/opt/homebrew/Cellar/arm-none-eabi-gcc/10.3-2021.07/gcc/arm-none-eabi/include/c++/10.3.1/cmath ****   { return __builtin_coshl(__x); }
 209:/opt/homebrew/Cellar/arm-none-eabi-gcc/10.3-2021.07/gcc/arm-none-eabi/include/c++/10.3.1/cmath **** #endif
 210:/opt/homebrew/Cellar/arm-none-eabi-gcc/10.3-2021.07/gcc/arm-none-eabi/include/c++/10.3.1/cmath **** 
 211:/opt/homebrew/Cellar/arm-none-eabi-gcc/10.3-2021.07/gcc/arm-none-eabi/include/c++/10.3.1/cmath ****   template<typename _Tp>
 212:/opt/homebrew/Cellar/arm-none-eabi-gcc/10.3-2021.07/gcc/arm-none-eabi/include/c++/10.3.1/cmath ****     inline _GLIBCXX_CONSTEXPR
 213:/opt/homebrew/Cellar/arm-none-eabi-gcc/10.3-2021.07/gcc/arm-none-eabi/include/c++/10.3.1/cmath ****     typename __gnu_cxx::__enable_if<__is_integer<_Tp>::__value,
 214:/opt/homebrew/Cellar/arm-none-eabi-gcc/10.3-2021.07/gcc/arm-none-eabi/include/c++/10.3.1/cmath ****                                     double>::__type
 215:/opt/homebrew/Cellar/arm-none-eabi-gcc/10.3-2021.07/gcc/arm-none-eabi/include/c++/10.3.1/cmath ****     cosh(_Tp __x)
 216:/opt/homebrew/Cellar/arm-none-eabi-gcc/10.3-2021.07/gcc/arm-none-eabi/include/c++/10.3.1/cmath ****     { return __builtin_cosh(__x); }
 217:/opt/homebrew/Cellar/arm-none-eabi-gcc/10.3-2021.07/gcc/arm-none-eabi/include/c++/10.3.1/cmath **** 
 218:/opt/homebrew/Cellar/arm-none-eabi-gcc/10.3-2021.07/gcc/arm-none-eabi/include/c++/10.3.1/cmath ****   using ::exp;
 219:/opt/homebrew/Cellar/arm-none-eabi-gcc/10.3-2021.07/gcc/arm-none-eabi/include/c++/10.3.1/cmath **** 
 220:/opt/homebrew/Cellar/arm-none-eabi-gcc/10.3-2021.07/gcc/arm-none-eabi/include/c++/10.3.1/cmath **** #ifndef __CORRECT_ISO_CPP_MATH_H_PROTO
 221:/opt/homebrew/Cellar/arm-none-eabi-gcc/10.3-2021.07/gcc/arm-none-eabi/include/c++/10.3.1/cmath ****   inline _GLIBCXX_CONSTEXPR float
 222:/opt/homebrew/Cellar/arm-none-eabi-gcc/10.3-2021.07/gcc/arm-none-eabi/include/c++/10.3.1/cmath ****   exp(float __x)
 223:/opt/homebrew/Cellar/arm-none-eabi-gcc/10.3-2021.07/gcc/arm-none-eabi/include/c++/10.3.1/cmath ****   { return __builtin_expf(__x); }
 224:/opt/homebrew/Cellar/arm-none-eabi-gcc/10.3-2021.07/gcc/arm-none-eabi/include/c++/10.3.1/cmath **** 
 225:/opt/homebrew/Cellar/arm-none-eabi-gcc/10.3-2021.07/gcc/arm-none-eabi/include/c++/10.3.1/cmath ****   inline _GLIBCXX_CONSTEXPR long double
 226:/opt/homebrew/Cellar/arm-none-eabi-gcc/10.3-2021.07/gcc/arm-none-eabi/include/c++/10.3.1/cmath ****   exp(long double __x)
 227:/opt/homebrew/Cellar/arm-none-eabi-gcc/10.3-2021.07/gcc/arm-none-eabi/include/c++/10.3.1/cmath ****   { return __builtin_expl(__x); }
 228:/opt/homebrew/Cellar/arm-none-eabi-gcc/10.3-2021.07/gcc/arm-none-eabi/include/c++/10.3.1/cmath **** #endif
 229:/opt/homebrew/Cellar/arm-none-eabi-gcc/10.3-2021.07/gcc/arm-none-eabi/include/c++/10.3.1/cmath **** 
 230:/opt/homebrew/Cellar/arm-none-eabi-gcc/10.3-2021.07/gcc/arm-none-eabi/include/c++/10.3.1/cmath ****   template<typename _Tp>
 231:/opt/homebrew/Cellar/arm-none-eabi-gcc/10.3-2021.07/gcc/arm-none-eabi/include/c++/10.3.1/cmath ****     inline _GLIBCXX_CONSTEXPR
 232:/opt/homebrew/Cellar/arm-none-eabi-gcc/10.3-2021.07/gcc/arm-none-eabi/include/c++/10.3.1/cmath ****     typename __gnu_cxx::__enable_if<__is_integer<_Tp>::__value,
 233:/opt/homebrew/Cellar/arm-none-eabi-gcc/10.3-2021.07/gcc/arm-none-eabi/include/c++/10.3.1/cmath ****                                     double>::__type
ARM GAS  /var/folders/hl/qgbwny5j0fd895c2c41bk3tw0000gp/T//ccRMOALe.s 			page 74


 234:/opt/homebrew/Cellar/arm-none-eabi-gcc/10.3-2021.07/gcc/arm-none-eabi/include/c++/10.3.1/cmath ****     exp(_Tp __x)
 235:/opt/homebrew/Cellar/arm-none-eabi-gcc/10.3-2021.07/gcc/arm-none-eabi/include/c++/10.3.1/cmath ****     { return __builtin_exp(__x); }
 236:/opt/homebrew/Cellar/arm-none-eabi-gcc/10.3-2021.07/gcc/arm-none-eabi/include/c++/10.3.1/cmath **** 
 237:/opt/homebrew/Cellar/arm-none-eabi-gcc/10.3-2021.07/gcc/arm-none-eabi/include/c++/10.3.1/cmath ****   using ::fabs;
 238:/opt/homebrew/Cellar/arm-none-eabi-gcc/10.3-2021.07/gcc/arm-none-eabi/include/c++/10.3.1/cmath **** 
 239:/opt/homebrew/Cellar/arm-none-eabi-gcc/10.3-2021.07/gcc/arm-none-eabi/include/c++/10.3.1/cmath **** #ifndef __CORRECT_ISO_CPP_MATH_H_PROTO
 240:/opt/homebrew/Cellar/arm-none-eabi-gcc/10.3-2021.07/gcc/arm-none-eabi/include/c++/10.3.1/cmath ****   inline _GLIBCXX_CONSTEXPR float
 241:/opt/homebrew/Cellar/arm-none-eabi-gcc/10.3-2021.07/gcc/arm-none-eabi/include/c++/10.3.1/cmath ****   fabs(float __x)
 242:/opt/homebrew/Cellar/arm-none-eabi-gcc/10.3-2021.07/gcc/arm-none-eabi/include/c++/10.3.1/cmath ****   { return __builtin_fabsf(__x); }
 243:/opt/homebrew/Cellar/arm-none-eabi-gcc/10.3-2021.07/gcc/arm-none-eabi/include/c++/10.3.1/cmath **** 
 244:/opt/homebrew/Cellar/arm-none-eabi-gcc/10.3-2021.07/gcc/arm-none-eabi/include/c++/10.3.1/cmath ****   inline _GLIBCXX_CONSTEXPR long double
 245:/opt/homebrew/Cellar/arm-none-eabi-gcc/10.3-2021.07/gcc/arm-none-eabi/include/c++/10.3.1/cmath ****   fabs(long double __x)
 246:/opt/homebrew/Cellar/arm-none-eabi-gcc/10.3-2021.07/gcc/arm-none-eabi/include/c++/10.3.1/cmath ****   { return __builtin_fabsl(__x); }
 247:/opt/homebrew/Cellar/arm-none-eabi-gcc/10.3-2021.07/gcc/arm-none-eabi/include/c++/10.3.1/cmath **** #endif
 248:/opt/homebrew/Cellar/arm-none-eabi-gcc/10.3-2021.07/gcc/arm-none-eabi/include/c++/10.3.1/cmath **** 
 249:/opt/homebrew/Cellar/arm-none-eabi-gcc/10.3-2021.07/gcc/arm-none-eabi/include/c++/10.3.1/cmath ****   template<typename _Tp>
 250:/opt/homebrew/Cellar/arm-none-eabi-gcc/10.3-2021.07/gcc/arm-none-eabi/include/c++/10.3.1/cmath ****     inline _GLIBCXX_CONSTEXPR
 251:/opt/homebrew/Cellar/arm-none-eabi-gcc/10.3-2021.07/gcc/arm-none-eabi/include/c++/10.3.1/cmath ****     typename __gnu_cxx::__enable_if<__is_integer<_Tp>::__value,
 252:/opt/homebrew/Cellar/arm-none-eabi-gcc/10.3-2021.07/gcc/arm-none-eabi/include/c++/10.3.1/cmath ****                                     double>::__type
 253:/opt/homebrew/Cellar/arm-none-eabi-gcc/10.3-2021.07/gcc/arm-none-eabi/include/c++/10.3.1/cmath ****     fabs(_Tp __x)
 254:/opt/homebrew/Cellar/arm-none-eabi-gcc/10.3-2021.07/gcc/arm-none-eabi/include/c++/10.3.1/cmath ****     { return __builtin_fabs(__x); }
 255:/opt/homebrew/Cellar/arm-none-eabi-gcc/10.3-2021.07/gcc/arm-none-eabi/include/c++/10.3.1/cmath **** 
 256:/opt/homebrew/Cellar/arm-none-eabi-gcc/10.3-2021.07/gcc/arm-none-eabi/include/c++/10.3.1/cmath ****   using ::floor;
 257:/opt/homebrew/Cellar/arm-none-eabi-gcc/10.3-2021.07/gcc/arm-none-eabi/include/c++/10.3.1/cmath **** 
 258:/opt/homebrew/Cellar/arm-none-eabi-gcc/10.3-2021.07/gcc/arm-none-eabi/include/c++/10.3.1/cmath **** #ifndef __CORRECT_ISO_CPP_MATH_H_PROTO
 259:/opt/homebrew/Cellar/arm-none-eabi-gcc/10.3-2021.07/gcc/arm-none-eabi/include/c++/10.3.1/cmath ****   inline _GLIBCXX_CONSTEXPR float
 260:/opt/homebrew/Cellar/arm-none-eabi-gcc/10.3-2021.07/gcc/arm-none-eabi/include/c++/10.3.1/cmath ****   floor(float __x)
 261:/opt/homebrew/Cellar/arm-none-eabi-gcc/10.3-2021.07/gcc/arm-none-eabi/include/c++/10.3.1/cmath ****   { return __builtin_floorf(__x); }
 262:/opt/homebrew/Cellar/arm-none-eabi-gcc/10.3-2021.07/gcc/arm-none-eabi/include/c++/10.3.1/cmath **** 
 263:/opt/homebrew/Cellar/arm-none-eabi-gcc/10.3-2021.07/gcc/arm-none-eabi/include/c++/10.3.1/cmath ****   inline _GLIBCXX_CONSTEXPR long double
 264:/opt/homebrew/Cellar/arm-none-eabi-gcc/10.3-2021.07/gcc/arm-none-eabi/include/c++/10.3.1/cmath ****   floor(long double __x)
 265:/opt/homebrew/Cellar/arm-none-eabi-gcc/10.3-2021.07/gcc/arm-none-eabi/include/c++/10.3.1/cmath ****   { return __builtin_floorl(__x); }
 266:/opt/homebrew/Cellar/arm-none-eabi-gcc/10.3-2021.07/gcc/arm-none-eabi/include/c++/10.3.1/cmath **** #endif
 267:/opt/homebrew/Cellar/arm-none-eabi-gcc/10.3-2021.07/gcc/arm-none-eabi/include/c++/10.3.1/cmath **** 
 268:/opt/homebrew/Cellar/arm-none-eabi-gcc/10.3-2021.07/gcc/arm-none-eabi/include/c++/10.3.1/cmath ****   template<typename _Tp>
 269:/opt/homebrew/Cellar/arm-none-eabi-gcc/10.3-2021.07/gcc/arm-none-eabi/include/c++/10.3.1/cmath ****     inline _GLIBCXX_CONSTEXPR
 270:/opt/homebrew/Cellar/arm-none-eabi-gcc/10.3-2021.07/gcc/arm-none-eabi/include/c++/10.3.1/cmath ****     typename __gnu_cxx::__enable_if<__is_integer<_Tp>::__value,
 271:/opt/homebrew/Cellar/arm-none-eabi-gcc/10.3-2021.07/gcc/arm-none-eabi/include/c++/10.3.1/cmath ****                                     double>::__type
 272:/opt/homebrew/Cellar/arm-none-eabi-gcc/10.3-2021.07/gcc/arm-none-eabi/include/c++/10.3.1/cmath ****     floor(_Tp __x)
 273:/opt/homebrew/Cellar/arm-none-eabi-gcc/10.3-2021.07/gcc/arm-none-eabi/include/c++/10.3.1/cmath ****     { return __builtin_floor(__x); }
 274:/opt/homebrew/Cellar/arm-none-eabi-gcc/10.3-2021.07/gcc/arm-none-eabi/include/c++/10.3.1/cmath **** 
 275:/opt/homebrew/Cellar/arm-none-eabi-gcc/10.3-2021.07/gcc/arm-none-eabi/include/c++/10.3.1/cmath ****   using ::fmod;
 276:/opt/homebrew/Cellar/arm-none-eabi-gcc/10.3-2021.07/gcc/arm-none-eabi/include/c++/10.3.1/cmath **** 
 277:/opt/homebrew/Cellar/arm-none-eabi-gcc/10.3-2021.07/gcc/arm-none-eabi/include/c++/10.3.1/cmath **** #ifndef __CORRECT_ISO_CPP_MATH_H_PROTO
 278:/opt/homebrew/Cellar/arm-none-eabi-gcc/10.3-2021.07/gcc/arm-none-eabi/include/c++/10.3.1/cmath ****   inline _GLIBCXX_CONSTEXPR float
 279:/opt/homebrew/Cellar/arm-none-eabi-gcc/10.3-2021.07/gcc/arm-none-eabi/include/c++/10.3.1/cmath ****   fmod(float __x, float __y)
 280:/opt/homebrew/Cellar/arm-none-eabi-gcc/10.3-2021.07/gcc/arm-none-eabi/include/c++/10.3.1/cmath ****   { return __builtin_fmodf(__x, __y); }
 281:/opt/homebrew/Cellar/arm-none-eabi-gcc/10.3-2021.07/gcc/arm-none-eabi/include/c++/10.3.1/cmath **** 
 282:/opt/homebrew/Cellar/arm-none-eabi-gcc/10.3-2021.07/gcc/arm-none-eabi/include/c++/10.3.1/cmath ****   inline _GLIBCXX_CONSTEXPR long double
 283:/opt/homebrew/Cellar/arm-none-eabi-gcc/10.3-2021.07/gcc/arm-none-eabi/include/c++/10.3.1/cmath ****   fmod(long double __x, long double __y)
 284:/opt/homebrew/Cellar/arm-none-eabi-gcc/10.3-2021.07/gcc/arm-none-eabi/include/c++/10.3.1/cmath ****   { return __builtin_fmodl(__x, __y); }
 285:/opt/homebrew/Cellar/arm-none-eabi-gcc/10.3-2021.07/gcc/arm-none-eabi/include/c++/10.3.1/cmath **** #endif
 286:/opt/homebrew/Cellar/arm-none-eabi-gcc/10.3-2021.07/gcc/arm-none-eabi/include/c++/10.3.1/cmath **** 
 287:/opt/homebrew/Cellar/arm-none-eabi-gcc/10.3-2021.07/gcc/arm-none-eabi/include/c++/10.3.1/cmath ****   template<typename _Tp, typename _Up>
 288:/opt/homebrew/Cellar/arm-none-eabi-gcc/10.3-2021.07/gcc/arm-none-eabi/include/c++/10.3.1/cmath ****     inline _GLIBCXX_CONSTEXPR
 289:/opt/homebrew/Cellar/arm-none-eabi-gcc/10.3-2021.07/gcc/arm-none-eabi/include/c++/10.3.1/cmath ****     typename __gnu_cxx::__promote_2<_Tp, _Up>::__type
 290:/opt/homebrew/Cellar/arm-none-eabi-gcc/10.3-2021.07/gcc/arm-none-eabi/include/c++/10.3.1/cmath ****     fmod(_Tp __x, _Up __y)
ARM GAS  /var/folders/hl/qgbwny5j0fd895c2c41bk3tw0000gp/T//ccRMOALe.s 			page 75


 291:/opt/homebrew/Cellar/arm-none-eabi-gcc/10.3-2021.07/gcc/arm-none-eabi/include/c++/10.3.1/cmath ****     {
 292:/opt/homebrew/Cellar/arm-none-eabi-gcc/10.3-2021.07/gcc/arm-none-eabi/include/c++/10.3.1/cmath ****       typedef typename __gnu_cxx::__promote_2<_Tp, _Up>::__type __type;
 293:/opt/homebrew/Cellar/arm-none-eabi-gcc/10.3-2021.07/gcc/arm-none-eabi/include/c++/10.3.1/cmath ****       return fmod(__type(__x), __type(__y));
 294:/opt/homebrew/Cellar/arm-none-eabi-gcc/10.3-2021.07/gcc/arm-none-eabi/include/c++/10.3.1/cmath ****     }
 295:/opt/homebrew/Cellar/arm-none-eabi-gcc/10.3-2021.07/gcc/arm-none-eabi/include/c++/10.3.1/cmath **** 
 296:/opt/homebrew/Cellar/arm-none-eabi-gcc/10.3-2021.07/gcc/arm-none-eabi/include/c++/10.3.1/cmath ****   using ::frexp;
 297:/opt/homebrew/Cellar/arm-none-eabi-gcc/10.3-2021.07/gcc/arm-none-eabi/include/c++/10.3.1/cmath **** 
 298:/opt/homebrew/Cellar/arm-none-eabi-gcc/10.3-2021.07/gcc/arm-none-eabi/include/c++/10.3.1/cmath **** #ifndef __CORRECT_ISO_CPP_MATH_H_PROTO
 299:/opt/homebrew/Cellar/arm-none-eabi-gcc/10.3-2021.07/gcc/arm-none-eabi/include/c++/10.3.1/cmath ****   inline float
 300:/opt/homebrew/Cellar/arm-none-eabi-gcc/10.3-2021.07/gcc/arm-none-eabi/include/c++/10.3.1/cmath ****   frexp(float __x, int* __exp)
 301:/opt/homebrew/Cellar/arm-none-eabi-gcc/10.3-2021.07/gcc/arm-none-eabi/include/c++/10.3.1/cmath ****   { return __builtin_frexpf(__x, __exp); }
 302:/opt/homebrew/Cellar/arm-none-eabi-gcc/10.3-2021.07/gcc/arm-none-eabi/include/c++/10.3.1/cmath **** 
 303:/opt/homebrew/Cellar/arm-none-eabi-gcc/10.3-2021.07/gcc/arm-none-eabi/include/c++/10.3.1/cmath ****   inline long double
 304:/opt/homebrew/Cellar/arm-none-eabi-gcc/10.3-2021.07/gcc/arm-none-eabi/include/c++/10.3.1/cmath ****   frexp(long double __x, int* __exp)
 305:/opt/homebrew/Cellar/arm-none-eabi-gcc/10.3-2021.07/gcc/arm-none-eabi/include/c++/10.3.1/cmath ****   { return __builtin_frexpl(__x, __exp); }
 306:/opt/homebrew/Cellar/arm-none-eabi-gcc/10.3-2021.07/gcc/arm-none-eabi/include/c++/10.3.1/cmath **** #endif
 307:/opt/homebrew/Cellar/arm-none-eabi-gcc/10.3-2021.07/gcc/arm-none-eabi/include/c++/10.3.1/cmath **** 
 308:/opt/homebrew/Cellar/arm-none-eabi-gcc/10.3-2021.07/gcc/arm-none-eabi/include/c++/10.3.1/cmath ****   template<typename _Tp>
 309:/opt/homebrew/Cellar/arm-none-eabi-gcc/10.3-2021.07/gcc/arm-none-eabi/include/c++/10.3.1/cmath ****     inline _GLIBCXX_CONSTEXPR
 310:/opt/homebrew/Cellar/arm-none-eabi-gcc/10.3-2021.07/gcc/arm-none-eabi/include/c++/10.3.1/cmath ****     typename __gnu_cxx::__enable_if<__is_integer<_Tp>::__value, 
 311:/opt/homebrew/Cellar/arm-none-eabi-gcc/10.3-2021.07/gcc/arm-none-eabi/include/c++/10.3.1/cmath ****                                     double>::__type
 312:/opt/homebrew/Cellar/arm-none-eabi-gcc/10.3-2021.07/gcc/arm-none-eabi/include/c++/10.3.1/cmath ****     frexp(_Tp __x, int* __exp)
 313:/opt/homebrew/Cellar/arm-none-eabi-gcc/10.3-2021.07/gcc/arm-none-eabi/include/c++/10.3.1/cmath ****     { return __builtin_frexp(__x, __exp); }
 314:/opt/homebrew/Cellar/arm-none-eabi-gcc/10.3-2021.07/gcc/arm-none-eabi/include/c++/10.3.1/cmath **** 
 315:/opt/homebrew/Cellar/arm-none-eabi-gcc/10.3-2021.07/gcc/arm-none-eabi/include/c++/10.3.1/cmath ****   using ::ldexp;
 316:/opt/homebrew/Cellar/arm-none-eabi-gcc/10.3-2021.07/gcc/arm-none-eabi/include/c++/10.3.1/cmath **** 
 317:/opt/homebrew/Cellar/arm-none-eabi-gcc/10.3-2021.07/gcc/arm-none-eabi/include/c++/10.3.1/cmath **** #ifndef __CORRECT_ISO_CPP_MATH_H_PROTO
 318:/opt/homebrew/Cellar/arm-none-eabi-gcc/10.3-2021.07/gcc/arm-none-eabi/include/c++/10.3.1/cmath ****   inline _GLIBCXX_CONSTEXPR float
 319:/opt/homebrew/Cellar/arm-none-eabi-gcc/10.3-2021.07/gcc/arm-none-eabi/include/c++/10.3.1/cmath ****   ldexp(float __x, int __exp)
 320:/opt/homebrew/Cellar/arm-none-eabi-gcc/10.3-2021.07/gcc/arm-none-eabi/include/c++/10.3.1/cmath ****   { return __builtin_ldexpf(__x, __exp); }
 321:/opt/homebrew/Cellar/arm-none-eabi-gcc/10.3-2021.07/gcc/arm-none-eabi/include/c++/10.3.1/cmath **** 
 322:/opt/homebrew/Cellar/arm-none-eabi-gcc/10.3-2021.07/gcc/arm-none-eabi/include/c++/10.3.1/cmath ****   inline _GLIBCXX_CONSTEXPR long double
 323:/opt/homebrew/Cellar/arm-none-eabi-gcc/10.3-2021.07/gcc/arm-none-eabi/include/c++/10.3.1/cmath ****   ldexp(long double __x, int __exp)
 324:/opt/homebrew/Cellar/arm-none-eabi-gcc/10.3-2021.07/gcc/arm-none-eabi/include/c++/10.3.1/cmath ****   { return __builtin_ldexpl(__x, __exp); }
 325:/opt/homebrew/Cellar/arm-none-eabi-gcc/10.3-2021.07/gcc/arm-none-eabi/include/c++/10.3.1/cmath **** #endif
 326:/opt/homebrew/Cellar/arm-none-eabi-gcc/10.3-2021.07/gcc/arm-none-eabi/include/c++/10.3.1/cmath **** 
 327:/opt/homebrew/Cellar/arm-none-eabi-gcc/10.3-2021.07/gcc/arm-none-eabi/include/c++/10.3.1/cmath ****   template<typename _Tp>
 328:/opt/homebrew/Cellar/arm-none-eabi-gcc/10.3-2021.07/gcc/arm-none-eabi/include/c++/10.3.1/cmath ****     inline _GLIBCXX_CONSTEXPR
 329:/opt/homebrew/Cellar/arm-none-eabi-gcc/10.3-2021.07/gcc/arm-none-eabi/include/c++/10.3.1/cmath ****     typename __gnu_cxx::__enable_if<__is_integer<_Tp>::__value, 
 330:/opt/homebrew/Cellar/arm-none-eabi-gcc/10.3-2021.07/gcc/arm-none-eabi/include/c++/10.3.1/cmath ****                                     double>::__type
 331:/opt/homebrew/Cellar/arm-none-eabi-gcc/10.3-2021.07/gcc/arm-none-eabi/include/c++/10.3.1/cmath ****     ldexp(_Tp __x, int __exp)
 332:/opt/homebrew/Cellar/arm-none-eabi-gcc/10.3-2021.07/gcc/arm-none-eabi/include/c++/10.3.1/cmath ****     { return __builtin_ldexp(__x, __exp); }
 333:/opt/homebrew/Cellar/arm-none-eabi-gcc/10.3-2021.07/gcc/arm-none-eabi/include/c++/10.3.1/cmath **** 
 334:/opt/homebrew/Cellar/arm-none-eabi-gcc/10.3-2021.07/gcc/arm-none-eabi/include/c++/10.3.1/cmath ****   using ::log;
 335:/opt/homebrew/Cellar/arm-none-eabi-gcc/10.3-2021.07/gcc/arm-none-eabi/include/c++/10.3.1/cmath **** 
 336:/opt/homebrew/Cellar/arm-none-eabi-gcc/10.3-2021.07/gcc/arm-none-eabi/include/c++/10.3.1/cmath **** #ifndef __CORRECT_ISO_CPP_MATH_H_PROTO
 337:/opt/homebrew/Cellar/arm-none-eabi-gcc/10.3-2021.07/gcc/arm-none-eabi/include/c++/10.3.1/cmath ****   inline _GLIBCXX_CONSTEXPR float
 338:/opt/homebrew/Cellar/arm-none-eabi-gcc/10.3-2021.07/gcc/arm-none-eabi/include/c++/10.3.1/cmath ****   log(float __x)
 339:/opt/homebrew/Cellar/arm-none-eabi-gcc/10.3-2021.07/gcc/arm-none-eabi/include/c++/10.3.1/cmath ****   { return __builtin_logf(__x); }
 340:/opt/homebrew/Cellar/arm-none-eabi-gcc/10.3-2021.07/gcc/arm-none-eabi/include/c++/10.3.1/cmath **** 
 341:/opt/homebrew/Cellar/arm-none-eabi-gcc/10.3-2021.07/gcc/arm-none-eabi/include/c++/10.3.1/cmath ****   inline _GLIBCXX_CONSTEXPR long double
 342:/opt/homebrew/Cellar/arm-none-eabi-gcc/10.3-2021.07/gcc/arm-none-eabi/include/c++/10.3.1/cmath ****   log(long double __x)
 343:/opt/homebrew/Cellar/arm-none-eabi-gcc/10.3-2021.07/gcc/arm-none-eabi/include/c++/10.3.1/cmath ****   { return __builtin_logl(__x); }
 344:/opt/homebrew/Cellar/arm-none-eabi-gcc/10.3-2021.07/gcc/arm-none-eabi/include/c++/10.3.1/cmath **** #endif
 345:/opt/homebrew/Cellar/arm-none-eabi-gcc/10.3-2021.07/gcc/arm-none-eabi/include/c++/10.3.1/cmath **** 
 346:/opt/homebrew/Cellar/arm-none-eabi-gcc/10.3-2021.07/gcc/arm-none-eabi/include/c++/10.3.1/cmath ****   template<typename _Tp>
 347:/opt/homebrew/Cellar/arm-none-eabi-gcc/10.3-2021.07/gcc/arm-none-eabi/include/c++/10.3.1/cmath ****     inline _GLIBCXX_CONSTEXPR
ARM GAS  /var/folders/hl/qgbwny5j0fd895c2c41bk3tw0000gp/T//ccRMOALe.s 			page 76


 348:/opt/homebrew/Cellar/arm-none-eabi-gcc/10.3-2021.07/gcc/arm-none-eabi/include/c++/10.3.1/cmath ****     typename __gnu_cxx::__enable_if<__is_integer<_Tp>::__value, 
 349:/opt/homebrew/Cellar/arm-none-eabi-gcc/10.3-2021.07/gcc/arm-none-eabi/include/c++/10.3.1/cmath ****                                     double>::__type
 350:/opt/homebrew/Cellar/arm-none-eabi-gcc/10.3-2021.07/gcc/arm-none-eabi/include/c++/10.3.1/cmath ****     log(_Tp __x)
 351:/opt/homebrew/Cellar/arm-none-eabi-gcc/10.3-2021.07/gcc/arm-none-eabi/include/c++/10.3.1/cmath ****     { return __builtin_log(__x); }
 352:/opt/homebrew/Cellar/arm-none-eabi-gcc/10.3-2021.07/gcc/arm-none-eabi/include/c++/10.3.1/cmath **** 
 353:/opt/homebrew/Cellar/arm-none-eabi-gcc/10.3-2021.07/gcc/arm-none-eabi/include/c++/10.3.1/cmath ****   using ::log10;
 354:/opt/homebrew/Cellar/arm-none-eabi-gcc/10.3-2021.07/gcc/arm-none-eabi/include/c++/10.3.1/cmath **** 
 355:/opt/homebrew/Cellar/arm-none-eabi-gcc/10.3-2021.07/gcc/arm-none-eabi/include/c++/10.3.1/cmath **** #ifndef __CORRECT_ISO_CPP_MATH_H_PROTO
 356:/opt/homebrew/Cellar/arm-none-eabi-gcc/10.3-2021.07/gcc/arm-none-eabi/include/c++/10.3.1/cmath ****   inline _GLIBCXX_CONSTEXPR float
 357:/opt/homebrew/Cellar/arm-none-eabi-gcc/10.3-2021.07/gcc/arm-none-eabi/include/c++/10.3.1/cmath ****   log10(float __x)
 358:/opt/homebrew/Cellar/arm-none-eabi-gcc/10.3-2021.07/gcc/arm-none-eabi/include/c++/10.3.1/cmath ****   { return __builtin_log10f(__x); }
 359:/opt/homebrew/Cellar/arm-none-eabi-gcc/10.3-2021.07/gcc/arm-none-eabi/include/c++/10.3.1/cmath **** 
 360:/opt/homebrew/Cellar/arm-none-eabi-gcc/10.3-2021.07/gcc/arm-none-eabi/include/c++/10.3.1/cmath ****   inline _GLIBCXX_CONSTEXPR long double
 361:/opt/homebrew/Cellar/arm-none-eabi-gcc/10.3-2021.07/gcc/arm-none-eabi/include/c++/10.3.1/cmath ****   log10(long double __x)
 362:/opt/homebrew/Cellar/arm-none-eabi-gcc/10.3-2021.07/gcc/arm-none-eabi/include/c++/10.3.1/cmath ****   { return __builtin_log10l(__x); }
 363:/opt/homebrew/Cellar/arm-none-eabi-gcc/10.3-2021.07/gcc/arm-none-eabi/include/c++/10.3.1/cmath **** #endif
 364:/opt/homebrew/Cellar/arm-none-eabi-gcc/10.3-2021.07/gcc/arm-none-eabi/include/c++/10.3.1/cmath **** 
 365:/opt/homebrew/Cellar/arm-none-eabi-gcc/10.3-2021.07/gcc/arm-none-eabi/include/c++/10.3.1/cmath ****   template<typename _Tp>
 366:/opt/homebrew/Cellar/arm-none-eabi-gcc/10.3-2021.07/gcc/arm-none-eabi/include/c++/10.3.1/cmath ****     inline _GLIBCXX_CONSTEXPR
 367:/opt/homebrew/Cellar/arm-none-eabi-gcc/10.3-2021.07/gcc/arm-none-eabi/include/c++/10.3.1/cmath ****     typename __gnu_cxx::__enable_if<__is_integer<_Tp>::__value,
 368:/opt/homebrew/Cellar/arm-none-eabi-gcc/10.3-2021.07/gcc/arm-none-eabi/include/c++/10.3.1/cmath ****                                     double>::__type
 369:/opt/homebrew/Cellar/arm-none-eabi-gcc/10.3-2021.07/gcc/arm-none-eabi/include/c++/10.3.1/cmath ****     log10(_Tp __x)
 370:/opt/homebrew/Cellar/arm-none-eabi-gcc/10.3-2021.07/gcc/arm-none-eabi/include/c++/10.3.1/cmath ****     { return __builtin_log10(__x); }
 371:/opt/homebrew/Cellar/arm-none-eabi-gcc/10.3-2021.07/gcc/arm-none-eabi/include/c++/10.3.1/cmath **** 
 372:/opt/homebrew/Cellar/arm-none-eabi-gcc/10.3-2021.07/gcc/arm-none-eabi/include/c++/10.3.1/cmath ****   using ::modf;
 373:/opt/homebrew/Cellar/arm-none-eabi-gcc/10.3-2021.07/gcc/arm-none-eabi/include/c++/10.3.1/cmath **** 
 374:/opt/homebrew/Cellar/arm-none-eabi-gcc/10.3-2021.07/gcc/arm-none-eabi/include/c++/10.3.1/cmath **** #ifndef __CORRECT_ISO_CPP_MATH_H_PROTO
 375:/opt/homebrew/Cellar/arm-none-eabi-gcc/10.3-2021.07/gcc/arm-none-eabi/include/c++/10.3.1/cmath ****   inline float
 376:/opt/homebrew/Cellar/arm-none-eabi-gcc/10.3-2021.07/gcc/arm-none-eabi/include/c++/10.3.1/cmath ****   modf(float __x, float* __iptr)
 377:/opt/homebrew/Cellar/arm-none-eabi-gcc/10.3-2021.07/gcc/arm-none-eabi/include/c++/10.3.1/cmath ****   { return __builtin_modff(__x, __iptr); }
 378:/opt/homebrew/Cellar/arm-none-eabi-gcc/10.3-2021.07/gcc/arm-none-eabi/include/c++/10.3.1/cmath **** 
 379:/opt/homebrew/Cellar/arm-none-eabi-gcc/10.3-2021.07/gcc/arm-none-eabi/include/c++/10.3.1/cmath ****   inline long double
 380:/opt/homebrew/Cellar/arm-none-eabi-gcc/10.3-2021.07/gcc/arm-none-eabi/include/c++/10.3.1/cmath ****   modf(long double __x, long double* __iptr)
 381:/opt/homebrew/Cellar/arm-none-eabi-gcc/10.3-2021.07/gcc/arm-none-eabi/include/c++/10.3.1/cmath ****   { return __builtin_modfl(__x, __iptr); }
 382:/opt/homebrew/Cellar/arm-none-eabi-gcc/10.3-2021.07/gcc/arm-none-eabi/include/c++/10.3.1/cmath **** #endif
 383:/opt/homebrew/Cellar/arm-none-eabi-gcc/10.3-2021.07/gcc/arm-none-eabi/include/c++/10.3.1/cmath **** 
 384:/opt/homebrew/Cellar/arm-none-eabi-gcc/10.3-2021.07/gcc/arm-none-eabi/include/c++/10.3.1/cmath ****   using ::pow;
 385:/opt/homebrew/Cellar/arm-none-eabi-gcc/10.3-2021.07/gcc/arm-none-eabi/include/c++/10.3.1/cmath **** 
 386:/opt/homebrew/Cellar/arm-none-eabi-gcc/10.3-2021.07/gcc/arm-none-eabi/include/c++/10.3.1/cmath **** #ifndef __CORRECT_ISO_CPP_MATH_H_PROTO
 387:/opt/homebrew/Cellar/arm-none-eabi-gcc/10.3-2021.07/gcc/arm-none-eabi/include/c++/10.3.1/cmath ****   inline _GLIBCXX_CONSTEXPR float
 388:/opt/homebrew/Cellar/arm-none-eabi-gcc/10.3-2021.07/gcc/arm-none-eabi/include/c++/10.3.1/cmath ****   pow(float __x, float __y)
 389:/opt/homebrew/Cellar/arm-none-eabi-gcc/10.3-2021.07/gcc/arm-none-eabi/include/c++/10.3.1/cmath ****   { return __builtin_powf(__x, __y); }
 390:/opt/homebrew/Cellar/arm-none-eabi-gcc/10.3-2021.07/gcc/arm-none-eabi/include/c++/10.3.1/cmath **** 
 391:/opt/homebrew/Cellar/arm-none-eabi-gcc/10.3-2021.07/gcc/arm-none-eabi/include/c++/10.3.1/cmath ****   inline _GLIBCXX_CONSTEXPR long double
 392:/opt/homebrew/Cellar/arm-none-eabi-gcc/10.3-2021.07/gcc/arm-none-eabi/include/c++/10.3.1/cmath ****   pow(long double __x, long double __y)
 393:/opt/homebrew/Cellar/arm-none-eabi-gcc/10.3-2021.07/gcc/arm-none-eabi/include/c++/10.3.1/cmath ****   { return __builtin_powl(__x, __y); }
 394:/opt/homebrew/Cellar/arm-none-eabi-gcc/10.3-2021.07/gcc/arm-none-eabi/include/c++/10.3.1/cmath **** 
 395:/opt/homebrew/Cellar/arm-none-eabi-gcc/10.3-2021.07/gcc/arm-none-eabi/include/c++/10.3.1/cmath **** #if __cplusplus < 201103L
 396:/opt/homebrew/Cellar/arm-none-eabi-gcc/10.3-2021.07/gcc/arm-none-eabi/include/c++/10.3.1/cmath ****   // _GLIBCXX_RESOLVE_LIB_DEFECTS
 397:/opt/homebrew/Cellar/arm-none-eabi-gcc/10.3-2021.07/gcc/arm-none-eabi/include/c++/10.3.1/cmath ****   // DR 550. What should the return type of pow(float,int) be?
 398:/opt/homebrew/Cellar/arm-none-eabi-gcc/10.3-2021.07/gcc/arm-none-eabi/include/c++/10.3.1/cmath ****   inline double
 399:/opt/homebrew/Cellar/arm-none-eabi-gcc/10.3-2021.07/gcc/arm-none-eabi/include/c++/10.3.1/cmath ****   pow(double __x, int __i)
 400:/opt/homebrew/Cellar/arm-none-eabi-gcc/10.3-2021.07/gcc/arm-none-eabi/include/c++/10.3.1/cmath ****   { return __builtin_powi(__x, __i); }
 401:/opt/homebrew/Cellar/arm-none-eabi-gcc/10.3-2021.07/gcc/arm-none-eabi/include/c++/10.3.1/cmath **** 
 402:/opt/homebrew/Cellar/arm-none-eabi-gcc/10.3-2021.07/gcc/arm-none-eabi/include/c++/10.3.1/cmath ****   inline float
 403:/opt/homebrew/Cellar/arm-none-eabi-gcc/10.3-2021.07/gcc/arm-none-eabi/include/c++/10.3.1/cmath ****   pow(float __x, int __n)
 404:/opt/homebrew/Cellar/arm-none-eabi-gcc/10.3-2021.07/gcc/arm-none-eabi/include/c++/10.3.1/cmath ****   { return __builtin_powif(__x, __n); }
ARM GAS  /var/folders/hl/qgbwny5j0fd895c2c41bk3tw0000gp/T//ccRMOALe.s 			page 77


 405:/opt/homebrew/Cellar/arm-none-eabi-gcc/10.3-2021.07/gcc/arm-none-eabi/include/c++/10.3.1/cmath **** 
 406:/opt/homebrew/Cellar/arm-none-eabi-gcc/10.3-2021.07/gcc/arm-none-eabi/include/c++/10.3.1/cmath ****   inline long double
 407:/opt/homebrew/Cellar/arm-none-eabi-gcc/10.3-2021.07/gcc/arm-none-eabi/include/c++/10.3.1/cmath ****   pow(long double __x, int __n)
 408:/opt/homebrew/Cellar/arm-none-eabi-gcc/10.3-2021.07/gcc/arm-none-eabi/include/c++/10.3.1/cmath ****   { return __builtin_powil(__x, __n); }
 409:/opt/homebrew/Cellar/arm-none-eabi-gcc/10.3-2021.07/gcc/arm-none-eabi/include/c++/10.3.1/cmath **** #endif
 410:/opt/homebrew/Cellar/arm-none-eabi-gcc/10.3-2021.07/gcc/arm-none-eabi/include/c++/10.3.1/cmath **** #endif
 411:/opt/homebrew/Cellar/arm-none-eabi-gcc/10.3-2021.07/gcc/arm-none-eabi/include/c++/10.3.1/cmath **** 
 412:/opt/homebrew/Cellar/arm-none-eabi-gcc/10.3-2021.07/gcc/arm-none-eabi/include/c++/10.3.1/cmath ****   template<typename _Tp, typename _Up>
 413:/opt/homebrew/Cellar/arm-none-eabi-gcc/10.3-2021.07/gcc/arm-none-eabi/include/c++/10.3.1/cmath ****     inline _GLIBCXX_CONSTEXPR
 414:/opt/homebrew/Cellar/arm-none-eabi-gcc/10.3-2021.07/gcc/arm-none-eabi/include/c++/10.3.1/cmath ****     typename __gnu_cxx::__promote_2<_Tp, _Up>::__type
 415:/opt/homebrew/Cellar/arm-none-eabi-gcc/10.3-2021.07/gcc/arm-none-eabi/include/c++/10.3.1/cmath ****     pow(_Tp __x, _Up __y)
 416:/opt/homebrew/Cellar/arm-none-eabi-gcc/10.3-2021.07/gcc/arm-none-eabi/include/c++/10.3.1/cmath ****     {
 417:/opt/homebrew/Cellar/arm-none-eabi-gcc/10.3-2021.07/gcc/arm-none-eabi/include/c++/10.3.1/cmath ****       typedef typename __gnu_cxx::__promote_2<_Tp, _Up>::__type __type;
 418:/opt/homebrew/Cellar/arm-none-eabi-gcc/10.3-2021.07/gcc/arm-none-eabi/include/c++/10.3.1/cmath ****       return pow(__type(__x), __type(__y));
 419:/opt/homebrew/Cellar/arm-none-eabi-gcc/10.3-2021.07/gcc/arm-none-eabi/include/c++/10.3.1/cmath ****     }
 420:/opt/homebrew/Cellar/arm-none-eabi-gcc/10.3-2021.07/gcc/arm-none-eabi/include/c++/10.3.1/cmath **** 
 421:/opt/homebrew/Cellar/arm-none-eabi-gcc/10.3-2021.07/gcc/arm-none-eabi/include/c++/10.3.1/cmath ****   using ::sin;
 422:/opt/homebrew/Cellar/arm-none-eabi-gcc/10.3-2021.07/gcc/arm-none-eabi/include/c++/10.3.1/cmath **** 
 423:/opt/homebrew/Cellar/arm-none-eabi-gcc/10.3-2021.07/gcc/arm-none-eabi/include/c++/10.3.1/cmath **** #ifndef __CORRECT_ISO_CPP_MATH_H_PROTO
 424:/opt/homebrew/Cellar/arm-none-eabi-gcc/10.3-2021.07/gcc/arm-none-eabi/include/c++/10.3.1/cmath ****   inline _GLIBCXX_CONSTEXPR float
 425:/opt/homebrew/Cellar/arm-none-eabi-gcc/10.3-2021.07/gcc/arm-none-eabi/include/c++/10.3.1/cmath ****   sin(float __x)
 426:/opt/homebrew/Cellar/arm-none-eabi-gcc/10.3-2021.07/gcc/arm-none-eabi/include/c++/10.3.1/cmath ****   { return __builtin_sinf(__x); }
 2027              		.loc 17 426 26 view .LVU450
 2028 0068 B0EE680A 		vmov.f32	s0, s17
 2029 006c FFF7FEFF 		bl	sinf
 2030              	.LVL140:
 2031              	.LBE726:
 2032              	.LBE725:
 316:../../libDaisy//src/hid/disp/display.h ****         end_x   = cos(end_angle_rad) * radius;
 2033              		.loc 9 316 17 view .LVU451
 2034 0070 60EE698A 		vnmul.f32	s17, s0, s19
 2035              	.LVL141:
 2036              	.LBB728:
 2037              	.LBB729:
 185:/opt/homebrew/Cellar/arm-none-eabi-gcc/10.3-2021.07/gcc/arm-none-eabi/include/c++/10.3.1/cmath **** 
 2038              		.loc 17 185 26 view .LVU452
 2039 0074 B0EE4A0A 		vmov.f32	s0, s20
 2040 0078 FFF7FEFF 		bl	cosf
 2041              	.LVL142:
 2042 007c B0EE409A 		vmov.f32	s18, s0
 2043              	.LBE729:
 2044              	.LBE728:
 2045              	.LBB731:
 2046              	.LBB732:
 2047              		.loc 17 426 26 view .LVU453
 2048 0080 B0EE4A0A 		vmov.f32	s0, s20
 2049 0084 FFF7FEFF 		bl	sinf
 2050              	.LVL143:
 2051              	.LBE732:
 2052              	.LBE731:
 318:../../libDaisy//src/hid/disp/display.h **** 
 2053              		.loc 9 318 17 view .LVU454
 2054 0088 20EE690A 		vnmul.f32	s0, s0, s19
 315:../../libDaisy//src/hid/disp/display.h ****         start_y = -sin(start_angle_rad) * radius;
 2055              		.loc 9 315 17 view .LVU455
 2056 008c 29EE888A 		vmul.f32	s16, s19, s16
 2057              	.LVL144:
ARM GAS  /var/folders/hl/qgbwny5j0fd895c2c41bk3tw0000gp/T//ccRMOALe.s 			page 78


 2058              	.LBB734:
 2059              	.LBI725:
 425:/opt/homebrew/Cellar/arm-none-eabi-gcc/10.3-2021.07/gcc/arm-none-eabi/include/c++/10.3.1/cmath ****   { return __builtin_sinf(__x); }
 2060              		.loc 17 425 3 is_stmt 1 view .LVU456
 2061              	.LBB727:
 2062              		.loc 17 426 5 view .LVU457
 2063              		.loc 17 426 5 is_stmt 0 view .LVU458
 2064              	.LBE727:
 2065              	.LBE734:
 2066              	.LBB735:
 2067              	.LBI728:
 184:/opt/homebrew/Cellar/arm-none-eabi-gcc/10.3-2021.07/gcc/arm-none-eabi/include/c++/10.3.1/cmath ****   { return __builtin_cosf(__x); }
 2068              		.loc 17 184 3 is_stmt 1 view .LVU459
 2069              	.LBB730:
 185:/opt/homebrew/Cellar/arm-none-eabi-gcc/10.3-2021.07/gcc/arm-none-eabi/include/c++/10.3.1/cmath **** 
 2070              		.loc 17 185 5 view .LVU460
 185:/opt/homebrew/Cellar/arm-none-eabi-gcc/10.3-2021.07/gcc/arm-none-eabi/include/c++/10.3.1/cmath **** 
 2071              		.loc 17 185 5 is_stmt 0 view .LVU461
 2072              	.LBE730:
 2073              	.LBE735:
 317:../../libDaisy//src/hid/disp/display.h ****         end_y   = -sin(end_angle_rad) * radius;
 2074              		.loc 9 317 17 view .LVU462
 2075 0090 29EE899A 		vmul.f32	s18, s19, s18
 2076              	.LVL145:
 2077              	.LBB736:
 2078              	.LBI731:
 425:/opt/homebrew/Cellar/arm-none-eabi-gcc/10.3-2021.07/gcc/arm-none-eabi/include/c++/10.3.1/cmath ****   { return __builtin_sinf(__x); }
 2079              		.loc 17 425 3 is_stmt 1 view .LVU463
 2080              	.LBB733:
 2081              		.loc 17 426 5 view .LVU464
 2082              		.loc 17 426 5 is_stmt 0 view .LVU465
 2083              	.LBE733:
 2084              	.LBE736:
 322:../../libDaisy//src/hid/disp/display.h ****            < 2.0f)
 2085              		.loc 9 322 25 view .LVU466
 2086 0094 70EE687A 		vsub.f32	s15, s0, s17
 321:../../libDaisy//src/hid/disp/display.h ****                + (end_y - start_y) * (end_y - start_y)
 2087              		.loc 9 321 9 view .LVU467
 2088 0098 F0EE006A 		vmov.f32	s13, #2.0e+0
 321:../../libDaisy//src/hid/disp/display.h ****                + (end_y - start_y) * (end_y - start_y)
 2089              		.loc 9 321 19 view .LVU468
 2090 009c 39EE487A 		vsub.f32	s14, s18, s16
 322:../../libDaisy//src/hid/disp/display.h ****            < 2.0f)
 2091              		.loc 9 322 36 view .LVU469
 2092 00a0 67EEA77A 		vmul.f32	s15, s15, s15
 322:../../libDaisy//src/hid/disp/display.h ****            < 2.0f)
 2093              		.loc 9 322 16 view .LVU470
 2094 00a4 E7EE077A 		vfma.f32	s15, s14, s14
 321:../../libDaisy//src/hid/disp/display.h ****                + (end_y - start_y) * (end_y - start_y)
 2095              		.loc 9 321 9 view .LVU471
 2096 00a8 F4EEE67A 		vcmpe.f32	s15, s13
 2097 00ac F1EE10FA 		vmrs	APSR_nzcv, FPSCR
 2098 00b0 06D5     		bpl	.L204
 325:../../libDaisy//src/hid/disp/display.h ****                 circle = true;
 2099              		.loc 9 325 13 view .LVU472
 2100 00b2 139B     		ldr	r3, [sp, #76]
 2101 00b4 B42B     		cmp	r3, #180
ARM GAS  /var/folders/hl/qgbwny5j0fd895c2c41bk3tw0000gp/T//ccRMOALe.s 			page 79


 2102 00b6 40F39680 		ble	.L145
 326:../../libDaisy//src/hid/disp/display.h ****             else
 2103              		.loc 9 326 24 view .LVU473
 2104 00ba 4FF00109 		mov	r9, #1
 2105 00be 01E0     		b	.L148
 2106              	.L204:
 304:../../libDaisy//src/hid/disp/display.h **** 
 2107              		.loc 9 304 14 view .LVU474
 2108 00c0 4FF00009 		mov	r9, #0
 2109              	.L148:
 2110              	.LVL146:
 302:../../libDaisy//src/hid/disp/display.h **** 
 2111              		.loc 9 302 27 view .LVU475
 2112 00c4 0124     		movs	r4, #1
 332:../../libDaisy//src/hid/disp/display.h ****         t_y = 0;
 2113              		.loc 9 332 13 view .LVU476
 2114 00c6 7842     		rsbs	r0, r7, #0
 2115              	.LVL147:
 333:../../libDaisy//src/hid/disp/display.h ****         err = 2 - 2 * radius;
 2116              		.loc 9 333 13 view .LVU477
 2117 00c8 4FF0000C 		mov	ip, #0
 2118 00cc 0095     		str	r5, [sp]
 334:../../libDaisy//src/hid/disp/display.h **** 
 2119              		.loc 9 334 17 view .LVU478
 2120 00ce E31B     		subs	r3, r4, r7
 302:../../libDaisy//src/hid/disp/display.h **** 
 2121              		.loc 9 302 17 view .LVU479
 2122 00d0 2146     		mov	r1, r4
 302:../../libDaisy//src/hid/disp/display.h **** 
 2123              		.loc 9 302 22 view .LVU480
 2124 00d2 2746     		mov	r7, r4
 2125              	.LVL148:
 302:../../libDaisy//src/hid/disp/display.h **** 
 2126              		.loc 9 302 12 view .LVU481
 2127 00d4 2246     		mov	r2, r4
 334:../../libDaisy//src/hid/disp/display.h **** 
 2128              		.loc 9 334 17 view .LVU482
 2129 00d6 A340     		lsls	r3, r3, r4
 2130              	.LVL149:
 2131              	.L174:
 338:../../libDaisy//src/hid/disp/display.h ****             {
 2132              		.loc 9 338 13 view .LVU483
 2133 00d8 B9F1000F 		cmp	r9, #0
 2134 00dc 6AD1     		bne	.L150
 343:../../libDaisy//src/hid/disp/display.h ****                 t_exy  = end_x * t_y;
 2135              		.loc 9 343 34 view .LVU484
 2136 00de 4242     		rsbs	r2, r0, #0
 2137              	.LVL150:
 340:../../libDaisy//src/hid/disp/display.h ****                 t_syx  = start_y * t_x;
 2138              		.loc 9 340 24 view .LVU485
 2139 00e0 06EE90CA 		vmov	s13, ip	@ int
 342:../../libDaisy//src/hid/disp/display.h ****                 t_synx = start_y * -t_x;
 2140              		.loc 9 342 34 view .LVU486
 2141 00e4 CCF10001 		rsb	r1, ip, #0
 2142              	.LVL151:
 343:../../libDaisy//src/hid/disp/display.h ****                 t_exy  = end_x * t_y;
 2143              		.loc 9 343 34 view .LVU487
ARM GAS  /var/folders/hl/qgbwny5j0fd895c2c41bk3tw0000gp/T//ccRMOALe.s 			page 80


 2144 00e8 07EE102A 		vmov	s14, r2	@ int
 340:../../libDaisy//src/hid/disp/display.h ****                 t_syx  = start_y * t_x;
 2145              		.loc 9 340 24 view .LVU488
 2146 00ec B8EEE66A 		vcvt.f32.s32	s12, s13
 342:../../libDaisy//src/hid/disp/display.h ****                 t_synx = start_y * -t_x;
 2147              		.loc 9 342 34 view .LVU489
 2148 00f0 07EE901A 		vmov	s15, r1	@ int
 341:../../libDaisy//src/hid/disp/display.h ****                 t_sxny = start_x * -t_y;
 2149              		.loc 9 341 24 view .LVU490
 2150 00f4 06EE900A 		vmov	s13, r0	@ int
 343:../../libDaisy//src/hid/disp/display.h ****                 t_exy  = end_x * t_y;
 2151              		.loc 9 343 34 view .LVU491
 2152 00f8 B8EEC77A 		vcvt.f32.s32	s14, s14
 349:../../libDaisy//src/hid/disp/display.h ****                 {
 2153              		.loc 9 349 17 view .LVU492
 2154 00fc 139A     		ldr	r2, [sp, #76]
 340:../../libDaisy//src/hid/disp/display.h ****                 t_syx  = start_y * t_x;
 2155              		.loc 9 340 24 view .LVU493
 2156 00fe 66EE084A 		vmul.f32	s9, s12, s16
 2157              	.LVL152:
 342:../../libDaisy//src/hid/disp/display.h ****                 t_synx = start_y * -t_x;
 2158              		.loc 9 342 34 view .LVU494
 2159 0102 F8EEE77A 		vcvt.f32.s32	s15, s15
 349:../../libDaisy//src/hid/disp/display.h ****                 {
 2160              		.loc 9 349 17 view .LVU495
 2161 0106 B42A     		cmp	r2, #180
 343:../../libDaisy//src/hid/disp/display.h ****                 t_exy  = end_x * t_y;
 2162              		.loc 9 343 24 view .LVU496
 2163 0108 27EE284A 		vmul.f32	s8, s14, s17
 341:../../libDaisy//src/hid/disp/display.h ****                 t_sxny = start_x * -t_y;
 2164              		.loc 9 341 24 view .LVU497
 2165 010c F8EEE66A 		vcvt.f32.s32	s13, s13
 342:../../libDaisy//src/hid/disp/display.h ****                 t_synx = start_y * -t_x;
 2166              		.loc 9 342 24 view .LVU498
 2167 0110 67EE885A 		vmul.f32	s11, s15, s16
 351:../../libDaisy//src/hid/disp/display.h ****                     d2 = (t_sxy - t_syx < 0 || t_exy - t_eyx > 0);
 2168              		.loc 9 351 33 view .LVU499
 2169 0114 74EEC43A 		vsub.f32	s7, s9, s8
 341:../../libDaisy//src/hid/disp/display.h ****                 t_sxny = start_x * -t_y;
 2170              		.loc 9 341 24 view .LVU500
 2171 0118 26EEA85A 		vmul.f32	s10, s13, s17
 2172              	.LVL153:
 344:../../libDaisy//src/hid/disp/display.h ****                 t_eyx  = end_y * t_x;
 2173              		.loc 9 344 24 view .LVU501
 2174 011c 26EE096A 		vmul.f32	s12, s12, s18
 2175              	.LVL154:
 345:../../libDaisy//src/hid/disp/display.h ****                 t_exny = end_x * -t_y;
 2176              		.loc 9 345 24 view .LVU502
 2177 0120 66EE806A 		vmul.f32	s13, s13, s0
 2178              	.LVL155:
 346:../../libDaisy//src/hid/disp/display.h ****                 t_eynx = end_y * -t_x;
 2179              		.loc 9 346 24 view .LVU503
 2180 0124 67EE897A 		vmul.f32	s15, s15, s18
 2181              	.LVL156:
 347:../../libDaisy//src/hid/disp/display.h **** 
 2182              		.loc 9 347 24 view .LVU504
 2183 0128 27EE007A 		vmul.f32	s14, s14, s0
ARM GAS  /var/folders/hl/qgbwny5j0fd895c2c41bk3tw0000gp/T//ccRMOALe.s 			page 81


 2184              	.LVL157:
 351:../../libDaisy//src/hid/disp/display.h ****                     d2 = (t_sxy - t_syx < 0 || t_exy - t_eyx > 0);
 2185              		.loc 9 351 46 view .LVU505
 2186 012c F5EEC03A 		vcmpe.f32	s7, #0
 349:../../libDaisy//src/hid/disp/display.h ****                 {
 2187              		.loc 9 349 17 view .LVU506
 2188 0130 40F3F280 		ble	.L151
 351:../../libDaisy//src/hid/disp/display.h ****                     d2 = (t_sxy - t_syx < 0 || t_exy - t_eyx > 0);
 2189              		.loc 9 351 46 view .LVU507
 2190 0134 F1EE10FA 		vmrs	APSR_nzcv, FPSCR
 2191 0138 00F17F81 		bmi	.L177
 351:../../libDaisy//src/hid/disp/display.h ****                     d2 = (t_sxy - t_syx < 0 || t_exy - t_eyx > 0);
 2192              		.loc 9 351 55 discriminator 2 view .LVU508
 2193 013c 76EE473A 		vsub.f32	s7, s12, s14
 352:../../libDaisy//src/hid/disp/display.h ****                     d3 = (t_sxny - t_syx < 0 || t_exny - t_eyx > 0);
 2194              		.loc 9 352 33 discriminator 2 view .LVU509
 2195 0140 74EEC54A 		vsub.f32	s9, s9, s10
 2196              	.LVL158:
 351:../../libDaisy//src/hid/disp/display.h ****                     d2 = (t_sxy - t_syx < 0 || t_exy - t_eyx > 0);
 2197              		.loc 9 351 46 discriminator 2 view .LVU510
 2198 0144 F5EEC03A 		vcmpe.f32	s7, #0
 2199 0148 F1EE10FA 		vmrs	APSR_nzcv, FPSCR
 352:../../libDaisy//src/hid/disp/display.h ****                     d3 = (t_sxny - t_syx < 0 || t_exny - t_eyx > 0);
 2200              		.loc 9 352 45 discriminator 2 view .LVU511
 2201 014c F5EEC04A 		vcmpe.f32	s9, #0
 351:../../libDaisy//src/hid/disp/display.h ****                     d2 = (t_sxy - t_syx < 0 || t_exy - t_eyx > 0);
 2202              		.loc 9 351 46 discriminator 2 view .LVU512
 2203 0150 CCBF     		ite	gt
 2204 0152 0122     		movgt	r2, #1
 2205 0154 0022     		movle	r2, #0
 2206              	.LVL159:
 352:../../libDaisy//src/hid/disp/display.h ****                     d3 = (t_sxny - t_syx < 0 || t_exny - t_eyx > 0);
 2207              		.loc 9 352 45 discriminator 2 view .LVU513
 2208 0156 F1EE10FA 		vmrs	APSR_nzcv, FPSCR
 2209 015a 00F17781 		bmi	.L178
 2210              	.L220:
 352:../../libDaisy//src/hid/disp/display.h ****                     d3 = (t_sxny - t_syx < 0 || t_exny - t_eyx > 0);
 2211              		.loc 9 352 54 discriminator 2 view .LVU514
 2212 015e 36EE666A 		vsub.f32	s12, s12, s13
 2213              	.LVL160:
 353:../../libDaisy//src/hid/disp/display.h ****                     d4 = (t_sxny - t_synx < 0 || t_exny - t_eynx > 0);
 2214              		.loc 9 353 34 discriminator 2 view .LVU515
 2215 0162 35EEC55A 		vsub.f32	s10, s11, s10
 2216              	.LVL161:
 352:../../libDaisy//src/hid/disp/display.h ****                     d3 = (t_sxny - t_syx < 0 || t_exny - t_eyx > 0);
 2217              		.loc 9 352 45 discriminator 2 view .LVU516
 2218 0166 B5EEC06A 		vcmpe.f32	s12, #0
 2219 016a F1EE10FA 		vmrs	APSR_nzcv, FPSCR
 353:../../libDaisy//src/hid/disp/display.h ****                     d4 = (t_sxny - t_synx < 0 || t_exny - t_eynx > 0);
 2220              		.loc 9 353 46 discriminator 2 view .LVU517
 2221 016e B5EEC05A 		vcmpe.f32	s10, #0
 352:../../libDaisy//src/hid/disp/display.h ****                     d3 = (t_sxny - t_syx < 0 || t_exny - t_eyx > 0);
 2222              		.loc 9 352 45 discriminator 2 view .LVU518
 2223 0172 CCBF     		ite	gt
 2224 0174 0121     		movgt	r1, #1
 2225 0176 0021     		movle	r1, #0
 2226              	.LVL162:
ARM GAS  /var/folders/hl/qgbwny5j0fd895c2c41bk3tw0000gp/T//ccRMOALe.s 			page 82


 353:../../libDaisy//src/hid/disp/display.h ****                     d4 = (t_sxny - t_synx < 0 || t_exny - t_eynx > 0);
 2227              		.loc 9 353 46 discriminator 2 view .LVU519
 2228 0178 F1EE10FA 		vmrs	APSR_nzcv, FPSCR
 2229 017c 00F16F81 		bmi	.L179
 2230              	.L221:
 353:../../libDaisy//src/hid/disp/display.h ****                     d4 = (t_sxny - t_synx < 0 || t_exny - t_eynx > 0);
 2231              		.loc 9 353 56 discriminator 2 view .LVU520
 2232 0180 77EEE66A 		vsub.f32	s13, s15, s13
 2233              	.LVL163:
 353:../../libDaisy//src/hid/disp/display.h ****                     d4 = (t_sxny - t_synx < 0 || t_exny - t_eynx > 0);
 2234              		.loc 9 353 46 discriminator 2 view .LVU521
 2235 0184 F5EEC06A 		vcmpe.f32	s13, #0
 2236 0188 F1EE10FA 		vmrs	APSR_nzcv, FPSCR
 2237 018c CCBF     		ite	gt
 2238 018e 0127     		movgt	r7, #1
 2239              	.LVL164:
 353:../../libDaisy//src/hid/disp/display.h ****                     d4 = (t_sxny - t_synx < 0 || t_exny - t_eynx > 0);
 2240              		.loc 9 353 46 discriminator 2 view .LVU522
 2241 0190 0027     		movle	r7, #0
 2242              	.L154:
 2243              	.LVL165:
 354:../../libDaisy//src/hid/disp/display.h ****                 }
 2244              		.loc 9 354 34 discriminator 6 view .LVU523
 2245 0192 75EEC45A 		vsub.f32	s11, s11, s8
 2246              	.LVL166:
 354:../../libDaisy//src/hid/disp/display.h ****                 }
 2247              		.loc 9 354 47 discriminator 6 view .LVU524
 2248 0196 F5EEC05A 		vcmpe.f32	s11, #0
 2249 019a F1EE10FA 		vmrs	APSR_nzcv, FPSCR
 2250 019e 00F14781 		bmi	.L180
 2251              	.L210:
 361:../../libDaisy//src/hid/disp/display.h ****                 }
 2252              		.loc 9 361 57 discriminator 1 view .LVU525
 2253 01a2 77EEC77A 		vsub.f32	s15, s15, s14
 2254              	.LVL167:
 361:../../libDaisy//src/hid/disp/display.h ****                 }
 2255              		.loc 9 361 47 discriminator 1 view .LVU526
 2256 01a6 F5EEC07A 		vcmpe.f32	s15, #0
 2257 01aa F1EE10FA 		vmrs	APSR_nzcv, FPSCR
 2258 01ae CCBF     		ite	gt
 2259 01b0 0124     		movgt	r4, #1
 2260              	.LVL168:
 361:../../libDaisy//src/hid/disp/display.h ****                 }
 2261              		.loc 9 361 47 discriminator 1 view .LVU527
 2262 01b2 0024     		movle	r4, #0
 2263              	.LVL169:
 2264              	.L150:
 365:../../libDaisy//src/hid/disp/display.h ****                 ((ChildType*)(this))
 2265              		.loc 9 365 13 view .LVU528
 2266 01b4 002A     		cmp	r2, #0
 2267 01b6 40F08A80 		bne	.L211
 2268              	.L162:
 368:../../libDaisy//src/hid/disp/display.h ****                 ((ChildType*)(this))
 2269              		.loc 9 368 13 view .LVU529
 2270 01ba 0029     		cmp	r1, #0
 2271 01bc 64D1     		bne	.L212
 2272              	.L164:
ARM GAS  /var/folders/hl/qgbwny5j0fd895c2c41bk3tw0000gp/T//ccRMOALe.s 			page 83


 371:../../libDaisy//src/hid/disp/display.h ****                 ((ChildType*)(this))
 2273              		.loc 9 371 13 view .LVU530
 2274 01be BFB9     		cbnz	r7, .L213
 2275              	.L166:
 374:../../libDaisy//src/hid/disp/display.h ****                 ((ChildType*)(this))
 2276              		.loc 9 374 13 view .LVU531
 2277 01c0 C4BB     		cbnz	r4, .L214
 2278              	.L168:
 2279              	.LVL170:
 379:../../libDaisy//src/hid/disp/display.h ****             {
 2280              		.loc 9 379 13 view .LVU532
 2281 01c2 9C45     		cmp	ip, r3
 2282 01c4 58DB     		blt	.L185
 2283              	.L216:
 381:../../libDaisy//src/hid/disp/display.h ****                 err = err + (t_y * 2 + 1);
 2284              		.loc 9 381 17 view .LVU533
 2285 01c6 0CF1010C 		add	ip, ip, #1
 2286              	.LVL171:
 382:../../libDaisy//src/hid/disp/display.h ****                 if(-t_x == t_y && e2 <= t_x)
 2287              		.loc 9 382 38 view .LVU534
 2288 01ca 03EB4C0E 		add	lr, r3, ip, lsl #1
 383:../../libDaisy//src/hid/disp/display.h ****                 {
 2289              		.loc 9 383 17 view .LVU535
 2290 01ce 1CEB000F 		cmn	ip, r0
 382:../../libDaisy//src/hid/disp/display.h ****                 if(-t_x == t_y && e2 <= t_x)
 2291              		.loc 9 382 21 view .LVU536
 2292 01d2 0EF1010E 		add	lr, lr, #1
 2293              	.LVL172:
 383:../../libDaisy//src/hid/disp/display.h ****                 {
 2294              		.loc 9 383 17 view .LVU537
 2295 01d6 00F0C080 		beq	.L215
 2296              	.LVL173:
 2297              	.L170:
 388:../../libDaisy//src/hid/disp/display.h ****             {
 2298              		.loc 9 388 13 view .LVU538
 2299 01da 9842     		cmp	r0, r3
 2300 01dc 4FDB     		blt	.L171
 2301              	.L186:
 388:../../libDaisy//src/hid/disp/display.h ****             {
 2302              		.loc 9 388 13 view .LVU539
 2303 01de 7346     		mov	r3, lr
 2304              	.LVL174:
 2305              	.L172:
 393:../../libDaisy//src/hid/disp/display.h ****     }
 2306              		.loc 9 393 21 is_stmt 1 view .LVU540
 2307 01e0 0028     		cmp	r0, #0
 2308 01e2 7FF779AF 		ble	.L174
 2309              	.LVL175:
 2310              	.L145:
 394:../../libDaisy//src/hid/disp/display.h **** 
 2311              		.loc 9 394 5 is_stmt 0 view .LVU541
 2312 01e6 03B0     		add	sp, sp, #12
 2313              		.cfi_remember_state
 2314              		.cfi_def_cfa_offset 60
 2315              		@ sp needed
 2316 01e8 BDEC068B 		vldm	sp!, {d8-d10}
 2317              		.cfi_restore 84
ARM GAS  /var/folders/hl/qgbwny5j0fd895c2c41bk3tw0000gp/T//ccRMOALe.s 			page 84


 2318              		.cfi_restore 85
 2319              		.cfi_restore 82
 2320              		.cfi_restore 83
 2321              		.cfi_restore 80
 2322              		.cfi_restore 81
 2323              		.cfi_def_cfa_offset 36
 2324              	.LVL176:
 394:../../libDaisy//src/hid/disp/display.h **** 
 2325              		.loc 9 394 5 view .LVU542
 2326 01ec BDE8F08F 		pop	{r4, r5, r6, r7, r8, r9, r10, fp, pc}
 2327              	.LVL177:
 2328              	.L213:
 2329              		.cfi_restore_state
 373:../../libDaisy//src/hid/disp/display.h ****             if(d4)
 2330              		.loc 9 373 43 view .LVU543
 2331 01f0 009D     		ldr	r5, [sp]
 2332 01f2 A6EB0C0E 		sub	lr, r6, ip
 2333 01f6 00EB050A 		add	r10, r0, r5
 2334              	.LVL178:
 2335              	.LBB737:
 2336              	.LBI737:
  42:../../libDaisy//src/hid/disp/oled_display.h ****     {
 2337              		.loc 8 42 10 is_stmt 1 view .LVU544
 2338              	.LBB738:
 2339              	.LBI738:
 352:../../libDaisy//src/dev/oled_ssd130x.h ****     {
 2340              		.loc 10 352 10 view .LVU545
 2341              	.LBB739:
 354:../../libDaisy//src/dev/oled_ssd130x.h ****             return;
 2342              		.loc 10 354 9 is_stmt 0 view .LVU546
 2343 01fa BAF17F0F 		cmp	r10, #127
 2344 01fe DFD8     		bhi	.L166
 2345 0200 BEF13F0F 		cmp	lr, #63
 2346 0204 DCD8     		bhi	.L166
 357:../../libDaisy//src/dev/oled_ssd130x.h ****         else
 2347              		.loc 10 357 28 view .LVU547
 2348 0206 4FEADE0B 		lsr	fp, lr, #3
 356:../../libDaisy//src/dev/oled_ssd130x.h ****             buffer_[x + (y / 8) * width] |= (1 << (y % 8));
 2349              		.loc 10 356 9 view .LVU548
 2350 020a 019D     		ldr	r5, [sp, #4]
 357:../../libDaisy//src/dev/oled_ssd130x.h ****         else
 2351              		.loc 10 357 42 view .LVU549
 2352 020c 0AEBCB1A 		add	r10, r10, fp, lsl #7
 2353              	.LVL179:
 356:../../libDaisy//src/dev/oled_ssd130x.h ****             buffer_[x + (y / 8) * width] |= (1 << (y % 8));
 2354              		.loc 10 356 9 view .LVU550
 2355 0210 002D     		cmp	r5, #0
 2356 0212 00F0B180 		beq	.L167
 357:../../libDaisy//src/dev/oled_ssd130x.h ****         else
 2357              		.loc 10 357 54 view .LVU551
 2358 0216 0EF0070B 		and	fp, lr, #7
 357:../../libDaisy//src/dev/oled_ssd130x.h ****         else
 2359              		.loc 10 357 42 view .LVU552
 2360 021a C244     		add	r10, r10, r8
 357:../../libDaisy//src/dev/oled_ssd130x.h ****         else
 2361              		.loc 10 357 48 view .LVU553
 2362 021c 4FF0010E 		mov	lr, #1
ARM GAS  /var/folders/hl/qgbwny5j0fd895c2c41bk3tw0000gp/T//ccRMOALe.s 			page 85


 2363              	.LVL180:
 357:../../libDaisy//src/dev/oled_ssd130x.h ****         else
 2364              		.loc 10 357 48 view .LVU554
 2365 0220 0EFA0BFE 		lsl	lr, lr, fp
 357:../../libDaisy//src/dev/oled_ssd130x.h ****         else
 2366              		.loc 10 357 42 view .LVU555
 2367 0224 9AF810B0 		ldrb	fp, [r10, #16]	@ zero_extendqisi2
 2368 0228 4EEA0B0E 		orr	lr, lr, fp
 2369 022c 8AF810E0 		strb	lr, [r10, #16]
 2370              	.LVL181:
 357:../../libDaisy//src/dev/oled_ssd130x.h ****         else
 2371              		.loc 10 357 42 view .LVU556
 2372              	.LBE739:
 2373              	.LBE738:
 2374              	.LBE737:
 374:../../libDaisy//src/hid/disp/display.h ****                 ((ChildType*)(this))
 2375              		.loc 9 374 13 view .LVU557
 2376 0230 002C     		cmp	r4, #0
 2377 0232 C6D0     		beq	.L168
 2378              	.L214:
 376:../../libDaisy//src/hid/disp/display.h **** 
 2379              		.loc 9 376 43 view .LVU558
 2380 0234 009D     		ldr	r5, [sp]
 2381 0236 A6EB0C0E 		sub	lr, r6, ip
 2382 023a A5EB000A 		sub	r10, r5, r0
 2383              	.LVL182:
 2384              	.LBB744:
 2385              	.LBI744:
  42:../../libDaisy//src/hid/disp/oled_display.h ****     {
 2386              		.loc 8 42 10 is_stmt 1 view .LVU559
 2387              	.LBB745:
 2388              	.LBI745:
 352:../../libDaisy//src/dev/oled_ssd130x.h ****     {
 2389              		.loc 10 352 10 view .LVU560
 2390              	.LBB746:
 354:../../libDaisy//src/dev/oled_ssd130x.h ****             return;
 2391              		.loc 10 354 9 is_stmt 0 view .LVU561
 2392 023e BAF17F0F 		cmp	r10, #127
 2393 0242 BED8     		bhi	.L168
 2394 0244 BEF13F0F 		cmp	lr, #63
 2395 0248 BBD8     		bhi	.L168
 357:../../libDaisy//src/dev/oled_ssd130x.h ****         else
 2396              		.loc 10 357 28 view .LVU562
 2397 024a 4FEADE0B 		lsr	fp, lr, #3
 356:../../libDaisy//src/dev/oled_ssd130x.h ****             buffer_[x + (y / 8) * width] |= (1 << (y % 8));
 2398              		.loc 10 356 9 view .LVU563
 2399 024e 019D     		ldr	r5, [sp, #4]
 357:../../libDaisy//src/dev/oled_ssd130x.h ****         else
 2400              		.loc 10 357 42 view .LVU564
 2401 0250 0AEBCB1A 		add	r10, r10, fp, lsl #7
 2402              	.LVL183:
 356:../../libDaisy//src/dev/oled_ssd130x.h ****             buffer_[x + (y / 8) * width] |= (1 << (y % 8));
 2403              		.loc 10 356 9 view .LVU565
 2404 0254 002D     		cmp	r5, #0
 2405 0256 00F0AE80 		beq	.L169
 357:../../libDaisy//src/dev/oled_ssd130x.h ****         else
 2406              		.loc 10 357 54 view .LVU566
ARM GAS  /var/folders/hl/qgbwny5j0fd895c2c41bk3tw0000gp/T//ccRMOALe.s 			page 86


 2407 025a 0EF0070B 		and	fp, lr, #7
 357:../../libDaisy//src/dev/oled_ssd130x.h ****         else
 2408              		.loc 10 357 42 view .LVU567
 2409 025e C244     		add	r10, r10, r8
 357:../../libDaisy//src/dev/oled_ssd130x.h ****         else
 2410              		.loc 10 357 48 view .LVU568
 2411 0260 4FF0010E 		mov	lr, #1
 2412              	.LVL184:
 357:../../libDaisy//src/dev/oled_ssd130x.h ****         else
 2413              		.loc 10 357 48 view .LVU569
 2414              	.LBE746:
 2415              	.LBE745:
 2416              	.LBE744:
 379:../../libDaisy//src/hid/disp/display.h ****             {
 2417              		.loc 9 379 13 view .LVU570
 2418 0264 9C45     		cmp	ip, r3
 2419              	.LBB753:
 2420              	.LBB751:
 2421              	.LBB749:
 357:../../libDaisy//src/dev/oled_ssd130x.h ****         else
 2422              		.loc 10 357 48 view .LVU571
 2423 0266 0EFA0BFE 		lsl	lr, lr, fp
 357:../../libDaisy//src/dev/oled_ssd130x.h ****         else
 2424              		.loc 10 357 42 view .LVU572
 2425 026a 9AF810B0 		ldrb	fp, [r10, #16]	@ zero_extendqisi2
 2426 026e 4EEA0B0E 		orr	lr, lr, fp
 2427 0272 8AF810E0 		strb	lr, [r10, #16]
 2428              	.LVL185:
 357:../../libDaisy//src/dev/oled_ssd130x.h ****         else
 2429              		.loc 10 357 42 view .LVU573
 2430              	.LBE749:
 2431              	.LBE751:
 2432              	.LBE753:
 379:../../libDaisy//src/hid/disp/display.h ****             {
 2433              		.loc 9 379 13 view .LVU574
 2434 0276 A6DA     		bge	.L216
 2435              	.L185:
 388:../../libDaisy//src/hid/disp/display.h ****             {
 2436              		.loc 9 388 13 view .LVU575
 2437 0278 9842     		cmp	r0, r3
 2438 027a 9E46     		mov	lr, r3
 2439              	.LVL186:
 388:../../libDaisy//src/hid/disp/display.h ****             {
 2440              		.loc 9 388 13 view .LVU576
 2441 027c AFDA     		bge	.L186
 2442              	.LVL187:
 2443              	.L171:
 390:../../libDaisy//src/hid/disp/display.h ****                 err = err + (t_x * 2 + 1);
 2444              		.loc 9 390 17 view .LVU577
 2445 027e 0130     		adds	r0, r0, #1
 2446              	.LVL188:
 391:../../libDaisy//src/hid/disp/display.h ****             }
 2447              		.loc 9 391 38 view .LVU578
 2448 0280 0EEB4003 		add	r3, lr, r0, lsl #1
 391:../../libDaisy//src/hid/disp/display.h ****             }
 2449              		.loc 9 391 21 view .LVU579
 2450 0284 0133     		adds	r3, r3, #1
ARM GAS  /var/folders/hl/qgbwny5j0fd895c2c41bk3tw0000gp/T//ccRMOALe.s 			page 87


 2451              	.LVL189:
 391:../../libDaisy//src/hid/disp/display.h ****             }
 2452              		.loc 9 391 21 view .LVU580
 2453 0286 ABE7     		b	.L172
 2454              	.L212:
 370:../../libDaisy//src/hid/disp/display.h ****             if(d3)
 2455              		.loc 9 370 43 view .LVU581
 2456 0288 009D     		ldr	r5, [sp]
 2457 028a 0CEB060E 		add	lr, ip, r6
 2458 028e 00EB050A 		add	r10, r0, r5
 2459              	.LVL190:
 2460              	.LBB754:
 2461              	.LBI754:
  42:../../libDaisy//src/hid/disp/oled_display.h ****     {
 2462              		.loc 8 42 10 is_stmt 1 view .LVU582
 2463              	.LBB755:
 2464              	.LBI755:
 352:../../libDaisy//src/dev/oled_ssd130x.h ****     {
 2465              		.loc 10 352 10 view .LVU583
 2466              	.LBB756:
 354:../../libDaisy//src/dev/oled_ssd130x.h ****             return;
 2467              		.loc 10 354 9 is_stmt 0 view .LVU584
 2468 0292 BAF17F0F 		cmp	r10, #127
 2469 0296 92D8     		bhi	.L164
 2470 0298 BEF13F0F 		cmp	lr, #63
 2471 029c 8FD8     		bhi	.L164
 357:../../libDaisy//src/dev/oled_ssd130x.h ****         else
 2472              		.loc 10 357 28 view .LVU585
 2473 029e 4FEADE0B 		lsr	fp, lr, #3
 356:../../libDaisy//src/dev/oled_ssd130x.h ****             buffer_[x + (y / 8) * width] |= (1 << (y % 8));
 2474              		.loc 10 356 9 view .LVU586
 2475 02a2 019D     		ldr	r5, [sp, #4]
 357:../../libDaisy//src/dev/oled_ssd130x.h ****         else
 2476              		.loc 10 357 42 view .LVU587
 2477 02a4 0AEBCB1A 		add	r10, r10, fp, lsl #7
 2478              	.LVL191:
 356:../../libDaisy//src/dev/oled_ssd130x.h ****             buffer_[x + (y / 8) * width] |= (1 << (y % 8));
 2479              		.loc 10 356 9 view .LVU588
 2480 02a8 002D     		cmp	r5, #0
 2481 02aa 73D0     		beq	.L165
 357:../../libDaisy//src/dev/oled_ssd130x.h ****         else
 2482              		.loc 10 357 54 view .LVU589
 2483 02ac 0EF0070B 		and	fp, lr, #7
 357:../../libDaisy//src/dev/oled_ssd130x.h ****         else
 2484              		.loc 10 357 42 view .LVU590
 2485 02b0 C244     		add	r10, r10, r8
 357:../../libDaisy//src/dev/oled_ssd130x.h ****         else
 2486              		.loc 10 357 48 view .LVU591
 2487 02b2 4FF0010E 		mov	lr, #1
 2488              	.LVL192:
 357:../../libDaisy//src/dev/oled_ssd130x.h ****         else
 2489              		.loc 10 357 48 view .LVU592
 2490 02b6 0EFA0BFE 		lsl	lr, lr, fp
 357:../../libDaisy//src/dev/oled_ssd130x.h ****         else
 2491              		.loc 10 357 42 view .LVU593
 2492 02ba 9AF810B0 		ldrb	fp, [r10, #16]	@ zero_extendqisi2
 2493 02be 4EEA0B0E 		orr	lr, lr, fp
ARM GAS  /var/folders/hl/qgbwny5j0fd895c2c41bk3tw0000gp/T//ccRMOALe.s 			page 88


 2494 02c2 8AF810E0 		strb	lr, [r10, #16]
 2495              	.LVL193:
 357:../../libDaisy//src/dev/oled_ssd130x.h ****         else
 2496              		.loc 10 357 42 view .LVU594
 2497              	.LBE756:
 2498              	.LBE755:
 2499              	.LBE754:
 371:../../libDaisy//src/hid/disp/display.h ****                 ((ChildType*)(this))
 2500              		.loc 9 371 13 view .LVU595
 2501 02c6 002F     		cmp	r7, #0
 2502 02c8 3FF47AAF 		beq	.L166
 2503 02cc 90E7     		b	.L213
 2504              	.L211:
 367:../../libDaisy//src/hid/disp/display.h ****             if(d2)
 2505              		.loc 9 367 43 view .LVU596
 2506 02ce 009D     		ldr	r5, [sp]
 2507 02d0 0CEB060E 		add	lr, ip, r6
 2508 02d4 A5EB000A 		sub	r10, r5, r0
 2509              	.LVL194:
 2510              	.LBB761:
 2511              	.LBI761:
  42:../../libDaisy//src/hid/disp/oled_display.h ****     {
 2512              		.loc 8 42 10 is_stmt 1 view .LVU597
 2513              	.LBB762:
 2514              	.LBI762:
 352:../../libDaisy//src/dev/oled_ssd130x.h ****     {
 2515              		.loc 10 352 10 view .LVU598
 2516              	.LBB763:
 354:../../libDaisy//src/dev/oled_ssd130x.h ****             return;
 2517              		.loc 10 354 9 is_stmt 0 view .LVU599
 2518 02d8 BAF17F0F 		cmp	r10, #127
 2519 02dc 3FF66DAF 		bhi	.L162
 2520 02e0 BEF13F0F 		cmp	lr, #63
 2521 02e4 3FF669AF 		bhi	.L162
 357:../../libDaisy//src/dev/oled_ssd130x.h ****         else
 2522              		.loc 10 357 28 view .LVU600
 2523 02e8 4FEADE0B 		lsr	fp, lr, #3
 356:../../libDaisy//src/dev/oled_ssd130x.h ****             buffer_[x + (y / 8) * width] |= (1 << (y % 8));
 2524              		.loc 10 356 9 view .LVU601
 2525 02ec 019D     		ldr	r5, [sp, #4]
 357:../../libDaisy//src/dev/oled_ssd130x.h ****         else
 2526              		.loc 10 357 42 view .LVU602
 2527 02ee 0AEBCB1A 		add	r10, r10, fp, lsl #7
 2528              	.LVL195:
 356:../../libDaisy//src/dev/oled_ssd130x.h ****             buffer_[x + (y / 8) * width] |= (1 << (y % 8));
 2529              		.loc 10 356 9 view .LVU603
 2530 02f2 002D     		cmp	r5, #0
 2531 02f4 6DD0     		beq	.L163
 357:../../libDaisy//src/dev/oled_ssd130x.h ****         else
 2532              		.loc 10 357 54 view .LVU604
 2533 02f6 0EF0070B 		and	fp, lr, #7
 357:../../libDaisy//src/dev/oled_ssd130x.h ****         else
 2534              		.loc 10 357 42 view .LVU605
 2535 02fa C244     		add	r10, r10, r8
 357:../../libDaisy//src/dev/oled_ssd130x.h ****         else
 2536              		.loc 10 357 48 view .LVU606
 2537 02fc 4FF0010E 		mov	lr, #1
ARM GAS  /var/folders/hl/qgbwny5j0fd895c2c41bk3tw0000gp/T//ccRMOALe.s 			page 89


 2538              	.LVL196:
 357:../../libDaisy//src/dev/oled_ssd130x.h ****         else
 2539              		.loc 10 357 48 view .LVU607
 2540 0300 0EFA0BFE 		lsl	lr, lr, fp
 357:../../libDaisy//src/dev/oled_ssd130x.h ****         else
 2541              		.loc 10 357 42 view .LVU608
 2542 0304 9AF810B0 		ldrb	fp, [r10, #16]	@ zero_extendqisi2
 2543 0308 4EEA0B0E 		orr	lr, lr, fp
 2544 030c 8AF810E0 		strb	lr, [r10, #16]
 2545              	.LVL197:
 357:../../libDaisy//src/dev/oled_ssd130x.h ****         else
 2546              		.loc 10 357 42 view .LVU609
 2547              	.LBE763:
 2548              	.LBE762:
 2549              	.LBE761:
 368:../../libDaisy//src/hid/disp/display.h ****                 ((ChildType*)(this))
 2550              		.loc 9 368 13 view .LVU610
 2551 0310 0029     		cmp	r1, #0
 2552 0312 3FF454AF 		beq	.L164
 2553 0316 B7E7     		b	.L212
 2554              	.LVL198:
 2555              	.L151:
 358:../../libDaisy//src/hid/disp/display.h ****                     d2 = (t_sxy - t_syx < 0 && t_exy - t_eyx > 0);
 2556              		.loc 9 358 46 view .LVU611
 2557 0318 F1EE10FA 		vmrs	APSR_nzcv, FPSCR
 2558 031c 7ED4     		bmi	.L217
 2559 031e 4A46     		mov	r2, r9
 2560              	.L155:
 2561              	.LVL199:
 359:../../libDaisy//src/hid/disp/display.h ****                     d3 = (t_sxny - t_syx < 0 && t_exny - t_eyx > 0);
 2562              		.loc 9 359 33 discriminator 6 view .LVU612
 2563 0320 74EEC54A 		vsub.f32	s9, s9, s10
 2564              	.LVL200:
 359:../../libDaisy//src/hid/disp/display.h ****                     d3 = (t_sxny - t_syx < 0 && t_exny - t_eyx > 0);
 2565              		.loc 9 359 45 discriminator 6 view .LVU613
 2566 0324 F5EEC04A 		vcmpe.f32	s9, #0
 2567 0328 F1EE10FA 		vmrs	APSR_nzcv, FPSCR
 2568 032c 6CD4     		bmi	.L218
 359:../../libDaisy//src/hid/disp/display.h ****                     d3 = (t_sxny - t_syx < 0 && t_exny - t_eyx > 0);
 2569              		.loc 9 359 45 view .LVU614
 2570 032e 0021     		movs	r1, #0
 2571              	.LVL201:
 2572              	.L157:
 360:../../libDaisy//src/hid/disp/display.h ****                     d4 = (t_sxny - t_synx < 0 && t_exny - t_eynx > 0);
 2573              		.loc 9 360 34 discriminator 6 view .LVU615
 2574 0330 35EEC55A 		vsub.f32	s10, s11, s10
 2575              	.LVL202:
 360:../../libDaisy//src/hid/disp/display.h ****                     d4 = (t_sxny - t_synx < 0 && t_exny - t_eynx > 0);
 2576              		.loc 9 360 46 discriminator 6 view .LVU616
 2577 0334 B5EEC05A 		vcmpe.f32	s10, #0
 2578 0338 F1EE10FA 		vmrs	APSR_nzcv, FPSCR
 2579 033c 5AD4     		bmi	.L219
 360:../../libDaisy//src/hid/disp/display.h ****                     d4 = (t_sxny - t_synx < 0 && t_exny - t_eynx > 0);
 2580              		.loc 9 360 46 view .LVU617
 2581 033e 0027     		movs	r7, #0
 2582              	.LVL203:
 2583              	.L159:
ARM GAS  /var/folders/hl/qgbwny5j0fd895c2c41bk3tw0000gp/T//ccRMOALe.s 			page 90


 361:../../libDaisy//src/hid/disp/display.h ****                 }
 2584              		.loc 9 361 34 discriminator 6 view .LVU618
 2585 0340 75EEC45A 		vsub.f32	s11, s11, s8
 2586              	.LVL204:
 361:../../libDaisy//src/hid/disp/display.h ****                 }
 2587              		.loc 9 361 47 discriminator 6 view .LVU619
 2588 0344 F5EEC05A 		vcmpe.f32	s11, #0
 2589 0348 F1EE10FA 		vmrs	APSR_nzcv, FPSCR
 2590 034c 3FF529AF 		bmi	.L210
 361:../../libDaisy//src/hid/disp/display.h ****                 }
 2591              		.loc 9 361 47 view .LVU620
 2592 0350 0024     		movs	r4, #0
 2593              	.LVL205:
 365:../../libDaisy//src/hid/disp/display.h ****                 ((ChildType*)(this))
 2594              		.loc 9 365 13 view .LVU621
 2595 0352 002A     		cmp	r2, #0
 2596 0354 3FF431AF 		beq	.L162
 2597 0358 B9E7     		b	.L211
 2598              	.LVL206:
 2599              	.L215:
 383:../../libDaisy//src/hid/disp/display.h ****                 {
 2600              		.loc 9 383 32 discriminator 1 view .LVU622
 2601 035a 9842     		cmp	r0, r3
 2602 035c 8FDB     		blt	.L171
 385:../../libDaisy//src/hid/disp/display.h ****                 }
 2603              		.loc 9 385 24 view .LVU623
 2604 035e 0023     		movs	r3, #0
 2605              	.LVL207:
 385:../../libDaisy//src/hid/disp/display.h ****                 }
 2606              		.loc 9 385 24 view .LVU624
 2607 0360 3BE7     		b	.L170
 2608              	.L223:
 2609 0362 00BFAFF3 		.align	3
 2609      0080
 2610              	.L222:
 2611 0368 7A008BFC 		.word	-57999238
 2612 036c FA210940 		.word	1074340346
 2613 0370 00000000 		.word	0
 2614 0374 00806640 		.word	1080459264
 2615              	.LVL208:
 2616              	.L167:
 2617              	.LBB768:
 2618              	.LBB743:
 2619              	.LBB742:
 2620              	.LBB740:
 2621              	.LBI740:
 352:../../libDaisy//src/dev/oled_ssd130x.h ****     {
 2622              		.loc 10 352 10 is_stmt 1 view .LVU625
 2623              	.LBB741:
 359:../../libDaisy//src/dev/oled_ssd130x.h ****     }
 2624              		.loc 10 359 42 is_stmt 0 view .LVU626
 2625 0378 C244     		add	r10, r10, r8
 2626              	.LVL209:
 359:../../libDaisy//src/dev/oled_ssd130x.h ****     }
 2627              		.loc 10 359 49 view .LVU627
 2628 037a 4FF0010B 		mov	fp, #1
 2629              	.LVL210:
ARM GAS  /var/folders/hl/qgbwny5j0fd895c2c41bk3tw0000gp/T//ccRMOALe.s 			page 91


 359:../../libDaisy//src/dev/oled_ssd130x.h ****     }
 2630              		.loc 10 359 55 view .LVU628
 2631 037e 0EF0070E 		and	lr, lr, #7
 2632              	.LVL211:
 359:../../libDaisy//src/dev/oled_ssd130x.h ****     }
 2633              		.loc 10 359 49 view .LVU629
 2634 0382 0BFA0EFE 		lsl	lr, fp, lr
 359:../../libDaisy//src/dev/oled_ssd130x.h ****     }
 2635              		.loc 10 359 42 view .LVU630
 2636 0386 9AF810B0 		ldrb	fp, [r10, #16]	@ zero_extendqisi2
 2637 038a 2BEA0E0E 		bic	lr, fp, lr
 2638 038e 8AF810E0 		strb	lr, [r10, #16]
 2639              	.LVL212:
 359:../../libDaisy//src/dev/oled_ssd130x.h ****     }
 2640              		.loc 10 359 42 view .LVU631
 2641 0392 15E7     		b	.L166
 2642              	.LVL213:
 2643              	.L165:
 359:../../libDaisy//src/dev/oled_ssd130x.h ****     }
 2644              		.loc 10 359 42 view .LVU632
 2645              	.LBE741:
 2646              	.LBE740:
 2647              	.LBE742:
 2648              	.LBE743:
 2649              	.LBE768:
 2650              	.LBB769:
 2651              	.LBB760:
 2652              	.LBB759:
 2653              	.LBB757:
 2654              	.LBI757:
 352:../../libDaisy//src/dev/oled_ssd130x.h ****     {
 2655              		.loc 10 352 10 is_stmt 1 view .LVU633
 2656              	.LBB758:
 359:../../libDaisy//src/dev/oled_ssd130x.h ****     }
 2657              		.loc 10 359 42 is_stmt 0 view .LVU634
 2658 0394 C244     		add	r10, r10, r8
 2659              	.LVL214:
 359:../../libDaisy//src/dev/oled_ssd130x.h ****     }
 2660              		.loc 10 359 49 view .LVU635
 2661 0396 4FF0010B 		mov	fp, #1
 2662              	.LVL215:
 359:../../libDaisy//src/dev/oled_ssd130x.h ****     }
 2663              		.loc 10 359 55 view .LVU636
 2664 039a 0EF0070E 		and	lr, lr, #7
 2665              	.LVL216:
 359:../../libDaisy//src/dev/oled_ssd130x.h ****     }
 2666              		.loc 10 359 49 view .LVU637
 2667 039e 0BFA0EFE 		lsl	lr, fp, lr
 359:../../libDaisy//src/dev/oled_ssd130x.h ****     }
 2668              		.loc 10 359 42 view .LVU638
 2669 03a2 9AF810B0 		ldrb	fp, [r10, #16]	@ zero_extendqisi2
 2670 03a6 2BEA0E0E 		bic	lr, fp, lr
 2671 03aa 8AF810E0 		strb	lr, [r10, #16]
 2672              	.LVL217:
 359:../../libDaisy//src/dev/oled_ssd130x.h ****     }
 2673              		.loc 10 359 42 view .LVU639
 2674              	.LBE758:
ARM GAS  /var/folders/hl/qgbwny5j0fd895c2c41bk3tw0000gp/T//ccRMOALe.s 			page 92


 2675              	.LBE757:
 2676              	.LBE759:
 2677              	.LBE760:
 2678              	.LBE769:
 371:../../libDaisy//src/hid/disp/display.h ****                 ((ChildType*)(this))
 2679              		.loc 9 371 13 view .LVU640
 2680 03ae 002F     		cmp	r7, #0
 2681 03b0 3FF406AF 		beq	.L166
 2682 03b4 1CE7     		b	.L213
 2683              	.LVL218:
 2684              	.L169:
 2685              	.LBB770:
 2686              	.LBB752:
 2687              	.LBB750:
 2688              	.LBB747:
 2689              	.LBI747:
 352:../../libDaisy//src/dev/oled_ssd130x.h ****     {
 2690              		.loc 10 352 10 is_stmt 1 view .LVU641
 2691              	.LBB748:
 359:../../libDaisy//src/dev/oled_ssd130x.h ****     }
 2692              		.loc 10 359 42 is_stmt 0 view .LVU642
 2693 03b6 C244     		add	r10, r10, r8
 2694              	.LVL219:
 359:../../libDaisy//src/dev/oled_ssd130x.h ****     }
 2695              		.loc 10 359 49 view .LVU643
 2696 03b8 4FF0010B 		mov	fp, #1
 2697              	.LVL220:
 359:../../libDaisy//src/dev/oled_ssd130x.h ****     }
 2698              		.loc 10 359 55 view .LVU644
 2699 03bc 0EF0070E 		and	lr, lr, #7
 2700              	.LVL221:
 359:../../libDaisy//src/dev/oled_ssd130x.h ****     }
 2701              		.loc 10 359 49 view .LVU645
 2702 03c0 0BFA0EFE 		lsl	lr, fp, lr
 359:../../libDaisy//src/dev/oled_ssd130x.h ****     }
 2703              		.loc 10 359 42 view .LVU646
 2704 03c4 9AF810B0 		ldrb	fp, [r10, #16]	@ zero_extendqisi2
 2705 03c8 2BEA0E0E 		bic	lr, fp, lr
 2706 03cc 8AF810E0 		strb	lr, [r10, #16]
 2707              	.LVL222:
 359:../../libDaisy//src/dev/oled_ssd130x.h ****     }
 2708              		.loc 10 359 42 view .LVU647
 2709 03d0 F7E6     		b	.L168
 2710              	.LVL223:
 2711              	.L163:
 359:../../libDaisy//src/dev/oled_ssd130x.h ****     }
 2712              		.loc 10 359 42 view .LVU648
 2713              	.LBE748:
 2714              	.LBE747:
 2715              	.LBE750:
 2716              	.LBE752:
 2717              	.LBE770:
 2718              	.LBB771:
 2719              	.LBB767:
 2720              	.LBB766:
 2721              	.LBB764:
 2722              	.LBI764:
ARM GAS  /var/folders/hl/qgbwny5j0fd895c2c41bk3tw0000gp/T//ccRMOALe.s 			page 93


 352:../../libDaisy//src/dev/oled_ssd130x.h ****     {
 2723              		.loc 10 352 10 is_stmt 1 view .LVU649
 2724              	.LBB765:
 359:../../libDaisy//src/dev/oled_ssd130x.h ****     }
 2725              		.loc 10 359 42 is_stmt 0 view .LVU650
 2726 03d2 C244     		add	r10, r10, r8
 2727              	.LVL224:
 359:../../libDaisy//src/dev/oled_ssd130x.h ****     }
 2728              		.loc 10 359 49 view .LVU651
 2729 03d4 4FF0010B 		mov	fp, #1
 2730              	.LVL225:
 359:../../libDaisy//src/dev/oled_ssd130x.h ****     }
 2731              		.loc 10 359 55 view .LVU652
 2732 03d8 0EF0070E 		and	lr, lr, #7
 2733              	.LVL226:
 359:../../libDaisy//src/dev/oled_ssd130x.h ****     }
 2734              		.loc 10 359 49 view .LVU653
 2735 03dc 0BFA0EFE 		lsl	lr, fp, lr
 359:../../libDaisy//src/dev/oled_ssd130x.h ****     }
 2736              		.loc 10 359 42 view .LVU654
 2737 03e0 9AF810B0 		ldrb	fp, [r10, #16]	@ zero_extendqisi2
 2738 03e4 2BEA0E0E 		bic	lr, fp, lr
 2739 03e8 8AF810E0 		strb	lr, [r10, #16]
 2740              	.LVL227:
 359:../../libDaisy//src/dev/oled_ssd130x.h ****     }
 2741              		.loc 10 359 42 view .LVU655
 2742              	.LBE765:
 2743              	.LBE764:
 2744              	.LBE766:
 2745              	.LBE767:
 2746              	.LBE771:
 368:../../libDaisy//src/hid/disp/display.h ****                 ((ChildType*)(this))
 2747              		.loc 9 368 13 view .LVU656
 2748 03ec 0029     		cmp	r1, #0
 2749 03ee 3FF4E6AE 		beq	.L164
 2750 03f2 49E7     		b	.L212
 2751              	.LVL228:
 2752              	.L219:
 360:../../libDaisy//src/hid/disp/display.h ****                     d4 = (t_sxny - t_synx < 0 && t_exny - t_eynx > 0);
 2753              		.loc 9 360 56 discriminator 1 view .LVU657
 2754 03f4 77EEE66A 		vsub.f32	s13, s15, s13
 2755              	.LVL229:
 360:../../libDaisy//src/hid/disp/display.h ****                     d4 = (t_sxny - t_synx < 0 && t_exny - t_eynx > 0);
 2756              		.loc 9 360 46 discriminator 1 view .LVU658
 2757 03f8 F5EEC06A 		vcmpe.f32	s13, #0
 2758 03fc F1EE10FA 		vmrs	APSR_nzcv, FPSCR
 2759 0400 CCBF     		ite	gt
 2760 0402 0127     		movgt	r7, #1
 2761              	.LVL230:
 360:../../libDaisy//src/hid/disp/display.h ****                     d4 = (t_sxny - t_synx < 0 && t_exny - t_eynx > 0);
 2762              		.loc 9 360 46 discriminator 1 view .LVU659
 2763 0404 0027     		movle	r7, #0
 2764 0406 9BE7     		b	.L159
 2765              	.LVL231:
 2766              	.L218:
 359:../../libDaisy//src/hid/disp/display.h ****                     d3 = (t_sxny - t_syx < 0 && t_exny - t_eyx > 0);
 2767              		.loc 9 359 54 discriminator 1 view .LVU660
ARM GAS  /var/folders/hl/qgbwny5j0fd895c2c41bk3tw0000gp/T//ccRMOALe.s 			page 94


 2768 0408 36EE666A 		vsub.f32	s12, s12, s13
 2769              	.LVL232:
 359:../../libDaisy//src/hid/disp/display.h ****                     d3 = (t_sxny - t_syx < 0 && t_exny - t_eyx > 0);
 2770              		.loc 9 359 45 discriminator 1 view .LVU661
 2771 040c B5EEC06A 		vcmpe.f32	s12, #0
 2772 0410 F1EE10FA 		vmrs	APSR_nzcv, FPSCR
 2773 0414 CCBF     		ite	gt
 2774 0416 0121     		movgt	r1, #1
 2775 0418 0021     		movle	r1, #0
 2776 041a 89E7     		b	.L157
 2777              	.LVL233:
 2778              	.L217:
 358:../../libDaisy//src/hid/disp/display.h ****                     d2 = (t_sxy - t_syx < 0 && t_exy - t_eyx > 0);
 2779              		.loc 9 358 55 discriminator 1 view .LVU662
 2780 041c 76EE473A 		vsub.f32	s7, s12, s14
 358:../../libDaisy//src/hid/disp/display.h ****                     d2 = (t_sxy - t_syx < 0 && t_exy - t_eyx > 0);
 2781              		.loc 9 358 46 discriminator 1 view .LVU663
 2782 0420 F5EEC03A 		vcmpe.f32	s7, #0
 2783 0424 F1EE10FA 		vmrs	APSR_nzcv, FPSCR
 2784 0428 CCBF     		ite	gt
 2785 042a 0122     		movgt	r2, #1
 2786 042c 0022     		movle	r2, #0
 2787 042e 77E7     		b	.L155
 2788              	.LVL234:
 2789              	.L180:
 354:../../libDaisy//src/hid/disp/display.h ****                 }
 2790              		.loc 9 354 47 view .LVU664
 2791 0430 0124     		movs	r4, #1
 2792              	.LVL235:
 365:../../libDaisy//src/hid/disp/display.h ****                 ((ChildType*)(this))
 2793              		.loc 9 365 13 view .LVU665
 2794 0432 002A     		cmp	r2, #0
 2795 0434 3FF4C1AE 		beq	.L162
 365:../../libDaisy//src/hid/disp/display.h ****                 ((ChildType*)(this))
 2796              		.loc 9 365 13 view .LVU666
 2797 0438 49E7     		b	.L211
 2798              	.LVL236:
 2799              	.L177:
 352:../../libDaisy//src/hid/disp/display.h ****                     d3 = (t_sxny - t_syx < 0 || t_exny - t_eyx > 0);
 2800              		.loc 9 352 33 view .LVU667
 2801 043a 74EEC54A 		vsub.f32	s9, s9, s10
 2802              	.LVL237:
 351:../../libDaisy//src/hid/disp/display.h ****                     d2 = (t_sxy - t_syx < 0 || t_exy - t_eyx > 0);
 2803              		.loc 9 351 46 view .LVU668
 2804 043e 0122     		movs	r2, #1
 2805              	.LVL238:
 352:../../libDaisy//src/hid/disp/display.h ****                     d3 = (t_sxny - t_syx < 0 || t_exny - t_eyx > 0);
 2806              		.loc 9 352 45 view .LVU669
 2807 0440 F5EEC04A 		vcmpe.f32	s9, #0
 2808 0444 F1EE10FA 		vmrs	APSR_nzcv, FPSCR
 2809 0448 7FF589AE 		bpl	.L220
 2810              	.L178:
 353:../../libDaisy//src/hid/disp/display.h ****                     d4 = (t_sxny - t_synx < 0 || t_exny - t_eynx > 0);
 2811              		.loc 9 353 34 view .LVU670
 2812 044c 35EEC55A 		vsub.f32	s10, s11, s10
 2813              	.LVL239:
 352:../../libDaisy//src/hid/disp/display.h ****                     d3 = (t_sxny - t_syx < 0 || t_exny - t_eyx > 0);
ARM GAS  /var/folders/hl/qgbwny5j0fd895c2c41bk3tw0000gp/T//ccRMOALe.s 			page 95


 2814              		.loc 9 352 45 view .LVU671
 2815 0450 0121     		movs	r1, #1
 2816              	.LVL240:
 353:../../libDaisy//src/hid/disp/display.h ****                     d4 = (t_sxny - t_synx < 0 || t_exny - t_eynx > 0);
 2817              		.loc 9 353 46 view .LVU672
 2818 0452 B5EEC05A 		vcmpe.f32	s10, #0
 2819 0456 F1EE10FA 		vmrs	APSR_nzcv, FPSCR
 2820 045a 7FF591AE 		bpl	.L221
 2821              	.LVL241:
 2822              	.L179:
 353:../../libDaisy//src/hid/disp/display.h ****                     d4 = (t_sxny - t_synx < 0 || t_exny - t_eynx > 0);
 2823              		.loc 9 353 46 view .LVU673
 2824 045e 0127     		movs	r7, #1
 2825              	.LVL242:
 353:../../libDaisy//src/hid/disp/display.h ****                     d4 = (t_sxny - t_synx < 0 || t_exny - t_eynx > 0);
 2826              		.loc 9 353 46 view .LVU674
 2827 0460 97E6     		b	.L154
 2828              	.LVL243:
 2829              	.L146:
 308:../../libDaisy//src/hid/disp/display.h ****             sweep = -sweep;
 2830              		.loc 9 308 25 view .LVU675
 2831 0462 DDE91223 		ldrd	r2, r3, [sp, #72]
 2832              	.LVL244:
 308:../../libDaisy//src/hid/disp/display.h ****             sweep = -sweep;
 2833              		.loc 9 308 25 view .LVU676
 2834 0466 1344     		add	r3, r3, r2
 2835              	.LVL245:
 308:../../libDaisy//src/hid/disp/display.h ****             sweep = -sweep;
 2836              		.loc 9 308 25 view .LVU677
 2837 0468 06EE102A 		vmov	s12, r2	@ int
 2838 046c 1293     		str	r3, [sp, #72]
 2839 046e 139B     		ldr	r3, [sp, #76]
 2840              	.LVL246:
 308:../../libDaisy//src/hid/disp/display.h ****             sweep = -sweep;
 2841              		.loc 9 308 25 view .LVU678
 2842 0470 5B42     		rsbs	r3, r3, #0
 2843 0472 1393     		str	r3, [sp, #76]
 2844              	.LVL247:
 308:../../libDaisy//src/hid/disp/display.h ****             sweep = -sweep;
 2845              		.loc 9 308 25 view .LVU679
 2846 0474 D8E5     		b	.L147
 2847              		.cfi_endproc
 2848              	.LFE5420:
 2850 0476 00BF     		.section	.text._ZN5daisy25OneBitGraphicsDisplayImplINS_11OledDisplayINS_13SSD130xDriverILj128ELj64
 2851              		.align	1
 2852              		.p2align 2,,3
 2853              		.weak	_ZN5daisy25OneBitGraphicsDisplayImplINS_11OledDisplayINS_13SSD130xDriverILj128ELj64ENS_19SSD
 2854              		.syntax unified
 2855              		.thumb
 2856              		.thumb_func
 2857              		.fpu fpv5-d16
 2859              	_ZN5daisy25OneBitGraphicsDisplayImplINS_11OledDisplayINS_13SSD130xDriverILj128ELj64ENS_19SSD130xI2C
 2860              	.LVL248:
 2861              	.LFB5421:
 459:../../libDaisy//src/hid/disp/display.h **** 
 460:../../libDaisy//src/hid/disp/display.h ****     Rectangle WriteStringAligned(const char*    str,
 2862              		.loc 9 460 15 is_stmt 1 view -0
ARM GAS  /var/folders/hl/qgbwny5j0fd895c2c41bk3tw0000gp/T//ccRMOALe.s 			page 96


 2863              		.cfi_startproc
 2864              		@ args = 12, pretend = 0, frame = 32
 2865              		@ frame_needed = 0, uses_anonymous_args = 0
 2866              		.loc 9 460 15 is_stmt 0 view .LVU681
 2867 0000 2DE9F04F 		push	{r4, r5, r6, r7, r8, r9, r10, fp, lr}
 2868              		.cfi_def_cfa_offset 36
 2869              		.cfi_offset 4, -36
 2870              		.cfi_offset 5, -32
 2871              		.cfi_offset 6, -28
 2872              		.cfi_offset 7, -24
 2873              		.cfi_offset 8, -20
 2874              		.cfi_offset 9, -16
 2875              		.cfi_offset 10, -12
 2876              		.cfi_offset 11, -8
 2877              		.cfi_offset 14, -4
 2878 0004 89B0     		sub	sp, sp, #36
 2879              		.cfi_def_cfa_offset 72
 2880              		.loc 9 460 15 view .LVU682
 2881 0006 1D46     		mov	r5, r3
 2882 0008 8846     		mov	r8, r1
 2883              	.LVL249:
 2884              	.LBB910:
 2885              	.LBI910:
 461:../../libDaisy//src/hid/disp/display.h ****                                  const FontDef& font,
 462:../../libDaisy//src/hid/disp/display.h ****                                  Rectangle      boundingBox,
 463:../../libDaisy//src/hid/disp/display.h ****                                  Alignment      alignment,
 464:../../libDaisy//src/hid/disp/display.h ****                                  bool           on) override
 465:../../libDaisy//src/hid/disp/display.h ****     {
 466:../../libDaisy//src/hid/disp/display.h ****         const auto alignedRect
 467:../../libDaisy//src/hid/disp/display.h ****             = GetTextRect(str, font).AlignedWithin(boundingBox, alignment);
 468:../../libDaisy//src/hid/disp/display.h ****         SetCursor(alignedRect.GetX(), alignedRect.GetY());
 469:../../libDaisy//src/hid/disp/display.h ****         ((ChildType*)(this))->ChildType::WriteString(str, font, on);
 470:../../libDaisy//src/hid/disp/display.h ****         return alignedRect;
 471:../../libDaisy//src/hid/disp/display.h ****     }
 472:../../libDaisy//src/hid/disp/display.h **** 
 473:../../libDaisy//src/hid/disp/display.h ****   private:
 474:../../libDaisy//src/hid/disp/display.h ****     uint32_t strlen(const char* string)
 475:../../libDaisy//src/hid/disp/display.h ****     {
 476:../../libDaisy//src/hid/disp/display.h ****         uint32_t result = 0;
 477:../../libDaisy//src/hid/disp/display.h ****         while(*string++ != '\0')
 478:../../libDaisy//src/hid/disp/display.h ****             result++;
 479:../../libDaisy//src/hid/disp/display.h ****         return result;
 480:../../libDaisy//src/hid/disp/display.h ****     }
 481:../../libDaisy//src/hid/disp/display.h **** 
 482:../../libDaisy//src/hid/disp/display.h ****     Rectangle GetTextRect(const char* text, const FontDef& font)
 2886              		.loc 9 482 15 is_stmt 1 view .LVU683
 2887              	.LBB911:
 2888              	.LBB912:
 2889              	.LBI912:
 474:../../libDaisy//src/hid/disp/display.h ****     {
 2890              		.loc 9 474 14 view .LVU684
 2891              	.LBB913:
 477:../../libDaisy//src/hid/disp/display.h ****             result++;
 2892              		.loc 9 477 25 view .LVU685
 2893              	.LBE913:
 2894              	.LBE912:
 2895              	.LBE911:
ARM GAS  /var/folders/hl/qgbwny5j0fd895c2c41bk3tw0000gp/T//ccRMOALe.s 			page 97


 2896              	.LBE910:
 460:../../libDaisy//src/hid/disp/display.h ****                                  const FontDef& font,
 2897              		.loc 9 460 15 is_stmt 0 view .LVU686
 2898 000a 0690     		str	r0, [sp, #24]
 2899              	.LBB928:
 2900              	.LBB924:
 2901              	.LBB917:
 2902              	.LBB914:
 477:../../libDaisy//src/hid/disp/display.h ****             result++;
 2903              		.loc 9 477 25 view .LVU687
 2904 000c 1046     		mov	r0, r2
 2905              	.LVL250:
 477:../../libDaisy//src/hid/disp/display.h ****             result++;
 2906              		.loc 9 477 25 view .LVU688
 2907              	.LBE914:
 2908              	.LBE917:
 2909              	.LBE924:
 2910              	.LBE928:
 460:../../libDaisy//src/hid/disp/display.h ****                                  const FontDef& font,
 2911              		.loc 9 460 15 view .LVU689
 2912 000e 129C     		ldr	r4, [sp, #72]
 2913              	.LBB929:
 2914              	.LBB925:
 2915              	.LBB918:
 2916              	.LBB915:
 477:../../libDaisy//src/hid/disp/display.h ****             result++;
 2917              		.loc 9 477 25 view .LVU690
 2918 0010 10F8013B 		ldrb	r3, [r0], #1	@ zero_extendqisi2
 2919              	.LVL251:
 477:../../libDaisy//src/hid/disp/display.h ****             result++;
 2920              		.loc 9 477 25 view .LVU691
 2921              	.LBE915:
 2922              	.LBE918:
 2923              	.LBE925:
 2924              	.LBE929:
 460:../../libDaisy//src/hid/disp/display.h ****                                  const FontDef& font,
 2925              		.loc 9 460 15 view .LVU692
 2926 0014 1399     		ldr	r1, [sp, #76]
 2927              	.LVL252:
 460:../../libDaisy//src/hid/disp/display.h ****                                  const FontDef& font,
 2928              		.loc 9 460 15 view .LVU693
 2929 0016 9DF85060 		ldrb	r6, [sp, #80]	@ zero_extendqisi2
 2930 001a 0092     		str	r2, [sp]
 2931              	.LBB930:
 2932              	.LBB926:
 2933              	.LBB919:
 2934              	.LBB916:
 477:../../libDaisy//src/hid/disp/display.h ****             result++;
 2935              		.loc 9 477 25 view .LVU694
 2936 001c 33B1     		cbz	r3, .L225
 476:../../libDaisy//src/hid/disp/display.h ****         while(*string++ != '\0')
 2937              		.loc 9 476 18 view .LVU695
 2938 001e 0022     		movs	r2, #0
 2939              	.LVL253:
 2940              	.L226:
 477:../../libDaisy//src/hid/disp/display.h ****             result++;
 2941              		.loc 9 477 25 view .LVU696
ARM GAS  /var/folders/hl/qgbwny5j0fd895c2c41bk3tw0000gp/T//ccRMOALe.s 			page 98


 2942 0020 10F8013B 		ldrb	r3, [r0], #1	@ zero_extendqisi2
 2943              	.LVL254:
 478:../../libDaisy//src/hid/disp/display.h ****         return result;
 2944              		.loc 9 478 13 view .LVU697
 2945 0024 0132     		adds	r2, r2, #1
 2946              	.LVL255:
 477:../../libDaisy//src/hid/disp/display.h ****             result++;
 2947              		.loc 9 477 25 is_stmt 1 view .LVU698
 2948 0026 002B     		cmp	r3, #0
 2949 0028 FAD1     		bne	.L226
 2950              	.LBE916:
 2951              	.LBE919:
 483:../../libDaisy//src/hid/disp/display.h ****     {
 484:../../libDaisy//src/hid/disp/display.h ****         const auto numChars = strlen(text);
 485:../../libDaisy//src/hid/disp/display.h ****         return {int16_t(numChars * font.FontWidth), font.FontHeight};
 2952              		.loc 9 485 68 is_stmt 0 view .LVU699
 2953 002a 93B2     		uxth	r3, r2
 2954              	.LVL256:
 2955              	.L225:
 2956              		.loc 9 485 68 view .LVU700
 2957 002c 2A78     		ldrb	r2, [r5]	@ zero_extendqisi2
 2958              		.loc 9 485 58 view .LVU701
 2959 002e 6878     		ldrb	r0, [r5, #1]	@ zero_extendqisi2
 2960              		.loc 9 485 68 view .LVU702
 2961 0030 12FB03F3 		smulbb	r3, r2, r3
 2962 0034 02B2     		sxth	r2, r0
 2963              	.LVL257:
 2964              	.LBB920:
 2965              	.LBI920:
 2966              		.file 18 "../../libDaisy//src/hid/disp/graphics_common.h"
   1:../../libDaisy//src/hid/disp/graphics_common.h **** #pragma once
   2:../../libDaisy//src/hid/disp/graphics_common.h **** 
   3:../../libDaisy//src/hid/disp/graphics_common.h **** #include <cstdint>
   4:../../libDaisy//src/hid/disp/graphics_common.h **** 
   5:../../libDaisy//src/hid/disp/graphics_common.h **** namespace daisy
   6:../../libDaisy//src/hid/disp/graphics_common.h **** {
   7:../../libDaisy//src/hid/disp/graphics_common.h **** /** Justifications */
   8:../../libDaisy//src/hid/disp/graphics_common.h **** enum class Alignment
   9:../../libDaisy//src/hid/disp/graphics_common.h **** {
  10:../../libDaisy//src/hid/disp/graphics_common.h ****     centered,
  11:../../libDaisy//src/hid/disp/graphics_common.h ****     topLeft,
  12:../../libDaisy//src/hid/disp/graphics_common.h ****     topCentered,
  13:../../libDaisy//src/hid/disp/graphics_common.h ****     topRight,
  14:../../libDaisy//src/hid/disp/graphics_common.h ****     bottomLeft,
  15:../../libDaisy//src/hid/disp/graphics_common.h ****     bottomCentered,
  16:../../libDaisy//src/hid/disp/graphics_common.h ****     bottomRight,
  17:../../libDaisy//src/hid/disp/graphics_common.h ****     centeredLeft,
  18:../../libDaisy//src/hid/disp/graphics_common.h ****     centeredRight
  19:../../libDaisy//src/hid/disp/graphics_common.h **** };
  20:../../libDaisy//src/hid/disp/graphics_common.h **** 
  21:../../libDaisy//src/hid/disp/graphics_common.h **** class Rectangle
  22:../../libDaisy//src/hid/disp/graphics_common.h **** {
  23:../../libDaisy//src/hid/disp/graphics_common.h ****   public:
  24:../../libDaisy//src/hid/disp/graphics_common.h ****     Rectangle() : x_(0), y_(0), width_(0), height_(0) {}
  25:../../libDaisy//src/hid/disp/graphics_common.h **** 
  26:../../libDaisy//src/hid/disp/graphics_common.h ****     Rectangle(int16_t width, int16_t height)
 2967              		.loc 18 26 5 is_stmt 1 view .LVU703
ARM GAS  /var/folders/hl/qgbwny5j0fd895c2c41bk3tw0000gp/T//ccRMOALe.s 			page 99


 2968              	.LBB921:
 2969              	.LBI921:
  27:../../libDaisy//src/hid/disp/graphics_common.h ****     : x_(0), y_(0), width_(max(0, width)), height_(max(0, height))
  28:../../libDaisy//src/hid/disp/graphics_common.h ****     {
  29:../../libDaisy//src/hid/disp/graphics_common.h ****     }
  30:../../libDaisy//src/hid/disp/graphics_common.h **** 
  31:../../libDaisy//src/hid/disp/graphics_common.h ****     Rectangle(int16_t x, int16_t y, int16_t width, int16_t height)
  32:../../libDaisy//src/hid/disp/graphics_common.h ****     : x_(x), y_(y), width_(max(0, width)), height_(max(0, height))
  33:../../libDaisy//src/hid/disp/graphics_common.h ****     {
  34:../../libDaisy//src/hid/disp/graphics_common.h ****     }
  35:../../libDaisy//src/hid/disp/graphics_common.h **** 
  36:../../libDaisy//src/hid/disp/graphics_common.h ****     Rectangle(const Rectangle& other) { *this = other; }
  37:../../libDaisy//src/hid/disp/graphics_common.h **** 
  38:../../libDaisy//src/hid/disp/graphics_common.h ****     Rectangle& operator=(const Rectangle& other)
  39:../../libDaisy//src/hid/disp/graphics_common.h ****     {
  40:../../libDaisy//src/hid/disp/graphics_common.h ****         x_      = other.x_;
  41:../../libDaisy//src/hid/disp/graphics_common.h ****         y_      = other.y_;
  42:../../libDaisy//src/hid/disp/graphics_common.h ****         width_  = other.width_;
  43:../../libDaisy//src/hid/disp/graphics_common.h ****         height_ = other.height_;
  44:../../libDaisy//src/hid/disp/graphics_common.h ****         return *this;
  45:../../libDaisy//src/hid/disp/graphics_common.h ****     }
  46:../../libDaisy//src/hid/disp/graphics_common.h **** 
  47:../../libDaisy//src/hid/disp/graphics_common.h ****     bool operator==(const Rectangle& other) const
  48:../../libDaisy//src/hid/disp/graphics_common.h ****     {
  49:../../libDaisy//src/hid/disp/graphics_common.h ****         return (x_ == other.x_) && (y_ == other.y_) && (width_ == other.width_)
  50:../../libDaisy//src/hid/disp/graphics_common.h ****                && (height_ == other.height_);
  51:../../libDaisy//src/hid/disp/graphics_common.h ****     }
  52:../../libDaisy//src/hid/disp/graphics_common.h ****     bool operator!=(const Rectangle& other) const { return !(*this == other); }
  53:../../libDaisy//src/hid/disp/graphics_common.h **** 
  54:../../libDaisy//src/hid/disp/graphics_common.h ****     bool IsEmpty() const { return (width_ <= 0) || (height_ <= 0); }
  55:../../libDaisy//src/hid/disp/graphics_common.h **** 
  56:../../libDaisy//src/hid/disp/graphics_common.h ****     int16_t GetX() const { return x_; }
  57:../../libDaisy//src/hid/disp/graphics_common.h ****     int16_t GetY() const { return y_; }
  58:../../libDaisy//src/hid/disp/graphics_common.h ****     int16_t GetWidth() const { return width_; }
  59:../../libDaisy//src/hid/disp/graphics_common.h ****     int16_t GetHeight() const { return height_; }
  60:../../libDaisy//src/hid/disp/graphics_common.h ****     int16_t GetRight() const { return x_ + width_; }
  61:../../libDaisy//src/hid/disp/graphics_common.h ****     int16_t GetBottom() const { return y_ + height_; }
  62:../../libDaisy//src/hid/disp/graphics_common.h ****     int16_t GetCenterX() const { return x_ + width_ / 2; }
  63:../../libDaisy//src/hid/disp/graphics_common.h ****     int16_t GetCenterY() const { return y_ + height_ / 2; }
  64:../../libDaisy//src/hid/disp/graphics_common.h **** 
  65:../../libDaisy//src/hid/disp/graphics_common.h ****     Rectangle WithX(int16_t x) const { return {x, y_, width_, height_}; }
  66:../../libDaisy//src/hid/disp/graphics_common.h ****     Rectangle WithY(int16_t y) const { return {x_, y, width_, height_}; }
  67:../../libDaisy//src/hid/disp/graphics_common.h ****     Rectangle WithWidth(int16_t width) const
  68:../../libDaisy//src/hid/disp/graphics_common.h ****     {
  69:../../libDaisy//src/hid/disp/graphics_common.h ****         return {x_, y_, width, height_};
  70:../../libDaisy//src/hid/disp/graphics_common.h ****     }
  71:../../libDaisy//src/hid/disp/graphics_common.h ****     Rectangle WithHeight(int16_t height) const
  72:../../libDaisy//src/hid/disp/graphics_common.h ****     {
  73:../../libDaisy//src/hid/disp/graphics_common.h ****         return {x_, y_, width_, height};
  74:../../libDaisy//src/hid/disp/graphics_common.h ****     }
  75:../../libDaisy//src/hid/disp/graphics_common.h ****     Rectangle WithSize(int16_t width, int16_t height) const
  76:../../libDaisy//src/hid/disp/graphics_common.h ****     {
  77:../../libDaisy//src/hid/disp/graphics_common.h ****         return {x_, y_, width, height};
  78:../../libDaisy//src/hid/disp/graphics_common.h ****     }
  79:../../libDaisy//src/hid/disp/graphics_common.h ****     Rectangle WithWidthKeepingCenter(int16_t width) const
  80:../../libDaisy//src/hid/disp/graphics_common.h ****     {
  81:../../libDaisy//src/hid/disp/graphics_common.h ****         return Rectangle(x_, y_, width, height_)
ARM GAS  /var/folders/hl/qgbwny5j0fd895c2c41bk3tw0000gp/T//ccRMOALe.s 			page 100


  82:../../libDaisy//src/hid/disp/graphics_common.h ****             .WithCenter(GetCenterX(), GetCenterY());
  83:../../libDaisy//src/hid/disp/graphics_common.h ****     }
  84:../../libDaisy//src/hid/disp/graphics_common.h ****     Rectangle WithHeightKeepingCenter(int16_t height) const
  85:../../libDaisy//src/hid/disp/graphics_common.h ****     {
  86:../../libDaisy//src/hid/disp/graphics_common.h ****         return Rectangle(x_, y_, width_, height)
  87:../../libDaisy//src/hid/disp/graphics_common.h ****             .WithCenter(GetCenterX(), GetCenterY());
  88:../../libDaisy//src/hid/disp/graphics_common.h ****     }
  89:../../libDaisy//src/hid/disp/graphics_common.h ****     Rectangle WithSizeKeepingCenter(int16_t width, int16_t height) const
  90:../../libDaisy//src/hid/disp/graphics_common.h ****     {
  91:../../libDaisy//src/hid/disp/graphics_common.h ****         return Rectangle(x_, y_, width, height)
  92:../../libDaisy//src/hid/disp/graphics_common.h ****             .WithCenter(GetCenterX(), GetCenterY());
  93:../../libDaisy//src/hid/disp/graphics_common.h ****     }
  94:../../libDaisy//src/hid/disp/graphics_common.h **** 
  95:../../libDaisy//src/hid/disp/graphics_common.h ****     Rectangle Reduced(int16_t sizeToReduce) const
  96:../../libDaisy//src/hid/disp/graphics_common.h ****     {
  97:../../libDaisy//src/hid/disp/graphics_common.h ****         return {int16_t(x_ + sizeToReduce),
  98:../../libDaisy//src/hid/disp/graphics_common.h ****                 int16_t(y_ + sizeToReduce),
  99:../../libDaisy//src/hid/disp/graphics_common.h ****                 int16_t(width_ - 2 * sizeToReduce),
 100:../../libDaisy//src/hid/disp/graphics_common.h ****                 int16_t(height_ - 2 * sizeToReduce)};
 101:../../libDaisy//src/hid/disp/graphics_common.h ****     }
 102:../../libDaisy//src/hid/disp/graphics_common.h ****     Rectangle Reduced(int16_t xToReduce, int16_t yToReduce) const
 103:../../libDaisy//src/hid/disp/graphics_common.h ****     {
 104:../../libDaisy//src/hid/disp/graphics_common.h ****         return {int16_t(x_ + xToReduce),
 105:../../libDaisy//src/hid/disp/graphics_common.h ****                 int16_t(y_ + yToReduce),
 106:../../libDaisy//src/hid/disp/graphics_common.h ****                 int16_t(width_ - 2 * xToReduce),
 107:../../libDaisy//src/hid/disp/graphics_common.h ****                 int16_t(height_ - 2 * yToReduce)};
 108:../../libDaisy//src/hid/disp/graphics_common.h ****     }
 109:../../libDaisy//src/hid/disp/graphics_common.h **** 
 110:../../libDaisy//src/hid/disp/graphics_common.h ****     Rectangle Translated(int16_t x, int16_t y) const
 111:../../libDaisy//src/hid/disp/graphics_common.h ****     {
 112:../../libDaisy//src/hid/disp/graphics_common.h ****         return {int16_t(x_ + x), int16_t(y_ + y), width_, height_};
 113:../../libDaisy//src/hid/disp/graphics_common.h ****     }
 114:../../libDaisy//src/hid/disp/graphics_common.h **** 
 115:../../libDaisy//src/hid/disp/graphics_common.h ****     Rectangle WithLeft(int16_t left) const
 116:../../libDaisy//src/hid/disp/graphics_common.h ****     {
 117:../../libDaisy//src/hid/disp/graphics_common.h ****         const auto newWidth = int16_t((x_ - left) + width_);
 118:../../libDaisy//src/hid/disp/graphics_common.h ****         return {left, y_, newWidth, height_};
 119:../../libDaisy//src/hid/disp/graphics_common.h ****     }
 120:../../libDaisy//src/hid/disp/graphics_common.h **** 
 121:../../libDaisy//src/hid/disp/graphics_common.h ****     Rectangle WithRight(int16_t right) const
 122:../../libDaisy//src/hid/disp/graphics_common.h ****     {
 123:../../libDaisy//src/hid/disp/graphics_common.h ****         const auto newWidth = int16_t(right - x_);
 124:../../libDaisy//src/hid/disp/graphics_common.h ****         return {x_, y_, newWidth, height_};
 125:../../libDaisy//src/hid/disp/graphics_common.h ****     }
 126:../../libDaisy//src/hid/disp/graphics_common.h **** 
 127:../../libDaisy//src/hid/disp/graphics_common.h ****     Rectangle WithTop(int16_t top) const
 128:../../libDaisy//src/hid/disp/graphics_common.h ****     {
 129:../../libDaisy//src/hid/disp/graphics_common.h ****         const auto newHeight = int16_t((y_ - top) + height_);
 130:../../libDaisy//src/hid/disp/graphics_common.h ****         return {x_, top, width_, newHeight};
 131:../../libDaisy//src/hid/disp/graphics_common.h ****     }
 132:../../libDaisy//src/hid/disp/graphics_common.h **** 
 133:../../libDaisy//src/hid/disp/graphics_common.h ****     Rectangle WithBottom(int16_t bottom) const
 134:../../libDaisy//src/hid/disp/graphics_common.h ****     {
 135:../../libDaisy//src/hid/disp/graphics_common.h ****         const auto newHeight = int16_t(bottom - y_);
 136:../../libDaisy//src/hid/disp/graphics_common.h ****         return {x_, y_, width_, newHeight};
 137:../../libDaisy//src/hid/disp/graphics_common.h ****     }
 138:../../libDaisy//src/hid/disp/graphics_common.h **** 
ARM GAS  /var/folders/hl/qgbwny5j0fd895c2c41bk3tw0000gp/T//ccRMOALe.s 			page 101


 139:../../libDaisy//src/hid/disp/graphics_common.h ****     Rectangle WithTrimmedLeft(int16_t pxToTrim) const
 140:../../libDaisy//src/hid/disp/graphics_common.h ****     {
 141:../../libDaisy//src/hid/disp/graphics_common.h ****         return {
 142:../../libDaisy//src/hid/disp/graphics_common.h ****             int16_t(x_ + pxToTrim), y_, int16_t(width_ - pxToTrim), height_};
 143:../../libDaisy//src/hid/disp/graphics_common.h ****     }
 144:../../libDaisy//src/hid/disp/graphics_common.h **** 
 145:../../libDaisy//src/hid/disp/graphics_common.h ****     Rectangle WithTrimmedRight(int16_t pxToTrim) const
 146:../../libDaisy//src/hid/disp/graphics_common.h ****     {
 147:../../libDaisy//src/hid/disp/graphics_common.h ****         return {x_, y_, int16_t(width_ - pxToTrim), height_};
 148:../../libDaisy//src/hid/disp/graphics_common.h ****     }
 149:../../libDaisy//src/hid/disp/graphics_common.h **** 
 150:../../libDaisy//src/hid/disp/graphics_common.h ****     Rectangle WithTrimmedTop(int16_t pxToTrim) const
 151:../../libDaisy//src/hid/disp/graphics_common.h ****     {
 152:../../libDaisy//src/hid/disp/graphics_common.h ****         return {
 153:../../libDaisy//src/hid/disp/graphics_common.h ****             x_, int16_t(y_ + pxToTrim), width_, int16_t(height_ - pxToTrim)};
 154:../../libDaisy//src/hid/disp/graphics_common.h ****     }
 155:../../libDaisy//src/hid/disp/graphics_common.h **** 
 156:../../libDaisy//src/hid/disp/graphics_common.h ****     Rectangle WithTrimmedBottom(int16_t pxToTrim) const
 157:../../libDaisy//src/hid/disp/graphics_common.h ****     {
 158:../../libDaisy//src/hid/disp/graphics_common.h ****         return {x_, y_, width_, int16_t(height_ - pxToTrim)};
 159:../../libDaisy//src/hid/disp/graphics_common.h ****     }
 160:../../libDaisy//src/hid/disp/graphics_common.h **** 
 161:../../libDaisy//src/hid/disp/graphics_common.h ****     Rectangle WithCenterX(int16_t centerX) const
 162:../../libDaisy//src/hid/disp/graphics_common.h ****     {
 163:../../libDaisy//src/hid/disp/graphics_common.h ****         return {int16_t(x_ + centerX - GetCenterX()), y_, width_, height_};
 164:../../libDaisy//src/hid/disp/graphics_common.h ****     }
 165:../../libDaisy//src/hid/disp/graphics_common.h **** 
 166:../../libDaisy//src/hid/disp/graphics_common.h ****     Rectangle WithCenterY(int16_t centerY) const
 167:../../libDaisy//src/hid/disp/graphics_common.h ****     {
 168:../../libDaisy//src/hid/disp/graphics_common.h ****         return {x_, int16_t(y_ + centerY - GetCenterY()), width_, height_};
 169:../../libDaisy//src/hid/disp/graphics_common.h ****     }
 170:../../libDaisy//src/hid/disp/graphics_common.h **** 
 171:../../libDaisy//src/hid/disp/graphics_common.h ****     Rectangle WithCenter(int16_t centerX, int16_t centerY) const
 172:../../libDaisy//src/hid/disp/graphics_common.h ****     {
 173:../../libDaisy//src/hid/disp/graphics_common.h ****         return {int16_t(x_ + centerX - GetCenterX()),
 174:../../libDaisy//src/hid/disp/graphics_common.h ****                 int16_t(y_ + centerY - GetCenterY()),
 175:../../libDaisy//src/hid/disp/graphics_common.h ****                 width_,
 176:../../libDaisy//src/hid/disp/graphics_common.h ****                 height_};
 177:../../libDaisy//src/hid/disp/graphics_common.h ****     }
 178:../../libDaisy//src/hid/disp/graphics_common.h **** 
 179:../../libDaisy//src/hid/disp/graphics_common.h ****     Rectangle RemoveFromLeft(int16_t pxToRemove)
 180:../../libDaisy//src/hid/disp/graphics_common.h ****     {
 181:../../libDaisy//src/hid/disp/graphics_common.h ****         const auto result = this->WithWidth(min(pxToRemove, width_));
 182:../../libDaisy//src/hid/disp/graphics_common.h ****         x_ += min(pxToRemove, width_);
 183:../../libDaisy//src/hid/disp/graphics_common.h ****         width_ = max(int16_t(width_ - pxToRemove), 0);
 184:../../libDaisy//src/hid/disp/graphics_common.h ****         return result;
 185:../../libDaisy//src/hid/disp/graphics_common.h ****     }
 186:../../libDaisy//src/hid/disp/graphics_common.h **** 
 187:../../libDaisy//src/hid/disp/graphics_common.h ****     Rectangle RemoveFromRight(int16_t pxToRemove)
 188:../../libDaisy//src/hid/disp/graphics_common.h ****     {
 189:../../libDaisy//src/hid/disp/graphics_common.h ****         const auto canRemove = min(pxToRemove, width_);
 190:../../libDaisy//src/hid/disp/graphics_common.h ****         width_ -= canRemove;
 191:../../libDaisy//src/hid/disp/graphics_common.h ****         return {int16_t(x_ + width_), y_, canRemove, height_};
 192:../../libDaisy//src/hid/disp/graphics_common.h ****     }
 193:../../libDaisy//src/hid/disp/graphics_common.h **** 
 194:../../libDaisy//src/hid/disp/graphics_common.h ****     Rectangle RemoveFromTop(int16_t pxToRemove)
 195:../../libDaisy//src/hid/disp/graphics_common.h ****     {
ARM GAS  /var/folders/hl/qgbwny5j0fd895c2c41bk3tw0000gp/T//ccRMOALe.s 			page 102


 196:../../libDaisy//src/hid/disp/graphics_common.h ****         const auto result = this->WithHeight(min(pxToRemove, height_));
 197:../../libDaisy//src/hid/disp/graphics_common.h ****         y_ += min(pxToRemove, height_);
 198:../../libDaisy//src/hid/disp/graphics_common.h ****         height_ = max(height_ - pxToRemove, 0);
 199:../../libDaisy//src/hid/disp/graphics_common.h ****         return result;
 200:../../libDaisy//src/hid/disp/graphics_common.h ****     }
 201:../../libDaisy//src/hid/disp/graphics_common.h **** 
 202:../../libDaisy//src/hid/disp/graphics_common.h ****     Rectangle RemoveFromBottom(int16_t pxToRemove)
 203:../../libDaisy//src/hid/disp/graphics_common.h ****     {
 204:../../libDaisy//src/hid/disp/graphics_common.h ****         const auto canRemove = min(pxToRemove, height_);
 205:../../libDaisy//src/hid/disp/graphics_common.h ****         height_ -= canRemove;
 206:../../libDaisy//src/hid/disp/graphics_common.h ****         return {x_, int16_t(y_ + height_), width_, canRemove};
 207:../../libDaisy//src/hid/disp/graphics_common.h ****     }
 208:../../libDaisy//src/hid/disp/graphics_common.h **** 
 209:../../libDaisy//src/hid/disp/graphics_common.h ****     Rectangle AlignedWithin(const Rectangle& other, Alignment alignment) const
 210:../../libDaisy//src/hid/disp/graphics_common.h ****     {
 211:../../libDaisy//src/hid/disp/graphics_common.h ****         switch(alignment)
 212:../../libDaisy//src/hid/disp/graphics_common.h ****         {
 213:../../libDaisy//src/hid/disp/graphics_common.h ****             case Alignment::topLeft:
 214:../../libDaisy//src/hid/disp/graphics_common.h ****                 return {other.x_, other.y_, width_, height_};
 215:../../libDaisy//src/hid/disp/graphics_common.h ****             case Alignment::topRight:
 216:../../libDaisy//src/hid/disp/graphics_common.h ****                 return {int16_t(other.GetRight() - width_),
 217:../../libDaisy//src/hid/disp/graphics_common.h ****                         other.y_,
 218:../../libDaisy//src/hid/disp/graphics_common.h ****                         width_,
 219:../../libDaisy//src/hid/disp/graphics_common.h ****                         height_};
 220:../../libDaisy//src/hid/disp/graphics_common.h ****             case Alignment::topCentered:
 221:../../libDaisy//src/hid/disp/graphics_common.h ****                 return {int16_t(x_ + (other.GetCenterX() - GetCenterX())),
 222:../../libDaisy//src/hid/disp/graphics_common.h ****                         other.y_,
 223:../../libDaisy//src/hid/disp/graphics_common.h ****                         width_,
 224:../../libDaisy//src/hid/disp/graphics_common.h ****                         height_};
 225:../../libDaisy//src/hid/disp/graphics_common.h ****             case Alignment::bottomLeft:
 226:../../libDaisy//src/hid/disp/graphics_common.h ****                 return {other.x_,
 227:../../libDaisy//src/hid/disp/graphics_common.h ****                         int16_t(other.GetBottom() - height_),
 228:../../libDaisy//src/hid/disp/graphics_common.h ****                         width_,
 229:../../libDaisy//src/hid/disp/graphics_common.h ****                         height_};
 230:../../libDaisy//src/hid/disp/graphics_common.h ****             case Alignment::bottomRight:
 231:../../libDaisy//src/hid/disp/graphics_common.h ****                 return {int16_t(other.GetRight() - width_),
 232:../../libDaisy//src/hid/disp/graphics_common.h ****                         int16_t(other.GetBottom() - height_),
 233:../../libDaisy//src/hid/disp/graphics_common.h ****                         width_,
 234:../../libDaisy//src/hid/disp/graphics_common.h ****                         height_};
 235:../../libDaisy//src/hid/disp/graphics_common.h ****             case Alignment::bottomCentered:
 236:../../libDaisy//src/hid/disp/graphics_common.h ****                 return {int16_t(x_ + (other.GetCenterX() - GetCenterX())),
 237:../../libDaisy//src/hid/disp/graphics_common.h ****                         int16_t(other.GetBottom() - height_),
 238:../../libDaisy//src/hid/disp/graphics_common.h ****                         width_,
 239:../../libDaisy//src/hid/disp/graphics_common.h ****                         height_};
 240:../../libDaisy//src/hid/disp/graphics_common.h ****             case Alignment::centeredLeft:
 241:../../libDaisy//src/hid/disp/graphics_common.h ****                 return {other.x_,
 242:../../libDaisy//src/hid/disp/graphics_common.h ****                         int16_t(y_ + (other.GetCenterY() - GetCenterY())),
 243:../../libDaisy//src/hid/disp/graphics_common.h ****                         width_,
 244:../../libDaisy//src/hid/disp/graphics_common.h ****                         height_};
 245:../../libDaisy//src/hid/disp/graphics_common.h ****             case Alignment::centeredRight:
 246:../../libDaisy//src/hid/disp/graphics_common.h ****                 return {int16_t(other.GetRight() - width_),
 247:../../libDaisy//src/hid/disp/graphics_common.h ****                         int16_t(y_ + (other.GetCenterY() - GetCenterY())),
 248:../../libDaisy//src/hid/disp/graphics_common.h ****                         width_,
 249:../../libDaisy//src/hid/disp/graphics_common.h ****                         height_};
 250:../../libDaisy//src/hid/disp/graphics_common.h ****             case Alignment::centered:
 251:../../libDaisy//src/hid/disp/graphics_common.h ****                 return {int16_t(x_ + (other.GetCenterX() - GetCenterX())),
 252:../../libDaisy//src/hid/disp/graphics_common.h ****                         int16_t(y_ + (other.GetCenterY() - GetCenterY())),
ARM GAS  /var/folders/hl/qgbwny5j0fd895c2c41bk3tw0000gp/T//ccRMOALe.s 			page 103


 253:../../libDaisy//src/hid/disp/graphics_common.h ****                         width_,
 254:../../libDaisy//src/hid/disp/graphics_common.h ****                         height_};
 255:../../libDaisy//src/hid/disp/graphics_common.h ****             default: return {};
 256:../../libDaisy//src/hid/disp/graphics_common.h ****         }
 257:../../libDaisy//src/hid/disp/graphics_common.h ****     }
 258:../../libDaisy//src/hid/disp/graphics_common.h **** 
 259:../../libDaisy//src/hid/disp/graphics_common.h ****   private:
 260:../../libDaisy//src/hid/disp/graphics_common.h ****     int16_t x_, y_, width_, height_;
 261:../../libDaisy//src/hid/disp/graphics_common.h ****     int16_t max(int16_t a, int16_t b) { return (a > b) ? a : b; }
 2970              		.loc 18 261 13 view .LVU704
 2971              	.LBE921:
 2972              	.LBE920:
 2973              	.LBE926:
 2974              	.LBE930:
 2975              		.loc 18 261 41 view .LVU705
 2976              	.LBB931:
 2977              	.LBB927:
 2978              	.LBB923:
 2979              	.LBB922:
 2980              	.LBI922:
 2981              		.loc 18 261 13 view .LVU706
 2982              	.LBE922:
 2983              	.LBE923:
 2984              	.LBE927:
 2985              	.LBE931:
 2986              		.loc 18 261 41 view .LVU707
 2987              	.LBB932:
 2988              	.LBI932:
 209:../../libDaisy//src/hid/disp/graphics_common.h ****     {
 2989              		.loc 18 209 15 view .LVU708
 2990              	.LBB933:
 211:../../libDaisy//src/hid/disp/graphics_common.h ****         {
 2991              		.loc 18 211 9 view .LVU709
 2992 0036 1BB2     		sxth	r3, r3
 2993 0038 23EAE373 		bic	r3, r3, r3, asr #31
 2994 003c 0829     		cmp	r1, #8
 2995 003e 00F2A681 		bhi	.L227
 2996 0042 DFE811F0 		tbh	[pc, r1, lsl #1]
 2997              	.L229:
 2998 0046 0101     		.2byte	(.L237-.L229)/2
 2999 0048 1301     		.2byte	(.L236-.L229)/2
 3000 004a 1F01     		.2byte	(.L235-.L229)/2
 3001 004c 3301     		.2byte	(.L234-.L229)/2
 3002 004e 4101     		.2byte	(.L233-.L229)/2
 3003 0050 4F01     		.2byte	(.L232-.L229)/2
 3004 0052 6601     		.2byte	(.L231-.L229)/2
 3005 0054 6F01     		.2byte	(.L230-.L229)/2
 3006 0056 0900     		.2byte	(.L228-.L229)/2
 3007              		.p2align 1
 3008              	.L228:
 245:../../libDaisy//src/hid/disp/graphics_common.h ****                 return {int16_t(other.GetRight() - width_),
 3009              		.loc 18 245 13 view .LVU710
 246:../../libDaisy//src/hid/disp/graphics_common.h ****                         int16_t(y_ + (other.GetCenterY() - GetCenterY())),
 3010              		.loc 18 246 17 view .LVU711
 3011              	.LVL258:
 3012              	.LBB934:
 3013              	.LBI934:
ARM GAS  /var/folders/hl/qgbwny5j0fd895c2c41bk3tw0000gp/T//ccRMOALe.s 			page 104


  60:../../libDaisy//src/hid/disp/graphics_common.h ****     int16_t GetBottom() const { return y_ + height_; }
 3014              		.loc 18 60 13 view .LVU712
 3015              	.LBB935:
  60:../../libDaisy//src/hid/disp/graphics_common.h ****     int16_t GetBottom() const { return y_ + height_; }
 3016              		.loc 18 60 32 view .LVU713
  60:../../libDaisy//src/hid/disp/graphics_common.h ****     int16_t GetBottom() const { return y_ + height_; }
 3017              		.loc 18 60 42 is_stmt 0 view .LVU714
 3018 0058 A188     		ldrh	r1, [r4, #4]
 3019              	.LVL259:
  60:../../libDaisy//src/hid/disp/graphics_common.h ****     int16_t GetBottom() const { return y_ + height_; }
 3020              		.loc 18 60 42 view .LVU715
 3021 005a 2788     		ldrh	r7, [r4]
 3022 005c 0F44     		add	r7, r7, r1
 3023              	.LBE935:
 3024              	.LBE934:
 3025              	.LBB936:
 3026              	.LBB937:
  63:../../libDaisy//src/hid/disp/graphics_common.h **** 
 3027              		.loc 18 63 54 view .LVU716
 3028 005e B4F90610 		ldrsh	r1, [r4, #6]
 3029              	.LBE937:
 3030              	.LBE936:
 246:../../libDaisy//src/hid/disp/graphics_common.h ****                         int16_t(y_ + (other.GetCenterY() - GetCenterY())),
 3031              		.loc 18 246 50 view .LVU717
 3032 0062 FF1A     		subs	r7, r7, r3
 3033              	.LBB941:
 3034              	.LBB938:
  63:../../libDaisy//src/hid/disp/graphics_common.h **** 
 3035              		.loc 18 63 54 view .LVU718
 3036 0064 0029     		cmp	r1, #0
 3037              	.LBE938:
 3038              	.LBE941:
 246:../../libDaisy//src/hid/disp/graphics_common.h ****                         int16_t(y_ + (other.GetCenterY() - GetCenterY())),
 3039              		.loc 18 246 50 view .LVU719
 3040 0066 BFB2     		uxth	r7, r7
 3041              	.LVL260:
 3042              	.LBB942:
 3043              	.LBI936:
  63:../../libDaisy//src/hid/disp/graphics_common.h **** 
 3044              		.loc 18 63 13 is_stmt 1 view .LVU720
 3045              	.LBB939:
  63:../../libDaisy//src/hid/disp/graphics_common.h **** 
 3046              		.loc 18 63 34 view .LVU721
  63:../../libDaisy//src/hid/disp/graphics_common.h **** 
 3047              		.loc 18 63 34 is_stmt 0 view .LVU722
 3048              	.LBE939:
 3049              	.LBE942:
 3050              	.LBB943:
 3051              	.LBI943:
  63:../../libDaisy//src/hid/disp/graphics_common.h **** 
 3052              		.loc 18 63 13 is_stmt 1 view .LVU723
 3053              	.LBB944:
  63:../../libDaisy//src/hid/disp/graphics_common.h **** 
 3054              		.loc 18 63 34 view .LVU724
  63:../../libDaisy//src/hid/disp/graphics_common.h **** 
 3055              		.loc 18 63 34 is_stmt 0 view .LVU725
 3056              	.LBE944:
ARM GAS  /var/folders/hl/qgbwny5j0fd895c2c41bk3tw0000gp/T//ccRMOALe.s 			page 105


 3057              	.LBE943:
 3058              	.LBB945:
 3059              	.LBB940:
  63:../../libDaisy//src/hid/disp/graphics_common.h **** 
 3060              		.loc 18 63 54 view .LVU726
 3061 0068 C0F2FE80 		blt	.L300
 3062              	.L244:
  63:../../libDaisy//src/hid/disp/graphics_common.h **** 
 3063              		.loc 18 63 54 view .LVU727
 3064              	.LBE940:
 3065              	.LBE945:
 3066              	.LBB946:
 3067              	.LBB947:
  63:../../libDaisy//src/hid/disp/graphics_common.h **** 
 3068              		.loc 18 63 44 view .LVU728
 3069 006c 6488     		ldrh	r4, [r4, #2]
 3070              	.LVL261:
  63:../../libDaisy//src/hid/disp/graphics_common.h **** 
 3071              		.loc 18 63 44 view .LVU729
 3072              	.LBE947:
 3073              	.LBE946:
 3074              	.LBB953:
 3075              	.LBB954:
 3076              	.LBB955:
  32:../../libDaisy//src/hid/disp/graphics_common.h ****     {
 3077              		.loc 18 32 66 view .LVU730
 3078 006e 0698     		ldr	r0, [sp, #24]
 3079              	.LBE955:
 3080              	.LBE954:
 3081              	.LBE953:
 3082              	.LBB966:
 3083              	.LBB948:
  63:../../libDaisy//src/hid/disp/graphics_common.h **** 
 3084              		.loc 18 63 44 view .LVU731
 3085 0070 04EB6104 		add	r4, r4, r1, asr #1
 3086              	.LBE948:
 3087              	.LBE966:
 3088              	.LBB967:
 3089              	.LBB962:
 3090              	.LBB958:
  32:../../libDaisy//src/hid/disp/graphics_common.h ****     {
 3091              		.loc 18 32 66 view .LVU732
 3092 0074 C280     		strh	r2, [r0, #6]	@ movhi
 3093              	.LBE958:
 3094              	.LBE962:
 3095              	.LBE967:
 252:../../libDaisy//src/hid/disp/graphics_common.h ****                         width_,
 3096              		.loc 18 252 58 view .LVU733
 3097 0076 A4EB5202 		sub	r2, r4, r2, lsr #1
 3098              	.LBB968:
 3099              	.LBB963:
 3100              	.LBB959:
  32:../../libDaisy//src/hid/disp/graphics_common.h ****     {
 3101              		.loc 18 32 66 view .LVU734
 3102 007a 8380     		strh	r3, [r0, #4]	@ movhi
 3103 007c 0780     		strh	r7, [r0]	@ movhi
 3104              	.LBE959:
ARM GAS  /var/folders/hl/qgbwny5j0fd895c2c41bk3tw0000gp/T//ccRMOALe.s 			page 106


 3105              	.LBE963:
 3106              	.LBE968:
 252:../../libDaisy//src/hid/disp/graphics_common.h ****                         width_,
 3107              		.loc 18 252 58 view .LVU735
 3108 007e 94B2     		uxth	r4, r2
 3109              	.LVL262:
 3110              	.LBB969:
 3111              	.LBI953:
  31:../../libDaisy//src/hid/disp/graphics_common.h ****     : x_(x), y_(y), width_(max(0, width)), height_(max(0, height))
 3112              		.loc 18 31 5 is_stmt 1 view .LVU736
 3113              	.LBB964:
 3114              	.LBB960:
  32:../../libDaisy//src/hid/disp/graphics_common.h ****     {
 3115              		.loc 18 32 66 is_stmt 0 view .LVU737
 3116 0080 4480     		strh	r4, [r0, #2]	@ movhi
 3117              	.LVL263:
 3118              	.LBB956:
 3119              	.LBI956:
 3120              		.loc 18 261 13 is_stmt 1 view .LVU738
 3121              	.LBE956:
 3122              	.LBE960:
 3123              	.LBE964:
 3124              	.LBE969:
 3125              	.LBE933:
 3126              	.LBE932:
 3127              		.loc 18 261 41 view .LVU739
 3128              	.LBB1158:
 3129              	.LBB1136:
 3130              	.LBB970:
 3131              	.LBB965:
 3132              	.LBB961:
 3133              	.LBB957:
 3134              	.LBI957:
 3135              		.loc 18 261 13 view .LVU740
 3136              	.LBE957:
 3137              	.LBE961:
 3138              	.LBE965:
 3139              	.LBE970:
 3140              	.LBE1136:
 3141              	.LBE1158:
 3142              		.loc 18 261 41 view .LVU741
 3143              	.L238:
  56:../../libDaisy//src/hid/disp/graphics_common.h ****     int16_t GetY() const { return y_; }
 3144              		.loc 18 56 28 view .LVU742
  57:../../libDaisy//src/hid/disp/graphics_common.h ****     int16_t GetWidth() const { return width_; }
 3145              		.loc 18 57 28 view .LVU743
 3146              	.LBB1159:
 3147              	.LBI1159:
 171:../../libDaisy//src/hid/disp/display.h ****     {
 3148              		.loc 9 171 10 view .LVU744
 3149              	.LBB1160:
 173:../../libDaisy//src/hid/disp/display.h ****         currentY_ = (y >= Height()) ? Height() - 1 : y;
 3150              		.loc 9 173 9 view .LVU745
 3151 0082 A64A     		ldr	r2, .L310
 173:../../libDaisy//src/hid/disp/display.h ****         currentY_ = (y >= Height()) ? Height() - 1 : y;
 3152              		.loc 9 173 33 is_stmt 0 view .LVU746
 3153 0084 D8F80030 		ldr	r3, [r8]
ARM GAS  /var/folders/hl/qgbwny5j0fd895c2c41bk3tw0000gp/T//ccRMOALe.s 			page 107


 3154 0088 1146     		mov	r1, r2
 3155 008a 0192     		str	r2, [sp, #4]
 3156 008c DA68     		ldr	r2, [r3, #12]
 3157 008e 8A42     		cmp	r2, r1
 3158 0090 40F08B81 		bne	.L246
 3159 0094 8020     		movs	r0, #128
 3160              	.LVL264:
 3161              	.L247:
 173:../../libDaisy//src/hid/disp/display.h ****         currentY_ = (y >= Height()) ? Height() - 1 : y;
 3162              		.loc 9 173 19 view .LVU747
 3163 0096 B842     		cmp	r0, r7
 3164 0098 05D8     		bhi	.L248
 173:../../libDaisy//src/hid/disp/display.h ****         currentY_ = (y >= Height()) ? Height() - 1 : y;
 3165              		.loc 9 173 44 view .LVU748
 3166 009a DA68     		ldr	r2, [r3, #12]
 3167 009c 0199     		ldr	r1, [sp, #4]
 3168 009e 8A42     		cmp	r2, r1
 3169 00a0 40F09881 		bne	.L301
 3170 00a4 7F27     		movs	r7, #127
 3171              	.L248:
 3172 00a6 9E4A     		ldr	r2, .L310+4
 174:../../libDaisy//src/hid/disp/display.h ****     }
 3173              		.loc 9 174 34 view .LVU749
 3174 00a8 9B68     		ldr	r3, [r3, #8]
 173:../../libDaisy//src/hid/disp/display.h ****         currentY_ = (y >= Height()) ? Height() - 1 : y;
 3175              		.loc 9 173 19 view .LVU750
 3176 00aa A8F80470 		strh	r7, [r8, #4]	@ movhi
 174:../../libDaisy//src/hid/disp/display.h ****     }
 3177              		.loc 9 174 9 is_stmt 1 view .LVU751
 3178 00ae 9342     		cmp	r3, r2
 3179 00b0 0392     		str	r2, [sp, #12]
 3180 00b2 40F08781 		bne	.L278
 174:../../libDaisy//src/hid/disp/display.h ****     }
 3181              		.loc 9 174 34 is_stmt 0 view .LVU752
 3182 00b6 4020     		movs	r0, #64
 3183              	.L250:
 174:../../libDaisy//src/hid/disp/display.h ****     }
 3184              		.loc 9 174 19 view .LVU753
 3185 00b8 A042     		cmp	r0, r4
 3186 00ba 07D8     		bhi	.L252
 174:../../libDaisy//src/hid/disp/display.h ****     }
 3187              		.loc 9 174 46 view .LVU754
 3188 00bc D8F80030 		ldr	r3, [r8]
 3189 00c0 039A     		ldr	r2, [sp, #12]
 3190 00c2 9B68     		ldr	r3, [r3, #8]
 3191 00c4 9342     		cmp	r3, r2
 3192 00c6 40F08081 		bne	.L302
 3193 00ca 3F24     		movs	r4, #63
 3194              	.L252:
 174:../../libDaisy//src/hid/disp/display.h ****     }
 3195              		.loc 9 174 46 view .LVU755
 3196              	.LBE1160:
 3197              	.LBE1159:
 3198              	.LBB1164:
 3199              	.LBB1165:
 443:../../libDaisy//src/hid/disp/display.h ****         {
 3200              		.loc 9 443 9 view .LVU756
ARM GAS  /var/folders/hl/qgbwny5j0fd895c2c41bk3tw0000gp/T//ccRMOALe.s 			page 108


 3201 00cc 009B     		ldr	r3, [sp]
 3202              	.LBE1165:
 3203              	.LBE1164:
 3204              	.LBB1213:
 3205              	.LBB1161:
 174:../../libDaisy//src/hid/disp/display.h ****     }
 3206              		.loc 9 174 19 view .LVU757
 3207 00ce A8F80640 		strh	r4, [r8, #6]	@ movhi
 3208              	.LVL265:
 174:../../libDaisy//src/hid/disp/display.h ****     }
 3209              		.loc 9 174 19 view .LVU758
 3210              	.LBE1161:
 3211              	.LBE1213:
 3212              	.LBB1214:
 3213              	.LBB1210:
 443:../../libDaisy//src/hid/disp/display.h ****         {
 3214              		.loc 9 443 9 view .LVU759
 3215 00d2 93F800B0 		ldrb	fp, [r3]	@ zero_extendqisi2
 3216 00d6 6B78     		ldrb	r3, [r5, #1]	@ zero_extendqisi2
 3217              	.LVL266:
 443:../../libDaisy//src/hid/disp/display.h ****         {
 3218              		.loc 9 443 9 view .LVU760
 3219 00d8 2C78     		ldrb	r4, [r5]	@ zero_extendqisi2
 3220              	.LVL267:
 443:../../libDaisy//src/hid/disp/display.h ****         {
 3221              		.loc 9 443 9 view .LVU761
 3222 00da 0493     		str	r3, [sp, #16]
 3223              	.LVL268:
 443:../../libDaisy//src/hid/disp/display.h ****         {
 3224              		.loc 9 443 9 view .LVU762
 3225 00dc 6B68     		ldr	r3, [r5, #4]
 3226 00de 0793     		str	r3, [sp, #28]
 3227              	.LVL269:
 443:../../libDaisy//src/hid/disp/display.h ****         {
 3228              		.loc 9 443 9 view .LVU763
 3229              	.LBE1210:
 3230              	.LBI1164:
 440:../../libDaisy//src/hid/disp/display.h ****     {
 3231              		.loc 9 440 10 is_stmt 1 view .LVU764
 3232              	.LBB1211:
 443:../../libDaisy//src/hid/disp/display.h ****         {
 3233              		.loc 9 443 9 view .LVU765
 3234 00e0 BBF1000F 		cmp	fp, #0
 3235 00e4 00F0AC80 		beq	.L224
 3236              	.LVL270:
 3237              	.L254:
 3238              	.LBB1166:
 3239              	.LBI1166:
 396:../../libDaisy//src/hid/disp/display.h ****     {
 3240              		.loc 9 396 10 view .LVU766
 3241              	.LBB1167:
 401:../../libDaisy//src/hid/disp/display.h ****             return 0;
 3242              		.loc 9 401 20 is_stmt 0 view .LVU767
 3243 00e8 ABF12005 		sub	r5, fp, #32
 401:../../libDaisy//src/hid/disp/display.h ****             return 0;
 3244              		.loc 9 401 9 view .LVU768
 3245 00ec EBB2     		uxtb	r3, r5
ARM GAS  /var/folders/hl/qgbwny5j0fd895c2c41bk3tw0000gp/T//ccRMOALe.s 			page 109


 3246 00ee 5E2B     		cmp	r3, #94
 3247 00f0 00F22C81 		bhi	.L258
 405:../../libDaisy//src/hid/disp/display.h ****            || Height() < (currentY_ + font.FontHeight))
 3248              		.loc 9 405 17 view .LVU769
 3249 00f4 D8F80030 		ldr	r3, [r8]
 3250 00f8 019A     		ldr	r2, [sp, #4]
 3251 00fa DB68     		ldr	r3, [r3, #12]
 3252 00fc 9342     		cmp	r3, r2
 3253 00fe 40F02881 		bne	.L303
 3254 0102 8020     		movs	r0, #128
 3255              	.L257:
 405:../../libDaisy//src/hid/disp/display.h ****            || Height() < (currentY_ + font.FontHeight))
 3256              		.loc 9 405 23 view .LVU770
 3257 0104 B8F80430 		ldrh	r3, [r8, #4]
 405:../../libDaisy//src/hid/disp/display.h ****            || Height() < (currentY_ + font.FontHeight))
 3258              		.loc 9 405 33 view .LVU771
 3259 0108 2344     		add	r3, r3, r4
 406:../../libDaisy//src/hid/disp/display.h ****         {
 3260              		.loc 9 406 12 view .LVU772
 3261 010a 9842     		cmp	r0, r3
 3262 010c C0F21E81 		blt	.L258
 406:../../libDaisy//src/hid/disp/display.h ****         {
 3263              		.loc 9 406 21 view .LVU773
 3264 0110 D8F80030 		ldr	r3, [r8]
 3265 0114 039A     		ldr	r2, [sp, #12]
 3266 0116 9B68     		ldr	r3, [r3, #8]
 3267 0118 9342     		cmp	r3, r2
 3268 011a 40F01D81 		bne	.L304
 3269 011e 4020     		movs	r0, #64
 3270              	.L259:
 406:../../libDaisy//src/hid/disp/display.h ****         {
 3271              		.loc 9 406 27 view .LVU774
 3272 0120 B8F80610 		ldrh	r1, [r8, #6]
 406:../../libDaisy//src/hid/disp/display.h ****         {
 3273              		.loc 9 406 37 view .LVU775
 3274 0124 049A     		ldr	r2, [sp, #16]
 406:../../libDaisy//src/hid/disp/display.h ****         {
 3275              		.loc 9 406 27 view .LVU776
 3276 0126 0291     		str	r1, [sp, #8]
 406:../../libDaisy//src/hid/disp/display.h ****         {
 3277              		.loc 9 406 37 view .LVU777
 3278 0128 8B18     		adds	r3, r1, r2
 406:../../libDaisy//src/hid/disp/display.h ****         {
 3279              		.loc 9 406 12 view .LVU778
 3280 012a 9842     		cmp	r0, r3
 3281 012c C0F20E81 		blt	.L258
 3282              	.LVL271:
 413:../../libDaisy//src/hid/disp/display.h ****         {
 3283              		.loc 9 413 22 is_stmt 1 view .LVU779
 3284 0130 002A     		cmp	r2, #0
 3285 0132 00F01C81 		beq	.L260
 415:../../libDaisy//src/hid/disp/display.h ****             for(j = 0; j < font.FontWidth; j++)
 3286              		.loc 9 415 37 is_stmt 0 view .LVU780
 3287 0136 02FB05F5 		mul	r5, r2, r5
 3288 013a 6FF0004E 		mvn	lr, #-2147483648
 3289 013e 079B     		ldr	r3, [sp, #28]
 3290 0140 AE44     		add	lr, lr, r5
ARM GAS  /var/folders/hl/qgbwny5j0fd895c2c41bk3tw0000gp/T//ccRMOALe.s 			page 110


 3291 0142 1544     		add	r5, r5, r2
 3292 0144 CDF814B0 		str	fp, [sp, #20]
 3293 0148 03EB4E0E 		add	lr, r3, lr, lsl #1
 3294 014c 023B     		subs	r3, r3, #2
 434:../../libDaisy//src/hid/disp/display.h **** 
 3295              		.loc 9 434 19 view .LVU781
 3296 014e B8F804A0 		ldrh	r10, [r8, #4]
 3297 0152 03EB4503 		add	r3, r3, r5, lsl #1
 3298 0156 0D46     		mov	r5, r1
 3299 0158 9B46     		mov	fp, r3
 3300              	.LVL272:
 3301              	.L263:
 415:../../libDaisy//src/hid/disp/display.h ****             for(j = 0; j < font.FontWidth; j++)
 3302              		.loc 9 415 15 view .LVU782
 3303 015a 3EF8027F 		ldrh	r7, [lr, #2]!
 3304              	.LVL273:
 416:../../libDaisy//src/hid/disp/display.h ****             {
 3305              		.loc 9 416 26 is_stmt 1 view .LVU783
 3306 015e A4B3     		cbz	r4, .L268
 3307              	.LBB1168:
 3308              	.LBB1169:
 3309              	.LBB1170:
 3310              	.LBB1171:
 3311              	.LBB1172:
 359:../../libDaisy//src/dev/oled_ssd130x.h ****     }
 3312              		.loc 10 359 55 is_stmt 0 view .LVU784
 3313 0160 05F00703 		and	r3, r5, #7
 359:../../libDaisy//src/dev/oled_ssd130x.h ****     }
 3314              		.loc 10 359 49 view .LVU785
 3315 0164 4FF0010C 		mov	ip, #1
 359:../../libDaisy//src/dev/oled_ssd130x.h ****     }
 3316              		.loc 10 359 28 view .LVU786
 3317 0168 EA08     		lsrs	r2, r5, #3
 3318 016a 5146     		mov	r1, r10
 359:../../libDaisy//src/dev/oled_ssd130x.h ****     }
 3319              		.loc 10 359 49 view .LVU787
 3320 016c 0CFA03FC 		lsl	ip, ip, r3
 3321 0170 0AF11003 		add	r3, r10, #16
 359:../../libDaisy//src/dev/oled_ssd130x.h ****     }
 3322              		.loc 10 359 42 view .LVU788
 3323 0174 4FFA8CFC 		sxtb	ip, ip
 3324 0178 03EBC212 		add	r2, r3, r2, lsl #7
 3325              	.LBE1172:
 3326              	.LBE1171:
 3327              	.LBE1170:
 3328              	.LBE1169:
 3329              	.LBE1168:
 416:../../libDaisy//src/hid/disp/display.h ****             {
 3330              		.loc 9 416 19 view .LVU789
 3331 017c 0023     		movs	r3, #0
 3332              	.LBB1190:
 3333              	.LBB1185:
 3334              	.LBB1180:
 3335              	.LBB1176:
 3336              	.LBB1173:
 359:../../libDaisy//src/dev/oled_ssd130x.h ****     }
 3337              		.loc 10 359 42 view .LVU790
ARM GAS  /var/folders/hl/qgbwny5j0fd895c2c41bk3tw0000gp/T//ccRMOALe.s 			page 111


 3338 017e 6FEA0C09 		mvn	r9, ip
 3339 0182 4244     		add	r2, r2, r8
 3340 0184 0DE0     		b	.L269
 3341              	.LVL274:
 3342              	.L305:
 359:../../libDaisy//src/dev/oled_ssd130x.h ****     }
 3343              		.loc 10 359 42 view .LVU791
 3344              	.LBE1173:
 3345              	.LBE1176:
 3346              	.LBE1180:
 3347              	.LBE1185:
 3348              	.LBE1190:
 3349              	.LBB1191:
 3350              	.LBI1191:
  42:../../libDaisy//src/hid/disp/oled_display.h ****     {
 3351              		.loc 8 42 10 is_stmt 1 view .LVU792
 3352              	.LBB1192:
 3353              	.LBI1192:
 352:../../libDaisy//src/dev/oled_ssd130x.h ****     {
 3354              		.loc 10 352 10 view .LVU793
 3355              	.LBB1193:
 354:../../libDaisy//src/dev/oled_ssd130x.h ****             return;
 3356              		.loc 10 354 9 is_stmt 0 view .LVU794
 3357 0186 7F29     		cmp	r1, #127
 3358 0188 06D8     		bhi	.L265
 3359 018a 3F2D     		cmp	r5, #63
 3360 018c 04D8     		bhi	.L265
 357:../../libDaisy//src/dev/oled_ssd130x.h ****         else
 3361              		.loc 10 357 42 view .LVU795
 3362 018e 1078     		ldrb	r0, [r2]	@ zero_extendqisi2
 356:../../libDaisy//src/dev/oled_ssd130x.h ****             buffer_[x + (y / 8) * width] |= (1 << (y % 8));
 3363              		.loc 10 356 9 view .LVU796
 3364 0190 96B1     		cbz	r6, .L267
 3365              	.L299:
 356:../../libDaisy//src/dev/oled_ssd130x.h ****             buffer_[x + (y / 8) * width] |= (1 << (y % 8));
 3366              		.loc 10 356 9 view .LVU797
 3367              	.LBE1193:
 3368              	.LBE1192:
 3369              	.LBE1191:
 3370              	.LBB1194:
 3371              	.LBB1186:
 3372              	.LBB1181:
 357:../../libDaisy//src/dev/oled_ssd130x.h ****         else
 3373              		.loc 10 357 42 view .LVU798
 3374 0192 4CEA0000 		orr	r0, ip, r0
 3375 0196 1070     		strb	r0, [r2]
 3376              	.L265:
 3377              	.LBE1181:
 3378              	.LBE1186:
 3379              	.LBE1194:
 416:../../libDaisy//src/hid/disp/display.h ****             {
 3380              		.loc 9 416 13 is_stmt 1 view .LVU799
 3381 0198 0133     		adds	r3, r3, #1
 3382              	.LVL275:
 416:../../libDaisy//src/hid/disp/display.h ****             {
 3383              		.loc 9 416 26 view .LVU800
 3384 019a 0132     		adds	r2, r2, #1
ARM GAS  /var/folders/hl/qgbwny5j0fd895c2c41bk3tw0000gp/T//ccRMOALe.s 			page 112


 3385 019c 0131     		adds	r1, r1, #1
 3386 019e 9C42     		cmp	r4, r3
 3387 01a0 13D0     		beq	.L268
 3388              	.LVL276:
 3389              	.L269:
 418:../../libDaisy//src/hid/disp/display.h ****                 {
 3390              		.loc 9 418 23 is_stmt 0 view .LVU801
 3391 01a2 07FA03F0 		lsl	r0, r7, r3
 418:../../libDaisy//src/hid/disp/display.h ****                 {
 3392              		.loc 9 418 17 view .LVU802
 3393 01a6 0004     		lsls	r0, r0, #16
 3394 01a8 EDD4     		bmi	.L305
 3395              	.LVL277:
 3396              	.LBB1195:
 3397              	.LBI1168:
  42:../../libDaisy//src/hid/disp/oled_display.h ****     {
 3398              		.loc 8 42 10 is_stmt 1 view .LVU803
 3399              	.LBB1187:
 3400              	.LBI1169:
 352:../../libDaisy//src/dev/oled_ssd130x.h ****     {
 3401              		.loc 10 352 10 view .LVU804
 3402              	.LBB1182:
 354:../../libDaisy//src/dev/oled_ssd130x.h ****             return;
 3403              		.loc 10 354 9 is_stmt 0 view .LVU805
 3404 01aa 7F29     		cmp	r1, #127
 3405 01ac F4D8     		bhi	.L265
 3406 01ae 3F2D     		cmp	r5, #63
 3407 01b0 F2D8     		bhi	.L265
 357:../../libDaisy//src/dev/oled_ssd130x.h ****         else
 3408              		.loc 10 357 42 view .LVU806
 3409 01b2 1078     		ldrb	r0, [r2]	@ zero_extendqisi2
 356:../../libDaisy//src/dev/oled_ssd130x.h ****             buffer_[x + (y / 8) * width] |= (1 << (y % 8));
 3410              		.loc 10 356 9 view .LVU807
 3411 01b4 002E     		cmp	r6, #0
 3412 01b6 ECD0     		beq	.L299
 3413              	.L267:
 3414              	.LVL278:
 3415              	.LBB1177:
 3416              	.LBI1171:
 352:../../libDaisy//src/dev/oled_ssd130x.h ****     {
 3417              		.loc 10 352 10 is_stmt 1 view .LVU808
 352:../../libDaisy//src/dev/oled_ssd130x.h ****     {
 3418              		.loc 10 352 10 is_stmt 0 view .LVU809
 3419              	.LBE1177:
 3420              	.LBE1182:
 3421              	.LBE1187:
 3422              	.LBE1195:
 416:../../libDaisy//src/hid/disp/display.h ****             {
 3423              		.loc 9 416 13 view .LVU810
 3424 01b8 0133     		adds	r3, r3, #1
 3425              	.LVL279:
 3426              	.LBB1196:
 3427              	.LBB1188:
 3428              	.LBB1183:
 3429              	.LBB1178:
 3430              	.LBB1174:
 359:../../libDaisy//src/dev/oled_ssd130x.h ****     }
ARM GAS  /var/folders/hl/qgbwny5j0fd895c2c41bk3tw0000gp/T//ccRMOALe.s 			page 113


 3431              		.loc 10 359 42 view .LVU811
 3432 01ba 09EA0000 		and	r0, r9, r0
 3433              	.LBE1174:
 3434              	.LBE1178:
 3435              	.LBE1183:
 3436              	.LBE1188:
 3437              	.LBE1196:
 416:../../libDaisy//src/hid/disp/display.h ****             {
 3438              		.loc 9 416 26 view .LVU812
 3439 01be 0132     		adds	r2, r2, #1
 3440 01c0 0131     		adds	r1, r1, #1
 3441 01c2 9C42     		cmp	r4, r3
 3442              	.LBB1197:
 3443              	.LBB1189:
 3444              	.LBB1184:
 3445              	.LBB1179:
 3446              	.LBB1175:
 359:../../libDaisy//src/dev/oled_ssd130x.h ****     }
 3447              		.loc 10 359 42 view .LVU813
 3448 01c4 02F8010C 		strb	r0, [r2, #-1]
 359:../../libDaisy//src/dev/oled_ssd130x.h ****     }
 3449              		.loc 10 359 42 view .LVU814
 3450              	.LBE1175:
 3451              	.LBE1179:
 3452              	.LBE1184:
 3453              	.LBE1189:
 3454              	.LBE1197:
 416:../../libDaisy//src/hid/disp/display.h ****             {
 3455              		.loc 9 416 13 is_stmt 1 view .LVU815
 3456              	.LVL280:
 416:../../libDaisy//src/hid/disp/display.h ****             {
 3457              		.loc 9 416 26 view .LVU816
 3458 01c8 EBD1     		bne	.L269
 3459              	.LVL281:
 3460              	.L268:
 413:../../libDaisy//src/hid/disp/display.h ****         {
 3461              		.loc 9 413 9 view .LVU817
 413:../../libDaisy//src/hid/disp/display.h ****         {
 3462              		.loc 9 413 22 view .LVU818
 3463 01ca F345     		cmp	fp, lr
 3464 01cc 05F10105 		add	r5, r5, #1
 3465 01d0 C3D1     		bne	.L263
 3466 01d2 DDF814B0 		ldr	fp, [sp, #20]
 3467              	.LVL282:
 3468              	.L262:
 3469              	.LBB1198:
 3470              	.LBB1199:
 173:../../libDaisy//src/hid/disp/display.h ****         currentY_ = (y >= Height()) ? Height() - 1 : y;
 3471              		.loc 9 173 33 is_stmt 0 view .LVU819
 3472 01d6 D8F80020 		ldr	r2, [r8]
 3473              	.LBE1199:
 3474              	.LBE1198:
 434:../../libDaisy//src/hid/disp/display.h **** 
 3475              		.loc 9 434 18 view .LVU820
 3476 01da 0AEB0405 		add	r5, r10, r4
 3477 01de 0199     		ldr	r1, [sp, #4]
 3478              	.LBB1204:
ARM GAS  /var/folders/hl/qgbwny5j0fd895c2c41bk3tw0000gp/T//ccRMOALe.s 			page 114


 3479              	.LBB1200:
 173:../../libDaisy//src/hid/disp/display.h ****         currentY_ = (y >= Height()) ? Height() - 1 : y;
 3480              		.loc 9 173 33 view .LVU821
 3481 01e0 D368     		ldr	r3, [r2, #12]
 3482              	.LBE1200:
 3483              	.LBE1204:
 434:../../libDaisy//src/hid/disp/display.h **** 
 3484              		.loc 9 434 18 view .LVU822
 3485 01e2 ADB2     		uxth	r5, r5
 3486              	.LVL283:
 3487              	.LBB1205:
 3488              	.LBI1198:
 171:../../libDaisy//src/hid/disp/display.h ****     {
 3489              		.loc 9 171 10 is_stmt 1 view .LVU823
 3490              	.LBB1201:
 173:../../libDaisy//src/hid/disp/display.h ****         currentY_ = (y >= Height()) ? Height() - 1 : y;
 3491              		.loc 9 173 9 view .LVU824
 3492 01e4 8B42     		cmp	r3, r1
 3493 01e6 40F0BD80 		bne	.L306
 173:../../libDaisy//src/hid/disp/display.h ****         currentY_ = (y >= Height()) ? Height() - 1 : y;
 3494              		.loc 9 173 33 is_stmt 0 view .LVU825
 3495 01ea 8020     		movs	r0, #128
 3496              	.L270:
 173:../../libDaisy//src/hid/disp/display.h ****         currentY_ = (y >= Height()) ? Height() - 1 : y;
 3497              		.loc 9 173 19 view .LVU826
 3498 01ec 8542     		cmp	r5, r0
 3499 01ee 05D3     		bcc	.L271
 173:../../libDaisy//src/hid/disp/display.h ****         currentY_ = (y >= Height()) ? Height() - 1 : y;
 3500              		.loc 9 173 44 view .LVU827
 3501 01f0 D368     		ldr	r3, [r2, #12]
 3502 01f2 0199     		ldr	r1, [sp, #4]
 3503 01f4 8B42     		cmp	r3, r1
 3504 01f6 40F0C380 		bne	.L307
 3505 01fa 7F25     		movs	r5, #127
 3506              	.LVL284:
 3507              	.L271:
 174:../../libDaisy//src/hid/disp/display.h ****     }
 3508              		.loc 9 174 34 view .LVU828
 3509 01fc 9368     		ldr	r3, [r2, #8]
 3510 01fe 039A     		ldr	r2, [sp, #12]
 173:../../libDaisy//src/hid/disp/display.h ****         currentY_ = (y >= Height()) ? Height() - 1 : y;
 3511              		.loc 9 173 19 view .LVU829
 3512 0200 A8F80450 		strh	r5, [r8, #4]	@ movhi
 174:../../libDaisy//src/hid/disp/display.h ****     }
 3513              		.loc 9 174 9 is_stmt 1 view .LVU830
 3514 0204 9342     		cmp	r3, r2
 3515 0206 40F0AA80 		bne	.L308
 174:../../libDaisy//src/hid/disp/display.h ****     }
 3516              		.loc 9 174 34 is_stmt 0 view .LVU831
 3517 020a 4020     		movs	r0, #64
 3518              	.L273:
 174:../../libDaisy//src/hid/disp/display.h ****     }
 3519              		.loc 9 174 19 view .LVU832
 3520 020c 029B     		ldr	r3, [sp, #8]
 3521 020e 8342     		cmp	r3, r0
 3522 0210 08D3     		bcc	.L274
 174:../../libDaisy//src/hid/disp/display.h ****     }
ARM GAS  /var/folders/hl/qgbwny5j0fd895c2c41bk3tw0000gp/T//ccRMOALe.s 			page 115


 3523              		.loc 9 174 46 view .LVU833
 3524 0212 D8F80030 		ldr	r3, [r8]
 3525 0216 039A     		ldr	r2, [sp, #12]
 3526 0218 9B68     		ldr	r3, [r3, #8]
 3527 021a 9342     		cmp	r3, r2
 3528 021c 40F0AA80 		bne	.L309
 3529 0220 3F23     		movs	r3, #63
 3530 0222 0293     		str	r3, [sp, #8]
 3531              	.LVL285:
 3532              	.L274:
 174:../../libDaisy//src/hid/disp/display.h ****     }
 3533              		.loc 9 174 19 view .LVU834
 3534 0224 029B     		ldr	r3, [sp, #8]
 3535 0226 A8F80630 		strh	r3, [r8, #6]	@ movhi
 3536              	.LVL286:
 3537              	.L256:
 174:../../libDaisy//src/hid/disp/display.h ****     }
 3538              		.loc 9 174 19 view .LVU835
 3539              	.LBE1201:
 3540              	.LBE1205:
 3541              	.LBE1167:
 3542              	.LBE1166:
 445:../../libDaisy//src/hid/disp/display.h ****                != *str)
 3543              		.loc 9 445 13 view .LVU836
 3544 022a 009A     		ldr	r2, [sp]
 3545 022c 1378     		ldrb	r3, [r2]	@ zero_extendqisi2
 3546 022e 5B45     		cmp	r3, fp
 3547 0230 06D1     		bne	.L224
 3548              	.LVL287:
 443:../../libDaisy//src/hid/disp/display.h ****         {
 3549              		.loc 9 443 9 is_stmt 1 view .LVU837
 3550 0232 12F801BF 		ldrb	fp, [r2, #1]!	@ zero_extendqisi2
 3551              	.LVL288:
 443:../../libDaisy//src/hid/disp/display.h ****         {
 3552              		.loc 9 443 9 is_stmt 0 view .LVU838
 3553 0236 0092     		str	r2, [sp]
 3554 0238 BBF1000F 		cmp	fp, #0
 3555 023c 7FF454AF 		bne	.L254
 3556              	.LVL289:
 3557              	.L224:
 443:../../libDaisy//src/hid/disp/display.h ****         {
 3558              		.loc 9 443 9 view .LVU839
 3559              	.LBE1211:
 3560              	.LBE1214:
 471:../../libDaisy//src/hid/disp/display.h **** 
 3561              		.loc 9 471 5 view .LVU840
 3562 0240 0698     		ldr	r0, [sp, #24]
 3563 0242 09B0     		add	sp, sp, #36
 3564              		.cfi_remember_state
 3565              		.cfi_def_cfa_offset 36
 3566              		@ sp needed
 3567 0244 BDE8F08F 		pop	{r4, r5, r6, r7, r8, r9, r10, fp, pc}
 3568              	.LVL290:
 3569              	.L237:
 3570              		.cfi_restore_state
 3571              	.LBB1215:
 3572              	.LBB1137:
ARM GAS  /var/folders/hl/qgbwny5j0fd895c2c41bk3tw0000gp/T//ccRMOALe.s 			page 116


 250:../../libDaisy//src/hid/disp/graphics_common.h ****                 return {int16_t(x_ + (other.GetCenterX() - GetCenterX())),
 3573              		.loc 18 250 13 is_stmt 1 view .LVU841
 251:../../libDaisy//src/hid/disp/graphics_common.h ****                         int16_t(y_ + (other.GetCenterY() - GetCenterY())),
 3574              		.loc 18 251 17 view .LVU842
 3575              	.LBB971:
 3576              	.LBI971:
  62:../../libDaisy//src/hid/disp/graphics_common.h ****     int16_t GetCenterY() const { return y_ + height_ / 2; }
 3577              		.loc 18 62 13 view .LVU843
 3578              	.LBB972:
  62:../../libDaisy//src/hid/disp/graphics_common.h ****     int16_t GetCenterY() const { return y_ + height_ / 2; }
 3579              		.loc 18 62 34 view .LVU844
  62:../../libDaisy//src/hid/disp/graphics_common.h ****     int16_t GetCenterY() const { return y_ + height_ / 2; }
 3580              		.loc 18 62 34 is_stmt 0 view .LVU845
 3581              	.LBE972:
 3582              	.LBE971:
 3583              	.LBB974:
 3584              	.LBI974:
  62:../../libDaisy//src/hid/disp/graphics_common.h ****     int16_t GetCenterY() const { return y_ + height_ / 2; }
 3585              		.loc 18 62 13 is_stmt 1 view .LVU846
 3586              	.LBB975:
  62:../../libDaisy//src/hid/disp/graphics_common.h ****     int16_t GetCenterY() const { return y_ + height_ / 2; }
 3587              		.loc 18 62 34 view .LVU847
  62:../../libDaisy//src/hid/disp/graphics_common.h ****     int16_t GetCenterY() const { return y_ + height_ / 2; }
 3588              		.loc 18 62 34 is_stmt 0 view .LVU848
 3589              	.LBE975:
 3590              	.LBE974:
 3591              	.LBB976:
 3592              	.LBB973:
  62:../../libDaisy//src/hid/disp/graphics_common.h ****     int16_t GetCenterY() const { return y_ + height_ / 2; }
 3593              		.loc 18 62 53 view .LVU849
 3594 0248 B4F90410 		ldrsh	r1, [r4, #4]
 3595              	.LVL291:
  62:../../libDaisy//src/hid/disp/graphics_common.h ****     int16_t GetCenterY() const { return y_ + height_ / 2; }
 3596              		.loc 18 62 44 view .LVU850
 3597 024c 2788     		ldrh	r7, [r4]
  62:../../libDaisy//src/hid/disp/graphics_common.h ****     int16_t GetCenterY() const { return y_ + height_ / 2; }
 3598              		.loc 18 62 53 view .LVU851
 3599 024e 0029     		cmp	r1, #0
 3600 0250 B8BF     		it	lt
 3601 0252 0131     		addlt	r1, r1, #1
  62:../../libDaisy//src/hid/disp/graphics_common.h ****     int16_t GetCenterY() const { return y_ + height_ / 2; }
 3602              		.loc 18 62 44 view .LVU852
 3603 0254 07EB6107 		add	r7, r7, r1, asr #1
 3604              	.LBE973:
 3605              	.LBE976:
 3606              	.LBB977:
 3607              	.LBB949:
  63:../../libDaisy//src/hid/disp/graphics_common.h **** 
 3608              		.loc 18 63 54 view .LVU853
 3609 0258 B4F90610 		ldrsh	r1, [r4, #6]
 3610              	.LBE949:
 3611              	.LBE977:
 251:../../libDaisy//src/hid/disp/graphics_common.h ****                         int16_t(y_ + (other.GetCenterY() - GetCenterY())),
 3612              		.loc 18 251 58 view .LVU854
 3613 025c A7EB6307 		sub	r7, r7, r3, asr #1
 3614              	.LBB978:
 3615              	.LBB950:
ARM GAS  /var/folders/hl/qgbwny5j0fd895c2c41bk3tw0000gp/T//ccRMOALe.s 			page 117


  63:../../libDaisy//src/hid/disp/graphics_common.h **** 
 3616              		.loc 18 63 54 view .LVU855
 3617 0260 0029     		cmp	r1, #0
 3618              	.LBE950:
 3619              	.LBE978:
 251:../../libDaisy//src/hid/disp/graphics_common.h ****                         int16_t(y_ + (other.GetCenterY() - GetCenterY())),
 3620              		.loc 18 251 58 view .LVU856
 3621 0262 BFB2     		uxth	r7, r7
 3622              	.LVL292:
 3623              	.LBB979:
 3624              	.LBI946:
  63:../../libDaisy//src/hid/disp/graphics_common.h **** 
 3625              		.loc 18 63 13 is_stmt 1 view .LVU857
 3626              	.LBB951:
  63:../../libDaisy//src/hid/disp/graphics_common.h **** 
 3627              		.loc 18 63 34 view .LVU858
  63:../../libDaisy//src/hid/disp/graphics_common.h **** 
 3628              		.loc 18 63 34 is_stmt 0 view .LVU859
 3629              	.LBE951:
 3630              	.LBE979:
 3631              	.LBB980:
 3632              	.LBI980:
  63:../../libDaisy//src/hid/disp/graphics_common.h **** 
 3633              		.loc 18 63 13 is_stmt 1 view .LVU860
 3634              	.LBB981:
  63:../../libDaisy//src/hid/disp/graphics_common.h **** 
 3635              		.loc 18 63 34 view .LVU861
  63:../../libDaisy//src/hid/disp/graphics_common.h **** 
 3636              		.loc 18 63 34 is_stmt 0 view .LVU862
 3637              	.LBE981:
 3638              	.LBE980:
 3639              	.LBB982:
 3640              	.LBB952:
  63:../../libDaisy//src/hid/disp/graphics_common.h **** 
 3641              		.loc 18 63 54 view .LVU863
 3642 0264 BFF602AF 		bge	.L244
 3643              	.L300:
  63:../../libDaisy//src/hid/disp/graphics_common.h **** 
 3644              		.loc 18 63 54 view .LVU864
 3645 0268 0131     		adds	r1, r1, #1
 3646 026a FFE6     		b	.L244
 3647              	.LVL293:
 3648              	.L236:
  63:../../libDaisy//src/hid/disp/graphics_common.h **** 
 3649              		.loc 18 63 54 view .LVU865
 3650              	.LBE952:
 3651              	.LBE982:
 213:../../libDaisy//src/hid/disp/graphics_common.h ****                 return {other.x_, other.y_, width_, height_};
 3652              		.loc 18 213 13 is_stmt 1 view .LVU866
 214:../../libDaisy//src/hid/disp/graphics_common.h ****             case Alignment::topRight:
 3653              		.loc 18 214 17 view .LVU867
 214:../../libDaisy//src/hid/disp/graphics_common.h ****             case Alignment::topRight:
 3654              		.loc 18 214 31 is_stmt 0 view .LVU868
 3655 026c B4F90070 		ldrsh	r7, [r4]
 3656              	.LBB983:
 3657              	.LBB984:
 3658              	.LBB985:
ARM GAS  /var/folders/hl/qgbwny5j0fd895c2c41bk3tw0000gp/T//ccRMOALe.s 			page 118


  32:../../libDaisy//src/hid/disp/graphics_common.h ****     {
 3659              		.loc 18 32 66 view .LVU869
 3660 0270 0699     		ldr	r1, [sp, #24]
 3661              	.LVL294:
  32:../../libDaisy//src/hid/disp/graphics_common.h ****     {
 3662              		.loc 18 32 66 view .LVU870
 3663              	.LBE985:
 3664              	.LBE984:
 3665              	.LBE983:
 214:../../libDaisy//src/hid/disp/graphics_common.h ****             case Alignment::topRight:
 3666              		.loc 18 214 41 view .LVU871
 3667 0272 B4F90240 		ldrsh	r4, [r4, #2]
 3668              	.LVL295:
 3669              	.LBB998:
 3670              	.LBI983:
  31:../../libDaisy//src/hid/disp/graphics_common.h ****     : x_(x), y_(y), width_(max(0, width)), height_(max(0, height))
 3671              		.loc 18 31 5 is_stmt 1 view .LVU872
 3672              	.LBB993:
 3673              	.LBB988:
  32:../../libDaisy//src/hid/disp/graphics_common.h ****     {
 3674              		.loc 18 32 66 is_stmt 0 view .LVU873
 3675 0276 0F80     		strh	r7, [r1]	@ movhi
 3676              	.LBE988:
 3677              	.LBE993:
 3678              	.LBE998:
 3679              	.LBE1137:
 3680              	.LBE1215:
 468:../../libDaisy//src/hid/disp/display.h ****         ((ChildType*)(this))->ChildType::WriteString(str, font, on);
 3681              		.loc 9 468 18 view .LVU874
 3682 0278 BFB2     		uxth	r7, r7
 3683              	.LVL296:
 3684              	.LBB1216:
 3685              	.LBB1138:
 3686              	.LBB999:
 3687              	.LBB994:
 3688              	.LBB989:
  32:../../libDaisy//src/hid/disp/graphics_common.h ****     {
 3689              		.loc 18 32 66 view .LVU875
 3690 027a 4C80     		strh	r4, [r1, #2]	@ movhi
 3691              	.LBE989:
 3692              	.LBE994:
 3693              	.LBE999:
 3694              	.LBE1138:
 3695              	.LBE1216:
 468:../../libDaisy//src/hid/disp/display.h ****         ((ChildType*)(this))->ChildType::WriteString(str, font, on);
 3696              		.loc 9 468 18 view .LVU876
 3697 027c A4B2     		uxth	r4, r4
 3698              	.LVL297:
 3699              	.LBB1217:
 3700              	.LBB1139:
 3701              	.LBB1000:
 3702              	.LBB995:
 3703              	.LBB990:
  32:../../libDaisy//src/hid/disp/graphics_common.h ****     {
 3704              		.loc 18 32 66 view .LVU877
 3705 027e 8B80     		strh	r3, [r1, #4]	@ movhi
 3706              	.LVL298:
ARM GAS  /var/folders/hl/qgbwny5j0fd895c2c41bk3tw0000gp/T//ccRMOALe.s 			page 119


 3707              	.LBB986:
 3708              	.LBI986:
 3709              		.loc 18 261 13 is_stmt 1 view .LVU878
 3710              	.LBE986:
 3711              	.LBE990:
 3712              	.LBE995:
 3713              	.LBE1000:
 3714              	.LBE1139:
 3715              	.LBE1217:
 3716              		.loc 18 261 41 view .LVU879
 3717              	.LBB1218:
 3718              	.LBB1140:
 3719              	.LBB1001:
 3720              	.LBB996:
 3721              	.LBB991:
 3722              	.LBB987:
 3723              	.LBI987:
 3724              		.loc 18 261 13 view .LVU880
 3725              	.LBE987:
 3726              	.LBE991:
 3727              	.LBE996:
 3728              	.LBE1001:
 3729              	.LBE1140:
 3730              	.LBE1218:
 3731              		.loc 18 261 41 view .LVU881
 3732              	.LBB1219:
 3733              	.LBB1141:
 3734              	.LBB1002:
 3735              	.LBB997:
 3736              	.LBB992:
  32:../../libDaisy//src/hid/disp/graphics_common.h ****     {
 3737              		.loc 18 32 66 is_stmt 0 view .LVU882
 3738 0280 CA80     		strh	r2, [r1, #6]	@ movhi
 3739              	.LBE992:
  34:../../libDaisy//src/hid/disp/graphics_common.h **** 
 3740              		.loc 18 34 5 view .LVU883
 3741 0282 FEE6     		b	.L238
 3742              	.LVL299:
 3743              	.L235:
  34:../../libDaisy//src/hid/disp/graphics_common.h **** 
 3744              		.loc 18 34 5 view .LVU884
 3745              	.LBE997:
 3746              	.LBE1002:
 220:../../libDaisy//src/hid/disp/graphics_common.h ****                 return {int16_t(x_ + (other.GetCenterX() - GetCenterX())),
 3747              		.loc 18 220 13 is_stmt 1 view .LVU885
 221:../../libDaisy//src/hid/disp/graphics_common.h ****                         other.y_,
 3748              		.loc 18 221 17 view .LVU886
 3749              	.LBB1003:
 3750              	.LBI1003:
  62:../../libDaisy//src/hid/disp/graphics_common.h ****     int16_t GetCenterY() const { return y_ + height_ / 2; }
 3751              		.loc 18 62 13 view .LVU887
 3752              	.LBB1004:
  62:../../libDaisy//src/hid/disp/graphics_common.h ****     int16_t GetCenterY() const { return y_ + height_ / 2; }
 3753              		.loc 18 62 34 view .LVU888
  62:../../libDaisy//src/hid/disp/graphics_common.h ****     int16_t GetCenterY() const { return y_ + height_ / 2; }
 3754              		.loc 18 62 34 is_stmt 0 view .LVU889
 3755              	.LBE1004:
ARM GAS  /var/folders/hl/qgbwny5j0fd895c2c41bk3tw0000gp/T//ccRMOALe.s 			page 120


 3756              	.LBE1003:
 3757              	.LBB1007:
 3758              	.LBI1007:
  62:../../libDaisy//src/hid/disp/graphics_common.h ****     int16_t GetCenterY() const { return y_ + height_ / 2; }
 3759              		.loc 18 62 13 is_stmt 1 view .LVU890
 3760              	.LBB1008:
  62:../../libDaisy//src/hid/disp/graphics_common.h ****     int16_t GetCenterY() const { return y_ + height_ / 2; }
 3761              		.loc 18 62 34 view .LVU891
  62:../../libDaisy//src/hid/disp/graphics_common.h ****     int16_t GetCenterY() const { return y_ + height_ / 2; }
 3762              		.loc 18 62 34 is_stmt 0 view .LVU892
 3763              	.LBE1008:
 3764              	.LBE1007:
 3765              	.LBB1009:
 3766              	.LBB1005:
  62:../../libDaisy//src/hid/disp/graphics_common.h ****     int16_t GetCenterY() const { return y_ + height_ / 2; }
 3767              		.loc 18 62 53 view .LVU893
 3768 0284 B4F90410 		ldrsh	r1, [r4, #4]
 3769              	.LVL300:
  62:../../libDaisy//src/hid/disp/graphics_common.h ****     int16_t GetCenterY() const { return y_ + height_ / 2; }
 3770              		.loc 18 62 44 view .LVU894
 3771 0288 2788     		ldrh	r7, [r4]
  62:../../libDaisy//src/hid/disp/graphics_common.h ****     int16_t GetCenterY() const { return y_ + height_ / 2; }
 3772              		.loc 18 62 53 view .LVU895
 3773 028a 0029     		cmp	r1, #0
 3774              	.LBE1005:
 3775              	.LBE1009:
 222:../../libDaisy//src/hid/disp/graphics_common.h ****                         width_,
 3776              		.loc 18 222 31 view .LVU896
 3777 028c B4F90240 		ldrsh	r4, [r4, #2]
 3778              	.LVL301:
 3779              	.LBB1010:
 3780              	.LBB1006:
  62:../../libDaisy//src/hid/disp/graphics_common.h ****     int16_t GetCenterY() const { return y_ + height_ / 2; }
 3781              		.loc 18 62 53 view .LVU897
 3782 0290 B8BF     		it	lt
 3783 0292 0131     		addlt	r1, r1, #1
  62:../../libDaisy//src/hid/disp/graphics_common.h ****     int16_t GetCenterY() const { return y_ + height_ / 2; }
 3784              		.loc 18 62 44 view .LVU898
 3785 0294 07EB6107 		add	r7, r7, r1, asr #1
 3786              	.LBE1006:
 3787              	.LBE1010:
 3788              	.LBB1011:
 3789              	.LBB1012:
 3790              	.LBB1013:
  32:../../libDaisy//src/hid/disp/graphics_common.h ****     {
 3791              		.loc 18 32 66 view .LVU899
 3792 0298 0699     		ldr	r1, [sp, #24]
 3793 029a 8B80     		strh	r3, [r1, #4]	@ movhi
 3794              	.LBE1013:
 3795              	.LBE1012:
 3796              	.LBE1011:
 221:../../libDaisy//src/hid/disp/graphics_common.h ****                         other.y_,
 3797              		.loc 18 221 58 view .LVU900
 3798 029c A7EB6303 		sub	r3, r7, r3, asr #1
 3799              	.LBB1024:
 3800              	.LBB1020:
 3801              	.LBB1016:
ARM GAS  /var/folders/hl/qgbwny5j0fd895c2c41bk3tw0000gp/T//ccRMOALe.s 			page 121


  32:../../libDaisy//src/hid/disp/graphics_common.h ****     {
 3802              		.loc 18 32 66 view .LVU901
 3803 02a0 4C80     		strh	r4, [r1, #2]	@ movhi
 3804              	.LBE1016:
 3805              	.LBE1020:
 3806              	.LBE1024:
 3807              	.LBE1141:
 3808              	.LBE1219:
 468:../../libDaisy//src/hid/disp/display.h ****         ((ChildType*)(this))->ChildType::WriteString(str, font, on);
 3809              		.loc 9 468 18 view .LVU902
 3810 02a2 A4B2     		uxth	r4, r4
 3811              	.LBB1220:
 3812              	.LBB1142:
 221:../../libDaisy//src/hid/disp/graphics_common.h ****                         other.y_,
 3813              		.loc 18 221 58 view .LVU903
 3814 02a4 9FB2     		uxth	r7, r3
 3815              	.LVL302:
 3816              	.LBB1025:
 3817              	.LBI1011:
  31:../../libDaisy//src/hid/disp/graphics_common.h ****     : x_(x), y_(y), width_(max(0, width)), height_(max(0, height))
 3818              		.loc 18 31 5 is_stmt 1 view .LVU904
 3819              	.LBB1021:
 3820              	.LBB1017:
 3821              	.LBB1014:
 3822              	.LBI1014:
 3823              		.loc 18 261 13 view .LVU905
 3824              	.LBE1014:
 3825              	.LBE1017:
 3826              	.LBE1021:
 3827              	.LBE1025:
 3828              	.LBE1142:
 3829              	.LBE1220:
 3830              		.loc 18 261 41 view .LVU906
 3831              	.LBB1221:
 3832              	.LBB1143:
 3833              	.LBB1026:
 3834              	.LBB1022:
 3835              	.LBB1018:
 3836              	.LBB1015:
 3837              	.LBI1015:
 3838              		.loc 18 261 13 view .LVU907
 3839              	.LBE1015:
 3840              	.LBE1018:
 3841              	.LBE1022:
 3842              	.LBE1026:
 3843              	.LBE1143:
 3844              	.LBE1221:
 3845              		.loc 18 261 41 view .LVU908
 3846              	.LBB1222:
 3847              	.LBB1144:
 3848              	.LBB1027:
 3849              	.LBB1023:
 3850              	.LBB1019:
  32:../../libDaisy//src/hid/disp/graphics_common.h ****     {
 3851              		.loc 18 32 66 is_stmt 0 view .LVU909
 3852 02a6 CA80     		strh	r2, [r1, #6]	@ movhi
 3853 02a8 0F80     		strh	r7, [r1]	@ movhi
ARM GAS  /var/folders/hl/qgbwny5j0fd895c2c41bk3tw0000gp/T//ccRMOALe.s 			page 122


 3854              	.LBE1019:
  34:../../libDaisy//src/hid/disp/graphics_common.h **** 
 3855              		.loc 18 34 5 view .LVU910
 3856 02aa EAE6     		b	.L238
 3857              	.LVL303:
 3858              	.L234:
  34:../../libDaisy//src/hid/disp/graphics_common.h **** 
 3859              		.loc 18 34 5 view .LVU911
 3860              	.LBE1023:
 3861              	.LBE1027:
 215:../../libDaisy//src/hid/disp/graphics_common.h ****                 return {int16_t(other.GetRight() - width_),
 3862              		.loc 18 215 13 is_stmt 1 view .LVU912
 216:../../libDaisy//src/hid/disp/graphics_common.h ****                         other.y_,
 3863              		.loc 18 216 17 view .LVU913
 3864              	.LBB1028:
 3865              	.LBI1028:
  60:../../libDaisy//src/hid/disp/graphics_common.h ****     int16_t GetBottom() const { return y_ + height_; }
 3866              		.loc 18 60 13 view .LVU914
 3867              	.LBB1029:
  60:../../libDaisy//src/hid/disp/graphics_common.h ****     int16_t GetBottom() const { return y_ + height_; }
 3868              		.loc 18 60 32 view .LVU915
  60:../../libDaisy//src/hid/disp/graphics_common.h ****     int16_t GetBottom() const { return y_ + height_; }
 3869              		.loc 18 60 42 is_stmt 0 view .LVU916
 3870 02ac A188     		ldrh	r1, [r4, #4]
 3871              	.LVL304:
  60:../../libDaisy//src/hid/disp/graphics_common.h ****     int16_t GetBottom() const { return y_ + height_; }
 3872              		.loc 18 60 42 view .LVU917
 3873 02ae 2788     		ldrh	r7, [r4]
 3874              	.LBE1029:
 3875              	.LBE1028:
 217:../../libDaisy//src/hid/disp/graphics_common.h ****                         width_,
 3876              		.loc 18 217 31 view .LVU918
 3877 02b0 B4F90240 		ldrsh	r4, [r4, #2]
 3878              	.LVL305:
 3879              	.LBB1031:
 3880              	.LBB1030:
  60:../../libDaisy//src/hid/disp/graphics_common.h ****     int16_t GetBottom() const { return y_ + height_; }
 3881              		.loc 18 60 42 view .LVU919
 3882 02b4 0F44     		add	r7, r7, r1
 3883              	.LBE1030:
 3884              	.LBE1031:
 3885              	.LBB1032:
 3886              	.LBB1033:
 3887              	.LBB1034:
  32:../../libDaisy//src/hid/disp/graphics_common.h ****     {
 3888              		.loc 18 32 66 view .LVU920
 3889 02b6 0699     		ldr	r1, [sp, #24]
 3890 02b8 8B80     		strh	r3, [r1, #4]	@ movhi
 3891              	.LBE1034:
 3892              	.LBE1033:
 3893              	.LBE1032:
 216:../../libDaisy//src/hid/disp/graphics_common.h ****                         other.y_,
 3894              		.loc 18 216 50 view .LVU921
 3895 02ba FB1A     		subs	r3, r7, r3
 3896              	.LBB1045:
 3897              	.LBB1041:
 3898              	.LBB1037:
ARM GAS  /var/folders/hl/qgbwny5j0fd895c2c41bk3tw0000gp/T//ccRMOALe.s 			page 123


  32:../../libDaisy//src/hid/disp/graphics_common.h ****     {
 3899              		.loc 18 32 66 view .LVU922
 3900 02bc 4C80     		strh	r4, [r1, #2]	@ movhi
 3901              	.LBE1037:
 3902              	.LBE1041:
 3903              	.LBE1045:
 3904              	.LBE1144:
 3905              	.LBE1222:
 468:../../libDaisy//src/hid/disp/display.h ****         ((ChildType*)(this))->ChildType::WriteString(str, font, on);
 3906              		.loc 9 468 18 view .LVU923
 3907 02be A4B2     		uxth	r4, r4
 3908              	.LBB1223:
 3909              	.LBB1145:
 216:../../libDaisy//src/hid/disp/graphics_common.h ****                         other.y_,
 3910              		.loc 18 216 50 view .LVU924
 3911 02c0 9FB2     		uxth	r7, r3
 3912              	.LVL306:
 3913              	.LBB1046:
 3914              	.LBI1032:
  31:../../libDaisy//src/hid/disp/graphics_common.h ****     : x_(x), y_(y), width_(max(0, width)), height_(max(0, height))
 3915              		.loc 18 31 5 is_stmt 1 view .LVU925
 3916              	.LBB1042:
 3917              	.LBB1038:
 3918              	.LBB1035:
 3919              	.LBI1035:
 3920              		.loc 18 261 13 view .LVU926
 3921              	.LBE1035:
 3922              	.LBE1038:
 3923              	.LBE1042:
 3924              	.LBE1046:
 3925              	.LBE1145:
 3926              	.LBE1223:
 3927              		.loc 18 261 41 view .LVU927
 3928              	.LBB1224:
 3929              	.LBB1146:
 3930              	.LBB1047:
 3931              	.LBB1043:
 3932              	.LBB1039:
 3933              	.LBB1036:
 3934              	.LBI1036:
 3935              		.loc 18 261 13 view .LVU928
 3936              	.LBE1036:
 3937              	.LBE1039:
 3938              	.LBE1043:
 3939              	.LBE1047:
 3940              	.LBE1146:
 3941              	.LBE1224:
 3942              		.loc 18 261 41 view .LVU929
 3943              	.LBB1225:
 3944              	.LBB1147:
 3945              	.LBB1048:
 3946              	.LBB1044:
 3947              	.LBB1040:
  32:../../libDaisy//src/hid/disp/graphics_common.h ****     {
 3948              		.loc 18 32 66 is_stmt 0 view .LVU930
 3949 02c2 CA80     		strh	r2, [r1, #6]	@ movhi
 3950 02c4 0F80     		strh	r7, [r1]	@ movhi
ARM GAS  /var/folders/hl/qgbwny5j0fd895c2c41bk3tw0000gp/T//ccRMOALe.s 			page 124


 3951              	.LBE1040:
  34:../../libDaisy//src/hid/disp/graphics_common.h **** 
 3952              		.loc 18 34 5 view .LVU931
 3953 02c6 DCE6     		b	.L238
 3954              	.LVL307:
 3955              	.L233:
  34:../../libDaisy//src/hid/disp/graphics_common.h **** 
 3956              		.loc 18 34 5 view .LVU932
 3957              	.LBE1044:
 3958              	.LBE1048:
 225:../../libDaisy//src/hid/disp/graphics_common.h ****                 return {other.x_,
 3959              		.loc 18 225 13 is_stmt 1 view .LVU933
 226:../../libDaisy//src/hid/disp/graphics_common.h ****                         int16_t(other.GetBottom() - height_),
 3960              		.loc 18 226 17 view .LVU934
 3961              	.LBB1049:
 3962              	.LBB1050:
  61:../../libDaisy//src/hid/disp/graphics_common.h ****     int16_t GetCenterX() const { return x_ + width_ / 2; }
 3963              		.loc 18 61 43 is_stmt 0 view .LVU935
 3964 02c8 E788     		ldrh	r7, [r4, #6]
 3965 02ca 6188     		ldrh	r1, [r4, #2]
 3966              	.LVL308:
  61:../../libDaisy//src/hid/disp/graphics_common.h ****     int16_t GetCenterX() const { return x_ + width_ / 2; }
 3967              		.loc 18 61 43 view .LVU936
 3968 02cc 3944     		add	r1, r1, r7
 3969              	.LBE1050:
 3970              	.LBE1049:
 226:../../libDaisy//src/hid/disp/graphics_common.h ****                         int16_t(other.GetBottom() - height_),
 3971              		.loc 18 226 31 view .LVU937
 3972 02ce B4F90070 		ldrsh	r7, [r4]
 227:../../libDaisy//src/hid/disp/graphics_common.h ****                         width_,
 3973              		.loc 18 227 51 view .LVU938
 3974 02d2 081A     		subs	r0, r1, r0
 3975              	.LVL309:
 3976              	.LBB1052:
 3977              	.LBI1049:
  61:../../libDaisy//src/hid/disp/graphics_common.h ****     int16_t GetCenterX() const { return x_ + width_ / 2; }
 3978              		.loc 18 61 13 is_stmt 1 view .LVU939
 3979              	.LBB1051:
  61:../../libDaisy//src/hid/disp/graphics_common.h ****     int16_t GetCenterX() const { return x_ + width_ / 2; }
 3980              		.loc 18 61 33 view .LVU940
  61:../../libDaisy//src/hid/disp/graphics_common.h ****     int16_t GetCenterX() const { return x_ + width_ / 2; }
 3981              		.loc 18 61 33 is_stmt 0 view .LVU941
 3982              	.LBE1051:
 3983              	.LBE1052:
 3984              	.LBB1053:
 3985              	.LBB1054:
 3986              	.LBB1055:
  32:../../libDaisy//src/hid/disp/graphics_common.h ****     {
 3987              		.loc 18 32 66 view .LVU942
 3988 02d4 0699     		ldr	r1, [sp, #24]
 3989              	.LBE1055:
 3990              	.LBE1054:
 3991              	.LBE1053:
 227:../../libDaisy//src/hid/disp/graphics_common.h ****                         width_,
 3992              		.loc 18 227 51 view .LVU943
 3993 02d6 84B2     		uxth	r4, r0
 3994              	.LVL310:
ARM GAS  /var/folders/hl/qgbwny5j0fd895c2c41bk3tw0000gp/T//ccRMOALe.s 			page 125


 3995              	.LBB1065:
 3996              	.LBB1061:
 3997              	.LBB1058:
  32:../../libDaisy//src/hid/disp/graphics_common.h ****     {
 3998              		.loc 18 32 66 view .LVU944
 3999 02d8 0F80     		strh	r7, [r1]	@ movhi
 4000 02da 8B80     		strh	r3, [r1, #4]	@ movhi
 4001              	.LVL311:
  32:../../libDaisy//src/hid/disp/graphics_common.h ****     {
 4002              		.loc 18 32 66 view .LVU945
 4003              	.LBE1058:
 4004              	.LBE1061:
 4005              	.LBI1053:
  31:../../libDaisy//src/hid/disp/graphics_common.h ****     : x_(x), y_(y), width_(max(0, width)), height_(max(0, height))
 4006              		.loc 18 31 5 is_stmt 1 view .LVU946
 4007              	.LBE1065:
 4008              	.LBE1147:
 4009              	.LBE1225:
 468:../../libDaisy//src/hid/disp/display.h ****         ((ChildType*)(this))->ChildType::WriteString(str, font, on);
 4010              		.loc 9 468 18 is_stmt 0 view .LVU947
 4011 02dc BFB2     		uxth	r7, r7
 4012              	.LVL312:
 4013              	.LBB1226:
 4014              	.LBB1148:
 4015              	.LBB1066:
 4016              	.LBB1062:
 4017              	.LBB1059:
  32:../../libDaisy//src/hid/disp/graphics_common.h ****     {
 4018              		.loc 18 32 66 view .LVU948
 4019 02de CA80     		strh	r2, [r1, #6]	@ movhi
 4020 02e0 4C80     		strh	r4, [r1, #2]	@ movhi
 4021              	.LVL313:
 4022              	.LBB1056:
 4023              	.LBI1056:
 4024              		.loc 18 261 13 is_stmt 1 view .LVU949
 4025              	.LBE1056:
 4026              	.LBE1059:
 4027              	.LBE1062:
 4028              	.LBE1066:
 4029              	.LBE1148:
 4030              	.LBE1226:
 4031              		.loc 18 261 41 view .LVU950
 4032              	.LBB1227:
 4033              	.LBB1149:
 4034              	.LBB1067:
 4035              	.LBB1063:
 4036              	.LBB1060:
 4037              	.LBB1057:
 4038              	.LBI1057:
 4039              		.loc 18 261 13 view .LVU951
 4040              	.LBE1057:
 4041              	.LBE1060:
 4042              	.LBE1063:
 4043              	.LBE1067:
 4044              	.LBE1149:
 4045              	.LBE1227:
 4046              		.loc 18 261 41 view .LVU952
ARM GAS  /var/folders/hl/qgbwny5j0fd895c2c41bk3tw0000gp/T//ccRMOALe.s 			page 126


 4047              	.LBB1228:
 4048              	.LBB1150:
 4049              	.LBB1068:
 4050              	.LBB1064:
  34:../../libDaisy//src/hid/disp/graphics_common.h **** 
 4051              		.loc 18 34 5 is_stmt 0 view .LVU953
 4052 02e2 CEE6     		b	.L238
 4053              	.LVL314:
 4054              	.L232:
  34:../../libDaisy//src/hid/disp/graphics_common.h **** 
 4055              		.loc 18 34 5 view .LVU954
 4056              	.LBE1064:
 4057              	.LBE1068:
 235:../../libDaisy//src/hid/disp/graphics_common.h ****                 return {int16_t(x_ + (other.GetCenterX() - GetCenterX())),
 4058              		.loc 18 235 13 is_stmt 1 view .LVU955
 236:../../libDaisy//src/hid/disp/graphics_common.h ****                         int16_t(other.GetBottom() - height_),
 4059              		.loc 18 236 17 view .LVU956
 4060              	.LBB1069:
 4061              	.LBI1069:
  62:../../libDaisy//src/hid/disp/graphics_common.h ****     int16_t GetCenterY() const { return y_ + height_ / 2; }
 4062              		.loc 18 62 13 view .LVU957
 4063              	.LBB1070:
  62:../../libDaisy//src/hid/disp/graphics_common.h ****     int16_t GetCenterY() const { return y_ + height_ / 2; }
 4064              		.loc 18 62 34 view .LVU958
  62:../../libDaisy//src/hid/disp/graphics_common.h ****     int16_t GetCenterY() const { return y_ + height_ / 2; }
 4065              		.loc 18 62 34 is_stmt 0 view .LVU959
 4066              	.LBE1070:
 4067              	.LBE1069:
 4068              	.LBB1072:
 4069              	.LBI1072:
  62:../../libDaisy//src/hid/disp/graphics_common.h ****     int16_t GetCenterY() const { return y_ + height_ / 2; }
 4070              		.loc 18 62 13 is_stmt 1 view .LVU960
 4071              	.LBB1073:
  62:../../libDaisy//src/hid/disp/graphics_common.h ****     int16_t GetCenterY() const { return y_ + height_ / 2; }
 4072              		.loc 18 62 34 view .LVU961
  62:../../libDaisy//src/hid/disp/graphics_common.h ****     int16_t GetCenterY() const { return y_ + height_ / 2; }
 4073              		.loc 18 62 34 is_stmt 0 view .LVU962
 4074              	.LBE1073:
 4075              	.LBE1072:
 4076              	.LBB1074:
 4077              	.LBB1071:
  62:../../libDaisy//src/hid/disp/graphics_common.h ****     int16_t GetCenterY() const { return y_ + height_ / 2; }
 4078              		.loc 18 62 53 view .LVU963
 4079 02e4 B4F90410 		ldrsh	r1, [r4, #4]
 4080              	.LVL315:
  62:../../libDaisy//src/hid/disp/graphics_common.h ****     int16_t GetCenterY() const { return y_ + height_ / 2; }
 4081              		.loc 18 62 44 view .LVU964
 4082 02e8 2788     		ldrh	r7, [r4]
  62:../../libDaisy//src/hid/disp/graphics_common.h ****     int16_t GetCenterY() const { return y_ + height_ / 2; }
 4083              		.loc 18 62 53 view .LVU965
 4084 02ea 0029     		cmp	r1, #0
 4085 02ec B8BF     		it	lt
 4086 02ee 0131     		addlt	r1, r1, #1
  62:../../libDaisy//src/hid/disp/graphics_common.h ****     int16_t GetCenterY() const { return y_ + height_ / 2; }
 4087              		.loc 18 62 44 view .LVU966
 4088 02f0 07EB6107 		add	r7, r7, r1, asr #1
 4089              	.LBE1071:
ARM GAS  /var/folders/hl/qgbwny5j0fd895c2c41bk3tw0000gp/T//ccRMOALe.s 			page 127


 4090              	.LBE1074:
 236:../../libDaisy//src/hid/disp/graphics_common.h ****                         int16_t(other.GetBottom() - height_),
 4091              		.loc 18 236 58 view .LVU967
 4092 02f4 A7EB6307 		sub	r7, r7, r3, asr #1
 4093              	.L298:
 4094              	.LBB1075:
 4095              	.LBB1076:
  61:../../libDaisy//src/hid/disp/graphics_common.h ****     int16_t GetCenterX() const { return x_ + width_ / 2; }
 4096              		.loc 18 61 43 view .LVU968
 4097 02f8 B4F802C0 		ldrh	ip, [r4, #2]
 4098              	.LBE1076:
 4099              	.LBE1075:
 236:../../libDaisy//src/hid/disp/graphics_common.h ****                         int16_t(other.GetBottom() - height_),
 4100              		.loc 18 236 58 view .LVU969
 4101 02fc BFB2     		uxth	r7, r7
 4102              	.LVL316:
 4103              	.LBB1079:
 4104              	.LBI1075:
  61:../../libDaisy//src/hid/disp/graphics_common.h ****     int16_t GetCenterX() const { return x_ + width_ / 2; }
 4105              		.loc 18 61 13 is_stmt 1 view .LVU970
 4106              	.LBB1077:
  61:../../libDaisy//src/hid/disp/graphics_common.h ****     int16_t GetCenterX() const { return x_ + width_ / 2; }
 4107              		.loc 18 61 33 view .LVU971
  61:../../libDaisy//src/hid/disp/graphics_common.h ****     int16_t GetCenterX() const { return x_ + width_ / 2; }
 4108              		.loc 18 61 43 is_stmt 0 view .LVU972
 4109 02fe E488     		ldrh	r4, [r4, #6]
 4110              	.LVL317:
  61:../../libDaisy//src/hid/disp/graphics_common.h ****     int16_t GetCenterX() const { return x_ + width_ / 2; }
 4111              		.loc 18 61 43 view .LVU973
 4112              	.LBE1077:
 4113              	.LBE1079:
 4114              	.LBB1080:
 4115              	.LBB1081:
 4116              	.LBB1082:
  32:../../libDaisy//src/hid/disp/graphics_common.h ****     {
 4117              		.loc 18 32 66 view .LVU974
 4118 0300 0699     		ldr	r1, [sp, #24]
 4119              	.LBE1082:
 4120              	.LBE1081:
 4121              	.LBE1080:
 4122              	.LBB1094:
 4123              	.LBB1078:
  61:../../libDaisy//src/hid/disp/graphics_common.h ****     int16_t GetCenterX() const { return x_ + width_ / 2; }
 4124              		.loc 18 61 43 view .LVU975
 4125 0302 6444     		add	r4, r4, ip
 4126              	.LBE1078:
 4127              	.LBE1094:
 4128              	.LBB1095:
 4129              	.LBB1089:
 4130              	.LBB1085:
  32:../../libDaisy//src/hid/disp/graphics_common.h ****     {
 4131              		.loc 18 32 66 view .LVU976
 4132 0304 8B80     		strh	r3, [r1, #4]	@ movhi
 4133              	.LBE1085:
 4134              	.LBE1089:
 4135              	.LBE1095:
 237:../../libDaisy//src/hid/disp/graphics_common.h ****                         width_,
ARM GAS  /var/folders/hl/qgbwny5j0fd895c2c41bk3tw0000gp/T//ccRMOALe.s 			page 128


 4136              		.loc 18 237 51 view .LVU977
 4137 0306 201A     		subs	r0, r4, r0
 4138              	.LBB1096:
 4139              	.LBB1090:
 4140              	.LBB1086:
  32:../../libDaisy//src/hid/disp/graphics_common.h ****     {
 4141              		.loc 18 32 66 view .LVU978
 4142 0308 CA80     		strh	r2, [r1, #6]	@ movhi
 4143 030a 0F80     		strh	r7, [r1]	@ movhi
 4144              	.LBE1086:
 4145              	.LBE1090:
 4146              	.LBE1096:
 237:../../libDaisy//src/hid/disp/graphics_common.h ****                         width_,
 4147              		.loc 18 237 51 view .LVU979
 4148 030c 84B2     		uxth	r4, r0
 4149              	.LVL318:
 4150              	.LBB1097:
 4151              	.LBI1080:
  31:../../libDaisy//src/hid/disp/graphics_common.h ****     : x_(x), y_(y), width_(max(0, width)), height_(max(0, height))
 4152              		.loc 18 31 5 is_stmt 1 view .LVU980
 4153              	.LBB1091:
 4154              	.LBB1087:
  32:../../libDaisy//src/hid/disp/graphics_common.h ****     {
 4155              		.loc 18 32 66 is_stmt 0 view .LVU981
 4156 030e 4C80     		strh	r4, [r1, #2]	@ movhi
 4157              	.LVL319:
 4158              	.LBB1083:
 4159              	.LBI1083:
 4160              		.loc 18 261 13 is_stmt 1 view .LVU982
 4161              	.LBE1083:
 4162              	.LBE1087:
 4163              	.LBE1091:
 4164              	.LBE1097:
 4165              	.LBE1150:
 4166              	.LBE1228:
 4167              		.loc 18 261 41 view .LVU983
 4168              	.LBB1229:
 4169              	.LBB1151:
 4170              	.LBB1098:
 4171              	.LBB1092:
 4172              	.LBB1088:
 4173              	.LBB1084:
 4174              	.LBI1084:
 4175              		.loc 18 261 13 view .LVU984
 4176              	.LBE1084:
 4177              	.LBE1088:
 4178              	.LBE1092:
 4179              	.LBE1098:
 4180              	.LBE1151:
 4181              	.LBE1229:
 4182              		.loc 18 261 41 view .LVU985
 4183              	.LBB1230:
 4184              	.LBB1152:
 4185              	.LBB1099:
 4186              	.LBB1093:
  34:../../libDaisy//src/hid/disp/graphics_common.h **** 
 4187              		.loc 18 34 5 is_stmt 0 view .LVU986
ARM GAS  /var/folders/hl/qgbwny5j0fd895c2c41bk3tw0000gp/T//ccRMOALe.s 			page 129


 4188 0310 B7E6     		b	.L238
 4189              	.LVL320:
 4190              	.L231:
  34:../../libDaisy//src/hid/disp/graphics_common.h **** 
 4191              		.loc 18 34 5 view .LVU987
 4192              	.LBE1093:
 4193              	.LBE1099:
 230:../../libDaisy//src/hid/disp/graphics_common.h ****                 return {int16_t(other.GetRight() - width_),
 4194              		.loc 18 230 13 is_stmt 1 view .LVU988
 231:../../libDaisy//src/hid/disp/graphics_common.h ****                         int16_t(other.GetBottom() - height_),
 4195              		.loc 18 231 17 view .LVU989
 4196              	.LBB1100:
 4197              	.LBI1100:
  60:../../libDaisy//src/hid/disp/graphics_common.h ****     int16_t GetBottom() const { return y_ + height_; }
 4198              		.loc 18 60 13 view .LVU990
 4199              	.LBB1101:
  60:../../libDaisy//src/hid/disp/graphics_common.h ****     int16_t GetBottom() const { return y_ + height_; }
 4200              		.loc 18 60 32 view .LVU991
  60:../../libDaisy//src/hid/disp/graphics_common.h ****     int16_t GetBottom() const { return y_ + height_; }
 4201              		.loc 18 60 42 is_stmt 0 view .LVU992
 4202 0312 2788     		ldrh	r7, [r4]
 4203 0314 A188     		ldrh	r1, [r4, #4]
 4204              	.LVL321:
  60:../../libDaisy//src/hid/disp/graphics_common.h ****     int16_t GetBottom() const { return y_ + height_; }
 4205              		.loc 18 60 42 view .LVU993
 4206 0316 0F44     		add	r7, r7, r1
 4207              	.LBE1101:
 4208              	.LBE1100:
 231:../../libDaisy//src/hid/disp/graphics_common.h ****                         int16_t(other.GetBottom() - height_),
 4209              		.loc 18 231 50 view .LVU994
 4210 0318 FF1A     		subs	r7, r7, r3
 4211 031a EDE7     		b	.L298
 4212              	.L311:
 4213              		.align	2
 4214              	.L310:
 4215 031c 00000000 		.word	_ZNK5daisy11OledDisplayINS_13SSD130xDriverILj128ELj64ENS_19SSD130xI2CTransportEEEE5WidthEv
 4216 0320 00000000 		.word	_ZNK5daisy11OledDisplayINS_13SSD130xDriverILj128ELj64ENS_19SSD130xI2CTransportEEEE6HeightEv
 4217              	.LVL322:
 4218              	.L230:
 240:../../libDaisy//src/hid/disp/graphics_common.h ****                 return {other.x_,
 4219              		.loc 18 240 13 is_stmt 1 view .LVU995
 241:../../libDaisy//src/hid/disp/graphics_common.h ****                         int16_t(y_ + (other.GetCenterY() - GetCenterY())),
 4220              		.loc 18 241 17 view .LVU996
 4221              	.LBB1102:
 4222              	.LBB1103:
  63:../../libDaisy//src/hid/disp/graphics_common.h **** 
 4223              		.loc 18 63 54 is_stmt 0 view .LVU997
 4224 0324 B4F90610 		ldrsh	r1, [r4, #6]
 4225              	.LVL323:
  63:../../libDaisy//src/hid/disp/graphics_common.h **** 
 4226              		.loc 18 63 54 view .LVU998
 4227              	.LBE1103:
 4228              	.LBE1102:
 241:../../libDaisy//src/hid/disp/graphics_common.h ****                         int16_t(y_ + (other.GetCenterY() - GetCenterY())),
 4229              		.loc 18 241 31 view .LVU999
 4230 0328 B4F90070 		ldrsh	r7, [r4]
 4231              	.LVL324:
ARM GAS  /var/folders/hl/qgbwny5j0fd895c2c41bk3tw0000gp/T//ccRMOALe.s 			page 130


 4232              	.LBB1108:
 4233              	.LBI1102:
  63:../../libDaisy//src/hid/disp/graphics_common.h **** 
 4234              		.loc 18 63 13 is_stmt 1 view .LVU1000
 4235              	.LBB1104:
  63:../../libDaisy//src/hid/disp/graphics_common.h **** 
 4236              		.loc 18 63 34 view .LVU1001
  63:../../libDaisy//src/hid/disp/graphics_common.h **** 
 4237              		.loc 18 63 34 is_stmt 0 view .LVU1002
 4238              	.LBE1104:
 4239              	.LBE1108:
 4240              	.LBB1109:
 4241              	.LBI1109:
  63:../../libDaisy//src/hid/disp/graphics_common.h **** 
 4242              		.loc 18 63 13 is_stmt 1 view .LVU1003
 4243              	.LBB1110:
  63:../../libDaisy//src/hid/disp/graphics_common.h **** 
 4244              		.loc 18 63 34 view .LVU1004
  63:../../libDaisy//src/hid/disp/graphics_common.h **** 
 4245              		.loc 18 63 34 is_stmt 0 view .LVU1005
 4246              	.LBE1110:
 4247              	.LBE1109:
 4248              	.LBB1111:
 4249              	.LBB1105:
  63:../../libDaisy//src/hid/disp/graphics_common.h **** 
 4250              		.loc 18 63 54 view .LVU1006
 4251 032c 0029     		cmp	r1, #0
  63:../../libDaisy//src/hid/disp/graphics_common.h **** 
 4252              		.loc 18 63 44 view .LVU1007
 4253 032e 6488     		ldrh	r4, [r4, #2]
 4254              	.LVL325:
  63:../../libDaisy//src/hid/disp/graphics_common.h **** 
 4255              		.loc 18 63 44 view .LVU1008
 4256              	.LBE1105:
 4257              	.LBE1111:
 4258              	.LBB1112:
 4259              	.LBB1113:
 4260              	.LBB1114:
  32:../../libDaisy//src/hid/disp/graphics_common.h ****     {
 4261              		.loc 18 32 66 view .LVU1009
 4262 0330 0698     		ldr	r0, [sp, #24]
 4263              	.LBE1114:
 4264              	.LBE1113:
 4265              	.LBE1112:
 4266              	.LBB1126:
 4267              	.LBB1106:
  63:../../libDaisy//src/hid/disp/graphics_common.h **** 
 4268              		.loc 18 63 54 view .LVU1010
 4269 0332 B8BF     		it	lt
 4270 0334 0131     		addlt	r1, r1, #1
 4271              	.LBE1106:
 4272              	.LBE1126:
 4273              	.LBB1127:
 4274              	.LBB1121:
 4275              	.LBB1117:
  32:../../libDaisy//src/hid/disp/graphics_common.h ****     {
 4276              		.loc 18 32 66 view .LVU1011
ARM GAS  /var/folders/hl/qgbwny5j0fd895c2c41bk3tw0000gp/T//ccRMOALe.s 			page 131


 4277 0336 C280     		strh	r2, [r0, #6]	@ movhi
 4278              	.LBE1117:
 4279              	.LBE1121:
 4280              	.LBE1127:
 4281              	.LBB1128:
 4282              	.LBB1107:
  63:../../libDaisy//src/hid/disp/graphics_common.h **** 
 4283              		.loc 18 63 44 view .LVU1012
 4284 0338 04EB6104 		add	r4, r4, r1, asr #1
 4285              	.LBE1107:
 4286              	.LBE1128:
 4287              	.LBB1129:
 4288              	.LBB1122:
 4289              	.LBB1118:
  32:../../libDaisy//src/hid/disp/graphics_common.h ****     {
 4290              		.loc 18 32 66 view .LVU1013
 4291 033c 0780     		strh	r7, [r0]	@ movhi
 4292 033e 8380     		strh	r3, [r0, #4]	@ movhi
 4293              	.LBE1118:
 4294              	.LBE1122:
 4295              	.LBE1129:
 4296              	.LBE1152:
 4297              	.LBE1230:
 468:../../libDaisy//src/hid/disp/display.h ****         ((ChildType*)(this))->ChildType::WriteString(str, font, on);
 4298              		.loc 9 468 18 view .LVU1014
 4299 0340 BFB2     		uxth	r7, r7
 4300              	.LBB1231:
 4301              	.LBB1153:
 242:../../libDaisy//src/hid/disp/graphics_common.h ****                         width_,
 4302              		.loc 18 242 58 view .LVU1015
 4303 0342 A4EB5202 		sub	r2, r4, r2, lsr #1
 4304 0346 94B2     		uxth	r4, r2
 4305              	.LVL326:
 4306              	.LBB1130:
 4307              	.LBI1112:
  31:../../libDaisy//src/hid/disp/graphics_common.h ****     : x_(x), y_(y), width_(max(0, width)), height_(max(0, height))
 4308              		.loc 18 31 5 is_stmt 1 view .LVU1016
 4309              	.LBB1123:
 4310              	.LBB1119:
  32:../../libDaisy//src/hid/disp/graphics_common.h ****     {
 4311              		.loc 18 32 66 is_stmt 0 view .LVU1017
 4312 0348 4480     		strh	r4, [r0, #2]	@ movhi
 4313              	.LVL327:
 4314              	.LBB1115:
 4315              	.LBI1115:
 4316              		.loc 18 261 13 is_stmt 1 view .LVU1018
 4317              	.LBE1115:
 4318              	.LBE1119:
 4319              	.LBE1123:
 4320              	.LBE1130:
 4321              	.LBE1153:
 4322              	.LBE1231:
 4323              		.loc 18 261 41 view .LVU1019
 4324              	.LBB1232:
 4325              	.LBB1154:
 4326              	.LBB1131:
 4327              	.LBB1124:
ARM GAS  /var/folders/hl/qgbwny5j0fd895c2c41bk3tw0000gp/T//ccRMOALe.s 			page 132


 4328              	.LBB1120:
 4329              	.LBB1116:
 4330              	.LBI1116:
 4331              		.loc 18 261 13 view .LVU1020
 4332              	.LBE1116:
 4333              	.LBE1120:
 4334              	.LBE1124:
 4335              	.LBE1131:
 4336              	.LBE1154:
 4337              	.LBE1232:
 4338              		.loc 18 261 41 view .LVU1021
 4339              	.LBB1233:
 4340              	.LBB1155:
 4341              	.LBB1132:
 4342              	.LBB1125:
  34:../../libDaisy//src/hid/disp/graphics_common.h **** 
 4343              		.loc 18 34 5 is_stmt 0 view .LVU1022
 4344 034a 9AE6     		b	.L238
 4345              	.LVL328:
 4346              	.L258:
  34:../../libDaisy//src/hid/disp/graphics_common.h **** 
 4347              		.loc 18 34 5 view .LVU1023
 4348              	.LBE1125:
 4349              	.LBE1132:
 4350              	.LBE1155:
 4351              	.LBE1233:
 4352              	.LBB1234:
 4353              	.LBB1212:
 4354              	.LBB1209:
 4355              	.LBB1208:
 402:../../libDaisy//src/hid/disp/display.h **** 
 4356              		.loc 9 402 20 view .LVU1024
 4357 034c 4FF0000B 		mov	fp, #0
 4358              	.LVL329:
 402:../../libDaisy//src/hid/disp/display.h **** 
 4359              		.loc 9 402 20 view .LVU1025
 4360 0350 6BE7     		b	.L256
 4361              	.LVL330:
 4362              	.L303:
 405:../../libDaisy//src/hid/disp/display.h ****            || Height() < (currentY_ + font.FontHeight))
 4363              		.loc 9 405 17 view .LVU1026
 4364 0352 4046     		mov	r0, r8
 4365 0354 9847     		blx	r3
 4366              	.LVL331:
 4367 0356 D5E6     		b	.L257
 4368              	.L304:
 406:../../libDaisy//src/hid/disp/display.h ****         {
 4369              		.loc 9 406 21 view .LVU1027
 4370 0358 4046     		mov	r0, r8
 4371 035a 9847     		blx	r3
 4372              	.LVL332:
 4373 035c E0E6     		b	.L259
 4374              	.LVL333:
 4375              	.L308:
 4376              	.LBB1206:
 4377              	.LBB1202:
 174:../../libDaisy//src/hid/disp/display.h ****     }
ARM GAS  /var/folders/hl/qgbwny5j0fd895c2c41bk3tw0000gp/T//ccRMOALe.s 			page 133


 4378              		.loc 9 174 33 view .LVU1028
 4379 035e 4046     		mov	r0, r8
 4380 0360 9847     		blx	r3
 4381              	.LVL334:
 4382 0362 53E7     		b	.L273
 4383              	.LVL335:
 4384              	.L306:
 173:../../libDaisy//src/hid/disp/display.h ****         currentY_ = (y >= Height()) ? Height() - 1 : y;
 4385              		.loc 9 173 32 view .LVU1029
 4386 0364 4046     		mov	r0, r8
 4387 0366 9847     		blx	r3
 4388              	.LVL336:
 173:../../libDaisy//src/hid/disp/display.h ****         currentY_ = (y >= Height()) ? Height() - 1 : y;
 4389              		.loc 9 173 44 view .LVU1030
 4390 0368 D8F80020 		ldr	r2, [r8]
 4391 036c 3EE7     		b	.L270
 4392              	.LVL337:
 4393              	.L260:
 173:../../libDaisy//src/hid/disp/display.h ****         currentY_ = (y >= Height()) ? Height() - 1 : y;
 4394              		.loc 9 173 44 view .LVU1031
 4395              	.LBE1202:
 4396              	.LBE1206:
 434:../../libDaisy//src/hid/disp/display.h **** 
 4397              		.loc 9 434 19 view .LVU1032
 4398 036e B8F804A0 		ldrh	r10, [r8, #4]
 4399 0372 30E7     		b	.L262
 4400              	.LVL338:
 4401              	.L309:
 4402              	.LBB1207:
 4403              	.LBB1203:
 174:../../libDaisy//src/hid/disp/display.h ****     }
 4404              		.loc 9 174 45 view .LVU1033
 4405 0374 4046     		mov	r0, r8
 4406 0376 9847     		blx	r3
 4407              	.LVL339:
 174:../../libDaisy//src/hid/disp/display.h ****     }
 4408              		.loc 9 174 19 view .LVU1034
 4409 0378 0138     		subs	r0, r0, #1
 4410 037a 83B2     		uxth	r3, r0
 4411 037c 0293     		str	r3, [sp, #8]
 4412              	.LVL340:
 174:../../libDaisy//src/hid/disp/display.h ****     }
 4413              		.loc 9 174 19 view .LVU1035
 4414 037e 51E7     		b	.L274
 4415              	.LVL341:
 4416              	.L307:
 173:../../libDaisy//src/hid/disp/display.h ****         currentY_ = (y >= Height()) ? Height() - 1 : y;
 4417              		.loc 9 173 43 view .LVU1036
 4418 0380 4046     		mov	r0, r8
 4419 0382 9847     		blx	r3
 4420              	.LVL342:
 173:../../libDaisy//src/hid/disp/display.h ****         currentY_ = (y >= Height()) ? Height() - 1 : y;
 4421              		.loc 9 173 19 view .LVU1037
 4422 0384 0138     		subs	r0, r0, #1
 174:../../libDaisy//src/hid/disp/display.h ****     }
 4423              		.loc 9 174 34 view .LVU1038
 4424 0386 D8F80020 		ldr	r2, [r8]
ARM GAS  /var/folders/hl/qgbwny5j0fd895c2c41bk3tw0000gp/T//ccRMOALe.s 			page 134


 173:../../libDaisy//src/hid/disp/display.h ****         currentY_ = (y >= Height()) ? Height() - 1 : y;
 4425              		.loc 9 173 19 view .LVU1039
 4426 038a 85B2     		uxth	r5, r0
 4427              	.LVL343:
 173:../../libDaisy//src/hid/disp/display.h ****         currentY_ = (y >= Height()) ? Height() - 1 : y;
 4428              		.loc 9 173 19 view .LVU1040
 4429 038c 36E7     		b	.L271
 4430              	.LVL344:
 4431              	.L227:
 173:../../libDaisy//src/hid/disp/display.h ****         currentY_ = (y >= Height()) ? Height() - 1 : y;
 4432              		.loc 9 173 19 view .LVU1041
 4433              	.LBE1203:
 4434              	.LBE1207:
 4435              	.LBE1208:
 4436              	.LBE1209:
 4437              	.LBE1212:
 4438              	.LBE1234:
 4439              	.LBB1235:
 4440              	.LBB1156:
 255:../../libDaisy//src/hid/disp/graphics_common.h ****         }
 4441              		.loc 18 255 13 is_stmt 1 view .LVU1042
 255:../../libDaisy//src/hid/disp/graphics_common.h ****         }
 4442              		.loc 18 255 22 view .LVU1043
 4443              	.LBB1133:
 4444              	.LBI1133:
  24:../../libDaisy//src/hid/disp/graphics_common.h **** 
 4445              		.loc 18 24 5 view .LVU1044
 4446              	.LBE1133:
 4447              	.LBE1156:
 4448              	.LBE1235:
 4449              	.LBB1236:
 4450              	.LBB1162:
 173:../../libDaisy//src/hid/disp/display.h ****         currentY_ = (y >= Height()) ? Height() - 1 : y;
 4451              		.loc 9 173 33 is_stmt 0 view .LVU1045
 4452 038e D8F80030 		ldr	r3, [r8]
 4453              	.LBE1162:
 4454              	.LBE1236:
 4455              	.LBB1237:
 4456              	.LBB1157:
 4457              	.LBB1135:
 4458              	.LBB1134:
  24:../../libDaisy//src/hid/disp/graphics_common.h **** 
 4459              		.loc 18 24 53 view .LVU1046
 4460 0392 0024     		movs	r4, #0
 4461              	.LVL345:
  24:../../libDaisy//src/hid/disp/graphics_common.h **** 
 4462              		.loc 18 24 53 view .LVU1047
 4463 0394 069A     		ldr	r2, [sp, #24]
 4464 0396 1349     		ldr	r1, .L312
 4465              	.LVL346:
  24:../../libDaisy//src/hid/disp/graphics_common.h **** 
 4466              		.loc 18 24 53 view .LVU1048
 4467 0398 1480     		strh	r4, [r2]	@ movhi
 4468 039a 5480     		strh	r4, [r2, #2]	@ movhi
 4469 039c 9480     		strh	r4, [r2, #4]	@ movhi
 4470 039e D480     		strh	r4, [r2, #6]	@ movhi
 4471              	.LVL347:
ARM GAS  /var/folders/hl/qgbwny5j0fd895c2c41bk3tw0000gp/T//ccRMOALe.s 			page 135


  24:../../libDaisy//src/hid/disp/graphics_common.h **** 
 4472              		.loc 18 24 53 view .LVU1049
 4473              	.LBE1134:
 4474              	.LBE1135:
 4475              	.LBE1157:
 4476              	.LBE1237:
  56:../../libDaisy//src/hid/disp/graphics_common.h ****     int16_t GetY() const { return y_; }
 4477              		.loc 18 56 28 is_stmt 1 view .LVU1050
  57:../../libDaisy//src/hid/disp/graphics_common.h ****     int16_t GetWidth() const { return width_; }
 4478              		.loc 18 57 28 view .LVU1051
 4479              	.LBB1238:
 171:../../libDaisy//src/hid/disp/display.h ****     {
 4480              		.loc 9 171 10 view .LVU1052
 4481              	.LBB1163:
 173:../../libDaisy//src/hid/disp/display.h ****         currentY_ = (y >= Height()) ? Height() - 1 : y;
 4482              		.loc 9 173 9 view .LVU1053
 173:../../libDaisy//src/hid/disp/display.h ****         currentY_ = (y >= Height()) ? Height() - 1 : y;
 4483              		.loc 9 173 33 is_stmt 0 view .LVU1054
 4484 03a0 DA68     		ldr	r2, [r3, #12]
 4485 03a2 0191     		str	r1, [sp, #4]
 4486 03a4 8A42     		cmp	r2, r1
 4487 03a6 05D0     		beq	.L245
 4488 03a8 2746     		mov	r7, r4
 4489              	.LVL348:
 4490              	.L246:
 173:../../libDaisy//src/hid/disp/display.h ****         currentY_ = (y >= Height()) ? Height() - 1 : y;
 4491              		.loc 9 173 32 view .LVU1055
 4492 03aa 4046     		mov	r0, r8
 4493 03ac 9047     		blx	r2
 4494              	.LVL349:
 173:../../libDaisy//src/hid/disp/display.h ****         currentY_ = (y >= Height()) ? Height() - 1 : y;
 4495              		.loc 9 173 44 view .LVU1056
 4496 03ae D8F80030 		ldr	r3, [r8]
 4497 03b2 70E6     		b	.L247
 4498              	.LVL350:
 4499              	.L245:
 174:../../libDaisy//src/hid/disp/display.h ****     }
 4500              		.loc 9 174 34 view .LVU1057
 4501 03b4 9B68     		ldr	r3, [r3, #8]
 4502 03b6 0C4A     		ldr	r2, .L312+4
 173:../../libDaisy//src/hid/disp/display.h ****         currentY_ = (y >= Height()) ? Height() - 1 : y;
 4503              		.loc 9 173 19 view .LVU1058
 4504 03b8 A8F80440 		strh	r4, [r8, #4]	@ movhi
 174:../../libDaisy//src/hid/disp/display.h ****     }
 4505              		.loc 9 174 9 is_stmt 1 view .LVU1059
 4506 03bc 9342     		cmp	r3, r2
 4507 03be 0392     		str	r2, [sp, #12]
 4508 03c0 3FF484AE 		beq	.L252
 4509              	.LVL351:
 4510              	.L278:
 174:../../libDaisy//src/hid/disp/display.h ****     }
 4511              		.loc 9 174 33 is_stmt 0 view .LVU1060
 4512 03c4 4046     		mov	r0, r8
 4513 03c6 9847     		blx	r3
 4514              	.LVL352:
 4515 03c8 76E6     		b	.L250
 4516              	.L302:
ARM GAS  /var/folders/hl/qgbwny5j0fd895c2c41bk3tw0000gp/T//ccRMOALe.s 			page 136


 174:../../libDaisy//src/hid/disp/display.h ****     }
 4517              		.loc 9 174 45 view .LVU1061
 4518 03ca 4046     		mov	r0, r8
 4519 03cc 9847     		blx	r3
 4520              	.LVL353:
 174:../../libDaisy//src/hid/disp/display.h ****     }
 4521              		.loc 9 174 19 view .LVU1062
 4522 03ce 0138     		subs	r0, r0, #1
 4523 03d0 84B2     		uxth	r4, r0
 4524 03d2 7BE6     		b	.L252
 4525              	.L301:
 173:../../libDaisy//src/hid/disp/display.h ****         currentY_ = (y >= Height()) ? Height() - 1 : y;
 4526              		.loc 9 173 43 view .LVU1063
 4527 03d4 4046     		mov	r0, r8
 4528 03d6 9047     		blx	r2
 4529              	.LVL354:
 173:../../libDaisy//src/hid/disp/display.h ****         currentY_ = (y >= Height()) ? Height() - 1 : y;
 4530              		.loc 9 173 19 view .LVU1064
 4531 03d8 0138     		subs	r0, r0, #1
 174:../../libDaisy//src/hid/disp/display.h ****     }
 4532              		.loc 9 174 34 view .LVU1065
 4533 03da D8F80030 		ldr	r3, [r8]
 173:../../libDaisy//src/hid/disp/display.h ****         currentY_ = (y >= Height()) ? Height() - 1 : y;
 4534              		.loc 9 173 19 view .LVU1066
 4535 03de 87B2     		uxth	r7, r0
 4536 03e0 61E6     		b	.L248
 4537              	.L313:
 4538 03e2 00BF     		.align	2
 4539              	.L312:
 4540 03e4 00000000 		.word	_ZNK5daisy11OledDisplayINS_13SSD130xDriverILj128ELj64ENS_19SSD130xI2CTransportEEEE5WidthEv
 4541 03e8 00000000 		.word	_ZNK5daisy11OledDisplayINS_13SSD130xDriverILj128ELj64ENS_19SSD130xI2CTransportEEEE6HeightEv
 4542              	.LBE1163:
 4543              	.LBE1238:
 4544              		.cfi_endproc
 4545              	.LFE5421:
 4547              		.section	.text._ZN5daisy25OneBitGraphicsDisplayImplINS_11OledDisplayINS_13SSD130xDriverILj128ELj64
 4548              		.align	1
 4549              		.p2align 2,,3
 4550              		.weak	_ZN5daisy25OneBitGraphicsDisplayImplINS_11OledDisplayINS_13SSD130xDriverILj128ELj64ENS_19SSD
 4551              		.syntax unified
 4552              		.thumb
 4553              		.thumb_func
 4554              		.fpu fpv5-d16
 4556              	_ZN5daisy25OneBitGraphicsDisplayImplINS_11OledDisplayINS_13SSD130xDriverILj128ELj64ENS_19SSD130xI2C
 4557              	.LVL355:
 4558              	.LFB5419:
 257:../../libDaisy//src/hid/disp/display.h ****                   uint_fast8_t y1,
 4559              		.loc 9 257 10 is_stmt 1 view -0
 4560              		.cfi_startproc
 4561              		@ args = 12, pretend = 0, frame = 24
 4562              		@ frame_needed = 0, uses_anonymous_args = 0
 257:../../libDaisy//src/hid/disp/display.h ****                   uint_fast8_t y1,
 4563              		.loc 9 257 10 is_stmt 0 view .LVU1068
 4564 0000 2DE9F04F 		push	{r4, r5, r6, r7, r8, r9, r10, fp, lr}
 4565              		.cfi_def_cfa_offset 36
 4566              		.cfi_offset 4, -36
 4567              		.cfi_offset 5, -32
ARM GAS  /var/folders/hl/qgbwny5j0fd895c2c41bk3tw0000gp/T//ccRMOALe.s 			page 137


 4568              		.cfi_offset 6, -28
 4569              		.cfi_offset 7, -24
 4570              		.cfi_offset 8, -20
 4571              		.cfi_offset 9, -16
 4572              		.cfi_offset 10, -12
 4573              		.cfi_offset 11, -8
 4574              		.cfi_offset 14, -4
 4575 0004 87B0     		sub	sp, sp, #28
 4576              		.cfi_def_cfa_offset 64
 257:../../libDaisy//src/hid/disp/display.h ****                   uint_fast8_t y1,
 4577              		.loc 9 257 10 view .LVU1069
 4578 0006 9DF84850 		ldrb	r5, [sp, #72]	@ zero_extendqisi2
 4579 000a 109C     		ldr	r4, [sp, #64]
 4580 000c 2E46     		mov	r6, r5
 4581 000e 0195     		str	r5, [sp, #4]
 4582 0010 9DF84450 		ldrb	r5, [sp, #68]	@ zero_extendqisi2
 4583              	.LBB1308:
 264:../../libDaisy//src/hid/disp/display.h ****         {
 4584              		.loc 9 264 9 view .LVU1070
 4585 0014 9EB3     		cbz	r6, .L315
 4586              	.LVL356:
 264:../../libDaisy//src/hid/disp/display.h ****         {
 4587              		.loc 9 264 9 view .LVU1071
 4588              	.LBE1308:
 4589              	.LBB1430:
 4590              	.LBB1431:
 266:../../libDaisy//src/hid/disp/display.h ****             {
 4591              		.loc 9 266 40 is_stmt 1 view .LVU1072
 4592 0016 9942     		cmp	r1, r3
 4593 0018 2ED8     		bhi	.L314
 4594 001a 9946     		mov	r9, r3
 4595              	.LVL357:
 4596              	.L318:
 4597              	.LBB1432:
 268:../../libDaisy//src/hid/disp/display.h ****                 {
 4598              		.loc 9 268 44 view .LVU1073
 4599 001c A242     		cmp	r2, r4
 4600 001e 28D8     		bhi	.L321
 4601              	.LBB1433:
 4602              	.LBB1434:
 4603              	.LBB1435:
 354:../../libDaisy//src/dev/oled_ssd130x.h ****             return;
 4604              		.loc 10 354 14 is_stmt 0 view .LVU1074
 4605 0020 7F29     		cmp	r1, #127
 4606 0022 1646     		mov	r6, r2
 4607 0024 94BF     		ite	ls
 4608 0026 0023     		movls	r3, #0
 4609 0028 0123     		movhi	r3, #1
 4610 002a 08E0     		b	.L322
 4611              	.LVL358:
 4612              	.L405:
 357:../../libDaisy//src/dev/oled_ssd130x.h ****         else
 4613              		.loc 10 357 42 view .LVU1075
 4614 002c 9CF81080 		ldrb	r8, [ip, #16]	@ zero_extendqisi2
 4615 0030 4EEA080E 		orr	lr, lr, r8
 4616 0034 8CF810E0 		strb	lr, [ip, #16]
 4617              	.LVL359:
ARM GAS  /var/folders/hl/qgbwny5j0fd895c2c41bk3tw0000gp/T//ccRMOALe.s 			page 138


 4618              	.L319:
 357:../../libDaisy//src/dev/oled_ssd130x.h ****         else
 4619              		.loc 10 357 42 view .LVU1076
 4620              	.LBE1435:
 4621              	.LBE1434:
 4622              	.LBE1433:
 268:../../libDaisy//src/hid/disp/display.h ****                 {
 4623              		.loc 9 268 17 is_stmt 1 view .LVU1077
 4624 0038 0136     		adds	r6, r6, #1
 4625              	.LVL360:
 268:../../libDaisy//src/hid/disp/display.h ****                 {
 4626              		.loc 9 268 44 view .LVU1078
 4627 003a B442     		cmp	r4, r6
 4628 003c 19D3     		bcc	.L321
 4629              	.L322:
 4630              	.LVL361:
 4631              	.LBB1449:
 4632              	.LBI1433:
  42:../../libDaisy//src/hid/disp/oled_display.h ****     {
 4633              		.loc 8 42 10 view .LVU1079
 4634              	.LBB1446:
 4635              	.LBI1434:
 352:../../libDaisy//src/dev/oled_ssd130x.h ****     {
 4636              		.loc 10 352 10 view .LVU1080
 4637              	.LBB1443:
 354:../../libDaisy//src/dev/oled_ssd130x.h ****             return;
 4638              		.loc 10 354 9 is_stmt 0 view .LVU1081
 4639 003e 3F2E     		cmp	r6, #63
 4640 0040 FAD8     		bhi	.L319
 354:../../libDaisy//src/dev/oled_ssd130x.h ****             return;
 4641              		.loc 10 354 9 view .LVU1082
 4642 0042 002B     		cmp	r3, #0
 4643 0044 F8D1     		bne	.L319
 4644              	.LVL362:
 4645              	.LBB1436:
 4646              	.LBI1436:
 352:../../libDaisy//src/dev/oled_ssd130x.h ****     {
 4647              		.loc 10 352 10 is_stmt 1 view .LVU1083
 352:../../libDaisy//src/dev/oled_ssd130x.h ****     {
 4648              		.loc 10 352 10 is_stmt 0 view .LVU1084
 4649              	.LBE1436:
 357:../../libDaisy//src/dev/oled_ssd130x.h ****         else
 4650              		.loc 10 357 28 view .LVU1085
 4651 0046 4FEAD60C 		lsr	ip, r6, #3
 357:../../libDaisy//src/dev/oled_ssd130x.h ****         else
 4652              		.loc 10 357 54 view .LVU1086
 4653 004a 06F0070E 		and	lr, r6, #7
 357:../../libDaisy//src/dev/oled_ssd130x.h ****         else
 4654              		.loc 10 357 48 view .LVU1087
 4655 004e 4FF00108 		mov	r8, #1
 357:../../libDaisy//src/dev/oled_ssd130x.h ****         else
 4656              		.loc 10 357 42 view .LVU1088
 4657 0052 01EBCC1C 		add	ip, r1, ip, lsl #7
 357:../../libDaisy//src/dev/oled_ssd130x.h ****         else
 4658              		.loc 10 357 48 view .LVU1089
 4659 0056 08FA0EFE 		lsl	lr, r8, lr
 357:../../libDaisy//src/dev/oled_ssd130x.h ****         else
ARM GAS  /var/folders/hl/qgbwny5j0fd895c2c41bk3tw0000gp/T//ccRMOALe.s 			page 139


 4660              		.loc 10 357 42 view .LVU1090
 4661 005a 8444     		add	ip, ip, r0
 356:../../libDaisy//src/dev/oled_ssd130x.h ****             buffer_[x + (y / 8) * width] |= (1 << (y % 8));
 4662              		.loc 10 356 9 view .LVU1091
 4663 005c 002D     		cmp	r5, #0
 4664 005e E5D1     		bne	.L405
 4665              	.LBB1440:
 4666              	.LBB1437:
 359:../../libDaisy//src/dev/oled_ssd130x.h ****     }
 4667              		.loc 10 359 42 view .LVU1092
 4668 0060 9CF810B0 		ldrb	fp, [ip, #16]	@ zero_extendqisi2
 4669              	.LBE1437:
 4670              	.LBE1440:
 4671              	.LBE1443:
 4672              	.LBE1446:
 4673              	.LBE1449:
 268:../../libDaisy//src/hid/disp/display.h ****                 {
 4674              		.loc 9 268 17 view .LVU1093
 4675 0064 0136     		adds	r6, r6, #1
 4676              	.LVL363:
 4677              	.LBB1450:
 4678              	.LBB1447:
 4679              	.LBB1444:
 4680              	.LBB1441:
 4681              	.LBB1438:
 359:../../libDaisy//src/dev/oled_ssd130x.h ****     }
 4682              		.loc 10 359 42 view .LVU1094
 4683 0066 2BEA0E0A 		bic	r10, fp, lr
 4684              	.LBE1438:
 4685              	.LBE1441:
 4686              	.LBE1444:
 4687              	.LBE1447:
 4688              	.LBE1450:
 268:../../libDaisy//src/hid/disp/display.h ****                 {
 4689              		.loc 9 268 44 view .LVU1095
 4690 006a B442     		cmp	r4, r6
 4691              	.LBB1451:
 4692              	.LBB1448:
 4693              	.LBB1445:
 4694              	.LBB1442:
 4695              	.LBB1439:
 359:../../libDaisy//src/dev/oled_ssd130x.h ****     }
 4696              		.loc 10 359 42 view .LVU1096
 4697 006c 8CF810A0 		strb	r10, [ip, #16]
 4698              	.LVL364:
 359:../../libDaisy//src/dev/oled_ssd130x.h ****     }
 4699              		.loc 10 359 42 view .LVU1097
 4700              	.LBE1439:
 4701              	.LBE1442:
 4702              	.LBE1445:
 4703              	.LBE1448:
 4704              	.LBE1451:
 268:../../libDaisy//src/hid/disp/display.h ****                 {
 4705              		.loc 9 268 17 is_stmt 1 view .LVU1098
 268:../../libDaisy//src/hid/disp/display.h ****                 {
 4706              		.loc 9 268 44 view .LVU1099
 4707 0070 E5D2     		bcs	.L322
ARM GAS  /var/folders/hl/qgbwny5j0fd895c2c41bk3tw0000gp/T//ccRMOALe.s 			page 140


 4708              	.LVL365:
 4709              	.L321:
 268:../../libDaisy//src/hid/disp/display.h ****                 {
 4710              		.loc 9 268 44 is_stmt 0 view .LVU1100
 4711              	.LBE1432:
 266:../../libDaisy//src/hid/disp/display.h ****             {
 4712              		.loc 9 266 13 is_stmt 1 view .LVU1101
 4713 0072 0131     		adds	r1, r1, #1
 4714              	.LVL366:
 266:../../libDaisy//src/hid/disp/display.h ****             {
 4715              		.loc 9 266 40 view .LVU1102
 4716 0074 8945     		cmp	r9, r1
 4717 0076 D1D2     		bcs	.L318
 4718              	.LVL367:
 4719              	.L314:
 266:../../libDaisy//src/hid/disp/display.h ****             {
 4720              		.loc 9 266 40 is_stmt 0 view .LVU1103
 4721              	.LBE1431:
 4722              	.LBE1430:
 281:../../libDaisy//src/hid/disp/display.h **** 
 4723              		.loc 9 281 5 view .LVU1104
 4724 0078 07B0     		add	sp, sp, #28
 4725              		.cfi_remember_state
 4726              		.cfi_def_cfa_offset 36
 4727              		@ sp needed
 4728 007a BDE8F08F 		pop	{r4, r5, r6, r7, r8, r9, r10, fp, pc}
 4729              	.LVL368:
 4730              	.L315:
 4731              		.cfi_restore_state
 4732              	.LBB1452:
 4733              	.LBB1309:
 4734              	.LBI1309:
 221:../../libDaisy//src/hid/disp/display.h ****                   uint_fast8_t y1,
 4735              		.loc 9 221 10 is_stmt 1 view .LVU1105
 4736              	.LBB1310:
 227:../../libDaisy//src/hid/disp/display.h ****         int_fast16_t deltaY = abs((int_fast16_t)y2 - (int_fast16_t)y1);
 4737              		.loc 9 227 52 is_stmt 0 view .LVU1106
 4738 007e A3EB0108 		sub	r8, r3, r1
 227:../../libDaisy//src/hid/disp/display.h ****         int_fast16_t deltaY = abs((int_fast16_t)y2 - (int_fast16_t)y1);
 4739              		.loc 9 227 22 view .LVU1107
 4740 0082 B8F1000F 		cmp	r8, #0
 4741 0086 B8BF     		it	lt
 4742 0088 C8F10008 		rsblt	r8, r8, #0
 4743              	.LVL369:
 229:../../libDaisy//src/hid/disp/display.h ****         int_fast16_t signY  = ((y1 < y2) ? 1 : -1);
 4744              		.loc 9 229 42 view .LVU1108
 4745 008c 9942     		cmp	r1, r3
 4746 008e C0F04E81 		bcc	.L323
 4747              	.LVL370:
 4748              	.LBB1311:
 4749              	.LBI1311:
  42:../../libDaisy//src/hid/disp/oled_display.h ****     {
 4750              		.loc 8 42 10 is_stmt 1 view .LVU1109
 4751              	.LBB1312:
 4752              	.LBI1312:
 352:../../libDaisy//src/dev/oled_ssd130x.h ****     {
 4753              		.loc 10 352 10 view .LVU1110
ARM GAS  /var/folders/hl/qgbwny5j0fd895c2c41bk3tw0000gp/T//ccRMOALe.s 			page 141


 4754              	.LBB1313:
 354:../../libDaisy//src/dev/oled_ssd130x.h ****             return;
 4755              		.loc 10 354 14 is_stmt 0 view .LVU1111
 4756 0092 7F2B     		cmp	r3, #127
 4757              	.LBE1313:
 4758              	.LBE1312:
 4759              	.LBE1311:
 229:../../libDaisy//src/hid/disp/display.h ****         int_fast16_t signY  = ((y1 < y2) ? 1 : -1);
 4760              		.loc 9 229 42 view .LVU1112
 4761 0094 4FF0FF3A 		mov	r10, #-1
 4762              	.LBB1324:
 4763              	.LBB1320:
 4764              	.LBB1316:
 354:../../libDaisy//src/dev/oled_ssd130x.h ****             return;
 4765              		.loc 10 354 14 view .LVU1113
 4766 0098 94BF     		ite	ls
 4767 009a 0026     		movls	r6, #0
 4768 009c 0126     		movhi	r6, #1
 354:../../libDaisy//src/dev/oled_ssd130x.h ****             return;
 4769              		.loc 10 354 28 view .LVU1114
 4770 009e 3F2A     		cmp	r2, #63
 354:../../libDaisy//src/dev/oled_ssd130x.h ****             return;
 4771              		.loc 10 354 14 view .LVU1115
 4772 00a0 0096     		str	r6, [sp]
 354:../../libDaisy//src/dev/oled_ssd130x.h ****             return;
 4773              		.loc 10 354 28 view .LVU1116
 4774 00a2 94BF     		ite	ls
 4775 00a4 0027     		movls	r7, #0
 4776 00a6 0127     		movhi	r7, #1
 4777 00a8 0297     		str	r7, [sp, #8]
 354:../../libDaisy//src/dev/oled_ssd130x.h ****             return;
 4778              		.loc 10 354 9 view .LVU1117
 4779 00aa A6B9     		cbnz	r6, .L324
 4780 00ac 9FB9     		cbnz	r7, .L324
 4781              	.LVL371:
 4782              	.L365:
 357:../../libDaisy//src/dev/oled_ssd130x.h ****         else
 4783              		.loc 10 357 28 view .LVU1118
 4784 00ae D608     		lsrs	r6, r2, #3
 357:../../libDaisy//src/dev/oled_ssd130x.h ****         else
 4785              		.loc 10 357 54 view .LVU1119
 4786 00b0 02F0070C 		and	ip, r2, #7
 357:../../libDaisy//src/dev/oled_ssd130x.h ****         else
 4787              		.loc 10 357 48 view .LVU1120
 4788 00b4 0127     		movs	r7, #1
 357:../../libDaisy//src/dev/oled_ssd130x.h ****         else
 4789              		.loc 10 357 42 view .LVU1121
 4790 00b6 03EBC616 		add	r6, r3, r6, lsl #7
 4791 00ba 0644     		add	r6, r6, r0
 356:../../libDaisy//src/dev/oled_ssd130x.h ****             buffer_[x + (y / 8) * width] |= (1 << (y % 8));
 4792              		.loc 10 356 9 view .LVU1122
 4793 00bc 002D     		cmp	r5, #0
 4794 00be 00F09481 		beq	.L325
 357:../../libDaisy//src/dev/oled_ssd130x.h ****         else
 4795              		.loc 10 357 48 view .LVU1123
 4796 00c2 07FA0CF7 		lsl	r7, r7, ip
 357:../../libDaisy//src/dev/oled_ssd130x.h ****         else
ARM GAS  /var/folders/hl/qgbwny5j0fd895c2c41bk3tw0000gp/T//ccRMOALe.s 			page 142


 4797              		.loc 10 357 42 view .LVU1124
 4798 00c6 96F810C0 		ldrb	ip, [r6, #16]	@ zero_extendqisi2
 4799 00ca 47EA0C07 		orr	r7, r7, ip
 4800 00ce 3774     		strb	r7, [r6, #16]
 4801 00d0 0026     		movs	r6, #0
 4802 00d2 0296     		str	r6, [sp, #8]
 4803 00d4 0096     		str	r6, [sp]
 4804              	.L324:
 4805              	.LVL372:
 357:../../libDaisy//src/dev/oled_ssd130x.h ****         else
 4806              		.loc 10 357 42 view .LVU1125
 4807              	.LBE1316:
 4808              	.LBE1320:
 4809              	.LBE1324:
 239:../../libDaisy//src/hid/disp/display.h ****         {
 4810              		.loc 9 239 26 is_stmt 1 view .LVU1126
 4811 00d6 9942     		cmp	r1, r3
 4812 00d8 00F09781 		beq	.L406
 4813              	.L327:
 4814              	.LVL373:
 227:../../libDaisy//src/hid/disp/display.h ****         int_fast16_t deltaY = abs((int_fast16_t)y2 - (int_fast16_t)y1);
 4815              		.loc 9 227 22 is_stmt 0 view .LVU1127
 4816 00dc 4646     		mov	r6, r8
 4817 00de 9446     		mov	ip, r2
 4818 00e0 8E46     		mov	lr, r1
 4819              	.LVL374:
 4820              	.L329:
 4821              	.LBB1325:
 4822              	.LBI1325:
  42:../../libDaisy//src/hid/disp/oled_display.h ****     {
 4823              		.loc 8 42 10 is_stmt 1 view .LVU1128
 4824              	.LBB1326:
 4825              	.LBI1326:
 352:../../libDaisy//src/dev/oled_ssd130x.h ****     {
 4826              		.loc 10 352 10 view .LVU1129
 4827              	.LBB1327:
 354:../../libDaisy//src/dev/oled_ssd130x.h ****             return;
 4828              		.loc 10 354 9 is_stmt 0 view .LVU1130
 4829 00e2 BEF17F0F 		cmp	lr, #127
 4830 00e6 16D8     		bhi	.L330
 4831 00e8 BCF13F0F 		cmp	ip, #63
 4832 00ec 13D8     		bhi	.L330
 357:../../libDaisy//src/dev/oled_ssd130x.h ****         else
 4833              		.loc 10 357 28 view .LVU1131
 4834 00ee 4FEADC07 		lsr	r7, ip, #3
 357:../../libDaisy//src/dev/oled_ssd130x.h ****         else
 4835              		.loc 10 357 54 view .LVU1132
 4836 00f2 0CF0070B 		and	fp, ip, #7
 357:../../libDaisy//src/dev/oled_ssd130x.h ****         else
 4837              		.loc 10 357 48 view .LVU1133
 4838 00f6 4FF00109 		mov	r9, #1
 357:../../libDaisy//src/dev/oled_ssd130x.h ****         else
 4839              		.loc 10 357 42 view .LVU1134
 4840 00fa 0EEBC717 		add	r7, lr, r7, lsl #7
 4841 00fe 0744     		add	r7, r7, r0
 356:../../libDaisy//src/dev/oled_ssd130x.h ****             buffer_[x + (y / 8) * width] |= (1 << (y % 8));
 4842              		.loc 10 356 9 view .LVU1135
ARM GAS  /var/folders/hl/qgbwny5j0fd895c2c41bk3tw0000gp/T//ccRMOALe.s 			page 143


 4843 0100 002D     		cmp	r5, #0
 4844 0102 00F03981 		beq	.L331
 357:../../libDaisy//src/dev/oled_ssd130x.h ****         else
 4845              		.loc 10 357 48 view .LVU1136
 4846 0106 09FA0BF9 		lsl	r9, r9, fp
 357:../../libDaisy//src/dev/oled_ssd130x.h ****         else
 4847              		.loc 10 357 42 view .LVU1137
 4848 010a 97F810B0 		ldrb	fp, [r7, #16]	@ zero_extendqisi2
 4849 010e 49EA0B09 		orr	r9, r9, fp
 4850 0112 87F81090 		strb	r9, [r7, #16]
 4851              	.L330:
 4852              	.LVL375:
 357:../../libDaisy//src/dev/oled_ssd130x.h ****         else
 4853              		.loc 10 357 42 view .LVU1138
 4854              	.LBE1327:
 4855              	.LBE1326:
 4856              	.LBE1325:
 243:../../libDaisy//src/hid/disp/display.h ****             {
 4857              		.loc 9 243 13 view .LVU1139
 4858 0116 7700     		lsls	r7, r6, #1
 4859              	.LVL376:
 246:../../libDaisy//src/hid/disp/display.h ****             }
 4860              		.loc 9 246 20 view .LVU1140
 4861 0118 18BF     		it	ne
 4862 011a D644     		addne	lr, lr, r10
 4863              	.LVL377:
 249:../../libDaisy//src/hid/disp/display.h ****             {
 4864              		.loc 9 249 13 view .LVU1141
 4865 011c B845     		cmp	r8, r7
 4866 011e 02DD     		ble	.L333
 251:../../libDaisy//src/hid/disp/display.h ****                 y1 += signY;
 4867              		.loc 9 251 23 view .LVU1142
 4868 0120 4644     		add	r6, r6, r8
 4869              	.LVL378:
 252:../../libDaisy//src/hid/disp/display.h ****             }
 4870              		.loc 9 252 20 view .LVU1143
 4871 0122 0CF1FF3C 		add	ip, ip, #-1
 4872              	.LVL379:
 4873              	.L333:
 239:../../libDaisy//src/hid/disp/display.h ****         {
 4874              		.loc 9 239 26 is_stmt 1 view .LVU1144
 4875 0126 7345     		cmp	r3, lr
 4876 0128 DBD1     		bne	.L329
 239:../../libDaisy//src/hid/disp/display.h ****         {
 4877              		.loc 9 239 26 is_stmt 0 view .LVU1145
 4878 012a 6245     		cmp	r2, ip
 4879 012c D9D1     		bne	.L329
 4880 012e 0026     		movs	r6, #0
 4881              	.LVL380:
 239:../../libDaisy//src/hid/disp/display.h ****         {
 4882              		.loc 9 239 26 view .LVU1146
 4883 0130 0496     		str	r6, [sp, #16]
 4884              	.LVL381:
 4885              	.L326:
 239:../../libDaisy//src/hid/disp/display.h ****         {
 4886              		.loc 9 239 26 view .LVU1147
 4887              	.LBE1310:
ARM GAS  /var/folders/hl/qgbwny5j0fd895c2c41bk3tw0000gp/T//ccRMOALe.s 			page 144


 4888              	.LBE1309:
 4889              	.LBB1340:
 4890              	.LBI1340:
 221:../../libDaisy//src/hid/disp/display.h ****                   uint_fast8_t y1,
 4891              		.loc 9 221 10 is_stmt 1 view .LVU1148
 4892              	.LBB1341:
 228:../../libDaisy//src/hid/disp/display.h ****         int_fast16_t signX  = ((x1 < x2) ? 1 : -1);
 4893              		.loc 9 228 52 is_stmt 0 view .LVU1149
 4894 0132 A4EB0209 		sub	r9, r4, r2
 4895              	.LBB1342:
 4896              	.LBB1343:
 4897              	.LBB1344:
 354:../../libDaisy//src/dev/oled_ssd130x.h ****             return;
 4898              		.loc 10 354 9 view .LVU1150
 4899 0136 009F     		ldr	r7, [sp]
 4900              	.LBE1344:
 4901              	.LBE1343:
 4902              	.LBE1342:
 228:../../libDaisy//src/hid/disp/display.h ****         int_fast16_t signX  = ((x1 < x2) ? 1 : -1);
 4903              		.loc 9 228 22 view .LVU1151
 4904 0138 B9F1000F 		cmp	r9, #0
 4905 013c B8BF     		it	lt
 4906 013e C9F10009 		rsblt	r9, r9, #0
 4907              	.LVL382:
 4908              	.LBB1359:
 4909              	.LBB1353:
 4910              	.LBB1347:
 354:../../libDaisy//src/dev/oled_ssd130x.h ****             return;
 4911              		.loc 10 354 28 view .LVU1152
 4912 0142 3F2C     		cmp	r4, #63
 4913 0144 94BF     		ite	ls
 4914 0146 0026     		movls	r6, #0
 4915 0148 0126     		movhi	r6, #1
 4916              	.LBE1347:
 4917              	.LBE1353:
 4918              	.LBE1359:
 230:../../libDaisy//src/hid/disp/display.h ****         int_fast16_t error  = deltaX - deltaY;
 4919              		.loc 9 230 42 view .LVU1153
 4920 014a A242     		cmp	r2, r4
 231:../../libDaisy//src/hid/disp/display.h ****         int_fast16_t error2;
 4921              		.loc 9 231 22 view .LVU1154
 4922 014c C9F10008 		rsb	r8, r9, #0
 4923              	.LVL383:
 4924              	.LBB1360:
 4925              	.LBI1342:
  42:../../libDaisy//src/hid/disp/oled_display.h ****     {
 4926              		.loc 8 42 10 is_stmt 1 view .LVU1155
 4927              	.LBB1354:
 4928              	.LBI1343:
 352:../../libDaisy//src/dev/oled_ssd130x.h ****     {
 4929              		.loc 10 352 10 view .LVU1156
 4930              	.LBB1348:
 354:../../libDaisy//src/dev/oled_ssd130x.h ****             return;
 4931              		.loc 10 354 28 is_stmt 0 view .LVU1157
 4932 0150 0396     		str	r6, [sp, #12]
 4933              	.LBE1348:
 4934              	.LBE1354:
ARM GAS  /var/folders/hl/qgbwny5j0fd895c2c41bk3tw0000gp/T//ccRMOALe.s 			page 145


 4935              	.LBE1360:
 230:../../libDaisy//src/hid/disp/display.h ****         int_fast16_t error  = deltaX - deltaY;
 4936              		.loc 9 230 42 view .LVU1158
 4937 0152 C0F02381 		bcc	.L334
 4938              	.LVL384:
 4939              	.LBB1361:
 4940              	.LBB1355:
 4941              	.LBB1349:
 354:../../libDaisy//src/dev/oled_ssd130x.h ****             return;
 4942              		.loc 10 354 9 view .LVU1159
 4943 0156 002F     		cmp	r7, #0
 4944 0158 40F05081 		bne	.L369
 4945 015c 002E     		cmp	r6, #0
 4946 015e 40F04D81 		bne	.L369
 4947              	.LBE1349:
 4948              	.LBE1355:
 4949              	.LBE1361:
 230:../../libDaisy//src/hid/disp/display.h ****         int_fast16_t error  = deltaX - deltaY;
 4950              		.loc 9 230 42 view .LVU1160
 4951 0162 4FF0FF36 		mov	r6, #-1
 4952 0166 0096     		str	r6, [sp]
 4953              	.LBB1362:
 4954              	.LBB1356:
 4955              	.LBB1350:
 357:../../libDaisy//src/dev/oled_ssd130x.h ****         else
 4956              		.loc 10 357 28 view .LVU1161
 4957 0168 E608     		lsrs	r6, r4, #3
 357:../../libDaisy//src/dev/oled_ssd130x.h ****         else
 4958              		.loc 10 357 42 view .LVU1162
 4959 016a 03EBC616 		add	r6, r3, r6, lsl #7
 4960 016e 0644     		add	r6, r6, r0
 356:../../libDaisy//src/dev/oled_ssd130x.h ****             buffer_[x + (y / 8) * width] |= (1 << (y % 8));
 4961              		.loc 10 356 9 view .LVU1163
 4962 0170 002D     		cmp	r5, #0
 4963 0172 00F01E81 		beq	.L336
 4964              	.LVL385:
 4965              	.L408:
 357:../../libDaisy//src/dev/oled_ssd130x.h ****         else
 4966              		.loc 10 357 48 view .LVU1164
 4967 0176 4FF0010C 		mov	ip, #1
 357:../../libDaisy//src/dev/oled_ssd130x.h ****         else
 4968              		.loc 10 357 54 view .LVU1165
 4969 017a 04F00707 		and	r7, r4, #7
 357:../../libDaisy//src/dev/oled_ssd130x.h ****         else
 4970              		.loc 10 357 48 view .LVU1166
 4971 017e 0CFA07F7 		lsl	r7, ip, r7
 357:../../libDaisy//src/dev/oled_ssd130x.h ****         else
 4972              		.loc 10 357 42 view .LVU1167
 4973 0182 96F810C0 		ldrb	ip, [r6, #16]	@ zero_extendqisi2
 4974 0186 47EA0C07 		orr	r7, r7, ip
 4975 018a 3774     		strb	r7, [r6, #16]
 4976 018c 0026     		movs	r6, #0
 4977 018e 0396     		str	r6, [sp, #12]
 4978              	.L335:
 4979              	.LVL386:
 357:../../libDaisy//src/dev/oled_ssd130x.h ****         else
 4980              		.loc 10 357 42 view .LVU1168
ARM GAS  /var/folders/hl/qgbwny5j0fd895c2c41bk3tw0000gp/T//ccRMOALe.s 			page 146


 4981              	.LBE1350:
 4982              	.LBE1356:
 4983              	.LBE1362:
 239:../../libDaisy//src/hid/disp/display.h ****         {
 4984              		.loc 9 239 26 is_stmt 1 view .LVU1169
 4985 0190 A242     		cmp	r2, r4
 4986 0192 00F03D81 		beq	.L407
 4987              	.L338:
 4988              	.LVL387:
 230:../../libDaisy//src/hid/disp/display.h ****         int_fast16_t error  = deltaX - deltaY;
 4989              		.loc 9 230 42 is_stmt 0 view .LVU1170
 4990 0196 C446     		mov	ip, r8
 4991 0198 1646     		mov	r6, r2
 4992 019a 1F46     		mov	r7, r3
 4993 019c 0592     		str	r2, [sp, #20]
 4994              	.LVL388:
 4995              	.L340:
 4996              	.LBB1363:
 4997              	.LBI1363:
  42:../../libDaisy//src/hid/disp/oled_display.h ****     {
 4998              		.loc 8 42 10 is_stmt 1 view .LVU1171
 4999              	.LBB1364:
 5000              	.LBI1364:
 352:../../libDaisy//src/dev/oled_ssd130x.h ****     {
 5001              		.loc 10 352 10 view .LVU1172
 5002              	.LBB1365:
 354:../../libDaisy//src/dev/oled_ssd130x.h ****             return;
 5003              		.loc 10 354 9 is_stmt 0 view .LVU1173
 5004 019e 7F2F     		cmp	r7, #127
 5005 01a0 15D8     		bhi	.L341
 5006 01a2 3F2E     		cmp	r6, #63
 5007 01a4 13D8     		bhi	.L341
 357:../../libDaisy//src/dev/oled_ssd130x.h ****         else
 5008              		.loc 10 357 28 view .LVU1174
 5009 01a6 4FEAD60E 		lsr	lr, r6, #3
 357:../../libDaisy//src/dev/oled_ssd130x.h ****         else
 5010              		.loc 10 357 54 view .LVU1175
 5011 01aa 06F0070B 		and	fp, r6, #7
 357:../../libDaisy//src/dev/oled_ssd130x.h ****         else
 5012              		.loc 10 357 48 view .LVU1176
 5013 01ae 4FF0010A 		mov	r10, #1
 357:../../libDaisy//src/dev/oled_ssd130x.h ****         else
 5014              		.loc 10 357 42 view .LVU1177
 5015 01b2 07EBCE1E 		add	lr, r7, lr, lsl #7
 5016 01b6 8644     		add	lr, lr, r0
 356:../../libDaisy//src/dev/oled_ssd130x.h ****             buffer_[x + (y / 8) * width] |= (1 << (y % 8));
 5017              		.loc 10 356 9 view .LVU1178
 5018 01b8 002D     		cmp	r5, #0
 5019 01ba 00F0E680 		beq	.L342
 357:../../libDaisy//src/dev/oled_ssd130x.h ****         else
 5020              		.loc 10 357 48 view .LVU1179
 5021 01be 0AFA0BFA 		lsl	r10, r10, fp
 357:../../libDaisy//src/dev/oled_ssd130x.h ****         else
 5022              		.loc 10 357 42 view .LVU1180
 5023 01c2 9EF810B0 		ldrb	fp, [lr, #16]	@ zero_extendqisi2
 5024 01c6 4AEA0B0A 		orr	r10, r10, fp
 5025 01ca 8EF810A0 		strb	r10, [lr, #16]
ARM GAS  /var/folders/hl/qgbwny5j0fd895c2c41bk3tw0000gp/T//ccRMOALe.s 			page 147


 5026              	.L341:
 5027              	.LVL389:
 357:../../libDaisy//src/dev/oled_ssd130x.h ****         else
 5028              		.loc 10 357 42 view .LVU1181
 5029              	.LBE1365:
 5030              	.LBE1364:
 5031              	.LBE1363:
 243:../../libDaisy//src/hid/disp/display.h ****             {
 5032              		.loc 9 243 13 view .LVU1182
 5033 01ce B8EB4C0F 		cmp	r8, ip, lsl #1
 242:../../libDaisy//src/hid/disp/display.h ****             if(error2 > -deltaY)
 5034              		.loc 9 242 20 view .LVU1183
 5035 01d2 4FEA4C0E 		lsl	lr, ip, #1
 5036              	.LVL390:
 243:../../libDaisy//src/hid/disp/display.h ****             {
 5037              		.loc 9 243 13 view .LVU1184
 5038 01d6 02DA     		bge	.L343
 245:../../libDaisy//src/hid/disp/display.h ****                 x1 += signX;
 5039              		.loc 9 245 23 view .LVU1185
 5040 01d8 ACEB090C 		sub	ip, ip, r9
 5041              	.LVL391:
 246:../../libDaisy//src/hid/disp/display.h ****             }
 5042              		.loc 9 246 20 view .LVU1186
 5043 01dc 013F     		subs	r7, r7, #1
 5044              	.LVL392:
 5045              	.L343:
 249:../../libDaisy//src/hid/disp/display.h ****             {
 5046              		.loc 9 249 13 view .LVU1187
 5047 01de BEF1000F 		cmp	lr, #0
 5048 01e2 01D0     		beq	.L344
 252:../../libDaisy//src/hid/disp/display.h ****             }
 5049              		.loc 9 252 20 view .LVU1188
 5050 01e4 009A     		ldr	r2, [sp]
 5051 01e6 1644     		add	r6, r6, r2
 5052              	.LVL393:
 5053              	.L344:
 239:../../libDaisy//src/hid/disp/display.h ****         {
 5054              		.loc 9 239 26 is_stmt 1 view .LVU1189
 5055 01e8 BB42     		cmp	r3, r7
 5056 01ea D8D1     		bne	.L340
 239:../../libDaisy//src/hid/disp/display.h ****         {
 5057              		.loc 9 239 26 is_stmt 0 view .LVU1190
 5058 01ec B442     		cmp	r4, r6
 5059 01ee D6D1     		bne	.L340
 5060 01f0 059A     		ldr	r2, [sp, #20]
 5061              	.LVL394:
 5062              	.L337:
 239:../../libDaisy//src/hid/disp/display.h ****         {
 5063              		.loc 9 239 26 view .LVU1191
 5064              	.LBE1341:
 5065              	.LBE1340:
 5066              	.LBB1376:
 5067              	.LBI1376:
 221:../../libDaisy//src/hid/disp/display.h ****                   uint_fast8_t y1,
 5068              		.loc 9 221 10 is_stmt 1 view .LVU1192
 5069              	.LBB1377:
 227:../../libDaisy//src/hid/disp/display.h ****         int_fast16_t deltaY = abs((int_fast16_t)y2 - (int_fast16_t)y1);
ARM GAS  /var/folders/hl/qgbwny5j0fd895c2c41bk3tw0000gp/T//ccRMOALe.s 			page 148


 5070              		.loc 9 227 52 is_stmt 0 view .LVU1193
 5071 01f2 A1EB030E 		sub	lr, r1, r3
 227:../../libDaisy//src/hid/disp/display.h ****         int_fast16_t deltaY = abs((int_fast16_t)y2 - (int_fast16_t)y1);
 5072              		.loc 9 227 22 view .LVU1194
 5073 01f6 BEF1000F 		cmp	lr, #0
 5074 01fa B8BF     		it	lt
 5075 01fc CEF1000E 		rsblt	lr, lr, #0
 5076              	.LVL395:
 5077              	.LBB1378:
 5078              	.LBB1379:
 5079              	.LBB1380:
 354:../../libDaisy//src/dev/oled_ssd130x.h ****             return;
 5080              		.loc 10 354 14 view .LVU1195
 5081 0200 7F29     		cmp	r1, #127
 5082 0202 94BF     		ite	ls
 5083 0204 4FF0000A 		movls	r10, #0
 5084 0208 4FF0010A 		movhi	r10, #1
 5085              	.LBE1380:
 5086              	.LBE1379:
 5087              	.LBE1378:
 229:../../libDaisy//src/hid/disp/display.h ****         int_fast16_t signY  = ((y1 < y2) ? 1 : -1);
 5088              		.loc 9 229 42 view .LVU1196
 5089 020c 9942     		cmp	r1, r3
 5090 020e 8CBF     		ite	hi
 5091 0210 4FF00109 		movhi	r9, #1
 5092 0214 4FF0FF39 		movls	r9, #-1
 5093              	.LVL396:
 5094              	.LBB1387:
 5095              	.LBI1378:
  42:../../libDaisy//src/hid/disp/oled_display.h ****     {
 5096              		.loc 8 42 10 is_stmt 1 view .LVU1197
 5097              	.LBB1385:
 5098              	.LBI1379:
 352:../../libDaisy//src/dev/oled_ssd130x.h ****     {
 5099              		.loc 10 352 10 view .LVU1198
 5100              	.LBB1383:
 354:../../libDaisy//src/dev/oled_ssd130x.h ****             return;
 5101              		.loc 10 354 9 is_stmt 0 view .LVU1199
 5102 0218 BAF1000F 		cmp	r10, #0
 5103 021c 13D1     		bne	.L346
 5104 021e 039E     		ldr	r6, [sp, #12]
 5105 0220 8EB9     		cbnz	r6, .L346
 357:../../libDaisy//src/dev/oled_ssd130x.h ****         else
 5106              		.loc 10 357 28 view .LVU1200
 5107 0222 E608     		lsrs	r6, r4, #3
 357:../../libDaisy//src/dev/oled_ssd130x.h ****         else
 5108              		.loc 10 357 42 view .LVU1201
 5109 0224 01EBC616 		add	r6, r1, r6, lsl #7
 5110 0228 0644     		add	r6, r6, r0
 356:../../libDaisy//src/dev/oled_ssd130x.h ****             buffer_[x + (y / 8) * width] |= (1 << (y % 8));
 5111              		.loc 10 356 9 view .LVU1202
 5112 022a 002D     		cmp	r5, #0
 5113 022c 00F0D380 		beq	.L347
 357:../../libDaisy//src/dev/oled_ssd130x.h ****         else
 5114              		.loc 10 357 48 view .LVU1203
 5115 0230 4FF0010C 		mov	ip, #1
 357:../../libDaisy//src/dev/oled_ssd130x.h ****         else
ARM GAS  /var/folders/hl/qgbwny5j0fd895c2c41bk3tw0000gp/T//ccRMOALe.s 			page 149


 5116              		.loc 10 357 54 view .LVU1204
 5117 0234 04F00707 		and	r7, r4, #7
 357:../../libDaisy//src/dev/oled_ssd130x.h ****         else
 5118              		.loc 10 357 48 view .LVU1205
 5119 0238 0CFA07F7 		lsl	r7, ip, r7
 357:../../libDaisy//src/dev/oled_ssd130x.h ****         else
 5120              		.loc 10 357 42 view .LVU1206
 5121 023c 96F810C0 		ldrb	ip, [r6, #16]	@ zero_extendqisi2
 5122 0240 47EA0C07 		orr	r7, r7, ip
 5123 0244 3774     		strb	r7, [r6, #16]
 5124              	.L346:
 5125              	.LVL397:
 357:../../libDaisy//src/dev/oled_ssd130x.h ****         else
 5126              		.loc 10 357 42 view .LVU1207
 5127              	.LBE1383:
 5128              	.LBE1385:
 5129              	.LBE1387:
 239:../../libDaisy//src/hid/disp/display.h ****         {
 5130              		.loc 9 239 26 is_stmt 1 view .LVU1208
 5131 0246 049E     		ldr	r6, [sp, #16]
 5132 0248 26BB     		cbnz	r6, .L348
 227:../../libDaisy//src/hid/disp/display.h ****         int_fast16_t deltaY = abs((int_fast16_t)y2 - (int_fast16_t)y1);
 5133              		.loc 9 227 22 is_stmt 0 view .LVU1209
 5134 024a 7746     		mov	r7, lr
 239:../../libDaisy//src/hid/disp/display.h ****         {
 5135              		.loc 9 239 26 view .LVU1210
 5136 024c 2646     		mov	r6, r4
 5137              	.LVL398:
 5138              	.L349:
 5139              	.LBB1388:
 5140              	.LBI1388:
  42:../../libDaisy//src/hid/disp/oled_display.h ****     {
 5141              		.loc 8 42 10 is_stmt 1 view .LVU1211
 5142              	.LBB1389:
 5143              	.LBI1389:
 352:../../libDaisy//src/dev/oled_ssd130x.h ****     {
 5144              		.loc 10 352 10 view .LVU1212
 5145              	.LBB1390:
 354:../../libDaisy//src/dev/oled_ssd130x.h ****             return;
 5146              		.loc 10 354 9 is_stmt 0 view .LVU1213
 5147 024e 7F2B     		cmp	r3, #127
 5148 0250 14D8     		bhi	.L351
 354:../../libDaisy//src/dev/oled_ssd130x.h ****             return;
 5149              		.loc 10 354 9 view .LVU1214
 5150 0252 3F2E     		cmp	r6, #63
 5151 0254 12D8     		bhi	.L351
 357:../../libDaisy//src/dev/oled_ssd130x.h ****         else
 5152              		.loc 10 357 28 view .LVU1215
 5153 0256 4FEAD60C 		lsr	ip, r6, #3
 357:../../libDaisy//src/dev/oled_ssd130x.h ****         else
 5154              		.loc 10 357 54 view .LVU1216
 5155 025a 06F0070B 		and	fp, r6, #7
 357:../../libDaisy//src/dev/oled_ssd130x.h ****         else
 5156              		.loc 10 357 48 view .LVU1217
 5157 025e 4FF00108 		mov	r8, #1
 357:../../libDaisy//src/dev/oled_ssd130x.h ****         else
 5158              		.loc 10 357 42 view .LVU1218
ARM GAS  /var/folders/hl/qgbwny5j0fd895c2c41bk3tw0000gp/T//ccRMOALe.s 			page 150


 5159 0262 03EBCC1C 		add	ip, r3, ip, lsl #7
 5160 0266 8444     		add	ip, ip, r0
 356:../../libDaisy//src/dev/oled_ssd130x.h ****             buffer_[x + (y / 8) * width] |= (1 << (y % 8));
 5161              		.loc 10 356 9 view .LVU1219
 5162 0268 002D     		cmp	r5, #0
 5163 026a 73D0     		beq	.L352
 357:../../libDaisy//src/dev/oled_ssd130x.h ****         else
 5164              		.loc 10 357 48 view .LVU1220
 5165 026c 08FA0BF8 		lsl	r8, r8, fp
 357:../../libDaisy//src/dev/oled_ssd130x.h ****         else
 5166              		.loc 10 357 42 view .LVU1221
 5167 0270 9CF810B0 		ldrb	fp, [ip, #16]	@ zero_extendqisi2
 5168 0274 48EA0B08 		orr	r8, r8, fp
 5169 0278 8CF81080 		strb	r8, [ip, #16]
 5170              	.L351:
 5171              	.LVL399:
 357:../../libDaisy//src/dev/oled_ssd130x.h ****         else
 5172              		.loc 10 357 42 view .LVU1222
 5173              	.LBE1390:
 5174              	.LBE1389:
 5175              	.LBE1388:
 243:../../libDaisy//src/hid/disp/display.h ****             {
 5176              		.loc 9 243 13 view .LVU1223
 5177 027c 5FEA470C 		lsls	ip, r7, #1
 5178              	.LVL400:
 246:../../libDaisy//src/hid/disp/display.h ****             }
 5179              		.loc 9 246 20 view .LVU1224
 5180 0280 18BF     		it	ne
 5181 0282 4B44     		addne	r3, r3, r9
 5182              	.LVL401:
 249:../../libDaisy//src/hid/disp/display.h ****             {
 5183              		.loc 9 249 13 view .LVU1225
 5184 0284 E645     		cmp	lr, ip
 5185 0286 01DD     		ble	.L354
 251:../../libDaisy//src/hid/disp/display.h ****                 y1 += signY;
 5186              		.loc 9 251 23 view .LVU1226
 5187 0288 7744     		add	r7, r7, lr
 5188              	.LVL402:
 252:../../libDaisy//src/hid/disp/display.h ****             }
 5189              		.loc 9 252 20 view .LVU1227
 5190 028a 013E     		subs	r6, r6, #1
 5191              	.LVL403:
 5192              	.L354:
 239:../../libDaisy//src/hid/disp/display.h ****         {
 5193              		.loc 9 239 26 is_stmt 1 view .LVU1228
 5194 028c 9942     		cmp	r1, r3
 5195 028e DED1     		bne	.L349
 239:../../libDaisy//src/hid/disp/display.h ****         {
 5196              		.loc 9 239 26 is_stmt 0 view .LVU1229
 5197 0290 B442     		cmp	r4, r6
 5198 0292 DCD1     		bne	.L349
 5199              	.LVL404:
 5200              	.L348:
 239:../../libDaisy//src/hid/disp/display.h ****         {
 5201              		.loc 9 239 26 view .LVU1230
 5202              	.LBE1377:
 5203              	.LBE1376:
ARM GAS  /var/folders/hl/qgbwny5j0fd895c2c41bk3tw0000gp/T//ccRMOALe.s 			page 151


 5204              	.LBB1399:
 5205              	.LBI1399:
 221:../../libDaisy//src/hid/disp/display.h ****                   uint_fast8_t y1,
 5206              		.loc 9 221 10 is_stmt 1 view .LVU1231
 5207              	.LBB1400:
 228:../../libDaisy//src/hid/disp/display.h ****         int_fast16_t signX  = ((x1 < x2) ? 1 : -1);
 5208              		.loc 9 228 52 is_stmt 0 view .LVU1232
 5209 0294 A2EB040E 		sub	lr, r2, r4
 228:../../libDaisy//src/hid/disp/display.h ****         int_fast16_t signX  = ((x1 < x2) ? 1 : -1);
 5210              		.loc 9 228 22 view .LVU1233
 5211 0298 BEF1000F 		cmp	lr, #0
 5212 029c B8BF     		it	lt
 5213 029e CEF1000E 		rsblt	lr, lr, #0
 5214              	.LVL405:
 230:../../libDaisy//src/hid/disp/display.h ****         int_fast16_t error  = deltaX - deltaY;
 5215              		.loc 9 230 42 view .LVU1234
 5216 02a2 A242     		cmp	r2, r4
 5217 02a4 8CBF     		ite	hi
 5218 02a6 4FF00108 		movhi	r8, #1
 5219 02aa 4FF0FF38 		movls	r8, #-1
 5220              	.LVL406:
 231:../../libDaisy//src/hid/disp/display.h ****         int_fast16_t error2;
 5221              		.loc 9 231 22 view .LVU1235
 5222 02ae CEF1000C 		rsb	ip, lr, #0
 5223              	.LVL407:
 5224              	.LBB1401:
 5225              	.LBI1401:
  42:../../libDaisy//src/hid/disp/oled_display.h ****     {
 5226              		.loc 8 42 10 is_stmt 1 view .LVU1236
 5227              	.LBB1402:
 5228              	.LBI1402:
 352:../../libDaisy//src/dev/oled_ssd130x.h ****     {
 5229              		.loc 10 352 10 view .LVU1237
 5230              	.LBB1403:
 354:../../libDaisy//src/dev/oled_ssd130x.h ****             return;
 5231              		.loc 10 354 9 is_stmt 0 view .LVU1238
 5232 02b2 BAF1000F 		cmp	r10, #0
 5233 02b6 0ED1     		bne	.L356
 5234 02b8 029B     		ldr	r3, [sp, #8]
 5235 02ba 63B9     		cbnz	r3, .L356
 357:../../libDaisy//src/dev/oled_ssd130x.h ****         else
 5236              		.loc 10 357 28 view .LVU1239
 5237 02bc D308     		lsrs	r3, r2, #3
 357:../../libDaisy//src/dev/oled_ssd130x.h ****         else
 5238              		.loc 10 357 54 view .LVU1240
 5239 02be 02F00707 		and	r7, r2, #7
 357:../../libDaisy//src/dev/oled_ssd130x.h ****         else
 5240              		.loc 10 357 48 view .LVU1241
 5241 02c2 0126     		movs	r6, #1
 357:../../libDaisy//src/dev/oled_ssd130x.h ****         else
 5242              		.loc 10 357 42 view .LVU1242
 5243 02c4 01EBC313 		add	r3, r1, r3, lsl #7
 5244 02c8 0344     		add	r3, r3, r0
 356:../../libDaisy//src/dev/oled_ssd130x.h ****             buffer_[x + (y / 8) * width] |= (1 << (y % 8));
 5245              		.loc 10 356 9 view .LVU1243
 5246 02ca 002D     		cmp	r5, #0
 5247 02cc 7CD0     		beq	.L357
ARM GAS  /var/folders/hl/qgbwny5j0fd895c2c41bk3tw0000gp/T//ccRMOALe.s 			page 152


 357:../../libDaisy//src/dev/oled_ssd130x.h ****         else
 5248              		.loc 10 357 48 view .LVU1244
 5249 02ce BE40     		lsls	r6, r6, r7
 357:../../libDaisy//src/dev/oled_ssd130x.h ****         else
 5250              		.loc 10 357 42 view .LVU1245
 5251 02d0 1F7C     		ldrb	r7, [r3, #16]	@ zero_extendqisi2
 5252 02d2 3E43     		orrs	r6, r6, r7
 5253 02d4 1E74     		strb	r6, [r3, #16]
 5254              	.L356:
 5255              	.LVL408:
 357:../../libDaisy//src/dev/oled_ssd130x.h ****         else
 5256              		.loc 10 357 42 view .LVU1246
 5257              	.LBE1403:
 5258              	.LBE1402:
 5259              	.LBE1401:
 239:../../libDaisy//src/hid/disp/display.h ****         {
 5260              		.loc 9 239 26 is_stmt 1 view .LVU1247
 5261 02d6 019B     		ldr	r3, [sp, #4]
 5262 02d8 002B     		cmp	r3, #0
 5263 02da 7FF4CDAE 		bne	.L314
 5264 02de 6646     		mov	r6, ip
 5265 02e0 0B46     		mov	r3, r1
 5266              	.LVL409:
 5267              	.L358:
 5268              	.LBB1408:
 5269              	.LBI1408:
  42:../../libDaisy//src/hid/disp/oled_display.h ****     {
 5270              		.loc 8 42 10 view .LVU1248
 5271              	.LBB1409:
 5272              	.LBI1409:
 352:../../libDaisy//src/dev/oled_ssd130x.h ****     {
 5273              		.loc 10 352 10 view .LVU1249
 5274              	.LBB1410:
 354:../../libDaisy//src/dev/oled_ssd130x.h ****             return;
 5275              		.loc 10 354 9 is_stmt 0 view .LVU1250
 5276 02e2 7F2B     		cmp	r3, #127
 5277 02e4 12D8     		bhi	.L360
 354:../../libDaisy//src/dev/oled_ssd130x.h ****             return;
 5278              		.loc 10 354 9 view .LVU1251
 5279 02e6 3F2C     		cmp	r4, #63
 5280 02e8 10D8     		bhi	.L360
 357:../../libDaisy//src/dev/oled_ssd130x.h ****         else
 5281              		.loc 10 357 28 view .LVU1252
 5282 02ea E708     		lsrs	r7, r4, #3
 357:../../libDaisy//src/dev/oled_ssd130x.h ****         else
 5283              		.loc 10 357 54 view .LVU1253
 5284 02ec 04F0070A 		and	r10, r4, #7
 357:../../libDaisy//src/dev/oled_ssd130x.h ****         else
 5285              		.loc 10 357 48 view .LVU1254
 5286 02f0 4FF00109 		mov	r9, #1
 357:../../libDaisy//src/dev/oled_ssd130x.h ****         else
 5287              		.loc 10 357 42 view .LVU1255
 5288 02f4 03EBC717 		add	r7, r3, r7, lsl #7
 5289 02f8 0744     		add	r7, r7, r0
 356:../../libDaisy//src/dev/oled_ssd130x.h ****             buffer_[x + (y / 8) * width] |= (1 << (y % 8));
 5290              		.loc 10 356 9 view .LVU1256
 5291 02fa A5B3     		cbz	r5, .L361
ARM GAS  /var/folders/hl/qgbwny5j0fd895c2c41bk3tw0000gp/T//ccRMOALe.s 			page 153


 357:../../libDaisy//src/dev/oled_ssd130x.h ****         else
 5292              		.loc 10 357 48 view .LVU1257
 5293 02fc 09FA0AF9 		lsl	r9, r9, r10
 357:../../libDaisy//src/dev/oled_ssd130x.h ****         else
 5294              		.loc 10 357 42 view .LVU1258
 5295 0300 97F810A0 		ldrb	r10, [r7, #16]	@ zero_extendqisi2
 5296 0304 49EA0A09 		orr	r9, r9, r10
 5297 0308 87F81090 		strb	r9, [r7, #16]
 5298              	.L360:
 5299              	.LVL410:
 357:../../libDaisy//src/dev/oled_ssd130x.h ****         else
 5300              		.loc 10 357 42 view .LVU1259
 5301              	.LBE1410:
 5302              	.LBE1409:
 5303              	.LBE1408:
 243:../../libDaisy//src/hid/disp/display.h ****             {
 5304              		.loc 9 243 13 view .LVU1260
 5305 030c BCEB460F 		cmp	ip, r6, lsl #1
 242:../../libDaisy//src/hid/disp/display.h ****             if(error2 > -deltaY)
 5306              		.loc 9 242 20 view .LVU1261
 5307 0310 4FEA4607 		lsl	r7, r6, #1
 5308              	.LVL411:
 243:../../libDaisy//src/hid/disp/display.h ****             {
 5309              		.loc 9 243 13 view .LVU1262
 5310 0314 02DA     		bge	.L362
 245:../../libDaisy//src/hid/disp/display.h ****                 x1 += signX;
 5311              		.loc 9 245 23 view .LVU1263
 5312 0316 A6EB0E06 		sub	r6, r6, lr
 5313              	.LVL412:
 246:../../libDaisy//src/hid/disp/display.h ****             }
 5314              		.loc 9 246 20 view .LVU1264
 5315 031a 013B     		subs	r3, r3, #1
 5316              	.LVL413:
 5317              	.L362:
 249:../../libDaisy//src/hid/disp/display.h ****             {
 5318              		.loc 9 249 13 view .LVU1265
 5319 031c 07B1     		cbz	r7, .L363
 252:../../libDaisy//src/hid/disp/display.h ****             }
 5320              		.loc 9 252 20 view .LVU1266
 5321 031e 4444     		add	r4, r4, r8
 5322              	.LVL414:
 5323              	.L363:
 239:../../libDaisy//src/hid/disp/display.h ****         {
 5324              		.loc 9 239 26 is_stmt 1 view .LVU1267
 5325 0320 9942     		cmp	r1, r3
 5326 0322 DED1     		bne	.L358
 239:../../libDaisy//src/hid/disp/display.h ****         {
 5327              		.loc 9 239 26 is_stmt 0 view .LVU1268
 5328 0324 A242     		cmp	r2, r4
 5329 0326 DCD1     		bne	.L358
 5330              	.LBE1400:
 5331              	.LBE1399:
 5332              	.LBE1452:
 281:../../libDaisy//src/hid/disp/display.h **** 
 5333              		.loc 9 281 5 view .LVU1269
 5334 0328 07B0     		add	sp, sp, #28
 5335              		.cfi_remember_state
ARM GAS  /var/folders/hl/qgbwny5j0fd895c2c41bk3tw0000gp/T//ccRMOALe.s 			page 154


 5336              		.cfi_def_cfa_offset 36
 5337              		@ sp needed
 5338 032a BDE8F08F 		pop	{r4, r5, r6, r7, r8, r9, r10, fp, pc}
 5339              	.LVL415:
 5340              	.L323:
 5341              		.cfi_restore_state
 5342              	.LBB1453:
 5343              	.LBB1419:
 5344              	.LBB1336:
 5345              	.LBB1332:
  42:../../libDaisy//src/hid/disp/oled_display.h ****     {
 5346              		.loc 8 42 10 is_stmt 1 view .LVU1270
 5347              	.LBB1321:
 352:../../libDaisy//src/dev/oled_ssd130x.h ****     {
 5348              		.loc 10 352 10 view .LVU1271
 5349              	.LBB1317:
 354:../../libDaisy//src/dev/oled_ssd130x.h ****             return;
 5350              		.loc 10 354 28 is_stmt 0 view .LVU1272
 5351 032e 3F2A     		cmp	r2, #63
 5352              	.LBE1317:
 5353              	.LBE1321:
 5354              	.LBE1332:
 229:../../libDaisy//src/hid/disp/display.h ****         int_fast16_t signY  = ((y1 < y2) ? 1 : -1);
 5355              		.loc 9 229 42 view .LVU1273
 5356 0330 4FF0010A 		mov	r10, #1
 5357              	.LBB1333:
 5358              	.LBB1322:
 5359              	.LBB1318:
 354:../../libDaisy//src/dev/oled_ssd130x.h ****             return;
 5360              		.loc 10 354 28 view .LVU1274
 5361 0334 94BF     		ite	ls
 5362 0336 0026     		movls	r6, #0
 5363 0338 0126     		movhi	r6, #1
 354:../../libDaisy//src/dev/oled_ssd130x.h ****             return;
 5364              		.loc 10 354 14 view .LVU1275
 5365 033a 7F2B     		cmp	r3, #127
 354:../../libDaisy//src/dev/oled_ssd130x.h ****             return;
 5366              		.loc 10 354 28 view .LVU1276
 5367 033c 0296     		str	r6, [sp, #8]
 354:../../libDaisy//src/dev/oled_ssd130x.h ****             return;
 5368              		.loc 10 354 14 view .LVU1277
 5369 033e 94BF     		ite	ls
 5370 0340 0027     		movls	r7, #0
 5371 0342 0127     		movhi	r7, #1
 5372 0344 0097     		str	r7, [sp]
 354:../../libDaisy//src/dev/oled_ssd130x.h ****             return;
 5373              		.loc 10 354 9 view .LVU1278
 5374 0346 002E     		cmp	r6, #0
 5375 0348 7FF4C8AE 		bne	.L327
 5376 034c 002F     		cmp	r7, #0
 5377 034e 3FF4AEAE 		beq	.L365
 5378 0352 C3E6     		b	.L327
 5379              	.LVL416:
 5380              	.L352:
 354:../../libDaisy//src/dev/oled_ssd130x.h ****             return;
 5381              		.loc 10 354 9 view .LVU1279
 5382              	.LBE1318:
ARM GAS  /var/folders/hl/qgbwny5j0fd895c2c41bk3tw0000gp/T//ccRMOALe.s 			page 155


 5383              	.LBE1322:
 5384              	.LBE1333:
 5385              	.LBE1336:
 5386              	.LBE1419:
 5387              	.LBB1420:
 5388              	.LBB1397:
 5389              	.LBB1395:
 5390              	.LBB1394:
 5391              	.LBB1393:
 5392              	.LBB1391:
 5393              	.LBI1391:
 352:../../libDaisy//src/dev/oled_ssd130x.h ****     {
 5394              		.loc 10 352 10 is_stmt 1 view .LVU1280
 5395              	.LBB1392:
 359:../../libDaisy//src/dev/oled_ssd130x.h ****     }
 5396              		.loc 10 359 49 is_stmt 0 view .LVU1281
 5397 0354 08FA0BFB 		lsl	fp, r8, fp
 359:../../libDaisy//src/dev/oled_ssd130x.h ****     }
 5398              		.loc 10 359 42 view .LVU1282
 5399 0358 9CF81080 		ldrb	r8, [ip, #16]	@ zero_extendqisi2
 5400 035c 28EA0B08 		bic	r8, r8, fp
 5401 0360 8CF81080 		strb	r8, [ip, #16]
 5402 0364 8AE7     		b	.L351
 5403              	.LVL417:
 5404              	.L361:
 359:../../libDaisy//src/dev/oled_ssd130x.h ****     }
 5405              		.loc 10 359 42 view .LVU1283
 5406              	.LBE1392:
 5407              	.LBE1391:
 5408              	.LBE1393:
 5409              	.LBE1394:
 5410              	.LBE1395:
 5411              	.LBE1397:
 5412              	.LBE1420:
 5413              	.LBB1421:
 5414              	.LBB1417:
 5415              	.LBB1415:
 5416              	.LBB1414:
 5417              	.LBB1413:
 5418              	.LBB1411:
 5419              	.LBI1411:
 352:../../libDaisy//src/dev/oled_ssd130x.h ****     {
 5420              		.loc 10 352 10 is_stmt 1 view .LVU1284
 5421              	.LBB1412:
 359:../../libDaisy//src/dev/oled_ssd130x.h ****     }
 5422              		.loc 10 359 49 is_stmt 0 view .LVU1285
 5423 0366 09FA0AFA 		lsl	r10, r9, r10
 359:../../libDaisy//src/dev/oled_ssd130x.h ****     }
 5424              		.loc 10 359 42 view .LVU1286
 5425 036a 97F81090 		ldrb	r9, [r7, #16]	@ zero_extendqisi2
 5426 036e 29EA0A09 		bic	r9, r9, r10
 5427 0372 87F81090 		strb	r9, [r7, #16]
 5428 0376 C9E7     		b	.L360
 5429              	.LVL418:
 5430              	.L331:
 359:../../libDaisy//src/dev/oled_ssd130x.h ****     }
 5431              		.loc 10 359 42 view .LVU1287
ARM GAS  /var/folders/hl/qgbwny5j0fd895c2c41bk3tw0000gp/T//ccRMOALe.s 			page 156


 5432              	.LBE1412:
 5433              	.LBE1411:
 5434              	.LBE1413:
 5435              	.LBE1414:
 5436              	.LBE1415:
 5437              	.LBE1417:
 5438              	.LBE1421:
 5439              	.LBB1422:
 5440              	.LBB1337:
 5441              	.LBB1334:
 5442              	.LBB1331:
 5443              	.LBB1330:
 5444              	.LBB1328:
 5445              	.LBI1328:
 352:../../libDaisy//src/dev/oled_ssd130x.h ****     {
 5446              		.loc 10 352 10 is_stmt 1 view .LVU1288
 5447              	.LBB1329:
 359:../../libDaisy//src/dev/oled_ssd130x.h ****     }
 5448              		.loc 10 359 49 is_stmt 0 view .LVU1289
 5449 0378 09FA0BFB 		lsl	fp, r9, fp
 359:../../libDaisy//src/dev/oled_ssd130x.h ****     }
 5450              		.loc 10 359 42 view .LVU1290
 5451 037c 97F81090 		ldrb	r9, [r7, #16]	@ zero_extendqisi2
 5452 0380 29EA0B09 		bic	r9, r9, fp
 5453 0384 87F81090 		strb	r9, [r7, #16]
 5454 0388 C5E6     		b	.L330
 5455              	.LVL419:
 5456              	.L342:
 359:../../libDaisy//src/dev/oled_ssd130x.h ****     }
 5457              		.loc 10 359 42 view .LVU1291
 5458              	.LBE1329:
 5459              	.LBE1328:
 5460              	.LBE1330:
 5461              	.LBE1331:
 5462              	.LBE1334:
 5463              	.LBE1337:
 5464              	.LBE1422:
 5465              	.LBB1423:
 5466              	.LBB1373:
 5467              	.LBB1370:
 5468              	.LBB1369:
 5469              	.LBB1368:
 5470              	.LBB1366:
 5471              	.LBI1366:
 352:../../libDaisy//src/dev/oled_ssd130x.h ****     {
 5472              		.loc 10 352 10 is_stmt 1 view .LVU1292
 5473              	.LBB1367:
 359:../../libDaisy//src/dev/oled_ssd130x.h ****     }
 5474              		.loc 10 359 49 is_stmt 0 view .LVU1293
 5475 038a 0AFA0BFB 		lsl	fp, r10, fp
 359:../../libDaisy//src/dev/oled_ssd130x.h ****     }
 5476              		.loc 10 359 42 view .LVU1294
 5477 038e 9EF810A0 		ldrb	r10, [lr, #16]	@ zero_extendqisi2
 5478 0392 2AEA0B0A 		bic	r10, r10, fp
 5479 0396 8EF810A0 		strb	r10, [lr, #16]
 5480 039a 18E7     		b	.L341
 5481              	.LVL420:
ARM GAS  /var/folders/hl/qgbwny5j0fd895c2c41bk3tw0000gp/T//ccRMOALe.s 			page 157


 5482              	.L334:
 359:../../libDaisy//src/dev/oled_ssd130x.h ****     }
 5483              		.loc 10 359 42 view .LVU1295
 5484              	.LBE1367:
 5485              	.LBE1366:
 5486              	.LBE1368:
 5487              	.LBE1369:
 5488              	.LBE1370:
 5489              	.LBB1371:
 5490              	.LBB1357:
 5491              	.LBB1351:
 354:../../libDaisy//src/dev/oled_ssd130x.h ****             return;
 5492              		.loc 10 354 9 view .LVU1296
 5493 039c 97BB     		cbnz	r7, .L373
 5494 039e 8EBB     		cbnz	r6, .L373
 5495              	.LBE1351:
 5496              	.LBE1357:
 5497              	.LBE1371:
 230:../../libDaisy//src/hid/disp/display.h ****         int_fast16_t error  = deltaX - deltaY;
 5498              		.loc 9 230 42 view .LVU1297
 5499 03a0 0126     		movs	r6, #1
 5500 03a2 0096     		str	r6, [sp]
 5501              	.LBB1372:
 5502              	.LBB1358:
 5503              	.LBB1352:
 357:../../libDaisy//src/dev/oled_ssd130x.h ****         else
 5504              		.loc 10 357 28 view .LVU1298
 5505 03a4 E608     		lsrs	r6, r4, #3
 357:../../libDaisy//src/dev/oled_ssd130x.h ****         else
 5506              		.loc 10 357 42 view .LVU1299
 5507 03a6 03EBC616 		add	r6, r3, r6, lsl #7
 5508 03aa 0644     		add	r6, r6, r0
 356:../../libDaisy//src/dev/oled_ssd130x.h ****             buffer_[x + (y / 8) * width] |= (1 << (y % 8));
 5509              		.loc 10 356 9 view .LVU1300
 5510 03ac 002D     		cmp	r5, #0
 5511 03ae 7FF4E2AE 		bne	.L408
 5512              	.LVL421:
 5513              	.L336:
 5514              	.LBB1345:
 5515              	.LBI1345:
 352:../../libDaisy//src/dev/oled_ssd130x.h ****     {
 5516              		.loc 10 352 10 is_stmt 1 view .LVU1301
 5517              	.LBB1346:
 359:../../libDaisy//src/dev/oled_ssd130x.h ****     }
 5518              		.loc 10 359 49 is_stmt 0 view .LVU1302
 5519 03b2 0127     		movs	r7, #1
 359:../../libDaisy//src/dev/oled_ssd130x.h ****     }
 5520              		.loc 10 359 55 view .LVU1303
 5521 03b4 04F0070C 		and	ip, r4, #7
 359:../../libDaisy//src/dev/oled_ssd130x.h ****     }
 5522              		.loc 10 359 42 view .LVU1304
 5523 03b8 0395     		str	r5, [sp, #12]
 359:../../libDaisy//src/dev/oled_ssd130x.h ****     }
 5524              		.loc 10 359 49 view .LVU1305
 5525 03ba 07FA0CFC 		lsl	ip, r7, ip
 359:../../libDaisy//src/dev/oled_ssd130x.h ****     }
 5526              		.loc 10 359 42 view .LVU1306
ARM GAS  /var/folders/hl/qgbwny5j0fd895c2c41bk3tw0000gp/T//ccRMOALe.s 			page 158


 5527 03be 377C     		ldrb	r7, [r6, #16]	@ zero_extendqisi2
 5528 03c0 27EA0C07 		bic	r7, r7, ip
 5529 03c4 3774     		strb	r7, [r6, #16]
 5530 03c6 E3E6     		b	.L335
 5531              	.LVL422:
 5532              	.L357:
 359:../../libDaisy//src/dev/oled_ssd130x.h ****     }
 5533              		.loc 10 359 42 view .LVU1307
 5534              	.LBE1346:
 5535              	.LBE1345:
 5536              	.LBE1352:
 5537              	.LBE1358:
 5538              	.LBE1372:
 5539              	.LBE1373:
 5540              	.LBE1423:
 5541              	.LBB1424:
 5542              	.LBB1418:
 5543              	.LBB1416:
 5544              	.LBB1407:
 5545              	.LBB1406:
 5546              	.LBB1404:
 5547              	.LBI1404:
 352:../../libDaisy//src/dev/oled_ssd130x.h ****     {
 5548              		.loc 10 352 10 is_stmt 1 view .LVU1308
 5549              	.LBB1405:
 359:../../libDaisy//src/dev/oled_ssd130x.h ****     }
 5550              		.loc 10 359 49 is_stmt 0 view .LVU1309
 5551 03c8 06FA07F7 		lsl	r7, r6, r7
 359:../../libDaisy//src/dev/oled_ssd130x.h ****     }
 5552              		.loc 10 359 42 view .LVU1310
 5553 03cc 1E7C     		ldrb	r6, [r3, #16]	@ zero_extendqisi2
 5554 03ce 26EA0706 		bic	r6, r6, r7
 5555 03d2 1E74     		strb	r6, [r3, #16]
 5556 03d4 7FE7     		b	.L356
 5557              	.LVL423:
 5558              	.L347:
 359:../../libDaisy//src/dev/oled_ssd130x.h ****     }
 5559              		.loc 10 359 42 view .LVU1311
 5560              	.LBE1405:
 5561              	.LBE1404:
 5562              	.LBE1406:
 5563              	.LBE1407:
 5564              	.LBE1416:
 5565              	.LBE1418:
 5566              	.LBE1424:
 5567              	.LBB1425:
 5568              	.LBB1398:
 5569              	.LBB1396:
 5570              	.LBB1386:
 5571              	.LBB1384:
 5572              	.LBB1381:
 5573              	.LBI1381:
 352:../../libDaisy//src/dev/oled_ssd130x.h ****     {
 5574              		.loc 10 352 10 is_stmt 1 view .LVU1312
 5575              	.LBB1382:
 359:../../libDaisy//src/dev/oled_ssd130x.h ****     }
 5576              		.loc 10 359 49 is_stmt 0 view .LVU1313
ARM GAS  /var/folders/hl/qgbwny5j0fd895c2c41bk3tw0000gp/T//ccRMOALe.s 			page 159


 5577 03d6 0127     		movs	r7, #1
 359:../../libDaisy//src/dev/oled_ssd130x.h ****     }
 5578              		.loc 10 359 55 view .LVU1314
 5579 03d8 04F0070C 		and	ip, r4, #7
 359:../../libDaisy//src/dev/oled_ssd130x.h ****     }
 5580              		.loc 10 359 49 view .LVU1315
 5581 03dc 07FA0CFC 		lsl	ip, r7, ip
 359:../../libDaisy//src/dev/oled_ssd130x.h ****     }
 5582              		.loc 10 359 42 view .LVU1316
 5583 03e0 377C     		ldrb	r7, [r6, #16]	@ zero_extendqisi2
 5584 03e2 27EA0C07 		bic	r7, r7, ip
 5585 03e6 3774     		strb	r7, [r6, #16]
 5586 03e8 2DE7     		b	.L346
 5587              	.LVL424:
 5588              	.L325:
 359:../../libDaisy//src/dev/oled_ssd130x.h ****     }
 5589              		.loc 10 359 42 view .LVU1317
 5590              	.LBE1382:
 5591              	.LBE1381:
 5592              	.LBE1384:
 5593              	.LBE1386:
 5594              	.LBE1396:
 5595              	.LBE1398:
 5596              	.LBE1425:
 5597              	.LBB1426:
 5598              	.LBB1338:
 5599              	.LBB1335:
 5600              	.LBB1323:
 5601              	.LBB1319:
 5602              	.LBB1314:
 5603              	.LBI1314:
 352:../../libDaisy//src/dev/oled_ssd130x.h ****     {
 5604              		.loc 10 352 10 is_stmt 1 view .LVU1318
 5605              	.LBB1315:
 359:../../libDaisy//src/dev/oled_ssd130x.h ****     }
 5606              		.loc 10 359 49 is_stmt 0 view .LVU1319
 5607 03ea 07FA0CFC 		lsl	ip, r7, ip
 359:../../libDaisy//src/dev/oled_ssd130x.h ****     }
 5608              		.loc 10 359 42 view .LVU1320
 5609 03ee 377C     		ldrb	r7, [r6, #16]	@ zero_extendqisi2
 5610 03f0 0295     		str	r5, [sp, #8]
 5611 03f2 27EA0C07 		bic	r7, r7, ip
 5612 03f6 0095     		str	r5, [sp]
 5613 03f8 3774     		strb	r7, [r6, #16]
 5614 03fa 6CE6     		b	.L324
 5615              	.LVL425:
 5616              	.L369:
 359:../../libDaisy//src/dev/oled_ssd130x.h ****     }
 5617              		.loc 10 359 42 view .LVU1321
 5618              	.LBE1315:
 5619              	.LBE1314:
 5620              	.LBE1319:
 5621              	.LBE1323:
 5622              	.LBE1335:
 5623              	.LBE1338:
 5624              	.LBE1426:
 5625              	.LBB1427:
ARM GAS  /var/folders/hl/qgbwny5j0fd895c2c41bk3tw0000gp/T//ccRMOALe.s 			page 160


 5626              	.LBB1374:
 230:../../libDaisy//src/hid/disp/display.h ****         int_fast16_t error  = deltaX - deltaY;
 5627              		.loc 9 230 42 view .LVU1322
 5628 03fc 4FF0FF36 		mov	r6, #-1
 5629 0400 0096     		str	r6, [sp]
 5630 0402 C5E6     		b	.L335
 5631              	.LVL426:
 5632              	.L373:
 230:../../libDaisy//src/hid/disp/display.h ****         int_fast16_t error  = deltaX - deltaY;
 5633              		.loc 9 230 42 view .LVU1323
 5634 0404 0126     		movs	r6, #1
 5635 0406 0096     		str	r6, [sp]
 5636 0408 C5E6     		b	.L338
 5637              	.LVL427:
 5638              	.L406:
 230:../../libDaisy//src/hid/disp/display.h ****         int_fast16_t error  = deltaX - deltaY;
 5639              		.loc 9 230 42 view .LVU1324
 5640              	.LBE1374:
 5641              	.LBE1427:
 5642              	.LBB1428:
 5643              	.LBB1339:
 239:../../libDaisy//src/hid/disp/display.h ****         {
 5644              		.loc 9 239 19 view .LVU1325
 5645 040a 0126     		movs	r6, #1
 5646 040c 0496     		str	r6, [sp, #16]
 5647 040e 90E6     		b	.L326
 5648              	.LVL428:
 5649              	.L407:
 239:../../libDaisy//src/hid/disp/display.h ****         {
 5650              		.loc 9 239 19 view .LVU1326
 5651              	.LBE1339:
 5652              	.LBE1428:
 5653              	.LBB1429:
 5654              	.LBB1375:
 239:../../libDaisy//src/hid/disp/display.h ****         {
 5655              		.loc 9 239 33 view .LVU1327
 5656 0410 0126     		movs	r6, #1
 5657 0412 0196     		str	r6, [sp, #4]
 5658 0414 EDE6     		b	.L337
 5659              	.LBE1375:
 5660              	.LBE1429:
 5661              	.LBE1453:
 5662              		.cfi_endproc
 5663              	.LFE5419:
 5665 0416 00BF     		.section	.rodata.main.str1.4,"aMS",%progbits,1
 5666              		.align	2
 5667              	.LC0:
 5668 0000 54657374 		.ascii	"Testing. . .\000"
 5668      696E672E 
 5668      202E202E 
 5668      00
 5669 000d 000000   		.align	2
 5670              	.LC1:
 5671 0010 44616973 		.ascii	"Daisy. . .\000"
 5671      792E202E 
 5671      202E00
 5672 001b 00       		.align	2
ARM GAS  /var/folders/hl/qgbwny5j0fd895c2c41bk3tw0000gp/T//ccRMOALe.s 			page 161


 5673              	.LC2:
 5674 001c 312E202E 		.ascii	"1. . .\000"
 5674      202E00
 5675 0023 00       		.align	2
 5676              	.LC3:
 5677 0024 322E202E 		.ascii	"2. . .\000"
 5677      202E00
 5678 002b 00       		.align	2
 5679              	.LC4:
 5680 002c 332E202E 		.ascii	"3. . .\000"
 5680      202E00
 5681              		.section	.text.startup.main,"ax",%progbits
 5682              		.align	1
 5683              		.p2align 2,,3
 5684              		.global	main
 5685              		.syntax unified
 5686              		.thumb
 5687              		.thumb_func
 5688              		.fpu fpv5-d16
 5690              	main:
 5691              	.LFB4825:
  21:PatchBay.cpp  **** 
  22:PatchBay.cpp  **** int main(void)
  23:PatchBay.cpp  **** {
 5692              		.loc 16 23 1 is_stmt 1 view -0
 5693              		.cfi_startproc
 5694              		@ args = 0, pretend = 0, frame = 160
 5695              		@ frame_needed = 0, uses_anonymous_args = 0
  24:PatchBay.cpp  **** 	hw.Init();	
 5696              		.loc 16 24 2 view .LVU1329
  23:PatchBay.cpp  **** 	hw.Init();	
 5697              		.loc 16 23 1 is_stmt 0 view .LVU1330
 5698 0000 2DE9F04F 		push	{r4, r5, r6, r7, r8, r9, r10, fp, lr}
 5699              		.cfi_def_cfa_offset 36
 5700              		.cfi_offset 4, -36
 5701              		.cfi_offset 5, -32
 5702              		.cfi_offset 6, -28
 5703              		.cfi_offset 7, -24
 5704              		.cfi_offset 8, -20
 5705              		.cfi_offset 9, -16
 5706              		.cfi_offset 10, -12
 5707              		.cfi_offset 11, -8
 5708              		.cfi_offset 14, -4
  25:PatchBay.cpp  **** 	hw.SetAudioBlockSize(4); // number of samples handled per callback
  26:PatchBay.cpp  **** 	hw.SetAudioSampleRate(SaiHandle::Config::SampleRate::SAI_48KHZ);
  27:PatchBay.cpp  **** 
  28:PatchBay.cpp  **** 	pb.Init();
  29:PatchBay.cpp  **** 
  30:PatchBay.cpp  ****     uint8_t message_idx = 0;
 5709              		.loc 16 30 13 view .LVU1331
 5710 0004 0023     		movs	r3, #0
  23:PatchBay.cpp  **** 	hw.Init();	
 5711              		.loc 16 23 1 view .LVU1332
 5712 0006 ABB0     		sub	sp, sp, #172
 5713              		.cfi_def_cfa_offset 208
  24:PatchBay.cpp  **** 	hw.SetAudioBlockSize(4); // number of samples handled per callback
 5714              		.loc 16 24 9 view .LVU1333
ARM GAS  /var/folders/hl/qgbwny5j0fd895c2c41bk3tw0000gp/T//ccRMOALe.s 			page 162


 5715 0008 8A48     		ldr	r0, .L443
 5716              		.loc 16 30 13 view .LVU1334
 5717 000a 0793     		str	r3, [sp, #28]
  24:PatchBay.cpp  **** 	hw.SetAudioBlockSize(4); // number of samples handled per callback
 5718              		.loc 16 24 9 view .LVU1335
 5719 000c FFF7FEFF 		bl	_ZN5daisy8patch_sm12DaisyPatchSM4InitEv
 5720              	.LVL429:
  25:PatchBay.cpp  **** 	hw.SetAudioBlockSize(4); // number of samples handled per callback
 5721              		.loc 16 25 2 is_stmt 1 view .LVU1336
  25:PatchBay.cpp  **** 	hw.SetAudioBlockSize(4); // number of samples handled per callback
 5722              		.loc 16 25 22 is_stmt 0 view .LVU1337
 5723 0010 0421     		movs	r1, #4
 5724 0012 8848     		ldr	r0, .L443
 5725 0014 FFF7FEFF 		bl	_ZN5daisy8patch_sm12DaisyPatchSM17SetAudioBlockSizeEj
 5726              	.LVL430:
  26:PatchBay.cpp  **** 
 5727              		.loc 16 26 2 is_stmt 1 view .LVU1338
  26:PatchBay.cpp  **** 
 5728              		.loc 16 26 23 is_stmt 0 view .LVU1339
 5729 0018 0321     		movs	r1, #3
 5730 001a 8648     		ldr	r0, .L443
 5731 001c FFF7FEFF 		bl	_ZN5daisy8patch_sm12DaisyPatchSM18SetAudioSampleRateENS_9SaiHandle6Config10SampleRateE
 5732              	.LVL431:
  28:PatchBay.cpp  **** 
 5733              		.loc 16 28 2 is_stmt 1 view .LVU1340
 5734 0020 DFF814B2 		ldr	fp, .L443+4
  28:PatchBay.cpp  **** 
 5735              		.loc 16 28 9 is_stmt 0 view .LVU1341
 5736 0024 8448     		ldr	r0, .L443+4
 5737 0026 FFF7FEFF 		bl	_ZN5daisy9Patch_Bay4InitEv
 5738              	.LVL432:
 5739              		.loc 16 30 5 is_stmt 1 view .LVU1342
  31:PatchBay.cpp  ****     char strbuff[128];
 5740              		.loc 16 31 5 view .LVU1343
  32:PatchBay.cpp  **** 
  33:PatchBay.cpp  **** 	hw.StartAudio(AudioCallback);
 5741              		.loc 16 33 2 view .LVU1344
 5742              		.loc 16 33 15 is_stmt 0 view .LVU1345
 5743 002a 8449     		ldr	r1, .L443+8
 5744 002c 8148     		ldr	r0, .L443
 5745 002e FFF7FEFF 		bl	_ZN5daisy8patch_sm12DaisyPatchSM10StartAudioEPFvPKPKfPPfjE
 5746              	.LVL433:
 5747              	.L430:
  34:PatchBay.cpp  **** 	while(1) {
 5748              		.loc 16 34 2 is_stmt 1 view .LVU1346
  35:PatchBay.cpp  ****         System::Delay(500);
 5749              		.loc 16 35 9 view .LVU1347
 5750              		.loc 16 35 22 is_stmt 0 view .LVU1348
 5751 0032 4FF4FA70 		mov	r0, #500
 5752 0036 FFF7FEFF 		bl	_ZN5daisy6System5DelayEm
 5753              	.LVL434:
  36:PatchBay.cpp  ****         switch(message_idx)
 5754              		.loc 16 36 9 is_stmt 1 view .LVU1349
 5755 003a 079B     		ldr	r3, [sp, #28]
 5756 003c 042B     		cmp	r3, #4
 5757 003e 0FD8     		bhi	.L410
 5758 0040 DFE813F0 		tbh	[pc, r3, lsl #1]
ARM GAS  /var/folders/hl/qgbwny5j0fd895c2c41bk3tw0000gp/T//ccRMOALe.s 			page 163


 5759              	.L412:
 5760 0044 E800     		.2byte	(.L416-.L412)/2
 5761 0046 EE00     		.2byte	(.L415-.L412)/2
 5762 0048 E600     		.2byte	(.L414-.L412)/2
 5763 004a E400     		.2byte	(.L413-.L412)/2
 5764 004c 0500     		.2byte	(.L411-.L412)/2
 5765              		.p2align 1
 5766              	.L411:
  37:PatchBay.cpp  ****         {
  38:PatchBay.cpp  ****             case 0: sprintf(strbuff, "Testing. . ."); break;
  39:PatchBay.cpp  ****             case 1: sprintf(strbuff, "Daisy. . ."); break;
  40:PatchBay.cpp  ****             case 2: sprintf(strbuff, "1. . ."); break;
  41:PatchBay.cpp  ****             case 3: sprintf(strbuff, "2. . ."); break;
  42:PatchBay.cpp  ****             case 4: sprintf(strbuff, "3. . ."); break;
 5767              		.loc 16 42 13 view .LVU1350
 5768              		.loc 16 42 21 view .LVU1351
 5769              		.loc 16 42 28 is_stmt 0 view .LVU1352
 5770 004e 7C4B     		ldr	r3, .L443+12
 5771              	.L441:
 5772 0050 93E80300 		ldm	r3, {r0, r1}
 5773 0054 ADF82C10 		strh	r1, [sp, #44]	@ movhi
 5774 0058 090C     		lsrs	r1, r1, #16
 5775 005a 0A90     		str	r0, [sp, #40]
 5776 005c 8DF82E10 		strb	r1, [sp, #46]
 5777              		.loc 16 42 49 is_stmt 1 view .LVU1353
 5778              	.LVL435:
 5779              	.L410:
  43:PatchBay.cpp  ****             default: break;
  44:PatchBay.cpp  ****         }
  45:PatchBay.cpp  ****         message_idx = (message_idx + 1) % 5;
 5780              		.loc 16 45 9 view .LVU1354
 5781              		.loc 16 45 36 is_stmt 0 view .LVU1355
 5782 0060 079B     		ldr	r3, [sp, #28]
 5783              	.LBB1511:
 5784              	.LBB1512:
 5785              	.LBB1513:
 366:../../libDaisy//src/dev/oled_ssd130x.h ****         }
 5786              		.loc 10 366 24 view .LVU1356
 5787 0062 FF21     		movs	r1, #255
 5788              	.LBE1513:
 5789              	.LBE1512:
 5790              	.LBE1511:
 5791              		.loc 16 45 41 view .LVU1357
 5792 0064 774C     		ldr	r4, .L443+16
 5793              		.loc 16 45 36 view .LVU1358
 5794 0066 0133     		adds	r3, r3, #1
 5795              	.LBB1520:
 5796              	.LBB1517:
 5797              	.LBB1514:
 366:../../libDaisy//src/dev/oled_ssd130x.h ****         }
 5798              		.loc 10 366 24 view .LVU1359
 5799 0068 7748     		ldr	r0, .L443+20
 5800              	.LBE1514:
 5801              	.LBE1517:
 5802              	.LBE1520:
 5803              		.loc 16 45 36 view .LVU1360
 5804 006a DBB2     		uxtb	r3, r3
ARM GAS  /var/folders/hl/qgbwny5j0fd895c2c41bk3tw0000gp/T//ccRMOALe.s 			page 164


 5805              		.loc 16 45 41 view .LVU1361
 5806 006c A4FB0324 		umull	r2, r4, r4, r3
 5807              	.LBB1521:
 5808              	.LBB1518:
 5809              	.LBB1515:
 366:../../libDaisy//src/dev/oled_ssd130x.h ****         }
 5810              		.loc 10 366 24 view .LVU1362
 5811 0070 4FF48062 		mov	r2, #1024
 5812              	.LBE1515:
 5813              	.LBE1518:
 5814              	.LBE1521:
 5815              		.loc 16 45 41 view .LVU1363
 5816 0074 04F0FC05 		and	r5, r4, #252
 5817 0078 05EB9404 		add	r4, r5, r4, lsr #2
 5818 007c 1B1B     		subs	r3, r3, r4
 5819              		.loc 16 45 21 view .LVU1364
 5820 007e DBB2     		uxtb	r3, r3
 5821 0080 0793     		str	r3, [sp, #28]
 5822              	.LVL436:
  46:PatchBay.cpp  ****         pb.display.Fill(true);
 5823              		.loc 16 46 9 is_stmt 1 view .LVU1365
 5824              	.LBB1522:
 5825              	.LBI1511:
  34:../../libDaisy//src/hid/disp/oled_display.h **** 
 5826              		.loc 8 34 10 view .LVU1366
 5827              	.LBB1519:
 5828              	.LBI1512:
 362:../../libDaisy//src/dev/oled_ssd130x.h ****     {
 5829              		.loc 10 362 10 view .LVU1367
 5830              	.LBB1516:
 364:../../libDaisy//src/dev/oled_ssd130x.h ****         {
 5831              		.loc 10 364 29 view .LVU1368
 366:../../libDaisy//src/dev/oled_ssd130x.h ****         }
 5832              		.loc 10 366 24 is_stmt 0 view .LVU1369
 5833 0082 FFF7FEFF 		bl	memset
 5834              	.LVL437:
 366:../../libDaisy//src/dev/oled_ssd130x.h ****         }
 5835              		.loc 10 366 24 view .LVU1370
 5836              	.LBE1516:
 5837              	.LBE1519:
 5838              	.LBE1522:
  47:PatchBay.cpp  ****         pb.display.SetCursor(0, 0);
 5839              		.loc 16 47 9 is_stmt 1 view .LVU1371
 5840              	.LBB1523:
 5841              	.LBI1523:
 171:../../libDaisy//src/hid/disp/display.h ****     {
 5842              		.loc 9 171 10 view .LVU1372
 5843              	.LBB1524:
 173:../../libDaisy//src/hid/disp/display.h ****         currentY_ = (y >= Height()) ? Height() - 1 : y;
 5844              		.loc 9 173 9 view .LVU1373
 174:../../libDaisy//src/hid/disp/display.h ****     }
 5845              		.loc 9 174 9 view .LVU1374
 5846 0086 714A     		ldr	r2, .L443+24
 173:../../libDaisy//src/hid/disp/display.h ****         currentY_ = (y >= Height()) ? Height() - 1 : y;
 5847              		.loc 9 173 19 is_stmt 0 view .LVU1375
 5848 0088 0023     		movs	r3, #0
 5849 008a 5178     		ldrb	r1, [r2, #1]	@ zero_extendqisi2
ARM GAS  /var/folders/hl/qgbwny5j0fd895c2c41bk3tw0000gp/T//ccRMOALe.s 			page 165


 5850 008c 92F800A0 		ldrb	r10, [r2]	@ zero_extendqisi2
 5851 0090 CBF84C30 		str	r3, [fp, #76]
 5852              	.LVL438:
 173:../../libDaisy//src/hid/disp/display.h ****         currentY_ = (y >= Height()) ? Height() - 1 : y;
 5853              		.loc 9 173 19 view .LVU1376
 5854              	.LBE1524:
 5855              	.LBE1523:
  48:PatchBay.cpp  ****         pb.display.WriteString(strbuff, Font_11x18, false);
 5856              		.loc 16 48 9 is_stmt 1 view .LVU1377
 5857              		.loc 16 48 9 is_stmt 0 view .LVU1378
 5858 0094 5268     		ldr	r2, [r2, #4]
 5859              	.LBB1525:
 5860              	.LBB1526:
 443:../../libDaisy//src/hid/disp/display.h ****         {
 5861              		.loc 9 443 9 view .LVU1379
 5862 0096 9DF82830 		ldrb	r3, [sp, #40]	@ zero_extendqisi2
 5863 009a 0591     		str	r1, [sp, #20]
 5864              	.LVL439:
 443:../../libDaisy//src/hid/disp/display.h ****         {
 5865              		.loc 9 443 9 view .LVU1380
 5866 009c 0692     		str	r2, [sp, #24]
 5867              	.LVL440:
 443:../../libDaisy//src/hid/disp/display.h ****         {
 5868              		.loc 9 443 9 view .LVU1381
 5869              	.LBE1526:
 5870              	.LBI1525:
 440:../../libDaisy//src/hid/disp/display.h ****     {
 5871              		.loc 9 440 10 is_stmt 1 view .LVU1382
 5872              	.LBB1564:
 443:../../libDaisy//src/hid/disp/display.h ****         {
 5873              		.loc 9 443 9 view .LVU1383
 5874 009e 002B     		cmp	r3, #0
 5875 00a0 6FD0     		beq	.L418
 5876 00a2 0AAA     		add	r2, sp, #40
 5877              	.LVL441:
 443:../../libDaisy//src/hid/disp/display.h ****         {
 5878              		.loc 9 443 9 is_stmt 0 view .LVU1384
 5879 00a4 5546     		mov	r5, r10
 5880 00a6 0392     		str	r2, [sp, #12]
 5881              	.LVL442:
 5882              	.L417:
 5883              	.LBB1527:
 5884              	.LBI1527:
 396:../../libDaisy//src/hid/disp/display.h ****     {
 5885              		.loc 9 396 10 is_stmt 1 view .LVU1385
 5886              	.LBB1528:
 401:../../libDaisy//src/hid/disp/display.h ****             return 0;
 5887              		.loc 9 401 20 is_stmt 0 view .LVU1386
 5888 00a8 203B     		subs	r3, r3, #32
 5889              	.LVL443:
 401:../../libDaisy//src/hid/disp/display.h ****             return 0;
 5890              		.loc 9 401 9 view .LVU1387
 5891 00aa DAB2     		uxtb	r2, r3
 5892 00ac 5E2A     		cmp	r2, #94
 5893 00ae 68D8     		bhi	.L418
 405:../../libDaisy//src/hid/disp/display.h ****            || Height() < (currentY_ + font.FontHeight))
 5894              		.loc 9 405 23 view .LVU1388
ARM GAS  /var/folders/hl/qgbwny5j0fd895c2c41bk3tw0000gp/T//ccRMOALe.s 			page 166


 5895 00b0 BBF84C90 		ldrh	r9, [fp, #76]
 405:../../libDaisy//src/hid/disp/display.h ****            || Height() < (currentY_ + font.FontHeight))
 5896              		.loc 9 405 33 view .LVU1389
 5897 00b4 09EB0508 		add	r8, r9, r5
 406:../../libDaisy//src/hid/disp/display.h ****         {
 5898              		.loc 9 406 12 view .LVU1390
 5899 00b8 B8F1800F 		cmp	r8, #128
 5900 00bc 61DC     		bgt	.L418
 406:../../libDaisy//src/hid/disp/display.h ****         {
 5901              		.loc 9 406 27 view .LVU1391
 5902 00be BBF84E20 		ldrh	r2, [fp, #78]
 406:../../libDaisy//src/hid/disp/display.h ****         {
 5903              		.loc 9 406 37 view .LVU1392
 5904 00c2 0599     		ldr	r1, [sp, #20]
 406:../../libDaisy//src/hid/disp/display.h ****         {
 5905              		.loc 9 406 27 view .LVU1393
 5906 00c4 0492     		str	r2, [sp, #16]
 406:../../libDaisy//src/hid/disp/display.h ****         {
 5907              		.loc 9 406 37 view .LVU1394
 5908 00c6 0A44     		add	r2, r2, r1
 406:../../libDaisy//src/hid/disp/display.h ****         {
 5909              		.loc 9 406 12 view .LVU1395
 5910 00c8 402A     		cmp	r2, #64
 5911 00ca 5ADC     		bgt	.L418
 5912              	.LVL444:
 413:../../libDaisy//src/hid/disp/display.h ****         {
 5913              		.loc 9 413 22 is_stmt 1 view .LVU1396
 5914 00cc 0029     		cmp	r1, #0
 5915 00ce 43D0     		beq	.L423
 415:../../libDaisy//src/hid/disp/display.h ****             for(j = 0; j < font.FontWidth; j++)
 5916              		.loc 9 415 37 is_stmt 0 view .LVU1397
 5917 00d0 059A     		ldr	r2, [sp, #20]
 5918 00d2 6FF0004C 		mvn	ip, #-2147483648
 5919 00d6 049C     		ldr	r4, [sp, #16]
 5920 00d8 02FB03F3 		mul	r3, r2, r3
 5921 00dc 9C44     		add	ip, ip, r3
 5922 00de 1344     		add	r3, r3, r2
 5923 00e0 069A     		ldr	r2, [sp, #24]
 5924 00e2 A2F1020A 		sub	r10, r2, #2
 5925 00e6 02EB4C0C 		add	ip, r2, ip, lsl #1
 5926 00ea 0AEB430A 		add	r10, r10, r3, lsl #1
 5927              	.LVL445:
 5928              	.L424:
 415:../../libDaisy//src/hid/disp/display.h ****             for(j = 0; j < font.FontWidth; j++)
 5929              		.loc 9 415 15 view .LVU1398
 5930 00ee 3CF8026F 		ldrh	r6, [ip, #2]!
 5931              	.LVL446:
 416:../../libDaisy//src/hid/disp/display.h ****             {
 5932              		.loc 9 416 26 is_stmt 1 view .LVU1399
 5933 00f2 6DB3     		cbz	r5, .L427
 5934              	.LBB1529:
 5935              	.LBB1530:
 5936              	.LBB1531:
 357:../../libDaisy//src/dev/oled_ssd130x.h ****         else
 5937              		.loc 10 357 54 is_stmt 0 view .LVU1400
 5938 00f4 04F00703 		and	r3, r4, #7
 357:../../libDaisy//src/dev/oled_ssd130x.h ****         else
ARM GAS  /var/folders/hl/qgbwny5j0fd895c2c41bk3tw0000gp/T//ccRMOALe.s 			page 167


 5939              		.loc 10 357 48 view .LVU1401
 5940 00f8 0127     		movs	r7, #1
 357:../../libDaisy//src/dev/oled_ssd130x.h ****         else
 5941              		.loc 10 357 28 view .LVU1402
 5942 00fa E208     		lsrs	r2, r4, #3
 5943 00fc 4946     		mov	r1, r9
 357:../../libDaisy//src/dev/oled_ssd130x.h ****         else
 5944              		.loc 10 357 48 view .LVU1403
 5945 00fe 9F40     		lsls	r7, r7, r3
 5946 0100 09F15803 		add	r3, r9, #88
 357:../../libDaisy//src/dev/oled_ssd130x.h ****         else
 5947              		.loc 10 357 42 view .LVU1404
 5948 0104 7FB2     		sxtb	r7, r7
 5949 0106 03EBC212 		add	r2, r3, r2, lsl #7
 5950              	.LBE1531:
 5951              	.LBE1530:
 5952              	.LBE1529:
 416:../../libDaisy//src/hid/disp/display.h ****             {
 5953              		.loc 9 416 19 view .LVU1405
 5954 010a 0023     		movs	r3, #0
 5955              	.LBB1539:
 5956              	.LBB1540:
 5957              	.LBB1541:
 5958              	.LBB1542:
 5959              	.LBB1543:
 359:../../libDaisy//src/dev/oled_ssd130x.h ****     }
 5960              		.loc 10 359 42 view .LVU1406
 5961 010c 6FEA070E 		mvn	lr, r7
 5962 0110 5A44     		add	r2, r2, fp
 5963 0112 0CE0     		b	.L428
 5964              	.LVL447:
 5965              	.L442:
 359:../../libDaisy//src/dev/oled_ssd130x.h ****     }
 5966              		.loc 10 359 42 view .LVU1407
 5967              	.LBE1543:
 5968              	.LBI1542:
 352:../../libDaisy//src/dev/oled_ssd130x.h ****     {
 5969              		.loc 10 352 10 is_stmt 1 view .LVU1408
 352:../../libDaisy//src/dev/oled_ssd130x.h ****     {
 5970              		.loc 10 352 10 is_stmt 0 view .LVU1409
 5971              	.LBE1542:
 354:../../libDaisy//src/dev/oled_ssd130x.h ****             return;
 5972              		.loc 10 354 9 view .LVU1410
 5973 0114 7F29     		cmp	r1, #127
 5974 0116 05D8     		bhi	.L426
 5975 0118 3F2C     		cmp	r4, #63
 5976 011a 03D8     		bhi	.L426
 5977              	.LBB1545:
 5978              	.LBB1544:
 359:../../libDaisy//src/dev/oled_ssd130x.h ****     }
 5979              		.loc 10 359 42 view .LVU1411
 5980 011c 1078     		ldrb	r0, [r2]	@ zero_extendqisi2
 5981 011e 0EEA0000 		and	r0, lr, r0
 5982 0122 1070     		strb	r0, [r2]
 5983              	.LVL448:
 5984              	.L426:
 359:../../libDaisy//src/dev/oled_ssd130x.h ****     }
ARM GAS  /var/folders/hl/qgbwny5j0fd895c2c41bk3tw0000gp/T//ccRMOALe.s 			page 168


 5985              		.loc 10 359 42 view .LVU1412
 5986              	.LBE1544:
 5987              	.LBE1545:
 5988              	.LBE1541:
 5989              	.LBE1540:
 5990              	.LBE1539:
 416:../../libDaisy//src/hid/disp/display.h ****             {
 5991              		.loc 9 416 13 is_stmt 1 view .LVU1413
 5992 0124 0133     		adds	r3, r3, #1
 5993              	.LVL449:
 416:../../libDaisy//src/hid/disp/display.h ****             {
 5994              		.loc 9 416 26 view .LVU1414
 5995 0126 0132     		adds	r2, r2, #1
 5996 0128 0131     		adds	r1, r1, #1
 5997 012a AB42     		cmp	r3, r5
 5998 012c 10D0     		beq	.L427
 5999              	.LVL450:
 6000              	.L428:
 6001              	.LBB1547:
 6002              	.LBI1539:
  42:../../libDaisy//src/hid/disp/oled_display.h ****     {
 6003              		.loc 8 42 10 view .LVU1415
 6004              	.LBB1546:
 6005              	.LBI1540:
 352:../../libDaisy//src/dev/oled_ssd130x.h ****     {
 6006              		.loc 10 352 10 view .LVU1416
 352:../../libDaisy//src/dev/oled_ssd130x.h ****     {
 6007              		.loc 10 352 10 is_stmt 0 view .LVU1417
 6008              	.LBE1546:
 6009              	.LBE1547:
 6010              	.LBB1548:
 6011              	.LBI1529:
  42:../../libDaisy//src/hid/disp/oled_display.h ****     {
 6012              		.loc 8 42 10 is_stmt 1 view .LVU1418
 6013              	.LBB1535:
 6014              	.LBI1530:
 352:../../libDaisy//src/dev/oled_ssd130x.h ****     {
 6015              		.loc 10 352 10 view .LVU1419
 6016              	.LBE1535:
 6017              	.LBE1548:
 418:../../libDaisy//src/hid/disp/display.h ****                 {
 6018              		.loc 9 418 23 is_stmt 0 view .LVU1420
 6019 012e 06FA03F0 		lsl	r0, r6, r3
 418:../../libDaisy//src/hid/disp/display.h ****                 {
 6020              		.loc 9 418 17 view .LVU1421
 6021 0132 0004     		lsls	r0, r0, #16
 6022 0134 EED4     		bmi	.L442
 6023              	.LBB1549:
 6024              	.LBB1536:
 6025              	.LBB1532:
 354:../../libDaisy//src/dev/oled_ssd130x.h ****             return;
 6026              		.loc 10 354 9 view .LVU1422
 6027 0136 7F29     		cmp	r1, #127
 6028 0138 F4D8     		bhi	.L426
 6029 013a 3F2C     		cmp	r4, #63
 6030 013c F2D8     		bhi	.L426
 357:../../libDaisy//src/dev/oled_ssd130x.h ****         else
ARM GAS  /var/folders/hl/qgbwny5j0fd895c2c41bk3tw0000gp/T//ccRMOALe.s 			page 169


 6031              		.loc 10 357 42 view .LVU1423
 6032 013e 1078     		ldrb	r0, [r2]	@ zero_extendqisi2
 6033              	.LBE1532:
 6034              	.LBE1536:
 6035              	.LBE1549:
 416:../../libDaisy//src/hid/disp/display.h ****             {
 6036              		.loc 9 416 13 view .LVU1424
 6037 0140 0133     		adds	r3, r3, #1
 6038              	.LVL451:
 416:../../libDaisy//src/hid/disp/display.h ****             {
 6039              		.loc 9 416 26 view .LVU1425
 6040 0142 0132     		adds	r2, r2, #1
 6041 0144 0131     		adds	r1, r1, #1
 6042              	.LBB1550:
 6043              	.LBB1537:
 6044              	.LBB1533:
 357:../../libDaisy//src/dev/oled_ssd130x.h ****         else
 6045              		.loc 10 357 42 view .LVU1426
 6046 0146 3843     		orrs	r0, r0, r7
 6047              	.LBE1533:
 6048              	.LBE1537:
 6049              	.LBE1550:
 416:../../libDaisy//src/hid/disp/display.h ****             {
 6050              		.loc 9 416 26 view .LVU1427
 6051 0148 AB42     		cmp	r3, r5
 6052              	.LBB1551:
 6053              	.LBB1538:
 6054              	.LBB1534:
 357:../../libDaisy//src/dev/oled_ssd130x.h ****         else
 6055              		.loc 10 357 42 view .LVU1428
 6056 014a 02F8010C 		strb	r0, [r2, #-1]
 6057              	.LVL452:
 357:../../libDaisy//src/dev/oled_ssd130x.h ****         else
 6058              		.loc 10 357 42 view .LVU1429
 6059              	.LBE1534:
 6060              	.LBE1538:
 6061              	.LBE1551:
 416:../../libDaisy//src/hid/disp/display.h ****             {
 6062              		.loc 9 416 13 is_stmt 1 view .LVU1430
 416:../../libDaisy//src/hid/disp/display.h ****             {
 6063              		.loc 9 416 26 view .LVU1431
 6064 014e EED1     		bne	.L428
 6065              	.LVL453:
 6066              	.L427:
 413:../../libDaisy//src/hid/disp/display.h ****         {
 6067              		.loc 9 413 9 view .LVU1432
 413:../../libDaisy//src/hid/disp/display.h ****         {
 6068              		.loc 9 413 22 view .LVU1433
 6069 0150 E245     		cmp	r10, ip
 6070 0152 04F10104 		add	r4, r4, #1
 6071 0156 CAD1     		bne	.L424
 6072              	.LVL454:
 6073              	.L423:
 6074              	.LBB1552:
 6075              	.LBI1552:
 171:../../libDaisy//src/hid/disp/display.h ****     {
 6076              		.loc 9 171 10 view .LVU1434
ARM GAS  /var/folders/hl/qgbwny5j0fd895c2c41bk3tw0000gp/T//ccRMOALe.s 			page 170


 6077              	.LBB1553:
 173:../../libDaisy//src/hid/disp/display.h ****         currentY_ = (y >= Height()) ? Height() - 1 : y;
 6078              		.loc 9 173 9 view .LVU1435
 174:../../libDaisy//src/hid/disp/display.h ****     }
 6079              		.loc 9 174 19 is_stmt 0 view .LVU1436
 6080 0158 049B     		ldr	r3, [sp, #16]
 173:../../libDaisy//src/hid/disp/display.h ****         currentY_ = (y >= Height()) ? Height() - 1 : y;
 6081              		.loc 9 173 19 view .LVU1437
 6082 015a 1FFA88F8 		uxth	r8, r8
 6083              	.LBE1553:
 6084              	.LBE1552:
 6085              	.LBE1528:
 6086              	.LBE1527:
 443:../../libDaisy//src/hid/disp/display.h ****         {
 6087              		.loc 9 443 9 view .LVU1438
 6088 015e 039A     		ldr	r2, [sp, #12]
 6089              	.LBB1561:
 6090              	.LBB1558:
 6091              	.LBB1556:
 6092              	.LBB1554:
 174:../../libDaisy//src/hid/disp/display.h ****     }
 6093              		.loc 9 174 19 view .LVU1439
 6094 0160 3F2B     		cmp	r3, #63
 6095 0162 28BF     		it	cs
 6096 0164 3F23     		movcs	r3, #63
 173:../../libDaisy//src/hid/disp/display.h ****         currentY_ = (y >= Height()) ? Height() - 1 : y;
 6097              		.loc 9 173 19 view .LVU1440
 6098 0166 B8F17F0F 		cmp	r8, #127
 174:../../libDaisy//src/hid/disp/display.h ****     }
 6099              		.loc 9 174 19 view .LVU1441
 6100 016a ABF84E30 		strh	r3, [fp, #78]	@ movhi
 173:../../libDaisy//src/hid/disp/display.h ****         currentY_ = (y >= Height()) ? Height() - 1 : y;
 6101              		.loc 9 173 19 view .LVU1442
 6102 016e 28BF     		it	cs
 6103 0170 4FF07F08 		movcs	r8, #127
 6104              	.LBE1554:
 6105              	.LBE1556:
 6106              	.LBE1558:
 6107              	.LBE1561:
 443:../../libDaisy//src/hid/disp/display.h ****         {
 6108              		.loc 9 443 9 view .LVU1443
 6109 0174 12F8013F 		ldrb	r3, [r2, #1]!	@ zero_extendqisi2
 6110              	.LBB1562:
 6111              	.LBB1559:
 6112              	.LBB1557:
 6113              	.LBB1555:
 173:../../libDaisy//src/hid/disp/display.h ****         currentY_ = (y >= Height()) ? Height() - 1 : y;
 6114              		.loc 9 173 19 view .LVU1444
 6115 0178 ABF84C80 		strh	r8, [fp, #76]	@ movhi
 174:../../libDaisy//src/hid/disp/display.h ****     }
 6116              		.loc 9 174 9 is_stmt 1 view .LVU1445
 6117              	.LVL455:
 174:../../libDaisy//src/hid/disp/display.h ****     }
 6118              		.loc 9 174 9 is_stmt 0 view .LVU1446
 6119              	.LBE1555:
 6120              	.LBE1557:
 6121              	.LBE1559:
ARM GAS  /var/folders/hl/qgbwny5j0fd895c2c41bk3tw0000gp/T//ccRMOALe.s 			page 171


 6122              	.LBE1562:
 443:../../libDaisy//src/hid/disp/display.h ****         {
 6123              		.loc 9 443 9 is_stmt 1 view .LVU1447
 6124 017c 0392     		str	r2, [sp, #12]
 6125 017e 002B     		cmp	r3, #0
 6126 0180 92D1     		bne	.L417
 6127              	.LVL456:
 6128              	.L418:
 443:../../libDaisy//src/hid/disp/display.h ****         {
 6129              		.loc 9 443 9 is_stmt 0 view .LVU1448
 6130              	.LBE1564:
 6131              	.LBE1525:
  49:PatchBay.cpp  ****         pb.display.Update();
 6132              		.loc 16 49 9 is_stmt 1 view .LVU1449
 6133              	.LBB1566:
 6134              	.LBI1566:
 6135              		.loc 8 51 10 view .LVU1450
 6136              	.LBB1567:
 6137              	.LBI1567:
 373:../../libDaisy//src/dev/oled_ssd130x.h ****     {
 6138              		.loc 10 373 10 view .LVU1451
 6139              	.LBB1568:
 6140              		.loc 10 383 22 view .LVU1452
 6141 0182 334D     		ldr	r5, .L443+28
 6142              	.LBE1568:
 6143              	.LBE1567:
 6144              	.LBE1566:
 6145              	.LBB1580:
 6146              	.LBB1565:
 6147              	.LBB1563:
 6148              	.LBB1560:
 416:../../libDaisy//src/hid/disp/display.h ****             {
 6149              		.loc 9 416 19 is_stmt 0 view .LVU1453
 6150 0184 B026     		movs	r6, #176
 6151              	.LVL457:
 6152              	.L431:
 416:../../libDaisy//src/hid/disp/display.h ****             {
 6153              		.loc 9 416 19 view .LVU1454
 6154              	.LBE1560:
 6155              	.LBE1563:
 6156              	.LBE1565:
 6157              	.LBE1580:
 6158              	.LBB1581:
 6159              	.LBB1579:
 6160              	.LBB1578:
 6161              	.LBB1569:
 6162              	.LBI1569:
  42:../../libDaisy//src/dev/oled_ssd130x.h ****     {
 6163              		.loc 10 42 10 is_stmt 1 view .LVU1455
 6164              	.LBB1570:
  44:../../libDaisy//src/dev/oled_ssd130x.h ****         i2c_.TransmitBlocking(i2c_address_, buf, 2, 1000);
 6165              		.loc 10 44 9 view .LVU1456
  45:../../libDaisy//src/dev/oled_ssd130x.h ****     };
 6166              		.loc 10 45 30 is_stmt 0 view .LVU1457
 6167 0186 4FF47A77 		mov	r7, #1000
  44:../../libDaisy//src/dev/oled_ssd130x.h ****         i2c_.TransmitBlocking(i2c_address_, buf, 2, 1000);
 6168              		.loc 10 44 17 view .LVU1458
ARM GAS  /var/folders/hl/qgbwny5j0fd895c2c41bk3tw0000gp/T//ccRMOALe.s 			page 172


 6169 018a 0024     		movs	r4, #0
  45:../../libDaisy//src/dev/oled_ssd130x.h ****     };
 6170              		.loc 10 45 30 view .LVU1459
 6171 018c 0223     		movs	r3, #2
 6172 018e 09AA     		add	r2, sp, #36
 6173 0190 9BF85410 		ldrb	r1, [fp, #84]	@ zero_extendqisi2
 6174 0194 2F48     		ldr	r0, .L443+32
 6175 0196 0097     		str	r7, [sp]
  44:../../libDaisy//src/dev/oled_ssd130x.h ****         i2c_.TransmitBlocking(i2c_address_, buf, 2, 1000);
 6176              		.loc 10 44 17 view .LVU1460
 6177 0198 8DF82440 		strb	r4, [sp, #36]
  44:../../libDaisy//src/dev/oled_ssd130x.h ****         i2c_.TransmitBlocking(i2c_address_, buf, 2, 1000);
 6178              		.loc 10 44 36 view .LVU1461
 6179 019c 8DF82560 		strb	r6, [sp, #37]
  45:../../libDaisy//src/dev/oled_ssd130x.h ****     };
 6180              		.loc 10 45 9 is_stmt 1 view .LVU1462
  45:../../libDaisy//src/dev/oled_ssd130x.h ****     };
 6181              		.loc 10 45 30 is_stmt 0 view .LVU1463
 6182 01a0 FFF7FEFF 		bl	_ZN5daisy9I2CHandle16TransmitBlockingEtPhtm
 6183              	.LVL458:
  45:../../libDaisy//src/dev/oled_ssd130x.h ****     };
 6184              		.loc 10 45 30 view .LVU1464
 6185              	.LBE1570:
 6186              	.LBE1569:
 6187              	.LBB1571:
 6188              	.LBI1571:
  42:../../libDaisy//src/dev/oled_ssd130x.h ****     {
 6189              		.loc 10 42 10 is_stmt 1 view .LVU1465
 6190              	.LBB1572:
  44:../../libDaisy//src/dev/oled_ssd130x.h ****         i2c_.TransmitBlocking(i2c_address_, buf, 2, 1000);
 6191              		.loc 10 44 9 view .LVU1466
  45:../../libDaisy//src/dev/oled_ssd130x.h ****     };
 6192              		.loc 10 45 30 is_stmt 0 view .LVU1467
 6193 01a4 0223     		movs	r3, #2
 6194 01a6 09AA     		add	r2, sp, #36
 6195 01a8 9BF85410 		ldrb	r1, [fp, #84]	@ zero_extendqisi2
 6196 01ac 2948     		ldr	r0, .L443+32
 6197 01ae 0097     		str	r7, [sp]
  44:../../libDaisy//src/dev/oled_ssd130x.h ****         i2c_.TransmitBlocking(i2c_address_, buf, 2, 1000);
 6198              		.loc 10 44 17 view .LVU1468
 6199 01b0 8DF82440 		strb	r4, [sp, #36]
  44:../../libDaisy//src/dev/oled_ssd130x.h ****         i2c_.TransmitBlocking(i2c_address_, buf, 2, 1000);
 6200              		.loc 10 44 36 view .LVU1469
 6201 01b4 8DF82540 		strb	r4, [sp, #37]
  45:../../libDaisy//src/dev/oled_ssd130x.h ****     };
 6202              		.loc 10 45 9 is_stmt 1 view .LVU1470
  45:../../libDaisy//src/dev/oled_ssd130x.h ****     };
 6203              		.loc 10 45 30 is_stmt 0 view .LVU1471
 6204 01b8 FFF7FEFF 		bl	_ZN5daisy9I2CHandle16TransmitBlockingEtPhtm
 6205              	.LVL459:
  45:../../libDaisy//src/dev/oled_ssd130x.h ****     };
 6206              		.loc 10 45 30 view .LVU1472
 6207              	.LBE1572:
 6208              	.LBE1571:
 6209              	.LBB1573:
 6210              	.LBI1573:
  42:../../libDaisy//src/dev/oled_ssd130x.h ****     {
ARM GAS  /var/folders/hl/qgbwny5j0fd895c2c41bk3tw0000gp/T//ccRMOALe.s 			page 173


 6211              		.loc 10 42 10 is_stmt 1 view .LVU1473
 6212              	.LBB1574:
  44:../../libDaisy//src/dev/oled_ssd130x.h ****         i2c_.TransmitBlocking(i2c_address_, buf, 2, 1000);
 6213              		.loc 10 44 9 view .LVU1474
  44:../../libDaisy//src/dev/oled_ssd130x.h ****         i2c_.TransmitBlocking(i2c_address_, buf, 2, 1000);
 6214              		.loc 10 44 36 is_stmt 0 view .LVU1475
 6215 01bc 1023     		movs	r3, #16
  45:../../libDaisy//src/dev/oled_ssd130x.h ****     };
 6216              		.loc 10 45 30 view .LVU1476
 6217 01be 09AA     		add	r2, sp, #36
 6218 01c0 9BF85410 		ldrb	r1, [fp, #84]	@ zero_extendqisi2
  44:../../libDaisy//src/dev/oled_ssd130x.h ****         i2c_.TransmitBlocking(i2c_address_, buf, 2, 1000);
 6219              		.loc 10 44 36 view .LVU1477
 6220 01c4 8DF82530 		strb	r3, [sp, #37]
  45:../../libDaisy//src/dev/oled_ssd130x.h ****     };
 6221              		.loc 10 45 9 is_stmt 1 view .LVU1478
  45:../../libDaisy//src/dev/oled_ssd130x.h ****     };
 6222              		.loc 10 45 30 is_stmt 0 view .LVU1479
 6223 01c8 0223     		movs	r3, #2
 6224 01ca 2248     		ldr	r0, .L443+32
 6225 01cc 0097     		str	r7, [sp]
  44:../../libDaisy//src/dev/oled_ssd130x.h ****         i2c_.TransmitBlocking(i2c_address_, buf, 2, 1000);
 6226              		.loc 10 44 17 view .LVU1480
 6227 01ce 8DF82440 		strb	r4, [sp, #36]
 6228 01d2 A5F18004 		sub	r4, r5, #128
  45:../../libDaisy//src/dev/oled_ssd130x.h ****     };
 6229              		.loc 10 45 30 view .LVU1481
 6230 01d6 FFF7FEFF 		bl	_ZN5daisy9I2CHandle16TransmitBlockingEtPhtm
 6231              	.LVL460:
  45:../../libDaisy//src/dev/oled_ssd130x.h ****     };
 6232              		.loc 10 45 30 view .LVU1482
 6233              	.LBE1574:
 6234              	.LBE1573:
 6235              	.LBB1575:
 6236              	.LBI1575:
  48:../../libDaisy//src/dev/oled_ssd130x.h ****     {
 6237              		.loc 10 48 10 is_stmt 1 view .LVU1483
 6238              	.LBB1576:
  50:../../libDaisy//src/dev/oled_ssd130x.h ****         {
 6239              		.loc 10 50 29 view .LVU1484
 6240              	.L429:
 6241              	.LBB1577:
  52:../../libDaisy//src/dev/oled_ssd130x.h ****             i2c_.TransmitBlocking(i2c_address_, buf, 2, 1000);
 6242              		.loc 10 52 13 view .LVU1485
  53:../../libDaisy//src/dev/oled_ssd130x.h ****         }
 6243              		.loc 10 53 34 is_stmt 0 view .LVU1486
 6244 01da 4FF47A73 		mov	r3, #1000
 6245 01de 09AA     		add	r2, sp, #36
 6246 01e0 9BF85410 		ldrb	r1, [fp, #84]	@ zero_extendqisi2
 6247 01e4 0093     		str	r3, [sp]
  52:../../libDaisy//src/dev/oled_ssd130x.h ****             i2c_.TransmitBlocking(i2c_address_, buf, 2, 1000);
 6248              		.loc 10 52 44 view .LVU1487
 6249 01e6 14F8013F 		ldrb	r3, [r4, #1]!	@ zero_extendqisi2
 6250              	.LVL461:
  53:../../libDaisy//src/dev/oled_ssd130x.h ****         }
 6251              		.loc 10 53 34 view .LVU1488
 6252 01ea 1A48     		ldr	r0, .L443+32
ARM GAS  /var/folders/hl/qgbwny5j0fd895c2c41bk3tw0000gp/T//ccRMOALe.s 			page 174


  52:../../libDaisy//src/dev/oled_ssd130x.h ****             i2c_.TransmitBlocking(i2c_address_, buf, 2, 1000);
 6253              		.loc 10 52 44 view .LVU1489
 6254 01ec 8DF82530 		strb	r3, [sp, #37]
  53:../../libDaisy//src/dev/oled_ssd130x.h ****         }
 6255              		.loc 10 53 13 is_stmt 1 view .LVU1490
  52:../../libDaisy//src/dev/oled_ssd130x.h ****             i2c_.TransmitBlocking(i2c_address_, buf, 2, 1000);
 6256              		.loc 10 52 21 is_stmt 0 view .LVU1491
 6257 01f0 4023     		movs	r3, #64
 6258 01f2 8DF82430 		strb	r3, [sp, #36]
  53:../../libDaisy//src/dev/oled_ssd130x.h ****         }
 6259              		.loc 10 53 34 view .LVU1492
 6260 01f6 0223     		movs	r3, #2
 6261 01f8 FFF7FEFF 		bl	_ZN5daisy9I2CHandle16TransmitBlockingEtPhtm
 6262              	.LVL462:
 6263              	.LBE1577:
  50:../../libDaisy//src/dev/oled_ssd130x.h ****         {
 6264              		.loc 10 50 9 is_stmt 1 view .LVU1493
  50:../../libDaisy//src/dev/oled_ssd130x.h ****         {
 6265              		.loc 10 50 29 view .LVU1494
 6266 01fc AC42     		cmp	r4, r5
 6267 01fe ECD1     		bne	.L429
 6268              	.LVL463:
  50:../../libDaisy//src/dev/oled_ssd130x.h ****         {
 6269              		.loc 10 50 29 is_stmt 0 view .LVU1495
 6270              	.LBE1576:
 6271              	.LBE1575:
 6272              		.loc 10 383 9 is_stmt 1 view .LVU1496
 6273              		.loc 10 383 22 view .LVU1497
 6274 0200 0136     		adds	r6, r6, #1
 6275              	.LVL464:
 6276              		.loc 10 383 22 is_stmt 0 view .LVU1498
 6277 0202 8035     		adds	r5, r5, #128
 6278 0204 F6B2     		uxtb	r6, r6
 6279 0206 B82E     		cmp	r6, #184
 6280 0208 BDD1     		bne	.L431
 6281 020a 12E7     		b	.L430
 6282              	.LVL465:
 6283              	.L413:
 6284              		.loc 10 383 22 view .LVU1499
 6285              	.LBE1578:
 6286              	.LBE1579:
 6287              	.LBE1581:
  41:PatchBay.cpp  ****             case 4: sprintf(strbuff, "3. . ."); break;
 6288              		.loc 16 41 13 is_stmt 1 view .LVU1500
  41:PatchBay.cpp  ****             case 4: sprintf(strbuff, "3. . ."); break;
 6289              		.loc 16 41 21 view .LVU1501
  41:PatchBay.cpp  ****             case 4: sprintf(strbuff, "3. . ."); break;
 6290              		.loc 16 41 28 is_stmt 0 view .LVU1502
 6291 020c 124B     		ldr	r3, .L443+36
 6292 020e 1FE7     		b	.L441
 6293              	.L414:
  40:PatchBay.cpp  ****             case 3: sprintf(strbuff, "2. . ."); break;
 6294              		.loc 16 40 13 is_stmt 1 view .LVU1503
  40:PatchBay.cpp  ****             case 3: sprintf(strbuff, "2. . ."); break;
 6295              		.loc 16 40 21 view .LVU1504
  40:PatchBay.cpp  ****             case 3: sprintf(strbuff, "2. . ."); break;
 6296              		.loc 16 40 28 is_stmt 0 view .LVU1505
ARM GAS  /var/folders/hl/qgbwny5j0fd895c2c41bk3tw0000gp/T//ccRMOALe.s 			page 175


 6297 0210 124B     		ldr	r3, .L443+40
 6298 0212 1DE7     		b	.L441
 6299              	.L416:
 6300              	.LVL466:
  38:PatchBay.cpp  ****             case 1: sprintf(strbuff, "Daisy. . ."); break;
 6301              		.loc 16 38 13 is_stmt 1 view .LVU1506
  38:PatchBay.cpp  ****             case 1: sprintf(strbuff, "Daisy. . ."); break;
 6302              		.loc 16 38 21 view .LVU1507
  38:PatchBay.cpp  ****             case 1: sprintf(strbuff, "Daisy. . ."); break;
 6303              		.loc 16 38 28 is_stmt 0 view .LVU1508
 6304 0214 124B     		ldr	r3, .L443+44
 6305 0216 0AAC     		add	r4, sp, #40
 6306 0218 0FCB     		ldm	r3, {r0, r1, r2, r3}
 6307 021a 07C4     		stmia	r4!, {r0, r1, r2}
 6308 021c 2370     		strb	r3, [r4]
  38:PatchBay.cpp  ****             case 1: sprintf(strbuff, "Daisy. . ."); break;
 6309              		.loc 16 38 55 is_stmt 1 view .LVU1509
 6310 021e 1FE7     		b	.L410
 6311              	.LVL467:
 6312              	.L415:
  39:PatchBay.cpp  ****             case 2: sprintf(strbuff, "1. . ."); break;
 6313              		.loc 16 39 13 view .LVU1510
  39:PatchBay.cpp  ****             case 2: sprintf(strbuff, "1. . ."); break;
 6314              		.loc 16 39 21 view .LVU1511
  39:PatchBay.cpp  ****             case 2: sprintf(strbuff, "1. . ."); break;
 6315              		.loc 16 39 28 is_stmt 0 view .LVU1512
 6316 0220 104A     		ldr	r2, .L443+48
 6317 0222 0AAB     		add	r3, sp, #40
 6318 0224 07CA     		ldm	r2, {r0, r1, r2}
 6319 0226 03C3     		stmia	r3!, {r0, r1}
 6320 0228 23F8022B 		strh	r2, [r3], #2	@ movhi
 6321 022c 120C     		lsrs	r2, r2, #16
 6322 022e 1A70     		strb	r2, [r3]
  39:PatchBay.cpp  ****             case 2: sprintf(strbuff, "1. . ."); break;
 6323              		.loc 16 39 53 is_stmt 1 view .LVU1513
 6324 0230 16E7     		b	.L410
 6325              	.L444:
 6326 0232 00BF     		.align	2
 6327              	.L443:
 6328 0234 00000000 		.word	.LANCHOR0
 6329 0238 00000000 		.word	.LANCHOR1
 6330 023c 00000000 		.word	_Z13AudioCallbackPKPKfPPfj
 6331 0240 2C000000 		.word	.LC4
 6332 0244 CDCCCCCC 		.word	-858993459
 6333 0248 58000000 		.word	.LANCHOR1+88
 6334 024c 00000000 		.word	Font_11x18
 6335 0250 D7000000 		.word	.LANCHOR1+215
 6336 0254 50000000 		.word	.LANCHOR1+80
 6337 0258 24000000 		.word	.LC3
 6338 025c 1C000000 		.word	.LC2
 6339 0260 00000000 		.word	.LC0
 6340 0264 10000000 		.word	.LC1
 6341              		.cfi_endproc
 6342              	.LFE4825:
 6344              		.section	.text.startup._GLOBAL__sub_I_hw,"ax",%progbits
 6345              		.align	1
 6346              		.p2align 2,,3
ARM GAS  /var/folders/hl/qgbwny5j0fd895c2c41bk3tw0000gp/T//ccRMOALe.s 			page 176


 6347              		.syntax unified
 6348              		.thumb
 6349              		.thumb_func
 6350              		.fpu fpv5-d16
 6352              	_GLOBAL__sub_I_hw:
 6353              	.LFB5426:
  50:PatchBay.cpp  **** 	}
  51:PatchBay.cpp  **** }
 6354              		.loc 16 51 1 view -0
 6355              		.cfi_startproc
 6356              		@ args = 0, pretend = 0, frame = 0
 6357              		@ frame_needed = 0, uses_anonymous_args = 0
 6358              	.LBB1635:
 6359              	.LBI1635:
 6360              		.loc 16 51 1 view .LVU1515
 6361              	.LVL468:
 6362              	.LBB1636:
 6363              	.LBB1637:
 6364              	.LBI1637:
  64:../../libDaisy//src/daisy_patch_sm.h ****         ~DaisyPatchSM() {}
 6365              		.loc 1 64 9 view .LVU1516
 6366              	.LBB1638:
 6367              	.LBB1639:
 6368              	.LBI1639:
  77:../../libDaisy//src/sys/system.h ****     ~System() {}
 6369              		.loc 7 77 5 view .LVU1517
  77:../../libDaisy//src/sys/system.h ****     ~System() {}
 6370              		.loc 7 77 5 is_stmt 0 view .LVU1518
 6371              	.LBE1639:
 6372              	.LBB1640:
 6373              	.LBI1640:
 6374              		.file 19 "../../libDaisy//src/per/qspi.h"
   1:../../libDaisy//src/per/qspi.h **** #ifndef DSY_QSPI
   2:../../libDaisy//src/per/qspi.h **** #define DSY_QSPI /**< Macro */
   3:../../libDaisy//src/per/qspi.h **** 
   4:../../libDaisy//src/per/qspi.h **** #ifndef UNIT_TEST // for unit tests, a dummy implementation
   5:../../libDaisy//src/per/qspi.h **** 
   6:../../libDaisy//src/per/qspi.h **** #include <cstdint>
   7:../../libDaisy//src/per/qspi.h **** #include "daisy_core.h" // Added for dsy_gpio_pin typedef
   8:../../libDaisy//src/per/qspi.h **** 
   9:../../libDaisy//src/per/qspi.h **** #define DSY_QSPI_TEXT       \
  10:../../libDaisy//src/per/qspi.h ****     __attribute__((section( \
  11:../../libDaisy//src/per/qspi.h ****         ".qspiflash_text"))) /**< used for reading memory in memory_mapped mode. */
  12:../../libDaisy//src/per/qspi.h **** #define DSY_QSPI_DATA       \
  13:../../libDaisy//src/per/qspi.h ****     __attribute__((section( \
  14:../../libDaisy//src/per/qspi.h ****         ".qspiflash_data"))) /**< used for reading memory in memory_mapped mode. */
  15:../../libDaisy//src/per/qspi.h **** #define DSY_QSPI_BSS        \
  16:../../libDaisy//src/per/qspi.h ****     __attribute__((section( \
  17:../../libDaisy//src/per/qspi.h ****         ".qspiflash_bss"))) /**< used for reading memory in memory_mapped mode. */
  18:../../libDaisy//src/per/qspi.h **** 
  19:../../libDaisy//src/per/qspi.h **** namespace daisy
  20:../../libDaisy//src/per/qspi.h **** {
  21:../../libDaisy//src/per/qspi.h **** /** @addtogroup serial
  22:../../libDaisy//src/per/qspi.h **** @{
  23:../../libDaisy//src/per/qspi.h **** */
  24:../../libDaisy//src/per/qspi.h **** 
  25:../../libDaisy//src/per/qspi.h **** /** 
ARM GAS  /var/folders/hl/qgbwny5j0fd895c2c41bk3tw0000gp/T//ccRMOALe.s 			page 177


  26:../../libDaisy//src/per/qspi.h ****  Driver for QSPI peripheral to interface with external flash memory. \n 
  27:../../libDaisy//src/per/qspi.h ****     Currently supported QSPI Devices: \n 
  28:../../libDaisy//src/per/qspi.h ****     * IS25LP080D
  29:../../libDaisy//src/per/qspi.h **** */
  30:../../libDaisy//src/per/qspi.h **** class QSPIHandle
  31:../../libDaisy//src/per/qspi.h **** {
  32:../../libDaisy//src/per/qspi.h ****   public:
  33:../../libDaisy//src/per/qspi.h ****     enum Result
  34:../../libDaisy//src/per/qspi.h ****     {
  35:../../libDaisy//src/per/qspi.h ****         OK = 0,
  36:../../libDaisy//src/per/qspi.h ****         ERR
  37:../../libDaisy//src/per/qspi.h ****     };
  38:../../libDaisy//src/per/qspi.h **** 
  39:../../libDaisy//src/per/qspi.h ****     /** Indicates the current status of the module. 
  40:../../libDaisy//src/per/qspi.h ****          *  Warnings are indicated by a leading W.
  41:../../libDaisy//src/per/qspi.h ****          *  Errors are indicated by a leading E and cause an immediate exit.
  42:../../libDaisy//src/per/qspi.h ****          * 
  43:../../libDaisy//src/per/qspi.h ****          *  \param GOOD - No errors have been reported.
  44:../../libDaisy//src/per/qspi.h ****          *  \param E_HAL_ERROR - HAL code did not return HAL_OK.
  45:../../libDaisy//src/per/qspi.h ****          *  \param E_SWITCHING_MODES - An error was encountered while switching QSPI peripheral mod
  46:../../libDaisy//src/per/qspi.h ****          *  \param E_INVALID_MODE - QSPI should not be written to while the program is executing fr
  47:../../libDaisy//src/per/qspi.h ****          */
  48:../../libDaisy//src/per/qspi.h ****     enum Status
  49:../../libDaisy//src/per/qspi.h ****     {
  50:../../libDaisy//src/per/qspi.h ****         GOOD = 0,
  51:../../libDaisy//src/per/qspi.h ****         E_HAL_ERROR,
  52:../../libDaisy//src/per/qspi.h ****         E_SWITCHING_MODES,
  53:../../libDaisy//src/per/qspi.h ****         E_INVALID_MODE,
  54:../../libDaisy//src/per/qspi.h ****     };
  55:../../libDaisy//src/per/qspi.h **** 
  56:../../libDaisy//src/per/qspi.h ****     /** Configuration structure for interfacing with QSPI Driver */
  57:../../libDaisy//src/per/qspi.h ****     struct Config
  58:../../libDaisy//src/per/qspi.h ****     {
  59:../../libDaisy//src/per/qspi.h ****         /** Flash Devices supported. (Both of these are more-or-less the same, just different sizes
  60:../../libDaisy//src/per/qspi.h ****         enum Device
  61:../../libDaisy//src/per/qspi.h ****         {
  62:../../libDaisy//src/per/qspi.h ****             IS25LP080D,  /**< & */
  63:../../libDaisy//src/per/qspi.h ****             IS25LP064A,  /**< & */
  64:../../libDaisy//src/per/qspi.h ****             DEVICE_LAST, /**< & */
  65:../../libDaisy//src/per/qspi.h ****         };
  66:../../libDaisy//src/per/qspi.h **** 
  67:../../libDaisy//src/per/qspi.h ****         /** 
  68:../../libDaisy//src/per/qspi.h ****         Modes of operation.
  69:../../libDaisy//src/per/qspi.h ****         Memory Mapped mode: QSPI configured so that the QSPI can be
  70:../../libDaisy//src/per/qspi.h ****         read from starting address 0x90000000. Writing is not
  71:../../libDaisy//src/per/qspi.h ****         possible in this mode. \n 
  72:../../libDaisy//src/per/qspi.h ****         Indirect Polling mode: Device driver enabled. 
  73:../../libDaisy//src/per/qspi.h ****         */
  74:../../libDaisy//src/per/qspi.h ****         enum Mode
  75:../../libDaisy//src/per/qspi.h ****         {
  76:../../libDaisy//src/per/qspi.h ****             MEMORY_MAPPED,    /**< & */
  77:../../libDaisy//src/per/qspi.h ****             INDIRECT_POLLING, /**< & */
  78:../../libDaisy//src/per/qspi.h ****             MODE_LAST,
  79:../../libDaisy//src/per/qspi.h ****         };
  80:../../libDaisy//src/per/qspi.h **** 
  81:../../libDaisy//src/per/qspi.h ****         //SCK,  CE# (active low)
  82:../../libDaisy//src/per/qspi.h ****         struct
ARM GAS  /var/folders/hl/qgbwny5j0fd895c2c41bk3tw0000gp/T//ccRMOALe.s 			page 178


  83:../../libDaisy//src/per/qspi.h ****         {
  84:../../libDaisy//src/per/qspi.h ****             dsy_gpio_pin io0; /**< & */
  85:../../libDaisy//src/per/qspi.h ****             dsy_gpio_pin io1; /**< & */
  86:../../libDaisy//src/per/qspi.h ****             dsy_gpio_pin io2; /**< & */
  87:../../libDaisy//src/per/qspi.h ****             dsy_gpio_pin io3; /**< & */
  88:../../libDaisy//src/per/qspi.h ****             dsy_gpio_pin clk; /**< & */
  89:../../libDaisy//src/per/qspi.h ****             dsy_gpio_pin ncs; /**< & */
  90:../../libDaisy//src/per/qspi.h ****         } pin_config;
  91:../../libDaisy//src/per/qspi.h **** 
  92:../../libDaisy//src/per/qspi.h ****         Device device;
  93:../../libDaisy//src/per/qspi.h ****         Mode   mode;
  94:../../libDaisy//src/per/qspi.h ****     };
  95:../../libDaisy//src/per/qspi.h **** 
  96:../../libDaisy//src/per/qspi.h ****     /** 
  97:../../libDaisy//src/per/qspi.h ****         Initializes QSPI peripheral, and Resets, and prepares memory for access.
  98:../../libDaisy//src/per/qspi.h ****         \param config should be populated with the mode, device and pin_config before calling this 
  99:../../libDaisy//src/per/qspi.h ****         \return Result::OK or Result::ERR
 100:../../libDaisy//src/per/qspi.h ****         */
 101:../../libDaisy//src/per/qspi.h ****     Result Init(const Config& config);
 102:../../libDaisy//src/per/qspi.h **** 
 103:../../libDaisy//src/per/qspi.h ****     /** Returns the current config. */
 104:../../libDaisy//src/per/qspi.h ****     const Config& GetConfig() const;
 105:../../libDaisy//src/per/qspi.h **** 
 106:../../libDaisy//src/per/qspi.h ****     // Couldn't this just be called before anything else in init? That
 107:../../libDaisy//src/per/qspi.h ****     // would make manually calling it unnecessary.
 108:../../libDaisy//src/per/qspi.h ****     /** 
 109:../../libDaisy//src/per/qspi.h ****         Deinitializes the peripheral
 110:../../libDaisy//src/per/qspi.h ****         This should be called before reinitializing QSPI in a different mode.
 111:../../libDaisy//src/per/qspi.h ****         \return Result::OK or Result::ERR
 112:../../libDaisy//src/per/qspi.h ****         */
 113:../../libDaisy//src/per/qspi.h ****     Result DeInit();
 114:../../libDaisy//src/per/qspi.h **** 
 115:../../libDaisy//src/per/qspi.h ****     /** 
 116:../../libDaisy//src/per/qspi.h ****         Writes a single page to to the specified address on the QSPI chip.
 117:../../libDaisy//src/per/qspi.h ****         For IS25LP*, page size is 256 bytes.
 118:../../libDaisy//src/per/qspi.h ****         \param address Address to write to
 119:../../libDaisy//src/per/qspi.h ****         \param size Buffer size
 120:../../libDaisy//src/per/qspi.h ****         \param buffer Buffer to write
 121:../../libDaisy//src/per/qspi.h ****         \return Result::OK or Result::ERR
 122:../../libDaisy//src/per/qspi.h ****         */
 123:../../libDaisy//src/per/qspi.h ****     Result WritePage(uint32_t address, uint32_t size, uint8_t* buffer);
 124:../../libDaisy//src/per/qspi.h **** 
 125:../../libDaisy//src/per/qspi.h ****     /** 
 126:../../libDaisy//src/per/qspi.h ****         Writes data in buffer to to the QSPI. Starting at address to address+size 
 127:../../libDaisy//src/per/qspi.h ****         \param address Address to write to
 128:../../libDaisy//src/per/qspi.h ****         \param size Buffer size
 129:../../libDaisy//src/per/qspi.h ****         \param buffer Buffer to write
 130:../../libDaisy//src/per/qspi.h ****         \return Result::OK or Result::ERR
 131:../../libDaisy//src/per/qspi.h ****         */
 132:../../libDaisy//src/per/qspi.h ****     Result Write(uint32_t address, uint32_t size, uint8_t* buffer);
 133:../../libDaisy//src/per/qspi.h **** 
 134:../../libDaisy//src/per/qspi.h ****     /** 
 135:../../libDaisy//src/per/qspi.h ****         Erases the area specified on the chip.
 136:../../libDaisy//src/per/qspi.h ****         Erasures will happen by 4K, 32K or 64K increments.
 137:../../libDaisy//src/per/qspi.h ****         Smallest erase possible is 4kB at a time. (on IS25LP*)
 138:../../libDaisy//src/per/qspi.h ****         \param start_addr Address to begin erasing from
 139:../../libDaisy//src/per/qspi.h ****         \param end_addr  Address to stop erasing at
ARM GAS  /var/folders/hl/qgbwny5j0fd895c2c41bk3tw0000gp/T//ccRMOALe.s 			page 179


 140:../../libDaisy//src/per/qspi.h ****         \return Result::OK or Result::ERR
 141:../../libDaisy//src/per/qspi.h ****         */
 142:../../libDaisy//src/per/qspi.h ****     Result Erase(uint32_t start_addr, uint32_t end_addr);
 143:../../libDaisy//src/per/qspi.h **** 
 144:../../libDaisy//src/per/qspi.h ****     /**  
 145:../../libDaisy//src/per/qspi.h ****          Erases a single sector of the chip.  
 146:../../libDaisy//src/per/qspi.h ****         TODO: Document the size of this function. 
 147:../../libDaisy//src/per/qspi.h ****         \param address Address of sector to erase
 148:../../libDaisy//src/per/qspi.h ****         \return Result::OK or Result::ERR
 149:../../libDaisy//src/per/qspi.h ****         */
 150:../../libDaisy//src/per/qspi.h ****     Result EraseSector(uint32_t address);
 151:../../libDaisy//src/per/qspi.h **** 
 152:../../libDaisy//src/per/qspi.h ****     /** Returns the current class status. Useful for debugging.
 153:../../libDaisy//src/per/qspi.h ****      *  \returns Status
 154:../../libDaisy//src/per/qspi.h ****      */
 155:../../libDaisy//src/per/qspi.h ****     Status GetStatus();
 156:../../libDaisy//src/per/qspi.h **** 
 157:../../libDaisy//src/per/qspi.h ****     /** Returns a pointer to the actual memory used 
 158:../../libDaisy//src/per/qspi.h ****      *  The memory at this address is read-only
 159:../../libDaisy//src/per/qspi.h ****      *  to write to it use the Write function.
 160:../../libDaisy//src/per/qspi.h ****      * 
 161:../../libDaisy//src/per/qspi.h ****      *  \param offset returns the pointer starting this 
 162:../../libDaisy//src/per/qspi.h ****      *                many bytes into the memory
 163:../../libDaisy//src/per/qspi.h ****     */
 164:../../libDaisy//src/per/qspi.h ****     void* GetData(uint32_t offset = 0);
 165:../../libDaisy//src/per/qspi.h **** 
 166:../../libDaisy//src/per/qspi.h ****     QSPIHandle() : pimpl_(nullptr) {}
 6375              		.loc 19 166 5 is_stmt 1 view .LVU1519
 6376              	.LBE1640:
 6377              	.LBE1638:
 6378              	.LBE1637:
 6379              	.LBE1636:
 6380              	.LBE1635:
 6381              		.loc 16 51 1 is_stmt 0 view .LVU1520
 6382 0000 10B5     		push	{r4, lr}
 6383              		.cfi_def_cfa_offset 8
 6384              		.cfi_offset 4, -8
 6385              		.cfi_offset 14, -4
 6386              	.LBB1698:
 6387              	.LBB1695:
 6388              	.LBB1666:
 6389              	.LBB1663:
 6390              	.LBB1643:
 6391              	.LBB1641:
 6392              	.LBB1642:
 6393              		.loc 19 166 34 view .LVU1521
 6394 0002 0A48     		ldr	r0, .L447
 6395 0004 0024     		movs	r4, #0
 6396              	.LBE1642:
 6397              	.LBE1641:
 6398              	.LBE1643:
 6399              	.LBE1663:
 6400              	.LBE1666:
   9:PatchBay.cpp  **** Patch_Bay    pb;
 6401              		.loc 16 9 14 view .LVU1522
 6402 0006 0A4A     		ldr	r2, .L447+4
 6403 0008 0A49     		ldr	r1, .L447+8
ARM GAS  /var/folders/hl/qgbwny5j0fd895c2c41bk3tw0000gp/T//ccRMOALe.s 			page 180


 6404              	.LBB1667:
 6405              	.LBB1664:
 6406              	.LBB1644:
 6407              	.LBB1645:
 6408              	.LBB1646:
 6409              	.LBB1647:
 6410              	.LBB1648:
 6411              		.file 20 "../../libDaisy//src/per/i2c.h"
   1:../../libDaisy//src/per/i2c.h **** #pragma once
   2:../../libDaisy//src/per/i2c.h **** #include "daisy_core.h"
   3:../../libDaisy//src/per/i2c.h **** 
   4:../../libDaisy//src/per/i2c.h **** namespace daisy
   5:../../libDaisy//src/per/i2c.h **** {
   6:../../libDaisy//src/per/i2c.h **** /** A handle for interacting with an I2C peripheral. This is a dumb
   7:../../libDaisy//src/per/i2c.h ****  *  gateway that internally points to one of the four I2C peripherals
   8:../../libDaisy//src/per/i2c.h ****  *  after it was initialised. It can then be copied and passed around.
   9:../../libDaisy//src/per/i2c.h ****  *  Use an I2CHandle like this:
  10:../../libDaisy//src/per/i2c.h ****  *  
  11:../../libDaisy//src/per/i2c.h ****  *      // setup the configuration
  12:../../libDaisy//src/per/i2c.h ****  *      I2CHandle::Config i2c_conf;
  13:../../libDaisy//src/per/i2c.h ****  *      i2c_conf.periph = I2CHandle::Config::Peripheral::I2C_1;
  14:../../libDaisy//src/per/i2c.h ****  *      i2c_conf.speed  = I2CHandle::Config::Speed::I2C_400KHZ;
  15:../../libDaisy//src/per/i2c.h ****  *      i2c_conf.mode   = I2CHandle::Config::Mode::Master;
  16:../../libDaisy//src/per/i2c.h ****  *      i2c_conf.pin_config.scl  = {DSY_GPIOB, 8};
  17:../../libDaisy//src/per/i2c.h ****  *      i2c_conf.pin_config.sda  = {DSY_GPIOB, 9};
  18:../../libDaisy//src/per/i2c.h ****  *      // initialise the peripheral
  19:../../libDaisy//src/per/i2c.h ****  *      I2CHandle i2c;
  20:../../libDaisy//src/per/i2c.h ****  *      i2c.Init(i2c_conf);
  21:../../libDaisy//src/per/i2c.h ****  *      // now i2c points to the corresponding peripheral and can be used.
  22:../../libDaisy//src/per/i2c.h ****  *      i2c.TransmitBlocking( ... );
  23:../../libDaisy//src/per/i2c.h ****  */
  24:../../libDaisy//src/per/i2c.h **** class I2CHandle
  25:../../libDaisy//src/per/i2c.h **** {
  26:../../libDaisy//src/per/i2c.h ****   public:
  27:../../libDaisy//src/per/i2c.h ****     /** Contains settings for initialising an I2C interface. */
  28:../../libDaisy//src/per/i2c.h ****     struct Config
  29:../../libDaisy//src/per/i2c.h ****     {
  30:../../libDaisy//src/per/i2c.h ****         /** Specifies whether the interface will operate in master or slave mode. */
  31:../../libDaisy//src/per/i2c.h ****         enum class Mode
  32:../../libDaisy//src/per/i2c.h ****         {
  33:../../libDaisy//src/per/i2c.h ****             I2C_MASTER,
  34:../../libDaisy//src/per/i2c.h ****             I2C_SLAVE,
  35:../../libDaisy//src/per/i2c.h ****         };
  36:../../libDaisy//src/per/i2c.h **** 
  37:../../libDaisy//src/per/i2c.h ****         /** Specifices the internal peripheral to use (these are mapped to different pins on the ha
  38:../../libDaisy//src/per/i2c.h ****         enum class Peripheral
  39:../../libDaisy//src/per/i2c.h ****         {
  40:../../libDaisy//src/per/i2c.h ****             I2C_1 = 0, /**< & */
  41:../../libDaisy//src/per/i2c.h ****             I2C_2,     /**< & */
  42:../../libDaisy//src/per/i2c.h ****             I2C_3,     /**< & */
  43:../../libDaisy//src/per/i2c.h ****             I2C_4,     /**< & */
  44:../../libDaisy//src/per/i2c.h ****         };
  45:../../libDaisy//src/per/i2c.h **** 
  46:../../libDaisy//src/per/i2c.h ****         /** Rate at which the clock/data will be sent/received. The device being used will have max
  47:../../libDaisy//src/per/i2c.h ****          *  1MHZ Mode is currently 886kHz
  48:../../libDaisy//src/per/i2c.h ****          */
  49:../../libDaisy//src/per/i2c.h ****         enum class Speed
ARM GAS  /var/folders/hl/qgbwny5j0fd895c2c41bk3tw0000gp/T//ccRMOALe.s 			page 181


  50:../../libDaisy//src/per/i2c.h ****         {
  51:../../libDaisy//src/per/i2c.h ****             I2C_100KHZ, /**< & */
  52:../../libDaisy//src/per/i2c.h ****             I2C_400KHZ, /**< & */
  53:../../libDaisy//src/per/i2c.h ****             I2C_1MHZ,   /**< & */
  54:../../libDaisy//src/per/i2c.h ****         };
  55:../../libDaisy//src/per/i2c.h **** 
  56:../../libDaisy//src/per/i2c.h ****         Peripheral periph; /**< & */
  57:../../libDaisy//src/per/i2c.h ****         struct
  58:../../libDaisy//src/per/i2c.h ****         {
  59:../../libDaisy//src/per/i2c.h ****             dsy_gpio_pin scl; /**< & */
  60:../../libDaisy//src/per/i2c.h ****             dsy_gpio_pin sda; /**< & */
  61:../../libDaisy//src/per/i2c.h ****         } pin_config;         /**< & */
  62:../../libDaisy//src/per/i2c.h **** 
  63:../../libDaisy//src/per/i2c.h ****         Speed speed; /**< & */
  64:../../libDaisy//src/per/i2c.h ****         Mode  mode;  /**< & */
  65:../../libDaisy//src/per/i2c.h ****         // 0x10 is chosen as a default to avoid conflicts with reserved addresses
  66:../../libDaisy//src/per/i2c.h ****         uint8_t address = 0x10; /**< & */
  67:../../libDaisy//src/per/i2c.h ****     };
  68:../../libDaisy//src/per/i2c.h **** 
  69:../../libDaisy//src/per/i2c.h ****     /** Return values for I2C functions. */
  70:../../libDaisy//src/per/i2c.h ****     enum class Result
  71:../../libDaisy//src/per/i2c.h ****     {
  72:../../libDaisy//src/per/i2c.h ****         OK, /**< & */
  73:../../libDaisy//src/per/i2c.h ****         ERR /**< & */
  74:../../libDaisy//src/per/i2c.h ****     };
  75:../../libDaisy//src/per/i2c.h **** 
  76:../../libDaisy//src/per/i2c.h ****     enum class Direction
  77:../../libDaisy//src/per/i2c.h ****     {
  78:../../libDaisy//src/per/i2c.h ****         TRANSMIT, /**< & */
  79:../../libDaisy//src/per/i2c.h ****         RECEIVE,  /**< & */
  80:../../libDaisy//src/per/i2c.h ****     };
  81:../../libDaisy//src/per/i2c.h **** 
  82:../../libDaisy//src/per/i2c.h ****     I2CHandle() : pimpl_(nullptr) {}
 6412              		.loc 20 82 33 view .LVU1523
 6413 000a 0462     		str	r4, [r0, #32]
 6414              	.LBE1648:
 6415              	.LBE1647:
 6416              	.LBE1646:
 6417              	.LBE1645:
 6418              	.LBE1644:
 6419              	.LBB1651:
 6420              	.LBB1652:
 6421              	.LBB1653:
 6422              		.file 21 "../../libDaisy//src/per/dac.h"
   1:../../libDaisy//src/per/dac.h **** #pragma once
   2:../../libDaisy//src/per/dac.h **** #ifndef DSY_DAC_H
   3:../../libDaisy//src/per/dac.h **** #define DSY_DAC_H
   4:../../libDaisy//src/per/dac.h **** 
   5:../../libDaisy//src/per/dac.h **** #include "daisy_core.h"
   6:../../libDaisy//src/per/dac.h **** 
   7:../../libDaisy//src/per/dac.h **** namespace daisy
   8:../../libDaisy//src/per/dac.h **** {
   9:../../libDaisy//src/per/dac.h **** /** @brief DAC handle for Built-in DAC Peripheral 
  10:../../libDaisy//src/per/dac.h ****  *  @ingroup per_analog
  11:../../libDaisy//src/per/dac.h ****  ** 
  12:../../libDaisy//src/per/dac.h ****  ** For now only Normal Mode is supported,
  13:../../libDaisy//src/per/dac.h ****  ** Sample and hold mode provides reduced power consumption, but requires a bit more setup.
ARM GAS  /var/folders/hl/qgbwny5j0fd895c2c41bk3tw0000gp/T//ccRMOALe.s 			page 182


  14:../../libDaisy//src/per/dac.h ****  **
  15:../../libDaisy//src/per/dac.h ****  ** For now connecting the DAC through other internal peripherals is also not supported.
  16:../../libDaisy//src/per/dac.h ****  **
  17:../../libDaisy//src/per/dac.h ****  ** Since the DAC channels have dedicated pins we don't need to pass in a pin config like with
  18:../../libDaisy//src/per/dac.h ****  ** other modules. However, it is still important to not try to use the DAC pins for anything else.
  19:../../libDaisy//src/per/dac.h ****  ** DAC Channel 1 is on PA4, and DAC Channel 2 is on PA5
  20:../../libDaisy//src/per/dac.h ****  ***/
  21:../../libDaisy//src/per/dac.h **** class DacHandle
  22:../../libDaisy//src/per/dac.h **** {
  23:../../libDaisy//src/per/dac.h ****   public:
  24:../../libDaisy//src/per/dac.h ****     /** Return Values for the DacHandle class */
  25:../../libDaisy//src/per/dac.h ****     enum class Result
  26:../../libDaisy//src/per/dac.h ****     {
  27:../../libDaisy//src/per/dac.h ****         OK,
  28:../../libDaisy//src/per/dac.h ****         ERR,
  29:../../libDaisy//src/per/dac.h ****     };
  30:../../libDaisy//src/per/dac.h **** 
  31:../../libDaisy//src/per/dac.h ****     /** Selects which channel(s) will be configured for use. */
  32:../../libDaisy//src/per/dac.h ****     enum class Channel
  33:../../libDaisy//src/per/dac.h ****     {
  34:../../libDaisy//src/per/dac.h ****         ONE,
  35:../../libDaisy//src/per/dac.h ****         TWO,
  36:../../libDaisy//src/per/dac.h ****         BOTH,
  37:../../libDaisy//src/per/dac.h ****     };
  38:../../libDaisy//src/per/dac.h **** 
  39:../../libDaisy//src/per/dac.h ****     /** Sets the Mode for the DAC channels.
  40:../../libDaisy//src/per/dac.h ****      **
  41:../../libDaisy//src/per/dac.h ****      ** Polling mode uses the blocking mode to transmit a single value at a time.
  42:../../libDaisy//src/per/dac.h ****      **
  43:../../libDaisy//src/per/dac.h ****      ** DMA mode uses a buffer, and periodically transmits it triggering a 
  44:../../libDaisy//src/per/dac.h ****      ** callback to fill the buffer when it is ready for more samples.
  45:../../libDaisy//src/per/dac.h ****      ***/
  46:../../libDaisy//src/per/dac.h ****     enum class Mode
  47:../../libDaisy//src/per/dac.h ****     {
  48:../../libDaisy//src/per/dac.h ****         POLLING,
  49:../../libDaisy//src/per/dac.h ****         DMA,
  50:../../libDaisy//src/per/dac.h ****     };
  51:../../libDaisy//src/per/dac.h **** 
  52:../../libDaisy//src/per/dac.h ****     /** Sets the number of bits per sample transmitted out of the DAC.
  53:../../libDaisy//src/per/dac.h ****      ** The output range will be: 0V - VDDA
  54:../../libDaisy//src/per/dac.h ****      ** The resolution will be roughly: bitdepth / (VDDA - 0V) 
  55:../../libDaisy//src/per/dac.h ****      ***/
  56:../../libDaisy//src/per/dac.h ****     enum class BitDepth
  57:../../libDaisy//src/per/dac.h ****     {
  58:../../libDaisy//src/per/dac.h ****         BITS_8,
  59:../../libDaisy//src/per/dac.h ****         BITS_12
  60:../../libDaisy//src/per/dac.h ****     };
  61:../../libDaisy//src/per/dac.h **** 
  62:../../libDaisy//src/per/dac.h ****     /** Sets whether the DAC output is buffered for higher drive ability. */
  63:../../libDaisy//src/per/dac.h ****     enum class BufferState
  64:../../libDaisy//src/per/dac.h ****     {
  65:../../libDaisy//src/per/dac.h ****         ENABLED,
  66:../../libDaisy//src/per/dac.h ****         DISABLED,
  67:../../libDaisy//src/per/dac.h ****     };
  68:../../libDaisy//src/per/dac.h **** 
  69:../../libDaisy//src/per/dac.h ****     /** Configuration structure for initializing the DAC structure. */
  70:../../libDaisy//src/per/dac.h ****     struct Config
ARM GAS  /var/folders/hl/qgbwny5j0fd895c2c41bk3tw0000gp/T//ccRMOALe.s 			page 183


  71:../../libDaisy//src/per/dac.h ****     {
  72:../../libDaisy//src/per/dac.h ****         /** Target Samplerate in Hz used to configure the internal 
  73:../../libDaisy//src/per/dac.h ****          ** timebase for DMA mode. Does nothing in POLLING mode.
  74:../../libDaisy//src/per/dac.h ****          ** If the value is 0 at Init time this will default to 48000Hz 
  75:../../libDaisy//src/per/dac.h ****          ** otherwise the driver will attempt meet the target.*/
  76:../../libDaisy//src/per/dac.h ****         uint32_t target_samplerate;
  77:../../libDaisy//src/per/dac.h **** 
  78:../../libDaisy//src/per/dac.h ****         Channel     chn;
  79:../../libDaisy//src/per/dac.h ****         Mode        mode;
  80:../../libDaisy//src/per/dac.h ****         BitDepth    bitdepth;
  81:../../libDaisy//src/per/dac.h ****         BufferState buff_state;
  82:../../libDaisy//src/per/dac.h ****     };
  83:../../libDaisy//src/per/dac.h **** 
  84:../../libDaisy//src/per/dac.h ****     DacHandle() : pimpl_(nullptr) {}
 6423              		.loc 21 84 33 view .LVU1524
 6424 000c 8462     		str	r4, [r0, #40]
 6425              	.LBE1653:
 6426              	.LBE1652:
 6427              	.LBE1651:
 6428              	.LBB1654:
 6429              	.LBB1655:
 6430              	.LBB1656:
  95:../../libDaisy//src/hid/audio.h ****     ~AudioHandle() {}
 6431              		.loc 6 95 35 view .LVU1525
 6432 000e C0E90344 		strd	r4, r4, [r0, #12]
 6433              	.LVL469:
  95:../../libDaisy//src/hid/audio.h ****     ~AudioHandle() {}
 6434              		.loc 6 95 35 view .LVU1526
 6435              	.LBE1656:
 6436              	.LBE1655:
 6437              	.LBE1654:
 6438              	.LBB1657:
 6439              	.LBI1657:
  92:../../libDaisy//src/per/adc.h ****     ~AdcHandle() {}
 6440              		.loc 5 92 5 is_stmt 1 view .LVU1527
  92:../../libDaisy//src/per/adc.h ****     ~AdcHandle() {}
 6441              		.loc 5 92 5 is_stmt 0 view .LVU1528
 6442              	.LBE1657:
 6443              	.LBB1658:
 6444              	.LBI1658:
  40:../../libDaisy//src/hid/usb.h **** 
 6445              		.loc 4 40 5 is_stmt 1 view .LVU1529
  40:../../libDaisy//src/hid/usb.h **** 
 6446              		.loc 4 40 5 is_stmt 0 view .LVU1530
 6447              	.LBE1658:
 6448              	.LBB1659:
 6449              	.LBI1644:
  28:../../libDaisy//src/dev/codec_pcm3060.h ****     ~Pcm3060() {}
 6450              		.loc 3 28 5 is_stmt 1 view .LVU1531
 6451              	.LBB1650:
 6452              	.LBB1649:
 6453              	.LBI1646:
 6454              		.loc 20 82 5 view .LVU1532
 6455              		.loc 20 82 5 is_stmt 0 view .LVU1533
 6456              	.LBE1649:
 6457              	.LBE1650:
 6458              	.LBE1659:
ARM GAS  /var/folders/hl/qgbwny5j0fd895c2c41bk3tw0000gp/T//ccRMOALe.s 			page 184


 6459              	.LBB1660:
 6460              	.LBI1651:
 6461              		.loc 21 84 5 is_stmt 1 view .LVU1534
 6462              		.loc 21 84 5 is_stmt 0 view .LVU1535
 6463              	.LBE1660:
 6464              	.LBE1664:
 6465              	.LBE1667:
 6466              	.LBE1695:
 6467              	.LBE1698:
  64:../../libDaisy//src/daisy_patch_sm.h ****         ~DaisyPatchSM() {}
 6468              		.loc 1 64 24 is_stmt 1 view .LVU1536
 6469              	.LBB1699:
 6470              	.LBB1696:
 6471              	.LBB1668:
 6472              	.LBB1665:
 6473              	.LBB1661:
 6474              	.LBI1661:
  20:../../libDaisy//src/hid/gatein.h ****     /** GateIn~
 6475              		.loc 2 20 5 view .LVU1537
  20:../../libDaisy//src/hid/gatein.h ****     /** GateIn~
 6476              		.loc 2 20 5 is_stmt 0 view .LVU1538
 6477              	.LBE1661:
 6478              	.LBB1662:
 6479              	.LBI1662:
  20:../../libDaisy//src/hid/gatein.h ****     /** GateIn~
 6480              		.loc 2 20 5 is_stmt 1 view .LVU1539
  20:../../libDaisy//src/hid/gatein.h ****     /** GateIn~
 6481              		.loc 2 20 5 is_stmt 0 view .LVU1540
 6482              	.LBE1662:
 6483              	.LBE1665:
 6484              	.LBE1668:
   9:PatchBay.cpp  **** Patch_Bay    pb;
 6485              		.loc 16 9 14 view .LVU1541
 6486 0012 FFF7FEFF 		bl	__aeabi_atexit
 6487              	.LVL470:
 6488              	.LBB1669:
 6489              	.LBI1669:
 6490              		.loc 11 14 7 is_stmt 1 view .LVU1542
 6491              	.LBB1670:
 6492              	.LBI1670:
  77:../../libDaisy//src/per/sdmmc.h ****     ~SdmmcHandler() {}
 6493              		.loc 15 77 5 view .LVU1543
  77:../../libDaisy//src/per/sdmmc.h ****     ~SdmmcHandler() {}
 6494              		.loc 15 77 5 is_stmt 0 view .LVU1544
 6495              	.LBE1670:
 6496              	.LBB1671:
 6497              	.LBI1671:
  41:../../libDaisy//src/hid/switch.h ****     ~Switch() {}
 6498              		.loc 14 41 5 is_stmt 1 view .LVU1545
  41:../../libDaisy//src/hid/switch.h ****     ~Switch() {}
 6499              		.loc 14 41 5 is_stmt 0 view .LVU1546
 6500              	.LBE1671:
 6501              	.LBB1672:
 6502              	.LBI1672:
  20:../../libDaisy//src/hid/encoder.h ****     ~Encoder() {}
 6503              		.loc 13 20 5 is_stmt 1 view .LVU1547
 6504              	.LBB1673:
ARM GAS  /var/folders/hl/qgbwny5j0fd895c2c41bk3tw0000gp/T//ccRMOALe.s 			page 185


 6505              	.LBB1674:
 6506              	.LBI1674:
  41:../../libDaisy//src/hid/switch.h ****     ~Switch() {}
 6507              		.loc 14 41 5 view .LVU1548
  41:../../libDaisy//src/hid/switch.h ****     ~Switch() {}
 6508              		.loc 14 41 5 is_stmt 0 view .LVU1549
 6509              	.LBE1674:
 6510              	.LBE1673:
 6511              	.LBE1672:
 6512              	.LBB1675:
 6513              	.LBI1675:
  17:../../libDaisy//src/hid/disp/oled_display.h ****     virtual ~OledDisplay() {}
 6514              		.loc 8 17 5 is_stmt 1 view .LVU1550
 6515              	.LBB1676:
 6516              	.LBB1677:
 6517              	.LBB1678:
 6518              	.LBI1678:
 218:../../libDaisy//src/hid/disp/display.h ****     virtual ~OneBitGraphicsDisplayImpl() {}
 6519              		.loc 9 218 5 view .LVU1551
 6520              	.LBB1679:
 6521              	.LBI1679:
  22:../../libDaisy//src/hid/disp/display.h ****     virtual ~OneBitGraphicsDisplay() {}
 6522              		.loc 9 22 5 view .LVU1552
  22:../../libDaisy//src/hid/disp/display.h ****     virtual ~OneBitGraphicsDisplay() {}
 6523              		.loc 9 22 5 is_stmt 0 view .LVU1553
 6524              	.LBE1679:
 6525              	.LBE1678:
  17:../../libDaisy//src/hid/disp/oled_display.h ****     virtual ~OledDisplay() {}
 6526              		.loc 8 17 19 view .LVU1554
 6527 0016 0848     		ldr	r0, .L447+12
 6528 0018 084B     		ldr	r3, .L447+16
 6529              	.LBB1680:
 6530              	.LBB1681:
 6531              	.LBB1682:
 6532              	.LBB1683:
 6533              	.LBB1684:
 6534              		.loc 20 82 33 view .LVU1555
 6535 001a 0465     		str	r4, [r0, #80]
 6536              	.LBE1684:
 6537              	.LBE1683:
 6538              	.LBE1682:
 6539              	.LBE1681:
 6540              	.LBE1680:
 6541              	.LBE1677:
 6542              	.LBE1676:
 6543              	.LBE1675:
 6544              	.LBE1669:
  10:PatchBay.cpp  **** 
 6545              		.loc 16 10 14 view .LVU1556
 6546 001c 044A     		ldr	r2, .L447+4
 6547 001e 0849     		ldr	r1, .L447+20
 6548              	.LBB1694:
 6549              	.LBB1690:
 6550              	.LBB1689:
 6551              	.LBB1688:
  17:../../libDaisy//src/hid/disp/oled_display.h ****     virtual ~OledDisplay() {}
 6552              		.loc 8 17 19 view .LVU1557
ARM GAS  /var/folders/hl/qgbwny5j0fd895c2c41bk3tw0000gp/T//ccRMOALe.s 			page 186


 6553 0020 8364     		str	r3, [r0, #72]
 6554              	.LVL471:
 6555              	.LBB1687:
 6556              	.LBI1680:
 245:../../libDaisy//src/dev/oled_ssd130x.h **** {
 6557              		.loc 10 245 7 is_stmt 1 view .LVU1558
 6558              	.LBB1686:
 6559              	.LBI1681:
  15:../../libDaisy//src/dev/oled_ssd130x.h **** {
 6560              		.loc 10 15 7 view .LVU1559
 6561              	.LBB1685:
 6562              	.LBI1682:
 6563              		.loc 20 82 5 view .LVU1560
 6564              		.loc 20 82 5 is_stmt 0 view .LVU1561
 6565              	.LBE1685:
 6566              	.LBE1686:
 6567              	.LBE1687:
 6568              	.LBE1688:
 6569              	.LBE1689:
 6570              	.LBE1690:
 6571              	.LBB1691:
 6572              	.LBI1691:
  24:../../libDaisy//src/hid/led.h ****     ~Led() {}
 6573              		.loc 12 24 5 is_stmt 1 view .LVU1562
  24:../../libDaisy//src/hid/led.h ****     ~Led() {}
 6574              		.loc 12 24 5 is_stmt 0 view .LVU1563
 6575              	.LBE1691:
 6576              	.LBB1692:
 6577              	.LBI1692:
  24:../../libDaisy//src/hid/led.h ****     ~Led() {}
 6578              		.loc 12 24 5 is_stmt 1 view .LVU1564
  24:../../libDaisy//src/hid/led.h ****     ~Led() {}
 6579              		.loc 12 24 5 is_stmt 0 view .LVU1565
 6580              	.LBE1692:
 6581              	.LBB1693:
 6582              	.LBI1693:
  24:../../libDaisy//src/hid/led.h ****     ~Led() {}
 6583              		.loc 12 24 5 is_stmt 1 view .LVU1566
  24:../../libDaisy//src/hid/led.h ****     ~Led() {}
 6584              		.loc 12 24 5 is_stmt 0 view .LVU1567
 6585              	.LBE1693:
 6586              	.LBE1694:
 6587              	.LBE1696:
 6588              	.LBE1699:
 6589              		.loc 16 51 1 view .LVU1568
 6590 0022 BDE81040 		pop	{r4, lr}
 6591              		.cfi_restore 14
 6592              		.cfi_restore 4
 6593              		.cfi_def_cfa_offset 0
 6594              	.LBB1700:
 6595              	.LBB1697:
  10:PatchBay.cpp  **** 
 6596              		.loc 16 10 14 view .LVU1569
 6597 0026 FFF7FEBF 		b	__aeabi_atexit
 6598              	.LVL472:
 6599              	.L448:
 6600 002a 00BF     		.align	2
ARM GAS  /var/folders/hl/qgbwny5j0fd895c2c41bk3tw0000gp/T//ccRMOALe.s 			page 187


 6601              	.L447:
 6602 002c 00000000 		.word	.LANCHOR0
 6603 0030 00000000 		.word	__dso_handle
 6604 0034 00000000 		.word	_ZN5daisy8patch_sm12DaisyPatchSMD1Ev
 6605 0038 00000000 		.word	.LANCHOR1
 6606 003c 08000000 		.word	_ZTVN5daisy11OledDisplayINS_13SSD130xDriverILj128ELj64ENS_19SSD130xI2CTransportEEEEE+8
 6607 0040 00000000 		.word	_ZN5daisy9Patch_BayD1Ev
 6608              	.LBE1697:
 6609              	.LBE1700:
 6610              		.cfi_endproc
 6611              	.LFE5426:
 6613              		.section	.init_array,"aw",%init_array
 6614              		.align	2
 6615 0000 00000000 		.word	_GLOBAL__sub_I_hw(target1)
 6616              		.weak	_ZTVN5daisy11OledDisplayINS_13SSD130xDriverILj128ELj64ENS_19SSD130xI2CTransportEEEEE
 6617              		.section	.rodata._ZTVN5daisy11OledDisplayINS_13SSD130xDriverILj128ELj64ENS_19SSD130xI2CTransportEE
 6618              		.align	2
 6621              	_ZTVN5daisy11OledDisplayINS_13SSD130xDriverILj128ELj64ENS_19SSD130xI2CTransportEEEEE:
 6622 0000 00000000 		.word	0
 6623 0004 00000000 		.word	0
 6624 0008 00000000 		.word	_ZN5daisy11OledDisplayINS_13SSD130xDriverILj128ELj64ENS_19SSD130xI2CTransportEEEED1Ev
 6625 000c 00000000 		.word	_ZN5daisy11OledDisplayINS_13SSD130xDriverILj128ELj64ENS_19SSD130xI2CTransportEEEED0Ev
 6626 0010 00000000 		.word	_ZNK5daisy11OledDisplayINS_13SSD130xDriverILj128ELj64ENS_19SSD130xI2CTransportEEEE6HeightEv
 6627 0014 00000000 		.word	_ZNK5daisy11OledDisplayINS_13SSD130xDriverILj128ELj64ENS_19SSD130xI2CTransportEEEE5WidthEv
 6628 0018 00000000 		.word	_ZN5daisy11OledDisplayINS_13SSD130xDriverILj128ELj64ENS_19SSD130xI2CTransportEEEE4FillEb
 6629 001c 00000000 		.word	_ZN5daisy11OledDisplayINS_13SSD130xDriverILj128ELj64ENS_19SSD130xI2CTransportEEEE9DrawPixelE
 6630 0020 00000000 		.word	_ZN5daisy25OneBitGraphicsDisplayImplINS_11OledDisplayINS_13SSD130xDriverILj128ELj64ENS_19SSD
 6631 0024 00000000 		.word	_ZN5daisy25OneBitGraphicsDisplayImplINS_11OledDisplayINS_13SSD130xDriverILj128ELj64ENS_19SSD
 6632 0028 00000000 		.word	_ZN5daisy25OneBitGraphicsDisplayImplINS_11OledDisplayINS_13SSD130xDriverILj128ELj64ENS_19SSD
 6633 002c 00000000 		.word	_ZN5daisy25OneBitGraphicsDisplayImplINS_11OledDisplayINS_13SSD130xDriverILj128ELj64ENS_19SSD
 6634 0030 00000000 		.word	_ZN5daisy25OneBitGraphicsDisplayImplINS_11OledDisplayINS_13SSD130xDriverILj128ELj64ENS_19SSD
 6635 0034 00000000 		.word	_ZN5daisy25OneBitGraphicsDisplayImplINS_11OledDisplayINS_13SSD130xDriverILj128ELj64ENS_19SSD
 6636 0038 00000000 		.word	_ZN5daisy11OledDisplayINS_13SSD130xDriverILj128ELj64ENS_19SSD130xI2CTransportEEEE6UpdateEv
 6637              		.global	pb
 6638              		.global	hw
 6639              		.section	.bss.hw,"aw",%nobits
 6640              		.align	2
 6641              		.set	.LANCHOR0,. + 0
 6644              	hw:
 6645 0000 00000000 		.space	464
 6645      00000000 
 6645      00000000 
 6645      00000000 
 6645      00000000 
 6646              		.section	.bss.pb,"aw",%nobits
 6647              		.align	2
 6648              		.set	.LANCHOR1,. + 0
 6651              	pb:
 6652 0000 00000000 		.space	1196
 6652      00000000 
 6652      00000000 
 6652      00000000 
 6652      00000000 
 6653              		.text
 6654              	.Letext0:
 6655              		.file 22 "/opt/homebrew/Cellar/arm-none-eabi-gcc/10.3-2021.07/gcc/arm-none-eabi/include/machine/_d
 6656              		.file 23 "/opt/homebrew/Cellar/arm-none-eabi-gcc/10.3-2021.07/gcc/arm-none-eabi/include/sys/_stdin
ARM GAS  /var/folders/hl/qgbwny5j0fd895c2c41bk3tw0000gp/T//ccRMOALe.s 			page 188


 6657              		.file 24 "/opt/homebrew/Cellar/arm-none-eabi-gcc/10.3-2021.07/gcc/arm-none-eabi/include/stdint.h"
 6658              		.file 25 "/opt/homebrew/Cellar/arm-none-eabi-gcc/10.3-2021.07/gcc/lib/gcc/arm-none-eabi/10.3.1/inc
 6659              		.file 26 "/opt/homebrew/Cellar/arm-none-eabi-gcc/10.3-2021.07/gcc/arm-none-eabi/include/c++/10.3.1
 6660              		.file 27 "/opt/homebrew/Cellar/arm-none-eabi-gcc/10.3-2021.07/gcc/arm-none-eabi/include/c++/10.3.1
 6661              		.file 28 "/opt/homebrew/Cellar/arm-none-eabi-gcc/10.3-2021.07/gcc/arm-none-eabi/include/c++/10.3.1
 6662              		.file 29 "/opt/homebrew/Cellar/arm-none-eabi-gcc/10.3-2021.07/gcc/arm-none-eabi/include/c++/10.3.1
 6663              		.file 30 "/opt/homebrew/Cellar/arm-none-eabi-gcc/10.3-2021.07/gcc/arm-none-eabi/include/c++/10.3.1
 6664              		.file 31 "/opt/homebrew/Cellar/arm-none-eabi-gcc/10.3-2021.07/gcc/arm-none-eabi/include/c++/10.3.1
 6665              		.file 32 "/opt/homebrew/Cellar/arm-none-eabi-gcc/10.3-2021.07/gcc/arm-none-eabi/include/c++/10.3.1
 6666              		.file 33 "/opt/homebrew/Cellar/arm-none-eabi-gcc/10.3-2021.07/gcc/arm-none-eabi/include/c++/10.3.1
 6667              		.file 34 "/opt/homebrew/Cellar/arm-none-eabi-gcc/10.3-2021.07/gcc/arm-none-eabi/include/c++/10.3.1
 6668              		.file 35 "/opt/homebrew/Cellar/arm-none-eabi-gcc/10.3-2021.07/gcc/arm-none-eabi/include/c++/10.3.1
 6669              		.file 36 "/opt/homebrew/Cellar/arm-none-eabi-gcc/10.3-2021.07/gcc/arm-none-eabi/include/c++/10.3.1
 6670              		.file 37 "/opt/homebrew/Cellar/arm-none-eabi-gcc/10.3-2021.07/gcc/arm-none-eabi/include/c++/10.3.1
 6671              		.file 38 "/opt/homebrew/Cellar/arm-none-eabi-gcc/10.3-2021.07/gcc/arm-none-eabi/include/c++/10.3.1
 6672              		.file 39 "/opt/homebrew/Cellar/arm-none-eabi-gcc/10.3-2021.07/gcc/arm-none-eabi/include/c++/10.3.1
 6673              		.file 40 "/opt/homebrew/Cellar/arm-none-eabi-gcc/10.3-2021.07/gcc/arm-none-eabi/include/c++/10.3.1
 6674              		.file 41 "/opt/homebrew/Cellar/arm-none-eabi-gcc/10.3-2021.07/gcc/arm-none-eabi/include/c++/10.3.1
 6675              		.file 42 "/opt/homebrew/Cellar/arm-none-eabi-gcc/10.3-2021.07/gcc/arm-none-eabi/include/c++/10.3.1
 6676              		.file 43 "/opt/homebrew/Cellar/arm-none-eabi-gcc/10.3-2021.07/gcc/arm-none-eabi/include/sys/_types
 6677              		.file 44 "/opt/homebrew/Cellar/arm-none-eabi-gcc/10.3-2021.07/gcc/arm-none-eabi/include/sys/reent.
 6678              		.file 45 "/opt/homebrew/Cellar/arm-none-eabi-gcc/10.3-2021.07/gcc/arm-none-eabi/include/sys/lock.h
 6679              		.file 46 "/opt/homebrew/Cellar/arm-none-eabi-gcc/10.3-2021.07/gcc/arm-none-eabi/include/math.h"
 6680              		.file 47 "/opt/homebrew/Cellar/arm-none-eabi-gcc/10.3-2021.07/gcc/arm-none-eabi/include/stdlib.h"
 6681              		.file 48 "/opt/homebrew/Cellar/arm-none-eabi-gcc/10.3-2021.07/gcc/arm-none-eabi/include/c++/10.3.1
 6682              		.file 49 "/opt/homebrew/Cellar/arm-none-eabi-gcc/10.3-2021.07/gcc/arm-none-eabi/include/c++/10.3.1
 6683              		.file 50 "../../libDaisy//src/daisy_core.h"
 6684              		.file 51 "../../libDaisy//src/per/tim.h"
 6685              		.file 52 "../../libDaisy//src/per/sai.h"
 6686              		.file 53 "../../libDaisy//src/hid/ctrl.h"
 6687              		.file 54 "../../libDaisy//src/util/wav_format.h"
 6688              		.file 55 "../../libDaisy//src/dev/max11300.h"
 6689              		.file 56 "../../libDaisy//src/per/gpio.h"
 6690              		.file 57 "../../libDaisy//src/dev/sdram.h"
 6691              		.file 58 "/opt/homebrew/Cellar/arm-none-eabi-gcc/10.3-2021.07/gcc/lib/gcc/arm-none-eabi/10.3.1/inc
 6692              		.file 59 "/opt/homebrew/Cellar/arm-none-eabi-gcc/10.3-2021.07/gcc/arm-none-eabi/include/stdio.h"
 6693              		.file 60 "../../libDaisy//src/util/oled_fonts.h"
 6694              		.file 61 "/opt/homebrew/Cellar/arm-none-eabi-gcc/10.3-2021.07/gcc/arm-none-eabi/include/string.h"
 6695              		.file 62 "../../DaisySP//Source/Control/adenv.h"
 6696              		.file 63 "../../DaisySP//Source/Utility/dsp.h"
 6697              		.file 64 "/opt/homebrew/Cellar/arm-none-eabi-gcc/10.3-2021.07/gcc/arm-none-eabi/include/wchar.h"
 6698              		.file 65 "/opt/homebrew/Cellar/arm-none-eabi-gcc/10.3-2021.07/gcc/arm-none-eabi/include/locale.h"
 6699              		.file 66 "../../libDaisy//src/dev/sr_595.h"
 6700              		.file 67 "<built-in>"
 6701              		.file 68 "/opt/homebrew/Cellar/arm-none-eabi-gcc/10.3-2021.07/gcc/arm-none-eabi/include/c++/10.3.1
ARM GAS  /var/folders/hl/qgbwny5j0fd895c2c41bk3tw0000gp/T//ccRMOALe.s 			page 189


DEFINED SYMBOLS
                            *ABS*:0000000000000000 PatchBay.cpp
/var/folders/hl/qgbwny5j0fd895c2c41bk3tw0000gp/T//ccRMOALe.s:17     .text._ZN5daisy8patch_sm12DaisyPatchSMD2Ev:0000000000000000 $t
/var/folders/hl/qgbwny5j0fd895c2c41bk3tw0000gp/T//ccRMOALe.s:26     .text._ZN5daisy8patch_sm12DaisyPatchSMD2Ev:0000000000000000 _ZN5daisy8patch_sm12DaisyPatchSMD2Ev
/var/folders/hl/qgbwny5j0fd895c2c41bk3tw0000gp/T//ccRMOALe.s:26     .text._ZN5daisy8patch_sm12DaisyPatchSMD2Ev:0000000000000000 _ZN5daisy8patch_sm12DaisyPatchSMD1Ev
/var/folders/hl/qgbwny5j0fd895c2c41bk3tw0000gp/T//ccRMOALe.s:84     .text._ZN5daisy11OledDisplayINS_13SSD130xDriverILj128ELj64ENS_19SSD130xI2CTransportEEEED2Ev:0000000000000000 $t
/var/folders/hl/qgbwny5j0fd895c2c41bk3tw0000gp/T//ccRMOALe.s:92     .text._ZN5daisy11OledDisplayINS_13SSD130xDriverILj128ELj64ENS_19SSD130xI2CTransportEEEED2Ev:0000000000000000 _ZN5daisy11OledDisplayINS_13SSD130xDriverILj128ELj64ENS_19SSD130xI2CTransportEEEED2Ev
/var/folders/hl/qgbwny5j0fd895c2c41bk3tw0000gp/T//ccRMOALe.s:92     .text._ZN5daisy11OledDisplayINS_13SSD130xDriverILj128ELj64ENS_19SSD130xI2CTransportEEEED2Ev:0000000000000000 _ZN5daisy11OledDisplayINS_13SSD130xDriverILj128ELj64ENS_19SSD130xI2CTransportEEEED1Ev
/var/folders/hl/qgbwny5j0fd895c2c41bk3tw0000gp/T//ccRMOALe.s:119    .text._ZN5daisy11OledDisplayINS_13SSD130xDriverILj128ELj64ENS_19SSD130xI2CTransportEEEE4FillEb:0000000000000000 $t
/var/folders/hl/qgbwny5j0fd895c2c41bk3tw0000gp/T//ccRMOALe.s:127    .text._ZN5daisy11OledDisplayINS_13SSD130xDriverILj128ELj64ENS_19SSD130xI2CTransportEEEE4FillEb:0000000000000000 _ZN5daisy11OledDisplayINS_13SSD130xDriverILj128ELj64ENS_19SSD130xI2CTransportEEEE4FillEb
/var/folders/hl/qgbwny5j0fd895c2c41bk3tw0000gp/T//ccRMOALe.s:159    .text._ZN5daisy9Patch_BayD2Ev:0000000000000000 $t
/var/folders/hl/qgbwny5j0fd895c2c41bk3tw0000gp/T//ccRMOALe.s:167    .text._ZN5daisy9Patch_BayD2Ev:0000000000000000 _ZN5daisy9Patch_BayD2Ev
/var/folders/hl/qgbwny5j0fd895c2c41bk3tw0000gp/T//ccRMOALe.s:167    .text._ZN5daisy9Patch_BayD2Ev:0000000000000000 _ZN5daisy9Patch_BayD1Ev
/var/folders/hl/qgbwny5j0fd895c2c41bk3tw0000gp/T//ccRMOALe.s:235    .text._ZNK5daisy11OledDisplayINS_13SSD130xDriverILj128ELj64ENS_19SSD130xI2CTransportEEEE6HeightEv:0000000000000000 $t
/var/folders/hl/qgbwny5j0fd895c2c41bk3tw0000gp/T//ccRMOALe.s:243    .text._ZNK5daisy11OledDisplayINS_13SSD130xDriverILj128ELj64ENS_19SSD130xI2CTransportEEEE6HeightEv:0000000000000000 _ZNK5daisy11OledDisplayINS_13SSD130xDriverILj128ELj64ENS_19SSD130xI2CTransportEEEE6HeightEv
/var/folders/hl/qgbwny5j0fd895c2c41bk3tw0000gp/T//ccRMOALe.s:260    .text._ZNK5daisy11OledDisplayINS_13SSD130xDriverILj128ELj64ENS_19SSD130xI2CTransportEEEE5WidthEv:0000000000000000 $t
/var/folders/hl/qgbwny5j0fd895c2c41bk3tw0000gp/T//ccRMOALe.s:268    .text._ZNK5daisy11OledDisplayINS_13SSD130xDriverILj128ELj64ENS_19SSD130xI2CTransportEEEE5WidthEv:0000000000000000 _ZNK5daisy11OledDisplayINS_13SSD130xDriverILj128ELj64ENS_19SSD130xI2CTransportEEEE5WidthEv
/var/folders/hl/qgbwny5j0fd895c2c41bk3tw0000gp/T//ccRMOALe.s:285    .text._Z13AudioCallbackPKPKfPPfj:0000000000000000 $t
/var/folders/hl/qgbwny5j0fd895c2c41bk3tw0000gp/T//ccRMOALe.s:293    .text._Z13AudioCallbackPKPKfPPfj:0000000000000000 _Z13AudioCallbackPKPKfPPfj
/var/folders/hl/qgbwny5j0fd895c2c41bk3tw0000gp/T//ccRMOALe.s:379    .text._Z13AudioCallbackPKPKfPPfj:0000000000000038 $d
/var/folders/hl/qgbwny5j0fd895c2c41bk3tw0000gp/T//ccRMOALe.s:384    .text._ZN5daisy11OledDisplayINS_13SSD130xDriverILj128ELj64ENS_19SSD130xI2CTransportEEEED0Ev:0000000000000000 $t
/var/folders/hl/qgbwny5j0fd895c2c41bk3tw0000gp/T//ccRMOALe.s:392    .text._ZN5daisy11OledDisplayINS_13SSD130xDriverILj128ELj64ENS_19SSD130xI2CTransportEEEED0Ev:0000000000000000 _ZN5daisy11OledDisplayINS_13SSD130xDriverILj128ELj64ENS_19SSD130xI2CTransportEEEED0Ev
/var/folders/hl/qgbwny5j0fd895c2c41bk3tw0000gp/T//ccRMOALe.s:432    .text._ZN5daisy11OledDisplayINS_13SSD130xDriverILj128ELj64ENS_19SSD130xI2CTransportEEEE6UpdateEv:0000000000000000 $t
/var/folders/hl/qgbwny5j0fd895c2c41bk3tw0000gp/T//ccRMOALe.s:440    .text._ZN5daisy11OledDisplayINS_13SSD130xDriverILj128ELj64ENS_19SSD130xI2CTransportEEEE6UpdateEv:0000000000000000 _ZN5daisy11OledDisplayINS_13SSD130xDriverILj128ELj64ENS_19SSD130xI2CTransportEEEE6UpdateEv
/var/folders/hl/qgbwny5j0fd895c2c41bk3tw0000gp/T//ccRMOALe.s:623    .text._ZN5daisy25OneBitGraphicsDisplayImplINS_11OledDisplayINS_13SSD130xDriverILj128ELj64ENS_19SSD130xI2CTransportEEEEEE9WriteCharEc7FontDefb:0000000000000000 $t
/var/folders/hl/qgbwny5j0fd895c2c41bk3tw0000gp/T//ccRMOALe.s:631    .text._ZN5daisy25OneBitGraphicsDisplayImplINS_11OledDisplayINS_13SSD130xDriverILj128ELj64ENS_19SSD130xI2CTransportEEEEEE9WriteCharEc7FontDefb:0000000000000000 _ZN5daisy25OneBitGraphicsDisplayImplINS_11OledDisplayINS_13SSD130xDriverILj128ELj64ENS_19SSD130xI2CTransportEEEEEE9WriteCharEc7FontDefb
/var/folders/hl/qgbwny5j0fd895c2c41bk3tw0000gp/T//ccRMOALe.s:1057   .text._ZN5daisy25OneBitGraphicsDisplayImplINS_11OledDisplayINS_13SSD130xDriverILj128ELj64ENS_19SSD130xI2CTransportEEEEEE9WriteCharEc7FontDefb:0000000000000198 $d
/var/folders/hl/qgbwny5j0fd895c2c41bk3tw0000gp/T//ccRMOALe.s:1065   .text._ZN5daisy25OneBitGraphicsDisplayImplINS_11OledDisplayINS_13SSD130xDriverILj128ELj64ENS_19SSD130xI2CTransportEEEEEE11WriteStringEPKc7FontDefb:0000000000000000 $t
/var/folders/hl/qgbwny5j0fd895c2c41bk3tw0000gp/T//ccRMOALe.s:1073   .text._ZN5daisy25OneBitGraphicsDisplayImplINS_11OledDisplayINS_13SSD130xDriverILj128ELj64ENS_19SSD130xI2CTransportEEEEEE11WriteStringEPKc7FontDefb:0000000000000000 _ZN5daisy25OneBitGraphicsDisplayImplINS_11OledDisplayINS_13SSD130xDriverILj128ELj64ENS_19SSD130xI2CTransportEEEEEE11WriteStringEPKc7FontDefb
/var/folders/hl/qgbwny5j0fd895c2c41bk3tw0000gp/T//ccRMOALe.s:1530   .text._ZN5daisy25OneBitGraphicsDisplayImplINS_11OledDisplayINS_13SSD130xDriverILj128ELj64ENS_19SSD130xI2CTransportEEEEEE11WriteStringEPKc7FontDefb:00000000000001b8 $d
/var/folders/hl/qgbwny5j0fd895c2c41bk3tw0000gp/T//ccRMOALe.s:1540   .text._ZN5daisy11OledDisplayINS_13SSD130xDriverILj128ELj64ENS_19SSD130xI2CTransportEEEE9DrawPixelEjjb:0000000000000000 $t
/var/folders/hl/qgbwny5j0fd895c2c41bk3tw0000gp/T//ccRMOALe.s:1548   .text._ZN5daisy11OledDisplayINS_13SSD130xDriverILj128ELj64ENS_19SSD130xI2CTransportEEEE9DrawPixelEjjb:0000000000000000 _ZN5daisy11OledDisplayINS_13SSD130xDriverILj128ELj64ENS_19SSD130xI2CTransportEEEE9DrawPixelEjjb
/var/folders/hl/qgbwny5j0fd895c2c41bk3tw0000gp/T//ccRMOALe.s:1625   .text._ZN5daisy25OneBitGraphicsDisplayImplINS_11OledDisplayINS_13SSD130xDriverILj128ELj64ENS_19SSD130xI2CTransportEEEEEE8DrawLineEjjjjb:0000000000000000 $t
/var/folders/hl/qgbwny5j0fd895c2c41bk3tw0000gp/T//ccRMOALe.s:1633   .text._ZN5daisy25OneBitGraphicsDisplayImplINS_11OledDisplayINS_13SSD130xDriverILj128ELj64ENS_19SSD130xI2CTransportEEEEEE8DrawLineEjjjjb:0000000000000000 _ZN5daisy25OneBitGraphicsDisplayImplINS_11OledDisplayINS_13SSD130xDriverILj128ELj64ENS_19SSD130xI2CTransportEEEEEE8DrawLineEjjjjb
/var/folders/hl/qgbwny5j0fd895c2c41bk3tw0000gp/T//ccRMOALe.s:1918   .text._ZN5daisy25OneBitGraphicsDisplayImplINS_11OledDisplayINS_13SSD130xDriverILj128ELj64ENS_19SSD130xI2CTransportEEEEEE7DrawArcEjjjiib:0000000000000000 $t
/var/folders/hl/qgbwny5j0fd895c2c41bk3tw0000gp/T//ccRMOALe.s:1926   .text._ZN5daisy25OneBitGraphicsDisplayImplINS_11OledDisplayINS_13SSD130xDriverILj128ELj64ENS_19SSD130xI2CTransportEEEEEE7DrawArcEjjjiib:0000000000000000 _ZN5daisy25OneBitGraphicsDisplayImplINS_11OledDisplayINS_13SSD130xDriverILj128ELj64ENS_19SSD130xI2CTransportEEEEEE7DrawArcEjjjiib
/var/folders/hl/qgbwny5j0fd895c2c41bk3tw0000gp/T//ccRMOALe.s:2611   .text._ZN5daisy25OneBitGraphicsDisplayImplINS_11OledDisplayINS_13SSD130xDriverILj128ELj64ENS_19SSD130xI2CTransportEEEEEE7DrawArcEjjjiib:0000000000000368 $d
/var/folders/hl/qgbwny5j0fd895c2c41bk3tw0000gp/T//ccRMOALe.s:2625   .text._ZN5daisy25OneBitGraphicsDisplayImplINS_11OledDisplayINS_13SSD130xDriverILj128ELj64ENS_19SSD130xI2CTransportEEEEEE7DrawArcEjjjiib:0000000000000378 $t
/var/folders/hl/qgbwny5j0fd895c2c41bk3tw0000gp/T//ccRMOALe.s:2851   .text._ZN5daisy25OneBitGraphicsDisplayImplINS_11OledDisplayINS_13SSD130xDriverILj128ELj64ENS_19SSD130xI2CTransportEEEEEE18WriteStringAlignedEPKcRK7FontDefNS_9RectangleENS_9AlignmentEb:0000000000000000 $t
/var/folders/hl/qgbwny5j0fd895c2c41bk3tw0000gp/T//ccRMOALe.s:2859   .text._ZN5daisy25OneBitGraphicsDisplayImplINS_11OledDisplayINS_13SSD130xDriverILj128ELj64ENS_19SSD130xI2CTransportEEEEEE18WriteStringAlignedEPKcRK7FontDefNS_9RectangleENS_9AlignmentEb:0000000000000000 _ZN5daisy25OneBitGraphicsDisplayImplINS_11OledDisplayINS_13SSD130xDriverILj128ELj64ENS_19SSD130xI2CTransportEEEEEE18WriteStringAlignedEPKcRK7FontDefNS_9RectangleENS_9AlignmentEb
/var/folders/hl/qgbwny5j0fd895c2c41bk3tw0000gp/T//ccRMOALe.s:2998   .text._ZN5daisy25OneBitGraphicsDisplayImplINS_11OledDisplayINS_13SSD130xDriverILj128ELj64ENS_19SSD130xI2CTransportEEEEEE18WriteStringAlignedEPKcRK7FontDefNS_9RectangleENS_9AlignmentEb:0000000000000046 $d
/var/folders/hl/qgbwny5j0fd895c2c41bk3tw0000gp/T//ccRMOALe.s:3007   .text._ZN5daisy25OneBitGraphicsDisplayImplINS_11OledDisplayINS_13SSD130xDriverILj128ELj64ENS_19SSD130xI2CTransportEEEEEE18WriteStringAlignedEPKcRK7FontDefNS_9RectangleENS_9AlignmentEb:0000000000000058 $t
/var/folders/hl/qgbwny5j0fd895c2c41bk3tw0000gp/T//ccRMOALe.s:4215   .text._ZN5daisy25OneBitGraphicsDisplayImplINS_11OledDisplayINS_13SSD130xDriverILj128ELj64ENS_19SSD130xI2CTransportEEEEEE18WriteStringAlignedEPKcRK7FontDefNS_9RectangleENS_9AlignmentEb:000000000000031c $d
/var/folders/hl/qgbwny5j0fd895c2c41bk3tw0000gp/T//ccRMOALe.s:4224   .text._ZN5daisy25OneBitGraphicsDisplayImplINS_11OledDisplayINS_13SSD130xDriverILj128ELj64ENS_19SSD130xI2CTransportEEEEEE18WriteStringAlignedEPKcRK7FontDefNS_9RectangleENS_9AlignmentEb:0000000000000324 $t
/var/folders/hl/qgbwny5j0fd895c2c41bk3tw0000gp/T//ccRMOALe.s:4540   .text._ZN5daisy25OneBitGraphicsDisplayImplINS_11OledDisplayINS_13SSD130xDriverILj128ELj64ENS_19SSD130xI2CTransportEEEEEE18WriteStringAlignedEPKcRK7FontDefNS_9RectangleENS_9AlignmentEb:00000000000003e4 $d
/var/folders/hl/qgbwny5j0fd895c2c41bk3tw0000gp/T//ccRMOALe.s:4548   .text._ZN5daisy25OneBitGraphicsDisplayImplINS_11OledDisplayINS_13SSD130xDriverILj128ELj64ENS_19SSD130xI2CTransportEEEEEE8DrawRectEjjjjbb:0000000000000000 $t
/var/folders/hl/qgbwny5j0fd895c2c41bk3tw0000gp/T//ccRMOALe.s:4556   .text._ZN5daisy25OneBitGraphicsDisplayImplINS_11OledDisplayINS_13SSD130xDriverILj128ELj64ENS_19SSD130xI2CTransportEEEEEE8DrawRectEjjjjbb:0000000000000000 _ZN5daisy25OneBitGraphicsDisplayImplINS_11OledDisplayINS_13SSD130xDriverILj128ELj64ENS_19SSD130xI2CTransportEEEEEE8DrawRectEjjjjbb
/var/folders/hl/qgbwny5j0fd895c2c41bk3tw0000gp/T//ccRMOALe.s:5666   .rodata.main.str1.4:0000000000000000 $d
/var/folders/hl/qgbwny5j0fd895c2c41bk3tw0000gp/T//ccRMOALe.s:5682   .text.startup.main:0000000000000000 $t
/var/folders/hl/qgbwny5j0fd895c2c41bk3tw0000gp/T//ccRMOALe.s:5690   .text.startup.main:0000000000000000 main
/var/folders/hl/qgbwny5j0fd895c2c41bk3tw0000gp/T//ccRMOALe.s:5760   .text.startup.main:0000000000000044 $d
/var/folders/hl/qgbwny5j0fd895c2c41bk3tw0000gp/T//ccRMOALe.s:5765   .text.startup.main:000000000000004e $t
/var/folders/hl/qgbwny5j0fd895c2c41bk3tw0000gp/T//ccRMOALe.s:6328   .text.startup.main:0000000000000234 $d
/var/folders/hl/qgbwny5j0fd895c2c41bk3tw0000gp/T//ccRMOALe.s:6345   .text.startup._GLOBAL__sub_I_hw:0000000000000000 $t
/var/folders/hl/qgbwny5j0fd895c2c41bk3tw0000gp/T//ccRMOALe.s:6352   .text.startup._GLOBAL__sub_I_hw:0000000000000000 _GLOBAL__sub_I_hw
/var/folders/hl/qgbwny5j0fd895c2c41bk3tw0000gp/T//ccRMOALe.s:6602   .text.startup._GLOBAL__sub_I_hw:000000000000002c $d
/var/folders/hl/qgbwny5j0fd895c2c41bk3tw0000gp/T//ccRMOALe.s:6621   .rodata._ZTVN5daisy11OledDisplayINS_13SSD130xDriverILj128ELj64ENS_19SSD130xI2CTransportEEEEE:0000000000000000 _ZTVN5daisy11OledDisplayINS_13SSD130xDriverILj128ELj64ENS_19SSD130xI2CTransportEEEEE
ARM GAS  /var/folders/hl/qgbwny5j0fd895c2c41bk3tw0000gp/T//ccRMOALe.s 			page 190


/var/folders/hl/qgbwny5j0fd895c2c41bk3tw0000gp/T//ccRMOALe.s:6614   .init_array:0000000000000000 $d
/var/folders/hl/qgbwny5j0fd895c2c41bk3tw0000gp/T//ccRMOALe.s:6618   .rodata._ZTVN5daisy11OledDisplayINS_13SSD130xDriverILj128ELj64ENS_19SSD130xI2CTransportEEEEE:0000000000000000 $d
/var/folders/hl/qgbwny5j0fd895c2c41bk3tw0000gp/T//ccRMOALe.s:6651   .bss.pb:0000000000000000 pb
/var/folders/hl/qgbwny5j0fd895c2c41bk3tw0000gp/T//ccRMOALe.s:6644   .bss.hw:0000000000000000 hw
/var/folders/hl/qgbwny5j0fd895c2c41bk3tw0000gp/T//ccRMOALe.s:6640   .bss.hw:0000000000000000 $d
/var/folders/hl/qgbwny5j0fd895c2c41bk3tw0000gp/T//ccRMOALe.s:6647   .bss.pb:0000000000000000 $d
                           .group:0000000000000000 _ZN5daisy8patch_sm12DaisyPatchSMD5Ev
                           .group:0000000000000000 _ZN5daisy11OledDisplayINS_13SSD130xDriverILj128ELj64ENS_19SSD130xI2CTransportEEEED5Ev
                           .group:0000000000000000 _ZN5daisy9Patch_BayD5Ev

UNDEFINED SYMBOLS
memset
_ZN5daisy8patch_sm12DaisyPatchSM21ProcessAnalogControlsEv
_ZN5daisy8patch_sm12DaisyPatchSM22ProcessDigitalControlsEv
_ZdlPvj
_ZN5daisy9I2CHandle16TransmitBlockingEtPhtm
cosf
sinf
_ZN5daisy8patch_sm12DaisyPatchSM4InitEv
_ZN5daisy8patch_sm12DaisyPatchSM17SetAudioBlockSizeEj
_ZN5daisy8patch_sm12DaisyPatchSM18SetAudioSampleRateENS_9SaiHandle6Config10SampleRateE
_ZN5daisy9Patch_Bay4InitEv
_ZN5daisy8patch_sm12DaisyPatchSM10StartAudioEPFvPKPKfPPfjE
_ZN5daisy6System5DelayEm
Font_11x18
__aeabi_atexit
__dso_handle
