ARM GAS  C:\Users\daniel\AppData\Local\Temp\ccmFX6Ad.s 			page 1


   1              		.cpu cortex-m7
   2              		.eabi_attribute 28, 1
   3              		.eabi_attribute 20, 1
   4              		.eabi_attribute 21, 1
   5              		.eabi_attribute 23, 3
   6              		.eabi_attribute 24, 1
   7              		.eabi_attribute 25, 1
   8              		.eabi_attribute 26, 1
   9              		.eabi_attribute 30, 4
  10              		.eabi_attribute 34, 1
  11              		.eabi_attribute 18, 4
  12              		.file	"frame_transformation.cpp"
  13              		.text
  14              	.Ltext0:
  15              		.cfi_sections	.debug_frame
  16              		.section	.text._Z11InterpolatePKfff,"axG",%progbits,_Z11InterpolatePKfff,comdat
  17              		.align	1
  18              		.weak	_Z11InterpolatePKfff
  19              		.arch armv7e-m
  20              		.syntax unified
  21              		.thumb
  22              		.thumb_func
  23              		.fpu fpv5-d16
  25              	_Z11InterpolatePKfff:
  26              	.LVL0:
  27              	.LFB4787:
  28              		.file 1 "./stmtemp.h"
   1:./stmtemp.h   **** #include "daisy.h"
   2:./stmtemp.h   **** #include "daisysp.h"
   3:./stmtemp.h   **** #include "resources.h"
   4:./stmtemp.h   **** 
   5:./stmtemp.h   **** using namespace daisy;
   6:./stmtemp.h   **** using namespace daisysp;
   7:./stmtemp.h   **** 
   8:./stmtemp.h   **** #define MAKE_INTEGRAL_FRACTIONAL(x)                   \
   9:./stmtemp.h   ****     int32_t x##_integral   = static_cast<int32_t>(x); \
  10:./stmtemp.h   ****     float   x##_fractional = x - static_cast<float>(x##_integral);
  11:./stmtemp.h   **** 
  12:./stmtemp.h   **** #define SLOPE(out, in, positive, negative)                \
  13:./stmtemp.h   ****     {                                                     \
  14:./stmtemp.h   ****         float error = (in)-out;                           \
  15:./stmtemp.h   ****         out += (error > 0 ? positive : negative) * error; \
  16:./stmtemp.h   ****     }
  17:./stmtemp.h   **** 
  18:./stmtemp.h   **** #define ONE_POLE(out, in, coefficient) out += (coefficient) * ((in)-out);
  19:./stmtemp.h   **** 
  20:./stmtemp.h   **** #define CONSTRAIN(var, min, max) \
  21:./stmtemp.h   ****     if(var < (min))              \
  22:./stmtemp.h   ****     {                            \
  23:./stmtemp.h   ****         var = (min);             \
  24:./stmtemp.h   ****     }                            \
  25:./stmtemp.h   ****     else if(var > (max))         \
  26:./stmtemp.h   ****     {                            \
  27:./stmtemp.h   ****         var = (max);             \
  28:./stmtemp.h   ****     }
  29:./stmtemp.h   **** 
  30:./stmtemp.h   **** #define JOIN(lhs, rhs) JOIN_1(lhs, rhs)
ARM GAS  C:\Users\daniel\AppData\Local\Temp\ccmFX6Ad.s 			page 2


  31:./stmtemp.h   **** #define JOIN_1(lhs, rhs) JOIN_2(lhs, rhs)
  32:./stmtemp.h   **** #define JOIN_2(lhs, rhs) lhs##rhs
  33:./stmtemp.h   **** 
  34:./stmtemp.h   **** #define STATIC_ASSERT(expression, message)                                  \
  35:./stmtemp.h   ****     struct JOIN(__static_assertion_at_line_, __LINE__)                      \
  36:./stmtemp.h   ****     {                                                                       \
  37:./stmtemp.h   ****         impl::StaticAssertion<static_cast<bool>((expression))>              \
  38:./stmtemp.h   ****             JOIN(JOIN(JOIN(STATIC_ASSERTION_FAILED_AT_LINE_, __LINE__), _), \
  39:./stmtemp.h   ****                  message);                                                  \
  40:./stmtemp.h   ****     };
  41:./stmtemp.h   **** 
  42:./stmtemp.h   **** namespace impl
  43:./stmtemp.h   **** {
  44:./stmtemp.h   **** template <bool>
  45:./stmtemp.h   **** struct StaticAssertion;
  46:./stmtemp.h   **** 
  47:./stmtemp.h   **** template <>
  48:./stmtemp.h   **** struct StaticAssertion<true>
  49:./stmtemp.h   **** {
  50:./stmtemp.h   **** }; // StaticAssertion<true>
  51:./stmtemp.h   **** 
  52:./stmtemp.h   **** template <int i>
  53:./stmtemp.h   **** struct StaticAssertionTest
  54:./stmtemp.h   **** {
  55:./stmtemp.h   **** }; // StaticAssertionTest<int>
  56:./stmtemp.h   **** 
  57:./stmtemp.h   **** } // namespace impl
  58:./stmtemp.h   **** 
  59:./stmtemp.h   **** template <uint32_t a, uint32_t b, uint32_t c, uint32_t d>
  60:./stmtemp.h   **** struct FourCC
  61:./stmtemp.h   **** {
  62:./stmtemp.h   ****     static const uint32_t value = (((((d << 8) | c) << 8) | b) << 8) | a;
  63:./stmtemp.h   **** };
  64:./stmtemp.h   **** 
  65:./stmtemp.h   **** class CosineOscillator
  66:./stmtemp.h   **** {
  67:./stmtemp.h   ****   public:
  68:./stmtemp.h   ****     CosineOscillator() {}
  69:./stmtemp.h   ****     ~CosineOscillator() {}
  70:./stmtemp.h   **** 
  71:./stmtemp.h   ****     void Init(float freq)
  72:./stmtemp.h   ****     {
  73:./stmtemp.h   ****         float sample_rate = 48000; //hardcoded for now
  74:./stmtemp.h   ****         phs_inc_          = freq / sample_rate;
  75:./stmtemp.h   ****     }
  76:./stmtemp.h   **** 
  77:./stmtemp.h   ****     float Next()
  78:./stmtemp.h   ****     {
  79:./stmtemp.h   ****         phs_ += phs_inc_;
  80:./stmtemp.h   **** 
  81:./stmtemp.h   ****         if(phs_ >= 1.f)
  82:./stmtemp.h   ****         {
  83:./stmtemp.h   ****             phs_ -= 1.f;
  84:./stmtemp.h   ****         }
  85:./stmtemp.h   **** 
  86:./stmtemp.h   ****         value_ = cos(phs_);
  87:./stmtemp.h   **** 
ARM GAS  C:\Users\daniel\AppData\Local\Temp\ccmFX6Ad.s 			page 3


  88:./stmtemp.h   ****         return value_;
  89:./stmtemp.h   ****     }
  90:./stmtemp.h   **** 
  91:./stmtemp.h   ****     float value() { return value_; }
  92:./stmtemp.h   **** 
  93:./stmtemp.h   ****   private:
  94:./stmtemp.h   ****     float value_ = 0.f;
  95:./stmtemp.h   ****     float sample_rate_;
  96:./stmtemp.h   ****     float phs_ = 0.f;
  97:./stmtemp.h   ****     float phs_inc_;
  98:./stmtemp.h   **** };
  99:./stmtemp.h   **** 
 100:./stmtemp.h   **** inline int32_t Clip16(int32_t x)
 101:./stmtemp.h   **** {
 102:./stmtemp.h   ****     if(x < -32768)
 103:./stmtemp.h   ****     {
 104:./stmtemp.h   ****         return -32768;
 105:./stmtemp.h   ****     }
 106:./stmtemp.h   ****     else if(x > 32767)
 107:./stmtemp.h   ****     {
 108:./stmtemp.h   ****         return 32767;
 109:./stmtemp.h   ****     }
 110:./stmtemp.h   ****     else
 111:./stmtemp.h   ****     {
 112:./stmtemp.h   ****         return x;
 113:./stmtemp.h   ****     }
 114:./stmtemp.h   **** }
 115:./stmtemp.h   **** 
 116:./stmtemp.h   **** inline float Interpolate(const float* table, float index, float size)
 117:./stmtemp.h   **** {
  29              		.loc 1 117 1 view -0
  30              		.cfi_startproc
  31              		@ args = 0, pretend = 0, frame = 0
  32              		@ frame_needed = 0, uses_anonymous_args = 0
  33              		@ link register save eliminated.
 118:./stmtemp.h   ****     index *= size;
  34              		.loc 1 118 5 view .LVU1
  35              		.loc 1 118 11 is_stmt 0 view .LVU2
  36 0000 60EE200A 		vmul.f32	s1, s0, s1
  37              	.LVL1:
 119:./stmtemp.h   ****     MAKE_INTEGRAL_FRACTIONAL(index)
  38              		.loc 1 119 5 is_stmt 1 view .LVU3
  39 0004 FDEEE07A 		vcvt.s32.f32	s15, s1
  40              	.LVL2:
  41              		.loc 1 119 5 view .LVU4
 120:./stmtemp.h   ****     float a = table[index_integral];
  42              		.loc 1 120 5 view .LVU5
  43              		.loc 1 120 11 is_stmt 0 view .LVU6
  44 0008 17EE903A 		vmov	r3, s15	@ int
 119:./stmtemp.h   ****     MAKE_INTEGRAL_FRACTIONAL(index)
  45              		.loc 1 119 5 view .LVU7
  46 000c F8EEE77A 		vcvt.f32.s32	s15, s15
  47              	.LVL3:
  48              		.loc 1 120 11 view .LVU8
  49 0010 00EB8300 		add	r0, r0, r3, lsl #2
  50              	.LVL4:
 119:./stmtemp.h   ****     MAKE_INTEGRAL_FRACTIONAL(index)
ARM GAS  C:\Users\daniel\AppData\Local\Temp\ccmFX6Ad.s 			page 4


  51              		.loc 1 119 5 view .LVU9
  52 0014 70EEE70A 		vsub.f32	s1, s1, s15
  53              	.LVL5:
  54              		.loc 1 120 11 view .LVU10
  55 0018 90ED000A 		vldr.32	s0, [r0]
  56              	.LVL6:
 121:./stmtemp.h   ****     float b = table[index_integral + 1];
  57              		.loc 1 121 5 is_stmt 1 view .LVU11
 122:./stmtemp.h   ****     return a + (b - a) * index_fractional;
  58              		.loc 1 122 5 view .LVU12
  59              		.loc 1 122 19 is_stmt 0 view .LVU13
  60 001c 90ED017A 		vldr.32	s14, [r0, #4]
  61 0020 37EE407A 		vsub.f32	s14, s14, s0
 123:./stmtemp.h   **** }
  62              		.loc 1 123 1 view .LVU14
  63 0024 A7EE200A 		vfma.f32	s0, s14, s1
  64              	.LVL7:
  65              		.loc 1 123 1 view .LVU15
  66 0028 7047     		bx	lr
  67              		.cfi_endproc
  68              	.LFE4787:
  70              		.section	.text._Z16SemitonesToRatiof,"axG",%progbits,_Z16SemitonesToRatiof,comdat
  71              		.align	1
  72              		.weak	_Z16SemitonesToRatiof
  73              		.syntax unified
  74              		.thumb
  75              		.thumb_func
  76              		.fpu fpv5-d16
  78              	_Z16SemitonesToRatiof:
  79              	.LVL8:
  80              	.LFB4788:
 124:./stmtemp.h   **** 
 125:./stmtemp.h   **** inline float SemitonesToRatio(float semitones)
 126:./stmtemp.h   **** {
  81              		.loc 1 126 1 is_stmt 1 view -0
  82              		.cfi_startproc
  83              		@ args = 0, pretend = 0, frame = 0
  84              		@ frame_needed = 0, uses_anonymous_args = 0
  85              		@ link register save eliminated.
 127:./stmtemp.h   ****     float pitch = semitones + 128.0f;
  86              		.loc 1 127 5 view .LVU17
  87              		.loc 1 127 11 is_stmt 0 view .LVU18
  88 0000 DFED0E7A 		vldr.32	s15, .L3
 128:./stmtemp.h   ****     MAKE_INTEGRAL_FRACTIONAL(pitch)
 129:./stmtemp.h   **** 
 130:./stmtemp.h   ****     return lut_pitch_ratio_high[pitch_integral]
 131:./stmtemp.h   ****            * lut_pitch_ratio_low[static_cast<int32_t>(pitch_fractional
 132:./stmtemp.h   ****                                                       * 256.0f)];
  89              		.loc 1 132 64 view .LVU19
  90 0004 0E4A     		ldr	r2, .L3+4
 127:./stmtemp.h   ****     float pitch = semitones + 128.0f;
  91              		.loc 1 127 11 view .LVU20
  92 0006 30EE270A 		vadd.f32	s0, s0, s15
  93              	.LVL9:
 128:./stmtemp.h   ****     MAKE_INTEGRAL_FRACTIONAL(pitch)
  94              		.loc 1 128 5 is_stmt 1 view .LVU21
  95 000a FDEEC07A 		vcvt.s32.f32	s15, s0
ARM GAS  C:\Users\daniel\AppData\Local\Temp\ccmFX6Ad.s 			page 5


  96              	.LVL10:
 128:./stmtemp.h   ****     MAKE_INTEGRAL_FRACTIONAL(pitch)
  97              		.loc 1 128 5 view .LVU22
 130:./stmtemp.h   ****            * lut_pitch_ratio_low[static_cast<int32_t>(pitch_fractional
  98              		.loc 1 130 5 view .LVU23
 128:./stmtemp.h   ****     MAKE_INTEGRAL_FRACTIONAL(pitch)
  99              		.loc 1 128 5 is_stmt 0 view .LVU24
 100 000e B8EEE77A 		vcvt.f32.s32	s14, s15
 130:./stmtemp.h   ****            * lut_pitch_ratio_low[static_cast<int32_t>(pitch_fractional
 101              		.loc 1 130 47 view .LVU25
 102 0012 17EE901A 		vmov	r1, s15	@ int
 128:./stmtemp.h   ****     MAKE_INTEGRAL_FRACTIONAL(pitch)
 103              		.loc 1 128 5 view .LVU26
 104 0016 30EE470A 		vsub.f32	s0, s0, s14
 105              	.LVL11:
 131:./stmtemp.h   ****                                                       * 256.0f)];
 106              		.loc 1 131 34 view .LVU27
 107 001a BEEECC0A 		vcvt.s32.f32	s0, s0, #8
 108              	.LVL12:
 109              		.loc 1 132 64 view .LVU28
 110 001e 10EE103A 		vmov	r3, s0	@ int
 111 0022 02EB8302 		add	r2, r2, r3, lsl #2
 130:./stmtemp.h   ****            * lut_pitch_ratio_low[static_cast<int32_t>(pitch_fractional
 112              		.loc 1 130 47 view .LVU29
 113 0026 074B     		ldr	r3, .L3+8
 114 0028 03EB8103 		add	r3, r3, r1, lsl #2
 115              		.loc 1 132 64 view .LVU30
 116 002c 92ED000A 		vldr.32	s0, [r2]
 117 0030 D3ED007A 		vldr.32	s15, [r3]
 118              	.LVL13:
 133:./stmtemp.h   **** }
 119              		.loc 1 133 1 view .LVU31
 120 0034 20EE270A 		vmul.f32	s0, s0, s15
 121 0038 7047     		bx	lr
 122              	.L4:
 123 003a 00BF     		.align	2
 124              	.L3:
 125 003c 00000043 		.word	1124073472
 126 0040 00000000 		.word	lut_pitch_ratio_low
 127 0044 00000000 		.word	lut_pitch_ratio_high
 128              		.cfi_endproc
 129              	.LFE4788:
 131              		.section	.text._ZN19FrameTransformation5ResetEv,"ax",%progbits
 132              		.align	1
 133              		.global	_ZN19FrameTransformation5ResetEv
 134              		.syntax unified
 135              		.thumb
 136              		.thumb_func
 137              		.fpu fpv5-d16
 139              	_ZN19FrameTransformation5ResetEv:
 140              	.LVL14:
 141              	.LFB4795:
 142              		.file 2 "dsp/pvoc/frame_transformation.cpp"
   1:dsp/pvoc/frame_transformation.cpp **** // Copyright 2014 Emilie Gillet.
   2:dsp/pvoc/frame_transformation.cpp **** //
   3:dsp/pvoc/frame_transformation.cpp **** // Author: Emilie Gillet (emilie.o.gillet@gmail.com)
   4:dsp/pvoc/frame_transformation.cpp **** //
ARM GAS  C:\Users\daniel\AppData\Local\Temp\ccmFX6Ad.s 			page 6


   5:dsp/pvoc/frame_transformation.cpp **** // Permission is hereby granted, free of charge, to any person obtaining a copy
   6:dsp/pvoc/frame_transformation.cpp **** // of this software and associated documentation files (the "Software"), to deal
   7:dsp/pvoc/frame_transformation.cpp **** // in the Software without restriction, including without limitation the rights
   8:dsp/pvoc/frame_transformation.cpp **** // to use, copy, modify, merge, publish, distribute, sublicense, and/or sell
   9:dsp/pvoc/frame_transformation.cpp **** // copies of the Software, and to permit persons to whom the Software is
  10:dsp/pvoc/frame_transformation.cpp **** // furnished to do so, subject to the following conditions:
  11:dsp/pvoc/frame_transformation.cpp **** //
  12:dsp/pvoc/frame_transformation.cpp **** // The above copyright notice and this permission notice shall be included in
  13:dsp/pvoc/frame_transformation.cpp **** // all copies or substantial portions of the Software.
  14:dsp/pvoc/frame_transformation.cpp **** //
  15:dsp/pvoc/frame_transformation.cpp **** // THE SOFTWARE IS PROVIDED "AS IS", WITHOUT WARRANTY OF ANY KIND, EXPRESS OR
  16:dsp/pvoc/frame_transformation.cpp **** // IMPLIED, INCLUDING BUT NOT LIMITED TO THE WARRANTIES OF MERCHANTABILITY,
  17:dsp/pvoc/frame_transformation.cpp **** // FITNESS FOR A PARTICULAR PURPOSE AND NONINFRINGEMENT. IN NO EVENT SHALL THE
  18:dsp/pvoc/frame_transformation.cpp **** // AUTHORS OR COPYRIGHT HOLDERS BE LIABLE FOR ANY CLAIM, DAMAGES OR OTHER
  19:dsp/pvoc/frame_transformation.cpp **** // LIABILITY, WHETHER IN AN ACTION OF CONTRACT, TORT OR OTHERWISE, ARISING FROM,
  20:dsp/pvoc/frame_transformation.cpp **** // OUT OF OR IN CONNECTION WITH THE SOFTWARE OR THE USE OR OTHER DEALINGS IN
  21:dsp/pvoc/frame_transformation.cpp **** // THE SOFTWARE.
  22:dsp/pvoc/frame_transformation.cpp **** //
  23:dsp/pvoc/frame_transformation.cpp **** // See http://creativecommons.org/licenses/MIT/ for more information.
  24:dsp/pvoc/frame_transformation.cpp **** //
  25:dsp/pvoc/frame_transformation.cpp **** // -----------------------------------------------------------------------------
  26:dsp/pvoc/frame_transformation.cpp **** //
  27:dsp/pvoc/frame_transformation.cpp **** // Transformations applied to a single STFT slice.
  28:dsp/pvoc/frame_transformation.cpp **** 
  29:dsp/pvoc/frame_transformation.cpp **** #include "frame_transformation.h"
  30:dsp/pvoc/frame_transformation.cpp **** 
  31:dsp/pvoc/frame_transformation.cpp **** #include <algorithm>
  32:dsp/pvoc/frame_transformation.cpp **** #include <random>
  33:dsp/pvoc/frame_transformation.cpp **** 
  34:dsp/pvoc/frame_transformation.cpp **** #include "stmtemp.h"
  35:dsp/pvoc/frame_transformation.cpp **** #include "daisysp.h"
  36:dsp/pvoc/frame_transformation.cpp **** #include "daisy.h"
  37:dsp/pvoc/frame_transformation.cpp **** 
  38:dsp/pvoc/frame_transformation.cpp **** #include "frame.h"
  39:dsp/pvoc/frame_transformation.cpp **** #include "parameters.h"
  40:dsp/pvoc/frame_transformation.cpp **** 
  41:dsp/pvoc/frame_transformation.cpp **** using namespace daisysp;
  42:dsp/pvoc/frame_transformation.cpp **** using namespace std;
  43:dsp/pvoc/frame_transformation.cpp **** using namespace daisy;
  44:dsp/pvoc/frame_transformation.cpp **** 
  45:dsp/pvoc/frame_transformation.cpp **** void FrameTransformation::Init(float*  buffer,
  46:dsp/pvoc/frame_transformation.cpp ****                                int32_t fft_size,
  47:dsp/pvoc/frame_transformation.cpp ****                                int32_t num_textures)
  48:dsp/pvoc/frame_transformation.cpp **** {
  49:dsp/pvoc/frame_transformation.cpp ****     fft_size_ = fft_size;
  50:dsp/pvoc/frame_transformation.cpp ****     size_     = (fft_size >> 1) - kHighFrequencyTruncation;
  51:dsp/pvoc/frame_transformation.cpp **** 
  52:dsp/pvoc/frame_transformation.cpp ****     for(int32_t i = 0; i < num_textures; ++i)
  53:dsp/pvoc/frame_transformation.cpp ****     {
  54:dsp/pvoc/frame_transformation.cpp ****         textures_[i] = &buffer[i * size_];
  55:dsp/pvoc/frame_transformation.cpp ****     }
  56:dsp/pvoc/frame_transformation.cpp ****     phases_ = static_cast<uint16_t*>((void*)(textures_[num_textures - 1]));
  57:dsp/pvoc/frame_transformation.cpp ****     num_textures_
  58:dsp/pvoc/frame_transformation.cpp ****         = num_textures - 1; // Last texture is used for storing phases.
  59:dsp/pvoc/frame_transformation.cpp ****     phases_delta_ = phases_ + size_;
  60:dsp/pvoc/frame_transformation.cpp **** 
  61:dsp/pvoc/frame_transformation.cpp ****     glitch_algorithm_ = 0;
ARM GAS  C:\Users\daniel\AppData\Local\Temp\ccmFX6Ad.s 			page 7


  62:dsp/pvoc/frame_transformation.cpp ****     Reset();
  63:dsp/pvoc/frame_transformation.cpp **** }
  64:dsp/pvoc/frame_transformation.cpp **** 
  65:dsp/pvoc/frame_transformation.cpp **** void FrameTransformation::Reset()
  66:dsp/pvoc/frame_transformation.cpp **** {
 143              		.loc 2 66 1 is_stmt 1 view -0
 144              		.cfi_startproc
 145              		@ args = 0, pretend = 0, frame = 0
 146              		@ frame_needed = 0, uses_anonymous_args = 0
  67:dsp/pvoc/frame_transformation.cpp ****     for(int32_t i = 0; i < num_textures_; ++i)
 147              		.loc 2 67 5 view .LVU33
  66:dsp/pvoc/frame_transformation.cpp ****     for(int32_t i = 0; i < num_textures_; ++i)
 148              		.loc 2 66 1 is_stmt 0 view .LVU34
 149 0000 F8B5     		push	{r3, r4, r5, r6, r7, lr}
 150              		.cfi_def_cfa_offset 24
 151              		.cfi_offset 3, -24
 152              		.cfi_offset 4, -20
 153              		.cfi_offset 5, -16
 154              		.cfi_offset 6, -12
 155              		.cfi_offset 7, -8
 156              		.cfi_offset 14, -4
  66:dsp/pvoc/frame_transformation.cpp ****     for(int32_t i = 0; i < num_textures_; ++i)
 157              		.loc 2 66 1 view .LVU35
 158 0002 0446     		mov	r4, r0
 159              	.LBB97:
 160              		.loc 2 67 28 view .LVU36
 161 0004 4768     		ldr	r7, [r0, #4]
 162 0006 00F10C06 		add	r6, r0, #12
 163              		.loc 2 67 17 view .LVU37
 164 000a 0025     		movs	r5, #0
 165              	.LVL15:
 166              	.L7:
 167              		.loc 2 67 26 is_stmt 1 discriminator 3 view .LVU38
 168 000c AF42     		cmp	r7, r5
 169 000e 08DD     		ble	.L5
  68:dsp/pvoc/frame_transformation.cpp ****     {
  69:dsp/pvoc/frame_transformation.cpp ****         fill(&textures_[i][0], &textures_[i][size_], 0.0f);
 170              		.loc 2 69 9 discriminator 2 view .LVU39
 171              	.LVL16:
 172              	.LBB98:
 173              	.LBI98:
 174              		.file 3 "c:\\programdata\\chocolatey\\lib\\gcc-arm-embedded\\tools\\gcc-arm-none-eabi-10-2020-q4-m
   1:c:\programdata\chocolatey\lib\gcc-arm-embedded\tools\gcc-arm-none-eabi-10-2020-q4-major\arm-none-eabi\include\c++\10.2.1\bits\stl_algobase.h **** // Core algorithmic facilities -*- C++ -*-
   2:c:\programdata\chocolatey\lib\gcc-arm-embedded\tools\gcc-arm-none-eabi-10-2020-q4-major\arm-none-eabi\include\c++\10.2.1\bits\stl_algobase.h **** 
   3:c:\programdata\chocolatey\lib\gcc-arm-embedded\tools\gcc-arm-none-eabi-10-2020-q4-major\arm-none-eabi\include\c++\10.2.1\bits\stl_algobase.h **** // Copyright (C) 2001-2020 Free Software Foundation, Inc.
   4:c:\programdata\chocolatey\lib\gcc-arm-embedded\tools\gcc-arm-none-eabi-10-2020-q4-major\arm-none-eabi\include\c++\10.2.1\bits\stl_algobase.h **** //
   5:c:\programdata\chocolatey\lib\gcc-arm-embedded\tools\gcc-arm-none-eabi-10-2020-q4-major\arm-none-eabi\include\c++\10.2.1\bits\stl_algobase.h **** // This file is part of the GNU ISO C++ Library.  This library is free
   6:c:\programdata\chocolatey\lib\gcc-arm-embedded\tools\gcc-arm-none-eabi-10-2020-q4-major\arm-none-eabi\include\c++\10.2.1\bits\stl_algobase.h **** // software; you can redistribute it and/or modify it under the
   7:c:\programdata\chocolatey\lib\gcc-arm-embedded\tools\gcc-arm-none-eabi-10-2020-q4-major\arm-none-eabi\include\c++\10.2.1\bits\stl_algobase.h **** // terms of the GNU General Public License as published by the
   8:c:\programdata\chocolatey\lib\gcc-arm-embedded\tools\gcc-arm-none-eabi-10-2020-q4-major\arm-none-eabi\include\c++\10.2.1\bits\stl_algobase.h **** // Free Software Foundation; either version 3, or (at your option)
   9:c:\programdata\chocolatey\lib\gcc-arm-embedded\tools\gcc-arm-none-eabi-10-2020-q4-major\arm-none-eabi\include\c++\10.2.1\bits\stl_algobase.h **** // any later version.
  10:c:\programdata\chocolatey\lib\gcc-arm-embedded\tools\gcc-arm-none-eabi-10-2020-q4-major\arm-none-eabi\include\c++\10.2.1\bits\stl_algobase.h **** 
  11:c:\programdata\chocolatey\lib\gcc-arm-embedded\tools\gcc-arm-none-eabi-10-2020-q4-major\arm-none-eabi\include\c++\10.2.1\bits\stl_algobase.h **** // This library is distributed in the hope that it will be useful,
  12:c:\programdata\chocolatey\lib\gcc-arm-embedded\tools\gcc-arm-none-eabi-10-2020-q4-major\arm-none-eabi\include\c++\10.2.1\bits\stl_algobase.h **** // but WITHOUT ANY WARRANTY; without even the implied warranty of
  13:c:\programdata\chocolatey\lib\gcc-arm-embedded\tools\gcc-arm-none-eabi-10-2020-q4-major\arm-none-eabi\include\c++\10.2.1\bits\stl_algobase.h **** // MERCHANTABILITY or FITNESS FOR A PARTICULAR PURPOSE.  See the
  14:c:\programdata\chocolatey\lib\gcc-arm-embedded\tools\gcc-arm-none-eabi-10-2020-q4-major\arm-none-eabi\include\c++\10.2.1\bits\stl_algobase.h **** // GNU General Public License for more details.
  15:c:\programdata\chocolatey\lib\gcc-arm-embedded\tools\gcc-arm-none-eabi-10-2020-q4-major\arm-none-eabi\include\c++\10.2.1\bits\stl_algobase.h **** 
ARM GAS  C:\Users\daniel\AppData\Local\Temp\ccmFX6Ad.s 			page 8


  16:c:\programdata\chocolatey\lib\gcc-arm-embedded\tools\gcc-arm-none-eabi-10-2020-q4-major\arm-none-eabi\include\c++\10.2.1\bits\stl_algobase.h **** // Under Section 7 of GPL version 3, you are granted additional
  17:c:\programdata\chocolatey\lib\gcc-arm-embedded\tools\gcc-arm-none-eabi-10-2020-q4-major\arm-none-eabi\include\c++\10.2.1\bits\stl_algobase.h **** // permissions described in the GCC Runtime Library Exception, version
  18:c:\programdata\chocolatey\lib\gcc-arm-embedded\tools\gcc-arm-none-eabi-10-2020-q4-major\arm-none-eabi\include\c++\10.2.1\bits\stl_algobase.h **** // 3.1, as published by the Free Software Foundation.
  19:c:\programdata\chocolatey\lib\gcc-arm-embedded\tools\gcc-arm-none-eabi-10-2020-q4-major\arm-none-eabi\include\c++\10.2.1\bits\stl_algobase.h **** 
  20:c:\programdata\chocolatey\lib\gcc-arm-embedded\tools\gcc-arm-none-eabi-10-2020-q4-major\arm-none-eabi\include\c++\10.2.1\bits\stl_algobase.h **** // You should have received a copy of the GNU General Public License and
  21:c:\programdata\chocolatey\lib\gcc-arm-embedded\tools\gcc-arm-none-eabi-10-2020-q4-major\arm-none-eabi\include\c++\10.2.1\bits\stl_algobase.h **** // a copy of the GCC Runtime Library Exception along with this program;
  22:c:\programdata\chocolatey\lib\gcc-arm-embedded\tools\gcc-arm-none-eabi-10-2020-q4-major\arm-none-eabi\include\c++\10.2.1\bits\stl_algobase.h **** // see the files COPYING3 and COPYING.RUNTIME respectively.  If not, see
  23:c:\programdata\chocolatey\lib\gcc-arm-embedded\tools\gcc-arm-none-eabi-10-2020-q4-major\arm-none-eabi\include\c++\10.2.1\bits\stl_algobase.h **** // <http://www.gnu.org/licenses/>.
  24:c:\programdata\chocolatey\lib\gcc-arm-embedded\tools\gcc-arm-none-eabi-10-2020-q4-major\arm-none-eabi\include\c++\10.2.1\bits\stl_algobase.h **** 
  25:c:\programdata\chocolatey\lib\gcc-arm-embedded\tools\gcc-arm-none-eabi-10-2020-q4-major\arm-none-eabi\include\c++\10.2.1\bits\stl_algobase.h **** /*
  26:c:\programdata\chocolatey\lib\gcc-arm-embedded\tools\gcc-arm-none-eabi-10-2020-q4-major\arm-none-eabi\include\c++\10.2.1\bits\stl_algobase.h ****  *
  27:c:\programdata\chocolatey\lib\gcc-arm-embedded\tools\gcc-arm-none-eabi-10-2020-q4-major\arm-none-eabi\include\c++\10.2.1\bits\stl_algobase.h ****  * Copyright (c) 1994
  28:c:\programdata\chocolatey\lib\gcc-arm-embedded\tools\gcc-arm-none-eabi-10-2020-q4-major\arm-none-eabi\include\c++\10.2.1\bits\stl_algobase.h ****  * Hewlett-Packard Company
  29:c:\programdata\chocolatey\lib\gcc-arm-embedded\tools\gcc-arm-none-eabi-10-2020-q4-major\arm-none-eabi\include\c++\10.2.1\bits\stl_algobase.h ****  *
  30:c:\programdata\chocolatey\lib\gcc-arm-embedded\tools\gcc-arm-none-eabi-10-2020-q4-major\arm-none-eabi\include\c++\10.2.1\bits\stl_algobase.h ****  * Permission to use, copy, modify, distribute and sell this software
  31:c:\programdata\chocolatey\lib\gcc-arm-embedded\tools\gcc-arm-none-eabi-10-2020-q4-major\arm-none-eabi\include\c++\10.2.1\bits\stl_algobase.h ****  * and its documentation for any purpose is hereby granted without fee,
  32:c:\programdata\chocolatey\lib\gcc-arm-embedded\tools\gcc-arm-none-eabi-10-2020-q4-major\arm-none-eabi\include\c++\10.2.1\bits\stl_algobase.h ****  * provided that the above copyright notice appear in all copies and
  33:c:\programdata\chocolatey\lib\gcc-arm-embedded\tools\gcc-arm-none-eabi-10-2020-q4-major\arm-none-eabi\include\c++\10.2.1\bits\stl_algobase.h ****  * that both that copyright notice and this permission notice appear
  34:c:\programdata\chocolatey\lib\gcc-arm-embedded\tools\gcc-arm-none-eabi-10-2020-q4-major\arm-none-eabi\include\c++\10.2.1\bits\stl_algobase.h ****  * in supporting documentation.  Hewlett-Packard Company makes no
  35:c:\programdata\chocolatey\lib\gcc-arm-embedded\tools\gcc-arm-none-eabi-10-2020-q4-major\arm-none-eabi\include\c++\10.2.1\bits\stl_algobase.h ****  * representations about the suitability of this software for any
  36:c:\programdata\chocolatey\lib\gcc-arm-embedded\tools\gcc-arm-none-eabi-10-2020-q4-major\arm-none-eabi\include\c++\10.2.1\bits\stl_algobase.h ****  * purpose.  It is provided "as is" without express or implied warranty.
  37:c:\programdata\chocolatey\lib\gcc-arm-embedded\tools\gcc-arm-none-eabi-10-2020-q4-major\arm-none-eabi\include\c++\10.2.1\bits\stl_algobase.h ****  *
  38:c:\programdata\chocolatey\lib\gcc-arm-embedded\tools\gcc-arm-none-eabi-10-2020-q4-major\arm-none-eabi\include\c++\10.2.1\bits\stl_algobase.h ****  *
  39:c:\programdata\chocolatey\lib\gcc-arm-embedded\tools\gcc-arm-none-eabi-10-2020-q4-major\arm-none-eabi\include\c++\10.2.1\bits\stl_algobase.h ****  * Copyright (c) 1996-1998
  40:c:\programdata\chocolatey\lib\gcc-arm-embedded\tools\gcc-arm-none-eabi-10-2020-q4-major\arm-none-eabi\include\c++\10.2.1\bits\stl_algobase.h ****  * Silicon Graphics Computer Systems, Inc.
  41:c:\programdata\chocolatey\lib\gcc-arm-embedded\tools\gcc-arm-none-eabi-10-2020-q4-major\arm-none-eabi\include\c++\10.2.1\bits\stl_algobase.h ****  *
  42:c:\programdata\chocolatey\lib\gcc-arm-embedded\tools\gcc-arm-none-eabi-10-2020-q4-major\arm-none-eabi\include\c++\10.2.1\bits\stl_algobase.h ****  * Permission to use, copy, modify, distribute and sell this software
  43:c:\programdata\chocolatey\lib\gcc-arm-embedded\tools\gcc-arm-none-eabi-10-2020-q4-major\arm-none-eabi\include\c++\10.2.1\bits\stl_algobase.h ****  * and its documentation for any purpose is hereby granted without fee,
  44:c:\programdata\chocolatey\lib\gcc-arm-embedded\tools\gcc-arm-none-eabi-10-2020-q4-major\arm-none-eabi\include\c++\10.2.1\bits\stl_algobase.h ****  * provided that the above copyright notice appear in all copies and
  45:c:\programdata\chocolatey\lib\gcc-arm-embedded\tools\gcc-arm-none-eabi-10-2020-q4-major\arm-none-eabi\include\c++\10.2.1\bits\stl_algobase.h ****  * that both that copyright notice and this permission notice appear
  46:c:\programdata\chocolatey\lib\gcc-arm-embedded\tools\gcc-arm-none-eabi-10-2020-q4-major\arm-none-eabi\include\c++\10.2.1\bits\stl_algobase.h ****  * in supporting documentation.  Silicon Graphics makes no
  47:c:\programdata\chocolatey\lib\gcc-arm-embedded\tools\gcc-arm-none-eabi-10-2020-q4-major\arm-none-eabi\include\c++\10.2.1\bits\stl_algobase.h ****  * representations about the suitability of this software for any
  48:c:\programdata\chocolatey\lib\gcc-arm-embedded\tools\gcc-arm-none-eabi-10-2020-q4-major\arm-none-eabi\include\c++\10.2.1\bits\stl_algobase.h ****  * purpose.  It is provided "as is" without express or implied warranty.
  49:c:\programdata\chocolatey\lib\gcc-arm-embedded\tools\gcc-arm-none-eabi-10-2020-q4-major\arm-none-eabi\include\c++\10.2.1\bits\stl_algobase.h ****  */
  50:c:\programdata\chocolatey\lib\gcc-arm-embedded\tools\gcc-arm-none-eabi-10-2020-q4-major\arm-none-eabi\include\c++\10.2.1\bits\stl_algobase.h **** 
  51:c:\programdata\chocolatey\lib\gcc-arm-embedded\tools\gcc-arm-none-eabi-10-2020-q4-major\arm-none-eabi\include\c++\10.2.1\bits\stl_algobase.h **** /** @file bits/stl_algobase.h
  52:c:\programdata\chocolatey\lib\gcc-arm-embedded\tools\gcc-arm-none-eabi-10-2020-q4-major\arm-none-eabi\include\c++\10.2.1\bits\stl_algobase.h ****  *  This is an internal header file, included by other library headers.
  53:c:\programdata\chocolatey\lib\gcc-arm-embedded\tools\gcc-arm-none-eabi-10-2020-q4-major\arm-none-eabi\include\c++\10.2.1\bits\stl_algobase.h ****  *  Do not attempt to use it directly. @headername{algorithm}
  54:c:\programdata\chocolatey\lib\gcc-arm-embedded\tools\gcc-arm-none-eabi-10-2020-q4-major\arm-none-eabi\include\c++\10.2.1\bits\stl_algobase.h ****  */
  55:c:\programdata\chocolatey\lib\gcc-arm-embedded\tools\gcc-arm-none-eabi-10-2020-q4-major\arm-none-eabi\include\c++\10.2.1\bits\stl_algobase.h **** 
  56:c:\programdata\chocolatey\lib\gcc-arm-embedded\tools\gcc-arm-none-eabi-10-2020-q4-major\arm-none-eabi\include\c++\10.2.1\bits\stl_algobase.h **** #ifndef _STL_ALGOBASE_H
  57:c:\programdata\chocolatey\lib\gcc-arm-embedded\tools\gcc-arm-none-eabi-10-2020-q4-major\arm-none-eabi\include\c++\10.2.1\bits\stl_algobase.h **** #define _STL_ALGOBASE_H 1
  58:c:\programdata\chocolatey\lib\gcc-arm-embedded\tools\gcc-arm-none-eabi-10-2020-q4-major\arm-none-eabi\include\c++\10.2.1\bits\stl_algobase.h **** 
  59:c:\programdata\chocolatey\lib\gcc-arm-embedded\tools\gcc-arm-none-eabi-10-2020-q4-major\arm-none-eabi\include\c++\10.2.1\bits\stl_algobase.h **** #include <bits/c++config.h>
  60:c:\programdata\chocolatey\lib\gcc-arm-embedded\tools\gcc-arm-none-eabi-10-2020-q4-major\arm-none-eabi\include\c++\10.2.1\bits\stl_algobase.h **** #include <bits/functexcept.h>
  61:c:\programdata\chocolatey\lib\gcc-arm-embedded\tools\gcc-arm-none-eabi-10-2020-q4-major\arm-none-eabi\include\c++\10.2.1\bits\stl_algobase.h **** #include <bits/cpp_type_traits.h>
  62:c:\programdata\chocolatey\lib\gcc-arm-embedded\tools\gcc-arm-none-eabi-10-2020-q4-major\arm-none-eabi\include\c++\10.2.1\bits\stl_algobase.h **** #include <ext/type_traits.h>
  63:c:\programdata\chocolatey\lib\gcc-arm-embedded\tools\gcc-arm-none-eabi-10-2020-q4-major\arm-none-eabi\include\c++\10.2.1\bits\stl_algobase.h **** #include <ext/numeric_traits.h>
  64:c:\programdata\chocolatey\lib\gcc-arm-embedded\tools\gcc-arm-none-eabi-10-2020-q4-major\arm-none-eabi\include\c++\10.2.1\bits\stl_algobase.h **** #include <bits/stl_pair.h>
  65:c:\programdata\chocolatey\lib\gcc-arm-embedded\tools\gcc-arm-none-eabi-10-2020-q4-major\arm-none-eabi\include\c++\10.2.1\bits\stl_algobase.h **** #include <bits/stl_iterator_base_types.h>
  66:c:\programdata\chocolatey\lib\gcc-arm-embedded\tools\gcc-arm-none-eabi-10-2020-q4-major\arm-none-eabi\include\c++\10.2.1\bits\stl_algobase.h **** #include <bits/stl_iterator_base_funcs.h>
  67:c:\programdata\chocolatey\lib\gcc-arm-embedded\tools\gcc-arm-none-eabi-10-2020-q4-major\arm-none-eabi\include\c++\10.2.1\bits\stl_algobase.h **** #include <bits/stl_iterator.h>
  68:c:\programdata\chocolatey\lib\gcc-arm-embedded\tools\gcc-arm-none-eabi-10-2020-q4-major\arm-none-eabi\include\c++\10.2.1\bits\stl_algobase.h **** #include <bits/concept_check.h>
  69:c:\programdata\chocolatey\lib\gcc-arm-embedded\tools\gcc-arm-none-eabi-10-2020-q4-major\arm-none-eabi\include\c++\10.2.1\bits\stl_algobase.h **** #include <debug/debug.h>
  70:c:\programdata\chocolatey\lib\gcc-arm-embedded\tools\gcc-arm-none-eabi-10-2020-q4-major\arm-none-eabi\include\c++\10.2.1\bits\stl_algobase.h **** #include <bits/move.h> // For std::swap
  71:c:\programdata\chocolatey\lib\gcc-arm-embedded\tools\gcc-arm-none-eabi-10-2020-q4-major\arm-none-eabi\include\c++\10.2.1\bits\stl_algobase.h **** #include <bits/predefined_ops.h>
  72:c:\programdata\chocolatey\lib\gcc-arm-embedded\tools\gcc-arm-none-eabi-10-2020-q4-major\arm-none-eabi\include\c++\10.2.1\bits\stl_algobase.h **** #if __cplusplus >= 201103L
ARM GAS  C:\Users\daniel\AppData\Local\Temp\ccmFX6Ad.s 			page 9


  73:c:\programdata\chocolatey\lib\gcc-arm-embedded\tools\gcc-arm-none-eabi-10-2020-q4-major\arm-none-eabi\include\c++\10.2.1\bits\stl_algobase.h **** # include <type_traits>
  74:c:\programdata\chocolatey\lib\gcc-arm-embedded\tools\gcc-arm-none-eabi-10-2020-q4-major\arm-none-eabi\include\c++\10.2.1\bits\stl_algobase.h **** #endif
  75:c:\programdata\chocolatey\lib\gcc-arm-embedded\tools\gcc-arm-none-eabi-10-2020-q4-major\arm-none-eabi\include\c++\10.2.1\bits\stl_algobase.h **** #if __cplusplus > 201703L
  76:c:\programdata\chocolatey\lib\gcc-arm-embedded\tools\gcc-arm-none-eabi-10-2020-q4-major\arm-none-eabi\include\c++\10.2.1\bits\stl_algobase.h **** # include <compare>
  77:c:\programdata\chocolatey\lib\gcc-arm-embedded\tools\gcc-arm-none-eabi-10-2020-q4-major\arm-none-eabi\include\c++\10.2.1\bits\stl_algobase.h **** #endif
  78:c:\programdata\chocolatey\lib\gcc-arm-embedded\tools\gcc-arm-none-eabi-10-2020-q4-major\arm-none-eabi\include\c++\10.2.1\bits\stl_algobase.h **** 
  79:c:\programdata\chocolatey\lib\gcc-arm-embedded\tools\gcc-arm-none-eabi-10-2020-q4-major\arm-none-eabi\include\c++\10.2.1\bits\stl_algobase.h **** namespace std _GLIBCXX_VISIBILITY(default)
  80:c:\programdata\chocolatey\lib\gcc-arm-embedded\tools\gcc-arm-none-eabi-10-2020-q4-major\arm-none-eabi\include\c++\10.2.1\bits\stl_algobase.h **** {
  81:c:\programdata\chocolatey\lib\gcc-arm-embedded\tools\gcc-arm-none-eabi-10-2020-q4-major\arm-none-eabi\include\c++\10.2.1\bits\stl_algobase.h **** _GLIBCXX_BEGIN_NAMESPACE_VERSION
  82:c:\programdata\chocolatey\lib\gcc-arm-embedded\tools\gcc-arm-none-eabi-10-2020-q4-major\arm-none-eabi\include\c++\10.2.1\bits\stl_algobase.h **** 
  83:c:\programdata\chocolatey\lib\gcc-arm-embedded\tools\gcc-arm-none-eabi-10-2020-q4-major\arm-none-eabi\include\c++\10.2.1\bits\stl_algobase.h ****   /*
  84:c:\programdata\chocolatey\lib\gcc-arm-embedded\tools\gcc-arm-none-eabi-10-2020-q4-major\arm-none-eabi\include\c++\10.2.1\bits\stl_algobase.h ****    * A constexpr wrapper for __builtin_memcmp.
  85:c:\programdata\chocolatey\lib\gcc-arm-embedded\tools\gcc-arm-none-eabi-10-2020-q4-major\arm-none-eabi\include\c++\10.2.1\bits\stl_algobase.h ****    * @param __num The number of elements of type _Tp (not bytes).
  86:c:\programdata\chocolatey\lib\gcc-arm-embedded\tools\gcc-arm-none-eabi-10-2020-q4-major\arm-none-eabi\include\c++\10.2.1\bits\stl_algobase.h ****    */
  87:c:\programdata\chocolatey\lib\gcc-arm-embedded\tools\gcc-arm-none-eabi-10-2020-q4-major\arm-none-eabi\include\c++\10.2.1\bits\stl_algobase.h ****   template<typename _Tp, typename _Up>
  88:c:\programdata\chocolatey\lib\gcc-arm-embedded\tools\gcc-arm-none-eabi-10-2020-q4-major\arm-none-eabi\include\c++\10.2.1\bits\stl_algobase.h ****     _GLIBCXX14_CONSTEXPR
  89:c:\programdata\chocolatey\lib\gcc-arm-embedded\tools\gcc-arm-none-eabi-10-2020-q4-major\arm-none-eabi\include\c++\10.2.1\bits\stl_algobase.h ****     inline int
  90:c:\programdata\chocolatey\lib\gcc-arm-embedded\tools\gcc-arm-none-eabi-10-2020-q4-major\arm-none-eabi\include\c++\10.2.1\bits\stl_algobase.h ****     __memcmp(const _Tp* __first1, const _Up* __first2, size_t __num)
  91:c:\programdata\chocolatey\lib\gcc-arm-embedded\tools\gcc-arm-none-eabi-10-2020-q4-major\arm-none-eabi\include\c++\10.2.1\bits\stl_algobase.h ****     {
  92:c:\programdata\chocolatey\lib\gcc-arm-embedded\tools\gcc-arm-none-eabi-10-2020-q4-major\arm-none-eabi\include\c++\10.2.1\bits\stl_algobase.h **** #if __cplusplus >= 201103L
  93:c:\programdata\chocolatey\lib\gcc-arm-embedded\tools\gcc-arm-none-eabi-10-2020-q4-major\arm-none-eabi\include\c++\10.2.1\bits\stl_algobase.h ****       static_assert(sizeof(_Tp) == sizeof(_Up), "can be compared with memcmp");
  94:c:\programdata\chocolatey\lib\gcc-arm-embedded\tools\gcc-arm-none-eabi-10-2020-q4-major\arm-none-eabi\include\c++\10.2.1\bits\stl_algobase.h **** #endif
  95:c:\programdata\chocolatey\lib\gcc-arm-embedded\tools\gcc-arm-none-eabi-10-2020-q4-major\arm-none-eabi\include\c++\10.2.1\bits\stl_algobase.h **** #ifdef __cpp_lib_is_constant_evaluated
  96:c:\programdata\chocolatey\lib\gcc-arm-embedded\tools\gcc-arm-none-eabi-10-2020-q4-major\arm-none-eabi\include\c++\10.2.1\bits\stl_algobase.h ****       if (std::is_constant_evaluated())
  97:c:\programdata\chocolatey\lib\gcc-arm-embedded\tools\gcc-arm-none-eabi-10-2020-q4-major\arm-none-eabi\include\c++\10.2.1\bits\stl_algobase.h **** 	{
  98:c:\programdata\chocolatey\lib\gcc-arm-embedded\tools\gcc-arm-none-eabi-10-2020-q4-major\arm-none-eabi\include\c++\10.2.1\bits\stl_algobase.h **** 	  for(; __num > 0; ++__first1, ++__first2, --__num)
  99:c:\programdata\chocolatey\lib\gcc-arm-embedded\tools\gcc-arm-none-eabi-10-2020-q4-major\arm-none-eabi\include\c++\10.2.1\bits\stl_algobase.h **** 	    if (*__first1 != *__first2)
 100:c:\programdata\chocolatey\lib\gcc-arm-embedded\tools\gcc-arm-none-eabi-10-2020-q4-major\arm-none-eabi\include\c++\10.2.1\bits\stl_algobase.h **** 	      return *__first1 < *__first2 ? -1 : 1;
 101:c:\programdata\chocolatey\lib\gcc-arm-embedded\tools\gcc-arm-none-eabi-10-2020-q4-major\arm-none-eabi\include\c++\10.2.1\bits\stl_algobase.h **** 	  return 0;
 102:c:\programdata\chocolatey\lib\gcc-arm-embedded\tools\gcc-arm-none-eabi-10-2020-q4-major\arm-none-eabi\include\c++\10.2.1\bits\stl_algobase.h **** 	}
 103:c:\programdata\chocolatey\lib\gcc-arm-embedded\tools\gcc-arm-none-eabi-10-2020-q4-major\arm-none-eabi\include\c++\10.2.1\bits\stl_algobase.h ****       else
 104:c:\programdata\chocolatey\lib\gcc-arm-embedded\tools\gcc-arm-none-eabi-10-2020-q4-major\arm-none-eabi\include\c++\10.2.1\bits\stl_algobase.h **** #endif
 105:c:\programdata\chocolatey\lib\gcc-arm-embedded\tools\gcc-arm-none-eabi-10-2020-q4-major\arm-none-eabi\include\c++\10.2.1\bits\stl_algobase.h **** 	return __builtin_memcmp(__first1, __first2, sizeof(_Tp) * __num);
 106:c:\programdata\chocolatey\lib\gcc-arm-embedded\tools\gcc-arm-none-eabi-10-2020-q4-major\arm-none-eabi\include\c++\10.2.1\bits\stl_algobase.h ****     }
 107:c:\programdata\chocolatey\lib\gcc-arm-embedded\tools\gcc-arm-none-eabi-10-2020-q4-major\arm-none-eabi\include\c++\10.2.1\bits\stl_algobase.h **** 
 108:c:\programdata\chocolatey\lib\gcc-arm-embedded\tools\gcc-arm-none-eabi-10-2020-q4-major\arm-none-eabi\include\c++\10.2.1\bits\stl_algobase.h **** #if __cplusplus < 201103L
 109:c:\programdata\chocolatey\lib\gcc-arm-embedded\tools\gcc-arm-none-eabi-10-2020-q4-major\arm-none-eabi\include\c++\10.2.1\bits\stl_algobase.h ****   // See http://gcc.gnu.org/ml/libstdc++/2004-08/msg00167.html: in a
 110:c:\programdata\chocolatey\lib\gcc-arm-embedded\tools\gcc-arm-none-eabi-10-2020-q4-major\arm-none-eabi\include\c++\10.2.1\bits\stl_algobase.h ****   // nutshell, we are partially implementing the resolution of DR 187,
 111:c:\programdata\chocolatey\lib\gcc-arm-embedded\tools\gcc-arm-none-eabi-10-2020-q4-major\arm-none-eabi\include\c++\10.2.1\bits\stl_algobase.h ****   // when it's safe, i.e., the value_types are equal.
 112:c:\programdata\chocolatey\lib\gcc-arm-embedded\tools\gcc-arm-none-eabi-10-2020-q4-major\arm-none-eabi\include\c++\10.2.1\bits\stl_algobase.h ****   template<bool _BoolType>
 113:c:\programdata\chocolatey\lib\gcc-arm-embedded\tools\gcc-arm-none-eabi-10-2020-q4-major\arm-none-eabi\include\c++\10.2.1\bits\stl_algobase.h ****     struct __iter_swap
 114:c:\programdata\chocolatey\lib\gcc-arm-embedded\tools\gcc-arm-none-eabi-10-2020-q4-major\arm-none-eabi\include\c++\10.2.1\bits\stl_algobase.h ****     {
 115:c:\programdata\chocolatey\lib\gcc-arm-embedded\tools\gcc-arm-none-eabi-10-2020-q4-major\arm-none-eabi\include\c++\10.2.1\bits\stl_algobase.h ****       template<typename _ForwardIterator1, typename _ForwardIterator2>
 116:c:\programdata\chocolatey\lib\gcc-arm-embedded\tools\gcc-arm-none-eabi-10-2020-q4-major\arm-none-eabi\include\c++\10.2.1\bits\stl_algobase.h **** 	static void
 117:c:\programdata\chocolatey\lib\gcc-arm-embedded\tools\gcc-arm-none-eabi-10-2020-q4-major\arm-none-eabi\include\c++\10.2.1\bits\stl_algobase.h **** 	iter_swap(_ForwardIterator1 __a, _ForwardIterator2 __b)
 118:c:\programdata\chocolatey\lib\gcc-arm-embedded\tools\gcc-arm-none-eabi-10-2020-q4-major\arm-none-eabi\include\c++\10.2.1\bits\stl_algobase.h **** 	{
 119:c:\programdata\chocolatey\lib\gcc-arm-embedded\tools\gcc-arm-none-eabi-10-2020-q4-major\arm-none-eabi\include\c++\10.2.1\bits\stl_algobase.h **** 	  typedef typename iterator_traits<_ForwardIterator1>::value_type
 120:c:\programdata\chocolatey\lib\gcc-arm-embedded\tools\gcc-arm-none-eabi-10-2020-q4-major\arm-none-eabi\include\c++\10.2.1\bits\stl_algobase.h **** 	    _ValueType1;
 121:c:\programdata\chocolatey\lib\gcc-arm-embedded\tools\gcc-arm-none-eabi-10-2020-q4-major\arm-none-eabi\include\c++\10.2.1\bits\stl_algobase.h **** 	  _ValueType1 __tmp = *__a;
 122:c:\programdata\chocolatey\lib\gcc-arm-embedded\tools\gcc-arm-none-eabi-10-2020-q4-major\arm-none-eabi\include\c++\10.2.1\bits\stl_algobase.h **** 	  *__a = *__b;
 123:c:\programdata\chocolatey\lib\gcc-arm-embedded\tools\gcc-arm-none-eabi-10-2020-q4-major\arm-none-eabi\include\c++\10.2.1\bits\stl_algobase.h **** 	  *__b = __tmp;
 124:c:\programdata\chocolatey\lib\gcc-arm-embedded\tools\gcc-arm-none-eabi-10-2020-q4-major\arm-none-eabi\include\c++\10.2.1\bits\stl_algobase.h **** 	}
 125:c:\programdata\chocolatey\lib\gcc-arm-embedded\tools\gcc-arm-none-eabi-10-2020-q4-major\arm-none-eabi\include\c++\10.2.1\bits\stl_algobase.h ****     };
 126:c:\programdata\chocolatey\lib\gcc-arm-embedded\tools\gcc-arm-none-eabi-10-2020-q4-major\arm-none-eabi\include\c++\10.2.1\bits\stl_algobase.h **** 
 127:c:\programdata\chocolatey\lib\gcc-arm-embedded\tools\gcc-arm-none-eabi-10-2020-q4-major\arm-none-eabi\include\c++\10.2.1\bits\stl_algobase.h ****   template<>
 128:c:\programdata\chocolatey\lib\gcc-arm-embedded\tools\gcc-arm-none-eabi-10-2020-q4-major\arm-none-eabi\include\c++\10.2.1\bits\stl_algobase.h ****     struct __iter_swap<true>
 129:c:\programdata\chocolatey\lib\gcc-arm-embedded\tools\gcc-arm-none-eabi-10-2020-q4-major\arm-none-eabi\include\c++\10.2.1\bits\stl_algobase.h ****     {
ARM GAS  C:\Users\daniel\AppData\Local\Temp\ccmFX6Ad.s 			page 10


 130:c:\programdata\chocolatey\lib\gcc-arm-embedded\tools\gcc-arm-none-eabi-10-2020-q4-major\arm-none-eabi\include\c++\10.2.1\bits\stl_algobase.h ****       template<typename _ForwardIterator1, typename _ForwardIterator2>
 131:c:\programdata\chocolatey\lib\gcc-arm-embedded\tools\gcc-arm-none-eabi-10-2020-q4-major\arm-none-eabi\include\c++\10.2.1\bits\stl_algobase.h **** 	static void
 132:c:\programdata\chocolatey\lib\gcc-arm-embedded\tools\gcc-arm-none-eabi-10-2020-q4-major\arm-none-eabi\include\c++\10.2.1\bits\stl_algobase.h **** 	iter_swap(_ForwardIterator1 __a, _ForwardIterator2 __b)
 133:c:\programdata\chocolatey\lib\gcc-arm-embedded\tools\gcc-arm-none-eabi-10-2020-q4-major\arm-none-eabi\include\c++\10.2.1\bits\stl_algobase.h **** 	{
 134:c:\programdata\chocolatey\lib\gcc-arm-embedded\tools\gcc-arm-none-eabi-10-2020-q4-major\arm-none-eabi\include\c++\10.2.1\bits\stl_algobase.h **** 	  swap(*__a, *__b);
 135:c:\programdata\chocolatey\lib\gcc-arm-embedded\tools\gcc-arm-none-eabi-10-2020-q4-major\arm-none-eabi\include\c++\10.2.1\bits\stl_algobase.h **** 	}
 136:c:\programdata\chocolatey\lib\gcc-arm-embedded\tools\gcc-arm-none-eabi-10-2020-q4-major\arm-none-eabi\include\c++\10.2.1\bits\stl_algobase.h ****     };
 137:c:\programdata\chocolatey\lib\gcc-arm-embedded\tools\gcc-arm-none-eabi-10-2020-q4-major\arm-none-eabi\include\c++\10.2.1\bits\stl_algobase.h **** #endif // C++03
 138:c:\programdata\chocolatey\lib\gcc-arm-embedded\tools\gcc-arm-none-eabi-10-2020-q4-major\arm-none-eabi\include\c++\10.2.1\bits\stl_algobase.h **** 
 139:c:\programdata\chocolatey\lib\gcc-arm-embedded\tools\gcc-arm-none-eabi-10-2020-q4-major\arm-none-eabi\include\c++\10.2.1\bits\stl_algobase.h ****   /**
 140:c:\programdata\chocolatey\lib\gcc-arm-embedded\tools\gcc-arm-none-eabi-10-2020-q4-major\arm-none-eabi\include\c++\10.2.1\bits\stl_algobase.h ****    *  @brief Swaps the contents of two iterators.
 141:c:\programdata\chocolatey\lib\gcc-arm-embedded\tools\gcc-arm-none-eabi-10-2020-q4-major\arm-none-eabi\include\c++\10.2.1\bits\stl_algobase.h ****    *  @ingroup mutating_algorithms
 142:c:\programdata\chocolatey\lib\gcc-arm-embedded\tools\gcc-arm-none-eabi-10-2020-q4-major\arm-none-eabi\include\c++\10.2.1\bits\stl_algobase.h ****    *  @param  __a  An iterator.
 143:c:\programdata\chocolatey\lib\gcc-arm-embedded\tools\gcc-arm-none-eabi-10-2020-q4-major\arm-none-eabi\include\c++\10.2.1\bits\stl_algobase.h ****    *  @param  __b  Another iterator.
 144:c:\programdata\chocolatey\lib\gcc-arm-embedded\tools\gcc-arm-none-eabi-10-2020-q4-major\arm-none-eabi\include\c++\10.2.1\bits\stl_algobase.h ****    *  @return   Nothing.
 145:c:\programdata\chocolatey\lib\gcc-arm-embedded\tools\gcc-arm-none-eabi-10-2020-q4-major\arm-none-eabi\include\c++\10.2.1\bits\stl_algobase.h ****    *
 146:c:\programdata\chocolatey\lib\gcc-arm-embedded\tools\gcc-arm-none-eabi-10-2020-q4-major\arm-none-eabi\include\c++\10.2.1\bits\stl_algobase.h ****    *  This function swaps the values pointed to by two iterators, not the
 147:c:\programdata\chocolatey\lib\gcc-arm-embedded\tools\gcc-arm-none-eabi-10-2020-q4-major\arm-none-eabi\include\c++\10.2.1\bits\stl_algobase.h ****    *  iterators themselves.
 148:c:\programdata\chocolatey\lib\gcc-arm-embedded\tools\gcc-arm-none-eabi-10-2020-q4-major\arm-none-eabi\include\c++\10.2.1\bits\stl_algobase.h ****   */
 149:c:\programdata\chocolatey\lib\gcc-arm-embedded\tools\gcc-arm-none-eabi-10-2020-q4-major\arm-none-eabi\include\c++\10.2.1\bits\stl_algobase.h ****   template<typename _ForwardIterator1, typename _ForwardIterator2>
 150:c:\programdata\chocolatey\lib\gcc-arm-embedded\tools\gcc-arm-none-eabi-10-2020-q4-major\arm-none-eabi\include\c++\10.2.1\bits\stl_algobase.h ****     _GLIBCXX20_CONSTEXPR
 151:c:\programdata\chocolatey\lib\gcc-arm-embedded\tools\gcc-arm-none-eabi-10-2020-q4-major\arm-none-eabi\include\c++\10.2.1\bits\stl_algobase.h ****     inline void
 152:c:\programdata\chocolatey\lib\gcc-arm-embedded\tools\gcc-arm-none-eabi-10-2020-q4-major\arm-none-eabi\include\c++\10.2.1\bits\stl_algobase.h ****     iter_swap(_ForwardIterator1 __a, _ForwardIterator2 __b)
 153:c:\programdata\chocolatey\lib\gcc-arm-embedded\tools\gcc-arm-none-eabi-10-2020-q4-major\arm-none-eabi\include\c++\10.2.1\bits\stl_algobase.h ****     {
 154:c:\programdata\chocolatey\lib\gcc-arm-embedded\tools\gcc-arm-none-eabi-10-2020-q4-major\arm-none-eabi\include\c++\10.2.1\bits\stl_algobase.h ****       // concept requirements
 155:c:\programdata\chocolatey\lib\gcc-arm-embedded\tools\gcc-arm-none-eabi-10-2020-q4-major\arm-none-eabi\include\c++\10.2.1\bits\stl_algobase.h ****       __glibcxx_function_requires(_Mutable_ForwardIteratorConcept<
 156:c:\programdata\chocolatey\lib\gcc-arm-embedded\tools\gcc-arm-none-eabi-10-2020-q4-major\arm-none-eabi\include\c++\10.2.1\bits\stl_algobase.h **** 				  _ForwardIterator1>)
 157:c:\programdata\chocolatey\lib\gcc-arm-embedded\tools\gcc-arm-none-eabi-10-2020-q4-major\arm-none-eabi\include\c++\10.2.1\bits\stl_algobase.h ****       __glibcxx_function_requires(_Mutable_ForwardIteratorConcept<
 158:c:\programdata\chocolatey\lib\gcc-arm-embedded\tools\gcc-arm-none-eabi-10-2020-q4-major\arm-none-eabi\include\c++\10.2.1\bits\stl_algobase.h **** 				  _ForwardIterator2>)
 159:c:\programdata\chocolatey\lib\gcc-arm-embedded\tools\gcc-arm-none-eabi-10-2020-q4-major\arm-none-eabi\include\c++\10.2.1\bits\stl_algobase.h **** 
 160:c:\programdata\chocolatey\lib\gcc-arm-embedded\tools\gcc-arm-none-eabi-10-2020-q4-major\arm-none-eabi\include\c++\10.2.1\bits\stl_algobase.h **** #if __cplusplus < 201103L
 161:c:\programdata\chocolatey\lib\gcc-arm-embedded\tools\gcc-arm-none-eabi-10-2020-q4-major\arm-none-eabi\include\c++\10.2.1\bits\stl_algobase.h ****       typedef typename iterator_traits<_ForwardIterator1>::value_type
 162:c:\programdata\chocolatey\lib\gcc-arm-embedded\tools\gcc-arm-none-eabi-10-2020-q4-major\arm-none-eabi\include\c++\10.2.1\bits\stl_algobase.h **** 	_ValueType1;
 163:c:\programdata\chocolatey\lib\gcc-arm-embedded\tools\gcc-arm-none-eabi-10-2020-q4-major\arm-none-eabi\include\c++\10.2.1\bits\stl_algobase.h ****       typedef typename iterator_traits<_ForwardIterator2>::value_type
 164:c:\programdata\chocolatey\lib\gcc-arm-embedded\tools\gcc-arm-none-eabi-10-2020-q4-major\arm-none-eabi\include\c++\10.2.1\bits\stl_algobase.h **** 	_ValueType2;
 165:c:\programdata\chocolatey\lib\gcc-arm-embedded\tools\gcc-arm-none-eabi-10-2020-q4-major\arm-none-eabi\include\c++\10.2.1\bits\stl_algobase.h **** 
 166:c:\programdata\chocolatey\lib\gcc-arm-embedded\tools\gcc-arm-none-eabi-10-2020-q4-major\arm-none-eabi\include\c++\10.2.1\bits\stl_algobase.h ****       __glibcxx_function_requires(_ConvertibleConcept<_ValueType1,
 167:c:\programdata\chocolatey\lib\gcc-arm-embedded\tools\gcc-arm-none-eabi-10-2020-q4-major\arm-none-eabi\include\c++\10.2.1\bits\stl_algobase.h **** 				  _ValueType2>)
 168:c:\programdata\chocolatey\lib\gcc-arm-embedded\tools\gcc-arm-none-eabi-10-2020-q4-major\arm-none-eabi\include\c++\10.2.1\bits\stl_algobase.h ****       __glibcxx_function_requires(_ConvertibleConcept<_ValueType2,
 169:c:\programdata\chocolatey\lib\gcc-arm-embedded\tools\gcc-arm-none-eabi-10-2020-q4-major\arm-none-eabi\include\c++\10.2.1\bits\stl_algobase.h **** 				  _ValueType1>)
 170:c:\programdata\chocolatey\lib\gcc-arm-embedded\tools\gcc-arm-none-eabi-10-2020-q4-major\arm-none-eabi\include\c++\10.2.1\bits\stl_algobase.h **** 
 171:c:\programdata\chocolatey\lib\gcc-arm-embedded\tools\gcc-arm-none-eabi-10-2020-q4-major\arm-none-eabi\include\c++\10.2.1\bits\stl_algobase.h ****       typedef typename iterator_traits<_ForwardIterator1>::reference
 172:c:\programdata\chocolatey\lib\gcc-arm-embedded\tools\gcc-arm-none-eabi-10-2020-q4-major\arm-none-eabi\include\c++\10.2.1\bits\stl_algobase.h **** 	_ReferenceType1;
 173:c:\programdata\chocolatey\lib\gcc-arm-embedded\tools\gcc-arm-none-eabi-10-2020-q4-major\arm-none-eabi\include\c++\10.2.1\bits\stl_algobase.h ****       typedef typename iterator_traits<_ForwardIterator2>::reference
 174:c:\programdata\chocolatey\lib\gcc-arm-embedded\tools\gcc-arm-none-eabi-10-2020-q4-major\arm-none-eabi\include\c++\10.2.1\bits\stl_algobase.h **** 	_ReferenceType2;
 175:c:\programdata\chocolatey\lib\gcc-arm-embedded\tools\gcc-arm-none-eabi-10-2020-q4-major\arm-none-eabi\include\c++\10.2.1\bits\stl_algobase.h ****       std::__iter_swap<__are_same<_ValueType1, _ValueType2>::__value
 176:c:\programdata\chocolatey\lib\gcc-arm-embedded\tools\gcc-arm-none-eabi-10-2020-q4-major\arm-none-eabi\include\c++\10.2.1\bits\stl_algobase.h **** 	&& __are_same<_ValueType1&, _ReferenceType1>::__value
 177:c:\programdata\chocolatey\lib\gcc-arm-embedded\tools\gcc-arm-none-eabi-10-2020-q4-major\arm-none-eabi\include\c++\10.2.1\bits\stl_algobase.h **** 	&& __are_same<_ValueType2&, _ReferenceType2>::__value>::
 178:c:\programdata\chocolatey\lib\gcc-arm-embedded\tools\gcc-arm-none-eabi-10-2020-q4-major\arm-none-eabi\include\c++\10.2.1\bits\stl_algobase.h **** 	iter_swap(__a, __b);
 179:c:\programdata\chocolatey\lib\gcc-arm-embedded\tools\gcc-arm-none-eabi-10-2020-q4-major\arm-none-eabi\include\c++\10.2.1\bits\stl_algobase.h **** #else
 180:c:\programdata\chocolatey\lib\gcc-arm-embedded\tools\gcc-arm-none-eabi-10-2020-q4-major\arm-none-eabi\include\c++\10.2.1\bits\stl_algobase.h ****       // _GLIBCXX_RESOLVE_LIB_DEFECTS
 181:c:\programdata\chocolatey\lib\gcc-arm-embedded\tools\gcc-arm-none-eabi-10-2020-q4-major\arm-none-eabi\include\c++\10.2.1\bits\stl_algobase.h ****       // 187. iter_swap underspecified
 182:c:\programdata\chocolatey\lib\gcc-arm-embedded\tools\gcc-arm-none-eabi-10-2020-q4-major\arm-none-eabi\include\c++\10.2.1\bits\stl_algobase.h ****       swap(*__a, *__b);
 183:c:\programdata\chocolatey\lib\gcc-arm-embedded\tools\gcc-arm-none-eabi-10-2020-q4-major\arm-none-eabi\include\c++\10.2.1\bits\stl_algobase.h **** #endif
 184:c:\programdata\chocolatey\lib\gcc-arm-embedded\tools\gcc-arm-none-eabi-10-2020-q4-major\arm-none-eabi\include\c++\10.2.1\bits\stl_algobase.h ****     }
 185:c:\programdata\chocolatey\lib\gcc-arm-embedded\tools\gcc-arm-none-eabi-10-2020-q4-major\arm-none-eabi\include\c++\10.2.1\bits\stl_algobase.h **** 
 186:c:\programdata\chocolatey\lib\gcc-arm-embedded\tools\gcc-arm-none-eabi-10-2020-q4-major\arm-none-eabi\include\c++\10.2.1\bits\stl_algobase.h ****   /**
ARM GAS  C:\Users\daniel\AppData\Local\Temp\ccmFX6Ad.s 			page 11


 187:c:\programdata\chocolatey\lib\gcc-arm-embedded\tools\gcc-arm-none-eabi-10-2020-q4-major\arm-none-eabi\include\c++\10.2.1\bits\stl_algobase.h ****    *  @brief Swap the elements of two sequences.
 188:c:\programdata\chocolatey\lib\gcc-arm-embedded\tools\gcc-arm-none-eabi-10-2020-q4-major\arm-none-eabi\include\c++\10.2.1\bits\stl_algobase.h ****    *  @ingroup mutating_algorithms
 189:c:\programdata\chocolatey\lib\gcc-arm-embedded\tools\gcc-arm-none-eabi-10-2020-q4-major\arm-none-eabi\include\c++\10.2.1\bits\stl_algobase.h ****    *  @param  __first1  A forward iterator.
 190:c:\programdata\chocolatey\lib\gcc-arm-embedded\tools\gcc-arm-none-eabi-10-2020-q4-major\arm-none-eabi\include\c++\10.2.1\bits\stl_algobase.h ****    *  @param  __last1   A forward iterator.
 191:c:\programdata\chocolatey\lib\gcc-arm-embedded\tools\gcc-arm-none-eabi-10-2020-q4-major\arm-none-eabi\include\c++\10.2.1\bits\stl_algobase.h ****    *  @param  __first2  A forward iterator.
 192:c:\programdata\chocolatey\lib\gcc-arm-embedded\tools\gcc-arm-none-eabi-10-2020-q4-major\arm-none-eabi\include\c++\10.2.1\bits\stl_algobase.h ****    *  @return   An iterator equal to @p first2+(last1-first1).
 193:c:\programdata\chocolatey\lib\gcc-arm-embedded\tools\gcc-arm-none-eabi-10-2020-q4-major\arm-none-eabi\include\c++\10.2.1\bits\stl_algobase.h ****    *
 194:c:\programdata\chocolatey\lib\gcc-arm-embedded\tools\gcc-arm-none-eabi-10-2020-q4-major\arm-none-eabi\include\c++\10.2.1\bits\stl_algobase.h ****    *  Swaps each element in the range @p [first1,last1) with the
 195:c:\programdata\chocolatey\lib\gcc-arm-embedded\tools\gcc-arm-none-eabi-10-2020-q4-major\arm-none-eabi\include\c++\10.2.1\bits\stl_algobase.h ****    *  corresponding element in the range @p [first2,(last1-first1)).
 196:c:\programdata\chocolatey\lib\gcc-arm-embedded\tools\gcc-arm-none-eabi-10-2020-q4-major\arm-none-eabi\include\c++\10.2.1\bits\stl_algobase.h ****    *  The ranges must not overlap.
 197:c:\programdata\chocolatey\lib\gcc-arm-embedded\tools\gcc-arm-none-eabi-10-2020-q4-major\arm-none-eabi\include\c++\10.2.1\bits\stl_algobase.h ****   */
 198:c:\programdata\chocolatey\lib\gcc-arm-embedded\tools\gcc-arm-none-eabi-10-2020-q4-major\arm-none-eabi\include\c++\10.2.1\bits\stl_algobase.h ****   template<typename _ForwardIterator1, typename _ForwardIterator2>
 199:c:\programdata\chocolatey\lib\gcc-arm-embedded\tools\gcc-arm-none-eabi-10-2020-q4-major\arm-none-eabi\include\c++\10.2.1\bits\stl_algobase.h ****     _GLIBCXX20_CONSTEXPR
 200:c:\programdata\chocolatey\lib\gcc-arm-embedded\tools\gcc-arm-none-eabi-10-2020-q4-major\arm-none-eabi\include\c++\10.2.1\bits\stl_algobase.h ****     _ForwardIterator2
 201:c:\programdata\chocolatey\lib\gcc-arm-embedded\tools\gcc-arm-none-eabi-10-2020-q4-major\arm-none-eabi\include\c++\10.2.1\bits\stl_algobase.h ****     swap_ranges(_ForwardIterator1 __first1, _ForwardIterator1 __last1,
 202:c:\programdata\chocolatey\lib\gcc-arm-embedded\tools\gcc-arm-none-eabi-10-2020-q4-major\arm-none-eabi\include\c++\10.2.1\bits\stl_algobase.h **** 		_ForwardIterator2 __first2)
 203:c:\programdata\chocolatey\lib\gcc-arm-embedded\tools\gcc-arm-none-eabi-10-2020-q4-major\arm-none-eabi\include\c++\10.2.1\bits\stl_algobase.h ****     {
 204:c:\programdata\chocolatey\lib\gcc-arm-embedded\tools\gcc-arm-none-eabi-10-2020-q4-major\arm-none-eabi\include\c++\10.2.1\bits\stl_algobase.h ****       // concept requirements
 205:c:\programdata\chocolatey\lib\gcc-arm-embedded\tools\gcc-arm-none-eabi-10-2020-q4-major\arm-none-eabi\include\c++\10.2.1\bits\stl_algobase.h ****       __glibcxx_function_requires(_Mutable_ForwardIteratorConcept<
 206:c:\programdata\chocolatey\lib\gcc-arm-embedded\tools\gcc-arm-none-eabi-10-2020-q4-major\arm-none-eabi\include\c++\10.2.1\bits\stl_algobase.h **** 				  _ForwardIterator1>)
 207:c:\programdata\chocolatey\lib\gcc-arm-embedded\tools\gcc-arm-none-eabi-10-2020-q4-major\arm-none-eabi\include\c++\10.2.1\bits\stl_algobase.h ****       __glibcxx_function_requires(_Mutable_ForwardIteratorConcept<
 208:c:\programdata\chocolatey\lib\gcc-arm-embedded\tools\gcc-arm-none-eabi-10-2020-q4-major\arm-none-eabi\include\c++\10.2.1\bits\stl_algobase.h **** 				  _ForwardIterator2>)
 209:c:\programdata\chocolatey\lib\gcc-arm-embedded\tools\gcc-arm-none-eabi-10-2020-q4-major\arm-none-eabi\include\c++\10.2.1\bits\stl_algobase.h ****       __glibcxx_requires_valid_range(__first1, __last1);
 210:c:\programdata\chocolatey\lib\gcc-arm-embedded\tools\gcc-arm-none-eabi-10-2020-q4-major\arm-none-eabi\include\c++\10.2.1\bits\stl_algobase.h **** 
 211:c:\programdata\chocolatey\lib\gcc-arm-embedded\tools\gcc-arm-none-eabi-10-2020-q4-major\arm-none-eabi\include\c++\10.2.1\bits\stl_algobase.h ****       for (; __first1 != __last1; ++__first1, (void)++__first2)
 212:c:\programdata\chocolatey\lib\gcc-arm-embedded\tools\gcc-arm-none-eabi-10-2020-q4-major\arm-none-eabi\include\c++\10.2.1\bits\stl_algobase.h **** 	std::iter_swap(__first1, __first2);
 213:c:\programdata\chocolatey\lib\gcc-arm-embedded\tools\gcc-arm-none-eabi-10-2020-q4-major\arm-none-eabi\include\c++\10.2.1\bits\stl_algobase.h ****       return __first2;
 214:c:\programdata\chocolatey\lib\gcc-arm-embedded\tools\gcc-arm-none-eabi-10-2020-q4-major\arm-none-eabi\include\c++\10.2.1\bits\stl_algobase.h ****     }
 215:c:\programdata\chocolatey\lib\gcc-arm-embedded\tools\gcc-arm-none-eabi-10-2020-q4-major\arm-none-eabi\include\c++\10.2.1\bits\stl_algobase.h **** 
 216:c:\programdata\chocolatey\lib\gcc-arm-embedded\tools\gcc-arm-none-eabi-10-2020-q4-major\arm-none-eabi\include\c++\10.2.1\bits\stl_algobase.h ****   /**
 217:c:\programdata\chocolatey\lib\gcc-arm-embedded\tools\gcc-arm-none-eabi-10-2020-q4-major\arm-none-eabi\include\c++\10.2.1\bits\stl_algobase.h ****    *  @brief This does what you think it does.
 218:c:\programdata\chocolatey\lib\gcc-arm-embedded\tools\gcc-arm-none-eabi-10-2020-q4-major\arm-none-eabi\include\c++\10.2.1\bits\stl_algobase.h ****    *  @ingroup sorting_algorithms
 219:c:\programdata\chocolatey\lib\gcc-arm-embedded\tools\gcc-arm-none-eabi-10-2020-q4-major\arm-none-eabi\include\c++\10.2.1\bits\stl_algobase.h ****    *  @param  __a  A thing of arbitrary type.
 220:c:\programdata\chocolatey\lib\gcc-arm-embedded\tools\gcc-arm-none-eabi-10-2020-q4-major\arm-none-eabi\include\c++\10.2.1\bits\stl_algobase.h ****    *  @param  __b  Another thing of arbitrary type.
 221:c:\programdata\chocolatey\lib\gcc-arm-embedded\tools\gcc-arm-none-eabi-10-2020-q4-major\arm-none-eabi\include\c++\10.2.1\bits\stl_algobase.h ****    *  @return   The lesser of the parameters.
 222:c:\programdata\chocolatey\lib\gcc-arm-embedded\tools\gcc-arm-none-eabi-10-2020-q4-major\arm-none-eabi\include\c++\10.2.1\bits\stl_algobase.h ****    *
 223:c:\programdata\chocolatey\lib\gcc-arm-embedded\tools\gcc-arm-none-eabi-10-2020-q4-major\arm-none-eabi\include\c++\10.2.1\bits\stl_algobase.h ****    *  This is the simple classic generic implementation.  It will work on
 224:c:\programdata\chocolatey\lib\gcc-arm-embedded\tools\gcc-arm-none-eabi-10-2020-q4-major\arm-none-eabi\include\c++\10.2.1\bits\stl_algobase.h ****    *  temporary expressions, since they are only evaluated once, unlike a
 225:c:\programdata\chocolatey\lib\gcc-arm-embedded\tools\gcc-arm-none-eabi-10-2020-q4-major\arm-none-eabi\include\c++\10.2.1\bits\stl_algobase.h ****    *  preprocessor macro.
 226:c:\programdata\chocolatey\lib\gcc-arm-embedded\tools\gcc-arm-none-eabi-10-2020-q4-major\arm-none-eabi\include\c++\10.2.1\bits\stl_algobase.h ****   */
 227:c:\programdata\chocolatey\lib\gcc-arm-embedded\tools\gcc-arm-none-eabi-10-2020-q4-major\arm-none-eabi\include\c++\10.2.1\bits\stl_algobase.h ****   template<typename _Tp>
 228:c:\programdata\chocolatey\lib\gcc-arm-embedded\tools\gcc-arm-none-eabi-10-2020-q4-major\arm-none-eabi\include\c++\10.2.1\bits\stl_algobase.h ****     _GLIBCXX14_CONSTEXPR
 229:c:\programdata\chocolatey\lib\gcc-arm-embedded\tools\gcc-arm-none-eabi-10-2020-q4-major\arm-none-eabi\include\c++\10.2.1\bits\stl_algobase.h ****     inline const _Tp&
 230:c:\programdata\chocolatey\lib\gcc-arm-embedded\tools\gcc-arm-none-eabi-10-2020-q4-major\arm-none-eabi\include\c++\10.2.1\bits\stl_algobase.h ****     min(const _Tp& __a, const _Tp& __b)
 231:c:\programdata\chocolatey\lib\gcc-arm-embedded\tools\gcc-arm-none-eabi-10-2020-q4-major\arm-none-eabi\include\c++\10.2.1\bits\stl_algobase.h ****     {
 232:c:\programdata\chocolatey\lib\gcc-arm-embedded\tools\gcc-arm-none-eabi-10-2020-q4-major\arm-none-eabi\include\c++\10.2.1\bits\stl_algobase.h ****       // concept requirements
 233:c:\programdata\chocolatey\lib\gcc-arm-embedded\tools\gcc-arm-none-eabi-10-2020-q4-major\arm-none-eabi\include\c++\10.2.1\bits\stl_algobase.h ****       __glibcxx_function_requires(_LessThanComparableConcept<_Tp>)
 234:c:\programdata\chocolatey\lib\gcc-arm-embedded\tools\gcc-arm-none-eabi-10-2020-q4-major\arm-none-eabi\include\c++\10.2.1\bits\stl_algobase.h ****       //return __b < __a ? __b : __a;
 235:c:\programdata\chocolatey\lib\gcc-arm-embedded\tools\gcc-arm-none-eabi-10-2020-q4-major\arm-none-eabi\include\c++\10.2.1\bits\stl_algobase.h ****       if (__b < __a)
 236:c:\programdata\chocolatey\lib\gcc-arm-embedded\tools\gcc-arm-none-eabi-10-2020-q4-major\arm-none-eabi\include\c++\10.2.1\bits\stl_algobase.h **** 	return __b;
 237:c:\programdata\chocolatey\lib\gcc-arm-embedded\tools\gcc-arm-none-eabi-10-2020-q4-major\arm-none-eabi\include\c++\10.2.1\bits\stl_algobase.h ****       return __a;
 238:c:\programdata\chocolatey\lib\gcc-arm-embedded\tools\gcc-arm-none-eabi-10-2020-q4-major\arm-none-eabi\include\c++\10.2.1\bits\stl_algobase.h ****     }
 239:c:\programdata\chocolatey\lib\gcc-arm-embedded\tools\gcc-arm-none-eabi-10-2020-q4-major\arm-none-eabi\include\c++\10.2.1\bits\stl_algobase.h **** 
 240:c:\programdata\chocolatey\lib\gcc-arm-embedded\tools\gcc-arm-none-eabi-10-2020-q4-major\arm-none-eabi\include\c++\10.2.1\bits\stl_algobase.h ****   /**
 241:c:\programdata\chocolatey\lib\gcc-arm-embedded\tools\gcc-arm-none-eabi-10-2020-q4-major\arm-none-eabi\include\c++\10.2.1\bits\stl_algobase.h ****    *  @brief This does what you think it does.
 242:c:\programdata\chocolatey\lib\gcc-arm-embedded\tools\gcc-arm-none-eabi-10-2020-q4-major\arm-none-eabi\include\c++\10.2.1\bits\stl_algobase.h ****    *  @ingroup sorting_algorithms
 243:c:\programdata\chocolatey\lib\gcc-arm-embedded\tools\gcc-arm-none-eabi-10-2020-q4-major\arm-none-eabi\include\c++\10.2.1\bits\stl_algobase.h ****    *  @param  __a  A thing of arbitrary type.
ARM GAS  C:\Users\daniel\AppData\Local\Temp\ccmFX6Ad.s 			page 12


 244:c:\programdata\chocolatey\lib\gcc-arm-embedded\tools\gcc-arm-none-eabi-10-2020-q4-major\arm-none-eabi\include\c++\10.2.1\bits\stl_algobase.h ****    *  @param  __b  Another thing of arbitrary type.
 245:c:\programdata\chocolatey\lib\gcc-arm-embedded\tools\gcc-arm-none-eabi-10-2020-q4-major\arm-none-eabi\include\c++\10.2.1\bits\stl_algobase.h ****    *  @return   The greater of the parameters.
 246:c:\programdata\chocolatey\lib\gcc-arm-embedded\tools\gcc-arm-none-eabi-10-2020-q4-major\arm-none-eabi\include\c++\10.2.1\bits\stl_algobase.h ****    *
 247:c:\programdata\chocolatey\lib\gcc-arm-embedded\tools\gcc-arm-none-eabi-10-2020-q4-major\arm-none-eabi\include\c++\10.2.1\bits\stl_algobase.h ****    *  This is the simple classic generic implementation.  It will work on
 248:c:\programdata\chocolatey\lib\gcc-arm-embedded\tools\gcc-arm-none-eabi-10-2020-q4-major\arm-none-eabi\include\c++\10.2.1\bits\stl_algobase.h ****    *  temporary expressions, since they are only evaluated once, unlike a
 249:c:\programdata\chocolatey\lib\gcc-arm-embedded\tools\gcc-arm-none-eabi-10-2020-q4-major\arm-none-eabi\include\c++\10.2.1\bits\stl_algobase.h ****    *  preprocessor macro.
 250:c:\programdata\chocolatey\lib\gcc-arm-embedded\tools\gcc-arm-none-eabi-10-2020-q4-major\arm-none-eabi\include\c++\10.2.1\bits\stl_algobase.h ****   */
 251:c:\programdata\chocolatey\lib\gcc-arm-embedded\tools\gcc-arm-none-eabi-10-2020-q4-major\arm-none-eabi\include\c++\10.2.1\bits\stl_algobase.h ****   template<typename _Tp>
 252:c:\programdata\chocolatey\lib\gcc-arm-embedded\tools\gcc-arm-none-eabi-10-2020-q4-major\arm-none-eabi\include\c++\10.2.1\bits\stl_algobase.h ****     _GLIBCXX14_CONSTEXPR
 253:c:\programdata\chocolatey\lib\gcc-arm-embedded\tools\gcc-arm-none-eabi-10-2020-q4-major\arm-none-eabi\include\c++\10.2.1\bits\stl_algobase.h ****     inline const _Tp&
 254:c:\programdata\chocolatey\lib\gcc-arm-embedded\tools\gcc-arm-none-eabi-10-2020-q4-major\arm-none-eabi\include\c++\10.2.1\bits\stl_algobase.h ****     max(const _Tp& __a, const _Tp& __b)
 255:c:\programdata\chocolatey\lib\gcc-arm-embedded\tools\gcc-arm-none-eabi-10-2020-q4-major\arm-none-eabi\include\c++\10.2.1\bits\stl_algobase.h ****     {
 256:c:\programdata\chocolatey\lib\gcc-arm-embedded\tools\gcc-arm-none-eabi-10-2020-q4-major\arm-none-eabi\include\c++\10.2.1\bits\stl_algobase.h ****       // concept requirements
 257:c:\programdata\chocolatey\lib\gcc-arm-embedded\tools\gcc-arm-none-eabi-10-2020-q4-major\arm-none-eabi\include\c++\10.2.1\bits\stl_algobase.h ****       __glibcxx_function_requires(_LessThanComparableConcept<_Tp>)
 258:c:\programdata\chocolatey\lib\gcc-arm-embedded\tools\gcc-arm-none-eabi-10-2020-q4-major\arm-none-eabi\include\c++\10.2.1\bits\stl_algobase.h ****       //return  __a < __b ? __b : __a;
 259:c:\programdata\chocolatey\lib\gcc-arm-embedded\tools\gcc-arm-none-eabi-10-2020-q4-major\arm-none-eabi\include\c++\10.2.1\bits\stl_algobase.h ****       if (__a < __b)
 260:c:\programdata\chocolatey\lib\gcc-arm-embedded\tools\gcc-arm-none-eabi-10-2020-q4-major\arm-none-eabi\include\c++\10.2.1\bits\stl_algobase.h **** 	return __b;
 261:c:\programdata\chocolatey\lib\gcc-arm-embedded\tools\gcc-arm-none-eabi-10-2020-q4-major\arm-none-eabi\include\c++\10.2.1\bits\stl_algobase.h ****       return __a;
 262:c:\programdata\chocolatey\lib\gcc-arm-embedded\tools\gcc-arm-none-eabi-10-2020-q4-major\arm-none-eabi\include\c++\10.2.1\bits\stl_algobase.h ****     }
 263:c:\programdata\chocolatey\lib\gcc-arm-embedded\tools\gcc-arm-none-eabi-10-2020-q4-major\arm-none-eabi\include\c++\10.2.1\bits\stl_algobase.h **** 
 264:c:\programdata\chocolatey\lib\gcc-arm-embedded\tools\gcc-arm-none-eabi-10-2020-q4-major\arm-none-eabi\include\c++\10.2.1\bits\stl_algobase.h ****   /**
 265:c:\programdata\chocolatey\lib\gcc-arm-embedded\tools\gcc-arm-none-eabi-10-2020-q4-major\arm-none-eabi\include\c++\10.2.1\bits\stl_algobase.h ****    *  @brief This does what you think it does.
 266:c:\programdata\chocolatey\lib\gcc-arm-embedded\tools\gcc-arm-none-eabi-10-2020-q4-major\arm-none-eabi\include\c++\10.2.1\bits\stl_algobase.h ****    *  @ingroup sorting_algorithms
 267:c:\programdata\chocolatey\lib\gcc-arm-embedded\tools\gcc-arm-none-eabi-10-2020-q4-major\arm-none-eabi\include\c++\10.2.1\bits\stl_algobase.h ****    *  @param  __a  A thing of arbitrary type.
 268:c:\programdata\chocolatey\lib\gcc-arm-embedded\tools\gcc-arm-none-eabi-10-2020-q4-major\arm-none-eabi\include\c++\10.2.1\bits\stl_algobase.h ****    *  @param  __b  Another thing of arbitrary type.
 269:c:\programdata\chocolatey\lib\gcc-arm-embedded\tools\gcc-arm-none-eabi-10-2020-q4-major\arm-none-eabi\include\c++\10.2.1\bits\stl_algobase.h ****    *  @param  __comp  A @link comparison_functors comparison functor@endlink.
 270:c:\programdata\chocolatey\lib\gcc-arm-embedded\tools\gcc-arm-none-eabi-10-2020-q4-major\arm-none-eabi\include\c++\10.2.1\bits\stl_algobase.h ****    *  @return   The lesser of the parameters.
 271:c:\programdata\chocolatey\lib\gcc-arm-embedded\tools\gcc-arm-none-eabi-10-2020-q4-major\arm-none-eabi\include\c++\10.2.1\bits\stl_algobase.h ****    *
 272:c:\programdata\chocolatey\lib\gcc-arm-embedded\tools\gcc-arm-none-eabi-10-2020-q4-major\arm-none-eabi\include\c++\10.2.1\bits\stl_algobase.h ****    *  This will work on temporary expressions, since they are only evaluated
 273:c:\programdata\chocolatey\lib\gcc-arm-embedded\tools\gcc-arm-none-eabi-10-2020-q4-major\arm-none-eabi\include\c++\10.2.1\bits\stl_algobase.h ****    *  once, unlike a preprocessor macro.
 274:c:\programdata\chocolatey\lib\gcc-arm-embedded\tools\gcc-arm-none-eabi-10-2020-q4-major\arm-none-eabi\include\c++\10.2.1\bits\stl_algobase.h ****   */
 275:c:\programdata\chocolatey\lib\gcc-arm-embedded\tools\gcc-arm-none-eabi-10-2020-q4-major\arm-none-eabi\include\c++\10.2.1\bits\stl_algobase.h ****   template<typename _Tp, typename _Compare>
 276:c:\programdata\chocolatey\lib\gcc-arm-embedded\tools\gcc-arm-none-eabi-10-2020-q4-major\arm-none-eabi\include\c++\10.2.1\bits\stl_algobase.h ****     _GLIBCXX14_CONSTEXPR
 277:c:\programdata\chocolatey\lib\gcc-arm-embedded\tools\gcc-arm-none-eabi-10-2020-q4-major\arm-none-eabi\include\c++\10.2.1\bits\stl_algobase.h ****     inline const _Tp&
 278:c:\programdata\chocolatey\lib\gcc-arm-embedded\tools\gcc-arm-none-eabi-10-2020-q4-major\arm-none-eabi\include\c++\10.2.1\bits\stl_algobase.h ****     min(const _Tp& __a, const _Tp& __b, _Compare __comp)
 279:c:\programdata\chocolatey\lib\gcc-arm-embedded\tools\gcc-arm-none-eabi-10-2020-q4-major\arm-none-eabi\include\c++\10.2.1\bits\stl_algobase.h ****     {
 280:c:\programdata\chocolatey\lib\gcc-arm-embedded\tools\gcc-arm-none-eabi-10-2020-q4-major\arm-none-eabi\include\c++\10.2.1\bits\stl_algobase.h ****       //return __comp(__b, __a) ? __b : __a;
 281:c:\programdata\chocolatey\lib\gcc-arm-embedded\tools\gcc-arm-none-eabi-10-2020-q4-major\arm-none-eabi\include\c++\10.2.1\bits\stl_algobase.h ****       if (__comp(__b, __a))
 282:c:\programdata\chocolatey\lib\gcc-arm-embedded\tools\gcc-arm-none-eabi-10-2020-q4-major\arm-none-eabi\include\c++\10.2.1\bits\stl_algobase.h **** 	return __b;
 283:c:\programdata\chocolatey\lib\gcc-arm-embedded\tools\gcc-arm-none-eabi-10-2020-q4-major\arm-none-eabi\include\c++\10.2.1\bits\stl_algobase.h ****       return __a;
 284:c:\programdata\chocolatey\lib\gcc-arm-embedded\tools\gcc-arm-none-eabi-10-2020-q4-major\arm-none-eabi\include\c++\10.2.1\bits\stl_algobase.h ****     }
 285:c:\programdata\chocolatey\lib\gcc-arm-embedded\tools\gcc-arm-none-eabi-10-2020-q4-major\arm-none-eabi\include\c++\10.2.1\bits\stl_algobase.h **** 
 286:c:\programdata\chocolatey\lib\gcc-arm-embedded\tools\gcc-arm-none-eabi-10-2020-q4-major\arm-none-eabi\include\c++\10.2.1\bits\stl_algobase.h ****   /**
 287:c:\programdata\chocolatey\lib\gcc-arm-embedded\tools\gcc-arm-none-eabi-10-2020-q4-major\arm-none-eabi\include\c++\10.2.1\bits\stl_algobase.h ****    *  @brief This does what you think it does.
 288:c:\programdata\chocolatey\lib\gcc-arm-embedded\tools\gcc-arm-none-eabi-10-2020-q4-major\arm-none-eabi\include\c++\10.2.1\bits\stl_algobase.h ****    *  @ingroup sorting_algorithms
 289:c:\programdata\chocolatey\lib\gcc-arm-embedded\tools\gcc-arm-none-eabi-10-2020-q4-major\arm-none-eabi\include\c++\10.2.1\bits\stl_algobase.h ****    *  @param  __a  A thing of arbitrary type.
 290:c:\programdata\chocolatey\lib\gcc-arm-embedded\tools\gcc-arm-none-eabi-10-2020-q4-major\arm-none-eabi\include\c++\10.2.1\bits\stl_algobase.h ****    *  @param  __b  Another thing of arbitrary type.
 291:c:\programdata\chocolatey\lib\gcc-arm-embedded\tools\gcc-arm-none-eabi-10-2020-q4-major\arm-none-eabi\include\c++\10.2.1\bits\stl_algobase.h ****    *  @param  __comp  A @link comparison_functors comparison functor@endlink.
 292:c:\programdata\chocolatey\lib\gcc-arm-embedded\tools\gcc-arm-none-eabi-10-2020-q4-major\arm-none-eabi\include\c++\10.2.1\bits\stl_algobase.h ****    *  @return   The greater of the parameters.
 293:c:\programdata\chocolatey\lib\gcc-arm-embedded\tools\gcc-arm-none-eabi-10-2020-q4-major\arm-none-eabi\include\c++\10.2.1\bits\stl_algobase.h ****    *
 294:c:\programdata\chocolatey\lib\gcc-arm-embedded\tools\gcc-arm-none-eabi-10-2020-q4-major\arm-none-eabi\include\c++\10.2.1\bits\stl_algobase.h ****    *  This will work on temporary expressions, since they are only evaluated
 295:c:\programdata\chocolatey\lib\gcc-arm-embedded\tools\gcc-arm-none-eabi-10-2020-q4-major\arm-none-eabi\include\c++\10.2.1\bits\stl_algobase.h ****    *  once, unlike a preprocessor macro.
 296:c:\programdata\chocolatey\lib\gcc-arm-embedded\tools\gcc-arm-none-eabi-10-2020-q4-major\arm-none-eabi\include\c++\10.2.1\bits\stl_algobase.h ****   */
 297:c:\programdata\chocolatey\lib\gcc-arm-embedded\tools\gcc-arm-none-eabi-10-2020-q4-major\arm-none-eabi\include\c++\10.2.1\bits\stl_algobase.h ****   template<typename _Tp, typename _Compare>
 298:c:\programdata\chocolatey\lib\gcc-arm-embedded\tools\gcc-arm-none-eabi-10-2020-q4-major\arm-none-eabi\include\c++\10.2.1\bits\stl_algobase.h ****     _GLIBCXX14_CONSTEXPR
 299:c:\programdata\chocolatey\lib\gcc-arm-embedded\tools\gcc-arm-none-eabi-10-2020-q4-major\arm-none-eabi\include\c++\10.2.1\bits\stl_algobase.h ****     inline const _Tp&
 300:c:\programdata\chocolatey\lib\gcc-arm-embedded\tools\gcc-arm-none-eabi-10-2020-q4-major\arm-none-eabi\include\c++\10.2.1\bits\stl_algobase.h ****     max(const _Tp& __a, const _Tp& __b, _Compare __comp)
ARM GAS  C:\Users\daniel\AppData\Local\Temp\ccmFX6Ad.s 			page 13


 301:c:\programdata\chocolatey\lib\gcc-arm-embedded\tools\gcc-arm-none-eabi-10-2020-q4-major\arm-none-eabi\include\c++\10.2.1\bits\stl_algobase.h ****     {
 302:c:\programdata\chocolatey\lib\gcc-arm-embedded\tools\gcc-arm-none-eabi-10-2020-q4-major\arm-none-eabi\include\c++\10.2.1\bits\stl_algobase.h ****       //return __comp(__a, __b) ? __b : __a;
 303:c:\programdata\chocolatey\lib\gcc-arm-embedded\tools\gcc-arm-none-eabi-10-2020-q4-major\arm-none-eabi\include\c++\10.2.1\bits\stl_algobase.h ****       if (__comp(__a, __b))
 304:c:\programdata\chocolatey\lib\gcc-arm-embedded\tools\gcc-arm-none-eabi-10-2020-q4-major\arm-none-eabi\include\c++\10.2.1\bits\stl_algobase.h **** 	return __b;
 305:c:\programdata\chocolatey\lib\gcc-arm-embedded\tools\gcc-arm-none-eabi-10-2020-q4-major\arm-none-eabi\include\c++\10.2.1\bits\stl_algobase.h ****       return __a;
 306:c:\programdata\chocolatey\lib\gcc-arm-embedded\tools\gcc-arm-none-eabi-10-2020-q4-major\arm-none-eabi\include\c++\10.2.1\bits\stl_algobase.h ****     }
 307:c:\programdata\chocolatey\lib\gcc-arm-embedded\tools\gcc-arm-none-eabi-10-2020-q4-major\arm-none-eabi\include\c++\10.2.1\bits\stl_algobase.h **** 
 308:c:\programdata\chocolatey\lib\gcc-arm-embedded\tools\gcc-arm-none-eabi-10-2020-q4-major\arm-none-eabi\include\c++\10.2.1\bits\stl_algobase.h ****   // Fallback implementation of the function in bits/stl_iterator.h used to
 309:c:\programdata\chocolatey\lib\gcc-arm-embedded\tools\gcc-arm-none-eabi-10-2020-q4-major\arm-none-eabi\include\c++\10.2.1\bits\stl_algobase.h ****   // remove the __normal_iterator wrapper. See copy, fill, ...
 310:c:\programdata\chocolatey\lib\gcc-arm-embedded\tools\gcc-arm-none-eabi-10-2020-q4-major\arm-none-eabi\include\c++\10.2.1\bits\stl_algobase.h ****   template<typename _Iterator>
 311:c:\programdata\chocolatey\lib\gcc-arm-embedded\tools\gcc-arm-none-eabi-10-2020-q4-major\arm-none-eabi\include\c++\10.2.1\bits\stl_algobase.h ****     _GLIBCXX20_CONSTEXPR
 312:c:\programdata\chocolatey\lib\gcc-arm-embedded\tools\gcc-arm-none-eabi-10-2020-q4-major\arm-none-eabi\include\c++\10.2.1\bits\stl_algobase.h ****     inline _Iterator
 313:c:\programdata\chocolatey\lib\gcc-arm-embedded\tools\gcc-arm-none-eabi-10-2020-q4-major\arm-none-eabi\include\c++\10.2.1\bits\stl_algobase.h ****     __niter_base(_Iterator __it)
 314:c:\programdata\chocolatey\lib\gcc-arm-embedded\tools\gcc-arm-none-eabi-10-2020-q4-major\arm-none-eabi\include\c++\10.2.1\bits\stl_algobase.h ****     _GLIBCXX_NOEXCEPT_IF(std::is_nothrow_copy_constructible<_Iterator>::value)
 315:c:\programdata\chocolatey\lib\gcc-arm-embedded\tools\gcc-arm-none-eabi-10-2020-q4-major\arm-none-eabi\include\c++\10.2.1\bits\stl_algobase.h ****     { return __it; }
 316:c:\programdata\chocolatey\lib\gcc-arm-embedded\tools\gcc-arm-none-eabi-10-2020-q4-major\arm-none-eabi\include\c++\10.2.1\bits\stl_algobase.h **** 
 317:c:\programdata\chocolatey\lib\gcc-arm-embedded\tools\gcc-arm-none-eabi-10-2020-q4-major\arm-none-eabi\include\c++\10.2.1\bits\stl_algobase.h ****   // Reverse the __niter_base transformation to get a
 318:c:\programdata\chocolatey\lib\gcc-arm-embedded\tools\gcc-arm-none-eabi-10-2020-q4-major\arm-none-eabi\include\c++\10.2.1\bits\stl_algobase.h ****   // __normal_iterator back again (this assumes that __normal_iterator
 319:c:\programdata\chocolatey\lib\gcc-arm-embedded\tools\gcc-arm-none-eabi-10-2020-q4-major\arm-none-eabi\include\c++\10.2.1\bits\stl_algobase.h ****   // is only used to wrap random access iterators, like pointers).
 320:c:\programdata\chocolatey\lib\gcc-arm-embedded\tools\gcc-arm-none-eabi-10-2020-q4-major\arm-none-eabi\include\c++\10.2.1\bits\stl_algobase.h ****   template<typename _From, typename _To>
 321:c:\programdata\chocolatey\lib\gcc-arm-embedded\tools\gcc-arm-none-eabi-10-2020-q4-major\arm-none-eabi\include\c++\10.2.1\bits\stl_algobase.h ****     _GLIBCXX20_CONSTEXPR
 322:c:\programdata\chocolatey\lib\gcc-arm-embedded\tools\gcc-arm-none-eabi-10-2020-q4-major\arm-none-eabi\include\c++\10.2.1\bits\stl_algobase.h ****     inline _From
 323:c:\programdata\chocolatey\lib\gcc-arm-embedded\tools\gcc-arm-none-eabi-10-2020-q4-major\arm-none-eabi\include\c++\10.2.1\bits\stl_algobase.h ****     __niter_wrap(_From __from, _To __res)
 324:c:\programdata\chocolatey\lib\gcc-arm-embedded\tools\gcc-arm-none-eabi-10-2020-q4-major\arm-none-eabi\include\c++\10.2.1\bits\stl_algobase.h ****     { return __from + (__res - std::__niter_base(__from)); }
 325:c:\programdata\chocolatey\lib\gcc-arm-embedded\tools\gcc-arm-none-eabi-10-2020-q4-major\arm-none-eabi\include\c++\10.2.1\bits\stl_algobase.h **** 
 326:c:\programdata\chocolatey\lib\gcc-arm-embedded\tools\gcc-arm-none-eabi-10-2020-q4-major\arm-none-eabi\include\c++\10.2.1\bits\stl_algobase.h ****   // No need to wrap, iterator already has the right type.
 327:c:\programdata\chocolatey\lib\gcc-arm-embedded\tools\gcc-arm-none-eabi-10-2020-q4-major\arm-none-eabi\include\c++\10.2.1\bits\stl_algobase.h ****   template<typename _Iterator>
 328:c:\programdata\chocolatey\lib\gcc-arm-embedded\tools\gcc-arm-none-eabi-10-2020-q4-major\arm-none-eabi\include\c++\10.2.1\bits\stl_algobase.h ****     _GLIBCXX20_CONSTEXPR
 329:c:\programdata\chocolatey\lib\gcc-arm-embedded\tools\gcc-arm-none-eabi-10-2020-q4-major\arm-none-eabi\include\c++\10.2.1\bits\stl_algobase.h ****     inline _Iterator
 330:c:\programdata\chocolatey\lib\gcc-arm-embedded\tools\gcc-arm-none-eabi-10-2020-q4-major\arm-none-eabi\include\c++\10.2.1\bits\stl_algobase.h ****     __niter_wrap(const _Iterator&, _Iterator __res)
 331:c:\programdata\chocolatey\lib\gcc-arm-embedded\tools\gcc-arm-none-eabi-10-2020-q4-major\arm-none-eabi\include\c++\10.2.1\bits\stl_algobase.h ****     { return __res; }
 332:c:\programdata\chocolatey\lib\gcc-arm-embedded\tools\gcc-arm-none-eabi-10-2020-q4-major\arm-none-eabi\include\c++\10.2.1\bits\stl_algobase.h **** 
 333:c:\programdata\chocolatey\lib\gcc-arm-embedded\tools\gcc-arm-none-eabi-10-2020-q4-major\arm-none-eabi\include\c++\10.2.1\bits\stl_algobase.h ****   // All of these auxiliary structs serve two purposes.  (1) Replace
 334:c:\programdata\chocolatey\lib\gcc-arm-embedded\tools\gcc-arm-none-eabi-10-2020-q4-major\arm-none-eabi\include\c++\10.2.1\bits\stl_algobase.h ****   // calls to copy with memmove whenever possible.  (Memmove, not memcpy,
 335:c:\programdata\chocolatey\lib\gcc-arm-embedded\tools\gcc-arm-none-eabi-10-2020-q4-major\arm-none-eabi\include\c++\10.2.1\bits\stl_algobase.h ****   // because the input and output ranges are permitted to overlap.)
 336:c:\programdata\chocolatey\lib\gcc-arm-embedded\tools\gcc-arm-none-eabi-10-2020-q4-major\arm-none-eabi\include\c++\10.2.1\bits\stl_algobase.h ****   // (2) If we're using random access iterators, then write the loop as
 337:c:\programdata\chocolatey\lib\gcc-arm-embedded\tools\gcc-arm-none-eabi-10-2020-q4-major\arm-none-eabi\include\c++\10.2.1\bits\stl_algobase.h ****   // a for loop with an explicit count.
 338:c:\programdata\chocolatey\lib\gcc-arm-embedded\tools\gcc-arm-none-eabi-10-2020-q4-major\arm-none-eabi\include\c++\10.2.1\bits\stl_algobase.h **** 
 339:c:\programdata\chocolatey\lib\gcc-arm-embedded\tools\gcc-arm-none-eabi-10-2020-q4-major\arm-none-eabi\include\c++\10.2.1\bits\stl_algobase.h ****   template<bool _IsMove, bool _IsSimple, typename _Category>
 340:c:\programdata\chocolatey\lib\gcc-arm-embedded\tools\gcc-arm-none-eabi-10-2020-q4-major\arm-none-eabi\include\c++\10.2.1\bits\stl_algobase.h ****     struct __copy_move
 341:c:\programdata\chocolatey\lib\gcc-arm-embedded\tools\gcc-arm-none-eabi-10-2020-q4-major\arm-none-eabi\include\c++\10.2.1\bits\stl_algobase.h ****     {
 342:c:\programdata\chocolatey\lib\gcc-arm-embedded\tools\gcc-arm-none-eabi-10-2020-q4-major\arm-none-eabi\include\c++\10.2.1\bits\stl_algobase.h ****       template<typename _II, typename _OI>
 343:c:\programdata\chocolatey\lib\gcc-arm-embedded\tools\gcc-arm-none-eabi-10-2020-q4-major\arm-none-eabi\include\c++\10.2.1\bits\stl_algobase.h **** 	_GLIBCXX20_CONSTEXPR
 344:c:\programdata\chocolatey\lib\gcc-arm-embedded\tools\gcc-arm-none-eabi-10-2020-q4-major\arm-none-eabi\include\c++\10.2.1\bits\stl_algobase.h **** 	static _OI
 345:c:\programdata\chocolatey\lib\gcc-arm-embedded\tools\gcc-arm-none-eabi-10-2020-q4-major\arm-none-eabi\include\c++\10.2.1\bits\stl_algobase.h **** 	__copy_m(_II __first, _II __last, _OI __result)
 346:c:\programdata\chocolatey\lib\gcc-arm-embedded\tools\gcc-arm-none-eabi-10-2020-q4-major\arm-none-eabi\include\c++\10.2.1\bits\stl_algobase.h **** 	{
 347:c:\programdata\chocolatey\lib\gcc-arm-embedded\tools\gcc-arm-none-eabi-10-2020-q4-major\arm-none-eabi\include\c++\10.2.1\bits\stl_algobase.h **** 	  for (; __first != __last; ++__result, (void)++__first)
 348:c:\programdata\chocolatey\lib\gcc-arm-embedded\tools\gcc-arm-none-eabi-10-2020-q4-major\arm-none-eabi\include\c++\10.2.1\bits\stl_algobase.h **** 	    *__result = *__first;
 349:c:\programdata\chocolatey\lib\gcc-arm-embedded\tools\gcc-arm-none-eabi-10-2020-q4-major\arm-none-eabi\include\c++\10.2.1\bits\stl_algobase.h **** 	  return __result;
 350:c:\programdata\chocolatey\lib\gcc-arm-embedded\tools\gcc-arm-none-eabi-10-2020-q4-major\arm-none-eabi\include\c++\10.2.1\bits\stl_algobase.h **** 	}
 351:c:\programdata\chocolatey\lib\gcc-arm-embedded\tools\gcc-arm-none-eabi-10-2020-q4-major\arm-none-eabi\include\c++\10.2.1\bits\stl_algobase.h ****     };
 352:c:\programdata\chocolatey\lib\gcc-arm-embedded\tools\gcc-arm-none-eabi-10-2020-q4-major\arm-none-eabi\include\c++\10.2.1\bits\stl_algobase.h **** 
 353:c:\programdata\chocolatey\lib\gcc-arm-embedded\tools\gcc-arm-none-eabi-10-2020-q4-major\arm-none-eabi\include\c++\10.2.1\bits\stl_algobase.h **** #if __cplusplus >= 201103L
 354:c:\programdata\chocolatey\lib\gcc-arm-embedded\tools\gcc-arm-none-eabi-10-2020-q4-major\arm-none-eabi\include\c++\10.2.1\bits\stl_algobase.h ****   template<typename _Category>
 355:c:\programdata\chocolatey\lib\gcc-arm-embedded\tools\gcc-arm-none-eabi-10-2020-q4-major\arm-none-eabi\include\c++\10.2.1\bits\stl_algobase.h ****     struct __copy_move<true, false, _Category>
 356:c:\programdata\chocolatey\lib\gcc-arm-embedded\tools\gcc-arm-none-eabi-10-2020-q4-major\arm-none-eabi\include\c++\10.2.1\bits\stl_algobase.h ****     {
 357:c:\programdata\chocolatey\lib\gcc-arm-embedded\tools\gcc-arm-none-eabi-10-2020-q4-major\arm-none-eabi\include\c++\10.2.1\bits\stl_algobase.h ****       template<typename _II, typename _OI>
ARM GAS  C:\Users\daniel\AppData\Local\Temp\ccmFX6Ad.s 			page 14


 358:c:\programdata\chocolatey\lib\gcc-arm-embedded\tools\gcc-arm-none-eabi-10-2020-q4-major\arm-none-eabi\include\c++\10.2.1\bits\stl_algobase.h **** 	_GLIBCXX20_CONSTEXPR
 359:c:\programdata\chocolatey\lib\gcc-arm-embedded\tools\gcc-arm-none-eabi-10-2020-q4-major\arm-none-eabi\include\c++\10.2.1\bits\stl_algobase.h **** 	static _OI
 360:c:\programdata\chocolatey\lib\gcc-arm-embedded\tools\gcc-arm-none-eabi-10-2020-q4-major\arm-none-eabi\include\c++\10.2.1\bits\stl_algobase.h **** 	__copy_m(_II __first, _II __last, _OI __result)
 361:c:\programdata\chocolatey\lib\gcc-arm-embedded\tools\gcc-arm-none-eabi-10-2020-q4-major\arm-none-eabi\include\c++\10.2.1\bits\stl_algobase.h **** 	{
 362:c:\programdata\chocolatey\lib\gcc-arm-embedded\tools\gcc-arm-none-eabi-10-2020-q4-major\arm-none-eabi\include\c++\10.2.1\bits\stl_algobase.h **** 	  for (; __first != __last; ++__result, (void)++__first)
 363:c:\programdata\chocolatey\lib\gcc-arm-embedded\tools\gcc-arm-none-eabi-10-2020-q4-major\arm-none-eabi\include\c++\10.2.1\bits\stl_algobase.h **** 	    *__result = std::move(*__first);
 364:c:\programdata\chocolatey\lib\gcc-arm-embedded\tools\gcc-arm-none-eabi-10-2020-q4-major\arm-none-eabi\include\c++\10.2.1\bits\stl_algobase.h **** 	  return __result;
 365:c:\programdata\chocolatey\lib\gcc-arm-embedded\tools\gcc-arm-none-eabi-10-2020-q4-major\arm-none-eabi\include\c++\10.2.1\bits\stl_algobase.h **** 	}
 366:c:\programdata\chocolatey\lib\gcc-arm-embedded\tools\gcc-arm-none-eabi-10-2020-q4-major\arm-none-eabi\include\c++\10.2.1\bits\stl_algobase.h ****     };
 367:c:\programdata\chocolatey\lib\gcc-arm-embedded\tools\gcc-arm-none-eabi-10-2020-q4-major\arm-none-eabi\include\c++\10.2.1\bits\stl_algobase.h **** #endif
 368:c:\programdata\chocolatey\lib\gcc-arm-embedded\tools\gcc-arm-none-eabi-10-2020-q4-major\arm-none-eabi\include\c++\10.2.1\bits\stl_algobase.h **** 
 369:c:\programdata\chocolatey\lib\gcc-arm-embedded\tools\gcc-arm-none-eabi-10-2020-q4-major\arm-none-eabi\include\c++\10.2.1\bits\stl_algobase.h ****   template<>
 370:c:\programdata\chocolatey\lib\gcc-arm-embedded\tools\gcc-arm-none-eabi-10-2020-q4-major\arm-none-eabi\include\c++\10.2.1\bits\stl_algobase.h ****     struct __copy_move<false, false, random_access_iterator_tag>
 371:c:\programdata\chocolatey\lib\gcc-arm-embedded\tools\gcc-arm-none-eabi-10-2020-q4-major\arm-none-eabi\include\c++\10.2.1\bits\stl_algobase.h ****     {
 372:c:\programdata\chocolatey\lib\gcc-arm-embedded\tools\gcc-arm-none-eabi-10-2020-q4-major\arm-none-eabi\include\c++\10.2.1\bits\stl_algobase.h ****       template<typename _II, typename _OI>
 373:c:\programdata\chocolatey\lib\gcc-arm-embedded\tools\gcc-arm-none-eabi-10-2020-q4-major\arm-none-eabi\include\c++\10.2.1\bits\stl_algobase.h **** 	_GLIBCXX20_CONSTEXPR
 374:c:\programdata\chocolatey\lib\gcc-arm-embedded\tools\gcc-arm-none-eabi-10-2020-q4-major\arm-none-eabi\include\c++\10.2.1\bits\stl_algobase.h **** 	static _OI
 375:c:\programdata\chocolatey\lib\gcc-arm-embedded\tools\gcc-arm-none-eabi-10-2020-q4-major\arm-none-eabi\include\c++\10.2.1\bits\stl_algobase.h **** 	__copy_m(_II __first, _II __last, _OI __result)
 376:c:\programdata\chocolatey\lib\gcc-arm-embedded\tools\gcc-arm-none-eabi-10-2020-q4-major\arm-none-eabi\include\c++\10.2.1\bits\stl_algobase.h **** 	{
 377:c:\programdata\chocolatey\lib\gcc-arm-embedded\tools\gcc-arm-none-eabi-10-2020-q4-major\arm-none-eabi\include\c++\10.2.1\bits\stl_algobase.h **** 	  typedef typename iterator_traits<_II>::difference_type _Distance;
 378:c:\programdata\chocolatey\lib\gcc-arm-embedded\tools\gcc-arm-none-eabi-10-2020-q4-major\arm-none-eabi\include\c++\10.2.1\bits\stl_algobase.h **** 	  for(_Distance __n = __last - __first; __n > 0; --__n)
 379:c:\programdata\chocolatey\lib\gcc-arm-embedded\tools\gcc-arm-none-eabi-10-2020-q4-major\arm-none-eabi\include\c++\10.2.1\bits\stl_algobase.h **** 	    {
 380:c:\programdata\chocolatey\lib\gcc-arm-embedded\tools\gcc-arm-none-eabi-10-2020-q4-major\arm-none-eabi\include\c++\10.2.1\bits\stl_algobase.h **** 	      *__result = *__first;
 381:c:\programdata\chocolatey\lib\gcc-arm-embedded\tools\gcc-arm-none-eabi-10-2020-q4-major\arm-none-eabi\include\c++\10.2.1\bits\stl_algobase.h **** 	      ++__first;
 382:c:\programdata\chocolatey\lib\gcc-arm-embedded\tools\gcc-arm-none-eabi-10-2020-q4-major\arm-none-eabi\include\c++\10.2.1\bits\stl_algobase.h **** 	      ++__result;
 383:c:\programdata\chocolatey\lib\gcc-arm-embedded\tools\gcc-arm-none-eabi-10-2020-q4-major\arm-none-eabi\include\c++\10.2.1\bits\stl_algobase.h **** 	    }
 384:c:\programdata\chocolatey\lib\gcc-arm-embedded\tools\gcc-arm-none-eabi-10-2020-q4-major\arm-none-eabi\include\c++\10.2.1\bits\stl_algobase.h **** 	  return __result;
 385:c:\programdata\chocolatey\lib\gcc-arm-embedded\tools\gcc-arm-none-eabi-10-2020-q4-major\arm-none-eabi\include\c++\10.2.1\bits\stl_algobase.h **** 	}
 386:c:\programdata\chocolatey\lib\gcc-arm-embedded\tools\gcc-arm-none-eabi-10-2020-q4-major\arm-none-eabi\include\c++\10.2.1\bits\stl_algobase.h ****     };
 387:c:\programdata\chocolatey\lib\gcc-arm-embedded\tools\gcc-arm-none-eabi-10-2020-q4-major\arm-none-eabi\include\c++\10.2.1\bits\stl_algobase.h **** 
 388:c:\programdata\chocolatey\lib\gcc-arm-embedded\tools\gcc-arm-none-eabi-10-2020-q4-major\arm-none-eabi\include\c++\10.2.1\bits\stl_algobase.h **** #if __cplusplus >= 201103L
 389:c:\programdata\chocolatey\lib\gcc-arm-embedded\tools\gcc-arm-none-eabi-10-2020-q4-major\arm-none-eabi\include\c++\10.2.1\bits\stl_algobase.h ****   template<>
 390:c:\programdata\chocolatey\lib\gcc-arm-embedded\tools\gcc-arm-none-eabi-10-2020-q4-major\arm-none-eabi\include\c++\10.2.1\bits\stl_algobase.h ****     struct __copy_move<true, false, random_access_iterator_tag>
 391:c:\programdata\chocolatey\lib\gcc-arm-embedded\tools\gcc-arm-none-eabi-10-2020-q4-major\arm-none-eabi\include\c++\10.2.1\bits\stl_algobase.h ****     {
 392:c:\programdata\chocolatey\lib\gcc-arm-embedded\tools\gcc-arm-none-eabi-10-2020-q4-major\arm-none-eabi\include\c++\10.2.1\bits\stl_algobase.h ****       template<typename _II, typename _OI>
 393:c:\programdata\chocolatey\lib\gcc-arm-embedded\tools\gcc-arm-none-eabi-10-2020-q4-major\arm-none-eabi\include\c++\10.2.1\bits\stl_algobase.h **** 	_GLIBCXX20_CONSTEXPR
 394:c:\programdata\chocolatey\lib\gcc-arm-embedded\tools\gcc-arm-none-eabi-10-2020-q4-major\arm-none-eabi\include\c++\10.2.1\bits\stl_algobase.h **** 	static _OI
 395:c:\programdata\chocolatey\lib\gcc-arm-embedded\tools\gcc-arm-none-eabi-10-2020-q4-major\arm-none-eabi\include\c++\10.2.1\bits\stl_algobase.h **** 	__copy_m(_II __first, _II __last, _OI __result)
 396:c:\programdata\chocolatey\lib\gcc-arm-embedded\tools\gcc-arm-none-eabi-10-2020-q4-major\arm-none-eabi\include\c++\10.2.1\bits\stl_algobase.h **** 	{
 397:c:\programdata\chocolatey\lib\gcc-arm-embedded\tools\gcc-arm-none-eabi-10-2020-q4-major\arm-none-eabi\include\c++\10.2.1\bits\stl_algobase.h **** 	  typedef typename iterator_traits<_II>::difference_type _Distance;
 398:c:\programdata\chocolatey\lib\gcc-arm-embedded\tools\gcc-arm-none-eabi-10-2020-q4-major\arm-none-eabi\include\c++\10.2.1\bits\stl_algobase.h **** 	  for(_Distance __n = __last - __first; __n > 0; --__n)
 399:c:\programdata\chocolatey\lib\gcc-arm-embedded\tools\gcc-arm-none-eabi-10-2020-q4-major\arm-none-eabi\include\c++\10.2.1\bits\stl_algobase.h **** 	    {
 400:c:\programdata\chocolatey\lib\gcc-arm-embedded\tools\gcc-arm-none-eabi-10-2020-q4-major\arm-none-eabi\include\c++\10.2.1\bits\stl_algobase.h **** 	      *__result = std::move(*__first);
 401:c:\programdata\chocolatey\lib\gcc-arm-embedded\tools\gcc-arm-none-eabi-10-2020-q4-major\arm-none-eabi\include\c++\10.2.1\bits\stl_algobase.h **** 	      ++__first;
 402:c:\programdata\chocolatey\lib\gcc-arm-embedded\tools\gcc-arm-none-eabi-10-2020-q4-major\arm-none-eabi\include\c++\10.2.1\bits\stl_algobase.h **** 	      ++__result;
 403:c:\programdata\chocolatey\lib\gcc-arm-embedded\tools\gcc-arm-none-eabi-10-2020-q4-major\arm-none-eabi\include\c++\10.2.1\bits\stl_algobase.h **** 	    }
 404:c:\programdata\chocolatey\lib\gcc-arm-embedded\tools\gcc-arm-none-eabi-10-2020-q4-major\arm-none-eabi\include\c++\10.2.1\bits\stl_algobase.h **** 	  return __result;
 405:c:\programdata\chocolatey\lib\gcc-arm-embedded\tools\gcc-arm-none-eabi-10-2020-q4-major\arm-none-eabi\include\c++\10.2.1\bits\stl_algobase.h **** 	}
 406:c:\programdata\chocolatey\lib\gcc-arm-embedded\tools\gcc-arm-none-eabi-10-2020-q4-major\arm-none-eabi\include\c++\10.2.1\bits\stl_algobase.h ****     };
 407:c:\programdata\chocolatey\lib\gcc-arm-embedded\tools\gcc-arm-none-eabi-10-2020-q4-major\arm-none-eabi\include\c++\10.2.1\bits\stl_algobase.h **** #endif
 408:c:\programdata\chocolatey\lib\gcc-arm-embedded\tools\gcc-arm-none-eabi-10-2020-q4-major\arm-none-eabi\include\c++\10.2.1\bits\stl_algobase.h **** 
 409:c:\programdata\chocolatey\lib\gcc-arm-embedded\tools\gcc-arm-none-eabi-10-2020-q4-major\arm-none-eabi\include\c++\10.2.1\bits\stl_algobase.h ****   template<bool _IsMove>
 410:c:\programdata\chocolatey\lib\gcc-arm-embedded\tools\gcc-arm-none-eabi-10-2020-q4-major\arm-none-eabi\include\c++\10.2.1\bits\stl_algobase.h ****     struct __copy_move<_IsMove, true, random_access_iterator_tag>
 411:c:\programdata\chocolatey\lib\gcc-arm-embedded\tools\gcc-arm-none-eabi-10-2020-q4-major\arm-none-eabi\include\c++\10.2.1\bits\stl_algobase.h ****     {
 412:c:\programdata\chocolatey\lib\gcc-arm-embedded\tools\gcc-arm-none-eabi-10-2020-q4-major\arm-none-eabi\include\c++\10.2.1\bits\stl_algobase.h ****       template<typename _Tp>
 413:c:\programdata\chocolatey\lib\gcc-arm-embedded\tools\gcc-arm-none-eabi-10-2020-q4-major\arm-none-eabi\include\c++\10.2.1\bits\stl_algobase.h **** 	_GLIBCXX20_CONSTEXPR
 414:c:\programdata\chocolatey\lib\gcc-arm-embedded\tools\gcc-arm-none-eabi-10-2020-q4-major\arm-none-eabi\include\c++\10.2.1\bits\stl_algobase.h **** 	static _Tp*
ARM GAS  C:\Users\daniel\AppData\Local\Temp\ccmFX6Ad.s 			page 15


 415:c:\programdata\chocolatey\lib\gcc-arm-embedded\tools\gcc-arm-none-eabi-10-2020-q4-major\arm-none-eabi\include\c++\10.2.1\bits\stl_algobase.h **** 	__copy_m(const _Tp* __first, const _Tp* __last, _Tp* __result)
 416:c:\programdata\chocolatey\lib\gcc-arm-embedded\tools\gcc-arm-none-eabi-10-2020-q4-major\arm-none-eabi\include\c++\10.2.1\bits\stl_algobase.h **** 	{
 417:c:\programdata\chocolatey\lib\gcc-arm-embedded\tools\gcc-arm-none-eabi-10-2020-q4-major\arm-none-eabi\include\c++\10.2.1\bits\stl_algobase.h **** #if __cplusplus >= 201103L
 418:c:\programdata\chocolatey\lib\gcc-arm-embedded\tools\gcc-arm-none-eabi-10-2020-q4-major\arm-none-eabi\include\c++\10.2.1\bits\stl_algobase.h **** 	  using __assignable = conditional<_IsMove,
 419:c:\programdata\chocolatey\lib\gcc-arm-embedded\tools\gcc-arm-none-eabi-10-2020-q4-major\arm-none-eabi\include\c++\10.2.1\bits\stl_algobase.h **** 					   is_move_assignable<_Tp>,
 420:c:\programdata\chocolatey\lib\gcc-arm-embedded\tools\gcc-arm-none-eabi-10-2020-q4-major\arm-none-eabi\include\c++\10.2.1\bits\stl_algobase.h **** 					   is_copy_assignable<_Tp>>;
 421:c:\programdata\chocolatey\lib\gcc-arm-embedded\tools\gcc-arm-none-eabi-10-2020-q4-major\arm-none-eabi\include\c++\10.2.1\bits\stl_algobase.h **** 	  // trivial types can have deleted assignment
 422:c:\programdata\chocolatey\lib\gcc-arm-embedded\tools\gcc-arm-none-eabi-10-2020-q4-major\arm-none-eabi\include\c++\10.2.1\bits\stl_algobase.h **** 	  static_assert( __assignable::type::value, "type is not assignable" );
 423:c:\programdata\chocolatey\lib\gcc-arm-embedded\tools\gcc-arm-none-eabi-10-2020-q4-major\arm-none-eabi\include\c++\10.2.1\bits\stl_algobase.h **** #endif
 424:c:\programdata\chocolatey\lib\gcc-arm-embedded\tools\gcc-arm-none-eabi-10-2020-q4-major\arm-none-eabi\include\c++\10.2.1\bits\stl_algobase.h **** 	  const ptrdiff_t _Num = __last - __first;
 425:c:\programdata\chocolatey\lib\gcc-arm-embedded\tools\gcc-arm-none-eabi-10-2020-q4-major\arm-none-eabi\include\c++\10.2.1\bits\stl_algobase.h **** 	  if (_Num)
 426:c:\programdata\chocolatey\lib\gcc-arm-embedded\tools\gcc-arm-none-eabi-10-2020-q4-major\arm-none-eabi\include\c++\10.2.1\bits\stl_algobase.h **** 	    __builtin_memmove(__result, __first, sizeof(_Tp) * _Num);
 427:c:\programdata\chocolatey\lib\gcc-arm-embedded\tools\gcc-arm-none-eabi-10-2020-q4-major\arm-none-eabi\include\c++\10.2.1\bits\stl_algobase.h **** 	  return __result + _Num;
 428:c:\programdata\chocolatey\lib\gcc-arm-embedded\tools\gcc-arm-none-eabi-10-2020-q4-major\arm-none-eabi\include\c++\10.2.1\bits\stl_algobase.h **** 	}
 429:c:\programdata\chocolatey\lib\gcc-arm-embedded\tools\gcc-arm-none-eabi-10-2020-q4-major\arm-none-eabi\include\c++\10.2.1\bits\stl_algobase.h ****     };
 430:c:\programdata\chocolatey\lib\gcc-arm-embedded\tools\gcc-arm-none-eabi-10-2020-q4-major\arm-none-eabi\include\c++\10.2.1\bits\stl_algobase.h **** 
 431:c:\programdata\chocolatey\lib\gcc-arm-embedded\tools\gcc-arm-none-eabi-10-2020-q4-major\arm-none-eabi\include\c++\10.2.1\bits\stl_algobase.h ****   // Helpers for streambuf iterators (either istream or ostream).
 432:c:\programdata\chocolatey\lib\gcc-arm-embedded\tools\gcc-arm-none-eabi-10-2020-q4-major\arm-none-eabi\include\c++\10.2.1\bits\stl_algobase.h ****   // NB: avoid including <iosfwd>, relatively large.
 433:c:\programdata\chocolatey\lib\gcc-arm-embedded\tools\gcc-arm-none-eabi-10-2020-q4-major\arm-none-eabi\include\c++\10.2.1\bits\stl_algobase.h ****   template<typename _CharT>
 434:c:\programdata\chocolatey\lib\gcc-arm-embedded\tools\gcc-arm-none-eabi-10-2020-q4-major\arm-none-eabi\include\c++\10.2.1\bits\stl_algobase.h ****     struct char_traits;
 435:c:\programdata\chocolatey\lib\gcc-arm-embedded\tools\gcc-arm-none-eabi-10-2020-q4-major\arm-none-eabi\include\c++\10.2.1\bits\stl_algobase.h **** 
 436:c:\programdata\chocolatey\lib\gcc-arm-embedded\tools\gcc-arm-none-eabi-10-2020-q4-major\arm-none-eabi\include\c++\10.2.1\bits\stl_algobase.h ****   template<typename _CharT, typename _Traits>
 437:c:\programdata\chocolatey\lib\gcc-arm-embedded\tools\gcc-arm-none-eabi-10-2020-q4-major\arm-none-eabi\include\c++\10.2.1\bits\stl_algobase.h ****     class istreambuf_iterator;
 438:c:\programdata\chocolatey\lib\gcc-arm-embedded\tools\gcc-arm-none-eabi-10-2020-q4-major\arm-none-eabi\include\c++\10.2.1\bits\stl_algobase.h **** 
 439:c:\programdata\chocolatey\lib\gcc-arm-embedded\tools\gcc-arm-none-eabi-10-2020-q4-major\arm-none-eabi\include\c++\10.2.1\bits\stl_algobase.h ****   template<typename _CharT, typename _Traits>
 440:c:\programdata\chocolatey\lib\gcc-arm-embedded\tools\gcc-arm-none-eabi-10-2020-q4-major\arm-none-eabi\include\c++\10.2.1\bits\stl_algobase.h ****     class ostreambuf_iterator;
 441:c:\programdata\chocolatey\lib\gcc-arm-embedded\tools\gcc-arm-none-eabi-10-2020-q4-major\arm-none-eabi\include\c++\10.2.1\bits\stl_algobase.h **** 
 442:c:\programdata\chocolatey\lib\gcc-arm-embedded\tools\gcc-arm-none-eabi-10-2020-q4-major\arm-none-eabi\include\c++\10.2.1\bits\stl_algobase.h ****   template<bool _IsMove, typename _CharT>
 443:c:\programdata\chocolatey\lib\gcc-arm-embedded\tools\gcc-arm-none-eabi-10-2020-q4-major\arm-none-eabi\include\c++\10.2.1\bits\stl_algobase.h ****     typename __gnu_cxx::__enable_if<__is_char<_CharT>::__value,
 444:c:\programdata\chocolatey\lib\gcc-arm-embedded\tools\gcc-arm-none-eabi-10-2020-q4-major\arm-none-eabi\include\c++\10.2.1\bits\stl_algobase.h **** 	     ostreambuf_iterator<_CharT, char_traits<_CharT> > >::__type
 445:c:\programdata\chocolatey\lib\gcc-arm-embedded\tools\gcc-arm-none-eabi-10-2020-q4-major\arm-none-eabi\include\c++\10.2.1\bits\stl_algobase.h ****     __copy_move_a2(_CharT*, _CharT*,
 446:c:\programdata\chocolatey\lib\gcc-arm-embedded\tools\gcc-arm-none-eabi-10-2020-q4-major\arm-none-eabi\include\c++\10.2.1\bits\stl_algobase.h **** 		   ostreambuf_iterator<_CharT, char_traits<_CharT> >);
 447:c:\programdata\chocolatey\lib\gcc-arm-embedded\tools\gcc-arm-none-eabi-10-2020-q4-major\arm-none-eabi\include\c++\10.2.1\bits\stl_algobase.h **** 
 448:c:\programdata\chocolatey\lib\gcc-arm-embedded\tools\gcc-arm-none-eabi-10-2020-q4-major\arm-none-eabi\include\c++\10.2.1\bits\stl_algobase.h ****   template<bool _IsMove, typename _CharT>
 449:c:\programdata\chocolatey\lib\gcc-arm-embedded\tools\gcc-arm-none-eabi-10-2020-q4-major\arm-none-eabi\include\c++\10.2.1\bits\stl_algobase.h ****     typename __gnu_cxx::__enable_if<__is_char<_CharT>::__value,
 450:c:\programdata\chocolatey\lib\gcc-arm-embedded\tools\gcc-arm-none-eabi-10-2020-q4-major\arm-none-eabi\include\c++\10.2.1\bits\stl_algobase.h **** 	     ostreambuf_iterator<_CharT, char_traits<_CharT> > >::__type
 451:c:\programdata\chocolatey\lib\gcc-arm-embedded\tools\gcc-arm-none-eabi-10-2020-q4-major\arm-none-eabi\include\c++\10.2.1\bits\stl_algobase.h ****     __copy_move_a2(const _CharT*, const _CharT*,
 452:c:\programdata\chocolatey\lib\gcc-arm-embedded\tools\gcc-arm-none-eabi-10-2020-q4-major\arm-none-eabi\include\c++\10.2.1\bits\stl_algobase.h **** 		   ostreambuf_iterator<_CharT, char_traits<_CharT> >);
 453:c:\programdata\chocolatey\lib\gcc-arm-embedded\tools\gcc-arm-none-eabi-10-2020-q4-major\arm-none-eabi\include\c++\10.2.1\bits\stl_algobase.h **** 
 454:c:\programdata\chocolatey\lib\gcc-arm-embedded\tools\gcc-arm-none-eabi-10-2020-q4-major\arm-none-eabi\include\c++\10.2.1\bits\stl_algobase.h ****   template<bool _IsMove, typename _CharT>
 455:c:\programdata\chocolatey\lib\gcc-arm-embedded\tools\gcc-arm-none-eabi-10-2020-q4-major\arm-none-eabi\include\c++\10.2.1\bits\stl_algobase.h ****     typename __gnu_cxx::__enable_if<__is_char<_CharT>::__value,
 456:c:\programdata\chocolatey\lib\gcc-arm-embedded\tools\gcc-arm-none-eabi-10-2020-q4-major\arm-none-eabi\include\c++\10.2.1\bits\stl_algobase.h **** 				    _CharT*>::__type
 457:c:\programdata\chocolatey\lib\gcc-arm-embedded\tools\gcc-arm-none-eabi-10-2020-q4-major\arm-none-eabi\include\c++\10.2.1\bits\stl_algobase.h ****     __copy_move_a2(istreambuf_iterator<_CharT, char_traits<_CharT> >,
 458:c:\programdata\chocolatey\lib\gcc-arm-embedded\tools\gcc-arm-none-eabi-10-2020-q4-major\arm-none-eabi\include\c++\10.2.1\bits\stl_algobase.h **** 		   istreambuf_iterator<_CharT, char_traits<_CharT> >, _CharT*);
 459:c:\programdata\chocolatey\lib\gcc-arm-embedded\tools\gcc-arm-none-eabi-10-2020-q4-major\arm-none-eabi\include\c++\10.2.1\bits\stl_algobase.h **** 
 460:c:\programdata\chocolatey\lib\gcc-arm-embedded\tools\gcc-arm-none-eabi-10-2020-q4-major\arm-none-eabi\include\c++\10.2.1\bits\stl_algobase.h ****   template<bool _IsMove, typename _II, typename _OI>
 461:c:\programdata\chocolatey\lib\gcc-arm-embedded\tools\gcc-arm-none-eabi-10-2020-q4-major\arm-none-eabi\include\c++\10.2.1\bits\stl_algobase.h ****     _GLIBCXX20_CONSTEXPR
 462:c:\programdata\chocolatey\lib\gcc-arm-embedded\tools\gcc-arm-none-eabi-10-2020-q4-major\arm-none-eabi\include\c++\10.2.1\bits\stl_algobase.h ****     inline _OI
 463:c:\programdata\chocolatey\lib\gcc-arm-embedded\tools\gcc-arm-none-eabi-10-2020-q4-major\arm-none-eabi\include\c++\10.2.1\bits\stl_algobase.h ****     __copy_move_a2(_II __first, _II __last, _OI __result)
 464:c:\programdata\chocolatey\lib\gcc-arm-embedded\tools\gcc-arm-none-eabi-10-2020-q4-major\arm-none-eabi\include\c++\10.2.1\bits\stl_algobase.h ****     {
 465:c:\programdata\chocolatey\lib\gcc-arm-embedded\tools\gcc-arm-none-eabi-10-2020-q4-major\arm-none-eabi\include\c++\10.2.1\bits\stl_algobase.h ****       typedef typename iterator_traits<_II>::iterator_category _Category;
 466:c:\programdata\chocolatey\lib\gcc-arm-embedded\tools\gcc-arm-none-eabi-10-2020-q4-major\arm-none-eabi\include\c++\10.2.1\bits\stl_algobase.h **** #ifdef __cpp_lib_is_constant_evaluated
 467:c:\programdata\chocolatey\lib\gcc-arm-embedded\tools\gcc-arm-none-eabi-10-2020-q4-major\arm-none-eabi\include\c++\10.2.1\bits\stl_algobase.h ****       if (std::is_constant_evaluated())
 468:c:\programdata\chocolatey\lib\gcc-arm-embedded\tools\gcc-arm-none-eabi-10-2020-q4-major\arm-none-eabi\include\c++\10.2.1\bits\stl_algobase.h **** 	return std::__copy_move<_IsMove, false, _Category>::
 469:c:\programdata\chocolatey\lib\gcc-arm-embedded\tools\gcc-arm-none-eabi-10-2020-q4-major\arm-none-eabi\include\c++\10.2.1\bits\stl_algobase.h **** 	  __copy_m(__first, __last, __result);
 470:c:\programdata\chocolatey\lib\gcc-arm-embedded\tools\gcc-arm-none-eabi-10-2020-q4-major\arm-none-eabi\include\c++\10.2.1\bits\stl_algobase.h **** #endif
 471:c:\programdata\chocolatey\lib\gcc-arm-embedded\tools\gcc-arm-none-eabi-10-2020-q4-major\arm-none-eabi\include\c++\10.2.1\bits\stl_algobase.h ****       return std::__copy_move<_IsMove, __memcpyable<_OI, _II>::__value,
ARM GAS  C:\Users\daniel\AppData\Local\Temp\ccmFX6Ad.s 			page 16


 472:c:\programdata\chocolatey\lib\gcc-arm-embedded\tools\gcc-arm-none-eabi-10-2020-q4-major\arm-none-eabi\include\c++\10.2.1\bits\stl_algobase.h **** 			      _Category>::__copy_m(__first, __last, __result);
 473:c:\programdata\chocolatey\lib\gcc-arm-embedded\tools\gcc-arm-none-eabi-10-2020-q4-major\arm-none-eabi\include\c++\10.2.1\bits\stl_algobase.h ****     }
 474:c:\programdata\chocolatey\lib\gcc-arm-embedded\tools\gcc-arm-none-eabi-10-2020-q4-major\arm-none-eabi\include\c++\10.2.1\bits\stl_algobase.h **** 
 475:c:\programdata\chocolatey\lib\gcc-arm-embedded\tools\gcc-arm-none-eabi-10-2020-q4-major\arm-none-eabi\include\c++\10.2.1\bits\stl_algobase.h **** _GLIBCXX_BEGIN_NAMESPACE_CONTAINER
 476:c:\programdata\chocolatey\lib\gcc-arm-embedded\tools\gcc-arm-none-eabi-10-2020-q4-major\arm-none-eabi\include\c++\10.2.1\bits\stl_algobase.h **** 
 477:c:\programdata\chocolatey\lib\gcc-arm-embedded\tools\gcc-arm-none-eabi-10-2020-q4-major\arm-none-eabi\include\c++\10.2.1\bits\stl_algobase.h ****   template<typename _Tp, typename _Ref, typename _Ptr>
 478:c:\programdata\chocolatey\lib\gcc-arm-embedded\tools\gcc-arm-none-eabi-10-2020-q4-major\arm-none-eabi\include\c++\10.2.1\bits\stl_algobase.h ****     struct _Deque_iterator;
 479:c:\programdata\chocolatey\lib\gcc-arm-embedded\tools\gcc-arm-none-eabi-10-2020-q4-major\arm-none-eabi\include\c++\10.2.1\bits\stl_algobase.h **** 
 480:c:\programdata\chocolatey\lib\gcc-arm-embedded\tools\gcc-arm-none-eabi-10-2020-q4-major\arm-none-eabi\include\c++\10.2.1\bits\stl_algobase.h **** _GLIBCXX_END_NAMESPACE_CONTAINER
 481:c:\programdata\chocolatey\lib\gcc-arm-embedded\tools\gcc-arm-none-eabi-10-2020-q4-major\arm-none-eabi\include\c++\10.2.1\bits\stl_algobase.h **** 
 482:c:\programdata\chocolatey\lib\gcc-arm-embedded\tools\gcc-arm-none-eabi-10-2020-q4-major\arm-none-eabi\include\c++\10.2.1\bits\stl_algobase.h ****   template<bool _IsMove,
 483:c:\programdata\chocolatey\lib\gcc-arm-embedded\tools\gcc-arm-none-eabi-10-2020-q4-major\arm-none-eabi\include\c++\10.2.1\bits\stl_algobase.h **** 	   typename _Tp, typename _Ref, typename _Ptr, typename _OI>
 484:c:\programdata\chocolatey\lib\gcc-arm-embedded\tools\gcc-arm-none-eabi-10-2020-q4-major\arm-none-eabi\include\c++\10.2.1\bits\stl_algobase.h ****     _OI
 485:c:\programdata\chocolatey\lib\gcc-arm-embedded\tools\gcc-arm-none-eabi-10-2020-q4-major\arm-none-eabi\include\c++\10.2.1\bits\stl_algobase.h ****     __copy_move_a1(_GLIBCXX_STD_C::_Deque_iterator<_Tp, _Ref, _Ptr>,
 486:c:\programdata\chocolatey\lib\gcc-arm-embedded\tools\gcc-arm-none-eabi-10-2020-q4-major\arm-none-eabi\include\c++\10.2.1\bits\stl_algobase.h **** 		   _GLIBCXX_STD_C::_Deque_iterator<_Tp, _Ref, _Ptr>,
 487:c:\programdata\chocolatey\lib\gcc-arm-embedded\tools\gcc-arm-none-eabi-10-2020-q4-major\arm-none-eabi\include\c++\10.2.1\bits\stl_algobase.h **** 		   _OI);
 488:c:\programdata\chocolatey\lib\gcc-arm-embedded\tools\gcc-arm-none-eabi-10-2020-q4-major\arm-none-eabi\include\c++\10.2.1\bits\stl_algobase.h **** 
 489:c:\programdata\chocolatey\lib\gcc-arm-embedded\tools\gcc-arm-none-eabi-10-2020-q4-major\arm-none-eabi\include\c++\10.2.1\bits\stl_algobase.h ****   template<bool _IsMove,
 490:c:\programdata\chocolatey\lib\gcc-arm-embedded\tools\gcc-arm-none-eabi-10-2020-q4-major\arm-none-eabi\include\c++\10.2.1\bits\stl_algobase.h **** 	   typename _ITp, typename _IRef, typename _IPtr, typename _OTp>
 491:c:\programdata\chocolatey\lib\gcc-arm-embedded\tools\gcc-arm-none-eabi-10-2020-q4-major\arm-none-eabi\include\c++\10.2.1\bits\stl_algobase.h ****     _GLIBCXX_STD_C::_Deque_iterator<_OTp, _OTp&, _OTp*>
 492:c:\programdata\chocolatey\lib\gcc-arm-embedded\tools\gcc-arm-none-eabi-10-2020-q4-major\arm-none-eabi\include\c++\10.2.1\bits\stl_algobase.h ****     __copy_move_a1(_GLIBCXX_STD_C::_Deque_iterator<_ITp, _IRef, _IPtr>,
 493:c:\programdata\chocolatey\lib\gcc-arm-embedded\tools\gcc-arm-none-eabi-10-2020-q4-major\arm-none-eabi\include\c++\10.2.1\bits\stl_algobase.h **** 		   _GLIBCXX_STD_C::_Deque_iterator<_ITp, _IRef, _IPtr>,
 494:c:\programdata\chocolatey\lib\gcc-arm-embedded\tools\gcc-arm-none-eabi-10-2020-q4-major\arm-none-eabi\include\c++\10.2.1\bits\stl_algobase.h **** 		   _GLIBCXX_STD_C::_Deque_iterator<_OTp, _OTp&, _OTp*>);
 495:c:\programdata\chocolatey\lib\gcc-arm-embedded\tools\gcc-arm-none-eabi-10-2020-q4-major\arm-none-eabi\include\c++\10.2.1\bits\stl_algobase.h **** 
 496:c:\programdata\chocolatey\lib\gcc-arm-embedded\tools\gcc-arm-none-eabi-10-2020-q4-major\arm-none-eabi\include\c++\10.2.1\bits\stl_algobase.h ****   template<bool _IsMove, typename _II, typename _Tp>
 497:c:\programdata\chocolatey\lib\gcc-arm-embedded\tools\gcc-arm-none-eabi-10-2020-q4-major\arm-none-eabi\include\c++\10.2.1\bits\stl_algobase.h ****     typename __gnu_cxx::__enable_if<
 498:c:\programdata\chocolatey\lib\gcc-arm-embedded\tools\gcc-arm-none-eabi-10-2020-q4-major\arm-none-eabi\include\c++\10.2.1\bits\stl_algobase.h ****       __is_random_access_iter<_II>::__value,
 499:c:\programdata\chocolatey\lib\gcc-arm-embedded\tools\gcc-arm-none-eabi-10-2020-q4-major\arm-none-eabi\include\c++\10.2.1\bits\stl_algobase.h ****       _GLIBCXX_STD_C::_Deque_iterator<_Tp, _Tp&, _Tp*> >::__type
 500:c:\programdata\chocolatey\lib\gcc-arm-embedded\tools\gcc-arm-none-eabi-10-2020-q4-major\arm-none-eabi\include\c++\10.2.1\bits\stl_algobase.h ****     __copy_move_a1(_II, _II, _GLIBCXX_STD_C::_Deque_iterator<_Tp, _Tp&, _Tp*>);
 501:c:\programdata\chocolatey\lib\gcc-arm-embedded\tools\gcc-arm-none-eabi-10-2020-q4-major\arm-none-eabi\include\c++\10.2.1\bits\stl_algobase.h **** 
 502:c:\programdata\chocolatey\lib\gcc-arm-embedded\tools\gcc-arm-none-eabi-10-2020-q4-major\arm-none-eabi\include\c++\10.2.1\bits\stl_algobase.h ****   template<bool _IsMove, typename _II, typename _OI>
 503:c:\programdata\chocolatey\lib\gcc-arm-embedded\tools\gcc-arm-none-eabi-10-2020-q4-major\arm-none-eabi\include\c++\10.2.1\bits\stl_algobase.h ****     _GLIBCXX20_CONSTEXPR
 504:c:\programdata\chocolatey\lib\gcc-arm-embedded\tools\gcc-arm-none-eabi-10-2020-q4-major\arm-none-eabi\include\c++\10.2.1\bits\stl_algobase.h ****     inline _OI
 505:c:\programdata\chocolatey\lib\gcc-arm-embedded\tools\gcc-arm-none-eabi-10-2020-q4-major\arm-none-eabi\include\c++\10.2.1\bits\stl_algobase.h ****     __copy_move_a1(_II __first, _II __last, _OI __result)
 506:c:\programdata\chocolatey\lib\gcc-arm-embedded\tools\gcc-arm-none-eabi-10-2020-q4-major\arm-none-eabi\include\c++\10.2.1\bits\stl_algobase.h ****     { return std::__copy_move_a2<_IsMove>(__first, __last, __result); }
 507:c:\programdata\chocolatey\lib\gcc-arm-embedded\tools\gcc-arm-none-eabi-10-2020-q4-major\arm-none-eabi\include\c++\10.2.1\bits\stl_algobase.h **** 
 508:c:\programdata\chocolatey\lib\gcc-arm-embedded\tools\gcc-arm-none-eabi-10-2020-q4-major\arm-none-eabi\include\c++\10.2.1\bits\stl_algobase.h ****   template<bool _IsMove, typename _II, typename _OI>
 509:c:\programdata\chocolatey\lib\gcc-arm-embedded\tools\gcc-arm-none-eabi-10-2020-q4-major\arm-none-eabi\include\c++\10.2.1\bits\stl_algobase.h ****     _GLIBCXX20_CONSTEXPR
 510:c:\programdata\chocolatey\lib\gcc-arm-embedded\tools\gcc-arm-none-eabi-10-2020-q4-major\arm-none-eabi\include\c++\10.2.1\bits\stl_algobase.h ****     inline _OI
 511:c:\programdata\chocolatey\lib\gcc-arm-embedded\tools\gcc-arm-none-eabi-10-2020-q4-major\arm-none-eabi\include\c++\10.2.1\bits\stl_algobase.h ****     __copy_move_a(_II __first, _II __last, _OI __result)
 512:c:\programdata\chocolatey\lib\gcc-arm-embedded\tools\gcc-arm-none-eabi-10-2020-q4-major\arm-none-eabi\include\c++\10.2.1\bits\stl_algobase.h ****     {
 513:c:\programdata\chocolatey\lib\gcc-arm-embedded\tools\gcc-arm-none-eabi-10-2020-q4-major\arm-none-eabi\include\c++\10.2.1\bits\stl_algobase.h ****       return std::__niter_wrap(__result,
 514:c:\programdata\chocolatey\lib\gcc-arm-embedded\tools\gcc-arm-none-eabi-10-2020-q4-major\arm-none-eabi\include\c++\10.2.1\bits\stl_algobase.h **** 		std::__copy_move_a1<_IsMove>(std::__niter_base(__first),
 515:c:\programdata\chocolatey\lib\gcc-arm-embedded\tools\gcc-arm-none-eabi-10-2020-q4-major\arm-none-eabi\include\c++\10.2.1\bits\stl_algobase.h **** 					     std::__niter_base(__last),
 516:c:\programdata\chocolatey\lib\gcc-arm-embedded\tools\gcc-arm-none-eabi-10-2020-q4-major\arm-none-eabi\include\c++\10.2.1\bits\stl_algobase.h **** 					     std::__niter_base(__result)));
 517:c:\programdata\chocolatey\lib\gcc-arm-embedded\tools\gcc-arm-none-eabi-10-2020-q4-major\arm-none-eabi\include\c++\10.2.1\bits\stl_algobase.h ****     }
 518:c:\programdata\chocolatey\lib\gcc-arm-embedded\tools\gcc-arm-none-eabi-10-2020-q4-major\arm-none-eabi\include\c++\10.2.1\bits\stl_algobase.h **** 
 519:c:\programdata\chocolatey\lib\gcc-arm-embedded\tools\gcc-arm-none-eabi-10-2020-q4-major\arm-none-eabi\include\c++\10.2.1\bits\stl_algobase.h ****   template<bool _IsMove,
 520:c:\programdata\chocolatey\lib\gcc-arm-embedded\tools\gcc-arm-none-eabi-10-2020-q4-major\arm-none-eabi\include\c++\10.2.1\bits\stl_algobase.h **** 	   typename _Ite, typename _Seq, typename _Cat, typename _OI>
 521:c:\programdata\chocolatey\lib\gcc-arm-embedded\tools\gcc-arm-none-eabi-10-2020-q4-major\arm-none-eabi\include\c++\10.2.1\bits\stl_algobase.h ****     _OI
 522:c:\programdata\chocolatey\lib\gcc-arm-embedded\tools\gcc-arm-none-eabi-10-2020-q4-major\arm-none-eabi\include\c++\10.2.1\bits\stl_algobase.h ****     __copy_move_a(const ::__gnu_debug::_Safe_iterator<_Ite, _Seq, _Cat>&,
 523:c:\programdata\chocolatey\lib\gcc-arm-embedded\tools\gcc-arm-none-eabi-10-2020-q4-major\arm-none-eabi\include\c++\10.2.1\bits\stl_algobase.h **** 		  const ::__gnu_debug::_Safe_iterator<_Ite, _Seq, _Cat>&,
 524:c:\programdata\chocolatey\lib\gcc-arm-embedded\tools\gcc-arm-none-eabi-10-2020-q4-major\arm-none-eabi\include\c++\10.2.1\bits\stl_algobase.h **** 		  _OI);
 525:c:\programdata\chocolatey\lib\gcc-arm-embedded\tools\gcc-arm-none-eabi-10-2020-q4-major\arm-none-eabi\include\c++\10.2.1\bits\stl_algobase.h **** 
 526:c:\programdata\chocolatey\lib\gcc-arm-embedded\tools\gcc-arm-none-eabi-10-2020-q4-major\arm-none-eabi\include\c++\10.2.1\bits\stl_algobase.h ****   template<bool _IsMove,
 527:c:\programdata\chocolatey\lib\gcc-arm-embedded\tools\gcc-arm-none-eabi-10-2020-q4-major\arm-none-eabi\include\c++\10.2.1\bits\stl_algobase.h **** 	   typename _II, typename _Ite, typename _Seq, typename _Cat>
 528:c:\programdata\chocolatey\lib\gcc-arm-embedded\tools\gcc-arm-none-eabi-10-2020-q4-major\arm-none-eabi\include\c++\10.2.1\bits\stl_algobase.h ****     __gnu_debug::_Safe_iterator<_Ite, _Seq, _Cat>
ARM GAS  C:\Users\daniel\AppData\Local\Temp\ccmFX6Ad.s 			page 17


 529:c:\programdata\chocolatey\lib\gcc-arm-embedded\tools\gcc-arm-none-eabi-10-2020-q4-major\arm-none-eabi\include\c++\10.2.1\bits\stl_algobase.h ****     __copy_move_a(_II, _II,
 530:c:\programdata\chocolatey\lib\gcc-arm-embedded\tools\gcc-arm-none-eabi-10-2020-q4-major\arm-none-eabi\include\c++\10.2.1\bits\stl_algobase.h **** 		  const ::__gnu_debug::_Safe_iterator<_Ite, _Seq, _Cat>&);
 531:c:\programdata\chocolatey\lib\gcc-arm-embedded\tools\gcc-arm-none-eabi-10-2020-q4-major\arm-none-eabi\include\c++\10.2.1\bits\stl_algobase.h **** 
 532:c:\programdata\chocolatey\lib\gcc-arm-embedded\tools\gcc-arm-none-eabi-10-2020-q4-major\arm-none-eabi\include\c++\10.2.1\bits\stl_algobase.h ****   template<bool _IsMove,
 533:c:\programdata\chocolatey\lib\gcc-arm-embedded\tools\gcc-arm-none-eabi-10-2020-q4-major\arm-none-eabi\include\c++\10.2.1\bits\stl_algobase.h **** 	   typename _IIte, typename _ISeq, typename _ICat,
 534:c:\programdata\chocolatey\lib\gcc-arm-embedded\tools\gcc-arm-none-eabi-10-2020-q4-major\arm-none-eabi\include\c++\10.2.1\bits\stl_algobase.h **** 	   typename _OIte, typename _OSeq, typename _OCat>
 535:c:\programdata\chocolatey\lib\gcc-arm-embedded\tools\gcc-arm-none-eabi-10-2020-q4-major\arm-none-eabi\include\c++\10.2.1\bits\stl_algobase.h ****     ::__gnu_debug::_Safe_iterator<_OIte, _OSeq, _OCat>
 536:c:\programdata\chocolatey\lib\gcc-arm-embedded\tools\gcc-arm-none-eabi-10-2020-q4-major\arm-none-eabi\include\c++\10.2.1\bits\stl_algobase.h ****     __copy_move_a(const ::__gnu_debug::_Safe_iterator<_IIte, _ISeq, _ICat>&,
 537:c:\programdata\chocolatey\lib\gcc-arm-embedded\tools\gcc-arm-none-eabi-10-2020-q4-major\arm-none-eabi\include\c++\10.2.1\bits\stl_algobase.h **** 		  const ::__gnu_debug::_Safe_iterator<_IIte, _ISeq, _ICat>&,
 538:c:\programdata\chocolatey\lib\gcc-arm-embedded\tools\gcc-arm-none-eabi-10-2020-q4-major\arm-none-eabi\include\c++\10.2.1\bits\stl_algobase.h **** 		  const ::__gnu_debug::_Safe_iterator<_OIte, _OSeq, _OCat>&);
 539:c:\programdata\chocolatey\lib\gcc-arm-embedded\tools\gcc-arm-none-eabi-10-2020-q4-major\arm-none-eabi\include\c++\10.2.1\bits\stl_algobase.h **** 
 540:c:\programdata\chocolatey\lib\gcc-arm-embedded\tools\gcc-arm-none-eabi-10-2020-q4-major\arm-none-eabi\include\c++\10.2.1\bits\stl_algobase.h ****   /**
 541:c:\programdata\chocolatey\lib\gcc-arm-embedded\tools\gcc-arm-none-eabi-10-2020-q4-major\arm-none-eabi\include\c++\10.2.1\bits\stl_algobase.h ****    *  @brief Copies the range [first,last) into result.
 542:c:\programdata\chocolatey\lib\gcc-arm-embedded\tools\gcc-arm-none-eabi-10-2020-q4-major\arm-none-eabi\include\c++\10.2.1\bits\stl_algobase.h ****    *  @ingroup mutating_algorithms
 543:c:\programdata\chocolatey\lib\gcc-arm-embedded\tools\gcc-arm-none-eabi-10-2020-q4-major\arm-none-eabi\include\c++\10.2.1\bits\stl_algobase.h ****    *  @param  __first  An input iterator.
 544:c:\programdata\chocolatey\lib\gcc-arm-embedded\tools\gcc-arm-none-eabi-10-2020-q4-major\arm-none-eabi\include\c++\10.2.1\bits\stl_algobase.h ****    *  @param  __last   An input iterator.
 545:c:\programdata\chocolatey\lib\gcc-arm-embedded\tools\gcc-arm-none-eabi-10-2020-q4-major\arm-none-eabi\include\c++\10.2.1\bits\stl_algobase.h ****    *  @param  __result An output iterator.
 546:c:\programdata\chocolatey\lib\gcc-arm-embedded\tools\gcc-arm-none-eabi-10-2020-q4-major\arm-none-eabi\include\c++\10.2.1\bits\stl_algobase.h ****    *  @return   result + (last - first)
 547:c:\programdata\chocolatey\lib\gcc-arm-embedded\tools\gcc-arm-none-eabi-10-2020-q4-major\arm-none-eabi\include\c++\10.2.1\bits\stl_algobase.h ****    *
 548:c:\programdata\chocolatey\lib\gcc-arm-embedded\tools\gcc-arm-none-eabi-10-2020-q4-major\arm-none-eabi\include\c++\10.2.1\bits\stl_algobase.h ****    *  This inline function will boil down to a call to @c memmove whenever
 549:c:\programdata\chocolatey\lib\gcc-arm-embedded\tools\gcc-arm-none-eabi-10-2020-q4-major\arm-none-eabi\include\c++\10.2.1\bits\stl_algobase.h ****    *  possible.  Failing that, if random access iterators are passed, then the
 550:c:\programdata\chocolatey\lib\gcc-arm-embedded\tools\gcc-arm-none-eabi-10-2020-q4-major\arm-none-eabi\include\c++\10.2.1\bits\stl_algobase.h ****    *  loop count will be known (and therefore a candidate for compiler
 551:c:\programdata\chocolatey\lib\gcc-arm-embedded\tools\gcc-arm-none-eabi-10-2020-q4-major\arm-none-eabi\include\c++\10.2.1\bits\stl_algobase.h ****    *  optimizations such as unrolling).  Result may not be contained within
 552:c:\programdata\chocolatey\lib\gcc-arm-embedded\tools\gcc-arm-none-eabi-10-2020-q4-major\arm-none-eabi\include\c++\10.2.1\bits\stl_algobase.h ****    *  [first,last); the copy_backward function should be used instead.
 553:c:\programdata\chocolatey\lib\gcc-arm-embedded\tools\gcc-arm-none-eabi-10-2020-q4-major\arm-none-eabi\include\c++\10.2.1\bits\stl_algobase.h ****    *
 554:c:\programdata\chocolatey\lib\gcc-arm-embedded\tools\gcc-arm-none-eabi-10-2020-q4-major\arm-none-eabi\include\c++\10.2.1\bits\stl_algobase.h ****    *  Note that the end of the output range is permitted to be contained
 555:c:\programdata\chocolatey\lib\gcc-arm-embedded\tools\gcc-arm-none-eabi-10-2020-q4-major\arm-none-eabi\include\c++\10.2.1\bits\stl_algobase.h ****    *  within [first,last).
 556:c:\programdata\chocolatey\lib\gcc-arm-embedded\tools\gcc-arm-none-eabi-10-2020-q4-major\arm-none-eabi\include\c++\10.2.1\bits\stl_algobase.h ****   */
 557:c:\programdata\chocolatey\lib\gcc-arm-embedded\tools\gcc-arm-none-eabi-10-2020-q4-major\arm-none-eabi\include\c++\10.2.1\bits\stl_algobase.h ****   template<typename _II, typename _OI>
 558:c:\programdata\chocolatey\lib\gcc-arm-embedded\tools\gcc-arm-none-eabi-10-2020-q4-major\arm-none-eabi\include\c++\10.2.1\bits\stl_algobase.h ****     _GLIBCXX20_CONSTEXPR
 559:c:\programdata\chocolatey\lib\gcc-arm-embedded\tools\gcc-arm-none-eabi-10-2020-q4-major\arm-none-eabi\include\c++\10.2.1\bits\stl_algobase.h ****     inline _OI
 560:c:\programdata\chocolatey\lib\gcc-arm-embedded\tools\gcc-arm-none-eabi-10-2020-q4-major\arm-none-eabi\include\c++\10.2.1\bits\stl_algobase.h ****     copy(_II __first, _II __last, _OI __result)
 561:c:\programdata\chocolatey\lib\gcc-arm-embedded\tools\gcc-arm-none-eabi-10-2020-q4-major\arm-none-eabi\include\c++\10.2.1\bits\stl_algobase.h ****     {
 562:c:\programdata\chocolatey\lib\gcc-arm-embedded\tools\gcc-arm-none-eabi-10-2020-q4-major\arm-none-eabi\include\c++\10.2.1\bits\stl_algobase.h ****       // concept requirements
 563:c:\programdata\chocolatey\lib\gcc-arm-embedded\tools\gcc-arm-none-eabi-10-2020-q4-major\arm-none-eabi\include\c++\10.2.1\bits\stl_algobase.h ****       __glibcxx_function_requires(_InputIteratorConcept<_II>)
 564:c:\programdata\chocolatey\lib\gcc-arm-embedded\tools\gcc-arm-none-eabi-10-2020-q4-major\arm-none-eabi\include\c++\10.2.1\bits\stl_algobase.h ****       __glibcxx_function_requires(_OutputIteratorConcept<_OI,
 565:c:\programdata\chocolatey\lib\gcc-arm-embedded\tools\gcc-arm-none-eabi-10-2020-q4-major\arm-none-eabi\include\c++\10.2.1\bits\stl_algobase.h **** 	    typename iterator_traits<_II>::value_type>)
 566:c:\programdata\chocolatey\lib\gcc-arm-embedded\tools\gcc-arm-none-eabi-10-2020-q4-major\arm-none-eabi\include\c++\10.2.1\bits\stl_algobase.h ****       __glibcxx_requires_can_increment_range(__first, __last, __result);
 567:c:\programdata\chocolatey\lib\gcc-arm-embedded\tools\gcc-arm-none-eabi-10-2020-q4-major\arm-none-eabi\include\c++\10.2.1\bits\stl_algobase.h **** 
 568:c:\programdata\chocolatey\lib\gcc-arm-embedded\tools\gcc-arm-none-eabi-10-2020-q4-major\arm-none-eabi\include\c++\10.2.1\bits\stl_algobase.h ****       return std::__copy_move_a<__is_move_iterator<_II>::__value>
 569:c:\programdata\chocolatey\lib\gcc-arm-embedded\tools\gcc-arm-none-eabi-10-2020-q4-major\arm-none-eabi\include\c++\10.2.1\bits\stl_algobase.h **** 	     (std::__miter_base(__first), std::__miter_base(__last), __result);
 570:c:\programdata\chocolatey\lib\gcc-arm-embedded\tools\gcc-arm-none-eabi-10-2020-q4-major\arm-none-eabi\include\c++\10.2.1\bits\stl_algobase.h ****     }
 571:c:\programdata\chocolatey\lib\gcc-arm-embedded\tools\gcc-arm-none-eabi-10-2020-q4-major\arm-none-eabi\include\c++\10.2.1\bits\stl_algobase.h **** 
 572:c:\programdata\chocolatey\lib\gcc-arm-embedded\tools\gcc-arm-none-eabi-10-2020-q4-major\arm-none-eabi\include\c++\10.2.1\bits\stl_algobase.h **** #if __cplusplus >= 201103L
 573:c:\programdata\chocolatey\lib\gcc-arm-embedded\tools\gcc-arm-none-eabi-10-2020-q4-major\arm-none-eabi\include\c++\10.2.1\bits\stl_algobase.h ****   /**
 574:c:\programdata\chocolatey\lib\gcc-arm-embedded\tools\gcc-arm-none-eabi-10-2020-q4-major\arm-none-eabi\include\c++\10.2.1\bits\stl_algobase.h ****    *  @brief Moves the range [first,last) into result.
 575:c:\programdata\chocolatey\lib\gcc-arm-embedded\tools\gcc-arm-none-eabi-10-2020-q4-major\arm-none-eabi\include\c++\10.2.1\bits\stl_algobase.h ****    *  @ingroup mutating_algorithms
 576:c:\programdata\chocolatey\lib\gcc-arm-embedded\tools\gcc-arm-none-eabi-10-2020-q4-major\arm-none-eabi\include\c++\10.2.1\bits\stl_algobase.h ****    *  @param  __first  An input iterator.
 577:c:\programdata\chocolatey\lib\gcc-arm-embedded\tools\gcc-arm-none-eabi-10-2020-q4-major\arm-none-eabi\include\c++\10.2.1\bits\stl_algobase.h ****    *  @param  __last   An input iterator.
 578:c:\programdata\chocolatey\lib\gcc-arm-embedded\tools\gcc-arm-none-eabi-10-2020-q4-major\arm-none-eabi\include\c++\10.2.1\bits\stl_algobase.h ****    *  @param  __result An output iterator.
 579:c:\programdata\chocolatey\lib\gcc-arm-embedded\tools\gcc-arm-none-eabi-10-2020-q4-major\arm-none-eabi\include\c++\10.2.1\bits\stl_algobase.h ****    *  @return   result + (last - first)
 580:c:\programdata\chocolatey\lib\gcc-arm-embedded\tools\gcc-arm-none-eabi-10-2020-q4-major\arm-none-eabi\include\c++\10.2.1\bits\stl_algobase.h ****    *
 581:c:\programdata\chocolatey\lib\gcc-arm-embedded\tools\gcc-arm-none-eabi-10-2020-q4-major\arm-none-eabi\include\c++\10.2.1\bits\stl_algobase.h ****    *  This inline function will boil down to a call to @c memmove whenever
 582:c:\programdata\chocolatey\lib\gcc-arm-embedded\tools\gcc-arm-none-eabi-10-2020-q4-major\arm-none-eabi\include\c++\10.2.1\bits\stl_algobase.h ****    *  possible.  Failing that, if random access iterators are passed, then the
 583:c:\programdata\chocolatey\lib\gcc-arm-embedded\tools\gcc-arm-none-eabi-10-2020-q4-major\arm-none-eabi\include\c++\10.2.1\bits\stl_algobase.h ****    *  loop count will be known (and therefore a candidate for compiler
 584:c:\programdata\chocolatey\lib\gcc-arm-embedded\tools\gcc-arm-none-eabi-10-2020-q4-major\arm-none-eabi\include\c++\10.2.1\bits\stl_algobase.h ****    *  optimizations such as unrolling).  Result may not be contained within
 585:c:\programdata\chocolatey\lib\gcc-arm-embedded\tools\gcc-arm-none-eabi-10-2020-q4-major\arm-none-eabi\include\c++\10.2.1\bits\stl_algobase.h ****    *  [first,last); the move_backward function should be used instead.
ARM GAS  C:\Users\daniel\AppData\Local\Temp\ccmFX6Ad.s 			page 18


 586:c:\programdata\chocolatey\lib\gcc-arm-embedded\tools\gcc-arm-none-eabi-10-2020-q4-major\arm-none-eabi\include\c++\10.2.1\bits\stl_algobase.h ****    *
 587:c:\programdata\chocolatey\lib\gcc-arm-embedded\tools\gcc-arm-none-eabi-10-2020-q4-major\arm-none-eabi\include\c++\10.2.1\bits\stl_algobase.h ****    *  Note that the end of the output range is permitted to be contained
 588:c:\programdata\chocolatey\lib\gcc-arm-embedded\tools\gcc-arm-none-eabi-10-2020-q4-major\arm-none-eabi\include\c++\10.2.1\bits\stl_algobase.h ****    *  within [first,last).
 589:c:\programdata\chocolatey\lib\gcc-arm-embedded\tools\gcc-arm-none-eabi-10-2020-q4-major\arm-none-eabi\include\c++\10.2.1\bits\stl_algobase.h ****   */
 590:c:\programdata\chocolatey\lib\gcc-arm-embedded\tools\gcc-arm-none-eabi-10-2020-q4-major\arm-none-eabi\include\c++\10.2.1\bits\stl_algobase.h ****   template<typename _II, typename _OI>
 591:c:\programdata\chocolatey\lib\gcc-arm-embedded\tools\gcc-arm-none-eabi-10-2020-q4-major\arm-none-eabi\include\c++\10.2.1\bits\stl_algobase.h ****     _GLIBCXX20_CONSTEXPR
 592:c:\programdata\chocolatey\lib\gcc-arm-embedded\tools\gcc-arm-none-eabi-10-2020-q4-major\arm-none-eabi\include\c++\10.2.1\bits\stl_algobase.h ****     inline _OI
 593:c:\programdata\chocolatey\lib\gcc-arm-embedded\tools\gcc-arm-none-eabi-10-2020-q4-major\arm-none-eabi\include\c++\10.2.1\bits\stl_algobase.h ****     move(_II __first, _II __last, _OI __result)
 594:c:\programdata\chocolatey\lib\gcc-arm-embedded\tools\gcc-arm-none-eabi-10-2020-q4-major\arm-none-eabi\include\c++\10.2.1\bits\stl_algobase.h ****     {
 595:c:\programdata\chocolatey\lib\gcc-arm-embedded\tools\gcc-arm-none-eabi-10-2020-q4-major\arm-none-eabi\include\c++\10.2.1\bits\stl_algobase.h ****       // concept requirements
 596:c:\programdata\chocolatey\lib\gcc-arm-embedded\tools\gcc-arm-none-eabi-10-2020-q4-major\arm-none-eabi\include\c++\10.2.1\bits\stl_algobase.h ****       __glibcxx_function_requires(_InputIteratorConcept<_II>)
 597:c:\programdata\chocolatey\lib\gcc-arm-embedded\tools\gcc-arm-none-eabi-10-2020-q4-major\arm-none-eabi\include\c++\10.2.1\bits\stl_algobase.h ****       __glibcxx_function_requires(_OutputIteratorConcept<_OI,
 598:c:\programdata\chocolatey\lib\gcc-arm-embedded\tools\gcc-arm-none-eabi-10-2020-q4-major\arm-none-eabi\include\c++\10.2.1\bits\stl_algobase.h **** 	    typename iterator_traits<_II>::value_type>)
 599:c:\programdata\chocolatey\lib\gcc-arm-embedded\tools\gcc-arm-none-eabi-10-2020-q4-major\arm-none-eabi\include\c++\10.2.1\bits\stl_algobase.h ****       __glibcxx_requires_can_increment_range(__first, __last, __result);
 600:c:\programdata\chocolatey\lib\gcc-arm-embedded\tools\gcc-arm-none-eabi-10-2020-q4-major\arm-none-eabi\include\c++\10.2.1\bits\stl_algobase.h **** 
 601:c:\programdata\chocolatey\lib\gcc-arm-embedded\tools\gcc-arm-none-eabi-10-2020-q4-major\arm-none-eabi\include\c++\10.2.1\bits\stl_algobase.h ****       return std::__copy_move_a<true>(std::__miter_base(__first),
 602:c:\programdata\chocolatey\lib\gcc-arm-embedded\tools\gcc-arm-none-eabi-10-2020-q4-major\arm-none-eabi\include\c++\10.2.1\bits\stl_algobase.h **** 				      std::__miter_base(__last), __result);
 603:c:\programdata\chocolatey\lib\gcc-arm-embedded\tools\gcc-arm-none-eabi-10-2020-q4-major\arm-none-eabi\include\c++\10.2.1\bits\stl_algobase.h ****     }
 604:c:\programdata\chocolatey\lib\gcc-arm-embedded\tools\gcc-arm-none-eabi-10-2020-q4-major\arm-none-eabi\include\c++\10.2.1\bits\stl_algobase.h **** 
 605:c:\programdata\chocolatey\lib\gcc-arm-embedded\tools\gcc-arm-none-eabi-10-2020-q4-major\arm-none-eabi\include\c++\10.2.1\bits\stl_algobase.h **** #define _GLIBCXX_MOVE3(_Tp, _Up, _Vp) std::move(_Tp, _Up, _Vp)
 606:c:\programdata\chocolatey\lib\gcc-arm-embedded\tools\gcc-arm-none-eabi-10-2020-q4-major\arm-none-eabi\include\c++\10.2.1\bits\stl_algobase.h **** #else
 607:c:\programdata\chocolatey\lib\gcc-arm-embedded\tools\gcc-arm-none-eabi-10-2020-q4-major\arm-none-eabi\include\c++\10.2.1\bits\stl_algobase.h **** #define _GLIBCXX_MOVE3(_Tp, _Up, _Vp) std::copy(_Tp, _Up, _Vp)
 608:c:\programdata\chocolatey\lib\gcc-arm-embedded\tools\gcc-arm-none-eabi-10-2020-q4-major\arm-none-eabi\include\c++\10.2.1\bits\stl_algobase.h **** #endif
 609:c:\programdata\chocolatey\lib\gcc-arm-embedded\tools\gcc-arm-none-eabi-10-2020-q4-major\arm-none-eabi\include\c++\10.2.1\bits\stl_algobase.h **** 
 610:c:\programdata\chocolatey\lib\gcc-arm-embedded\tools\gcc-arm-none-eabi-10-2020-q4-major\arm-none-eabi\include\c++\10.2.1\bits\stl_algobase.h ****   template<bool _IsMove, bool _IsSimple, typename _Category>
 611:c:\programdata\chocolatey\lib\gcc-arm-embedded\tools\gcc-arm-none-eabi-10-2020-q4-major\arm-none-eabi\include\c++\10.2.1\bits\stl_algobase.h ****     struct __copy_move_backward
 612:c:\programdata\chocolatey\lib\gcc-arm-embedded\tools\gcc-arm-none-eabi-10-2020-q4-major\arm-none-eabi\include\c++\10.2.1\bits\stl_algobase.h ****     {
 613:c:\programdata\chocolatey\lib\gcc-arm-embedded\tools\gcc-arm-none-eabi-10-2020-q4-major\arm-none-eabi\include\c++\10.2.1\bits\stl_algobase.h ****       template<typename _BI1, typename _BI2>
 614:c:\programdata\chocolatey\lib\gcc-arm-embedded\tools\gcc-arm-none-eabi-10-2020-q4-major\arm-none-eabi\include\c++\10.2.1\bits\stl_algobase.h **** 	_GLIBCXX20_CONSTEXPR
 615:c:\programdata\chocolatey\lib\gcc-arm-embedded\tools\gcc-arm-none-eabi-10-2020-q4-major\arm-none-eabi\include\c++\10.2.1\bits\stl_algobase.h **** 	static _BI2
 616:c:\programdata\chocolatey\lib\gcc-arm-embedded\tools\gcc-arm-none-eabi-10-2020-q4-major\arm-none-eabi\include\c++\10.2.1\bits\stl_algobase.h **** 	__copy_move_b(_BI1 __first, _BI1 __last, _BI2 __result)
 617:c:\programdata\chocolatey\lib\gcc-arm-embedded\tools\gcc-arm-none-eabi-10-2020-q4-major\arm-none-eabi\include\c++\10.2.1\bits\stl_algobase.h **** 	{
 618:c:\programdata\chocolatey\lib\gcc-arm-embedded\tools\gcc-arm-none-eabi-10-2020-q4-major\arm-none-eabi\include\c++\10.2.1\bits\stl_algobase.h **** 	  while (__first != __last)
 619:c:\programdata\chocolatey\lib\gcc-arm-embedded\tools\gcc-arm-none-eabi-10-2020-q4-major\arm-none-eabi\include\c++\10.2.1\bits\stl_algobase.h **** 	    *--__result = *--__last;
 620:c:\programdata\chocolatey\lib\gcc-arm-embedded\tools\gcc-arm-none-eabi-10-2020-q4-major\arm-none-eabi\include\c++\10.2.1\bits\stl_algobase.h **** 	  return __result;
 621:c:\programdata\chocolatey\lib\gcc-arm-embedded\tools\gcc-arm-none-eabi-10-2020-q4-major\arm-none-eabi\include\c++\10.2.1\bits\stl_algobase.h **** 	}
 622:c:\programdata\chocolatey\lib\gcc-arm-embedded\tools\gcc-arm-none-eabi-10-2020-q4-major\arm-none-eabi\include\c++\10.2.1\bits\stl_algobase.h ****     };
 623:c:\programdata\chocolatey\lib\gcc-arm-embedded\tools\gcc-arm-none-eabi-10-2020-q4-major\arm-none-eabi\include\c++\10.2.1\bits\stl_algobase.h **** 
 624:c:\programdata\chocolatey\lib\gcc-arm-embedded\tools\gcc-arm-none-eabi-10-2020-q4-major\arm-none-eabi\include\c++\10.2.1\bits\stl_algobase.h **** #if __cplusplus >= 201103L
 625:c:\programdata\chocolatey\lib\gcc-arm-embedded\tools\gcc-arm-none-eabi-10-2020-q4-major\arm-none-eabi\include\c++\10.2.1\bits\stl_algobase.h ****   template<typename _Category>
 626:c:\programdata\chocolatey\lib\gcc-arm-embedded\tools\gcc-arm-none-eabi-10-2020-q4-major\arm-none-eabi\include\c++\10.2.1\bits\stl_algobase.h ****     struct __copy_move_backward<true, false, _Category>
 627:c:\programdata\chocolatey\lib\gcc-arm-embedded\tools\gcc-arm-none-eabi-10-2020-q4-major\arm-none-eabi\include\c++\10.2.1\bits\stl_algobase.h ****     {
 628:c:\programdata\chocolatey\lib\gcc-arm-embedded\tools\gcc-arm-none-eabi-10-2020-q4-major\arm-none-eabi\include\c++\10.2.1\bits\stl_algobase.h ****       template<typename _BI1, typename _BI2>
 629:c:\programdata\chocolatey\lib\gcc-arm-embedded\tools\gcc-arm-none-eabi-10-2020-q4-major\arm-none-eabi\include\c++\10.2.1\bits\stl_algobase.h **** 	_GLIBCXX20_CONSTEXPR
 630:c:\programdata\chocolatey\lib\gcc-arm-embedded\tools\gcc-arm-none-eabi-10-2020-q4-major\arm-none-eabi\include\c++\10.2.1\bits\stl_algobase.h **** 	static _BI2
 631:c:\programdata\chocolatey\lib\gcc-arm-embedded\tools\gcc-arm-none-eabi-10-2020-q4-major\arm-none-eabi\include\c++\10.2.1\bits\stl_algobase.h **** 	__copy_move_b(_BI1 __first, _BI1 __last, _BI2 __result)
 632:c:\programdata\chocolatey\lib\gcc-arm-embedded\tools\gcc-arm-none-eabi-10-2020-q4-major\arm-none-eabi\include\c++\10.2.1\bits\stl_algobase.h **** 	{
 633:c:\programdata\chocolatey\lib\gcc-arm-embedded\tools\gcc-arm-none-eabi-10-2020-q4-major\arm-none-eabi\include\c++\10.2.1\bits\stl_algobase.h **** 	  while (__first != __last)
 634:c:\programdata\chocolatey\lib\gcc-arm-embedded\tools\gcc-arm-none-eabi-10-2020-q4-major\arm-none-eabi\include\c++\10.2.1\bits\stl_algobase.h **** 	    *--__result = std::move(*--__last);
 635:c:\programdata\chocolatey\lib\gcc-arm-embedded\tools\gcc-arm-none-eabi-10-2020-q4-major\arm-none-eabi\include\c++\10.2.1\bits\stl_algobase.h **** 	  return __result;
 636:c:\programdata\chocolatey\lib\gcc-arm-embedded\tools\gcc-arm-none-eabi-10-2020-q4-major\arm-none-eabi\include\c++\10.2.1\bits\stl_algobase.h **** 	}
 637:c:\programdata\chocolatey\lib\gcc-arm-embedded\tools\gcc-arm-none-eabi-10-2020-q4-major\arm-none-eabi\include\c++\10.2.1\bits\stl_algobase.h ****     };
 638:c:\programdata\chocolatey\lib\gcc-arm-embedded\tools\gcc-arm-none-eabi-10-2020-q4-major\arm-none-eabi\include\c++\10.2.1\bits\stl_algobase.h **** #endif
 639:c:\programdata\chocolatey\lib\gcc-arm-embedded\tools\gcc-arm-none-eabi-10-2020-q4-major\arm-none-eabi\include\c++\10.2.1\bits\stl_algobase.h **** 
 640:c:\programdata\chocolatey\lib\gcc-arm-embedded\tools\gcc-arm-none-eabi-10-2020-q4-major\arm-none-eabi\include\c++\10.2.1\bits\stl_algobase.h ****   template<>
 641:c:\programdata\chocolatey\lib\gcc-arm-embedded\tools\gcc-arm-none-eabi-10-2020-q4-major\arm-none-eabi\include\c++\10.2.1\bits\stl_algobase.h ****     struct __copy_move_backward<false, false, random_access_iterator_tag>
 642:c:\programdata\chocolatey\lib\gcc-arm-embedded\tools\gcc-arm-none-eabi-10-2020-q4-major\arm-none-eabi\include\c++\10.2.1\bits\stl_algobase.h ****     {
ARM GAS  C:\Users\daniel\AppData\Local\Temp\ccmFX6Ad.s 			page 19


 643:c:\programdata\chocolatey\lib\gcc-arm-embedded\tools\gcc-arm-none-eabi-10-2020-q4-major\arm-none-eabi\include\c++\10.2.1\bits\stl_algobase.h ****       template<typename _BI1, typename _BI2>
 644:c:\programdata\chocolatey\lib\gcc-arm-embedded\tools\gcc-arm-none-eabi-10-2020-q4-major\arm-none-eabi\include\c++\10.2.1\bits\stl_algobase.h **** 	_GLIBCXX20_CONSTEXPR
 645:c:\programdata\chocolatey\lib\gcc-arm-embedded\tools\gcc-arm-none-eabi-10-2020-q4-major\arm-none-eabi\include\c++\10.2.1\bits\stl_algobase.h **** 	static _BI2
 646:c:\programdata\chocolatey\lib\gcc-arm-embedded\tools\gcc-arm-none-eabi-10-2020-q4-major\arm-none-eabi\include\c++\10.2.1\bits\stl_algobase.h **** 	__copy_move_b(_BI1 __first, _BI1 __last, _BI2 __result)
 647:c:\programdata\chocolatey\lib\gcc-arm-embedded\tools\gcc-arm-none-eabi-10-2020-q4-major\arm-none-eabi\include\c++\10.2.1\bits\stl_algobase.h **** 	{
 648:c:\programdata\chocolatey\lib\gcc-arm-embedded\tools\gcc-arm-none-eabi-10-2020-q4-major\arm-none-eabi\include\c++\10.2.1\bits\stl_algobase.h **** 	  typename iterator_traits<_BI1>::difference_type
 649:c:\programdata\chocolatey\lib\gcc-arm-embedded\tools\gcc-arm-none-eabi-10-2020-q4-major\arm-none-eabi\include\c++\10.2.1\bits\stl_algobase.h **** 	    __n = __last - __first;
 650:c:\programdata\chocolatey\lib\gcc-arm-embedded\tools\gcc-arm-none-eabi-10-2020-q4-major\arm-none-eabi\include\c++\10.2.1\bits\stl_algobase.h **** 	  for (; __n > 0; --__n)
 651:c:\programdata\chocolatey\lib\gcc-arm-embedded\tools\gcc-arm-none-eabi-10-2020-q4-major\arm-none-eabi\include\c++\10.2.1\bits\stl_algobase.h **** 	    *--__result = *--__last;
 652:c:\programdata\chocolatey\lib\gcc-arm-embedded\tools\gcc-arm-none-eabi-10-2020-q4-major\arm-none-eabi\include\c++\10.2.1\bits\stl_algobase.h **** 	  return __result;
 653:c:\programdata\chocolatey\lib\gcc-arm-embedded\tools\gcc-arm-none-eabi-10-2020-q4-major\arm-none-eabi\include\c++\10.2.1\bits\stl_algobase.h **** 	}
 654:c:\programdata\chocolatey\lib\gcc-arm-embedded\tools\gcc-arm-none-eabi-10-2020-q4-major\arm-none-eabi\include\c++\10.2.1\bits\stl_algobase.h ****     };
 655:c:\programdata\chocolatey\lib\gcc-arm-embedded\tools\gcc-arm-none-eabi-10-2020-q4-major\arm-none-eabi\include\c++\10.2.1\bits\stl_algobase.h **** 
 656:c:\programdata\chocolatey\lib\gcc-arm-embedded\tools\gcc-arm-none-eabi-10-2020-q4-major\arm-none-eabi\include\c++\10.2.1\bits\stl_algobase.h **** #if __cplusplus >= 201103L
 657:c:\programdata\chocolatey\lib\gcc-arm-embedded\tools\gcc-arm-none-eabi-10-2020-q4-major\arm-none-eabi\include\c++\10.2.1\bits\stl_algobase.h ****   template<>
 658:c:\programdata\chocolatey\lib\gcc-arm-embedded\tools\gcc-arm-none-eabi-10-2020-q4-major\arm-none-eabi\include\c++\10.2.1\bits\stl_algobase.h ****     struct __copy_move_backward<true, false, random_access_iterator_tag>
 659:c:\programdata\chocolatey\lib\gcc-arm-embedded\tools\gcc-arm-none-eabi-10-2020-q4-major\arm-none-eabi\include\c++\10.2.1\bits\stl_algobase.h ****     {
 660:c:\programdata\chocolatey\lib\gcc-arm-embedded\tools\gcc-arm-none-eabi-10-2020-q4-major\arm-none-eabi\include\c++\10.2.1\bits\stl_algobase.h ****       template<typename _BI1, typename _BI2>
 661:c:\programdata\chocolatey\lib\gcc-arm-embedded\tools\gcc-arm-none-eabi-10-2020-q4-major\arm-none-eabi\include\c++\10.2.1\bits\stl_algobase.h **** 	_GLIBCXX20_CONSTEXPR
 662:c:\programdata\chocolatey\lib\gcc-arm-embedded\tools\gcc-arm-none-eabi-10-2020-q4-major\arm-none-eabi\include\c++\10.2.1\bits\stl_algobase.h **** 	static _BI2
 663:c:\programdata\chocolatey\lib\gcc-arm-embedded\tools\gcc-arm-none-eabi-10-2020-q4-major\arm-none-eabi\include\c++\10.2.1\bits\stl_algobase.h **** 	__copy_move_b(_BI1 __first, _BI1 __last, _BI2 __result)
 664:c:\programdata\chocolatey\lib\gcc-arm-embedded\tools\gcc-arm-none-eabi-10-2020-q4-major\arm-none-eabi\include\c++\10.2.1\bits\stl_algobase.h **** 	{
 665:c:\programdata\chocolatey\lib\gcc-arm-embedded\tools\gcc-arm-none-eabi-10-2020-q4-major\arm-none-eabi\include\c++\10.2.1\bits\stl_algobase.h **** 	  typename iterator_traits<_BI1>::difference_type
 666:c:\programdata\chocolatey\lib\gcc-arm-embedded\tools\gcc-arm-none-eabi-10-2020-q4-major\arm-none-eabi\include\c++\10.2.1\bits\stl_algobase.h **** 	    __n = __last - __first;
 667:c:\programdata\chocolatey\lib\gcc-arm-embedded\tools\gcc-arm-none-eabi-10-2020-q4-major\arm-none-eabi\include\c++\10.2.1\bits\stl_algobase.h **** 	  for (; __n > 0; --__n)
 668:c:\programdata\chocolatey\lib\gcc-arm-embedded\tools\gcc-arm-none-eabi-10-2020-q4-major\arm-none-eabi\include\c++\10.2.1\bits\stl_algobase.h **** 	    *--__result = std::move(*--__last);
 669:c:\programdata\chocolatey\lib\gcc-arm-embedded\tools\gcc-arm-none-eabi-10-2020-q4-major\arm-none-eabi\include\c++\10.2.1\bits\stl_algobase.h **** 	  return __result;
 670:c:\programdata\chocolatey\lib\gcc-arm-embedded\tools\gcc-arm-none-eabi-10-2020-q4-major\arm-none-eabi\include\c++\10.2.1\bits\stl_algobase.h **** 	}
 671:c:\programdata\chocolatey\lib\gcc-arm-embedded\tools\gcc-arm-none-eabi-10-2020-q4-major\arm-none-eabi\include\c++\10.2.1\bits\stl_algobase.h ****     };
 672:c:\programdata\chocolatey\lib\gcc-arm-embedded\tools\gcc-arm-none-eabi-10-2020-q4-major\arm-none-eabi\include\c++\10.2.1\bits\stl_algobase.h **** #endif
 673:c:\programdata\chocolatey\lib\gcc-arm-embedded\tools\gcc-arm-none-eabi-10-2020-q4-major\arm-none-eabi\include\c++\10.2.1\bits\stl_algobase.h **** 
 674:c:\programdata\chocolatey\lib\gcc-arm-embedded\tools\gcc-arm-none-eabi-10-2020-q4-major\arm-none-eabi\include\c++\10.2.1\bits\stl_algobase.h ****   template<bool _IsMove>
 675:c:\programdata\chocolatey\lib\gcc-arm-embedded\tools\gcc-arm-none-eabi-10-2020-q4-major\arm-none-eabi\include\c++\10.2.1\bits\stl_algobase.h ****     struct __copy_move_backward<_IsMove, true, random_access_iterator_tag>
 676:c:\programdata\chocolatey\lib\gcc-arm-embedded\tools\gcc-arm-none-eabi-10-2020-q4-major\arm-none-eabi\include\c++\10.2.1\bits\stl_algobase.h ****     {
 677:c:\programdata\chocolatey\lib\gcc-arm-embedded\tools\gcc-arm-none-eabi-10-2020-q4-major\arm-none-eabi\include\c++\10.2.1\bits\stl_algobase.h ****       template<typename _Tp>
 678:c:\programdata\chocolatey\lib\gcc-arm-embedded\tools\gcc-arm-none-eabi-10-2020-q4-major\arm-none-eabi\include\c++\10.2.1\bits\stl_algobase.h **** 	_GLIBCXX20_CONSTEXPR
 679:c:\programdata\chocolatey\lib\gcc-arm-embedded\tools\gcc-arm-none-eabi-10-2020-q4-major\arm-none-eabi\include\c++\10.2.1\bits\stl_algobase.h **** 	static _Tp*
 680:c:\programdata\chocolatey\lib\gcc-arm-embedded\tools\gcc-arm-none-eabi-10-2020-q4-major\arm-none-eabi\include\c++\10.2.1\bits\stl_algobase.h **** 	__copy_move_b(const _Tp* __first, const _Tp* __last, _Tp* __result)
 681:c:\programdata\chocolatey\lib\gcc-arm-embedded\tools\gcc-arm-none-eabi-10-2020-q4-major\arm-none-eabi\include\c++\10.2.1\bits\stl_algobase.h **** 	{
 682:c:\programdata\chocolatey\lib\gcc-arm-embedded\tools\gcc-arm-none-eabi-10-2020-q4-major\arm-none-eabi\include\c++\10.2.1\bits\stl_algobase.h **** #if __cplusplus >= 201103L
 683:c:\programdata\chocolatey\lib\gcc-arm-embedded\tools\gcc-arm-none-eabi-10-2020-q4-major\arm-none-eabi\include\c++\10.2.1\bits\stl_algobase.h **** 	  using __assignable = conditional<_IsMove,
 684:c:\programdata\chocolatey\lib\gcc-arm-embedded\tools\gcc-arm-none-eabi-10-2020-q4-major\arm-none-eabi\include\c++\10.2.1\bits\stl_algobase.h **** 					   is_move_assignable<_Tp>,
 685:c:\programdata\chocolatey\lib\gcc-arm-embedded\tools\gcc-arm-none-eabi-10-2020-q4-major\arm-none-eabi\include\c++\10.2.1\bits\stl_algobase.h **** 					   is_copy_assignable<_Tp>>;
 686:c:\programdata\chocolatey\lib\gcc-arm-embedded\tools\gcc-arm-none-eabi-10-2020-q4-major\arm-none-eabi\include\c++\10.2.1\bits\stl_algobase.h **** 	  // trivial types can have deleted assignment
 687:c:\programdata\chocolatey\lib\gcc-arm-embedded\tools\gcc-arm-none-eabi-10-2020-q4-major\arm-none-eabi\include\c++\10.2.1\bits\stl_algobase.h **** 	  static_assert( __assignable::type::value, "type is not assignable" );
 688:c:\programdata\chocolatey\lib\gcc-arm-embedded\tools\gcc-arm-none-eabi-10-2020-q4-major\arm-none-eabi\include\c++\10.2.1\bits\stl_algobase.h **** #endif
 689:c:\programdata\chocolatey\lib\gcc-arm-embedded\tools\gcc-arm-none-eabi-10-2020-q4-major\arm-none-eabi\include\c++\10.2.1\bits\stl_algobase.h **** 	  const ptrdiff_t _Num = __last - __first;
 690:c:\programdata\chocolatey\lib\gcc-arm-embedded\tools\gcc-arm-none-eabi-10-2020-q4-major\arm-none-eabi\include\c++\10.2.1\bits\stl_algobase.h **** 	  if (_Num)
 691:c:\programdata\chocolatey\lib\gcc-arm-embedded\tools\gcc-arm-none-eabi-10-2020-q4-major\arm-none-eabi\include\c++\10.2.1\bits\stl_algobase.h **** 	    __builtin_memmove(__result - _Num, __first, sizeof(_Tp) * _Num);
 692:c:\programdata\chocolatey\lib\gcc-arm-embedded\tools\gcc-arm-none-eabi-10-2020-q4-major\arm-none-eabi\include\c++\10.2.1\bits\stl_algobase.h **** 	  return __result - _Num;
 693:c:\programdata\chocolatey\lib\gcc-arm-embedded\tools\gcc-arm-none-eabi-10-2020-q4-major\arm-none-eabi\include\c++\10.2.1\bits\stl_algobase.h **** 	}
 694:c:\programdata\chocolatey\lib\gcc-arm-embedded\tools\gcc-arm-none-eabi-10-2020-q4-major\arm-none-eabi\include\c++\10.2.1\bits\stl_algobase.h ****     };
 695:c:\programdata\chocolatey\lib\gcc-arm-embedded\tools\gcc-arm-none-eabi-10-2020-q4-major\arm-none-eabi\include\c++\10.2.1\bits\stl_algobase.h **** 
 696:c:\programdata\chocolatey\lib\gcc-arm-embedded\tools\gcc-arm-none-eabi-10-2020-q4-major\arm-none-eabi\include\c++\10.2.1\bits\stl_algobase.h ****   template<bool _IsMove, typename _BI1, typename _BI2>
 697:c:\programdata\chocolatey\lib\gcc-arm-embedded\tools\gcc-arm-none-eabi-10-2020-q4-major\arm-none-eabi\include\c++\10.2.1\bits\stl_algobase.h ****     _GLIBCXX20_CONSTEXPR
 698:c:\programdata\chocolatey\lib\gcc-arm-embedded\tools\gcc-arm-none-eabi-10-2020-q4-major\arm-none-eabi\include\c++\10.2.1\bits\stl_algobase.h ****     inline _BI2
 699:c:\programdata\chocolatey\lib\gcc-arm-embedded\tools\gcc-arm-none-eabi-10-2020-q4-major\arm-none-eabi\include\c++\10.2.1\bits\stl_algobase.h ****     __copy_move_backward_a2(_BI1 __first, _BI1 __last, _BI2 __result)
ARM GAS  C:\Users\daniel\AppData\Local\Temp\ccmFX6Ad.s 			page 20


 700:c:\programdata\chocolatey\lib\gcc-arm-embedded\tools\gcc-arm-none-eabi-10-2020-q4-major\arm-none-eabi\include\c++\10.2.1\bits\stl_algobase.h ****     {
 701:c:\programdata\chocolatey\lib\gcc-arm-embedded\tools\gcc-arm-none-eabi-10-2020-q4-major\arm-none-eabi\include\c++\10.2.1\bits\stl_algobase.h ****       typedef typename iterator_traits<_BI1>::iterator_category _Category;
 702:c:\programdata\chocolatey\lib\gcc-arm-embedded\tools\gcc-arm-none-eabi-10-2020-q4-major\arm-none-eabi\include\c++\10.2.1\bits\stl_algobase.h **** #ifdef __cpp_lib_is_constant_evaluated
 703:c:\programdata\chocolatey\lib\gcc-arm-embedded\tools\gcc-arm-none-eabi-10-2020-q4-major\arm-none-eabi\include\c++\10.2.1\bits\stl_algobase.h ****       if (std::is_constant_evaluated())
 704:c:\programdata\chocolatey\lib\gcc-arm-embedded\tools\gcc-arm-none-eabi-10-2020-q4-major\arm-none-eabi\include\c++\10.2.1\bits\stl_algobase.h **** 	return std::__copy_move_backward<_IsMove, false, _Category>::
 705:c:\programdata\chocolatey\lib\gcc-arm-embedded\tools\gcc-arm-none-eabi-10-2020-q4-major\arm-none-eabi\include\c++\10.2.1\bits\stl_algobase.h **** 	  __copy_move_b(__first, __last, __result);
 706:c:\programdata\chocolatey\lib\gcc-arm-embedded\tools\gcc-arm-none-eabi-10-2020-q4-major\arm-none-eabi\include\c++\10.2.1\bits\stl_algobase.h **** #endif
 707:c:\programdata\chocolatey\lib\gcc-arm-embedded\tools\gcc-arm-none-eabi-10-2020-q4-major\arm-none-eabi\include\c++\10.2.1\bits\stl_algobase.h ****       return std::__copy_move_backward<_IsMove,
 708:c:\programdata\chocolatey\lib\gcc-arm-embedded\tools\gcc-arm-none-eabi-10-2020-q4-major\arm-none-eabi\include\c++\10.2.1\bits\stl_algobase.h **** 				       __memcpyable<_BI2, _BI1>::__value,
 709:c:\programdata\chocolatey\lib\gcc-arm-embedded\tools\gcc-arm-none-eabi-10-2020-q4-major\arm-none-eabi\include\c++\10.2.1\bits\stl_algobase.h **** 				       _Category>::__copy_move_b(__first,
 710:c:\programdata\chocolatey\lib\gcc-arm-embedded\tools\gcc-arm-none-eabi-10-2020-q4-major\arm-none-eabi\include\c++\10.2.1\bits\stl_algobase.h **** 								 __last,
 711:c:\programdata\chocolatey\lib\gcc-arm-embedded\tools\gcc-arm-none-eabi-10-2020-q4-major\arm-none-eabi\include\c++\10.2.1\bits\stl_algobase.h **** 								 __result);
 712:c:\programdata\chocolatey\lib\gcc-arm-embedded\tools\gcc-arm-none-eabi-10-2020-q4-major\arm-none-eabi\include\c++\10.2.1\bits\stl_algobase.h ****     }
 713:c:\programdata\chocolatey\lib\gcc-arm-embedded\tools\gcc-arm-none-eabi-10-2020-q4-major\arm-none-eabi\include\c++\10.2.1\bits\stl_algobase.h **** 
 714:c:\programdata\chocolatey\lib\gcc-arm-embedded\tools\gcc-arm-none-eabi-10-2020-q4-major\arm-none-eabi\include\c++\10.2.1\bits\stl_algobase.h ****   template<bool _IsMove, typename _BI1, typename _BI2>
 715:c:\programdata\chocolatey\lib\gcc-arm-embedded\tools\gcc-arm-none-eabi-10-2020-q4-major\arm-none-eabi\include\c++\10.2.1\bits\stl_algobase.h ****     _GLIBCXX20_CONSTEXPR
 716:c:\programdata\chocolatey\lib\gcc-arm-embedded\tools\gcc-arm-none-eabi-10-2020-q4-major\arm-none-eabi\include\c++\10.2.1\bits\stl_algobase.h ****     inline _BI2
 717:c:\programdata\chocolatey\lib\gcc-arm-embedded\tools\gcc-arm-none-eabi-10-2020-q4-major\arm-none-eabi\include\c++\10.2.1\bits\stl_algobase.h ****     __copy_move_backward_a1(_BI1 __first, _BI1 __last, _BI2 __result)
 718:c:\programdata\chocolatey\lib\gcc-arm-embedded\tools\gcc-arm-none-eabi-10-2020-q4-major\arm-none-eabi\include\c++\10.2.1\bits\stl_algobase.h ****     { return std::__copy_move_backward_a2<_IsMove>(__first, __last, __result); }
 719:c:\programdata\chocolatey\lib\gcc-arm-embedded\tools\gcc-arm-none-eabi-10-2020-q4-major\arm-none-eabi\include\c++\10.2.1\bits\stl_algobase.h **** 
 720:c:\programdata\chocolatey\lib\gcc-arm-embedded\tools\gcc-arm-none-eabi-10-2020-q4-major\arm-none-eabi\include\c++\10.2.1\bits\stl_algobase.h ****   template<bool _IsMove,
 721:c:\programdata\chocolatey\lib\gcc-arm-embedded\tools\gcc-arm-none-eabi-10-2020-q4-major\arm-none-eabi\include\c++\10.2.1\bits\stl_algobase.h **** 	   typename _Tp, typename _Ref, typename _Ptr, typename _OI>
 722:c:\programdata\chocolatey\lib\gcc-arm-embedded\tools\gcc-arm-none-eabi-10-2020-q4-major\arm-none-eabi\include\c++\10.2.1\bits\stl_algobase.h ****     _OI
 723:c:\programdata\chocolatey\lib\gcc-arm-embedded\tools\gcc-arm-none-eabi-10-2020-q4-major\arm-none-eabi\include\c++\10.2.1\bits\stl_algobase.h ****     __copy_move_backward_a1(_GLIBCXX_STD_C::_Deque_iterator<_Tp, _Ref, _Ptr>,
 724:c:\programdata\chocolatey\lib\gcc-arm-embedded\tools\gcc-arm-none-eabi-10-2020-q4-major\arm-none-eabi\include\c++\10.2.1\bits\stl_algobase.h **** 			    _GLIBCXX_STD_C::_Deque_iterator<_Tp, _Ref, _Ptr>,
 725:c:\programdata\chocolatey\lib\gcc-arm-embedded\tools\gcc-arm-none-eabi-10-2020-q4-major\arm-none-eabi\include\c++\10.2.1\bits\stl_algobase.h **** 			    _OI);
 726:c:\programdata\chocolatey\lib\gcc-arm-embedded\tools\gcc-arm-none-eabi-10-2020-q4-major\arm-none-eabi\include\c++\10.2.1\bits\stl_algobase.h **** 
 727:c:\programdata\chocolatey\lib\gcc-arm-embedded\tools\gcc-arm-none-eabi-10-2020-q4-major\arm-none-eabi\include\c++\10.2.1\bits\stl_algobase.h ****   template<bool _IsMove,
 728:c:\programdata\chocolatey\lib\gcc-arm-embedded\tools\gcc-arm-none-eabi-10-2020-q4-major\arm-none-eabi\include\c++\10.2.1\bits\stl_algobase.h **** 	   typename _ITp, typename _IRef, typename _IPtr, typename _OTp>
 729:c:\programdata\chocolatey\lib\gcc-arm-embedded\tools\gcc-arm-none-eabi-10-2020-q4-major\arm-none-eabi\include\c++\10.2.1\bits\stl_algobase.h ****     _GLIBCXX_STD_C::_Deque_iterator<_OTp, _OTp&, _OTp*>
 730:c:\programdata\chocolatey\lib\gcc-arm-embedded\tools\gcc-arm-none-eabi-10-2020-q4-major\arm-none-eabi\include\c++\10.2.1\bits\stl_algobase.h ****     __copy_move_backward_a1(
 731:c:\programdata\chocolatey\lib\gcc-arm-embedded\tools\gcc-arm-none-eabi-10-2020-q4-major\arm-none-eabi\include\c++\10.2.1\bits\stl_algobase.h **** 			_GLIBCXX_STD_C::_Deque_iterator<_ITp, _IRef, _IPtr>,
 732:c:\programdata\chocolatey\lib\gcc-arm-embedded\tools\gcc-arm-none-eabi-10-2020-q4-major\arm-none-eabi\include\c++\10.2.1\bits\stl_algobase.h **** 			_GLIBCXX_STD_C::_Deque_iterator<_ITp, _IRef, _IPtr>,
 733:c:\programdata\chocolatey\lib\gcc-arm-embedded\tools\gcc-arm-none-eabi-10-2020-q4-major\arm-none-eabi\include\c++\10.2.1\bits\stl_algobase.h **** 			_GLIBCXX_STD_C::_Deque_iterator<_OTp, _OTp&, _OTp*>);
 734:c:\programdata\chocolatey\lib\gcc-arm-embedded\tools\gcc-arm-none-eabi-10-2020-q4-major\arm-none-eabi\include\c++\10.2.1\bits\stl_algobase.h **** 
 735:c:\programdata\chocolatey\lib\gcc-arm-embedded\tools\gcc-arm-none-eabi-10-2020-q4-major\arm-none-eabi\include\c++\10.2.1\bits\stl_algobase.h ****   template<bool _IsMove, typename _II, typename _Tp>
 736:c:\programdata\chocolatey\lib\gcc-arm-embedded\tools\gcc-arm-none-eabi-10-2020-q4-major\arm-none-eabi\include\c++\10.2.1\bits\stl_algobase.h ****     typename __gnu_cxx::__enable_if<
 737:c:\programdata\chocolatey\lib\gcc-arm-embedded\tools\gcc-arm-none-eabi-10-2020-q4-major\arm-none-eabi\include\c++\10.2.1\bits\stl_algobase.h ****       __is_random_access_iter<_II>::__value,
 738:c:\programdata\chocolatey\lib\gcc-arm-embedded\tools\gcc-arm-none-eabi-10-2020-q4-major\arm-none-eabi\include\c++\10.2.1\bits\stl_algobase.h ****       _GLIBCXX_STD_C::_Deque_iterator<_Tp, _Tp&, _Tp*> >::__type
 739:c:\programdata\chocolatey\lib\gcc-arm-embedded\tools\gcc-arm-none-eabi-10-2020-q4-major\arm-none-eabi\include\c++\10.2.1\bits\stl_algobase.h ****     __copy_move_backward_a1(_II, _II,
 740:c:\programdata\chocolatey\lib\gcc-arm-embedded\tools\gcc-arm-none-eabi-10-2020-q4-major\arm-none-eabi\include\c++\10.2.1\bits\stl_algobase.h **** 			    _GLIBCXX_STD_C::_Deque_iterator<_Tp, _Tp&, _Tp*>);
 741:c:\programdata\chocolatey\lib\gcc-arm-embedded\tools\gcc-arm-none-eabi-10-2020-q4-major\arm-none-eabi\include\c++\10.2.1\bits\stl_algobase.h **** 
 742:c:\programdata\chocolatey\lib\gcc-arm-embedded\tools\gcc-arm-none-eabi-10-2020-q4-major\arm-none-eabi\include\c++\10.2.1\bits\stl_algobase.h ****   template<bool _IsMove, typename _II, typename _OI>
 743:c:\programdata\chocolatey\lib\gcc-arm-embedded\tools\gcc-arm-none-eabi-10-2020-q4-major\arm-none-eabi\include\c++\10.2.1\bits\stl_algobase.h ****     _GLIBCXX20_CONSTEXPR
 744:c:\programdata\chocolatey\lib\gcc-arm-embedded\tools\gcc-arm-none-eabi-10-2020-q4-major\arm-none-eabi\include\c++\10.2.1\bits\stl_algobase.h ****     inline _OI
 745:c:\programdata\chocolatey\lib\gcc-arm-embedded\tools\gcc-arm-none-eabi-10-2020-q4-major\arm-none-eabi\include\c++\10.2.1\bits\stl_algobase.h ****     __copy_move_backward_a(_II __first, _II __last, _OI __result)
 746:c:\programdata\chocolatey\lib\gcc-arm-embedded\tools\gcc-arm-none-eabi-10-2020-q4-major\arm-none-eabi\include\c++\10.2.1\bits\stl_algobase.h ****     {
 747:c:\programdata\chocolatey\lib\gcc-arm-embedded\tools\gcc-arm-none-eabi-10-2020-q4-major\arm-none-eabi\include\c++\10.2.1\bits\stl_algobase.h ****       return std::__niter_wrap(__result,
 748:c:\programdata\chocolatey\lib\gcc-arm-embedded\tools\gcc-arm-none-eabi-10-2020-q4-major\arm-none-eabi\include\c++\10.2.1\bits\stl_algobase.h **** 		std::__copy_move_backward_a1<_IsMove>
 749:c:\programdata\chocolatey\lib\gcc-arm-embedded\tools\gcc-arm-none-eabi-10-2020-q4-major\arm-none-eabi\include\c++\10.2.1\bits\stl_algobase.h **** 		  (std::__niter_base(__first), std::__niter_base(__last),
 750:c:\programdata\chocolatey\lib\gcc-arm-embedded\tools\gcc-arm-none-eabi-10-2020-q4-major\arm-none-eabi\include\c++\10.2.1\bits\stl_algobase.h **** 		   std::__niter_base(__result)));
 751:c:\programdata\chocolatey\lib\gcc-arm-embedded\tools\gcc-arm-none-eabi-10-2020-q4-major\arm-none-eabi\include\c++\10.2.1\bits\stl_algobase.h ****     }
 752:c:\programdata\chocolatey\lib\gcc-arm-embedded\tools\gcc-arm-none-eabi-10-2020-q4-major\arm-none-eabi\include\c++\10.2.1\bits\stl_algobase.h **** 
 753:c:\programdata\chocolatey\lib\gcc-arm-embedded\tools\gcc-arm-none-eabi-10-2020-q4-major\arm-none-eabi\include\c++\10.2.1\bits\stl_algobase.h ****   template<bool _IsMove,
 754:c:\programdata\chocolatey\lib\gcc-arm-embedded\tools\gcc-arm-none-eabi-10-2020-q4-major\arm-none-eabi\include\c++\10.2.1\bits\stl_algobase.h **** 	   typename _Ite, typename _Seq, typename _Cat, typename _OI>
 755:c:\programdata\chocolatey\lib\gcc-arm-embedded\tools\gcc-arm-none-eabi-10-2020-q4-major\arm-none-eabi\include\c++\10.2.1\bits\stl_algobase.h ****     _OI
 756:c:\programdata\chocolatey\lib\gcc-arm-embedded\tools\gcc-arm-none-eabi-10-2020-q4-major\arm-none-eabi\include\c++\10.2.1\bits\stl_algobase.h ****     __copy_move_backward_a(
ARM GAS  C:\Users\daniel\AppData\Local\Temp\ccmFX6Ad.s 			page 21


 757:c:\programdata\chocolatey\lib\gcc-arm-embedded\tools\gcc-arm-none-eabi-10-2020-q4-major\arm-none-eabi\include\c++\10.2.1\bits\stl_algobase.h **** 		const ::__gnu_debug::_Safe_iterator<_Ite, _Seq, _Cat>&,
 758:c:\programdata\chocolatey\lib\gcc-arm-embedded\tools\gcc-arm-none-eabi-10-2020-q4-major\arm-none-eabi\include\c++\10.2.1\bits\stl_algobase.h **** 		const ::__gnu_debug::_Safe_iterator<_Ite, _Seq, _Cat>&,
 759:c:\programdata\chocolatey\lib\gcc-arm-embedded\tools\gcc-arm-none-eabi-10-2020-q4-major\arm-none-eabi\include\c++\10.2.1\bits\stl_algobase.h **** 		_OI);
 760:c:\programdata\chocolatey\lib\gcc-arm-embedded\tools\gcc-arm-none-eabi-10-2020-q4-major\arm-none-eabi\include\c++\10.2.1\bits\stl_algobase.h **** 
 761:c:\programdata\chocolatey\lib\gcc-arm-embedded\tools\gcc-arm-none-eabi-10-2020-q4-major\arm-none-eabi\include\c++\10.2.1\bits\stl_algobase.h ****   template<bool _IsMove,
 762:c:\programdata\chocolatey\lib\gcc-arm-embedded\tools\gcc-arm-none-eabi-10-2020-q4-major\arm-none-eabi\include\c++\10.2.1\bits\stl_algobase.h **** 	   typename _II, typename _Ite, typename _Seq, typename _Cat>
 763:c:\programdata\chocolatey\lib\gcc-arm-embedded\tools\gcc-arm-none-eabi-10-2020-q4-major\arm-none-eabi\include\c++\10.2.1\bits\stl_algobase.h ****     __gnu_debug::_Safe_iterator<_Ite, _Seq, _Cat>
 764:c:\programdata\chocolatey\lib\gcc-arm-embedded\tools\gcc-arm-none-eabi-10-2020-q4-major\arm-none-eabi\include\c++\10.2.1\bits\stl_algobase.h ****     __copy_move_backward_a(_II, _II,
 765:c:\programdata\chocolatey\lib\gcc-arm-embedded\tools\gcc-arm-none-eabi-10-2020-q4-major\arm-none-eabi\include\c++\10.2.1\bits\stl_algobase.h **** 		const ::__gnu_debug::_Safe_iterator<_Ite, _Seq, _Cat>&);
 766:c:\programdata\chocolatey\lib\gcc-arm-embedded\tools\gcc-arm-none-eabi-10-2020-q4-major\arm-none-eabi\include\c++\10.2.1\bits\stl_algobase.h **** 
 767:c:\programdata\chocolatey\lib\gcc-arm-embedded\tools\gcc-arm-none-eabi-10-2020-q4-major\arm-none-eabi\include\c++\10.2.1\bits\stl_algobase.h ****   template<bool _IsMove,
 768:c:\programdata\chocolatey\lib\gcc-arm-embedded\tools\gcc-arm-none-eabi-10-2020-q4-major\arm-none-eabi\include\c++\10.2.1\bits\stl_algobase.h **** 	   typename _IIte, typename _ISeq, typename _ICat,
 769:c:\programdata\chocolatey\lib\gcc-arm-embedded\tools\gcc-arm-none-eabi-10-2020-q4-major\arm-none-eabi\include\c++\10.2.1\bits\stl_algobase.h **** 	   typename _OIte, typename _OSeq, typename _OCat>
 770:c:\programdata\chocolatey\lib\gcc-arm-embedded\tools\gcc-arm-none-eabi-10-2020-q4-major\arm-none-eabi\include\c++\10.2.1\bits\stl_algobase.h ****     ::__gnu_debug::_Safe_iterator<_OIte, _OSeq, _OCat>
 771:c:\programdata\chocolatey\lib\gcc-arm-embedded\tools\gcc-arm-none-eabi-10-2020-q4-major\arm-none-eabi\include\c++\10.2.1\bits\stl_algobase.h ****     __copy_move_backward_a(
 772:c:\programdata\chocolatey\lib\gcc-arm-embedded\tools\gcc-arm-none-eabi-10-2020-q4-major\arm-none-eabi\include\c++\10.2.1\bits\stl_algobase.h **** 		const ::__gnu_debug::_Safe_iterator<_IIte, _ISeq, _ICat>&,
 773:c:\programdata\chocolatey\lib\gcc-arm-embedded\tools\gcc-arm-none-eabi-10-2020-q4-major\arm-none-eabi\include\c++\10.2.1\bits\stl_algobase.h **** 		const ::__gnu_debug::_Safe_iterator<_IIte, _ISeq, _ICat>&,
 774:c:\programdata\chocolatey\lib\gcc-arm-embedded\tools\gcc-arm-none-eabi-10-2020-q4-major\arm-none-eabi\include\c++\10.2.1\bits\stl_algobase.h **** 		const ::__gnu_debug::_Safe_iterator<_OIte, _OSeq, _OCat>&);
 775:c:\programdata\chocolatey\lib\gcc-arm-embedded\tools\gcc-arm-none-eabi-10-2020-q4-major\arm-none-eabi\include\c++\10.2.1\bits\stl_algobase.h **** 
 776:c:\programdata\chocolatey\lib\gcc-arm-embedded\tools\gcc-arm-none-eabi-10-2020-q4-major\arm-none-eabi\include\c++\10.2.1\bits\stl_algobase.h ****   /**
 777:c:\programdata\chocolatey\lib\gcc-arm-embedded\tools\gcc-arm-none-eabi-10-2020-q4-major\arm-none-eabi\include\c++\10.2.1\bits\stl_algobase.h ****    *  @brief Copies the range [first,last) into result.
 778:c:\programdata\chocolatey\lib\gcc-arm-embedded\tools\gcc-arm-none-eabi-10-2020-q4-major\arm-none-eabi\include\c++\10.2.1\bits\stl_algobase.h ****    *  @ingroup mutating_algorithms
 779:c:\programdata\chocolatey\lib\gcc-arm-embedded\tools\gcc-arm-none-eabi-10-2020-q4-major\arm-none-eabi\include\c++\10.2.1\bits\stl_algobase.h ****    *  @param  __first  A bidirectional iterator.
 780:c:\programdata\chocolatey\lib\gcc-arm-embedded\tools\gcc-arm-none-eabi-10-2020-q4-major\arm-none-eabi\include\c++\10.2.1\bits\stl_algobase.h ****    *  @param  __last   A bidirectional iterator.
 781:c:\programdata\chocolatey\lib\gcc-arm-embedded\tools\gcc-arm-none-eabi-10-2020-q4-major\arm-none-eabi\include\c++\10.2.1\bits\stl_algobase.h ****    *  @param  __result A bidirectional iterator.
 782:c:\programdata\chocolatey\lib\gcc-arm-embedded\tools\gcc-arm-none-eabi-10-2020-q4-major\arm-none-eabi\include\c++\10.2.1\bits\stl_algobase.h ****    *  @return   result - (last - first)
 783:c:\programdata\chocolatey\lib\gcc-arm-embedded\tools\gcc-arm-none-eabi-10-2020-q4-major\arm-none-eabi\include\c++\10.2.1\bits\stl_algobase.h ****    *
 784:c:\programdata\chocolatey\lib\gcc-arm-embedded\tools\gcc-arm-none-eabi-10-2020-q4-major\arm-none-eabi\include\c++\10.2.1\bits\stl_algobase.h ****    *  The function has the same effect as copy, but starts at the end of the
 785:c:\programdata\chocolatey\lib\gcc-arm-embedded\tools\gcc-arm-none-eabi-10-2020-q4-major\arm-none-eabi\include\c++\10.2.1\bits\stl_algobase.h ****    *  range and works its way to the start, returning the start of the result.
 786:c:\programdata\chocolatey\lib\gcc-arm-embedded\tools\gcc-arm-none-eabi-10-2020-q4-major\arm-none-eabi\include\c++\10.2.1\bits\stl_algobase.h ****    *  This inline function will boil down to a call to @c memmove whenever
 787:c:\programdata\chocolatey\lib\gcc-arm-embedded\tools\gcc-arm-none-eabi-10-2020-q4-major\arm-none-eabi\include\c++\10.2.1\bits\stl_algobase.h ****    *  possible.  Failing that, if random access iterators are passed, then the
 788:c:\programdata\chocolatey\lib\gcc-arm-embedded\tools\gcc-arm-none-eabi-10-2020-q4-major\arm-none-eabi\include\c++\10.2.1\bits\stl_algobase.h ****    *  loop count will be known (and therefore a candidate for compiler
 789:c:\programdata\chocolatey\lib\gcc-arm-embedded\tools\gcc-arm-none-eabi-10-2020-q4-major\arm-none-eabi\include\c++\10.2.1\bits\stl_algobase.h ****    *  optimizations such as unrolling).
 790:c:\programdata\chocolatey\lib\gcc-arm-embedded\tools\gcc-arm-none-eabi-10-2020-q4-major\arm-none-eabi\include\c++\10.2.1\bits\stl_algobase.h ****    *
 791:c:\programdata\chocolatey\lib\gcc-arm-embedded\tools\gcc-arm-none-eabi-10-2020-q4-major\arm-none-eabi\include\c++\10.2.1\bits\stl_algobase.h ****    *  Result may not be in the range (first,last].  Use copy instead.  Note
 792:c:\programdata\chocolatey\lib\gcc-arm-embedded\tools\gcc-arm-none-eabi-10-2020-q4-major\arm-none-eabi\include\c++\10.2.1\bits\stl_algobase.h ****    *  that the start of the output range may overlap [first,last).
 793:c:\programdata\chocolatey\lib\gcc-arm-embedded\tools\gcc-arm-none-eabi-10-2020-q4-major\arm-none-eabi\include\c++\10.2.1\bits\stl_algobase.h ****   */
 794:c:\programdata\chocolatey\lib\gcc-arm-embedded\tools\gcc-arm-none-eabi-10-2020-q4-major\arm-none-eabi\include\c++\10.2.1\bits\stl_algobase.h ****   template<typename _BI1, typename _BI2>
 795:c:\programdata\chocolatey\lib\gcc-arm-embedded\tools\gcc-arm-none-eabi-10-2020-q4-major\arm-none-eabi\include\c++\10.2.1\bits\stl_algobase.h ****     _GLIBCXX20_CONSTEXPR
 796:c:\programdata\chocolatey\lib\gcc-arm-embedded\tools\gcc-arm-none-eabi-10-2020-q4-major\arm-none-eabi\include\c++\10.2.1\bits\stl_algobase.h ****     inline _BI2
 797:c:\programdata\chocolatey\lib\gcc-arm-embedded\tools\gcc-arm-none-eabi-10-2020-q4-major\arm-none-eabi\include\c++\10.2.1\bits\stl_algobase.h ****     copy_backward(_BI1 __first, _BI1 __last, _BI2 __result)
 798:c:\programdata\chocolatey\lib\gcc-arm-embedded\tools\gcc-arm-none-eabi-10-2020-q4-major\arm-none-eabi\include\c++\10.2.1\bits\stl_algobase.h ****     {
 799:c:\programdata\chocolatey\lib\gcc-arm-embedded\tools\gcc-arm-none-eabi-10-2020-q4-major\arm-none-eabi\include\c++\10.2.1\bits\stl_algobase.h ****       // concept requirements
 800:c:\programdata\chocolatey\lib\gcc-arm-embedded\tools\gcc-arm-none-eabi-10-2020-q4-major\arm-none-eabi\include\c++\10.2.1\bits\stl_algobase.h ****       __glibcxx_function_requires(_BidirectionalIteratorConcept<_BI1>)
 801:c:\programdata\chocolatey\lib\gcc-arm-embedded\tools\gcc-arm-none-eabi-10-2020-q4-major\arm-none-eabi\include\c++\10.2.1\bits\stl_algobase.h ****       __glibcxx_function_requires(_Mutable_BidirectionalIteratorConcept<_BI2>)
 802:c:\programdata\chocolatey\lib\gcc-arm-embedded\tools\gcc-arm-none-eabi-10-2020-q4-major\arm-none-eabi\include\c++\10.2.1\bits\stl_algobase.h ****       __glibcxx_function_requires(_ConvertibleConcept<
 803:c:\programdata\chocolatey\lib\gcc-arm-embedded\tools\gcc-arm-none-eabi-10-2020-q4-major\arm-none-eabi\include\c++\10.2.1\bits\stl_algobase.h **** 	    typename iterator_traits<_BI1>::value_type,
 804:c:\programdata\chocolatey\lib\gcc-arm-embedded\tools\gcc-arm-none-eabi-10-2020-q4-major\arm-none-eabi\include\c++\10.2.1\bits\stl_algobase.h **** 	    typename iterator_traits<_BI2>::value_type>)
 805:c:\programdata\chocolatey\lib\gcc-arm-embedded\tools\gcc-arm-none-eabi-10-2020-q4-major\arm-none-eabi\include\c++\10.2.1\bits\stl_algobase.h ****       __glibcxx_requires_can_decrement_range(__first, __last, __result);
 806:c:\programdata\chocolatey\lib\gcc-arm-embedded\tools\gcc-arm-none-eabi-10-2020-q4-major\arm-none-eabi\include\c++\10.2.1\bits\stl_algobase.h **** 
 807:c:\programdata\chocolatey\lib\gcc-arm-embedded\tools\gcc-arm-none-eabi-10-2020-q4-major\arm-none-eabi\include\c++\10.2.1\bits\stl_algobase.h ****       return std::__copy_move_backward_a<__is_move_iterator<_BI1>::__value>
 808:c:\programdata\chocolatey\lib\gcc-arm-embedded\tools\gcc-arm-none-eabi-10-2020-q4-major\arm-none-eabi\include\c++\10.2.1\bits\stl_algobase.h **** 	     (std::__miter_base(__first), std::__miter_base(__last), __result);
 809:c:\programdata\chocolatey\lib\gcc-arm-embedded\tools\gcc-arm-none-eabi-10-2020-q4-major\arm-none-eabi\include\c++\10.2.1\bits\stl_algobase.h ****     }
 810:c:\programdata\chocolatey\lib\gcc-arm-embedded\tools\gcc-arm-none-eabi-10-2020-q4-major\arm-none-eabi\include\c++\10.2.1\bits\stl_algobase.h **** 
 811:c:\programdata\chocolatey\lib\gcc-arm-embedded\tools\gcc-arm-none-eabi-10-2020-q4-major\arm-none-eabi\include\c++\10.2.1\bits\stl_algobase.h **** #if __cplusplus >= 201103L
 812:c:\programdata\chocolatey\lib\gcc-arm-embedded\tools\gcc-arm-none-eabi-10-2020-q4-major\arm-none-eabi\include\c++\10.2.1\bits\stl_algobase.h ****   /**
 813:c:\programdata\chocolatey\lib\gcc-arm-embedded\tools\gcc-arm-none-eabi-10-2020-q4-major\arm-none-eabi\include\c++\10.2.1\bits\stl_algobase.h ****    *  @brief Moves the range [first,last) into result.
ARM GAS  C:\Users\daniel\AppData\Local\Temp\ccmFX6Ad.s 			page 22


 814:c:\programdata\chocolatey\lib\gcc-arm-embedded\tools\gcc-arm-none-eabi-10-2020-q4-major\arm-none-eabi\include\c++\10.2.1\bits\stl_algobase.h ****    *  @ingroup mutating_algorithms
 815:c:\programdata\chocolatey\lib\gcc-arm-embedded\tools\gcc-arm-none-eabi-10-2020-q4-major\arm-none-eabi\include\c++\10.2.1\bits\stl_algobase.h ****    *  @param  __first  A bidirectional iterator.
 816:c:\programdata\chocolatey\lib\gcc-arm-embedded\tools\gcc-arm-none-eabi-10-2020-q4-major\arm-none-eabi\include\c++\10.2.1\bits\stl_algobase.h ****    *  @param  __last   A bidirectional iterator.
 817:c:\programdata\chocolatey\lib\gcc-arm-embedded\tools\gcc-arm-none-eabi-10-2020-q4-major\arm-none-eabi\include\c++\10.2.1\bits\stl_algobase.h ****    *  @param  __result A bidirectional iterator.
 818:c:\programdata\chocolatey\lib\gcc-arm-embedded\tools\gcc-arm-none-eabi-10-2020-q4-major\arm-none-eabi\include\c++\10.2.1\bits\stl_algobase.h ****    *  @return   result - (last - first)
 819:c:\programdata\chocolatey\lib\gcc-arm-embedded\tools\gcc-arm-none-eabi-10-2020-q4-major\arm-none-eabi\include\c++\10.2.1\bits\stl_algobase.h ****    *
 820:c:\programdata\chocolatey\lib\gcc-arm-embedded\tools\gcc-arm-none-eabi-10-2020-q4-major\arm-none-eabi\include\c++\10.2.1\bits\stl_algobase.h ****    *  The function has the same effect as move, but starts at the end of the
 821:c:\programdata\chocolatey\lib\gcc-arm-embedded\tools\gcc-arm-none-eabi-10-2020-q4-major\arm-none-eabi\include\c++\10.2.1\bits\stl_algobase.h ****    *  range and works its way to the start, returning the start of the result.
 822:c:\programdata\chocolatey\lib\gcc-arm-embedded\tools\gcc-arm-none-eabi-10-2020-q4-major\arm-none-eabi\include\c++\10.2.1\bits\stl_algobase.h ****    *  This inline function will boil down to a call to @c memmove whenever
 823:c:\programdata\chocolatey\lib\gcc-arm-embedded\tools\gcc-arm-none-eabi-10-2020-q4-major\arm-none-eabi\include\c++\10.2.1\bits\stl_algobase.h ****    *  possible.  Failing that, if random access iterators are passed, then the
 824:c:\programdata\chocolatey\lib\gcc-arm-embedded\tools\gcc-arm-none-eabi-10-2020-q4-major\arm-none-eabi\include\c++\10.2.1\bits\stl_algobase.h ****    *  loop count will be known (and therefore a candidate for compiler
 825:c:\programdata\chocolatey\lib\gcc-arm-embedded\tools\gcc-arm-none-eabi-10-2020-q4-major\arm-none-eabi\include\c++\10.2.1\bits\stl_algobase.h ****    *  optimizations such as unrolling).
 826:c:\programdata\chocolatey\lib\gcc-arm-embedded\tools\gcc-arm-none-eabi-10-2020-q4-major\arm-none-eabi\include\c++\10.2.1\bits\stl_algobase.h ****    *
 827:c:\programdata\chocolatey\lib\gcc-arm-embedded\tools\gcc-arm-none-eabi-10-2020-q4-major\arm-none-eabi\include\c++\10.2.1\bits\stl_algobase.h ****    *  Result may not be in the range (first,last].  Use move instead.  Note
 828:c:\programdata\chocolatey\lib\gcc-arm-embedded\tools\gcc-arm-none-eabi-10-2020-q4-major\arm-none-eabi\include\c++\10.2.1\bits\stl_algobase.h ****    *  that the start of the output range may overlap [first,last).
 829:c:\programdata\chocolatey\lib\gcc-arm-embedded\tools\gcc-arm-none-eabi-10-2020-q4-major\arm-none-eabi\include\c++\10.2.1\bits\stl_algobase.h ****   */
 830:c:\programdata\chocolatey\lib\gcc-arm-embedded\tools\gcc-arm-none-eabi-10-2020-q4-major\arm-none-eabi\include\c++\10.2.1\bits\stl_algobase.h ****   template<typename _BI1, typename _BI2>
 831:c:\programdata\chocolatey\lib\gcc-arm-embedded\tools\gcc-arm-none-eabi-10-2020-q4-major\arm-none-eabi\include\c++\10.2.1\bits\stl_algobase.h ****     _GLIBCXX20_CONSTEXPR
 832:c:\programdata\chocolatey\lib\gcc-arm-embedded\tools\gcc-arm-none-eabi-10-2020-q4-major\arm-none-eabi\include\c++\10.2.1\bits\stl_algobase.h ****     inline _BI2
 833:c:\programdata\chocolatey\lib\gcc-arm-embedded\tools\gcc-arm-none-eabi-10-2020-q4-major\arm-none-eabi\include\c++\10.2.1\bits\stl_algobase.h ****     move_backward(_BI1 __first, _BI1 __last, _BI2 __result)
 834:c:\programdata\chocolatey\lib\gcc-arm-embedded\tools\gcc-arm-none-eabi-10-2020-q4-major\arm-none-eabi\include\c++\10.2.1\bits\stl_algobase.h ****     {
 835:c:\programdata\chocolatey\lib\gcc-arm-embedded\tools\gcc-arm-none-eabi-10-2020-q4-major\arm-none-eabi\include\c++\10.2.1\bits\stl_algobase.h ****       // concept requirements
 836:c:\programdata\chocolatey\lib\gcc-arm-embedded\tools\gcc-arm-none-eabi-10-2020-q4-major\arm-none-eabi\include\c++\10.2.1\bits\stl_algobase.h ****       __glibcxx_function_requires(_BidirectionalIteratorConcept<_BI1>)
 837:c:\programdata\chocolatey\lib\gcc-arm-embedded\tools\gcc-arm-none-eabi-10-2020-q4-major\arm-none-eabi\include\c++\10.2.1\bits\stl_algobase.h ****       __glibcxx_function_requires(_Mutable_BidirectionalIteratorConcept<_BI2>)
 838:c:\programdata\chocolatey\lib\gcc-arm-embedded\tools\gcc-arm-none-eabi-10-2020-q4-major\arm-none-eabi\include\c++\10.2.1\bits\stl_algobase.h ****       __glibcxx_function_requires(_ConvertibleConcept<
 839:c:\programdata\chocolatey\lib\gcc-arm-embedded\tools\gcc-arm-none-eabi-10-2020-q4-major\arm-none-eabi\include\c++\10.2.1\bits\stl_algobase.h **** 	    typename iterator_traits<_BI1>::value_type,
 840:c:\programdata\chocolatey\lib\gcc-arm-embedded\tools\gcc-arm-none-eabi-10-2020-q4-major\arm-none-eabi\include\c++\10.2.1\bits\stl_algobase.h **** 	    typename iterator_traits<_BI2>::value_type>)
 841:c:\programdata\chocolatey\lib\gcc-arm-embedded\tools\gcc-arm-none-eabi-10-2020-q4-major\arm-none-eabi\include\c++\10.2.1\bits\stl_algobase.h ****       __glibcxx_requires_can_decrement_range(__first, __last, __result);
 842:c:\programdata\chocolatey\lib\gcc-arm-embedded\tools\gcc-arm-none-eabi-10-2020-q4-major\arm-none-eabi\include\c++\10.2.1\bits\stl_algobase.h **** 
 843:c:\programdata\chocolatey\lib\gcc-arm-embedded\tools\gcc-arm-none-eabi-10-2020-q4-major\arm-none-eabi\include\c++\10.2.1\bits\stl_algobase.h ****       return std::__copy_move_backward_a<true>(std::__miter_base(__first),
 844:c:\programdata\chocolatey\lib\gcc-arm-embedded\tools\gcc-arm-none-eabi-10-2020-q4-major\arm-none-eabi\include\c++\10.2.1\bits\stl_algobase.h **** 					       std::__miter_base(__last),
 845:c:\programdata\chocolatey\lib\gcc-arm-embedded\tools\gcc-arm-none-eabi-10-2020-q4-major\arm-none-eabi\include\c++\10.2.1\bits\stl_algobase.h **** 					       __result);
 846:c:\programdata\chocolatey\lib\gcc-arm-embedded\tools\gcc-arm-none-eabi-10-2020-q4-major\arm-none-eabi\include\c++\10.2.1\bits\stl_algobase.h ****     }
 847:c:\programdata\chocolatey\lib\gcc-arm-embedded\tools\gcc-arm-none-eabi-10-2020-q4-major\arm-none-eabi\include\c++\10.2.1\bits\stl_algobase.h **** 
 848:c:\programdata\chocolatey\lib\gcc-arm-embedded\tools\gcc-arm-none-eabi-10-2020-q4-major\arm-none-eabi\include\c++\10.2.1\bits\stl_algobase.h **** #define _GLIBCXX_MOVE_BACKWARD3(_Tp, _Up, _Vp) std::move_backward(_Tp, _Up, _Vp)
 849:c:\programdata\chocolatey\lib\gcc-arm-embedded\tools\gcc-arm-none-eabi-10-2020-q4-major\arm-none-eabi\include\c++\10.2.1\bits\stl_algobase.h **** #else
 850:c:\programdata\chocolatey\lib\gcc-arm-embedded\tools\gcc-arm-none-eabi-10-2020-q4-major\arm-none-eabi\include\c++\10.2.1\bits\stl_algobase.h **** #define _GLIBCXX_MOVE_BACKWARD3(_Tp, _Up, _Vp) std::copy_backward(_Tp, _Up, _Vp)
 851:c:\programdata\chocolatey\lib\gcc-arm-embedded\tools\gcc-arm-none-eabi-10-2020-q4-major\arm-none-eabi\include\c++\10.2.1\bits\stl_algobase.h **** #endif
 852:c:\programdata\chocolatey\lib\gcc-arm-embedded\tools\gcc-arm-none-eabi-10-2020-q4-major\arm-none-eabi\include\c++\10.2.1\bits\stl_algobase.h **** 
 853:c:\programdata\chocolatey\lib\gcc-arm-embedded\tools\gcc-arm-none-eabi-10-2020-q4-major\arm-none-eabi\include\c++\10.2.1\bits\stl_algobase.h ****   template<typename _ForwardIterator, typename _Tp>
 854:c:\programdata\chocolatey\lib\gcc-arm-embedded\tools\gcc-arm-none-eabi-10-2020-q4-major\arm-none-eabi\include\c++\10.2.1\bits\stl_algobase.h ****     _GLIBCXX20_CONSTEXPR
 855:c:\programdata\chocolatey\lib\gcc-arm-embedded\tools\gcc-arm-none-eabi-10-2020-q4-major\arm-none-eabi\include\c++\10.2.1\bits\stl_algobase.h ****     inline typename
 856:c:\programdata\chocolatey\lib\gcc-arm-embedded\tools\gcc-arm-none-eabi-10-2020-q4-major\arm-none-eabi\include\c++\10.2.1\bits\stl_algobase.h ****     __gnu_cxx::__enable_if<!__is_scalar<_Tp>::__value, void>::__type
 857:c:\programdata\chocolatey\lib\gcc-arm-embedded\tools\gcc-arm-none-eabi-10-2020-q4-major\arm-none-eabi\include\c++\10.2.1\bits\stl_algobase.h ****     __fill_a1(_ForwardIterator __first, _ForwardIterator __last,
 858:c:\programdata\chocolatey\lib\gcc-arm-embedded\tools\gcc-arm-none-eabi-10-2020-q4-major\arm-none-eabi\include\c++\10.2.1\bits\stl_algobase.h **** 	      const _Tp& __value)
 859:c:\programdata\chocolatey\lib\gcc-arm-embedded\tools\gcc-arm-none-eabi-10-2020-q4-major\arm-none-eabi\include\c++\10.2.1\bits\stl_algobase.h ****     {
 860:c:\programdata\chocolatey\lib\gcc-arm-embedded\tools\gcc-arm-none-eabi-10-2020-q4-major\arm-none-eabi\include\c++\10.2.1\bits\stl_algobase.h ****       for (; __first != __last; ++__first)
 861:c:\programdata\chocolatey\lib\gcc-arm-embedded\tools\gcc-arm-none-eabi-10-2020-q4-major\arm-none-eabi\include\c++\10.2.1\bits\stl_algobase.h **** 	*__first = __value;
 862:c:\programdata\chocolatey\lib\gcc-arm-embedded\tools\gcc-arm-none-eabi-10-2020-q4-major\arm-none-eabi\include\c++\10.2.1\bits\stl_algobase.h ****     }
 863:c:\programdata\chocolatey\lib\gcc-arm-embedded\tools\gcc-arm-none-eabi-10-2020-q4-major\arm-none-eabi\include\c++\10.2.1\bits\stl_algobase.h **** 
 864:c:\programdata\chocolatey\lib\gcc-arm-embedded\tools\gcc-arm-none-eabi-10-2020-q4-major\arm-none-eabi\include\c++\10.2.1\bits\stl_algobase.h ****   template<typename _ForwardIterator, typename _Tp>
 865:c:\programdata\chocolatey\lib\gcc-arm-embedded\tools\gcc-arm-none-eabi-10-2020-q4-major\arm-none-eabi\include\c++\10.2.1\bits\stl_algobase.h ****     _GLIBCXX20_CONSTEXPR
 866:c:\programdata\chocolatey\lib\gcc-arm-embedded\tools\gcc-arm-none-eabi-10-2020-q4-major\arm-none-eabi\include\c++\10.2.1\bits\stl_algobase.h ****     inline typename
 867:c:\programdata\chocolatey\lib\gcc-arm-embedded\tools\gcc-arm-none-eabi-10-2020-q4-major\arm-none-eabi\include\c++\10.2.1\bits\stl_algobase.h ****     __gnu_cxx::__enable_if<__is_scalar<_Tp>::__value, void>::__type
 868:c:\programdata\chocolatey\lib\gcc-arm-embedded\tools\gcc-arm-none-eabi-10-2020-q4-major\arm-none-eabi\include\c++\10.2.1\bits\stl_algobase.h ****     __fill_a1(_ForwardIterator __first, _ForwardIterator __last,
 869:c:\programdata\chocolatey\lib\gcc-arm-embedded\tools\gcc-arm-none-eabi-10-2020-q4-major\arm-none-eabi\include\c++\10.2.1\bits\stl_algobase.h **** 	      const _Tp& __value)
 870:c:\programdata\chocolatey\lib\gcc-arm-embedded\tools\gcc-arm-none-eabi-10-2020-q4-major\arm-none-eabi\include\c++\10.2.1\bits\stl_algobase.h ****     {
ARM GAS  C:\Users\daniel\AppData\Local\Temp\ccmFX6Ad.s 			page 23


 871:c:\programdata\chocolatey\lib\gcc-arm-embedded\tools\gcc-arm-none-eabi-10-2020-q4-major\arm-none-eabi\include\c++\10.2.1\bits\stl_algobase.h ****       const _Tp __tmp = __value;
 872:c:\programdata\chocolatey\lib\gcc-arm-embedded\tools\gcc-arm-none-eabi-10-2020-q4-major\arm-none-eabi\include\c++\10.2.1\bits\stl_algobase.h ****       for (; __first != __last; ++__first)
 873:c:\programdata\chocolatey\lib\gcc-arm-embedded\tools\gcc-arm-none-eabi-10-2020-q4-major\arm-none-eabi\include\c++\10.2.1\bits\stl_algobase.h **** 	*__first = __tmp;
 874:c:\programdata\chocolatey\lib\gcc-arm-embedded\tools\gcc-arm-none-eabi-10-2020-q4-major\arm-none-eabi\include\c++\10.2.1\bits\stl_algobase.h ****     }
 875:c:\programdata\chocolatey\lib\gcc-arm-embedded\tools\gcc-arm-none-eabi-10-2020-q4-major\arm-none-eabi\include\c++\10.2.1\bits\stl_algobase.h **** 
 876:c:\programdata\chocolatey\lib\gcc-arm-embedded\tools\gcc-arm-none-eabi-10-2020-q4-major\arm-none-eabi\include\c++\10.2.1\bits\stl_algobase.h ****   // Specialization: for char types we can use memset.
 877:c:\programdata\chocolatey\lib\gcc-arm-embedded\tools\gcc-arm-none-eabi-10-2020-q4-major\arm-none-eabi\include\c++\10.2.1\bits\stl_algobase.h ****   template<typename _Tp>
 878:c:\programdata\chocolatey\lib\gcc-arm-embedded\tools\gcc-arm-none-eabi-10-2020-q4-major\arm-none-eabi\include\c++\10.2.1\bits\stl_algobase.h ****     _GLIBCXX20_CONSTEXPR
 879:c:\programdata\chocolatey\lib\gcc-arm-embedded\tools\gcc-arm-none-eabi-10-2020-q4-major\arm-none-eabi\include\c++\10.2.1\bits\stl_algobase.h ****     inline typename
 880:c:\programdata\chocolatey\lib\gcc-arm-embedded\tools\gcc-arm-none-eabi-10-2020-q4-major\arm-none-eabi\include\c++\10.2.1\bits\stl_algobase.h ****     __gnu_cxx::__enable_if<__is_byte<_Tp>::__value, void>::__type
 881:c:\programdata\chocolatey\lib\gcc-arm-embedded\tools\gcc-arm-none-eabi-10-2020-q4-major\arm-none-eabi\include\c++\10.2.1\bits\stl_algobase.h ****     __fill_a1(_Tp* __first, _Tp* __last, const _Tp& __c)
 882:c:\programdata\chocolatey\lib\gcc-arm-embedded\tools\gcc-arm-none-eabi-10-2020-q4-major\arm-none-eabi\include\c++\10.2.1\bits\stl_algobase.h ****     {
 883:c:\programdata\chocolatey\lib\gcc-arm-embedded\tools\gcc-arm-none-eabi-10-2020-q4-major\arm-none-eabi\include\c++\10.2.1\bits\stl_algobase.h ****       const _Tp __tmp = __c;
 884:c:\programdata\chocolatey\lib\gcc-arm-embedded\tools\gcc-arm-none-eabi-10-2020-q4-major\arm-none-eabi\include\c++\10.2.1\bits\stl_algobase.h **** #if __cpp_lib_is_constant_evaluated
 885:c:\programdata\chocolatey\lib\gcc-arm-embedded\tools\gcc-arm-none-eabi-10-2020-q4-major\arm-none-eabi\include\c++\10.2.1\bits\stl_algobase.h ****       if (std::is_constant_evaluated())
 886:c:\programdata\chocolatey\lib\gcc-arm-embedded\tools\gcc-arm-none-eabi-10-2020-q4-major\arm-none-eabi\include\c++\10.2.1\bits\stl_algobase.h **** 	{
 887:c:\programdata\chocolatey\lib\gcc-arm-embedded\tools\gcc-arm-none-eabi-10-2020-q4-major\arm-none-eabi\include\c++\10.2.1\bits\stl_algobase.h **** 	  for (; __first != __last; ++__first)
 888:c:\programdata\chocolatey\lib\gcc-arm-embedded\tools\gcc-arm-none-eabi-10-2020-q4-major\arm-none-eabi\include\c++\10.2.1\bits\stl_algobase.h **** 	    *__first = __tmp;
 889:c:\programdata\chocolatey\lib\gcc-arm-embedded\tools\gcc-arm-none-eabi-10-2020-q4-major\arm-none-eabi\include\c++\10.2.1\bits\stl_algobase.h **** 	  return;
 890:c:\programdata\chocolatey\lib\gcc-arm-embedded\tools\gcc-arm-none-eabi-10-2020-q4-major\arm-none-eabi\include\c++\10.2.1\bits\stl_algobase.h **** 	}
 891:c:\programdata\chocolatey\lib\gcc-arm-embedded\tools\gcc-arm-none-eabi-10-2020-q4-major\arm-none-eabi\include\c++\10.2.1\bits\stl_algobase.h **** #endif
 892:c:\programdata\chocolatey\lib\gcc-arm-embedded\tools\gcc-arm-none-eabi-10-2020-q4-major\arm-none-eabi\include\c++\10.2.1\bits\stl_algobase.h ****       if (const size_t __len = __last - __first)
 893:c:\programdata\chocolatey\lib\gcc-arm-embedded\tools\gcc-arm-none-eabi-10-2020-q4-major\arm-none-eabi\include\c++\10.2.1\bits\stl_algobase.h **** 	__builtin_memset(__first, static_cast<unsigned char>(__tmp), __len);
 894:c:\programdata\chocolatey\lib\gcc-arm-embedded\tools\gcc-arm-none-eabi-10-2020-q4-major\arm-none-eabi\include\c++\10.2.1\bits\stl_algobase.h ****     }
 895:c:\programdata\chocolatey\lib\gcc-arm-embedded\tools\gcc-arm-none-eabi-10-2020-q4-major\arm-none-eabi\include\c++\10.2.1\bits\stl_algobase.h **** 
 896:c:\programdata\chocolatey\lib\gcc-arm-embedded\tools\gcc-arm-none-eabi-10-2020-q4-major\arm-none-eabi\include\c++\10.2.1\bits\stl_algobase.h ****   template<typename _Ite, typename _Cont, typename _Tp>
 897:c:\programdata\chocolatey\lib\gcc-arm-embedded\tools\gcc-arm-none-eabi-10-2020-q4-major\arm-none-eabi\include\c++\10.2.1\bits\stl_algobase.h ****     _GLIBCXX20_CONSTEXPR
 898:c:\programdata\chocolatey\lib\gcc-arm-embedded\tools\gcc-arm-none-eabi-10-2020-q4-major\arm-none-eabi\include\c++\10.2.1\bits\stl_algobase.h ****     inline void
 899:c:\programdata\chocolatey\lib\gcc-arm-embedded\tools\gcc-arm-none-eabi-10-2020-q4-major\arm-none-eabi\include\c++\10.2.1\bits\stl_algobase.h ****     __fill_a1(::__gnu_cxx::__normal_iterator<_Ite, _Cont> __first,
 900:c:\programdata\chocolatey\lib\gcc-arm-embedded\tools\gcc-arm-none-eabi-10-2020-q4-major\arm-none-eabi\include\c++\10.2.1\bits\stl_algobase.h **** 	      ::__gnu_cxx::__normal_iterator<_Ite, _Cont> __last,
 901:c:\programdata\chocolatey\lib\gcc-arm-embedded\tools\gcc-arm-none-eabi-10-2020-q4-major\arm-none-eabi\include\c++\10.2.1\bits\stl_algobase.h **** 	      const _Tp& __value)
 902:c:\programdata\chocolatey\lib\gcc-arm-embedded\tools\gcc-arm-none-eabi-10-2020-q4-major\arm-none-eabi\include\c++\10.2.1\bits\stl_algobase.h ****     { std::__fill_a1(__first.base(), __last.base(), __value); }
 903:c:\programdata\chocolatey\lib\gcc-arm-embedded\tools\gcc-arm-none-eabi-10-2020-q4-major\arm-none-eabi\include\c++\10.2.1\bits\stl_algobase.h **** 
 904:c:\programdata\chocolatey\lib\gcc-arm-embedded\tools\gcc-arm-none-eabi-10-2020-q4-major\arm-none-eabi\include\c++\10.2.1\bits\stl_algobase.h ****   template<typename _Tp, typename _VTp>
 905:c:\programdata\chocolatey\lib\gcc-arm-embedded\tools\gcc-arm-none-eabi-10-2020-q4-major\arm-none-eabi\include\c++\10.2.1\bits\stl_algobase.h ****     void
 906:c:\programdata\chocolatey\lib\gcc-arm-embedded\tools\gcc-arm-none-eabi-10-2020-q4-major\arm-none-eabi\include\c++\10.2.1\bits\stl_algobase.h ****     __fill_a1(const _GLIBCXX_STD_C::_Deque_iterator<_Tp, _Tp&, _Tp*>&,
 907:c:\programdata\chocolatey\lib\gcc-arm-embedded\tools\gcc-arm-none-eabi-10-2020-q4-major\arm-none-eabi\include\c++\10.2.1\bits\stl_algobase.h **** 	      const _GLIBCXX_STD_C::_Deque_iterator<_Tp, _Tp&, _Tp*>&,
 908:c:\programdata\chocolatey\lib\gcc-arm-embedded\tools\gcc-arm-none-eabi-10-2020-q4-major\arm-none-eabi\include\c++\10.2.1\bits\stl_algobase.h **** 	      const _VTp&);
 909:c:\programdata\chocolatey\lib\gcc-arm-embedded\tools\gcc-arm-none-eabi-10-2020-q4-major\arm-none-eabi\include\c++\10.2.1\bits\stl_algobase.h **** 
 910:c:\programdata\chocolatey\lib\gcc-arm-embedded\tools\gcc-arm-none-eabi-10-2020-q4-major\arm-none-eabi\include\c++\10.2.1\bits\stl_algobase.h ****   template<typename _FIte, typename _Tp>
 911:c:\programdata\chocolatey\lib\gcc-arm-embedded\tools\gcc-arm-none-eabi-10-2020-q4-major\arm-none-eabi\include\c++\10.2.1\bits\stl_algobase.h ****     _GLIBCXX20_CONSTEXPR
 912:c:\programdata\chocolatey\lib\gcc-arm-embedded\tools\gcc-arm-none-eabi-10-2020-q4-major\arm-none-eabi\include\c++\10.2.1\bits\stl_algobase.h ****     inline void
 913:c:\programdata\chocolatey\lib\gcc-arm-embedded\tools\gcc-arm-none-eabi-10-2020-q4-major\arm-none-eabi\include\c++\10.2.1\bits\stl_algobase.h ****     __fill_a(_FIte __first, _FIte __last, const _Tp& __value)
 914:c:\programdata\chocolatey\lib\gcc-arm-embedded\tools\gcc-arm-none-eabi-10-2020-q4-major\arm-none-eabi\include\c++\10.2.1\bits\stl_algobase.h ****     { std::__fill_a1(__first, __last, __value); }
 915:c:\programdata\chocolatey\lib\gcc-arm-embedded\tools\gcc-arm-none-eabi-10-2020-q4-major\arm-none-eabi\include\c++\10.2.1\bits\stl_algobase.h **** 
 916:c:\programdata\chocolatey\lib\gcc-arm-embedded\tools\gcc-arm-none-eabi-10-2020-q4-major\arm-none-eabi\include\c++\10.2.1\bits\stl_algobase.h ****   template<typename _Ite, typename _Seq, typename _Cat, typename _Tp>
 917:c:\programdata\chocolatey\lib\gcc-arm-embedded\tools\gcc-arm-none-eabi-10-2020-q4-major\arm-none-eabi\include\c++\10.2.1\bits\stl_algobase.h ****     void
 918:c:\programdata\chocolatey\lib\gcc-arm-embedded\tools\gcc-arm-none-eabi-10-2020-q4-major\arm-none-eabi\include\c++\10.2.1\bits\stl_algobase.h ****     __fill_a(const ::__gnu_debug::_Safe_iterator<_Ite, _Seq, _Cat>&,
 919:c:\programdata\chocolatey\lib\gcc-arm-embedded\tools\gcc-arm-none-eabi-10-2020-q4-major\arm-none-eabi\include\c++\10.2.1\bits\stl_algobase.h **** 	     const ::__gnu_debug::_Safe_iterator<_Ite, _Seq, _Cat>&,
 920:c:\programdata\chocolatey\lib\gcc-arm-embedded\tools\gcc-arm-none-eabi-10-2020-q4-major\arm-none-eabi\include\c++\10.2.1\bits\stl_algobase.h **** 	     const _Tp&);
 921:c:\programdata\chocolatey\lib\gcc-arm-embedded\tools\gcc-arm-none-eabi-10-2020-q4-major\arm-none-eabi\include\c++\10.2.1\bits\stl_algobase.h **** 
 922:c:\programdata\chocolatey\lib\gcc-arm-embedded\tools\gcc-arm-none-eabi-10-2020-q4-major\arm-none-eabi\include\c++\10.2.1\bits\stl_algobase.h ****   /**
 923:c:\programdata\chocolatey\lib\gcc-arm-embedded\tools\gcc-arm-none-eabi-10-2020-q4-major\arm-none-eabi\include\c++\10.2.1\bits\stl_algobase.h ****    *  @brief Fills the range [first,last) with copies of value.
 924:c:\programdata\chocolatey\lib\gcc-arm-embedded\tools\gcc-arm-none-eabi-10-2020-q4-major\arm-none-eabi\include\c++\10.2.1\bits\stl_algobase.h ****    *  @ingroup mutating_algorithms
 925:c:\programdata\chocolatey\lib\gcc-arm-embedded\tools\gcc-arm-none-eabi-10-2020-q4-major\arm-none-eabi\include\c++\10.2.1\bits\stl_algobase.h ****    *  @param  __first  A forward iterator.
 926:c:\programdata\chocolatey\lib\gcc-arm-embedded\tools\gcc-arm-none-eabi-10-2020-q4-major\arm-none-eabi\include\c++\10.2.1\bits\stl_algobase.h ****    *  @param  __last   A forward iterator.
 927:c:\programdata\chocolatey\lib\gcc-arm-embedded\tools\gcc-arm-none-eabi-10-2020-q4-major\arm-none-eabi\include\c++\10.2.1\bits\stl_algobase.h ****    *  @param  __value  A reference-to-const of arbitrary type.
ARM GAS  C:\Users\daniel\AppData\Local\Temp\ccmFX6Ad.s 			page 24


 928:c:\programdata\chocolatey\lib\gcc-arm-embedded\tools\gcc-arm-none-eabi-10-2020-q4-major\arm-none-eabi\include\c++\10.2.1\bits\stl_algobase.h ****    *  @return   Nothing.
 929:c:\programdata\chocolatey\lib\gcc-arm-embedded\tools\gcc-arm-none-eabi-10-2020-q4-major\arm-none-eabi\include\c++\10.2.1\bits\stl_algobase.h ****    *
 930:c:\programdata\chocolatey\lib\gcc-arm-embedded\tools\gcc-arm-none-eabi-10-2020-q4-major\arm-none-eabi\include\c++\10.2.1\bits\stl_algobase.h ****    *  This function fills a range with copies of the same value.  For char
 931:c:\programdata\chocolatey\lib\gcc-arm-embedded\tools\gcc-arm-none-eabi-10-2020-q4-major\arm-none-eabi\include\c++\10.2.1\bits\stl_algobase.h ****    *  types filling contiguous areas of memory, this becomes an inline call
 932:c:\programdata\chocolatey\lib\gcc-arm-embedded\tools\gcc-arm-none-eabi-10-2020-q4-major\arm-none-eabi\include\c++\10.2.1\bits\stl_algobase.h ****    *  to @c memset or @c wmemset.
 933:c:\programdata\chocolatey\lib\gcc-arm-embedded\tools\gcc-arm-none-eabi-10-2020-q4-major\arm-none-eabi\include\c++\10.2.1\bits\stl_algobase.h ****   */
 934:c:\programdata\chocolatey\lib\gcc-arm-embedded\tools\gcc-arm-none-eabi-10-2020-q4-major\arm-none-eabi\include\c++\10.2.1\bits\stl_algobase.h ****   template<typename _ForwardIterator, typename _Tp>
 935:c:\programdata\chocolatey\lib\gcc-arm-embedded\tools\gcc-arm-none-eabi-10-2020-q4-major\arm-none-eabi\include\c++\10.2.1\bits\stl_algobase.h ****     _GLIBCXX20_CONSTEXPR
 936:c:\programdata\chocolatey\lib\gcc-arm-embedded\tools\gcc-arm-none-eabi-10-2020-q4-major\arm-none-eabi\include\c++\10.2.1\bits\stl_algobase.h ****     inline void
 937:c:\programdata\chocolatey\lib\gcc-arm-embedded\tools\gcc-arm-none-eabi-10-2020-q4-major\arm-none-eabi\include\c++\10.2.1\bits\stl_algobase.h ****     fill(_ForwardIterator __first, _ForwardIterator __last, const _Tp& __value)
 175              		.loc 3 937 5 discriminator 2 view .LVU40
 176              	.LBB99:
 177              	.LBI99:
 913:c:\programdata\chocolatey\lib\gcc-arm-embedded\tools\gcc-arm-none-eabi-10-2020-q4-major\arm-none-eabi\include\c++\10.2.1\bits\stl_algobase.h ****     { std::__fill_a1(__first, __last, __value); }
 178              		.loc 3 913 5 discriminator 2 view .LVU41
 179              	.LBB100:
 180              	.LBI100:
 868:c:\programdata\chocolatey\lib\gcc-arm-embedded\tools\gcc-arm-none-eabi-10-2020-q4-major\arm-none-eabi\include\c++\10.2.1\bits\stl_algobase.h **** 	      const _Tp& __value)
 181              		.loc 3 868 5 discriminator 2 view .LVU42
 868:c:\programdata\chocolatey\lib\gcc-arm-embedded\tools\gcc-arm-none-eabi-10-2020-q4-major\arm-none-eabi\include\c++\10.2.1\bits\stl_algobase.h **** 	      const _Tp& __value)
 182              		.loc 3 868 5 is_stmt 0 discriminator 2 view .LVU43
 183              	.LBE100:
 184              	.LBE99:
 185              	.LBE98:
 186              		.loc 2 69 51 discriminator 2 view .LVU44
 187 0010 A268     		ldr	r2, [r4, #8]
 188              	.LBB107:
 189              	.LBB105:
 190              	.LBB103:
 191              	.LBB101:
 873:c:\programdata\chocolatey\lib\gcc-arm-embedded\tools\gcc-arm-none-eabi-10-2020-q4-major\arm-none-eabi\include\c++\10.2.1\bits\stl_algobase.h ****     }
 192              		.loc 3 873 11 discriminator 2 view .LVU45
 193 0012 0021     		movs	r1, #0
 194 0014 56F8040B 		ldr	r0, [r6], #4
 195              	.LVL17:
 873:c:\programdata\chocolatey\lib\gcc-arm-embedded\tools\gcc-arm-none-eabi-10-2020-q4-major\arm-none-eabi\include\c++\10.2.1\bits\stl_algobase.h ****     }
 196              		.loc 3 873 11 discriminator 2 view .LVU46
 197              	.LBE101:
 198              	.LBE103:
 199              	.LBE105:
 200              	.LBE107:
  67:dsp/pvoc/frame_transformation.cpp ****     {
 201              		.loc 2 67 5 discriminator 2 view .LVU47
 202 0018 0135     		adds	r5, r5, #1
 203              	.LVL18:
 204              	.LBB108:
 205              	.LBB106:
 206              	.LBB104:
 207              	.LBB102:
 873:c:\programdata\chocolatey\lib\gcc-arm-embedded\tools\gcc-arm-none-eabi-10-2020-q4-major\arm-none-eabi\include\c++\10.2.1\bits\stl_algobase.h ****     }
 208              		.loc 3 873 11 discriminator 2 view .LVU48
 209 001a 9200     		lsls	r2, r2, #2
 210 001c FFF7FEFF 		bl	memset
 211              	.LVL19:
 873:c:\programdata\chocolatey\lib\gcc-arm-embedded\tools\gcc-arm-none-eabi-10-2020-q4-major\arm-none-eabi\include\c++\10.2.1\bits\stl_algobase.h ****     }
 212              		.loc 3 873 11 discriminator 2 view .LVU49
 213              	.LBE102:
ARM GAS  C:\Users\daniel\AppData\Local\Temp\ccmFX6Ad.s 			page 25


 214              	.LBE104:
 215              	.LBE106:
 216              	.LBE108:
  67:dsp/pvoc/frame_transformation.cpp ****     {
 217              		.loc 2 67 5 is_stmt 1 discriminator 2 view .LVU50
  67:dsp/pvoc/frame_transformation.cpp ****     {
 218              		.loc 2 67 5 is_stmt 0 discriminator 2 view .LVU51
 219 0020 F4E7     		b	.L7
 220              	.L5:
  67:dsp/pvoc/frame_transformation.cpp ****     {
 221              		.loc 2 67 5 discriminator 2 view .LVU52
 222              	.LBE97:
  70:dsp/pvoc/frame_transformation.cpp ****     }
  71:dsp/pvoc/frame_transformation.cpp **** }
 223              		.loc 2 71 1 view .LVU53
 224 0022 F8BD     		pop	{r3, r4, r5, r6, r7, pc}
 225              		.loc 2 71 1 view .LVU54
 226              		.cfi_endproc
 227              	.LFE4795:
 229              		.section	.text._ZN19FrameTransformation4InitEPfll,"ax",%progbits
 230              		.align	1
 231              		.global	_ZN19FrameTransformation4InitEPfll
 232              		.syntax unified
 233              		.thumb
 234              		.thumb_func
 235              		.fpu fpv5-d16
 237              	_ZN19FrameTransformation4InitEPfll:
 238              	.LVL20:
 239              	.LFB4794:
  48:dsp/pvoc/frame_transformation.cpp ****     fft_size_ = fft_size;
 240              		.loc 2 48 1 is_stmt 1 view -0
 241              		.cfi_startproc
 242              		@ args = 0, pretend = 0, frame = 0
 243              		@ frame_needed = 0, uses_anonymous_args = 0
 244              		@ link register save eliminated.
  49:dsp/pvoc/frame_transformation.cpp ****     size_     = (fft_size >> 1) - kHighFrequencyTruncation;
 245              		.loc 2 49 5 view .LVU56
  49:dsp/pvoc/frame_transformation.cpp ****     size_     = (fft_size >> 1) - kHighFrequencyTruncation;
 246              		.loc 2 49 15 is_stmt 0 view .LVU57
 247 0000 0260     		str	r2, [r0]
  50:dsp/pvoc/frame_transformation.cpp **** 
 248              		.loc 2 50 5 is_stmt 1 view .LVU58
  50:dsp/pvoc/frame_transformation.cpp **** 
 249              		.loc 2 50 27 is_stmt 0 view .LVU59
 250 0002 5210     		asrs	r2, r2, #1
 251              	.LVL21:
  50:dsp/pvoc/frame_transformation.cpp **** 
 252              		.loc 2 50 33 view .LVU60
 253 0004 103A     		subs	r2, r2, #16
  48:dsp/pvoc/frame_transformation.cpp ****     fft_size_ = fft_size;
 254              		.loc 2 48 1 view .LVU61
 255 0006 70B4     		push	{r4, r5, r6}
 256              		.cfi_def_cfa_offset 12
 257              		.cfi_offset 4, -12
 258              		.cfi_offset 5, -8
 259              		.cfi_offset 6, -4
 260 0008 9600     		lsls	r6, r2, #2
ARM GAS  C:\Users\daniel\AppData\Local\Temp\ccmFX6Ad.s 			page 26


 261 000a 00F10C05 		add	r5, r0, #12
 262              	.LBB109:
  52:dsp/pvoc/frame_transformation.cpp ****     {
 263              		.loc 2 52 17 view .LVU62
 264 000e 0024     		movs	r4, #0
 265              	.LBE109:
  50:dsp/pvoc/frame_transformation.cpp **** 
 266              		.loc 2 50 15 view .LVU63
 267 0010 8260     		str	r2, [r0, #8]
  52:dsp/pvoc/frame_transformation.cpp ****     {
 268              		.loc 2 52 5 is_stmt 1 view .LVU64
 269              	.LVL22:
 270              	.L10:
 271              	.LBB110:
  52:dsp/pvoc/frame_transformation.cpp ****     {
 272              		.loc 2 52 26 discriminator 3 view .LVU65
 273 0012 9C42     		cmp	r4, r3
 274 0014 04DA     		bge	.L9
  54:dsp/pvoc/frame_transformation.cpp ****     }
 275              		.loc 2 54 9 discriminator 2 view .LVU66
  54:dsp/pvoc/frame_transformation.cpp ****     }
 276              		.loc 2 54 22 is_stmt 0 discriminator 2 view .LVU67
 277 0016 45F8041B 		str	r1, [r5], #4
  52:dsp/pvoc/frame_transformation.cpp ****     {
 278              		.loc 2 52 5 is_stmt 1 discriminator 2 view .LVU68
 279 001a 0134     		adds	r4, r4, #1
 280              	.LVL23:
  52:dsp/pvoc/frame_transformation.cpp ****     {
 281              		.loc 2 52 5 is_stmt 0 discriminator 2 view .LVU69
 282 001c 3144     		add	r1, r1, r6
 283 001e F8E7     		b	.L10
 284              	.L9:
  52:dsp/pvoc/frame_transformation.cpp ****     {
 285              		.loc 2 52 5 discriminator 2 view .LVU70
 286              	.LBE110:
  56:dsp/pvoc/frame_transformation.cpp ****     num_textures_
 287              		.loc 2 56 5 is_stmt 1 view .LVU71
  56:dsp/pvoc/frame_transformation.cpp ****     num_textures_
 288              		.loc 2 56 69 is_stmt 0 view .LVU72
 289 0020 591E     		subs	r1, r3, #1
  56:dsp/pvoc/frame_transformation.cpp ****     num_textures_
 290              		.loc 2 56 72 view .LVU73
 291 0022 00EB8303 		add	r3, r0, r3, lsl #2
 292              	.LVL24:
  56:dsp/pvoc/frame_transformation.cpp ****     num_textures_
 293              		.loc 2 56 72 view .LVU74
 294 0026 9B68     		ldr	r3, [r3, #8]
  58:dsp/pvoc/frame_transformation.cpp ****     phases_delta_ = phases_ + size_;
 295              		.loc 2 58 9 view .LVU75
 296 0028 4160     		str	r1, [r0, #4]
  59:dsp/pvoc/frame_transformation.cpp **** 
 297              		.loc 2 59 29 view .LVU76
 298 002a 03EB4202 		add	r2, r3, r2, lsl #1
  56:dsp/pvoc/frame_transformation.cpp ****     num_textures_
 299              		.loc 2 56 13 view .LVU77
 300 002e 8362     		str	r3, [r0, #40]
  57:dsp/pvoc/frame_transformation.cpp ****         = num_textures - 1; // Last texture is used for storing phases.
ARM GAS  C:\Users\daniel\AppData\Local\Temp\ccmFX6Ad.s 			page 27


 301              		.loc 2 57 5 is_stmt 1 view .LVU78
  59:dsp/pvoc/frame_transformation.cpp **** 
 302              		.loc 2 59 5 view .LVU79
  61:dsp/pvoc/frame_transformation.cpp ****     Reset();
 303              		.loc 2 61 23 is_stmt 0 view .LVU80
 304 0030 0023     		movs	r3, #0
  59:dsp/pvoc/frame_transformation.cpp **** 
 305              		.loc 2 59 19 view .LVU81
 306 0032 C262     		str	r2, [r0, #44]
  61:dsp/pvoc/frame_transformation.cpp ****     Reset();
 307              		.loc 2 61 5 is_stmt 1 view .LVU82
  61:dsp/pvoc/frame_transformation.cpp ****     Reset();
 308              		.loc 2 61 23 is_stmt 0 view .LVU83
 309 0034 80F83030 		strb	r3, [r0, #48]
  62:dsp/pvoc/frame_transformation.cpp **** }
 310              		.loc 2 62 5 is_stmt 1 view .LVU84
  63:dsp/pvoc/frame_transformation.cpp **** 
 311              		.loc 2 63 1 is_stmt 0 view .LVU85
 312 0038 70BC     		pop	{r4, r5, r6}
 313              		.cfi_restore 6
 314              		.cfi_restore 5
 315              		.cfi_restore 4
 316              		.cfi_def_cfa_offset 0
 317              	.LVL25:
  62:dsp/pvoc/frame_transformation.cpp **** }
 318              		.loc 2 62 10 view .LVU86
 319 003a FFF7FEBF 		b	_ZN19FrameTransformation5ResetEv
 320              	.LVL26:
  62:dsp/pvoc/frame_transformation.cpp **** }
 321              		.loc 2 62 10 view .LVU87
 322              		.cfi_endproc
 323              	.LFE4794:
 325              		.section	.text._ZN19FrameTransformation18RectangularToPolarEPf,"ax",%progbits
 326              		.align	1
 327              		.global	_ZN19FrameTransformation18RectangularToPolarEPf
 328              		.syntax unified
 329              		.thumb
 330              		.thumb_func
 331              		.fpu fpv5-d16
 333              	_ZN19FrameTransformation18RectangularToPolarEPf:
 334              	.LVL27:
 335              	.LFB4797:
  72:dsp/pvoc/frame_transformation.cpp **** 
  73:dsp/pvoc/frame_transformation.cpp **** void FrameTransformation::Process(const Parameters& parameters,
  74:dsp/pvoc/frame_transformation.cpp ****                                   float*            fft_out,
  75:dsp/pvoc/frame_transformation.cpp ****                                   float*            ifft_in)
  76:dsp/pvoc/frame_transformation.cpp **** {
  77:dsp/pvoc/frame_transformation.cpp ****     fft_out[0]              = 0.0f;
  78:dsp/pvoc/frame_transformation.cpp ****     fft_out[fft_size_ >> 1] = 0.0f;
  79:dsp/pvoc/frame_transformation.cpp **** 
  80:dsp/pvoc/frame_transformation.cpp ****     bool  freeze      = parameters.freeze;
  81:dsp/pvoc/frame_transformation.cpp ****     bool  glitch      = parameters.gate;
  82:dsp/pvoc/frame_transformation.cpp ****     float pitch_ratio = SemitonesToRatio(parameters.pitch);
  83:dsp/pvoc/frame_transformation.cpp **** 
  84:dsp/pvoc/frame_transformation.cpp ****     if(!freeze)
  85:dsp/pvoc/frame_transformation.cpp ****     {
  86:dsp/pvoc/frame_transformation.cpp ****         RectangularToPolar(fft_out);
ARM GAS  C:\Users\daniel\AppData\Local\Temp\ccmFX6Ad.s 			page 28


  87:dsp/pvoc/frame_transformation.cpp ****         StoreMagnitudes(
  88:dsp/pvoc/frame_transformation.cpp ****             fft_out, parameters.position, parameters.spectral.refresh_rate);
  89:dsp/pvoc/frame_transformation.cpp ****     }
  90:dsp/pvoc/frame_transformation.cpp ****     float* temp = &fft_out[0];
  91:dsp/pvoc/frame_transformation.cpp ****     ReplayMagnitudes(ifft_in, parameters.position);
  92:dsp/pvoc/frame_transformation.cpp ****     WarpMagnitudes(ifft_in, temp, parameters.spectral.warp);
  93:dsp/pvoc/frame_transformation.cpp ****     ShiftMagnitudes(temp, ifft_in, pitch_ratio);
  94:dsp/pvoc/frame_transformation.cpp ****     if(glitch)
  95:dsp/pvoc/frame_transformation.cpp ****     {
  96:dsp/pvoc/frame_transformation.cpp ****         AddGlitch(ifft_in);
  97:dsp/pvoc/frame_transformation.cpp ****     }
  98:dsp/pvoc/frame_transformation.cpp ****     QuantizeMagnitudes(ifft_in, parameters.spectral.quantization);
  99:dsp/pvoc/frame_transformation.cpp ****     SetPhases(ifft_in, parameters.spectral.phase_randomization, pitch_ratio);
 100:dsp/pvoc/frame_transformation.cpp ****     PolarToRectangular(ifft_in);
 101:dsp/pvoc/frame_transformation.cpp **** 
 102:dsp/pvoc/frame_transformation.cpp ****     if(!glitch)
 103:dsp/pvoc/frame_transformation.cpp ****     {
 104:dsp/pvoc/frame_transformation.cpp ****         // Decide on which glitch algorithm will be used next time... if glitch
 105:dsp/pvoc/frame_transformation.cpp ****         // is enabled on the next frame!
 106:dsp/pvoc/frame_transformation.cpp ****         glitch_algorithm_ = static_cast<int16_t>(rand() >> 16) & 3;
 107:dsp/pvoc/frame_transformation.cpp ****     }
 108:dsp/pvoc/frame_transformation.cpp **** 
 109:dsp/pvoc/frame_transformation.cpp ****     ifft_in[0]              = 0.0f;
 110:dsp/pvoc/frame_transformation.cpp ****     ifft_in[fft_size_ >> 1] = 0.0f;
 111:dsp/pvoc/frame_transformation.cpp **** }
 112:dsp/pvoc/frame_transformation.cpp **** 
 113:dsp/pvoc/frame_transformation.cpp **** void FrameTransformation::RectangularToPolar(float* fft_data)
 114:dsp/pvoc/frame_transformation.cpp **** {
 336              		.loc 2 114 1 is_stmt 1 view -0
 337              		.cfi_startproc
 338              		@ args = 0, pretend = 0, frame = 0
 339              		@ frame_needed = 0, uses_anonymous_args = 0
 115:dsp/pvoc/frame_transformation.cpp ****     float* real      = &fft_data[0];
 340              		.loc 2 115 5 view .LVU89
 116:dsp/pvoc/frame_transformation.cpp ****     float* imag      = &fft_data[fft_size_ >> 1];
 341              		.loc 2 116 5 view .LVU90
 117:dsp/pvoc/frame_transformation.cpp ****     float* magnitude = &fft_data[0];
 342              		.loc 2 117 5 view .LVU91
 118:dsp/pvoc/frame_transformation.cpp ****     for(int32_t i = 1; i < size_; ++i)
 343              		.loc 2 118 5 view .LVU92
 116:dsp/pvoc/frame_transformation.cpp ****     float* imag      = &fft_data[fft_size_ >> 1];
 344              		.loc 2 116 44 is_stmt 0 view .LVU93
 345 0000 0368     		ldr	r3, [r0]
 346              	.LBB129:
 347              		.loc 2 118 17 view .LVU94
 348 0002 0122     		movs	r2, #1
 349              	.LBE129:
 116:dsp/pvoc/frame_transformation.cpp ****     float* imag      = &fft_data[fft_size_ >> 1];
 350              		.loc 2 116 44 view .LVU95
 351 0004 5B10     		asrs	r3, r3, #1
 352 0006 0133     		adds	r3, r3, #1
 114:dsp/pvoc/frame_transformation.cpp ****     float* real      = &fft_data[0];
 353              		.loc 2 114 1 view .LVU96
 354 0008 F0B5     		push	{r4, r5, r6, r7, lr}
 355              		.cfi_def_cfa_offset 20
 356              		.cfi_offset 4, -20
 357              		.cfi_offset 5, -16
ARM GAS  C:\Users\daniel\AppData\Local\Temp\ccmFX6Ad.s 			page 29


 358              		.cfi_offset 6, -12
 359              		.cfi_offset 7, -8
 360              		.cfi_offset 14, -4
 361              	.LBB163:
 362              		.loc 2 118 28 view .LVU97
 363 000a 8568     		ldr	r5, [r0, #8]
 364 000c 0C1D     		adds	r4, r1, #4
 365 000e 01EB830E 		add	lr, r1, r3, lsl #2
 366              	.LVL28:
 367              	.L20:
 368              		.loc 2 118 26 is_stmt 1 discriminator 3 view .LVU98
 369 0012 9542     		cmp	r5, r2
 370 0014 6BDD     		ble	.L12
 371              	.LBB130:
 119:dsp/pvoc/frame_transformation.cpp ****     {
 120:dsp/pvoc/frame_transformation.cpp ****         uint16_t angle   = fast_atan2r(imag[i], real[i], &magnitude[i]);
 372              		.loc 2 120 9 discriminator 2 view .LVU99
 373              		.loc 2 120 39 is_stmt 0 discriminator 2 view .LVU100
 374 0016 BEEC017A 		vldmia.32	lr!, {s14}
 375 001a D4ED005A 		vldr.32	s11, [r4]
 376              	.LVL29:
 377              	.LBB131:
 378              	.LBI131:
 134:./stmtemp.h   **** 
 135:./stmtemp.h   **** inline float Crossfade(float a, float b, float fade)
 136:./stmtemp.h   **** {
 137:./stmtemp.h   ****     return a + (b - a) * fade;
 138:./stmtemp.h   **** }
 139:./stmtemp.h   **** 
 140:./stmtemp.h   **** template <typename To, typename From>
 141:./stmtemp.h   **** struct unsafe_bit_cast_t
 142:./stmtemp.h   **** {
 143:./stmtemp.h   ****     union
 144:./stmtemp.h   ****     {
 145:./stmtemp.h   ****         From from;
 146:./stmtemp.h   ****         To   to;
 147:./stmtemp.h   ****     };
 148:./stmtemp.h   **** };
 149:./stmtemp.h   **** 
 150:./stmtemp.h   **** template <typename To, typename From>
 151:./stmtemp.h   **** To unsafe_bit_cast(From from)
 152:./stmtemp.h   **** {
 153:./stmtemp.h   ****     unsafe_bit_cast_t<To, From> u;
 154:./stmtemp.h   ****     u.from = from;
 155:./stmtemp.h   ****     return u.to;
 156:./stmtemp.h   **** }
 157:./stmtemp.h   **** 
 158:./stmtemp.h   **** static inline float fast_rsqrt_carmack(float x)
 159:./stmtemp.h   **** {
 160:./stmtemp.h   ****     uint32_t    i;
 161:./stmtemp.h   ****     float       x2, y;
 162:./stmtemp.h   ****     const float threehalfs = 1.5f;
 163:./stmtemp.h   ****     y                      = x;
 164:./stmtemp.h   ****     i                      = unsafe_bit_cast<uint32_t, float>(y);
 165:./stmtemp.h   ****     i                      = 0x5f3759df - (i >> 1);
 166:./stmtemp.h   ****     y                      = unsafe_bit_cast<float, uint32_t>(i);
 167:./stmtemp.h   ****     x2                     = x * 0.5f;
ARM GAS  C:\Users\daniel\AppData\Local\Temp\ccmFX6Ad.s 			page 30


 168:./stmtemp.h   ****     y                      = y * (threehalfs - (x2 * y * y));
 169:./stmtemp.h   ****     return y;
 170:./stmtemp.h   **** }
 171:./stmtemp.h   **** 
 172:./stmtemp.h   **** inline int16_t SoftConvert(float x)
 173:./stmtemp.h   **** {
 174:./stmtemp.h   ****     return Clip16(static_cast<int32_t>(SoftLimit(x * 0.5f) * 32768.0f));
 175:./stmtemp.h   **** }
 176:./stmtemp.h   **** 
 177:./stmtemp.h   **** static inline uint16_t fast_atan2r(float y, float x, float* r)
 379              		.loc 1 177 24 is_stmt 1 discriminator 2 view .LVU101
 380              	.LBB132:
 178:./stmtemp.h   **** {
 179:./stmtemp.h   ****     float squared_magnitude = x * x + y * y;
 381              		.loc 1 179 5 discriminator 2 view .LVU102
 382              		.loc 1 179 41 is_stmt 0 discriminator 2 view .LVU103
 383 001e 27EE075A 		vmul.f32	s10, s14, s14
 384              		.loc 1 179 11 discriminator 2 view .LVU104
 385 0022 A5EEA55A 		vfma.f32	s10, s11, s11
 386              	.LVL30:
 180:./stmtemp.h   ****     if(squared_magnitude == 0.0f)
 387              		.loc 1 180 5 is_stmt 1 discriminator 2 view .LVU105
 388 0026 B5EE405A 		vcmp.f32	s10, #0
 389 002a F1EE10FA 		vmrs	APSR_nzcv, FPSCR
 390 002e 0ED1     		bne	.L14
 181:./stmtemp.h   ****     {
 182:./stmtemp.h   ****         *r = 0.0f;
 391              		.loc 1 182 9 view .LVU106
 392              		.loc 1 182 12 is_stmt 0 view .LVU107
 393 0030 0023     		movs	r3, #0
 394 0032 2360     		str	r3, [r4]	@ float
 183:./stmtemp.h   ****         return 0.0f;
 395              		.loc 1 183 9 is_stmt 1 view .LVU108
 396              		.loc 1 183 16 is_stmt 0 view .LVU109
 397 0034 0023     		movs	r3, #0
 398              	.LVL31:
 399              	.L15:
 400              		.loc 1 183 16 view .LVU110
 401              	.LBE132:
 402              	.LBE131:
 121:dsp/pvoc/frame_transformation.cpp ****         phases_delta_[i] = angle - phases_[i];
 403              		.loc 2 121 9 is_stmt 1 view .LVU111
 404              		.loc 2 121 45 is_stmt 0 view .LVU112
 405 0036 876A     		ldr	r7, [r0, #40]
 406 0038 0434     		adds	r4, r4, #4
 407              		.loc 2 121 26 view .LVU113
 408 003a C16A     		ldr	r1, [r0, #44]
 409              		.loc 2 121 34 view .LVU114
 410 003c 37F81260 		ldrh	r6, [r7, r2, lsl #1]
 411 0040 9E1B     		subs	r6, r3, r6
 412              		.loc 2 121 26 view .LVU115
 413 0042 21F81260 		strh	r6, [r1, r2, lsl #1]	@ movhi
 122:dsp/pvoc/frame_transformation.cpp ****         phases_[i]       = angle;
 414              		.loc 2 122 9 is_stmt 1 view .LVU116
 415              		.loc 2 122 26 is_stmt 0 view .LVU117
 416 0046 27F81230 		strh	r3, [r7, r2, lsl #1]	@ movhi
 417              	.LBE130:
ARM GAS  C:\Users\daniel\AppData\Local\Temp\ccmFX6Ad.s 			page 31


 118:dsp/pvoc/frame_transformation.cpp ****     {
 418              		.loc 2 118 5 is_stmt 1 view .LVU118
 419 004a 0132     		adds	r2, r2, #1
 420              	.LVL32:
 118:dsp/pvoc/frame_transformation.cpp ****     {
 421              		.loc 2 118 5 is_stmt 0 view .LVU119
 422 004c E1E7     		b	.L20
 423              	.LVL33:
 424              	.L14:
 425              	.LBB162:
 426              	.LBB161:
 427              	.LBB160:
 184:./stmtemp.h   ****     }
 185:./stmtemp.h   ****     float rinv = fast_rsqrt_carmack(squared_magnitude);
 428              		.loc 1 185 5 is_stmt 1 view .LVU120
 429              	.LBB133:
 430              	.LBI133:
 158:./stmtemp.h   **** {
 431              		.loc 1 158 21 view .LVU121
 432              	.LBB134:
 160:./stmtemp.h   ****     float       x2, y;
 433              		.loc 1 160 5 view .LVU122
 161:./stmtemp.h   ****     const float threehalfs = 1.5f;
 434              		.loc 1 161 5 view .LVU123
 162:./stmtemp.h   ****     y                      = x;
 435              		.loc 1 162 5 view .LVU124
 163:./stmtemp.h   ****     i                      = unsafe_bit_cast<uint32_t, float>(y);
 436              		.loc 1 163 5 view .LVU125
 164:./stmtemp.h   ****     i                      = 0x5f3759df - (i >> 1);
 437              		.loc 1 164 5 view .LVU126
 438              	.LBB135:
 439              	.LBI135:
 151:./stmtemp.h   **** {
 440              		.loc 1 151 4 view .LVU127
 151:./stmtemp.h   **** {
 441              		.loc 1 151 4 is_stmt 0 view .LVU128
 442              	.LBE135:
 165:./stmtemp.h   ****     y                      = unsafe_bit_cast<float, uint32_t>(i);
 443              		.loc 1 165 5 is_stmt 1 view .LVU129
 166:./stmtemp.h   ****     x2                     = x * 0.5f;
 444              		.loc 1 166 5 view .LVU130
 445              	.LBB136:
 446              	.LBI136:
 151:./stmtemp.h   **** {
 447              		.loc 1 151 4 view .LVU131
 448              	.LBB137:
 155:./stmtemp.h   **** }
 449              		.loc 1 155 14 is_stmt 0 view .LVU132
 450 004e 15EE101A 		vmov	r1, s10	@ int
 451              	.LBE137:
 452              	.LBE136:
 167:./stmtemp.h   ****     y                      = y * (threehalfs - (x2 * y * y));
 453              		.loc 1 167 28 view .LVU133
 454 0052 F6EE007A 		vmov.f32	s15, #5.0e-1
 455              	.LBB141:
 456              	.LBB138:
 155:./stmtemp.h   **** }
ARM GAS  C:\Users\daniel\AppData\Local\Temp\ccmFX6Ad.s 			page 32


 457              		.loc 1 155 14 view .LVU134
 458 0056 264B     		ldr	r3, .L24
 459              	.LBE138:
 460              	.LBE141:
 168:./stmtemp.h   ****     return y;
 461              		.loc 1 168 46 view .LVU135
 462 0058 F7EE086A 		vmov.f32	s13, #1.5e+0
 463              	.LBB142:
 464              	.LBB139:
 155:./stmtemp.h   **** }
 465              		.loc 1 155 14 view .LVU136
 466 005c A3EB5103 		sub	r3, r3, r1, lsr #1
 467              	.LVL34:
 155:./stmtemp.h   **** }
 468              		.loc 1 155 14 view .LVU137
 469              	.LBE139:
 470              	.LBE142:
 167:./stmtemp.h   ****     y                      = y * (threehalfs - (x2 * y * y));
 471              		.loc 1 167 28 view .LVU138
 472 0060 65EE274A 		vmul.f32	s9, s10, s15
 473              	.LBB143:
 474              	.LBB140:
 155:./stmtemp.h   **** }
 475              		.loc 1 155 14 view .LVU139
 476 0064 06EE103A 		vmov	s12, r3	@ int
 477              	.LVL35:
 155:./stmtemp.h   **** }
 478              		.loc 1 155 14 view .LVU140
 479              	.LBE140:
 480              	.LBE143:
 167:./stmtemp.h   ****     y                      = y * (threehalfs - (x2 * y * y));
 481              		.loc 1 167 5 is_stmt 1 view .LVU141
 168:./stmtemp.h   ****     return y;
 482              		.loc 1 168 5 view .LVU142
 483              	.LBE134:
 484              	.LBE133:
 186:./stmtemp.h   ****     *r         = rinv * squared_magnitude;
 187:./stmtemp.h   **** 
 188:./stmtemp.h   ****     static const uint32_t sign_mask = 0x80000000;
 189:./stmtemp.h   ****     uint32_t ux_s     = sign_mask & unsafe_bit_cast<uint32_t, float>(x);
 485              		.loc 1 189 71 is_stmt 0 view .LVU143
 486 0068 15EE903A 		vmov	r3, s11	@ int
 487              	.LVL36:
 488              	.LBB147:
 489              	.LBB148:
 490              		.file 4 "c:\\programdata\\chocolatey\\lib\\gcc-arm-embedded\\tools\\gcc-arm-none-eabi-10-2020-q4-m
   1:c:\programdata\chocolatey\lib\gcc-arm-embedded\tools\gcc-arm-none-eabi-10-2020-q4-major\arm-none-eabi\include\c++\10.2.1\cmath **** // -*- C++ -*- C forwarding header.
   2:c:\programdata\chocolatey\lib\gcc-arm-embedded\tools\gcc-arm-none-eabi-10-2020-q4-major\arm-none-eabi\include\c++\10.2.1\cmath **** 
   3:c:\programdata\chocolatey\lib\gcc-arm-embedded\tools\gcc-arm-none-eabi-10-2020-q4-major\arm-none-eabi\include\c++\10.2.1\cmath **** // Copyright (C) 1997-2020 Free Software Foundation, Inc.
   4:c:\programdata\chocolatey\lib\gcc-arm-embedded\tools\gcc-arm-none-eabi-10-2020-q4-major\arm-none-eabi\include\c++\10.2.1\cmath **** //
   5:c:\programdata\chocolatey\lib\gcc-arm-embedded\tools\gcc-arm-none-eabi-10-2020-q4-major\arm-none-eabi\include\c++\10.2.1\cmath **** // This file is part of the GNU ISO C++ Library.  This library is free
   6:c:\programdata\chocolatey\lib\gcc-arm-embedded\tools\gcc-arm-none-eabi-10-2020-q4-major\arm-none-eabi\include\c++\10.2.1\cmath **** // software; you can redistribute it and/or modify it under the
   7:c:\programdata\chocolatey\lib\gcc-arm-embedded\tools\gcc-arm-none-eabi-10-2020-q4-major\arm-none-eabi\include\c++\10.2.1\cmath **** // terms of the GNU General Public License as published by the
   8:c:\programdata\chocolatey\lib\gcc-arm-embedded\tools\gcc-arm-none-eabi-10-2020-q4-major\arm-none-eabi\include\c++\10.2.1\cmath **** // Free Software Foundation; either version 3, or (at your option)
   9:c:\programdata\chocolatey\lib\gcc-arm-embedded\tools\gcc-arm-none-eabi-10-2020-q4-major\arm-none-eabi\include\c++\10.2.1\cmath **** // any later version.
  10:c:\programdata\chocolatey\lib\gcc-arm-embedded\tools\gcc-arm-none-eabi-10-2020-q4-major\arm-none-eabi\include\c++\10.2.1\cmath **** 
  11:c:\programdata\chocolatey\lib\gcc-arm-embedded\tools\gcc-arm-none-eabi-10-2020-q4-major\arm-none-eabi\include\c++\10.2.1\cmath **** // This library is distributed in the hope that it will be useful,
ARM GAS  C:\Users\daniel\AppData\Local\Temp\ccmFX6Ad.s 			page 33


  12:c:\programdata\chocolatey\lib\gcc-arm-embedded\tools\gcc-arm-none-eabi-10-2020-q4-major\arm-none-eabi\include\c++\10.2.1\cmath **** // but WITHOUT ANY WARRANTY; without even the implied warranty of
  13:c:\programdata\chocolatey\lib\gcc-arm-embedded\tools\gcc-arm-none-eabi-10-2020-q4-major\arm-none-eabi\include\c++\10.2.1\cmath **** // MERCHANTABILITY or FITNESS FOR A PARTICULAR PURPOSE.  See the
  14:c:\programdata\chocolatey\lib\gcc-arm-embedded\tools\gcc-arm-none-eabi-10-2020-q4-major\arm-none-eabi\include\c++\10.2.1\cmath **** // GNU General Public License for more details.
  15:c:\programdata\chocolatey\lib\gcc-arm-embedded\tools\gcc-arm-none-eabi-10-2020-q4-major\arm-none-eabi\include\c++\10.2.1\cmath **** 
  16:c:\programdata\chocolatey\lib\gcc-arm-embedded\tools\gcc-arm-none-eabi-10-2020-q4-major\arm-none-eabi\include\c++\10.2.1\cmath **** // Under Section 7 of GPL version 3, you are granted additional
  17:c:\programdata\chocolatey\lib\gcc-arm-embedded\tools\gcc-arm-none-eabi-10-2020-q4-major\arm-none-eabi\include\c++\10.2.1\cmath **** // permissions described in the GCC Runtime Library Exception, version
  18:c:\programdata\chocolatey\lib\gcc-arm-embedded\tools\gcc-arm-none-eabi-10-2020-q4-major\arm-none-eabi\include\c++\10.2.1\cmath **** // 3.1, as published by the Free Software Foundation.
  19:c:\programdata\chocolatey\lib\gcc-arm-embedded\tools\gcc-arm-none-eabi-10-2020-q4-major\arm-none-eabi\include\c++\10.2.1\cmath **** 
  20:c:\programdata\chocolatey\lib\gcc-arm-embedded\tools\gcc-arm-none-eabi-10-2020-q4-major\arm-none-eabi\include\c++\10.2.1\cmath **** // You should have received a copy of the GNU General Public License and
  21:c:\programdata\chocolatey\lib\gcc-arm-embedded\tools\gcc-arm-none-eabi-10-2020-q4-major\arm-none-eabi\include\c++\10.2.1\cmath **** // a copy of the GCC Runtime Library Exception along with this program;
  22:c:\programdata\chocolatey\lib\gcc-arm-embedded\tools\gcc-arm-none-eabi-10-2020-q4-major\arm-none-eabi\include\c++\10.2.1\cmath **** // see the files COPYING3 and COPYING.RUNTIME respectively.  If not, see
  23:c:\programdata\chocolatey\lib\gcc-arm-embedded\tools\gcc-arm-none-eabi-10-2020-q4-major\arm-none-eabi\include\c++\10.2.1\cmath **** // <http://www.gnu.org/licenses/>.
  24:c:\programdata\chocolatey\lib\gcc-arm-embedded\tools\gcc-arm-none-eabi-10-2020-q4-major\arm-none-eabi\include\c++\10.2.1\cmath **** 
  25:c:\programdata\chocolatey\lib\gcc-arm-embedded\tools\gcc-arm-none-eabi-10-2020-q4-major\arm-none-eabi\include\c++\10.2.1\cmath **** /** @file include/cmath
  26:c:\programdata\chocolatey\lib\gcc-arm-embedded\tools\gcc-arm-none-eabi-10-2020-q4-major\arm-none-eabi\include\c++\10.2.1\cmath ****  *  This is a Standard C++ Library file.  You should @c \#include this file
  27:c:\programdata\chocolatey\lib\gcc-arm-embedded\tools\gcc-arm-none-eabi-10-2020-q4-major\arm-none-eabi\include\c++\10.2.1\cmath ****  *  in your programs, rather than any of the @a *.h implementation files.
  28:c:\programdata\chocolatey\lib\gcc-arm-embedded\tools\gcc-arm-none-eabi-10-2020-q4-major\arm-none-eabi\include\c++\10.2.1\cmath ****  *
  29:c:\programdata\chocolatey\lib\gcc-arm-embedded\tools\gcc-arm-none-eabi-10-2020-q4-major\arm-none-eabi\include\c++\10.2.1\cmath ****  *  This is the C++ version of the Standard C Library header @c math.h,
  30:c:\programdata\chocolatey\lib\gcc-arm-embedded\tools\gcc-arm-none-eabi-10-2020-q4-major\arm-none-eabi\include\c++\10.2.1\cmath ****  *  and its contents are (mostly) the same as that header, but are all
  31:c:\programdata\chocolatey\lib\gcc-arm-embedded\tools\gcc-arm-none-eabi-10-2020-q4-major\arm-none-eabi\include\c++\10.2.1\cmath ****  *  contained in the namespace @c std (except for names which are defined
  32:c:\programdata\chocolatey\lib\gcc-arm-embedded\tools\gcc-arm-none-eabi-10-2020-q4-major\arm-none-eabi\include\c++\10.2.1\cmath ****  *  as macros in C).
  33:c:\programdata\chocolatey\lib\gcc-arm-embedded\tools\gcc-arm-none-eabi-10-2020-q4-major\arm-none-eabi\include\c++\10.2.1\cmath ****  */
  34:c:\programdata\chocolatey\lib\gcc-arm-embedded\tools\gcc-arm-none-eabi-10-2020-q4-major\arm-none-eabi\include\c++\10.2.1\cmath **** 
  35:c:\programdata\chocolatey\lib\gcc-arm-embedded\tools\gcc-arm-none-eabi-10-2020-q4-major\arm-none-eabi\include\c++\10.2.1\cmath **** //
  36:c:\programdata\chocolatey\lib\gcc-arm-embedded\tools\gcc-arm-none-eabi-10-2020-q4-major\arm-none-eabi\include\c++\10.2.1\cmath **** // ISO C++ 14882: 26.5  C library
  37:c:\programdata\chocolatey\lib\gcc-arm-embedded\tools\gcc-arm-none-eabi-10-2020-q4-major\arm-none-eabi\include\c++\10.2.1\cmath **** //
  38:c:\programdata\chocolatey\lib\gcc-arm-embedded\tools\gcc-arm-none-eabi-10-2020-q4-major\arm-none-eabi\include\c++\10.2.1\cmath **** 
  39:c:\programdata\chocolatey\lib\gcc-arm-embedded\tools\gcc-arm-none-eabi-10-2020-q4-major\arm-none-eabi\include\c++\10.2.1\cmath **** #pragma GCC system_header
  40:c:\programdata\chocolatey\lib\gcc-arm-embedded\tools\gcc-arm-none-eabi-10-2020-q4-major\arm-none-eabi\include\c++\10.2.1\cmath **** 
  41:c:\programdata\chocolatey\lib\gcc-arm-embedded\tools\gcc-arm-none-eabi-10-2020-q4-major\arm-none-eabi\include\c++\10.2.1\cmath **** #include <bits/c++config.h>
  42:c:\programdata\chocolatey\lib\gcc-arm-embedded\tools\gcc-arm-none-eabi-10-2020-q4-major\arm-none-eabi\include\c++\10.2.1\cmath **** #include <bits/cpp_type_traits.h>
  43:c:\programdata\chocolatey\lib\gcc-arm-embedded\tools\gcc-arm-none-eabi-10-2020-q4-major\arm-none-eabi\include\c++\10.2.1\cmath **** #include <ext/type_traits.h>
  44:c:\programdata\chocolatey\lib\gcc-arm-embedded\tools\gcc-arm-none-eabi-10-2020-q4-major\arm-none-eabi\include\c++\10.2.1\cmath **** #define _GLIBCXX_INCLUDE_NEXT_C_HEADERS
  45:c:\programdata\chocolatey\lib\gcc-arm-embedded\tools\gcc-arm-none-eabi-10-2020-q4-major\arm-none-eabi\include\c++\10.2.1\cmath **** #include_next <math.h>
  46:c:\programdata\chocolatey\lib\gcc-arm-embedded\tools\gcc-arm-none-eabi-10-2020-q4-major\arm-none-eabi\include\c++\10.2.1\cmath **** #undef _GLIBCXX_INCLUDE_NEXT_C_HEADERS
  47:c:\programdata\chocolatey\lib\gcc-arm-embedded\tools\gcc-arm-none-eabi-10-2020-q4-major\arm-none-eabi\include\c++\10.2.1\cmath **** #include <bits/std_abs.h>
  48:c:\programdata\chocolatey\lib\gcc-arm-embedded\tools\gcc-arm-none-eabi-10-2020-q4-major\arm-none-eabi\include\c++\10.2.1\cmath **** 
  49:c:\programdata\chocolatey\lib\gcc-arm-embedded\tools\gcc-arm-none-eabi-10-2020-q4-major\arm-none-eabi\include\c++\10.2.1\cmath **** #ifndef _GLIBCXX_CMATH
  50:c:\programdata\chocolatey\lib\gcc-arm-embedded\tools\gcc-arm-none-eabi-10-2020-q4-major\arm-none-eabi\include\c++\10.2.1\cmath **** #define _GLIBCXX_CMATH 1
  51:c:\programdata\chocolatey\lib\gcc-arm-embedded\tools\gcc-arm-none-eabi-10-2020-q4-major\arm-none-eabi\include\c++\10.2.1\cmath **** 
  52:c:\programdata\chocolatey\lib\gcc-arm-embedded\tools\gcc-arm-none-eabi-10-2020-q4-major\arm-none-eabi\include\c++\10.2.1\cmath **** // Get rid of those macros defined in <math.h> in lieu of real functions.
  53:c:\programdata\chocolatey\lib\gcc-arm-embedded\tools\gcc-arm-none-eabi-10-2020-q4-major\arm-none-eabi\include\c++\10.2.1\cmath **** #undef div
  54:c:\programdata\chocolatey\lib\gcc-arm-embedded\tools\gcc-arm-none-eabi-10-2020-q4-major\arm-none-eabi\include\c++\10.2.1\cmath **** #undef acos
  55:c:\programdata\chocolatey\lib\gcc-arm-embedded\tools\gcc-arm-none-eabi-10-2020-q4-major\arm-none-eabi\include\c++\10.2.1\cmath **** #undef asin
  56:c:\programdata\chocolatey\lib\gcc-arm-embedded\tools\gcc-arm-none-eabi-10-2020-q4-major\arm-none-eabi\include\c++\10.2.1\cmath **** #undef atan
  57:c:\programdata\chocolatey\lib\gcc-arm-embedded\tools\gcc-arm-none-eabi-10-2020-q4-major\arm-none-eabi\include\c++\10.2.1\cmath **** #undef atan2
  58:c:\programdata\chocolatey\lib\gcc-arm-embedded\tools\gcc-arm-none-eabi-10-2020-q4-major\arm-none-eabi\include\c++\10.2.1\cmath **** #undef ceil
  59:c:\programdata\chocolatey\lib\gcc-arm-embedded\tools\gcc-arm-none-eabi-10-2020-q4-major\arm-none-eabi\include\c++\10.2.1\cmath **** #undef cos
  60:c:\programdata\chocolatey\lib\gcc-arm-embedded\tools\gcc-arm-none-eabi-10-2020-q4-major\arm-none-eabi\include\c++\10.2.1\cmath **** #undef cosh
  61:c:\programdata\chocolatey\lib\gcc-arm-embedded\tools\gcc-arm-none-eabi-10-2020-q4-major\arm-none-eabi\include\c++\10.2.1\cmath **** #undef exp
  62:c:\programdata\chocolatey\lib\gcc-arm-embedded\tools\gcc-arm-none-eabi-10-2020-q4-major\arm-none-eabi\include\c++\10.2.1\cmath **** #undef fabs
  63:c:\programdata\chocolatey\lib\gcc-arm-embedded\tools\gcc-arm-none-eabi-10-2020-q4-major\arm-none-eabi\include\c++\10.2.1\cmath **** #undef floor
  64:c:\programdata\chocolatey\lib\gcc-arm-embedded\tools\gcc-arm-none-eabi-10-2020-q4-major\arm-none-eabi\include\c++\10.2.1\cmath **** #undef fmod
  65:c:\programdata\chocolatey\lib\gcc-arm-embedded\tools\gcc-arm-none-eabi-10-2020-q4-major\arm-none-eabi\include\c++\10.2.1\cmath **** #undef frexp
  66:c:\programdata\chocolatey\lib\gcc-arm-embedded\tools\gcc-arm-none-eabi-10-2020-q4-major\arm-none-eabi\include\c++\10.2.1\cmath **** #undef ldexp
  67:c:\programdata\chocolatey\lib\gcc-arm-embedded\tools\gcc-arm-none-eabi-10-2020-q4-major\arm-none-eabi\include\c++\10.2.1\cmath **** #undef log
  68:c:\programdata\chocolatey\lib\gcc-arm-embedded\tools\gcc-arm-none-eabi-10-2020-q4-major\arm-none-eabi\include\c++\10.2.1\cmath **** #undef log10
ARM GAS  C:\Users\daniel\AppData\Local\Temp\ccmFX6Ad.s 			page 34


  69:c:\programdata\chocolatey\lib\gcc-arm-embedded\tools\gcc-arm-none-eabi-10-2020-q4-major\arm-none-eabi\include\c++\10.2.1\cmath **** #undef modf
  70:c:\programdata\chocolatey\lib\gcc-arm-embedded\tools\gcc-arm-none-eabi-10-2020-q4-major\arm-none-eabi\include\c++\10.2.1\cmath **** #undef pow
  71:c:\programdata\chocolatey\lib\gcc-arm-embedded\tools\gcc-arm-none-eabi-10-2020-q4-major\arm-none-eabi\include\c++\10.2.1\cmath **** #undef sin
  72:c:\programdata\chocolatey\lib\gcc-arm-embedded\tools\gcc-arm-none-eabi-10-2020-q4-major\arm-none-eabi\include\c++\10.2.1\cmath **** #undef sinh
  73:c:\programdata\chocolatey\lib\gcc-arm-embedded\tools\gcc-arm-none-eabi-10-2020-q4-major\arm-none-eabi\include\c++\10.2.1\cmath **** #undef sqrt
  74:c:\programdata\chocolatey\lib\gcc-arm-embedded\tools\gcc-arm-none-eabi-10-2020-q4-major\arm-none-eabi\include\c++\10.2.1\cmath **** #undef tan
  75:c:\programdata\chocolatey\lib\gcc-arm-embedded\tools\gcc-arm-none-eabi-10-2020-q4-major\arm-none-eabi\include\c++\10.2.1\cmath **** #undef tanh
  76:c:\programdata\chocolatey\lib\gcc-arm-embedded\tools\gcc-arm-none-eabi-10-2020-q4-major\arm-none-eabi\include\c++\10.2.1\cmath **** 
  77:c:\programdata\chocolatey\lib\gcc-arm-embedded\tools\gcc-arm-none-eabi-10-2020-q4-major\arm-none-eabi\include\c++\10.2.1\cmath **** extern "C++"
  78:c:\programdata\chocolatey\lib\gcc-arm-embedded\tools\gcc-arm-none-eabi-10-2020-q4-major\arm-none-eabi\include\c++\10.2.1\cmath **** {
  79:c:\programdata\chocolatey\lib\gcc-arm-embedded\tools\gcc-arm-none-eabi-10-2020-q4-major\arm-none-eabi\include\c++\10.2.1\cmath **** namespace std _GLIBCXX_VISIBILITY(default)
  80:c:\programdata\chocolatey\lib\gcc-arm-embedded\tools\gcc-arm-none-eabi-10-2020-q4-major\arm-none-eabi\include\c++\10.2.1\cmath **** {
  81:c:\programdata\chocolatey\lib\gcc-arm-embedded\tools\gcc-arm-none-eabi-10-2020-q4-major\arm-none-eabi\include\c++\10.2.1\cmath **** _GLIBCXX_BEGIN_NAMESPACE_VERSION
  82:c:\programdata\chocolatey\lib\gcc-arm-embedded\tools\gcc-arm-none-eabi-10-2020-q4-major\arm-none-eabi\include\c++\10.2.1\cmath **** 
  83:c:\programdata\chocolatey\lib\gcc-arm-embedded\tools\gcc-arm-none-eabi-10-2020-q4-major\arm-none-eabi\include\c++\10.2.1\cmath ****   using ::acos;
  84:c:\programdata\chocolatey\lib\gcc-arm-embedded\tools\gcc-arm-none-eabi-10-2020-q4-major\arm-none-eabi\include\c++\10.2.1\cmath **** 
  85:c:\programdata\chocolatey\lib\gcc-arm-embedded\tools\gcc-arm-none-eabi-10-2020-q4-major\arm-none-eabi\include\c++\10.2.1\cmath **** #ifndef __CORRECT_ISO_CPP_MATH_H_PROTO
  86:c:\programdata\chocolatey\lib\gcc-arm-embedded\tools\gcc-arm-none-eabi-10-2020-q4-major\arm-none-eabi\include\c++\10.2.1\cmath ****   inline _GLIBCXX_CONSTEXPR float
  87:c:\programdata\chocolatey\lib\gcc-arm-embedded\tools\gcc-arm-none-eabi-10-2020-q4-major\arm-none-eabi\include\c++\10.2.1\cmath ****   acos(float __x)
  88:c:\programdata\chocolatey\lib\gcc-arm-embedded\tools\gcc-arm-none-eabi-10-2020-q4-major\arm-none-eabi\include\c++\10.2.1\cmath ****   { return __builtin_acosf(__x); }
  89:c:\programdata\chocolatey\lib\gcc-arm-embedded\tools\gcc-arm-none-eabi-10-2020-q4-major\arm-none-eabi\include\c++\10.2.1\cmath **** 
  90:c:\programdata\chocolatey\lib\gcc-arm-embedded\tools\gcc-arm-none-eabi-10-2020-q4-major\arm-none-eabi\include\c++\10.2.1\cmath ****   inline _GLIBCXX_CONSTEXPR long double
  91:c:\programdata\chocolatey\lib\gcc-arm-embedded\tools\gcc-arm-none-eabi-10-2020-q4-major\arm-none-eabi\include\c++\10.2.1\cmath ****   acos(long double __x)
  92:c:\programdata\chocolatey\lib\gcc-arm-embedded\tools\gcc-arm-none-eabi-10-2020-q4-major\arm-none-eabi\include\c++\10.2.1\cmath ****   { return __builtin_acosl(__x); }
  93:c:\programdata\chocolatey\lib\gcc-arm-embedded\tools\gcc-arm-none-eabi-10-2020-q4-major\arm-none-eabi\include\c++\10.2.1\cmath **** #endif
  94:c:\programdata\chocolatey\lib\gcc-arm-embedded\tools\gcc-arm-none-eabi-10-2020-q4-major\arm-none-eabi\include\c++\10.2.1\cmath **** 
  95:c:\programdata\chocolatey\lib\gcc-arm-embedded\tools\gcc-arm-none-eabi-10-2020-q4-major\arm-none-eabi\include\c++\10.2.1\cmath ****   template<typename _Tp>
  96:c:\programdata\chocolatey\lib\gcc-arm-embedded\tools\gcc-arm-none-eabi-10-2020-q4-major\arm-none-eabi\include\c++\10.2.1\cmath ****     inline _GLIBCXX_CONSTEXPR
  97:c:\programdata\chocolatey\lib\gcc-arm-embedded\tools\gcc-arm-none-eabi-10-2020-q4-major\arm-none-eabi\include\c++\10.2.1\cmath ****     typename __gnu_cxx::__enable_if<__is_integer<_Tp>::__value, 
  98:c:\programdata\chocolatey\lib\gcc-arm-embedded\tools\gcc-arm-none-eabi-10-2020-q4-major\arm-none-eabi\include\c++\10.2.1\cmath ****                                     double>::__type
  99:c:\programdata\chocolatey\lib\gcc-arm-embedded\tools\gcc-arm-none-eabi-10-2020-q4-major\arm-none-eabi\include\c++\10.2.1\cmath ****     acos(_Tp __x)
 100:c:\programdata\chocolatey\lib\gcc-arm-embedded\tools\gcc-arm-none-eabi-10-2020-q4-major\arm-none-eabi\include\c++\10.2.1\cmath ****     { return __builtin_acos(__x); }
 101:c:\programdata\chocolatey\lib\gcc-arm-embedded\tools\gcc-arm-none-eabi-10-2020-q4-major\arm-none-eabi\include\c++\10.2.1\cmath **** 
 102:c:\programdata\chocolatey\lib\gcc-arm-embedded\tools\gcc-arm-none-eabi-10-2020-q4-major\arm-none-eabi\include\c++\10.2.1\cmath ****   using ::asin;
 103:c:\programdata\chocolatey\lib\gcc-arm-embedded\tools\gcc-arm-none-eabi-10-2020-q4-major\arm-none-eabi\include\c++\10.2.1\cmath **** 
 104:c:\programdata\chocolatey\lib\gcc-arm-embedded\tools\gcc-arm-none-eabi-10-2020-q4-major\arm-none-eabi\include\c++\10.2.1\cmath **** #ifndef __CORRECT_ISO_CPP_MATH_H_PROTO
 105:c:\programdata\chocolatey\lib\gcc-arm-embedded\tools\gcc-arm-none-eabi-10-2020-q4-major\arm-none-eabi\include\c++\10.2.1\cmath ****   inline _GLIBCXX_CONSTEXPR float
 106:c:\programdata\chocolatey\lib\gcc-arm-embedded\tools\gcc-arm-none-eabi-10-2020-q4-major\arm-none-eabi\include\c++\10.2.1\cmath ****   asin(float __x)
 107:c:\programdata\chocolatey\lib\gcc-arm-embedded\tools\gcc-arm-none-eabi-10-2020-q4-major\arm-none-eabi\include\c++\10.2.1\cmath ****   { return __builtin_asinf(__x); }
 108:c:\programdata\chocolatey\lib\gcc-arm-embedded\tools\gcc-arm-none-eabi-10-2020-q4-major\arm-none-eabi\include\c++\10.2.1\cmath **** 
 109:c:\programdata\chocolatey\lib\gcc-arm-embedded\tools\gcc-arm-none-eabi-10-2020-q4-major\arm-none-eabi\include\c++\10.2.1\cmath ****   inline _GLIBCXX_CONSTEXPR long double
 110:c:\programdata\chocolatey\lib\gcc-arm-embedded\tools\gcc-arm-none-eabi-10-2020-q4-major\arm-none-eabi\include\c++\10.2.1\cmath ****   asin(long double __x)
 111:c:\programdata\chocolatey\lib\gcc-arm-embedded\tools\gcc-arm-none-eabi-10-2020-q4-major\arm-none-eabi\include\c++\10.2.1\cmath ****   { return __builtin_asinl(__x); }
 112:c:\programdata\chocolatey\lib\gcc-arm-embedded\tools\gcc-arm-none-eabi-10-2020-q4-major\arm-none-eabi\include\c++\10.2.1\cmath **** #endif
 113:c:\programdata\chocolatey\lib\gcc-arm-embedded\tools\gcc-arm-none-eabi-10-2020-q4-major\arm-none-eabi\include\c++\10.2.1\cmath **** 
 114:c:\programdata\chocolatey\lib\gcc-arm-embedded\tools\gcc-arm-none-eabi-10-2020-q4-major\arm-none-eabi\include\c++\10.2.1\cmath ****   template<typename _Tp>
 115:c:\programdata\chocolatey\lib\gcc-arm-embedded\tools\gcc-arm-none-eabi-10-2020-q4-major\arm-none-eabi\include\c++\10.2.1\cmath ****     inline _GLIBCXX_CONSTEXPR
 116:c:\programdata\chocolatey\lib\gcc-arm-embedded\tools\gcc-arm-none-eabi-10-2020-q4-major\arm-none-eabi\include\c++\10.2.1\cmath ****     typename __gnu_cxx::__enable_if<__is_integer<_Tp>::__value,
 117:c:\programdata\chocolatey\lib\gcc-arm-embedded\tools\gcc-arm-none-eabi-10-2020-q4-major\arm-none-eabi\include\c++\10.2.1\cmath ****                                     double>::__type
 118:c:\programdata\chocolatey\lib\gcc-arm-embedded\tools\gcc-arm-none-eabi-10-2020-q4-major\arm-none-eabi\include\c++\10.2.1\cmath ****     asin(_Tp __x)
 119:c:\programdata\chocolatey\lib\gcc-arm-embedded\tools\gcc-arm-none-eabi-10-2020-q4-major\arm-none-eabi\include\c++\10.2.1\cmath ****     { return __builtin_asin(__x); }
 120:c:\programdata\chocolatey\lib\gcc-arm-embedded\tools\gcc-arm-none-eabi-10-2020-q4-major\arm-none-eabi\include\c++\10.2.1\cmath **** 
 121:c:\programdata\chocolatey\lib\gcc-arm-embedded\tools\gcc-arm-none-eabi-10-2020-q4-major\arm-none-eabi\include\c++\10.2.1\cmath ****   using ::atan;
 122:c:\programdata\chocolatey\lib\gcc-arm-embedded\tools\gcc-arm-none-eabi-10-2020-q4-major\arm-none-eabi\include\c++\10.2.1\cmath **** 
 123:c:\programdata\chocolatey\lib\gcc-arm-embedded\tools\gcc-arm-none-eabi-10-2020-q4-major\arm-none-eabi\include\c++\10.2.1\cmath **** #ifndef __CORRECT_ISO_CPP_MATH_H_PROTO
 124:c:\programdata\chocolatey\lib\gcc-arm-embedded\tools\gcc-arm-none-eabi-10-2020-q4-major\arm-none-eabi\include\c++\10.2.1\cmath ****   inline _GLIBCXX_CONSTEXPR float
 125:c:\programdata\chocolatey\lib\gcc-arm-embedded\tools\gcc-arm-none-eabi-10-2020-q4-major\arm-none-eabi\include\c++\10.2.1\cmath ****   atan(float __x)
ARM GAS  C:\Users\daniel\AppData\Local\Temp\ccmFX6Ad.s 			page 35


 126:c:\programdata\chocolatey\lib\gcc-arm-embedded\tools\gcc-arm-none-eabi-10-2020-q4-major\arm-none-eabi\include\c++\10.2.1\cmath ****   { return __builtin_atanf(__x); }
 127:c:\programdata\chocolatey\lib\gcc-arm-embedded\tools\gcc-arm-none-eabi-10-2020-q4-major\arm-none-eabi\include\c++\10.2.1\cmath **** 
 128:c:\programdata\chocolatey\lib\gcc-arm-embedded\tools\gcc-arm-none-eabi-10-2020-q4-major\arm-none-eabi\include\c++\10.2.1\cmath ****   inline _GLIBCXX_CONSTEXPR long double
 129:c:\programdata\chocolatey\lib\gcc-arm-embedded\tools\gcc-arm-none-eabi-10-2020-q4-major\arm-none-eabi\include\c++\10.2.1\cmath ****   atan(long double __x)
 130:c:\programdata\chocolatey\lib\gcc-arm-embedded\tools\gcc-arm-none-eabi-10-2020-q4-major\arm-none-eabi\include\c++\10.2.1\cmath ****   { return __builtin_atanl(__x); }
 131:c:\programdata\chocolatey\lib\gcc-arm-embedded\tools\gcc-arm-none-eabi-10-2020-q4-major\arm-none-eabi\include\c++\10.2.1\cmath **** #endif
 132:c:\programdata\chocolatey\lib\gcc-arm-embedded\tools\gcc-arm-none-eabi-10-2020-q4-major\arm-none-eabi\include\c++\10.2.1\cmath **** 
 133:c:\programdata\chocolatey\lib\gcc-arm-embedded\tools\gcc-arm-none-eabi-10-2020-q4-major\arm-none-eabi\include\c++\10.2.1\cmath ****   template<typename _Tp>
 134:c:\programdata\chocolatey\lib\gcc-arm-embedded\tools\gcc-arm-none-eabi-10-2020-q4-major\arm-none-eabi\include\c++\10.2.1\cmath ****     inline _GLIBCXX_CONSTEXPR
 135:c:\programdata\chocolatey\lib\gcc-arm-embedded\tools\gcc-arm-none-eabi-10-2020-q4-major\arm-none-eabi\include\c++\10.2.1\cmath ****     typename __gnu_cxx::__enable_if<__is_integer<_Tp>::__value,
 136:c:\programdata\chocolatey\lib\gcc-arm-embedded\tools\gcc-arm-none-eabi-10-2020-q4-major\arm-none-eabi\include\c++\10.2.1\cmath ****                                     double>::__type
 137:c:\programdata\chocolatey\lib\gcc-arm-embedded\tools\gcc-arm-none-eabi-10-2020-q4-major\arm-none-eabi\include\c++\10.2.1\cmath ****     atan(_Tp __x)
 138:c:\programdata\chocolatey\lib\gcc-arm-embedded\tools\gcc-arm-none-eabi-10-2020-q4-major\arm-none-eabi\include\c++\10.2.1\cmath ****     { return __builtin_atan(__x); }
 139:c:\programdata\chocolatey\lib\gcc-arm-embedded\tools\gcc-arm-none-eabi-10-2020-q4-major\arm-none-eabi\include\c++\10.2.1\cmath **** 
 140:c:\programdata\chocolatey\lib\gcc-arm-embedded\tools\gcc-arm-none-eabi-10-2020-q4-major\arm-none-eabi\include\c++\10.2.1\cmath ****   using ::atan2;
 141:c:\programdata\chocolatey\lib\gcc-arm-embedded\tools\gcc-arm-none-eabi-10-2020-q4-major\arm-none-eabi\include\c++\10.2.1\cmath **** 
 142:c:\programdata\chocolatey\lib\gcc-arm-embedded\tools\gcc-arm-none-eabi-10-2020-q4-major\arm-none-eabi\include\c++\10.2.1\cmath **** #ifndef __CORRECT_ISO_CPP_MATH_H_PROTO
 143:c:\programdata\chocolatey\lib\gcc-arm-embedded\tools\gcc-arm-none-eabi-10-2020-q4-major\arm-none-eabi\include\c++\10.2.1\cmath ****   inline _GLIBCXX_CONSTEXPR float
 144:c:\programdata\chocolatey\lib\gcc-arm-embedded\tools\gcc-arm-none-eabi-10-2020-q4-major\arm-none-eabi\include\c++\10.2.1\cmath ****   atan2(float __y, float __x)
 145:c:\programdata\chocolatey\lib\gcc-arm-embedded\tools\gcc-arm-none-eabi-10-2020-q4-major\arm-none-eabi\include\c++\10.2.1\cmath ****   { return __builtin_atan2f(__y, __x); }
 146:c:\programdata\chocolatey\lib\gcc-arm-embedded\tools\gcc-arm-none-eabi-10-2020-q4-major\arm-none-eabi\include\c++\10.2.1\cmath **** 
 147:c:\programdata\chocolatey\lib\gcc-arm-embedded\tools\gcc-arm-none-eabi-10-2020-q4-major\arm-none-eabi\include\c++\10.2.1\cmath ****   inline _GLIBCXX_CONSTEXPR long double
 148:c:\programdata\chocolatey\lib\gcc-arm-embedded\tools\gcc-arm-none-eabi-10-2020-q4-major\arm-none-eabi\include\c++\10.2.1\cmath ****   atan2(long double __y, long double __x)
 149:c:\programdata\chocolatey\lib\gcc-arm-embedded\tools\gcc-arm-none-eabi-10-2020-q4-major\arm-none-eabi\include\c++\10.2.1\cmath ****   { return __builtin_atan2l(__y, __x); }
 150:c:\programdata\chocolatey\lib\gcc-arm-embedded\tools\gcc-arm-none-eabi-10-2020-q4-major\arm-none-eabi\include\c++\10.2.1\cmath **** #endif
 151:c:\programdata\chocolatey\lib\gcc-arm-embedded\tools\gcc-arm-none-eabi-10-2020-q4-major\arm-none-eabi\include\c++\10.2.1\cmath **** 
 152:c:\programdata\chocolatey\lib\gcc-arm-embedded\tools\gcc-arm-none-eabi-10-2020-q4-major\arm-none-eabi\include\c++\10.2.1\cmath ****   template<typename _Tp, typename _Up>
 153:c:\programdata\chocolatey\lib\gcc-arm-embedded\tools\gcc-arm-none-eabi-10-2020-q4-major\arm-none-eabi\include\c++\10.2.1\cmath ****     inline _GLIBCXX_CONSTEXPR
 154:c:\programdata\chocolatey\lib\gcc-arm-embedded\tools\gcc-arm-none-eabi-10-2020-q4-major\arm-none-eabi\include\c++\10.2.1\cmath ****     typename __gnu_cxx::__promote_2<_Tp, _Up>::__type
 155:c:\programdata\chocolatey\lib\gcc-arm-embedded\tools\gcc-arm-none-eabi-10-2020-q4-major\arm-none-eabi\include\c++\10.2.1\cmath ****     atan2(_Tp __y, _Up __x)
 156:c:\programdata\chocolatey\lib\gcc-arm-embedded\tools\gcc-arm-none-eabi-10-2020-q4-major\arm-none-eabi\include\c++\10.2.1\cmath ****     {
 157:c:\programdata\chocolatey\lib\gcc-arm-embedded\tools\gcc-arm-none-eabi-10-2020-q4-major\arm-none-eabi\include\c++\10.2.1\cmath ****       typedef typename __gnu_cxx::__promote_2<_Tp, _Up>::__type __type;
 158:c:\programdata\chocolatey\lib\gcc-arm-embedded\tools\gcc-arm-none-eabi-10-2020-q4-major\arm-none-eabi\include\c++\10.2.1\cmath ****       return atan2(__type(__y), __type(__x));
 159:c:\programdata\chocolatey\lib\gcc-arm-embedded\tools\gcc-arm-none-eabi-10-2020-q4-major\arm-none-eabi\include\c++\10.2.1\cmath ****     }
 160:c:\programdata\chocolatey\lib\gcc-arm-embedded\tools\gcc-arm-none-eabi-10-2020-q4-major\arm-none-eabi\include\c++\10.2.1\cmath **** 
 161:c:\programdata\chocolatey\lib\gcc-arm-embedded\tools\gcc-arm-none-eabi-10-2020-q4-major\arm-none-eabi\include\c++\10.2.1\cmath ****   using ::ceil;
 162:c:\programdata\chocolatey\lib\gcc-arm-embedded\tools\gcc-arm-none-eabi-10-2020-q4-major\arm-none-eabi\include\c++\10.2.1\cmath **** 
 163:c:\programdata\chocolatey\lib\gcc-arm-embedded\tools\gcc-arm-none-eabi-10-2020-q4-major\arm-none-eabi\include\c++\10.2.1\cmath **** #ifndef __CORRECT_ISO_CPP_MATH_H_PROTO
 164:c:\programdata\chocolatey\lib\gcc-arm-embedded\tools\gcc-arm-none-eabi-10-2020-q4-major\arm-none-eabi\include\c++\10.2.1\cmath ****   inline _GLIBCXX_CONSTEXPR float
 165:c:\programdata\chocolatey\lib\gcc-arm-embedded\tools\gcc-arm-none-eabi-10-2020-q4-major\arm-none-eabi\include\c++\10.2.1\cmath ****   ceil(float __x)
 166:c:\programdata\chocolatey\lib\gcc-arm-embedded\tools\gcc-arm-none-eabi-10-2020-q4-major\arm-none-eabi\include\c++\10.2.1\cmath ****   { return __builtin_ceilf(__x); }
 167:c:\programdata\chocolatey\lib\gcc-arm-embedded\tools\gcc-arm-none-eabi-10-2020-q4-major\arm-none-eabi\include\c++\10.2.1\cmath **** 
 168:c:\programdata\chocolatey\lib\gcc-arm-embedded\tools\gcc-arm-none-eabi-10-2020-q4-major\arm-none-eabi\include\c++\10.2.1\cmath ****   inline _GLIBCXX_CONSTEXPR long double
 169:c:\programdata\chocolatey\lib\gcc-arm-embedded\tools\gcc-arm-none-eabi-10-2020-q4-major\arm-none-eabi\include\c++\10.2.1\cmath ****   ceil(long double __x)
 170:c:\programdata\chocolatey\lib\gcc-arm-embedded\tools\gcc-arm-none-eabi-10-2020-q4-major\arm-none-eabi\include\c++\10.2.1\cmath ****   { return __builtin_ceill(__x); }
 171:c:\programdata\chocolatey\lib\gcc-arm-embedded\tools\gcc-arm-none-eabi-10-2020-q4-major\arm-none-eabi\include\c++\10.2.1\cmath **** #endif
 172:c:\programdata\chocolatey\lib\gcc-arm-embedded\tools\gcc-arm-none-eabi-10-2020-q4-major\arm-none-eabi\include\c++\10.2.1\cmath **** 
 173:c:\programdata\chocolatey\lib\gcc-arm-embedded\tools\gcc-arm-none-eabi-10-2020-q4-major\arm-none-eabi\include\c++\10.2.1\cmath ****   template<typename _Tp>
 174:c:\programdata\chocolatey\lib\gcc-arm-embedded\tools\gcc-arm-none-eabi-10-2020-q4-major\arm-none-eabi\include\c++\10.2.1\cmath ****     inline _GLIBCXX_CONSTEXPR
 175:c:\programdata\chocolatey\lib\gcc-arm-embedded\tools\gcc-arm-none-eabi-10-2020-q4-major\arm-none-eabi\include\c++\10.2.1\cmath ****     typename __gnu_cxx::__enable_if<__is_integer<_Tp>::__value, 
 176:c:\programdata\chocolatey\lib\gcc-arm-embedded\tools\gcc-arm-none-eabi-10-2020-q4-major\arm-none-eabi\include\c++\10.2.1\cmath ****                                     double>::__type
 177:c:\programdata\chocolatey\lib\gcc-arm-embedded\tools\gcc-arm-none-eabi-10-2020-q4-major\arm-none-eabi\include\c++\10.2.1\cmath ****     ceil(_Tp __x)
 178:c:\programdata\chocolatey\lib\gcc-arm-embedded\tools\gcc-arm-none-eabi-10-2020-q4-major\arm-none-eabi\include\c++\10.2.1\cmath ****     { return __builtin_ceil(__x); }
 179:c:\programdata\chocolatey\lib\gcc-arm-embedded\tools\gcc-arm-none-eabi-10-2020-q4-major\arm-none-eabi\include\c++\10.2.1\cmath **** 
 180:c:\programdata\chocolatey\lib\gcc-arm-embedded\tools\gcc-arm-none-eabi-10-2020-q4-major\arm-none-eabi\include\c++\10.2.1\cmath ****   using ::cos;
 181:c:\programdata\chocolatey\lib\gcc-arm-embedded\tools\gcc-arm-none-eabi-10-2020-q4-major\arm-none-eabi\include\c++\10.2.1\cmath **** 
 182:c:\programdata\chocolatey\lib\gcc-arm-embedded\tools\gcc-arm-none-eabi-10-2020-q4-major\arm-none-eabi\include\c++\10.2.1\cmath **** #ifndef __CORRECT_ISO_CPP_MATH_H_PROTO
ARM GAS  C:\Users\daniel\AppData\Local\Temp\ccmFX6Ad.s 			page 36


 183:c:\programdata\chocolatey\lib\gcc-arm-embedded\tools\gcc-arm-none-eabi-10-2020-q4-major\arm-none-eabi\include\c++\10.2.1\cmath ****   inline _GLIBCXX_CONSTEXPR float
 184:c:\programdata\chocolatey\lib\gcc-arm-embedded\tools\gcc-arm-none-eabi-10-2020-q4-major\arm-none-eabi\include\c++\10.2.1\cmath ****   cos(float __x)
