ARM GAS  C:\Users\daniel\AppData\Local\Temp\ccFYnhh8.s 			page 1


   1              		.cpu cortex-m7
   2              		.eabi_attribute 28, 1
   3              		.eabi_attribute 20, 1
   4              		.eabi_attribute 21, 1
   5              		.eabi_attribute 23, 3
   6              		.eabi_attribute 24, 1
   7              		.eabi_attribute 25, 1
   8              		.eabi_attribute 26, 1
   9              		.eabi_attribute 30, 4
  10              		.eabi_attribute 34, 1
  11              		.eabi_attribute 18, 4
  12              		.file	"granular_processor.cpp"
  13              		.text
  14              	.Ltext0:
  15              		.cfi_sections	.debug_frame
  16              		.section	.text._ZNK11AudioBufferIL10Resolution3EE7ReadZOHElt.isra.0,"axG",%progbits,_ZN20GranularS
  17              		.align	1
  18              		.arch armv7e-m
  19              		.syntax unified
  20              		.thumb
  21              		.thumb_func
  22              		.fpu fpv5-d16
  24              	_ZNK11AudioBufferIL10Resolution3EE7ReadZOHElt.isra.0:
  25              	.LVL0:
  26              	.LFB5981:
  27              		.file 1 "dsp/audio_buffer.h"
   1:dsp/audio_buffer.h **** // Copyright 2014 Emilie Gillet.
   2:dsp/audio_buffer.h **** //
   3:dsp/audio_buffer.h **** // Author: Emilie Gillet (emilie.o.gillet@gmail.com)
   4:dsp/audio_buffer.h **** //
   5:dsp/audio_buffer.h **** // Permission is hereby granted, free of charge, to any person obtaining a copy
   6:dsp/audio_buffer.h **** // of this software and associated documentation files (the "Software"), to deal
   7:dsp/audio_buffer.h **** // in the Software without restriction, including without limitation the rights
   8:dsp/audio_buffer.h **** // to use, copy, modify, merge, publish, distribute, sublicense, and/or sell
   9:dsp/audio_buffer.h **** // copies of the Software, and to permit persons to whom the Software is
  10:dsp/audio_buffer.h **** // furnished to do so, subject to the following conditions:
  11:dsp/audio_buffer.h **** //
  12:dsp/audio_buffer.h **** // The above copyright notice and this permission notice shall be included in
  13:dsp/audio_buffer.h **** // all copies or substantial portions of the Software.
  14:dsp/audio_buffer.h **** //
  15:dsp/audio_buffer.h **** // THE SOFTWARE IS PROVIDED "AS IS", WITHOUT WARRANTY OF ANY KIND, EXPRESS OR
  16:dsp/audio_buffer.h **** // IMPLIED, INCLUDING BUT NOT LIMITED TO THE WARRANTIES OF MERCHANTABILITY,
  17:dsp/audio_buffer.h **** // FITNESS FOR A PARTICULAR PURPOSE AND NONINFRINGEMENT. IN NO EVENT SHALL THE
  18:dsp/audio_buffer.h **** // AUTHORS OR COPYRIGHT HOLDERS BE LIABLE FOR ANY CLAIM, DAMAGES OR OTHER
  19:dsp/audio_buffer.h **** // LIABILITY, WHETHER IN AN ACTION OF CONTRACT, TORT OR OTHERWISE, ARISING FROM,
  20:dsp/audio_buffer.h **** // OUT OF OR IN CONNECTION WITH THE SOFTWARE OR THE USE OR OTHER DEALINGS IN
  21:dsp/audio_buffer.h **** // THE SOFTWARE.
  22:dsp/audio_buffer.h **** //
  23:dsp/audio_buffer.h **** // See http://creativecommons.org/licenses/MIT/ for more information.
  24:dsp/audio_buffer.h **** //
  25:dsp/audio_buffer.h **** // -----------------------------------------------------------------------------
  26:dsp/audio_buffer.h **** //
  27:dsp/audio_buffer.h **** // Circular buffer storing audio samples.
  28:dsp/audio_buffer.h **** 
  29:dsp/audio_buffer.h **** #ifndef CLOUDS_DSP_AUDIO_BUFFER_H_
  30:dsp/audio_buffer.h **** #define CLOUDS_DSP_AUDIO_BUFFER_H_
  31:dsp/audio_buffer.h **** 
ARM GAS  C:\Users\daniel\AppData\Local\Temp\ccFYnhh8.s 			page 2


  32:dsp/audio_buffer.h **** #include <algorithm>
  33:dsp/audio_buffer.h **** #include "daisy.h"
  34:dsp/audio_buffer.h **** #include "mu_law.h"
  35:dsp/audio_buffer.h **** 
  36:dsp/audio_buffer.h **** using namespace daisy;
  37:dsp/audio_buffer.h **** 
  38:dsp/audio_buffer.h **** const int32_t kCrossFadeSize     = 256;
  39:dsp/audio_buffer.h **** const int32_t kInterpolationTail = 8;
  40:dsp/audio_buffer.h **** 
  41:dsp/audio_buffer.h **** enum Resolution
  42:dsp/audio_buffer.h **** {
  43:dsp/audio_buffer.h ****     RESOLUTION_16_BIT,
  44:dsp/audio_buffer.h ****     RESOLUTION_8_BIT,
  45:dsp/audio_buffer.h ****     RESOLUTION_8_BIT_DITHERED,
  46:dsp/audio_buffer.h ****     RESOLUTION_8_BIT_MU_LAW,
  47:dsp/audio_buffer.h **** };
  48:dsp/audio_buffer.h **** 
  49:dsp/audio_buffer.h **** enum InterpolationMethod
  50:dsp/audio_buffer.h **** {
  51:dsp/audio_buffer.h ****     INTERPOLATION_ZOH,
  52:dsp/audio_buffer.h ****     INTERPOLATION_LINEAR,
  53:dsp/audio_buffer.h ****     INTERPOLATION_HERMITE
  54:dsp/audio_buffer.h **** };
  55:dsp/audio_buffer.h **** 
  56:dsp/audio_buffer.h **** template <Resolution resolution>
  57:dsp/audio_buffer.h **** class AudioBuffer
  58:dsp/audio_buffer.h **** {
  59:dsp/audio_buffer.h ****   public:
  60:dsp/audio_buffer.h ****     AudioBuffer() {}
  61:dsp/audio_buffer.h ****     ~AudioBuffer() {}
  62:dsp/audio_buffer.h **** 
  63:dsp/audio_buffer.h ****     void Init(void* buffer, int32_t size, int16_t* tail_buffer)
  64:dsp/audio_buffer.h ****     {
  65:dsp/audio_buffer.h ****         s16_                = static_cast<int16_t*>(buffer);
  66:dsp/audio_buffer.h ****         s8_                 = static_cast<int8_t*>(buffer);
  67:dsp/audio_buffer.h ****         size_               = size - kInterpolationTail;
  68:dsp/audio_buffer.h ****         write_head_         = 0;
  69:dsp/audio_buffer.h ****         quantization_error_ = 0.0f;
  70:dsp/audio_buffer.h ****         crossfade_counter_  = 0;
  71:dsp/audio_buffer.h ****         if(resolution == RESOLUTION_16_BIT)
  72:dsp/audio_buffer.h ****         {
  73:dsp/audio_buffer.h ****             std::fill(&s16_[0], &s16_[size], 0);
  74:dsp/audio_buffer.h ****         }
  75:dsp/audio_buffer.h ****         else
  76:dsp/audio_buffer.h ****         {
  77:dsp/audio_buffer.h ****             std::fill(&s8_[0],
  78:dsp/audio_buffer.h ****                       &s8_[size],
  79:dsp/audio_buffer.h ****                       resolution == RESOLUTION_8_BIT_MU_LAW ? 127 : 0);
  80:dsp/audio_buffer.h ****         }
  81:dsp/audio_buffer.h ****         tail_ = tail_buffer;
  82:dsp/audio_buffer.h ****     }
  83:dsp/audio_buffer.h **** 
  84:dsp/audio_buffer.h ****     inline void Resync(int32_t head)
  85:dsp/audio_buffer.h ****     {
  86:dsp/audio_buffer.h ****         write_head_        = head;
  87:dsp/audio_buffer.h ****         crossfade_counter_ = 0;
  88:dsp/audio_buffer.h ****     }
ARM GAS  C:\Users\daniel\AppData\Local\Temp\ccFYnhh8.s 			page 3


  89:dsp/audio_buffer.h **** 
  90:dsp/audio_buffer.h ****     inline void Write(float in)
  91:dsp/audio_buffer.h ****     {
  92:dsp/audio_buffer.h ****         if(resolution == RESOLUTION_16_BIT)
  93:dsp/audio_buffer.h ****         {
  94:dsp/audio_buffer.h ****             s16_[write_head_] = Clip16(static_cast<int32_t>(in * 32768.0f));
  95:dsp/audio_buffer.h ****         }
  96:dsp/audio_buffer.h ****         else if(resolution == RESOLUTION_8_BIT_DITHERED)
  97:dsp/audio_buffer.h ****         {
  98:dsp/audio_buffer.h ****             float sample = in * 127.0f;
  99:dsp/audio_buffer.h ****             sample += quantization_error_;
 100:dsp/audio_buffer.h ****             int32_t quantized = static_cast<int32_t>(sample);
 101:dsp/audio_buffer.h ****             if(quantized < -127)
 102:dsp/audio_buffer.h ****                 quantized = -127;
 103:dsp/audio_buffer.h ****             else if(quantized > 127)
 104:dsp/audio_buffer.h ****                 quantized = 127;
 105:dsp/audio_buffer.h ****             quantization_error_ = sample - static_cast<float>(in);
 106:dsp/audio_buffer.h ****             s8_[write_head_]    = quantized;
 107:dsp/audio_buffer.h ****         }
 108:dsp/audio_buffer.h ****         else if(resolution == RESOLUTION_8_BIT_MU_LAW)
 109:dsp/audio_buffer.h ****         {
 110:dsp/audio_buffer.h ****             int16_t sample   = Clip16(static_cast<int32_t>(in * 32768.0f));
 111:dsp/audio_buffer.h ****             s8_[write_head_] = Lin2MuLaw(sample);
 112:dsp/audio_buffer.h ****         }
 113:dsp/audio_buffer.h ****         else
 114:dsp/audio_buffer.h ****         {
 115:dsp/audio_buffer.h ****             s8_[write_head_] = static_cast<int8_t>(Clip16(in * 32768.0f) >> 8);
 116:dsp/audio_buffer.h ****         }
 117:dsp/audio_buffer.h **** 
 118:dsp/audio_buffer.h ****         if(resolution == RESOLUTION_16_BIT)
 119:dsp/audio_buffer.h ****         {
 120:dsp/audio_buffer.h ****             if(write_head_ < kInterpolationTail)
 121:dsp/audio_buffer.h ****             {
 122:dsp/audio_buffer.h ****                 s16_[write_head_ + size_] = s16_[write_head_];
 123:dsp/audio_buffer.h ****             }
 124:dsp/audio_buffer.h ****         }
 125:dsp/audio_buffer.h ****         else
 126:dsp/audio_buffer.h ****         {
 127:dsp/audio_buffer.h ****             if(write_head_ < kInterpolationTail)
 128:dsp/audio_buffer.h ****             {
 129:dsp/audio_buffer.h ****                 s8_[write_head_ + size_] = s8_[write_head_];
 130:dsp/audio_buffer.h ****             }
 131:dsp/audio_buffer.h ****         }
 132:dsp/audio_buffer.h ****         ++write_head_;
 133:dsp/audio_buffer.h ****         if(write_head_ >= size_)
 134:dsp/audio_buffer.h ****         {
 135:dsp/audio_buffer.h ****             write_head_ = 0;
 136:dsp/audio_buffer.h ****         }
 137:dsp/audio_buffer.h ****     }
 138:dsp/audio_buffer.h **** 
 139:dsp/audio_buffer.h ****     inline void
 140:dsp/audio_buffer.h ****     WriteFade(const float* in, int32_t size, int32_t stride, bool write)
 141:dsp/audio_buffer.h ****     {
 142:dsp/audio_buffer.h ****         if(!write)
 143:dsp/audio_buffer.h ****         {
 144:dsp/audio_buffer.h ****             // Continue recording samples to have something to crossfade with
 145:dsp/audio_buffer.h ****             // when recording resumes.
ARM GAS  C:\Users\daniel\AppData\Local\Temp\ccFYnhh8.s 			page 4


 146:dsp/audio_buffer.h ****             if(crossfade_counter_ < kCrossFadeSize)
 147:dsp/audio_buffer.h ****             {
 148:dsp/audio_buffer.h ****                 while(size--)
 149:dsp/audio_buffer.h ****                 {
 150:dsp/audio_buffer.h ****                     if(crossfade_counter_ < kCrossFadeSize)
 151:dsp/audio_buffer.h ****                     {
 152:dsp/audio_buffer.h ****                         tail_[crossfade_counter_++]
 153:dsp/audio_buffer.h ****                             = Clip16(static_cast<int32_t>(*in * 32767.0f));
 154:dsp/audio_buffer.h ****                         in += stride;
 155:dsp/audio_buffer.h ****                     }
 156:dsp/audio_buffer.h ****                 }
 157:dsp/audio_buffer.h ****             }
 158:dsp/audio_buffer.h ****         }
 159:dsp/audio_buffer.h ****         else if(write && !crossfade_counter_ && resolution == RESOLUTION_16_BIT
 160:dsp/audio_buffer.h ****                 && write_head_ >= kInterpolationTail
 161:dsp/audio_buffer.h ****                 && write_head_ < (size_ - size))
 162:dsp/audio_buffer.h ****         {
 163:dsp/audio_buffer.h ****             // Fast write routine for the most common case.
 164:dsp/audio_buffer.h ****             while(size--)
 165:dsp/audio_buffer.h ****             {
 166:dsp/audio_buffer.h ****                 s16_[write_head_]
 167:dsp/audio_buffer.h ****                     = Clip16(static_cast<int32_t>(*in * 32767.0f));
 168:dsp/audio_buffer.h ****                 ++write_head_;
 169:dsp/audio_buffer.h ****                 in += stride;
 170:dsp/audio_buffer.h ****             }
 171:dsp/audio_buffer.h ****         }
 172:dsp/audio_buffer.h ****         else
 173:dsp/audio_buffer.h ****         {
 174:dsp/audio_buffer.h ****             while(size--)
 175:dsp/audio_buffer.h ****             {
 176:dsp/audio_buffer.h ****                 float sample = *in;
 177:dsp/audio_buffer.h ****                 if(crossfade_counter_)
 178:dsp/audio_buffer.h ****                 {
 179:dsp/audio_buffer.h ****                     --crossfade_counter_;
 180:dsp/audio_buffer.h ****                     float tail_sample
 181:dsp/audio_buffer.h ****                         = tail_[kCrossFadeSize - crossfade_counter_];
 182:dsp/audio_buffer.h ****                     float gain
 183:dsp/audio_buffer.h ****                         = crossfade_counter_ * (1.0f / float(kCrossFadeSize));
 184:dsp/audio_buffer.h ****                     sample += (tail_sample / 32768.0f - sample) * gain;
 185:dsp/audio_buffer.h ****                 }
 186:dsp/audio_buffer.h ****                 Write(sample);
 187:dsp/audio_buffer.h ****                 in += stride;
 188:dsp/audio_buffer.h ****             }
 189:dsp/audio_buffer.h ****         }
 190:dsp/audio_buffer.h ****     }
 191:dsp/audio_buffer.h **** 
 192:dsp/audio_buffer.h ****     inline void Write(const float* in, int32_t size, int32_t stride)
 193:dsp/audio_buffer.h ****     {
 194:dsp/audio_buffer.h ****         if(resolution == RESOLUTION_16_BIT && write_head_ >= kInterpolationTail
 195:dsp/audio_buffer.h ****            && write_head_ < (size_ - size))
 196:dsp/audio_buffer.h ****         {
 197:dsp/audio_buffer.h ****             // Fast write routine for the most common case.
 198:dsp/audio_buffer.h ****             while(size--)
 199:dsp/audio_buffer.h ****             {
 200:dsp/audio_buffer.h ****                 s16_[write_head_]
 201:dsp/audio_buffer.h ****                     = Clip16(static_cast<int32_t>(*in * 32768.0f));
 202:dsp/audio_buffer.h ****                 ++write_head_;
ARM GAS  C:\Users\daniel\AppData\Local\Temp\ccFYnhh8.s 			page 5


 203:dsp/audio_buffer.h ****                 in += stride;
 204:dsp/audio_buffer.h ****             }
 205:dsp/audio_buffer.h ****         }
 206:dsp/audio_buffer.h ****         else
 207:dsp/audio_buffer.h ****         {
 208:dsp/audio_buffer.h ****             while(size--)
 209:dsp/audio_buffer.h ****             {
 210:dsp/audio_buffer.h ****                 Write(*in);
 211:dsp/audio_buffer.h ****                 in += stride;
 212:dsp/audio_buffer.h ****             }
 213:dsp/audio_buffer.h ****         }
 214:dsp/audio_buffer.h ****     }
 215:dsp/audio_buffer.h **** 
 216:dsp/audio_buffer.h ****     template <InterpolationMethod method>
 217:dsp/audio_buffer.h ****     inline float Read(int32_t integral, uint16_t fractional) const
 218:dsp/audio_buffer.h ****     {
 219:dsp/audio_buffer.h ****         if(method == INTERPOLATION_ZOH)
 220:dsp/audio_buffer.h ****         {
 221:dsp/audio_buffer.h ****             return ReadZOH(integral, fractional);
 222:dsp/audio_buffer.h ****         }
 223:dsp/audio_buffer.h ****         else if(method == INTERPOLATION_LINEAR)
 224:dsp/audio_buffer.h ****         {
 225:dsp/audio_buffer.h ****             return ReadLinear(integral, fractional);
 226:dsp/audio_buffer.h ****         }
 227:dsp/audio_buffer.h ****         else if(method == INTERPOLATION_HERMITE)
 228:dsp/audio_buffer.h ****         {
 229:dsp/audio_buffer.h ****             return ReadHermite(integral, fractional);
 230:dsp/audio_buffer.h ****         }
 231:dsp/audio_buffer.h ****     }
 232:dsp/audio_buffer.h **** 
 233:dsp/audio_buffer.h ****     inline float ReadZOH(int32_t integral, uint16_t fractional) const
  28              		.loc 1 233 18 view -0
  29              		.cfi_startproc
  30              		@ args = 0, pretend = 0, frame = 0
  31              		@ frame_needed = 0, uses_anonymous_args = 0
  32              		@ link register save eliminated.
 234:dsp/audio_buffer.h ****     {
 235:dsp/audio_buffer.h ****         if(integral >= size_)
  33              		.loc 1 235 24 is_stmt 0 view .LVU1
  34 0000 0369     		ldr	r3, [r0, #16]
  35              		.loc 1 235 9 view .LVU2
  36 0002 8B42     		cmp	r3, r1
 236:dsp/audio_buffer.h ****         {
 237:dsp/audio_buffer.h ****             integral -= size_;
  37              		.loc 1 237 22 view .LVU3
  38 0004 D8BF     		it	le
  39 0006 C91A     		suble	r1, r1, r3
  40              	.LVL1:
  41              	.LBB673:
  42              	.LBI673:
  43              		.file 2 "dsp/mu_law.h"
   1:dsp/mu_law.h  **** // Copyright 2014 Emilie Gillet.
   2:dsp/mu_law.h  **** //
   3:dsp/mu_law.h  **** // Author: Emilie Gillet (emilie.o.gillet@gmail.com)
   4:dsp/mu_law.h  **** //
   5:dsp/mu_law.h  **** // Permission is hereby granted, free of charge, to any person obtaining a copy
   6:dsp/mu_law.h  **** // of this software and associated documentation files (the "Software"), to deal
ARM GAS  C:\Users\daniel\AppData\Local\Temp\ccFYnhh8.s 			page 6


   7:dsp/mu_law.h  **** // in the Software without restriction, including without limitation the rights
   8:dsp/mu_law.h  **** // to use, copy, modify, merge, publish, distribute, sublicense, and/or sell
   9:dsp/mu_law.h  **** // copies of the Software, and to permit persons to whom the Software is
  10:dsp/mu_law.h  **** // furnished to do so, subject to the following conditions:
  11:dsp/mu_law.h  **** //
  12:dsp/mu_law.h  **** // The above copyright notice and this permission notice shall be included in
  13:dsp/mu_law.h  **** // all copies or substantial portions of the Software.
  14:dsp/mu_law.h  **** //
  15:dsp/mu_law.h  **** // THE SOFTWARE IS PROVIDED "AS IS", WITHOUT WARRANTY OF ANY KIND, EXPRESS OR
  16:dsp/mu_law.h  **** // IMPLIED, INCLUDING BUT NOT LIMITED TO THE WARRANTIES OF MERCHANTABILITY,
  17:dsp/mu_law.h  **** // FITNESS FOR A PARTICULAR PURPOSE AND NONINFRINGEMENT. IN NO EVENT SHALL THE
  18:dsp/mu_law.h  **** // AUTHORS OR COPYRIGHT HOLDERS BE LIABLE FOR ANY CLAIM, DAMAGES OR OTHER
  19:dsp/mu_law.h  **** // LIABILITY, WHETHER IN AN ACTION OF CONTRACT, TORT OR OTHERWISE, ARISING FROM,
  20:dsp/mu_law.h  **** // OUT OF OR IN CONNECTION WITH THE SOFTWARE OR THE USE OR OTHER DEALINGS IN
  21:dsp/mu_law.h  **** // THE SOFTWARE.
  22:dsp/mu_law.h  **** //
  23:dsp/mu_law.h  **** // See http://creativecommons.org/licenses/MIT/ for more information.
  24:dsp/mu_law.h  **** //
  25:dsp/mu_law.h  **** // -----------------------------------------------------------------------------
  26:dsp/mu_law.h  **** //
  27:dsp/mu_law.h  **** // Mu-law encoding.
  28:dsp/mu_law.h  **** 
  29:dsp/mu_law.h  **** #ifndef CLOUDS_DSP_MU_LAW_H_
  30:dsp/mu_law.h  **** #define CLOUDS_DSP_MU_LAW_H_
  31:dsp/mu_law.h  **** 
  32:dsp/mu_law.h  **** #include "daisy.h"
  33:dsp/mu_law.h  **** #include <stdint.h>
  34:dsp/mu_law.h  **** #include "resources.h"
  35:dsp/mu_law.h  **** 
  36:dsp/mu_law.h  **** using namespace daisy;
  37:dsp/mu_law.h  **** 
  38:dsp/mu_law.h  **** //lut_ulaw moved to resources.h
  39:dsp/mu_law.h  **** inline short MuLaw2Lin(uint8_t u_val)
  44              		.loc 2 39 14 is_stmt 1 view .LVU4
  45              	.LBB674:
  40:dsp/mu_law.h  **** {
  41:dsp/mu_law.h  ****     return lut_ulaw[u_val];
  46              		.loc 2 41 5 view .LVU5
  47              		.loc 2 41 5 is_stmt 0 view .LVU6
  48              	.LBE674:
  49              	.LBE673:
 238:dsp/audio_buffer.h ****         }
 239:dsp/audio_buffer.h **** 
 240:dsp/audio_buffer.h ****         float x0, scale;
 241:dsp/audio_buffer.h ****         if(resolution == RESOLUTION_16_BIT)
 242:dsp/audio_buffer.h ****         {
 243:dsp/audio_buffer.h ****             x0    = s16_[integral];
 244:dsp/audio_buffer.h ****             scale = 1.0f / 32768.0f;
 245:dsp/audio_buffer.h ****         }
 246:dsp/audio_buffer.h ****         else if(resolution == RESOLUTION_8_BIT_MU_LAW)
 247:dsp/audio_buffer.h ****         {
 248:dsp/audio_buffer.h ****             x0    = MuLaw2Lin(s8_[integral]);
  50              		.loc 1 248 43 view .LVU7
  51 0008 4368     		ldr	r3, [r0, #4]
  52              	.LBB676:
  53              	.LBB675:
  54              		.loc 2 41 21 view .LVU8
ARM GAS  C:\Users\daniel\AppData\Local\Temp\ccFYnhh8.s 			page 7


  55 000a 5A5C     		ldrb	r2, [r3, r1]	@ zero_extendqisi2
  56              	.LBE675:
  57              	.LBE676:
  58              		.loc 1 248 19 view .LVU9
  59 000c 034B     		ldr	r3, .L3
  60 000e 33F91230 		ldrsh	r3, [r3, r2, lsl #1]
  61 0012 00EE103A 		vmov	s0, r3	@ int
 249:dsp/audio_buffer.h ****             scale = 1.0f / 32768.0f;
 250:dsp/audio_buffer.h ****         }
 251:dsp/audio_buffer.h ****         else
 252:dsp/audio_buffer.h ****         {
 253:dsp/audio_buffer.h ****             x0    = s8_[integral];
 254:dsp/audio_buffer.h ****             scale = 1.0f / 128.0f;
 255:dsp/audio_buffer.h ****         }
 256:dsp/audio_buffer.h ****         return x0 * scale;
 257:dsp/audio_buffer.h ****     }
  62              		.loc 1 257 5 view .LVU10
  63 0016 BAEEE80A 		vcvt.f32.s32	s0, s0, #15
  64 001a 7047     		bx	lr
  65              	.L4:
  66              		.align	2
  67              	.L3:
  68 001c 00000000 		.word	lut_ulaw
  69              		.cfi_endproc
  70              	.LFE5981:
  72              		.section	.text._ZN8FxEngineILj4096EL6Format1EE7Context11InterpolateINS1_9DelayLineINS1_7ReserveILl
  73              		.align	1
  74              		.syntax unified
  75              		.thumb
  76              		.thumb_func
  77              		.fpu fpv5-d16
  79              	_ZN8FxEngineILj4096EL6Format1EE7Context11InterpolateINS1_9DelayLineINS1_7ReserveILl2047ENS5_ILl2047
  80              	.LVL2:
  81              	.LFB5914:
  82              		.file 3 "dsp/fx/fx_engine.h"
   1:dsp/fx/fx_engine.h **** // Copyright 2014 Emilie Gillet.
   2:dsp/fx/fx_engine.h **** //
   3:dsp/fx/fx_engine.h **** // Author: Emilie Gillet (emilie.o.gillet@gmail.com)
   4:dsp/fx/fx_engine.h **** //
   5:dsp/fx/fx_engine.h **** // Permission is hereby granted, free of charge, to any person obtaining a copy
   6:dsp/fx/fx_engine.h **** // of this software and associated documentation files (the "Software"), to deal
   7:dsp/fx/fx_engine.h **** // in the Software without restriction, including without limitation the rights
   8:dsp/fx/fx_engine.h **** // to use, copy, modify, merge, publish, distribute, sublicense, and/or sell
   9:dsp/fx/fx_engine.h **** // copies of the Software, and to permit persons to whom the Software is
  10:dsp/fx/fx_engine.h **** // furnished to do so, subject to the following conditions:
  11:dsp/fx/fx_engine.h **** //
  12:dsp/fx/fx_engine.h **** // The above copyright notice and this permission notice shall be included in
  13:dsp/fx/fx_engine.h **** // all copies or substantial portions of the Software.
  14:dsp/fx/fx_engine.h **** //
  15:dsp/fx/fx_engine.h **** // THE SOFTWARE IS PROVIDED "AS IS", WITHOUT WARRANTY OF ANY KIND, EXPRESS OR
  16:dsp/fx/fx_engine.h **** // IMPLIED, INCLUDING BUT NOT LIMITED TO THE WARRANTIES OF MERCHANTABILITY,
  17:dsp/fx/fx_engine.h **** // FITNESS FOR A PARTICULAR PURPOSE AND NONINFRINGEMENT. IN NO EVENT SHALL THE
  18:dsp/fx/fx_engine.h **** // AUTHORS OR COPYRIGHT HOLDERS BE LIABLE FOR ANY CLAIM, DAMAGES OR OTHER
  19:dsp/fx/fx_engine.h **** // LIABILITY, WHETHER IN AN ACTION OF CONTRACT, TORT OR OTHERWISE, ARISING FROM,
  20:dsp/fx/fx_engine.h **** // OUT OF OR IN CONNECTION WITH THE SOFTWARE OR THE USE OR OTHER DEALINGS IN
  21:dsp/fx/fx_engine.h **** // THE SOFTWARE.
  22:dsp/fx/fx_engine.h **** //
ARM GAS  C:\Users\daniel\AppData\Local\Temp\ccFYnhh8.s 			page 8


  23:dsp/fx/fx_engine.h **** // See http://creativecommons.org/licenses/MIT/ for more information.
  24:dsp/fx/fx_engine.h **** //
  25:dsp/fx/fx_engine.h **** // -----------------------------------------------------------------------------
  26:dsp/fx/fx_engine.h **** //
  27:dsp/fx/fx_engine.h **** // Base class for building reverbs.
  28:dsp/fx/fx_engine.h **** 
  29:dsp/fx/fx_engine.h **** #ifndef CLOUDS_DSP_FX_FX_ENGINE_H_
  30:dsp/fx/fx_engine.h **** #define CLOUDS_DSP_FX_FX_ENGINE_H_
  31:dsp/fx/fx_engine.h **** 
  32:dsp/fx/fx_engine.h **** #include <algorithm>
  33:dsp/fx/fx_engine.h **** #include "stmtemp.h"
  34:dsp/fx/fx_engine.h **** 
  35:dsp/fx/fx_engine.h **** using namespace daisysp;
  36:dsp/fx/fx_engine.h **** 
  37:dsp/fx/fx_engine.h **** #define TAIL , -1
  38:dsp/fx/fx_engine.h **** 
  39:dsp/fx/fx_engine.h **** enum Format
  40:dsp/fx/fx_engine.h **** {
  41:dsp/fx/fx_engine.h ****     FORMAT_12_BIT,
  42:dsp/fx/fx_engine.h ****     FORMAT_16_BIT,
  43:dsp/fx/fx_engine.h ****     FORMAT_32_BIT
  44:dsp/fx/fx_engine.h **** };
  45:dsp/fx/fx_engine.h **** 
  46:dsp/fx/fx_engine.h **** enum LFOIndex
  47:dsp/fx/fx_engine.h **** {
  48:dsp/fx/fx_engine.h ****     LFO_1,
  49:dsp/fx/fx_engine.h ****     LFO_2
  50:dsp/fx/fx_engine.h **** };
  51:dsp/fx/fx_engine.h **** 
  52:dsp/fx/fx_engine.h **** template <Format format>
  53:dsp/fx/fx_engine.h **** struct DataType
  54:dsp/fx/fx_engine.h **** {
  55:dsp/fx/fx_engine.h **** };
  56:dsp/fx/fx_engine.h **** 
  57:dsp/fx/fx_engine.h **** template <>
  58:dsp/fx/fx_engine.h **** struct DataType<FORMAT_12_BIT>
  59:dsp/fx/fx_engine.h **** {
  60:dsp/fx/fx_engine.h ****     typedef uint16_t T;
  61:dsp/fx/fx_engine.h **** 
  62:dsp/fx/fx_engine.h ****     static inline float Decompress(T value)
  63:dsp/fx/fx_engine.h ****     {
  64:dsp/fx/fx_engine.h ****         return static_cast<float>(static_cast<int16_t>(value)) / 4096.0f;
  65:dsp/fx/fx_engine.h ****     }
  66:dsp/fx/fx_engine.h **** 
  67:dsp/fx/fx_engine.h ****     static inline T Compress(float value)
  68:dsp/fx/fx_engine.h ****     {
  69:dsp/fx/fx_engine.h ****         return static_cast<uint16_t>(
  70:dsp/fx/fx_engine.h ****             Clip16(static_cast<int32_t>(value * 4096.0f)));
  71:dsp/fx/fx_engine.h ****     }
  72:dsp/fx/fx_engine.h **** };
  73:dsp/fx/fx_engine.h **** 
  74:dsp/fx/fx_engine.h **** template <>
  75:dsp/fx/fx_engine.h **** struct DataType<FORMAT_16_BIT>
  76:dsp/fx/fx_engine.h **** {
  77:dsp/fx/fx_engine.h ****     typedef uint16_t T;
  78:dsp/fx/fx_engine.h **** 
  79:dsp/fx/fx_engine.h ****     static inline float Decompress(T value)
ARM GAS  C:\Users\daniel\AppData\Local\Temp\ccFYnhh8.s 			page 9


  80:dsp/fx/fx_engine.h ****     {
  81:dsp/fx/fx_engine.h ****         return static_cast<float>(static_cast<int16_t>(value)) / 32768.0f;
  82:dsp/fx/fx_engine.h ****     }
  83:dsp/fx/fx_engine.h **** 
  84:dsp/fx/fx_engine.h ****     static inline T Compress(float value)
  85:dsp/fx/fx_engine.h ****     {
  86:dsp/fx/fx_engine.h ****         return static_cast<uint16_t>(
  87:dsp/fx/fx_engine.h ****             Clip16(static_cast<int32_t>(value * 32768.0f)));
  88:dsp/fx/fx_engine.h ****     }
  89:dsp/fx/fx_engine.h **** };
  90:dsp/fx/fx_engine.h **** 
  91:dsp/fx/fx_engine.h **** template <>
  92:dsp/fx/fx_engine.h **** struct DataType<FORMAT_32_BIT>
  93:dsp/fx/fx_engine.h **** {
  94:dsp/fx/fx_engine.h ****     typedef float T;
  95:dsp/fx/fx_engine.h **** 
  96:dsp/fx/fx_engine.h ****     static inline float Decompress(T value)
  97:dsp/fx/fx_engine.h ****     {
  98:dsp/fx/fx_engine.h ****         return value;
  99:dsp/fx/fx_engine.h ****         ;
 100:dsp/fx/fx_engine.h ****     }
 101:dsp/fx/fx_engine.h **** 
 102:dsp/fx/fx_engine.h ****     static inline T Compress(float value) { return value; }
 103:dsp/fx/fx_engine.h **** };
 104:dsp/fx/fx_engine.h **** 
 105:dsp/fx/fx_engine.h **** template <size_t size, Format format = FORMAT_12_BIT>
 106:dsp/fx/fx_engine.h **** class FxEngine
 107:dsp/fx/fx_engine.h **** {
 108:dsp/fx/fx_engine.h ****   public:
 109:dsp/fx/fx_engine.h ****     typedef typename DataType<format>::T T;
 110:dsp/fx/fx_engine.h ****     FxEngine() {}
 111:dsp/fx/fx_engine.h ****     ~FxEngine() {}
 112:dsp/fx/fx_engine.h **** 
 113:dsp/fx/fx_engine.h ****     void Init(T* buffer)
 114:dsp/fx/fx_engine.h ****     {
 115:dsp/fx/fx_engine.h ****         buffer_ = buffer;
 116:dsp/fx/fx_engine.h ****         Clear();
 117:dsp/fx/fx_engine.h ****     }
 118:dsp/fx/fx_engine.h **** 
 119:dsp/fx/fx_engine.h ****     void Clear()
 120:dsp/fx/fx_engine.h ****     {
 121:dsp/fx/fx_engine.h ****         std::fill(&buffer_[0], &buffer_[size], 0);
 122:dsp/fx/fx_engine.h ****         write_ptr_ = 0;
 123:dsp/fx/fx_engine.h ****     }
 124:dsp/fx/fx_engine.h **** 
 125:dsp/fx/fx_engine.h ****     struct Empty
 126:dsp/fx/fx_engine.h ****     {
 127:dsp/fx/fx_engine.h ****     };
 128:dsp/fx/fx_engine.h **** 
 129:dsp/fx/fx_engine.h ****     template <int32_t l, typename T = Empty>
 130:dsp/fx/fx_engine.h ****     struct Reserve
 131:dsp/fx/fx_engine.h ****     {
 132:dsp/fx/fx_engine.h ****         typedef T Tail;
 133:dsp/fx/fx_engine.h ****         enum
 134:dsp/fx/fx_engine.h ****         {
 135:dsp/fx/fx_engine.h ****             length = l
 136:dsp/fx/fx_engine.h ****         };
ARM GAS  C:\Users\daniel\AppData\Local\Temp\ccFYnhh8.s 			page 10


 137:dsp/fx/fx_engine.h ****     };
 138:dsp/fx/fx_engine.h **** 
 139:dsp/fx/fx_engine.h ****     template <typename Memory, int32_t index>
 140:dsp/fx/fx_engine.h ****     struct DelayLine
 141:dsp/fx/fx_engine.h ****     {
 142:dsp/fx/fx_engine.h ****         enum
 143:dsp/fx/fx_engine.h ****         {
 144:dsp/fx/fx_engine.h ****             length = DelayLine<typename Memory::Tail, index - 1>::length,
 145:dsp/fx/fx_engine.h ****             base   = DelayLine<Memory, index - 1>::base
 146:dsp/fx/fx_engine.h ****                    + DelayLine<Memory, index - 1>::length + 1
 147:dsp/fx/fx_engine.h ****         };
 148:dsp/fx/fx_engine.h ****     };
 149:dsp/fx/fx_engine.h **** 
 150:dsp/fx/fx_engine.h ****     template <typename Memory>
 151:dsp/fx/fx_engine.h ****     struct DelayLine<Memory, 0>
 152:dsp/fx/fx_engine.h ****     {
 153:dsp/fx/fx_engine.h ****         enum
 154:dsp/fx/fx_engine.h ****         {
 155:dsp/fx/fx_engine.h ****             length = Memory::length,
 156:dsp/fx/fx_engine.h ****             base   = 0
 157:dsp/fx/fx_engine.h ****         };
 158:dsp/fx/fx_engine.h ****     };
 159:dsp/fx/fx_engine.h **** 
 160:dsp/fx/fx_engine.h ****     class Context
 161:dsp/fx/fx_engine.h ****     {
 162:dsp/fx/fx_engine.h ****         friend class FxEngine;
 163:dsp/fx/fx_engine.h **** 
 164:dsp/fx/fx_engine.h ****       public:
 165:dsp/fx/fx_engine.h ****         Context() {}
 166:dsp/fx/fx_engine.h ****         ~Context() {}
 167:dsp/fx/fx_engine.h **** 
 168:dsp/fx/fx_engine.h ****         inline void Load(float value) { accumulator_ = value; }
 169:dsp/fx/fx_engine.h **** 
 170:dsp/fx/fx_engine.h ****         inline void Read(float value, float scale)
 171:dsp/fx/fx_engine.h ****         {
 172:dsp/fx/fx_engine.h ****             accumulator_ += value * scale;
 173:dsp/fx/fx_engine.h ****         }
 174:dsp/fx/fx_engine.h **** 
 175:dsp/fx/fx_engine.h ****         inline void Read(float value) { accumulator_ += value; }
 176:dsp/fx/fx_engine.h **** 
 177:dsp/fx/fx_engine.h ****         inline void Write(float& value) { value = accumulator_; }
 178:dsp/fx/fx_engine.h **** 
 179:dsp/fx/fx_engine.h ****         inline void Write(float& value, float scale)
 180:dsp/fx/fx_engine.h ****         {
 181:dsp/fx/fx_engine.h ****             value = accumulator_;
 182:dsp/fx/fx_engine.h ****             accumulator_ *= scale;
 183:dsp/fx/fx_engine.h ****         }
 184:dsp/fx/fx_engine.h **** 
 185:dsp/fx/fx_engine.h ****         template <typename D>
 186:dsp/fx/fx_engine.h ****         inline void Write(D& d, int32_t offset, float scale)
 187:dsp/fx/fx_engine.h ****         {
 188:dsp/fx/fx_engine.h ****             STATIC_ASSERT(D::base + D::length <= size, delay_memory_full);
 189:dsp/fx/fx_engine.h ****             T w = DataType<format>::Compress(accumulator_);
 190:dsp/fx/fx_engine.h ****             if(offset == -1)
 191:dsp/fx/fx_engine.h ****             {
 192:dsp/fx/fx_engine.h ****                 buffer_[(write_ptr_ + D::base + D::length - 1) & MASK] = w;
 193:dsp/fx/fx_engine.h ****             }
ARM GAS  C:\Users\daniel\AppData\Local\Temp\ccFYnhh8.s 			page 11


 194:dsp/fx/fx_engine.h ****             else
 195:dsp/fx/fx_engine.h ****             {
 196:dsp/fx/fx_engine.h ****                 buffer_[(write_ptr_ + D::base + offset) & MASK] = w;
 197:dsp/fx/fx_engine.h ****             }
 198:dsp/fx/fx_engine.h ****             accumulator_ *= scale;
 199:dsp/fx/fx_engine.h ****         }
 200:dsp/fx/fx_engine.h **** 
 201:dsp/fx/fx_engine.h ****         template <typename D>
 202:dsp/fx/fx_engine.h ****         inline void Write(D& d, float scale)
 203:dsp/fx/fx_engine.h ****         {
 204:dsp/fx/fx_engine.h ****             Write(d, 0, scale);
 205:dsp/fx/fx_engine.h ****         }
 206:dsp/fx/fx_engine.h **** 
 207:dsp/fx/fx_engine.h ****         template <typename D>
 208:dsp/fx/fx_engine.h ****         inline void WriteAllPass(D& d, int32_t offset, float scale)
 209:dsp/fx/fx_engine.h ****         {
 210:dsp/fx/fx_engine.h ****             Write(d, offset, scale);
 211:dsp/fx/fx_engine.h ****             accumulator_ += previous_read_;
 212:dsp/fx/fx_engine.h ****         }
 213:dsp/fx/fx_engine.h **** 
 214:dsp/fx/fx_engine.h ****         template <typename D>
 215:dsp/fx/fx_engine.h ****         inline void WriteAllPass(D& d, float scale)
 216:dsp/fx/fx_engine.h ****         {
 217:dsp/fx/fx_engine.h ****             WriteAllPass(d, 0, scale);
 218:dsp/fx/fx_engine.h ****         }
 219:dsp/fx/fx_engine.h **** 
 220:dsp/fx/fx_engine.h ****         template <typename D>
 221:dsp/fx/fx_engine.h ****         inline void Read(D& d, int32_t offset, float scale)
 222:dsp/fx/fx_engine.h ****         {
 223:dsp/fx/fx_engine.h ****             STATIC_ASSERT(D::base + D::length <= size, delay_memory_full);
 224:dsp/fx/fx_engine.h ****             T r;
 225:dsp/fx/fx_engine.h ****             if(offset == -1)
 226:dsp/fx/fx_engine.h ****             {
 227:dsp/fx/fx_engine.h ****                 r = buffer_[(write_ptr_ + D::base + D::length - 1) & MASK];
 228:dsp/fx/fx_engine.h ****             }
 229:dsp/fx/fx_engine.h ****             else
 230:dsp/fx/fx_engine.h ****             {
 231:dsp/fx/fx_engine.h ****                 r = buffer_[(write_ptr_ + D::base + offset) & MASK];
 232:dsp/fx/fx_engine.h ****             }
 233:dsp/fx/fx_engine.h ****             float r_f      = DataType<format>::Decompress(r);
 234:dsp/fx/fx_engine.h ****             previous_read_ = r_f;
 235:dsp/fx/fx_engine.h ****             accumulator_ += r_f * scale;
 236:dsp/fx/fx_engine.h ****         }
 237:dsp/fx/fx_engine.h **** 
 238:dsp/fx/fx_engine.h ****         template <typename D>
 239:dsp/fx/fx_engine.h ****         inline void Read(D& d, float scale)
 240:dsp/fx/fx_engine.h ****         {
 241:dsp/fx/fx_engine.h ****             Read(d, 0, scale);
 242:dsp/fx/fx_engine.h ****         }
 243:dsp/fx/fx_engine.h **** 
 244:dsp/fx/fx_engine.h ****         inline void Lp(float& state, float coefficient)
 245:dsp/fx/fx_engine.h ****         {
 246:dsp/fx/fx_engine.h ****             state += coefficient * (accumulator_ - state);
 247:dsp/fx/fx_engine.h ****             accumulator_ = state;
 248:dsp/fx/fx_engine.h ****         }
 249:dsp/fx/fx_engine.h **** 
 250:dsp/fx/fx_engine.h ****         inline void Hp(float& state, float coefficient)
ARM GAS  C:\Users\daniel\AppData\Local\Temp\ccFYnhh8.s 			page 12


 251:dsp/fx/fx_engine.h ****         {
 252:dsp/fx/fx_engine.h ****             state += coefficient * (accumulator_ - state);
 253:dsp/fx/fx_engine.h ****             accumulator_ -= state;
 254:dsp/fx/fx_engine.h ****         }
 255:dsp/fx/fx_engine.h **** 
 256:dsp/fx/fx_engine.h ****         template <typename D>
 257:dsp/fx/fx_engine.h ****         inline void Interpolate(D& d, float offset, float scale)
  83              		.loc 3 257 21 is_stmt 1 view -0
  84              		.cfi_startproc
  85              		@ args = 0, pretend = 0, frame = 0
  86              		@ frame_needed = 0, uses_anonymous_args = 0
  87              		@ link register save eliminated.
 258:dsp/fx/fx_engine.h ****         {
 259:dsp/fx/fx_engine.h ****             STATIC_ASSERT(D::base + D::length <= size, delay_memory_full);
 260:dsp/fx/fx_engine.h ****             MAKE_INTEGRAL_FRACTIONAL(offset);
  88              		.loc 3 260 13 is_stmt 0 view .LVU12
  89 0000 BDEEC07A 		vcvt.s32.f32	s14, s0
  90              	.LVL3:
  91              	.LBB677:
  92              	.LBB678:
  81:dsp/fx/fx_engine.h ****     }
  93              		.loc 3 81 66 view .LVU13
  94 0004 DFED186A 		vldr.32	s13, .L6
  95              	.LBE678:
  96              	.LBE677:
 261:dsp/fx/fx_engine.h ****             float a = DataType<format>::Decompress(
 262:dsp/fx/fx_engine.h ****                 buffer_[(write_ptr_ + offset_integral + D::base) & MASK]);
  97              		.loc 3 262 37 view .LVU14
  98 0008 D0E90413 		ldrd	r1, r3, [r0, #16]
  99 000c 17EE102A 		vmov	r2, s14	@ int
 260:dsp/fx/fx_engine.h ****             float a = DataType<format>::Decompress(
 100              		.loc 3 260 13 view .LVU15
 101 0010 F8EEC77A 		vcvt.f32.s32	s15, s14
 102              		.loc 3 262 37 view .LVU16
 103 0014 1A44     		add	r2, r2, r3
 260:dsp/fx/fx_engine.h ****             float a = DataType<format>::Decompress(
 104              		.loc 3 260 13 view .LVU17
 105 0016 70EE677A 		vsub.f32	s15, s0, s15
 106              	.LVL4:
 107              		.loc 3 262 37 view .LVU18
 108 001a 1346     		mov	r3, r2
 109              	.LVL5:
 110              	.LBB682:
 111              	.LBI682:
  79:dsp/fx/fx_engine.h ****     {
 112              		.loc 3 79 25 is_stmt 1 view .LVU19
 113              	.LBB683:
  81:dsp/fx/fx_engine.h ****     }
 114              		.loc 3 81 9 view .LVU20
 115              	.LBE683:
 116              	.LBE682:
 117              		.loc 3 262 55 is_stmt 0 view .LVU21
 118 001c 02F50062 		add	r2, r2, #2048
 119              	.LVL6:
 263:dsp/fx/fx_engine.h ****             float b = DataType<format>::Decompress(
 264:dsp/fx/fx_engine.h ****                 buffer_[(write_ptr_ + offset_integral + D::base + 1) & MASK]);
 120              		.loc 3 264 65 view .LVU22
ARM GAS  C:\Users\daniel\AppData\Local\Temp\ccFYnhh8.s 			page 13


 121 0020 03F60103 		addw	r3, r3, #2049
 262:dsp/fx/fx_engine.h ****             float b = DataType<format>::Decompress(
 122              		.loc 3 262 66 view .LVU23
 123 0024 C2F30B02 		ubfx	r2, r2, #0, #12
 124              	.LVL7:
 125              		.loc 3 264 70 view .LVU24
 126 0028 C3F30B03 		ubfx	r3, r3, #0, #12
 127              	.LVL8:
 128              	.LBB687:
 129              	.LBB684:
  81:dsp/fx/fx_engine.h ****     }
 130              		.loc 3 81 16 view .LVU25
 131 002c 31F91220 		ldrsh	r2, [r1, r2, lsl #1]
 132              	.LBE684:
 133              	.LBE687:
 134              	.LBB688:
 135              	.LBB679:
 136 0030 31F91330 		ldrsh	r3, [r1, r3, lsl #1]
 137              	.LBE679:
 138              	.LBE688:
 139              	.LBB689:
 140              	.LBB685:
 141 0034 07EE102A 		vmov	s14, r2	@ int
 142              	.LVL9:
  81:dsp/fx/fx_engine.h ****     }
 143              		.loc 3 81 16 view .LVU26
 144              	.LBE685:
 145              	.LBE689:
 146              	.LBB690:
 147              	.LBB680:
 148 0038 00EE103A 		vmov	s0, r3	@ int
 149              	.LVL10:
  81:dsp/fx/fx_engine.h ****     }
 150              		.loc 3 81 16 view .LVU27
 151              	.LBE680:
 152              	.LBE690:
 153              	.LBB691:
 154              	.LBB686:
 155 003c B8EEC77A 		vcvt.f32.s32	s14, s14
 156              	.LVL11:
  81:dsp/fx/fx_engine.h ****     }
 157              		.loc 3 81 16 view .LVU28
 158              	.LBE686:
 159              	.LBE691:
 160              	.LBB692:
 161              	.LBI677:
  79:dsp/fx/fx_engine.h ****     {
 162              		.loc 3 79 25 is_stmt 1 view .LVU29
 163              	.LBB681:
  81:dsp/fx/fx_engine.h ****     }
 164              		.loc 3 81 9 view .LVU30
  81:dsp/fx/fx_engine.h ****     }
 165              		.loc 3 81 16 is_stmt 0 view .LVU31
 166 0040 B8EEC00A 		vcvt.f32.s32	s0, s0
  81:dsp/fx/fx_engine.h ****     }
 167              		.loc 3 81 66 view .LVU32
 168 0044 20EE260A 		vmul.f32	s0, s0, s13
ARM GAS  C:\Users\daniel\AppData\Local\Temp\ccFYnhh8.s 			page 14


 169              	.LBE681:
 170              	.LBE692:
 265:dsp/fx/fx_engine.h ****             float x        = a + (b - a) * offset_fractional;
 171              		.loc 3 265 37 view .LVU33
 172 0048 A7EE660A 		vfms.f32	s0, s14, s13
 173              		.loc 3 265 42 view .LVU34
 174 004c 27EE800A 		vmul.f32	s0, s15, s0
 266:dsp/fx/fx_engine.h ****             previous_read_ = x;
 267:dsp/fx/fx_engine.h ****             accumulator_ += x * scale;
 175              		.loc 3 267 26 view .LVU35
 176 0050 D0ED007A 		vldr.32	s15, [r0]
 177              	.LVL12:
 265:dsp/fx/fx_engine.h ****             float x        = a + (b - a) * offset_fractional;
 178              		.loc 3 265 19 view .LVU36
 179 0054 A7EE260A 		vfma.f32	s0, s14, s13
 180              	.LVL13:
 181              		.loc 3 267 26 view .LVU37
 182 0058 E0EE207A 		vfma.f32	s15, s0, s1
 266:dsp/fx/fx_engine.h ****             previous_read_ = x;
 183              		.loc 3 266 28 view .LVU38
 184 005c 80ED010A 		vstr.32	s0, [r0, #4]
 185              		.loc 3 267 26 view .LVU39
 186 0060 C0ED007A 		vstr.32	s15, [r0]
 268:dsp/fx/fx_engine.h ****         }
 187              		.loc 3 268 9 view .LVU40
 188 0064 7047     		bx	lr
 189              	.L7:
 190 0066 00BF     		.align	2
 191              	.L6:
 192 0068 00000038 		.word	939524096
 193              		.cfi_endproc
 194              	.LFE5914:
 196              		.section	.text._ZN8FxEngineILj4096EL6Format1EE7Context11InterpolateINS1_9DelayLineINS1_7ReserveILl
 197              		.align	1
 198              		.syntax unified
 199              		.thumb
 200              		.thumb_func
 201              		.fpu fpv5-d16
 203              	_ZN8FxEngineILj4096EL6Format1EE7Context11InterpolateINS1_9DelayLineINS1_7ReserveILl2047ENS5_ILl2047
 204              	.LVL14:
 205              	.LFB5912:
 257:dsp/fx/fx_engine.h ****         {
 206              		.loc 3 257 21 is_stmt 1 view -0
 207              		.cfi_startproc
 208              		@ args = 0, pretend = 0, frame = 0
 209              		@ frame_needed = 0, uses_anonymous_args = 0
 210              		@ link register save eliminated.
 260:dsp/fx/fx_engine.h ****             float a = DataType<format>::Decompress(
 211              		.loc 3 260 13 is_stmt 0 view .LVU42
 212 0000 BDEEC07A 		vcvt.s32.f32	s14, s0
 213              	.LVL15:
 214              	.LBB693:
 215              	.LBB694:
  81:dsp/fx/fx_engine.h ****     }
 216              		.loc 3 81 66 view .LVU43
 217 0004 DFED166A 		vldr.32	s13, .L9
 218              	.LBE694:
ARM GAS  C:\Users\daniel\AppData\Local\Temp\ccFYnhh8.s 			page 15


 219              	.LBE693:
 262:dsp/fx/fx_engine.h ****             float b = DataType<format>::Decompress(
 220              		.loc 3 262 37 view .LVU44
 221 0008 D0E90423 		ldrd	r2, r3, [r0, #16]
 222 000c 17EE101A 		vmov	r1, s14	@ int
 260:dsp/fx/fx_engine.h ****             float a = DataType<format>::Decompress(
 223              		.loc 3 260 13 view .LVU45
 224 0010 F8EEC77A 		vcvt.f32.s32	s15, s14
 262:dsp/fx/fx_engine.h ****             float b = DataType<format>::Decompress(
 225              		.loc 3 262 37 view .LVU46
 226 0014 1944     		add	r1, r1, r3
 260:dsp/fx/fx_engine.h ****             float a = DataType<format>::Decompress(
 227              		.loc 3 260 13 view .LVU47
 228 0016 70EE677A 		vsub.f32	s15, s0, s15
 229              	.LVL16:
 262:dsp/fx/fx_engine.h ****             float b = DataType<format>::Decompress(
 230              		.loc 3 262 37 view .LVU48
 231 001a 0B46     		mov	r3, r1
 232              	.LVL17:
 233              	.LBB697:
 234              	.LBI697:
  79:dsp/fx/fx_engine.h ****     {
 235              		.loc 3 79 25 is_stmt 1 view .LVU49
 236              	.LBB698:
  81:dsp/fx/fx_engine.h ****     }
 237              		.loc 3 81 9 view .LVU50
 238              	.LBE698:
 239              	.LBE697:
 262:dsp/fx/fx_engine.h ****             float b = DataType<format>::Decompress(
 240              		.loc 3 262 66 is_stmt 0 view .LVU51
 241 001c C1F30B01 		ubfx	r1, r1, #0, #12
 242              	.LVL18:
 264:dsp/fx/fx_engine.h ****             float x        = a + (b - a) * offset_fractional;
 243              		.loc 3 264 65 view .LVU52
 244 0020 0133     		adds	r3, r3, #1
 245              	.LVL19:
 246              	.LBB702:
 247              	.LBB699:
  81:dsp/fx/fx_engine.h ****     }
 248              		.loc 3 81 16 view .LVU53
 249 0022 32F91110 		ldrsh	r1, [r2, r1, lsl #1]
 250              	.LBE699:
 251              	.LBE702:
 264:dsp/fx/fx_engine.h ****             float x        = a + (b - a) * offset_fractional;
 252              		.loc 3 264 70 view .LVU54
 253 0026 C3F30B03 		ubfx	r3, r3, #0, #12
 254              	.LVL20:
 255              	.LBB703:
 256              	.LBB700:
  81:dsp/fx/fx_engine.h ****     }
 257              		.loc 3 81 16 view .LVU55
 258 002a 07EE101A 		vmov	s14, r1	@ int
 259              	.LVL21:
  81:dsp/fx/fx_engine.h ****     }
 260              		.loc 3 81 16 view .LVU56
 261              	.LBE700:
 262              	.LBE703:
ARM GAS  C:\Users\daniel\AppData\Local\Temp\ccFYnhh8.s 			page 16


 263              	.LBB704:
 264              	.LBB695:
 265 002e 32F91330 		ldrsh	r3, [r2, r3, lsl #1]
 266              	.LBE695:
 267              	.LBE704:
 268              	.LBB705:
 269              	.LBB701:
 270 0032 B8EEC77A 		vcvt.f32.s32	s14, s14
 271              	.LVL22:
  81:dsp/fx/fx_engine.h ****     }
 272              		.loc 3 81 16 view .LVU57
 273              	.LBE701:
 274              	.LBE705:
 275              	.LBB706:
 276              	.LBI693:
  79:dsp/fx/fx_engine.h ****     {
 277              		.loc 3 79 25 is_stmt 1 view .LVU58
 278              	.LBB696:
  81:dsp/fx/fx_engine.h ****     }
 279              		.loc 3 81 9 view .LVU59
  81:dsp/fx/fx_engine.h ****     }
 280              		.loc 3 81 16 is_stmt 0 view .LVU60
 281 0036 00EE103A 		vmov	s0, r3	@ int
 282              	.LVL23:
  81:dsp/fx/fx_engine.h ****     }
 283              		.loc 3 81 16 view .LVU61
 284 003a B8EEC00A 		vcvt.f32.s32	s0, s0
  81:dsp/fx/fx_engine.h ****     }
 285              		.loc 3 81 66 view .LVU62
 286 003e 20EE260A 		vmul.f32	s0, s0, s13
 287              	.LBE696:
 288              	.LBE706:
 265:dsp/fx/fx_engine.h ****             previous_read_ = x;
 289              		.loc 3 265 37 view .LVU63
 290 0042 A7EE660A 		vfms.f32	s0, s14, s13
 265:dsp/fx/fx_engine.h ****             previous_read_ = x;
 291              		.loc 3 265 42 view .LVU64
 292 0046 27EE800A 		vmul.f32	s0, s15, s0
 267:dsp/fx/fx_engine.h ****         }
 293              		.loc 3 267 26 view .LVU65
 294 004a D0ED007A 		vldr.32	s15, [r0]
 295              	.LVL24:
 265:dsp/fx/fx_engine.h ****             previous_read_ = x;
 296              		.loc 3 265 19 view .LVU66
 297 004e A7EE260A 		vfma.f32	s0, s14, s13
 298              	.LVL25:
 267:dsp/fx/fx_engine.h ****         }
 299              		.loc 3 267 26 view .LVU67
 300 0052 E0EE207A 		vfma.f32	s15, s0, s1
 266:dsp/fx/fx_engine.h ****             accumulator_ += x * scale;
 301              		.loc 3 266 28 view .LVU68
 302 0056 80ED010A 		vstr.32	s0, [r0, #4]
 267:dsp/fx/fx_engine.h ****         }
 303              		.loc 3 267 26 view .LVU69
 304 005a C0ED007A 		vstr.32	s15, [r0]
 305              		.loc 3 268 9 view .LVU70
 306 005e 7047     		bx	lr
ARM GAS  C:\Users\daniel\AppData\Local\Temp\ccFYnhh8.s 			page 17


 307              	.L10:
 308              		.align	2
 309              	.L9:
 310 0060 00000038 		.word	939524096
 311              		.cfi_endproc
 312              	.LFE5912:
 314              		.section	.text._ZN16CosineOscillator4NextEv,"axG",%progbits,_ZN16CosineOscillator4NextEv,comdat
 315              		.align	1
 316              		.weak	_ZN16CosineOscillator4NextEv
 317              		.syntax unified
 318              		.thumb
 319              		.thumb_func
 320              		.fpu fpv5-d16
 322              	_ZN16CosineOscillator4NextEv:
 323              	.LVL26:
 324              	.LFB4789:
 325              		.file 4 "./stmtemp.h"
   1:./stmtemp.h   **** #include "daisy.h"
   2:./stmtemp.h   **** #include "daisysp.h"
   3:./stmtemp.h   **** #include "resources.h"
   4:./stmtemp.h   **** 
   5:./stmtemp.h   **** using namespace daisy;
   6:./stmtemp.h   **** using namespace daisysp;
   7:./stmtemp.h   **** 
   8:./stmtemp.h   **** #define MAKE_INTEGRAL_FRACTIONAL(x)                   \
   9:./stmtemp.h   ****     int32_t x##_integral   = static_cast<int32_t>(x); \
  10:./stmtemp.h   ****     float   x##_fractional = x - static_cast<float>(x##_integral);
  11:./stmtemp.h   **** 
  12:./stmtemp.h   **** #define SLOPE(out, in, positive, negative)                \
  13:./stmtemp.h   ****     {                                                     \
  14:./stmtemp.h   ****         float error = (in)-out;                           \
  15:./stmtemp.h   ****         out += (error > 0 ? positive : negative) * error; \
  16:./stmtemp.h   ****     }
  17:./stmtemp.h   **** 
  18:./stmtemp.h   **** #define ONE_POLE(out, in, coefficient) out += (coefficient) * ((in)-out);
  19:./stmtemp.h   **** 
  20:./stmtemp.h   **** #define CONSTRAIN(var, min, max) \
  21:./stmtemp.h   ****     if(var < (min))              \
  22:./stmtemp.h   ****     {                            \
  23:./stmtemp.h   ****         var = (min);             \
  24:./stmtemp.h   ****     }                            \
  25:./stmtemp.h   ****     else if(var > (max))         \
  26:./stmtemp.h   ****     {                            \
  27:./stmtemp.h   ****         var = (max);             \
  28:./stmtemp.h   ****     }
  29:./stmtemp.h   **** 
  30:./stmtemp.h   **** #define JOIN(lhs, rhs) JOIN_1(lhs, rhs)
  31:./stmtemp.h   **** #define JOIN_1(lhs, rhs) JOIN_2(lhs, rhs)
  32:./stmtemp.h   **** #define JOIN_2(lhs, rhs) lhs##rhs
  33:./stmtemp.h   **** 
  34:./stmtemp.h   **** #define STATIC_ASSERT(expression, message)                                  \
  35:./stmtemp.h   ****     struct JOIN(__static_assertion_at_line_, __LINE__)                      \
  36:./stmtemp.h   ****     {                                                                       \
  37:./stmtemp.h   ****         impl::StaticAssertion<static_cast<bool>((expression))>              \
  38:./stmtemp.h   ****             JOIN(JOIN(JOIN(STATIC_ASSERTION_FAILED_AT_LINE_, __LINE__), _), \
  39:./stmtemp.h   ****                  message);                                                  \
  40:./stmtemp.h   ****     };
ARM GAS  C:\Users\daniel\AppData\Local\Temp\ccFYnhh8.s 			page 18


  41:./stmtemp.h   **** 
  42:./stmtemp.h   **** namespace impl
  43:./stmtemp.h   **** {
  44:./stmtemp.h   **** template <bool>
  45:./stmtemp.h   **** struct StaticAssertion;
  46:./stmtemp.h   **** 
  47:./stmtemp.h   **** template <>
  48:./stmtemp.h   **** struct StaticAssertion<true>
  49:./stmtemp.h   **** {
  50:./stmtemp.h   **** }; // StaticAssertion<true>
  51:./stmtemp.h   **** 
  52:./stmtemp.h   **** template <int i>
  53:./stmtemp.h   **** struct StaticAssertionTest
  54:./stmtemp.h   **** {
  55:./stmtemp.h   **** }; // StaticAssertionTest<int>
  56:./stmtemp.h   **** 
  57:./stmtemp.h   **** } // namespace impl
  58:./stmtemp.h   **** 
  59:./stmtemp.h   **** template <uint32_t a, uint32_t b, uint32_t c, uint32_t d>
  60:./stmtemp.h   **** struct FourCC
  61:./stmtemp.h   **** {
  62:./stmtemp.h   ****     static const uint32_t value = (((((d << 8) | c) << 8) | b) << 8) | a;
  63:./stmtemp.h   **** };
  64:./stmtemp.h   **** 
  65:./stmtemp.h   **** class CosineOscillator
  66:./stmtemp.h   **** {
  67:./stmtemp.h   ****   public:
  68:./stmtemp.h   ****     CosineOscillator() {}
  69:./stmtemp.h   ****     ~CosineOscillator() {}
  70:./stmtemp.h   **** 
  71:./stmtemp.h   ****     void Init(float freq)
  72:./stmtemp.h   ****     {
  73:./stmtemp.h   ****         float sample_rate = 48000; //hardcoded for now
  74:./stmtemp.h   ****         phs_inc_          = freq / sample_rate;
  75:./stmtemp.h   ****     }
  76:./stmtemp.h   **** 
  77:./stmtemp.h   ****     float Next()
 326              		.loc 4 77 11 is_stmt 1 view -0
 327              		.cfi_startproc
 328              		@ args = 0, pretend = 0, frame = 0
 329              		@ frame_needed = 0, uses_anonymous_args = 0
  78:./stmtemp.h   ****     {
  79:./stmtemp.h   ****         phs_ += phs_inc_;
 330              		.loc 4 79 9 view .LVU72
 331              		.loc 4 79 14 is_stmt 0 view .LVU73
 332 0000 D0ED027A 		vldr.32	s15, [r0, #8]
 333 0004 90ED037A 		vldr.32	s14, [r0, #12]
 334 0008 77EE877A 		vadd.f32	s15, s15, s14
  80:./stmtemp.h   **** 
  81:./stmtemp.h   ****         if(phs_ >= 1.f)
 335              		.loc 4 81 9 is_stmt 1 view .LVU74
 336 000c B7EE007A 		vmov.f32	s14, #1.0e+0
  77:./stmtemp.h   ****     {
 337              		.loc 4 77 11 is_stmt 0 view .LVU75
 338 0010 10B5     		push	{r4, lr}
 339              		.cfi_def_cfa_offset 8
 340              		.cfi_offset 4, -8
ARM GAS  C:\Users\daniel\AppData\Local\Temp\ccFYnhh8.s 			page 19


 341              		.cfi_offset 14, -4
 342              		.loc 4 81 9 view .LVU76
 343 0012 F4EEC77A 		vcmpe.f32	s15, s14
  77:./stmtemp.h   ****     {
 344              		.loc 4 77 11 view .LVU77
 345 0016 0446     		mov	r4, r0
 346              		.loc 4 81 9 view .LVU78
 347 0018 F1EE10FA 		vmrs	APSR_nzcv, FPSCR
  82:./stmtemp.h   ****         {
  83:./stmtemp.h   ****             phs_ -= 1.f;
 348              		.loc 4 83 13 is_stmt 1 view .LVU79
 349              		.loc 4 83 18 is_stmt 0 view .LVU80
 350 001c A8BF     		it	ge
 351 001e 77EEC77A 		vsubge.f32	s15, s15, s14
 352 0022 C0ED027A 		vstr.32	s15, [r0, #8]
  84:./stmtemp.h   ****         }
  85:./stmtemp.h   **** 
  86:./stmtemp.h   ****         value_ = cos(phs_);
 353              		.loc 4 86 9 is_stmt 1 view .LVU81
 354              	.LVL27:
 355              	.LBB707:
 356              	.LBI707:
 357              		.file 5 "c:\\programdata\\chocolatey\\lib\\gcc-arm-embedded\\tools\\gcc-arm-none-eabi-10-2020-q4-m
   1:c:\programdata\chocolatey\lib\gcc-arm-embedded\tools\gcc-arm-none-eabi-10-2020-q4-major\arm-none-eabi\include\c++\10.2.1\cmath **** // -*- C++ -*- C forwarding header.
   2:c:\programdata\chocolatey\lib\gcc-arm-embedded\tools\gcc-arm-none-eabi-10-2020-q4-major\arm-none-eabi\include\c++\10.2.1\cmath **** 
   3:c:\programdata\chocolatey\lib\gcc-arm-embedded\tools\gcc-arm-none-eabi-10-2020-q4-major\arm-none-eabi\include\c++\10.2.1\cmath **** // Copyright (C) 1997-2020 Free Software Foundation, Inc.
   4:c:\programdata\chocolatey\lib\gcc-arm-embedded\tools\gcc-arm-none-eabi-10-2020-q4-major\arm-none-eabi\include\c++\10.2.1\cmath **** //
   5:c:\programdata\chocolatey\lib\gcc-arm-embedded\tools\gcc-arm-none-eabi-10-2020-q4-major\arm-none-eabi\include\c++\10.2.1\cmath **** // This file is part of the GNU ISO C++ Library.  This library is free
   6:c:\programdata\chocolatey\lib\gcc-arm-embedded\tools\gcc-arm-none-eabi-10-2020-q4-major\arm-none-eabi\include\c++\10.2.1\cmath **** // software; you can redistribute it and/or modify it under the
   7:c:\programdata\chocolatey\lib\gcc-arm-embedded\tools\gcc-arm-none-eabi-10-2020-q4-major\arm-none-eabi\include\c++\10.2.1\cmath **** // terms of the GNU General Public License as published by the
   8:c:\programdata\chocolatey\lib\gcc-arm-embedded\tools\gcc-arm-none-eabi-10-2020-q4-major\arm-none-eabi\include\c++\10.2.1\cmath **** // Free Software Foundation; either version 3, or (at your option)
   9:c:\programdata\chocolatey\lib\gcc-arm-embedded\tools\gcc-arm-none-eabi-10-2020-q4-major\arm-none-eabi\include\c++\10.2.1\cmath **** // any later version.
  10:c:\programdata\chocolatey\lib\gcc-arm-embedded\tools\gcc-arm-none-eabi-10-2020-q4-major\arm-none-eabi\include\c++\10.2.1\cmath **** 
  11:c:\programdata\chocolatey\lib\gcc-arm-embedded\tools\gcc-arm-none-eabi-10-2020-q4-major\arm-none-eabi\include\c++\10.2.1\cmath **** // This library is distributed in the hope that it will be useful,
  12:c:\programdata\chocolatey\lib\gcc-arm-embedded\tools\gcc-arm-none-eabi-10-2020-q4-major\arm-none-eabi\include\c++\10.2.1\cmath **** // but WITHOUT ANY WARRANTY; without even the implied warranty of
  13:c:\programdata\chocolatey\lib\gcc-arm-embedded\tools\gcc-arm-none-eabi-10-2020-q4-major\arm-none-eabi\include\c++\10.2.1\cmath **** // MERCHANTABILITY or FITNESS FOR A PARTICULAR PURPOSE.  See the
  14:c:\programdata\chocolatey\lib\gcc-arm-embedded\tools\gcc-arm-none-eabi-10-2020-q4-major\arm-none-eabi\include\c++\10.2.1\cmath **** // GNU General Public License for more details.
  15:c:\programdata\chocolatey\lib\gcc-arm-embedded\tools\gcc-arm-none-eabi-10-2020-q4-major\arm-none-eabi\include\c++\10.2.1\cmath **** 
  16:c:\programdata\chocolatey\lib\gcc-arm-embedded\tools\gcc-arm-none-eabi-10-2020-q4-major\arm-none-eabi\include\c++\10.2.1\cmath **** // Under Section 7 of GPL version 3, you are granted additional
  17:c:\programdata\chocolatey\lib\gcc-arm-embedded\tools\gcc-arm-none-eabi-10-2020-q4-major\arm-none-eabi\include\c++\10.2.1\cmath **** // permissions described in the GCC Runtime Library Exception, version
  18:c:\programdata\chocolatey\lib\gcc-arm-embedded\tools\gcc-arm-none-eabi-10-2020-q4-major\arm-none-eabi\include\c++\10.2.1\cmath **** // 3.1, as published by the Free Software Foundation.
  19:c:\programdata\chocolatey\lib\gcc-arm-embedded\tools\gcc-arm-none-eabi-10-2020-q4-major\arm-none-eabi\include\c++\10.2.1\cmath **** 
  20:c:\programdata\chocolatey\lib\gcc-arm-embedded\tools\gcc-arm-none-eabi-10-2020-q4-major\arm-none-eabi\include\c++\10.2.1\cmath **** // You should have received a copy of the GNU General Public License and
  21:c:\programdata\chocolatey\lib\gcc-arm-embedded\tools\gcc-arm-none-eabi-10-2020-q4-major\arm-none-eabi\include\c++\10.2.1\cmath **** // a copy of the GCC Runtime Library Exception along with this program;
  22:c:\programdata\chocolatey\lib\gcc-arm-embedded\tools\gcc-arm-none-eabi-10-2020-q4-major\arm-none-eabi\include\c++\10.2.1\cmath **** // see the files COPYING3 and COPYING.RUNTIME respectively.  If not, see
  23:c:\programdata\chocolatey\lib\gcc-arm-embedded\tools\gcc-arm-none-eabi-10-2020-q4-major\arm-none-eabi\include\c++\10.2.1\cmath **** // <http://www.gnu.org/licenses/>.
  24:c:\programdata\chocolatey\lib\gcc-arm-embedded\tools\gcc-arm-none-eabi-10-2020-q4-major\arm-none-eabi\include\c++\10.2.1\cmath **** 
  25:c:\programdata\chocolatey\lib\gcc-arm-embedded\tools\gcc-arm-none-eabi-10-2020-q4-major\arm-none-eabi\include\c++\10.2.1\cmath **** /** @file include/cmath
  26:c:\programdata\chocolatey\lib\gcc-arm-embedded\tools\gcc-arm-none-eabi-10-2020-q4-major\arm-none-eabi\include\c++\10.2.1\cmath ****  *  This is a Standard C++ Library file.  You should @c \#include this file
  27:c:\programdata\chocolatey\lib\gcc-arm-embedded\tools\gcc-arm-none-eabi-10-2020-q4-major\arm-none-eabi\include\c++\10.2.1\cmath ****  *  in your programs, rather than any of the @a *.h implementation files.
  28:c:\programdata\chocolatey\lib\gcc-arm-embedded\tools\gcc-arm-none-eabi-10-2020-q4-major\arm-none-eabi\include\c++\10.2.1\cmath ****  *
  29:c:\programdata\chocolatey\lib\gcc-arm-embedded\tools\gcc-arm-none-eabi-10-2020-q4-major\arm-none-eabi\include\c++\10.2.1\cmath ****  *  This is the C++ version of the Standard C Library header @c math.h,
  30:c:\programdata\chocolatey\lib\gcc-arm-embedded\tools\gcc-arm-none-eabi-10-2020-q4-major\arm-none-eabi\include\c++\10.2.1\cmath ****  *  and its contents are (mostly) the same as that header, but are all
  31:c:\programdata\chocolatey\lib\gcc-arm-embedded\tools\gcc-arm-none-eabi-10-2020-q4-major\arm-none-eabi\include\c++\10.2.1\cmath ****  *  contained in the namespace @c std (except for names which are defined
  32:c:\programdata\chocolatey\lib\gcc-arm-embedded\tools\gcc-arm-none-eabi-10-2020-q4-major\arm-none-eabi\include\c++\10.2.1\cmath ****  *  as macros in C).
  33:c:\programdata\chocolatey\lib\gcc-arm-embedded\tools\gcc-arm-none-eabi-10-2020-q4-major\arm-none-eabi\include\c++\10.2.1\cmath ****  */
  34:c:\programdata\chocolatey\lib\gcc-arm-embedded\tools\gcc-arm-none-eabi-10-2020-q4-major\arm-none-eabi\include\c++\10.2.1\cmath **** 
ARM GAS  C:\Users\daniel\AppData\Local\Temp\ccFYnhh8.s 			page 20


  35:c:\programdata\chocolatey\lib\gcc-arm-embedded\tools\gcc-arm-none-eabi-10-2020-q4-major\arm-none-eabi\include\c++\10.2.1\cmath **** //
  36:c:\programdata\chocolatey\lib\gcc-arm-embedded\tools\gcc-arm-none-eabi-10-2020-q4-major\arm-none-eabi\include\c++\10.2.1\cmath **** // ISO C++ 14882: 26.5  C library
  37:c:\programdata\chocolatey\lib\gcc-arm-embedded\tools\gcc-arm-none-eabi-10-2020-q4-major\arm-none-eabi\include\c++\10.2.1\cmath **** //
  38:c:\programdata\chocolatey\lib\gcc-arm-embedded\tools\gcc-arm-none-eabi-10-2020-q4-major\arm-none-eabi\include\c++\10.2.1\cmath **** 
  39:c:\programdata\chocolatey\lib\gcc-arm-embedded\tools\gcc-arm-none-eabi-10-2020-q4-major\arm-none-eabi\include\c++\10.2.1\cmath **** #pragma GCC system_header
  40:c:\programdata\chocolatey\lib\gcc-arm-embedded\tools\gcc-arm-none-eabi-10-2020-q4-major\arm-none-eabi\include\c++\10.2.1\cmath **** 
  41:c:\programdata\chocolatey\lib\gcc-arm-embedded\tools\gcc-arm-none-eabi-10-2020-q4-major\arm-none-eabi\include\c++\10.2.1\cmath **** #include <bits/c++config.h>
  42:c:\programdata\chocolatey\lib\gcc-arm-embedded\tools\gcc-arm-none-eabi-10-2020-q4-major\arm-none-eabi\include\c++\10.2.1\cmath **** #include <bits/cpp_type_traits.h>
  43:c:\programdata\chocolatey\lib\gcc-arm-embedded\tools\gcc-arm-none-eabi-10-2020-q4-major\arm-none-eabi\include\c++\10.2.1\cmath **** #include <ext/type_traits.h>
  44:c:\programdata\chocolatey\lib\gcc-arm-embedded\tools\gcc-arm-none-eabi-10-2020-q4-major\arm-none-eabi\include\c++\10.2.1\cmath **** #define _GLIBCXX_INCLUDE_NEXT_C_HEADERS
  45:c:\programdata\chocolatey\lib\gcc-arm-embedded\tools\gcc-arm-none-eabi-10-2020-q4-major\arm-none-eabi\include\c++\10.2.1\cmath **** #include_next <math.h>
  46:c:\programdata\chocolatey\lib\gcc-arm-embedded\tools\gcc-arm-none-eabi-10-2020-q4-major\arm-none-eabi\include\c++\10.2.1\cmath **** #undef _GLIBCXX_INCLUDE_NEXT_C_HEADERS
  47:c:\programdata\chocolatey\lib\gcc-arm-embedded\tools\gcc-arm-none-eabi-10-2020-q4-major\arm-none-eabi\include\c++\10.2.1\cmath **** #include <bits/std_abs.h>
  48:c:\programdata\chocolatey\lib\gcc-arm-embedded\tools\gcc-arm-none-eabi-10-2020-q4-major\arm-none-eabi\include\c++\10.2.1\cmath **** 
  49:c:\programdata\chocolatey\lib\gcc-arm-embedded\tools\gcc-arm-none-eabi-10-2020-q4-major\arm-none-eabi\include\c++\10.2.1\cmath **** #ifndef _GLIBCXX_CMATH
  50:c:\programdata\chocolatey\lib\gcc-arm-embedded\tools\gcc-arm-none-eabi-10-2020-q4-major\arm-none-eabi\include\c++\10.2.1\cmath **** #define _GLIBCXX_CMATH 1
  51:c:\programdata\chocolatey\lib\gcc-arm-embedded\tools\gcc-arm-none-eabi-10-2020-q4-major\arm-none-eabi\include\c++\10.2.1\cmath **** 
  52:c:\programdata\chocolatey\lib\gcc-arm-embedded\tools\gcc-arm-none-eabi-10-2020-q4-major\arm-none-eabi\include\c++\10.2.1\cmath **** // Get rid of those macros defined in <math.h> in lieu of real functions.
  53:c:\programdata\chocolatey\lib\gcc-arm-embedded\tools\gcc-arm-none-eabi-10-2020-q4-major\arm-none-eabi\include\c++\10.2.1\cmath **** #undef div
  54:c:\programdata\chocolatey\lib\gcc-arm-embedded\tools\gcc-arm-none-eabi-10-2020-q4-major\arm-none-eabi\include\c++\10.2.1\cmath **** #undef acos
  55:c:\programdata\chocolatey\lib\gcc-arm-embedded\tools\gcc-arm-none-eabi-10-2020-q4-major\arm-none-eabi\include\c++\10.2.1\cmath **** #undef asin
  56:c:\programdata\chocolatey\lib\gcc-arm-embedded\tools\gcc-arm-none-eabi-10-2020-q4-major\arm-none-eabi\include\c++\10.2.1\cmath **** #undef atan
  57:c:\programdata\chocolatey\lib\gcc-arm-embedded\tools\gcc-arm-none-eabi-10-2020-q4-major\arm-none-eabi\include\c++\10.2.1\cmath **** #undef atan2
  58:c:\programdata\chocolatey\lib\gcc-arm-embedded\tools\gcc-arm-none-eabi-10-2020-q4-major\arm-none-eabi\include\c++\10.2.1\cmath **** #undef ceil
  59:c:\programdata\chocolatey\lib\gcc-arm-embedded\tools\gcc-arm-none-eabi-10-2020-q4-major\arm-none-eabi\include\c++\10.2.1\cmath **** #undef cos
  60:c:\programdata\chocolatey\lib\gcc-arm-embedded\tools\gcc-arm-none-eabi-10-2020-q4-major\arm-none-eabi\include\c++\10.2.1\cmath **** #undef cosh
  61:c:\programdata\chocolatey\lib\gcc-arm-embedded\tools\gcc-arm-none-eabi-10-2020-q4-major\arm-none-eabi\include\c++\10.2.1\cmath **** #undef exp
  62:c:\programdata\chocolatey\lib\gcc-arm-embedded\tools\gcc-arm-none-eabi-10-2020-q4-major\arm-none-eabi\include\c++\10.2.1\cmath **** #undef fabs
  63:c:\programdata\chocolatey\lib\gcc-arm-embedded\tools\gcc-arm-none-eabi-10-2020-q4-major\arm-none-eabi\include\c++\10.2.1\cmath **** #undef floor
  64:c:\programdata\chocolatey\lib\gcc-arm-embedded\tools\gcc-arm-none-eabi-10-2020-q4-major\arm-none-eabi\include\c++\10.2.1\cmath **** #undef fmod
  65:c:\programdata\chocolatey\lib\gcc-arm-embedded\tools\gcc-arm-none-eabi-10-2020-q4-major\arm-none-eabi\include\c++\10.2.1\cmath **** #undef frexp
  66:c:\programdata\chocolatey\lib\gcc-arm-embedded\tools\gcc-arm-none-eabi-10-2020-q4-major\arm-none-eabi\include\c++\10.2.1\cmath **** #undef ldexp
  67:c:\programdata\chocolatey\lib\gcc-arm-embedded\tools\gcc-arm-none-eabi-10-2020-q4-major\arm-none-eabi\include\c++\10.2.1\cmath **** #undef log
  68:c:\programdata\chocolatey\lib\gcc-arm-embedded\tools\gcc-arm-none-eabi-10-2020-q4-major\arm-none-eabi\include\c++\10.2.1\cmath **** #undef log10
  69:c:\programdata\chocolatey\lib\gcc-arm-embedded\tools\gcc-arm-none-eabi-10-2020-q4-major\arm-none-eabi\include\c++\10.2.1\cmath **** #undef modf
  70:c:\programdata\chocolatey\lib\gcc-arm-embedded\tools\gcc-arm-none-eabi-10-2020-q4-major\arm-none-eabi\include\c++\10.2.1\cmath **** #undef pow
  71:c:\programdata\chocolatey\lib\gcc-arm-embedded\tools\gcc-arm-none-eabi-10-2020-q4-major\arm-none-eabi\include\c++\10.2.1\cmath **** #undef sin
  72:c:\programdata\chocolatey\lib\gcc-arm-embedded\tools\gcc-arm-none-eabi-10-2020-q4-major\arm-none-eabi\include\c++\10.2.1\cmath **** #undef sinh
  73:c:\programdata\chocolatey\lib\gcc-arm-embedded\tools\gcc-arm-none-eabi-10-2020-q4-major\arm-none-eabi\include\c++\10.2.1\cmath **** #undef sqrt
  74:c:\programdata\chocolatey\lib\gcc-arm-embedded\tools\gcc-arm-none-eabi-10-2020-q4-major\arm-none-eabi\include\c++\10.2.1\cmath **** #undef tan
  75:c:\programdata\chocolatey\lib\gcc-arm-embedded\tools\gcc-arm-none-eabi-10-2020-q4-major\arm-none-eabi\include\c++\10.2.1\cmath **** #undef tanh
  76:c:\programdata\chocolatey\lib\gcc-arm-embedded\tools\gcc-arm-none-eabi-10-2020-q4-major\arm-none-eabi\include\c++\10.2.1\cmath **** 
  77:c:\programdata\chocolatey\lib\gcc-arm-embedded\tools\gcc-arm-none-eabi-10-2020-q4-major\arm-none-eabi\include\c++\10.2.1\cmath **** extern "C++"
  78:c:\programdata\chocolatey\lib\gcc-arm-embedded\tools\gcc-arm-none-eabi-10-2020-q4-major\arm-none-eabi\include\c++\10.2.1\cmath **** {
  79:c:\programdata\chocolatey\lib\gcc-arm-embedded\tools\gcc-arm-none-eabi-10-2020-q4-major\arm-none-eabi\include\c++\10.2.1\cmath **** namespace std _GLIBCXX_VISIBILITY(default)
  80:c:\programdata\chocolatey\lib\gcc-arm-embedded\tools\gcc-arm-none-eabi-10-2020-q4-major\arm-none-eabi\include\c++\10.2.1\cmath **** {
  81:c:\programdata\chocolatey\lib\gcc-arm-embedded\tools\gcc-arm-none-eabi-10-2020-q4-major\arm-none-eabi\include\c++\10.2.1\cmath **** _GLIBCXX_BEGIN_NAMESPACE_VERSION
  82:c:\programdata\chocolatey\lib\gcc-arm-embedded\tools\gcc-arm-none-eabi-10-2020-q4-major\arm-none-eabi\include\c++\10.2.1\cmath **** 
  83:c:\programdata\chocolatey\lib\gcc-arm-embedded\tools\gcc-arm-none-eabi-10-2020-q4-major\arm-none-eabi\include\c++\10.2.1\cmath ****   using ::acos;
  84:c:\programdata\chocolatey\lib\gcc-arm-embedded\tools\gcc-arm-none-eabi-10-2020-q4-major\arm-none-eabi\include\c++\10.2.1\cmath **** 
  85:c:\programdata\chocolatey\lib\gcc-arm-embedded\tools\gcc-arm-none-eabi-10-2020-q4-major\arm-none-eabi\include\c++\10.2.1\cmath **** #ifndef __CORRECT_ISO_CPP_MATH_H_PROTO
  86:c:\programdata\chocolatey\lib\gcc-arm-embedded\tools\gcc-arm-none-eabi-10-2020-q4-major\arm-none-eabi\include\c++\10.2.1\cmath ****   inline _GLIBCXX_CONSTEXPR float
  87:c:\programdata\chocolatey\lib\gcc-arm-embedded\tools\gcc-arm-none-eabi-10-2020-q4-major\arm-none-eabi\include\c++\10.2.1\cmath ****   acos(float __x)
  88:c:\programdata\chocolatey\lib\gcc-arm-embedded\tools\gcc-arm-none-eabi-10-2020-q4-major\arm-none-eabi\include\c++\10.2.1\cmath ****   { return __builtin_acosf(__x); }
  89:c:\programdata\chocolatey\lib\gcc-arm-embedded\tools\gcc-arm-none-eabi-10-2020-q4-major\arm-none-eabi\include\c++\10.2.1\cmath **** 
  90:c:\programdata\chocolatey\lib\gcc-arm-embedded\tools\gcc-arm-none-eabi-10-2020-q4-major\arm-none-eabi\include\c++\10.2.1\cmath ****   inline _GLIBCXX_CONSTEXPR long double
  91:c:\programdata\chocolatey\lib\gcc-arm-embedded\tools\gcc-arm-none-eabi-10-2020-q4-major\arm-none-eabi\include\c++\10.2.1\cmath ****   acos(long double __x)
ARM GAS  C:\Users\daniel\AppData\Local\Temp\ccFYnhh8.s 			page 21


  92:c:\programdata\chocolatey\lib\gcc-arm-embedded\tools\gcc-arm-none-eabi-10-2020-q4-major\arm-none-eabi\include\c++\10.2.1\cmath ****   { return __builtin_acosl(__x); }
  93:c:\programdata\chocolatey\lib\gcc-arm-embedded\tools\gcc-arm-none-eabi-10-2020-q4-major\arm-none-eabi\include\c++\10.2.1\cmath **** #endif
  94:c:\programdata\chocolatey\lib\gcc-arm-embedded\tools\gcc-arm-none-eabi-10-2020-q4-major\arm-none-eabi\include\c++\10.2.1\cmath **** 
  95:c:\programdata\chocolatey\lib\gcc-arm-embedded\tools\gcc-arm-none-eabi-10-2020-q4-major\arm-none-eabi\include\c++\10.2.1\cmath ****   template<typename _Tp>
  96:c:\programdata\chocolatey\lib\gcc-arm-embedded\tools\gcc-arm-none-eabi-10-2020-q4-major\arm-none-eabi\include\c++\10.2.1\cmath ****     inline _GLIBCXX_CONSTEXPR
  97:c:\programdata\chocolatey\lib\gcc-arm-embedded\tools\gcc-arm-none-eabi-10-2020-q4-major\arm-none-eabi\include\c++\10.2.1\cmath ****     typename __gnu_cxx::__enable_if<__is_integer<_Tp>::__value, 
  98:c:\programdata\chocolatey\lib\gcc-arm-embedded\tools\gcc-arm-none-eabi-10-2020-q4-major\arm-none-eabi\include\c++\10.2.1\cmath ****                                     double>::__type
  99:c:\programdata\chocolatey\lib\gcc-arm-embedded\tools\gcc-arm-none-eabi-10-2020-q4-major\arm-none-eabi\include\c++\10.2.1\cmath ****     acos(_Tp __x)
 100:c:\programdata\chocolatey\lib\gcc-arm-embedded\tools\gcc-arm-none-eabi-10-2020-q4-major\arm-none-eabi\include\c++\10.2.1\cmath ****     { return __builtin_acos(__x); }
 101:c:\programdata\chocolatey\lib\gcc-arm-embedded\tools\gcc-arm-none-eabi-10-2020-q4-major\arm-none-eabi\include\c++\10.2.1\cmath **** 
 102:c:\programdata\chocolatey\lib\gcc-arm-embedded\tools\gcc-arm-none-eabi-10-2020-q4-major\arm-none-eabi\include\c++\10.2.1\cmath ****   using ::asin;
 103:c:\programdata\chocolatey\lib\gcc-arm-embedded\tools\gcc-arm-none-eabi-10-2020-q4-major\arm-none-eabi\include\c++\10.2.1\cmath **** 
 104:c:\programdata\chocolatey\lib\gcc-arm-embedded\tools\gcc-arm-none-eabi-10-2020-q4-major\arm-none-eabi\include\c++\10.2.1\cmath **** #ifndef __CORRECT_ISO_CPP_MATH_H_PROTO
 105:c:\programdata\chocolatey\lib\gcc-arm-embedded\tools\gcc-arm-none-eabi-10-2020-q4-major\arm-none-eabi\include\c++\10.2.1\cmath ****   inline _GLIBCXX_CONSTEXPR float
 106:c:\programdata\chocolatey\lib\gcc-arm-embedded\tools\gcc-arm-none-eabi-10-2020-q4-major\arm-none-eabi\include\c++\10.2.1\cmath ****   asin(float __x)
 107:c:\programdata\chocolatey\lib\gcc-arm-embedded\tools\gcc-arm-none-eabi-10-2020-q4-major\arm-none-eabi\include\c++\10.2.1\cmath ****   { return __builtin_asinf(__x); }
 108:c:\programdata\chocolatey\lib\gcc-arm-embedded\tools\gcc-arm-none-eabi-10-2020-q4-major\arm-none-eabi\include\c++\10.2.1\cmath **** 
 109:c:\programdata\chocolatey\lib\gcc-arm-embedded\tools\gcc-arm-none-eabi-10-2020-q4-major\arm-none-eabi\include\c++\10.2.1\cmath ****   inline _GLIBCXX_CONSTEXPR long double
 110:c:\programdata\chocolatey\lib\gcc-arm-embedded\tools\gcc-arm-none-eabi-10-2020-q4-major\arm-none-eabi\include\c++\10.2.1\cmath ****   asin(long double __x)
 111:c:\programdata\chocolatey\lib\gcc-arm-embedded\tools\gcc-arm-none-eabi-10-2020-q4-major\arm-none-eabi\include\c++\10.2.1\cmath ****   { return __builtin_asinl(__x); }
 112:c:\programdata\chocolatey\lib\gcc-arm-embedded\tools\gcc-arm-none-eabi-10-2020-q4-major\arm-none-eabi\include\c++\10.2.1\cmath **** #endif
 113:c:\programdata\chocolatey\lib\gcc-arm-embedded\tools\gcc-arm-none-eabi-10-2020-q4-major\arm-none-eabi\include\c++\10.2.1\cmath **** 
 114:c:\programdata\chocolatey\lib\gcc-arm-embedded\tools\gcc-arm-none-eabi-10-2020-q4-major\arm-none-eabi\include\c++\10.2.1\cmath ****   template<typename _Tp>
 115:c:\programdata\chocolatey\lib\gcc-arm-embedded\tools\gcc-arm-none-eabi-10-2020-q4-major\arm-none-eabi\include\c++\10.2.1\cmath ****     inline _GLIBCXX_CONSTEXPR
 116:c:\programdata\chocolatey\lib\gcc-arm-embedded\tools\gcc-arm-none-eabi-10-2020-q4-major\arm-none-eabi\include\c++\10.2.1\cmath ****     typename __gnu_cxx::__enable_if<__is_integer<_Tp>::__value,
 117:c:\programdata\chocolatey\lib\gcc-arm-embedded\tools\gcc-arm-none-eabi-10-2020-q4-major\arm-none-eabi\include\c++\10.2.1\cmath ****                                     double>::__type
 118:c:\programdata\chocolatey\lib\gcc-arm-embedded\tools\gcc-arm-none-eabi-10-2020-q4-major\arm-none-eabi\include\c++\10.2.1\cmath ****     asin(_Tp __x)
 119:c:\programdata\chocolatey\lib\gcc-arm-embedded\tools\gcc-arm-none-eabi-10-2020-q4-major\arm-none-eabi\include\c++\10.2.1\cmath ****     { return __builtin_asin(__x); }
 120:c:\programdata\chocolatey\lib\gcc-arm-embedded\tools\gcc-arm-none-eabi-10-2020-q4-major\arm-none-eabi\include\c++\10.2.1\cmath **** 
 121:c:\programdata\chocolatey\lib\gcc-arm-embedded\tools\gcc-arm-none-eabi-10-2020-q4-major\arm-none-eabi\include\c++\10.2.1\cmath ****   using ::atan;
 122:c:\programdata\chocolatey\lib\gcc-arm-embedded\tools\gcc-arm-none-eabi-10-2020-q4-major\arm-none-eabi\include\c++\10.2.1\cmath **** 
 123:c:\programdata\chocolatey\lib\gcc-arm-embedded\tools\gcc-arm-none-eabi-10-2020-q4-major\arm-none-eabi\include\c++\10.2.1\cmath **** #ifndef __CORRECT_ISO_CPP_MATH_H_PROTO
 124:c:\programdata\chocolatey\lib\gcc-arm-embedded\tools\gcc-arm-none-eabi-10-2020-q4-major\arm-none-eabi\include\c++\10.2.1\cmath ****   inline _GLIBCXX_CONSTEXPR float
 125:c:\programdata\chocolatey\lib\gcc-arm-embedded\tools\gcc-arm-none-eabi-10-2020-q4-major\arm-none-eabi\include\c++\10.2.1\cmath ****   atan(float __x)
 126:c:\programdata\chocolatey\lib\gcc-arm-embedded\tools\gcc-arm-none-eabi-10-2020-q4-major\arm-none-eabi\include\c++\10.2.1\cmath ****   { return __builtin_atanf(__x); }
 127:c:\programdata\chocolatey\lib\gcc-arm-embedded\tools\gcc-arm-none-eabi-10-2020-q4-major\arm-none-eabi\include\c++\10.2.1\cmath **** 
 128:c:\programdata\chocolatey\lib\gcc-arm-embedded\tools\gcc-arm-none-eabi-10-2020-q4-major\arm-none-eabi\include\c++\10.2.1\cmath ****   inline _GLIBCXX_CONSTEXPR long double
 129:c:\programdata\chocolatey\lib\gcc-arm-embedded\tools\gcc-arm-none-eabi-10-2020-q4-major\arm-none-eabi\include\c++\10.2.1\cmath ****   atan(long double __x)
 130:c:\programdata\chocolatey\lib\gcc-arm-embedded\tools\gcc-arm-none-eabi-10-2020-q4-major\arm-none-eabi\include\c++\10.2.1\cmath ****   { return __builtin_atanl(__x); }
 131:c:\programdata\chocolatey\lib\gcc-arm-embedded\tools\gcc-arm-none-eabi-10-2020-q4-major\arm-none-eabi\include\c++\10.2.1\cmath **** #endif
 132:c:\programdata\chocolatey\lib\gcc-arm-embedded\tools\gcc-arm-none-eabi-10-2020-q4-major\arm-none-eabi\include\c++\10.2.1\cmath **** 
 133:c:\programdata\chocolatey\lib\gcc-arm-embedded\tools\gcc-arm-none-eabi-10-2020-q4-major\arm-none-eabi\include\c++\10.2.1\cmath ****   template<typename _Tp>
 134:c:\programdata\chocolatey\lib\gcc-arm-embedded\tools\gcc-arm-none-eabi-10-2020-q4-major\arm-none-eabi\include\c++\10.2.1\cmath ****     inline _GLIBCXX_CONSTEXPR
 135:c:\programdata\chocolatey\lib\gcc-arm-embedded\tools\gcc-arm-none-eabi-10-2020-q4-major\arm-none-eabi\include\c++\10.2.1\cmath ****     typename __gnu_cxx::__enable_if<__is_integer<_Tp>::__value,
 136:c:\programdata\chocolatey\lib\gcc-arm-embedded\tools\gcc-arm-none-eabi-10-2020-q4-major\arm-none-eabi\include\c++\10.2.1\cmath ****                                     double>::__type
 137:c:\programdata\chocolatey\lib\gcc-arm-embedded\tools\gcc-arm-none-eabi-10-2020-q4-major\arm-none-eabi\include\c++\10.2.1\cmath ****     atan(_Tp __x)
 138:c:\programdata\chocolatey\lib\gcc-arm-embedded\tools\gcc-arm-none-eabi-10-2020-q4-major\arm-none-eabi\include\c++\10.2.1\cmath ****     { return __builtin_atan(__x); }
 139:c:\programdata\chocolatey\lib\gcc-arm-embedded\tools\gcc-arm-none-eabi-10-2020-q4-major\arm-none-eabi\include\c++\10.2.1\cmath **** 
 140:c:\programdata\chocolatey\lib\gcc-arm-embedded\tools\gcc-arm-none-eabi-10-2020-q4-major\arm-none-eabi\include\c++\10.2.1\cmath ****   using ::atan2;
 141:c:\programdata\chocolatey\lib\gcc-arm-embedded\tools\gcc-arm-none-eabi-10-2020-q4-major\arm-none-eabi\include\c++\10.2.1\cmath **** 
 142:c:\programdata\chocolatey\lib\gcc-arm-embedded\tools\gcc-arm-none-eabi-10-2020-q4-major\arm-none-eabi\include\c++\10.2.1\cmath **** #ifndef __CORRECT_ISO_CPP_MATH_H_PROTO
 143:c:\programdata\chocolatey\lib\gcc-arm-embedded\tools\gcc-arm-none-eabi-10-2020-q4-major\arm-none-eabi\include\c++\10.2.1\cmath ****   inline _GLIBCXX_CONSTEXPR float
 144:c:\programdata\chocolatey\lib\gcc-arm-embedded\tools\gcc-arm-none-eabi-10-2020-q4-major\arm-none-eabi\include\c++\10.2.1\cmath ****   atan2(float __y, float __x)
 145:c:\programdata\chocolatey\lib\gcc-arm-embedded\tools\gcc-arm-none-eabi-10-2020-q4-major\arm-none-eabi\include\c++\10.2.1\cmath ****   { return __builtin_atan2f(__y, __x); }
 146:c:\programdata\chocolatey\lib\gcc-arm-embedded\tools\gcc-arm-none-eabi-10-2020-q4-major\arm-none-eabi\include\c++\10.2.1\cmath **** 
 147:c:\programdata\chocolatey\lib\gcc-arm-embedded\tools\gcc-arm-none-eabi-10-2020-q4-major\arm-none-eabi\include\c++\10.2.1\cmath ****   inline _GLIBCXX_CONSTEXPR long double
 148:c:\programdata\chocolatey\lib\gcc-arm-embedded\tools\gcc-arm-none-eabi-10-2020-q4-major\arm-none-eabi\include\c++\10.2.1\cmath ****   atan2(long double __y, long double __x)
ARM GAS  C:\Users\daniel\AppData\Local\Temp\ccFYnhh8.s 			page 22


 149:c:\programdata\chocolatey\lib\gcc-arm-embedded\tools\gcc-arm-none-eabi-10-2020-q4-major\arm-none-eabi\include\c++\10.2.1\cmath ****   { return __builtin_atan2l(__y, __x); }
 150:c:\programdata\chocolatey\lib\gcc-arm-embedded\tools\gcc-arm-none-eabi-10-2020-q4-major\arm-none-eabi\include\c++\10.2.1\cmath **** #endif
 151:c:\programdata\chocolatey\lib\gcc-arm-embedded\tools\gcc-arm-none-eabi-10-2020-q4-major\arm-none-eabi\include\c++\10.2.1\cmath **** 
 152:c:\programdata\chocolatey\lib\gcc-arm-embedded\tools\gcc-arm-none-eabi-10-2020-q4-major\arm-none-eabi\include\c++\10.2.1\cmath ****   template<typename _Tp, typename _Up>
 153:c:\programdata\chocolatey\lib\gcc-arm-embedded\tools\gcc-arm-none-eabi-10-2020-q4-major\arm-none-eabi\include\c++\10.2.1\cmath ****     inline _GLIBCXX_CONSTEXPR
 154:c:\programdata\chocolatey\lib\gcc-arm-embedded\tools\gcc-arm-none-eabi-10-2020-q4-major\arm-none-eabi\include\c++\10.2.1\cmath ****     typename __gnu_cxx::__promote_2<_Tp, _Up>::__type
 155:c:\programdata\chocolatey\lib\gcc-arm-embedded\tools\gcc-arm-none-eabi-10-2020-q4-major\arm-none-eabi\include\c++\10.2.1\cmath ****     atan2(_Tp __y, _Up __x)
 156:c:\programdata\chocolatey\lib\gcc-arm-embedded\tools\gcc-arm-none-eabi-10-2020-q4-major\arm-none-eabi\include\c++\10.2.1\cmath ****     {
 157:c:\programdata\chocolatey\lib\gcc-arm-embedded\tools\gcc-arm-none-eabi-10-2020-q4-major\arm-none-eabi\include\c++\10.2.1\cmath ****       typedef typename __gnu_cxx::__promote_2<_Tp, _Up>::__type __type;
 158:c:\programdata\chocolatey\lib\gcc-arm-embedded\tools\gcc-arm-none-eabi-10-2020-q4-major\arm-none-eabi\include\c++\10.2.1\cmath ****       return atan2(__type(__y), __type(__x));
 159:c:\programdata\chocolatey\lib\gcc-arm-embedded\tools\gcc-arm-none-eabi-10-2020-q4-major\arm-none-eabi\include\c++\10.2.1\cmath ****     }
 160:c:\programdata\chocolatey\lib\gcc-arm-embedded\tools\gcc-arm-none-eabi-10-2020-q4-major\arm-none-eabi\include\c++\10.2.1\cmath **** 
 161:c:\programdata\chocolatey\lib\gcc-arm-embedded\tools\gcc-arm-none-eabi-10-2020-q4-major\arm-none-eabi\include\c++\10.2.1\cmath ****   using ::ceil;
 162:c:\programdata\chocolatey\lib\gcc-arm-embedded\tools\gcc-arm-none-eabi-10-2020-q4-major\arm-none-eabi\include\c++\10.2.1\cmath **** 
 163:c:\programdata\chocolatey\lib\gcc-arm-embedded\tools\gcc-arm-none-eabi-10-2020-q4-major\arm-none-eabi\include\c++\10.2.1\cmath **** #ifndef __CORRECT_ISO_CPP_MATH_H_PROTO
 164:c:\programdata\chocolatey\lib\gcc-arm-embedded\tools\gcc-arm-none-eabi-10-2020-q4-major\arm-none-eabi\include\c++\10.2.1\cmath ****   inline _GLIBCXX_CONSTEXPR float
 165:c:\programdata\chocolatey\lib\gcc-arm-embedded\tools\gcc-arm-none-eabi-10-2020-q4-major\arm-none-eabi\include\c++\10.2.1\cmath ****   ceil(float __x)
 166:c:\programdata\chocolatey\lib\gcc-arm-embedded\tools\gcc-arm-none-eabi-10-2020-q4-major\arm-none-eabi\include\c++\10.2.1\cmath ****   { return __builtin_ceilf(__x); }
 167:c:\programdata\chocolatey\lib\gcc-arm-embedded\tools\gcc-arm-none-eabi-10-2020-q4-major\arm-none-eabi\include\c++\10.2.1\cmath **** 
 168:c:\programdata\chocolatey\lib\gcc-arm-embedded\tools\gcc-arm-none-eabi-10-2020-q4-major\arm-none-eabi\include\c++\10.2.1\cmath ****   inline _GLIBCXX_CONSTEXPR long double
 169:c:\programdata\chocolatey\lib\gcc-arm-embedded\tools\gcc-arm-none-eabi-10-2020-q4-major\arm-none-eabi\include\c++\10.2.1\cmath ****   ceil(long double __x)
 170:c:\programdata\chocolatey\lib\gcc-arm-embedded\tools\gcc-arm-none-eabi-10-2020-q4-major\arm-none-eabi\include\c++\10.2.1\cmath ****   { return __builtin_ceill(__x); }
 171:c:\programdata\chocolatey\lib\gcc-arm-embedded\tools\gcc-arm-none-eabi-10-2020-q4-major\arm-none-eabi\include\c++\10.2.1\cmath **** #endif
 172:c:\programdata\chocolatey\lib\gcc-arm-embedded\tools\gcc-arm-none-eabi-10-2020-q4-major\arm-none-eabi\include\c++\10.2.1\cmath **** 
 173:c:\programdata\chocolatey\lib\gcc-arm-embedded\tools\gcc-arm-none-eabi-10-2020-q4-major\arm-none-eabi\include\c++\10.2.1\cmath ****   template<typename _Tp>
 174:c:\programdata\chocolatey\lib\gcc-arm-embedded\tools\gcc-arm-none-eabi-10-2020-q4-major\arm-none-eabi\include\c++\10.2.1\cmath ****     inline _GLIBCXX_CONSTEXPR
 175:c:\programdata\chocolatey\lib\gcc-arm-embedded\tools\gcc-arm-none-eabi-10-2020-q4-major\arm-none-eabi\include\c++\10.2.1\cmath ****     typename __gnu_cxx::__enable_if<__is_integer<_Tp>::__value, 
 176:c:\programdata\chocolatey\lib\gcc-arm-embedded\tools\gcc-arm-none-eabi-10-2020-q4-major\arm-none-eabi\include\c++\10.2.1\cmath ****                                     double>::__type
 177:c:\programdata\chocolatey\lib\gcc-arm-embedded\tools\gcc-arm-none-eabi-10-2020-q4-major\arm-none-eabi\include\c++\10.2.1\cmath ****     ceil(_Tp __x)
 178:c:\programdata\chocolatey\lib\gcc-arm-embedded\tools\gcc-arm-none-eabi-10-2020-q4-major\arm-none-eabi\include\c++\10.2.1\cmath ****     { return __builtin_ceil(__x); }
 179:c:\programdata\chocolatey\lib\gcc-arm-embedded\tools\gcc-arm-none-eabi-10-2020-q4-major\arm-none-eabi\include\c++\10.2.1\cmath **** 
 180:c:\programdata\chocolatey\lib\gcc-arm-embedded\tools\gcc-arm-none-eabi-10-2020-q4-major\arm-none-eabi\include\c++\10.2.1\cmath ****   using ::cos;
 181:c:\programdata\chocolatey\lib\gcc-arm-embedded\tools\gcc-arm-none-eabi-10-2020-q4-major\arm-none-eabi\include\c++\10.2.1\cmath **** 
 182:c:\programdata\chocolatey\lib\gcc-arm-embedded\tools\gcc-arm-none-eabi-10-2020-q4-major\arm-none-eabi\include\c++\10.2.1\cmath **** #ifndef __CORRECT_ISO_CPP_MATH_H_PROTO
 183:c:\programdata\chocolatey\lib\gcc-arm-embedded\tools\gcc-arm-none-eabi-10-2020-q4-major\arm-none-eabi\include\c++\10.2.1\cmath ****   inline _GLIBCXX_CONSTEXPR float
 184:c:\programdata\chocolatey\lib\gcc-arm-embedded\tools\gcc-arm-none-eabi-10-2020-q4-major\arm-none-eabi\include\c++\10.2.1\cmath ****   cos(float __x)
 358              		.loc 5 184 3 view .LVU82
 359              	.LBB708:
 185:c:\programdata\chocolatey\lib\gcc-arm-embedded\tools\gcc-arm-none-eabi-10-2020-q4-major\arm-none-eabi\include\c++\10.2.1\cmath ****   { return __builtin_cosf(__x); }
 360              		.loc 5 185 5 view .LVU83
 361              		.loc 5 185 26 is_stmt 0 view .LVU84
 362 0026 90ED020A 		vldr.32	s0, [r0, #8]
 363 002a FFF7FEFF 		bl	cosf
 364              	.LVL28:
 365              		.loc 5 185 26 view .LVU85
 366              	.LBE708:
 367              	.LBE707:
 368              		.loc 4 86 16 view .LVU86
 369 002e 84ED000A 		vstr.32	s0, [r4]
  87:./stmtemp.h   **** 
  88:./stmtemp.h   ****         return value_;
 370              		.loc 4 88 9 is_stmt 1 view .LVU87
  89:./stmtemp.h   ****     }
 371              		.loc 4 89 5 is_stmt 0 view .LVU88
 372 0032 10BD     		pop	{r4, pc}
 373              		.loc 4 89 5 view .LVU89
 374              		.cfi_endproc
ARM GAS  C:\Users\daniel\AppData\Local\Temp\ccFYnhh8.s 			page 23


 375              	.LFE4789:
 377              		.section	.text._Z6Clip16l,"axG",%progbits,_Z6Clip16l,comdat
 378              		.align	1
 379              		.weak	_Z6Clip16l
 380              		.syntax unified
 381              		.thumb
 382              		.thumb_func
 383              		.fpu fpv5-d16
 385              	_Z6Clip16l:
 386              	.LVL29:
 387              	.LFB4791:
  90:./stmtemp.h   **** 
  91:./stmtemp.h   ****     float value() { return value_; }
  92:./stmtemp.h   **** 
  93:./stmtemp.h   ****   private:
  94:./stmtemp.h   ****     float value_ = 0.f;
  95:./stmtemp.h   ****     float sample_rate_;
  96:./stmtemp.h   ****     float phs_ = 0.f;
  97:./stmtemp.h   ****     float phs_inc_;
  98:./stmtemp.h   **** };
  99:./stmtemp.h   **** 
 100:./stmtemp.h   **** inline int32_t Clip16(int32_t x)
 101:./stmtemp.h   **** {
 388              		.loc 4 101 1 is_stmt 1 view -0
 389              		.cfi_startproc
 390              		@ args = 0, pretend = 0, frame = 0
 391              		@ frame_needed = 0, uses_anonymous_args = 0
 392              		@ link register save eliminated.
 102:./stmtemp.h   ****     if(x < -32768)
 393              		.loc 4 102 5 view .LVU91
 103:./stmtemp.h   ****     {
 104:./stmtemp.h   ****         return -32768;
 105:./stmtemp.h   ****     }
 106:./stmtemp.h   ****     else if(x > 32767)
 107:./stmtemp.h   ****     {
 108:./stmtemp.h   ****         return 32767;
 109:./stmtemp.h   ****     }
 110:./stmtemp.h   ****     else
 111:./stmtemp.h   ****     {
 112:./stmtemp.h   ****         return x;
 113:./stmtemp.h   ****     }
 114:./stmtemp.h   **** }
 394              		.loc 4 114 1 is_stmt 0 view .LVU92
 395 0000 00F30F00 		ssat	r0, #16, r0
 396              	.LVL30:
 397              		.loc 4 114 1 view .LVU93
 398 0004 7047     		bx	lr
 399              		.cfi_endproc
 400              	.LFE4791:
 402              		.section	.text._Z11InterpolatePKfff,"axG",%progbits,_Z11InterpolatePKfff,comdat
 403              		.align	1
 404              		.weak	_Z11InterpolatePKfff
 405              		.syntax unified
 406              		.thumb
 407              		.thumb_func
 408              		.fpu fpv5-d16
 410              	_Z11InterpolatePKfff:
ARM GAS  C:\Users\daniel\AppData\Local\Temp\ccFYnhh8.s 			page 24


 411              	.LVL31:
 412              	.LFB4792:
 115:./stmtemp.h   **** 
 116:./stmtemp.h   **** inline float Interpolate(const float* table, float index, float size)
 117:./stmtemp.h   **** {
 413              		.loc 4 117 1 is_stmt 1 view -0
 414              		.cfi_startproc
 415              		@ args = 0, pretend = 0, frame = 0
 416              		@ frame_needed = 0, uses_anonymous_args = 0
 417              		@ link register save eliminated.
 118:./stmtemp.h   ****     index *= size;
 418              		.loc 4 118 5 view .LVU95
 419              		.loc 4 118 11 is_stmt 0 view .LVU96
 420 0000 60EE200A 		vmul.f32	s1, s0, s1
 421              	.LVL32:
 119:./stmtemp.h   ****     MAKE_INTEGRAL_FRACTIONAL(index)
 422              		.loc 4 119 5 is_stmt 1 view .LVU97
 423 0004 FDEEE07A 		vcvt.s32.f32	s15, s1
 424              	.LVL33:
 425              		.loc 4 119 5 view .LVU98
 120:./stmtemp.h   ****     float a = table[index_integral];
 426              		.loc 4 120 5 view .LVU99
 427              		.loc 4 120 11 is_stmt 0 view .LVU100
 428 0008 17EE903A 		vmov	r3, s15	@ int
 119:./stmtemp.h   ****     MAKE_INTEGRAL_FRACTIONAL(index)
 429              		.loc 4 119 5 view .LVU101
 430 000c F8EEE77A 		vcvt.f32.s32	s15, s15
 431              	.LVL34:
 432              		.loc 4 120 11 view .LVU102
 433 0010 00EB8300 		add	r0, r0, r3, lsl #2
 434              	.LVL35:
 119:./stmtemp.h   ****     MAKE_INTEGRAL_FRACTIONAL(index)
 435              		.loc 4 119 5 view .LVU103
 436 0014 70EEE70A 		vsub.f32	s1, s1, s15
 437              	.LVL36:
 438              		.loc 4 120 11 view .LVU104
 439 0018 90ED000A 		vldr.32	s0, [r0]
 440              	.LVL37:
 121:./stmtemp.h   ****     float b = table[index_integral + 1];
 441              		.loc 4 121 5 is_stmt 1 view .LVU105
 122:./stmtemp.h   ****     return a + (b - a) * index_fractional;
 442              		.loc 4 122 5 view .LVU106
 443              		.loc 4 122 19 is_stmt 0 view .LVU107
 444 001c 90ED017A 		vldr.32	s14, [r0, #4]
 445 0020 37EE407A 		vsub.f32	s14, s14, s0
 123:./stmtemp.h   **** }
 446              		.loc 4 123 1 view .LVU108
 447 0024 A7EE200A 		vfma.f32	s0, s14, s1
 448              	.LVL38:
 449              		.loc 4 123 1 view .LVU109
 450 0028 7047     		bx	lr
 451              		.cfi_endproc
 452              	.LFE4792:
 454              		.section	.text._Z16SemitonesToRatiof,"axG",%progbits,_Z16SemitonesToRatiof,comdat
 455              		.align	1
 456              		.weak	_Z16SemitonesToRatiof
 457              		.syntax unified
ARM GAS  C:\Users\daniel\AppData\Local\Temp\ccFYnhh8.s 			page 25


 458              		.thumb
 459              		.thumb_func
 460              		.fpu fpv5-d16
 462              	_Z16SemitonesToRatiof:
 463              	.LVL39:
 464              	.LFB4793:
 124:./stmtemp.h   **** 
 125:./stmtemp.h   **** inline float SemitonesToRatio(float semitones)
 126:./stmtemp.h   **** {
 465              		.loc 4 126 1 is_stmt 1 view -0
 466              		.cfi_startproc
 467              		@ args = 0, pretend = 0, frame = 0
 468              		@ frame_needed = 0, uses_anonymous_args = 0
 469              		@ link register save eliminated.
 127:./stmtemp.h   ****     float pitch = semitones + 128.0f;
 470              		.loc 4 127 5 view .LVU111
 471              		.loc 4 127 11 is_stmt 0 view .LVU112
 472 0000 DFED0E7A 		vldr.32	s15, .L18
 128:./stmtemp.h   ****     MAKE_INTEGRAL_FRACTIONAL(pitch)
 129:./stmtemp.h   **** 
 130:./stmtemp.h   ****     return lut_pitch_ratio_high[pitch_integral]
 131:./stmtemp.h   ****            * lut_pitch_ratio_low[static_cast<int32_t>(pitch_fractional
 132:./stmtemp.h   ****                                                       * 256.0f)];
 473              		.loc 4 132 64 view .LVU113
 474 0004 0E4A     		ldr	r2, .L18+4
 127:./stmtemp.h   ****     float pitch = semitones + 128.0f;
 475              		.loc 4 127 11 view .LVU114
 476 0006 30EE270A 		vadd.f32	s0, s0, s15
 477              	.LVL40:
 128:./stmtemp.h   ****     MAKE_INTEGRAL_FRACTIONAL(pitch)
 478              		.loc 4 128 5 is_stmt 1 view .LVU115
 479 000a FDEEC07A 		vcvt.s32.f32	s15, s0
 480              	.LVL41:
 128:./stmtemp.h   ****     MAKE_INTEGRAL_FRACTIONAL(pitch)
 481              		.loc 4 128 5 view .LVU116
 130:./stmtemp.h   ****            * lut_pitch_ratio_low[static_cast<int32_t>(pitch_fractional
 482              		.loc 4 130 5 view .LVU117
 128:./stmtemp.h   ****     MAKE_INTEGRAL_FRACTIONAL(pitch)
 483              		.loc 4 128 5 is_stmt 0 view .LVU118
 484 000e B8EEE77A 		vcvt.f32.s32	s14, s15
 130:./stmtemp.h   ****            * lut_pitch_ratio_low[static_cast<int32_t>(pitch_fractional
 485              		.loc 4 130 47 view .LVU119
 486 0012 17EE901A 		vmov	r1, s15	@ int
 128:./stmtemp.h   ****     MAKE_INTEGRAL_FRACTIONAL(pitch)
 487              		.loc 4 128 5 view .LVU120
 488 0016 30EE470A 		vsub.f32	s0, s0, s14
 489              	.LVL42:
 131:./stmtemp.h   ****                                                       * 256.0f)];
 490              		.loc 4 131 34 view .LVU121
 491 001a BEEECC0A 		vcvt.s32.f32	s0, s0, #8
 492              	.LVL43:
 493              		.loc 4 132 64 view .LVU122
 494 001e 10EE103A 		vmov	r3, s0	@ int
 495 0022 02EB8302 		add	r2, r2, r3, lsl #2
 130:./stmtemp.h   ****            * lut_pitch_ratio_low[static_cast<int32_t>(pitch_fractional
 496              		.loc 4 130 47 view .LVU123
 497 0026 074B     		ldr	r3, .L18+8
ARM GAS  C:\Users\daniel\AppData\Local\Temp\ccFYnhh8.s 			page 26


 498 0028 03EB8103 		add	r3, r3, r1, lsl #2
 499              		.loc 4 132 64 view .LVU124
 500 002c 92ED000A 		vldr.32	s0, [r2]
 501 0030 D3ED007A 		vldr.32	s15, [r3]
 502              	.LVL44:
 133:./stmtemp.h   **** }
 503              		.loc 4 133 1 view .LVU125
 504 0034 20EE270A 		vmul.f32	s0, s0, s15
 505 0038 7047     		bx	lr
 506              	.L19:
 507 003a 00BF     		.align	2
 508              	.L18:
 509 003c 00000043 		.word	1124073472
 510 0040 00000000 		.word	lut_pitch_ratio_low
 511 0044 00000000 		.word	lut_pitch_ratio_high
 512              		.cfi_endproc
 513              	.LFE4793:
 515              		.section	.text._ZN8DataTypeIL6Format0EE8CompressEf,"axG",%progbits,_ZN8DataTypeIL6Format0EE8Compre
 516              		.align	1
 517              		.weak	_ZN8DataTypeIL6Format0EE8CompressEf
 518              		.syntax unified
 519              		.thumb
 520              		.thumb_func
 521              		.fpu fpv5-d16
 523              	_ZN8DataTypeIL6Format0EE8CompressEf:
 524              	.LVL45:
 525              	.LFB4800:
  67:dsp/fx/fx_engine.h ****     {
 526              		.loc 3 67 21 is_stmt 1 view -0
 527              		.cfi_startproc
 528              		@ args = 0, pretend = 0, frame = 0
 529              		@ frame_needed = 0, uses_anonymous_args = 0
  69:dsp/fx/fx_engine.h ****             Clip16(static_cast<int32_t>(value * 4096.0f)));
 530              		.loc 3 69 9 view .LVU127
  70:dsp/fx/fx_engine.h ****     }
 531              		.loc 3 70 19 is_stmt 0 view .LVU128
 532 0000 F0EE407A 		vmov.f32	s15, s0
  67:dsp/fx/fx_engine.h ****     {
 533              		.loc 3 67 21 view .LVU129
 534 0004 08B5     		push	{r3, lr}
 535              		.cfi_def_cfa_offset 8
 536              		.cfi_offset 3, -8
 537              		.cfi_offset 14, -4
  70:dsp/fx/fx_engine.h ****     }
 538              		.loc 3 70 19 view .LVU130
 539 0006 FEEECA7A 		vcvt.s32.f32	s15, s15, #12
 540 000a 17EE900A 		vmov	r0, s15	@ int
 541 000e FFF7FEFF 		bl	_Z6Clip16l
 542              	.LVL46:
  71:dsp/fx/fx_engine.h **** };
 543              		.loc 3 71 5 view .LVU131
 544 0012 80B2     		uxth	r0, r0
 545 0014 08BD     		pop	{r3, pc}
 546              		.cfi_endproc
 547              	.LFE4800:
 549              		.section	.text._ZN8Diffuser7ProcessEP10FloatFramej,"axG",%progbits,_ZN8Diffuser7ProcessEP10FloatFr
 550              		.align	1
ARM GAS  C:\Users\daniel\AppData\Local\Temp\ccFYnhh8.s 			page 27


 551              		.weak	_ZN8Diffuser7ProcessEP10FloatFramej
 552              		.syntax unified
 553              		.thumb
 554              		.thumb_func
 555              		.fpu fpv5-d16
 557              	_ZN8Diffuser7ProcessEP10FloatFramej:
 558              	.LVL47:
 559              	.LFB4835:
 560              		.file 6 "dsp/fx/diffuser.h"
   1:dsp/fx/diffuser.h **** // Copyright 2014 Emilie Gillet.
   2:dsp/fx/diffuser.h **** //
   3:dsp/fx/diffuser.h **** // Author: Emilie Gillet (emilie.o.gillet@gmail.com)
   4:dsp/fx/diffuser.h **** //
   5:dsp/fx/diffuser.h **** // Permission is hereby granted, free of charge, to any person obtaining a copy
   6:dsp/fx/diffuser.h **** // of this software and associated documentation files (the "Software"), to deal
   7:dsp/fx/diffuser.h **** // in the Software without restriction, including without limitation the rights
   8:dsp/fx/diffuser.h **** // to use, copy, modify, merge, publish, distribute, sublicense, and/or sell
   9:dsp/fx/diffuser.h **** // copies of the Software, and to permit persons to whom the Software is
  10:dsp/fx/diffuser.h **** // furnished to do so, subject to the following conditions:
  11:dsp/fx/diffuser.h **** //
  12:dsp/fx/diffuser.h **** // The above copyright notice and this permission notice shall be included in
  13:dsp/fx/diffuser.h **** // all copies or substantial portions of the Software.
  14:dsp/fx/diffuser.h **** //
  15:dsp/fx/diffuser.h **** // THE SOFTWARE IS PROVIDED "AS IS", WITHOUT WARRANTY OF ANY KIND, EXPRESS OR
  16:dsp/fx/diffuser.h **** // IMPLIED, INCLUDING BUT NOT LIMITED TO THE WARRANTIES OF MERCHANTABILITY,
  17:dsp/fx/diffuser.h **** // FITNESS FOR A PARTICULAR PURPOSE AND NONINFRINGEMENT. IN NO EVENT SHALL THE
  18:dsp/fx/diffuser.h **** // AUTHORS OR COPYRIGHT HOLDERS BE LIABLE FOR ANY CLAIM, DAMAGES OR OTHER
  19:dsp/fx/diffuser.h **** // LIABILITY, WHETHER IN AN ACTION OF CONTRACT, TORT OR OTHERWISE, ARISING FROM,
  20:dsp/fx/diffuser.h **** // OUT OF OR IN CONNECTION WITH THE SOFTWARE OR THE USE OR OTHER DEALINGS IN
  21:dsp/fx/diffuser.h **** // THE SOFTWARE.
  22:dsp/fx/diffuser.h **** //
  23:dsp/fx/diffuser.h **** // See http://creativecommons.org/licenses/MIT/ for more information.
  24:dsp/fx/diffuser.h **** //
  25:dsp/fx/diffuser.h **** // -----------------------------------------------------------------------------
  26:dsp/fx/diffuser.h **** //
  27:dsp/fx/diffuser.h **** // AP diffusion network.
  28:dsp/fx/diffuser.h **** 
  29:dsp/fx/diffuser.h **** #ifndef CLOUDS_DSP_FX_DIFFUSER_H_
  30:dsp/fx/diffuser.h **** #define CLOUDS_DSP_FX_DIFFUSER_H_
  31:dsp/fx/diffuser.h **** 
  32:dsp/fx/diffuser.h **** #include "fx_engine.h"
  33:dsp/fx/diffuser.h **** 
  34:dsp/fx/diffuser.h **** using namespace daisysp;
  35:dsp/fx/diffuser.h **** 
  36:dsp/fx/diffuser.h **** class Diffuser
  37:dsp/fx/diffuser.h **** {
  38:dsp/fx/diffuser.h ****   public:
  39:dsp/fx/diffuser.h ****     Diffuser() {}
  40:dsp/fx/diffuser.h ****     ~Diffuser() {}
  41:dsp/fx/diffuser.h **** 
  42:dsp/fx/diffuser.h ****     void Init(float* buffer) { engine_.Init(buffer); }
  43:dsp/fx/diffuser.h **** 
  44:dsp/fx/diffuser.h ****     void Process(FloatFrame* in_out, size_t size)
 561              		.loc 6 44 10 is_stmt 1 view -0
 562              		.cfi_startproc
 563              		@ args = 0, pretend = 0, frame = 0
 564              		@ frame_needed = 0, uses_anonymous_args = 0
ARM GAS  C:\Users\daniel\AppData\Local\Temp\ccFYnhh8.s 			page 28


  45:dsp/fx/diffuser.h ****     {
  46:dsp/fx/diffuser.h ****         typedef E::Reserve<
 565              		.loc 6 46 9 view .LVU133
  47:dsp/fx/diffuser.h ****             126,
  48:dsp/fx/diffuser.h ****             E::Reserve<
  49:dsp/fx/diffuser.h ****                 180,
  50:dsp/fx/diffuser.h ****                 E::Reserve<
  51:dsp/fx/diffuser.h ****                     269,
  52:dsp/fx/diffuser.h ****                     E::Reserve<
  53:dsp/fx/diffuser.h ****                         444,
  54:dsp/fx/diffuser.h ****                         E::Reserve<
  55:dsp/fx/diffuser.h ****                             151,
  56:dsp/fx/diffuser.h ****                             E::Reserve<205,
  57:dsp/fx/diffuser.h ****                                        E::Reserve<245, E::Reserve<405>>>>>>>>
  58:dsp/fx/diffuser.h ****                                 Memory;
  59:dsp/fx/diffuser.h ****         E::DelayLine<Memory, 0> apl1;
 566              		.loc 6 59 9 view .LVU134
  60:dsp/fx/diffuser.h ****         E::DelayLine<Memory, 1> apl2;
 567              		.loc 6 60 9 view .LVU135
  61:dsp/fx/diffuser.h ****         E::DelayLine<Memory, 2> apl3;
 568              		.loc 6 61 9 view .LVU136
  62:dsp/fx/diffuser.h ****         E::DelayLine<Memory, 3> apl4;
 569              		.loc 6 62 9 view .LVU137
  63:dsp/fx/diffuser.h ****         E::DelayLine<Memory, 4> apr1;
 570              		.loc 6 63 9 view .LVU138
  64:dsp/fx/diffuser.h ****         E::DelayLine<Memory, 5> apr2;
 571              		.loc 6 64 9 view .LVU139
  65:dsp/fx/diffuser.h ****         E::DelayLine<Memory, 6> apr3;
 572              		.loc 6 65 9 view .LVU140
  66:dsp/fx/diffuser.h ****         E::DelayLine<Memory, 7> apr4;
 573              		.loc 6 66 9 view .LVU141
  67:dsp/fx/diffuser.h ****         E::Context              c;
 574              		.loc 6 67 9 view .LVU142
 575              	.LBB798:
 576              	.LBI798:
 165:dsp/fx/fx_engine.h ****         ~Context() {}
 577              		.loc 3 165 9 view .LVU143
 165:dsp/fx/fx_engine.h ****         ~Context() {}
 578              		.loc 3 165 9 is_stmt 0 view .LVU144
 579              	.LBE798:
  68:dsp/fx/diffuser.h ****         const float             kap = 0.625f;
 580              		.loc 6 68 9 is_stmt 1 view .LVU145
  44:dsp/fx/diffuser.h ****     {
 581              		.loc 6 44 10 is_stmt 0 view .LVU146
 582 0000 2DE9F041 		push	{r4, r5, r6, r7, r8, lr}
 583              		.cfi_def_cfa_offset 24
 584              		.cfi_offset 4, -24
 585              		.cfi_offset 5, -20
 586              		.cfi_offset 6, -16
 587              		.cfi_offset 7, -12
 588              		.cfi_offset 8, -8
 589              		.cfi_offset 14, -4
  44:dsp/fx/diffuser.h ****     {
 590              		.loc 6 44 10 view .LVU147
 591 0004 0646     		mov	r6, r0
 592 0006 9046     		mov	r8, r2
 593 0008 01F10807 		add	r7, r1, #8
ARM GAS  C:\Users\daniel\AppData\Local\Temp\ccFYnhh8.s 			page 29


 594              	.LVL48:
 595              	.L26:
  69:dsp/fx/diffuser.h ****         while(size--)
 596              		.loc 6 69 9 is_stmt 1 view .LVU148
 597              		.loc 6 69 19 view .LVU149
 598              		.loc 6 69 19 is_stmt 0 view .LVU150
 599 000c B8F1000F 		cmp	r8, #0
 600 0010 00F0D780 		beq	.L21
 601              	.LBB799:
  70:dsp/fx/diffuser.h ****         {
  71:dsp/fx/diffuser.h ****             engine_.Start(&c);
 602              		.loc 6 71 13 is_stmt 1 view .LVU151
 603              	.LVL49:
 604              	.LBB800:
 605              	.LBI800:
 269:dsp/fx/fx_engine.h **** 
 270:dsp/fx/fx_engine.h ****         template <typename D>
 271:dsp/fx/fx_engine.h ****         inline void Interpolate(D&       d,
 272:dsp/fx/fx_engine.h ****                                 float    offset,
 273:dsp/fx/fx_engine.h ****                                 LFOIndex index,
 274:dsp/fx/fx_engine.h ****                                 float    amplitude,
 275:dsp/fx/fx_engine.h ****                                 float    scale)
 276:dsp/fx/fx_engine.h ****         {
 277:dsp/fx/fx_engine.h ****             STATIC_ASSERT(D::base + D::length <= size, delay_memory_full);
 278:dsp/fx/fx_engine.h ****             offset += amplitude * lfo_value_[index];
 279:dsp/fx/fx_engine.h ****             MAKE_INTEGRAL_FRACTIONAL(offset);
 280:dsp/fx/fx_engine.h ****             float a = DataType<format>::Decompress(
 281:dsp/fx/fx_engine.h ****                 buffer_[(write_ptr_ + offset_integral + D::base) & MASK]);
 282:dsp/fx/fx_engine.h ****             float b = DataType<format>::Decompress(
 283:dsp/fx/fx_engine.h ****                 buffer_[(write_ptr_ + offset_integral + D::base + 1) & MASK]);
 284:dsp/fx/fx_engine.h ****             float x        = a + (b - a) * offset_fractional;
 285:dsp/fx/fx_engine.h ****             previous_read_ = x;
 286:dsp/fx/fx_engine.h ****             accumulator_ += x * scale;
 287:dsp/fx/fx_engine.h ****         }
 288:dsp/fx/fx_engine.h **** 
 289:dsp/fx/fx_engine.h ****       private:
 290:dsp/fx/fx_engine.h ****         float   accumulator_;
 291:dsp/fx/fx_engine.h ****         float   previous_read_;
 292:dsp/fx/fx_engine.h ****         float   lfo_value_[2];
 293:dsp/fx/fx_engine.h ****         T*      buffer_;
 294:dsp/fx/fx_engine.h ****         int32_t write_ptr_;
 295:dsp/fx/fx_engine.h ****     };
 296:dsp/fx/fx_engine.h **** 
 297:dsp/fx/fx_engine.h ****     inline void SetLFOFrequency(LFOIndex index, float frequency)
 298:dsp/fx/fx_engine.h ****     {
 299:dsp/fx/fx_engine.h ****         lfo_[index].Init(frequency * 32.0f);
 300:dsp/fx/fx_engine.h ****     }
 301:dsp/fx/fx_engine.h **** 
 302:dsp/fx/fx_engine.h ****     inline void Start(Context* c)
 606              		.loc 3 302 17 view .LVU152
 607              	.LBB801:
 303:dsp/fx/fx_engine.h ****     {
 304:dsp/fx/fx_engine.h ****         --write_ptr_;
 608              		.loc 3 304 11 is_stmt 0 view .LVU153
 609 0014 3368     		ldr	r3, [r6]
 305:dsp/fx/fx_engine.h ****         if(write_ptr_ < 0)
 610              		.loc 3 305 9 view .LVU154
ARM GAS  C:\Users\daniel\AppData\Local\Temp\ccFYnhh8.s 			page 30


 611 0016 5A1E     		subs	r2, r3, #1
 306:dsp/fx/fx_engine.h ****         {
 307:dsp/fx/fx_engine.h ****             write_ptr_ += size;
 612              		.loc 3 307 24 view .LVU155
 613 0018 4ABF     		itet	mi
 614 001a 03F2FF73 		addwmi	r3, r3, #2047
 304:dsp/fx/fx_engine.h ****         if(write_ptr_ < 0)
 615              		.loc 3 304 9 view .LVU156
 616 001e 3260     		strpl	r2, [r6]
 617              		.loc 3 307 24 view .LVU157
 618 0020 3360     		strmi	r3, [r6]
 308:dsp/fx/fx_engine.h ****         }
 309:dsp/fx/fx_engine.h ****         c->accumulator_   = 0.0f;
 310:dsp/fx/fx_engine.h ****         c->previous_read_ = 0.0f;
 311:dsp/fx/fx_engine.h ****         c->buffer_        = buffer_;
 312:dsp/fx/fx_engine.h ****         c->write_ptr_     = write_ptr_;
 619              		.loc 3 312 29 view .LVU158
 620 0022 D6E90045 		ldrd	r4, r5, [r6]
 313:dsp/fx/fx_engine.h ****         if((write_ptr_ & 31) == 0)
 621              		.loc 3 313 9 view .LVU159
 622 0026 E306     		lsls	r3, r4, #27
 623 0028 07D1     		bne	.L25
 624              	.LVL50:
 625              	.LBB802:
 626              	.LBI802:
 302:dsp/fx/fx_engine.h ****     {
 627              		.loc 3 302 17 is_stmt 1 view .LVU160
 628              	.LBB803:
 314:dsp/fx/fx_engine.h ****         {
 315:dsp/fx/fx_engine.h ****             c->lfo_value_[0] = lfo_[0].Next();
 629              		.loc 3 315 44 is_stmt 0 view .LVU161
 630 002a 06F10800 		add	r0, r6, #8
 631 002e FFF7FEFF 		bl	_ZN16CosineOscillator4NextEv
 632              	.LVL51:
 316:dsp/fx/fx_engine.h ****             c->lfo_value_[1] = lfo_[1].Next();
 633              		.loc 3 316 44 view .LVU162
 634 0032 06F11800 		add	r0, r6, #24
 635 0036 FFF7FEFF 		bl	_ZN16CosineOscillator4NextEv
 636              	.LVL52:
 637              	.L25:
 638              		.loc 3 316 44 view .LVU163
 639              	.LBE803:
 640              	.LBE802:
 641              	.LBE801:
 642              	.LBE800:
  72:dsp/fx/diffuser.h **** 
  73:dsp/fx/diffuser.h ****             float wet = 0.0f;
 643              		.loc 6 73 13 is_stmt 1 view .LVU164
  74:dsp/fx/diffuser.h ****             c.Read(in_out->l);
 644              		.loc 6 74 13 view .LVU165
 645              	.LBB804:
 646              	.LBI804:
 175:dsp/fx/fx_engine.h **** 
 647              		.loc 3 175 21 view .LVU166
 175:dsp/fx/fx_engine.h **** 
 648              		.loc 3 175 21 is_stmt 0 view .LVU167
 649              	.LBE804:
ARM GAS  C:\Users\daniel\AppData\Local\Temp\ccFYnhh8.s 			page 31


  75:dsp/fx/diffuser.h ****             c.Read(apl1 TAIL, kap);
 650              		.loc 6 75 13 is_stmt 1 view .LVU168
 651              	.LBB807:
 652              	.LBI807:
 221:dsp/fx/fx_engine.h ****         {
 653              		.loc 3 221 21 view .LVU169
 654              	.LBB808:
 227:dsp/fx/fx_engine.h ****             }
 655              		.loc 3 227 63 is_stmt 0 view .LVU170
 656 003a 04F17D03 		add	r3, r4, #125
 657              	.LBE808:
 658              	.LBE807:
 659              	.LBB812:
 660              	.LBB805:
 175:dsp/fx/fx_engine.h **** 
 661              		.loc 3 175 54 view .LVU171
 662 003e 17ED026A 		vldr.32	s12, [r7, #-8]
 663 0042 9FED615A 		vldr.32	s10, .L27
 664              	.LBE805:
 665              	.LBE812:
 666              	.LBB813:
 667              	.LBB809:
 235:dsp/fx/fx_engine.h ****         }
 668              		.loc 3 235 26 view .LVU172
 669 0046 B6EE047A 		vmov.f32	s14, #6.25e-1
 227:dsp/fx/fx_engine.h ****             }
 670              		.loc 3 227 68 view .LVU173
 671 004a C3F30A03 		ubfx	r3, r3, #0, #11
 672              	.LBE809:
 673              	.LBE813:
 674              	.LBB814:
 675              	.LBB815:
 676              	.LBB816:
 211:dsp/fx/fx_engine.h ****         }
 677              		.loc 3 211 26 view .LVU174
 678 004e FEEE047A 		vmov.f32	s15, #-6.25e-1
 679              	.LBE816:
 680              	.LBE815:
 681              	.LBE814:
 682              	.LBB830:
 683              	.LBB806:
 175:dsp/fx/fx_engine.h **** 
 684              		.loc 3 175 54 view .LVU175
 685 0052 36EE056A 		vadd.f32	s12, s12, s10
 686 0056 08F1FF38 		add	r8, r8, #-1
 687              	.LVL53:
 175:dsp/fx/fx_engine.h **** 
 688              		.loc 3 175 54 view .LVU176
 689              	.LBE806:
 690              	.LBE830:
 691              	.LBB831:
 692              	.LBB810:
 227:dsp/fx/fx_engine.h ****             }
 693              		.loc 3 227 19 view .LVU177
 694 005a 05EB8303 		add	r3, r5, r3, lsl #2
 695 005e 0837     		adds	r7, r7, #8
 696              	.LVL54:
ARM GAS  C:\Users\daniel\AppData\Local\Temp\ccFYnhh8.s 			page 32


 227:dsp/fx/fx_engine.h ****             }
 697              		.loc 3 227 19 view .LVU178
 698 0060 D3ED006A 		vldr.32	s13, [r3]
 699              	.LVL55:
 227:dsp/fx/fx_engine.h ****             }
 700              		.loc 3 227 19 view .LVU179
 701              	.LBE810:
 702              	.LBE831:
 703              	.LBE799:
  98:dsp/fx/fx_engine.h ****         ;
 704              		.loc 3 98 9 is_stmt 1 view .LVU180
  99:dsp/fx/fx_engine.h ****     }
 705              		.loc 3 99 9 view .LVU181
 706              	.LBB1014:
 707              	.LBB832:
 708              	.LBB826:
 709              	.LBB822:
 710              	.LBB817:
 711              	.LBB818:
 196:dsp/fx/fx_engine.h ****             }
 712              		.loc 3 196 57 is_stmt 0 view .LVU182
 713 0064 C4F30A03 		ubfx	r3, r4, #0, #11
 714              	.LBE818:
 715              	.LBE817:
 716              	.LBE822:
 717              	.LBE826:
 718              	.LBE832:
 719              	.LBB833:
 720              	.LBB811:
 235:dsp/fx/fx_engine.h ****         }
 721              		.loc 3 235 26 view .LVU183
 722 0068 A6EE876A 		vfma.f32	s12, s13, s14
 723              	.LVL56:
 235:dsp/fx/fx_engine.h ****         }
 724              		.loc 3 235 26 view .LVU184
 725              	.LBE811:
 726              	.LBE833:
  76:dsp/fx/diffuser.h ****             c.WriteAllPass(apl1, -kap);
 727              		.loc 6 76 13 is_stmt 1 view .LVU185
 728              	.LBB834:
 729              	.LBI814:
 215:dsp/fx/fx_engine.h ****         {
 730              		.loc 3 215 21 view .LVU186
 731              	.LBB827:
 732              	.LBI815:
 208:dsp/fx/fx_engine.h ****         {
 733              		.loc 3 208 21 view .LVU187
 734              	.LBB823:
 735              	.LBB820:
 736              	.LBI817:
 186:dsp/fx/fx_engine.h ****         {
 737              		.loc 3 186 21 view .LVU188
 186:dsp/fx/fx_engine.h ****         {
 738              		.loc 3 186 21 is_stmt 0 view .LVU189
 739              	.LBE820:
 740              	.LBE823:
 741              	.LBE827:
ARM GAS  C:\Users\daniel\AppData\Local\Temp\ccFYnhh8.s 			page 33


 742              	.LBE834:
 743              	.LBE1014:
 102:dsp/fx/fx_engine.h **** };
 744              		.loc 3 102 45 is_stmt 1 view .LVU190
 745              	.LBB1015:
 746              	.LBB835:
 747              	.LBB828:
 748              	.LBB824:
 749              	.LBB821:
 750              	.LBB819:
 196:dsp/fx/fx_engine.h ****             }
 751              		.loc 3 196 65 is_stmt 0 view .LVU191
 752 006c 05EB8303 		add	r3, r5, r3, lsl #2
 753 0070 83ED006A 		vstr.32	s12, [r3]
 754              	.LVL57:
 196:dsp/fx/fx_engine.h ****             }
 755              		.loc 3 196 65 view .LVU192
 756              	.LBE819:
 757              	.LBE821:
 758              	.LBE824:
 759              	.LBE828:
 760              	.LBE835:
 761              	.LBB836:
 762              	.LBB837:
 227:dsp/fx/fx_engine.h ****             }
 763              		.loc 3 227 63 view .LVU193
 764 0074 04F59973 		add	r3, r4, #306
 765              	.LBE837:
 766              	.LBE836:
 767              	.LBB840:
 768              	.LBB829:
 769              	.LBB825:
 211:dsp/fx/fx_engine.h ****         }
 770              		.loc 3 211 26 view .LVU194
 771 0078 E6EE276A 		vfma.f32	s13, s12, s15
 772              	.LVL58:
 211:dsp/fx/fx_engine.h ****         }
 773              		.loc 3 211 26 view .LVU195
 774              	.LBE825:
 775              	.LBE829:
 776              	.LBE840:
  77:dsp/fx/diffuser.h ****             c.Read(apl2 TAIL, kap);
 777              		.loc 6 77 13 is_stmt 1 view .LVU196
 778              	.LBB841:
 779              	.LBI836:
 221:dsp/fx/fx_engine.h ****         {
 780              		.loc 3 221 21 view .LVU197
 781              	.LBB838:
 227:dsp/fx/fx_engine.h ****             }
 782              		.loc 3 227 68 is_stmt 0 view .LVU198
 783 007c C3F30A03 		ubfx	r3, r3, #0, #11
 227:dsp/fx/fx_engine.h ****             }
 784              		.loc 3 227 19 view .LVU199
 785 0080 05EB8303 		add	r3, r5, r3, lsl #2
 786 0084 93ED006A 		vldr.32	s12, [r3]
 787              	.LVL59:
 227:dsp/fx/fx_engine.h ****             }
ARM GAS  C:\Users\daniel\AppData\Local\Temp\ccFYnhh8.s 			page 34


 788              		.loc 3 227 19 view .LVU200
 789              	.LBE838:
 790              	.LBE841:
 791              	.LBE1015:
  98:dsp/fx/fx_engine.h ****         ;
 792              		.loc 3 98 9 is_stmt 1 view .LVU201
  99:dsp/fx/fx_engine.h ****     }
 793              		.loc 3 99 9 view .LVU202
 794              	.LBB1016:
 795              	.LBB842:
 796              	.LBB843:
 797              	.LBB844:
 798              	.LBB845:
 799              	.LBB846:
 196:dsp/fx/fx_engine.h ****             }
 800              		.loc 3 196 37 is_stmt 0 view .LVU203
 801 0088 04F17F03 		add	r3, r4, #127
 802              	.LBE846:
 803              	.LBE845:
 804              	.LBE844:
 805              	.LBE843:
 806              	.LBE842:
 807              	.LBB856:
 808              	.LBB839:
 235:dsp/fx/fx_engine.h ****         }
 809              		.loc 3 235 26 view .LVU204
 810 008c E6EE076A 		vfma.f32	s13, s12, s14
 811              	.LVL60:
 235:dsp/fx/fx_engine.h ****         }
 812              		.loc 3 235 26 view .LVU205
 813              	.LBE839:
 814              	.LBE856:
  78:dsp/fx/diffuser.h ****             c.WriteAllPass(apl2, -kap);
 815              		.loc 6 78 13 is_stmt 1 view .LVU206
 816              	.LBB857:
 817              	.LBI842:
 215:dsp/fx/fx_engine.h ****         {
 818              		.loc 3 215 21 view .LVU207
 819              	.LBB853:
 820              	.LBI843:
 208:dsp/fx/fx_engine.h ****         {
 821              		.loc 3 208 21 view .LVU208
 822              	.LBB850:
 823              	.LBB848:
 824              	.LBI845:
 186:dsp/fx/fx_engine.h ****         {
 825              		.loc 3 186 21 view .LVU209
 186:dsp/fx/fx_engine.h ****         {
 826              		.loc 3 186 21 is_stmt 0 view .LVU210
 827              	.LBE848:
 828              	.LBE850:
 829              	.LBE853:
 830              	.LBE857:
 831              	.LBE1016:
 102:dsp/fx/fx_engine.h **** };
 832              		.loc 3 102 45 is_stmt 1 view .LVU211
 833              	.LBB1017:
ARM GAS  C:\Users\daniel\AppData\Local\Temp\ccFYnhh8.s 			page 35


 834              	.LBB858:
 835              	.LBB854:
 836              	.LBB851:
 837              	.LBB849:
 838              	.LBB847:
 196:dsp/fx/fx_engine.h ****             }
 839              		.loc 3 196 57 is_stmt 0 view .LVU212
 840 0090 C3F30A03 		ubfx	r3, r3, #0, #11
 196:dsp/fx/fx_engine.h ****             }
 841              		.loc 3 196 65 view .LVU213
 842 0094 05EB8303 		add	r3, r5, r3, lsl #2
 843 0098 C3ED006A 		vstr.32	s13, [r3]
 844              	.LVL61:
 196:dsp/fx/fx_engine.h ****             }
 845              		.loc 3 196 65 view .LVU214
 846              	.LBE847:
 847              	.LBE849:
 848              	.LBE851:
 849              	.LBE854:
 850              	.LBE858:
 851              	.LBB859:
 852              	.LBB860:
 227:dsp/fx/fx_engine.h ****             }
 853              		.loc 3 227 63 view .LVU215
 854 009c 04F51073 		add	r3, r4, #576
 855              	.LBE860:
 856              	.LBE859:
 857              	.LBB863:
 858              	.LBB855:
 859              	.LBB852:
 211:dsp/fx/fx_engine.h ****         }
 860              		.loc 3 211 26 view .LVU216
 861 00a0 A6EEA76A 		vfma.f32	s12, s13, s15
 862              	.LVL62:
 211:dsp/fx/fx_engine.h ****         }
 863              		.loc 3 211 26 view .LVU217
 864              	.LBE852:
 865              	.LBE855:
 866              	.LBE863:
  79:dsp/fx/diffuser.h ****             c.Read(apl3 TAIL, kap);
 867              		.loc 6 79 13 is_stmt 1 view .LVU218
 868              	.LBB864:
 869              	.LBI859:
 221:dsp/fx/fx_engine.h ****         {
 870              		.loc 3 221 21 view .LVU219
 871              	.LBB861:
 227:dsp/fx/fx_engine.h ****             }
 872              		.loc 3 227 68 is_stmt 0 view .LVU220
 873 00a4 C3F30A03 		ubfx	r3, r3, #0, #11
 227:dsp/fx/fx_engine.h ****             }
 874              		.loc 3 227 19 view .LVU221
 875 00a8 05EB8303 		add	r3, r5, r3, lsl #2
 876 00ac D3ED006A 		vldr.32	s13, [r3]
 877              	.LVL63:
 227:dsp/fx/fx_engine.h ****             }
 878              		.loc 3 227 19 view .LVU222
 879              	.LBE861:
ARM GAS  C:\Users\daniel\AppData\Local\Temp\ccFYnhh8.s 			page 36


 880              	.LBE864:
 881              	.LBE1017:
  98:dsp/fx/fx_engine.h ****         ;
 882              		.loc 3 98 9 is_stmt 1 view .LVU223
  99:dsp/fx/fx_engine.h ****     }
 883              		.loc 3 99 9 view .LVU224
 884              	.LBB1018:
 885              	.LBB865:
 886              	.LBB866:
 887              	.LBB867:
 888              	.LBB868:
 889              	.LBB869:
 196:dsp/fx/fx_engine.h ****             }
 890              		.loc 3 196 37 is_stmt 0 view .LVU225
 891 00b0 04F59A73 		add	r3, r4, #308
 892              	.LBE869:
 893              	.LBE868:
 894              	.LBE867:
 895              	.LBE866:
 896              	.LBE865:
 897              	.LBB879:
 898              	.LBB862:
 235:dsp/fx/fx_engine.h ****         }
 899              		.loc 3 235 26 view .LVU226
 900 00b4 A6EE876A 		vfma.f32	s12, s13, s14
 901              	.LVL64:
 235:dsp/fx/fx_engine.h ****         }
 902              		.loc 3 235 26 view .LVU227
 903              	.LBE862:
 904              	.LBE879:
  80:dsp/fx/diffuser.h ****             c.WriteAllPass(apl3, -kap);
 905              		.loc 6 80 13 is_stmt 1 view .LVU228
 906              	.LBB880:
 907              	.LBI865:
 215:dsp/fx/fx_engine.h ****         {
 908              		.loc 3 215 21 view .LVU229
 909              	.LBB876:
 910              	.LBI866:
 208:dsp/fx/fx_engine.h ****         {
 911              		.loc 3 208 21 view .LVU230
 912              	.LBB873:
 913              	.LBB871:
 914              	.LBI868:
 186:dsp/fx/fx_engine.h ****         {
 915              		.loc 3 186 21 view .LVU231
 186:dsp/fx/fx_engine.h ****         {
 916              		.loc 3 186 21 is_stmt 0 view .LVU232
 917              	.LBE871:
 918              	.LBE873:
 919              	.LBE876:
 920              	.LBE880:
 921              	.LBE1018:
 102:dsp/fx/fx_engine.h **** };
 922              		.loc 3 102 45 is_stmt 1 view .LVU233
 923              	.LBB1019:
 924              	.LBB881:
 925              	.LBB877:
ARM GAS  C:\Users\daniel\AppData\Local\Temp\ccFYnhh8.s 			page 37


 926              	.LBB874:
 927              	.LBB872:
 928              	.LBB870:
 196:dsp/fx/fx_engine.h ****             }
 929              		.loc 3 196 57 is_stmt 0 view .LVU234
 930 00b8 C3F30A03 		ubfx	r3, r3, #0, #11
 196:dsp/fx/fx_engine.h ****             }
 931              		.loc 3 196 65 view .LVU235
 932 00bc 05EB8303 		add	r3, r5, r3, lsl #2
 933 00c0 83ED006A 		vstr.32	s12, [r3]
 934              	.LVL65:
 196:dsp/fx/fx_engine.h ****             }
 935              		.loc 3 196 65 view .LVU236
 936              	.LBE870:
 937              	.LBE872:
 938              	.LBE874:
 939              	.LBE877:
 940              	.LBE881:
 941              	.LBB882:
 942              	.LBB883:
 227:dsp/fx/fx_engine.h ****             }
 943              		.loc 3 227 63 view .LVU237
 944 00c4 04F2FD33 		addw	r3, r4, #1021
 945              	.LBE883:
 946              	.LBE882:
 947              	.LBB886:
 948              	.LBB878:
 949              	.LBB875:
 211:dsp/fx/fx_engine.h ****         }
 950              		.loc 3 211 26 view .LVU238
 951 00c8 E6EE276A 		vfma.f32	s13, s12, s15
 952              	.LVL66:
 211:dsp/fx/fx_engine.h ****         }
 953              		.loc 3 211 26 view .LVU239
 954              	.LBE875:
 955              	.LBE878:
 956              	.LBE886:
  81:dsp/fx/diffuser.h ****             c.Read(apl4 TAIL, kap);
 957              		.loc 6 81 13 is_stmt 1 view .LVU240
 958              	.LBB887:
 959              	.LBI882:
 221:dsp/fx/fx_engine.h ****         {
 960              		.loc 3 221 21 view .LVU241
 961              	.LBB884:
 227:dsp/fx/fx_engine.h ****             }
 962              		.loc 3 227 68 is_stmt 0 view .LVU242
 963 00cc C3F30A03 		ubfx	r3, r3, #0, #11
 227:dsp/fx/fx_engine.h ****             }
 964              		.loc 3 227 19 view .LVU243
 965 00d0 05EB8303 		add	r3, r5, r3, lsl #2
 966 00d4 D3ED005A 		vldr.32	s11, [r3]
 967              	.LVL67:
 227:dsp/fx/fx_engine.h ****             }
 968              		.loc 3 227 19 view .LVU244
 969              	.LBE884:
 970              	.LBE887:
 971              	.LBE1019:
ARM GAS  C:\Users\daniel\AppData\Local\Temp\ccFYnhh8.s 			page 38


  98:dsp/fx/fx_engine.h ****         ;
 972              		.loc 3 98 9 is_stmt 1 view .LVU245
  99:dsp/fx/fx_engine.h ****     }
 973              		.loc 3 99 9 view .LVU246
 974              	.LBB1020:
 975              	.LBB888:
 976              	.LBB889:
 977              	.LBB890:
 978              	.LBB891:
 979              	.LBB892:
 196:dsp/fx/fx_engine.h ****             }
 980              		.loc 3 196 37 is_stmt 0 view .LVU247
 981 00d8 04F24223 		addw	r3, r4, #578
 982              	.LBE892:
 983              	.LBE891:
 984              	.LBE890:
 985              	.LBE889:
 986              	.LBE888:
 987              	.LBB902:
 988              	.LBB885:
 235:dsp/fx/fx_engine.h ****         }
 989              		.loc 3 235 26 view .LVU248
 990 00dc E5EE876A 		vfma.f32	s13, s11, s14
 991              	.LVL68:
 235:dsp/fx/fx_engine.h ****         }
 992              		.loc 3 235 26 view .LVU249
 993              	.LBE885:
 994              	.LBE902:
  82:dsp/fx/diffuser.h ****             c.WriteAllPass(apl4, -kap);
 995              		.loc 6 82 13 is_stmt 1 view .LVU250
 996              	.LBB903:
 997              	.LBI888:
 215:dsp/fx/fx_engine.h ****         {
 998              		.loc 3 215 21 view .LVU251
 999              	.LBB900:
 1000              	.LBI889:
 208:dsp/fx/fx_engine.h ****         {
 1001              		.loc 3 208 21 view .LVU252
 1002              	.LBB898:
 1003              	.LBB895:
 1004              	.LBI891:
 186:dsp/fx/fx_engine.h ****         {
 1005              		.loc 3 186 21 view .LVU253
 186:dsp/fx/fx_engine.h ****         {
 1006              		.loc 3 186 21 is_stmt 0 view .LVU254
 1007              	.LBE895:
 1008              	.LBE898:
 1009              	.LBE900:
 1010              	.LBE903:
 1011              	.LBE1020:
 102:dsp/fx/fx_engine.h **** };
 1012              		.loc 3 102 45 is_stmt 1 view .LVU255
 1013              	.LBB1021:
 1014              	.LBB904:
 1015              	.LBB901:
 1016              	.LBB899:
 1017              	.LBB896:
ARM GAS  C:\Users\daniel\AppData\Local\Temp\ccFYnhh8.s 			page 39


 1018              	.LBB893:
 196:dsp/fx/fx_engine.h ****             }
 1019              		.loc 3 196 57 is_stmt 0 view .LVU256
 1020 00e0 C3F30A03 		ubfx	r3, r3, #0, #11
 196:dsp/fx/fx_engine.h ****             }
 1021              		.loc 3 196 65 view .LVU257
 1022 00e4 05EB8303 		add	r3, r5, r3, lsl #2
 1023              	.LBE893:
 1024              	.LBE896:
 211:dsp/fx/fx_engine.h ****         }
 1025              		.loc 3 211 26 view .LVU258
 1026 00e8 E6EEA75A 		vfma.f32	s11, s13, s15
 1027              	.LVL69:
 1028              	.LBB897:
 1029              	.LBB894:
 196:dsp/fx/fx_engine.h ****             }
 1030              		.loc 3 196 65 view .LVU259
 1031 00ec C3ED006A 		vstr.32	s13, [r3]
 1032              	.LVL70:
 196:dsp/fx/fx_engine.h ****             }
 1033              		.loc 3 196 65 view .LVU260
 1034              	.LBE894:
 1035              	.LBE897:
 1036              	.LBE899:
 1037              	.LBE901:
 1038              	.LBE904:
  83:dsp/fx/diffuser.h ****             c.Write(wet, 0.0f);
 1039              		.loc 6 83 13 is_stmt 1 view .LVU261
  84:dsp/fx/diffuser.h ****             in_out->l += amount_ * (wet - in_out->l);
 1040              		.loc 6 84 13 view .LVU262
 1041              		.loc 6 84 23 is_stmt 0 view .LVU263
 1042 00f0 57ED046A 		vldr.32	s13, [r7, #-16]
 1043              	.LVL71:
 1044              	.LBB905:
 1045              	.LBB906:
 227:dsp/fx/fx_engine.h ****             }
 1046              		.loc 3 227 63 view .LVU264
 1047 00f4 04F29543 		addw	r3, r4, #1173
 1048              	.LVL72:
 227:dsp/fx/fx_engine.h ****             }
 1049              		.loc 3 227 63 view .LVU265
 1050              	.LBE906:
 1051              	.LBE905:
 1052              		.loc 6 84 23 view .LVU266
 1053 00f8 D6ED0A4A 		vldr.32	s9, [r6, #40]
 1054              	.LBB910:
 1055              	.LBB907:
 227:dsp/fx/fx_engine.h ****             }
 1056              		.loc 3 227 68 view .LVU267
 1057 00fc C3F30A03 		ubfx	r3, r3, #0, #11
 227:dsp/fx/fx_engine.h ****             }
 1058              		.loc 3 227 19 view .LVU268
 1059 0100 05EB8303 		add	r3, r5, r3, lsl #2
 1060              	.LBE907:
 1061              	.LBE910:
 1062              		.loc 6 84 41 view .LVU269
 1063 0104 35EEE66A 		vsub.f32	s12, s11, s13
ARM GAS  C:\Users\daniel\AppData\Local\Temp\ccFYnhh8.s 			page 40


 1064              	.LVL73:
 1065              		.loc 6 84 23 view .LVU270
 1066 0108 E4EE866A 		vfma.f32	s13, s9, s12
 1067              	.LBB911:
 1068              	.LBB912:
 175:dsp/fx/fx_engine.h **** 
 1069              		.loc 3 175 54 view .LVU271
 1070 010c 17ED036A 		vldr.32	s12, [r7, #-12]
 1071 0110 A5EE856A 		vfma.f32	s12, s11, s10
 1072              	.LBE912:
 1073              	.LBE911:
 1074              		.loc 6 84 23 view .LVU272
 1075 0114 47ED046A 		vstr.32	s13, [r7, #-16]
 1076              	.LVL74:
  85:dsp/fx/diffuser.h **** 
  86:dsp/fx/diffuser.h ****             c.Read(in_out->r);
 1077              		.loc 6 86 13 is_stmt 1 view .LVU273
 1078              	.LBB913:
 1079              	.LBI911:
 175:dsp/fx/fx_engine.h **** 
 1080              		.loc 3 175 21 view .LVU274
 175:dsp/fx/fx_engine.h **** 
 1081              		.loc 3 175 21 is_stmt 0 view .LVU275
 1082              	.LBE913:
  87:dsp/fx/diffuser.h ****             c.Read(apr1 TAIL, kap);
 1083              		.loc 6 87 13 is_stmt 1 view .LVU276
 1084              	.LBB914:
 1085              	.LBI905:
 221:dsp/fx/fx_engine.h ****         {
 1086              		.loc 3 221 21 view .LVU277
 1087              	.LBB908:
 227:dsp/fx/fx_engine.h ****             }
 1088              		.loc 3 227 19 is_stmt 0 view .LVU278
 1089 0118 D3ED006A 		vldr.32	s13, [r3]
 1090              	.LVL75:
 227:dsp/fx/fx_engine.h ****             }
 1091              		.loc 3 227 19 view .LVU279
 1092              	.LBE908:
 1093              	.LBE914:
 1094              	.LBE1021:
  98:dsp/fx/fx_engine.h ****         ;
 1095              		.loc 3 98 9 is_stmt 1 view .LVU280
  99:dsp/fx/fx_engine.h ****     }
 1096              		.loc 3 99 9 view .LVU281
 1097              	.LBB1022:
 1098              	.LBB915:
 1099              	.LBB916:
 1100              	.LBB917:
 1101              	.LBB918:
 1102              	.LBB919:
 196:dsp/fx/fx_engine.h ****             }
 1103              		.loc 3 196 37 is_stmt 0 view .LVU282
 1104 011c 04F2FF33 		addw	r3, r4, #1023
 1105              	.LBE919:
 1106              	.LBE918:
 1107              	.LBE917:
 1108              	.LBE916:
ARM GAS  C:\Users\daniel\AppData\Local\Temp\ccFYnhh8.s 			page 41


 1109              	.LBE915:
 1110              	.LBB929:
 1111              	.LBB909:
 235:dsp/fx/fx_engine.h ****         }
 1112              		.loc 3 235 26 view .LVU283
 1113 0120 A6EE876A 		vfma.f32	s12, s13, s14
 1114              	.LVL76:
 235:dsp/fx/fx_engine.h ****         }
 1115              		.loc 3 235 26 view .LVU284
 1116              	.LBE909:
 1117              	.LBE929:
  88:dsp/fx/diffuser.h ****             c.WriteAllPass(apr1, -kap);
 1118              		.loc 6 88 13 is_stmt 1 view .LVU285
 1119              	.LBB930:
 1120              	.LBI915:
 215:dsp/fx/fx_engine.h ****         {
 1121              		.loc 3 215 21 view .LVU286
 1122              	.LBB926:
 1123              	.LBI916:
 208:dsp/fx/fx_engine.h ****         {
 1124              		.loc 3 208 21 view .LVU287
 1125              	.LBB923:
 1126              	.LBB921:
 1127              	.LBI918:
 186:dsp/fx/fx_engine.h ****         {
 1128              		.loc 3 186 21 view .LVU288
 186:dsp/fx/fx_engine.h ****         {
 1129              		.loc 3 186 21 is_stmt 0 view .LVU289
 1130              	.LBE921:
 1131              	.LBE923:
 1132              	.LBE926:
 1133              	.LBE930:
 1134              	.LBE1022:
 102:dsp/fx/fx_engine.h **** };
 1135              		.loc 3 102 45 is_stmt 1 view .LVU290
 1136              	.LBB1023:
 1137              	.LBB931:
 1138              	.LBB927:
 1139              	.LBB924:
 1140              	.LBB922:
 1141              	.LBB920:
 196:dsp/fx/fx_engine.h ****             }
 1142              		.loc 3 196 57 is_stmt 0 view .LVU291
 1143 0124 C3F30A03 		ubfx	r3, r3, #0, #11
 196:dsp/fx/fx_engine.h ****             }
 1144              		.loc 3 196 65 view .LVU292
 1145 0128 05EB8303 		add	r3, r5, r3, lsl #2
 1146 012c 83ED006A 		vstr.32	s12, [r3]
 1147              	.LVL77:
 196:dsp/fx/fx_engine.h ****             }
 1148              		.loc 3 196 65 view .LVU293
 1149              	.LBE920:
 1150              	.LBE922:
 1151              	.LBE924:
 1152              	.LBE927:
 1153              	.LBE931:
 1154              	.LBB932:
ARM GAS  C:\Users\daniel\AppData\Local\Temp\ccFYnhh8.s 			page 42


 1155              	.LBB933:
 227:dsp/fx/fx_engine.h ****             }
 1156              		.loc 3 227 63 view .LVU294
 1157 0130 04F26353 		addw	r3, r4, #1379
 1158              	.LBE933:
 1159              	.LBE932:
 1160              	.LBB936:
 1161              	.LBB928:
 1162              	.LBB925:
 211:dsp/fx/fx_engine.h ****         }
 1163              		.loc 3 211 26 view .LVU295
 1164 0134 E6EE276A 		vfma.f32	s13, s12, s15
 1165              	.LVL78:
 211:dsp/fx/fx_engine.h ****         }
 1166              		.loc 3 211 26 view .LVU296
 1167              	.LBE925:
 1168              	.LBE928:
 1169              	.LBE936:
  89:dsp/fx/diffuser.h ****             c.Read(apr2 TAIL, kap);
 1170              		.loc 6 89 13 is_stmt 1 view .LVU297
 1171              	.LBB937:
 1172              	.LBI932:
 221:dsp/fx/fx_engine.h ****         {
 1173              		.loc 3 221 21 view .LVU298
 1174              	.LBB934:
 227:dsp/fx/fx_engine.h ****             }
 1175              		.loc 3 227 68 is_stmt 0 view .LVU299
 1176 0138 C3F30A03 		ubfx	r3, r3, #0, #11
 227:dsp/fx/fx_engine.h ****             }
 1177              		.loc 3 227 19 view .LVU300
 1178 013c 05EB8303 		add	r3, r5, r3, lsl #2
 1179 0140 93ED006A 		vldr.32	s12, [r3]
 1180              	.LVL79:
 227:dsp/fx/fx_engine.h ****             }
 1181              		.loc 3 227 19 view .LVU301
 1182              	.LBE934:
 1183              	.LBE937:
 1184              	.LBE1023:
  98:dsp/fx/fx_engine.h ****         ;
 1185              		.loc 3 98 9 is_stmt 1 view .LVU302
  99:dsp/fx/fx_engine.h ****     }
 1186              		.loc 3 99 9 view .LVU303
 1187              	.LBB1024:
 1188              	.LBB938:
 1189              	.LBB939:
 1190              	.LBB940:
 1191              	.LBB941:
 1192              	.LBB942:
 196:dsp/fx/fx_engine.h ****             }
 1193              		.loc 3 196 37 is_stmt 0 view .LVU304
 1194 0144 04F29743 		addw	r3, r4, #1175
 1195              	.LBE942:
 1196              	.LBE941:
 1197              	.LBE940:
 1198              	.LBE939:
 1199              	.LBE938:
 1200              	.LBB952:
ARM GAS  C:\Users\daniel\AppData\Local\Temp\ccFYnhh8.s 			page 43


 1201              	.LBB935:
 235:dsp/fx/fx_engine.h ****         }
 1202              		.loc 3 235 26 view .LVU305
 1203 0148 E6EE076A 		vfma.f32	s13, s12, s14
 1204              	.LVL80:
 235:dsp/fx/fx_engine.h ****         }
 1205              		.loc 3 235 26 view .LVU306
 1206              	.LBE935:
 1207              	.LBE952:
  90:dsp/fx/diffuser.h ****             c.WriteAllPass(apr2, -kap);
 1208              		.loc 6 90 13 is_stmt 1 view .LVU307
 1209              	.LBB953:
 1210              	.LBI938:
 215:dsp/fx/fx_engine.h ****         {
 1211              		.loc 3 215 21 view .LVU308
 1212              	.LBB949:
 1213              	.LBI939:
 208:dsp/fx/fx_engine.h ****         {
 1214              		.loc 3 208 21 view .LVU309
 1215              	.LBB946:
 1216              	.LBB944:
 1217              	.LBI941:
 186:dsp/fx/fx_engine.h ****         {
 1218              		.loc 3 186 21 view .LVU310
 186:dsp/fx/fx_engine.h ****         {
 1219              		.loc 3 186 21 is_stmt 0 view .LVU311
 1220              	.LBE944:
 1221              	.LBE946:
 1222              	.LBE949:
 1223              	.LBE953:
 1224              	.LBE1024:
 102:dsp/fx/fx_engine.h **** };
 1225              		.loc 3 102 45 is_stmt 1 view .LVU312
 1226              	.LBB1025:
 1227              	.LBB954:
 1228              	.LBB950:
 1229              	.LBB947:
 1230              	.LBB945:
 1231              	.LBB943:
 196:dsp/fx/fx_engine.h ****             }
 1232              		.loc 3 196 57 is_stmt 0 view .LVU313
 1233 014c C3F30A03 		ubfx	r3, r3, #0, #11
 196:dsp/fx/fx_engine.h ****             }
 1234              		.loc 3 196 65 view .LVU314
 1235 0150 05EB8303 		add	r3, r5, r3, lsl #2
 1236 0154 C3ED006A 		vstr.32	s13, [r3]
 1237              	.LVL81:
 196:dsp/fx/fx_engine.h ****             }
 1238              		.loc 3 196 65 view .LVU315
 1239              	.LBE943:
 1240              	.LBE945:
 1241              	.LBE947:
 1242              	.LBE950:
 1243              	.LBE954:
 1244              	.LBB955:
 1245              	.LBB956:
 227:dsp/fx/fx_engine.h ****             }
ARM GAS  C:\Users\daniel\AppData\Local\Temp\ccFYnhh8.s 			page 44


 1246              		.loc 3 227 63 view .LVU316
 1247 0158 04F25963 		addw	r3, r4, #1625
 1248              	.LBE956:
 1249              	.LBE955:
 1250              	.LBB959:
 1251              	.LBB951:
 1252              	.LBB948:
 211:dsp/fx/fx_engine.h ****         }
 1253              		.loc 3 211 26 view .LVU317
 1254 015c A6EEA76A 		vfma.f32	s12, s13, s15
 1255              	.LVL82:
 211:dsp/fx/fx_engine.h ****         }
 1256              		.loc 3 211 26 view .LVU318
 1257              	.LBE948:
 1258              	.LBE951:
 1259              	.LBE959:
  91:dsp/fx/diffuser.h ****             c.Read(apr3 TAIL, kap);
 1260              		.loc 6 91 13 is_stmt 1 view .LVU319
 1261              	.LBB960:
 1262              	.LBI955:
 221:dsp/fx/fx_engine.h ****         {
 1263              		.loc 3 221 21 view .LVU320
 1264              	.LBB957:
 227:dsp/fx/fx_engine.h ****             }
 1265              		.loc 3 227 68 is_stmt 0 view .LVU321
 1266 0160 C3F30A03 		ubfx	r3, r3, #0, #11
 227:dsp/fx/fx_engine.h ****             }
 1267              		.loc 3 227 19 view .LVU322
 1268 0164 05EB8303 		add	r3, r5, r3, lsl #2
 1269 0168 D3ED006A 		vldr.32	s13, [r3]
 1270              	.LVL83:
 227:dsp/fx/fx_engine.h ****             }
 1271              		.loc 3 227 19 view .LVU323
 1272              	.LBE957:
 1273              	.LBE960:
 1274              	.LBE1025:
  98:dsp/fx/fx_engine.h ****         ;
 1275              		.loc 3 98 9 is_stmt 1 view .LVU324
  99:dsp/fx/fx_engine.h ****     }
 1276              		.loc 3 99 9 view .LVU325
 1277              	.LBB1026:
 1278              	.LBB961:
 1279              	.LBB962:
 1280              	.LBB963:
 1281              	.LBB964:
 1282              	.LBB965:
 196:dsp/fx/fx_engine.h ****             }
 1283              		.loc 3 196 37 is_stmt 0 view .LVU326
 1284 016c 04F26553 		addw	r3, r4, #1381
 1285              	.LBE965:
 1286              	.LBE964:
 1287              	.LBE963:
 1288              	.LBE962:
 1289              	.LBE961:
 1290              	.LBB975:
 1291              	.LBB958:
 235:dsp/fx/fx_engine.h ****         }
ARM GAS  C:\Users\daniel\AppData\Local\Temp\ccFYnhh8.s 			page 45


 1292              		.loc 3 235 26 view .LVU327
 1293 0170 A6EE876A 		vfma.f32	s12, s13, s14
 1294              	.LVL84:
 235:dsp/fx/fx_engine.h ****         }
 1295              		.loc 3 235 26 view .LVU328
 1296              	.LBE958:
 1297              	.LBE975:
  92:dsp/fx/diffuser.h ****             c.WriteAllPass(apr3, -kap);
 1298              		.loc 6 92 13 is_stmt 1 view .LVU329
 1299              	.LBB976:
 1300              	.LBI961:
 215:dsp/fx/fx_engine.h ****         {
 1301              		.loc 3 215 21 view .LVU330
 1302              	.LBB972:
 1303              	.LBI962:
 208:dsp/fx/fx_engine.h ****         {
 1304              		.loc 3 208 21 view .LVU331
 1305              	.LBB969:
 1306              	.LBB967:
 1307              	.LBI964:
 186:dsp/fx/fx_engine.h ****         {
 1308              		.loc 3 186 21 view .LVU332
 186:dsp/fx/fx_engine.h ****         {
 1309              		.loc 3 186 21 is_stmt 0 view .LVU333
 1310              	.LBE967:
 1311              	.LBE969:
 1312              	.LBE972:
 1313              	.LBE976:
 1314              	.LBE1026:
 102:dsp/fx/fx_engine.h **** };
 1315              		.loc 3 102 45 is_stmt 1 view .LVU334
 1316              	.LBB1027:
 1317              	.LBB977:
 1318              	.LBB973:
 1319              	.LBB970:
 1320              	.LBB968:
 1321              	.LBB966:
 196:dsp/fx/fx_engine.h ****             }
 1322              		.loc 3 196 57 is_stmt 0 view .LVU335
 1323 0174 C3F30A03 		ubfx	r3, r3, #0, #11
 196:dsp/fx/fx_engine.h ****             }
 1324              		.loc 3 196 65 view .LVU336
 1325 0178 05EB8303 		add	r3, r5, r3, lsl #2
 1326 017c 83ED006A 		vstr.32	s12, [r3]
 1327              	.LVL85:
 196:dsp/fx/fx_engine.h ****             }
 1328              		.loc 3 196 65 view .LVU337
 1329              	.LBE966:
 1330              	.LBE968:
 1331              	.LBE970:
 1332              	.LBE973:
 1333              	.LBE977:
 1334              	.LBB978:
 1335              	.LBB979:
 227:dsp/fx/fx_engine.h ****             }
 1336              		.loc 3 227 63 view .LVU338
 1337 0180 04F2EF73 		addw	r3, r4, #2031
ARM GAS  C:\Users\daniel\AppData\Local\Temp\ccFYnhh8.s 			page 46


 1338              	.LBE979:
 1339              	.LBE978:
 1340              	.LBB984:
 1341              	.LBB974:
 1342              	.LBB971:
 211:dsp/fx/fx_engine.h ****         }
 1343              		.loc 3 211 26 view .LVU339
 1344 0184 E6EE276A 		vfma.f32	s13, s12, s15
 1345              	.LVL86:
 211:dsp/fx/fx_engine.h ****         }
 1346              		.loc 3 211 26 view .LVU340
 1347              	.LBE971:
 1348              	.LBE974:
 1349              	.LBE984:
  93:dsp/fx/diffuser.h ****             c.Read(apr4 TAIL, kap);
 1350              		.loc 6 93 13 is_stmt 1 view .LVU341
 1351              	.LBB985:
 1352              	.LBI978:
 221:dsp/fx/fx_engine.h ****         {
 1353              		.loc 3 221 21 view .LVU342
 221:dsp/fx/fx_engine.h ****         {
 1354              		.loc 3 221 21 is_stmt 0 view .LVU343
 1355              	.LBE985:
 1356              	.LBB986:
 1357              	.LBB987:
 1358              	.LBB988:
 1359              	.LBB989:
 1360              	.LBB990:
 196:dsp/fx/fx_engine.h ****             }
 1361              		.loc 3 196 37 view .LVU344
 1362 0188 04F25B64 		addw	r4, r4, #1627
 1363              	.LBE990:
 1364              	.LBE989:
 1365              	.LBE988:
 1366              	.LBE987:
 1367              	.LBE986:
 1368              	.LBB1006:
 1369              	.LBB980:
 227:dsp/fx/fx_engine.h ****             }
 1370              		.loc 3 227 68 view .LVU345
 1371 018c C3F30A03 		ubfx	r3, r3, #0, #11
 1372              	.LBE980:
 1373              	.LBE1006:
 1374              	.LBB1007:
 1375              	.LBB1002:
 1376              	.LBB998:
 1377              	.LBB994:
 1378              	.LBB991:
 196:dsp/fx/fx_engine.h ****             }
 1379              		.loc 3 196 57 view .LVU346
 1380 0190 C4F30A04 		ubfx	r4, r4, #0, #11
 1381              	.LBE991:
 1382              	.LBE994:
 1383              	.LBE998:
 1384              	.LBE1002:
 1385              	.LBE1007:
 1386              	.LBB1008:
ARM GAS  C:\Users\daniel\AppData\Local\Temp\ccFYnhh8.s 			page 47


 1387              	.LBB981:
 227:dsp/fx/fx_engine.h ****             }
 1388              		.loc 3 227 19 view .LVU347
 1389 0194 05EB8303 		add	r3, r5, r3, lsl #2
 1390              	.LBE981:
 1391              	.LBE1008:
 1392              	.LBB1009:
 1393              	.LBB1003:
 1394              	.LBB999:
 1395              	.LBB995:
 1396              	.LBB992:
 196:dsp/fx/fx_engine.h ****             }
 1397              		.loc 3 196 65 view .LVU348
 1398 0198 05EB8404 		add	r4, r5, r4, lsl #2
 1399              	.LBE992:
 1400              	.LBE995:
 1401              	.LBE999:
 1402              	.LBE1003:
 1403              	.LBE1009:
 1404              	.LBB1010:
 1405              	.LBB982:
 227:dsp/fx/fx_engine.h ****             }
 1406              		.loc 3 227 19 view .LVU349
 1407 019c 93ED006A 		vldr.32	s12, [r3]
 1408              	.LVL87:
 227:dsp/fx/fx_engine.h ****             }
 1409              		.loc 3 227 19 view .LVU350
 1410              	.LBE982:
 1411              	.LBE1010:
 1412              	.LBE1027:
  98:dsp/fx/fx_engine.h ****         ;
 1413              		.loc 3 98 9 is_stmt 1 view .LVU351
  99:dsp/fx/fx_engine.h ****     }
 1414              		.loc 3 99 9 view .LVU352
 1415              	.LBB1028:
 1416              	.LBB1011:
 1417              	.LBB983:
 235:dsp/fx/fx_engine.h ****         }
 1418              		.loc 3 235 26 is_stmt 0 view .LVU353
 1419 01a0 E6EE076A 		vfma.f32	s13, s12, s14
 1420              	.LVL88:
 235:dsp/fx/fx_engine.h ****         }
 1421              		.loc 3 235 26 view .LVU354
 1422              	.LBE983:
 1423              	.LBE1011:
  94:dsp/fx/diffuser.h ****             c.WriteAllPass(apr4, -kap);
 1424              		.loc 6 94 13 is_stmt 1 view .LVU355
 1425              	.LBB1012:
 1426              	.LBI986:
 215:dsp/fx/fx_engine.h ****         {
 1427              		.loc 3 215 21 view .LVU356
 1428              	.LBB1004:
 1429              	.LBI987:
 208:dsp/fx/fx_engine.h ****         {
 1430              		.loc 3 208 21 view .LVU357
 1431              	.LBB1000:
 1432              	.LBB996:
ARM GAS  C:\Users\daniel\AppData\Local\Temp\ccFYnhh8.s 			page 48


 1433              	.LBI989:
 186:dsp/fx/fx_engine.h ****         {
 1434              		.loc 3 186 21 view .LVU358
 186:dsp/fx/fx_engine.h ****         {
 1435              		.loc 3 186 21 is_stmt 0 view .LVU359
 1436              	.LBE996:
 1437              	.LBE1000:
 1438              	.LBE1004:
 1439              	.LBE1012:
 1440              	.LBE1028:
 102:dsp/fx/fx_engine.h **** };
 1441              		.loc 3 102 45 is_stmt 1 view .LVU360
 1442              	.LBB1029:
 1443              	.LBB1013:
 1444              	.LBB1005:
 1445              	.LBB1001:
 211:dsp/fx/fx_engine.h ****         }
 1446              		.loc 3 211 26 is_stmt 0 view .LVU361
 1447 01a4 A6EEA76A 		vfma.f32	s12, s13, s15
 1448              	.LVL89:
 1449              	.LBB997:
 1450              	.LBB993:
 196:dsp/fx/fx_engine.h ****             }
 1451              		.loc 3 196 65 view .LVU362
 1452 01a8 C4ED006A 		vstr.32	s13, [r4]
 1453              	.LVL90:
 196:dsp/fx/fx_engine.h ****             }
 1454              		.loc 3 196 65 view .LVU363
 1455              	.LBE993:
 1456              	.LBE997:
 1457              	.LBE1001:
 1458              	.LBE1005:
 1459              	.LBE1013:
  95:dsp/fx/diffuser.h ****             c.Write(wet, 0.0f);
 1460              		.loc 6 95 13 is_stmt 1 view .LVU364
  96:dsp/fx/diffuser.h ****             in_out->r += amount_ * (wet - in_out->r);
 1461              		.loc 6 96 13 view .LVU365
 1462              		.loc 6 96 23 is_stmt 0 view .LVU366
 1463 01ac 57ED037A 		vldr.32	s15, [r7, #-12]
 1464 01b0 96ED0A7A 		vldr.32	s14, [r6, #40]
 1465              		.loc 6 96 41 view .LVU367
 1466 01b4 36EE676A 		vsub.f32	s12, s12, s15
 1467              	.LVL91:
 1468              		.loc 6 96 23 view .LVU368
 1469 01b8 E7EE067A 		vfma.f32	s15, s14, s12
 1470 01bc 47ED037A 		vstr.32	s15, [r7, #-12]
  97:dsp/fx/diffuser.h **** 
  98:dsp/fx/diffuser.h ****             ++in_out;
 1471              		.loc 6 98 13 is_stmt 1 view .LVU369
 1472              	.LVL92:
 1473              		.loc 6 98 13 is_stmt 0 view .LVU370
 1474              	.LBE1029:
  69:dsp/fx/diffuser.h ****         {
 1475              		.loc 6 69 9 view .LVU371
 1476 01c0 24E7     		b	.L26
 1477              	.LVL93:
 1478              	.L21:
ARM GAS  C:\Users\daniel\AppData\Local\Temp\ccFYnhh8.s 			page 49


  99:dsp/fx/diffuser.h ****         }
 100:dsp/fx/diffuser.h ****     }
 1479              		.loc 6 100 5 view .LVU372
 1480 01c2 BDE8F081 		pop	{r4, r5, r6, r7, r8, pc}
 1481              	.LVL94:
 1482              	.L28:
 1483              		.loc 6 100 5 view .LVU373
 1484 01c6 00BF     		.align	2
 1485              	.L27:
 1486 01c8 00000000 		.word	0
 1487              		.cfi_endproc
 1488              	.LFE4835:
 1490              		.section	.text._ZN18PitchShifterClouds7ProcessEP10FloatFrame,"axG",%progbits,_ZN18PitchShifterClou
 1491              		.align	1
 1492              		.weak	_ZN18PitchShifterClouds7ProcessEP10FloatFrame
 1493              		.syntax unified
 1494              		.thumb
 1495              		.thumb_func
 1496              		.fpu fpv5-d16
 1498              	_ZN18PitchShifterClouds7ProcessEP10FloatFrame:
 1499              	.LVL95:
 1500              	.LFB4846:
 1501              		.file 7 "dsp/fx/pitch_shifter.h"
   1:dsp/fx/pitch_shifter.h **** // Copyright 2014 Emilie Gillet.
   2:dsp/fx/pitch_shifter.h **** //
   3:dsp/fx/pitch_shifter.h **** // Author: Emilie Gillet (emilie.o.gillet@gmail.com)
   4:dsp/fx/pitch_shifter.h **** //
   5:dsp/fx/pitch_shifter.h **** // Permission is hereby granted, free of charge, to any person obtaining a copy
   6:dsp/fx/pitch_shifter.h **** // of this software and associated documentation files (the "Software"), to deal
   7:dsp/fx/pitch_shifter.h **** // in the Software without restriction, including without limitation the rights
   8:dsp/fx/pitch_shifter.h **** // to use, copy, modify, merge, publish, distribute, sublicense, and/or sell
   9:dsp/fx/pitch_shifter.h **** // copies of the Software, and to permit persons to whom the Software is
  10:dsp/fx/pitch_shifter.h **** // furnished to do so, subject to the following conditions:
  11:dsp/fx/pitch_shifter.h **** //
  12:dsp/fx/pitch_shifter.h **** // The above copyright notice and this permission notice shall be included in
  13:dsp/fx/pitch_shifter.h **** // all copies or substantial portions of the Software.
  14:dsp/fx/pitch_shifter.h **** //
  15:dsp/fx/pitch_shifter.h **** // THE SOFTWARE IS PROVIDED "AS IS", WITHOUT WARRANTY OF ANY KIND, EXPRESS OR
  16:dsp/fx/pitch_shifter.h **** // IMPLIED, INCLUDING BUT NOT LIMITED TO THE WARRANTIES OF MERCHANTABILITY,
  17:dsp/fx/pitch_shifter.h **** // FITNESS FOR A PARTICULAR PURPOSE AND NONINFRINGEMENT. IN NO EVENT SHALL THE
  18:dsp/fx/pitch_shifter.h **** // AUTHORS OR COPYRIGHT HOLDERS BE LIABLE FOR ANY CLAIM, DAMAGES OR OTHER
  19:dsp/fx/pitch_shifter.h **** // LIABILITY, WHETHER IN AN ACTION OF CONTRACT, TORT OR OTHERWISE, ARISING FROM,
  20:dsp/fx/pitch_shifter.h **** // OUT OF OR IN CONNECTION WITH THE SOFTWARE OR THE USE OR OTHER DEALINGS IN
  21:dsp/fx/pitch_shifter.h **** // THE SOFTWARE.
  22:dsp/fx/pitch_shifter.h **** //
  23:dsp/fx/pitch_shifter.h **** // See http://creativecommons.org/licenses/MIT/ for more information.
  24:dsp/fx/pitch_shifter.h **** //
  25:dsp/fx/pitch_shifter.h **** // -----------------------------------------------------------------------------
  26:dsp/fx/pitch_shifter.h **** //
  27:dsp/fx/pitch_shifter.h **** // Pitch shifter.
  28:dsp/fx/pitch_shifter.h **** 
  29:dsp/fx/pitch_shifter.h **** #ifndef CLOUDS_DSP_FX_PITCH_SHIFTER_H_
  30:dsp/fx/pitch_shifter.h **** #define CLOUDS_DSP_FX_PITCH_SHIFTER_H_
  31:dsp/fx/pitch_shifter.h **** 
  32:dsp/fx/pitch_shifter.h **** 
  33:dsp/fx/pitch_shifter.h **** #include "frame.h"
  34:dsp/fx/pitch_shifter.h **** #include "fx_engine.h"
ARM GAS  C:\Users\daniel\AppData\Local\Temp\ccFYnhh8.s 			page 50


  35:dsp/fx/pitch_shifter.h **** 
  36:dsp/fx/pitch_shifter.h **** using namespace daisysp;
  37:dsp/fx/pitch_shifter.h **** 
  38:dsp/fx/pitch_shifter.h **** class PitchShifterClouds
  39:dsp/fx/pitch_shifter.h **** {
  40:dsp/fx/pitch_shifter.h ****   public:
  41:dsp/fx/pitch_shifter.h ****     PitchShifterClouds() {}
  42:dsp/fx/pitch_shifter.h ****     ~PitchShifterClouds() {}
  43:dsp/fx/pitch_shifter.h **** 
  44:dsp/fx/pitch_shifter.h ****     void Init(uint16_t* buffer)
  45:dsp/fx/pitch_shifter.h ****     {
  46:dsp/fx/pitch_shifter.h ****         engine_.Init(buffer);
  47:dsp/fx/pitch_shifter.h ****         phase_ = 0;
  48:dsp/fx/pitch_shifter.h ****         size_  = 2047.0f;
  49:dsp/fx/pitch_shifter.h ****     }
  50:dsp/fx/pitch_shifter.h **** 
  51:dsp/fx/pitch_shifter.h ****     void Clear() { engine_.Clear(); }
  52:dsp/fx/pitch_shifter.h **** 
  53:dsp/fx/pitch_shifter.h ****     inline void Process(FloatFrame* input_output, size_t size)
  54:dsp/fx/pitch_shifter.h ****     {
  55:dsp/fx/pitch_shifter.h ****         while(size--)
  56:dsp/fx/pitch_shifter.h ****         {
  57:dsp/fx/pitch_shifter.h ****             Process(input_output);
  58:dsp/fx/pitch_shifter.h ****             ++input_output;
  59:dsp/fx/pitch_shifter.h ****         }
  60:dsp/fx/pitch_shifter.h ****     }
  61:dsp/fx/pitch_shifter.h **** 
  62:dsp/fx/pitch_shifter.h ****     void Process(FloatFrame* input_output)
 1502              		.loc 7 62 10 is_stmt 1 view -0
 1503              		.cfi_startproc
 1504              		@ args = 0, pretend = 0, frame = 24
 1505              		@ frame_needed = 0, uses_anonymous_args = 0
  63:dsp/fx/pitch_shifter.h ****     {
  64:dsp/fx/pitch_shifter.h ****         typedef E::Reserve<2047, E::Reserve<2047>> Memory;
 1506              		.loc 7 64 9 view .LVU375
  65:dsp/fx/pitch_shifter.h ****         E::DelayLine<Memory, 0>                    left;
 1507              		.loc 7 65 9 view .LVU376
  66:dsp/fx/pitch_shifter.h ****         E::DelayLine<Memory, 1>                    right;
 1508              		.loc 7 66 9 view .LVU377
  67:dsp/fx/pitch_shifter.h ****         E::Context                                 c;
 1509              		.loc 7 67 9 view .LVU378
 1510              	.LBB1066:
 1511              	.LBB1067:
 304:dsp/fx/fx_engine.h ****         if(write_ptr_ < 0)
 1512              		.loc 3 304 11 is_stmt 0 view .LVU379
 1513 0000 0368     		ldr	r3, [r0]
 305:dsp/fx/fx_engine.h ****         {
 1514              		.loc 3 305 9 view .LVU380
 1515 0002 5A1E     		subs	r2, r3, #1
 307:dsp/fx/fx_engine.h ****         }
 1516              		.loc 3 307 24 view .LVU381
 1517 0004 48BF     		it	mi
 1518 0006 03F6FF73 		addwmi	r3, r3, #4095
 1519              	.LBE1067:
 1520              	.LBE1066:
  62:dsp/fx/pitch_shifter.h ****     {
 1521              		.loc 7 62 10 view .LVU382
ARM GAS  C:\Users\daniel\AppData\Local\Temp\ccFYnhh8.s 			page 51


 1522 000a 30B5     		push	{r4, r5, lr}
 1523              		.cfi_def_cfa_offset 12
 1524              		.cfi_offset 4, -12
 1525              		.cfi_offset 5, -8
 1526              		.cfi_offset 14, -4
 1527 000c 2DED088B 		vpush.64	{d8, d9, d10, d11}
 1528              		.cfi_def_cfa_offset 44
 1529              		.cfi_offset 80, -44
 1530              		.cfi_offset 81, -40
 1531              		.cfi_offset 82, -36
 1532              		.cfi_offset 83, -32
 1533              		.cfi_offset 84, -28
 1534              		.cfi_offset 85, -24
 1535              		.cfi_offset 86, -20
 1536              		.cfi_offset 87, -16
 1537              	.LBB1079:
 1538              	.LBB1074:
 307:dsp/fx/fx_engine.h ****         }
 1539              		.loc 3 307 24 view .LVU383
 1540 0010 48BF     		it	mi
 1541 0012 0360     		strmi	r3, [r0]
 1542              	.LBE1074:
 1543              	.LBE1079:
  62:dsp/fx/pitch_shifter.h ****     {
 1544              		.loc 7 62 10 view .LVU384
 1545 0014 87B0     		sub	sp, sp, #28
 1546              		.cfi_def_cfa_offset 72
 1547              	.LVL96:
 1548              	.LBB1080:
 1549              	.LBI1080:
 165:dsp/fx/fx_engine.h ****         ~Context() {}
 1550              		.loc 3 165 9 is_stmt 1 view .LVU385
 165:dsp/fx/fx_engine.h ****         ~Context() {}
 1551              		.loc 3 165 9 is_stmt 0 view .LVU386
 1552              	.LBE1080:
  68:dsp/fx/pitch_shifter.h ****         engine_.Start(&c);
 1553              		.loc 7 68 9 is_stmt 1 view .LVU387
 1554              	.LBB1081:
 1555              	.LBI1066:
 302:dsp/fx/fx_engine.h ****     {
 1556              		.loc 3 302 17 view .LVU388
 1557              	.LBB1075:
 311:dsp/fx/fx_engine.h ****         c->write_ptr_     = write_ptr_;
 1558              		.loc 3 311 27 is_stmt 0 view .LVU389
 1559 0016 4368     		ldr	r3, [r0, #4]
 1560              	.LBE1075:
 1561              	.LBE1081:
  62:dsp/fx/pitch_shifter.h ****     {
 1562              		.loc 7 62 10 view .LVU390
 1563 0018 0446     		mov	r4, r0
 1564              	.LBB1082:
 1565              	.LBB1076:
 304:dsp/fx/fx_engine.h ****         if(write_ptr_ < 0)
 1566              		.loc 3 304 9 view .LVU391
 1567 001a 58BF     		it	pl
 1568 001c 0260     		strpl	r2, [r0]
 1569              	.LBE1076:
ARM GAS  C:\Users\daniel\AppData\Local\Temp\ccFYnhh8.s 			page 52


 1570              	.LBE1082:
  62:dsp/fx/pitch_shifter.h ****     {
 1571              		.loc 7 62 10 view .LVU392
 1572 001e 0D46     		mov	r5, r1
 1573              	.LBB1083:
 1574              	.LBB1077:
 311:dsp/fx/fx_engine.h ****         c->write_ptr_     = write_ptr_;
 1575              		.loc 3 311 27 view .LVU393
 1576 0020 0493     		str	r3, [sp, #16]
 312:dsp/fx/fx_engine.h ****         if((write_ptr_ & 31) == 0)
 1577              		.loc 3 312 29 view .LVU394
 1578 0022 0368     		ldr	r3, [r0]
 309:dsp/fx/fx_engine.h ****         c->previous_read_ = 0.0f;
 1579              		.loc 3 309 27 view .LVU395
 1580 0024 9FED59BA 		vldr.32	s22, .L48
 312:dsp/fx/fx_engine.h ****         if((write_ptr_ & 31) == 0)
 1581              		.loc 3 312 27 view .LVU396
 1582 0028 0593     		str	r3, [sp, #20]
 313:dsp/fx/fx_engine.h ****         {
 1583              		.loc 3 313 9 view .LVU397
 1584 002a DB06     		lsls	r3, r3, #27
 309:dsp/fx/fx_engine.h ****         c->previous_read_ = 0.0f;
 1585              		.loc 3 309 27 view .LVU398
 1586 002c 8DED00BA 		vstr.32	s22, [sp]
 310:dsp/fx/fx_engine.h ****         c->buffer_        = buffer_;
 1587              		.loc 3 310 27 view .LVU399
 1588 0030 8DED01BA 		vstr.32	s22, [sp, #4]
 313:dsp/fx/fx_engine.h ****         {
 1589              		.loc 3 313 9 view .LVU400
 1590 0034 40F0A480 		bne	.L32
 1591              	.LVL97:
 1592              	.LBB1068:
 1593              	.LBI1068:
 302:dsp/fx/fx_engine.h ****     {
 1594              		.loc 3 302 17 is_stmt 1 view .LVU401
 1595              	.LBB1069:
 315:dsp/fx/fx_engine.h ****             c->lfo_value_[1] = lfo_[1].Next();
 1596              		.loc 3 315 44 is_stmt 0 view .LVU402
 1597 0038 0830     		adds	r0, r0, #8
 1598              	.LVL98:
 315:dsp/fx/fx_engine.h ****             c->lfo_value_[1] = lfo_[1].Next();
 1599              		.loc 3 315 44 view .LVU403
 1600 003a FFF7FEFF 		bl	_ZN16CosineOscillator4NextEv
 1601              	.LVL99:
 1602              		.loc 3 316 44 view .LVU404
 1603 003e 04F11800 		add	r0, r4, #24
 315:dsp/fx/fx_engine.h ****             c->lfo_value_[1] = lfo_[1].Next();
 1604              		.loc 3 315 30 view .LVU405
 1605 0042 8DED020A 		vstr.32	s0, [sp, #8]
 1606              		.loc 3 316 44 view .LVU406
 1607 0046 FFF7FEFF 		bl	_ZN16CosineOscillator4NextEv
 1608              	.LVL100:
 1609              		.loc 3 316 30 view .LVU407
 1610 004a 8DED030A 		vstr.32	s0, [sp, #12]
 1611              	.LVL101:
 1612              	.L33:
 1613              		.loc 3 316 30 view .LVU408
ARM GAS  C:\Users\daniel\AppData\Local\Temp\ccFYnhh8.s 			page 53


 1614              	.LBE1069:
 1615              	.LBE1068:
 1616              	.LBE1077:
 1617              	.LBE1083:
  69:dsp/fx/pitch_shifter.h **** 
  70:dsp/fx/pitch_shifter.h ****         phase_ += (1.0f - ratio_) / size_;
 1618              		.loc 7 70 9 is_stmt 1 view .LVU409
 1619              		.loc 7 70 25 is_stmt 0 view .LVU410
 1620 004e B7EE008A 		vmov.f32	s16, #1.0e+0
 1621 0052 D4ED0B6A 		vldr.32	s13, [r4, #44]
 1622              		.loc 7 70 37 view .LVU411
 1623 0056 94ED0C7A 		vldr.32	s14, [r4, #48]
 1624              	.LBB1084:
 1625              	.LBB1085:
 172:dsp/fx/fx_engine.h ****         }
 1626              		.loc 3 172 26 view .LVU412
 1627 005a 95ED00AA 		vldr.32	s20, [r5]
 1628              	.LBE1085:
 1629              	.LBE1084:
 1630              		.loc 7 70 25 view .LVU413
 1631 005e 78EE666A 		vsub.f32	s13, s16, s13
 1632              		.loc 7 70 35 view .LVU414
 1633 0062 C6EE877A 		vdiv.f32	s15, s13, s14
 1634              		.loc 7 70 16 view .LVU415
 1635 0066 D4ED0A6A 		vldr.32	s13, [r4, #40]
 1636 006a 77EEA67A 		vadd.f32	s15, s15, s13
  71:dsp/fx/pitch_shifter.h ****         if(phase_ >= 1.0f)
 1637              		.loc 7 71 9 is_stmt 1 view .LVU416
 1638 006e F4EEC87A 		vcmpe.f32	s15, s16
 1639 0072 F1EE10FA 		vmrs	APSR_nzcv, FPSCR
  72:dsp/fx/pitch_shifter.h ****         {
  73:dsp/fx/pitch_shifter.h ****             phase_ -= 1.0f;
 1640              		.loc 7 73 13 view .LVU417
 1641              		.loc 7 73 20 is_stmt 0 view .LVU418
 1642 0076 A8BF     		it	ge
 1643 0078 77EEC87A 		vsubge.f32	s15, s15, s16
 1644 007c C4ED0A7A 		vstr.32	s15, [r4, #40]
  74:dsp/fx/pitch_shifter.h ****         }
  75:dsp/fx/pitch_shifter.h ****         if(phase_ <= 0.0f)
 1645              		.loc 7 75 9 is_stmt 1 view .LVU419
 1646              		.loc 7 75 12 is_stmt 0 view .LVU420
 1647 0080 D4ED0A7A 		vldr.32	s15, [r4, #40]
 1648              		.loc 7 75 9 view .LVU421
 1649 0084 F5EEC07A 		vcmpe.f32	s15, #0
 1650 0088 F1EE10FA 		vmrs	APSR_nzcv, FPSCR
  76:dsp/fx/pitch_shifter.h ****         {
  77:dsp/fx/pitch_shifter.h ****             phase_ += 1.0f;
 1651              		.loc 7 77 13 is_stmt 1 view .LVU422
 1652              		.loc 7 77 20 is_stmt 0 view .LVU423
 1653 008c 9CBF     		itt	ls
 1654 008e 77EE887A 		vaddls.f32	s15, s15, s16
 1655 0092 C4ED0A7A 		vstrls.32	s15, [r4, #40]
  78:dsp/fx/pitch_shifter.h ****         }
  79:dsp/fx/pitch_shifter.h ****         float tri   = 2.0f * (phase_ >= 0.5f ? 1.0f - phase_ : phase_);
 1656              		.loc 7 79 9 is_stmt 1 view .LVU424
 1657              		.loc 7 79 46 is_stmt 0 view .LVU425
 1658 0096 F6EE007A 		vmov.f32	s15, #5.0e-1
ARM GAS  C:\Users\daniel\AppData\Local\Temp\ccFYnhh8.s 			page 54


 1659              		.loc 7 79 31 view .LVU426
 1660 009a 94ED0A0A 		vldr.32	s0, [r4, #40]
  80:dsp/fx/pitch_shifter.h ****         float phase = phase_ * size_;
 1661              		.loc 7 80 15 view .LVU427
 1662 009e 67EE008A 		vmul.f32	s17, s14, s0
  79:dsp/fx/pitch_shifter.h ****         float phase = phase_ * size_;
 1663              		.loc 7 79 46 view .LVU428
 1664 00a2 B4EEE70A 		vcmpe.f32	s0, s15
  81:dsp/fx/pitch_shifter.h ****         float half  = phase + size_ * 0.5f;
 1665              		.loc 7 81 15 view .LVU429
 1666 00a6 F0EE68AA 		vmov.f32	s21, s17
  79:dsp/fx/pitch_shifter.h ****         float phase = phase_ * size_;
 1667              		.loc 7 79 46 view .LVU430
 1668 00aa F1EE10FA 		vmrs	APSR_nzcv, FPSCR
 1669              		.loc 7 81 15 view .LVU431
 1670 00ae E7EE27AA 		vfma.f32	s21, s14, s15
 1671              	.LBB1089:
 1672              	.LBB1086:
 172:dsp/fx/fx_engine.h ****         }
 1673              		.loc 3 172 26 view .LVU432
 1674 00b2 DDED007A 		vldr.32	s15, [sp]
 1675              	.LBE1086:
 1676              	.LBE1089:
  79:dsp/fx/pitch_shifter.h ****         float phase = phase_ * size_;
 1677              		.loc 7 79 46 view .LVU433
 1678 00b6 A8BF     		it	ge
 1679 00b8 38EE409A 		vsubge.f32	s18, s16, s0
 1680              	.LBB1090:
 1681              	.LBB1087:
 172:dsp/fx/fx_engine.h ****         }
 1682              		.loc 3 172 26 view .LVU434
 1683 00bc 3AEE27AA 		vadd.f32	s20, s20, s15
 1684              	.LBE1087:
 1685              	.LBE1090:
  79:dsp/fx/pitch_shifter.h ****         float phase = phase_ * size_;
 1686              		.loc 7 79 46 view .LVU435
 1687 00c0 B8BF     		it	lt
 1688 00c2 B0EE409A 		vmovlt.f32	s18, s0
 1689              	.LBB1091:
 1690              	.LBB1092:
 1691              	.LBB1093:
 1692              	.LBB1094:
 1693              	.LBB1095:
  87:dsp/fx/fx_engine.h ****     }
 1694              		.loc 3 87 19 view .LVU436
 1695 00c6 F0EE4A7A 		vmov.f32	s15, s20
 1696              	.LBE1095:
 1697              	.LBE1094:
 1698              	.LBE1093:
 1699              	.LBE1092:
 1700              	.LBE1091:
 1701              	.LBB1116:
 1702              	.LBB1088:
 172:dsp/fx/fx_engine.h ****         }
 1703              		.loc 3 172 26 view .LVU437
 1704 00ca 8DED00AA 		vstr.32	s20, [sp]
 1705              	.LBE1088:
ARM GAS  C:\Users\daniel\AppData\Local\Temp\ccFYnhh8.s 			page 55


 1706              	.LBE1116:
  82:dsp/fx/pitch_shifter.h ****         if(half >= size_)
 1707              		.loc 7 82 9 view .LVU438
 1708 00ce B4EEEA7A 		vcmpe.f32	s14, s21
  79:dsp/fx/pitch_shifter.h ****         float phase = phase_ * size_;
 1709              		.loc 7 79 15 view .LVU439
 1710 00d2 39EE099A 		vadd.f32	s18, s18, s18
 1711              	.LVL102:
  80:dsp/fx/pitch_shifter.h ****         float half  = phase + size_ * 0.5f;
 1712              		.loc 7 80 9 is_stmt 1 view .LVU440
  81:dsp/fx/pitch_shifter.h ****         if(half >= size_)
 1713              		.loc 7 81 9 view .LVU441
 1714              		.loc 7 82 9 view .LVU442
 1715              	.LBB1117:
 1716              	.LBB1110:
 1717              	.LBB1104:
 1718              	.LBB1100:
 1719              	.LBB1096:
  87:dsp/fx/fx_engine.h ****     }
 1720              		.loc 3 87 19 is_stmt 0 view .LVU443
 1721 00d6 FEEEE87A 		vcvt.s32.f32	s15, s15, #15
 1722              	.LBE1096:
 1723              	.LBE1100:
 1724              	.LBE1104:
 1725              	.LBE1110:
 1726              	.LBE1117:
 1727              		.loc 7 82 9 view .LVU444
 1728 00da F1EE10FA 		vmrs	APSR_nzcv, FPSCR
  83:dsp/fx/pitch_shifter.h ****         {
  84:dsp/fx/pitch_shifter.h ****             half -= size_;
 1729              		.loc 7 84 13 is_stmt 1 view .LVU445
 1730              	.LBB1118:
 1731              	.LBB1111:
 1732              	.LBB1105:
 198:dsp/fx/fx_engine.h ****         }
 1733              		.loc 3 198 26 is_stmt 0 view .LVU446
 1734 00de 2AEE0BAA 		vmul.f32	s20, s20, s22
 1735              	.LBB1101:
 1736              	.LBB1097:
  87:dsp/fx/fx_engine.h ****     }
 1737              		.loc 3 87 19 view .LVU447
 1738 00e2 17EE900A 		vmov	r0, s15	@ int
 1739              	.LBE1097:
 1740              	.LBE1101:
 1741              	.LBE1105:
 1742              	.LBE1111:
 1743              	.LBE1118:
 1744              		.loc 7 84 18 view .LVU448
 1745 00e6 98BF     		it	ls
 1746 00e8 7AEEC7AA 		vsubls.f32	s21, s21, s14
 1747              	.LVL103:
  85:dsp/fx/pitch_shifter.h ****         }
  86:dsp/fx/pitch_shifter.h **** 
  87:dsp/fx/pitch_shifter.h ****         c.Read(input_output->l, 1.0f);
 1748              		.loc 7 87 9 is_stmt 1 view .LVU449
 1749              	.LBB1119:
 1750              	.LBI1084:
ARM GAS  C:\Users\daniel\AppData\Local\Temp\ccFYnhh8.s 			page 56


 170:dsp/fx/fx_engine.h ****         {
 1751              		.loc 3 170 21 view .LVU450
 170:dsp/fx/fx_engine.h ****         {
 1752              		.loc 3 170 21 is_stmt 0 view .LVU451
 1753              	.LBE1119:
  88:dsp/fx/pitch_shifter.h ****         c.Write(left, 0.0f);
 1754              		.loc 7 88 9 is_stmt 1 view .LVU452
 1755              	.LBB1120:
 1756              	.LBI1091:
 202:dsp/fx/fx_engine.h ****         {
 1757              		.loc 3 202 21 view .LVU453
 1758              	.LBB1112:
 1759              	.LBI1092:
 186:dsp/fx/fx_engine.h ****         {
 1760              		.loc 3 186 21 view .LVU454
 1761              	.LBB1106:
 1762              	.LBB1102:
 1763              	.LBI1094:
  84:dsp/fx/fx_engine.h ****     {
 1764              		.loc 3 84 21 view .LVU455
 1765              	.LBB1098:
  86:dsp/fx/fx_engine.h ****             Clip16(static_cast<int32_t>(value * 32768.0f)));
 1766              		.loc 3 86 9 view .LVU456
  87:dsp/fx/fx_engine.h ****     }
 1767              		.loc 3 87 19 is_stmt 0 view .LVU457
 1768 00ec FFF7FEFF 		bl	_Z6Clip16l
 1769              	.LVL104:
  87:dsp/fx/fx_engine.h ****     }
 1770              		.loc 3 87 19 view .LVU458
 1771              	.LBE1098:
 1772              	.LBE1102:
 196:dsp/fx/fx_engine.h ****             }
 1773              		.loc 3 196 57 view .LVU459
 1774 00f0 059B     		ldr	r3, [sp, #20]
 1775              	.LBE1106:
 1776              	.LBE1112:
 1777              	.LBE1120:
  89:dsp/fx/pitch_shifter.h ****         c.Interpolate(left, phase, tri);
 1778              		.loc 7 89 22 view .LVU460
 1779 00f2 F0EE490A 		vmov.f32	s1, s18
 1780              	.LBB1121:
 1781              	.LBB1113:
 1782              	.LBB1107:
 196:dsp/fx/fx_engine.h ****             }
 1783              		.loc 3 196 65 view .LVU461
 1784 00f6 049A     		ldr	r2, [sp, #16]
 1785              	.LBE1107:
 1786              	.LBE1113:
 1787              	.LBE1121:
 1788              		.loc 7 89 22 view .LVU462
 1789 00f8 B0EE680A 		vmov.f32	s0, s17
 1790              	.LBB1122:
 1791              	.LBB1114:
 1792              	.LBB1108:
 196:dsp/fx/fx_engine.h ****             }
 1793              		.loc 3 196 57 view .LVU463
 1794 00fc C3F30B03 		ubfx	r3, r3, #0, #12
ARM GAS  C:\Users\daniel\AppData\Local\Temp\ccFYnhh8.s 			page 57


 1795              	.LBB1103:
 1796              	.LBB1099:
  87:dsp/fx/fx_engine.h ****     }
 1797              		.loc 3 87 59 view .LVU464
 1798 0100 22F81300 		strh	r0, [r2, r3, lsl #1]	@ movhi
 1799              	.LBE1099:
 1800              	.LBE1103:
 1801              	.LBE1108:
 1802              	.LBE1114:
 1803              	.LBE1122:
 1804              		.loc 7 89 22 view .LVU465
 1805 0104 6846     		mov	r0, sp
 1806              	.LVL105:
 1807              	.LBB1123:
 1808              	.LBB1115:
 1809              	.LBB1109:
 198:dsp/fx/fx_engine.h ****         }
 1810              		.loc 3 198 26 view .LVU466
 1811 0106 8DED00AA 		vstr.32	s20, [sp]
 1812              	.LVL106:
 198:dsp/fx/fx_engine.h ****         }
 1813              		.loc 3 198 26 view .LVU467
 1814              	.LBE1109:
 1815              	.LBE1115:
 1816              	.LBE1123:
 1817              		.loc 7 89 9 is_stmt 1 view .LVU468
 1818              		.loc 7 89 22 is_stmt 0 view .LVU469
 1819 010a FFF7FEFF 		bl	_ZN8FxEngineILj4096EL6Format1EE7Context11InterpolateINS1_9DelayLineINS1_7ReserveILl2047ENS5_ILl
 1820              	.LVL107:
  90:dsp/fx/pitch_shifter.h ****         c.Interpolate(left, half, 1.0f - tri);
 1821              		.loc 7 90 9 is_stmt 1 view .LVU470
 1822              		.loc 7 90 22 is_stmt 0 view .LVU471
 1823 010e 38EE498A 		vsub.f32	s16, s16, s18
 1824 0112 B0EE6A0A 		vmov.f32	s0, s21
 1825 0116 F0EE480A 		vmov.f32	s1, s16
 1826 011a FFF7FEFF 		bl	_ZN8FxEngineILj4096EL6Format1EE7Context11InterpolateINS1_9DelayLineINS1_7ReserveILl2047ENS5_ILl
 1827              	.LVL108:
  91:dsp/fx/pitch_shifter.h ****         c.Write(input_output->l, 0.0f);
 1828              		.loc 7 91 9 is_stmt 1 view .LVU472
 1829              	.LBB1124:
 1830              	.LBI1124:
 179:dsp/fx/fx_engine.h ****         {
 1831              		.loc 3 179 21 view .LVU473
 1832              	.LBB1125:
 181:dsp/fx/fx_engine.h ****             accumulator_ *= scale;
 1833              		.loc 3 181 21 is_stmt 0 view .LVU474
 1834 011e DDED007A 		vldr.32	s15, [sp]
 1835              	.LBE1125:
 1836              	.LBE1124:
 1837              	.LBB1127:
 1838              	.LBB1128:
 172:dsp/fx/fx_engine.h ****         }
 1839              		.loc 3 172 26 view .LVU475
 1840 0122 D5ED019A 		vldr.32	s19, [r5, #4]
 1841              	.LBE1128:
 1842              	.LBE1127:
 1843              	.LBB1131:
ARM GAS  C:\Users\daniel\AppData\Local\Temp\ccFYnhh8.s 			page 58


 1844              	.LBB1126:
 181:dsp/fx/fx_engine.h ****             accumulator_ *= scale;
 1845              		.loc 3 181 19 view .LVU476
 1846 0126 C5ED007A 		vstr.32	s15, [r5]
 1847              	.LVL109:
 181:dsp/fx/fx_engine.h ****             accumulator_ *= scale;
 1848              		.loc 3 181 19 view .LVU477
 1849              	.LBE1126:
 1850              	.LBE1131:
  92:dsp/fx/pitch_shifter.h **** 
  93:dsp/fx/pitch_shifter.h ****         c.Read(input_output->r, 1.0f);
 1851              		.loc 7 93 9 is_stmt 1 view .LVU478
 1852              	.LBB1132:
 1853              	.LBI1127:
 170:dsp/fx/fx_engine.h ****         {
 1854              		.loc 3 170 21 view .LVU479
 1855              	.LBB1129:
 172:dsp/fx/fx_engine.h ****         }
 1856              		.loc 3 172 26 is_stmt 0 view .LVU480
 1857 012a E7EE8B9A 		vfma.f32	s19, s15, s22
 1858              	.LVL110:
 172:dsp/fx/fx_engine.h ****         }
 1859              		.loc 3 172 26 view .LVU481
 1860              	.LBE1129:
 1861              	.LBE1132:
 1862              	.LBB1133:
 1863              	.LBB1134:
 1864              	.LBB1135:
 1865              	.LBB1136:
 1866              	.LBB1137:
  87:dsp/fx/fx_engine.h ****     }
 1867              		.loc 3 87 19 view .LVU482
 1868 012e F0EE697A 		vmov.f32	s15, s19
 1869              	.LBE1137:
 1870              	.LBE1136:
 1871              	.LBE1135:
 1872              	.LBE1134:
 1873              	.LBE1133:
 1874              	.LBB1152:
 1875              	.LBB1130:
 172:dsp/fx/fx_engine.h ****         }
 1876              		.loc 3 172 26 view .LVU483
 1877 0132 CDED009A 		vstr.32	s19, [sp]
 1878              	.LVL111:
 172:dsp/fx/fx_engine.h ****         }
 1879              		.loc 3 172 26 view .LVU484
 1880              	.LBE1130:
 1881              	.LBE1152:
  94:dsp/fx/pitch_shifter.h ****         c.Write(right, 0.0f);
 1882              		.loc 7 94 9 is_stmt 1 view .LVU485
 1883              	.LBB1153:
 1884              	.LBI1133:
 202:dsp/fx/fx_engine.h ****         {
 1885              		.loc 3 202 21 view .LVU486
 1886              	.LBB1148:
 1887              	.LBI1134:
 186:dsp/fx/fx_engine.h ****         {
ARM GAS  C:\Users\daniel\AppData\Local\Temp\ccFYnhh8.s 			page 59


 1888              		.loc 3 186 21 view .LVU487
 1889              	.LBB1144:
 1890              	.LBB1141:
 1891              	.LBI1136:
  84:dsp/fx/fx_engine.h ****     {
 1892              		.loc 3 84 21 view .LVU488
 1893              	.LBB1138:
  86:dsp/fx/fx_engine.h ****             Clip16(static_cast<int32_t>(value * 32768.0f)));
 1894              		.loc 3 86 9 view .LVU489
 1895              	.LBE1138:
 1896              	.LBE1141:
 198:dsp/fx/fx_engine.h ****         }
 1897              		.loc 3 198 26 is_stmt 0 view .LVU490
 1898 0136 69EE8B9A 		vmul.f32	s19, s19, s22
 1899              	.LBB1142:
 1900              	.LBB1139:
  87:dsp/fx/fx_engine.h ****     }
 1901              		.loc 3 87 19 view .LVU491
 1902 013a FEEEE87A 		vcvt.s32.f32	s15, s15, #15
 1903              	.LVL112:
  87:dsp/fx/fx_engine.h ****     }
 1904              		.loc 3 87 19 view .LVU492
 1905 013e 17EE900A 		vmov	r0, s15	@ int
 1906 0142 FFF7FEFF 		bl	_Z6Clip16l
 1907              	.LVL113:
  87:dsp/fx/fx_engine.h ****     }
 1908              		.loc 3 87 19 view .LVU493
 1909              	.LBE1139:
 1910              	.LBE1142:
 196:dsp/fx/fx_engine.h ****             }
 1911              		.loc 3 196 37 view .LVU494
 1912 0146 059B     		ldr	r3, [sp, #20]
 196:dsp/fx/fx_engine.h ****             }
 1913              		.loc 3 196 65 view .LVU495
 1914 0148 049A     		ldr	r2, [sp, #16]
 1915              	.LBE1144:
 1916              	.LBE1148:
 1917              	.LBE1153:
  95:dsp/fx/pitch_shifter.h ****         c.Interpolate(right, phase, tri);
 1918              		.loc 7 95 22 view .LVU496
 1919 014a F0EE490A 		vmov.f32	s1, s18
 1920              	.LBB1154:
 1921              	.LBB1149:
 1922              	.LBB1145:
 196:dsp/fx/fx_engine.h ****             }
 1923              		.loc 3 196 37 view .LVU497
 1924 014e 03F50063 		add	r3, r3, #2048
 1925              	.LBE1145:
 1926              	.LBE1149:
 1927              	.LBE1154:
 1928              		.loc 7 95 22 view .LVU498
 1929 0152 B0EE680A 		vmov.f32	s0, s17
 1930              	.LBB1155:
 1931              	.LBB1150:
 1932              	.LBB1146:
 196:dsp/fx/fx_engine.h ****             }
 1933              		.loc 3 196 57 view .LVU499
ARM GAS  C:\Users\daniel\AppData\Local\Temp\ccFYnhh8.s 			page 60


 1934 0156 C3F30B03 		ubfx	r3, r3, #0, #12
 1935              	.LBB1143:
 1936              	.LBB1140:
  87:dsp/fx/fx_engine.h ****     }
 1937              		.loc 3 87 59 view .LVU500
 1938 015a 22F81300 		strh	r0, [r2, r3, lsl #1]	@ movhi
 1939              	.LBE1140:
 1940              	.LBE1143:
 1941              	.LBE1146:
 1942              	.LBE1150:
 1943              	.LBE1155:
 1944              		.loc 7 95 22 view .LVU501
 1945 015e 6846     		mov	r0, sp
 1946              	.LVL114:
 1947              	.LBB1156:
 1948              	.LBB1151:
 1949              	.LBB1147:
 198:dsp/fx/fx_engine.h ****         }
 1950              		.loc 3 198 26 view .LVU502
 1951 0160 CDED009A 		vstr.32	s19, [sp]
 1952              	.LVL115:
 198:dsp/fx/fx_engine.h ****         }
 1953              		.loc 3 198 26 view .LVU503
 1954              	.LBE1147:
 1955              	.LBE1151:
 1956              	.LBE1156:
 1957              		.loc 7 95 9 is_stmt 1 view .LVU504
 1958              		.loc 7 95 22 is_stmt 0 view .LVU505
 1959 0164 FFF7FEFF 		bl	_ZN8FxEngineILj4096EL6Format1EE7Context11InterpolateINS1_9DelayLineINS1_7ReserveILl2047ENS5_ILl
 1960              	.LVL116:
  96:dsp/fx/pitch_shifter.h ****         c.Interpolate(right, half, 1.0f - tri);
 1961              		.loc 7 96 9 is_stmt 1 view .LVU506
 1962              		.loc 7 96 22 is_stmt 0 view .LVU507
 1963 0168 F0EE480A 		vmov.f32	s1, s16
 1964 016c B0EE6A0A 		vmov.f32	s0, s21
 1965 0170 FFF7FEFF 		bl	_ZN8FxEngineILj4096EL6Format1EE7Context11InterpolateINS1_9DelayLineINS1_7ReserveILl2047ENS5_ILl
 1966              	.LVL117:
  97:dsp/fx/pitch_shifter.h ****         c.Write(input_output->r, 0.0f);
 1967              		.loc 7 97 9 is_stmt 1 view .LVU508
 1968              	.LBB1157:
 1969              	.LBI1157:
 179:dsp/fx/fx_engine.h ****         {
 1970              		.loc 3 179 21 view .LVU509
 1971              	.LBB1158:
 181:dsp/fx/fx_engine.h ****             accumulator_ *= scale;
 1972              		.loc 3 181 19 is_stmt 0 view .LVU510
 1973 0174 009B     		ldr	r3, [sp]	@ float
 1974 0176 6B60     		str	r3, [r5, #4]	@ float
 1975              	.LVL118:
 181:dsp/fx/fx_engine.h ****             accumulator_ *= scale;
 1976              		.loc 3 181 19 view .LVU511
 1977              	.LBE1158:
 1978              	.LBE1157:
 1979              	.LBB1159:
 1980              	.LBI1159:
 166:dsp/fx/fx_engine.h **** 
 1981              		.loc 3 166 9 is_stmt 1 view .LVU512
ARM GAS  C:\Users\daniel\AppData\Local\Temp\ccFYnhh8.s 			page 61


 166:dsp/fx/fx_engine.h **** 
 1982              		.loc 3 166 9 is_stmt 0 view .LVU513
 1983              	.LBE1159:
  98:dsp/fx/pitch_shifter.h ****     }
 1984              		.loc 7 98 5 view .LVU514
 1985 0178 07B0     		add	sp, sp, #28
 1986              		.cfi_remember_state
 1987              		.cfi_def_cfa_offset 44
 1988              		@ sp needed
 1989 017a BDEC088B 		vldm	sp!, {d8-d11}
 1990              		.cfi_restore 86
 1991              		.cfi_restore 87
 1992              		.cfi_restore 84
 1993              		.cfi_restore 85
 1994              		.cfi_restore 82
 1995              		.cfi_restore 83
 1996              		.cfi_restore 80
 1997              		.cfi_restore 81
 1998              		.cfi_def_cfa_offset 12
 1999              	.LVL119:
 2000              		.loc 7 98 5 view .LVU515
 2001 017e 30BD     		pop	{r4, r5, pc}
 2002              	.LVL120:
 2003              	.L32:
 2004              		.cfi_restore_state
 2005              	.LBB1160:
 2006              	.LBB1078:
 2007              	.LBB1070:
 2008              	.LBI1070:
  91:./stmtemp.h   **** 
 2009              		.loc 4 91 11 is_stmt 1 view .LVU516
 2010              	.LBB1071:
  91:./stmtemp.h   **** 
 2011              		.loc 4 91 21 view .LVU517
  91:./stmtemp.h   **** 
 2012              		.loc 4 91 21 is_stmt 0 view .LVU518
 2013              	.LBE1071:
 2014              	.LBE1070:
 317:dsp/fx/fx_engine.h ****         }
 318:dsp/fx/fx_engine.h ****         else
 319:dsp/fx/fx_engine.h ****         {
 320:dsp/fx/fx_engine.h ****             c->lfo_value_[0] = lfo_[0].value();
 2015              		.loc 3 320 30 view .LVU519
 2016 0180 8368     		ldr	r3, [r0, #8]	@ float
 2017 0182 0293     		str	r3, [sp, #8]	@ float
 2018              	.LVL121:
 2019              	.LBB1072:
 2020              	.LBI1072:
  91:./stmtemp.h   **** 
 2021              		.loc 4 91 11 is_stmt 1 view .LVU520
 2022              	.LBB1073:
  91:./stmtemp.h   **** 
 2023              		.loc 4 91 21 view .LVU521
  91:./stmtemp.h   **** 
 2024              		.loc 4 91 21 is_stmt 0 view .LVU522
 2025              	.LBE1073:
 2026              	.LBE1072:
ARM GAS  C:\Users\daniel\AppData\Local\Temp\ccFYnhh8.s 			page 62


 321:dsp/fx/fx_engine.h ****             c->lfo_value_[1] = lfo_[1].value();
 2027              		.loc 3 321 30 view .LVU523
 2028 0184 8369     		ldr	r3, [r0, #24]	@ float
 2029 0186 0393     		str	r3, [sp, #12]	@ float
 2030 0188 61E7     		b	.L33
 2031              	.L49:
 2032 018a 00BF     		.align	2
 2033              	.L48:
 2034 018c 00000000 		.word	0
 2035              	.LBE1078:
 2036              	.LBE1160:
 2037              		.cfi_endproc
 2038              	.LFE4846:
 2040              		.section	.text._ZN6Reverb7ProcessEP10FloatFramej,"axG",%progbits,_ZN6Reverb7ProcessEP10FloatFramej
 2041              		.align	1
 2042              		.weak	_ZN6Reverb7ProcessEP10FloatFramej
 2043              		.syntax unified
 2044              		.thumb
 2045              		.thumb_func
 2046              		.fpu fpv5-d16
 2048              	_ZN6Reverb7ProcessEP10FloatFramej:
 2049              	.LVL122:
 2050              	.LFB4856:
 2051              		.file 8 "dsp/fx/reverb.h"
   1:dsp/fx/reverb.h **** // Copyright 2014 Emilie Gillet.
   2:dsp/fx/reverb.h **** //
   3:dsp/fx/reverb.h **** // Author: Emilie Gillet (emilie.o.gillet@gmail.com)
   4:dsp/fx/reverb.h **** //
   5:dsp/fx/reverb.h **** // Permission is hereby granted, free of charge, to any person obtaining a copy
   6:dsp/fx/reverb.h **** // of this software and associated documentation files (the "Software"), to deal
   7:dsp/fx/reverb.h **** // in the Software without restriction, including without limitation the rights
   8:dsp/fx/reverb.h **** // to use, copy, modify, merge, publish, distribute, sublicense, and/or sell
   9:dsp/fx/reverb.h **** // copies of the Software, and to permit persons to whom the Software is
  10:dsp/fx/reverb.h **** // furnished to do so, subject to the following conditions:
  11:dsp/fx/reverb.h **** //
  12:dsp/fx/reverb.h **** // The above copyright notice and this permission notice shall be included in
  13:dsp/fx/reverb.h **** // all copies or substantial portions of the Software.
  14:dsp/fx/reverb.h **** //
  15:dsp/fx/reverb.h **** // THE SOFTWARE IS PROVIDED "AS IS", WITHOUT WARRANTY OF ANY KIND, EXPRESS OR
  16:dsp/fx/reverb.h **** // IMPLIED, INCLUDING BUT NOT LIMITED TO THE WARRANTIES OF MERCHANTABILITY,
  17:dsp/fx/reverb.h **** // FITNESS FOR A PARTICULAR PURPOSE AND NONINFRINGEMENT. IN NO EVENT SHALL THE
  18:dsp/fx/reverb.h **** // AUTHORS OR COPYRIGHT HOLDERS BE LIABLE FOR ANY CLAIM, DAMAGES OR OTHER
  19:dsp/fx/reverb.h **** // LIABILITY, WHETHER IN AN ACTION OF CONTRACT, TORT OR OTHERWISE, ARISING FROM,
  20:dsp/fx/reverb.h **** // OUT OF OR IN CONNECTION WITH THE SOFTWARE OR THE USE OR OTHER DEALINGS IN
  21:dsp/fx/reverb.h **** // THE SOFTWARE.
  22:dsp/fx/reverb.h **** //
  23:dsp/fx/reverb.h **** // See http://creativecommons.org/licenses/MIT/ for more information.
  24:dsp/fx/reverb.h **** //
  25:dsp/fx/reverb.h **** // -----------------------------------------------------------------------------
  26:dsp/fx/reverb.h **** //
  27:dsp/fx/reverb.h **** // Reverb.
  28:dsp/fx/reverb.h **** 
  29:dsp/fx/reverb.h **** #ifndef CLOUDS_DSP_FX_REVERB_H_
  30:dsp/fx/reverb.h **** #define CLOUDS_DSP_FX_REVERB_H_
  31:dsp/fx/reverb.h **** 
  32:dsp/fx/reverb.h **** 
  33:dsp/fx/reverb.h **** #include "fx_engine.h"
ARM GAS  C:\Users\daniel\AppData\Local\Temp\ccFYnhh8.s 			page 63


  34:dsp/fx/reverb.h **** 
  35:dsp/fx/reverb.h **** using namespace daisysp;
  36:dsp/fx/reverb.h **** 
  37:dsp/fx/reverb.h **** class Reverb
  38:dsp/fx/reverb.h **** {
  39:dsp/fx/reverb.h ****   public:
  40:dsp/fx/reverb.h ****     Reverb() {}
  41:dsp/fx/reverb.h ****     ~Reverb() {}
  42:dsp/fx/reverb.h **** 
  43:dsp/fx/reverb.h ****     void Init(uint16_t* buffer)
  44:dsp/fx/reverb.h ****     {
  45:dsp/fx/reverb.h ****         engine_.Init(buffer);
  46:dsp/fx/reverb.h ****         engine_.SetLFOFrequency(LFO_1, 0.5f / 32000.0f);
  47:dsp/fx/reverb.h ****         engine_.SetLFOFrequency(LFO_2, 0.3f / 32000.0f);
  48:dsp/fx/reverb.h ****         lp_        = 0.7f;
  49:dsp/fx/reverb.h ****         diffusion_ = 0.625f;
  50:dsp/fx/reverb.h ****     }
  51:dsp/fx/reverb.h **** 
  52:dsp/fx/reverb.h ****     void Process(FloatFrame* in_out, size_t size)
 2052              		.loc 8 52 10 is_stmt 1 view -0
 2053              		.cfi_startproc
 2054              		@ args = 0, pretend = 0, frame = 0
 2055              		@ frame_needed = 0, uses_anonymous_args = 0
  53:dsp/fx/reverb.h ****     {
  54:dsp/fx/reverb.h ****         // This is the Griesinger topology described in the Dattorro paper
  55:dsp/fx/reverb.h ****         // (4 AP diffusers on the input, then a loop of 2x 2AP+1Delay).
  56:dsp/fx/reverb.h ****         // Modulation is applied in the loop of the first diffuser AP for additional
  57:dsp/fx/reverb.h ****         // smearing; and to the two long delays for a slow shimmer/chorus effect.
  58:dsp/fx/reverb.h ****         typedef E::Reserve<
 2056              		.loc 8 58 9 view .LVU525
  59:dsp/fx/reverb.h ****             113,
  60:dsp/fx/reverb.h ****             E::Reserve<
  61:dsp/fx/reverb.h ****                 162,
  62:dsp/fx/reverb.h ****                 E::Reserve<
  63:dsp/fx/reverb.h ****                     241,
  64:dsp/fx/reverb.h ****                     E::Reserve<
  65:dsp/fx/reverb.h ****                         399,
  66:dsp/fx/reverb.h ****                         E::Reserve<
  67:dsp/fx/reverb.h ****                             1653,
  68:dsp/fx/reverb.h ****                             E::Reserve<
  69:dsp/fx/reverb.h ****                                 2038,
  70:dsp/fx/reverb.h ****                                 E::Reserve<
  71:dsp/fx/reverb.h ****                                     3411,
  72:dsp/fx/reverb.h ****                                     E::Reserve<
  73:dsp/fx/reverb.h ****                                         1913,
  74:dsp/fx/reverb.h ****                                         E::Reserve<1663,
  75:dsp/fx/reverb.h ****                                                    E::Reserve<4782>>>>>>>>>>
  76:dsp/fx/reverb.h ****                                 Memory;
  77:dsp/fx/reverb.h ****         E::DelayLine<Memory, 0> ap1;
 2057              		.loc 8 77 9 view .LVU526
  78:dsp/fx/reverb.h ****         E::DelayLine<Memory, 1> ap2;
 2058              		.loc 8 78 9 view .LVU527
  79:dsp/fx/reverb.h ****         E::DelayLine<Memory, 2> ap3;
 2059              		.loc 8 79 9 view .LVU528
  80:dsp/fx/reverb.h ****         E::DelayLine<Memory, 3> ap4;
 2060              		.loc 8 80 9 view .LVU529
  81:dsp/fx/reverb.h ****         E::DelayLine<Memory, 4> dap1a;
ARM GAS  C:\Users\daniel\AppData\Local\Temp\ccFYnhh8.s 			page 64


 2061              		.loc 8 81 9 view .LVU530
  82:dsp/fx/reverb.h ****         E::DelayLine<Memory, 5> dap1b;
 2062              		.loc 8 82 9 view .LVU531
  83:dsp/fx/reverb.h ****         E::DelayLine<Memory, 6> del1;
 2063              		.loc 8 83 9 view .LVU532
  84:dsp/fx/reverb.h ****         E::DelayLine<Memory, 7> dap2a;
 2064              		.loc 8 84 9 view .LVU533
  85:dsp/fx/reverb.h ****         E::DelayLine<Memory, 8> dap2b;
 2065              		.loc 8 85 9 view .LVU534
  86:dsp/fx/reverb.h ****         E::DelayLine<Memory, 9> del2;
 2066              		.loc 8 86 9 view .LVU535
  87:dsp/fx/reverb.h ****         E::Context              c;
 2067              		.loc 8 87 9 view .LVU536
 2068              	.LBB1298:
 2069              	.LBI1298:
 165:dsp/fx/fx_engine.h ****         ~Context() {}
 2070              		.loc 3 165 9 view .LVU537
 165:dsp/fx/fx_engine.h ****         ~Context() {}
 2071              		.loc 3 165 9 is_stmt 0 view .LVU538
 2072              	.LBE1298:
  88:dsp/fx/reverb.h **** 
  89:dsp/fx/reverb.h ****         const float kap    = diffusion_;
 2073              		.loc 8 89 9 is_stmt 1 view .LVU539
  52:dsp/fx/reverb.h ****     {
 2074              		.loc 8 52 10 is_stmt 0 view .LVU540
 2075 0000 2DE9F843 		push	{r3, r4, r5, r6, r7, r8, r9, lr}
 2076              		.cfi_def_cfa_offset 32
 2077              		.cfi_offset 3, -32
 2078              		.cfi_offset 4, -28
 2079              		.cfi_offset 5, -24
 2080              		.cfi_offset 6, -20
 2081              		.cfi_offset 7, -16
 2082              		.cfi_offset 8, -12
 2083              		.cfi_offset 9, -8
 2084              		.cfi_offset 14, -4
 2085 0004 0646     		mov	r6, r0
 2086 0006 9046     		mov	r8, r2
 2087 0008 01F10807 		add	r7, r1, #8
 2088 000c 2DED108B 		vpush.64	{d8, d9, d10, d11, d12, d13, d14, d15}
 2089              		.cfi_def_cfa_offset 96
 2090              		.cfi_offset 80, -96
 2091              		.cfi_offset 81, -92
 2092              		.cfi_offset 82, -88
 2093              		.cfi_offset 83, -84
 2094              		.cfi_offset 84, -80
 2095              		.cfi_offset 85, -76
 2096              		.cfi_offset 86, -72
 2097              		.cfi_offset 87, -68
 2098              		.cfi_offset 88, -64
 2099              		.cfi_offset 89, -60
 2100              		.cfi_offset 90, -56
 2101              		.cfi_offset 91, -52
 2102              		.cfi_offset 92, -48
 2103              		.cfi_offset 93, -44
 2104              		.cfi_offset 94, -40
 2105              		.cfi_offset 95, -36
 2106              		.loc 8 89 21 view .LVU541
ARM GAS  C:\Users\daniel\AppData\Local\Temp\ccFYnhh8.s 			page 65


 2107 0010 90ED0D9A 		vldr.32	s18, [r0, #52]
 2108              	.LVL123:
  90:dsp/fx/reverb.h ****         const float klp    = lp_;
 2109              		.loc 8 90 9 is_stmt 1 view .LVU542
 2110              		.loc 8 90 21 is_stmt 0 view .LVU543
 2111 0014 90ED0EAA 		vldr.32	s20, [r0, #56]
 2112              	.LVL124:
  91:dsp/fx/reverb.h ****         const float krt    = reverb_time_;
 2113              		.loc 8 91 9 is_stmt 1 view .LVU544
 2114              		.loc 8 91 21 is_stmt 0 view .LVU545
 2115 0018 D0ED0CAA 		vldr.32	s21, [r0, #48]
 2116              	.LVL125:
  92:dsp/fx/reverb.h ****         const float amount = amount_;
 2117              		.loc 8 92 9 is_stmt 1 view .LVU546
 2118              		.loc 8 92 21 is_stmt 0 view .LVU547
 2119 001c D0ED0A9A 		vldr.32	s19, [r0, #40]
 2120              	.LVL126:
  93:dsp/fx/reverb.h ****         const float gain   = input_gain_;
 2121              		.loc 8 93 9 is_stmt 1 view .LVU548
 2122              		.loc 8 93 21 is_stmt 0 view .LVU549
 2123 0020 90ED0BBA 		vldr.32	s22, [r0, #44]
 2124              	.LVL127:
  94:dsp/fx/reverb.h **** 
  95:dsp/fx/reverb.h ****         float lp_1 = lp_decay_1_;
 2125              		.loc 8 95 9 is_stmt 1 view .LVU550
 2126              		.loc 8 95 22 is_stmt 0 view .LVU551
 2127 0024 90ED0FDA 		vldr.32	s26, [r0, #60]
 2128              	.LVL128:
  96:dsp/fx/reverb.h ****         float lp_2 = lp_decay_2_;
 2129              		.loc 8 96 9 is_stmt 1 view .LVU552
 2130              		.loc 8 96 22 is_stmt 0 view .LVU553
 2131 0028 D0ED10CA 		vldr.32	s25, [r0, #64]
 2132              	.LVL129:
 2133              	.L56:
  97:dsp/fx/reverb.h **** 
  98:dsp/fx/reverb.h ****         while(size--)
 2134              		.loc 8 98 9 is_stmt 1 view .LVU554
 2135              		.loc 8 98 19 view .LVU555
 2136              		.loc 8 98 19 is_stmt 0 view .LVU556
 2137 002c B8F1000F 		cmp	r8, #0
 2138 0030 00F0AC81 		beq	.L51
 2139              	.LBB1299:
  99:dsp/fx/reverb.h ****         {
 100:dsp/fx/reverb.h ****             float wet;
 2140              		.loc 8 100 13 is_stmt 1 view .LVU557
 101:dsp/fx/reverb.h ****             float apout = 0.0f;
 2141              		.loc 8 101 13 view .LVU558
 2142              	.LVL130:
 102:dsp/fx/reverb.h ****             engine_.Start(&c);
 2143              		.loc 8 102 13 view .LVU559
 2144              	.LBB1300:
 2145              	.LBI1300:
 302:dsp/fx/fx_engine.h ****     {
 2146              		.loc 3 302 17 view .LVU560
 2147              	.LBB1301:
 304:dsp/fx/fx_engine.h ****         if(write_ptr_ < 0)
 2148              		.loc 3 304 11 is_stmt 0 view .LVU561
ARM GAS  C:\Users\daniel\AppData\Local\Temp\ccFYnhh8.s 			page 66


 2149 0034 3368     		ldr	r3, [r6]
 305:dsp/fx/fx_engine.h ****         {
 2150              		.loc 3 305 9 view .LVU562
 2151 0036 5A1E     		subs	r2, r3, #1
 307:dsp/fx/fx_engine.h ****         }
 2152              		.loc 3 307 24 view .LVU563
 2153 0038 49BF     		itett	mi
 2154 003a 03F57F53 		addmi	r3, r3, #16320
 304:dsp/fx/fx_engine.h ****         if(write_ptr_ < 0)
 2155              		.loc 3 304 9 view .LVU564
 2156 003e 3260     		strpl	r2, [r6]
 307:dsp/fx/fx_engine.h ****         }
 2157              		.loc 3 307 24 view .LVU565
 2158 0040 3F33     		addmi	r3, r3, #63
 2159 0042 3360     		strmi	r3, [r6]
 312:dsp/fx/fx_engine.h ****         if((write_ptr_ & 31) == 0)
 2160              		.loc 3 312 29 view .LVU566
 2161 0044 D6E90045 		ldrd	r4, r5, [r6]
 313:dsp/fx/fx_engine.h ****         {
 2162              		.loc 3 313 9 view .LVU567
 2163 0048 E306     		lsls	r3, r4, #27
 2164 004a 40F09A81 		bne	.L54
 2165              	.LVL131:
 2166              	.LBB1302:
 2167              	.LBI1302:
 302:dsp/fx/fx_engine.h ****     {
 2168              		.loc 3 302 17 is_stmt 1 view .LVU568
 2169              	.LBB1303:
 315:dsp/fx/fx_engine.h ****             c->lfo_value_[1] = lfo_[1].Next();
 2170              		.loc 3 315 44 is_stmt 0 view .LVU569
 2171 004e 06F10800 		add	r0, r6, #8
 2172 0052 FFF7FEFF 		bl	_ZN16CosineOscillator4NextEv
 2173              	.LVL132:
 316:dsp/fx/fx_engine.h ****         }
 2174              		.loc 3 316 44 view .LVU570
 2175 0056 06F11800 		add	r0, r6, #24
 315:dsp/fx/fx_engine.h ****             c->lfo_value_[1] = lfo_[1].Next();
 2176              		.loc 3 315 44 view .LVU571
 2177 005a B0EE408A 		vmov.f32	s16, s0
 2178              	.LVL133:
 316:dsp/fx/fx_engine.h ****         }
 2179              		.loc 3 316 44 view .LVU572
 2180 005e FFF7FEFF 		bl	_ZN16CosineOscillator4NextEv
 2181              	.LVL134:
 316:dsp/fx/fx_engine.h ****         }
 2182              		.loc 3 316 44 view .LVU573
 2183 0062 B0EE40FA 		vmov.f32	s30, s0
 2184              	.LVL135:
 2185              	.L55:
 316:dsp/fx/fx_engine.h ****         }
 2186              		.loc 3 316 44 view .LVU574
 2187              	.LBE1303:
 2188              	.LBE1302:
 2189              	.LBE1301:
 2190              	.LBE1300:
 103:dsp/fx/reverb.h **** 
 104:dsp/fx/reverb.h ****             // Smear AP1 inside the loop.
ARM GAS  C:\Users\daniel\AppData\Local\Temp\ccFYnhh8.s 			page 67


 105:dsp/fx/reverb.h ****             c.Interpolate(ap1, 10.0f, LFO_1, 60.0f, 1.0f);
 2191              		.loc 8 105 13 is_stmt 1 view .LVU575
 2192              	.LBB1309:
 2193              	.LBI1309:
 271:dsp/fx/fx_engine.h ****                                 float    offset,
 2194              		.loc 3 271 21 view .LVU576
 2195              	.LBB1310:
 278:dsp/fx/fx_engine.h ****             MAKE_INTEGRAL_FRACTIONAL(offset);
 2196              		.loc 3 278 20 is_stmt 0 view .LVU577
 2197 0066 F2EE048A 		vmov.f32	s17, #1.0e+1
 2198 006a DFEDCC7A 		vldr.32	s15, .L57
 286:dsp/fx/fx_engine.h ****         }
 2199              		.loc 3 286 26 view .LVU578
 2200 006e DFEDCCBA 		vldr.32	s23, .L57+4
 2201              	.LBE1310:
 2202              	.LBE1309:
 106:dsp/fx/reverb.h ****             c.Write(ap1, 100, 0.0f);
 107:dsp/fx/reverb.h **** 
 108:dsp/fx/reverb.h ****             c.Read(in_out->l + in_out->r, gain);
 109:dsp/fx/reverb.h **** 
 110:dsp/fx/reverb.h ****             // Diffuse through 4 allpasses.
 111:dsp/fx/reverb.h ****             c.Read(ap1 TAIL, kap);
 112:dsp/fx/reverb.h ****             c.WriteAllPass(ap1, -kap);
 2203              		.loc 8 112 27 view .LVU579
 2204 0072 B1EE49CA 		vneg.f32	s24, s18
 2205              	.LBB1328:
 2206              	.LBB1329:
 281:dsp/fx/fx_engine.h ****             float b = DataType<format>::Decompress(
 2207              		.loc 3 281 55 view .LVU580
 2208 0076 42F65259 		movw	r9, #11602
 2209 007a 08F1FF38 		add	r8, r8, #-1
 2210              	.LVL136:
 281:dsp/fx/fx_engine.h ****             float b = DataType<format>::Decompress(
 2211              		.loc 3 281 55 view .LVU581
 2212              	.LBE1329:
 2213              	.LBE1328:
 2214              	.LBB1355:
 2215              	.LBB1327:
 278:dsp/fx/fx_engine.h ****             MAKE_INTEGRAL_FRACTIONAL(offset);
 2216              		.loc 3 278 20 view .LVU582
 2217 007e E8EE278A 		vfma.f32	s17, s16, s15
 2218              	.LVL137:
 2219              	.LBB1311:
 2220              	.LBB1312:
  64:dsp/fx/fx_engine.h ****     }
 2221              		.loc 3 64 66 view .LVU583
 2222 0082 9FEDC88A 		vldr.32	s16, .L57+8
 2223              	.LVL138:
  64:dsp/fx/fx_engine.h ****     }
 2224              		.loc 3 64 66 view .LVU584
 2225 0086 0837     		adds	r7, r7, #8
 2226              	.LVL139:
  64:dsp/fx/fx_engine.h ****     }
 2227              		.loc 3 64 66 view .LVU585
 2228              	.LBE1312:
 2229              	.LBE1311:
 279:dsp/fx/fx_engine.h ****             float a = DataType<format>::Decompress(
ARM GAS  C:\Users\daniel\AppData\Local\Temp\ccFYnhh8.s 			page 68


 2230              		.loc 3 279 13 view .LVU586
 2231 0088 BDEEE87A 		vcvt.s32.f32	s14, s17
 2232              	.LVL140:
 281:dsp/fx/fx_engine.h ****             float b = DataType<format>::Decompress(
 2233              		.loc 3 281 37 view .LVU587
 2234 008c 17EE103A 		vmov	r3, s14	@ int
 279:dsp/fx/fx_engine.h ****             float a = DataType<format>::Decompress(
 2235              		.loc 3 279 13 view .LVU588
 2236 0090 F8EEC77A 		vcvt.f32.s32	s15, s14
 281:dsp/fx/fx_engine.h ****             float b = DataType<format>::Decompress(
 2237              		.loc 3 281 37 view .LVU589
 2238 0094 2344     		add	r3, r3, r4
 279:dsp/fx/fx_engine.h ****             float a = DataType<format>::Decompress(
 2239              		.loc 3 279 13 view .LVU590
 2240 0096 78EEE77A 		vsub.f32	s15, s17, s15
 2241              	.LVL141:
 2242              	.LBB1316:
 2243              	.LBI1316:
  62:dsp/fx/fx_engine.h ****     {
 2244              		.loc 3 62 25 is_stmt 1 view .LVU591
 2245              	.LBB1317:
  64:dsp/fx/fx_engine.h ****     }
 2246              		.loc 3 64 9 view .LVU592
 2247              	.LBE1317:
 2248              	.LBE1316:
 281:dsp/fx/fx_engine.h ****             float b = DataType<format>::Decompress(
 2249              		.loc 3 281 66 is_stmt 0 view .LVU593
 2250 009a C3F30D02 		ubfx	r2, r3, #0, #14
 283:dsp/fx/fx_engine.h ****             float x        = a + (b - a) * offset_fractional;
 2251              		.loc 3 283 65 view .LVU594
 2252 009e 0133     		adds	r3, r3, #1
 2253              	.LVL142:
 283:dsp/fx/fx_engine.h ****             float x        = a + (b - a) * offset_fractional;
 2254              		.loc 3 283 70 view .LVU595
 2255 00a0 C3F30D03 		ubfx	r3, r3, #0, #14
 2256              	.LVL143:
 2257              	.LBB1321:
 2258              	.LBB1318:
  64:dsp/fx/fx_engine.h ****     }
 2259              		.loc 3 64 16 view .LVU596
 2260 00a4 35F91220 		ldrsh	r2, [r5, r2, lsl #1]
 2261              	.LBE1318:
 2262              	.LBE1321:
 2263              	.LBB1322:
 2264              	.LBB1313:
 2265 00a8 35F91330 		ldrsh	r3, [r5, r3, lsl #1]
 2266              	.LBE1313:
 2267              	.LBE1322:
 2268              	.LBB1323:
 2269              	.LBB1319:
 2270 00ac 07EE102A 		vmov	s14, r2	@ int
 2271              	.LVL144:
  64:dsp/fx/fx_engine.h ****     }
 2272              		.loc 3 64 16 view .LVU597
 2273              	.LBE1319:
 2274              	.LBE1323:
 2275              	.LBB1324:
ARM GAS  C:\Users\daniel\AppData\Local\Temp\ccFYnhh8.s 			page 69


 2276              	.LBB1314:
 2277 00b0 08EE903A 		vmov	s17, r3	@ int
 2278              	.LVL145:
  64:dsp/fx/fx_engine.h ****     }
 2279              		.loc 3 64 16 view .LVU598
 2280              	.LBE1314:
 2281              	.LBE1324:
 2282              	.LBB1325:
 2283              	.LBB1320:
 2284 00b4 B8EEC77A 		vcvt.f32.s32	s14, s14
 2285              	.LVL146:
  64:dsp/fx/fx_engine.h ****     }
 2286              		.loc 3 64 16 view .LVU599
 2287              	.LBE1320:
 2288              	.LBE1325:
 2289              	.LBB1326:
 2290              	.LBI1311:
  62:dsp/fx/fx_engine.h ****     {
 2291              		.loc 3 62 25 is_stmt 1 view .LVU600
 2292              	.LBB1315:
  64:dsp/fx/fx_engine.h ****     }
 2293              		.loc 3 64 9 view .LVU601
  64:dsp/fx/fx_engine.h ****     }
 2294              		.loc 3 64 16 is_stmt 0 view .LVU602
 2295 00b8 F8EEE88A 		vcvt.f32.s32	s17, s17
  64:dsp/fx/fx_engine.h ****     }
 2296              		.loc 3 64 66 view .LVU603
 2297 00bc 68EE888A 		vmul.f32	s17, s17, s16
 2298              	.LBE1315:
 2299              	.LBE1326:
 284:dsp/fx/fx_engine.h ****             previous_read_ = x;
 2300              		.loc 3 284 37 view .LVU604
 2301 00c0 E7EE488A 		vfms.f32	s17, s14, s16
 284:dsp/fx/fx_engine.h ****             previous_read_ = x;
 2302              		.loc 3 284 42 view .LVU605
 2303 00c4 67EEA88A 		vmul.f32	s17, s15, s17
 284:dsp/fx/fx_engine.h ****             previous_read_ = x;
 2304              		.loc 3 284 19 view .LVU606
 2305 00c8 E7EE088A 		vfma.f32	s17, s14, s16
 2306              	.LVL147:
 286:dsp/fx/fx_engine.h ****         }
 2307              		.loc 3 286 26 view .LVU607
 2308 00cc 78EEAB8A 		vadd.f32	s17, s17, s23
 2309              	.LVL148:
 286:dsp/fx/fx_engine.h ****         }
 2310              		.loc 3 286 26 view .LVU608
 2311              	.LBE1327:
 2312              	.LBE1355:
 106:dsp/fx/reverb.h **** 
 2313              		.loc 8 106 13 is_stmt 1 view .LVU609
 2314              	.LBB1356:
 2315              	.LBI1356:
 186:dsp/fx/fx_engine.h ****         {
 2316              		.loc 3 186 21 view .LVU610
 2317              	.LBB1357:
 189:dsp/fx/fx_engine.h ****             if(offset == -1)
 2318              		.loc 3 189 45 is_stmt 0 view .LVU611
ARM GAS  C:\Users\daniel\AppData\Local\Temp\ccFYnhh8.s 			page 70


 2319 00d0 B0EE680A 		vmov.f32	s0, s17
 2320 00d4 FFF7FEFF 		bl	_ZN8DataTypeIL6Format0EE8CompressEf
 2321              	.LVL149:
 196:dsp/fx/fx_engine.h ****             }
 2322              		.loc 3 196 47 view .LVU612
 2323 00d8 04F16403 		add	r3, r4, #100
 2324              	.LBE1357:
 2325              	.LBE1356:
 108:dsp/fx/reverb.h **** 
 2326              		.loc 8 108 28 view .LVU613
 2327 00dc 57ED04EA 		vldr.32	s29, [r7, #-16]
 108:dsp/fx/reverb.h **** 
 2328              		.loc 8 108 40 view .LVU614
 2329 00e0 17ED03EA 		vldr.32	s28, [r7, #-12]
 2330              	.LBB1360:
 2331              	.LBB1358:
 196:dsp/fx/fx_engine.h ****             }
 2332              		.loc 3 196 57 view .LVU615
 2333 00e4 C3F30D03 		ubfx	r3, r3, #0, #14
 2334              	.LBE1358:
 2335              	.LBE1360:
 108:dsp/fx/reverb.h **** 
 2336              		.loc 8 108 19 view .LVU616
 2337 00e8 7EEE8EDA 		vadd.f32	s27, s29, s28
 2338              	.LBB1361:
 2339              	.LBB1359:
 196:dsp/fx/fx_engine.h ****             }
 2340              		.loc 3 196 65 view .LVU617
 2341 00ec 25F81300 		strh	r0, [r5, r3, lsl #1]	@ movhi
 2342              	.LVL150:
 196:dsp/fx/fx_engine.h ****             }
 2343              		.loc 3 196 65 view .LVU618
 2344              	.LBE1359:
 2345              	.LBE1361:
 108:dsp/fx/reverb.h **** 
 2346              		.loc 8 108 13 is_stmt 1 view .LVU619
 2347              	.LBB1362:
 2348              	.LBI1362:
 170:dsp/fx/fx_engine.h ****         {
 2349              		.loc 3 170 21 view .LVU620
 2350              	.LBE1362:
 2351              	.LBB1365:
 2352              	.LBB1366:
 227:dsp/fx/fx_engine.h ****             }
 2353              		.loc 3 227 63 is_stmt 0 view .LVU621
 2354 00f0 04F17003 		add	r3, r4, #112
 227:dsp/fx/fx_engine.h ****             }
 2355              		.loc 3 227 68 view .LVU622
 2356 00f4 C3F30D03 		ubfx	r3, r3, #0, #14
 2357              	.LBE1366:
 2358              	.LBE1365:
 2359              	.LBB1373:
 2360              	.LBB1363:
 172:dsp/fx/fx_engine.h ****         }
 2361              		.loc 3 172 35 view .LVU623
 2362 00f8 6DEE8BDA 		vmul.f32	s27, s27, s22
 2363              	.LVL151:
ARM GAS  C:\Users\daniel\AppData\Local\Temp\ccFYnhh8.s 			page 71


 172:dsp/fx/fx_engine.h ****         }
 2364              		.loc 3 172 35 view .LVU624
 2365              	.LBE1363:
 2366              	.LBE1373:
 2367              	.LBB1374:
 2368              	.LBB1371:
 2369              	.LBB1367:
 2370              	.LBB1368:
  64:dsp/fx/fx_engine.h ****     }
 2371              		.loc 3 64 16 view .LVU625
 2372 00fc 35F91330 		ldrsh	r3, [r5, r3, lsl #1]
 2373              	.LBE1368:
 2374              	.LBE1367:
 2375              	.LBE1371:
 2376              	.LBE1374:
 2377              	.LBB1375:
 2378              	.LBB1364:
 172:dsp/fx/fx_engine.h ****         }
 2379              		.loc 3 172 26 view .LVU626
 2380 0100 E8EEABDA 		vfma.f32	s27, s17, s23
 2381              	.LVL152:
 172:dsp/fx/fx_engine.h ****         }
 2382              		.loc 3 172 26 view .LVU627
 2383              	.LBE1364:
 2384              	.LBE1375:
 111:dsp/fx/reverb.h ****             c.WriteAllPass(ap1, -kap);
 2385              		.loc 8 111 13 is_stmt 1 view .LVU628
 2386              	.LBB1376:
 2387              	.LBI1365:
 221:dsp/fx/fx_engine.h ****         {
 2388              		.loc 3 221 21 view .LVU629
 2389              	.LBB1372:
 2390              	.LBB1370:
 2391              	.LBI1367:
  62:dsp/fx/fx_engine.h ****     {
 2392              		.loc 3 62 25 view .LVU630
 2393              	.LBB1369:
  64:dsp/fx/fx_engine.h ****     }
 2394              		.loc 3 64 9 view .LVU631
  64:dsp/fx/fx_engine.h ****     }
 2395              		.loc 3 64 16 is_stmt 0 view .LVU632
 2396 0104 08EE903A 		vmov	s17, r3	@ int
 2397 0108 F8EEE88A 		vcvt.f32.s32	s17, s17
  64:dsp/fx/fx_engine.h ****     }
 2398              		.loc 3 64 66 view .LVU633
 2399 010c 68EE88BA 		vmul.f32	s23, s17, s16
 2400              	.LVL153:
  64:dsp/fx/fx_engine.h ****     }
 2401              		.loc 3 64 66 view .LVU634
 2402              	.LBE1369:
 2403              	.LBE1370:
 235:dsp/fx/fx_engine.h ****         }
 2404              		.loc 3 235 26 view .LVU635
 2405 0110 E9EE2BDA 		vfma.f32	s27, s18, s23
 2406              	.LVL154:
 235:dsp/fx/fx_engine.h ****         }
 2407              		.loc 3 235 26 view .LVU636
ARM GAS  C:\Users\daniel\AppData\Local\Temp\ccFYnhh8.s 			page 72


 2408              	.LBE1372:
 2409              	.LBE1376:
 2410              		.loc 8 112 13 is_stmt 1 view .LVU637
 2411              	.LBB1377:
 2412              	.LBI1377:
 215:dsp/fx/fx_engine.h ****         {
 2413              		.loc 3 215 21 view .LVU638
 2414              	.LBB1378:
 2415              	.LBI1378:
 208:dsp/fx/fx_engine.h ****         {
 2416              		.loc 3 208 21 view .LVU639
 2417              	.LBB1379:
 2418              	.LBB1380:
 2419              	.LBI1380:
 186:dsp/fx/fx_engine.h ****         {
 2420              		.loc 3 186 21 view .LVU640
 2421              	.LBB1381:
 189:dsp/fx/fx_engine.h ****             if(offset == -1)
 2422              		.loc 3 189 45 is_stmt 0 view .LVU641
 2423 0114 B0EE6D0A 		vmov.f32	s0, s27
 2424 0118 FFF7FEFF 		bl	_ZN8DataTypeIL6Format0EE8CompressEf
 2425              	.LVL155:
 196:dsp/fx/fx_engine.h ****             }
 2426              		.loc 3 196 57 view .LVU642
 2427 011c C4F30D03 		ubfx	r3, r4, #0, #14
 2428              	.LBE1381:
 2429              	.LBE1380:
 211:dsp/fx/fx_engine.h ****         }
 2430              		.loc 3 211 26 view .LVU643
 2431 0120 ECEE2DBA 		vfma.f32	s23, s24, s27
 2432              	.LVL156:
 2433              	.LBB1383:
 2434              	.LBB1382:
 196:dsp/fx/fx_engine.h ****             }
 2435              		.loc 3 196 65 view .LVU644
 2436 0124 25F81300 		strh	r0, [r5, r3, lsl #1]	@ movhi
 2437              	.LVL157:
 196:dsp/fx/fx_engine.h ****             }
 2438              		.loc 3 196 65 view .LVU645
 2439              	.LBE1382:
 2440              	.LBE1383:
 2441              	.LBE1379:
 2442              	.LBE1378:
 2443              	.LBE1377:
 113:dsp/fx/reverb.h ****             c.Read(ap2 TAIL, kap);
 2444              		.loc 8 113 13 is_stmt 1 view .LVU646
 2445              	.LBB1384:
 2446              	.LBI1384:
 221:dsp/fx/fx_engine.h ****         {
 2447              		.loc 3 221 21 view .LVU647
 2448              	.LBB1385:
 2449              	.LBB1386:
 2450              	.LBI1386:
  62:dsp/fx/fx_engine.h ****     {
 2451              		.loc 3 62 25 view .LVU648
 2452              	.LBB1387:
  64:dsp/fx/fx_engine.h ****     }
ARM GAS  C:\Users\daniel\AppData\Local\Temp\ccFYnhh8.s 			page 73


 2453              		.loc 3 64 9 view .LVU649
 2454              	.LBE1387:
 2455              	.LBE1386:
 227:dsp/fx/fx_engine.h ****             }
 2456              		.loc 3 227 63 is_stmt 0 view .LVU650
 2457 0128 04F21313 		addw	r3, r4, #275
 2458              	.LVL158:
 227:dsp/fx/fx_engine.h ****             }
 2459              		.loc 3 227 68 view .LVU651
 2460 012c C3F30D03 		ubfx	r3, r3, #0, #14
 2461              	.LVL159:
 2462              	.LBB1389:
 2463              	.LBB1388:
  64:dsp/fx/fx_engine.h ****     }
 2464              		.loc 3 64 16 view .LVU652
 2465 0130 35F91330 		ldrsh	r3, [r5, r3, lsl #1]
 2466 0134 08EE903A 		vmov	s17, r3	@ int
 2467              	.LVL160:
  64:dsp/fx/fx_engine.h ****     }
 2468              		.loc 3 64 16 view .LVU653
 2469 0138 F8EEE88A 		vcvt.f32.s32	s17, s17
  64:dsp/fx/fx_engine.h ****     }
 2470              		.loc 3 64 66 view .LVU654
 2471 013c 68EE88DA 		vmul.f32	s27, s17, s16
 2472              	.LVL161:
  64:dsp/fx/fx_engine.h ****     }
 2473              		.loc 3 64 66 view .LVU655
 2474              	.LBE1388:
 2475              	.LBE1389:
 235:dsp/fx/fx_engine.h ****         }
 2476              		.loc 3 235 26 view .LVU656
 2477 0140 E9EE2DBA 		vfma.f32	s23, s18, s27
 2478              	.LVL162:
 235:dsp/fx/fx_engine.h ****         }
 2479              		.loc 3 235 26 view .LVU657
 2480              	.LBE1385:
 2481              	.LBE1384:
 114:dsp/fx/reverb.h ****             c.WriteAllPass(ap2, -kap);
 2482              		.loc 8 114 13 is_stmt 1 view .LVU658
 2483              	.LBB1390:
 2484              	.LBI1390:
 215:dsp/fx/fx_engine.h ****         {
 2485              		.loc 3 215 21 view .LVU659
 2486              	.LBB1391:
 2487              	.LBI1391:
 208:dsp/fx/fx_engine.h ****         {
 2488              		.loc 3 208 21 view .LVU660
 2489              	.LBB1392:
 2490              	.LBB1393:
 2491              	.LBI1393:
 186:dsp/fx/fx_engine.h ****         {
 2492              		.loc 3 186 21 view .LVU661
 2493              	.LBB1394:
 189:dsp/fx/fx_engine.h ****             if(offset == -1)
 2494              		.loc 3 189 45 is_stmt 0 view .LVU662
 2495 0144 B0EE6B0A 		vmov.f32	s0, s23
 2496 0148 FFF7FEFF 		bl	_ZN8DataTypeIL6Format0EE8CompressEf
ARM GAS  C:\Users\daniel\AppData\Local\Temp\ccFYnhh8.s 			page 74


 2497              	.LVL163:
 196:dsp/fx/fx_engine.h ****             }
 2498              		.loc 3 196 37 view .LVU663
 2499 014c 04F17203 		add	r3, r4, #114
 2500              	.LBE1394:
 2501              	.LBE1393:
 211:dsp/fx/fx_engine.h ****         }
 2502              		.loc 3 211 26 view .LVU664
 2503 0150 ECEE2BDA 		vfma.f32	s27, s24, s23
 2504              	.LVL164:
 2505              	.LBB1396:
 2506              	.LBB1395:
 196:dsp/fx/fx_engine.h ****             }
 2507              		.loc 3 196 57 view .LVU665
 2508 0154 C3F30D03 		ubfx	r3, r3, #0, #14
 196:dsp/fx/fx_engine.h ****             }
 2509              		.loc 3 196 65 view .LVU666
 2510 0158 25F81300 		strh	r0, [r5, r3, lsl #1]	@ movhi
 2511              	.LVL165:
 196:dsp/fx/fx_engine.h ****             }
 2512              		.loc 3 196 65 view .LVU667
 2513              	.LBE1395:
 2514              	.LBE1396:
 2515              	.LBE1392:
 2516              	.LBE1391:
 2517              	.LBE1390:
 115:dsp/fx/reverb.h ****             c.Read(ap3 TAIL, kap);
 2518              		.loc 8 115 13 is_stmt 1 view .LVU668
 2519              	.LBB1397:
 2520              	.LBI1397:
 221:dsp/fx/fx_engine.h ****         {
 2521              		.loc 3 221 21 view .LVU669
 2522              	.LBB1398:
 2523              	.LBB1399:
 2524              	.LBI1399:
  62:dsp/fx/fx_engine.h ****     {
 2525              		.loc 3 62 25 view .LVU670
 2526              	.LBB1400:
  64:dsp/fx/fx_engine.h ****     }
 2527              		.loc 3 64 9 view .LVU671
 2528              	.LBE1400:
 2529              	.LBE1399:
 227:dsp/fx/fx_engine.h ****             }
 2530              		.loc 3 227 63 is_stmt 0 view .LVU672
 2531 015c 04F20523 		addw	r3, r4, #517
 2532              	.LVL166:
 227:dsp/fx/fx_engine.h ****             }
 2533              		.loc 3 227 68 view .LVU673
 2534 0160 C3F30D03 		ubfx	r3, r3, #0, #14
 2535              	.LVL167:
 2536              	.LBB1402:
 2537              	.LBB1401:
  64:dsp/fx/fx_engine.h ****     }
 2538              		.loc 3 64 16 view .LVU674
 2539 0164 35F91330 		ldrsh	r3, [r5, r3, lsl #1]
 2540 0168 08EE903A 		vmov	s17, r3	@ int
 2541              	.LVL168:
ARM GAS  C:\Users\daniel\AppData\Local\Temp\ccFYnhh8.s 			page 75


  64:dsp/fx/fx_engine.h ****     }
 2542              		.loc 3 64 16 view .LVU675
 2543 016c F8EEE88A 		vcvt.f32.s32	s17, s17
  64:dsp/fx/fx_engine.h ****     }
 2544              		.loc 3 64 66 view .LVU676
 2545 0170 68EE88BA 		vmul.f32	s23, s17, s16
 2546              	.LVL169:
  64:dsp/fx/fx_engine.h ****     }
 2547              		.loc 3 64 66 view .LVU677
 2548              	.LBE1401:
 2549              	.LBE1402:
 235:dsp/fx/fx_engine.h ****         }
 2550              		.loc 3 235 26 view .LVU678
 2551 0174 E9EE2BDA 		vfma.f32	s27, s18, s23
 2552              	.LVL170:
 235:dsp/fx/fx_engine.h ****         }
 2553              		.loc 3 235 26 view .LVU679
 2554              	.LBE1398:
 2555              	.LBE1397:
 116:dsp/fx/reverb.h ****             c.WriteAllPass(ap3, -kap);
 2556              		.loc 8 116 13 is_stmt 1 view .LVU680
 2557              	.LBB1403:
 2558              	.LBI1403:
 215:dsp/fx/fx_engine.h ****         {
 2559              		.loc 3 215 21 view .LVU681
 2560              	.LBB1404:
 2561              	.LBI1404:
 208:dsp/fx/fx_engine.h ****         {
 2562              		.loc 3 208 21 view .LVU682
 2563              	.LBB1405:
 2564              	.LBB1406:
 2565              	.LBI1406:
 186:dsp/fx/fx_engine.h ****         {
 2566              		.loc 3 186 21 view .LVU683
 2567              	.LBB1407:
 189:dsp/fx/fx_engine.h ****             if(offset == -1)
 2568              		.loc 3 189 45 is_stmt 0 view .LVU684
 2569 0178 B0EE6D0A 		vmov.f32	s0, s27
 2570 017c FFF7FEFF 		bl	_ZN8DataTypeIL6Format0EE8CompressEf
 2571              	.LVL171:
 196:dsp/fx/fx_engine.h ****             }
 2572              		.loc 3 196 37 view .LVU685
 2573 0180 04F21513 		addw	r3, r4, #277
 2574              	.LBE1407:
 2575              	.LBE1406:
 211:dsp/fx/fx_engine.h ****         }
 2576              		.loc 3 211 26 view .LVU686
 2577 0184 ECEE2DBA 		vfma.f32	s23, s24, s27
 2578              	.LVL172:
 2579              	.LBB1409:
 2580              	.LBB1408:
 196:dsp/fx/fx_engine.h ****             }
 2581              		.loc 3 196 57 view .LVU687
 2582 0188 C3F30D03 		ubfx	r3, r3, #0, #14
 196:dsp/fx/fx_engine.h ****             }
 2583              		.loc 3 196 65 view .LVU688
 2584 018c 25F81300 		strh	r0, [r5, r3, lsl #1]	@ movhi
ARM GAS  C:\Users\daniel\AppData\Local\Temp\ccFYnhh8.s 			page 76


 2585              	.LVL173:
 196:dsp/fx/fx_engine.h ****             }
 2586              		.loc 3 196 65 view .LVU689
 2587              	.LBE1408:
 2588              	.LBE1409:
 2589              	.LBE1405:
 2590              	.LBE1404:
 2591              	.LBE1403:
 117:dsp/fx/reverb.h ****             c.Read(ap4 TAIL, kap);
 2592              		.loc 8 117 13 is_stmt 1 view .LVU690
 2593              	.LBB1410:
 2594              	.LBI1410:
 221:dsp/fx/fx_engine.h ****         {
 2595              		.loc 3 221 21 view .LVU691
 2596              	.LBB1411:
 2597              	.LBB1412:
 2598              	.LBI1412:
  62:dsp/fx/fx_engine.h ****     {
 2599              		.loc 3 62 25 view .LVU692
 2600              	.LBB1413:
  64:dsp/fx/fx_engine.h ****     }
 2601              		.loc 3 64 9 view .LVU693
 2602              	.LBE1413:
 2603              	.LBE1412:
 227:dsp/fx/fx_engine.h ****             }
 2604              		.loc 3 227 63 is_stmt 0 view .LVU694
 2605 0190 04F29533 		addw	r3, r4, #917
 2606              	.LVL174:
 227:dsp/fx/fx_engine.h ****             }
 2607              		.loc 3 227 68 view .LVU695
 2608 0194 C3F30D03 		ubfx	r3, r3, #0, #14
 2609              	.LVL175:
 2610              	.LBB1415:
 2611              	.LBB1414:
  64:dsp/fx/fx_engine.h ****     }
 2612              		.loc 3 64 16 view .LVU696
 2613 0198 35F91330 		ldrsh	r3, [r5, r3, lsl #1]
 2614 019c 08EE903A 		vmov	s17, r3	@ int
 2615              	.LVL176:
  64:dsp/fx/fx_engine.h ****     }
 2616              		.loc 3 64 16 view .LVU697
 2617 01a0 F8EEE88A 		vcvt.f32.s32	s17, s17
  64:dsp/fx/fx_engine.h ****     }
 2618              		.loc 3 64 66 view .LVU698
 2619 01a4 68EE888A 		vmul.f32	s17, s17, s16
 2620              	.LVL177:
  64:dsp/fx/fx_engine.h ****     }
 2621              		.loc 3 64 66 view .LVU699
 2622              	.LBE1414:
 2623              	.LBE1415:
 235:dsp/fx/fx_engine.h ****         }
 2624              		.loc 3 235 26 view .LVU700
 2625 01a8 E9EE28BA 		vfma.f32	s23, s18, s17
 2626              	.LVL178:
 235:dsp/fx/fx_engine.h ****         }
 2627              		.loc 3 235 26 view .LVU701
 2628              	.LBE1411:
ARM GAS  C:\Users\daniel\AppData\Local\Temp\ccFYnhh8.s 			page 77


 2629              	.LBE1410:
 118:dsp/fx/reverb.h ****             c.WriteAllPass(ap4, -kap);
 2630              		.loc 8 118 13 is_stmt 1 view .LVU702
 2631              	.LBB1416:
 2632              	.LBI1416:
 215:dsp/fx/fx_engine.h ****         {
 2633              		.loc 3 215 21 view .LVU703
 2634              	.LBB1417:
 2635              	.LBI1417:
 208:dsp/fx/fx_engine.h ****         {
 2636              		.loc 3 208 21 view .LVU704
 2637              	.LBB1418:
 2638              	.LBB1419:
 2639              	.LBI1419:
 186:dsp/fx/fx_engine.h ****         {
 2640              		.loc 3 186 21 view .LVU705
 2641              	.LBB1420:
 189:dsp/fx/fx_engine.h ****             if(offset == -1)
 2642              		.loc 3 189 45 is_stmt 0 view .LVU706
 2643 01ac B0EE6B0A 		vmov.f32	s0, s23
 2644 01b0 FFF7FEFF 		bl	_ZN8DataTypeIL6Format0EE8CompressEf
 2645              	.LVL179:
 189:dsp/fx/fx_engine.h ****             if(offset == -1)
 2646              		.loc 3 189 45 view .LVU707
 2647              	.LBE1420:
 2648              	.LBE1419:
 2649              	.LBE1418:
 2650              	.LBE1417:
 2651              	.LBE1416:
 2652              	.LBB1429:
 2653              	.LBB1348:
 278:dsp/fx/fx_engine.h ****             MAKE_INTEGRAL_FRACTIONAL(offset);
 2654              		.loc 3 278 20 view .LVU708
 2655 01b4 DFED7C7A 		vldr.32	s15, .L57+12
 2656 01b8 9FED7C7A 		vldr.32	s14, .L57+16
 2657              	.LBE1348:
 2658              	.LBE1429:
 2659              	.LBB1430:
 2660              	.LBB1427:
 2661              	.LBB1425:
 2662              	.LBB1423:
 2663              	.LBB1421:
 196:dsp/fx/fx_engine.h ****             }
 2664              		.loc 3 196 37 view .LVU709
 2665 01bc 04F20723 		addw	r3, r4, #519
 2666              	.LBE1421:
 2667              	.LBE1423:
 211:dsp/fx/fx_engine.h ****         }
 2668              		.loc 3 211 26 view .LVU710
 2669 01c0 ECEE2B8A 		vfma.f32	s17, s24, s23
 2670              	.LVL180:
 211:dsp/fx/fx_engine.h ****         }
 2671              		.loc 3 211 26 view .LVU711
 2672              	.LBE1425:
 2673              	.LBE1427:
 2674              	.LBE1430:
 2675              	.LBB1431:
ARM GAS  C:\Users\daniel\AppData\Local\Temp\ccFYnhh8.s 			page 78


 2676              	.LBB1349:
 278:dsp/fx/fx_engine.h ****             MAKE_INTEGRAL_FRACTIONAL(offset);
 2677              		.loc 3 278 20 view .LVU712
 2678 01c4 AFEE277A 		vfma.f32	s14, s30, s15
 2679              	.LBE1349:
 2680              	.LBE1431:
 2681              	.LBB1432:
 2682              	.LBB1428:
 2683              	.LBB1426:
 2684              	.LBB1424:
 2685              	.LBB1422:
 196:dsp/fx/fx_engine.h ****             }
 2686              		.loc 3 196 57 view .LVU713
 2687 01c8 C3F30D03 		ubfx	r3, r3, #0, #14
 196:dsp/fx/fx_engine.h ****             }
 2688              		.loc 3 196 65 view .LVU714
 2689 01cc 25F81300 		strh	r0, [r5, r3, lsl #1]	@ movhi
 2690              	.LVL181:
 196:dsp/fx/fx_engine.h ****             }
 2691              		.loc 3 196 65 view .LVU715
 2692              	.LBE1422:
 2693              	.LBE1424:
 2694              	.LBE1426:
 2695              	.LBE1428:
 2696              	.LBE1432:
 119:dsp/fx/reverb.h ****             c.Write(apout);
 2697              		.loc 8 119 13 is_stmt 1 view .LVU716
 120:dsp/fx/reverb.h **** 
 121:dsp/fx/reverb.h ****             // Main reverb loop.
 122:dsp/fx/reverb.h ****             c.Load(apout);
 2698              		.loc 8 122 13 view .LVU717
 123:dsp/fx/reverb.h ****             c.Interpolate(del2, 4680.0f, LFO_2, 100.0f, krt);
 2699              		.loc 8 123 13 view .LVU718
 2700              	.LBB1433:
 2701              	.LBI1328:
 271:dsp/fx/fx_engine.h ****                                 float    offset,
 2702              		.loc 3 271 21 view .LVU719
 2703              	.LBB1350:
 279:dsp/fx/fx_engine.h ****             float a = DataType<format>::Decompress(
 2704              		.loc 3 279 13 is_stmt 0 view .LVU720
 2705 01d0 FDEEC77A 		vcvt.s32.f32	s15, s14
 2706              	.LVL182:
 281:dsp/fx/fx_engine.h ****             float b = DataType<format>::Decompress(
 2707              		.loc 3 281 37 view .LVU721
 2708 01d4 17EE903A 		vmov	r3, s15	@ int
 279:dsp/fx/fx_engine.h ****             float a = DataType<format>::Decompress(
 2709              		.loc 3 279 13 view .LVU722
 2710 01d8 F8EEE76A 		vcvt.f32.s32	s13, s15
 281:dsp/fx/fx_engine.h ****             float b = DataType<format>::Decompress(
 2711              		.loc 3 281 37 view .LVU723
 2712 01dc 2344     		add	r3, r3, r4
 279:dsp/fx/fx_engine.h ****             float a = DataType<format>::Decompress(
 2713              		.loc 3 279 13 view .LVU724
 2714 01de 77EE666A 		vsub.f32	s13, s14, s13
 2715              	.LVL183:
 2716              	.LBB1330:
 2717              	.LBI1330:
ARM GAS  C:\Users\daniel\AppData\Local\Temp\ccFYnhh8.s 			page 79


  62:dsp/fx/fx_engine.h ****     {
 2718              		.loc 3 62 25 is_stmt 1 view .LVU725
 2719              	.LBB1331:
  64:dsp/fx/fx_engine.h ****     }
 2720              		.loc 3 64 9 view .LVU726
 2721              	.LBE1331:
 2722              	.LBE1330:
 281:dsp/fx/fx_engine.h ****             float b = DataType<format>::Decompress(
 2723              		.loc 3 281 55 is_stmt 0 view .LVU727
 2724 01e2 03EB0902 		add	r2, r3, r9
 2725              	.LVL184:
 283:dsp/fx/fx_engine.h ****             float x        = a + (b - a) * offset_fractional;
 2726              		.loc 3 283 65 view .LVU728
 2727 01e6 03F53553 		add	r3, r3, #11584
 2728 01ea 1333     		adds	r3, r3, #19
 281:dsp/fx/fx_engine.h ****             float b = DataType<format>::Decompress(
 2729              		.loc 3 281 66 view .LVU729
 2730 01ec C2F30D02 		ubfx	r2, r2, #0, #14
 2731              	.LVL185:
 283:dsp/fx/fx_engine.h ****             float x        = a + (b - a) * offset_fractional;
 2732              		.loc 3 283 70 view .LVU730
 2733 01f0 C3F30D03 		ubfx	r3, r3, #0, #14
 2734              	.LVL186:
 2735              	.LBB1335:
 2736              	.LBB1332:
  64:dsp/fx/fx_engine.h ****     }
 2737              		.loc 3 64 16 view .LVU731
 2738 01f4 35F91220 		ldrsh	r2, [r5, r2, lsl #1]
 2739              	.LBE1332:
 2740              	.LBE1335:
 2741              	.LBB1336:
 2742              	.LBB1337:
 2743 01f8 35F91330 		ldrsh	r3, [r5, r3, lsl #1]
 2744              	.LBE1337:
 2745              	.LBE1336:
 2746              	.LBB1342:
 2747              	.LBB1333:
 2748 01fc 07EE902A 		vmov	s15, r2	@ int
 2749              	.LVL187:
  64:dsp/fx/fx_engine.h ****     }
 2750              		.loc 3 64 16 view .LVU732
 2751              	.LBE1333:
 2752              	.LBE1342:
 2753              	.LBB1343:
 2754              	.LBB1338:
 2755 0200 07EE103A 		vmov	s14, r3	@ int
 2756              	.LVL188:
  64:dsp/fx/fx_engine.h ****     }
 2757              		.loc 3 64 16 view .LVU733
 2758              	.LBE1338:
 2759              	.LBE1343:
 2760              	.LBB1344:
 2761              	.LBB1334:
 2762 0204 F8EEE77A 		vcvt.f32.s32	s15, s15
 2763              	.LVL189:
  64:dsp/fx/fx_engine.h ****     }
 2764              		.loc 3 64 16 view .LVU734
ARM GAS  C:\Users\daniel\AppData\Local\Temp\ccFYnhh8.s 			page 80


 2765              	.LBE1334:
 2766              	.LBE1344:
 2767              	.LBB1345:
 2768              	.LBI1336:
  62:dsp/fx/fx_engine.h ****     {
 2769              		.loc 3 62 25 is_stmt 1 view .LVU735
 2770              	.LBB1339:
  64:dsp/fx/fx_engine.h ****     }
 2771              		.loc 3 64 9 view .LVU736
  64:dsp/fx/fx_engine.h ****     }
 2772              		.loc 3 64 9 is_stmt 0 view .LVU737
 2773              	.LBE1339:
 2774              	.LBE1345:
 2775              	.LBE1350:
 2776              	.LBE1433:
 2777              	.LBB1434:
 2778              	.LBB1435:
 227:dsp/fx/fx_engine.h ****             }
 2779              		.loc 3 227 63 view .LVU738
 2780 0208 04F60B23 		addw	r3, r4, #2571
 2781              	.LBE1435:
 2782              	.LBE1434:
 2783              	.LBB1446:
 2784              	.LBB1351:
 2785              	.LBB1346:
 2786              	.LBB1340:
  64:dsp/fx/fx_engine.h ****     }
 2787              		.loc 3 64 16 view .LVU739
 2788 020c B8EEC77A 		vcvt.f32.s32	s14, s14
 2789              	.LBE1340:
 2790              	.LBE1346:
 2791              	.LBE1351:
 2792              	.LBE1446:
 2793              	.LBB1447:
 2794              	.LBB1442:
 227:dsp/fx/fx_engine.h ****             }
 2795              		.loc 3 227 68 view .LVU740
 2796 0210 C3F30D03 		ubfx	r3, r3, #0, #14
 2797              	.LBE1442:
 2798              	.LBE1447:
 2799              	.LBB1448:
 2800              	.LBB1352:
 2801              	.LBB1347:
 2802              	.LBB1341:
  64:dsp/fx/fx_engine.h ****     }
 2803              		.loc 3 64 66 view .LVU741
 2804 0214 27EE087A 		vmul.f32	s14, s14, s16
 2805              	.LBE1341:
 2806              	.LBE1347:
 2807              	.LBE1352:
 2808              	.LBE1448:
 2809              	.LBB1449:
 2810              	.LBB1443:
 2811              	.LBB1436:
 2812              	.LBB1437:
  64:dsp/fx/fx_engine.h ****     }
 2813              		.loc 3 64 16 view .LVU742
ARM GAS  C:\Users\daniel\AppData\Local\Temp\ccFYnhh8.s 			page 81


 2814 0218 35F91330 		ldrsh	r3, [r5, r3, lsl #1]
 2815 021c 0BEE903A 		vmov	s23, r3	@ int
 2816              	.LBE1437:
 2817              	.LBE1436:
 2818              	.LBE1443:
 2819              	.LBE1449:
 2820              	.LBB1450:
 2821              	.LBB1353:
 284:dsp/fx/fx_engine.h ****             previous_read_ = x;
 2822              		.loc 3 284 37 view .LVU743
 2823 0220 A7EEC87A 		vfms.f32	s14, s15, s16
 2824              	.LBE1353:
 2825              	.LBE1450:
 2826              	.LBB1451:
 2827              	.LBB1444:
 2828              	.LBB1440:
 2829              	.LBB1438:
  64:dsp/fx/fx_engine.h ****     }
 2830              		.loc 3 64 16 view .LVU744
 2831 0224 F8EEEBBA 		vcvt.f32.s32	s23, s23
  64:dsp/fx/fx_engine.h ****     }
 2832              		.loc 3 64 66 view .LVU745
 2833 0228 6BEE88BA 		vmul.f32	s23, s23, s16
 2834              	.LBE1438:
 2835              	.LBE1440:
 2836              	.LBE1444:
 2837              	.LBE1451:
 2838              	.LBB1452:
 2839              	.LBB1354:
 284:dsp/fx/fx_engine.h ****             previous_read_ = x;
 2840              		.loc 3 284 42 view .LVU746
 2841 022c 26EE877A 		vmul.f32	s14, s13, s14
 284:dsp/fx/fx_engine.h ****             previous_read_ = x;
 2842              		.loc 3 284 19 view .LVU747
 2843 0230 A7EE887A 		vfma.f32	s14, s15, s16
 2844              	.LVL190:
 286:dsp/fx/fx_engine.h ****         }
 2845              		.loc 3 286 26 view .LVU748
 2846 0234 F0EE687A 		vmov.f32	s15, s17
 2847              	.LVL191:
 286:dsp/fx/fx_engine.h ****         }
 2848              		.loc 3 286 26 view .LVU749
 2849 0238 EAEE877A 		vfma.f32	s15, s21, s14
 2850              	.LVL192:
 286:dsp/fx/fx_engine.h ****         }
 2851              		.loc 3 286 26 view .LVU750
 2852              	.LBE1354:
 2853              	.LBE1452:
 124:dsp/fx/reverb.h ****             c.Lp(lp_1, klp);
 2854              		.loc 8 124 13 is_stmt 1 view .LVU751
 2855              	.LBB1453:
 2856              	.LBI1453:
 244:dsp/fx/fx_engine.h ****         {
 2857              		.loc 3 244 21 view .LVU752
 2858              	.LBB1454:
 246:dsp/fx/fx_engine.h ****             accumulator_ = state;
 2859              		.loc 3 246 50 is_stmt 0 view .LVU753
ARM GAS  C:\Users\daniel\AppData\Local\Temp\ccFYnhh8.s 			page 82


 2860 023c 77EECD7A 		vsub.f32	s15, s15, s26
 246:dsp/fx/fx_engine.h ****             accumulator_ = state;
 2861              		.loc 3 246 19 view .LVU754
 2862 0240 AAEE27DA 		vfma.f32	s26, s20, s15
 2863              	.LVL193:
 246:dsp/fx/fx_engine.h ****             accumulator_ = state;
 2864              		.loc 3 246 19 view .LVU755
 2865              	.LBE1454:
 2866              	.LBE1453:
 125:dsp/fx/reverb.h ****             c.Read(dap1a TAIL, -kap);
 2867              		.loc 8 125 13 is_stmt 1 view .LVU756
 2868              	.LBB1455:
 2869              	.LBI1434:
 221:dsp/fx/fx_engine.h ****         {
 2870              		.loc 3 221 21 view .LVU757
 2871              	.LBB1445:
 2872              	.LBB1441:
 2873              	.LBI1436:
  62:dsp/fx/fx_engine.h ****     {
 2874              		.loc 3 62 25 view .LVU758
 2875              	.LBB1439:
  64:dsp/fx/fx_engine.h ****     }
 2876              		.loc 3 64 9 view .LVU759
  64:dsp/fx/fx_engine.h ****     }
 2877              		.loc 3 64 9 is_stmt 0 view .LVU760
 2878              	.LBE1439:
 2879              	.LBE1441:
 235:dsp/fx/fx_engine.h ****         }
 2880              		.loc 3 235 26 view .LVU761
 2881 0244 F0EE4DDA 		vmov.f32	s27, s26
 2882 0248 ECEE2BDA 		vfma.f32	s27, s24, s23
 2883              	.LVL194:
 235:dsp/fx/fx_engine.h ****         }
 2884              		.loc 3 235 26 view .LVU762
 2885              	.LBE1445:
 2886              	.LBE1455:
 126:dsp/fx/reverb.h ****             c.WriteAllPass(dap1a, kap);
 2887              		.loc 8 126 13 is_stmt 1 view .LVU763
 2888              	.LBB1456:
 2889              	.LBI1456:
 215:dsp/fx/fx_engine.h ****         {
 2890              		.loc 3 215 21 view .LVU764
 2891              	.LBB1457:
 2892              	.LBI1457:
 208:dsp/fx/fx_engine.h ****         {
 2893              		.loc 3 208 21 view .LVU765
 2894              	.LBB1458:
 2895              	.LBB1459:
 2896              	.LBI1459:
 186:dsp/fx/fx_engine.h ****         {
 2897              		.loc 3 186 21 view .LVU766
 2898              	.LBB1460:
 189:dsp/fx/fx_engine.h ****             if(offset == -1)
 2899              		.loc 3 189 45 is_stmt 0 view .LVU767
 2900 024c B0EE6D0A 		vmov.f32	s0, s27
 2901 0250 FFF7FEFF 		bl	_ZN8DataTypeIL6Format0EE8CompressEf
 2902              	.LVL195:
ARM GAS  C:\Users\daniel\AppData\Local\Temp\ccFYnhh8.s 			page 83


 196:dsp/fx/fx_engine.h ****             }
 2903              		.loc 3 196 37 view .LVU768
 2904 0254 04F29733 		addw	r3, r4, #919
 2905              	.LBE1460:
 2906              	.LBE1459:
 211:dsp/fx/fx_engine.h ****         }
 2907              		.loc 3 211 26 view .LVU769
 2908 0258 E9EE2DBA 		vfma.f32	s23, s18, s27
 2909              	.LVL196:
 2910              	.LBB1462:
 2911              	.LBB1461:
 196:dsp/fx/fx_engine.h ****             }
 2912              		.loc 3 196 57 view .LVU770
 2913 025c C3F30D03 		ubfx	r3, r3, #0, #14
 196:dsp/fx/fx_engine.h ****             }
 2914              		.loc 3 196 65 view .LVU771
 2915 0260 25F81300 		strh	r0, [r5, r3, lsl #1]	@ movhi
 2916              	.LVL197:
 196:dsp/fx/fx_engine.h ****             }
 2917              		.loc 3 196 65 view .LVU772
 2918              	.LBE1461:
 2919              	.LBE1462:
 2920              	.LBE1458:
 2921              	.LBE1457:
 2922              	.LBE1456:
 127:dsp/fx/reverb.h ****             c.Read(dap1b TAIL, kap);
 2923              		.loc 8 127 13 is_stmt 1 view .LVU773
 2924              	.LBB1463:
 2925              	.LBI1463:
 221:dsp/fx/fx_engine.h ****         {
 2926              		.loc 3 221 21 view .LVU774
 2927              	.LBB1464:
 2928              	.LBB1465:
 2929              	.LBI1465:
  62:dsp/fx/fx_engine.h ****     {
 2930              		.loc 3 62 25 view .LVU775
 2931              	.LBB1466:
  64:dsp/fx/fx_engine.h ****     }
 2932              		.loc 3 64 9 view .LVU776
 2933              	.LBE1466:
 2934              	.LBE1465:
 227:dsp/fx/fx_engine.h ****             }
 2935              		.loc 3 227 63 is_stmt 0 view .LVU777
 2936 0264 04F59053 		add	r3, r4, #4608
 2937 0268 0233     		adds	r3, r3, #2
 227:dsp/fx/fx_engine.h ****             }
 2938              		.loc 3 227 68 view .LVU778
 2939 026a C3F30D03 		ubfx	r3, r3, #0, #14
 2940              	.LBB1468:
 2941              	.LBB1467:
  64:dsp/fx/fx_engine.h ****     }
 2942              		.loc 3 64 16 view .LVU779
 2943 026e 35F91330 		ldrsh	r3, [r5, r3, lsl #1]
 2944 0272 0DEE903A 		vmov	s27, r3	@ int
 2945 0276 F8EEEDDA 		vcvt.f32.s32	s27, s27
  64:dsp/fx/fx_engine.h ****     }
 2946              		.loc 3 64 66 view .LVU780
ARM GAS  C:\Users\daniel\AppData\Local\Temp\ccFYnhh8.s 			page 84


 2947 027a 6DEE88DA 		vmul.f32	s27, s27, s16
 2948              	.LVL198:
  64:dsp/fx/fx_engine.h ****     }
 2949              		.loc 3 64 66 view .LVU781
 2950              	.LBE1467:
 2951              	.LBE1468:
 235:dsp/fx/fx_engine.h ****         }
 2952              		.loc 3 235 26 view .LVU782
 2953 027e E9EE2DBA 		vfma.f32	s23, s18, s27
 2954              	.LVL199:
 235:dsp/fx/fx_engine.h ****         }
 2955              		.loc 3 235 26 view .LVU783
 2956              	.LBE1464:
 2957              	.LBE1463:
 128:dsp/fx/reverb.h ****             c.WriteAllPass(dap1b, -kap);
 2958              		.loc 8 128 13 is_stmt 1 view .LVU784
 2959              	.LBB1469:
 2960              	.LBI1469:
 215:dsp/fx/fx_engine.h ****         {
 2961              		.loc 3 215 21 view .LVU785
 2962              	.LBB1470:
 2963              	.LBI1470:
 208:dsp/fx/fx_engine.h ****         {
 2964              		.loc 3 208 21 view .LVU786
 2965              	.LBB1471:
 2966              	.LBB1472:
 2967              	.LBI1472:
 186:dsp/fx/fx_engine.h ****         {
 2968              		.loc 3 186 21 view .LVU787
 186:dsp/fx/fx_engine.h ****         {
 2969              		.loc 3 186 21 is_stmt 0 view .LVU788
 2970              	.LBE1472:
 211:dsp/fx/fx_engine.h ****         }
 2971              		.loc 3 211 26 view .LVU789
 2972 0282 ECEE2BDA 		vfma.f32	s27, s24, s23
 2973              	.LVL200:
 2974              	.LBB1476:
 2975              	.LBB1473:
 189:dsp/fx/fx_engine.h ****             if(offset == -1)
 2976              		.loc 3 189 45 view .LVU790
 2977 0286 B0EE6B0A 		vmov.f32	s0, s23
 2978 028a FFF7FEFF 		bl	_ZN8DataTypeIL6Format0EE8CompressEf
 2979              	.LVL201:
 196:dsp/fx/fx_engine.h ****             }
 2980              		.loc 3 196 37 view .LVU791
 2981 028e 04F60D23 		addw	r3, r4, #2573
 2982              	.LBE1473:
 2983              	.LBE1476:
 2984              	.LBE1471:
 2985              	.LBE1470:
 2986              	.LBE1469:
 129:dsp/fx/reverb.h ****             c.Write(del1, 2.0f);
 130:dsp/fx/reverb.h ****             c.Write(wet, 0.0f);
 131:dsp/fx/reverb.h **** 
 132:dsp/fx/reverb.h ****             in_out->l += (wet - in_out->l) * amount;
 2987              		.loc 8 132 31 view .LVU792
 2988 0292 F0EE00BA 		vmov.f32	s23, #2.0e+0
ARM GAS  C:\Users\daniel\AppData\Local\Temp\ccFYnhh8.s 			page 85


 2989              	.LBB1483:
 2990              	.LBB1481:
 2991              	.LBB1479:
 2992              	.LBB1477:
 2993              	.LBB1474:
 196:dsp/fx/fx_engine.h ****             }
 2994              		.loc 3 196 57 view .LVU793
 2995 0296 C3F30D03 		ubfx	r3, r3, #0, #14
 2996              	.LBE1474:
 2997              	.LBE1477:
 2998              	.LBE1479:
 2999              	.LBE1481:
 3000              	.LBE1483:
 3001              	.LBB1484:
 3002              	.LBB1485:
 3003              	.LBB1486:
 189:dsp/fx/fx_engine.h ****             if(offset == -1)
 3004              		.loc 3 189 45 view .LVU794
 3005 029a B0EE6D0A 		vmov.f32	s0, s27
 3006              	.LBE1486:
 3007              	.LBE1485:
 3008              	.LBE1484:
 3009              	.LBB1493:
 3010              	.LBB1482:
 3011              	.LBB1480:
 3012              	.LBB1478:
 3013              	.LBB1475:
 196:dsp/fx/fx_engine.h ****             }
 3014              		.loc 3 196 65 view .LVU795
 3015 029e 25F81300 		strh	r0, [r5, r3, lsl #1]	@ movhi
 3016              	.LVL202:
 196:dsp/fx/fx_engine.h ****             }
 3017              		.loc 3 196 65 view .LVU796
 3018              	.LBE1475:
 3019              	.LBE1478:
 3020              	.LBE1480:
 3021              	.LBE1482:
 3022              	.LBE1493:
 129:dsp/fx/reverb.h ****             c.Write(del1, 2.0f);
 3023              		.loc 8 129 13 is_stmt 1 view .LVU797
 3024              	.LBB1494:
 3025              	.LBI1484:
 202:dsp/fx/fx_engine.h ****         {
 3026              		.loc 3 202 21 view .LVU798
 3027              	.LBB1490:
 3028              	.LBI1485:
 186:dsp/fx/fx_engine.h ****         {
 3029              		.loc 3 186 21 view .LVU799
 3030              	.LBB1487:
 189:dsp/fx/fx_engine.h ****             if(offset == -1)
 3031              		.loc 3 189 45 is_stmt 0 view .LVU800
 3032 02a2 FFF7FEFF 		bl	_ZN8DataTypeIL6Format0EE8CompressEf
 3033              	.LVL203:
 196:dsp/fx/fx_engine.h ****             }
 3034              		.loc 3 196 37 view .LVU801
 3035 02a6 04F59053 		add	r3, r4, #4608
 3036              	.LBE1487:
ARM GAS  C:\Users\daniel\AppData\Local\Temp\ccFYnhh8.s 			page 86


 3037              	.LBE1490:
 3038              	.LBE1494:
 3039              		.loc 8 132 31 view .LVU802
 3040 02aa F0EE6E7A 		vmov.f32	s15, s29
 3041              	.LBB1495:
 3042              	.LBB1491:
 3043              	.LBB1488:
 196:dsp/fx/fx_engine.h ****             }
 3044              		.loc 3 196 37 view .LVU803
 3045 02ae 0433     		adds	r3, r3, #4
 196:dsp/fx/fx_engine.h ****             }
 3046              		.loc 3 196 57 view .LVU804
 3047 02b0 C3F30D03 		ubfx	r3, r3, #0, #14
 3048              	.LBE1488:
 3049              	.LBE1491:
 3050              	.LBE1495:
 3051              		.loc 8 132 31 view .LVU805
 3052 02b4 DDEEAB7A 		vfnms.f32	s15, s27, s23
 3053              	.LBB1496:
 3054              	.LBB1492:
 3055              	.LBB1489:
 196:dsp/fx/fx_engine.h ****             }
 3056              		.loc 3 196 65 view .LVU806
 3057 02b8 25F81300 		strh	r0, [r5, r3, lsl #1]	@ movhi
 3058              	.LVL204:
 196:dsp/fx/fx_engine.h ****             }
 3059              		.loc 3 196 65 view .LVU807
 3060              	.LBE1489:
 3061              	.LBE1492:
 3062              	.LBE1496:
 130:dsp/fx/reverb.h **** 
 3063              		.loc 8 130 13 is_stmt 1 view .LVU808
 3064              		.loc 8 132 13 view .LVU809
 3065              	.LBB1497:
 3066              	.LBB1498:
 227:dsp/fx/fx_engine.h ****             }
 3067              		.loc 3 227 63 is_stmt 0 view .LVU810
 3068 02bc 04F5FA53 		add	r3, r4, #8000
 3069 02c0 1633     		adds	r3, r3, #22
 227:dsp/fx/fx_engine.h ****             }
 3070              		.loc 3 227 68 view .LVU811
 3071 02c2 C3F30D03 		ubfx	r3, r3, #0, #14
 3072              	.LBE1498:
 3073              	.LBE1497:
 3074              		.loc 8 132 23 view .LVU812
 3075 02c6 E7EEA9EA 		vfma.f32	s29, s15, s19
 3076              	.LBB1512:
 3077              	.LBB1507:
 3078              	.LBB1499:
 3079              	.LBB1500:
  64:dsp/fx/fx_engine.h ****     }
 3080              		.loc 3 64 16 view .LVU813
 3081 02ca 35F91330 		ldrsh	r3, [r5, r3, lsl #1]
 3082 02ce 07EE903A 		vmov	s15, r3	@ int
 3083              	.LBE1500:
 3084              	.LBE1499:
 3085              	.LBE1507:
ARM GAS  C:\Users\daniel\AppData\Local\Temp\ccFYnhh8.s 			page 87


 3086              	.LBE1512:
 3087              	.LBB1513:
 3088              	.LBB1514:
 227:dsp/fx/fx_engine.h ****             }
 3089              		.loc 3 227 63 view .LVU814
 3090 02d2 04F51B53 		add	r3, r4, #9920
 3091              	.LBE1514:
 3092              	.LBE1513:
 3093              	.LBB1523:
 3094              	.LBB1508:
 3095              	.LBB1504:
 3096              	.LBB1501:
  64:dsp/fx/fx_engine.h ****     }
 3097              		.loc 3 64 16 view .LVU815
 3098 02d6 F8EEE77A 		vcvt.f32.s32	s15, s15
 3099              	.LBE1501:
 3100              	.LBE1504:
 3101              	.LBE1508:
 3102              	.LBE1523:
 3103              	.LBB1524:
 3104              	.LBB1519:
 227:dsp/fx/fx_engine.h ****             }
 3105              		.loc 3 227 63 view .LVU816
 3106 02da 1033     		adds	r3, r3, #16
 3107              	.LBE1519:
 3108              	.LBE1524:
 3109              		.loc 8 132 23 view .LVU817
 3110 02dc 47ED04EA 		vstr.32	s29, [r7, #-16]
 133:dsp/fx/reverb.h **** 
 134:dsp/fx/reverb.h ****             c.Load(apout);
 3111              		.loc 8 134 13 is_stmt 1 view .LVU818
 135:dsp/fx/reverb.h ****             // c.Interpolate(del1, 4450.0f, LFO_1, 50.0f, krt);
 136:dsp/fx/reverb.h ****             c.Read(del1 TAIL, krt);
 3112              		.loc 8 136 13 view .LVU819
 3113              	.LVL205:
 3114              	.LBB1525:
 3115              	.LBI1497:
 221:dsp/fx/fx_engine.h ****         {
 3116              		.loc 3 221 21 view .LVU820
 3117              	.LBB1509:
 3118              	.LBB1505:
 3119              	.LBI1499:
  62:dsp/fx/fx_engine.h ****     {
 3120              		.loc 3 62 25 view .LVU821
 3121              	.LBB1502:
  64:dsp/fx/fx_engine.h ****     }
 3122              		.loc 3 64 9 view .LVU822
  64:dsp/fx/fx_engine.h ****     }
 3123              		.loc 3 64 9 is_stmt 0 view .LVU823
 3124              	.LBE1502:
 3125              	.LBE1505:
 3126              	.LBE1509:
 3127              	.LBE1525:
 3128              	.LBB1526:
 3129              	.LBB1520:
 227:dsp/fx/fx_engine.h ****             }
 3130              		.loc 3 227 68 view .LVU824
ARM GAS  C:\Users\daniel\AppData\Local\Temp\ccFYnhh8.s 			page 88


 3131 02e0 C3F30D03 		ubfx	r3, r3, #0, #14
 3132              	.LBE1520:
 3133              	.LBE1526:
 3134              	.LBB1527:
 3135              	.LBB1510:
 3136              	.LBB1506:
 3137              	.LBB1503:
  64:dsp/fx/fx_engine.h ****     }
 3138              		.loc 3 64 66 view .LVU825
 3139 02e4 67EE887A 		vmul.f32	s15, s15, s16
 3140              	.LBE1503:
 3141              	.LBE1506:
 3142              	.LBE1510:
 3143              	.LBE1527:
 3144              	.LBB1528:
 3145              	.LBB1521:
 3146              	.LBB1515:
 3147              	.LBB1516:
  64:dsp/fx/fx_engine.h ****     }
 3148              		.loc 3 64 16 view .LVU826
 3149 02e8 35F91330 		ldrsh	r3, [r5, r3, lsl #1]
 3150              	.LBE1516:
 3151              	.LBE1515:
 3152              	.LBE1521:
 3153              	.LBE1528:
 3154              	.LBB1529:
 3155              	.LBB1511:
 235:dsp/fx/fx_engine.h ****         }
 3156              		.loc 3 235 26 view .LVU827
 3157 02ec EAEEA78A 		vfma.f32	s17, s21, s15
 3158              	.LVL206:
 235:dsp/fx/fx_engine.h ****         }
 3159              		.loc 3 235 26 view .LVU828
 3160              	.LBE1511:
 3161              	.LBE1529:
 137:dsp/fx/reverb.h ****             c.Lp(lp_2, klp);
 3162              		.loc 8 137 13 is_stmt 1 view .LVU829
 3163              	.LBB1530:
 3164              	.LBI1530:
 244:dsp/fx/fx_engine.h ****         {
 3165              		.loc 3 244 21 view .LVU830
 3166              	.LBB1531:
 246:dsp/fx/fx_engine.h ****             accumulator_ = state;
 3167              		.loc 3 246 50 is_stmt 0 view .LVU831
 3168 02f0 78EEEC8A 		vsub.f32	s17, s17, s25
 246:dsp/fx/fx_engine.h ****             accumulator_ = state;
 3169              		.loc 3 246 19 view .LVU832
 3170 02f4 EAEE28CA 		vfma.f32	s25, s20, s17
 3171              	.LVL207:
 246:dsp/fx/fx_engine.h ****             accumulator_ = state;
 3172              		.loc 3 246 19 view .LVU833
 3173              	.LBE1531:
 3174              	.LBE1530:
 138:dsp/fx/reverb.h ****             c.Read(dap2a TAIL, kap);
 3175              		.loc 8 138 13 is_stmt 1 view .LVU834
 3176              	.LBB1532:
 3177              	.LBI1513:
ARM GAS  C:\Users\daniel\AppData\Local\Temp\ccFYnhh8.s 			page 89


 221:dsp/fx/fx_engine.h ****         {
 3178              		.loc 3 221 21 view .LVU835
 3179              	.LBB1522:
 3180              	.LBB1518:
 3181              	.LBI1515:
  62:dsp/fx/fx_engine.h ****     {
 3182              		.loc 3 62 25 view .LVU836
 3183              	.LBB1517:
  64:dsp/fx/fx_engine.h ****     }
 3184              		.loc 3 64 9 view .LVU837
  64:dsp/fx/fx_engine.h ****     }
 3185              		.loc 3 64 16 is_stmt 0 view .LVU838
 3186 02f8 08EE903A 		vmov	s17, r3	@ int
 3187 02fc F8EEE88A 		vcvt.f32.s32	s17, s17
  64:dsp/fx/fx_engine.h ****     }
 3188              		.loc 3 64 66 view .LVU839
 3189 0300 68EE888A 		vmul.f32	s17, s17, s16
 3190              	.LVL208:
  64:dsp/fx/fx_engine.h ****     }
 3191              		.loc 3 64 66 view .LVU840
 3192              	.LBE1517:
 3193              	.LBE1518:
 235:dsp/fx/fx_engine.h ****         }
 3194              		.loc 3 235 26 view .LVU841
 3195 0304 F0EE6CDA 		vmov.f32	s27, s25
 3196              	.LVL209:
 235:dsp/fx/fx_engine.h ****         }
 3197              		.loc 3 235 26 view .LVU842
 3198 0308 E9EE28DA 		vfma.f32	s27, s18, s17
 3199              	.LVL210:
 235:dsp/fx/fx_engine.h ****         }
 3200              		.loc 3 235 26 view .LVU843
 3201              	.LBE1522:
 3202              	.LBE1532:
 139:dsp/fx/reverb.h ****             c.WriteAllPass(dap2a, -kap);
 3203              		.loc 8 139 13 is_stmt 1 view .LVU844
 3204              	.LBB1533:
 3205              	.LBI1533:
 215:dsp/fx/fx_engine.h ****         {
 3206              		.loc 3 215 21 view .LVU845
 3207              	.LBB1534:
 3208              	.LBI1534:
 208:dsp/fx/fx_engine.h ****         {
 3209              		.loc 3 208 21 view .LVU846
 3210              	.LBB1535:
 3211              	.LBB1536:
 3212              	.LBI1536:
 186:dsp/fx/fx_engine.h ****         {
 3213              		.loc 3 186 21 view .LVU847
 3214              	.LBB1537:
 189:dsp/fx/fx_engine.h ****             if(offset == -1)
 3215              		.loc 3 189 45 is_stmt 0 view .LVU848
 3216 030c B0EE6D0A 		vmov.f32	s0, s27
 3217 0310 FFF7FEFF 		bl	_ZN8DataTypeIL6Format0EE8CompressEf
 3218              	.LVL211:
 196:dsp/fx/fx_engine.h ****             }
 3219              		.loc 3 196 37 view .LVU849
ARM GAS  C:\Users\daniel\AppData\Local\Temp\ccFYnhh8.s 			page 90


 3220 0314 04F5FA53 		add	r3, r4, #8000
 3221              	.LBE1537:
 3222              	.LBE1536:
 211:dsp/fx/fx_engine.h ****         }
 3223              		.loc 3 211 26 view .LVU850
 3224 0318 ECEE2D8A 		vfma.f32	s17, s24, s27
 3225              	.LVL212:
 3226              	.LBB1539:
 3227              	.LBB1538:
 196:dsp/fx/fx_engine.h ****             }
 3228              		.loc 3 196 37 view .LVU851
 3229 031c 1833     		adds	r3, r3, #24
 196:dsp/fx/fx_engine.h ****             }
 3230              		.loc 3 196 57 view .LVU852
 3231 031e C3F30D03 		ubfx	r3, r3, #0, #14
 196:dsp/fx/fx_engine.h ****             }
 3232              		.loc 3 196 65 view .LVU853
 3233 0322 25F81300 		strh	r0, [r5, r3, lsl #1]	@ movhi
 3234              	.LVL213:
 196:dsp/fx/fx_engine.h ****             }
 3235              		.loc 3 196 65 view .LVU854
 3236              	.LBE1538:
 3237              	.LBE1539:
 3238              	.LBE1535:
 3239              	.LBE1534:
 3240              	.LBE1533:
 140:dsp/fx/reverb.h ****             c.Read(dap2b TAIL, -kap);
 3241              		.loc 8 140 13 is_stmt 1 view .LVU855
 3242              	.LBB1540:
 3243              	.LBI1540:
 221:dsp/fx/fx_engine.h ****         {
 3244              		.loc 3 221 21 view .LVU856
 3245              	.LBB1541:
 3246              	.LBB1542:
 3247              	.LBI1542:
  62:dsp/fx/fx_engine.h ****     {
 3248              		.loc 3 62 25 view .LVU857
 3249              	.LBB1543:
  64:dsp/fx/fx_engine.h ****     }
 3250              		.loc 3 64 9 view .LVU858
 3251              	.LBE1543:
 3252              	.LBE1542:
 227:dsp/fx/fx_engine.h ****             }
