ARM GAS  /var/folders/hl/qgbwny5j0fd895c2c41bk3tw0000gp/T//ccX3fN6S.s 			page 1


   1              		.cpu cortex-m7
   2              		.eabi_attribute 28, 1
   3              		.eabi_attribute 20, 1
   4              		.eabi_attribute 21, 1
   5              		.eabi_attribute 23, 3
   6              		.eabi_attribute 24, 1
   7              		.eabi_attribute 25, 1
   8              		.eabi_attribute 26, 1
   9              		.eabi_attribute 30, 2
  10              		.eabi_attribute 34, 1
  11              		.eabi_attribute 18, 4
  12              		.file	"Nimbus.cpp"
  13              		.text
  14              	.Ltext0:
  15              		.cfi_sections	.debug_frame
  16              		.section	.text._ZN5daisy7EncoderD2Ev,"axG",%progbits,_ZN5daisy7EncoderD5Ev,comdat
  17              		.align	1
  18              		.p2align 2,,3
  19              		.weak	_ZN5daisy7EncoderD2Ev
  20              		.arch armv7e-m
  21              		.syntax unified
  22              		.thumb
  23              		.thumb_func
  24              		.fpu fpv5-d16
  26              	_ZN5daisy7EncoderD2Ev:
  27              	.LVL0:
  28              	.LFB3882:
  29              		.file 1 "../../libDaisy/src/hid/encoder.h"
   1:../../libDaisy/src/hid/encoder.h **** #pragma once
   2:../../libDaisy/src/hid/encoder.h **** #ifndef DSY_ENCODER_H
   3:../../libDaisy/src/hid/encoder.h **** #define DSY_ENCODER_H
   4:../../libDaisy/src/hid/encoder.h **** #include "daisy_core.h"
   5:../../libDaisy/src/hid/encoder.h **** #include "per/gpio.h"
   6:../../libDaisy/src/hid/encoder.h **** #include "hid/switch.h"
   7:../../libDaisy/src/hid/encoder.h **** 
   8:../../libDaisy/src/hid/encoder.h **** namespace daisy
   9:../../libDaisy/src/hid/encoder.h **** {
  10:../../libDaisy/src/hid/encoder.h **** /** 
  11:../../libDaisy/src/hid/encoder.h ****     @brief Generic Class for handling Quadrature Encoders \n 
  12:../../libDaisy/src/hid/encoder.h ****     Inspired/influenced by Mutable Instruments (pichenettes) Encoder classes
  13:../../libDaisy/src/hid/encoder.h ****     @author Stephen Hensley
  14:../../libDaisy/src/hid/encoder.h ****     @date December 2019
  15:../../libDaisy/src/hid/encoder.h ****     @ingroup controls
  16:../../libDaisy/src/hid/encoder.h **** */
  17:../../libDaisy/src/hid/encoder.h **** class Encoder
  18:../../libDaisy/src/hid/encoder.h **** {
  19:../../libDaisy/src/hid/encoder.h ****   public:
  20:../../libDaisy/src/hid/encoder.h ****     Encoder() {}
  21:../../libDaisy/src/hid/encoder.h ****     ~Encoder() {}
  30              		.loc 1 21 5 view -0
  31              		.cfi_startproc
  32              		@ args = 0, pretend = 0, frame = 0
  33              		@ frame_needed = 0, uses_anonymous_args = 0
  34              		@ link register save eliminated.
  35              	.LBB704:
  36              	.LBI704:
  37              		.file 2 "../../libDaisy/src/hid/switch.h"
ARM GAS  /var/folders/hl/qgbwny5j0fd895c2c41bk3tw0000gp/T//ccX3fN6S.s 			page 2


   1:../../libDaisy/src/hid/switch.h **** #pragma once
   2:../../libDaisy/src/hid/switch.h **** #ifndef DSY_SWITCH_H
   3:../../libDaisy/src/hid/switch.h **** #define DSY_SWITCH_H
   4:../../libDaisy/src/hid/switch.h **** #include "daisy_core.h"
   5:../../libDaisy/src/hid/switch.h **** #include "per/gpio.h"
   6:../../libDaisy/src/hid/switch.h **** #include "sys/system.h"
   7:../../libDaisy/src/hid/switch.h **** 
   8:../../libDaisy/src/hid/switch.h **** namespace daisy
   9:../../libDaisy/src/hid/switch.h **** {
  10:../../libDaisy/src/hid/switch.h **** /** 
  11:../../libDaisy/src/hid/switch.h ****     Generic Class for handling momentary/latching switches \n 
  12:../../libDaisy/src/hid/switch.h ****     Inspired/influenced by Mutable Instruments (pichenettes) Switch classes
  13:../../libDaisy/src/hid/switch.h ****     @author Stephen Hensley
  14:../../libDaisy/src/hid/switch.h ****     @date December 2019
  15:../../libDaisy/src/hid/switch.h ****     @ingroup controls
  16:../../libDaisy/src/hid/switch.h **** */
  17:../../libDaisy/src/hid/switch.h **** class Switch
  18:../../libDaisy/src/hid/switch.h **** {
  19:../../libDaisy/src/hid/switch.h ****   public:
  20:../../libDaisy/src/hid/switch.h ****     /** Specifies the expected behavior of the switch */
  21:../../libDaisy/src/hid/switch.h ****     enum Type
  22:../../libDaisy/src/hid/switch.h ****     {
  23:../../libDaisy/src/hid/switch.h ****         TYPE_TOGGLE,    /**< & */
  24:../../libDaisy/src/hid/switch.h ****         TYPE_MOMENTARY, /**< & */
  25:../../libDaisy/src/hid/switch.h ****     };
  26:../../libDaisy/src/hid/switch.h ****     /** Specifies whether the pressed is HIGH or LOW. */
  27:../../libDaisy/src/hid/switch.h ****     enum Polarity
  28:../../libDaisy/src/hid/switch.h ****     {
  29:../../libDaisy/src/hid/switch.h ****         POLARITY_NORMAL,   /**< & */
  30:../../libDaisy/src/hid/switch.h ****         POLARITY_INVERTED, /**< & */
  31:../../libDaisy/src/hid/switch.h ****     };
  32:../../libDaisy/src/hid/switch.h **** 
  33:../../libDaisy/src/hid/switch.h ****     /** Specifies whether to use built-in Pull Up/Down resistors to hold button at a given state wh
  34:../../libDaisy/src/hid/switch.h ****     enum Pull
  35:../../libDaisy/src/hid/switch.h ****     {
  36:../../libDaisy/src/hid/switch.h ****         PULL_UP,   /**< & */
  37:../../libDaisy/src/hid/switch.h ****         PULL_DOWN, /**< & */
  38:../../libDaisy/src/hid/switch.h ****         PULL_NONE, /**< & */
  39:../../libDaisy/src/hid/switch.h ****     };
  40:../../libDaisy/src/hid/switch.h **** 
  41:../../libDaisy/src/hid/switch.h ****     Switch() {}
  42:../../libDaisy/src/hid/switch.h ****     ~Switch() {}
  38              		.loc 2 42 5 view .LVU1
  39              		.loc 2 42 5 is_stmt 0 view .LVU2
  40              	.LBE704:
  41              		.loc 1 21 17 view .LVU3
  42 0000 7047     		bx	lr
  43              		.cfi_endproc
  44              	.LFE3882:
  46              		.weak	_ZN5daisy7EncoderD1Ev
  47              		.thumb_set _ZN5daisy7EncoderD1Ev,_ZN5daisy7EncoderD2Ev
  48 0002 00BF     		.section	.text._ZN23GranularProcessorCloudsD2Ev,"axG",%progbits,_ZN23GranularProcessorCloudsD5Ev,c
  49              		.align	1
  50              		.p2align 2,,3
  51              		.weak	_ZN23GranularProcessorCloudsD2Ev
  52              		.syntax unified
  53              		.thumb
ARM GAS  /var/folders/hl/qgbwny5j0fd895c2c41bk3tw0000gp/T//ccX3fN6S.s 			page 3


  54              		.thumb_func
  55              		.fpu fpv5-d16
  57              	_ZN23GranularProcessorCloudsD2Ev:
  58              	.LVL1:
  59              	.LFB5029:
  60              		.file 3 "dsp/granular_processor.h"
   1:dsp/granular_processor.h **** // Copyright 2014 Emilie Gillet.
   2:dsp/granular_processor.h **** //
   3:dsp/granular_processor.h **** // Author: Emilie Gillet (emilie.o.gillet@gmail.com)
   4:dsp/granular_processor.h **** //
   5:dsp/granular_processor.h **** // Permission is hereby granted, free of charge, to any person obtaining a copy
   6:dsp/granular_processor.h **** // of this software and associated documentation files (the "Software"), to deal
   7:dsp/granular_processor.h **** // in the Software without restriction, including without limitation the rights
   8:dsp/granular_processor.h **** // to use, copy, modify, merge, publish, distribute, sublicense, and/or sell
   9:dsp/granular_processor.h **** // copies of the Software, and to permit persons to whom the Software is
  10:dsp/granular_processor.h **** // furnished to do so, subject to the following conditions:
  11:dsp/granular_processor.h **** //
  12:dsp/granular_processor.h **** // The above copyright notice and this permission notice shall be included in
  13:dsp/granular_processor.h **** // all copies or substantial portions of the Software.
  14:dsp/granular_processor.h **** //
  15:dsp/granular_processor.h **** // THE SOFTWARE IS PROVIDED "AS IS", WITHOUT WARRANTY OF ANY KIND, EXPRESS OR
  16:dsp/granular_processor.h **** // IMPLIED, INCLUDING BUT NOT LIMITED TO THE WARRANTIES OF MERCHANTABILITY,
  17:dsp/granular_processor.h **** // FITNESS FOR A PARTICULAR PURPOSE AND NONINFRINGEMENT. IN NO EVENT SHALL THE
  18:dsp/granular_processor.h **** // AUTHORS OR COPYRIGHT HOLDERS BE LIABLE FOR ANY CLAIM, DAMAGES OR OTHER
  19:dsp/granular_processor.h **** // LIABILITY, WHETHER IN AN ACTION OF CONTRACT, TORT OR OTHERWISE, ARISING FROM,
  20:dsp/granular_processor.h **** // OUT OF OR IN CONNECTION WITH THE SOFTWARE OR THE USE OR OTHER DEALINGS IN
  21:dsp/granular_processor.h **** // THE SOFTWARE.
  22:dsp/granular_processor.h **** //
  23:dsp/granular_processor.h **** // See http://creativecommons.org/licenses/MIT/ for more information.
  24:dsp/granular_processor.h **** //
  25:dsp/granular_processor.h **** // -----------------------------------------------------------------------------
  26:dsp/granular_processor.h **** //
  27:dsp/granular_processor.h **** // Main processing class.
  28:dsp/granular_processor.h **** 
  29:dsp/granular_processor.h **** #ifndef CLOUDS_DSP_GRANULAR_PROCESSOR_H_
  30:dsp/granular_processor.h **** #define CLOUDS_DSP_GRANULAR_PROCESSOR_H_
  31:dsp/granular_processor.h **** 
  32:dsp/granular_processor.h **** #include "correlator.h"
  33:dsp/granular_processor.h **** #include "frame.h"
  34:dsp/granular_processor.h **** #include "diffuser.h"
  35:dsp/granular_processor.h **** #include "pitch_shifter.h"
  36:dsp/granular_processor.h **** #include "reverb.h"
  37:dsp/granular_processor.h **** #include "granular_processor.h"
  38:dsp/granular_processor.h **** #include "granular_sample_player.h"
  39:dsp/granular_processor.h **** #include "looping_sample_player.h"
  40:dsp/granular_processor.h **** #include "phase_vocoder.h"
  41:dsp/granular_processor.h **** #include "sample_rate_converter.h"
  42:dsp/granular_processor.h **** #include "wsola_sample_player.h"
  43:dsp/granular_processor.h **** #include "parameter_interpolator.h"
  44:dsp/granular_processor.h **** 
  45:dsp/granular_processor.h **** using namespace daisysp;
  46:dsp/granular_processor.h **** 
  47:dsp/granular_processor.h **** const int32_t kDownsamplingFactor = 2;
  48:dsp/granular_processor.h **** 
  49:dsp/granular_processor.h **** enum PlaybackMode
  50:dsp/granular_processor.h **** {
  51:dsp/granular_processor.h ****     PLAYBACK_MODE_GRANULAR,
ARM GAS  /var/folders/hl/qgbwny5j0fd895c2c41bk3tw0000gp/T//ccX3fN6S.s 			page 4


  52:dsp/granular_processor.h ****     PLAYBACK_MODE_STRETCH,
  53:dsp/granular_processor.h ****     PLAYBACK_MODE_LOOPING_DELAY,
  54:dsp/granular_processor.h ****     PLAYBACK_MODE_SPECTRAL,
  55:dsp/granular_processor.h ****     PLAYBACK_MODE_LAST
  56:dsp/granular_processor.h **** };
  57:dsp/granular_processor.h **** 
  58:dsp/granular_processor.h **** // State of the recording buffer as saved in one of the 4 sample memories.
  59:dsp/granular_processor.h **** struct PersistentState
  60:dsp/granular_processor.h **** {
  61:dsp/granular_processor.h ****     int32_t write_head[2];
  62:dsp/granular_processor.h ****     uint8_t quality;
  63:dsp/granular_processor.h ****     uint8_t spectral;
  64:dsp/granular_processor.h **** };
  65:dsp/granular_processor.h **** 
  66:dsp/granular_processor.h **** // Data block as saved in one of the 4 sample memories.
  67:dsp/granular_processor.h **** struct PersistentBlock
  68:dsp/granular_processor.h **** {
  69:dsp/granular_processor.h ****     uint32_t tag;
  70:dsp/granular_processor.h ****     uint32_t size;
  71:dsp/granular_processor.h ****     void*    data;
  72:dsp/granular_processor.h **** };
  73:dsp/granular_processor.h **** 
  74:dsp/granular_processor.h **** class GranularProcessorClouds
  75:dsp/granular_processor.h **** {
  76:dsp/granular_processor.h ****   public:
  77:dsp/granular_processor.h ****     GranularProcessorClouds() {}
  78:dsp/granular_processor.h ****     ~GranularProcessorClouds() {}
  61              		.loc 3 78 5 is_stmt 1 view -0
  62              		.cfi_startproc
  63              		@ args = 0, pretend = 0, frame = 0
  64              		@ frame_needed = 0, uses_anonymous_args = 0
  65              		@ link register save eliminated.
  66              	.LBB705:
  67              	.LBI705:
  68              		.file 4 "dsp/sample_rate_converter.h"
   1:dsp/sample_rate_converter.h **** // Copyright 2014 Emilie Gillet.
   2:dsp/sample_rate_converter.h **** //
   3:dsp/sample_rate_converter.h **** // Author: Emilie Gillet (emilie.o.gillet@gmail.com)
   4:dsp/sample_rate_converter.h **** //
   5:dsp/sample_rate_converter.h **** // Permission is hereby granted, free of charge, to any person obtaining a copy
   6:dsp/sample_rate_converter.h **** // of this software and associated documentation files (the "Software"), to deal
   7:dsp/sample_rate_converter.h **** // in the Software without restriction, including without limitation the rights
   8:dsp/sample_rate_converter.h **** // to use, copy, modify, merge, publish, distribute, sublicense, and/or sell
   9:dsp/sample_rate_converter.h **** // copies of the Software, and to permit persons to whom the Software is
  10:dsp/sample_rate_converter.h **** // furnished to do so, subject to the following conditions:
  11:dsp/sample_rate_converter.h **** //
  12:dsp/sample_rate_converter.h **** // The above copyright notice and this permission notice shall be included in
  13:dsp/sample_rate_converter.h **** // all copies or substantial portions of the Software.
  14:dsp/sample_rate_converter.h **** //
  15:dsp/sample_rate_converter.h **** // THE SOFTWARE IS PROVIDED "AS IS", WITHOUT WARRANTY OF ANY KIND, EXPRESS OR
  16:dsp/sample_rate_converter.h **** // IMPLIED, INCLUDING BUT NOT LIMITED TO THE WARRANTIES OF MERCHANTABILITY,
  17:dsp/sample_rate_converter.h **** // FITNESS FOR A PARTICULAR PURPOSE AND NONINFRINGEMENT. IN NO EVENT SHALL THE
  18:dsp/sample_rate_converter.h **** // AUTHORS OR COPYRIGHT HOLDERS BE LIABLE FOR ANY CLAIM, DAMAGES OR OTHER
  19:dsp/sample_rate_converter.h **** // LIABILITY, WHETHER IN AN ACTION OF CONTRACT, TORT OR OTHERWISE, ARISING FROM,
  20:dsp/sample_rate_converter.h **** // OUT OF OR IN CONNECTION WITH THE SOFTWARE OR THE USE OR OTHER DEALINGS IN
  21:dsp/sample_rate_converter.h **** // THE SOFTWARE.
  22:dsp/sample_rate_converter.h **** //
ARM GAS  /var/folders/hl/qgbwny5j0fd895c2c41bk3tw0000gp/T//ccX3fN6S.s 			page 5


  23:dsp/sample_rate_converter.h **** // See http://creativecommons.org/licenses/MIT/ for more information.
  24:dsp/sample_rate_converter.h **** //
  25:dsp/sample_rate_converter.h **** // -----------------------------------------------------------------------------
  26:dsp/sample_rate_converter.h **** //
  27:dsp/sample_rate_converter.h **** // Sample rate converter
  28:dsp/sample_rate_converter.h **** 
  29:dsp/sample_rate_converter.h **** #ifndef CLOUDS_DSP_SAMPLE_RATE_CONVERTER_H_
  30:dsp/sample_rate_converter.h **** #define CLOUDS_DSP_SAMPLE_RATE_CONVERTER_H_
  31:dsp/sample_rate_converter.h **** 
  32:dsp/sample_rate_converter.h **** #include "frame.h"
  33:dsp/sample_rate_converter.h **** 
  34:dsp/sample_rate_converter.h **** using namespace daisysp;
  35:dsp/sample_rate_converter.h **** 
  36:dsp/sample_rate_converter.h **** template <int32_t ratio, int32_t filter_size, const float* coefficients>
  37:dsp/sample_rate_converter.h **** class SampleRateConverter
  38:dsp/sample_rate_converter.h **** {
  39:dsp/sample_rate_converter.h ****   public:
  40:dsp/sample_rate_converter.h ****     SampleRateConverter() {}
  41:dsp/sample_rate_converter.h ****     ~SampleRateConverter() {}
  69              		.loc 4 41 5 view .LVU5
  70              		.loc 4 41 5 is_stmt 0 view .LVU6
  71              	.LBE705:
  72              	.LBB706:
  73              	.LBI706:
  74              		.loc 4 41 5 is_stmt 1 view .LVU7
  75              		.loc 4 41 5 is_stmt 0 view .LVU8
  76              	.LBE706:
  77              	.LBB707:
  78              	.LBI707:
  79              		.file 5 "dsp/fx/pitch_shifter.h"
   1:dsp/fx/pitch_shifter.h **** // Copyright 2014 Emilie Gillet.
   2:dsp/fx/pitch_shifter.h **** //
   3:dsp/fx/pitch_shifter.h **** // Author: Emilie Gillet (emilie.o.gillet@gmail.com)
   4:dsp/fx/pitch_shifter.h **** //
   5:dsp/fx/pitch_shifter.h **** // Permission is hereby granted, free of charge, to any person obtaining a copy
   6:dsp/fx/pitch_shifter.h **** // of this software and associated documentation files (the "Software"), to deal
   7:dsp/fx/pitch_shifter.h **** // in the Software without restriction, including without limitation the rights
   8:dsp/fx/pitch_shifter.h **** // to use, copy, modify, merge, publish, distribute, sublicense, and/or sell
   9:dsp/fx/pitch_shifter.h **** // copies of the Software, and to permit persons to whom the Software is
  10:dsp/fx/pitch_shifter.h **** // furnished to do so, subject to the following conditions:
  11:dsp/fx/pitch_shifter.h **** //
  12:dsp/fx/pitch_shifter.h **** // The above copyright notice and this permission notice shall be included in
  13:dsp/fx/pitch_shifter.h **** // all copies or substantial portions of the Software.
  14:dsp/fx/pitch_shifter.h **** //
  15:dsp/fx/pitch_shifter.h **** // THE SOFTWARE IS PROVIDED "AS IS", WITHOUT WARRANTY OF ANY KIND, EXPRESS OR
  16:dsp/fx/pitch_shifter.h **** // IMPLIED, INCLUDING BUT NOT LIMITED TO THE WARRANTIES OF MERCHANTABILITY,
  17:dsp/fx/pitch_shifter.h **** // FITNESS FOR A PARTICULAR PURPOSE AND NONINFRINGEMENT. IN NO EVENT SHALL THE
  18:dsp/fx/pitch_shifter.h **** // AUTHORS OR COPYRIGHT HOLDERS BE LIABLE FOR ANY CLAIM, DAMAGES OR OTHER
  19:dsp/fx/pitch_shifter.h **** // LIABILITY, WHETHER IN AN ACTION OF CONTRACT, TORT OR OTHERWISE, ARISING FROM,
  20:dsp/fx/pitch_shifter.h **** // OUT OF OR IN CONNECTION WITH THE SOFTWARE OR THE USE OR OTHER DEALINGS IN
  21:dsp/fx/pitch_shifter.h **** // THE SOFTWARE.
  22:dsp/fx/pitch_shifter.h **** //
  23:dsp/fx/pitch_shifter.h **** // See http://creativecommons.org/licenses/MIT/ for more information.
  24:dsp/fx/pitch_shifter.h **** //
  25:dsp/fx/pitch_shifter.h **** // -----------------------------------------------------------------------------
  26:dsp/fx/pitch_shifter.h **** //
  27:dsp/fx/pitch_shifter.h **** // Pitch shifter.
ARM GAS  /var/folders/hl/qgbwny5j0fd895c2c41bk3tw0000gp/T//ccX3fN6S.s 			page 6


  28:dsp/fx/pitch_shifter.h **** 
  29:dsp/fx/pitch_shifter.h **** #ifndef CLOUDS_DSP_FX_PITCH_SHIFTER_H_
  30:dsp/fx/pitch_shifter.h **** #define CLOUDS_DSP_FX_PITCH_SHIFTER_H_
  31:dsp/fx/pitch_shifter.h **** 
  32:dsp/fx/pitch_shifter.h **** 
  33:dsp/fx/pitch_shifter.h **** #include "frame.h"
  34:dsp/fx/pitch_shifter.h **** #include "fx_engine.h"
  35:dsp/fx/pitch_shifter.h **** 
  36:dsp/fx/pitch_shifter.h **** using namespace daisysp;
  37:dsp/fx/pitch_shifter.h **** 
  38:dsp/fx/pitch_shifter.h **** class PitchShifterClouds
  39:dsp/fx/pitch_shifter.h **** {
  40:dsp/fx/pitch_shifter.h ****   public:
  41:dsp/fx/pitch_shifter.h ****     PitchShifterClouds() {}
  42:dsp/fx/pitch_shifter.h ****     ~PitchShifterClouds() {}
  80              		.loc 5 42 5 is_stmt 1 view .LVU9
  81              	.LBB708:
  82              	.LBI708:
  83              		.file 6 "dsp/fx/fx_engine.h"
   1:dsp/fx/fx_engine.h **** // Copyright 2014 Emilie Gillet.
   2:dsp/fx/fx_engine.h **** //
   3:dsp/fx/fx_engine.h **** // Author: Emilie Gillet (emilie.o.gillet@gmail.com)
   4:dsp/fx/fx_engine.h **** //
   5:dsp/fx/fx_engine.h **** // Permission is hereby granted, free of charge, to any person obtaining a copy
   6:dsp/fx/fx_engine.h **** // of this software and associated documentation files (the "Software"), to deal
   7:dsp/fx/fx_engine.h **** // in the Software without restriction, including without limitation the rights
   8:dsp/fx/fx_engine.h **** // to use, copy, modify, merge, publish, distribute, sublicense, and/or sell
   9:dsp/fx/fx_engine.h **** // copies of the Software, and to permit persons to whom the Software is
  10:dsp/fx/fx_engine.h **** // furnished to do so, subject to the following conditions:
  11:dsp/fx/fx_engine.h **** //
  12:dsp/fx/fx_engine.h **** // The above copyright notice and this permission notice shall be included in
  13:dsp/fx/fx_engine.h **** // all copies or substantial portions of the Software.
  14:dsp/fx/fx_engine.h **** //
  15:dsp/fx/fx_engine.h **** // THE SOFTWARE IS PROVIDED "AS IS", WITHOUT WARRANTY OF ANY KIND, EXPRESS OR
  16:dsp/fx/fx_engine.h **** // IMPLIED, INCLUDING BUT NOT LIMITED TO THE WARRANTIES OF MERCHANTABILITY,
  17:dsp/fx/fx_engine.h **** // FITNESS FOR A PARTICULAR PURPOSE AND NONINFRINGEMENT. IN NO EVENT SHALL THE
  18:dsp/fx/fx_engine.h **** // AUTHORS OR COPYRIGHT HOLDERS BE LIABLE FOR ANY CLAIM, DAMAGES OR OTHER
  19:dsp/fx/fx_engine.h **** // LIABILITY, WHETHER IN AN ACTION OF CONTRACT, TORT OR OTHERWISE, ARISING FROM,
  20:dsp/fx/fx_engine.h **** // OUT OF OR IN CONNECTION WITH THE SOFTWARE OR THE USE OR OTHER DEALINGS IN
  21:dsp/fx/fx_engine.h **** // THE SOFTWARE.
  22:dsp/fx/fx_engine.h **** //
  23:dsp/fx/fx_engine.h **** // See http://creativecommons.org/licenses/MIT/ for more information.
  24:dsp/fx/fx_engine.h **** //
  25:dsp/fx/fx_engine.h **** // -----------------------------------------------------------------------------
  26:dsp/fx/fx_engine.h **** //
  27:dsp/fx/fx_engine.h **** // Base class for building reverbs.
  28:dsp/fx/fx_engine.h **** 
  29:dsp/fx/fx_engine.h **** #ifndef CLOUDS_DSP_FX_FX_ENGINE_H_
  30:dsp/fx/fx_engine.h **** #define CLOUDS_DSP_FX_FX_ENGINE_H_
  31:dsp/fx/fx_engine.h **** 
  32:dsp/fx/fx_engine.h **** #include <algorithm>
  33:dsp/fx/fx_engine.h **** #include "stmtemp.h"
  34:dsp/fx/fx_engine.h **** 
  35:dsp/fx/fx_engine.h **** using namespace daisysp;
  36:dsp/fx/fx_engine.h **** 
  37:dsp/fx/fx_engine.h **** #define TAIL , -1
  38:dsp/fx/fx_engine.h **** 
ARM GAS  /var/folders/hl/qgbwny5j0fd895c2c41bk3tw0000gp/T//ccX3fN6S.s 			page 7


  39:dsp/fx/fx_engine.h **** enum Format
  40:dsp/fx/fx_engine.h **** {
  41:dsp/fx/fx_engine.h ****     FORMAT_12_BIT,
  42:dsp/fx/fx_engine.h ****     FORMAT_16_BIT,
  43:dsp/fx/fx_engine.h ****     FORMAT_32_BIT
  44:dsp/fx/fx_engine.h **** };
  45:dsp/fx/fx_engine.h **** 
  46:dsp/fx/fx_engine.h **** enum LFOIndex
  47:dsp/fx/fx_engine.h **** {
  48:dsp/fx/fx_engine.h ****     LFO_1,
  49:dsp/fx/fx_engine.h ****     LFO_2
  50:dsp/fx/fx_engine.h **** };
  51:dsp/fx/fx_engine.h **** 
  52:dsp/fx/fx_engine.h **** template <Format format>
  53:dsp/fx/fx_engine.h **** struct DataType
  54:dsp/fx/fx_engine.h **** {
  55:dsp/fx/fx_engine.h **** };
  56:dsp/fx/fx_engine.h **** 
  57:dsp/fx/fx_engine.h **** template <>
  58:dsp/fx/fx_engine.h **** struct DataType<FORMAT_12_BIT>
  59:dsp/fx/fx_engine.h **** {
  60:dsp/fx/fx_engine.h ****     typedef uint16_t T;
  61:dsp/fx/fx_engine.h **** 
  62:dsp/fx/fx_engine.h ****     static inline float Decompress(T value)
  63:dsp/fx/fx_engine.h ****     {
  64:dsp/fx/fx_engine.h ****         return static_cast<float>(static_cast<int16_t>(value)) / 4096.0f;
  65:dsp/fx/fx_engine.h ****     }
  66:dsp/fx/fx_engine.h **** 
  67:dsp/fx/fx_engine.h ****     static inline T Compress(float value)
  68:dsp/fx/fx_engine.h ****     {
  69:dsp/fx/fx_engine.h ****         return static_cast<uint16_t>(
  70:dsp/fx/fx_engine.h ****             Clip16(static_cast<int32_t>(value * 4096.0f)));
  71:dsp/fx/fx_engine.h ****     }
  72:dsp/fx/fx_engine.h **** };
  73:dsp/fx/fx_engine.h **** 
  74:dsp/fx/fx_engine.h **** template <>
  75:dsp/fx/fx_engine.h **** struct DataType<FORMAT_16_BIT>
  76:dsp/fx/fx_engine.h **** {
  77:dsp/fx/fx_engine.h ****     typedef uint16_t T;
  78:dsp/fx/fx_engine.h **** 
  79:dsp/fx/fx_engine.h ****     static inline float Decompress(T value)
  80:dsp/fx/fx_engine.h ****     {
  81:dsp/fx/fx_engine.h ****         return static_cast<float>(static_cast<int16_t>(value)) / 32768.0f;
  82:dsp/fx/fx_engine.h ****     }
  83:dsp/fx/fx_engine.h **** 
  84:dsp/fx/fx_engine.h ****     static inline T Compress(float value)
  85:dsp/fx/fx_engine.h ****     {
  86:dsp/fx/fx_engine.h ****         return static_cast<uint16_t>(
  87:dsp/fx/fx_engine.h ****             Clip16(static_cast<int32_t>(value * 32768.0f)));
  88:dsp/fx/fx_engine.h ****     }
  89:dsp/fx/fx_engine.h **** };
  90:dsp/fx/fx_engine.h **** 
  91:dsp/fx/fx_engine.h **** template <>
  92:dsp/fx/fx_engine.h **** struct DataType<FORMAT_32_BIT>
  93:dsp/fx/fx_engine.h **** {
  94:dsp/fx/fx_engine.h ****     typedef float T;
  95:dsp/fx/fx_engine.h **** 
ARM GAS  /var/folders/hl/qgbwny5j0fd895c2c41bk3tw0000gp/T//ccX3fN6S.s 			page 8


  96:dsp/fx/fx_engine.h ****     static inline float Decompress(T value)
  97:dsp/fx/fx_engine.h ****     {
  98:dsp/fx/fx_engine.h ****         return value;
  99:dsp/fx/fx_engine.h ****         ;
 100:dsp/fx/fx_engine.h ****     }
 101:dsp/fx/fx_engine.h **** 
 102:dsp/fx/fx_engine.h ****     static inline T Compress(float value) { return value; }
 103:dsp/fx/fx_engine.h **** };
 104:dsp/fx/fx_engine.h **** 
 105:dsp/fx/fx_engine.h **** template <size_t size, Format format = FORMAT_12_BIT>
 106:dsp/fx/fx_engine.h **** class FxEngine
 107:dsp/fx/fx_engine.h **** {
 108:dsp/fx/fx_engine.h ****   public:
 109:dsp/fx/fx_engine.h ****     typedef typename DataType<format>::T T;
 110:dsp/fx/fx_engine.h ****     FxEngine() {}
 111:dsp/fx/fx_engine.h ****     ~FxEngine() {}
  84              		.loc 6 111 5 view .LVU10
  85              		.loc 6 111 5 is_stmt 0 view .LVU11
  86              	.LBE708:
  87              	.LBE707:
  88              	.LBB709:
  89              	.LBI709:
  90              		.file 7 "dsp/fx/reverb.h"
   1:dsp/fx/reverb.h **** // Copyright 2014 Emilie Gillet.
   2:dsp/fx/reverb.h **** //
   3:dsp/fx/reverb.h **** // Author: Emilie Gillet (emilie.o.gillet@gmail.com)
   4:dsp/fx/reverb.h **** //
   5:dsp/fx/reverb.h **** // Permission is hereby granted, free of charge, to any person obtaining a copy
   6:dsp/fx/reverb.h **** // of this software and associated documentation files (the "Software"), to deal
   7:dsp/fx/reverb.h **** // in the Software without restriction, including without limitation the rights
   8:dsp/fx/reverb.h **** // to use, copy, modify, merge, publish, distribute, sublicense, and/or sell
   9:dsp/fx/reverb.h **** // copies of the Software, and to permit persons to whom the Software is
  10:dsp/fx/reverb.h **** // furnished to do so, subject to the following conditions:
  11:dsp/fx/reverb.h **** //
  12:dsp/fx/reverb.h **** // The above copyright notice and this permission notice shall be included in
  13:dsp/fx/reverb.h **** // all copies or substantial portions of the Software.
  14:dsp/fx/reverb.h **** //
  15:dsp/fx/reverb.h **** // THE SOFTWARE IS PROVIDED "AS IS", WITHOUT WARRANTY OF ANY KIND, EXPRESS OR
  16:dsp/fx/reverb.h **** // IMPLIED, INCLUDING BUT NOT LIMITED TO THE WARRANTIES OF MERCHANTABILITY,
  17:dsp/fx/reverb.h **** // FITNESS FOR A PARTICULAR PURPOSE AND NONINFRINGEMENT. IN NO EVENT SHALL THE
  18:dsp/fx/reverb.h **** // AUTHORS OR COPYRIGHT HOLDERS BE LIABLE FOR ANY CLAIM, DAMAGES OR OTHER
  19:dsp/fx/reverb.h **** // LIABILITY, WHETHER IN AN ACTION OF CONTRACT, TORT OR OTHERWISE, ARISING FROM,
  20:dsp/fx/reverb.h **** // OUT OF OR IN CONNECTION WITH THE SOFTWARE OR THE USE OR OTHER DEALINGS IN
  21:dsp/fx/reverb.h **** // THE SOFTWARE.
  22:dsp/fx/reverb.h **** //
  23:dsp/fx/reverb.h **** // See http://creativecommons.org/licenses/MIT/ for more information.
  24:dsp/fx/reverb.h **** //
  25:dsp/fx/reverb.h **** // -----------------------------------------------------------------------------
  26:dsp/fx/reverb.h **** //
  27:dsp/fx/reverb.h **** // Reverb.
  28:dsp/fx/reverb.h **** 
  29:dsp/fx/reverb.h **** #ifndef CLOUDS_DSP_FX_REVERB_H_
  30:dsp/fx/reverb.h **** #define CLOUDS_DSP_FX_REVERB_H_
  31:dsp/fx/reverb.h **** 
  32:dsp/fx/reverb.h **** 
  33:dsp/fx/reverb.h **** #include "fx_engine.h"
  34:dsp/fx/reverb.h **** 
ARM GAS  /var/folders/hl/qgbwny5j0fd895c2c41bk3tw0000gp/T//ccX3fN6S.s 			page 9


  35:dsp/fx/reverb.h **** using namespace daisysp;
  36:dsp/fx/reverb.h **** 
  37:dsp/fx/reverb.h **** class Reverb
  38:dsp/fx/reverb.h **** {
  39:dsp/fx/reverb.h ****   public:
  40:dsp/fx/reverb.h ****     Reverb() {}
  41:dsp/fx/reverb.h ****     ~Reverb() {}
  91              		.loc 7 41 5 is_stmt 1 view .LVU12
  92              	.LBB710:
  93              	.LBI710:
  94              		.loc 6 111 5 view .LVU13
  95              		.loc 6 111 5 is_stmt 0 view .LVU14
  96              	.LBE710:
  97              	.LBE709:
  98              	.LBB711:
  99              	.LBI711:
 100              		.file 8 "dsp/fx/diffuser.h"
   1:dsp/fx/diffuser.h **** // Copyright 2014 Emilie Gillet.
   2:dsp/fx/diffuser.h **** //
   3:dsp/fx/diffuser.h **** // Author: Emilie Gillet (emilie.o.gillet@gmail.com)
   4:dsp/fx/diffuser.h **** //
   5:dsp/fx/diffuser.h **** // Permission is hereby granted, free of charge, to any person obtaining a copy
   6:dsp/fx/diffuser.h **** // of this software and associated documentation files (the "Software"), to deal
   7:dsp/fx/diffuser.h **** // in the Software without restriction, including without limitation the rights
   8:dsp/fx/diffuser.h **** // to use, copy, modify, merge, publish, distribute, sublicense, and/or sell
   9:dsp/fx/diffuser.h **** // copies of the Software, and to permit persons to whom the Software is
  10:dsp/fx/diffuser.h **** // furnished to do so, subject to the following conditions:
  11:dsp/fx/diffuser.h **** //
  12:dsp/fx/diffuser.h **** // The above copyright notice and this permission notice shall be included in
  13:dsp/fx/diffuser.h **** // all copies or substantial portions of the Software.
  14:dsp/fx/diffuser.h **** //
  15:dsp/fx/diffuser.h **** // THE SOFTWARE IS PROVIDED "AS IS", WITHOUT WARRANTY OF ANY KIND, EXPRESS OR
  16:dsp/fx/diffuser.h **** // IMPLIED, INCLUDING BUT NOT LIMITED TO THE WARRANTIES OF MERCHANTABILITY,
  17:dsp/fx/diffuser.h **** // FITNESS FOR A PARTICULAR PURPOSE AND NONINFRINGEMENT. IN NO EVENT SHALL THE
  18:dsp/fx/diffuser.h **** // AUTHORS OR COPYRIGHT HOLDERS BE LIABLE FOR ANY CLAIM, DAMAGES OR OTHER
  19:dsp/fx/diffuser.h **** // LIABILITY, WHETHER IN AN ACTION OF CONTRACT, TORT OR OTHERWISE, ARISING FROM,
  20:dsp/fx/diffuser.h **** // OUT OF OR IN CONNECTION WITH THE SOFTWARE OR THE USE OR OTHER DEALINGS IN
  21:dsp/fx/diffuser.h **** // THE SOFTWARE.
  22:dsp/fx/diffuser.h **** //
  23:dsp/fx/diffuser.h **** // See http://creativecommons.org/licenses/MIT/ for more information.
  24:dsp/fx/diffuser.h **** //
  25:dsp/fx/diffuser.h **** // -----------------------------------------------------------------------------
  26:dsp/fx/diffuser.h **** //
  27:dsp/fx/diffuser.h **** // AP diffusion network.
  28:dsp/fx/diffuser.h **** 
  29:dsp/fx/diffuser.h **** #ifndef CLOUDS_DSP_FX_DIFFUSER_H_
  30:dsp/fx/diffuser.h **** #define CLOUDS_DSP_FX_DIFFUSER_H_
  31:dsp/fx/diffuser.h **** 
  32:dsp/fx/diffuser.h **** #include "fx_engine.h"
  33:dsp/fx/diffuser.h **** 
  34:dsp/fx/diffuser.h **** using namespace daisysp;
  35:dsp/fx/diffuser.h **** 
  36:dsp/fx/diffuser.h **** class Diffuser
  37:dsp/fx/diffuser.h **** {
  38:dsp/fx/diffuser.h ****   public:
  39:dsp/fx/diffuser.h ****     Diffuser() {}
  40:dsp/fx/diffuser.h ****     ~Diffuser() {}
ARM GAS  /var/folders/hl/qgbwny5j0fd895c2c41bk3tw0000gp/T//ccX3fN6S.s 			page 10


 101              		.loc 8 40 5 is_stmt 1 view .LVU15
 102              	.LBB712:
 103              	.LBI712:
 104              		.loc 6 111 5 view .LVU16
 105              		.loc 6 111 5 is_stmt 0 view .LVU17
 106              	.LBE712:
 107              	.LBE711:
 108              	.LBB713:
 109              	.LBI713:
 110              		.file 9 "dsp/pvoc/phase_vocoder.h"
   1:dsp/pvoc/phase_vocoder.h **** // Copyright 2014 Emilie Gillet.
   2:dsp/pvoc/phase_vocoder.h **** //
   3:dsp/pvoc/phase_vocoder.h **** // Author: Emilie Gillet (emilie.o.gillet@gmail.com)
   4:dsp/pvoc/phase_vocoder.h **** //
   5:dsp/pvoc/phase_vocoder.h **** // Permission is hereby granted, free of charge, to any person obtaining a copy
   6:dsp/pvoc/phase_vocoder.h **** // of this software and associated documentation files (the "Software"), to deal
   7:dsp/pvoc/phase_vocoder.h **** // in the Software without restriction, including without limitation the rights
   8:dsp/pvoc/phase_vocoder.h **** // to use, copy, modify, merge, publish, distribute, sublicense, and/or sell
   9:dsp/pvoc/phase_vocoder.h **** // copies of the Software, and to permit persons to whom the Software is
  10:dsp/pvoc/phase_vocoder.h **** // furnished to do so, subject to the following conditions:
  11:dsp/pvoc/phase_vocoder.h **** //
  12:dsp/pvoc/phase_vocoder.h **** // The above copyright notice and this permission notice shall be included in
  13:dsp/pvoc/phase_vocoder.h **** // all copies or substantial portions of the Software.
  14:dsp/pvoc/phase_vocoder.h **** //
  15:dsp/pvoc/phase_vocoder.h **** // THE SOFTWARE IS PROVIDED "AS IS", WITHOUT WARRANTY OF ANY KIND, EXPRESS OR
  16:dsp/pvoc/phase_vocoder.h **** // IMPLIED, INCLUDING BUT NOT LIMITED TO THE WARRANTIES OF MERCHANTABILITY,
  17:dsp/pvoc/phase_vocoder.h **** // FITNESS FOR A PARTICULAR PURPOSE AND NONINFRINGEMENT. IN NO EVENT SHALL THE
  18:dsp/pvoc/phase_vocoder.h **** // AUTHORS OR COPYRIGHT HOLDERS BE LIABLE FOR ANY CLAIM, DAMAGES OR OTHER
  19:dsp/pvoc/phase_vocoder.h **** // LIABILITY, WHETHER IN AN ACTION OF CONTRACT, TORT OR OTHERWISE, ARISING FROM,
  20:dsp/pvoc/phase_vocoder.h **** // OUT OF OR IN CONNECTION WITH THE SOFTWARE OR THE USE OR OTHER DEALINGS IN
  21:dsp/pvoc/phase_vocoder.h **** // THE SOFTWARE.
  22:dsp/pvoc/phase_vocoder.h **** //
  23:dsp/pvoc/phase_vocoder.h **** // See http://creativecommons.org/licenses/MIT/ for more information.
  24:dsp/pvoc/phase_vocoder.h **** //
  25:dsp/pvoc/phase_vocoder.h **** // -----------------------------------------------------------------------------
  26:dsp/pvoc/phase_vocoder.h **** //
  27:dsp/pvoc/phase_vocoder.h **** // Naive phase vocoder.
  28:dsp/pvoc/phase_vocoder.h **** 
  29:dsp/pvoc/phase_vocoder.h **** #ifndef CLOUDS_DSP_PVOC_PHASE_VOCODER_H_
  30:dsp/pvoc/phase_vocoder.h **** #define CLOUDS_DSP_PVOC_PHASE_VOCODER_H_
  31:dsp/pvoc/phase_vocoder.h **** 
  32:dsp/pvoc/phase_vocoder.h **** #include "frame.h"
  33:dsp/pvoc/phase_vocoder.h **** #include "stft.h"
  34:dsp/pvoc/phase_vocoder.h **** #include "frame_transformation.h"
  35:dsp/pvoc/phase_vocoder.h **** 
  36:dsp/pvoc/phase_vocoder.h **** using namespace daisysp;
  37:dsp/pvoc/phase_vocoder.h **** 
  38:dsp/pvoc/phase_vocoder.h **** struct Parameters;
  39:dsp/pvoc/phase_vocoder.h **** 
  40:dsp/pvoc/phase_vocoder.h **** class PhaseVocoder
  41:dsp/pvoc/phase_vocoder.h **** {
  42:dsp/pvoc/phase_vocoder.h ****   public:
  43:dsp/pvoc/phase_vocoder.h ****     PhaseVocoder() {}
  44:dsp/pvoc/phase_vocoder.h ****     ~PhaseVocoder() {}
 111              		.loc 9 44 5 is_stmt 1 view .LVU18
 112              	.LBB714:
 113              	.LBI714:
ARM GAS  /var/folders/hl/qgbwny5j0fd895c2c41bk3tw0000gp/T//ccX3fN6S.s 			page 11


 114              		.file 10 "./shy_fft.h"
   1:./shy_fft.h   **** // Copyright 2014 Emilie Gillet.
   2:./shy_fft.h   **** //
   3:./shy_fft.h   **** // Author: Emilie Gillet (emilie.o.gillet@gmail.com)
   4:./shy_fft.h   **** //
   5:./shy_fft.h   **** // Permission is hereby granted, free of charge, to any person obtaining a copy
   6:./shy_fft.h   **** // of this software and associated documentation files (the "Software"), to deal
   7:./shy_fft.h   **** // in the Software without restriction, including without limitation the rights
   8:./shy_fft.h   **** // to use, copy, modify, merge, publish, distribute, sublicense, and/or sell
   9:./shy_fft.h   **** // copies of the Software, and to permit persons to whom the Software is
  10:./shy_fft.h   **** // furnished to do so, subject to the following conditions:
  11:./shy_fft.h   **** //
  12:./shy_fft.h   **** // The above copyright notice and this permission notice shall be included in
  13:./shy_fft.h   **** // all copies or substantial portions of the Software.
  14:./shy_fft.h   **** //
  15:./shy_fft.h   **** // THE SOFTWARE IS PROVIDED "AS IS", WITHOUT WARRANTY OF ANY KIND, EXPRESS OR
  16:./shy_fft.h   **** // IMPLIED, INCLUDING BUT NOT LIMITED TO THE WARRANTIES OF MERCHANTABILITY,
  17:./shy_fft.h   **** // FITNESS FOR A PARTICULAR PURPOSE AND NONINFRINGEMENT. IN NO EVENT SHALL THE
  18:./shy_fft.h   **** // AUTHORS OR COPYRIGHT HOLDERS BE LIABLE FOR ANY CLAIM, DAMAGES OR OTHER
  19:./shy_fft.h   **** // LIABILITY, WHETHER IN AN ACTION OF CONTRACT, TORT OR OTHERWISE, ARISING FROM,
  20:./shy_fft.h   **** // OUT OF OR IN CONNECTION WITH THE SOFTWARE OR THE USE OR OTHER DEALINGS IN
  21:./shy_fft.h   **** // THE SOFTWARE.
  22:./shy_fft.h   **** //
  23:./shy_fft.h   **** // See http://creativecommons.org/licenses/MIT/ for more information.
  24:./shy_fft.h   **** //
  25:./shy_fft.h   **** // -----------------------------------------------------------------------------
  26:./shy_fft.h   **** //
  27:./shy_fft.h   **** // A modest implementation of real FFT for embedded audio applications,
  28:./shy_fft.h   **** // largely based on Laurent de Soras' FFTReal.
  29:./shy_fft.h   **** //
  30:./shy_fft.h   **** // Improvements:
  31:./shy_fft.h   **** // * No dynamic allocations.
  32:./shy_fft.h   **** // * No additional buffering (can use the input buffer as a workspace).
  33:./shy_fft.h   **** // * No big bitrev lookup table.
  34:./shy_fft.h   **** // * Keep the fixed size template signature, but also provide method for
  35:./shy_fft.h   **** //   variable size (up to the fixed size).
  36:./shy_fft.h   **** 
  37:./shy_fft.h   **** #ifndef STMLIB_FFT_SHY_FFT_H_
  38:./shy_fft.h   **** #define STMLIB_FFT_SHY_FFT_H_
  39:./shy_fft.h   **** 
  40:./shy_fft.h   **** #include <algorithm>
  41:./shy_fft.h   **** #include <cmath>
  42:./shy_fft.h   **** 
  43:./shy_fft.h   **** // Compile-time log 2
  44:./shy_fft.h   **** template <size_t x>
  45:./shy_fft.h   **** struct Log2
  46:./shy_fft.h   **** {
  47:./shy_fft.h   ****     enum
  48:./shy_fft.h   ****     {
  49:./shy_fft.h   ****         value = Log2<x / 2>::value + 1
  50:./shy_fft.h   ****     };
  51:./shy_fft.h   ****     typedef char CheckPowerOf2[((x & (x - 1)) == 0 ? 1 : -1)];
  52:./shy_fft.h   **** };
  53:./shy_fft.h   **** 
  54:./shy_fft.h   **** template <>
  55:./shy_fft.h   **** struct Log2<1>
  56:./shy_fft.h   **** {
ARM GAS  /var/folders/hl/qgbwny5j0fd895c2c41bk3tw0000gp/T//ccX3fN6S.s 			page 12


  57:./shy_fft.h   ****     enum
  58:./shy_fft.h   ****     {
  59:./shy_fft.h   ****         value = 0
  60:./shy_fft.h   ****     };
  61:./shy_fft.h   **** };
  62:./shy_fft.h   **** 
  63:./shy_fft.h   **** 
  64:./shy_fft.h   **** // Bit reversal LUT size.
  65:./shy_fft.h   **** template <size_t>
  66:./shy_fft.h   **** struct BitReversalLut
  67:./shy_fft.h   **** {
  68:./shy_fft.h   ****     enum
  69:./shy_fft.h   ****     {
  70:./shy_fft.h   ****         size = 1
  71:./shy_fft.h   ****     };
  72:./shy_fft.h   **** };
  73:./shy_fft.h   **** template <>
  74:./shy_fft.h   **** struct BitReversalLut<3>
  75:./shy_fft.h   **** {
  76:./shy_fft.h   ****     enum
  77:./shy_fft.h   ****     {
  78:./shy_fft.h   ****         size = 2
  79:./shy_fft.h   ****     };
  80:./shy_fft.h   **** };
  81:./shy_fft.h   **** template <>
  82:./shy_fft.h   **** struct BitReversalLut<4>
  83:./shy_fft.h   **** {
  84:./shy_fft.h   ****     enum
  85:./shy_fft.h   ****     {
  86:./shy_fft.h   ****         size = 4
  87:./shy_fft.h   ****     };
  88:./shy_fft.h   **** };
  89:./shy_fft.h   **** template <>
  90:./shy_fft.h   **** struct BitReversalLut<5>
  91:./shy_fft.h   **** {
  92:./shy_fft.h   ****     enum
  93:./shy_fft.h   ****     {
  94:./shy_fft.h   ****         size = 8
  95:./shy_fft.h   ****     };
  96:./shy_fft.h   **** };
  97:./shy_fft.h   **** template <>
  98:./shy_fft.h   **** struct BitReversalLut<6>
  99:./shy_fft.h   **** {
 100:./shy_fft.h   ****     enum
 101:./shy_fft.h   ****     {
 102:./shy_fft.h   ****         size = 16
 103:./shy_fft.h   ****     };
 104:./shy_fft.h   **** };
 105:./shy_fft.h   **** template <>
 106:./shy_fft.h   **** struct BitReversalLut<7>
 107:./shy_fft.h   **** {
 108:./shy_fft.h   ****     enum
 109:./shy_fft.h   ****     {
 110:./shy_fft.h   ****         size = 32
 111:./shy_fft.h   ****     };
 112:./shy_fft.h   **** };
 113:./shy_fft.h   **** template <>
ARM GAS  /var/folders/hl/qgbwny5j0fd895c2c41bk3tw0000gp/T//ccX3fN6S.s 			page 13


 114:./shy_fft.h   **** struct BitReversalLut<8>
 115:./shy_fft.h   **** {
 116:./shy_fft.h   ****     enum
 117:./shy_fft.h   ****     {
 118:./shy_fft.h   ****         size = 64
 119:./shy_fft.h   ****     };
 120:./shy_fft.h   **** };
 121:./shy_fft.h   **** 
 122:./shy_fft.h   **** 
 123:./shy_fft.h   **** // Typed math functions and constants.
 124:./shy_fft.h   **** template <typename T>
 125:./shy_fft.h   **** struct Math
 126:./shy_fft.h   **** {
 127:./shy_fft.h   ****     inline T pi() const;
 128:./shy_fft.h   ****     inline T sqrt_2_div_2() const;
 129:./shy_fft.h   ****     inline T cos(T x);
 130:./shy_fft.h   ****     inline T sin(T x);
 131:./shy_fft.h   **** };
 132:./shy_fft.h   **** 
 133:./shy_fft.h   **** template <>
 134:./shy_fft.h   **** struct Math<float>
 135:./shy_fft.h   **** {
 136:./shy_fft.h   ****     inline float pi() const { return 3.141592653589793f; }
 137:./shy_fft.h   ****     inline float sqrt_2_div_2() const { return 0.7071067811865476f; }
 138:./shy_fft.h   ****     inline float cos(float x) { return cosf(x); }
 139:./shy_fft.h   ****     inline float sin(float x) { return sinf(x); }
 140:./shy_fft.h   **** };
 141:./shy_fft.h   **** 
 142:./shy_fft.h   **** template <>
 143:./shy_fft.h   **** struct Math<double>
 144:./shy_fft.h   **** {
 145:./shy_fft.h   ****     inline double pi() const { return 3.141592653589793; }
 146:./shy_fft.h   ****     inline float  sqrt_2_div_2() const { return 0.7071067811865476; }
 147:./shy_fft.h   ****     inline double cos(double x) { return cos(x); }
 148:./shy_fft.h   ****     inline double sin(double x) { return sin(x); }
 149:./shy_fft.h   **** };
 150:./shy_fft.h   **** 
 151:./shy_fft.h   **** 
 152:./shy_fft.h   **** // Look-up table for trigonometric data.
 153:./shy_fft.h   **** template <typename T, size_t num_passes>
 154:./shy_fft.h   **** class LutPhasor
 155:./shy_fft.h   **** {
 156:./shy_fft.h   ****   public:
 157:./shy_fft.h   ****     LutPhasor() {}
 158:./shy_fft.h   ****     ~LutPhasor() {}
 159:./shy_fft.h   **** 
 160:./shy_fft.h   ****     void Init()
 161:./shy_fft.h   ****     {
 162:./shy_fft.h   ****         Math<T> math;
 163:./shy_fft.h   **** 
 164:./shy_fft.h   ****         for(size_t pass = 3; pass < num_passes; ++pass)
 165:./shy_fft.h   ****         {
 166:./shy_fft.h   ****             size_t pass_size = 1L << (pass - 1);
 167:./shy_fft.h   ****             T*     pass_ptr  = &trig_lut_[(1L << (pass - 1)) - 4];
 168:./shy_fft.h   ****             T      increment = math.pi() / (pass_size << 1);
 169:./shy_fft.h   ****             T      phase     = 0.0;
 170:./shy_fft.h   ****             for(size_t i = 0; i < pass_size; ++i)
ARM GAS  /var/folders/hl/qgbwny5j0fd895c2c41bk3tw0000gp/T//ccX3fN6S.s 			page 14


 171:./shy_fft.h   ****             {
 172:./shy_fft.h   ****                 pass_ptr[i] = math.cos(phase);
 173:./shy_fft.h   ****                 phase += increment;
 174:./shy_fft.h   ****             }
 175:./shy_fft.h   ****         }
 176:./shy_fft.h   ****     }
 177:./shy_fft.h   **** 
 178:./shy_fft.h   ****     inline void Start(size_t pass)
 179:./shy_fft.h   ****     {
 180:./shy_fft.h   ****         size_t pass_size = 1 << (pass - 1);
 181:./shy_fft.h   ****         cos_ptr_         = &trig_lut_[pass_size - 4 + 1];
 182:./shy_fft.h   ****         sin_ptr_         = &trig_lut_[pass_size + pass_size - 4 - 1];
 183:./shy_fft.h   ****     }
 184:./shy_fft.h   **** 
 185:./shy_fft.h   ****     inline void Rotate()
 186:./shy_fft.h   ****     {
 187:./shy_fft.h   ****         ++cos_ptr_;
 188:./shy_fft.h   ****         --sin_ptr_;
 189:./shy_fft.h   ****     }
 190:./shy_fft.h   **** 
 191:./shy_fft.h   ****     inline T cos() const { return *cos_ptr_; }
 192:./shy_fft.h   ****     inline T sin() const { return *sin_ptr_; }
 193:./shy_fft.h   **** 
 194:./shy_fft.h   ****   private:
 195:./shy_fft.h   ****     T  trig_lut_[(1 << (num_passes - 1)) - 4];
 196:./shy_fft.h   ****     T* cos_ptr_;
 197:./shy_fft.h   ****     T* sin_ptr_;
 198:./shy_fft.h   **** };
 199:./shy_fft.h   **** 
 200:./shy_fft.h   **** template <typename T>
 201:./shy_fft.h   **** struct LutPhasor<T, 0>
 202:./shy_fft.h   **** {
 203:./shy_fft.h   ****     void Init(){};
 204:./shy_fft.h   **** };
 205:./shy_fft.h   **** template <typename T>
 206:./shy_fft.h   **** struct LutPhasor<T, 1>
 207:./shy_fft.h   **** {
 208:./shy_fft.h   ****     void Init(){};
 209:./shy_fft.h   **** };
 210:./shy_fft.h   **** template <typename T>
 211:./shy_fft.h   **** struct LutPhasor<T, 2>
 212:./shy_fft.h   **** {
 213:./shy_fft.h   ****     void Init(){};
 214:./shy_fft.h   **** };
 215:./shy_fft.h   **** 
 216:./shy_fft.h   **** template <typename T>
 217:./shy_fft.h   **** struct LutPhasor<T, 3>
 218:./shy_fft.h   **** {
 219:./shy_fft.h   ****     void     Init(){};
 220:./shy_fft.h   ****     void     Start(size_t){};
 221:./shy_fft.h   ****     void     Rotate(){};
 222:./shy_fft.h   ****     inline T cos() const { return 1.0; }
 223:./shy_fft.h   ****     inline T sin() const { return 0.0; }
 224:./shy_fft.h   **** };
 225:./shy_fft.h   **** 
 226:./shy_fft.h   **** 
 227:./shy_fft.h   **** // Another way of generating roots of unity.
ARM GAS  /var/folders/hl/qgbwny5j0fd895c2c41bk3tw0000gp/T//ccX3fN6S.s 			page 15


 228:./shy_fft.h   **** template <typename T, size_t num_passes>
 229:./shy_fft.h   **** class RotationPhasor
 230:./shy_fft.h   **** {
 231:./shy_fft.h   ****   public:
 232:./shy_fft.h   ****     RotationPhasor() {}
 233:./shy_fft.h   ****     ~RotationPhasor() {}
 234:./shy_fft.h   **** 
 235:./shy_fft.h   ****     void Init()
 236:./shy_fft.h   ****     {
 237:./shy_fft.h   ****         Math<T> math;
 238:./shy_fft.h   ****         for(size_t pass = 3; pass < num_passes; ++pass)
 239:./shy_fft.h   ****         {
 240:./shy_fft.h   ****             size_t index            = (pass - 3) << 1;
 241:./shy_fft.h   ****             T      angle            = math.pi() / (1 << pass);
 242:./shy_fft.h   ****             sin_cos_lut_[index]     = math.cos(angle);
 243:./shy_fft.h   ****             sin_cos_lut_[index + 1] = math.sin(angle);
 244:./shy_fft.h   ****         }
 245:./shy_fft.h   ****     }
 246:./shy_fft.h   **** 
 247:./shy_fft.h   ****     inline void Start(size_t pass)
 248:./shy_fft.h   ****     {
 249:./shy_fft.h   ****         size_t index = (pass - 3) << 1;
 250:./shy_fft.h   ****         cos_ = real_ = sin_cos_lut_[index];
 251:./shy_fft.h   ****         sin_ = imag_ = sin_cos_lut_[index + 1];
 252:./shy_fft.h   ****     }
 253:./shy_fft.h   **** 
 254:./shy_fft.h   ****     inline void Rotate()
 255:./shy_fft.h   ****     {
 256:./shy_fft.h   ****         T temp = cos_ * real_ - sin_ * imag_;
 257:./shy_fft.h   ****         sin_   = cos_ * imag_ + sin_ * real_;
 258:./shy_fft.h   ****         cos_   = temp;
 259:./shy_fft.h   ****     }
 260:./shy_fft.h   **** 
 261:./shy_fft.h   ****     inline T cos() const { return cos_; }
 262:./shy_fft.h   ****     inline T sin() const { return sin_; }
 263:./shy_fft.h   **** 
 264:./shy_fft.h   ****   private:
 265:./shy_fft.h   ****     T sin_cos_lut_[(num_passes - 3) << 1];
 266:./shy_fft.h   ****     T cos_;
 267:./shy_fft.h   ****     T sin_;
 268:./shy_fft.h   ****     T real_;
 269:./shy_fft.h   ****     T imag_;
 270:./shy_fft.h   **** };
 271:./shy_fft.h   **** 
 272:./shy_fft.h   **** template <typename T>
 273:./shy_fft.h   **** struct RotationPhasor<T, 0>
 274:./shy_fft.h   **** {
 275:./shy_fft.h   ****     void Init(){};
 276:./shy_fft.h   **** };
 277:./shy_fft.h   **** template <typename T>
 278:./shy_fft.h   **** struct RotationPhasor<T, 1>
 279:./shy_fft.h   **** {
 280:./shy_fft.h   ****     void Init(){};
 281:./shy_fft.h   **** };
 282:./shy_fft.h   **** template <typename T>
 283:./shy_fft.h   **** struct RotationPhasor<T, 2>
 284:./shy_fft.h   **** {
ARM GAS  /var/folders/hl/qgbwny5j0fd895c2c41bk3tw0000gp/T//ccX3fN6S.s 			page 16


 285:./shy_fft.h   ****     void Init(){};
 286:./shy_fft.h   **** };
 287:./shy_fft.h   **** 
 288:./shy_fft.h   **** template <typename T>
 289:./shy_fft.h   **** struct RotationPhasor<T, 3>
 290:./shy_fft.h   **** {
 291:./shy_fft.h   ****     void     Init(){};
 292:./shy_fft.h   ****     void     Start(size_t){};
 293:./shy_fft.h   ****     void     Rotate(){};
 294:./shy_fft.h   ****     inline T cos() const { return 1.0; }
 295:./shy_fft.h   ****     inline T sin() const { return 0.0; }
 296:./shy_fft.h   **** };
 297:./shy_fft.h   **** 
 298:./shy_fft.h   **** // Direct transform
 299:./shy_fft.h   **** template <typename T, size_t num_passes, typename Phasor>
 300:./shy_fft.h   **** struct DirectTransform
 301:./shy_fft.h   **** {
 302:./shy_fft.h   ****   private:
 303:./shy_fft.h   ****     enum
 304:./shy_fft.h   ****     {
 305:./shy_fft.h   ****         size = 1 << num_passes
 306:./shy_fft.h   ****     };
 307:./shy_fft.h   **** 
 308:./shy_fft.h   ****   public:
 309:./shy_fft.h   ****     void operator()(T* input, T* output, const uint8_t* bit_rev, Phasor* phasor)
 310:./shy_fft.h   ****     {
 311:./shy_fft.h   ****         T*      s;
 312:./shy_fft.h   ****         T*      d;
 313:./shy_fft.h   ****         Math<T> math;
 314:./shy_fft.h   **** 
 315:./shy_fft.h   ****         // First and second pass.
 316:./shy_fft.h   ****         d = output;
 317:./shy_fft.h   ****         for(size_t i = 0; i < size; i += 4)
 318:./shy_fft.h   ****         {
 319:./shy_fft.h   ****             const T* s  = input;
 320:./shy_fft.h   ****             size_t   r0 = num_passes <= 8
 321:./shy_fft.h   ****                             ? bit_rev[i >> 2]
 322:./shy_fft.h   ****                             : ((bit_rev[i & 0xff] << 8) | bit_rev[i >> 8])
 323:./shy_fft.h   ****                                   >> (16 - num_passes);
 324:./shy_fft.h   ****             size_t r1 = r0 + 2 * (size >> 2);
 325:./shy_fft.h   ****             size_t r2 = r0 + 1 * (size >> 2);
 326:./shy_fft.h   ****             size_t r3 = r0 + 3 * (size >> 2);
 327:./shy_fft.h   **** 
 328:./shy_fft.h   ****             d[1] = s[r0] - s[r1];
 329:./shy_fft.h   ****             d[3] = s[r2] - s[r3];
 330:./shy_fft.h   ****             T a  = s[r0] + s[r1];
 331:./shy_fft.h   ****             T b  = s[r2] + s[r3];
 332:./shy_fft.h   ****             d[0] = a + b;
 333:./shy_fft.h   ****             d[2] = a - b;
 334:./shy_fft.h   ****             d += 4;
 335:./shy_fft.h   ****         }
 336:./shy_fft.h   **** 
 337:./shy_fft.h   ****         // Third pass.
 338:./shy_fft.h   ****         s = output;
 339:./shy_fft.h   ****         d = input;
 340:./shy_fft.h   ****         for(size_t i = 0; i < size; i += 8)
 341:./shy_fft.h   ****         {
ARM GAS  /var/folders/hl/qgbwny5j0fd895c2c41bk3tw0000gp/T//ccX3fN6S.s 			page 17


 342:./shy_fft.h   ****             T v;
 343:./shy_fft.h   **** 
 344:./shy_fft.h   ****             d[i]     = s[i] + s[i + 4];
 345:./shy_fft.h   ****             d[i + 4] = s[i] - s[i + 4];
 346:./shy_fft.h   ****             d[i + 2] = s[i + 2];
 347:./shy_fft.h   ****             d[i + 6] = s[i + 6];
 348:./shy_fft.h   **** 
 349:./shy_fft.h   ****             v        = (s[i + 5] - s[i + 7]) * math.sqrt_2_div_2();
 350:./shy_fft.h   ****             d[i + 1] = s[i + 1] + v;
 351:./shy_fft.h   ****             d[i + 3] = s[i + 1] - v;
 352:./shy_fft.h   **** 
 353:./shy_fft.h   ****             v        = (s[i + 5] + s[i + 7]) * math.sqrt_2_div_2();
 354:./shy_fft.h   ****             d[i + 5] = v + s[i + 3];
 355:./shy_fft.h   ****             d[i + 7] = v - s[i + 3];
 356:./shy_fft.h   ****         }
 357:./shy_fft.h   **** 
 358:./shy_fft.h   ****         // Remaining passes.
 359:./shy_fft.h   ****         for(size_t pass = 3; pass < num_passes; ++pass)
 360:./shy_fft.h   ****         {
 361:./shy_fft.h   ****             // Flip source and destination pointers
 362:./shy_fft.h   ****             {
 363:./shy_fft.h   ****                 T* tmp = s;
 364:./shy_fft.h   ****                 s      = d;
 365:./shy_fft.h   ****                 d      = tmp;
 366:./shy_fft.h   ****             }
 367:./shy_fft.h   **** 
 368:./shy_fft.h   ****             size_t n   = 1 << pass;
 369:./shy_fft.h   ****             size_t n_2 = n >> 1;
 370:./shy_fft.h   **** 
 371:./shy_fft.h   ****             for(size_t i = 0; i < size; i += (n << 1))
 372:./shy_fft.h   ****             {
 373:./shy_fft.h   ****                 T* s1r = s + i;
 374:./shy_fft.h   ****                 T* s2r = s1r + n;
 375:./shy_fft.h   ****                 T* dr  = d + i;
 376:./shy_fft.h   ****                 T* di  = dr + n;
 377:./shy_fft.h   **** 
 378:./shy_fft.h   ****                 dr[0]   = s1r[0] + s2r[0];
 379:./shy_fft.h   ****                 di[0]   = s1r[0] - s2r[0];
 380:./shy_fft.h   ****                 dr[n_2] = s1r[n_2];
 381:./shy_fft.h   ****                 di[n_2] = s2r[n_2];
 382:./shy_fft.h   ****                 T* s1i  = s1r + n_2;
 383:./shy_fft.h   ****                 T* s2i  = s1i + n;
 384:./shy_fft.h   ****                 phasor->Start(pass);
 385:./shy_fft.h   ****                 for(size_t j = 1; j < n_2; ++j)
 386:./shy_fft.h   ****                 {
 387:./shy_fft.h   ****                     T c = phasor->cos();
 388:./shy_fft.h   ****                     T s = phasor->sin();
 389:./shy_fft.h   ****                     T v;
 390:./shy_fft.h   **** 
 391:./shy_fft.h   ****                     v      = s2r[j] * c - s2i[j] * s;
 392:./shy_fft.h   ****                     dr[j]  = s1r[j] + v;
 393:./shy_fft.h   ****                     di[-j] = s1r[j] - v;
 394:./shy_fft.h   **** 
 395:./shy_fft.h   ****                     v         = s2r[j] * s + s2i[j] * c;
 396:./shy_fft.h   ****                     di[j]     = v + s1i[j];
 397:./shy_fft.h   ****                     di[n - j] = v - s1i[j];
 398:./shy_fft.h   ****                     phasor->Rotate();
ARM GAS  /var/folders/hl/qgbwny5j0fd895c2c41bk3tw0000gp/T//ccX3fN6S.s 			page 18


 399:./shy_fft.h   ****                 }
 400:./shy_fft.h   ****             }
 401:./shy_fft.h   ****         }
 402:./shy_fft.h   **** 
 403:./shy_fft.h   ****         // Annoying additional data copy step.
 404:./shy_fft.h   ****         if(d != output)
 405:./shy_fft.h   ****         {
 406:./shy_fft.h   ****             std::copy(&d[0], &d[size], &output[0]);
 407:./shy_fft.h   ****         }
 408:./shy_fft.h   ****     }
 409:./shy_fft.h   **** 
 410:./shy_fft.h   ****     // The exact same thing but with "num_passes" as a run-time argument.
 411:./shy_fft.h   ****     void operator()(T*             input,
 412:./shy_fft.h   ****                     T*             output,
 413:./shy_fft.h   ****                     const uint8_t* bit_rev,
 414:./shy_fft.h   ****                     Phasor*        phasor,
 415:./shy_fft.h   ****                     size_t         rt_num_passes)
 416:./shy_fft.h   ****     {
 417:./shy_fft.h   ****         T*      s;
 418:./shy_fft.h   ****         T*      d;
 419:./shy_fft.h   ****         Math<T> math;
 420:./shy_fft.h   ****         size_t  rt_size = 1 << rt_num_passes;
 421:./shy_fft.h   ****         // First and second pass.
 422:./shy_fft.h   ****         d = output;
 423:./shy_fft.h   ****         for(size_t i = 0; i < rt_size; i += 4)
 424:./shy_fft.h   ****         {
 425:./shy_fft.h   ****             const T* s  = input;
 426:./shy_fft.h   ****             size_t   r0 = ((bit_rev[i & 0xff] << 8) | bit_rev[i >> 8])
 427:./shy_fft.h   ****                         >> (16 - rt_num_passes);
 428:./shy_fft.h   ****             size_t r1 = r0 + 2 * (rt_size >> 2);
 429:./shy_fft.h   ****             size_t r2 = r0 + 1 * (rt_size >> 2);
 430:./shy_fft.h   ****             size_t r3 = r0 + 3 * (rt_size >> 2);
 431:./shy_fft.h   **** 
 432:./shy_fft.h   ****             d[1] = s[r0] - s[r1];
 433:./shy_fft.h   ****             d[3] = s[r2] - s[r3];
 434:./shy_fft.h   ****             T a  = s[r0] + s[r1];
 435:./shy_fft.h   ****             T b  = s[r2] + s[r3];
 436:./shy_fft.h   ****             d[0] = a + b;
 437:./shy_fft.h   ****             d[2] = a - b;
 438:./shy_fft.h   ****             d += 4;
 439:./shy_fft.h   ****         }
 440:./shy_fft.h   **** 
 441:./shy_fft.h   ****         // Third pass.
 442:./shy_fft.h   ****         s = output;
 443:./shy_fft.h   ****         d = input;
 444:./shy_fft.h   ****         for(size_t i = 0; i < rt_size; i += 8)
 445:./shy_fft.h   ****         {
 446:./shy_fft.h   ****             T v;
 447:./shy_fft.h   **** 
 448:./shy_fft.h   ****             d[i]     = s[i] + s[i + 4];
 449:./shy_fft.h   ****             d[i + 4] = s[i] - s[i + 4];
 450:./shy_fft.h   ****             d[i + 2] = s[i + 2];
 451:./shy_fft.h   ****             d[i + 6] = s[i + 6];
 452:./shy_fft.h   **** 
 453:./shy_fft.h   ****             v        = (s[i + 5] - s[i + 7]) * math.sqrt_2_div_2();
 454:./shy_fft.h   ****             d[i + 1] = s[i + 1] + v;
 455:./shy_fft.h   ****             d[i + 3] = s[i + 1] - v;
ARM GAS  /var/folders/hl/qgbwny5j0fd895c2c41bk3tw0000gp/T//ccX3fN6S.s 			page 19


 456:./shy_fft.h   **** 
 457:./shy_fft.h   ****             v        = (s[i + 5] + s[i + 7]) * math.sqrt_2_div_2();
 458:./shy_fft.h   ****             d[i + 5] = v + s[i + 3];
 459:./shy_fft.h   ****             d[i + 7] = v - s[i + 3];
 460:./shy_fft.h   ****         }
 461:./shy_fft.h   **** 
 462:./shy_fft.h   ****         // Remaining passes.
 463:./shy_fft.h   ****         for(size_t pass = 3; pass < rt_num_passes; ++pass)
 464:./shy_fft.h   ****         {
 465:./shy_fft.h   ****             // Flip source and destination pointers
 466:./shy_fft.h   ****             {
 467:./shy_fft.h   ****                 T* tmp = s;
 468:./shy_fft.h   ****                 s      = d;
 469:./shy_fft.h   ****                 d      = tmp;
 470:./shy_fft.h   ****             }
 471:./shy_fft.h   **** 
 472:./shy_fft.h   ****             size_t n   = 1 << pass;
 473:./shy_fft.h   ****             size_t n_2 = n >> 1;
 474:./shy_fft.h   **** 
 475:./shy_fft.h   ****             for(size_t i = 0; i < rt_size; i += (n << 1))
 476:./shy_fft.h   ****             {
 477:./shy_fft.h   ****                 T* s1r = s + i;
 478:./shy_fft.h   ****                 T* s2r = s1r + n;
 479:./shy_fft.h   ****                 T* dr  = d + i;
 480:./shy_fft.h   ****                 T* di  = dr + n;
 481:./shy_fft.h   **** 
 482:./shy_fft.h   ****                 dr[0]   = s1r[0] + s2r[0];
 483:./shy_fft.h   ****                 di[0]   = s1r[0] - s2r[0];
 484:./shy_fft.h   ****                 dr[n_2] = s1r[n_2];
 485:./shy_fft.h   ****                 di[n_2] = s2r[n_2];
 486:./shy_fft.h   ****                 T* s1i  = s1r + n_2;
 487:./shy_fft.h   ****                 T* s2i  = s1i + n;
 488:./shy_fft.h   ****                 phasor->Start(pass);
 489:./shy_fft.h   ****                 for(size_t j = 1; j < n_2; ++j)
 490:./shy_fft.h   ****                 {
 491:./shy_fft.h   ****                     T c = phasor->cos();
 492:./shy_fft.h   ****                     T s = phasor->sin();
 493:./shy_fft.h   ****                     T v;
 494:./shy_fft.h   **** 
 495:./shy_fft.h   ****                     v      = s2r[j] * c - s2i[j] * s;
 496:./shy_fft.h   ****                     dr[j]  = s1r[j] + v;
 497:./shy_fft.h   ****                     di[-j] = s1r[j] - v;
 498:./shy_fft.h   **** 
 499:./shy_fft.h   ****                     v         = s2r[j] * s + s2i[j] * c;
 500:./shy_fft.h   ****                     di[j]     = v + s1i[j];
 501:./shy_fft.h   ****                     di[n - j] = v - s1i[j];
 502:./shy_fft.h   ****                     phasor->Rotate();
 503:./shy_fft.h   ****                 }
 504:./shy_fft.h   ****             }
 505:./shy_fft.h   ****         }
 506:./shy_fft.h   **** 
 507:./shy_fft.h   ****         // Annoying additional data copy step.
 508:./shy_fft.h   ****         if(d != output)
 509:./shy_fft.h   ****         {
 510:./shy_fft.h   ****             std::copy(&d[0], &d[rt_size], &output[0]);
 511:./shy_fft.h   ****         }
 512:./shy_fft.h   ****     }
ARM GAS  /var/folders/hl/qgbwny5j0fd895c2c41bk3tw0000gp/T//ccX3fN6S.s 			page 20


 513:./shy_fft.h   **** };
 514:./shy_fft.h   **** 
 515:./shy_fft.h   **** template <typename T, typename Phasor>
 516:./shy_fft.h   **** struct DirectTransform<T, 0, Phasor>
 517:./shy_fft.h   **** {
 518:./shy_fft.h   ****     void operator()(const T* i, T* o, T*, const uint8_t*, Phasor*)
 519:./shy_fft.h   ****     {
 520:./shy_fft.h   ****         o[0] = i[0];
 521:./shy_fft.h   ****     }
 522:./shy_fft.h   **** };
 523:./shy_fft.h   **** 
 524:./shy_fft.h   **** template <typename T, typename Phasor>
 525:./shy_fft.h   **** struct DirectTransform<T, 1, Phasor>
 526:./shy_fft.h   **** {
 527:./shy_fft.h   ****     void operator()(const T* i, T* o, T*, const uint8_t*, Phasor*)
 528:./shy_fft.h   ****     {
 529:./shy_fft.h   ****         o[0] = i[0] + i[1];
 530:./shy_fft.h   ****         o[1] = i[0] - i[1];
 531:./shy_fft.h   ****     }
 532:./shy_fft.h   **** };
 533:./shy_fft.h   **** 
 534:./shy_fft.h   **** template <typename T, typename Phasor>
 535:./shy_fft.h   **** struct DirectTransform<T, 2, Phasor>
 536:./shy_fft.h   **** {
 537:./shy_fft.h   ****     void operator()(const T* i, T* o, T*, const uint8_t*, Phasor*)
 538:./shy_fft.h   ****     {
 539:./shy_fft.h   ****         o[1] = i[0] - i[2];
 540:./shy_fft.h   ****         o[3] = i[1] - i[3];
 541:./shy_fft.h   ****         T a  = i[0] + i[2];
 542:./shy_fft.h   ****         T b  = i[1] + i[3];
 543:./shy_fft.h   ****         o[0] = a + b;
 544:./shy_fft.h   ****         o[2] = a - b;
 545:./shy_fft.h   ****     }
 546:./shy_fft.h   **** };
 547:./shy_fft.h   **** 
 548:./shy_fft.h   **** 
 549:./shy_fft.h   **** // Inverse transform
 550:./shy_fft.h   **** template <typename T, size_t num_passes, typename Phasor>
 551:./shy_fft.h   **** struct InverseTransform
 552:./shy_fft.h   **** {
 553:./shy_fft.h   ****   private:
 554:./shy_fft.h   ****     enum
 555:./shy_fft.h   ****     {
 556:./shy_fft.h   ****         size = 1 << num_passes
 557:./shy_fft.h   ****     };
 558:./shy_fft.h   **** 
 559:./shy_fft.h   ****   public:
 560:./shy_fft.h   ****     void operator()(T* input, T* output, const uint8_t* bit_rev, Phasor* phasor)
 561:./shy_fft.h   ****     {
 562:./shy_fft.h   ****         T*      s = (T*)(input);
 563:./shy_fft.h   ****         T*      d = output;
 564:./shy_fft.h   ****         Math<T> math;
 565:./shy_fft.h   **** 
 566:./shy_fft.h   ****         // Remaining passes.
 567:./shy_fft.h   ****         for(size_t pass = num_passes - 1; pass >= 3; --pass)
 568:./shy_fft.h   ****         {
 569:./shy_fft.h   ****             size_t n   = 1 << pass;
ARM GAS  /var/folders/hl/qgbwny5j0fd895c2c41bk3tw0000gp/T//ccX3fN6S.s 			page 21


 570:./shy_fft.h   ****             size_t n_2 = n >> 1;
 571:./shy_fft.h   **** 
 572:./shy_fft.h   ****             for(size_t i = 0; i < size; i += (n << 1))
 573:./shy_fft.h   ****             {
 574:./shy_fft.h   ****                 T* sr  = s + i;
 575:./shy_fft.h   ****                 T* si  = sr + n;
 576:./shy_fft.h   ****                 T* d1r = d + i;
 577:./shy_fft.h   ****                 T* d2r = d1r + n;
 578:./shy_fft.h   **** 
 579:./shy_fft.h   ****                 d1r[0]   = sr[0] + si[0];
 580:./shy_fft.h   ****                 d2r[0]   = sr[0] - si[0];
 581:./shy_fft.h   ****                 d1r[n_2] = sr[n_2] * T(2);
 582:./shy_fft.h   ****                 d2r[n_2] = si[n_2] * T(2);
 583:./shy_fft.h   **** 
 584:./shy_fft.h   ****                 T* d1i = d1r + n_2;
 585:./shy_fft.h   ****                 T* d2i = d1i + n;
 586:./shy_fft.h   ****                 phasor->Start(pass);
 587:./shy_fft.h   ****                 for(size_t j = 1; j < n_2; ++j)
 588:./shy_fft.h   ****                 {
 589:./shy_fft.h   ****                     d1r[j] = sr[j] + si[-j];
 590:./shy_fft.h   ****                     d1i[j] = si[j] - si[n - j];
 591:./shy_fft.h   **** 
 592:./shy_fft.h   ****                     T c  = phasor->cos();
 593:./shy_fft.h   ****                     T s  = phasor->sin();
 594:./shy_fft.h   ****                     T vr = sr[j] - si[-j];
 595:./shy_fft.h   ****                     T vi = si[j] + si[n - j];
 596:./shy_fft.h   **** 
 597:./shy_fft.h   ****                     d2r[j] = vr * c + vi * s;
 598:./shy_fft.h   ****                     d2i[j] = vi * c - vr * s;
 599:./shy_fft.h   ****                     phasor->Rotate();
 600:./shy_fft.h   ****                 }
 601:./shy_fft.h   ****             }
 602:./shy_fft.h   **** 
 603:./shy_fft.h   ****             // Flip source and destination pointers for the next pass.
 604:./shy_fft.h   ****             if(d == output)
 605:./shy_fft.h   ****             {
 606:./shy_fft.h   ****                 s = output;
 607:./shy_fft.h   ****                 d = input;
 608:./shy_fft.h   ****             }
 609:./shy_fft.h   ****             else
 610:./shy_fft.h   ****             {
 611:./shy_fft.h   ****                 s = input;
 612:./shy_fft.h   ****                 d = output;
 613:./shy_fft.h   ****             }
 614:./shy_fft.h   ****         }
 615:./shy_fft.h   **** 
 616:./shy_fft.h   ****         // Copy data if necessary.
 617:./shy_fft.h   ****         if(d == output)
 618:./shy_fft.h   ****         {
 619:./shy_fft.h   ****             std::copy(&s[0], &s[size], &output[0]);
 620:./shy_fft.h   ****         }
 621:./shy_fft.h   **** 
 622:./shy_fft.h   ****         s = output;
 623:./shy_fft.h   ****         d = input;
 624:./shy_fft.h   ****         for(size_t i = 0; i < size; i += 8)
 625:./shy_fft.h   ****         {
 626:./shy_fft.h   ****             T vr, vi;
ARM GAS  /var/folders/hl/qgbwny5j0fd895c2c41bk3tw0000gp/T//ccX3fN6S.s 			page 22


 627:./shy_fft.h   ****             d[i]     = s[i] + s[i + 4];
 628:./shy_fft.h   ****             d[i + 4] = s[i] - s[i + 4];
 629:./shy_fft.h   ****             d[i + 2] = s[i + 2] * T(2);
 630:./shy_fft.h   ****             d[i + 6] = s[i + 6] * T(2);
 631:./shy_fft.h   ****             d[i + 1] = s[i + 1] + s[i + 3];
 632:./shy_fft.h   ****             d[i + 3] = s[i + 5] - s[i + 7];
 633:./shy_fft.h   ****             vr       = s[i + 1] - s[i + 3];
 634:./shy_fft.h   ****             vi       = s[i + 5] + s[i + 7];
 635:./shy_fft.h   ****             d[i + 5] = (vr + vi) * math.sqrt_2_div_2();
 636:./shy_fft.h   ****             d[i + 7] = (vi - vr) * math.sqrt_2_div_2();
 637:./shy_fft.h   ****         }
 638:./shy_fft.h   **** 
 639:./shy_fft.h   ****         // First and second pass.
 640:./shy_fft.h   ****         s = input;
 641:./shy_fft.h   ****         d = output;
 642:./shy_fft.h   ****         for(size_t i = 0; i < size; i += 4)
 643:./shy_fft.h   ****         {
 644:./shy_fft.h   ****             size_t r0 = num_passes <= 8
 645:./shy_fft.h   ****                             ? bit_rev[i >> 2]
 646:./shy_fft.h   ****                             : ((bit_rev[i & 0xff] << 8) | bit_rev[i >> 8])
 647:./shy_fft.h   ****                                   >> (16 - num_passes);
 648:./shy_fft.h   ****             size_t r1 = r0 + 2 * (size >> 2);
 649:./shy_fft.h   ****             size_t r2 = r0 + 1 * (size >> 2);
 650:./shy_fft.h   ****             size_t r3 = r0 + 3 * (size >> 2);
 651:./shy_fft.h   **** 
 652:./shy_fft.h   ****             T b_0 = s[0] + s[2];
 653:./shy_fft.h   ****             T b_2 = s[0] - s[2];
 654:./shy_fft.h   ****             T b_1 = s[1] * T(2);
 655:./shy_fft.h   ****             T b_3 = s[3] * T(2);
 656:./shy_fft.h   **** 
 657:./shy_fft.h   ****             d[r0] = b_0 + b_1;
 658:./shy_fft.h   ****             d[r1] = b_0 - b_1;
 659:./shy_fft.h   ****             d[r2] = b_2 + b_3;
 660:./shy_fft.h   ****             d[r3] = b_2 - b_3;
 661:./shy_fft.h   ****             s += 4;
 662:./shy_fft.h   ****         }
 663:./shy_fft.h   ****     }
 664:./shy_fft.h   **** 
 665:./shy_fft.h   ****     void operator()(T*             input,
 666:./shy_fft.h   ****                     T*             output,
 667:./shy_fft.h   ****                     const uint8_t* bit_rev,
 668:./shy_fft.h   ****                     Phasor*        phasor,
 669:./shy_fft.h   ****                     size_t         rt_num_passes)
 670:./shy_fft.h   ****     {
 671:./shy_fft.h   ****         T*      s = (T*)(input);
 672:./shy_fft.h   ****         T*      d = output;
 673:./shy_fft.h   ****         Math<T> math;
 674:./shy_fft.h   **** 
 675:./shy_fft.h   ****         size_t rt_size = 1 << rt_num_passes;
 676:./shy_fft.h   **** 
 677:./shy_fft.h   ****         // Remaining passes.
 678:./shy_fft.h   ****         for(size_t pass = rt_num_passes - 1; pass >= 3; --pass)
 679:./shy_fft.h   ****         {
 680:./shy_fft.h   ****             size_t n   = 1 << pass;
 681:./shy_fft.h   ****             size_t n_2 = n >> 1;
 682:./shy_fft.h   **** 
 683:./shy_fft.h   ****             for(size_t i = 0; i < rt_size; i += (n << 1))
ARM GAS  /var/folders/hl/qgbwny5j0fd895c2c41bk3tw0000gp/T//ccX3fN6S.s 			page 23


 684:./shy_fft.h   ****             {
 685:./shy_fft.h   ****                 T* sr  = s + i;
 686:./shy_fft.h   ****                 T* si  = sr + n;
 687:./shy_fft.h   ****                 T* d1r = d + i;
 688:./shy_fft.h   ****                 T* d2r = d1r + n;
 689:./shy_fft.h   **** 
 690:./shy_fft.h   ****                 d1r[0]   = sr[0] + si[0];
 691:./shy_fft.h   ****                 d2r[0]   = sr[0] - si[0];
 692:./shy_fft.h   ****                 d1r[n_2] = sr[n_2] * T(2);
 693:./shy_fft.h   ****                 d2r[n_2] = si[n_2] * T(2);
 694:./shy_fft.h   **** 
 695:./shy_fft.h   ****                 T* d1i = d1r + n_2;
 696:./shy_fft.h   ****                 T* d2i = d1i + n;
 697:./shy_fft.h   ****                 phasor->Start(pass);
 698:./shy_fft.h   ****                 for(size_t j = 1; j < n_2; ++j)
 699:./shy_fft.h   ****                 {
 700:./shy_fft.h   ****                     d1r[j] = sr[j] + si[-j];
 701:./shy_fft.h   ****                     d1i[j] = si[j] - si[n - j];
 702:./shy_fft.h   **** 
 703:./shy_fft.h   ****                     T c  = phasor->cos();
 704:./shy_fft.h   ****                     T s  = phasor->sin();
 705:./shy_fft.h   ****                     T vr = sr[j] - si[-j];
 706:./shy_fft.h   ****                     T vi = si[j] + si[n - j];
 707:./shy_fft.h   **** 
 708:./shy_fft.h   ****                     d2r[j] = vr * c + vi * s;
 709:./shy_fft.h   ****                     d2i[j] = vi * c - vr * s;
 710:./shy_fft.h   ****                     phasor->Rotate();
 711:./shy_fft.h   ****                 }
 712:./shy_fft.h   ****             }
 713:./shy_fft.h   **** 
 714:./shy_fft.h   ****             // Flip source and destination pointers for the next pass.
 715:./shy_fft.h   ****             if(d == output)
 716:./shy_fft.h   ****             {
 717:./shy_fft.h   ****                 s = output;
 718:./shy_fft.h   ****                 d = input;
 719:./shy_fft.h   ****             }
 720:./shy_fft.h   ****             else
 721:./shy_fft.h   ****             {
 722:./shy_fft.h   ****                 s = input;
 723:./shy_fft.h   ****                 d = output;
 724:./shy_fft.h   ****             }
 725:./shy_fft.h   ****         }
 726:./shy_fft.h   **** 
 727:./shy_fft.h   ****         // Copy data if necessary.
 728:./shy_fft.h   ****         if(d == output)
 729:./shy_fft.h   ****         {
 730:./shy_fft.h   ****             std::copy(&s[0], &s[rt_size], &output[0]);
 731:./shy_fft.h   ****         }
 732:./shy_fft.h   **** 
 733:./shy_fft.h   ****         s = output;
 734:./shy_fft.h   ****         d = input;
 735:./shy_fft.h   ****         for(size_t i = 0; i < rt_size; i += 8)
 736:./shy_fft.h   ****         {
 737:./shy_fft.h   ****             T vr, vi;
 738:./shy_fft.h   ****             d[i]     = s[i] + s[i + 4];
 739:./shy_fft.h   ****             d[i + 4] = s[i] - s[i + 4];
 740:./shy_fft.h   ****             d[i + 2] = s[i + 2] * T(2);
ARM GAS  /var/folders/hl/qgbwny5j0fd895c2c41bk3tw0000gp/T//ccX3fN6S.s 			page 24


 741:./shy_fft.h   ****             d[i + 6] = s[i + 6] * T(2);
 742:./shy_fft.h   ****             d[i + 1] = s[i + 1] + s[i + 3];
 743:./shy_fft.h   ****             d[i + 3] = s[i + 5] - s[i + 7];
 744:./shy_fft.h   ****             vr       = s[i + 1] - s[i + 3];
 745:./shy_fft.h   ****             vi       = s[i + 5] + s[i + 7];
 746:./shy_fft.h   ****             d[i + 5] = (vr + vi) * math.sqrt_2_div_2();
 747:./shy_fft.h   ****             d[i + 7] = (vi - vr) * math.sqrt_2_div_2();
 748:./shy_fft.h   ****         }
 749:./shy_fft.h   **** 
 750:./shy_fft.h   ****         // First and second pass.
 751:./shy_fft.h   ****         s = input;
 752:./shy_fft.h   ****         d = output;
 753:./shy_fft.h   ****         for(size_t i = 0; i < rt_size; i += 4)
 754:./shy_fft.h   ****         {
 755:./shy_fft.h   ****             size_t r0 = ((bit_rev[i & 0xff] << 8) | bit_rev[i >> 8])
 756:./shy_fft.h   ****                         >> (16 - rt_num_passes);
 757:./shy_fft.h   ****             size_t r1 = r0 + 2 * (rt_size >> 2);
 758:./shy_fft.h   ****             size_t r2 = r0 + 1 * (rt_size >> 2);
 759:./shy_fft.h   ****             size_t r3 = r0 + 3 * (rt_size >> 2);
 760:./shy_fft.h   **** 
 761:./shy_fft.h   ****             T b_0 = s[0] + s[2];
 762:./shy_fft.h   ****             T b_2 = s[0] - s[2];
 763:./shy_fft.h   ****             T b_1 = s[1] * T(2);
 764:./shy_fft.h   ****             T b_3 = s[3] * T(2);
 765:./shy_fft.h   **** 
 766:./shy_fft.h   ****             d[r0] = b_0 + b_1;
 767:./shy_fft.h   ****             d[r1] = b_0 - b_1;
 768:./shy_fft.h   ****             d[r2] = b_2 + b_3;
 769:./shy_fft.h   ****             d[r3] = b_2 - b_3;
 770:./shy_fft.h   ****             s += 4;
 771:./shy_fft.h   ****         }
 772:./shy_fft.h   ****     }
 773:./shy_fft.h   **** };
 774:./shy_fft.h   **** 
 775:./shy_fft.h   **** template <typename T, typename Phasor>
 776:./shy_fft.h   **** struct InverseTransform<T, 0, Phasor>
 777:./shy_fft.h   **** {
 778:./shy_fft.h   ****     void operator()(const T* i, T* o, T*, const uint8_t*, Phasor*)
 779:./shy_fft.h   ****     {
 780:./shy_fft.h   ****         o[0] = i[0];
 781:./shy_fft.h   ****     }
 782:./shy_fft.h   **** };
 783:./shy_fft.h   **** 
 784:./shy_fft.h   **** template <typename T, typename Phasor>
 785:./shy_fft.h   **** struct InverseTransform<T, 1, Phasor>
 786:./shy_fft.h   **** {
 787:./shy_fft.h   ****     void operator()(const T* i, T* o, T*, const uint8_t*, Phasor*)
 788:./shy_fft.h   ****     {
 789:./shy_fft.h   ****         o[0] = i[0] + i[1];
 790:./shy_fft.h   ****         o[1] = i[0] - i[1];
 791:./shy_fft.h   ****     }
 792:./shy_fft.h   **** };
 793:./shy_fft.h   **** 
 794:./shy_fft.h   **** template <typename T, typename Phasor>
 795:./shy_fft.h   **** struct InverseTransform<T, 2, Phasor>
 796:./shy_fft.h   **** {
 797:./shy_fft.h   ****     void operator()(const T* i, T* o, T*, const uint8_t*, Phasor*)
ARM GAS  /var/folders/hl/qgbwny5j0fd895c2c41bk3tw0000gp/T//ccX3fN6S.s 			page 25


 798:./shy_fft.h   ****     {
 799:./shy_fft.h   ****         T a = i[0] + i[2];
 800:./shy_fft.h   ****         T b = i[0] - i[2];
 801:./shy_fft.h   **** 
 802:./shy_fft.h   ****         o[0] = a + i[1] * T(2);
 803:./shy_fft.h   ****         o[2] = a - i[1] * T(2);
 804:./shy_fft.h   ****         o[1] = b + i[3] * T(2);
 805:./shy_fft.h   ****         o[3] = b - i[3] * T(2);
 806:./shy_fft.h   ****     }
 807:./shy_fft.h   **** };
 808:./shy_fft.h   **** 
 809:./shy_fft.h   **** 
 810:./shy_fft.h   **** template <typename T                               = float,
 811:./shy_fft.h   ****           size_t size                              = 16,
 812:./shy_fft.h   ****           template <typename, size_t> class Phasor = LutPhasor>
 813:./shy_fft.h   **** class ShyFFT
 814:./shy_fft.h   **** {
 815:./shy_fft.h   ****   public:
 816:./shy_fft.h   ****     enum
 817:./shy_fft.h   ****     {
 818:./shy_fft.h   ****         num_passes = Log2<size>::value,
 819:./shy_fft.h   ****         max_size   = size
 820:./shy_fft.h   ****     };
 821:./shy_fft.h   **** 
 822:./shy_fft.h   ****   private:
 823:./shy_fft.h   ****     typedef Phasor<T, num_passes> PhasorType;
 824:./shy_fft.h   **** 
 825:./shy_fft.h   ****   public:
 826:./shy_fft.h   ****     ShyFFT() {}
 827:./shy_fft.h   ****     ~ShyFFT() {}
 115              		.loc 10 827 5 view .LVU19
 116              	.LBB715:
 117              	.LBI715:
 233:./shy_fft.h   **** 
 118              		.loc 10 233 5 view .LVU20
 233:./shy_fft.h   **** 
 119              		.loc 10 233 5 is_stmt 0 view .LVU21
 120              	.LBE715:
 121              	.LBE714:
 122              	.LBE713:
 123              	.LBB716:
 124              	.LBI716:
 125              		.file 11 "dsp/looping_sample_player.h"
   1:dsp/looping_sample_player.h **** // Copyright 2014 Emilie Gillet.
   2:dsp/looping_sample_player.h **** //
   3:dsp/looping_sample_player.h **** // Author: Emilie Gillet (emilie.o.gillet@gmail.com)
   4:dsp/looping_sample_player.h **** //
   5:dsp/looping_sample_player.h **** // Permission is hereby granted, free of charge, to any person obtaining a copy
   6:dsp/looping_sample_player.h **** // of this software and associated documentation files (the "Software"), to deal
   7:dsp/looping_sample_player.h **** // in the Software without restriction, including without limitation the rights
   8:dsp/looping_sample_player.h **** // to use, copy, modify, merge, publish, distribute, sublicense, and/or sell
   9:dsp/looping_sample_player.h **** // copies of the Software, and to permit persons to whom the Software is
  10:dsp/looping_sample_player.h **** // furnished to do so, subject to the following conditions:
  11:dsp/looping_sample_player.h **** //
  12:dsp/looping_sample_player.h **** // The above copyright notice and this permission notice shall be included in
  13:dsp/looping_sample_player.h **** // all copies or substantial portions of the Software.
  14:dsp/looping_sample_player.h **** //
ARM GAS  /var/folders/hl/qgbwny5j0fd895c2c41bk3tw0000gp/T//ccX3fN6S.s 			page 26


  15:dsp/looping_sample_player.h **** // THE SOFTWARE IS PROVIDED "AS IS", WITHOUT WARRANTY OF ANY KIND, EXPRESS OR
  16:dsp/looping_sample_player.h **** // IMPLIED, INCLUDING BUT NOT LIMITED TO THE WARRANTIES OF MERCHANTABILITY,
  17:dsp/looping_sample_player.h **** // FITNESS FOR A PARTICULAR PURPOSE AND NONINFRINGEMENT. IN NO EVENT SHALL THE
  18:dsp/looping_sample_player.h **** // AUTHORS OR COPYRIGHT HOLDERS BE LIABLE FOR ANY CLAIM, DAMAGES OR OTHER
  19:dsp/looping_sample_player.h **** // LIABILITY, WHETHER IN AN ACTION OF CONTRACT, TORT OR OTHERWISE, ARISING FROM,
  20:dsp/looping_sample_player.h **** // OUT OF OR IN CONNECTION WITH THE SOFTWARE OR THE USE OR OTHER DEALINGS IN
  21:dsp/looping_sample_player.h **** // THE SOFTWARE.
  22:dsp/looping_sample_player.h **** //
  23:dsp/looping_sample_player.h **** // See http://creativecommons.org/licenses/MIT/ for more information.
  24:dsp/looping_sample_player.h **** //
  25:dsp/looping_sample_player.h **** // -----------------------------------------------------------------------------
  26:dsp/looping_sample_player.h **** //
  27:dsp/looping_sample_player.h **** // Naive playback of audio stored in a buffer.
  28:dsp/looping_sample_player.h **** 
  29:dsp/looping_sample_player.h **** #ifndef CLOUDS_DSP_LOOPING_SAMPLE_PLAYER_H_
  30:dsp/looping_sample_player.h **** #define CLOUDS_DSP_LOOPING_SAMPLE_PLAYER_H_
  31:dsp/looping_sample_player.h **** 
  32:dsp/looping_sample_player.h **** #include <algorithm>
  33:dsp/looping_sample_player.h **** 
  34:dsp/looping_sample_player.h **** #include "audio_buffer.h"
  35:dsp/looping_sample_player.h **** #include "frame.h"
  36:dsp/looping_sample_player.h **** #include "parameters.h"
  37:dsp/looping_sample_player.h **** 
  38:dsp/looping_sample_player.h **** using namespace daisysp;
  39:dsp/looping_sample_player.h **** 
  40:dsp/looping_sample_player.h **** const float kCrossfadeDuration = 64.0f;
  41:dsp/looping_sample_player.h **** 
  42:dsp/looping_sample_player.h **** using namespace daisy;
  43:dsp/looping_sample_player.h **** 
  44:dsp/looping_sample_player.h **** class LoopingSamplePlayer
  45:dsp/looping_sample_player.h **** {
  46:dsp/looping_sample_player.h ****   public:
  47:dsp/looping_sample_player.h ****     LoopingSamplePlayer() {}
  48:dsp/looping_sample_player.h ****     ~LoopingSamplePlayer() {}
 126              		.loc 11 48 5 is_stmt 1 view .LVU22
 127              		.loc 11 48 5 is_stmt 0 view .LVU23
 128              	.LBE716:
 129              	.LBB717:
 130              	.LBI717:
 131              		.file 12 "dsp/wsola_sample_player.h"
   1:dsp/wsola_sample_player.h **** // Copyright 2014 Emilie Gillet.
   2:dsp/wsola_sample_player.h **** //
   3:dsp/wsola_sample_player.h **** // Author: Emilie Gillet (emilie.o.gillet@gmail.com)
   4:dsp/wsola_sample_player.h **** //
   5:dsp/wsola_sample_player.h **** // Permission is hereby granted, free of charge, to any person obtaining a copy
   6:dsp/wsola_sample_player.h **** // of this software and associated documentation files (the "Software"), to deal
   7:dsp/wsola_sample_player.h **** // in the Software without restriction, including without limitation the rights
   8:dsp/wsola_sample_player.h **** // to use, copy, modify, merge, publish, distribute, sublicense, and/or sell
   9:dsp/wsola_sample_player.h **** // copies of the Software, and to permit persons to whom the Software is
  10:dsp/wsola_sample_player.h **** // furnished to do so, subject to the following conditions:
  11:dsp/wsola_sample_player.h **** //
  12:dsp/wsola_sample_player.h **** // The above copyright notice and this permission notice shall be included in
  13:dsp/wsola_sample_player.h **** // all copies or substantial portions of the Software.
  14:dsp/wsola_sample_player.h **** //
  15:dsp/wsola_sample_player.h **** // THE SOFTWARE IS PROVIDED "AS IS", WITHOUT WARRANTY OF ANY KIND, EXPRESS OR
  16:dsp/wsola_sample_player.h **** // IMPLIED, INCLUDING BUT NOT LIMITED TO THE WARRANTIES OF MERCHANTABILITY,
  17:dsp/wsola_sample_player.h **** // FITNESS FOR A PARTICULAR PURPOSE AND NONINFRINGEMENT. IN NO EVENT SHALL THE
ARM GAS  /var/folders/hl/qgbwny5j0fd895c2c41bk3tw0000gp/T//ccX3fN6S.s 			page 27


  18:dsp/wsola_sample_player.h **** // AUTHORS OR COPYRIGHT HOLDERS BE LIABLE FOR ANY CLAIM, DAMAGES OR OTHER
  19:dsp/wsola_sample_player.h **** // LIABILITY, WHETHER IN AN ACTION OF CONTRACT, TORT OR OTHERWISE, ARISING FROM,
  20:dsp/wsola_sample_player.h **** // OUT OF OR IN CONNECTION WITH THE SOFTWARE OR THE USE OR OTHER DEALINGS IN
  21:dsp/wsola_sample_player.h **** // THE SOFTWARE.
  22:dsp/wsola_sample_player.h **** //
  23:dsp/wsola_sample_player.h **** // See http://creativecommons.org/licenses/MIT/ for more information.
  24:dsp/wsola_sample_player.h **** //
  25:dsp/wsola_sample_player.h **** // -----------------------------------------------------------------------------
  26:dsp/wsola_sample_player.h **** //
  27:dsp/wsola_sample_player.h **** // WSOLA playback.
  28:dsp/wsola_sample_player.h **** 
  29:dsp/wsola_sample_player.h **** #ifndef CLOUDS_DSP_WSOLA_SAMPLE_PLAYER_H_
  30:dsp/wsola_sample_player.h **** #define CLOUDS_DSP_WSOLA_SAMPLE_PLAYER_H_
  31:dsp/wsola_sample_player.h **** 
  32:dsp/wsola_sample_player.h **** #include <algorithm>
  33:dsp/wsola_sample_player.h **** 
  34:dsp/wsola_sample_player.h **** #include <cmath>
  35:dsp/wsola_sample_player.h **** #include <cstdio>
  36:dsp/wsola_sample_player.h **** #include <cstdlib>
  37:dsp/wsola_sample_player.h **** 
  38:dsp/wsola_sample_player.h **** #include "audio_buffer.h"
  39:dsp/wsola_sample_player.h **** #include "correlator.h"
  40:dsp/wsola_sample_player.h **** #include "frame.h"
  41:dsp/wsola_sample_player.h **** #include "window.h"
  42:dsp/wsola_sample_player.h **** #include "parameters.h"
  43:dsp/wsola_sample_player.h **** 
  44:dsp/wsola_sample_player.h **** using namespace daisysp;
  45:dsp/wsola_sample_player.h **** 
  46:dsp/wsola_sample_player.h **** const int32_t kMaxWSOLASize = 4096;
  47:dsp/wsola_sample_player.h **** 
  48:dsp/wsola_sample_player.h **** using namespace daisy;
  49:dsp/wsola_sample_player.h **** 
  50:dsp/wsola_sample_player.h **** class WSOLASamplePlayer
  51:dsp/wsola_sample_player.h **** {
  52:dsp/wsola_sample_player.h ****   public:
  53:dsp/wsola_sample_player.h ****     WSOLASamplePlayer() {}
  54:dsp/wsola_sample_player.h ****     ~WSOLASamplePlayer() {}
 132              		.loc 12 54 5 is_stmt 1 view .LVU24
 133              		.loc 12 54 5 is_stmt 0 view .LVU25
 134              	.LBE717:
 135              	.LBB718:
 136              	.LBI718:
 137              		.file 13 "dsp/granular_sample_player.h"
   1:dsp/granular_sample_player.h **** // Copyright 2014 Emilie Gillet.
   2:dsp/granular_sample_player.h **** //
   3:dsp/granular_sample_player.h **** // Author: Emilie Gillet (emilie.o.gillet@gmail.com)
   4:dsp/granular_sample_player.h **** //
   5:dsp/granular_sample_player.h **** // Permission is hereby granted, free of charge, to any person obtaining a copy
   6:dsp/granular_sample_player.h **** // of this software and associated documentation files (the "Software"), to deal
   7:dsp/granular_sample_player.h **** // in the Software without restriction, including without limitation the rights
   8:dsp/granular_sample_player.h **** // to use, copy, modify, merge, publish, distribute, sublicense, and/or sell
   9:dsp/granular_sample_player.h **** // copies of the Software, and to permit persons to whom the Software is
  10:dsp/granular_sample_player.h **** // furnished to do so, subject to the following conditions:
  11:dsp/granular_sample_player.h **** //
  12:dsp/granular_sample_player.h **** // The above copyright notice and this permission notice shall be included in
  13:dsp/granular_sample_player.h **** // all copies or substantial portions of the Software.
  14:dsp/granular_sample_player.h **** //
ARM GAS  /var/folders/hl/qgbwny5j0fd895c2c41bk3tw0000gp/T//ccX3fN6S.s 			page 28


  15:dsp/granular_sample_player.h **** // THE SOFTWARE IS PROVIDED "AS IS", WITHOUT WARRANTY OF ANY KIND, EXPRESS OR
  16:dsp/granular_sample_player.h **** // IMPLIED, INCLUDING BUT NOT LIMITED TO THE WARRANTIES OF MERCHANTABILITY,
  17:dsp/granular_sample_player.h **** // FITNESS FOR A PARTICULAR PURPOSE AND NONINFRINGEMENT. IN NO EVENT SHALL THE
  18:dsp/granular_sample_player.h **** // AUTHORS OR COPYRIGHT HOLDERS BE LIABLE FOR ANY CLAIM, DAMAGES OR OTHER
  19:dsp/granular_sample_player.h **** // LIABILITY, WHETHER IN AN ACTION OF CONTRACT, TORT OR OTHERWISE, ARISING FROM,
  20:dsp/granular_sample_player.h **** // OUT OF OR IN CONNECTION WITH THE SOFTWARE OR THE USE OR OTHER DEALINGS IN
  21:dsp/granular_sample_player.h **** // THE SOFTWARE.
  22:dsp/granular_sample_player.h **** //
  23:dsp/granular_sample_player.h **** // See http://creativecommons.org/licenses/MIT/ for more information.
  24:dsp/granular_sample_player.h **** //
  25:dsp/granular_sample_player.h **** // -----------------------------------------------------------------------------
  26:dsp/granular_sample_player.h **** //
  27:dsp/granular_sample_player.h **** // Granular playback of audio stored in a buffer.
  28:dsp/granular_sample_player.h **** 
  29:dsp/granular_sample_player.h **** #ifndef CLOUDS_DSP_GRANULAR_SAMPLE_PLAYER_H_
  30:dsp/granular_sample_player.h **** #define CLOUDS_DSP_GRANULAR_SAMPLE_PLAYER_H_
  31:dsp/granular_sample_player.h **** 
  32:dsp/granular_sample_player.h **** #include "daisy.h"
  33:dsp/granular_sample_player.h **** 
  34:dsp/granular_sample_player.h **** #include <algorithm>
  35:dsp/granular_sample_player.h **** 
  36:dsp/granular_sample_player.h **** #include "audio_buffer.h"
  37:dsp/granular_sample_player.h **** #include "frame.h"
  38:dsp/granular_sample_player.h **** #include "grain.h"
  39:dsp/granular_sample_player.h **** #include "parameters.h"
  40:dsp/granular_sample_player.h **** 
  41:dsp/granular_sample_player.h **** #include <random>
  42:dsp/granular_sample_player.h **** 
  43:dsp/granular_sample_player.h **** using namespace daisysp;
  44:dsp/granular_sample_player.h **** 
  45:dsp/granular_sample_player.h **** const int32_t kMaxNumGrains = 64;
  46:dsp/granular_sample_player.h **** 
  47:dsp/granular_sample_player.h **** using namespace daisy;
  48:dsp/granular_sample_player.h **** 
  49:dsp/granular_sample_player.h **** class GranularSamplePlayer
  50:dsp/granular_sample_player.h **** {
  51:dsp/granular_sample_player.h ****   public:
  52:dsp/granular_sample_player.h ****     GranularSamplePlayer() {}
  53:dsp/granular_sample_player.h ****     ~GranularSamplePlayer() {}
 138              		.loc 13 53 5 is_stmt 1 view .LVU26
 139              		.loc 13 53 5 is_stmt 0 view .LVU27
 140              	.LBE718:
 141              	.LBB719:
 142              	.LBI719:
 143              		.file 14 "dsp/correlator.h"
   1:dsp/correlator.h **** // Copyright 2014 Emilie Gillet.
   2:dsp/correlator.h **** //
   3:dsp/correlator.h **** // Author: Emilie Gillet (emilie.o.gillet@gmail.com)
   4:dsp/correlator.h **** //
   5:dsp/correlator.h **** // Permission is hereby granted, free of charge, to any person obtaining a copy
   6:dsp/correlator.h **** // of this software and associated documentation files (the "Software"), to deal
   7:dsp/correlator.h **** // in the Software without restriction, including without limitation the rights
   8:dsp/correlator.h **** // to use, copy, modify, merge, publish, distribute, sublicense, and/or sell
   9:dsp/correlator.h **** // copies of the Software, and to permit persons to whom the Software is
  10:dsp/correlator.h **** // furnished to do so, subject to the following conditions:
  11:dsp/correlator.h **** //
  12:dsp/correlator.h **** // The above copyright notice and this permission notice shall be included in
ARM GAS  /var/folders/hl/qgbwny5j0fd895c2c41bk3tw0000gp/T//ccX3fN6S.s 			page 29


  13:dsp/correlator.h **** // all copies or substantial portions of the Software.
  14:dsp/correlator.h **** //
  15:dsp/correlator.h **** // THE SOFTWARE IS PROVIDED "AS IS", WITHOUT WARRANTY OF ANY KIND, EXPRESS OR
  16:dsp/correlator.h **** // IMPLIED, INCLUDING BUT NOT LIMITED TO THE WARRANTIES OF MERCHANTABILITY,
  17:dsp/correlator.h **** // FITNESS FOR A PARTICULAR PURPOSE AND NONINFRINGEMENT. IN NO EVENT SHALL THE
  18:dsp/correlator.h **** // AUTHORS OR COPYRIGHT HOLDERS BE LIABLE FOR ANY CLAIM, DAMAGES OR OTHER
  19:dsp/correlator.h **** // LIABILITY, WHETHER IN AN ACTION OF CONTRACT, TORT OR OTHERWISE, ARISING FROM,
  20:dsp/correlator.h **** // OUT OF OR IN CONNECTION WITH THE SOFTWARE OR THE USE OR OTHER DEALINGS IN
  21:dsp/correlator.h **** // THE SOFTWARE.
  22:dsp/correlator.h **** //
  23:dsp/correlator.h **** // See http://creativecommons.org/licenses/MIT/ for more information.
  24:dsp/correlator.h **** //
  25:dsp/correlator.h **** // -----------------------------------------------------------------------------
  26:dsp/correlator.h **** //
  27:dsp/correlator.h **** // Search for stretch/shift splicing points by maximizing correlation.
  28:dsp/correlator.h **** // Correlation is computed by XOR-ing the bit sign of samples - this allows
  29:dsp/correlator.h **** // 32 samples to be matched in one single XOR operation.
  30:dsp/correlator.h **** 
  31:dsp/correlator.h **** #ifndef CLOUDS_DSP_CORRELATOR_H_
  32:dsp/correlator.h **** #define CLOUDS_DSP_CORRELATOR_H_
  33:dsp/correlator.h **** 
  34:dsp/correlator.h **** #include "daisysp.h"
  35:dsp/correlator.h **** 
  36:dsp/correlator.h **** using namespace daisysp;
  37:dsp/correlator.h **** 
  38:dsp/correlator.h **** class Correlator
  39:dsp/correlator.h **** {
  40:dsp/correlator.h ****   public:
  41:dsp/correlator.h ****     Correlator() {}
  42:dsp/correlator.h ****     ~Correlator() {}
 144              		.loc 14 42 5 is_stmt 1 view .LVU28
 145              		.loc 14 42 5 is_stmt 0 view .LVU29
 146              	.LBE719:
 147              		.loc 3 78 33 view .LVU30
 148 0000 7047     		bx	lr
 149              		.cfi_endproc
 150              	.LFE5029:
 152              		.weak	_ZN23GranularProcessorCloudsD1Ev
 153              		.thumb_set _ZN23GranularProcessorCloudsD1Ev,_ZN23GranularProcessorCloudsD2Ev
 154 0002 00BF     		.section	.text._ZN5daisy8patch_sm12DaisyPatchSMD2Ev,"axG",%progbits,_ZN5daisy8patch_sm12DaisyPatch
 155              		.align	1
 156              		.p2align 2,,3
 157              		.weak	_ZN5daisy8patch_sm12DaisyPatchSMD2Ev
 158              		.syntax unified
 159              		.thumb
 160              		.thumb_func
 161              		.fpu fpv5-d16
 163              	_ZN5daisy8patch_sm12DaisyPatchSMD2Ev:
 164              	.LVL2:
 165              	.LFB5051:
 166              		.file 15 "../../libDaisy/src/daisy_patch_sm.h"
   1:../../libDaisy/src/daisy_patch_sm.h **** #pragma once
   2:../../libDaisy/src/daisy_patch_sm.h **** 
   3:../../libDaisy/src/daisy_patch_sm.h **** #include "daisy.h"
   4:../../libDaisy/src/daisy_patch_sm.h **** 
   5:../../libDaisy/src/daisy_patch_sm.h **** namespace daisy
   6:../../libDaisy/src/daisy_patch_sm.h **** {
ARM GAS  /var/folders/hl/qgbwny5j0fd895c2c41bk3tw0000gp/T//ccX3fN6S.s 			page 30


   7:../../libDaisy/src/daisy_patch_sm.h **** namespace patch_sm
   8:../../libDaisy/src/daisy_patch_sm.h **** {
   9:../../libDaisy/src/daisy_patch_sm.h ****     /** Accessors for the Analog Controls. 
  10:../../libDaisy/src/daisy_patch_sm.h ****      *  These cover the 8x Bipolar CV inputs
  11:../../libDaisy/src/daisy_patch_sm.h ****      *  as well as the 4x 0-3V3 ADC inputs on
  12:../../libDaisy/src/daisy_patch_sm.h ****      *  the hardware 
  13:../../libDaisy/src/daisy_patch_sm.h ****      * 
  14:../../libDaisy/src/daisy_patch_sm.h ****      *  When reading a value with DaisyPatchSM::GetAdcValue()
  15:../../libDaisy/src/daisy_patch_sm.h ****      * 
  16:../../libDaisy/src/daisy_patch_sm.h ****      *  patch.GetAdcValue(patch_sm::CV_1);
  17:../../libDaisy/src/daisy_patch_sm.h ****      */
  18:../../libDaisy/src/daisy_patch_sm.h ****     enum
  19:../../libDaisy/src/daisy_patch_sm.h ****     {
  20:../../libDaisy/src/daisy_patch_sm.h ****         CV_1 = 0,
  21:../../libDaisy/src/daisy_patch_sm.h ****         CV_2,
  22:../../libDaisy/src/daisy_patch_sm.h ****         CV_3,
  23:../../libDaisy/src/daisy_patch_sm.h ****         CV_4,
  24:../../libDaisy/src/daisy_patch_sm.h ****         CV_5,
  25:../../libDaisy/src/daisy_patch_sm.h ****         CV_6,
  26:../../libDaisy/src/daisy_patch_sm.h ****         CV_7,
  27:../../libDaisy/src/daisy_patch_sm.h ****         CV_8,
  28:../../libDaisy/src/daisy_patch_sm.h ****         ADC_9,
  29:../../libDaisy/src/daisy_patch_sm.h ****         ADC_10,
  30:../../libDaisy/src/daisy_patch_sm.h ****         ADC_11,
  31:../../libDaisy/src/daisy_patch_sm.h ****         ADC_12,
  32:../../libDaisy/src/daisy_patch_sm.h ****         ADC_LAST,
  33:../../libDaisy/src/daisy_patch_sm.h ****     };
  34:../../libDaisy/src/daisy_patch_sm.h **** 
  35:../../libDaisy/src/daisy_patch_sm.h ****     /** Enum for addressing the CV Outputs via the WriteCvOut function. */
  36:../../libDaisy/src/daisy_patch_sm.h ****     enum
  37:../../libDaisy/src/daisy_patch_sm.h ****     {
  38:../../libDaisy/src/daisy_patch_sm.h ****         CV_OUT_BOTH = 0,
  39:../../libDaisy/src/daisy_patch_sm.h ****         CV_OUT_1,
  40:../../libDaisy/src/daisy_patch_sm.h ****         CV_OUT_2,
  41:../../libDaisy/src/daisy_patch_sm.h ****     };
  42:../../libDaisy/src/daisy_patch_sm.h **** 
  43:../../libDaisy/src/daisy_patch_sm.h **** 
  44:../../libDaisy/src/daisy_patch_sm.h ****     /** @brief Board support file for DaisyPatchSM hardware
  45:../../libDaisy/src/daisy_patch_sm.h ****      *  @author shensley
  46:../../libDaisy/src/daisy_patch_sm.h ****      *  @ingroup boards
  47:../../libDaisy/src/daisy_patch_sm.h ****      * 
  48:../../libDaisy/src/daisy_patch_sm.h ****      *  Daisy Patch SM is a complete Eurorack module DSP engine.
  49:../../libDaisy/src/daisy_patch_sm.h ****      *  Based on the Daisy Seed, with circuits added for 
  50:../../libDaisy/src/daisy_patch_sm.h ****      *  interfacing directly with eurorack modular synthesizers.
  51:../../libDaisy/src/daisy_patch_sm.h ****      */
  52:../../libDaisy/src/daisy_patch_sm.h ****     class DaisyPatchSM
  53:../../libDaisy/src/daisy_patch_sm.h ****     {
  54:../../libDaisy/src/daisy_patch_sm.h ****       public:
  55:../../libDaisy/src/daisy_patch_sm.h ****         /** Helper for mapping pins, and accessing them using the `GetPin` function */
  56:../../libDaisy/src/daisy_patch_sm.h ****         enum class PinBank
  57:../../libDaisy/src/daisy_patch_sm.h ****         {
  58:../../libDaisy/src/daisy_patch_sm.h ****             A,
  59:../../libDaisy/src/daisy_patch_sm.h ****             B,
  60:../../libDaisy/src/daisy_patch_sm.h ****             C,
  61:../../libDaisy/src/daisy_patch_sm.h ****             D
  62:../../libDaisy/src/daisy_patch_sm.h ****         };
  63:../../libDaisy/src/daisy_patch_sm.h **** 
ARM GAS  /var/folders/hl/qgbwny5j0fd895c2c41bk3tw0000gp/T//ccX3fN6S.s 			page 31


  64:../../libDaisy/src/daisy_patch_sm.h ****         DaisyPatchSM() {}
  65:../../libDaisy/src/daisy_patch_sm.h ****         ~DaisyPatchSM() {}
 167              		.loc 15 65 9 is_stmt 1 view -0
 168              		.cfi_startproc
 169              		@ args = 0, pretend = 0, frame = 0
 170              		@ frame_needed = 0, uses_anonymous_args = 0
 171              		@ link register save eliminated.
 172              	.LBB720:
 173              	.LBI720:
 174              		.file 16 "../../libDaisy/src/hid/gatein.h"
   1:../../libDaisy/src/hid/gatein.h **** #pragma once
   2:../../libDaisy/src/hid/gatein.h **** #ifndef DSY_GATEIN_H
   3:../../libDaisy/src/hid/gatein.h **** #define DSY_GATEIN_H
   4:../../libDaisy/src/hid/gatein.h **** #include "per/gpio.h"
   5:../../libDaisy/src/hid/gatein.h **** 
   6:../../libDaisy/src/hid/gatein.h **** namespace daisy
   7:../../libDaisy/src/hid/gatein.h **** {
   8:../../libDaisy/src/hid/gatein.h **** /**
   9:../../libDaisy/src/hid/gatein.h ****    @brief Generic Class for handling gate inputs through GPIO.
  10:../../libDaisy/src/hid/gatein.h ****    @author Stephen Hensley
  11:../../libDaisy/src/hid/gatein.h ****    @date    March 2020
  12:../../libDaisy/src/hid/gatein.h ****    @ingroup controls
  13:../../libDaisy/src/hid/gatein.h **** */
  14:../../libDaisy/src/hid/gatein.h **** class GateIn
  15:../../libDaisy/src/hid/gatein.h **** {
  16:../../libDaisy/src/hid/gatein.h ****   public:
  17:../../libDaisy/src/hid/gatein.h ****     /** GateIn 
  18:../../libDaisy/src/hid/gatein.h ****     Constructor 
  19:../../libDaisy/src/hid/gatein.h ****     */
  20:../../libDaisy/src/hid/gatein.h ****     GateIn() {}
  21:../../libDaisy/src/hid/gatein.h ****     /** GateIn~
  22:../../libDaisy/src/hid/gatein.h ****     Destructor 
  23:../../libDaisy/src/hid/gatein.h ****     */
  24:../../libDaisy/src/hid/gatein.h ****     ~GateIn() {}
 175              		.loc 16 24 5 view .LVU32
 176              		.loc 16 24 5 is_stmt 0 view .LVU33
 177              	.LBE720:
 178              	.LBB721:
 179              	.LBI721:
 180              		.loc 16 24 5 is_stmt 1 view .LVU34
 181              		.loc 16 24 5 is_stmt 0 view .LVU35
 182              	.LBE721:
 183              	.LBB722:
 184              	.LBI722:
 185              		.file 17 "../../libDaisy/src/dev/codec_pcm3060.h"
   1:../../libDaisy/src/dev/codec_pcm3060.h **** #pragma once
   2:../../libDaisy/src/dev/codec_pcm3060.h **** #ifndef DSY_CODEC_PCM3060_H
   3:../../libDaisy/src/dev/codec_pcm3060.h **** #define DSY_CODEC_PCM3060_H
   4:../../libDaisy/src/dev/codec_pcm3060.h **** #include "per/i2c.h"
   5:../../libDaisy/src/dev/codec_pcm3060.h **** namespace daisy
   6:../../libDaisy/src/dev/codec_pcm3060.h **** {
   7:../../libDaisy/src/dev/codec_pcm3060.h **** /**
   8:../../libDaisy/src/dev/codec_pcm3060.h ****  * @brief Driver for the TI PCM3060 Audio Codec.
   9:../../libDaisy/src/dev/codec_pcm3060.h ****  * @addtogroup codec
  10:../../libDaisy/src/dev/codec_pcm3060.h ****  * 
  11:../../libDaisy/src/dev/codec_pcm3060.h ****  * For now this is a limited interface that uses I2C to communicate with the PCM3060
  12:../../libDaisy/src/dev/codec_pcm3060.h ****  * The device can also be accessed with SPI, which is not yet supported.
ARM GAS  /var/folders/hl/qgbwny5j0fd895c2c41bk3tw0000gp/T//ccX3fN6S.s 			page 32


  13:../../libDaisy/src/dev/codec_pcm3060.h ****  * 
  14:../../libDaisy/src/dev/codec_pcm3060.h ****  * For now all registers are set to their defaults, and the Init function will 
  15:../../libDaisy/src/dev/codec_pcm3060.h ****  * perform a MRST and SRST before setting the format to 24bit LJ, and disabling 
  16:../../libDaisy/src/dev/codec_pcm3060.h ****  * power save for both the ADC and DAC.
  17:../../libDaisy/src/dev/codec_pcm3060.h ****  *
  18:../../libDaisy/src/dev/codec_pcm3060.h ****  */
  19:../../libDaisy/src/dev/codec_pcm3060.h **** class Pcm3060
  20:../../libDaisy/src/dev/codec_pcm3060.h **** {
  21:../../libDaisy/src/dev/codec_pcm3060.h ****   public:
  22:../../libDaisy/src/dev/codec_pcm3060.h ****     enum class Result
  23:../../libDaisy/src/dev/codec_pcm3060.h ****     {
  24:../../libDaisy/src/dev/codec_pcm3060.h ****         OK,
  25:../../libDaisy/src/dev/codec_pcm3060.h ****         ERR,
  26:../../libDaisy/src/dev/codec_pcm3060.h ****     };
  27:../../libDaisy/src/dev/codec_pcm3060.h **** 
  28:../../libDaisy/src/dev/codec_pcm3060.h ****     Pcm3060() {}
  29:../../libDaisy/src/dev/codec_pcm3060.h ****     ~Pcm3060() {}
 186              		.loc 17 29 5 is_stmt 1 view .LVU36
 187              		.loc 17 29 5 is_stmt 0 view .LVU37
 188              	.LBE722:
 189              	.LBB723:
 190              	.LBI723:
 191              		.file 18 "../../libDaisy/src/hid/usb.h"
   1:../../libDaisy/src/hid/usb.h **** #pragma once
   2:../../libDaisy/src/hid/usb.h **** #ifndef DSY_HID_USB_H
   3:../../libDaisy/src/hid/usb.h **** #define DSY_HID_USB_H
   4:../../libDaisy/src/hid/usb.h **** #include <stdint.h>
   5:../../libDaisy/src/hid/usb.h **** #include <stdlib.h>
   6:../../libDaisy/src/hid/usb.h **** 
   7:../../libDaisy/src/hid/usb.h **** namespace daisy
   8:../../libDaisy/src/hid/usb.h **** /** @addtogroup human_interface
   9:../../libDaisy/src/hid/usb.h ****     @{
  10:../../libDaisy/src/hid/usb.h **** */
  11:../../libDaisy/src/hid/usb.h **** 
  12:../../libDaisy/src/hid/usb.h **** {
  13:../../libDaisy/src/hid/usb.h **** /** 
  14:../../libDaisy/src/hid/usb.h ****     @brief Interface for initializing and using the USB Peripherals on the daisy
  15:../../libDaisy/src/hid/usb.h ****     @author Stephen Hensley
  16:../../libDaisy/src/hid/usb.h ****     @date December 2019
  17:../../libDaisy/src/hid/usb.h **** */
  18:../../libDaisy/src/hid/usb.h **** class UsbHandle
  19:../../libDaisy/src/hid/usb.h **** {
  20:../../libDaisy/src/hid/usb.h ****   public:
  21:../../libDaisy/src/hid/usb.h ****     /** Return values for USBHandle Functions */
  22:../../libDaisy/src/hid/usb.h ****     enum class Result
  23:../../libDaisy/src/hid/usb.h ****     {
  24:../../libDaisy/src/hid/usb.h ****         OK,
  25:../../libDaisy/src/hid/usb.h ****         ERR,
  26:../../libDaisy/src/hid/usb.h ****     };
  27:../../libDaisy/src/hid/usb.h **** 
  28:../../libDaisy/src/hid/usb.h ****     /** Specified which of the two USB Peripherals to initialize. */
  29:../../libDaisy/src/hid/usb.h ****     enum UsbPeriph
  30:../../libDaisy/src/hid/usb.h ****     {
  31:../../libDaisy/src/hid/usb.h ****         FS_INTERNAL, /**< Internal pin */
  32:../../libDaisy/src/hid/usb.h ****         FS_EXTERNAL, /**< FS External D+ pin is Pin 38 (GPIO32). FS External D- pin is Pin 37 (GPIO
  33:../../libDaisy/src/hid/usb.h ****         FS_BOTH,     /**< Both */
  34:../../libDaisy/src/hid/usb.h ****     };
ARM GAS  /var/folders/hl/qgbwny5j0fd895c2c41bk3tw0000gp/T//ccX3fN6S.s 			page 33


  35:../../libDaisy/src/hid/usb.h **** 
  36:../../libDaisy/src/hid/usb.h **** 
  37:../../libDaisy/src/hid/usb.h ****     /** Function called upon reception of a buffer */
  38:../../libDaisy/src/hid/usb.h ****     typedef void (*ReceiveCallback)(uint8_t* buff, uint32_t* len);
  39:../../libDaisy/src/hid/usb.h **** 
  40:../../libDaisy/src/hid/usb.h ****     UsbHandle() {}
  41:../../libDaisy/src/hid/usb.h **** 
  42:../../libDaisy/src/hid/usb.h ****     ~UsbHandle() {}
 192              		.loc 18 42 5 is_stmt 1 view .LVU38
 193              		.loc 18 42 5 is_stmt 0 view .LVU39
 194              	.LBE723:
 195              	.LBB724:
 196              	.LBI724:
 197              		.file 19 "../../libDaisy/src/per/adc.h"
   1:../../libDaisy/src/per/adc.h **** #pragma once
   2:../../libDaisy/src/per/adc.h **** #ifndef DSY_ADC_H
   3:../../libDaisy/src/per/adc.h **** #define DSY_ADC_H /**< Macro */
   4:../../libDaisy/src/per/adc.h **** #include <stdint.h>
   5:../../libDaisy/src/per/adc.h **** #include <stdlib.h>
   6:../../libDaisy/src/per/adc.h **** #include "daisy_core.h"
   7:../../libDaisy/src/per/adc.h **** #include "per/gpio.h"
   8:../../libDaisy/src/per/adc.h **** 
   9:../../libDaisy/src/per/adc.h **** #define DSY_ADC_MAX_CHANNELS 16 /**< Maximum number of ADC channels */
  10:../../libDaisy/src/per/adc.h **** 
  11:../../libDaisy/src/per/adc.h **** namespace daisy
  12:../../libDaisy/src/per/adc.h **** {
  13:../../libDaisy/src/per/adc.h **** /** @addtogroup per_analog
  14:../../libDaisy/src/per/adc.h ****     @{
  15:../../libDaisy/src/per/adc.h **** */
  16:../../libDaisy/src/per/adc.h **** 
  17:../../libDaisy/src/per/adc.h **** /* While there may not be many configuration options here,
  18:../../libDaisy/src/per/adc.h **** using a struct like this allows us to add more configuration
  19:../../libDaisy/src/per/adc.h **** later without breaking existing functionality.
  20:../../libDaisy/src/per/adc.h **** */
  21:../../libDaisy/src/per/adc.h **** 
  22:../../libDaisy/src/per/adc.h **** /** @brief   Configuration Structure for an ADC Channel 
  23:../../libDaisy/src/per/adc.h ****  *  @details This can be used to configure a a single input, 
  24:../../libDaisy/src/per/adc.h ****  *           or a multiplexed input, allowing up to 8 inputs on 
  25:../../libDaisy/src/per/adc.h ****  *           one channel.
  26:../../libDaisy/src/per/adc.h ****  *  @note    Sharing data lines to multiple muxes _is_ possible, but
  27:../../libDaisy/src/per/adc.h ****  *           each channel sharing data lines must be set to the maximum
  28:../../libDaisy/src/per/adc.h ****  *           number of channels, even if some multiplexers have fewer
  29:../../libDaisy/src/per/adc.h ****  *           inputs connected.
  30:../../libDaisy/src/per/adc.h **** */
  31:../../libDaisy/src/per/adc.h **** struct AdcChannelConfig
  32:../../libDaisy/src/per/adc.h **** {
  33:../../libDaisy/src/per/adc.h ****     /** Which pin to use for multiplexing */
  34:../../libDaisy/src/per/adc.h ****     enum MuxPin
  35:../../libDaisy/src/per/adc.h ****     {
  36:../../libDaisy/src/per/adc.h ****         MUX_SEL_0,    /**< & */
  37:../../libDaisy/src/per/adc.h ****         MUX_SEL_1,    /**< & */
  38:../../libDaisy/src/per/adc.h ****         MUX_SEL_2,    /**< & */
  39:../../libDaisy/src/per/adc.h ****         MUX_SEL_LAST, /**< & */
  40:../../libDaisy/src/per/adc.h ****     };
  41:../../libDaisy/src/per/adc.h **** 
  42:../../libDaisy/src/per/adc.h ****     /** Initializes a single ADC pin as an ADC. 
  43:../../libDaisy/src/per/adc.h ****     \param pin Pin to init.
ARM GAS  /var/folders/hl/qgbwny5j0fd895c2c41bk3tw0000gp/T//ccX3fN6S.s 			page 34


  44:../../libDaisy/src/per/adc.h ****      */
  45:../../libDaisy/src/per/adc.h ****     void InitSingle(dsy_gpio_pin pin);
  46:../../libDaisy/src/per/adc.h **** 
  47:../../libDaisy/src/per/adc.h ****     /** 
  48:../../libDaisy/src/per/adc.h ****     Initializes a single ADC pin as a Multiplexed ADC.
  49:../../libDaisy/src/per/adc.h ****     Requires a CD405X Multiplexer connected to the pin.
  50:../../libDaisy/src/per/adc.h ****     You only need to supply the mux pins that are required,
  51:../../libDaisy/src/per/adc.h ****     e.g. a 4052 mux would only require mux_0 and mux_1.
  52:../../libDaisy/src/per/adc.h ****     Internal Callbacks handle the pin addressing.
  53:../../libDaisy/src/per/adc.h ****     \param mux_channels must be 1-8
  54:../../libDaisy/src/per/adc.h ****     \param mux_0 First mux pin
  55:../../libDaisy/src/per/adc.h ****     \param mux_1 Second mux pin
  56:../../libDaisy/src/per/adc.h ****     \param mux_2 Third mux pin
  57:../../libDaisy/src/per/adc.h ****     \param adc_pin &
  58:../../libDaisy/src/per/adc.h ****     */
  59:../../libDaisy/src/per/adc.h ****     void InitMux(dsy_gpio_pin adc_pin,
  60:../../libDaisy/src/per/adc.h ****                  size_t       mux_channels,
  61:../../libDaisy/src/per/adc.h ****                  dsy_gpio_pin mux_0,
  62:../../libDaisy/src/per/adc.h ****                  dsy_gpio_pin mux_1 = {DSY_GPIOX, 0},
  63:../../libDaisy/src/per/adc.h ****                  dsy_gpio_pin mux_2 = {DSY_GPIOX, 0});
  64:../../libDaisy/src/per/adc.h **** 
  65:../../libDaisy/src/per/adc.h ****     dsy_gpio pin_;                   /**< & */
  66:../../libDaisy/src/per/adc.h ****     dsy_gpio mux_pin_[MUX_SEL_LAST]; /**< & */
  67:../../libDaisy/src/per/adc.h ****     uint8_t  mux_channels_;          /**< & */
  68:../../libDaisy/src/per/adc.h **** };
  69:../../libDaisy/src/per/adc.h **** 
  70:../../libDaisy/src/per/adc.h **** /**
  71:../../libDaisy/src/per/adc.h ****    @brief Handler for analog to digital conversion
  72:../../libDaisy/src/per/adc.h **** */
  73:../../libDaisy/src/per/adc.h **** class AdcHandle
  74:../../libDaisy/src/per/adc.h **** {
  75:../../libDaisy/src/per/adc.h ****   public:
  76:../../libDaisy/src/per/adc.h ****     /** Supported oversampling amounts */
  77:../../libDaisy/src/per/adc.h ****     enum OverSampling
  78:../../libDaisy/src/per/adc.h ****     {
  79:../../libDaisy/src/per/adc.h ****         OVS_NONE, /**< & */
  80:../../libDaisy/src/per/adc.h ****         OVS_4,    /**< & */
  81:../../libDaisy/src/per/adc.h ****         OVS_8,    /**< & */
  82:../../libDaisy/src/per/adc.h ****         OVS_16,   /**< & */
  83:../../libDaisy/src/per/adc.h ****         OVS_32,   /**< & */
  84:../../libDaisy/src/per/adc.h ****         OVS_64,   /**< & */
  85:../../libDaisy/src/per/adc.h ****         OVS_128,  /**< & */
  86:../../libDaisy/src/per/adc.h ****         OVS_256,  /**< & */
  87:../../libDaisy/src/per/adc.h ****         OVS_512,  /**< & */
  88:../../libDaisy/src/per/adc.h ****         OVS_1024, /**< & */
  89:../../libDaisy/src/per/adc.h ****         OVS_LAST, /**< & */
  90:../../libDaisy/src/per/adc.h ****     };
  91:../../libDaisy/src/per/adc.h **** 
  92:../../libDaisy/src/per/adc.h ****     AdcHandle() {}
  93:../../libDaisy/src/per/adc.h ****     ~AdcHandle() {}
 198              		.loc 19 93 5 is_stmt 1 view .LVU40
 199              		.loc 19 93 5 is_stmt 0 view .LVU41
 200              	.LBE724:
 201              	.LBB725:
 202              	.LBI725:
 203              		.file 20 "../../libDaisy/src/hid/audio.h"
   1:../../libDaisy/src/hid/audio.h **** #ifndef DSY_AUDIO_H
ARM GAS  /var/folders/hl/qgbwny5j0fd895c2c41bk3tw0000gp/T//ccX3fN6S.s 			page 35


   2:../../libDaisy/src/hid/audio.h **** #define DSY_AUDIO_H /**< & */
   3:../../libDaisy/src/hid/audio.h **** 
   4:../../libDaisy/src/hid/audio.h **** #include "per/sai.h"
   5:../../libDaisy/src/hid/audio.h **** 
   6:../../libDaisy/src/hid/audio.h **** namespace daisy
   7:../../libDaisy/src/hid/audio.h **** {
   8:../../libDaisy/src/hid/audio.h **** /** @brief Audio Engine Handle
   9:../../libDaisy/src/hid/audio.h ****  *  @ingroup audio 
  10:../../libDaisy/src/hid/audio.h ****  *  @details This class allows for higher level access to an audio engine.
  11:../../libDaisy/src/hid/audio.h ****  *           If you're using a SOM like the DaisySeed or DaisyPatchSM (or any 
  12:../../libDaisy/src/hid/audio.h ****  *            board that includes one of those objects) then the intialization
  13:../../libDaisy/src/hid/audio.h ****  *            is already taken  care of.
  14:../../libDaisy/src/hid/audio.h ****  *           If you're setting up your own custom hardware, or need to make changes
  15:../../libDaisy/src/hid/audio.h ****  *           you will have to take the following steps:
  16:../../libDaisy/src/hid/audio.h ****  *             1. Create and Initialize an SaiHandle or two depending on your requirements
  17:../../libDaisy/src/hid/audio.h ****  *             2. Initialize the Audio Handle with the desired settings and the Initialized SaiHand
  18:../../libDaisy/src/hid/audio.h ****  *             3. If the connected codec requires special configuration or initialization, do so
  19:../../libDaisy/src/hid/audio.h ****  *             4. Write a callback method using either the AudioCallback or the InterleavingAudioCa
  20:../../libDaisy/src/hid/audio.h ****  *             5. Start the Audio using one of the StartAudio function
  21:../../libDaisy/src/hid/audio.h ****  */
  22:../../libDaisy/src/hid/audio.h **** class AudioHandle
  23:../../libDaisy/src/hid/audio.h **** {
  24:../../libDaisy/src/hid/audio.h ****   public:
  25:../../libDaisy/src/hid/audio.h ****     /** Manually configurable details about the Audio Engine */
  26:../../libDaisy/src/hid/audio.h ****     /** TODO: Figure out how to get samplerate in here. */
  27:../../libDaisy/src/hid/audio.h ****     struct Config
  28:../../libDaisy/src/hid/audio.h ****     {
  29:../../libDaisy/src/hid/audio.h ****         /** number of samples to process per callback */
  30:../../libDaisy/src/hid/audio.h ****         size_t blocksize;
  31:../../libDaisy/src/hid/audio.h **** 
  32:../../libDaisy/src/hid/audio.h ****         /**< Sample rate of audio */
  33:../../libDaisy/src/hid/audio.h ****         SaiHandle::Config::SampleRate samplerate;
  34:../../libDaisy/src/hid/audio.h **** 
  35:../../libDaisy/src/hid/audio.h ****         /** factor for adjustment before and after callback for hardware that may have extra headro
  36:../../libDaisy/src/hid/audio.h ****         float postgain;
  37:../../libDaisy/src/hid/audio.h **** 
  38:../../libDaisy/src/hid/audio.h ****         /** factor for additional one-sided compensation to audio path for hardware that may
  39:../../libDaisy/src/hid/audio.h ****          *  have unequal input/output ranges
  40:../../libDaisy/src/hid/audio.h ****          */
  41:../../libDaisy/src/hid/audio.h ****         float output_compensation;
  42:../../libDaisy/src/hid/audio.h **** 
  43:../../libDaisy/src/hid/audio.h ****         /** Sets default values for config struct */
  44:../../libDaisy/src/hid/audio.h ****         Config()
  45:../../libDaisy/src/hid/audio.h ****         : blocksize(48),
  46:../../libDaisy/src/hid/audio.h ****           samplerate(SaiHandle::Config::SampleRate::SAI_48KHZ),
  47:../../libDaisy/src/hid/audio.h ****           postgain(1.f),
  48:../../libDaisy/src/hid/audio.h ****           output_compensation(1.f)
  49:../../libDaisy/src/hid/audio.h ****         {
  50:../../libDaisy/src/hid/audio.h ****         }
  51:../../libDaisy/src/hid/audio.h ****     };
  52:../../libDaisy/src/hid/audio.h **** 
  53:../../libDaisy/src/hid/audio.h ****     enum class Result
  54:../../libDaisy/src/hid/audio.h ****     {
  55:../../libDaisy/src/hid/audio.h ****         OK,
  56:../../libDaisy/src/hid/audio.h ****         ERR,
  57:../../libDaisy/src/hid/audio.h ****     };
  58:../../libDaisy/src/hid/audio.h **** 
ARM GAS  /var/folders/hl/qgbwny5j0fd895c2c41bk3tw0000gp/T//ccX3fN6S.s 			page 36


  59:../../libDaisy/src/hid/audio.h ****     /** Non-Interleaving input buffer
  60:../../libDaisy/src/hid/audio.h ****      * Buffer arranged by float[chn][sample] 
  61:../../libDaisy/src/hid/audio.h ****      * const so that the user can't modify the input
  62:../../libDaisy/src/hid/audio.h ****      */
  63:../../libDaisy/src/hid/audio.h ****     typedef const float* const* InputBuffer;
  64:../../libDaisy/src/hid/audio.h **** 
  65:../../libDaisy/src/hid/audio.h ****     /** Non-Interleaving output buffer
  66:../../libDaisy/src/hid/audio.h ****      * Arranged by float[chn][sample] 
  67:../../libDaisy/src/hid/audio.h ****      */
  68:../../libDaisy/src/hid/audio.h ****     typedef float** OutputBuffer;
  69:../../libDaisy/src/hid/audio.h **** 
  70:../../libDaisy/src/hid/audio.h ****     /** Type for a Non-Interleaving audio callback 
  71:../../libDaisy/src/hid/audio.h ****      * Non-Interleaving audio callbacks in daisy will be of this type
  72:../../libDaisy/src/hid/audio.h ****      */
  73:../../libDaisy/src/hid/audio.h ****     typedef void (*AudioCallback)(InputBuffer  in,
  74:../../libDaisy/src/hid/audio.h ****                                   OutputBuffer out,
  75:../../libDaisy/src/hid/audio.h ****                                   size_t       size);
  76:../../libDaisy/src/hid/audio.h **** 
  77:../../libDaisy/src/hid/audio.h ****     /** Interleaving Input buffer
  78:../../libDaisy/src/hid/audio.h ****      ** audio is prepared as { L0, R0, L1, R1, . . . LN, RN }]
  79:../../libDaisy/src/hid/audio.h ****      ** this is const, as the user shouldn't modify it
  80:../../libDaisy/src/hid/audio.h ****     */
  81:../../libDaisy/src/hid/audio.h ****     typedef const float* InterleavingInputBuffer;
  82:../../libDaisy/src/hid/audio.h **** 
  83:../../libDaisy/src/hid/audio.h ****     /** Interleaving Output buffer 
  84:../../libDaisy/src/hid/audio.h ****      ** audio is prepared as { L0, R0, L1, R1, . . . LN, RN }
  85:../../libDaisy/src/hid/audio.h ****     */
  86:../../libDaisy/src/hid/audio.h ****     typedef float* InterleavingOutputBuffer;
  87:../../libDaisy/src/hid/audio.h **** 
  88:../../libDaisy/src/hid/audio.h ****     /** Interleaving Audio Callback 
  89:../../libDaisy/src/hid/audio.h ****      * Interleaving audio callbacks in daisy must be of this type
  90:../../libDaisy/src/hid/audio.h ****      */
  91:../../libDaisy/src/hid/audio.h ****     typedef void (*InterleavingAudioCallback)(InterleavingInputBuffer  in,
  92:../../libDaisy/src/hid/audio.h ****                                               InterleavingOutputBuffer out,
  93:../../libDaisy/src/hid/audio.h ****                                               size_t                   size);
  94:../../libDaisy/src/hid/audio.h **** 
  95:../../libDaisy/src/hid/audio.h ****     AudioHandle() : pimpl_(nullptr) {}
  96:../../libDaisy/src/hid/audio.h ****     ~AudioHandle() {}
 204              		.loc 20 96 5 is_stmt 1 view .LVU42
 205              		.loc 20 96 5 is_stmt 0 view .LVU43
 206              	.LBE725:
 207              	.LBB726:
 208              	.LBI726:
 209              		.file 21 "../../libDaisy/src/sys/system.h"
   1:../../libDaisy/src/sys/system.h **** #ifndef DSY_SYSTEM_H
   2:../../libDaisy/src/sys/system.h **** #define DSY_SYSTEM_H
   3:../../libDaisy/src/sys/system.h **** 
   4:../../libDaisy/src/sys/system.h **** #ifndef UNIT_TEST // for unit tests, a dummy implementation is provided below
   5:../../libDaisy/src/sys/system.h **** 
   6:../../libDaisy/src/sys/system.h **** #include <cstdint>
   7:../../libDaisy/src/sys/system.h **** #include "per/tim.h"
   8:../../libDaisy/src/sys/system.h **** 
   9:../../libDaisy/src/sys/system.h **** namespace daisy
  10:../../libDaisy/src/sys/system.h **** {
  11:../../libDaisy/src/sys/system.h **** /** A handle for interacting with the Core System. 
  12:../../libDaisy/src/sys/system.h ****  ** This includes the Clock tree, MPU, global DMA initialization,
  13:../../libDaisy/src/sys/system.h ****  ** cache handling, and any other necessary global initiailzation
ARM GAS  /var/folders/hl/qgbwny5j0fd895c2c41bk3tw0000gp/T//ccX3fN6S.s 			page 37


  14:../../libDaisy/src/sys/system.h ****  **
  15:../../libDaisy/src/sys/system.h ****  ** @author shensley
  16:../../libDaisy/src/sys/system.h ****  ** @ingroup system
  17:../../libDaisy/src/sys/system.h ****  */
  18:../../libDaisy/src/sys/system.h **** class System
  19:../../libDaisy/src/sys/system.h **** {
  20:../../libDaisy/src/sys/system.h ****   public:
  21:../../libDaisy/src/sys/system.h ****     /** Contains settings for initializing the System */
  22:../../libDaisy/src/sys/system.h ****     struct Config
  23:../../libDaisy/src/sys/system.h ****     {
  24:../../libDaisy/src/sys/system.h ****         /** Specifies the system clock frequency that feeds APB/AHB clocks, etc. */
  25:../../libDaisy/src/sys/system.h ****         enum class SysClkFreq
  26:../../libDaisy/src/sys/system.h ****         {
  27:../../libDaisy/src/sys/system.h ****             FREQ_400MHZ,
  28:../../libDaisy/src/sys/system.h ****             FREQ_480MHZ,
  29:../../libDaisy/src/sys/system.h ****         };
  30:../../libDaisy/src/sys/system.h **** 
  31:../../libDaisy/src/sys/system.h ****         /** Method to call on the struct to set to defaults
  32:../../libDaisy/src/sys/system.h ****          ** CPU Freq set to 400MHz
  33:../../libDaisy/src/sys/system.h ****          ** Cache Enabled 
  34:../../libDaisy/src/sys/system.h ****          ** */
  35:../../libDaisy/src/sys/system.h ****         void Defaults()
  36:../../libDaisy/src/sys/system.h ****         {
  37:../../libDaisy/src/sys/system.h ****             cpu_freq    = SysClkFreq::FREQ_400MHZ;
  38:../../libDaisy/src/sys/system.h ****             use_dcache  = true;
  39:../../libDaisy/src/sys/system.h ****             use_icache  = true;
  40:../../libDaisy/src/sys/system.h ****             skip_clocks = false;
  41:../../libDaisy/src/sys/system.h ****         }
  42:../../libDaisy/src/sys/system.h **** 
  43:../../libDaisy/src/sys/system.h ****         /** Method to call on the struct to set to boost mode:
  44:../../libDaisy/src/sys/system.h ****          ** CPU Freq set to 480MHz
  45:../../libDaisy/src/sys/system.h ****          ** Cache Enabled 
  46:../../libDaisy/src/sys/system.h ****          ** */
  47:../../libDaisy/src/sys/system.h ****         void Boost()
  48:../../libDaisy/src/sys/system.h ****         {
  49:../../libDaisy/src/sys/system.h ****             cpu_freq    = SysClkFreq::FREQ_480MHZ;
  50:../../libDaisy/src/sys/system.h ****             use_dcache  = true;
  51:../../libDaisy/src/sys/system.h ****             use_icache  = true;
  52:../../libDaisy/src/sys/system.h ****             skip_clocks = false;
  53:../../libDaisy/src/sys/system.h ****         }
  54:../../libDaisy/src/sys/system.h **** 
  55:../../libDaisy/src/sys/system.h ****         SysClkFreq cpu_freq;
  56:../../libDaisy/src/sys/system.h ****         bool       use_dcache;
  57:../../libDaisy/src/sys/system.h ****         bool       use_icache;
  58:../../libDaisy/src/sys/system.h ****         bool       skip_clocks;
  59:../../libDaisy/src/sys/system.h ****     };
  60:../../libDaisy/src/sys/system.h **** 
  61:../../libDaisy/src/sys/system.h ****     /** Describes the different regions of memory available to the Daisy
  62:../../libDaisy/src/sys/system.h ****      * 
  63:../../libDaisy/src/sys/system.h ****      */
  64:../../libDaisy/src/sys/system.h ****     enum MemoryRegion
  65:../../libDaisy/src/sys/system.h ****     {
  66:../../libDaisy/src/sys/system.h ****         INTERNAL_FLASH = 0,
  67:../../libDaisy/src/sys/system.h ****         ITCMRAM,
  68:../../libDaisy/src/sys/system.h ****         DTCMRAM,
  69:../../libDaisy/src/sys/system.h ****         SRAM_D1,
  70:../../libDaisy/src/sys/system.h ****         SRAM_D2,
ARM GAS  /var/folders/hl/qgbwny5j0fd895c2c41bk3tw0000gp/T//ccX3fN6S.s 			page 38


  71:../../libDaisy/src/sys/system.h ****         SRAM_D3,
  72:../../libDaisy/src/sys/system.h ****         SDRAM,
  73:../../libDaisy/src/sys/system.h ****         QSPI,
  74:../../libDaisy/src/sys/system.h ****         INVALID_ADDRESS,
  75:../../libDaisy/src/sys/system.h ****     };
  76:../../libDaisy/src/sys/system.h **** 
  77:../../libDaisy/src/sys/system.h ****     System() {}
  78:../../libDaisy/src/sys/system.h ****     ~System() {}
 210              		.loc 21 78 5 is_stmt 1 view .LVU44
 211              		.loc 21 78 5 is_stmt 0 view .LVU45
 212              	.LBE726:
 213              		.loc 15 65 26 view .LVU46
 214 0000 7047     		bx	lr
 215              		.cfi_endproc
 216              	.LFE5051:
 218              		.weak	_ZN5daisy8patch_sm12DaisyPatchSMD1Ev
 219              		.thumb_set _ZN5daisy8patch_sm12DaisyPatchSMD1Ev,_ZN5daisy8patch_sm12DaisyPatchSMD2Ev
 220 0002 00BF     		.section	.text._ZN5daisy11OledDisplayINS_13SSD130xDriverILj128ELj64ENS_24SSD130x4WireSpiTransportE
 221              		.align	1
 222              		.p2align 2,,3
 223              		.weak	_ZN5daisy11OledDisplayINS_13SSD130xDriverILj128ELj64ENS_24SSD130x4WireSpiTransportEEEE4FillE
 224              		.syntax unified
 225              		.thumb
 226              		.thumb_func
 227              		.fpu fpv5-d16
 229              	_ZN5daisy11OledDisplayINS_13SSD130xDriverILj128ELj64ENS_24SSD130x4WireSpiTransportEEEE4FillEb:
 230              	.LVL3:
 231              	.LFB5544:
 232              		.file 22 "../../libDaisy/src/hid/disp/oled_display.h"
   1:../../libDaisy/src/hid/disp/oled_display.h **** #pragma once
   2:../../libDaisy/src/hid/disp/oled_display.h **** #ifndef DSY_OLED_DISPLAY_H
   3:../../libDaisy/src/hid/disp/oled_display.h **** #define DSY_OLED_DISPLAY_H /**< Macro */
   4:../../libDaisy/src/hid/disp/oled_display.h **** 
   5:../../libDaisy/src/hid/disp/oled_display.h **** #include "display.h"
   6:../../libDaisy/src/hid/disp/oled_display.h **** 
   7:../../libDaisy/src/hid/disp/oled_display.h **** namespace daisy
   8:../../libDaisy/src/hid/disp/oled_display.h **** {
   9:../../libDaisy/src/hid/disp/oled_display.h **** /** 
  10:../../libDaisy/src/hid/disp/oled_display.h ****  * This class is for drawing to a monochrome OLED display. 
  11:../../libDaisy/src/hid/disp/oled_display.h ****  * @ingroup device
  12:../../libDaisy/src/hid/disp/oled_display.h **** */
  13:../../libDaisy/src/hid/disp/oled_display.h **** template <typename DisplayDriver>
  14:../../libDaisy/src/hid/disp/oled_display.h **** class OledDisplay : public OneBitGraphicsDisplayImpl<OledDisplay<DisplayDriver>>
  15:../../libDaisy/src/hid/disp/oled_display.h **** {
  16:../../libDaisy/src/hid/disp/oled_display.h ****   public:
  17:../../libDaisy/src/hid/disp/oled_display.h ****     OledDisplay() {}
  18:../../libDaisy/src/hid/disp/oled_display.h ****     virtual ~OledDisplay() {}
  19:../../libDaisy/src/hid/disp/oled_display.h **** 
  20:../../libDaisy/src/hid/disp/oled_display.h ****     struct Config
  21:../../libDaisy/src/hid/disp/oled_display.h ****     {
  22:../../libDaisy/src/hid/disp/oled_display.h ****         typename DisplayDriver::Config driver_config;
  23:../../libDaisy/src/hid/disp/oled_display.h ****     };
  24:../../libDaisy/src/hid/disp/oled_display.h **** 
  25:../../libDaisy/src/hid/disp/oled_display.h ****     void Init(Config config) { driver_.Init(config.driver_config); }
  26:../../libDaisy/src/hid/disp/oled_display.h **** 
  27:../../libDaisy/src/hid/disp/oled_display.h ****     uint16_t Height() const override { return driver_.Height(); }
  28:../../libDaisy/src/hid/disp/oled_display.h ****     uint16_t Width() const override { return driver_.Width(); }
ARM GAS  /var/folders/hl/qgbwny5j0fd895c2c41bk3tw0000gp/T//ccX3fN6S.s 			page 39


  29:../../libDaisy/src/hid/disp/oled_display.h **** 
  30:../../libDaisy/src/hid/disp/oled_display.h ****     /** 
  31:../../libDaisy/src/hid/disp/oled_display.h ****     Fills the entire display with either on/off.
  32:../../libDaisy/src/hid/disp/oled_display.h ****     \param on Sets on or off.
  33:../../libDaisy/src/hid/disp/oled_display.h ****     */
  34:../../libDaisy/src/hid/disp/oled_display.h ****     void Fill(bool on) override { driver_.Fill(on); }
 233              		.loc 22 34 10 is_stmt 1 view -0
 234              		.cfi_startproc
 235              		@ args = 0, pretend = 0, frame = 0
 236              		@ frame_needed = 0, uses_anonymous_args = 0
 237              		@ link register save eliminated.
 238              	.LBB727:
 239              	.LBI727:
 240              		.file 23 "../../libDaisy/src/dev/oled_ssd130x.h"
   1:../../libDaisy/src/dev/oled_ssd130x.h **** #pragma once
   2:../../libDaisy/src/dev/oled_ssd130x.h **** #ifndef SA_OLED_SSD130X_H
   3:../../libDaisy/src/dev/oled_ssd130x.h **** #define SA_OLED_SSD130X_H /**< & */
   4:../../libDaisy/src/dev/oled_ssd130x.h **** 
   5:../../libDaisy/src/dev/oled_ssd130x.h **** #include "per/i2c.h"
   6:../../libDaisy/src/dev/oled_ssd130x.h **** #include "per/spi.h"
   7:../../libDaisy/src/dev/oled_ssd130x.h **** #include "per/gpio.h"
   8:../../libDaisy/src/dev/oled_ssd130x.h **** #include "sys/system.h"
   9:../../libDaisy/src/dev/oled_ssd130x.h **** 
  10:../../libDaisy/src/dev/oled_ssd130x.h **** namespace daisy
  11:../../libDaisy/src/dev/oled_ssd130x.h **** {
  12:../../libDaisy/src/dev/oled_ssd130x.h **** /**
  13:../../libDaisy/src/dev/oled_ssd130x.h ****  * I2C Transport for SSD1306 / SSD1309 OLED display devices
  14:../../libDaisy/src/dev/oled_ssd130x.h ****  */
  15:../../libDaisy/src/dev/oled_ssd130x.h **** class SSD130xI2CTransport
  16:../../libDaisy/src/dev/oled_ssd130x.h **** {
  17:../../libDaisy/src/dev/oled_ssd130x.h ****   public:
  18:../../libDaisy/src/dev/oled_ssd130x.h ****     struct Config
  19:../../libDaisy/src/dev/oled_ssd130x.h ****     {
  20:../../libDaisy/src/dev/oled_ssd130x.h ****         Config()
  21:../../libDaisy/src/dev/oled_ssd130x.h ****         {
  22:../../libDaisy/src/dev/oled_ssd130x.h ****             // Intialize using defaults
  23:../../libDaisy/src/dev/oled_ssd130x.h ****             Defaults();
  24:../../libDaisy/src/dev/oled_ssd130x.h ****         }
  25:../../libDaisy/src/dev/oled_ssd130x.h ****         I2CHandle::Config i2c_config;
  26:../../libDaisy/src/dev/oled_ssd130x.h ****         uint8_t           i2c_address;
  27:../../libDaisy/src/dev/oled_ssd130x.h ****         void              Defaults()
  28:../../libDaisy/src/dev/oled_ssd130x.h ****         {
  29:../../libDaisy/src/dev/oled_ssd130x.h ****             i2c_config.periph         = I2CHandle::Config::Peripheral::I2C_1;
  30:../../libDaisy/src/dev/oled_ssd130x.h ****             i2c_config.speed          = I2CHandle::Config::Speed::I2C_1MHZ;
  31:../../libDaisy/src/dev/oled_ssd130x.h ****             i2c_config.mode           = I2CHandle::Config::Mode::I2C_MASTER;
  32:../../libDaisy/src/dev/oled_ssd130x.h ****             i2c_config.pin_config.scl = {DSY_GPIOB, 8};
  33:../../libDaisy/src/dev/oled_ssd130x.h ****             i2c_config.pin_config.sda = {DSY_GPIOB, 9};
  34:../../libDaisy/src/dev/oled_ssd130x.h ****             i2c_address               = 0x3C;
  35:../../libDaisy/src/dev/oled_ssd130x.h ****         }
  36:../../libDaisy/src/dev/oled_ssd130x.h ****     };
  37:../../libDaisy/src/dev/oled_ssd130x.h ****     void Init(const Config& config)
  38:../../libDaisy/src/dev/oled_ssd130x.h ****     {
  39:../../libDaisy/src/dev/oled_ssd130x.h ****         i2c_address_ = config.i2c_address;
  40:../../libDaisy/src/dev/oled_ssd130x.h ****         i2c_.Init(config.i2c_config);
  41:../../libDaisy/src/dev/oled_ssd130x.h ****     };
  42:../../libDaisy/src/dev/oled_ssd130x.h ****     void SendCommand(uint8_t cmd)
  43:../../libDaisy/src/dev/oled_ssd130x.h ****     {
ARM GAS  /var/folders/hl/qgbwny5j0fd895c2c41bk3tw0000gp/T//ccX3fN6S.s 			page 40


  44:../../libDaisy/src/dev/oled_ssd130x.h ****         uint8_t buf[2] = {0X00, cmd};
  45:../../libDaisy/src/dev/oled_ssd130x.h ****         i2c_.TransmitBlocking(i2c_address_, buf, 2, 1000);
  46:../../libDaisy/src/dev/oled_ssd130x.h ****     };
  47:../../libDaisy/src/dev/oled_ssd130x.h **** 
  48:../../libDaisy/src/dev/oled_ssd130x.h ****     void SendData(uint8_t* buff, size_t size)
  49:../../libDaisy/src/dev/oled_ssd130x.h ****     {
  50:../../libDaisy/src/dev/oled_ssd130x.h ****         for(size_t i = 0; i < size; i++)
  51:../../libDaisy/src/dev/oled_ssd130x.h ****         {
  52:../../libDaisy/src/dev/oled_ssd130x.h ****             uint8_t buf[2] = {0X40, buff[i]};
  53:../../libDaisy/src/dev/oled_ssd130x.h ****             i2c_.TransmitBlocking(i2c_address_, buf, 2, 1000);
  54:../../libDaisy/src/dev/oled_ssd130x.h ****         }
  55:../../libDaisy/src/dev/oled_ssd130x.h ****     };
  56:../../libDaisy/src/dev/oled_ssd130x.h **** 
  57:../../libDaisy/src/dev/oled_ssd130x.h ****   private:
  58:../../libDaisy/src/dev/oled_ssd130x.h ****     daisy::I2CHandle i2c_;
  59:../../libDaisy/src/dev/oled_ssd130x.h ****     uint8_t          i2c_address_;
  60:../../libDaisy/src/dev/oled_ssd130x.h **** };
  61:../../libDaisy/src/dev/oled_ssd130x.h **** 
  62:../../libDaisy/src/dev/oled_ssd130x.h **** /**
  63:../../libDaisy/src/dev/oled_ssd130x.h ****  * 4 Wire SPI Transport for SSD1306 / SSD1309 OLED display devices
  64:../../libDaisy/src/dev/oled_ssd130x.h ****  */
  65:../../libDaisy/src/dev/oled_ssd130x.h **** class SSD130x4WireSpiTransport
  66:../../libDaisy/src/dev/oled_ssd130x.h **** {
  67:../../libDaisy/src/dev/oled_ssd130x.h ****   public:
  68:../../libDaisy/src/dev/oled_ssd130x.h ****     struct Config
  69:../../libDaisy/src/dev/oled_ssd130x.h ****     {
  70:../../libDaisy/src/dev/oled_ssd130x.h ****         Config()
  71:../../libDaisy/src/dev/oled_ssd130x.h ****         {
  72:../../libDaisy/src/dev/oled_ssd130x.h ****             // Initialize using defaults
  73:../../libDaisy/src/dev/oled_ssd130x.h ****             Defaults();
  74:../../libDaisy/src/dev/oled_ssd130x.h ****         }
  75:../../libDaisy/src/dev/oled_ssd130x.h ****         SpiHandle::Config spi_config;
  76:../../libDaisy/src/dev/oled_ssd130x.h ****         struct
  77:../../libDaisy/src/dev/oled_ssd130x.h ****         {
  78:../../libDaisy/src/dev/oled_ssd130x.h ****             dsy_gpio_pin dc;    /**< & */
  79:../../libDaisy/src/dev/oled_ssd130x.h ****             dsy_gpio_pin reset; /**< & */
  80:../../libDaisy/src/dev/oled_ssd130x.h ****         } pin_config;
  81:../../libDaisy/src/dev/oled_ssd130x.h ****         void Defaults()
  82:../../libDaisy/src/dev/oled_ssd130x.h ****         {
  83:../../libDaisy/src/dev/oled_ssd130x.h ****             // SPI peripheral config
  84:../../libDaisy/src/dev/oled_ssd130x.h ****             spi_config.periph = SpiHandle::Config::Peripheral::SPI_1;
  85:../../libDaisy/src/dev/oled_ssd130x.h ****             spi_config.mode   = SpiHandle::Config::Mode::MASTER;
  86:../../libDaisy/src/dev/oled_ssd130x.h ****             spi_config.direction
  87:../../libDaisy/src/dev/oled_ssd130x.h ****                 = SpiHandle::Config::Direction::TWO_LINES_TX_ONLY;
  88:../../libDaisy/src/dev/oled_ssd130x.h ****             spi_config.datasize       = 8;
  89:../../libDaisy/src/dev/oled_ssd130x.h ****             spi_config.clock_polarity = SpiHandle::Config::ClockPolarity::LOW;
  90:../../libDaisy/src/dev/oled_ssd130x.h ****             spi_config.clock_phase    = SpiHandle::Config::ClockPhase::ONE_EDGE;
  91:../../libDaisy/src/dev/oled_ssd130x.h ****             spi_config.nss            = SpiHandle::Config::NSS::HARD_OUTPUT;
  92:../../libDaisy/src/dev/oled_ssd130x.h ****             spi_config.baud_prescaler = SpiHandle::Config::BaudPrescaler::PS_8;
  93:../../libDaisy/src/dev/oled_ssd130x.h ****             // SPI pin config
  94:../../libDaisy/src/dev/oled_ssd130x.h ****             spi_config.pin_config.sclk = {DSY_GPIOG, 11};
  95:../../libDaisy/src/dev/oled_ssd130x.h ****             spi_config.pin_config.miso = {DSY_GPIOX, 0};
  96:../../libDaisy/src/dev/oled_ssd130x.h ****             spi_config.pin_config.mosi = {DSY_GPIOB, 5};
  97:../../libDaisy/src/dev/oled_ssd130x.h ****             spi_config.pin_config.nss  = {DSY_GPIOG, 10};
  98:../../libDaisy/src/dev/oled_ssd130x.h ****             // SSD130x control pin config
  99:../../libDaisy/src/dev/oled_ssd130x.h ****             pin_config.dc    = {DSY_GPIOB, 4};
 100:../../libDaisy/src/dev/oled_ssd130x.h ****             pin_config.reset = {DSY_GPIOB, 15};
ARM GAS  /var/folders/hl/qgbwny5j0fd895c2c41bk3tw0000gp/T//ccX3fN6S.s 			page 41


 101:../../libDaisy/src/dev/oled_ssd130x.h ****         }
 102:../../libDaisy/src/dev/oled_ssd130x.h ****     };
 103:../../libDaisy/src/dev/oled_ssd130x.h ****     void Init(const Config& config)
 104:../../libDaisy/src/dev/oled_ssd130x.h ****     {
 105:../../libDaisy/src/dev/oled_ssd130x.h ****         // Initialize both GPIO
 106:../../libDaisy/src/dev/oled_ssd130x.h ****         pin_dc_.mode = DSY_GPIO_MODE_OUTPUT_PP;
 107:../../libDaisy/src/dev/oled_ssd130x.h ****         pin_dc_.pin  = config.pin_config.dc;
 108:../../libDaisy/src/dev/oled_ssd130x.h ****         dsy_gpio_init(&pin_dc_);
 109:../../libDaisy/src/dev/oled_ssd130x.h ****         pin_reset_.mode = DSY_GPIO_MODE_OUTPUT_PP;
 110:../../libDaisy/src/dev/oled_ssd130x.h ****         pin_reset_.pin  = config.pin_config.reset;
 111:../../libDaisy/src/dev/oled_ssd130x.h ****         dsy_gpio_init(&pin_reset_);
 112:../../libDaisy/src/dev/oled_ssd130x.h **** 
 113:../../libDaisy/src/dev/oled_ssd130x.h ****         // Initialize SPI
 114:../../libDaisy/src/dev/oled_ssd130x.h ****         spi_.Init(config.spi_config);
 115:../../libDaisy/src/dev/oled_ssd130x.h **** 
 116:../../libDaisy/src/dev/oled_ssd130x.h ****         // Reset and Configure OLED.
 117:../../libDaisy/src/dev/oled_ssd130x.h ****         dsy_gpio_write(&pin_reset_, 0);
 118:../../libDaisy/src/dev/oled_ssd130x.h ****         System::Delay(10);
 119:../../libDaisy/src/dev/oled_ssd130x.h ****         dsy_gpio_write(&pin_reset_, 1);
 120:../../libDaisy/src/dev/oled_ssd130x.h ****         System::Delay(10);
 121:../../libDaisy/src/dev/oled_ssd130x.h ****     };
 122:../../libDaisy/src/dev/oled_ssd130x.h ****     void SendCommand(uint8_t cmd)
 123:../../libDaisy/src/dev/oled_ssd130x.h ****     {
 124:../../libDaisy/src/dev/oled_ssd130x.h ****         dsy_gpio_write(&pin_dc_, 0);
 125:../../libDaisy/src/dev/oled_ssd130x.h ****         spi_.BlockingTransmit(&cmd, 1);
 126:../../libDaisy/src/dev/oled_ssd130x.h ****     };
 127:../../libDaisy/src/dev/oled_ssd130x.h **** 
 128:../../libDaisy/src/dev/oled_ssd130x.h ****     void SendData(uint8_t* buff, size_t size)
 129:../../libDaisy/src/dev/oled_ssd130x.h ****     {
 130:../../libDaisy/src/dev/oled_ssd130x.h ****         dsy_gpio_write(&pin_dc_, 1);
 131:../../libDaisy/src/dev/oled_ssd130x.h ****         spi_.BlockingTransmit(buff, size);
 132:../../libDaisy/src/dev/oled_ssd130x.h ****     };
 133:../../libDaisy/src/dev/oled_ssd130x.h **** 
 134:../../libDaisy/src/dev/oled_ssd130x.h ****   private:
 135:../../libDaisy/src/dev/oled_ssd130x.h ****     SpiHandle spi_;
 136:../../libDaisy/src/dev/oled_ssd130x.h ****     dsy_gpio  pin_reset_;
 137:../../libDaisy/src/dev/oled_ssd130x.h ****     dsy_gpio  pin_dc_;
 138:../../libDaisy/src/dev/oled_ssd130x.h **** };
 139:../../libDaisy/src/dev/oled_ssd130x.h **** 
 140:../../libDaisy/src/dev/oled_ssd130x.h **** 
 141:../../libDaisy/src/dev/oled_ssd130x.h **** /**
 142:../../libDaisy/src/dev/oled_ssd130x.h ****  * A driver implementation for the SSD1306/SSD1309
 143:../../libDaisy/src/dev/oled_ssd130x.h ****  */
 144:../../libDaisy/src/dev/oled_ssd130x.h **** template <size_t width, size_t height, typename Transport>
 145:../../libDaisy/src/dev/oled_ssd130x.h **** class SSD130xDriver
 146:../../libDaisy/src/dev/oled_ssd130x.h **** {
 147:../../libDaisy/src/dev/oled_ssd130x.h ****   public:
 148:../../libDaisy/src/dev/oled_ssd130x.h ****     struct Config
 149:../../libDaisy/src/dev/oled_ssd130x.h ****     {
 150:../../libDaisy/src/dev/oled_ssd130x.h ****         typename Transport::Config transport_config;
 151:../../libDaisy/src/dev/oled_ssd130x.h ****     };
 152:../../libDaisy/src/dev/oled_ssd130x.h **** 
 153:../../libDaisy/src/dev/oled_ssd130x.h ****     void Init(Config config)
 154:../../libDaisy/src/dev/oled_ssd130x.h ****     {
 155:../../libDaisy/src/dev/oled_ssd130x.h ****         transport_.Init(config.transport_config);
 156:../../libDaisy/src/dev/oled_ssd130x.h **** 
 157:../../libDaisy/src/dev/oled_ssd130x.h ****         // Init routine...
ARM GAS  /var/folders/hl/qgbwny5j0fd895c2c41bk3tw0000gp/T//ccX3fN6S.s 			page 42


 158:../../libDaisy/src/dev/oled_ssd130x.h **** 
 159:../../libDaisy/src/dev/oled_ssd130x.h ****         // Display Off
 160:../../libDaisy/src/dev/oled_ssd130x.h ****         transport_.SendCommand(0xaE);
 161:../../libDaisy/src/dev/oled_ssd130x.h ****         // Dimension dependent commands...
 162:../../libDaisy/src/dev/oled_ssd130x.h ****         switch(height)
 163:../../libDaisy/src/dev/oled_ssd130x.h ****         {
 164:../../libDaisy/src/dev/oled_ssd130x.h ****             case 16:
 165:../../libDaisy/src/dev/oled_ssd130x.h ****                 // Display Clock Divide Ratio
 166:../../libDaisy/src/dev/oled_ssd130x.h ****                 transport_.SendCommand(0xD5);
 167:../../libDaisy/src/dev/oled_ssd130x.h ****                 transport_.SendCommand(0x60);
 168:../../libDaisy/src/dev/oled_ssd130x.h ****                 // Multiplex Ratio
 169:../../libDaisy/src/dev/oled_ssd130x.h ****                 transport_.SendCommand(0xA8);
 170:../../libDaisy/src/dev/oled_ssd130x.h ****                 transport_.SendCommand(0x0F);
 171:../../libDaisy/src/dev/oled_ssd130x.h ****                 // COM Pins
 172:../../libDaisy/src/dev/oled_ssd130x.h ****                 transport_.SendCommand(0xDA);
 173:../../libDaisy/src/dev/oled_ssd130x.h ****                 transport_.SendCommand(0x02);
 174:../../libDaisy/src/dev/oled_ssd130x.h ****                 break;
 175:../../libDaisy/src/dev/oled_ssd130x.h ****             case 32:
 176:../../libDaisy/src/dev/oled_ssd130x.h ****                 // Display Clock Divide Ratio
 177:../../libDaisy/src/dev/oled_ssd130x.h ****                 transport_.SendCommand(0xD5);
 178:../../libDaisy/src/dev/oled_ssd130x.h ****                 transport_.SendCommand(0x80);
 179:../../libDaisy/src/dev/oled_ssd130x.h ****                 // Multiplex Ratio
 180:../../libDaisy/src/dev/oled_ssd130x.h ****                 transport_.SendCommand(0xA8);
 181:../../libDaisy/src/dev/oled_ssd130x.h ****                 transport_.SendCommand(0x1F);
 182:../../libDaisy/src/dev/oled_ssd130x.h ****                 // COM Pins
 183:../../libDaisy/src/dev/oled_ssd130x.h ****                 transport_.SendCommand(0xDA);
 184:../../libDaisy/src/dev/oled_ssd130x.h ****                 if(width == 64)
 185:../../libDaisy/src/dev/oled_ssd130x.h ****                 {
 186:../../libDaisy/src/dev/oled_ssd130x.h ****                     transport_.SendCommand(0x12);
 187:../../libDaisy/src/dev/oled_ssd130x.h ****                 }
 188:../../libDaisy/src/dev/oled_ssd130x.h ****                 else
 189:../../libDaisy/src/dev/oled_ssd130x.h ****                 {
 190:../../libDaisy/src/dev/oled_ssd130x.h ****                     transport_.SendCommand(0x02);
 191:../../libDaisy/src/dev/oled_ssd130x.h ****                 }
 192:../../libDaisy/src/dev/oled_ssd130x.h **** 
 193:../../libDaisy/src/dev/oled_ssd130x.h ****                 break;
 194:../../libDaisy/src/dev/oled_ssd130x.h ****             case 48:
 195:../../libDaisy/src/dev/oled_ssd130x.h ****                 // Display Clock Divide Ratio
 196:../../libDaisy/src/dev/oled_ssd130x.h ****                 transport_.SendCommand(0xD5);
 197:../../libDaisy/src/dev/oled_ssd130x.h ****                 transport_.SendCommand(0x80);
 198:../../libDaisy/src/dev/oled_ssd130x.h ****                 // Multiplex Ratio
 199:../../libDaisy/src/dev/oled_ssd130x.h ****                 transport_.SendCommand(0xA8);
 200:../../libDaisy/src/dev/oled_ssd130x.h ****                 transport_.SendCommand(0x2F);
 201:../../libDaisy/src/dev/oled_ssd130x.h ****                 // COM Pins
 202:../../libDaisy/src/dev/oled_ssd130x.h ****                 transport_.SendCommand(0xDA);
 203:../../libDaisy/src/dev/oled_ssd130x.h ****                 transport_.SendCommand(0x12);
 204:../../libDaisy/src/dev/oled_ssd130x.h ****                 break;
 205:../../libDaisy/src/dev/oled_ssd130x.h ****             default: // 128
 206:../../libDaisy/src/dev/oled_ssd130x.h ****                 // Display Clock Divide Ratio
 207:../../libDaisy/src/dev/oled_ssd130x.h ****                 transport_.SendCommand(0xD5);
 208:../../libDaisy/src/dev/oled_ssd130x.h ****                 transport_.SendCommand(0x80);
 209:../../libDaisy/src/dev/oled_ssd130x.h ****                 // Multiplex Ratio
 210:../../libDaisy/src/dev/oled_ssd130x.h ****                 transport_.SendCommand(0xA8);
 211:../../libDaisy/src/dev/oled_ssd130x.h ****                 transport_.SendCommand(0x3F);
 212:../../libDaisy/src/dev/oled_ssd130x.h ****                 // COM Pins
 213:../../libDaisy/src/dev/oled_ssd130x.h ****                 transport_.SendCommand(0xDA);
 214:../../libDaisy/src/dev/oled_ssd130x.h ****                 transport_.SendCommand(0x12);
ARM GAS  /var/folders/hl/qgbwny5j0fd895c2c41bk3tw0000gp/T//ccX3fN6S.s 			page 43


 215:../../libDaisy/src/dev/oled_ssd130x.h ****                 break;
 216:../../libDaisy/src/dev/oled_ssd130x.h ****         }
 217:../../libDaisy/src/dev/oled_ssd130x.h **** 
 218:../../libDaisy/src/dev/oled_ssd130x.h ****         // Display Offset
 219:../../libDaisy/src/dev/oled_ssd130x.h ****         transport_.SendCommand(0xD3);
 220:../../libDaisy/src/dev/oled_ssd130x.h ****         transport_.SendCommand(0x00);
 221:../../libDaisy/src/dev/oled_ssd130x.h ****         // Start Line Address
 222:../../libDaisy/src/dev/oled_ssd130x.h ****         transport_.SendCommand(0x40);
 223:../../libDaisy/src/dev/oled_ssd130x.h ****         // Normal Display
 224:../../libDaisy/src/dev/oled_ssd130x.h ****         transport_.SendCommand(0xA6);
 225:../../libDaisy/src/dev/oled_ssd130x.h ****         // All On Resume
 226:../../libDaisy/src/dev/oled_ssd130x.h ****         transport_.SendCommand(0xA4);
 227:../../libDaisy/src/dev/oled_ssd130x.h ****         // Charge Pump
 228:../../libDaisy/src/dev/oled_ssd130x.h ****         transport_.SendCommand(0x8D);
 229:../../libDaisy/src/dev/oled_ssd130x.h ****         transport_.SendCommand(0x14);
 230:../../libDaisy/src/dev/oled_ssd130x.h ****         // Set Segment Remap
 231:../../libDaisy/src/dev/oled_ssd130x.h ****         transport_.SendCommand(0xA1);
 232:../../libDaisy/src/dev/oled_ssd130x.h ****         // COM Output Scan Direction
 233:../../libDaisy/src/dev/oled_ssd130x.h ****         transport_.SendCommand(0xC8);
 234:../../libDaisy/src/dev/oled_ssd130x.h ****         // Contrast Control
 235:../../libDaisy/src/dev/oled_ssd130x.h ****         transport_.SendCommand(0x81);
 236:../../libDaisy/src/dev/oled_ssd130x.h ****         transport_.SendCommand(0x8F);
 237:../../libDaisy/src/dev/oled_ssd130x.h ****         // Pre Charge
 238:../../libDaisy/src/dev/oled_ssd130x.h ****         transport_.SendCommand(0xD9);
 239:../../libDaisy/src/dev/oled_ssd130x.h ****         transport_.SendCommand(0x25);
 240:../../libDaisy/src/dev/oled_ssd130x.h ****         // VCOM Detect
 241:../../libDaisy/src/dev/oled_ssd130x.h ****         transport_.SendCommand(0xDB);
 242:../../libDaisy/src/dev/oled_ssd130x.h ****         transport_.SendCommand(0x34);
 243:../../libDaisy/src/dev/oled_ssd130x.h **** 
 244:../../libDaisy/src/dev/oled_ssd130x.h **** 
 245:../../libDaisy/src/dev/oled_ssd130x.h ****         // Display On
 246:../../libDaisy/src/dev/oled_ssd130x.h ****         transport_.SendCommand(0xAF); //--turn on oled panel
 247:../../libDaisy/src/dev/oled_ssd130x.h ****     };
 248:../../libDaisy/src/dev/oled_ssd130x.h **** 
 249:../../libDaisy/src/dev/oled_ssd130x.h ****     size_t Width() const { return width; };
 250:../../libDaisy/src/dev/oled_ssd130x.h ****     size_t Height() const { return height; };
 251:../../libDaisy/src/dev/oled_ssd130x.h **** 
 252:../../libDaisy/src/dev/oled_ssd130x.h ****     void DrawPixel(uint_fast8_t x, uint_fast8_t y, bool on)
 253:../../libDaisy/src/dev/oled_ssd130x.h ****     {
 254:../../libDaisy/src/dev/oled_ssd130x.h ****         if(x >= width || y >= height)
 255:../../libDaisy/src/dev/oled_ssd130x.h ****             return;
 256:../../libDaisy/src/dev/oled_ssd130x.h ****         if(on)
 257:../../libDaisy/src/dev/oled_ssd130x.h ****             buffer_[x + (y / 8) * width] |= (1 << (y % 8));
 258:../../libDaisy/src/dev/oled_ssd130x.h ****         else
 259:../../libDaisy/src/dev/oled_ssd130x.h ****             buffer_[x + (y / 8) * width] &= ~(1 << (y % 8));
 260:../../libDaisy/src/dev/oled_ssd130x.h ****     }
 261:../../libDaisy/src/dev/oled_ssd130x.h **** 
 262:../../libDaisy/src/dev/oled_ssd130x.h ****     void Fill(bool on)
 241              		.loc 23 262 10 view .LVU48
 242              	.LBB728:
 263:../../libDaisy/src/dev/oled_ssd130x.h ****     {
 264:../../libDaisy/src/dev/oled_ssd130x.h ****         for(size_t i = 0; i < sizeof(buffer_); i++)
 243              		.loc 23 264 29 view .LVU49
 265:../../libDaisy/src/dev/oled_ssd130x.h ****         {
 266:../../libDaisy/src/dev/oled_ssd130x.h ****             buffer_[i] = on ? 0xff : 0x00;
 244              		.loc 23 266 24 is_stmt 0 view .LVU50
 245 0000 4942     		rsbs	r1, r1, #0
ARM GAS  /var/folders/hl/qgbwny5j0fd895c2c41bk3tw0000gp/T//ccX3fN6S.s 			page 44


 246              	.LVL4:
 247              		.loc 23 266 24 view .LVU51
 248 0002 4FF48062 		mov	r2, #1024
 249 0006 1430     		adds	r0, r0, #20
 250              	.LVL5:
 251              		.loc 23 266 24 view .LVU52
 252 0008 C9B2     		uxtb	r1, r1
 253 000a FFF7FEBF 		b	memset
 254              	.LVL6:
 255              		.loc 23 266 24 view .LVU53
 256              	.LBE728:
 257              	.LBE727:
 258              		.cfi_endproc
 259              	.LFE5544:
 261 000e 00BF     		.section	.text.__tcf_0,"ax",%progbits
 262              		.align	1
 263              		.p2align 2,,3
 264              		.syntax unified
 265              		.thumb
 266              		.thumb_func
 267              		.fpu fpv5-d16
 269              	__tcf_0:
 270              	.LFB5862:
 271              		.file 24 "Nimbus.cpp"
   1:Nimbus.cpp    **** #include "daisysp.h"
   2:Nimbus.cpp    **** #include "granular_processor.h"
   3:Nimbus.cpp    **** #include <stdio.h>
   4:Nimbus.cpp    **** #include <string.h>
   5:Nimbus.cpp    **** #include "daisy_patch_sm.h"
   6:Nimbus.cpp    **** #include "dev/oled_ssd130x.h"
   7:Nimbus.cpp    **** #include <hid/encoder.h>
   8:Nimbus.cpp    **** 
   9:Nimbus.cpp    **** #define NUM_PARAMS 9
  10:Nimbus.cpp    **** #define NUM_PAGES 2
  11:Nimbus.cpp    **** 
  12:Nimbus.cpp    **** using namespace daisysp;
  13:Nimbus.cpp    **** using namespace daisy;
  14:Nimbus.cpp    **** using namespace patch_sm;
  15:Nimbus.cpp    **** using MyOledDisplay = OledDisplay<SSD130x4WireSpi128x64Driver>;
  16:Nimbus.cpp    **** 
  17:Nimbus.cpp    **** GranularProcessorClouds processor;
  18:Nimbus.cpp    **** DaisyPatchSM     hw;
  19:Nimbus.cpp    **** MyOledDisplay display;
  20:Nimbus.cpp    **** Encoder myEnc;
  21:Nimbus.cpp    **** 
  22:Nimbus.cpp    **** 
  23:Nimbus.cpp    **** 
  24:Nimbus.cpp    **** // Pre-allocate big blocks in main memory and CCM. No malloc here.
  25:Nimbus.cpp    **** uint8_t block_mem[118784];
  26:Nimbus.cpp    **** uint8_t block_ccm[65536 - 128];
  27:Nimbus.cpp    **** 
  28:Nimbus.cpp    **** char paramNames[NUM_PARAMS][17];
  29:Nimbus.cpp    **** char pbModeNames[4][17];
  30:Nimbus.cpp    **** char qualityNames[4][17];
  31:Nimbus.cpp    **** 
  32:Nimbus.cpp    **** int mymod(int a, int b)
  33:Nimbus.cpp    **** {
ARM GAS  /var/folders/hl/qgbwny5j0fd895c2c41bk3tw0000gp/T//ccX3fN6S.s 			page 45


  34:Nimbus.cpp    ****     return (b + (a % b)) % b;
  35:Nimbus.cpp    **** }
  36:Nimbus.cpp    **** 
  37:Nimbus.cpp    **** class ParamControl
  38:Nimbus.cpp    **** {
  39:Nimbus.cpp    ****   public:
  40:Nimbus.cpp    ****     ParamControl() {}
  41:Nimbus.cpp    ****     ~ParamControl() {}
  42:Nimbus.cpp    **** 
  43:Nimbus.cpp    ****     void Init(AnalogControl* control, Parameters* params)
  44:Nimbus.cpp    ****     {
  45:Nimbus.cpp    ****         params_    = params;
  46:Nimbus.cpp    ****         control_   = control;
  47:Nimbus.cpp    ****         param_num_ = 0;
  48:Nimbus.cpp    ****         oldval_    = 0.f;
  49:Nimbus.cpp    ****     }
  50:Nimbus.cpp    **** 
  51:Nimbus.cpp    ****     void incParamNum(int inc)
  52:Nimbus.cpp    ****     {
  53:Nimbus.cpp    ****         param_num_ += inc;
  54:Nimbus.cpp    ****         param_num_ = mymod(param_num_, NUM_PARAMS);
  55:Nimbus.cpp    ****     }
  56:Nimbus.cpp    **** 
  57:Nimbus.cpp    ****     char* getName(int inc = 0)
  58:Nimbus.cpp    ****     {
  59:Nimbus.cpp    ****         return paramNames[mymod(param_num_ + inc, NUM_PARAMS)];
  60:Nimbus.cpp    ****     }
  61:Nimbus.cpp    **** 
  62:Nimbus.cpp    ****     bool knobTouched(float newval)
  63:Nimbus.cpp    ****     {
  64:Nimbus.cpp    ****         bool ret = fabsf(newval - oldval_) > .001f;
  65:Nimbus.cpp    ****         oldval_  = newval;
  66:Nimbus.cpp    ****         return ret;
  67:Nimbus.cpp    ****     }
  68:Nimbus.cpp    **** 
  69:Nimbus.cpp    ****     void Process()
  70:Nimbus.cpp    ****     {
  71:Nimbus.cpp    ****         float val = control_->Process();
  72:Nimbus.cpp    ****         if(!knobTouched(val))
  73:Nimbus.cpp    ****         {
  74:Nimbus.cpp    ****             return;
  75:Nimbus.cpp    ****         }
  76:Nimbus.cpp    **** 
  77:Nimbus.cpp    ****         switch(param_num_)
  78:Nimbus.cpp    ****         {
  79:Nimbus.cpp    ****             case 0: params_->position = val; break;
  80:Nimbus.cpp    ****             case 1: params_->size = val; break;
  81:Nimbus.cpp    ****             case 2:
  82:Nimbus.cpp    ****                 params_->pitch = powf(9.798f * (val - .5f), 2.f);
  83:Nimbus.cpp    ****                 params_->pitch *= val < .5f ? -1.f : 1.f;
  84:Nimbus.cpp    ****                 break;
  85:Nimbus.cpp    ****             case 3: params_->density = val; break;
  86:Nimbus.cpp    ****             case 4: params_->texture = val; break;
  87:Nimbus.cpp    ****             case 5: params_->dry_wet = val; break;
  88:Nimbus.cpp    ****             case 6: params_->stereo_spread = val; break;
  89:Nimbus.cpp    ****             case 7: params_->feedback = val; break;
  90:Nimbus.cpp    ****             case 8: params_->reverb = val; break;
ARM GAS  /var/folders/hl/qgbwny5j0fd895c2c41bk3tw0000gp/T//ccX3fN6S.s 			page 46


  91:Nimbus.cpp    ****         }
  92:Nimbus.cpp    ****     }
  93:Nimbus.cpp    **** 
  94:Nimbus.cpp    ****   private:
  95:Nimbus.cpp    ****     AnalogControl* control_;
  96:Nimbus.cpp    ****     Parameters*    params_;
  97:Nimbus.cpp    ****     int            param_num_;
  98:Nimbus.cpp    ****     float          oldval_;
  99:Nimbus.cpp    **** };
 100:Nimbus.cpp    **** 
 101:Nimbus.cpp    **** ParamControl paramControls[4];
 272              		.loc 24 101 14 is_stmt 1 view -0
 273              		.cfi_startproc
 274              		@ args = 0, pretend = 0, frame = 0
 275              		@ frame_needed = 0, uses_anonymous_args = 0
 276              		@ link register save eliminated.
 277              		.loc 24 101 14 is_stmt 0 view .LVU55
 278 0000 7047     		bx	lr
 279              		.cfi_endproc
 280              	.LFE5862:
 282 0002 00BF     		.section	.text._ZN5daisy11OledDisplayINS_13SSD130xDriverILj128ELj64ENS_24SSD130x4WireSpiTransportE
 283              		.align	1
 284              		.p2align 2,,3
 285              		.weak	_ZN5daisy11OledDisplayINS_13SSD130xDriverILj128ELj64ENS_24SSD130x4WireSpiTransportEEEED2Ev
 286              		.syntax unified
 287              		.thumb
 288              		.thumb_func
 289              		.fpu fpv5-d16
 291              	_ZN5daisy11OledDisplayINS_13SSD130xDriverILj128ELj64ENS_24SSD130x4WireSpiTransportEEEED2Ev:
 292              	.LVL7:
 293              	.LFB5864:
  18:../../libDaisy/src/hid/disp/oled_display.h **** 
 294              		.loc 22 18 13 is_stmt 1 view -0
 295              		.cfi_startproc
 296              		@ args = 0, pretend = 0, frame = 0
 297              		@ frame_needed = 0, uses_anonymous_args = 0
 298              		@ link register save eliminated.
 299              	.LBB729:
 300              	.LBI729:
 301              		.file 25 "../../libDaisy/src/hid/disp/display.h"
   1:../../libDaisy/src/hid/disp/display.h **** #pragma once
   2:../../libDaisy/src/hid/disp/display.h **** #ifndef DSY_DISPLAY_H
   3:../../libDaisy/src/hid/disp/display.h **** #define DSY_DISPLAY_H /**< Macro */
   4:../../libDaisy/src/hid/disp/display.h **** #include <cmath>
   5:../../libDaisy/src/hid/disp/display.h **** #include "util/oled_fonts.h"
   6:../../libDaisy/src/hid/disp/display.h **** #include "daisy_core.h"
   7:../../libDaisy/src/hid/disp/display.h **** #include "graphics_common.h"
   8:../../libDaisy/src/hid/disp/display.h **** 
   9:../../libDaisy/src/hid/disp/display.h **** #ifndef deg2rad
  10:../../libDaisy/src/hid/disp/display.h **** #define deg2rad(deg) ((deg)*3.141592 / 180.0)
  11:../../libDaisy/src/hid/disp/display.h **** #endif
  12:../../libDaisy/src/hid/disp/display.h **** 
  13:../../libDaisy/src/hid/disp/display.h **** namespace daisy
  14:../../libDaisy/src/hid/disp/display.h **** {
  15:../../libDaisy/src/hid/disp/display.h **** /** 
  16:../../libDaisy/src/hid/disp/display.h ****  * This interface is used as a base class for all types of 1bit-per-pixel
  17:../../libDaisy/src/hid/disp/display.h ****  * graphics displays.
ARM GAS  /var/folders/hl/qgbwny5j0fd895c2c41bk3tw0000gp/T//ccX3fN6S.s 			page 47


  18:../../libDaisy/src/hid/disp/display.h **** */
  19:../../libDaisy/src/hid/disp/display.h **** class OneBitGraphicsDisplay
  20:../../libDaisy/src/hid/disp/display.h **** {
  21:../../libDaisy/src/hid/disp/display.h ****   public:
  22:../../libDaisy/src/hid/disp/display.h ****     OneBitGraphicsDisplay() {}
  23:../../libDaisy/src/hid/disp/display.h ****     virtual ~OneBitGraphicsDisplay() {}
  24:../../libDaisy/src/hid/disp/display.h **** 
  25:../../libDaisy/src/hid/disp/display.h ****     virtual uint16_t Height() const = 0;
  26:../../libDaisy/src/hid/disp/display.h ****     virtual uint16_t Width() const  = 0;
  27:../../libDaisy/src/hid/disp/display.h **** 
  28:../../libDaisy/src/hid/disp/display.h ****     Rectangle GetBounds() const
  29:../../libDaisy/src/hid/disp/display.h ****     {
  30:../../libDaisy/src/hid/disp/display.h ****         return Rectangle(int16_t(Width()), int16_t(Height()));
  31:../../libDaisy/src/hid/disp/display.h ****     }
  32:../../libDaisy/src/hid/disp/display.h **** 
  33:../../libDaisy/src/hid/disp/display.h **** 
  34:../../libDaisy/src/hid/disp/display.h ****     size_t CurrentX() { return currentX_; };
  35:../../libDaisy/src/hid/disp/display.h ****     size_t CurrentY() { return currentY_; };
  36:../../libDaisy/src/hid/disp/display.h **** 
  37:../../libDaisy/src/hid/disp/display.h ****     /** 
  38:../../libDaisy/src/hid/disp/display.h ****     Fills the entire display with either on/off.
  39:../../libDaisy/src/hid/disp/display.h ****     \param on Sets on or off.
  40:../../libDaisy/src/hid/disp/display.h ****     */
  41:../../libDaisy/src/hid/disp/display.h ****     virtual void Fill(bool on) = 0;
  42:../../libDaisy/src/hid/disp/display.h **** 
  43:../../libDaisy/src/hid/disp/display.h ****     /**
  44:../../libDaisy/src/hid/disp/display.h ****     Sets the pixel at the specified coordinate to be on/off.
  45:../../libDaisy/src/hid/disp/display.h ****     \param x   x Coordinate
  46:../../libDaisy/src/hid/disp/display.h ****     \param y   y coordinate
  47:../../libDaisy/src/hid/disp/display.h ****     \param on  on or off
  48:../../libDaisy/src/hid/disp/display.h ****     */
  49:../../libDaisy/src/hid/disp/display.h ****     virtual void DrawPixel(uint_fast8_t x, uint_fast8_t y, bool on) = 0;
  50:../../libDaisy/src/hid/disp/display.h **** 
  51:../../libDaisy/src/hid/disp/display.h ****     /**
  52:../../libDaisy/src/hid/disp/display.h ****     Draws a line from (x1, y1) to (y1, y2)
  53:../../libDaisy/src/hid/disp/display.h ****     \param x1  x Coordinate of the starting point
  54:../../libDaisy/src/hid/disp/display.h ****     \param y1  y Coordinate of the starting point
  55:../../libDaisy/src/hid/disp/display.h ****     \param x2  x Coordinate of the ending point
  56:../../libDaisy/src/hid/disp/display.h ****     \param y2  y Coordinate of the ending point
  57:../../libDaisy/src/hid/disp/display.h ****     \param on  on or off
  58:../../libDaisy/src/hid/disp/display.h ****     */
  59:../../libDaisy/src/hid/disp/display.h ****     virtual void DrawLine(uint_fast8_t x1,
  60:../../libDaisy/src/hid/disp/display.h ****                           uint_fast8_t y1,
  61:../../libDaisy/src/hid/disp/display.h ****                           uint_fast8_t x2,
  62:../../libDaisy/src/hid/disp/display.h ****                           uint_fast8_t y2,
  63:../../libDaisy/src/hid/disp/display.h ****                           bool         on)
  64:../../libDaisy/src/hid/disp/display.h ****         = 0;
  65:../../libDaisy/src/hid/disp/display.h **** 
  66:../../libDaisy/src/hid/disp/display.h ****     /**
  67:../../libDaisy/src/hid/disp/display.h ****     Draws a rectangle based on two coordinates.
  68:../../libDaisy/src/hid/disp/display.h ****     \param x1 x Coordinate of the first point
  69:../../libDaisy/src/hid/disp/display.h ****     \param y1 y Coordinate of the first point
  70:../../libDaisy/src/hid/disp/display.h ****     \param x2 x Coordinate of the second point
  71:../../libDaisy/src/hid/disp/display.h ****     \param y2 y Coordinate of the second point
  72:../../libDaisy/src/hid/disp/display.h ****     \param on on or off
  73:../../libDaisy/src/hid/disp/display.h ****     \param fill fill the rectangle or draw only the outline
  74:../../libDaisy/src/hid/disp/display.h ****     */
ARM GAS  /var/folders/hl/qgbwny5j0fd895c2c41bk3tw0000gp/T//ccX3fN6S.s 			page 48


  75:../../libDaisy/src/hid/disp/display.h ****     virtual void DrawRect(uint_fast8_t x1,
  76:../../libDaisy/src/hid/disp/display.h ****                           uint_fast8_t y1,
  77:../../libDaisy/src/hid/disp/display.h ****                           uint_fast8_t x2,
  78:../../libDaisy/src/hid/disp/display.h ****                           uint_fast8_t y2,
  79:../../libDaisy/src/hid/disp/display.h ****                           bool         on,
  80:../../libDaisy/src/hid/disp/display.h ****                           bool         fill = false)
  81:../../libDaisy/src/hid/disp/display.h ****         = 0;
  82:../../libDaisy/src/hid/disp/display.h **** 
  83:../../libDaisy/src/hid/disp/display.h ****     /**
  84:../../libDaisy/src/hid/disp/display.h ****     Draws a rectangle.
  85:../../libDaisy/src/hid/disp/display.h ****     \param rect the rectangle
  86:../../libDaisy/src/hid/disp/display.h ****     \param on   on or off
  87:../../libDaisy/src/hid/disp/display.h ****     \param fill fill the rectangle or draw only the outline
  88:../../libDaisy/src/hid/disp/display.h ****     */
  89:../../libDaisy/src/hid/disp/display.h ****     void DrawRect(const Rectangle& rect, bool on, bool fill = false)
  90:../../libDaisy/src/hid/disp/display.h ****     {
  91:../../libDaisy/src/hid/disp/display.h ****         DrawRect(rect.GetX(),
  92:../../libDaisy/src/hid/disp/display.h ****                  rect.GetY(),
  93:../../libDaisy/src/hid/disp/display.h ****                  rect.GetRight(),
  94:../../libDaisy/src/hid/disp/display.h ****                  rect.GetBottom(),
  95:../../libDaisy/src/hid/disp/display.h ****                  on,
  96:../../libDaisy/src/hid/disp/display.h ****                  fill);
  97:../../libDaisy/src/hid/disp/display.h ****     }
  98:../../libDaisy/src/hid/disp/display.h **** 
  99:../../libDaisy/src/hid/disp/display.h ****     /**
 100:../../libDaisy/src/hid/disp/display.h ****     Draws an arc around the specified coordinate
 101:../../libDaisy/src/hid/disp/display.h ****     \param x           x Coordinate of the center of the arc
 102:../../libDaisy/src/hid/disp/display.h ****     \param y           y Coordinate of the center of the arc
 103:../../libDaisy/src/hid/disp/display.h ****     \param radius      radius of the arc
 104:../../libDaisy/src/hid/disp/display.h ****     \param start_angle angle where to start the arc
 105:../../libDaisy/src/hid/disp/display.h ****     \param sweep       total angle of the arc
 106:../../libDaisy/src/hid/disp/display.h ****     \param on  on or off
 107:../../libDaisy/src/hid/disp/display.h ****     */
 108:../../libDaisy/src/hid/disp/display.h ****     virtual void DrawArc(uint_fast8_t x,
 109:../../libDaisy/src/hid/disp/display.h ****                          uint_fast8_t y,
 110:../../libDaisy/src/hid/disp/display.h ****                          uint_fast8_t radius,
 111:../../libDaisy/src/hid/disp/display.h ****                          int_fast16_t start_angle,
 112:../../libDaisy/src/hid/disp/display.h ****                          int_fast16_t sweep,
 113:../../libDaisy/src/hid/disp/display.h ****                          bool         on)
 114:../../libDaisy/src/hid/disp/display.h ****         = 0;
 115:../../libDaisy/src/hid/disp/display.h **** 
 116:../../libDaisy/src/hid/disp/display.h ****     /**
 117:../../libDaisy/src/hid/disp/display.h ****     Draws a circle around the specified coordinate
 118:../../libDaisy/src/hid/disp/display.h ****     \param x           x Coordinate of the center of the circle
 119:../../libDaisy/src/hid/disp/display.h ****     \param y           y Coordinate of the center of the circle
 120:../../libDaisy/src/hid/disp/display.h ****     \param radius      radius of the circle
 121:../../libDaisy/src/hid/disp/display.h ****     \param on  on or off
 122:../../libDaisy/src/hid/disp/display.h ****     */
 123:../../libDaisy/src/hid/disp/display.h ****     void
 124:../../libDaisy/src/hid/disp/display.h ****     DrawCircle(uint_fast8_t x, uint_fast8_t y, uint_fast8_t radius, bool on)
 125:../../libDaisy/src/hid/disp/display.h ****     {
 126:../../libDaisy/src/hid/disp/display.h ****         DrawArc(x, y, radius, 0, 360, on);
 127:../../libDaisy/src/hid/disp/display.h ****     };
 128:../../libDaisy/src/hid/disp/display.h **** 
 129:../../libDaisy/src/hid/disp/display.h ****     /** 
 130:../../libDaisy/src/hid/disp/display.h ****     Writes the character with the specific FontDef
 131:../../libDaisy/src/hid/disp/display.h ****     to the display buffer at the current Cursor position.
ARM GAS  /var/folders/hl/qgbwny5j0fd895c2c41bk3tw0000gp/T//ccX3fN6S.s 			page 49


 132:../../libDaisy/src/hid/disp/display.h ****     \param ch character to be written
 133:../../libDaisy/src/hid/disp/display.h ****     \param font font to be written in
 134:../../libDaisy/src/hid/disp/display.h ****     \param on    on or off
 135:../../libDaisy/src/hid/disp/display.h ****     \return &
 136:../../libDaisy/src/hid/disp/display.h ****     */
 137:../../libDaisy/src/hid/disp/display.h ****     virtual char WriteChar(char ch, FontDef font, bool on) = 0;
 138:../../libDaisy/src/hid/disp/display.h **** 
 139:../../libDaisy/src/hid/disp/display.h ****     /** 
 140:../../libDaisy/src/hid/disp/display.h ****     Similar to WriteChar, except it will handle an entire String.
 141:../../libDaisy/src/hid/disp/display.h ****     Wrapping does not happen automatically, so the width
 142:../../libDaisy/src/hid/disp/display.h ****     of the string must be kept within the dimensions of the screen.
 143:../../libDaisy/src/hid/disp/display.h ****     \param str string to be written
 144:../../libDaisy/src/hid/disp/display.h ****     \param font font to use
 145:../../libDaisy/src/hid/disp/display.h ****     \param on  on or off
 146:../../libDaisy/src/hid/disp/display.h ****     \return &
 147:../../libDaisy/src/hid/disp/display.h ****     */
 148:../../libDaisy/src/hid/disp/display.h ****     virtual char WriteString(const char* str, FontDef font, bool on) = 0;
 149:../../libDaisy/src/hid/disp/display.h **** 
 150:../../libDaisy/src/hid/disp/display.h ****     /** 
 151:../../libDaisy/src/hid/disp/display.h ****     Similar to WriteString but justified within a bounding box.
 152:../../libDaisy/src/hid/disp/display.h ****     \param str          string to be written
 153:../../libDaisy/src/hid/disp/display.h ****     \param font         font to use
 154:../../libDaisy/src/hid/disp/display.h ****     \param boundingBox  the bounding box to draw the text in
 155:../../libDaisy/src/hid/disp/display.h ****     \param alignment    the alignment to use
 156:../../libDaisy/src/hid/disp/display.h ****     \param on           on or off
 157:../../libDaisy/src/hid/disp/display.h ****     \return The rectangle that was drawn to
 158:../../libDaisy/src/hid/disp/display.h ****     */
 159:../../libDaisy/src/hid/disp/display.h ****     virtual Rectangle WriteStringAligned(const char*    str,
 160:../../libDaisy/src/hid/disp/display.h ****                                          const FontDef& font,
 161:../../libDaisy/src/hid/disp/display.h ****                                          Rectangle      boundingBox,
 162:../../libDaisy/src/hid/disp/display.h ****                                          Alignment      alignment,
 163:../../libDaisy/src/hid/disp/display.h ****                                          bool           on)
 164:../../libDaisy/src/hid/disp/display.h ****         = 0;
 165:../../libDaisy/src/hid/disp/display.h **** 
 166:../../libDaisy/src/hid/disp/display.h ****     /** 
 167:../../libDaisy/src/hid/disp/display.h ****     Moves the 'Cursor' position used for WriteChar, and WriteStr to the specified coordinate.
 168:../../libDaisy/src/hid/disp/display.h ****     \param x x pos
 169:../../libDaisy/src/hid/disp/display.h ****     \param y y pos
 170:../../libDaisy/src/hid/disp/display.h ****     */
 171:../../libDaisy/src/hid/disp/display.h ****     void SetCursor(uint16_t x, uint16_t y)
 172:../../libDaisy/src/hid/disp/display.h ****     {
 173:../../libDaisy/src/hid/disp/display.h ****         currentX_ = (x >= Width()) ? Width() - 1 : x;
 174:../../libDaisy/src/hid/disp/display.h ****         currentY_ = (y >= Height()) ? Height() - 1 : y;
 175:../../libDaisy/src/hid/disp/display.h ****     }
 176:../../libDaisy/src/hid/disp/display.h **** 
 177:../../libDaisy/src/hid/disp/display.h ****     /** 
 178:../../libDaisy/src/hid/disp/display.h ****     Writes the current display buffer to the OLED device using SPI or I2C depending on 
 179:../../libDaisy/src/hid/disp/display.h ****     how the object was initialized.
 180:../../libDaisy/src/hid/disp/display.h ****     */
 181:../../libDaisy/src/hid/disp/display.h ****     virtual void Update() = 0;
 182:../../libDaisy/src/hid/disp/display.h **** 
 183:../../libDaisy/src/hid/disp/display.h ****   protected:
 184:../../libDaisy/src/hid/disp/display.h ****     uint16_t currentX_;
 185:../../libDaisy/src/hid/disp/display.h ****     uint16_t currentY_;
 186:../../libDaisy/src/hid/disp/display.h **** };
 187:../../libDaisy/src/hid/disp/display.h **** 
 188:../../libDaisy/src/hid/disp/display.h **** /** This class is intended as a intermediary class for your actual implementation of the OneBitGrap
ARM GAS  /var/folders/hl/qgbwny5j0fd895c2c41bk3tw0000gp/T//ccX3fN6S.s 			page 50


 189:../../libDaisy/src/hid/disp/display.h ****  *  interface. It uses the CRTP design pattern where the template argument is the child class. It p
 190:../../libDaisy/src/hid/disp/display.h ****  *  implementations for most of the functions, except DrawPixel(), Update() and Fill(), which you'l
 191:../../libDaisy/src/hid/disp/display.h ****  *  to provide in your child class.
 192:../../libDaisy/src/hid/disp/display.h ****  *  The main goal of this class is to provide common drawing functions without relying on massive a
 193:../../libDaisy/src/hid/disp/display.h ****  *  virtual function calls that would result in a performance loss. To achieve this, any drawing fu
 194:../../libDaisy/src/hid/disp/display.h ****  *  is implemented here and internally calls other drawing functions (e.g. DrawRect() which interna
 195:../../libDaisy/src/hid/disp/display.h ****  *  DrawPixel() and DrawLine()) makes these calls via the qualified name of these functions to expl
 196:../../libDaisy/src/hid/disp/display.h ****  *  suppress the virtual dispatch mechanism like this:
 197:../../libDaisy/src/hid/disp/display.h ****  * 
 198:../../libDaisy/src/hid/disp/display.h ****  *      ChildType::DrawPixel(...); // no virtual function call; direct call into the child class fu
 199:../../libDaisy/src/hid/disp/display.h ****  *  
 200:../../libDaisy/src/hid/disp/display.h ****  *  To create a custom OneBitGraphicsDisplay implementation, you can 
 201:../../libDaisy/src/hid/disp/display.h ****  *  A) inherit from OneBitGraphicsDisplay directly and provide all the drawing functions yourself
 202:../../libDaisy/src/hid/disp/display.h ****  *  B) Inherit from OneBitGraphicsDisplayImpl and only provide DrawPixel(), Fill() and Update()
 203:../../libDaisy/src/hid/disp/display.h ****  *     like this:
 204:../../libDaisy/src/hid/disp/display.h ****  *  
 205:../../libDaisy/src/hid/disp/display.h ****  *      class MyDisplayClass : public OneBitGraphicsDisplayImpl<MyDisplayClass> 
 206:../../libDaisy/src/hid/disp/display.h ****  *      {
 207:../../libDaisy/src/hid/disp/display.h ****  *      public:
 208:../../libDaisy/src/hid/disp/display.h ****  *          void Fill() override { ... };
 209:../../libDaisy/src/hid/disp/display.h ****  *          void DrawPixel(uint_fast8_t x, uint_fast8_t y, bool on) override { ... };
 210:../../libDaisy/src/hid/disp/display.h ****  *          void Update() override { ... }
 211:../../libDaisy/src/hid/disp/display.h ****  *      };
 212:../../libDaisy/src/hid/disp/display.h ****  *  
 213:../../libDaisy/src/hid/disp/display.h ****  */
 214:../../libDaisy/src/hid/disp/display.h **** template <class ChildType>
 215:../../libDaisy/src/hid/disp/display.h **** class OneBitGraphicsDisplayImpl : public OneBitGraphicsDisplay
 216:../../libDaisy/src/hid/disp/display.h **** {
 217:../../libDaisy/src/hid/disp/display.h ****   public:
 218:../../libDaisy/src/hid/disp/display.h ****     OneBitGraphicsDisplayImpl() {}
 219:../../libDaisy/src/hid/disp/display.h ****     virtual ~OneBitGraphicsDisplayImpl() {}
 302              		.loc 25 219 13 view .LVU57
 303              	.LBB730:
 304              	.LBI730:
  23:../../libDaisy/src/hid/disp/display.h **** 
 305              		.loc 25 23 13 view .LVU58
  23:../../libDaisy/src/hid/disp/display.h **** 
 306              		.loc 25 23 13 is_stmt 0 view .LVU59
 307              	.LBE730:
 308              	.LBE729:
  18:../../libDaisy/src/hid/disp/oled_display.h **** 
 309              		.loc 22 18 29 view .LVU60
 310 0000 7047     		bx	lr
 311              		.cfi_endproc
 312              	.LFE5864:
 314              		.weak	_ZN5daisy11OledDisplayINS_13SSD130xDriverILj128ELj64ENS_24SSD130x4WireSpiTransportEEEED1Ev
 315              		.thumb_set _ZN5daisy11OledDisplayINS_13SSD130xDriverILj128ELj64ENS_24SSD130x4WireSpiTransportEEEED
 316 0002 00BF     		.section	.text._ZNK5daisy11OledDisplayINS_13SSD130xDriverILj128ELj64ENS_24SSD130x4WireSpiTransport
 317              		.align	1
 318              		.p2align 2,,3
 319              		.weak	_ZNK5daisy11OledDisplayINS_13SSD130xDriverILj128ELj64ENS_24SSD130x4WireSpiTransportEEEE6Heig
 320              		.syntax unified
 321              		.thumb
 322              		.thumb_func
 323              		.fpu fpv5-d16
 325              	_ZNK5daisy11OledDisplayINS_13SSD130xDriverILj128ELj64ENS_24SSD130x4WireSpiTransportEEEE6HeightEv:
 326              	.LVL8:
ARM GAS  /var/folders/hl/qgbwny5j0fd895c2c41bk3tw0000gp/T//ccX3fN6S.s 			page 51


 327              	.LFB5867:
  27:../../libDaisy/src/hid/disp/oled_display.h ****     uint16_t Width() const override { return driver_.Width(); }
 328              		.loc 22 27 14 is_stmt 1 view -0
 329              		.cfi_startproc
 330              		@ args = 0, pretend = 0, frame = 0
 331              		@ frame_needed = 0, uses_anonymous_args = 0
 332              		@ link register save eliminated.
  27:../../libDaisy/src/hid/disp/oled_display.h ****     uint16_t Width() const override { return driver_.Width(); }
 333              		.loc 22 27 65 is_stmt 0 view .LVU62
 334 0000 4020     		movs	r0, #64
 335              	.LVL9:
  27:../../libDaisy/src/hid/disp/oled_display.h ****     uint16_t Width() const override { return driver_.Width(); }
 336              		.loc 22 27 65 view .LVU63
 337 0002 7047     		bx	lr
 338              		.cfi_endproc
 339              	.LFE5867:
 341              		.section	.text._ZNK5daisy11OledDisplayINS_13SSD130xDriverILj128ELj64ENS_24SSD130x4WireSpiTransport
 342              		.align	1
 343              		.p2align 2,,3
 344              		.weak	_ZNK5daisy11OledDisplayINS_13SSD130xDriverILj128ELj64ENS_24SSD130x4WireSpiTransportEEEE5Widt
 345              		.syntax unified
 346              		.thumb
 347              		.thumb_func
 348              		.fpu fpv5-d16
 350              	_ZNK5daisy11OledDisplayINS_13SSD130xDriverILj128ELj64ENS_24SSD130x4WireSpiTransportEEEE5WidthEv:
 351              	.LVL10:
 352              	.LFB5868:
  28:../../libDaisy/src/hid/disp/oled_display.h **** 
 353              		.loc 22 28 14 is_stmt 1 view -0
 354              		.cfi_startproc
 355              		@ args = 0, pretend = 0, frame = 0
 356              		@ frame_needed = 0, uses_anonymous_args = 0
 357              		@ link register save eliminated.
  28:../../libDaisy/src/hid/disp/oled_display.h **** 
 358              		.loc 22 28 63 is_stmt 0 view .LVU65
 359 0000 8020     		movs	r0, #128
 360              	.LVL11:
  28:../../libDaisy/src/hid/disp/oled_display.h **** 
 361              		.loc 22 28 63 view .LVU66
 362 0002 7047     		bx	lr
 363              		.cfi_endproc
 364              	.LFE5868:
 366              		.section	.text._ZN5daisy11OledDisplayINS_13SSD130xDriverILj128ELj64ENS_24SSD130x4WireSpiTransportE
 367              		.align	1
 368              		.p2align 2,,3
 369              		.weak	_ZN5daisy11OledDisplayINS_13SSD130xDriverILj128ELj64ENS_24SSD130x4WireSpiTransportEEEED0Ev
 370              		.syntax unified
 371              		.thumb
 372              		.thumb_func
 373              		.fpu fpv5-d16
 375              	_ZN5daisy11OledDisplayINS_13SSD130xDriverILj128ELj64ENS_24SSD130x4WireSpiTransportEEEED0Ev:
 376              	.LVL12:
 377              	.LFB5866:
  18:../../libDaisy/src/hid/disp/oled_display.h **** 
 378              		.loc 22 18 13 is_stmt 1 view -0
 379              		.cfi_startproc
 380              		@ args = 0, pretend = 0, frame = 0
ARM GAS  /var/folders/hl/qgbwny5j0fd895c2c41bk3tw0000gp/T//ccX3fN6S.s 			page 52


 381              		@ frame_needed = 0, uses_anonymous_args = 0
  18:../../libDaisy/src/hid/disp/oled_display.h **** 
 382              		.loc 22 18 13 is_stmt 0 view .LVU68
 383 0000 10B5     		push	{r4, lr}
 384              		.cfi_def_cfa_offset 8
 385              		.cfi_offset 4, -8
 386              		.cfi_offset 14, -4
  18:../../libDaisy/src/hid/disp/oled_display.h **** 
 387              		.loc 22 18 13 view .LVU69
 388 0002 0446     		mov	r4, r0
 389              	.LVL13:
 390              	.LBB731:
 391              	.LBI731:
  18:../../libDaisy/src/hid/disp/oled_display.h **** 
 392              		.loc 22 18 13 is_stmt 1 view .LVU70
 393              	.LBB732:
 394              	.LBI732:
 395              		.loc 25 219 13 view .LVU71
 396              	.LBB733:
 397              	.LBI733:
  23:../../libDaisy/src/hid/disp/display.h **** 
 398              		.loc 25 23 13 view .LVU72
  23:../../libDaisy/src/hid/disp/display.h **** 
 399              		.loc 25 23 13 is_stmt 0 view .LVU73
 400              	.LBE733:
 401              	.LBE732:
 402              	.LBE731:
  18:../../libDaisy/src/hid/disp/oled_display.h **** 
 403              		.loc 22 18 29 view .LVU74
 404 0004 40F21441 		movw	r1, #1044
 405 0008 FFF7FEFF 		bl	_ZdlPvj
 406              	.LVL14:
  18:../../libDaisy/src/hid/disp/oled_display.h **** 
 407              		.loc 22 18 29 view .LVU75
 408 000c 2046     		mov	r0, r4
 409 000e 10BD     		pop	{r4, pc}
  18:../../libDaisy/src/hid/disp/oled_display.h **** 
 410              		.loc 22 18 29 view .LVU76
 411              		.cfi_endproc
 412              	.LFE5866:
 414              		.section	.text._ZN5daisy11OledDisplayINS_13SSD130xDriverILj128ELj64ENS_24SSD130x4WireSpiTransportE
 415              		.align	1
 416              		.p2align 2,,3
 417              		.weak	_ZN5daisy11OledDisplayINS_13SSD130xDriverILj128ELj64ENS_24SSD130x4WireSpiTransportEEEE6Updat
 418              		.syntax unified
 419              		.thumb
 420              		.thumb_func
 421              		.fpu fpv5-d16
 423              	_ZN5daisy11OledDisplayINS_13SSD130xDriverILj128ELj64ENS_24SSD130x4WireSpiTransportEEEE6UpdateEv:
 424              	.LVL15:
 425              	.LFB5547:
  35:../../libDaisy/src/hid/disp/oled_display.h **** 
  36:../../libDaisy/src/hid/disp/oled_display.h ****     /**
  37:../../libDaisy/src/hid/disp/oled_display.h ****     Sets the pixel at the specified coordinate to be on/off.
  38:../../libDaisy/src/hid/disp/oled_display.h ****     \param x   x Coordinate
  39:../../libDaisy/src/hid/disp/oled_display.h ****     \param y   y coordinate
  40:../../libDaisy/src/hid/disp/oled_display.h ****     \param on  on or off
ARM GAS  /var/folders/hl/qgbwny5j0fd895c2c41bk3tw0000gp/T//ccX3fN6S.s 			page 53


  41:../../libDaisy/src/hid/disp/oled_display.h ****     */
  42:../../libDaisy/src/hid/disp/oled_display.h ****     void DrawPixel(uint_fast8_t x, uint_fast8_t y, bool on) override
  43:../../libDaisy/src/hid/disp/oled_display.h ****     {
  44:../../libDaisy/src/hid/disp/oled_display.h ****         driver_.DrawPixel(x, y, on);
  45:../../libDaisy/src/hid/disp/oled_display.h ****     }
  46:../../libDaisy/src/hid/disp/oled_display.h **** 
  47:../../libDaisy/src/hid/disp/oled_display.h ****     /** 
  48:../../libDaisy/src/hid/disp/oled_display.h ****     Writes the current display buffer to the OLED device using SPI or I2C depending on 
  49:../../libDaisy/src/hid/disp/oled_display.h ****     how the object was initialized.
  50:../../libDaisy/src/hid/disp/oled_display.h ****     */
  51:../../libDaisy/src/hid/disp/oled_display.h ****     void Update() override { driver_.Update(); }
 426              		.loc 22 51 10 is_stmt 1 view -0
 427              		.cfi_startproc
 428              		@ args = 0, pretend = 0, frame = 8
 429              		@ frame_needed = 0, uses_anonymous_args = 0
 430              	.LBB744:
 431              	.LBI744:
 267:../../libDaisy/src/dev/oled_ssd130x.h ****         }
 268:../../libDaisy/src/dev/oled_ssd130x.h ****     };
 269:../../libDaisy/src/dev/oled_ssd130x.h **** 
 270:../../libDaisy/src/dev/oled_ssd130x.h ****     /**
 271:../../libDaisy/src/dev/oled_ssd130x.h ****      * Update the display 
 272:../../libDaisy/src/dev/oled_ssd130x.h ****     */
 273:../../libDaisy/src/dev/oled_ssd130x.h ****     void Update()
 432              		.loc 23 273 10 view .LVU78
 433              	.LBB745:
 274:../../libDaisy/src/dev/oled_ssd130x.h ****     {
 275:../../libDaisy/src/dev/oled_ssd130x.h ****         uint8_t i;
 276:../../libDaisy/src/dev/oled_ssd130x.h ****         uint8_t high_column_addr;
 277:../../libDaisy/src/dev/oled_ssd130x.h ****         switch(height)
 278:../../libDaisy/src/dev/oled_ssd130x.h ****         {
 279:../../libDaisy/src/dev/oled_ssd130x.h ****             case 32: high_column_addr = 0x12; break;
 280:../../libDaisy/src/dev/oled_ssd130x.h **** 
 281:../../libDaisy/src/dev/oled_ssd130x.h ****             default: high_column_addr = 0x10; break;
 282:../../libDaisy/src/dev/oled_ssd130x.h ****         }
 283:../../libDaisy/src/dev/oled_ssd130x.h ****         for(i = 0; i < (height / 8); i++)
 434              		.loc 23 283 22 view .LVU79
 435              	.LBE745:
 436              	.LBE744:
 437              		.loc 22 51 10 is_stmt 0 view .LVU80
 438 0000 2DE9F041 		push	{r4, r5, r6, r7, r8, lr}
 439              		.cfi_def_cfa_offset 24
 440              		.cfi_offset 4, -24
 441              		.cfi_offset 5, -20
 442              		.cfi_offset 6, -16
 443              		.cfi_offset 7, -12
 444              		.cfi_offset 8, -8
 445              		.cfi_offset 14, -4
 446              	.LBB767:
 447              	.LBB765:
 448              	.LBB746:
 449              	.LBB747:
 125:../../libDaisy/src/dev/oled_ssd130x.h ****     };
 450              		.loc 23 125 30 view .LVU81
 451 0004 B024     		movs	r4, #176
 452              	.LBE747:
 453              	.LBE746:
ARM GAS  /var/folders/hl/qgbwny5j0fd895c2c41bk3tw0000gp/T//ccX3fN6S.s 			page 54


 454              	.LBE765:
 455              	.LBE767:
 456              		.loc 22 51 10 view .LVU82
 457 0006 82B0     		sub	sp, sp, #8
 458              		.cfi_def_cfa_offset 32
 459              	.LBB768:
 460              	.LBB766:
 461              	.LBB752:
 462              	.LBB748:
 124:../../libDaisy/src/dev/oled_ssd130x.h ****         spi_.BlockingTransmit(&cmd, 1);
 463              		.loc 23 124 24 view .LVU83
 464 0008 00F10806 		add	r6, r0, #8
 465 000c 00F11005 		add	r5, r0, #16
 466 0010 00F11408 		add	r8, r0, #20
 467              	.LVL16:
 468              	.L13:
 124:../../libDaisy/src/dev/oled_ssd130x.h ****         spi_.BlockingTransmit(&cmd, 1);
 469              		.loc 23 124 24 view .LVU84
 470 0014 0027     		movs	r7, #0
 124:../../libDaisy/src/dev/oled_ssd130x.h ****         spi_.BlockingTransmit(&cmd, 1);
 471              		.loc 23 124 23 view .LVU85
 472 0016 2846     		mov	r0, r5
 473 0018 8DF80740 		strb	r4, [sp, #7]
 474              	.LVL17:
 124:../../libDaisy/src/dev/oled_ssd130x.h ****         spi_.BlockingTransmit(&cmd, 1);
 475              		.loc 23 124 23 view .LVU86
 476              	.LBE748:
 477              	.LBI746:
 122:../../libDaisy/src/dev/oled_ssd130x.h ****     {
 478              		.loc 23 122 10 is_stmt 1 view .LVU87
 479              	.LBB749:
 124:../../libDaisy/src/dev/oled_ssd130x.h ****         spi_.BlockingTransmit(&cmd, 1);
 480              		.loc 23 124 9 view .LVU88
 481              	.LBE749:
 482              	.LBE752:
 483              		.loc 23 283 22 is_stmt 0 view .LVU89
 484 001c 0134     		adds	r4, r4, #1
 485              	.LVL18:
 486              	.LBB753:
 487              	.LBB750:
 124:../../libDaisy/src/dev/oled_ssd130x.h ****         spi_.BlockingTransmit(&cmd, 1);
 488              		.loc 23 124 23 view .LVU90
 489 001e 3946     		mov	r1, r7
 490 0020 FFF7FEFF 		bl	dsy_gpio_write
 491              	.LVL19:
 125:../../libDaisy/src/dev/oled_ssd130x.h ****     };
 492              		.loc 23 125 9 is_stmt 1 view .LVU91
 125:../../libDaisy/src/dev/oled_ssd130x.h ****     };
 493              		.loc 23 125 30 is_stmt 0 view .LVU92
 494 0024 6423     		movs	r3, #100
 495 0026 0122     		movs	r2, #1
 496 0028 0DF10701 		add	r1, sp, #7
 497 002c 3046     		mov	r0, r6
 498              	.LBE750:
 499              	.LBE753:
 500              		.loc 23 283 22 view .LVU93
 501 002e E4B2     		uxtb	r4, r4
ARM GAS  /var/folders/hl/qgbwny5j0fd895c2c41bk3tw0000gp/T//ccX3fN6S.s 			page 55


 502              	.LBB754:
 503              	.LBB751:
 125:../../libDaisy/src/dev/oled_ssd130x.h ****     };
 504              		.loc 23 125 30 view .LVU94
 505 0030 FFF7FEFF 		bl	_ZN5daisy9SpiHandle16BlockingTransmitEPhjm
 506              	.LVL20:
 125:../../libDaisy/src/dev/oled_ssd130x.h ****     };
 507              		.loc 23 125 30 view .LVU95
 508              	.LBE751:
 509              	.LBE754:
 510              	.LBB755:
 511              	.LBB756:
 124:../../libDaisy/src/dev/oled_ssd130x.h ****         spi_.BlockingTransmit(&cmd, 1);
 512              		.loc 23 124 23 view .LVU96
 513 0034 3946     		mov	r1, r7
 514 0036 2846     		mov	r0, r5
 515 0038 8DF80770 		strb	r7, [sp, #7]
 516              	.LVL21:
 124:../../libDaisy/src/dev/oled_ssd130x.h ****         spi_.BlockingTransmit(&cmd, 1);
 517              		.loc 23 124 23 view .LVU97
 518              	.LBE756:
 519              	.LBI755:
 122:../../libDaisy/src/dev/oled_ssd130x.h ****     {
 520              		.loc 23 122 10 is_stmt 1 view .LVU98
 521              	.LBB757:
 124:../../libDaisy/src/dev/oled_ssd130x.h ****         spi_.BlockingTransmit(&cmd, 1);
 522              		.loc 23 124 9 view .LVU99
 124:../../libDaisy/src/dev/oled_ssd130x.h ****         spi_.BlockingTransmit(&cmd, 1);
 523              		.loc 23 124 23 is_stmt 0 view .LVU100
 524 003c FFF7FEFF 		bl	dsy_gpio_write
 525              	.LVL22:
 125:../../libDaisy/src/dev/oled_ssd130x.h ****     };
 526              		.loc 23 125 9 is_stmt 1 view .LVU101
 125:../../libDaisy/src/dev/oled_ssd130x.h ****     };
 527              		.loc 23 125 30 is_stmt 0 view .LVU102
 528 0040 0122     		movs	r2, #1
 529 0042 6423     		movs	r3, #100
 530 0044 0DF10701 		add	r1, sp, #7
 531 0048 3046     		mov	r0, r6
 532 004a FFF7FEFF 		bl	_ZN5daisy9SpiHandle16BlockingTransmitEPhjm
 533              	.LVL23:
 125:../../libDaisy/src/dev/oled_ssd130x.h ****     };
 534              		.loc 23 125 30 view .LVU103
 535 004e 1023     		movs	r3, #16
 536              	.LBE757:
 537              	.LBE755:
 538              	.LBB758:
 539              	.LBB759:
 124:../../libDaisy/src/dev/oled_ssd130x.h ****         spi_.BlockingTransmit(&cmd, 1);
 540              		.loc 23 124 23 view .LVU104
 541 0050 3946     		mov	r1, r7
 542 0052 2846     		mov	r0, r5
 543 0054 8DF80730 		strb	r3, [sp, #7]
 544              	.LVL24:
 124:../../libDaisy/src/dev/oled_ssd130x.h ****         spi_.BlockingTransmit(&cmd, 1);
 545              		.loc 23 124 23 view .LVU105
 546              	.LBE759:
ARM GAS  /var/folders/hl/qgbwny5j0fd895c2c41bk3tw0000gp/T//ccX3fN6S.s 			page 56


 547              	.LBI758:
 122:../../libDaisy/src/dev/oled_ssd130x.h ****     {
 548              		.loc 23 122 10 is_stmt 1 view .LVU106
 549              	.LBB760:
 124:../../libDaisy/src/dev/oled_ssd130x.h ****         spi_.BlockingTransmit(&cmd, 1);
 550              		.loc 23 124 9 view .LVU107
 124:../../libDaisy/src/dev/oled_ssd130x.h ****         spi_.BlockingTransmit(&cmd, 1);
 551              		.loc 23 124 23 is_stmt 0 view .LVU108
 552 0058 FFF7FEFF 		bl	dsy_gpio_write
 553              	.LVL25:
 125:../../libDaisy/src/dev/oled_ssd130x.h ****     };
 554              		.loc 23 125 9 is_stmt 1 view .LVU109
 125:../../libDaisy/src/dev/oled_ssd130x.h ****     };
 555              		.loc 23 125 30 is_stmt 0 view .LVU110
 556 005c 6423     		movs	r3, #100
 557 005e 0122     		movs	r2, #1
 558 0060 0DF10701 		add	r1, sp, #7
 559 0064 3046     		mov	r0, r6
 560 0066 FFF7FEFF 		bl	_ZN5daisy9SpiHandle16BlockingTransmitEPhjm
 561              	.LVL26:
 125:../../libDaisy/src/dev/oled_ssd130x.h ****     };
 562              		.loc 23 125 30 view .LVU111
 563              	.LBE760:
 564              	.LBE758:
 565              	.LBB761:
 566              	.LBI761:
 128:../../libDaisy/src/dev/oled_ssd130x.h ****     {
 567              		.loc 23 128 10 is_stmt 1 view .LVU112
 568              	.LBB762:
 130:../../libDaisy/src/dev/oled_ssd130x.h ****         spi_.BlockingTransmit(buff, size);
 569              		.loc 23 130 9 view .LVU113
 130:../../libDaisy/src/dev/oled_ssd130x.h ****         spi_.BlockingTransmit(buff, size);
 570              		.loc 23 130 23 is_stmt 0 view .LVU114
 571 006a 0121     		movs	r1, #1
 572 006c 2846     		mov	r0, r5
 573 006e FFF7FEFF 		bl	dsy_gpio_write
 574              	.LVL27:
 131:../../libDaisy/src/dev/oled_ssd130x.h ****     };
 575              		.loc 23 131 9 is_stmt 1 view .LVU115
 131:../../libDaisy/src/dev/oled_ssd130x.h ****     };
 576              		.loc 23 131 30 is_stmt 0 view .LVU116
 577 0072 8022     		movs	r2, #128
 578 0074 4146     		mov	r1, r8
 579 0076 6423     		movs	r3, #100
 580 0078 3046     		mov	r0, r6
 581              	.LBE762:
 582              	.LBE761:
 583              		.loc 23 283 22 view .LVU117
 584 007a 9044     		add	r8, r8, r2
 585              	.LVL28:
 586              	.LBB764:
 587              	.LBB763:
 131:../../libDaisy/src/dev/oled_ssd130x.h ****     };
 588              		.loc 23 131 30 view .LVU118
 589 007c FFF7FEFF 		bl	_ZN5daisy9SpiHandle16BlockingTransmitEPhjm
 590              	.LVL29:
 131:../../libDaisy/src/dev/oled_ssd130x.h ****     };
ARM GAS  /var/folders/hl/qgbwny5j0fd895c2c41bk3tw0000gp/T//ccX3fN6S.s 			page 57


 591              		.loc 23 131 30 view .LVU119
 592              	.LBE763:
 593              	.LBE764:
 594              		.loc 23 283 9 is_stmt 1 view .LVU120
 595              		.loc 23 283 22 view .LVU121
 596 0080 B82C     		cmp	r4, #184
 597 0082 C7D1     		bne	.L13
 598              	.LBE766:
 599              	.LBE768:
 600              		.loc 22 51 48 is_stmt 0 view .LVU122
 601 0084 02B0     		add	sp, sp, #8
 602              		.cfi_def_cfa_offset 24
 603              		@ sp needed
 604 0086 BDE8F081 		pop	{r4, r5, r6, r7, r8, pc}
 605              		.loc 22 51 48 view .LVU123
 606              		.cfi_endproc
 607              	.LFE5547:
 609 008a 00BF     		.section	.text._ZN5daisy25OneBitGraphicsDisplayImplINS_11OledDisplayINS_13SSD130xDriverILj128ELj64
 610              		.align	1
 611              		.p2align 2,,3
 612              		.weak	_ZN5daisy25OneBitGraphicsDisplayImplINS_11OledDisplayINS_13SSD130xDriverILj128ELj64ENS_24SSD
 613              		.syntax unified
 614              		.thumb
 615              		.thumb_func
 616              		.fpu fpv5-d16
 618              	_ZN5daisy25OneBitGraphicsDisplayImplINS_11OledDisplayINS_13SSD130xDriverILj128ELj64ENS_24SSD130x4Wi
 619              	.LVL30:
 620              	.LFB5704:
 220:../../libDaisy/src/hid/disp/display.h **** 
 221:../../libDaisy/src/hid/disp/display.h ****     void DrawLine(uint_fast8_t x1,
 222:../../libDaisy/src/hid/disp/display.h ****                   uint_fast8_t y1,
 223:../../libDaisy/src/hid/disp/display.h ****                   uint_fast8_t x2,
 224:../../libDaisy/src/hid/disp/display.h ****                   uint_fast8_t y2,
 225:../../libDaisy/src/hid/disp/display.h ****                   bool         on) override
 226:../../libDaisy/src/hid/disp/display.h ****     {
 227:../../libDaisy/src/hid/disp/display.h ****         int_fast16_t deltaX = abs((int_fast16_t)x2 - (int_fast16_t)x1);
 228:../../libDaisy/src/hid/disp/display.h ****         int_fast16_t deltaY = abs((int_fast16_t)y2 - (int_fast16_t)y1);
 229:../../libDaisy/src/hid/disp/display.h ****         int_fast16_t signX  = ((x1 < x2) ? 1 : -1);
 230:../../libDaisy/src/hid/disp/display.h ****         int_fast16_t signY  = ((y1 < y2) ? 1 : -1);
 231:../../libDaisy/src/hid/disp/display.h ****         int_fast16_t error  = deltaX - deltaY;
 232:../../libDaisy/src/hid/disp/display.h ****         int_fast16_t error2;
 233:../../libDaisy/src/hid/disp/display.h **** 
 234:../../libDaisy/src/hid/disp/display.h ****         // If we write "ChildType::DrawPixel(x2, y2, on);", we end up with
 235:../../libDaisy/src/hid/disp/display.h ****         // all sorts of weird compiler errors when the Child class is a template
 236:../../libDaisy/src/hid/disp/display.h ****         // class. The only way around this is to use this very verbose syntax:
 237:../../libDaisy/src/hid/disp/display.h ****         ((ChildType*)(this))->ChildType::DrawPixel(x2, y2, on);
 238:../../libDaisy/src/hid/disp/display.h **** 
 239:../../libDaisy/src/hid/disp/display.h ****         while((x1 != x2) || (y1 != y2))
 240:../../libDaisy/src/hid/disp/display.h ****         {
 241:../../libDaisy/src/hid/disp/display.h ****             ((ChildType*)(this))->ChildType::DrawPixel(x1, y1, on);
 242:../../libDaisy/src/hid/disp/display.h ****             error2 = error * 2;
 243:../../libDaisy/src/hid/disp/display.h ****             if(error2 > -deltaY)
 244:../../libDaisy/src/hid/disp/display.h ****             {
 245:../../libDaisy/src/hid/disp/display.h ****                 error -= deltaY;
 246:../../libDaisy/src/hid/disp/display.h ****                 x1 += signX;
 247:../../libDaisy/src/hid/disp/display.h ****             }
 248:../../libDaisy/src/hid/disp/display.h **** 
ARM GAS  /var/folders/hl/qgbwny5j0fd895c2c41bk3tw0000gp/T//ccX3fN6S.s 			page 58


 249:../../libDaisy/src/hid/disp/display.h ****             if(error2 < deltaX)
 250:../../libDaisy/src/hid/disp/display.h ****             {
 251:../../libDaisy/src/hid/disp/display.h ****                 error += deltaX;
 252:../../libDaisy/src/hid/disp/display.h ****                 y1 += signY;
 253:../../libDaisy/src/hid/disp/display.h ****             }
 254:../../libDaisy/src/hid/disp/display.h ****         }
 255:../../libDaisy/src/hid/disp/display.h ****     }
 256:../../libDaisy/src/hid/disp/display.h **** 
 257:../../libDaisy/src/hid/disp/display.h ****     void DrawRect(uint_fast8_t x1,
 258:../../libDaisy/src/hid/disp/display.h ****                   uint_fast8_t y1,
 259:../../libDaisy/src/hid/disp/display.h ****                   uint_fast8_t x2,
 260:../../libDaisy/src/hid/disp/display.h ****                   uint_fast8_t y2,
 261:../../libDaisy/src/hid/disp/display.h ****                   bool         on,
 262:../../libDaisy/src/hid/disp/display.h ****                   bool         fill = false) override
 263:../../libDaisy/src/hid/disp/display.h ****     {
 264:../../libDaisy/src/hid/disp/display.h ****         if(fill)
 265:../../libDaisy/src/hid/disp/display.h ****         {
 266:../../libDaisy/src/hid/disp/display.h ****             for(uint_fast8_t x = x1; x <= x2; x++)
 267:../../libDaisy/src/hid/disp/display.h ****             {
 268:../../libDaisy/src/hid/disp/display.h ****                 for(uint_fast8_t y = y1; y <= y2; y++)
 269:../../libDaisy/src/hid/disp/display.h ****                 {
 270:../../libDaisy/src/hid/disp/display.h ****                     ((ChildType*)(this))->ChildType::DrawPixel(x, y, on);
 271:../../libDaisy/src/hid/disp/display.h ****                 }
 272:../../libDaisy/src/hid/disp/display.h ****             }
 273:../../libDaisy/src/hid/disp/display.h ****         }
 274:../../libDaisy/src/hid/disp/display.h ****         else
 275:../../libDaisy/src/hid/disp/display.h ****         {
 276:../../libDaisy/src/hid/disp/display.h ****             ((ChildType*)(this))->ChildType::DrawLine(x1, y1, x2, y1, on);
 277:../../libDaisy/src/hid/disp/display.h ****             ((ChildType*)(this))->ChildType::DrawLine(x2, y1, x2, y2, on);
 278:../../libDaisy/src/hid/disp/display.h ****             ((ChildType*)(this))->ChildType::DrawLine(x2, y2, x1, y2, on);
 279:../../libDaisy/src/hid/disp/display.h ****             ((ChildType*)(this))->ChildType::DrawLine(x1, y2, x1, y1, on);
 280:../../libDaisy/src/hid/disp/display.h ****         }
 281:../../libDaisy/src/hid/disp/display.h ****     }
 282:../../libDaisy/src/hid/disp/display.h **** 
 283:../../libDaisy/src/hid/disp/display.h ****     void DrawArc(uint_fast8_t x,
 284:../../libDaisy/src/hid/disp/display.h ****                  uint_fast8_t y,
 285:../../libDaisy/src/hid/disp/display.h ****                  uint_fast8_t radius,
 286:../../libDaisy/src/hid/disp/display.h ****                  int_fast16_t start_angle,
 287:../../libDaisy/src/hid/disp/display.h ****                  int_fast16_t sweep,
 288:../../libDaisy/src/hid/disp/display.h ****                  bool         on) override
 289:../../libDaisy/src/hid/disp/display.h ****     {
 290:../../libDaisy/src/hid/disp/display.h ****         // Values to calculate the circle
 291:../../libDaisy/src/hid/disp/display.h ****         int_fast16_t t_x, t_y, err, e2;
 292:../../libDaisy/src/hid/disp/display.h **** 
 293:../../libDaisy/src/hid/disp/display.h ****         // Temporary values to speed up comparisons
 294:../../libDaisy/src/hid/disp/display.h ****         float t_sxy, t_syx, t_sxny, t_synx;
 295:../../libDaisy/src/hid/disp/display.h ****         float t_exy, t_eyx, t_exny, t_eynx;
 296:../../libDaisy/src/hid/disp/display.h **** 
 297:../../libDaisy/src/hid/disp/display.h ****         float start_angle_rad, end_angle_rad;
 298:../../libDaisy/src/hid/disp/display.h ****         float start_x, start_y, end_x, end_y;
 299:../../libDaisy/src/hid/disp/display.h **** 
 300:../../libDaisy/src/hid/disp/display.h ****         bool d1, d2, d3, d4;
 301:../../libDaisy/src/hid/disp/display.h **** 
 302:../../libDaisy/src/hid/disp/display.h ****         d1 = d2 = d3 = d4 = true;
 303:../../libDaisy/src/hid/disp/display.h **** 
 304:../../libDaisy/src/hid/disp/display.h ****         bool circle = false;
 305:../../libDaisy/src/hid/disp/display.h **** 
ARM GAS  /var/folders/hl/qgbwny5j0fd895c2c41bk3tw0000gp/T//ccX3fN6S.s 			page 59


 306:../../libDaisy/src/hid/disp/display.h ****         if(sweep < 0)
 307:../../libDaisy/src/hid/disp/display.h ****         {
 308:../../libDaisy/src/hid/disp/display.h ****             start_angle += sweep;
 309:../../libDaisy/src/hid/disp/display.h ****             sweep = -sweep;
 310:../../libDaisy/src/hid/disp/display.h ****         }
 311:../../libDaisy/src/hid/disp/display.h **** 
 312:../../libDaisy/src/hid/disp/display.h ****         start_angle_rad = deg2rad(start_angle);
 313:../../libDaisy/src/hid/disp/display.h ****         end_angle_rad   = deg2rad(start_angle + sweep);
 314:../../libDaisy/src/hid/disp/display.h **** 
 315:../../libDaisy/src/hid/disp/display.h ****         start_x = cos(start_angle_rad) * radius;
 316:../../libDaisy/src/hid/disp/display.h ****         start_y = -sin(start_angle_rad) * radius;
 317:../../libDaisy/src/hid/disp/display.h ****         end_x   = cos(end_angle_rad) * radius;
 318:../../libDaisy/src/hid/disp/display.h ****         end_y   = -sin(end_angle_rad) * radius;
 319:../../libDaisy/src/hid/disp/display.h **** 
 320:../../libDaisy/src/hid/disp/display.h ****         // Check if start and endpoint are very near
 321:../../libDaisy/src/hid/disp/display.h ****         if((end_x - start_x) * (end_x - start_x)
 322:../../libDaisy/src/hid/disp/display.h ****                + (end_y - start_y) * (end_y - start_y)
 323:../../libDaisy/src/hid/disp/display.h ****            < 2.0f)
 324:../../libDaisy/src/hid/disp/display.h ****         {
 325:../../libDaisy/src/hid/disp/display.h ****             if(sweep > 180)
 326:../../libDaisy/src/hid/disp/display.h ****                 circle = true;
 327:../../libDaisy/src/hid/disp/display.h ****             else
 328:../../libDaisy/src/hid/disp/display.h ****                 // Nothing to draw
 329:../../libDaisy/src/hid/disp/display.h ****                 return;
 330:../../libDaisy/src/hid/disp/display.h ****         }
 331:../../libDaisy/src/hid/disp/display.h **** 
 332:../../libDaisy/src/hid/disp/display.h ****         t_x = -radius;
 333:../../libDaisy/src/hid/disp/display.h ****         t_y = 0;
 334:../../libDaisy/src/hid/disp/display.h ****         err = 2 - 2 * radius;
 335:../../libDaisy/src/hid/disp/display.h **** 
 336:../../libDaisy/src/hid/disp/display.h ****         do
 337:../../libDaisy/src/hid/disp/display.h ****         {
 338:../../libDaisy/src/hid/disp/display.h ****             if(!circle)
 339:../../libDaisy/src/hid/disp/display.h ****             {
 340:../../libDaisy/src/hid/disp/display.h ****                 t_sxy  = start_x * t_y;
 341:../../libDaisy/src/hid/disp/display.h ****                 t_syx  = start_y * t_x;
 342:../../libDaisy/src/hid/disp/display.h ****                 t_sxny = start_x * -t_y;
 343:../../libDaisy/src/hid/disp/display.h ****                 t_synx = start_y * -t_x;
 344:../../libDaisy/src/hid/disp/display.h ****                 t_exy  = end_x * t_y;
 345:../../libDaisy/src/hid/disp/display.h ****                 t_eyx  = end_y * t_x;
 346:../../libDaisy/src/hid/disp/display.h ****                 t_exny = end_x * -t_y;
 347:../../libDaisy/src/hid/disp/display.h ****                 t_eynx = end_y * -t_x;
 348:../../libDaisy/src/hid/disp/display.h **** 
 349:../../libDaisy/src/hid/disp/display.h ****                 if(sweep > 180)
 350:../../libDaisy/src/hid/disp/display.h ****                 {
 351:../../libDaisy/src/hid/disp/display.h ****                     d1 = (t_sxy - t_synx < 0 || t_exy - t_eynx > 0);
 352:../../libDaisy/src/hid/disp/display.h ****                     d2 = (t_sxy - t_syx < 0 || t_exy - t_eyx > 0);
 353:../../libDaisy/src/hid/disp/display.h ****                     d3 = (t_sxny - t_syx < 0 || t_exny - t_eyx > 0);
 354:../../libDaisy/src/hid/disp/display.h ****                     d4 = (t_sxny - t_synx < 0 || t_exny - t_eynx > 0);
 355:../../libDaisy/src/hid/disp/display.h ****                 }
 356:../../libDaisy/src/hid/disp/display.h ****                 else
 357:../../libDaisy/src/hid/disp/display.h ****                 {
 358:../../libDaisy/src/hid/disp/display.h ****                     d1 = (t_sxy - t_synx < 0 && t_exy - t_eynx > 0);
 359:../../libDaisy/src/hid/disp/display.h ****                     d2 = (t_sxy - t_syx < 0 && t_exy - t_eyx > 0);
 360:../../libDaisy/src/hid/disp/display.h ****                     d3 = (t_sxny - t_syx < 0 && t_exny - t_eyx > 0);
 361:../../libDaisy/src/hid/disp/display.h ****                     d4 = (t_sxny - t_synx < 0 && t_exny - t_eynx > 0);
 362:../../libDaisy/src/hid/disp/display.h ****                 }
ARM GAS  /var/folders/hl/qgbwny5j0fd895c2c41bk3tw0000gp/T//ccX3fN6S.s 			page 60


 363:../../libDaisy/src/hid/disp/display.h ****             }
 364:../../libDaisy/src/hid/disp/display.h **** 
 365:../../libDaisy/src/hid/disp/display.h ****             if(d1)
 366:../../libDaisy/src/hid/disp/display.h ****                 ((ChildType*)(this))
 367:../../libDaisy/src/hid/disp/display.h ****                     ->ChildType::DrawPixel(x - t_x, y + t_y, on);
 368:../../libDaisy/src/hid/disp/display.h ****             if(d2)
 369:../../libDaisy/src/hid/disp/display.h ****                 ((ChildType*)(this))
 370:../../libDaisy/src/hid/disp/display.h ****                     ->ChildType::DrawPixel(x + t_x, y + t_y, on);
 371:../../libDaisy/src/hid/disp/display.h ****             if(d3)
 372:../../libDaisy/src/hid/disp/display.h ****                 ((ChildType*)(this))
 373:../../libDaisy/src/hid/disp/display.h ****                     ->ChildType::DrawPixel(x + t_x, y - t_y, on);
 374:../../libDaisy/src/hid/disp/display.h ****             if(d4)
 375:../../libDaisy/src/hid/disp/display.h ****                 ((ChildType*)(this))
 376:../../libDaisy/src/hid/disp/display.h ****                     ->ChildType::DrawPixel(x - t_x, y - t_y, on);
 377:../../libDaisy/src/hid/disp/display.h **** 
 378:../../libDaisy/src/hid/disp/display.h ****             e2 = err;
 379:../../libDaisy/src/hid/disp/display.h ****             if(e2 <= t_y)
 380:../../libDaisy/src/hid/disp/display.h ****             {
 381:../../libDaisy/src/hid/disp/display.h ****                 t_y++;
 382:../../libDaisy/src/hid/disp/display.h ****                 err = err + (t_y * 2 + 1);
 383:../../libDaisy/src/hid/disp/display.h ****                 if(-t_x == t_y && e2 <= t_x)
 384:../../libDaisy/src/hid/disp/display.h ****                 {
 385:../../libDaisy/src/hid/disp/display.h ****                     e2 = 0;
 386:../../libDaisy/src/hid/disp/display.h ****                 }
 387:../../libDaisy/src/hid/disp/display.h ****             }
 388:../../libDaisy/src/hid/disp/display.h ****             if(e2 > t_x)
 389:../../libDaisy/src/hid/disp/display.h ****             {
 390:../../libDaisy/src/hid/disp/display.h ****                 t_x++;
 391:../../libDaisy/src/hid/disp/display.h ****                 err = err + (t_x * 2 + 1);
 392:../../libDaisy/src/hid/disp/display.h ****             }
 393:../../libDaisy/src/hid/disp/display.h ****         } while(t_x <= 0);
 394:../../libDaisy/src/hid/disp/display.h ****     }
 395:../../libDaisy/src/hid/disp/display.h **** 
 396:../../libDaisy/src/hid/disp/display.h ****     char WriteChar(char ch, FontDef font, bool on) override
 621              		.loc 25 396 10 is_stmt 1 view -0
 622              		.cfi_startproc
 623              		@ args = 4, pretend = 0, frame = 16
 624              		@ frame_needed = 0, uses_anonymous_args = 0
 625              		.loc 25 396 10 is_stmt 0 view .LVU125
 626 0000 2DE9F04F 		push	{r4, r5, r6, r7, r8, r9, r10, fp, lr}
 627              		.cfi_def_cfa_offset 36
 628              		.cfi_offset 4, -36
 629              		.cfi_offset 5, -32
 630              		.cfi_offset 6, -28
 631              		.cfi_offset 7, -24
 632              		.cfi_offset 8, -20
 633              		.cfi_offset 9, -16
 634              		.cfi_offset 10, -12
 635              		.cfi_offset 11, -8
 636              		.cfi_offset 14, -4
 637 0004 85B0     		sub	sp, sp, #20
 638              		.cfi_def_cfa_offset 56
 639              	.LVL31:
 397:../../libDaisy/src/hid/disp/display.h ****     {
 398:../../libDaisy/src/hid/disp/display.h ****         uint32_t i, b, j;
 399:../../libDaisy/src/hid/disp/display.h **** 
 400:../../libDaisy/src/hid/disp/display.h ****         // Check if character is valid
ARM GAS  /var/folders/hl/qgbwny5j0fd895c2c41bk3tw0000gp/T//ccX3fN6S.s 			page 61


 401:../../libDaisy/src/hid/disp/display.h ****         if(ch < 32 || ch > 126)
 640              		.loc 25 401 20 view .LVU126
 641 0006 A1F12005 		sub	r5, r1, #32
 396:../../libDaisy/src/hid/disp/display.h ****     {
 642              		.loc 25 396 10 view .LVU127
 643 000a 04AC     		add	r4, sp, #16
 644 000c 9DF83870 		ldrb	r7, [sp, #56]	@ zero_extendqisi2
 645 0010 0091     		str	r1, [sp]
 646 0012 04E90C00 		stmdb	r4, {r2, r3}
 647              	.LVL32:
 648              		.loc 25 401 9 view .LVU128
 649 0016 EBB2     		uxtb	r3, r5
 650 0018 5E2B     		cmp	r3, #94
 651 001a 00F29580 		bhi	.L20
 402:../../libDaisy/src/hid/disp/display.h ****             return 0;
 403:../../libDaisy/src/hid/disp/display.h **** 
 404:../../libDaisy/src/hid/disp/display.h ****         // Check remaining space on current line
 405:../../libDaisy/src/hid/disp/display.h ****         if(Width() < (currentX_ + font.FontWidth)
 652              		.loc 25 405 17 view .LVU129
 653 001e 0368     		ldr	r3, [r0]
 654 0020 8046     		mov	r8, r0
 655 0022 5D4A     		ldr	r2, .L55
 656 0024 DB68     		ldr	r3, [r3, #12]
 657 0026 9DF80840 		ldrb	r4, [sp, #8]	@ zero_extendqisi2
 658 002a 9342     		cmp	r3, r2
 659 002c 9DF80960 		ldrb	r6, [sp, #9]	@ zero_extendqisi2
 660 0030 40F09480 		bne	.L47
 661 0034 8020     		movs	r0, #128
 662              	.LVL33:
 663              	.L19:
 664              		.loc 25 405 23 view .LVU130
 665 0036 B8F80430 		ldrh	r3, [r8, #4]
 666              		.loc 25 405 33 view .LVU131
 667 003a 2344     		add	r3, r3, r4
 406:../../libDaisy/src/hid/disp/display.h ****            || Height() < (currentY_ + font.FontHeight))
 668              		.loc 25 406 12 view .LVU132
 669 003c 8342     		cmp	r3, r0
 670 003e 00F38380 		bgt	.L20
 671              		.loc 25 406 21 discriminator 2 view .LVU133
 672 0042 D8F80030 		ldr	r3, [r8]
 673 0046 554A     		ldr	r2, .L55+4
 674 0048 9B68     		ldr	r3, [r3, #8]
 675 004a 9342     		cmp	r3, r2
 676 004c 40F08880 		bne	.L48
 677              		.loc 25 406 21 view .LVU134
 678 0050 4020     		movs	r0, #64
 679              	.L21:
 680              		.loc 25 406 27 discriminator 2 view .LVU135
 681 0052 B8F80620 		ldrh	r2, [r8, #6]
 682              		.loc 25 406 37 discriminator 2 view .LVU136
 683 0056 9319     		adds	r3, r2, r6
 684              		.loc 25 406 27 discriminator 2 view .LVU137
 685 0058 0192     		str	r2, [sp, #4]
 686              		.loc 25 406 12 discriminator 2 view .LVU138
 687 005a 8342     		cmp	r3, r0
 688 005c 74DC     		bgt	.L20
 689              	.LVL34:
ARM GAS  /var/folders/hl/qgbwny5j0fd895c2c41bk3tw0000gp/T//ccX3fN6S.s 			page 62


 407:../../libDaisy/src/hid/disp/display.h ****         {
 408:../../libDaisy/src/hid/disp/display.h ****             // Not enough space on current line
 409:../../libDaisy/src/hid/disp/display.h ****             return 0;
 410:../../libDaisy/src/hid/disp/display.h ****         }
 411:../../libDaisy/src/hid/disp/display.h **** 
 412:../../libDaisy/src/hid/disp/display.h ****         // Use the font to write
 413:../../libDaisy/src/hid/disp/display.h ****         for(i = 0; i < font.FontHeight; i++)
 690              		.loc 25 413 22 is_stmt 1 view .LVU139
 691 005e 002E     		cmp	r6, #0
 692 0060 00F08980 		beq	.L22
 414:../../libDaisy/src/hid/disp/display.h ****         {
 415:../../libDaisy/src/hid/disp/display.h ****             b = font.data[(ch - 32) * font.FontHeight + i];
 693              		.loc 25 415 37 is_stmt 0 view .LVU140
 694 0064 06FB05F5 		mul	r5, r6, r5
 695 0068 6FF00040 		mvn	r0, #-2147483648
 696              		.loc 25 415 22 view .LVU141
 697 006c 039B     		ldr	r3, [sp, #12]
 698 006e 9646     		mov	lr, r2
 699 0070 2844     		add	r0, r0, r5
 700 0072 2E44     		add	r6, r6, r5
 416:../../libDaisy/src/hid/disp/display.h ****             for(j = 0; j < font.FontWidth; j++)
 417:../../libDaisy/src/hid/disp/display.h ****             {
 418:../../libDaisy/src/hid/disp/display.h ****                 if((b << j) & 0x8000)
 419:../../libDaisy/src/hid/disp/display.h ****                 {
 420:../../libDaisy/src/hid/disp/display.h ****                     ((ChildType*)(this))
 421:../../libDaisy/src/hid/disp/display.h ****                         ->ChildType::DrawPixel(
 422:../../libDaisy/src/hid/disp/display.h ****                             currentX_ + j, (currentY_ + i), on);
 423:../../libDaisy/src/hid/disp/display.h ****                 }
 424:../../libDaisy/src/hid/disp/display.h ****                 else
 425:../../libDaisy/src/hid/disp/display.h ****                 {
 426:../../libDaisy/src/hid/disp/display.h ****                     ((ChildType*)(this))
 427:../../libDaisy/src/hid/disp/display.h ****                         ->ChildType::DrawPixel(
 428:../../libDaisy/src/hid/disp/display.h ****                             currentX_ + j, (currentY_ + i), !on);
 429:../../libDaisy/src/hid/disp/display.h ****                 }
 430:../../libDaisy/src/hid/disp/display.h ****             }
 431:../../libDaisy/src/hid/disp/display.h ****         }
 432:../../libDaisy/src/hid/disp/display.h **** 
 433:../../libDaisy/src/hid/disp/display.h ****         // The current space is now taken
 434:../../libDaisy/src/hid/disp/display.h ****         SetCursor(currentX_ + font.FontWidth, currentY_);
 701              		.loc 25 434 19 view .LVU142
 702 0074 B8F804A0 		ldrh	r10, [r8, #4]
 703 0078 03EB4000 		add	r0, r3, r0, lsl #1
 704 007c 023B     		subs	r3, r3, #2
 705 007e 03EB460B 		add	fp, r3, r6, lsl #1
 706              	.LVL35:
 707              	.L25:
 415:../../libDaisy/src/hid/disp/display.h ****             for(j = 0; j < font.FontWidth; j++)
 708              		.loc 25 415 15 view .LVU143
 709 0082 30F8026F 		ldrh	r6, [r0, #2]!
 710              	.LVL36:
 416:../../libDaisy/src/hid/disp/display.h ****             for(j = 0; j < font.FontWidth; j++)
 711              		.loc 25 416 26 is_stmt 1 view .LVU144
 712 0086 BCB3     		cbz	r4, .L30
 713              	.LBB799:
 714              	.LBB800:
 715              	.LBB801:
 716              	.LBB802:
ARM GAS  /var/folders/hl/qgbwny5j0fd895c2c41bk3tw0000gp/T//ccX3fN6S.s 			page 63


 717              	.LBB803:
 259:../../libDaisy/src/dev/oled_ssd130x.h ****     }
 718              		.loc 23 259 55 is_stmt 0 view .LVU145
 719 0088 0EF00703 		and	r3, lr, #7
 259:../../libDaisy/src/dev/oled_ssd130x.h ****     }
 720              		.loc 23 259 49 view .LVU146
 721 008c 4FF0010C 		mov	ip, #1
 259:../../libDaisy/src/dev/oled_ssd130x.h ****     }
 722              		.loc 23 259 28 view .LVU147
 723 0090 4FEADE02 		lsr	r2, lr, #3
 724 0094 5146     		mov	r1, r10
 259:../../libDaisy/src/dev/oled_ssd130x.h ****     }
 725              		.loc 23 259 49 view .LVU148
 726 0096 0CFA03FC 		lsl	ip, ip, r3
 727 009a 0AF11403 		add	r3, r10, #20
 259:../../libDaisy/src/dev/oled_ssd130x.h ****     }
 728              		.loc 23 259 42 view .LVU149
 729 009e 4FFA8CFC 		sxtb	ip, ip
 730 00a2 03EBC212 		add	r2, r3, r2, lsl #7
 731              	.LBE803:
 732              	.LBE802:
 733              	.LBE801:
 734              	.LBE800:
 735              	.LBE799:
 416:../../libDaisy/src/hid/disp/display.h ****             for(j = 0; j < font.FontWidth; j++)
 736              		.loc 25 416 19 view .LVU150
 737 00a6 0023     		movs	r3, #0
 738              	.LBB821:
 739              	.LBB816:
 740              	.LBB811:
 741              	.LBB807:
 742              	.LBB804:
 259:../../libDaisy/src/dev/oled_ssd130x.h ****     }
 743              		.loc 23 259 42 view .LVU151
 744 00a8 6FEA0C09 		mvn	r9, ip
 745 00ac 4244     		add	r2, r2, r8
 746 00ae 0EE0     		b	.L31
 747              	.LVL37:
 748              	.L49:
 259:../../libDaisy/src/dev/oled_ssd130x.h ****     }
 749              		.loc 23 259 42 view .LVU152
 750              	.LBE804:
 751              	.LBE807:
 752              	.LBE811:
 753              	.LBE816:
 754              	.LBE821:
 755              	.LBB822:
 756              	.LBI822:
  42:../../libDaisy/src/hid/disp/oled_display.h ****     {
 757              		.loc 22 42 10 is_stmt 1 view .LVU153
 758              	.LBB823:
 759              	.LBI823:
 252:../../libDaisy/src/dev/oled_ssd130x.h ****     {
 760              		.loc 23 252 10 view .LVU154
 761              	.LBB824:
 254:../../libDaisy/src/dev/oled_ssd130x.h ****             return;
 762              		.loc 23 254 9 is_stmt 0 view .LVU155
ARM GAS  /var/folders/hl/qgbwny5j0fd895c2c41bk3tw0000gp/T//ccX3fN6S.s 			page 64


 763 00b0 7F29     		cmp	r1, #127
 764 00b2 07D8     		bhi	.L27
 765 00b4 BEF13F0F 		cmp	lr, #63
 766 00b8 04D8     		bhi	.L27
 257:../../libDaisy/src/dev/oled_ssd130x.h ****         else
 767              		.loc 23 257 42 view .LVU156
 768 00ba 1578     		ldrb	r5, [r2]	@ zero_extendqisi2
 256:../../libDaisy/src/dev/oled_ssd130x.h ****             buffer_[x + (y / 8) * width] |= (1 << (y % 8));
 769              		.loc 23 256 9 view .LVU157
 770 00bc 9FB1     		cbz	r7, .L29
 771              	.L46:
 256:../../libDaisy/src/dev/oled_ssd130x.h ****             buffer_[x + (y / 8) * width] |= (1 << (y % 8));
 772              		.loc 23 256 9 view .LVU158
 773              	.LBE824:
 774              	.LBE823:
 775              	.LBE822:
 776              	.LBB825:
 777              	.LBB817:
 778              	.LBB812:
 257:../../libDaisy/src/dev/oled_ssd130x.h ****         else
 779              		.loc 23 257 42 view .LVU159
 780 00be 4CEA0505 		orr	r5, ip, r5
 781 00c2 1570     		strb	r5, [r2]
 782              	.L27:
 783              	.LBE812:
 784              	.LBE817:
 785              	.LBE825:
 416:../../libDaisy/src/hid/disp/display.h ****             {
 786              		.loc 25 416 13 is_stmt 1 discriminator 2 view .LVU160
 787 00c4 0133     		adds	r3, r3, #1
 788              	.LVL38:
 416:../../libDaisy/src/hid/disp/display.h ****             {
 789              		.loc 25 416 26 discriminator 2 view .LVU161
 790 00c6 0132     		adds	r2, r2, #1
 791 00c8 0131     		adds	r1, r1, #1
 792 00ca 9C42     		cmp	r4, r3
 793 00cc 14D0     		beq	.L30
 794              	.LVL39:
 795              	.L31:
 418:../../libDaisy/src/hid/disp/display.h ****                 {
 796              		.loc 25 418 23 is_stmt 0 view .LVU162
 797 00ce 06FA03F5 		lsl	r5, r6, r3
 418:../../libDaisy/src/hid/disp/display.h ****                 {
 798              		.loc 25 418 17 view .LVU163
 799 00d2 2D04     		lsls	r5, r5, #16
 800 00d4 ECD4     		bmi	.L49
 801              	.LVL40:
 802              	.LBB826:
 803              	.LBI799:
  42:../../libDaisy/src/hid/disp/oled_display.h ****     {
 804              		.loc 22 42 10 is_stmt 1 view .LVU164
 805              	.LBB818:
 806              	.LBI800:
 252:../../libDaisy/src/dev/oled_ssd130x.h ****     {
 807              		.loc 23 252 10 view .LVU165
 808              	.LBB813:
 254:../../libDaisy/src/dev/oled_ssd130x.h ****             return;
ARM GAS  /var/folders/hl/qgbwny5j0fd895c2c41bk3tw0000gp/T//ccX3fN6S.s 			page 65


 809              		.loc 23 254 9 is_stmt 0 view .LVU166
 810 00d6 7F29     		cmp	r1, #127
 811 00d8 F4D8     		bhi	.L27
 812 00da BEF13F0F 		cmp	lr, #63
 813 00de F1D8     		bhi	.L27
 257:../../libDaisy/src/dev/oled_ssd130x.h ****         else
 814              		.loc 23 257 42 view .LVU167
 815 00e0 1578     		ldrb	r5, [r2]	@ zero_extendqisi2
 256:../../libDaisy/src/dev/oled_ssd130x.h ****             buffer_[x + (y / 8) * width] |= (1 << (y % 8));
 816              		.loc 23 256 9 view .LVU168
 817 00e2 002F     		cmp	r7, #0
 818 00e4 EBD0     		beq	.L46
 819              	.L29:
 820              	.LVL41:
 821              	.LBB808:
 822              	.LBI802:
 252:../../libDaisy/src/dev/oled_ssd130x.h ****     {
 823              		.loc 23 252 10 is_stmt 1 view .LVU169
 252:../../libDaisy/src/dev/oled_ssd130x.h ****     {
 824              		.loc 23 252 10 is_stmt 0 view .LVU170
 825              	.LBE808:
 826              	.LBE813:
 827              	.LBE818:
 828              	.LBE826:
 416:../../libDaisy/src/hid/disp/display.h ****             {
 829              		.loc 25 416 13 view .LVU171
 830 00e6 0133     		adds	r3, r3, #1
 831              	.LVL42:
 832              	.LBB827:
 833              	.LBB819:
 834              	.LBB814:
 835              	.LBB809:
 836              	.LBB805:
 259:../../libDaisy/src/dev/oled_ssd130x.h ****     }
 837              		.loc 23 259 42 view .LVU172
 838 00e8 09EA0505 		and	r5, r9, r5
 839              	.LBE805:
 840              	.LBE809:
 841              	.LBE814:
 842              	.LBE819:
 843              	.LBE827:
 416:../../libDaisy/src/hid/disp/display.h ****             {
 844              		.loc 25 416 26 view .LVU173
 845 00ec 0132     		adds	r2, r2, #1
 846 00ee 0131     		adds	r1, r1, #1
 847 00f0 9C42     		cmp	r4, r3
 848              	.LBB828:
 849              	.LBB820:
 850              	.LBB815:
 851              	.LBB810:
 852              	.LBB806:
 259:../../libDaisy/src/dev/oled_ssd130x.h ****     }
 853              		.loc 23 259 42 view .LVU174
 854 00f2 02F8015C 		strb	r5, [r2, #-1]
 259:../../libDaisy/src/dev/oled_ssd130x.h ****     }
 855              		.loc 23 259 42 view .LVU175
 856              	.LBE806:
ARM GAS  /var/folders/hl/qgbwny5j0fd895c2c41bk3tw0000gp/T//ccX3fN6S.s 			page 66


 857              	.LBE810:
 858              	.LBE815:
 859              	.LBE820:
 860              	.LBE828:
 416:../../libDaisy/src/hid/disp/display.h ****             {
 861              		.loc 25 416 13 is_stmt 1 view .LVU176
 862              	.LVL43:
 416:../../libDaisy/src/hid/disp/display.h ****             {
 863              		.loc 25 416 26 view .LVU177
 864 00f6 EAD1     		bne	.L31
 865              	.LVL44:
 866              	.L30:
 413:../../libDaisy/src/hid/disp/display.h ****         {
 867              		.loc 25 413 9 view .LVU178
 413:../../libDaisy/src/hid/disp/display.h ****         {
 868              		.loc 25 413 22 view .LVU179
 869 00f8 5845     		cmp	r0, fp
 870 00fa 0EF1010E 		add	lr, lr, #1
 871 00fe C0D1     		bne	.L25
 872              	.LVL45:
 873              	.L24:
 874              	.LBB829:
 875              	.LBB830:
 173:../../libDaisy/src/hid/disp/display.h ****         currentY_ = (y >= Height()) ? Height() - 1 : y;
 876              		.loc 25 173 33 is_stmt 0 view .LVU180
 877 0100 D8F80030 		ldr	r3, [r8]
 878              	.LBE830:
 879              	.LBE829:
 880              		.loc 25 434 18 view .LVU181
 881 0104 5444     		add	r4, r4, r10
 882 0106 2449     		ldr	r1, .L55
 883              	.LBB836:
 884              	.LBB831:
 173:../../libDaisy/src/hid/disp/display.h ****         currentY_ = (y >= Height()) ? Height() - 1 : y;
 885              		.loc 25 173 33 view .LVU182
 886 0108 DA68     		ldr	r2, [r3, #12]
 887              	.LBE831:
 888              	.LBE836:
 889              		.loc 25 434 18 view .LVU183
 890 010a A4B2     		uxth	r4, r4
 891              	.LVL46:
 892              	.LBB837:
 893              	.LBI829:
 171:../../libDaisy/src/hid/disp/display.h ****     {
 894              		.loc 25 171 10 is_stmt 1 view .LVU184
 895              	.LBB832:
 173:../../libDaisy/src/hid/disp/display.h ****         currentY_ = (y >= Height()) ? Height() - 1 : y;
 896              		.loc 25 173 9 view .LVU185
 897 010c 8A42     		cmp	r2, r1
 898 010e 2DD1     		bne	.L50
 173:../../libDaisy/src/hid/disp/display.h ****         currentY_ = (y >= Height()) ? Height() - 1 : y;
 899              		.loc 25 173 33 is_stmt 0 view .LVU186
 900 0110 8020     		movs	r0, #128
 901              	.L32:
 173:../../libDaisy/src/hid/disp/display.h ****         currentY_ = (y >= Height()) ? Height() - 1 : y;
 902              		.loc 25 173 19 view .LVU187
 903 0112 8442     		cmp	r4, r0
ARM GAS  /var/folders/hl/qgbwny5j0fd895c2c41bk3tw0000gp/T//ccX3fN6S.s 			page 67


 904 0114 1CD2     		bcs	.L51
 905              	.LVL47:
 906              	.L33:
 174:../../libDaisy/src/hid/disp/display.h ****     }
 907              		.loc 25 174 34 view .LVU188
 908 0116 9B68     		ldr	r3, [r3, #8]
 909 0118 204A     		ldr	r2, .L55+4
 173:../../libDaisy/src/hid/disp/display.h ****         currentY_ = (y >= Height()) ? Height() - 1 : y;
 910              		.loc 25 173 19 view .LVU189
 911 011a A8F80440 		strh	r4, [r8, #4]	@ movhi
 174:../../libDaisy/src/hid/disp/display.h ****     }
 912              		.loc 25 174 9 is_stmt 1 view .LVU190
 913 011e 9342     		cmp	r3, r2
 914 0120 21D1     		bne	.L52
 174:../../libDaisy/src/hid/disp/display.h ****     }
 915              		.loc 25 174 34 is_stmt 0 view .LVU191
 916 0122 4020     		movs	r0, #64
 917              	.L35:
 174:../../libDaisy/src/hid/disp/display.h ****     }
 918              		.loc 25 174 19 view .LVU192
 919 0124 019B     		ldr	r3, [sp, #4]
 920 0126 8342     		cmp	r3, r0
 921 0128 07D3     		bcc	.L36
 174:../../libDaisy/src/hid/disp/display.h ****     }
 922              		.loc 25 174 46 view .LVU193
 923 012a D8F80030 		ldr	r3, [r8]
 924 012e 1B4A     		ldr	r2, .L55+4
 925 0130 9B68     		ldr	r3, [r3, #8]
 926 0132 9342     		cmp	r3, r2
 927 0134 29D1     		bne	.L53
 928 0136 3F23     		movs	r3, #63
 929 0138 0193     		str	r3, [sp, #4]
 930              	.LVL48:
 931              	.L36:
 174:../../libDaisy/src/hid/disp/display.h ****     }
 932              		.loc 25 174 19 view .LVU194
 933 013a DDE90003 		ldrd	r0, r3, [sp]
 934 013e A8F80630 		strh	r3, [r8, #6]	@ movhi
 935              	.LVL49:
 174:../../libDaisy/src/hid/disp/display.h ****     }
 936              		.loc 25 174 19 view .LVU195
 937              	.LBE832:
 938              	.LBE837:
 435:../../libDaisy/src/hid/disp/display.h **** 
 436:../../libDaisy/src/hid/disp/display.h ****         // Return written char for validation
 437:../../libDaisy/src/hid/disp/display.h ****         return ch;
 438:../../libDaisy/src/hid/disp/display.h ****     }
 939              		.loc 25 438 5 view .LVU196
 940 0142 05B0     		add	sp, sp, #20
 941              		.cfi_remember_state
 942              		.cfi_def_cfa_offset 36
 943              		@ sp needed
 944 0144 BDE8F08F 		pop	{r4, r5, r6, r7, r8, r9, r10, fp, pc}
 945              	.LVL50:
 946              	.L20:
 947              		.cfi_restore_state
 402:../../libDaisy/src/hid/disp/display.h **** 
ARM GAS  /var/folders/hl/qgbwny5j0fd895c2c41bk3tw0000gp/T//ccX3fN6S.s 			page 68


 948              		.loc 25 402 20 view .LVU197
 949 0148 0020     		movs	r0, #0
 950              		.loc 25 438 5 view .LVU198
 951 014a 05B0     		add	sp, sp, #20
 952              		.cfi_remember_state
 953              		.cfi_def_cfa_offset 36
 954              		@ sp needed
 955 014c BDE8F08F 		pop	{r4, r5, r6, r7, r8, r9, r10, fp, pc}
 956              	.LVL51:
 957              	.L51:
 958              		.cfi_restore_state
 959              	.LBB838:
 960              	.LBB833:
 173:../../libDaisy/src/hid/disp/display.h ****         currentY_ = (y >= Height()) ? Height() - 1 : y;
 961              		.loc 25 173 44 view .LVU199
 962 0150 DA68     		ldr	r2, [r3, #12]
 963 0152 1149     		ldr	r1, .L55
 964 0154 8A42     		cmp	r2, r1
 965 0156 11D1     		bne	.L54
 966 0158 7F24     		movs	r4, #127
 967              	.LVL52:
 173:../../libDaisy/src/hid/disp/display.h ****         currentY_ = (y >= Height()) ? Height() - 1 : y;
 968              		.loc 25 173 44 view .LVU200
 969 015a DCE7     		b	.L33
 970              	.LVL53:
 971              	.L47:
 173:../../libDaisy/src/hid/disp/display.h ****         currentY_ = (y >= Height()) ? Height() - 1 : y;
 972              		.loc 25 173 44 view .LVU201
 973              	.LBE833:
 974              	.LBE838:
 405:../../libDaisy/src/hid/disp/display.h ****            || Height() < (currentY_ + font.FontHeight))
 975              		.loc 25 405 17 view .LVU202
 976 015c 9847     		blx	r3
 977              	.LVL54:
 405:../../libDaisy/src/hid/disp/display.h ****            || Height() < (currentY_ + font.FontHeight))
 978              		.loc 25 405 17 view .LVU203
 979 015e 6AE7     		b	.L19
 980              	.L48:
 406:../../libDaisy/src/hid/disp/display.h ****         {
 981              		.loc 25 406 21 discriminator 2 view .LVU204
 982 0160 4046     		mov	r0, r8
 983 0162 9847     		blx	r3
 984              	.LVL55:
 985 0164 75E7     		b	.L21
 986              	.LVL56:
 987              	.L52:
 988              	.LBB839:
 989              	.LBB834:
 174:../../libDaisy/src/hid/disp/display.h ****     }
 990              		.loc 25 174 33 view .LVU205
 991 0166 4046     		mov	r0, r8
 992 0168 9847     		blx	r3
 993              	.LVL57:
 994 016a DBE7     		b	.L35
 995              	.LVL58:
 996              	.L50:
 173:../../libDaisy/src/hid/disp/display.h ****         currentY_ = (y >= Height()) ? Height() - 1 : y;
ARM GAS  /var/folders/hl/qgbwny5j0fd895c2c41bk3tw0000gp/T//ccX3fN6S.s 			page 69


 997              		.loc 25 173 32 view .LVU206
 998 016c 4046     		mov	r0, r8
 999 016e 9047     		blx	r2
 1000              	.LVL59:
 173:../../libDaisy/src/hid/disp/display.h ****         currentY_ = (y >= Height()) ? Height() - 1 : y;
 1001              		.loc 25 173 44 view .LVU207
 1002 0170 D8F80030 		ldr	r3, [r8]
 1003 0174 CDE7     		b	.L32
 1004              	.LVL60:
 1005              	.L22:
 173:../../libDaisy/src/hid/disp/display.h ****         currentY_ = (y >= Height()) ? Height() - 1 : y;
 1006              		.loc 25 173 44 view .LVU208
 1007              	.LBE834:
 1008              	.LBE839:
 434:../../libDaisy/src/hid/disp/display.h **** 
 1009              		.loc 25 434 19 view .LVU209
 1010 0176 B8F804A0 		ldrh	r10, [r8, #4]
 1011 017a C1E7     		b	.L24
 1012              	.LVL61:
 1013              	.L54:
 1014              	.LBB840:
 1015              	.LBB835:
 173:../../libDaisy/src/hid/disp/display.h ****         currentY_ = (y >= Height()) ? Height() - 1 : y;
 1016              		.loc 25 173 43 view .LVU210
 1017 017c 4046     		mov	r0, r8
 1018 017e 9047     		blx	r2
 1019              	.LVL62:
 173:../../libDaisy/src/hid/disp/display.h ****         currentY_ = (y >= Height()) ? Height() - 1 : y;
 1020              		.loc 25 173 19 view .LVU211
 1021 0180 0138     		subs	r0, r0, #1
 174:../../libDaisy/src/hid/disp/display.h ****     }
 1022              		.loc 25 174 34 view .LVU212
 1023 0182 D8F80030 		ldr	r3, [r8]
 173:../../libDaisy/src/hid/disp/display.h ****         currentY_ = (y >= Height()) ? Height() - 1 : y;
 1024              		.loc 25 173 19 view .LVU213
 1025 0186 84B2     		uxth	r4, r0
 1026              	.LVL63:
 173:../../libDaisy/src/hid/disp/display.h ****         currentY_ = (y >= Height()) ? Height() - 1 : y;
 1027              		.loc 25 173 19 view .LVU214
 1028 0188 C5E7     		b	.L33
 1029              	.L53:
 174:../../libDaisy/src/hid/disp/display.h ****     }
 1030              		.loc 25 174 45 view .LVU215
 1031 018a 4046     		mov	r0, r8
 1032 018c 9847     		blx	r3
 1033              	.LVL64:
 174:../../libDaisy/src/hid/disp/display.h ****     }
 1034              		.loc 25 174 19 view .LVU216
 1035 018e 0138     		subs	r0, r0, #1
 1036 0190 83B2     		uxth	r3, r0
 1037 0192 0193     		str	r3, [sp, #4]
 1038              	.LVL65:
 174:../../libDaisy/src/hid/disp/display.h ****     }
 1039              		.loc 25 174 19 view .LVU217
 1040 0194 D1E7     		b	.L36
 1041              	.L56:
 1042 0196 00BF     		.align	2
ARM GAS  /var/folders/hl/qgbwny5j0fd895c2c41bk3tw0000gp/T//ccX3fN6S.s 			page 70


 1043              	.L55:
 1044 0198 00000000 		.word	_ZNK5daisy11OledDisplayINS_13SSD130xDriverILj128ELj64ENS_24SSD130x4WireSpiTransportEEEE5Widt
 1045 019c 00000000 		.word	_ZNK5daisy11OledDisplayINS_13SSD130xDriverILj128ELj64ENS_24SSD130x4WireSpiTransportEEEE6Heig
 1046              	.LBE835:
 1047              	.LBE840:
 1048              		.cfi_endproc
 1049              	.LFE5704:
 1051              		.section	.text._ZN5daisy11OledDisplayINS_13SSD130xDriverILj128ELj64ENS_24SSD130x4WireSpiTransportE
 1052              		.align	1
 1053              		.p2align 2,,3
 1054              		.weak	_ZN5daisy11OledDisplayINS_13SSD130xDriverILj128ELj64ENS_24SSD130x4WireSpiTransportEEEE9DrawP
 1055              		.syntax unified
 1056              		.thumb
 1057              		.thumb_func
 1058              		.fpu fpv5-d16
 1060              	_ZN5daisy11OledDisplayINS_13SSD130xDriverILj128ELj64ENS_24SSD130x4WireSpiTransportEEEE9DrawPixelEjj
 1061              	.LVL66:
 1062              	.LFB5703:
  42:../../libDaisy/src/hid/disp/oled_display.h ****     {
 1063              		.loc 22 42 10 is_stmt 1 view -0
 1064              		.cfi_startproc
 1065              		@ args = 0, pretend = 0, frame = 0
 1066              		@ frame_needed = 0, uses_anonymous_args = 0
 1067              		@ link register save eliminated.
 1068              	.LBB845:
 1069              	.LBI845:
 252:../../libDaisy/src/dev/oled_ssd130x.h ****     {
 1070              		.loc 23 252 10 view .LVU219
 1071              	.LBB846:
 254:../../libDaisy/src/dev/oled_ssd130x.h ****             return;
 1072              		.loc 23 254 9 is_stmt 0 view .LVU220
 1073 0000 7F29     		cmp	r1, #127
 1074 0002 1ED8     		bhi	.L57
 1075 0004 3F2A     		cmp	r2, #63
 1076 0006 1CD8     		bhi	.L57
 256:../../libDaisy/src/dev/oled_ssd130x.h ****             buffer_[x + (y / 8) * width] |= (1 << (y % 8));
 1077              		.loc 23 256 9 view .LVU221
 1078 0008 6BB1     		cbz	r3, .L59
 257:../../libDaisy/src/dev/oled_ssd130x.h ****         else
 1079              		.loc 23 257 28 view .LVU222
 1080 000a D308     		lsrs	r3, r2, #3
 1081              	.LVL67:
 257:../../libDaisy/src/dev/oled_ssd130x.h ****         else
 1082              		.loc 23 257 48 view .LVU223
 1083 000c 4FF0010C 		mov	ip, #1
 257:../../libDaisy/src/dev/oled_ssd130x.h ****         else
 1084              		.loc 23 257 54 view .LVU224
 1085 0010 02F00702 		and	r2, r2, #7
 1086              	.LVL68:
 257:../../libDaisy/src/dev/oled_ssd130x.h ****         else
 1087              		.loc 23 257 42 view .LVU225
 1088 0014 01EBC313 		add	r3, r1, r3, lsl #7
 257:../../libDaisy/src/dev/oled_ssd130x.h ****         else
 1089              		.loc 23 257 48 view .LVU226
 1090 0018 0CFA02F2 		lsl	r2, ip, r2
 257:../../libDaisy/src/dev/oled_ssd130x.h ****         else
 1091              		.loc 23 257 42 view .LVU227
ARM GAS  /var/folders/hl/qgbwny5j0fd895c2c41bk3tw0000gp/T//ccX3fN6S.s 			page 71


 1092 001c C118     		adds	r1, r0, r3
 1093              	.LVL69:
 257:../../libDaisy/src/dev/oled_ssd130x.h ****         else
 1094              		.loc 23 257 42 view .LVU228
 1095 001e 0B7D     		ldrb	r3, [r1, #20]	@ zero_extendqisi2
 1096 0020 1A43     		orrs	r2, r2, r3
 1097 0022 0A75     		strb	r2, [r1, #20]
 1098 0024 7047     		bx	lr
 1099              	.LVL70:
 1100              	.L59:
 1101              	.LBB847:
 1102              	.LBI847:
 252:../../libDaisy/src/dev/oled_ssd130x.h ****     {
 1103              		.loc 23 252 10 is_stmt 1 view .LVU229
 1104              	.LBB848:
 259:../../libDaisy/src/dev/oled_ssd130x.h ****     }
 1105              		.loc 23 259 28 is_stmt 0 view .LVU230
 1106 0026 D308     		lsrs	r3, r2, #3
 1107              	.LVL71:
 259:../../libDaisy/src/dev/oled_ssd130x.h ****     }
 1108              		.loc 23 259 49 view .LVU231
 1109 0028 4FF0010C 		mov	ip, #1
 259:../../libDaisy/src/dev/oled_ssd130x.h ****     }
 1110              		.loc 23 259 55 view .LVU232
 1111 002c 02F00702 		and	r2, r2, #7
 1112              	.LVL72:
 259:../../libDaisy/src/dev/oled_ssd130x.h ****     }
 1113              		.loc 23 259 42 view .LVU233
 1114 0030 01EBC313 		add	r3, r1, r3, lsl #7
 259:../../libDaisy/src/dev/oled_ssd130x.h ****     }
 1115              		.loc 23 259 49 view .LVU234
 1116 0034 0CFA02FC 		lsl	ip, ip, r2
 259:../../libDaisy/src/dev/oled_ssd130x.h ****     }
 1117              		.loc 23 259 42 view .LVU235
 1118 0038 C118     		adds	r1, r0, r3
 1119              	.LVL73:
 259:../../libDaisy/src/dev/oled_ssd130x.h ****     }
 1120              		.loc 23 259 42 view .LVU236
 1121 003a 0A7D     		ldrb	r2, [r1, #20]	@ zero_extendqisi2
 1122 003c 22EA0C02 		bic	r2, r2, ip
 1123 0040 0A75     		strb	r2, [r1, #20]
 1124              	.LVL74:
 1125              	.L57:
 259:../../libDaisy/src/dev/oled_ssd130x.h ****     }
 1126              		.loc 23 259 42 view .LVU237
 1127              	.LBE848:
 1128              	.LBE847:
 1129              	.LBE846:
 1130              	.LBE845:
  45:../../libDaisy/src/hid/disp/oled_display.h **** 
 1131              		.loc 22 45 5 view .LVU238
 1132 0042 7047     		bx	lr
 1133              		.cfi_endproc
 1134              	.LFE5703:
 1136              		.section	.text._ZN5daisy25OneBitGraphicsDisplayImplINS_11OledDisplayINS_13SSD130xDriverILj128ELj64
 1137              		.align	1
 1138              		.p2align 2,,3
ARM GAS  /var/folders/hl/qgbwny5j0fd895c2c41bk3tw0000gp/T//ccX3fN6S.s 			page 72


 1139              		.weak	_ZN5daisy25OneBitGraphicsDisplayImplINS_11OledDisplayINS_13SSD130xDriverILj128ELj64ENS_24SSD
 1140              		.syntax unified
 1141              		.thumb
 1142              		.thumb_func
 1143              		.fpu fpv5-d16
 1145              	_ZN5daisy25OneBitGraphicsDisplayImplINS_11OledDisplayINS_13SSD130xDriverILj128ELj64ENS_24SSD130x4Wi
 1146              	.LVL75:
 1147              	.LFB5545:
 221:../../libDaisy/src/hid/disp/display.h ****                   uint_fast8_t y1,
 1148              		.loc 25 221 10 is_stmt 1 view -0
 1149              		.cfi_startproc
 1150              		@ args = 8, pretend = 0, frame = 8
 1151              		@ frame_needed = 0, uses_anonymous_args = 0
 221:../../libDaisy/src/hid/disp/display.h ****                   uint_fast8_t y1,
 1152              		.loc 25 221 10 is_stmt 0 view .LVU240
 1153 0000 2DE9F04F 		push	{r4, r5, r6, r7, r8, r9, r10, fp, lr}
 1154              		.cfi_def_cfa_offset 36
 1155              		.cfi_offset 4, -36
 1156              		.cfi_offset 5, -32
 1157              		.cfi_offset 6, -28
 1158              		.cfi_offset 7, -24
 1159              		.cfi_offset 8, -20
 1160              		.cfi_offset 9, -16
 1161              		.cfi_offset 10, -12
 1162              		.cfi_offset 11, -8
 1163              		.cfi_offset 14, -4
 1164 0004 83B0     		sub	sp, sp, #12
 1165              		.cfi_def_cfa_offset 48
 227:../../libDaisy/src/hid/disp/display.h ****         int_fast16_t deltaY = abs((int_fast16_t)y2 - (int_fast16_t)y1);
 1166              		.loc 25 227 52 view .LVU241
 1167 0006 5C1A     		subs	r4, r3, r1
 221:../../libDaisy/src/hid/disp/display.h ****                   uint_fast8_t y1,
 1168              		.loc 25 221 10 view .LVU242
 1169 0008 0C9E     		ldr	r6, [sp, #48]
 227:../../libDaisy/src/hid/disp/display.h ****         int_fast16_t deltaY = abs((int_fast16_t)y2 - (int_fast16_t)y1);
 1170              		.loc 25 227 22 view .LVU243
 1171 000a 002C     		cmp	r4, #0
 221:../../libDaisy/src/hid/disp/display.h ****                   uint_fast8_t y1,
 1172              		.loc 25 221 10 view .LVU244
 1173 000c 9DF83490 		ldrb	r9, [sp, #52]	@ zero_extendqisi2
 228:../../libDaisy/src/hid/disp/display.h ****         int_fast16_t signX  = ((x1 < x2) ? 1 : -1);
 1174              		.loc 25 228 52 view .LVU245
 1175 0010 A6EB0208 		sub	r8, r6, r2
 227:../../libDaisy/src/hid/disp/display.h ****         int_fast16_t deltaY = abs((int_fast16_t)y2 - (int_fast16_t)y1);
 1176              		.loc 25 227 22 view .LVU246
 1177 0014 B8BF     		it	lt
 1178 0016 6442     		rsblt	r4, r4, #0
 1179              	.LVL76:
 228:../../libDaisy/src/hid/disp/display.h ****         int_fast16_t signX  = ((x1 < x2) ? 1 : -1);
 1180              		.loc 25 228 22 view .LVU247
 1181 0018 B8F1000F 		cmp	r8, #0
 1182 001c B8BF     		it	lt
 1183 001e C8F10008 		rsblt	r8, r8, #0
 1184              	.LVL77:
 229:../../libDaisy/src/hid/disp/display.h ****         int_fast16_t signY  = ((y1 < y2) ? 1 : -1);
 1185              		.loc 25 229 42 view .LVU248
 1186 0022 8B42     		cmp	r3, r1
ARM GAS  /var/folders/hl/qgbwny5j0fd895c2c41bk3tw0000gp/T//ccX3fN6S.s 			page 73


 1187 0024 8CBF     		ite	hi
 1188 0026 4FF0010A 		movhi	r10, #1
 1189 002a 4FF0FF3A 		movls	r10, #-1
 1190              	.LVL78:
 230:../../libDaisy/src/hid/disp/display.h ****         int_fast16_t error  = deltaX - deltaY;
 1191              		.loc 25 230 42 view .LVU249
 1192 002e 9642     		cmp	r6, r2
 231:../../libDaisy/src/hid/disp/display.h ****         int_fast16_t error2;
 1193              		.loc 25 231 22 view .LVU250
 1194 0030 A4EB080C 		sub	ip, r4, r8
 230:../../libDaisy/src/hid/disp/display.h ****         int_fast16_t error  = deltaX - deltaY;
 1195              		.loc 25 230 42 view .LVU251
 1196 0034 51D8     		bhi	.L62
 1197              	.LVL79:
 1198              	.LBB865:
 1199              	.LBI865:
  42:../../libDaisy/src/hid/disp/oled_display.h ****     {
 1200              		.loc 22 42 10 is_stmt 1 discriminator 4 view .LVU252
 1201              	.LBB866:
 1202              	.LBI866:
 252:../../libDaisy/src/dev/oled_ssd130x.h ****     {
 1203              		.loc 23 252 10 discriminator 4 view .LVU253
 1204              	.LBE866:
 1205              	.LBE865:
 230:../../libDaisy/src/hid/disp/display.h ****         int_fast16_t error  = deltaX - deltaY;
 1206              		.loc 25 230 42 is_stmt 0 discriminator 4 view .LVU254
 1207 0036 4FF0FF35 		mov	r5, #-1
 1208              	.LBB882:
 1209              	.LBB876:
 1210              	.LBB867:
 254:../../libDaisy/src/dev/oled_ssd130x.h ****             return;
 1211              		.loc 23 254 9 discriminator 4 view .LVU255
 1212 003a 7F2B     		cmp	r3, #127
 1213              	.LBE867:
 1214              	.LBE876:
 1215              	.LBE882:
 230:../../libDaisy/src/hid/disp/display.h ****         int_fast16_t error  = deltaX - deltaY;
 1216              		.loc 25 230 42 discriminator 4 view .LVU256
 1217 003c 0195     		str	r5, [sp, #4]
 1218              	.LBB883:
 1219              	.LBB877:
 1220              	.LBB872:
 254:../../libDaisy/src/dev/oled_ssd130x.h ****             return;
 1221              		.loc 23 254 9 discriminator 4 view .LVU257
 1222 003e 12D8     		bhi	.L63
 1223 0040 3F2E     		cmp	r6, #63
 1224 0042 10D8     		bhi	.L63
 1225              	.LVL80:
 1226              	.L74:
 257:../../libDaisy/src/dev/oled_ssd130x.h ****         else
 1227              		.loc 23 257 28 view .LVU258
 1228 0044 F508     		lsrs	r5, r6, #3
 257:../../libDaisy/src/dev/oled_ssd130x.h ****         else
 1229              		.loc 23 257 54 view .LVU259
 1230 0046 06F0070E 		and	lr, r6, #7
 257:../../libDaisy/src/dev/oled_ssd130x.h ****         else
 1231              		.loc 23 257 48 view .LVU260
ARM GAS  /var/folders/hl/qgbwny5j0fd895c2c41bk3tw0000gp/T//ccX3fN6S.s 			page 74


 1232 004a 0127     		movs	r7, #1
 257:../../libDaisy/src/dev/oled_ssd130x.h ****         else
 1233              		.loc 23 257 42 view .LVU261
 1234 004c 03EBC515 		add	r5, r3, r5, lsl #7
 1235 0050 0544     		add	r5, r5, r0
 256:../../libDaisy/src/dev/oled_ssd130x.h ****             buffer_[x + (y / 8) * width] |= (1 << (y % 8));
 1236              		.loc 23 256 9 view .LVU262
 1237 0052 B9F1000F 		cmp	r9, #0
 1238 0056 47D0     		beq	.L64
 257:../../libDaisy/src/dev/oled_ssd130x.h ****         else
 1239              		.loc 23 257 48 view .LVU263
 1240 0058 07FA0EF7 		lsl	r7, r7, lr
 257:../../libDaisy/src/dev/oled_ssd130x.h ****         else
 1241              		.loc 23 257 42 view .LVU264
 1242 005c 95F814E0 		ldrb	lr, [r5, #20]	@ zero_extendqisi2
 1243 0060 47EA0E07 		orr	r7, r7, lr
 1244 0064 2F75     		strb	r7, [r5, #20]
 1245              	.LVL81:
 1246              	.L63:
 257:../../libDaisy/src/dev/oled_ssd130x.h ****         else
 1247              		.loc 23 257 42 view .LVU265
 1248              	.LBE872:
 1249              	.LBE877:
 1250              	.LBE883:
 239:../../libDaisy/src/hid/disp/display.h ****         {
 1251              		.loc 25 239 26 is_stmt 1 view .LVU266
 1252 0066 9642     		cmp	r6, r2
 1253 0068 01D1     		bne	.L67
 1254              	.L86:
 239:../../libDaisy/src/hid/disp/display.h ****         {
 1255              		.loc 25 239 26 is_stmt 0 view .LVU267
 1256 006a 8B42     		cmp	r3, r1
 1257 006c 29D0     		beq	.L60
 1258              	.L67:
 1259              	.LVL82:
 243:../../libDaisy/src/hid/disp/display.h ****             {
 1260              		.loc 25 243 23 view .LVU268
 1261 006e C8F10007 		rsb	r7, r8, #0
 1262              	.L69:
 1263              	.LVL83:
 1264              	.LBB884:
 1265              	.LBI884:
  42:../../libDaisy/src/hid/disp/oled_display.h ****     {
 1266              		.loc 22 42 10 is_stmt 1 view .LVU269
 1267              	.LBB885:
 1268              	.LBI885:
 252:../../libDaisy/src/dev/oled_ssd130x.h ****     {
 1269              		.loc 23 252 10 view .LVU270
 1270              	.LBB886:
 254:../../libDaisy/src/dev/oled_ssd130x.h ****             return;
 1271              		.loc 23 254 9 is_stmt 0 view .LVU271
 1272 0072 7F29     		cmp	r1, #127
 1273 0074 14D8     		bhi	.L70
 1274 0076 3F2A     		cmp	r2, #63
 1275 0078 12D8     		bhi	.L70
 257:../../libDaisy/src/dev/oled_ssd130x.h ****         else
 1276              		.loc 23 257 28 view .LVU272
ARM GAS  /var/folders/hl/qgbwny5j0fd895c2c41bk3tw0000gp/T//ccX3fN6S.s 			page 75


 1277 007a D508     		lsrs	r5, r2, #3
 257:../../libDaisy/src/dev/oled_ssd130x.h ****         else
 1278              		.loc 23 257 54 view .LVU273
 1279 007c 02F0070B 		and	fp, r2, #7
 257:../../libDaisy/src/dev/oled_ssd130x.h ****         else
 1280              		.loc 23 257 48 view .LVU274
 1281 0080 4FF0010E 		mov	lr, #1
 257:../../libDaisy/src/dev/oled_ssd130x.h ****         else
 1282              		.loc 23 257 42 view .LVU275
 1283 0084 01EBC515 		add	r5, r1, r5, lsl #7
 1284 0088 0544     		add	r5, r5, r0
 256:../../libDaisy/src/dev/oled_ssd130x.h ****             buffer_[x + (y / 8) * width] |= (1 << (y % 8));
 1285              		.loc 23 256 9 view .LVU276
 1286 008a B9F1000F 		cmp	r9, #0
 1287 008e 1BD0     		beq	.L71
 257:../../libDaisy/src/dev/oled_ssd130x.h ****         else
 1288              		.loc 23 257 48 view .LVU277
 1289 0090 0EFA0BFE 		lsl	lr, lr, fp
 257:../../libDaisy/src/dev/oled_ssd130x.h ****         else
 1290              		.loc 23 257 42 view .LVU278
 1291 0094 95F814B0 		ldrb	fp, [r5, #20]	@ zero_extendqisi2
 1292 0098 4EEA0B0E 		orr	lr, lr, fp
 1293 009c 85F814E0 		strb	lr, [r5, #20]
 1294              	.L70:
 1295              	.LVL84:
 257:../../libDaisy/src/dev/oled_ssd130x.h ****         else
 1296              		.loc 23 257 42 view .LVU279
 1297              	.LBE886:
 1298              	.LBE885:
 1299              	.LBE884:
 243:../../libDaisy/src/hid/disp/display.h ****             {
 1300              		.loc 25 243 13 view .LVU280
 1301 00a0 B7EB4C0F 		cmp	r7, ip, lsl #1
