ARM GAS  C:\Users\daniel\AppData\Local\Temp\ccvfs2Lg.s 			page 1


   1              		.cpu cortex-m7
   2              		.eabi_attribute 28, 1
   3              		.eabi_attribute 20, 1
   4              		.eabi_attribute 21, 1
   5              		.eabi_attribute 23, 3
   6              		.eabi_attribute 24, 1
   7              		.eabi_attribute 25, 1
   8              		.eabi_attribute 26, 1
   9              		.eabi_attribute 30, 4
  10              		.eabi_attribute 34, 1
  11              		.eabi_attribute 18, 4
  12              		.file	"phase_vocoder.cpp"
  13              		.text
  14              	.Ltext0:
  15              		.cfi_sections	.debug_frame
  16              		.section	.text._ZN12PhaseVocoder4InitEPPvPjPKfjllf,"ax",%progbits
  17              		.align	1
  18              		.global	_ZN12PhaseVocoder4InitEPPvPjPKfjllf
  19              		.arch armv7e-m
  20              		.syntax unified
  21              		.thumb
  22              		.thumb_func
  23              		.fpu fpv5-d16
  25              	_ZN12PhaseVocoder4InitEPPvPjPKfjllf:
  26              	.LVL0:
  27              	.LFB4857:
  28              		.file 1 "dsp/pvoc/phase_vocoder.cpp"
   1:dsp/pvoc/phase_vocoder.cpp **** // Copyright 2014 Emilie Gillet.
   2:dsp/pvoc/phase_vocoder.cpp **** //
   3:dsp/pvoc/phase_vocoder.cpp **** // Author: Emilie Gillet (emilie.o.gillet@gmail.com)
   4:dsp/pvoc/phase_vocoder.cpp **** //
   5:dsp/pvoc/phase_vocoder.cpp **** // Permission is hereby granted, free of charge, to any person obtaining a copy
   6:dsp/pvoc/phase_vocoder.cpp **** // of this software and associated documentation files (the "Software"), to deal
   7:dsp/pvoc/phase_vocoder.cpp **** // in the Software without restriction, including without limitation the rights
   8:dsp/pvoc/phase_vocoder.cpp **** // to use, copy, modify, merge, publish, distribute, sublicense, and/or sell
   9:dsp/pvoc/phase_vocoder.cpp **** // copies of the Software, and to permit persons to whom the Software is
  10:dsp/pvoc/phase_vocoder.cpp **** // furnished to do so, subject to the following conditions:
  11:dsp/pvoc/phase_vocoder.cpp **** //
  12:dsp/pvoc/phase_vocoder.cpp **** // The above copyright notice and this permission notice shall be included in
  13:dsp/pvoc/phase_vocoder.cpp **** // all copies or substantial portions of the Software.
  14:dsp/pvoc/phase_vocoder.cpp **** //
  15:dsp/pvoc/phase_vocoder.cpp **** // THE SOFTWARE IS PROVIDED "AS IS", WITHOUT WARRANTY OF ANY KIND, EXPRESS OR
  16:dsp/pvoc/phase_vocoder.cpp **** // IMPLIED, INCLUDING BUT NOT LIMITED TO THE WARRANTIES OF MERCHANTABILITY,
  17:dsp/pvoc/phase_vocoder.cpp **** // FITNESS FOR A PARTICULAR PURPOSE AND NONINFRINGEMENT. IN NO EVENT SHALL THE
  18:dsp/pvoc/phase_vocoder.cpp **** // AUTHORS OR COPYRIGHT HOLDERS BE LIABLE FOR ANY CLAIM, DAMAGES OR OTHER
  19:dsp/pvoc/phase_vocoder.cpp **** // LIABILITY, WHETHER IN AN ACTION OF CONTRACT, TORT OR OTHERWISE, ARISING FROM,
  20:dsp/pvoc/phase_vocoder.cpp **** // OUT OF OR IN CONNECTION WITH THE SOFTWARE OR THE USE OR OTHER DEALINGS IN
  21:dsp/pvoc/phase_vocoder.cpp **** // THE SOFTWARE.
  22:dsp/pvoc/phase_vocoder.cpp **** //
  23:dsp/pvoc/phase_vocoder.cpp **** // See http://creativecommons.org/licenses/MIT/ for more information.
  24:dsp/pvoc/phase_vocoder.cpp **** //
  25:dsp/pvoc/phase_vocoder.cpp **** // -----------------------------------------------------------------------------
  26:dsp/pvoc/phase_vocoder.cpp **** //
  27:dsp/pvoc/phase_vocoder.cpp **** // Naive phase vocoder.
  28:dsp/pvoc/phase_vocoder.cpp **** 
  29:dsp/pvoc/phase_vocoder.cpp **** #include "phase_vocoder.h"
  30:dsp/pvoc/phase_vocoder.cpp **** 
ARM GAS  C:\Users\daniel\AppData\Local\Temp\ccvfs2Lg.s 			page 2


  31:dsp/pvoc/phase_vocoder.cpp **** #include <algorithm>
  32:dsp/pvoc/phase_vocoder.cpp **** 
  33:dsp/pvoc/phase_vocoder.cpp **** #include "buffer_allocator.h"
  34:dsp/pvoc/phase_vocoder.cpp **** 
  35:dsp/pvoc/phase_vocoder.cpp **** using namespace daisysp;
  36:dsp/pvoc/phase_vocoder.cpp **** 
  37:dsp/pvoc/phase_vocoder.cpp **** using namespace std;
  38:dsp/pvoc/phase_vocoder.cpp **** using namespace daisy;
  39:dsp/pvoc/phase_vocoder.cpp **** 
  40:dsp/pvoc/phase_vocoder.cpp **** void PhaseVocoder::Init(void**       buffer,
  41:dsp/pvoc/phase_vocoder.cpp ****                         size_t*      buffer_size,
  42:dsp/pvoc/phase_vocoder.cpp ****                         const float* large_window_lut,
  43:dsp/pvoc/phase_vocoder.cpp ****                         size_t       largest_fft_size,
  44:dsp/pvoc/phase_vocoder.cpp ****                         int32_t      num_channels,
  45:dsp/pvoc/phase_vocoder.cpp ****                         int32_t      resolution,
  46:dsp/pvoc/phase_vocoder.cpp ****                         float        sample_rate)
  47:dsp/pvoc/phase_vocoder.cpp **** {
  29              		.loc 1 47 1 view -0
  30              		.cfi_startproc
  31              		@ args = 12, pretend = 0, frame = 64
  32              		@ frame_needed = 0, uses_anonymous_args = 0
  48:dsp/pvoc/phase_vocoder.cpp ****     num_channels_ = num_channels;
  33              		.loc 1 48 5 view .LVU1
  47:dsp/pvoc/phase_vocoder.cpp ****     num_channels_ = num_channels;
  34              		.loc 1 47 1 is_stmt 0 view .LVU2
  35 0000 2DE9F04F 		push	{r4, r5, r6, r7, r8, r9, r10, fp, lr}
  36              		.cfi_def_cfa_offset 36
  37              		.cfi_offset 4, -36
  38              		.cfi_offset 5, -32
  39              		.cfi_offset 6, -28
  40              		.cfi_offset 7, -24
  41              		.cfi_offset 8, -20
  42              		.cfi_offset 9, -16
  43              		.cfi_offset 10, -12
  44              		.cfi_offset 11, -8
  45              		.cfi_offset 14, -4
  46 0004 97B0     		sub	sp, sp, #92
  47              		.cfi_def_cfa_offset 128
  47:dsp/pvoc/phase_vocoder.cpp ****     num_channels_ = num_channels;
  48              		.loc 1 47 1 view .LVU3
  49 0006 0546     		mov	r5, r0
  49:dsp/pvoc/phase_vocoder.cpp **** 
  50:dsp/pvoc/phase_vocoder.cpp ****     size_t fft_size  = largest_fft_size;
  51:dsp/pvoc/phase_vocoder.cpp ****     size_t hop_ratio = 4;
  52:dsp/pvoc/phase_vocoder.cpp **** 
  53:dsp/pvoc/phase_vocoder.cpp ****     BufferAllocator  allocator_0(buffer[0], buffer_size[0]);
  50              		.loc 1 53 59 view .LVU4
  51 0008 0E68     		ldr	r6, [r1]
  54:dsp/pvoc/phase_vocoder.cpp ****     BufferAllocator  allocator_1(buffer[1], buffer_size[1]);
  55:dsp/pvoc/phase_vocoder.cpp ****     BufferAllocator* allocator[2] = {&allocator_0, &allocator_1};
  56:dsp/pvoc/phase_vocoder.cpp ****     float*           fft_buffer   = allocator[0]->Allocate<float>(fft_size);
  57:dsp/pvoc/phase_vocoder.cpp ****     float*           ifft_buffer
  58:dsp/pvoc/phase_vocoder.cpp ****         = allocator[num_channels_ - 1]->Allocate<float>(fft_size);
  59:dsp/pvoc/phase_vocoder.cpp **** 
  60:dsp/pvoc/phase_vocoder.cpp ****     size_t num_textures = kMaxNumTextures;
  52              		.loc 1 60 12 view .LVU5
  53 000a 4FF00709 		mov	r9, #7
ARM GAS  C:\Users\daniel\AppData\Local\Temp\ccvfs2Lg.s 			page 3


  47:dsp/pvoc/phase_vocoder.cpp ****     num_channels_ = num_channels;
  54              		.loc 1 47 1 view .LVU6
  55 000e 0993     		str	r3, [sp, #36]
  56 0010 05F1FC08 		add	r8, r5, #252
  53:dsp/pvoc/phase_vocoder.cpp ****     BufferAllocator  allocator_1(buffer[1], buffer_size[1]);
  57              		.loc 1 53 59 view .LVU7
  58 0014 1368     		ldr	r3, [r2]
  59              	.LVL1:
  60              	.LBB75:
  61:dsp/pvoc/phase_vocoder.cpp ****     size_t texture_size = (fft_size >> 1) - kHighFrequencyTruncation;
  62:dsp/pvoc/phase_vocoder.cpp ****     for(int32_t i = 0; i < num_channels_; ++i)
  61              		.loc 1 62 17 view .LVU8
  62 0016 4FF0000A 		mov	r10, #0
  63              	.LBE75:
  54:dsp/pvoc/phase_vocoder.cpp ****     BufferAllocator* allocator[2] = {&allocator_0, &allocator_1};
  64              		.loc 1 54 59 view .LVU9
  65 001a 5268     		ldr	r2, [r2, #4]
  66              	.LVL2:
  67              	.LBB99:
  68              	.LBB76:
  63:dsp/pvoc/phase_vocoder.cpp ****     {
  64:dsp/pvoc/phase_vocoder.cpp ****         short* ana_syn_buffer
  65:dsp/pvoc/phase_vocoder.cpp ****             = allocator[i]->Allocate<short>((fft_size + (fft_size >> 1)) * 2);
  66:dsp/pvoc/phase_vocoder.cpp **** 
  67:dsp/pvoc/phase_vocoder.cpp ****         num_textures
  68:dsp/pvoc/phase_vocoder.cpp ****             = min(allocator[i]->free() / (sizeof(float) * texture_size),
  69:dsp/pvoc/phase_vocoder.cpp ****                   num_textures);
  70:dsp/pvoc/phase_vocoder.cpp ****         stft_[i].Init(&fft_,
  69              		.loc 1 70 22 view .LVU10
  70 001c C346     		mov	fp, r8
  71              	.LBE76:
  72              	.LBE99:
  73              	.LBB100:
  74              	.LBB101:
  75              	.LBB102:
  76              	.LBB103:
  77              	.LBB104:
  78              	.LBB105:
  79              		.file 2 "./buffer_allocator.h"
   1:./buffer_allocator.h **** // Copyright 2014 Emilie Gillet.
   2:./buffer_allocator.h **** //
   3:./buffer_allocator.h **** // Author: Emilie Gillet (emilie.o.gillet@gmail.com)
   4:./buffer_allocator.h **** //
   5:./buffer_allocator.h **** // Permission is hereby granted, free of charge, to any person obtaining a copy
   6:./buffer_allocator.h **** // of this software and associated documentation files (the "Software"), to deal
   7:./buffer_allocator.h **** // in the Software without restriction, including without limitation the rights
   8:./buffer_allocator.h **** // to use, copy, modify, merge, publish, distribute, sublicense, and/or sell
   9:./buffer_allocator.h **** // copies of the Software, and to permit persons to whom the Software is
  10:./buffer_allocator.h **** // furnished to do so, subject to the following conditions:
  11:./buffer_allocator.h **** //
  12:./buffer_allocator.h **** // The above copyright notice and this permission notice shall be included in
  13:./buffer_allocator.h **** // all copies or substantial portions of the Software.
  14:./buffer_allocator.h **** //
  15:./buffer_allocator.h **** // THE SOFTWARE IS PROVIDED "AS IS", WITHOUT WARRANTY OF ANY KIND, EXPRESS OR
  16:./buffer_allocator.h **** // IMPLIED, INCLUDING BUT NOT LIMITED TO THE WARRANTIES OF MERCHANTABILITY,
  17:./buffer_allocator.h **** // FITNESS FOR A PARTICULAR PURPOSE AND NONINFRINGEMENT. IN NO EVENT SHALL THE
  18:./buffer_allocator.h **** // AUTHORS OR COPYRIGHT HOLDERS BE LIABLE FOR ANY CLAIM, DAMAGES OR OTHER
ARM GAS  C:\Users\daniel\AppData\Local\Temp\ccvfs2Lg.s 			page 4


  19:./buffer_allocator.h **** // LIABILITY, WHETHER IN AN ACTION OF CONTRACT, TORT OR OTHERWISE, ARISING FROM,
  20:./buffer_allocator.h **** // OUT OF OR IN CONNECTION WITH THE SOFTWARE OR THE USE OR OTHER DEALINGS IN
  21:./buffer_allocator.h **** // THE SOFTWARE.
  22:./buffer_allocator.h **** //
  23:./buffer_allocator.h **** // See http://creativecommons.org/licenses/MIT/ for more information.
  24:./buffer_allocator.h **** //
  25:./buffer_allocator.h **** // -----------------------------------------------------------------------------
  26:./buffer_allocator.h **** //
  27:./buffer_allocator.h **** // Stream buffer for serialization.
  28:./buffer_allocator.h **** 
  29:./buffer_allocator.h **** #ifndef STMLIB_UTILS_BUFFER_ALLOCATOR_H_
  30:./buffer_allocator.h **** #define STMLIB_UTILS_BUFFER_ALLOCATOR_H_
  31:./buffer_allocator.h **** 
  32:./buffer_allocator.h **** #include <stddef.h>
  33:./buffer_allocator.h **** #include <stdint.h>
  34:./buffer_allocator.h **** 
  35:./buffer_allocator.h **** class BufferAllocator
  36:./buffer_allocator.h **** {
  37:./buffer_allocator.h ****   public:
  38:./buffer_allocator.h ****     BufferAllocator() {}
  39:./buffer_allocator.h ****     ~BufferAllocator() {}
  40:./buffer_allocator.h **** 
  41:./buffer_allocator.h ****     BufferAllocator(void* buffer, size_t size) { Init(buffer, size); }
  42:./buffer_allocator.h **** 
  43:./buffer_allocator.h ****     inline void Init(void* buffer, size_t size)
  44:./buffer_allocator.h ****     {
  45:./buffer_allocator.h ****         buffer_ = static_cast<uint8_t*>(buffer);
  46:./buffer_allocator.h ****         size_   = size;
  47:./buffer_allocator.h ****         Free();
  48:./buffer_allocator.h ****     }
  49:./buffer_allocator.h **** 
  50:./buffer_allocator.h ****     template <typename T>
  51:./buffer_allocator.h ****     inline T* Allocate(size_t size)
  52:./buffer_allocator.h ****     {
  53:./buffer_allocator.h ****         size_t size_bytes = sizeof(T) * size;
  54:./buffer_allocator.h ****         if(size_bytes <= free_)
  55:./buffer_allocator.h ****         {
  56:./buffer_allocator.h ****             T* start = static_cast<T*>(static_cast<void*>(next_));
  57:./buffer_allocator.h ****             next_ += size_bytes;
  58:./buffer_allocator.h ****             free_ -= size_bytes;
  59:./buffer_allocator.h ****             return start;
  60:./buffer_allocator.h ****         }
  61:./buffer_allocator.h ****         else
  62:./buffer_allocator.h ****         {
  63:./buffer_allocator.h ****             return NULL;
  64:./buffer_allocator.h ****         }
  65:./buffer_allocator.h ****     }
  66:./buffer_allocator.h **** 
  67:./buffer_allocator.h ****     inline void Free()
  68:./buffer_allocator.h ****     {
  69:./buffer_allocator.h ****         next_ = buffer_;
  70:./buffer_allocator.h ****         free_ = size_;
  80              		.loc 2 70 15 view .LVU11
  81 001e 1093     		str	r3, [sp, #64]
  82              	.LBE105:
  83              	.LBE104:
  84              	.LBE103:
ARM GAS  C:\Users\daniel\AppData\Local\Temp\ccvfs2Lg.s 			page 5


  85              	.LBE102:
  86              	.LBE101:
  87              	.LBE100:
  88              	.LBB119:
  89              	.LBB120:
  90              	.LBB121:
  91              	.LBB122:
  92              	.LBB123:
  93              	.LBB124:
  94 0020 1492     		str	r2, [sp, #80]
  95              	.LBE124:
  96              	.LBE123:
  46:./buffer_allocator.h ****         Free();
  97              		.loc 2 46 17 view .LVU12
  98 0022 1592     		str	r2, [sp, #84]
  99              	.LBE122:
 100              	.LBE121:
 101              	.LBE120:
 102              	.LBE119:
  55:dsp/pvoc/phase_vocoder.cpp ****     float*           fft_buffer   = allocator[0]->Allocate<float>(fft_size);
 103              		.loc 1 55 64 view .LVU13
 104 0024 0EAA     		add	r2, sp, #56
 105              	.LBB135:
 106              	.LBB116:
 107              	.LBB113:
 108              	.LBB110:
  46:./buffer_allocator.h ****         Free();
 109              		.loc 2 46 17 view .LVU14
 110 0026 1193     		str	r3, [sp, #68]
 111              	.LBE110:
 112              	.LBE113:
 113              	.LBE116:
 114              	.LBE135:
  55:dsp/pvoc/phase_vocoder.cpp ****     float*           fft_buffer   = allocator[0]->Allocate<float>(fft_size);
 115              		.loc 1 55 64 view .LVU15
 116 0028 0C92     		str	r2, [sp, #48]
 117 002a 12AA     		add	r2, sp, #72
  54:dsp/pvoc/phase_vocoder.cpp ****     BufferAllocator* allocator[2] = {&allocator_0, &allocator_1};
 118              		.loc 1 54 59 view .LVU16
 119 002c 4968     		ldr	r1, [r1, #4]
 120              	.LVL3:
  55:dsp/pvoc/phase_vocoder.cpp ****     float*           fft_buffer   = allocator[0]->Allocate<float>(fft_size);
 121              		.loc 1 55 64 view .LVU17
 122 002e 0D92     		str	r2, [sp, #52]
 123              	.LBB136:
 124              	.LBB133:
 125              	.LBB131:
 126              	.LBB129:
 127              	.LBB127:
 128              	.LBB125:
  69:./buffer_allocator.h ****         free_ = size_;
 129              		.loc 2 69 15 view .LVU18
 130 0030 1291     		str	r1, [sp, #72]
 131              	.LBE125:
 132              	.LBE127:
  45:./buffer_allocator.h ****         size_   = size;
 133              		.loc 2 45 17 view .LVU19
ARM GAS  C:\Users\daniel\AppData\Local\Temp\ccvfs2Lg.s 			page 6


 134 0032 1391     		str	r1, [sp, #76]
 135              	.LBE129:
 136              	.LBE131:
 137              	.LBE133:
 138              	.LBE136:
 139              	.LBB137:
 140              	.LBB117:
 141              	.LBB114:
 142              	.LBB111:
 143              	.LBB108:
 144              	.LBB106:
  69:./buffer_allocator.h ****         free_ = size_;
 145              		.loc 2 69 15 view .LVU20
 146 0034 0E96     		str	r6, [sp, #56]
 147              	.LBE106:
 148              	.LBE108:
  45:./buffer_allocator.h ****         size_   = size;
 149              		.loc 2 45 17 view .LVU21
 150 0036 0F96     		str	r6, [sp, #60]
 151              	.LBE111:
 152              	.LBE114:
 153              	.LBE117:
 154              	.LBE137:
  47:dsp/pvoc/phase_vocoder.cpp ****     num_channels_ = num_channels;
 155              		.loc 1 47 1 view .LVU22
 156 0038 DDE92040 		ldrd	r4, r0, [sp, #128]
 157              	.LVL4:
 158              	.LBB138:
 159              	.LBB139:
 160              	.LBB140:
  54:./buffer_allocator.h ****         {
 161              		.loc 2 54 9 view .LVU23
 162 003c B3EB840F 		cmp	r3, r4, lsl #2
 163              	.LBE140:
 164              	.LBE139:
 165              	.LBE138:
  48:dsp/pvoc/phase_vocoder.cpp **** 
 166              		.loc 1 48 19 view .LVU24
 167 0040 C5F86401 		str	r0, [r5, #356]
  50:dsp/pvoc/phase_vocoder.cpp ****     size_t hop_ratio = 4;
 168              		.loc 1 50 5 is_stmt 1 view .LVU25
 169              	.LVL5:
  51:dsp/pvoc/phase_vocoder.cpp **** 
 170              		.loc 1 51 5 view .LVU26
  53:dsp/pvoc/phase_vocoder.cpp ****     BufferAllocator  allocator_1(buffer[1], buffer_size[1]);
 171              		.loc 1 53 5 view .LVU27
 172              	.LBB152:
 173              	.LBI100:
  41:./buffer_allocator.h **** 
 174              		.loc 2 41 5 view .LVU28
 175              	.LBE152:
  41:./buffer_allocator.h **** 
 176              		.loc 2 41 50 view .LVU29
 177              	.LBB153:
 178              	.LBB118:
 179              	.LBB115:
 180              	.LBI102:
ARM GAS  C:\Users\daniel\AppData\Local\Temp\ccvfs2Lg.s 			page 7


  43:./buffer_allocator.h ****     {
 181              		.loc 2 43 17 view .LVU30
 182              	.LBB112:
  45:./buffer_allocator.h ****         size_   = size;
 183              		.loc 2 45 9 view .LVU31
  46:./buffer_allocator.h ****         Free();
 184              		.loc 2 46 9 view .LVU32
  47:./buffer_allocator.h ****     }
 185              		.loc 2 47 9 view .LVU33
 186              	.LBB109:
 187              	.LBI104:
  67:./buffer_allocator.h ****     {
 188              		.loc 2 67 17 view .LVU34
 189              	.LBB107:
  69:./buffer_allocator.h ****         free_ = size_;
 190              		.loc 2 69 9 view .LVU35
 191              		.loc 2 70 9 view .LVU36
 192              		.loc 2 70 9 is_stmt 0 view .LVU37
 193              	.LBE107:
 194              	.LBE109:
 195              	.LBE112:
 196              	.LBE115:
 197              	.LBE118:
 198              	.LBE153:
  54:dsp/pvoc/phase_vocoder.cpp ****     BufferAllocator* allocator[2] = {&allocator_0, &allocator_1};
 199              		.loc 1 54 5 is_stmt 1 view .LVU38
 200              	.LBB154:
 201              	.LBI119:
  41:./buffer_allocator.h **** 
 202              		.loc 2 41 5 view .LVU39
 203              	.LBE154:
  41:./buffer_allocator.h **** 
 204              		.loc 2 41 50 view .LVU40
 205              	.LBB155:
 206              	.LBB134:
 207              	.LBB132:
 208              	.LBI121:
  43:./buffer_allocator.h ****     {
 209              		.loc 2 43 17 view .LVU41
 210              	.LBB130:
  45:./buffer_allocator.h ****         size_   = size;
 211              		.loc 2 45 9 view .LVU42
  46:./buffer_allocator.h ****         Free();
 212              		.loc 2 46 9 view .LVU43
  47:./buffer_allocator.h ****     }
 213              		.loc 2 47 9 view .LVU44
 214              	.LBB128:
 215              	.LBI123:
  67:./buffer_allocator.h ****     {
 216              		.loc 2 67 17 view .LVU45
 217              	.LBB126:
  69:./buffer_allocator.h ****         free_ = size_;
 218              		.loc 2 69 9 view .LVU46
 219              		.loc 2 70 9 view .LVU47
 220              		.loc 2 70 9 is_stmt 0 view .LVU48
 221              	.LBE126:
 222              	.LBE128:
ARM GAS  C:\Users\daniel\AppData\Local\Temp\ccvfs2Lg.s 			page 8


 223              	.LBE130:
 224              	.LBE132:
 225              	.LBE134:
 226              	.LBE155:
  55:dsp/pvoc/phase_vocoder.cpp ****     float*           fft_buffer   = allocator[0]->Allocate<float>(fft_size);
 227              		.loc 1 55 5 is_stmt 1 view .LVU49
  56:dsp/pvoc/phase_vocoder.cpp ****     float*           ifft_buffer
 228              		.loc 1 56 5 view .LVU50
 229              	.LBB156:
 230              	.LBI138:
  51:./buffer_allocator.h ****     {
 231              		.loc 2 51 15 view .LVU51
 232              	.LBB148:
  53:./buffer_allocator.h ****         if(size_bytes <= free_)
 233              		.loc 2 53 16 is_stmt 0 view .LVU52
 234 0044 4FEA8402 		lsl	r2, r4, #2
 235              	.LVL6:
 236              	.LBB144:
  63:./buffer_allocator.h ****         }
 237              		.loc 2 63 20 view .LVU53
 238 0048 38BF     		it	cc
 239 004a 0026     		movcc	r6, #0
 240              	.LVL7:
  63:./buffer_allocator.h ****         }
 241              		.loc 2 63 20 view .LVU54
 242              	.LBE144:
 243              	.LBE148:
 244              	.LBE156:
  57:dsp/pvoc/phase_vocoder.cpp ****         = allocator[num_channels_ - 1]->Allocate<float>(fft_size);
 245              		.loc 1 57 5 is_stmt 1 view .LVU55
 246              	.LBB157:
 247              	.LBB94:
  65:dsp/pvoc/phase_vocoder.cpp **** 
 248              		.loc 1 65 55 is_stmt 0 view .LVU56
 249 004c 04EB5407 		add	r7, r4, r4, lsr #1
 250              	.LBE94:
 251              	.LBE157:
 252              	.LBB158:
 253              	.LBB149:
 254              	.LBB145:
 255              	.LBB141:
  58:./buffer_allocator.h ****             return start;
 256              		.loc 2 58 19 view .LVU57
 257 0050 24BF     		itt	cs
 258 0052 9B1A     		subcs	r3, r3, r2
  57:./buffer_allocator.h ****             free_ -= size_bytes;
 259              		.loc 2 57 19 view .LVU58
 260 0054 B118     		addcs	r1, r6, r2
 261              	.LBE141:
 262              	.LBE145:
 263              	.LBE149:
 264              	.LBE158:
 265              	.LBB159:
 266              	.LBB95:
 267              	.LBB77:
 268              	.LBB78:
  53:./buffer_allocator.h ****         if(size_bytes <= free_)
ARM GAS  C:\Users\daniel\AppData\Local\Temp\ccvfs2Lg.s 			page 9


 269              		.loc 2 53 16 view .LVU59
 270 0056 4FEA8707 		lsl	r7, r7, #2
 271              	.LBE78:
 272              	.LBE77:
 273              	.LBE95:
 274              	.LBE159:
 275              	.LBB160:
 276              	.LBB150:
 277              	.LBB146:
 278              	.LBB142:
  58:./buffer_allocator.h ****             return start;
 279              		.loc 2 58 19 view .LVU60
 280 005a 28BF     		it	cs
 281 005c 1093     		strcs	r3, [sp, #64]
 282              	.LBE142:
 283              	.LBE146:
 284              	.LBE150:
 285              	.LBE160:
  58:dsp/pvoc/phase_vocoder.cpp **** 
 286              		.loc 1 58 38 view .LVU61
 287 005e 16AB     		add	r3, sp, #88
 288              	.LBB161:
 289              	.LBB151:
 290              	.LBB147:
 291              	.LBB143:
  57:./buffer_allocator.h ****             free_ -= size_bytes;
 292              		.loc 2 57 19 view .LVU62
 293 0060 28BF     		it	cs
 294 0062 0E91     		strcs	r1, [sp, #56]
 295              	.LBE143:
 296              	.LBE147:
 297              	.LBE151:
 298              	.LBE161:
  58:dsp/pvoc/phase_vocoder.cpp **** 
 299              		.loc 1 58 38 view .LVU63
 300 0064 03EB8000 		add	r0, r3, r0, lsl #2
 301 0068 50F82C3C 		ldr	r3, [r0, #-44]
 302              	.LVL8:
 303              	.LBB162:
 304              	.LBI162:
  51:./buffer_allocator.h ****     {
 305              		.loc 2 51 15 is_stmt 1 view .LVU64
 306              	.LBB163:
 307              	.LBB164:
  54:./buffer_allocator.h ****         {
 308              		.loc 2 54 26 is_stmt 0 view .LVU65
 309 006c 9968     		ldr	r1, [r3, #8]
  54:./buffer_allocator.h ****         {
 310              		.loc 2 54 9 view .LVU66
 311 006e 9142     		cmp	r1, r2
 312              	.LBB165:
  56:./buffer_allocator.h ****             next_ += size_bytes;
 313              		.loc 2 56 16 view .LVU67
 314 0070 29BF     		itett	cs
 315 0072 1868     		ldrcs	r0, [r3]
 316              	.LBE165:
  63:./buffer_allocator.h ****         }
ARM GAS  C:\Users\daniel\AppData\Local\Temp\ccvfs2Lg.s 			page 10


 317              		.loc 2 63 20 view .LVU68
 318 0074 0023     		movcc	r3, #0
 319              	.LVL9:
 320              	.LBB166:
  56:./buffer_allocator.h ****             next_ += size_bytes;
 321              		.loc 2 56 16 view .LVU69
 322 0076 0790     		strcs	r0, [sp, #28]
 323              	.LVL10:
  57:./buffer_allocator.h ****             free_ -= size_bytes;
 324              		.loc 2 57 19 view .LVU70
 325 0078 8018     		addcs	r0, r0, r2
  58:./buffer_allocator.h ****             return start;
 326              		.loc 2 58 19 view .LVU71
 327 007a 2ABF     		itet	cs
 328 007c 8A1A     		subcs	r2, r1, r2
 329              	.LVL11:
  58:./buffer_allocator.h ****             return start;
 330              		.loc 2 58 19 view .LVU72
 331              	.LBE166:
  63:./buffer_allocator.h ****         }
 332              		.loc 2 63 20 view .LVU73
 333 007e 0793     		strcc	r3, [sp, #28]
 334              	.LVL12:
  63:./buffer_allocator.h ****         }
 335              		.loc 2 63 20 view .LVU74
 336              	.LBE164:
 337              	.LBE163:
 338              	.LBE162:
  60:dsp/pvoc/phase_vocoder.cpp ****     size_t texture_size = (fft_size >> 1) - kHighFrequencyTruncation;
 339              		.loc 1 60 5 is_stmt 1 view .LVU75
  61:dsp/pvoc/phase_vocoder.cpp ****     for(int32_t i = 0; i < num_channels_; ++i)
 340              		.loc 1 61 5 view .LVU76
 341              	.LBB170:
 342              	.LBB169:
 343              	.LBB168:
 344              	.LBB167:
  57:./buffer_allocator.h ****             free_ -= size_bytes;
 345              		.loc 2 57 19 is_stmt 0 view .LVU77
 346 0080 1860     		strcs	r0, [r3]
 347 0082 05F15C00 		add	r0, r5, #92
  58:./buffer_allocator.h ****             return start;
 348              		.loc 2 58 19 view .LVU78
 349 0086 28BF     		it	cs
 350 0088 9A60     		strcs	r2, [r3, #8]
 351              	.LBE167:
 352              	.LBE168:
 353              	.LBE169:
 354              	.LBE170:
  61:dsp/pvoc/phase_vocoder.cpp ****     for(int32_t i = 0; i < num_channels_; ++i)
 355              		.loc 1 61 37 view .LVU79
 356 008a 6308     		lsrs	r3, r4, #1
 357              	.LVL13:
  62:dsp/pvoc/phase_vocoder.cpp ****     {
 358              		.loc 1 62 5 is_stmt 1 view .LVU80
  61:dsp/pvoc/phase_vocoder.cpp ****     for(int32_t i = 0; i < num_channels_; ++i)
 359              		.loc 1 61 12 is_stmt 0 view .LVU81
 360 008c 103B     		subs	r3, r3, #16
ARM GAS  C:\Users\daniel\AppData\Local\Temp\ccvfs2Lg.s 			page 11


 361              	.LVL14:
 362              	.LBB171:
 363              	.LBB96:
  68:dsp/pvoc/phase_vocoder.cpp ****                   num_textures);
 364              		.loc 1 68 57 view .LVU82
 365 008e 9B00     		lsls	r3, r3, #2
 366              	.LVL15:
  68:dsp/pvoc/phase_vocoder.cpp ****                   num_textures);
 367              		.loc 1 68 57 view .LVU83
 368 0090 0893     		str	r3, [sp, #32]
 369              		.loc 1 70 22 view .LVU84
 370 0092 A308     		lsrs	r3, r4, #2
 371              	.LVL16:
 372              	.L7:
 373              		.loc 1 70 22 view .LVU85
 374              	.LBE96:
  62:dsp/pvoc/phase_vocoder.cpp ****     {
 375              		.loc 1 62 26 is_stmt 1 discriminator 3 view .LVU86
 376 0094 D5F86421 		ldr	r2, [r5, #356]
 377 0098 5245     		cmp	r2, r10
 378 009a 1EDC     		bgt	.L4
 379              	.LBE171:
 380              	.LBB172:
 381              	.LBB173:
 382              	.LBB174:
 383              	.LBB175:
  53:./buffer_allocator.h ****         if(size_bytes <= free_)
 384              		.loc 2 53 16 is_stmt 0 view .LVU87
 385 009c 089B     		ldr	r3, [sp, #32]
 386              	.LBE175:
 387              	.LBE174:
 388              	.LBE173:
  71:dsp/pvoc/phase_vocoder.cpp ****                       fft_size,
  72:dsp/pvoc/phase_vocoder.cpp ****                       fft_size / hop_ratio,
  73:dsp/pvoc/phase_vocoder.cpp ****                       fft_buffer,
  74:dsp/pvoc/phase_vocoder.cpp ****                       ifft_buffer,
  75:dsp/pvoc/phase_vocoder.cpp ****                       large_window_lut,
  76:dsp/pvoc/phase_vocoder.cpp ****                       ana_syn_buffer,
  77:dsp/pvoc/phase_vocoder.cpp ****                       &frame_transformation_[i]);
  78:dsp/pvoc/phase_vocoder.cpp ****     }
  79:dsp/pvoc/phase_vocoder.cpp ****     for(int32_t i = 0; i < num_channels_; ++i)
 389              		.loc 1 79 17 view .LVU88
 390 009e 0026     		movs	r6, #0
 391              	.LVL17:
 392              	.LBB191:
 393              	.LBB186:
 394              	.LBB182:
  53:./buffer_allocator.h ****         if(size_bytes <= free_)
 395              		.loc 2 53 16 view .LVU89
 396 00a0 09FB03F7 		mul	r7, r9, r3
 397              	.L5:
 398              	.LVL18:
  53:./buffer_allocator.h ****         if(size_bytes <= free_)
 399              		.loc 2 53 16 view .LVU90
 400              	.LBE182:
 401              	.LBE186:
 402              	.LBE191:
ARM GAS  C:\Users\daniel\AppData\Local\Temp\ccvfs2Lg.s 			page 12


 403              		.loc 1 79 26 is_stmt 1 discriminator 3 view .LVU91
 404 00a4 D5F86431 		ldr	r3, [r5, #356]
 405 00a8 B342     		cmp	r3, r6
 406 00aa 44DD     		ble	.L1
 407              	.LBB192:
  80:dsp/pvoc/phase_vocoder.cpp ****     {
  81:dsp/pvoc/phase_vocoder.cpp ****         float* texture_buffer
 408              		.loc 1 81 9 discriminator 2 view .LVU92
  82:dsp/pvoc/phase_vocoder.cpp ****             = allocator[i]->Allocate<float>(num_textures * texture_size);
 409              		.loc 1 82 26 is_stmt 0 discriminator 2 view .LVU93
 410 00ac 0CAB     		add	r3, sp, #48
 411 00ae 53F82630 		ldr	r3, [r3, r6, lsl #2]
 412              	.LVL19:
 413              	.LBB187:
 414              	.LBI174:
  51:./buffer_allocator.h ****     {
 415              		.loc 2 51 15 is_stmt 1 discriminator 2 view .LVU94
  51:./buffer_allocator.h ****     {
 416              		.loc 2 51 15 is_stmt 0 discriminator 2 view .LVU95
 417              	.LBE187:
 418              	.LBE192:
  79:dsp/pvoc/phase_vocoder.cpp ****     {
 419              		.loc 1 79 5 discriminator 2 view .LVU96
 420 00b2 0136     		adds	r6, r6, #1
 421              	.LVL20:
 422              	.LBB193:
 423              	.LBB188:
 424              	.LBB183:
 425              	.LBB176:
  54:./buffer_allocator.h ****         {
 426              		.loc 2 54 26 discriminator 2 view .LVU97
 427 00b4 9A68     		ldr	r2, [r3, #8]
  54:./buffer_allocator.h ****         {
 428              		.loc 2 54 9 discriminator 2 view .LVU98
 429 00b6 9742     		cmp	r7, r2
 430              	.LBB177:
  56:./buffer_allocator.h ****             next_ += size_bytes;
 431              		.loc 2 56 16 discriminator 2 view .LVU99
 432 00b8 9BBF     		ittet	ls
 433 00ba 1968     		ldrls	r1, [r3]
 434              	.LVL21:
  58:./buffer_allocator.h ****             return start;
 435              		.loc 2 58 19 discriminator 2 view .LVU100
 436 00bc D21B     		subls	r2, r2, r7
 437              	.LBE177:
  63:./buffer_allocator.h ****         }
 438              		.loc 2 63 20 discriminator 2 view .LVU101
 439 00be 0021     		movhi	r1, #0
 440              	.LVL22:
  63:./buffer_allocator.h ****         }
 441              		.loc 2 63 20 discriminator 2 view .LVU102
 442              	.LBE176:
 443              	.LBE183:
 444              	.LBE188:
  83:dsp/pvoc/phase_vocoder.cpp ****         frame_transformation_[i].Init(texture_buffer, fft_size, num_textures);
 445              		.loc 1 83 9 is_stmt 1 discriminator 2 view .LVU103
 446              	.LBB189:
ARM GAS  C:\Users\daniel\AppData\Local\Temp\ccvfs2Lg.s 			page 13


 447              	.LBB184:
 448              	.LBB180:
 449              	.LBB178:
  57:./buffer_allocator.h ****             free_ -= size_bytes;
 450              		.loc 2 57 19 is_stmt 0 discriminator 2 view .LVU104
 451 00c0 C819     		addls	r0, r1, r7
  58:./buffer_allocator.h ****             return start;
 452              		.loc 2 58 19 discriminator 2 view .LVU105
 453 00c2 98BF     		it	ls
 454 00c4 9A60     		strls	r2, [r3, #8]
 455              	.LBE178:
 456              	.LBE180:
 457              	.LBE184:
 458              	.LBE189:
 459              		.loc 1 83 38 discriminator 2 view .LVU106
 460 00c6 2246     		mov	r2, r4
 461              	.LBB190:
 462              	.LBB185:
 463              	.LBB181:
 464              	.LBB179:
  57:./buffer_allocator.h ****             free_ -= size_bytes;
 465              		.loc 2 57 19 discriminator 2 view .LVU107
 466 00c8 98BF     		it	ls
 467 00ca 1860     		strls	r0, [r3]
 468              	.LBE179:
 469              	.LBE181:
 470              	.LBE185:
 471              	.LBE190:
 472              		.loc 1 83 38 discriminator 2 view .LVU108
 473 00cc 4046     		mov	r0, r8
 474 00ce 4B46     		mov	r3, r9
 475 00d0 08F13408 		add	r8, r8, #52
 476 00d4 FFF7FEFF 		bl	_ZN19FrameTransformation4InitEPfll
 477              	.LVL23:
 478              		.loc 1 83 38 discriminator 2 view .LVU109
 479              	.LBE193:
  79:dsp/pvoc/phase_vocoder.cpp ****     {
 480              		.loc 1 79 5 is_stmt 1 discriminator 2 view .LVU110
  79:dsp/pvoc/phase_vocoder.cpp ****     {
 481              		.loc 1 79 5 is_stmt 0 discriminator 2 view .LVU111
 482 00d8 E4E7     		b	.L5
 483              	.LVL24:
 484              	.L4:
  79:dsp/pvoc/phase_vocoder.cpp ****     {
 485              		.loc 1 79 5 discriminator 2 view .LVU112
 486              	.LBE172:
 487              	.LBB194:
 488              	.LBB97:
  64:dsp/pvoc/phase_vocoder.cpp ****             = allocator[i]->Allocate<short>((fft_size + (fft_size >> 1)) * 2);
 489              		.loc 1 64 9 is_stmt 1 discriminator 2 view .LVU113
  65:dsp/pvoc/phase_vocoder.cpp **** 
 490              		.loc 1 65 26 is_stmt 0 discriminator 2 view .LVU114
 491 00da 0CAA     		add	r2, sp, #48
  70:dsp/pvoc/phase_vocoder.cpp ****                       fft_size,
 492              		.loc 1 70 22 discriminator 2 view .LVU115
 493 00dc 0B93     		str	r3, [sp, #44]
 494 00de 0A90     		str	r0, [sp, #40]
ARM GAS  C:\Users\daniel\AppData\Local\Temp\ccvfs2Lg.s 			page 14


  65:dsp/pvoc/phase_vocoder.cpp **** 
 495              		.loc 1 65 26 discriminator 2 view .LVU116
 496 00e0 52F82A20 		ldr	r2, [r2, r10, lsl #2]
 497              	.LVL25:
 498              	.LBB88:
 499              	.LBI77:
  51:./buffer_allocator.h ****     {
 500              		.loc 2 51 15 is_stmt 1 discriminator 2 view .LVU117
  51:./buffer_allocator.h ****     {
 501              		.loc 2 51 15 is_stmt 0 discriminator 2 view .LVU118
 502              	.LBE88:
 503              	.LBE97:
  62:dsp/pvoc/phase_vocoder.cpp ****     {
 504              		.loc 1 62 5 discriminator 2 view .LVU119
 505 00e4 0AF1010A 		add	r10, r10, #1
 506              	.LVL26:
 507              	.LBB98:
 508              	.LBB89:
 509              	.LBB85:
 510              	.LBB79:
  54:./buffer_allocator.h ****         {
 511              		.loc 2 54 26 discriminator 2 view .LVU120
 512 00e8 9168     		ldr	r1, [r2, #8]
  54:./buffer_allocator.h ****         {
 513              		.loc 2 54 9 discriminator 2 view .LVU121
 514 00ea 8F42     		cmp	r7, r1
 515              	.LBB80:
  56:./buffer_allocator.h ****             next_ += size_bytes;
 516              		.loc 2 56 16 discriminator 2 view .LVU122
 517 00ec 9BBF     		ittet	ls
 518 00ee D2F800C0 		ldrls	ip, [r2]
 519              	.LVL27:
  58:./buffer_allocator.h ****             return start;
 520              		.loc 2 58 19 discriminator 2 view .LVU123
 521 00f2 C91B     		subls	r1, r1, r7
 522              	.LBE80:
  63:./buffer_allocator.h ****         }
 523              		.loc 2 63 20 discriminator 2 view .LVU124
 524 00f4 4FF0000C 		movhi	ip, #0
 525              	.LVL28:
  63:./buffer_allocator.h ****         }
 526              		.loc 2 63 20 discriminator 2 view .LVU125
 527              	.LBE79:
 528              	.LBE85:
 529              	.LBE89:
  67:dsp/pvoc/phase_vocoder.cpp ****             = min(allocator[i]->free() / (sizeof(float) * texture_size),
 530              		.loc 1 67 9 is_stmt 1 discriminator 2 view .LVU126
 531              	.LBB90:
 532              	.LBI90:
  71:./buffer_allocator.h ****     }
  72:./buffer_allocator.h **** 
  73:./buffer_allocator.h ****     inline size_t free() const { return free_; }
 533              		.loc 2 73 19 discriminator 2 view .LVU127
 534              	.LBB91:
 535              		.loc 2 73 34 discriminator 2 view .LVU128
 536              		.loc 2 73 34 is_stmt 0 discriminator 2 view .LVU129
 537              	.LBE91:
ARM GAS  C:\Users\daniel\AppData\Local\Temp\ccvfs2Lg.s 			page 15


 538              	.LBE90:
 539              	.LBB92:
 540              	.LBB86:
 541              	.LBB83:
 542              	.LBB81:
  57:./buffer_allocator.h ****             free_ -= size_bytes;
 543              		.loc 2 57 19 discriminator 2 view .LVU130
 544 00f8 0CEB070E 		addls	lr, ip, r7
  58:./buffer_allocator.h ****             return start;
 545              		.loc 2 58 19 discriminator 2 view .LVU131
 546 00fc 98BF     		it	ls
 547 00fe 9160     		strls	r1, [r2, #8]
 548              	.LBE81:
 549              	.LBE83:
 550              	.LBE86:
 551              	.LBE92:
  68:dsp/pvoc/phase_vocoder.cpp ****                   num_textures);
 552              		.loc 1 68 40 discriminator 2 view .LVU132
 553 0100 0899     		ldr	r1, [sp, #32]
 554              	.LBB93:
 555              	.LBB87:
 556              	.LBB84:
 557              	.LBB82:
  57:./buffer_allocator.h ****             free_ -= size_bytes;
 558              		.loc 2 57 19 discriminator 2 view .LVU133
 559 0102 98BF     		it	ls
 560 0104 C2F800E0 		strls	lr, [r2]
 561              	.LBE82:
 562              	.LBE84:
 563              	.LBE87:
 564              	.LBE93:
  68:dsp/pvoc/phase_vocoder.cpp ****                   num_textures);
 565              		.loc 1 68 40 discriminator 2 view .LVU134
 566 0108 9268     		ldr	r2, [r2, #8]
 567 010a B2FBF1F2 		udiv	r2, r2, r1
 568 010e 9145     		cmp	r9, r2
  70:dsp/pvoc/phase_vocoder.cpp ****                       fft_size,
 569              		.loc 1 70 22 discriminator 2 view .LVU135
 570 0110 2946     		mov	r1, r5
 571 0112 28BF     		it	cs
 572 0114 9146     		movcs	r9, r2
 573              	.LVL29:
  70:dsp/pvoc/phase_vocoder.cpp ****                       fft_size,
 574              		.loc 1 70 9 is_stmt 1 discriminator 2 view .LVU136
  70:dsp/pvoc/phase_vocoder.cpp ****                       fft_size,
 575              		.loc 1 70 22 is_stmt 0 discriminator 2 view .LVU137
 576 0116 099A     		ldr	r2, [sp, #36]
 577 0118 0292     		str	r2, [sp, #8]
 578 011a 079A     		ldr	r2, [sp, #28]
 579 011c CDE903CB 		strd	ip, fp, [sp, #12]
 580 0120 CDE90062 		strd	r6, r2, [sp]
 581 0124 2246     		mov	r2, r4
 582 0126 0BF1340B 		add	fp, fp, #52
 583 012a FFF7FEFF 		bl	_ZN4STFT4InitEP6ShyFFTIfLj4096E14RotationPhasorEjjPfS4_PKfPsP19FrameTransformation
 584              	.LVL30:
  70:dsp/pvoc/phase_vocoder.cpp ****                       fft_size,
 585              		.loc 1 70 22 discriminator 2 view .LVU138
ARM GAS  C:\Users\daniel\AppData\Local\Temp\ccvfs2Lg.s 			page 16


 586              	.LBE98:
  62:dsp/pvoc/phase_vocoder.cpp ****     {
 587              		.loc 1 62 5 is_stmt 1 discriminator 2 view .LVU139
  62:dsp/pvoc/phase_vocoder.cpp ****     {
 588              		.loc 1 62 5 is_stmt 0 discriminator 2 view .LVU140
 589 012e 0A98     		ldr	r0, [sp, #40]
 590 0130 0B9B     		ldr	r3, [sp, #44]
 591 0132 5030     		adds	r0, r0, #80
 592 0134 AEE7     		b	.L7
 593              	.LVL31:
 594              	.L1:
  62:dsp/pvoc/phase_vocoder.cpp ****     {
 595              		.loc 1 62 5 discriminator 2 view .LVU141
 596              	.LBE194:
  84:dsp/pvoc/phase_vocoder.cpp ****     }
  85:dsp/pvoc/phase_vocoder.cpp **** }
 597              		.loc 1 85 1 view .LVU142
 598 0136 17B0     		add	sp, sp, #92
 599              		.cfi_def_cfa_offset 36
 600              		@ sp needed
 601 0138 BDE8F08F 		pop	{r4, r5, r6, r7, r8, r9, r10, fp, pc}
 602              		.loc 1 85 1 view .LVU143
 603              		.cfi_endproc
 604              	.LFE4857:
 606              		.section	.text._ZN12PhaseVocoder7ProcessERK10ParametersPK10FloatFramePS3_j,"ax",%progbits
 607              		.align	1
 608              		.global	_ZN12PhaseVocoder7ProcessERK10ParametersPK10FloatFramePS3_j
 609              		.syntax unified
 610              		.thumb
 611              		.thumb_func
 612              		.fpu fpv5-d16
 614              	_ZN12PhaseVocoder7ProcessERK10ParametersPK10FloatFramePS3_j:
 615              	.LVL32:
 616              	.LFB4858:
  86:dsp/pvoc/phase_vocoder.cpp **** 
  87:dsp/pvoc/phase_vocoder.cpp **** void PhaseVocoder::Process(const Parameters& parameters,
  88:dsp/pvoc/phase_vocoder.cpp ****                            const FloatFrame* input,
  89:dsp/pvoc/phase_vocoder.cpp ****                            FloatFrame*       output,
  90:dsp/pvoc/phase_vocoder.cpp ****                            size_t            size)
  91:dsp/pvoc/phase_vocoder.cpp **** {
 617              		.loc 1 91 1 is_stmt 1 view -0
 618              		.cfi_startproc
 619              		@ args = 4, pretend = 0, frame = 0
 620              		@ frame_needed = 0, uses_anonymous_args = 0
  92:dsp/pvoc/phase_vocoder.cpp ****     const float* input_samples  = &input[0].l;
 621              		.loc 1 92 5 view .LVU145
  91:dsp/pvoc/phase_vocoder.cpp ****     const float* input_samples  = &input[0].l;
 622              		.loc 1 91 1 is_stmt 0 view .LVU146
 623 0000 2DE9F743 		push	{r0, r1, r2, r4, r5, r6, r7, r8, r9, lr}
 624              		.cfi_def_cfa_offset 40
 625              		.cfi_offset 4, -28
 626              		.cfi_offset 5, -24
 627              		.cfi_offset 6, -20
 628              		.cfi_offset 7, -16
 629              		.cfi_offset 8, -12
 630              		.cfi_offset 9, -8
 631              		.cfi_offset 14, -4
ARM GAS  C:\Users\daniel\AppData\Local\Temp\ccvfs2Lg.s 			page 17


  91:dsp/pvoc/phase_vocoder.cpp ****     const float* input_samples  = &input[0].l;
 632              		.loc 1 91 1 view .LVU147
 633 0004 0546     		mov	r5, r0
 634 0006 0F46     		mov	r7, r1
 635 0008 9046     		mov	r8, r2
 636              	.LVL33:
  93:dsp/pvoc/phase_vocoder.cpp ****     float*       output_samples = &output[0].l;
 637              		.loc 1 93 5 is_stmt 1 view .LVU148
  91:dsp/pvoc/phase_vocoder.cpp ****     const float* input_samples  = &input[0].l;
 638              		.loc 1 91 1 is_stmt 0 view .LVU149
 639 000a 9946     		mov	r9, r3
 640              	.LVL34:
  94:dsp/pvoc/phase_vocoder.cpp ****     for(int32_t i = 0; i < num_channels_; ++i)
 641              		.loc 1 94 5 is_stmt 1 view .LVU150
 642              		.loc 1 94 5 is_stmt 0 view .LVU151
 643 000c 00F15C06 		add	r6, r0, #92
 644              	.LBB195:
 645              		.loc 1 94 17 view .LVU152
 646 0010 0024     		movs	r4, #0
 647              	.LVL35:
 648              	.L16:
 649              		.loc 1 94 26 is_stmt 1 discriminator 3 view .LVU153
 650 0012 D5F86431 		ldr	r3, [r5, #356]
 651 0016 A342     		cmp	r3, r4
 652 0018 0EDD     		ble	.L14
  95:dsp/pvoc/phase_vocoder.cpp ****     {
  96:dsp/pvoc/phase_vocoder.cpp ****         stft_[i].Process(
 653              		.loc 1 96 9 discriminator 2 view .LVU154
 654              		.loc 1 96 25 is_stmt 0 discriminator 2 view .LVU155
 655 001a 0223     		movs	r3, #2
 656 001c 08EB8402 		add	r2, r8, r4, lsl #2
 657 0020 3046     		mov	r0, r6
 658 0022 3946     		mov	r1, r7
 659 0024 0193     		str	r3, [sp, #4]
 660 0026 5036     		adds	r6, r6, #80
 661 0028 0A9B     		ldr	r3, [sp, #40]
 662 002a 0093     		str	r3, [sp]
 663 002c 09EB8403 		add	r3, r9, r4, lsl #2
 664 0030 FFF7FEFF 		bl	_ZN4STFT7ProcessERK10ParametersPKfPfjj
 665              	.LVL36:
  94:dsp/pvoc/phase_vocoder.cpp ****     for(int32_t i = 0; i < num_channels_; ++i)
 666              		.loc 1 94 5 is_stmt 1 discriminator 2 view .LVU156
 667 0034 0134     		adds	r4, r4, #1
 668              	.LVL37:
  94:dsp/pvoc/phase_vocoder.cpp ****     for(int32_t i = 0; i < num_channels_; ++i)
 669              		.loc 1 94 5 is_stmt 0 discriminator 2 view .LVU157
 670 0036 ECE7     		b	.L16
 671              	.L14:
  94:dsp/pvoc/phase_vocoder.cpp ****     for(int32_t i = 0; i < num_channels_; ++i)
 672              		.loc 1 94 5 discriminator 2 view .LVU158
 673              	.LBE195:
  97:dsp/pvoc/phase_vocoder.cpp ****             parameters, input_samples + i, output_samples + i, size, 2);
  98:dsp/pvoc/phase_vocoder.cpp ****     }
  99:dsp/pvoc/phase_vocoder.cpp **** }
 674              		.loc 1 99 1 view .LVU159
 675 0038 03B0     		add	sp, sp, #12
 676              		.cfi_def_cfa_offset 28
ARM GAS  C:\Users\daniel\AppData\Local\Temp\ccvfs2Lg.s 			page 18


 677              		@ sp needed
 678 003a BDE8F083 		pop	{r4, r5, r6, r7, r8, r9, pc}
 679              		.loc 1 99 1 view .LVU160
 680              		.cfi_endproc
 681              	.LFE4858:
 683              		.section	.text._ZN12PhaseVocoder6BufferEv,"ax",%progbits
 684              		.align	1
 685              		.global	_ZN12PhaseVocoder6BufferEv
 686              		.syntax unified
 687              		.thumb
 688              		.thumb_func
 689              		.fpu fpv5-d16
 691              	_ZN12PhaseVocoder6BufferEv:
 692              	.LVL38:
 693              	.LFB4859:
 100:dsp/pvoc/phase_vocoder.cpp **** 
 101:dsp/pvoc/phase_vocoder.cpp **** void PhaseVocoder::Buffer()
 102:dsp/pvoc/phase_vocoder.cpp **** {
 694              		.loc 1 102 1 is_stmt 1 view -0
 695              		.cfi_startproc
 696              		@ args = 0, pretend = 0, frame = 0
 697              		@ frame_needed = 0, uses_anonymous_args = 0
 103:dsp/pvoc/phase_vocoder.cpp ****     for(int32_t i = 0; i < num_channels_; ++i)
 698              		.loc 1 103 5 view .LVU162
 102:dsp/pvoc/phase_vocoder.cpp ****     for(int32_t i = 0; i < num_channels_; ++i)
 699              		.loc 1 102 1 is_stmt 0 view .LVU163
 700 0000 70B5     		push	{r4, r5, r6, lr}
 701              		.cfi_def_cfa_offset 16
 702              		.cfi_offset 4, -16
 703              		.cfi_offset 5, -12
 704              		.cfi_offset 6, -8
 705              		.cfi_offset 14, -4
 102:dsp/pvoc/phase_vocoder.cpp ****     for(int32_t i = 0; i < num_channels_; ++i)
 706              		.loc 1 102 1 view .LVU164
 707 0002 0446     		mov	r4, r0
 708 0004 00F15C05 		add	r5, r0, #92
 709              	.LBB196:
 710              		.loc 1 103 17 view .LVU165
 711 0008 0026     		movs	r6, #0
 712              	.LVL39:
 713              	.L19:
 714              		.loc 1 103 26 is_stmt 1 discriminator 3 view .LVU166
 715 000a D4F86431 		ldr	r3, [r4, #356]
 716 000e B342     		cmp	r3, r6
 717 0010 05DD     		ble	.L17
 104:dsp/pvoc/phase_vocoder.cpp ****     {
 105:dsp/pvoc/phase_vocoder.cpp ****         stft_[i].Buffer();
 718              		.loc 1 105 9 discriminator 2 view .LVU167
 719              		.loc 1 105 24 is_stmt 0 discriminator 2 view .LVU168
 720 0012 2846     		mov	r0, r5
 103:dsp/pvoc/phase_vocoder.cpp ****     {
 721              		.loc 1 103 5 discriminator 2 view .LVU169
 722 0014 0136     		adds	r6, r6, #1
 723              	.LVL40:
 103:dsp/pvoc/phase_vocoder.cpp ****     {
 724              		.loc 1 103 5 discriminator 2 view .LVU170
 725 0016 5035     		adds	r5, r5, #80
ARM GAS  C:\Users\daniel\AppData\Local\Temp\ccvfs2Lg.s 			page 19


 726              		.loc 1 105 24 discriminator 2 view .LVU171
 727 0018 FFF7FEFF 		bl	_ZN4STFT6BufferEv
 728              	.LVL41:
 103:dsp/pvoc/phase_vocoder.cpp ****     {
 729              		.loc 1 103 5 is_stmt 1 discriminator 2 view .LVU172
 103:dsp/pvoc/phase_vocoder.cpp ****     {
 730              		.loc 1 103 5 is_stmt 0 discriminator 2 view .LVU173
 731 001c F5E7     		b	.L19
 732              	.L17:
 103:dsp/pvoc/phase_vocoder.cpp ****     {
 733              		.loc 1 103 5 discriminator 2 view .LVU174
 734              	.LBE196:
 106:dsp/pvoc/phase_vocoder.cpp ****     }
 107:dsp/pvoc/phase_vocoder.cpp **** }
 735              		.loc 1 107 1 view .LVU175
 736 001e 70BD     		pop	{r4, r5, r6, pc}
 737              		.loc 1 107 1 view .LVU176
 738              		.cfi_endproc
 739              	.LFE4859:
 741              		.text
 742              	.Letext0:
 743              		.file 3 "c:\\programdata\\chocolatey\\lib\\gcc-arm-embedded\\tools\\gcc-arm-none-eabi-10-2020-q4-m
 744              		.file 4 "c:\\programdata\\chocolatey\\lib\\gcc-arm-embedded\\tools\\gcc-arm-none-eabi-10-2020-q4-m
 745              		.file 5 "c:\\programdata\\chocolatey\\lib\\gcc-arm-embedded\\tools\\gcc-arm-none-eabi-10-2020-q4-m
 746              		.file 6 "c:\\programdata\\chocolatey\\lib\\gcc-arm-embedded\\tools\\gcc-arm-none-eabi-10-2020-q4-m
 747              		.file 7 "c:\\programdata\\chocolatey\\lib\\gcc-arm-embedded\\tools\\gcc-arm-none-eabi-10-2020-q4-m
 748              		.file 8 "c:\\programdata\\chocolatey\\lib\\gcc-arm-embedded\\tools\\gcc-arm-none-eabi-10-2020-q4-m
 749              		.file 9 "c:\\programdata\\chocolatey\\lib\\gcc-arm-embedded\\tools\\gcc-arm-none-eabi-10-2020-q4-m
 750              		.file 10 "c:\\programdata\\chocolatey\\lib\\gcc-arm-embedded\\tools\\gcc-arm-none-eabi-10-2020-q4-
 751              		.file 11 "c:\\programdata\\chocolatey\\lib\\gcc-arm-embedded\\tools\\gcc-arm-none-eabi-10-2020-q4-
 752              		.file 12 "c:\\programdata\\chocolatey\\lib\\gcc-arm-embedded\\tools\\gcc-arm-none-eabi-10-2020-q4-
 753              		.file 13 "c:\\programdata\\chocolatey\\lib\\gcc-arm-embedded\\tools\\gcc-arm-none-eabi-10-2020-q4-
 754              		.file 14 "c:\\programdata\\chocolatey\\lib\\gcc-arm-embedded\\tools\\gcc-arm-none-eabi-10-2020-q4-
 755              		.file 15 "c:\\programdata\\chocolatey\\lib\\gcc-arm-embedded\\tools\\gcc-arm-none-eabi-10-2020-q4-
 756              		.file 16 "c:\\programdata\\chocolatey\\lib\\gcc-arm-embedded\\tools\\gcc-arm-none-eabi-10-2020-q4-
 757              		.file 17 "c:\\programdata\\chocolatey\\lib\\gcc-arm-embedded\\tools\\gcc-arm-none-eabi-10-2020-q4-
 758              		.file 18 "c:\\programdata\\chocolatey\\lib\\gcc-arm-embedded\\tools\\gcc-arm-none-eabi-10-2020-q4-
 759              		.file 19 "c:\\programdata\\chocolatey\\lib\\gcc-arm-embedded\\tools\\gcc-arm-none-eabi-10-2020-q4-
 760              		.file 20 "c:\\programdata\\chocolatey\\lib\\gcc-arm-embedded\\tools\\gcc-arm-none-eabi-10-2020-q4-
 761              		.file 21 "c:\\programdata\\chocolatey\\lib\\gcc-arm-embedded\\tools\\gcc-arm-none-eabi-10-2020-q4-
 762              		.file 22 "c:\\programdata\\chocolatey\\lib\\gcc-arm-embedded\\tools\\gcc-arm-none-eabi-10-2020-q4-
 763              		.file 23 "c:\\programdata\\chocolatey\\lib\\gcc-arm-embedded\\tools\\gcc-arm-none-eabi-10-2020-q4-
 764              		.file 24 "c:\\programdata\\chocolatey\\lib\\gcc-arm-embedded\\tools\\gcc-arm-none-eabi-10-2020-q4-
 765              		.file 25 "c:\\programdata\\chocolatey\\lib\\gcc-arm-embedded\\tools\\gcc-arm-none-eabi-10-2020-q4-
 766              		.file 26 "c:\\programdata\\chocolatey\\lib\\gcc-arm-embedded\\tools\\gcc-arm-none-eabi-10-2020-q4-
 767              		.file 27 "c:\\programdata\\chocolatey\\lib\\gcc-arm-embedded\\tools\\gcc-arm-none-eabi-10-2020-q4-
 768              		.file 28 "c:\\programdata\\chocolatey\\lib\\gcc-arm-embedded\\tools\\gcc-arm-none-eabi-10-2020-q4-
 769              		.file 29 "c:\\programdata\\chocolatey\\lib\\gcc-arm-embedded\\tools\\gcc-arm-none-eabi-10-2020-q4-
 770              		.file 30 "c:\\programdata\\chocolatey\\lib\\gcc-arm-embedded\\tools\\gcc-arm-none-eabi-10-2020-q4-
 771              		.file 31 "dsp/frame.h"
 772              		.file 32 "c:\\programdata\\chocolatey\\lib\\gcc-arm-embedded\\tools\\gcc-arm-none-eabi-10-2020-q4-
 773              		.file 33 "c:\\programdata\\chocolatey\\lib\\gcc-arm-embedded\\tools\\gcc-arm-none-eabi-10-2020-q4-
 774              		.file 34 "../../libDaisy/src/daisy_core.h"
 775              		.file 35 "../../libDaisy/src/util/wav_format.h"
 776              		.file 36 "../../libDaisy/src/dev/max11300.h"
 777              		.file 37 "c:\\programdata\\chocolatey\\lib\\gcc-arm-embedded\\tools\\gcc-arm-none-eabi-10-2020-q4-
 778              		.file 38 "c:\\programdata\\chocolatey\\lib\\gcc-arm-embedded\\tools\\gcc-arm-none-eabi-10-2020-q4-
ARM GAS  C:\Users\daniel\AppData\Local\Temp\ccvfs2Lg.s 			page 20


 779              		.file 39 "../../libDaisy/src/dev/sr_595.h"
 780              		.file 40 "c:\\programdata\\chocolatey\\lib\\gcc-arm-embedded\\tools\\gcc-arm-none-eabi-10-2020-q4-
 781              		.file 41 "../../DaisySP/Source/Control/adenv.h"
 782              		.file 42 "../../DaisySP/Source/Utility/dsp.h"
 783              		.file 43 "c:\\programdata\\chocolatey\\lib\\gcc-arm-embedded\\tools\\gcc-arm-none-eabi-10-2020-q4-
 784              		.file 44 "c:\\programdata\\chocolatey\\lib\\gcc-arm-embedded\\tools\\gcc-arm-none-eabi-10-2020-q4-
 785              		.file 45 "./resources.h"
 786              		.file 46 "dsp/pvoc/frame_transformation.h"
 787              		.file 47 "dsp/pvoc/stft.h"
 788              		.file 48 "./shy_fft.h"
 789              		.file 49 "dsp/pvoc/phase_vocoder.h"
 790              		.file 50 "<built-in>"
ARM GAS  C:\Users\daniel\AppData\Local\Temp\ccvfs2Lg.s 			page 21


DEFINED SYMBOLS
                            *ABS*:00000000 phase_vocoder.cpp
C:\Users\daniel\AppData\Local\Temp\ccvfs2Lg.s:17     .text._ZN12PhaseVocoder4InitEPPvPjPKfjllf:00000000 $t
C:\Users\daniel\AppData\Local\Temp\ccvfs2Lg.s:25     .text._ZN12PhaseVocoder4InitEPPvPjPKfjllf:00000000 _ZN12PhaseVocoder4InitEPPvPjPKfjllf
C:\Users\daniel\AppData\Local\Temp\ccvfs2Lg.s:607    .text._ZN12PhaseVocoder7ProcessERK10ParametersPK10FloatFramePS3_j:00000000 $t
C:\Users\daniel\AppData\Local\Temp\ccvfs2Lg.s:614    .text._ZN12PhaseVocoder7ProcessERK10ParametersPK10FloatFramePS3_j:00000000 _ZN12PhaseVocoder7ProcessERK10ParametersPK10FloatFramePS3_j
C:\Users\daniel\AppData\Local\Temp\ccvfs2Lg.s:684    .text._ZN12PhaseVocoder6BufferEv:00000000 $t
C:\Users\daniel\AppData\Local\Temp\ccvfs2Lg.s:691    .text._ZN12PhaseVocoder6BufferEv:00000000 _ZN12PhaseVocoder6BufferEv

UNDEFINED SYMBOLS
_ZN19FrameTransformation4InitEPfll
_ZN4STFT4InitEP6ShyFFTIfLj4096E14RotationPhasorEjjPfS4_PKfPsP19FrameTransformation
_ZN4STFT7ProcessERK10ParametersPKfPfjj
_ZN4STFT6BufferEv
