ARM GAS  /var/folders/hl/qgbwny5j0fd895c2c41bk3tw0000gp/T//cc63D1lp.s 			page 1


   1              		.cpu cortex-m7
   2              		.eabi_attribute 28, 1
   3              		.eabi_attribute 20, 1
   4              		.eabi_attribute 21, 1
   5              		.eabi_attribute 23, 3
   6              		.eabi_attribute 24, 1
   7              		.eabi_attribute 25, 1
   8              		.eabi_attribute 26, 1
   9              		.eabi_attribute 30, 2
  10              		.eabi_attribute 34, 1
  11              		.eabi_attribute 18, 4
  12              		.file	"test.cpp"
  13              		.text
  14              	.Ltext0:
  15              		.cfi_sections	.debug_frame
  16              		.section	.text._ZN5daisy6SwitchD2Ev,"axG",%progbits,_ZN5daisy6SwitchD5Ev,comdat
  17              		.align	1
  18              		.p2align 2,,3
  19              		.weak	_ZN5daisy6SwitchD2Ev
  20              		.arch armv7e-m
  21              		.syntax unified
  22              		.thumb
  23              		.thumb_func
  24              		.fpu fpv5-d16
  26              	_ZN5daisy6SwitchD2Ev:
  27              	.LVL0:
  28              	.LFB1606:
  29              		.file 1 "../../libDaisy//src/hid/switch.h"
   1:../../libDaisy//src/hid/switch.h **** #pragma once
   2:../../libDaisy//src/hid/switch.h **** #ifndef DSY_SWITCH_H
   3:../../libDaisy//src/hid/switch.h **** #define DSY_SWITCH_H
   4:../../libDaisy//src/hid/switch.h **** #include "daisy_core.h"
   5:../../libDaisy//src/hid/switch.h **** #include "per/gpio.h"
   6:../../libDaisy//src/hid/switch.h **** #include "sys/system.h"
   7:../../libDaisy//src/hid/switch.h **** 
   8:../../libDaisy//src/hid/switch.h **** namespace daisy
   9:../../libDaisy//src/hid/switch.h **** {
  10:../../libDaisy//src/hid/switch.h **** /** 
  11:../../libDaisy//src/hid/switch.h ****     Generic Class for handling momentary/latching switches \n 
  12:../../libDaisy//src/hid/switch.h ****     Inspired/influenced by Mutable Instruments (pichenettes) Switch classes
  13:../../libDaisy//src/hid/switch.h ****     @author Stephen Hensley
  14:../../libDaisy//src/hid/switch.h ****     @date December 2019
  15:../../libDaisy//src/hid/switch.h ****     @ingroup controls
  16:../../libDaisy//src/hid/switch.h **** */
  17:../../libDaisy//src/hid/switch.h **** class Switch
  18:../../libDaisy//src/hid/switch.h **** {
  19:../../libDaisy//src/hid/switch.h ****   public:
  20:../../libDaisy//src/hid/switch.h ****     /** Specifies the expected behavior of the switch */
  21:../../libDaisy//src/hid/switch.h ****     enum Type
  22:../../libDaisy//src/hid/switch.h ****     {
  23:../../libDaisy//src/hid/switch.h ****         TYPE_TOGGLE,    /**< & */
  24:../../libDaisy//src/hid/switch.h ****         TYPE_MOMENTARY, /**< & */
  25:../../libDaisy//src/hid/switch.h ****     };
  26:../../libDaisy//src/hid/switch.h ****     /** Specifies whether the pressed is HIGH or LOW. */
  27:../../libDaisy//src/hid/switch.h ****     enum Polarity
  28:../../libDaisy//src/hid/switch.h ****     {
  29:../../libDaisy//src/hid/switch.h ****         POLARITY_NORMAL,   /**< & */
ARM GAS  /var/folders/hl/qgbwny5j0fd895c2c41bk3tw0000gp/T//cc63D1lp.s 			page 2


  30:../../libDaisy//src/hid/switch.h ****         POLARITY_INVERTED, /**< & */
  31:../../libDaisy//src/hid/switch.h ****     };
  32:../../libDaisy//src/hid/switch.h **** 
  33:../../libDaisy//src/hid/switch.h ****     /** Specifies whether to use built-in Pull Up/Down resistors to hold button at a given state wh
  34:../../libDaisy//src/hid/switch.h ****     enum Pull
  35:../../libDaisy//src/hid/switch.h ****     {
  36:../../libDaisy//src/hid/switch.h ****         PULL_UP,   /**< & */
  37:../../libDaisy//src/hid/switch.h ****         PULL_DOWN, /**< & */
  38:../../libDaisy//src/hid/switch.h ****         PULL_NONE, /**< & */
  39:../../libDaisy//src/hid/switch.h ****     };
  40:../../libDaisy//src/hid/switch.h **** 
  41:../../libDaisy//src/hid/switch.h ****     Switch() {}
  42:../../libDaisy//src/hid/switch.h ****     ~Switch() {}
  30              		.loc 1 42 5 view -0
  31              		.cfi_startproc
  32              		@ args = 0, pretend = 0, frame = 0
  33              		@ frame_needed = 0, uses_anonymous_args = 0
  34              		@ link register save eliminated.
  35              		.loc 1 42 16 is_stmt 0 view .LVU1
  36 0000 7047     		bx	lr
  37              		.cfi_endproc
  38              	.LFE1606:
  40              		.weak	_ZN5daisy6SwitchD1Ev
  41              		.thumb_set _ZN5daisy6SwitchD1Ev,_ZN5daisy6SwitchD2Ev
  42 0002 00BF     		.section	.text._ZN5daisy8patch_sm12DaisyPatchSMD2Ev,"axG",%progbits,_ZN5daisy8patch_sm12DaisyPatch
  43              		.align	1
  44              		.p2align 2,,3
  45              		.weak	_ZN5daisy8patch_sm12DaisyPatchSMD2Ev
  46              		.syntax unified
  47              		.thumb
  48              		.thumb_func
  49              		.fpu fpv5-d16
  51              	_ZN5daisy8patch_sm12DaisyPatchSMD2Ev:
  52              	.LVL1:
  53              	.LFB2529:
  54              		.file 2 "../../libDaisy//src/daisy_patch_sm.h"
   1:../../libDaisy//src/daisy_patch_sm.h **** #pragma once
   2:../../libDaisy//src/daisy_patch_sm.h **** 
   3:../../libDaisy//src/daisy_patch_sm.h **** #include "daisy.h"
   4:../../libDaisy//src/daisy_patch_sm.h **** 
   5:../../libDaisy//src/daisy_patch_sm.h **** namespace daisy
   6:../../libDaisy//src/daisy_patch_sm.h **** {
   7:../../libDaisy//src/daisy_patch_sm.h **** namespace patch_sm
   8:../../libDaisy//src/daisy_patch_sm.h **** {
   9:../../libDaisy//src/daisy_patch_sm.h ****     /** Accessors for the Analog Controls. 
  10:../../libDaisy//src/daisy_patch_sm.h ****      *  These cover the 8x Bipolar CV inputs
  11:../../libDaisy//src/daisy_patch_sm.h ****      *  as well as the 4x 0-3V3 ADC inputs on
  12:../../libDaisy//src/daisy_patch_sm.h ****      *  the hardware 
  13:../../libDaisy//src/daisy_patch_sm.h ****      * 
  14:../../libDaisy//src/daisy_patch_sm.h ****      *  When reading a value with DaisyPatchSM::GetAdcValue()
  15:../../libDaisy//src/daisy_patch_sm.h ****      * 
  16:../../libDaisy//src/daisy_patch_sm.h ****      *  patch.GetAdcValue(patch_sm::CV_1);
  17:../../libDaisy//src/daisy_patch_sm.h ****      */
  18:../../libDaisy//src/daisy_patch_sm.h ****     enum
  19:../../libDaisy//src/daisy_patch_sm.h ****     {
  20:../../libDaisy//src/daisy_patch_sm.h ****         CV_1 = 0,
  21:../../libDaisy//src/daisy_patch_sm.h ****         CV_2,
ARM GAS  /var/folders/hl/qgbwny5j0fd895c2c41bk3tw0000gp/T//cc63D1lp.s 			page 3


  22:../../libDaisy//src/daisy_patch_sm.h ****         CV_3,
  23:../../libDaisy//src/daisy_patch_sm.h ****         CV_4,
  24:../../libDaisy//src/daisy_patch_sm.h ****         CV_5,
  25:../../libDaisy//src/daisy_patch_sm.h ****         CV_6,
  26:../../libDaisy//src/daisy_patch_sm.h ****         CV_7,
  27:../../libDaisy//src/daisy_patch_sm.h ****         CV_8,
  28:../../libDaisy//src/daisy_patch_sm.h ****         ADC_9,
  29:../../libDaisy//src/daisy_patch_sm.h ****         ADC_10,
  30:../../libDaisy//src/daisy_patch_sm.h ****         ADC_11,
  31:../../libDaisy//src/daisy_patch_sm.h ****         ADC_12,
  32:../../libDaisy//src/daisy_patch_sm.h ****         ADC_LAST,
  33:../../libDaisy//src/daisy_patch_sm.h ****     };
  34:../../libDaisy//src/daisy_patch_sm.h **** 
  35:../../libDaisy//src/daisy_patch_sm.h ****     /** Enum for addressing the CV Outputs via the WriteCvOut function. */
  36:../../libDaisy//src/daisy_patch_sm.h ****     enum
  37:../../libDaisy//src/daisy_patch_sm.h ****     {
  38:../../libDaisy//src/daisy_patch_sm.h ****         CV_OUT_BOTH = 0,
  39:../../libDaisy//src/daisy_patch_sm.h ****         CV_OUT_1,
  40:../../libDaisy//src/daisy_patch_sm.h ****         CV_OUT_2,
  41:../../libDaisy//src/daisy_patch_sm.h ****     };
  42:../../libDaisy//src/daisy_patch_sm.h **** 
  43:../../libDaisy//src/daisy_patch_sm.h **** 
  44:../../libDaisy//src/daisy_patch_sm.h ****     /** @brief Board support file for DaisyPatchSM hardware
  45:../../libDaisy//src/daisy_patch_sm.h ****      *  @author shensley
  46:../../libDaisy//src/daisy_patch_sm.h ****      *  @ingroup boards
  47:../../libDaisy//src/daisy_patch_sm.h ****      * 
  48:../../libDaisy//src/daisy_patch_sm.h ****      *  Daisy Patch SM is a complete Eurorack module DSP engine.
  49:../../libDaisy//src/daisy_patch_sm.h ****      *  Based on the Daisy Seed, with circuits added for 
  50:../../libDaisy//src/daisy_patch_sm.h ****      *  interfacing directly with eurorack modular synthesizers.
  51:../../libDaisy//src/daisy_patch_sm.h ****      */
  52:../../libDaisy//src/daisy_patch_sm.h ****     class DaisyPatchSM
  53:../../libDaisy//src/daisy_patch_sm.h ****     {
  54:../../libDaisy//src/daisy_patch_sm.h ****       public:
  55:../../libDaisy//src/daisy_patch_sm.h ****         /** Helper for mapping pins, and accessing them using the `GetPin` function */
  56:../../libDaisy//src/daisy_patch_sm.h ****         enum class PinBank
  57:../../libDaisy//src/daisy_patch_sm.h ****         {
  58:../../libDaisy//src/daisy_patch_sm.h ****             A,
  59:../../libDaisy//src/daisy_patch_sm.h ****             B,
  60:../../libDaisy//src/daisy_patch_sm.h ****             C,
  61:../../libDaisy//src/daisy_patch_sm.h ****             D
  62:../../libDaisy//src/daisy_patch_sm.h ****         };
  63:../../libDaisy//src/daisy_patch_sm.h **** 
  64:../../libDaisy//src/daisy_patch_sm.h ****         DaisyPatchSM() {}
  65:../../libDaisy//src/daisy_patch_sm.h ****         ~DaisyPatchSM() {}
  55              		.loc 2 65 9 is_stmt 1 view -0
  56              		.cfi_startproc
  57              		@ args = 0, pretend = 0, frame = 0
  58              		@ frame_needed = 0, uses_anonymous_args = 0
  59              		@ link register save eliminated.
  60              	.LBB529:
  61              	.LBI529:
  62              		.file 3 "../../libDaisy//src/hid/gatein.h"
   1:../../libDaisy//src/hid/gatein.h **** #pragma once
   2:../../libDaisy//src/hid/gatein.h **** #ifndef DSY_GATEIN_H
   3:../../libDaisy//src/hid/gatein.h **** #define DSY_GATEIN_H
   4:../../libDaisy//src/hid/gatein.h **** #include "per/gpio.h"
   5:../../libDaisy//src/hid/gatein.h **** 
ARM GAS  /var/folders/hl/qgbwny5j0fd895c2c41bk3tw0000gp/T//cc63D1lp.s 			page 4


   6:../../libDaisy//src/hid/gatein.h **** namespace daisy
   7:../../libDaisy//src/hid/gatein.h **** {
   8:../../libDaisy//src/hid/gatein.h **** /**
   9:../../libDaisy//src/hid/gatein.h ****    @brief Generic Class for handling gate inputs through GPIO.
  10:../../libDaisy//src/hid/gatein.h ****    @author Stephen Hensley
  11:../../libDaisy//src/hid/gatein.h ****    @date    March 2020
  12:../../libDaisy//src/hid/gatein.h ****    @ingroup controls
  13:../../libDaisy//src/hid/gatein.h **** */
  14:../../libDaisy//src/hid/gatein.h **** class GateIn
  15:../../libDaisy//src/hid/gatein.h **** {
  16:../../libDaisy//src/hid/gatein.h ****   public:
  17:../../libDaisy//src/hid/gatein.h ****     /** GateIn 
  18:../../libDaisy//src/hid/gatein.h ****     Constructor 
  19:../../libDaisy//src/hid/gatein.h ****     */
  20:../../libDaisy//src/hid/gatein.h ****     GateIn() {}
  21:../../libDaisy//src/hid/gatein.h ****     /** GateIn~
  22:../../libDaisy//src/hid/gatein.h ****     Destructor 
  23:../../libDaisy//src/hid/gatein.h ****     */
  24:../../libDaisy//src/hid/gatein.h ****     ~GateIn() {}
  63              		.loc 3 24 5 view .LVU3
  64              		.loc 3 24 5 is_stmt 0 view .LVU4
  65              	.LBE529:
  66              	.LBB530:
  67              	.LBI530:
  68              		.loc 3 24 5 is_stmt 1 view .LVU5
  69              		.loc 3 24 5 is_stmt 0 view .LVU6
  70              	.LBE530:
  71              	.LBB531:
  72              	.LBI531:
  73              		.file 4 "../../libDaisy//src/dev/codec_pcm3060.h"
   1:../../libDaisy//src/dev/codec_pcm3060.h **** #pragma once
   2:../../libDaisy//src/dev/codec_pcm3060.h **** #ifndef DSY_CODEC_PCM3060_H
   3:../../libDaisy//src/dev/codec_pcm3060.h **** #define DSY_CODEC_PCM3060_H
   4:../../libDaisy//src/dev/codec_pcm3060.h **** #include "per/i2c.h"
   5:../../libDaisy//src/dev/codec_pcm3060.h **** namespace daisy
   6:../../libDaisy//src/dev/codec_pcm3060.h **** {
   7:../../libDaisy//src/dev/codec_pcm3060.h **** /**
   8:../../libDaisy//src/dev/codec_pcm3060.h ****  * @brief Driver for the TI PCM3060 Audio Codec.
   9:../../libDaisy//src/dev/codec_pcm3060.h ****  * @addtogroup codec
  10:../../libDaisy//src/dev/codec_pcm3060.h ****  * 
  11:../../libDaisy//src/dev/codec_pcm3060.h ****  * For now this is a limited interface that uses I2C to communicate with the PCM3060
  12:../../libDaisy//src/dev/codec_pcm3060.h ****  * The device can also be accessed with SPI, which is not yet supported.
  13:../../libDaisy//src/dev/codec_pcm3060.h ****  * 
  14:../../libDaisy//src/dev/codec_pcm3060.h ****  * For now all registers are set to their defaults, and the Init function will 
  15:../../libDaisy//src/dev/codec_pcm3060.h ****  * perform a MRST and SRST before setting the format to 24bit LJ, and disabling 
  16:../../libDaisy//src/dev/codec_pcm3060.h ****  * power save for both the ADC and DAC.
  17:../../libDaisy//src/dev/codec_pcm3060.h ****  *
  18:../../libDaisy//src/dev/codec_pcm3060.h ****  */
  19:../../libDaisy//src/dev/codec_pcm3060.h **** class Pcm3060
  20:../../libDaisy//src/dev/codec_pcm3060.h **** {
  21:../../libDaisy//src/dev/codec_pcm3060.h ****   public:
  22:../../libDaisy//src/dev/codec_pcm3060.h ****     enum class Result
  23:../../libDaisy//src/dev/codec_pcm3060.h ****     {
  24:../../libDaisy//src/dev/codec_pcm3060.h ****         OK,
  25:../../libDaisy//src/dev/codec_pcm3060.h ****         ERR,
  26:../../libDaisy//src/dev/codec_pcm3060.h ****     };
  27:../../libDaisy//src/dev/codec_pcm3060.h **** 
ARM GAS  /var/folders/hl/qgbwny5j0fd895c2c41bk3tw0000gp/T//cc63D1lp.s 			page 5


  28:../../libDaisy//src/dev/codec_pcm3060.h ****     Pcm3060() {}
  29:../../libDaisy//src/dev/codec_pcm3060.h ****     ~Pcm3060() {}
  74              		.loc 4 29 5 is_stmt 1 view .LVU7
  75              		.loc 4 29 5 is_stmt 0 view .LVU8
  76              	.LBE531:
  77              	.LBB532:
  78              	.LBI532:
  79              		.file 5 "../../libDaisy//src/hid/usb.h"
   1:../../libDaisy//src/hid/usb.h **** #pragma once
   2:../../libDaisy//src/hid/usb.h **** #ifndef DSY_HID_USB_H
   3:../../libDaisy//src/hid/usb.h **** #define DSY_HID_USB_H
   4:../../libDaisy//src/hid/usb.h **** #include <stdint.h>
   5:../../libDaisy//src/hid/usb.h **** #include <stdlib.h>
   6:../../libDaisy//src/hid/usb.h **** 
   7:../../libDaisy//src/hid/usb.h **** namespace daisy
   8:../../libDaisy//src/hid/usb.h **** /** @addtogroup human_interface
   9:../../libDaisy//src/hid/usb.h ****     @{
  10:../../libDaisy//src/hid/usb.h **** */
  11:../../libDaisy//src/hid/usb.h **** 
  12:../../libDaisy//src/hid/usb.h **** {
  13:../../libDaisy//src/hid/usb.h **** /** 
  14:../../libDaisy//src/hid/usb.h ****     @brief Interface for initializing and using the USB Peripherals on the daisy
  15:../../libDaisy//src/hid/usb.h ****     @author Stephen Hensley
  16:../../libDaisy//src/hid/usb.h ****     @date December 2019
  17:../../libDaisy//src/hid/usb.h **** */
  18:../../libDaisy//src/hid/usb.h **** class UsbHandle
  19:../../libDaisy//src/hid/usb.h **** {
  20:../../libDaisy//src/hid/usb.h ****   public:
  21:../../libDaisy//src/hid/usb.h ****     /** Return values for USBHandle Functions */
  22:../../libDaisy//src/hid/usb.h ****     enum class Result
  23:../../libDaisy//src/hid/usb.h ****     {
  24:../../libDaisy//src/hid/usb.h ****         OK,
  25:../../libDaisy//src/hid/usb.h ****         ERR,
  26:../../libDaisy//src/hid/usb.h ****     };
  27:../../libDaisy//src/hid/usb.h **** 
  28:../../libDaisy//src/hid/usb.h ****     /** Specified which of the two USB Peripherals to initialize. */
  29:../../libDaisy//src/hid/usb.h ****     enum UsbPeriph
  30:../../libDaisy//src/hid/usb.h ****     {
  31:../../libDaisy//src/hid/usb.h ****         FS_INTERNAL, /**< Internal pin */
  32:../../libDaisy//src/hid/usb.h ****         FS_EXTERNAL, /**< FS External D+ pin is Pin 38 (GPIO32). FS External D- pin is Pin 37 (GPIO
  33:../../libDaisy//src/hid/usb.h ****         FS_BOTH,     /**< Both */
  34:../../libDaisy//src/hid/usb.h ****     };
  35:../../libDaisy//src/hid/usb.h **** 
  36:../../libDaisy//src/hid/usb.h **** 
  37:../../libDaisy//src/hid/usb.h ****     /** Function called upon reception of a buffer */
  38:../../libDaisy//src/hid/usb.h ****     typedef void (*ReceiveCallback)(uint8_t* buff, uint32_t* len);
  39:../../libDaisy//src/hid/usb.h **** 
  40:../../libDaisy//src/hid/usb.h ****     UsbHandle() {}
  41:../../libDaisy//src/hid/usb.h **** 
  42:../../libDaisy//src/hid/usb.h ****     ~UsbHandle() {}
  80              		.loc 5 42 5 is_stmt 1 view .LVU9
  81              		.loc 5 42 5 is_stmt 0 view .LVU10
  82              	.LBE532:
  83              	.LBB533:
  84              	.LBI533:
  85              		.file 6 "../../libDaisy//src/per/adc.h"
   1:../../libDaisy//src/per/adc.h **** #pragma once
ARM GAS  /var/folders/hl/qgbwny5j0fd895c2c41bk3tw0000gp/T//cc63D1lp.s 			page 6


   2:../../libDaisy//src/per/adc.h **** #ifndef DSY_ADC_H
   3:../../libDaisy//src/per/adc.h **** #define DSY_ADC_H /**< Macro */
   4:../../libDaisy//src/per/adc.h **** #include <stdint.h>
   5:../../libDaisy//src/per/adc.h **** #include <stdlib.h>
   6:../../libDaisy//src/per/adc.h **** #include "daisy_core.h"
   7:../../libDaisy//src/per/adc.h **** #include "per/gpio.h"
   8:../../libDaisy//src/per/adc.h **** 
   9:../../libDaisy//src/per/adc.h **** #define DSY_ADC_MAX_CHANNELS 16 /**< Maximum number of ADC channels */
  10:../../libDaisy//src/per/adc.h **** 
  11:../../libDaisy//src/per/adc.h **** namespace daisy
  12:../../libDaisy//src/per/adc.h **** {
  13:../../libDaisy//src/per/adc.h **** /** @addtogroup per_analog
  14:../../libDaisy//src/per/adc.h ****     @{
  15:../../libDaisy//src/per/adc.h **** */
  16:../../libDaisy//src/per/adc.h **** 
  17:../../libDaisy//src/per/adc.h **** /* While there may not be many configuration options here,
  18:../../libDaisy//src/per/adc.h **** using a struct like this allows us to add more configuration
  19:../../libDaisy//src/per/adc.h **** later without breaking existing functionality.
  20:../../libDaisy//src/per/adc.h **** */
  21:../../libDaisy//src/per/adc.h **** 
  22:../../libDaisy//src/per/adc.h **** /** @brief   Configuration Structure for an ADC Channel 
  23:../../libDaisy//src/per/adc.h ****  *  @details This can be used to configure a a single input, 
  24:../../libDaisy//src/per/adc.h ****  *           or a multiplexed input, allowing up to 8 inputs on 
  25:../../libDaisy//src/per/adc.h ****  *           one channel.
  26:../../libDaisy//src/per/adc.h ****  *  @note    Sharing data lines to multiple muxes _is_ possible, but
  27:../../libDaisy//src/per/adc.h ****  *           each channel sharing data lines must be set to the maximum
  28:../../libDaisy//src/per/adc.h ****  *           number of channels, even if some multiplexers have fewer
  29:../../libDaisy//src/per/adc.h ****  *           inputs connected.
  30:../../libDaisy//src/per/adc.h **** */
  31:../../libDaisy//src/per/adc.h **** struct AdcChannelConfig
  32:../../libDaisy//src/per/adc.h **** {
  33:../../libDaisy//src/per/adc.h ****     /** Which pin to use for multiplexing */
  34:../../libDaisy//src/per/adc.h ****     enum MuxPin
  35:../../libDaisy//src/per/adc.h ****     {
  36:../../libDaisy//src/per/adc.h ****         MUX_SEL_0,    /**< & */
  37:../../libDaisy//src/per/adc.h ****         MUX_SEL_1,    /**< & */
  38:../../libDaisy//src/per/adc.h ****         MUX_SEL_2,    /**< & */
  39:../../libDaisy//src/per/adc.h ****         MUX_SEL_LAST, /**< & */
  40:../../libDaisy//src/per/adc.h ****     };
  41:../../libDaisy//src/per/adc.h **** 
  42:../../libDaisy//src/per/adc.h ****     /** Initializes a single ADC pin as an ADC. 
  43:../../libDaisy//src/per/adc.h ****     \param pin Pin to init.
  44:../../libDaisy//src/per/adc.h ****      */
  45:../../libDaisy//src/per/adc.h ****     void InitSingle(dsy_gpio_pin pin);
  46:../../libDaisy//src/per/adc.h **** 
  47:../../libDaisy//src/per/adc.h ****     /** 
  48:../../libDaisy//src/per/adc.h ****     Initializes a single ADC pin as a Multiplexed ADC.
  49:../../libDaisy//src/per/adc.h ****     Requires a CD405X Multiplexer connected to the pin.
  50:../../libDaisy//src/per/adc.h ****     You only need to supply the mux pins that are required,
  51:../../libDaisy//src/per/adc.h ****     e.g. a 4052 mux would only require mux_0 and mux_1.
  52:../../libDaisy//src/per/adc.h ****     Internal Callbacks handle the pin addressing.
  53:../../libDaisy//src/per/adc.h ****     \param mux_channels must be 1-8
  54:../../libDaisy//src/per/adc.h ****     \param mux_0 First mux pin
  55:../../libDaisy//src/per/adc.h ****     \param mux_1 Second mux pin
  56:../../libDaisy//src/per/adc.h ****     \param mux_2 Third mux pin
  57:../../libDaisy//src/per/adc.h ****     \param adc_pin &
  58:../../libDaisy//src/per/adc.h ****     */
ARM GAS  /var/folders/hl/qgbwny5j0fd895c2c41bk3tw0000gp/T//cc63D1lp.s 			page 7


  59:../../libDaisy//src/per/adc.h ****     void InitMux(dsy_gpio_pin adc_pin,
  60:../../libDaisy//src/per/adc.h ****                  size_t       mux_channels,
  61:../../libDaisy//src/per/adc.h ****                  dsy_gpio_pin mux_0,
  62:../../libDaisy//src/per/adc.h ****                  dsy_gpio_pin mux_1 = {DSY_GPIOX, 0},
  63:../../libDaisy//src/per/adc.h ****                  dsy_gpio_pin mux_2 = {DSY_GPIOX, 0});
  64:../../libDaisy//src/per/adc.h **** 
  65:../../libDaisy//src/per/adc.h ****     dsy_gpio pin_;                   /**< & */
  66:../../libDaisy//src/per/adc.h ****     dsy_gpio mux_pin_[MUX_SEL_LAST]; /**< & */
  67:../../libDaisy//src/per/adc.h ****     uint8_t  mux_channels_;          /**< & */
  68:../../libDaisy//src/per/adc.h **** };
  69:../../libDaisy//src/per/adc.h **** 
  70:../../libDaisy//src/per/adc.h **** /**
  71:../../libDaisy//src/per/adc.h ****    @brief Handler for analog to digital conversion
  72:../../libDaisy//src/per/adc.h **** */
  73:../../libDaisy//src/per/adc.h **** class AdcHandle
  74:../../libDaisy//src/per/adc.h **** {
  75:../../libDaisy//src/per/adc.h ****   public:
  76:../../libDaisy//src/per/adc.h ****     /** Supported oversampling amounts */
  77:../../libDaisy//src/per/adc.h ****     enum OverSampling
  78:../../libDaisy//src/per/adc.h ****     {
  79:../../libDaisy//src/per/adc.h ****         OVS_NONE, /**< & */
  80:../../libDaisy//src/per/adc.h ****         OVS_4,    /**< & */
  81:../../libDaisy//src/per/adc.h ****         OVS_8,    /**< & */
  82:../../libDaisy//src/per/adc.h ****         OVS_16,   /**< & */
  83:../../libDaisy//src/per/adc.h ****         OVS_32,   /**< & */
  84:../../libDaisy//src/per/adc.h ****         OVS_64,   /**< & */
  85:../../libDaisy//src/per/adc.h ****         OVS_128,  /**< & */
  86:../../libDaisy//src/per/adc.h ****         OVS_256,  /**< & */
  87:../../libDaisy//src/per/adc.h ****         OVS_512,  /**< & */
  88:../../libDaisy//src/per/adc.h ****         OVS_1024, /**< & */
  89:../../libDaisy//src/per/adc.h ****         OVS_LAST, /**< & */
  90:../../libDaisy//src/per/adc.h ****     };
  91:../../libDaisy//src/per/adc.h **** 
  92:../../libDaisy//src/per/adc.h ****     AdcHandle() {}
  93:../../libDaisy//src/per/adc.h ****     ~AdcHandle() {}
  86              		.loc 6 93 5 is_stmt 1 view .LVU11
  87              		.loc 6 93 5 is_stmt 0 view .LVU12
  88              	.LBE533:
  89              	.LBB534:
  90              	.LBI534:
  91              		.file 7 "../../libDaisy//src/hid/audio.h"
   1:../../libDaisy//src/hid/audio.h **** #ifndef DSY_AUDIO_H
   2:../../libDaisy//src/hid/audio.h **** #define DSY_AUDIO_H /**< & */
   3:../../libDaisy//src/hid/audio.h **** 
   4:../../libDaisy//src/hid/audio.h **** #include "per/sai.h"
   5:../../libDaisy//src/hid/audio.h **** 
   6:../../libDaisy//src/hid/audio.h **** namespace daisy
   7:../../libDaisy//src/hid/audio.h **** {
   8:../../libDaisy//src/hid/audio.h **** /** @brief Audio Engine Handle
   9:../../libDaisy//src/hid/audio.h ****  *  @ingroup audio 
  10:../../libDaisy//src/hid/audio.h ****  *  @details This class allows for higher level access to an audio engine.
  11:../../libDaisy//src/hid/audio.h ****  *           If you're using a SOM like the DaisySeed or DaisyPatchSM (or any 
  12:../../libDaisy//src/hid/audio.h ****  *            board that includes one of those objects) then the intialization
  13:../../libDaisy//src/hid/audio.h ****  *            is already taken  care of.
  14:../../libDaisy//src/hid/audio.h ****  *           If you're setting up your own custom hardware, or need to make changes
  15:../../libDaisy//src/hid/audio.h ****  *           you will have to take the following steps:
  16:../../libDaisy//src/hid/audio.h ****  *             1. Create and Initialize an SaiHandle or two depending on your requirements
ARM GAS  /var/folders/hl/qgbwny5j0fd895c2c41bk3tw0000gp/T//cc63D1lp.s 			page 8


  17:../../libDaisy//src/hid/audio.h ****  *             2. Initialize the Audio Handle with the desired settings and the Initialized SaiHand
  18:../../libDaisy//src/hid/audio.h ****  *             3. If the connected codec requires special configuration or initialization, do so
  19:../../libDaisy//src/hid/audio.h ****  *             4. Write a callback method using either the AudioCallback or the InterleavingAudioCa
  20:../../libDaisy//src/hid/audio.h ****  *             5. Start the Audio using one of the StartAudio function
  21:../../libDaisy//src/hid/audio.h ****  */
  22:../../libDaisy//src/hid/audio.h **** class AudioHandle
  23:../../libDaisy//src/hid/audio.h **** {
  24:../../libDaisy//src/hid/audio.h ****   public:
  25:../../libDaisy//src/hid/audio.h ****     /** Manually configurable details about the Audio Engine */
  26:../../libDaisy//src/hid/audio.h ****     /** TODO: Figure out how to get samplerate in here. */
  27:../../libDaisy//src/hid/audio.h ****     struct Config
  28:../../libDaisy//src/hid/audio.h ****     {
  29:../../libDaisy//src/hid/audio.h ****         /** number of samples to process per callback */
  30:../../libDaisy//src/hid/audio.h ****         size_t blocksize;
  31:../../libDaisy//src/hid/audio.h **** 
  32:../../libDaisy//src/hid/audio.h ****         /**< Sample rate of audio */
  33:../../libDaisy//src/hid/audio.h ****         SaiHandle::Config::SampleRate samplerate;
  34:../../libDaisy//src/hid/audio.h **** 
  35:../../libDaisy//src/hid/audio.h ****         /** factor for adjustment before and after callback for hardware that may have extra headro
  36:../../libDaisy//src/hid/audio.h ****         float postgain;
  37:../../libDaisy//src/hid/audio.h **** 
  38:../../libDaisy//src/hid/audio.h ****         /** factor for additional one-sided compensation to audio path for hardware that may
  39:../../libDaisy//src/hid/audio.h ****          *  have unequal input/output ranges
  40:../../libDaisy//src/hid/audio.h ****          */
  41:../../libDaisy//src/hid/audio.h ****         float output_compensation;
  42:../../libDaisy//src/hid/audio.h **** 
  43:../../libDaisy//src/hid/audio.h ****         /** Sets default values for config struct */
  44:../../libDaisy//src/hid/audio.h ****         Config()
  45:../../libDaisy//src/hid/audio.h ****         : blocksize(48),
  46:../../libDaisy//src/hid/audio.h ****           samplerate(SaiHandle::Config::SampleRate::SAI_48KHZ),
  47:../../libDaisy//src/hid/audio.h ****           postgain(1.f),
  48:../../libDaisy//src/hid/audio.h ****           output_compensation(1.f)
  49:../../libDaisy//src/hid/audio.h ****         {
  50:../../libDaisy//src/hid/audio.h ****         }
  51:../../libDaisy//src/hid/audio.h ****     };
  52:../../libDaisy//src/hid/audio.h **** 
  53:../../libDaisy//src/hid/audio.h ****     enum class Result
  54:../../libDaisy//src/hid/audio.h ****     {
  55:../../libDaisy//src/hid/audio.h ****         OK,
  56:../../libDaisy//src/hid/audio.h ****         ERR,
  57:../../libDaisy//src/hid/audio.h ****     };
  58:../../libDaisy//src/hid/audio.h **** 
  59:../../libDaisy//src/hid/audio.h ****     /** Non-Interleaving input buffer
  60:../../libDaisy//src/hid/audio.h ****      * Buffer arranged by float[chn][sample] 
  61:../../libDaisy//src/hid/audio.h ****      * const so that the user can't modify the input
  62:../../libDaisy//src/hid/audio.h ****      */
  63:../../libDaisy//src/hid/audio.h ****     typedef const float* const* InputBuffer;
  64:../../libDaisy//src/hid/audio.h **** 
  65:../../libDaisy//src/hid/audio.h ****     /** Non-Interleaving output buffer
  66:../../libDaisy//src/hid/audio.h ****      * Arranged by float[chn][sample] 
  67:../../libDaisy//src/hid/audio.h ****      */
  68:../../libDaisy//src/hid/audio.h ****     typedef float** OutputBuffer;
  69:../../libDaisy//src/hid/audio.h **** 
  70:../../libDaisy//src/hid/audio.h ****     /** Type for a Non-Interleaving audio callback 
  71:../../libDaisy//src/hid/audio.h ****      * Non-Interleaving audio callbacks in daisy will be of this type
  72:../../libDaisy//src/hid/audio.h ****      */
  73:../../libDaisy//src/hid/audio.h ****     typedef void (*AudioCallback)(InputBuffer  in,
ARM GAS  /var/folders/hl/qgbwny5j0fd895c2c41bk3tw0000gp/T//cc63D1lp.s 			page 9


  74:../../libDaisy//src/hid/audio.h ****                                   OutputBuffer out,
  75:../../libDaisy//src/hid/audio.h ****                                   size_t       size);
  76:../../libDaisy//src/hid/audio.h **** 
  77:../../libDaisy//src/hid/audio.h ****     /** Interleaving Input buffer
  78:../../libDaisy//src/hid/audio.h ****      ** audio is prepared as { L0, R0, L1, R1, . . . LN, RN }]
  79:../../libDaisy//src/hid/audio.h ****      ** this is const, as the user shouldn't modify it
  80:../../libDaisy//src/hid/audio.h ****     */
  81:../../libDaisy//src/hid/audio.h ****     typedef const float* InterleavingInputBuffer;
  82:../../libDaisy//src/hid/audio.h **** 
  83:../../libDaisy//src/hid/audio.h ****     /** Interleaving Output buffer 
  84:../../libDaisy//src/hid/audio.h ****      ** audio is prepared as { L0, R0, L1, R1, . . . LN, RN }
  85:../../libDaisy//src/hid/audio.h ****     */
  86:../../libDaisy//src/hid/audio.h ****     typedef float* InterleavingOutputBuffer;
  87:../../libDaisy//src/hid/audio.h **** 
  88:../../libDaisy//src/hid/audio.h ****     /** Interleaving Audio Callback 
  89:../../libDaisy//src/hid/audio.h ****      * Interleaving audio callbacks in daisy must be of this type
  90:../../libDaisy//src/hid/audio.h ****      */
  91:../../libDaisy//src/hid/audio.h ****     typedef void (*InterleavingAudioCallback)(InterleavingInputBuffer  in,
  92:../../libDaisy//src/hid/audio.h ****                                               InterleavingOutputBuffer out,
  93:../../libDaisy//src/hid/audio.h ****                                               size_t                   size);
  94:../../libDaisy//src/hid/audio.h **** 
  95:../../libDaisy//src/hid/audio.h ****     AudioHandle() : pimpl_(nullptr) {}
  96:../../libDaisy//src/hid/audio.h ****     ~AudioHandle() {}
  92              		.loc 7 96 5 is_stmt 1 view .LVU13
  93              		.loc 7 96 5 is_stmt 0 view .LVU14
  94              	.LBE534:
  95              	.LBB535:
  96              	.LBI535:
  97              		.file 8 "../../libDaisy//src/sys/system.h"
   1:../../libDaisy//src/sys/system.h **** #ifndef DSY_SYSTEM_H
   2:../../libDaisy//src/sys/system.h **** #define DSY_SYSTEM_H
   3:../../libDaisy//src/sys/system.h **** 
   4:../../libDaisy//src/sys/system.h **** #ifndef UNIT_TEST // for unit tests, a dummy implementation is provided below
   5:../../libDaisy//src/sys/system.h **** 
   6:../../libDaisy//src/sys/system.h **** #include <cstdint>
   7:../../libDaisy//src/sys/system.h **** #include "per/tim.h"
   8:../../libDaisy//src/sys/system.h **** 
   9:../../libDaisy//src/sys/system.h **** namespace daisy
  10:../../libDaisy//src/sys/system.h **** {
  11:../../libDaisy//src/sys/system.h **** /** A handle for interacting with the Core System. 
  12:../../libDaisy//src/sys/system.h ****  ** This includes the Clock tree, MPU, global DMA initialization,
  13:../../libDaisy//src/sys/system.h ****  ** cache handling, and any other necessary global initiailzation
  14:../../libDaisy//src/sys/system.h ****  **
  15:../../libDaisy//src/sys/system.h ****  ** @author shensley
  16:../../libDaisy//src/sys/system.h ****  ** @ingroup system
  17:../../libDaisy//src/sys/system.h ****  */
  18:../../libDaisy//src/sys/system.h **** class System
  19:../../libDaisy//src/sys/system.h **** {
  20:../../libDaisy//src/sys/system.h ****   public:
  21:../../libDaisy//src/sys/system.h ****     /** Contains settings for initializing the System */
  22:../../libDaisy//src/sys/system.h ****     struct Config
  23:../../libDaisy//src/sys/system.h ****     {
  24:../../libDaisy//src/sys/system.h ****         /** Specifies the system clock frequency that feeds APB/AHB clocks, etc. */
  25:../../libDaisy//src/sys/system.h ****         enum class SysClkFreq
  26:../../libDaisy//src/sys/system.h ****         {
  27:../../libDaisy//src/sys/system.h ****             FREQ_400MHZ,
  28:../../libDaisy//src/sys/system.h ****             FREQ_480MHZ,
ARM GAS  /var/folders/hl/qgbwny5j0fd895c2c41bk3tw0000gp/T//cc63D1lp.s 			page 10


  29:../../libDaisy//src/sys/system.h ****         };
  30:../../libDaisy//src/sys/system.h **** 
  31:../../libDaisy//src/sys/system.h ****         /** Method to call on the struct to set to defaults
  32:../../libDaisy//src/sys/system.h ****          ** CPU Freq set to 400MHz
  33:../../libDaisy//src/sys/system.h ****          ** Cache Enabled 
  34:../../libDaisy//src/sys/system.h ****          ** */
  35:../../libDaisy//src/sys/system.h ****         void Defaults()
  36:../../libDaisy//src/sys/system.h ****         {
  37:../../libDaisy//src/sys/system.h ****             cpu_freq    = SysClkFreq::FREQ_400MHZ;
  38:../../libDaisy//src/sys/system.h ****             use_dcache  = true;
  39:../../libDaisy//src/sys/system.h ****             use_icache  = true;
  40:../../libDaisy//src/sys/system.h ****             skip_clocks = false;
  41:../../libDaisy//src/sys/system.h ****         }
  42:../../libDaisy//src/sys/system.h **** 
  43:../../libDaisy//src/sys/system.h ****         /** Method to call on the struct to set to boost mode:
  44:../../libDaisy//src/sys/system.h ****          ** CPU Freq set to 480MHz
  45:../../libDaisy//src/sys/system.h ****          ** Cache Enabled 
  46:../../libDaisy//src/sys/system.h ****          ** */
  47:../../libDaisy//src/sys/system.h ****         void Boost()
  48:../../libDaisy//src/sys/system.h ****         {
  49:../../libDaisy//src/sys/system.h ****             cpu_freq    = SysClkFreq::FREQ_480MHZ;
  50:../../libDaisy//src/sys/system.h ****             use_dcache  = true;
  51:../../libDaisy//src/sys/system.h ****             use_icache  = true;
  52:../../libDaisy//src/sys/system.h ****             skip_clocks = false;
  53:../../libDaisy//src/sys/system.h ****         }
  54:../../libDaisy//src/sys/system.h **** 
  55:../../libDaisy//src/sys/system.h ****         SysClkFreq cpu_freq;
  56:../../libDaisy//src/sys/system.h ****         bool       use_dcache;
  57:../../libDaisy//src/sys/system.h ****         bool       use_icache;
  58:../../libDaisy//src/sys/system.h ****         bool       skip_clocks;
  59:../../libDaisy//src/sys/system.h ****     };
  60:../../libDaisy//src/sys/system.h **** 
  61:../../libDaisy//src/sys/system.h ****     /** Describes the different regions of memory available to the Daisy
  62:../../libDaisy//src/sys/system.h ****      * 
  63:../../libDaisy//src/sys/system.h ****      */
  64:../../libDaisy//src/sys/system.h ****     enum MemoryRegion
  65:../../libDaisy//src/sys/system.h ****     {
  66:../../libDaisy//src/sys/system.h ****         INTERNAL_FLASH = 0,
  67:../../libDaisy//src/sys/system.h ****         ITCMRAM,
  68:../../libDaisy//src/sys/system.h ****         DTCMRAM,
  69:../../libDaisy//src/sys/system.h ****         SRAM_D1,
  70:../../libDaisy//src/sys/system.h ****         SRAM_D2,
  71:../../libDaisy//src/sys/system.h ****         SRAM_D3,
  72:../../libDaisy//src/sys/system.h ****         SDRAM,
  73:../../libDaisy//src/sys/system.h ****         QSPI,
  74:../../libDaisy//src/sys/system.h ****         INVALID_ADDRESS,
  75:../../libDaisy//src/sys/system.h ****     };
  76:../../libDaisy//src/sys/system.h **** 
  77:../../libDaisy//src/sys/system.h ****     System() {}
  78:../../libDaisy//src/sys/system.h ****     ~System() {}
  98              		.loc 8 78 5 is_stmt 1 view .LVU15
  99              		.loc 8 78 5 is_stmt 0 view .LVU16
 100              	.LBE535:
 101              		.loc 2 65 26 view .LVU17
 102 0000 7047     		bx	lr
 103              		.cfi_endproc
 104              	.LFE2529:
ARM GAS  /var/folders/hl/qgbwny5j0fd895c2c41bk3tw0000gp/T//cc63D1lp.s 			page 11


 106              		.weak	_ZN5daisy8patch_sm12DaisyPatchSMD1Ev
 107              		.thumb_set _ZN5daisy8patch_sm12DaisyPatchSMD1Ev,_ZN5daisy8patch_sm12DaisyPatchSMD2Ev
 108 0002 00BF     		.section	.text._ZN7daisysp8ReverbScD2Ev,"axG",%progbits,_ZN7daisysp8ReverbScD5Ev,comdat
 109              		.align	1
 110              		.p2align 2,,3
 111              		.weak	_ZN7daisysp8ReverbScD2Ev
 112              		.syntax unified
 113              		.thumb
 114              		.thumb_func
 115              		.fpu fpv5-d16
 117              	_ZN7daisysp8ReverbScD2Ev:
 118              	.LVL2:
 119              	.LFB4427:
 120              		.file 9 "../../DaisySP//Source/Effects/reverbsc.h"
   1:../../DaisySP//Source/Effects/reverbsc.h **** #pragma once
   2:../../DaisySP//Source/Effects/reverbsc.h **** #ifndef DSYSP_REVERBSC_H
   3:../../DaisySP//Source/Effects/reverbsc.h **** #define DSYSP_REVERBSC_H
   4:../../DaisySP//Source/Effects/reverbsc.h **** 
   5:../../DaisySP//Source/Effects/reverbsc.h **** #define DSY_REVERBSC_MAX_SIZE 98936
   6:../../DaisySP//Source/Effects/reverbsc.h **** 
   7:../../DaisySP//Source/Effects/reverbsc.h **** namespace daisysp
   8:../../DaisySP//Source/Effects/reverbsc.h **** {
   9:../../DaisySP//Source/Effects/reverbsc.h **** /**Delay line for internal reverb use
  10:../../DaisySP//Source/Effects/reverbsc.h **** */
  11:../../DaisySP//Source/Effects/reverbsc.h **** typedef struct
  12:../../DaisySP//Source/Effects/reverbsc.h **** {
  13:../../DaisySP//Source/Effects/reverbsc.h ****     int    write_pos;         /**< write position */
  14:../../DaisySP//Source/Effects/reverbsc.h ****     int    buffer_size;       /**< buffer size */
  15:../../DaisySP//Source/Effects/reverbsc.h ****     int    read_pos;          /**< read position */
  16:../../DaisySP//Source/Effects/reverbsc.h ****     int    read_pos_frac;     /**< fractional component of read pos */
  17:../../DaisySP//Source/Effects/reverbsc.h ****     int    read_pos_frac_inc; /**< increment for fractional */
  18:../../DaisySP//Source/Effects/reverbsc.h ****     int    dummy;             /**<  dummy var */
  19:../../DaisySP//Source/Effects/reverbsc.h ****     int    seed_val;          /**< randseed */
  20:../../DaisySP//Source/Effects/reverbsc.h ****     int    rand_line_cnt;     /**< number of random lines */
  21:../../DaisySP//Source/Effects/reverbsc.h ****     float  filter_state;      /**< state of filter */
  22:../../DaisySP//Source/Effects/reverbsc.h ****     float *buf;               /**< buffer ptr */
  23:../../DaisySP//Source/Effects/reverbsc.h **** } ReverbScDl;
  24:../../DaisySP//Source/Effects/reverbsc.h **** 
  25:../../DaisySP//Source/Effects/reverbsc.h **** /** Stereo Reverb
  26:../../DaisySP//Source/Effects/reverbsc.h **** 
  27:../../DaisySP//Source/Effects/reverbsc.h **** Reverb SC:               Ported from csound/soundpipe
  28:../../DaisySP//Source/Effects/reverbsc.h **** 
  29:../../DaisySP//Source/Effects/reverbsc.h **** Original author(s):        Sean Costello, Istvan Varga
  30:../../DaisySP//Source/Effects/reverbsc.h **** 
  31:../../DaisySP//Source/Effects/reverbsc.h **** Year:                    1999, 2005
  32:../../DaisySP//Source/Effects/reverbsc.h **** 
  33:../../DaisySP//Source/Effects/reverbsc.h **** Ported to soundpipe by:  Paul Batchelor
  34:../../DaisySP//Source/Effects/reverbsc.h **** 
  35:../../DaisySP//Source/Effects/reverbsc.h **** Ported by:                Stephen Hensley
  36:../../DaisySP//Source/Effects/reverbsc.h **** */
  37:../../DaisySP//Source/Effects/reverbsc.h **** class ReverbSc
  38:../../DaisySP//Source/Effects/reverbsc.h **** {
  39:../../DaisySP//Source/Effects/reverbsc.h ****   public:
  40:../../DaisySP//Source/Effects/reverbsc.h ****     ReverbSc() {}
  41:../../DaisySP//Source/Effects/reverbsc.h ****     ~ReverbSc() {}
 121              		.loc 9 41 5 is_stmt 1 view -0
 122              		.cfi_startproc
ARM GAS  /var/folders/hl/qgbwny5j0fd895c2c41bk3tw0000gp/T//cc63D1lp.s 			page 12


 123              		@ args = 0, pretend = 0, frame = 0
 124              		@ frame_needed = 0, uses_anonymous_args = 0
 125              		@ link register save eliminated.
 126              		.loc 9 41 18 is_stmt 0 view .LVU19
 127 0000 7047     		bx	lr
 128              		.cfi_endproc
 129              	.LFE4427:
 131              		.weak	_ZN7daisysp8ReverbScD1Ev
 132              		.thumb_set _ZN7daisysp8ReverbScD1Ev,_ZN7daisysp8ReverbScD2Ev
 133 0002 00BF     		.section	.text.__tcf_0,"ax",%progbits
 134              		.align	1
 135              		.p2align 2,,3
 136              		.syntax unified
 137              		.thumb
 138              		.thumb_func
 139              		.fpu fpv5-d16
 141              	__tcf_0:
 142              	.LFB5373:
 143              		.file 10 "test.cpp"
   1:test.cpp      **** #include "daisy_patch_sm.h"
   2:test.cpp      **** #include "daisysp.h"
   3:test.cpp      **** #include "daisy_bed.h"
   4:test.cpp      **** #include "Grain.h"
   5:test.cpp      **** 
   6:test.cpp      **** using namespace daisy;
   7:test.cpp      **** using namespace patch_sm;
   8:test.cpp      **** using namespace daisysp;
   9:test.cpp      **** 
  10:test.cpp      **** const float kOnePoleCvCoeff     = 0.5f;                     // time = 1 / (sampleRate * coeff) so ~
  11:test.cpp      **** const int   kBufferDuration     = 15;                       // In seconds
  12:test.cpp      **** const int   kBufferSize         = 48000 * kBufferDuration;  // Assume 48kHz sample rate
  13:test.cpp      **** const int kGrainCount = 10;
  14:test.cpp      **** 
  15:test.cpp      **** static graindelay::Grain 	grains[kGrainCount];
 144              		.loc 10 15 27 is_stmt 1 view -0
 145              		.cfi_startproc
 146              		@ args = 0, pretend = 0, frame = 0
 147              		@ frame_needed = 0, uses_anonymous_args = 0
 148              		@ link register save eliminated.
 149              		.loc 10 15 27 is_stmt 0 view .LVU21
 150 0000 7047     		bx	lr
 151              		.cfi_endproc
 152              	.LFE5373:
 154 0002 00BF     		.section	.text._ZN5daisy8patch_sm7InitBedEv,"ax",%progbits
 155              		.align	1
 156              		.p2align 2,,3
 157              		.global	_ZN5daisy8patch_sm7InitBedEv
 158              		.syntax unified
 159              		.thumb
 160              		.thumb_func
 161              		.fpu fpv5-d16
 163              	_ZN5daisy8patch_sm7InitBedEv:
 164              	.LFB4793:
 165              		.file 11 "daisy_bed.h"
   1:daisy_bed.h   **** #pragma once
   2:daisy_bed.h   **** 
   3:daisy_bed.h   **** #include "daisy.h"
ARM GAS  /var/folders/hl/qgbwny5j0fd895c2c41bk3tw0000gp/T//cc63D1lp.s 			page 13


   4:daisy_bed.h   **** #include "daisysp.h"
   5:daisy_bed.h   **** #include "per/gpio.h"
   6:daisy_bed.h   **** #include "daisy_patch_sm.h"
   7:daisy_bed.h   **** 
   8:daisy_bed.h   **** namespace daisy
   9:daisy_bed.h   **** {
  10:daisy_bed.h   **** namespace patch_sm
  11:daisy_bed.h   **** {
  12:daisy_bed.h   ****     // simple stupid led set up
  13:daisy_bed.h   ****     GPIO    gen_led1;
  14:daisy_bed.h   ****     GPIO    gen_led2;
  15:daisy_bed.h   ****     GPIO    cv_led1;
  16:daisy_bed.h   ****     GPIO    cv_led2;
  17:daisy_bed.h   ****     GPIO    gate_in_led1;
  18:daisy_bed.h   ****     GPIO    gate_in_led2;
  19:daisy_bed.h   ****     GPIO    gate_out_led1;
  20:daisy_bed.h   ****     GPIO    gate_out_led2;
  21:daisy_bed.h   **** 
  22:daisy_bed.h   **** 
  23:daisy_bed.h   ****     // generic leds
  24:daisy_bed.h   ****     dsy_gpio_pin oldPinD7 = DaisyPatchSM::D7;
  25:daisy_bed.h   ****     Pin newPinD7 = Pin(static_cast<GPIOPort>(oldPinD7.port), oldPinD7.pin);
  26:daisy_bed.h   ****     dsy_gpio_pin oldPinA9 = DaisyPatchSM::A9;
  27:daisy_bed.h   ****     Pin newPinA9 = Pin(static_cast<GPIOPort>(oldPinA9.port), oldPinA9.pin);
  28:daisy_bed.h   **** 
  29:daisy_bed.h   ****     // cv leds
  30:daisy_bed.h   ****     dsy_gpio_pin oldPinD2 = DaisyPatchSM::D2;
  31:daisy_bed.h   ****     Pin newPinD2 = Pin(static_cast<GPIOPort>(oldPinD2.port), oldPinD2.pin);
  32:daisy_bed.h   ****     dsy_gpio_pin oldPinD1 = DaisyPatchSM::D1;
  33:daisy_bed.h   ****     Pin newPinD1 = Pin(static_cast<GPIOPort>(oldPinD1.port), oldPinD1.pin);
  34:daisy_bed.h   ****     // ^^^ {DSY_GPIOB, 4},  /**< D1  - SPI2 CS */
  35:daisy_bed.h   **** 
  36:daisy_bed.h   ****     // gate leds
  37:daisy_bed.h   ****     dsy_gpio_pin oldPinD3 = DaisyPatchSM::D3;
  38:daisy_bed.h   ****     Pin newPinD3 = Pin(static_cast<GPIOPort>(oldPinD3.port), oldPinD3.pin);
  39:daisy_bed.h   ****     dsy_gpio_pin oldPinD6 = DaisyPatchSM::D6;
  40:daisy_bed.h   ****     Pin newPinD6 = Pin(static_cast<GPIOPort>(oldPinD6.port), oldPinD6.pin);
  41:daisy_bed.h   ****     dsy_gpio_pin oldPinD4 = DaisyPatchSM::D4;
  42:daisy_bed.h   ****     Pin newPinD4 = Pin(static_cast<GPIOPort>(oldPinD4.port), oldPinD4.pin);
  43:daisy_bed.h   ****     dsy_gpio_pin oldPinD5 = DaisyPatchSM::D5;
  44:daisy_bed.h   ****     Pin newPinD5 = Pin(static_cast<GPIOPort>(oldPinD5.port), oldPinD5.pin);
  45:daisy_bed.h   **** 
  46:daisy_bed.h   ****     // remap
  47:daisy_bed.h   ****      
  48:daisy_bed.h   ****     // map buttons
  49:daisy_bed.h   ****     Switch      b1,b2;
  50:daisy_bed.h   **** 
  51:daisy_bed.h   ****     void InitBed(){
 166              		.loc 11 51 19 is_stmt 1 view -0
 167              		.cfi_startproc
 168              		@ args = 0, pretend = 0, frame = 8
 169              		@ frame_needed = 0, uses_anonymous_args = 0
  52:daisy_bed.h   ****         // leds
  53:daisy_bed.h   ****         gen_led1.Init(newPinD7, GPIO::Mode::OUTPUT);
 170              		.loc 11 53 9 view .LVU23
  51:daisy_bed.h   ****         // leds
 171              		.loc 11 51 19 is_stmt 0 view .LVU24
ARM GAS  /var/folders/hl/qgbwny5j0fd895c2c41bk3tw0000gp/T//cc63D1lp.s 			page 14


 172 0000 10B5     		push	{r4, lr}
 173              		.cfi_def_cfa_offset 8
 174              		.cfi_offset 4, -8
 175              		.cfi_offset 14, -4
 176              		.loc 11 53 22 view .LVU25
 177 0002 2D49     		ldr	r1, .L8
  51:daisy_bed.h   ****         // leds
 178              		.loc 11 51 19 view .LVU26
 179 0004 84B0     		sub	sp, sp, #16
 180              		.cfi_def_cfa_offset 24
 181              		.loc 11 53 22 view .LVU27
 182 0006 0024     		movs	r4, #0
 183 0008 0122     		movs	r2, #1
 184 000a 0968     		ldr	r1, [r1]
 185 000c 2346     		mov	r3, r4
 186 000e 2B48     		ldr	r0, .L8+4
 187 0010 0094     		str	r4, [sp]
 188 0012 FFF7FEFF 		bl	_ZN5daisy4GPIO4InitENS_3PinENS0_4ModeENS0_4PullENS0_5SpeedE
 189              	.LVL3:
  54:daisy_bed.h   ****         gen_led2.Init(newPinA9, GPIO::Mode::OUTPUT);
 190              		.loc 11 54 9 is_stmt 1 view .LVU28
 191              		.loc 11 54 22 is_stmt 0 view .LVU29
 192 0016 2A49     		ldr	r1, .L8+8
 193 0018 2346     		mov	r3, r4
 194 001a 0122     		movs	r2, #1
 195 001c 0968     		ldr	r1, [r1]
 196 001e 2948     		ldr	r0, .L8+12
 197 0020 0094     		str	r4, [sp]
 198 0022 FFF7FEFF 		bl	_ZN5daisy4GPIO4InitENS_3PinENS0_4ModeENS0_4PullENS0_5SpeedE
 199              	.LVL4:
  55:daisy_bed.h   ****         cv_led1.Init(newPinD2, GPIO::Mode::OUTPUT);
 200              		.loc 11 55 9 is_stmt 1 view .LVU30
 201              		.loc 11 55 21 is_stmt 0 view .LVU31
 202 0026 2849     		ldr	r1, .L8+16
 203 0028 2346     		mov	r3, r4
 204 002a 0122     		movs	r2, #1
 205 002c 0968     		ldr	r1, [r1]
 206 002e 2748     		ldr	r0, .L8+20
 207 0030 0094     		str	r4, [sp]
 208 0032 FFF7FEFF 		bl	_ZN5daisy4GPIO4InitENS_3PinENS0_4ModeENS0_4PullENS0_5SpeedE
 209              	.LVL5:
  56:daisy_bed.h   ****         cv_led2.Init(newPinD1, GPIO::Mode::OUTPUT);
 210              		.loc 11 56 9 is_stmt 1 view .LVU32
 211              		.loc 11 56 21 is_stmt 0 view .LVU33
 212 0036 2649     		ldr	r1, .L8+24
 213 0038 2346     		mov	r3, r4
 214 003a 0122     		movs	r2, #1
 215 003c 0968     		ldr	r1, [r1]
 216 003e 2548     		ldr	r0, .L8+28
 217 0040 0094     		str	r4, [sp]
 218 0042 FFF7FEFF 		bl	_ZN5daisy4GPIO4InitENS_3PinENS0_4ModeENS0_4PullENS0_5SpeedE
 219              	.LVL6:
  57:daisy_bed.h   ****         gate_in_led1.Init(newPinD3, GPIO::Mode::OUTPUT);
 220              		.loc 11 57 9 is_stmt 1 view .LVU34
 221              		.loc 11 57 26 is_stmt 0 view .LVU35
 222 0046 2449     		ldr	r1, .L8+32
 223 0048 2346     		mov	r3, r4
ARM GAS  /var/folders/hl/qgbwny5j0fd895c2c41bk3tw0000gp/T//cc63D1lp.s 			page 15


 224 004a 0122     		movs	r2, #1
 225 004c 0968     		ldr	r1, [r1]
 226 004e 2348     		ldr	r0, .L8+36
 227 0050 0094     		str	r4, [sp]
 228 0052 FFF7FEFF 		bl	_ZN5daisy4GPIO4InitENS_3PinENS0_4ModeENS0_4PullENS0_5SpeedE
 229              	.LVL7:
  58:daisy_bed.h   ****         gate_in_led2.Init(newPinD5, GPIO::Mode::OUTPUT);
 230              		.loc 11 58 9 is_stmt 1 view .LVU36
 231              		.loc 11 58 26 is_stmt 0 view .LVU37
 232 0056 2249     		ldr	r1, .L8+40
 233 0058 2346     		mov	r3, r4
 234 005a 0122     		movs	r2, #1
 235 005c 0968     		ldr	r1, [r1]
 236 005e 2148     		ldr	r0, .L8+44
 237 0060 0094     		str	r4, [sp]
 238 0062 FFF7FEFF 		bl	_ZN5daisy4GPIO4InitENS_3PinENS0_4ModeENS0_4PullENS0_5SpeedE
 239              	.LVL8:
  59:daisy_bed.h   ****         gate_out_led1.Init(newPinD6, GPIO::Mode::OUTPUT);
 240              		.loc 11 59 9 is_stmt 1 view .LVU38
 241              		.loc 11 59 27 is_stmt 0 view .LVU39
 242 0066 2049     		ldr	r1, .L8+48
 243 0068 2346     		mov	r3, r4
 244 006a 0122     		movs	r2, #1
 245 006c 0968     		ldr	r1, [r1]
 246 006e 1F48     		ldr	r0, .L8+52
 247 0070 0094     		str	r4, [sp]
 248 0072 FFF7FEFF 		bl	_ZN5daisy4GPIO4InitENS_3PinENS0_4ModeENS0_4PullENS0_5SpeedE
 249              	.LVL9:
  60:daisy_bed.h   ****         gate_out_led2.Init(newPinD4, GPIO::Mode::OUTPUT);
 250              		.loc 11 60 9 is_stmt 1 view .LVU40
 251              		.loc 11 60 27 is_stmt 0 view .LVU41
 252 0076 1E49     		ldr	r1, .L8+56
 253 0078 2346     		mov	r3, r4
 254 007a 0122     		movs	r2, #1
 255 007c 0968     		ldr	r1, [r1]
 256 007e 1D48     		ldr	r0, .L8+60
 257 0080 0094     		str	r4, [sp]
 258 0082 FFF7FEFF 		bl	_ZN5daisy4GPIO4InitENS_3PinENS0_4ModeENS0_4PullENS0_5SpeedE
 259              	.LVL10:
  61:daisy_bed.h   **** 
  62:daisy_bed.h   ****         // buttons
  63:daisy_bed.h   ****         b1.Init(DaisyPatchSM::A8);
 260              		.loc 11 63 9 is_stmt 1 view .LVU42
 261              		.loc 11 63 16 is_stmt 0 view .LVU43
 262 0086 1C4B     		ldr	r3, .L8+64
 263 0088 9FED1C0A 		vldr.32	s0, .L8+68
 264 008c 1A78     		ldrb	r2, [r3]	@ zero_extendqisi2
 265 008e 5978     		ldrb	r1, [r3, #1]	@ zero_extendqisi2
 266 0090 1B48     		ldr	r0, .L8+72
 267 0092 42EA0121 		orr	r1, r2, r1, lsl #8
 268 0096 8DED030A 		vstr.32	s0, [sp, #12]	@ int
 269 009a FFF7FEFF 		bl	_ZN5daisy6Switch4InitE12dsy_gpio_pinf
 270              	.LVL11:
  64:daisy_bed.h   ****         b2.Init(DaisyPatchSM::D10);
 271              		.loc 11 64 9 is_stmt 1 view .LVU44
 272              		.loc 11 64 16 is_stmt 0 view .LVU45
 273 009e 194B     		ldr	r3, .L8+76
ARM GAS  /var/folders/hl/qgbwny5j0fd895c2c41bk3tw0000gp/T//cc63D1lp.s 			page 16


 274 00a0 9DED030A 		vldr.32	s0, [sp, #12]	@ int
 275 00a4 1A78     		ldrb	r2, [r3]	@ zero_extendqisi2
 276 00a6 5978     		ldrb	r1, [r3, #1]	@ zero_extendqisi2
 277 00a8 1748     		ldr	r0, .L8+80
 278 00aa 42EA0121 		orr	r1, r2, r1, lsl #8
  65:daisy_bed.h   ****     }
 279              		.loc 11 65 5 view .LVU46
 280 00ae 04B0     		add	sp, sp, #16
 281              		.cfi_def_cfa_offset 8
 282              		@ sp needed
 283 00b0 BDE81040 		pop	{r4, lr}
 284              		.cfi_restore 14
 285              		.cfi_restore 4
 286              		.cfi_def_cfa_offset 0
  64:daisy_bed.h   ****         b2.Init(DaisyPatchSM::D10);
 287              		.loc 11 64 16 view .LVU47
 288 00b4 FFF7FEBF 		b	_ZN5daisy6Switch4InitE12dsy_gpio_pinf
 289              	.LVL12:
 290              	.L9:
 291              		.align	2
 292              	.L8:
 293 00b8 00000000 		.word	.LANCHOR0
 294 00bc 00000000 		.word	.LANCHOR1
 295 00c0 00000000 		.word	.LANCHOR2
 296 00c4 00000000 		.word	.LANCHOR3
 297 00c8 00000000 		.word	.LANCHOR4
 298 00cc 00000000 		.word	.LANCHOR5
 299 00d0 00000000 		.word	.LANCHOR6
 300 00d4 00000000 		.word	.LANCHOR7
 301 00d8 00000000 		.word	.LANCHOR8
 302 00dc 00000000 		.word	.LANCHOR9
 303 00e0 00000000 		.word	.LANCHOR10
 304 00e4 00000000 		.word	.LANCHOR11
 305 00e8 00000000 		.word	.LANCHOR12
 306 00ec 00000000 		.word	.LANCHOR13
 307 00f0 00000000 		.word	.LANCHOR14
 308 00f4 00000000 		.word	.LANCHOR15
 309 00f8 00000000 		.word	_ZN5daisy8patch_sm12DaisyPatchSM2A8E
 310 00fc 00000000 		.word	0
 311 0100 00000000 		.word	.LANCHOR16
 312 0104 00000000 		.word	_ZN5daisy8patch_sm12DaisyPatchSM3D10E
 313 0108 00000000 		.word	.LANCHOR17
 314              		.cfi_endproc
 315              	.LFE4793:
 317              		.section	.text._ZN5daisy8patch_sm6ledOffEv,"ax",%progbits
 318              		.align	1
 319              		.p2align 2,,3
 320              		.global	_ZN5daisy8patch_sm6ledOffEv
 321              		.syntax unified
 322              		.thumb
 323              		.thumb_func
 324              		.fpu fpv5-d16
 326              	_ZN5daisy8patch_sm6ledOffEv:
 327              	.LFB4794:
  66:daisy_bed.h   **** 
  67:daisy_bed.h   ****     void ledOff(){
 328              		.loc 11 67 18 is_stmt 1 view -0
ARM GAS  /var/folders/hl/qgbwny5j0fd895c2c41bk3tw0000gp/T//cc63D1lp.s 			page 17


 329              		.cfi_startproc
 330              		@ args = 0, pretend = 0, frame = 0
 331              		@ frame_needed = 0, uses_anonymous_args = 0
  68:daisy_bed.h   ****         gen_led1.Write(false);
 332              		.loc 11 68 9 view .LVU49
  67:daisy_bed.h   ****         gen_led1.Write(false);
 333              		.loc 11 67 18 is_stmt 0 view .LVU50
 334 0000 08B5     		push	{r3, lr}
 335              		.cfi_def_cfa_offset 8
 336              		.cfi_offset 3, -8
 337              		.cfi_offset 14, -4
 338              		.loc 11 68 23 view .LVU51
 339 0002 0021     		movs	r1, #0
 340 0004 0848     		ldr	r0, .L12
 341 0006 FFF7FEFF 		bl	_ZN5daisy4GPIO5WriteEb
 342              	.LVL13:
  69:daisy_bed.h   ****         gen_led2.Write(false);
 343              		.loc 11 69 9 is_stmt 1 view .LVU52
 344              		.loc 11 69 23 is_stmt 0 view .LVU53
 345 000a 0021     		movs	r1, #0
 346 000c 0748     		ldr	r0, .L12+4
 347 000e FFF7FEFF 		bl	_ZN5daisy4GPIO5WriteEb
 348              	.LVL14:
  70:daisy_bed.h   ****         cv_led1.Write(false);
 349              		.loc 11 70 9 is_stmt 1 view .LVU54
 350              		.loc 11 70 22 is_stmt 0 view .LVU55
 351 0012 0021     		movs	r1, #0
 352 0014 0648     		ldr	r0, .L12+8
 353 0016 FFF7FEFF 		bl	_ZN5daisy4GPIO5WriteEb
 354              	.LVL15:
  71:daisy_bed.h   ****         cv_led2.Write(false);
 355              		.loc 11 71 9 is_stmt 1 view .LVU56
 356              		.loc 11 71 22 is_stmt 0 view .LVU57
 357 001a 0021     		movs	r1, #0
 358 001c 0548     		ldr	r0, .L12+12
  72:daisy_bed.h   ****     }
 359              		.loc 11 72 5 view .LVU58
 360 001e BDE80840 		pop	{r3, lr}
 361              		.cfi_restore 14
 362              		.cfi_restore 3
 363              		.cfi_def_cfa_offset 0
  71:daisy_bed.h   ****         cv_led2.Write(false);
 364              		.loc 11 71 22 view .LVU59
 365 0022 FFF7FEBF 		b	_ZN5daisy4GPIO5WriteEb
 366              	.LVL16:
 367              	.L13:
 368 0026 00BF     		.align	2
 369              	.L12:
 370 0028 00000000 		.word	.LANCHOR1
 371 002c 00000000 		.word	.LANCHOR3
 372 0030 00000000 		.word	.LANCHOR5
 373 0034 00000000 		.word	.LANCHOR7
 374              		.cfi_endproc
 375              	.LFE4794:
 377              		.section	.text._Z14updateControlsv,"ax",%progbits
 378              		.align	1
 379              		.p2align 2,,3
ARM GAS  /var/folders/hl/qgbwny5j0fd895c2c41bk3tw0000gp/T//cc63D1lp.s 			page 18


 380              		.global	_Z14updateControlsv
 381              		.syntax unified
 382              		.thumb
 383              		.thumb_func
 384              		.fpu fpv5-d16
 386              	_Z14updateControlsv:
 387              	.LFB4810:
  16:test.cpp      **** float DSY_SDRAM_BSS 		grainBuffer[kBufferSize * kGrainCount];
  17:test.cpp      **** DaisyPatchSM 				hw;
  18:test.cpp      **** ReverbSc DSY_SDRAM_BSS		rev;
  19:test.cpp      **** 
  20:test.cpp      **** void updateControls() {
 388              		.loc 10 20 23 is_stmt 1 view -0
 389              		.cfi_startproc
 390              		@ args = 0, pretend = 0, frame = 0
 391              		@ frame_needed = 0, uses_anonymous_args = 0
  21:test.cpp      **** 	float grainSize, grainSpeed, grainDensity, grainFeedback, revFeedback, lpFreq;
 392              		.loc 10 21 2 view .LVU61
  22:test.cpp      **** 	grainSize = fmap(hw.GetAdcValue(CV_1), 0.f, kBufferDuration);
 393              		.loc 10 22 2 view .LVU62
  20:test.cpp      **** 	float grainSize, grainSpeed, grainDensity, grainFeedback, revFeedback, lpFreq;
 394              		.loc 10 20 23 is_stmt 0 view .LVU63
 395 0000 38B5     		push	{r3, r4, r5, lr}
 396              		.cfi_def_cfa_offset 16
 397              		.cfi_offset 3, -16
 398              		.cfi_offset 4, -12
 399              		.cfi_offset 5, -8
 400              		.cfi_offset 14, -4
 401 0002 2DED068B 		vpush.64	{d8, d9, d10}
 402              		.cfi_def_cfa_offset 40
 403              		.cfi_offset 80, -40
 404              		.cfi_offset 81, -36
 405              		.cfi_offset 82, -32
 406              		.cfi_offset 83, -28
 407              		.cfi_offset 84, -24
 408              		.cfi_offset 85, -20
 409              	.LBB614:
 410              	.LBB615:
 411              		.file 12 "../../DaisySP//Source/Utility/dsp.h"
   1:../../DaisySP//Source/Utility/dsp.h **** /** Helpful defines, functions, and other utilities for use in/with daisysp modules.
   2:../../DaisySP//Source/Utility/dsp.h **** */
   3:../../DaisySP//Source/Utility/dsp.h **** #pragma once
   4:../../DaisySP//Source/Utility/dsp.h **** #ifndef DSY_CORE_DSP
   5:../../DaisySP//Source/Utility/dsp.h **** #define DSY_CORE_DSP
   6:../../DaisySP//Source/Utility/dsp.h **** #include <cassert>
   7:../../DaisySP//Source/Utility/dsp.h **** #include <cstdint>
   8:../../DaisySP//Source/Utility/dsp.h **** #include <random>
   9:../../DaisySP//Source/Utility/dsp.h **** #include <cmath>
  10:../../DaisySP//Source/Utility/dsp.h **** 
  11:../../DaisySP//Source/Utility/dsp.h **** /** PIs
  12:../../DaisySP//Source/Utility/dsp.h **** */
  13:../../DaisySP//Source/Utility/dsp.h **** #define PI_F 3.1415927410125732421875f
  14:../../DaisySP//Source/Utility/dsp.h **** #define TWOPI_F (2.0f * PI_F)
  15:../../DaisySP//Source/Utility/dsp.h **** #define HALFPI_F (PI_F * 0.5f)
  16:../../DaisySP//Source/Utility/dsp.h **** #define DSY_MIN(in, mn) (in < mn ? in : mn)
  17:../../DaisySP//Source/Utility/dsp.h **** #define DSY_MAX(in, mx) (in > mx ? in : mx)
  18:../../DaisySP//Source/Utility/dsp.h **** #define DSY_CLAMP(in, mn, mx) (DSY_MIN(DSY_MAX(in, mn), mx))
ARM GAS  /var/folders/hl/qgbwny5j0fd895c2c41bk3tw0000gp/T//cc63D1lp.s 			page 19


  19:../../DaisySP//Source/Utility/dsp.h **** #define DSY_COUNTOF(_arr) (sizeof(_arr) / sizeof(_arr[0]))
  20:../../DaisySP//Source/Utility/dsp.h **** 
  21:../../DaisySP//Source/Utility/dsp.h **** namespace daisysp
  22:../../DaisySP//Source/Utility/dsp.h **** {
  23:../../DaisySP//Source/Utility/dsp.h **** //Avoids division for random floats. e.g. rand() * kRandFrac
  24:../../DaisySP//Source/Utility/dsp.h **** static constexpr float kRandFrac = 1.f / (float)RAND_MAX;
  25:../../DaisySP//Source/Utility/dsp.h **** 
  26:../../DaisySP//Source/Utility/dsp.h **** //Convert from semitones to other units. e.g. 2 ^ (kOneTwelfth * x)
  27:../../DaisySP//Source/Utility/dsp.h **** static constexpr float kOneTwelfth = 1.f / 12.f;
  28:../../DaisySP//Source/Utility/dsp.h **** 
  29:../../DaisySP//Source/Utility/dsp.h **** /** efficient floating point min/max
  30:../../DaisySP//Source/Utility/dsp.h **** c/o stephen mccaul
  31:../../DaisySP//Source/Utility/dsp.h **** */
  32:../../DaisySP//Source/Utility/dsp.h **** inline float fmax(float a, float b)
  33:../../DaisySP//Source/Utility/dsp.h **** {
  34:../../DaisySP//Source/Utility/dsp.h ****     float r;
  35:../../DaisySP//Source/Utility/dsp.h **** #ifdef __arm__
  36:../../DaisySP//Source/Utility/dsp.h ****     asm("vmaxnm.f32 %[d], %[n], %[m]" : [d] "=t"(r) : [n] "t"(a), [m] "t"(b) :);
  37:../../DaisySP//Source/Utility/dsp.h **** #else
  38:../../DaisySP//Source/Utility/dsp.h ****     r = (a > b) ? a : b;
  39:../../DaisySP//Source/Utility/dsp.h **** #endif // __arm__
  40:../../DaisySP//Source/Utility/dsp.h ****     return r;
  41:../../DaisySP//Source/Utility/dsp.h **** }
  42:../../DaisySP//Source/Utility/dsp.h **** 
  43:../../DaisySP//Source/Utility/dsp.h **** inline float fmin(float a, float b)
  44:../../DaisySP//Source/Utility/dsp.h **** {
  45:../../DaisySP//Source/Utility/dsp.h ****     float r;
  46:../../DaisySP//Source/Utility/dsp.h **** #ifdef __arm__
  47:../../DaisySP//Source/Utility/dsp.h ****     asm("vminnm.f32 %[d], %[n], %[m]" : [d] "=t"(r) : [n] "t"(a), [m] "t"(b) :);
  48:../../DaisySP//Source/Utility/dsp.h **** #else
  49:../../DaisySP//Source/Utility/dsp.h ****     r = (a < b) ? a : b;
  50:../../DaisySP//Source/Utility/dsp.h **** #endif // __arm__
  51:../../DaisySP//Source/Utility/dsp.h ****     return r;
  52:../../DaisySP//Source/Utility/dsp.h **** }
  53:../../DaisySP//Source/Utility/dsp.h **** 
  54:../../DaisySP//Source/Utility/dsp.h **** /** quick fp clamp
  55:../../DaisySP//Source/Utility/dsp.h **** */
  56:../../DaisySP//Source/Utility/dsp.h **** inline float fclamp(float in, float min, float max)
  57:../../DaisySP//Source/Utility/dsp.h **** {
  58:../../DaisySP//Source/Utility/dsp.h ****     return fmin(fmax(in, min), max);
  59:../../DaisySP//Source/Utility/dsp.h **** }
  60:../../DaisySP//Source/Utility/dsp.h **** 
  61:../../DaisySP//Source/Utility/dsp.h **** /** From Musicdsp.org "Fast power and root estimates for 32bit floats)
  62:../../DaisySP//Source/Utility/dsp.h **** Original code by Stefan Stenzel
  63:../../DaisySP//Source/Utility/dsp.h **** These are approximations
  64:../../DaisySP//Source/Utility/dsp.h **** */
  65:../../DaisySP//Source/Utility/dsp.h **** inline float fastpower(float f, int n)
  66:../../DaisySP//Source/Utility/dsp.h **** {
  67:../../DaisySP//Source/Utility/dsp.h ****     long *lp, l;
  68:../../DaisySP//Source/Utility/dsp.h ****     lp = (long *)(&f);
  69:../../DaisySP//Source/Utility/dsp.h ****     l  = *lp;
  70:../../DaisySP//Source/Utility/dsp.h ****     l -= 0x3F800000;
  71:../../DaisySP//Source/Utility/dsp.h ****     l <<= (n - 1);
  72:../../DaisySP//Source/Utility/dsp.h ****     l += 0x3F800000;
  73:../../DaisySP//Source/Utility/dsp.h ****     *lp = l;
  74:../../DaisySP//Source/Utility/dsp.h ****     return f;
  75:../../DaisySP//Source/Utility/dsp.h **** }
ARM GAS  /var/folders/hl/qgbwny5j0fd895c2c41bk3tw0000gp/T//cc63D1lp.s 			page 20


  76:../../DaisySP//Source/Utility/dsp.h **** 
  77:../../DaisySP//Source/Utility/dsp.h **** inline float fastroot(float f, int n)
  78:../../DaisySP//Source/Utility/dsp.h **** {
  79:../../DaisySP//Source/Utility/dsp.h ****     long *lp, l;
  80:../../DaisySP//Source/Utility/dsp.h ****     lp = (long *)(&f);
  81:../../DaisySP//Source/Utility/dsp.h ****     l  = *lp;
  82:../../DaisySP//Source/Utility/dsp.h ****     l -= 0x3F800000;
  83:../../DaisySP//Source/Utility/dsp.h ****     l >>= (n = 1);
  84:../../DaisySP//Source/Utility/dsp.h ****     l += 0x3F800000;
  85:../../DaisySP//Source/Utility/dsp.h ****     *lp = l;
  86:../../DaisySP//Source/Utility/dsp.h ****     return f;
  87:../../DaisySP//Source/Utility/dsp.h **** }
  88:../../DaisySP//Source/Utility/dsp.h **** 
  89:../../DaisySP//Source/Utility/dsp.h **** /** From http://openaudio.blogspot.com/2017/02/faster-log10-and-pow.html
  90:../../DaisySP//Source/Utility/dsp.h **** No approximation, pow10f(x) gives a 90% speed increase over powf(10.f, x)
  91:../../DaisySP//Source/Utility/dsp.h **** */
  92:../../DaisySP//Source/Utility/dsp.h **** inline float pow10f(float f)
  93:../../DaisySP//Source/Utility/dsp.h **** {
  94:../../DaisySP//Source/Utility/dsp.h ****     return expf(2.302585092994046f * f);
  95:../../DaisySP//Source/Utility/dsp.h **** }
  96:../../DaisySP//Source/Utility/dsp.h **** 
  97:../../DaisySP//Source/Utility/dsp.h **** /* Original code for fastlog2f by Dr. Paul Beckmann from the ARM community forum, adapted from the 
  98:../../DaisySP//Source/Utility/dsp.h **** About 25% performance increase over std::log10f
  99:../../DaisySP//Source/Utility/dsp.h **** */
 100:../../DaisySP//Source/Utility/dsp.h **** inline float fastlog2f(float f)
 101:../../DaisySP//Source/Utility/dsp.h **** {
 102:../../DaisySP//Source/Utility/dsp.h ****     float frac;
 103:../../DaisySP//Source/Utility/dsp.h ****     int   exp;
 104:../../DaisySP//Source/Utility/dsp.h ****     frac = frexpf(fabsf(f), &exp);
 105:../../DaisySP//Source/Utility/dsp.h ****     f    = 1.23149591368684f;
 106:../../DaisySP//Source/Utility/dsp.h ****     f *= frac;
 107:../../DaisySP//Source/Utility/dsp.h ****     f += -4.11852516267426f;
 108:../../DaisySP//Source/Utility/dsp.h ****     f *= frac;
 109:../../DaisySP//Source/Utility/dsp.h ****     f += 6.02197014179219f;
 110:../../DaisySP//Source/Utility/dsp.h ****     f *= frac;
 111:../../DaisySP//Source/Utility/dsp.h ****     f += -3.13396450166353f;
 112:../../DaisySP//Source/Utility/dsp.h ****     f += exp;
 113:../../DaisySP//Source/Utility/dsp.h ****     return (f);
 114:../../DaisySP//Source/Utility/dsp.h **** }
 115:../../DaisySP//Source/Utility/dsp.h **** 
 116:../../DaisySP//Source/Utility/dsp.h **** inline float fastlog10f(float f)
 117:../../DaisySP//Source/Utility/dsp.h **** {
 118:../../DaisySP//Source/Utility/dsp.h ****     return fastlog2f(f) * 0.3010299956639812f;
 119:../../DaisySP//Source/Utility/dsp.h **** }
 120:../../DaisySP//Source/Utility/dsp.h **** 
 121:../../DaisySP//Source/Utility/dsp.h **** /** Midi to frequency helper
 122:../../DaisySP//Source/Utility/dsp.h **** */
 123:../../DaisySP//Source/Utility/dsp.h **** inline float mtof(float m)
 124:../../DaisySP//Source/Utility/dsp.h **** {
 125:../../DaisySP//Source/Utility/dsp.h ****     return powf(2, (m - 69.0f) / 12.0f) * 440.0f;
 126:../../DaisySP//Source/Utility/dsp.h **** }
 127:../../DaisySP//Source/Utility/dsp.h **** 
 128:../../DaisySP//Source/Utility/dsp.h **** 
 129:../../DaisySP//Source/Utility/dsp.h **** /** one pole lpf
 130:../../DaisySP//Source/Utility/dsp.h **** out is passed by reference, and must be retained between
 131:../../DaisySP//Source/Utility/dsp.h **** calls to properly filter the signal
 132:../../DaisySP//Source/Utility/dsp.h **** coeff can be calculated:
ARM GAS  /var/folders/hl/qgbwny5j0fd895c2c41bk3tw0000gp/T//cc63D1lp.s 			page 21


 133:../../DaisySP//Source/Utility/dsp.h **** coeff = 1.0 / (time * sample_rate) ; where time is in seconds
 134:../../DaisySP//Source/Utility/dsp.h **** */
 135:../../DaisySP//Source/Utility/dsp.h **** inline void fonepole(float &out, float in, float coeff)
 136:../../DaisySP//Source/Utility/dsp.h **** {
 137:../../DaisySP//Source/Utility/dsp.h ****     out += coeff * (in - out);
 138:../../DaisySP//Source/Utility/dsp.h **** }
 139:../../DaisySP//Source/Utility/dsp.h **** 
 140:../../DaisySP//Source/Utility/dsp.h **** /** Curves to use with the fmap function */
 141:../../DaisySP//Source/Utility/dsp.h **** enum class Mapping
 142:../../DaisySP//Source/Utility/dsp.h **** {
 143:../../DaisySP//Source/Utility/dsp.h ****     LINEAR,
 144:../../DaisySP//Source/Utility/dsp.h ****     EXP,
 145:../../DaisySP//Source/Utility/dsp.h ****     LOG,
 146:../../DaisySP//Source/Utility/dsp.h **** };
 147:../../DaisySP//Source/Utility/dsp.h **** 
 148:../../DaisySP//Source/Utility/dsp.h **** /** Maps a float between a specified range, using a specified curve. 
 149:../../DaisySP//Source/Utility/dsp.h ****  * 
 150:../../DaisySP//Source/Utility/dsp.h ****  *  \param in a value between 0 to 1 that will be mapped to the new range.
 151:../../DaisySP//Source/Utility/dsp.h ****  *  \param min the new minimum value
 152:../../DaisySP//Source/Utility/dsp.h ****  *  \param max the new maxmimum value
 153:../../DaisySP//Source/Utility/dsp.h ****  *  \param curve a Mapping Value to adjust the response curve of the transformation
 154:../../DaisySP//Source/Utility/dsp.h ****  *               defaults to Linear. @see Mapping
 155:../../DaisySP//Source/Utility/dsp.h ****  * 
 156:../../DaisySP//Source/Utility/dsp.h ****  *  When using the log curve min and max, must be greater than zero.
 157:../../DaisySP//Source/Utility/dsp.h ****  * 
 158:../../DaisySP//Source/Utility/dsp.h ****  *  \retval returns the transformed float within the new range.
 159:../../DaisySP//Source/Utility/dsp.h **** */
 160:../../DaisySP//Source/Utility/dsp.h **** inline float
 161:../../DaisySP//Source/Utility/dsp.h **** fmap(float in, float min, float max, Mapping curve = Mapping::LINEAR)
 162:../../DaisySP//Source/Utility/dsp.h **** {
 163:../../DaisySP//Source/Utility/dsp.h ****     switch(curve)
 164:../../DaisySP//Source/Utility/dsp.h ****     {
 165:../../DaisySP//Source/Utility/dsp.h ****         case Mapping::EXP:
 166:../../DaisySP//Source/Utility/dsp.h ****             return fclamp(min + (in * in) * (max - min), min, max);
 167:../../DaisySP//Source/Utility/dsp.h ****         case Mapping::LOG:
 168:../../DaisySP//Source/Utility/dsp.h ****         {
 169:../../DaisySP//Source/Utility/dsp.h ****             const float a = 1.f / log10f(max / min);
 170:../../DaisySP//Source/Utility/dsp.h ****             return fclamp(min * powf(10, in / a), min, max);
 171:../../DaisySP//Source/Utility/dsp.h ****         }
 172:../../DaisySP//Source/Utility/dsp.h ****         case Mapping::LINEAR:
 173:../../DaisySP//Source/Utility/dsp.h ****         default: return fclamp(min + in * (max - min), min, max);
 412              		.loc 12 173 31 view .LVU64
 413 0006 9FED43AA 		vldr.32	s20, .L18
 414              	.LBE615:
 415              	.LBE614:
 416              		.loc 10 22 18 view .LVU65
 417 000a 0021     		movs	r1, #0
 418 000c 4248     		ldr	r0, .L18+4
 419              	.LBB626:
 420              	.LBB622:
 421              		.loc 12 173 31 view .LVU66
 422 000e F2EE0E9A 		vmov.f32	s19, #1.5e+1
 423              	.LBE622:
 424              	.LBE626:
 425              		.loc 10 22 18 view .LVU67
 426 0012 FFF7FEFF 		bl	_ZN5daisy8patch_sm12DaisyPatchSM11GetAdcValueEi
 427              	.LVL17:
ARM GAS  /var/folders/hl/qgbwny5j0fd895c2c41bk3tw0000gp/T//cc63D1lp.s 			page 22


 428              	.LBB627:
 429              	.LBI614:
 161:../../DaisySP//Source/Utility/dsp.h **** {
 430              		.loc 12 161 1 is_stmt 1 view .LVU68
 431              	.LBE627:
 163:../../DaisySP//Source/Utility/dsp.h ****     {
 432              		.loc 12 163 5 view .LVU69
 433              	.LBB628:
 434              	.LBB623:
 172:../../DaisySP//Source/Utility/dsp.h ****         default: return fclamp(min + in * (max - min), min, max);
 435              		.loc 12 172 9 view .LVU70
 436              		.loc 12 173 9 view .LVU71
 437              		.loc 12 173 18 view .LVU72
 438              		.loc 12 173 31 is_stmt 0 view .LVU73
 439 0016 F0EE4A7A 		vmov.f32	s15, s20
 440              	.LBE623:
 441              	.LBE628:
  23:test.cpp      **** 	grainSpeed = fmap(hw.GetAdcValue(CV_2), 0.f, 1.f);
 442              		.loc 10 23 19 view .LVU74
 443 001a 0121     		movs	r1, #1
 444 001c 3E48     		ldr	r0, .L18+4
 445              	.LBB629:
 446              	.LBB630:
 447              	.LBB631:
 448              	.LBB632:
 449              	.LBB633:
  47:../../DaisySP//Source/Utility/dsp.h **** #else
 450              		.loc 12 47 5 view .LVU75
 451 001e F7EE00AA 		vmov.f32	s21, #1.0e+0
 452 0022 3E4C     		ldr	r4, .L18+8
 453              	.LBE633:
 454              	.LBE632:
 455              	.LBE631:
 456              	.LBE630:
 457              	.LBE629:
 458              	.LBB651:
 459              	.LBB624:
 460              		.loc 12 173 31 view .LVU76
 461 0024 E0EE297A 		vfma.f32	s15, s0, s19
 462              	.LVL18:
 463              	.LBB616:
 464              	.LBI616:
  56:../../DaisySP//Source/Utility/dsp.h **** {
 465              		.loc 12 56 14 is_stmt 1 view .LVU77
 466              	.LBE616:
 467              	.LBE624:
 468              	.LBE651:
  58:../../DaisySP//Source/Utility/dsp.h **** }
 469              		.loc 12 58 5 view .LVU78
 470              	.LBB652:
 471              	.LBB625:
 472              	.LBB621:
 473              	.LBB617:
 474              	.LBI617:
  32:../../DaisySP//Source/Utility/dsp.h **** {
 475              		.loc 12 32 14 view .LVU79
 476              	.LBB618:
ARM GAS  /var/folders/hl/qgbwny5j0fd895c2c41bk3tw0000gp/T//cc63D1lp.s 			page 23


  34:../../DaisySP//Source/Utility/dsp.h **** #ifdef __arm__
 477              		.loc 12 34 5 view .LVU80
  36:../../DaisySP//Source/Utility/dsp.h **** #else
 478              		.loc 12 36 5 view .LVU81
 479              		.syntax unified
 480              	@ 36 "../../DaisySP//Source/Utility/dsp.h" 1
 481 0028 C7FE8A7A 		vmaxnm.f32 s15, s15, s20
 482              	@ 0 "" 2
 483              	.LVL19:
  40:../../DaisySP//Source/Utility/dsp.h **** }
 484              		.loc 12 40 5 view .LVU82
  40:../../DaisySP//Source/Utility/dsp.h **** }
 485              		.loc 12 40 5 is_stmt 0 view .LVU83
 486              		.thumb
 487              		.syntax unified
 488              	.LBE618:
 489              	.LBE617:
 490              	.LBB619:
 491              	.LBI619:
  43:../../DaisySP//Source/Utility/dsp.h **** {
 492              		.loc 12 43 14 is_stmt 1 view .LVU84
 493              	.LBB620:
  45:../../DaisySP//Source/Utility/dsp.h **** #ifdef __arm__
 494              		.loc 12 45 5 view .LVU85
  47:../../DaisySP//Source/Utility/dsp.h **** #else
 495              		.loc 12 47 5 view .LVU86
 496              		.syntax unified
 497              	@ 47 "../../DaisySP//Source/Utility/dsp.h" 1
 498 002c C7FEE99A 		vminnm.f32 s19, s15, s19
 499              	@ 0 "" 2
 500              	.LVL20:
  51:../../DaisySP//Source/Utility/dsp.h **** }
 501              		.loc 12 51 5 view .LVU87
  51:../../DaisySP//Source/Utility/dsp.h **** }
 502              		.loc 12 51 5 is_stmt 0 view .LVU88
 503              		.thumb
 504              		.syntax unified
 505              	.LBE620:
 506              	.LBE619:
 507              	.LBE621:
 508              	.LBE625:
 509              	.LBE652:
 510              		.loc 10 23 2 is_stmt 1 view .LVU89
 511              		.loc 10 23 19 is_stmt 0 view .LVU90
 512 0030 FFF7FEFF 		bl	_ZN5daisy8patch_sm12DaisyPatchSM11GetAdcValueEi
 513              	.LVL21:
 514              	.LBB653:
 515              	.LBI629:
 161:../../DaisySP//Source/Utility/dsp.h **** {
 516              		.loc 12 161 1 is_stmt 1 view .LVU91
 517              	.LBE653:
 163:../../DaisySP//Source/Utility/dsp.h ****     {
 518              		.loc 12 163 5 view .LVU92
 519              	.LBB654:
 520              	.LBB646:
 172:../../DaisySP//Source/Utility/dsp.h ****         default: return fclamp(min + in * (max - min), min, max);
 521              		.loc 12 172 9 view .LVU93
ARM GAS  /var/folders/hl/qgbwny5j0fd895c2c41bk3tw0000gp/T//cc63D1lp.s 			page 24


 522              		.loc 12 173 9 view .LVU94
 523              		.loc 12 173 18 view .LVU95
 524              	.LBB642:
 525              	.LBI631:
  56:../../DaisySP//Source/Utility/dsp.h **** {
 526              		.loc 12 56 14 view .LVU96
 527              	.LBE642:
 528              	.LBE646:
 529              	.LBE654:
  58:../../DaisySP//Source/Utility/dsp.h **** }
 530              		.loc 12 58 5 view .LVU97
 531              	.LBB655:
 532              	.LBB647:
 533              	.LBB643:
 534              	.LBB636:
 535              	.LBI636:
  32:../../DaisySP//Source/Utility/dsp.h **** {
 536              		.loc 12 32 14 view .LVU98
 537              	.LBB637:
  34:../../DaisySP//Source/Utility/dsp.h **** #ifdef __arm__
 538              		.loc 12 34 5 view .LVU99
  36:../../DaisySP//Source/Utility/dsp.h **** #else
 539              		.loc 12 36 5 view .LVU100
 540              	.LBE637:
 541              	.LBE636:
 542              	.LBE643:
 543              	.LBE647:
 544              	.LBE655:
  24:test.cpp      **** 	grainDensity = fmap(hw.GetAdcValue(CV_3), 0.f, 1.f);
 545              		.loc 10 24 21 is_stmt 0 view .LVU101
 546 0034 0221     		movs	r1, #2
 547 0036 3848     		ldr	r0, .L18+4
 548              	.LBB656:
 549              	.LBB648:
 550              		.loc 12 173 31 view .LVU102
 551 0038 30EE0A9A 		vadd.f32	s18, s0, s20
 552              	.LVL22:
 553              		.loc 12 173 31 view .LVU103
 554              	.LBE648:
 555              	.LBE656:
 556              		.loc 10 24 21 view .LVU104
 557 003c FFF7FEFF 		bl	_ZN5daisy8patch_sm12DaisyPatchSM11GetAdcValueEi
 558              	.LVL23:
  25:test.cpp      **** 	grainFeedback = fmap(hw.GetAdcValue(CV_4), 0.f, 1.f);
 559              		.loc 10 25 22 view .LVU105
 560 0040 0321     		movs	r1, #3
 561 0042 3548     		ldr	r0, .L18+4
 562              	.LBB657:
 563              	.LBB658:
 564              		.loc 12 173 31 view .LVU106
 565 0044 70EE0A8A 		vadd.f32	s17, s0, s20
 566              	.LBE658:
 567              	.LBE657:
 568              		.loc 10 25 22 view .LVU107
 569 0048 FFF7FEFF 		bl	_ZN5daisy8patch_sm12DaisyPatchSM11GetAdcValueEi
 570              	.LVL24:
  26:test.cpp      **** 	revFeedback = fmap(hw.GetAdcValue(ADC_10), 0.f, .99f);
ARM GAS  /var/folders/hl/qgbwny5j0fd895c2c41bk3tw0000gp/T//cc63D1lp.s 			page 25


 571              		.loc 10 26 20 view .LVU108
 572 004c 0921     		movs	r1, #9
 573 004e 3248     		ldr	r0, .L18+4
 574              	.LBB671:
 575              	.LBB672:
 576              		.loc 12 173 31 view .LVU109
 577 0050 30EE0A0A 		vadd.f32	s0, s0, s20
 578              	.LBB673:
 579              	.LBB674:
 580              	.LBB675:
  36:../../DaisySP//Source/Utility/dsp.h **** #else
 581              		.loc 12 36 5 view .LVU110
 582              		.syntax unified
 583              	@ 36 "../../DaisySP//Source/Utility/dsp.h" 1
 584 0054 80FE0A8A 		vmaxnm.f32 s16, s0, s20
 585              	@ 0 "" 2
 586              		.thumb
 587              		.syntax unified
 588              	.LBE675:
 589              	.LBE674:
 590              	.LBE673:
 591              	.LBE672:
 592              	.LBE671:
 593              		.loc 10 26 20 view .LVU111
 594 0058 FFF7FEFF 		bl	_ZN5daisy8patch_sm12DaisyPatchSM11GetAdcValueEi
 595              	.LVL25:
 596              	.LBB684:
 597              	.LBB685:
 598              		.loc 12 173 31 view .LVU112
 599 005c F0EE4A7A 		vmov.f32	s15, s20
 600              	.LBE685:
 601              	.LBE684:
 602              	.LBB699:
 603              	.LBB649:
 604              	.LBB644:
 605              	.LBB639:
 606              	.LBB638:
  36:../../DaisySP//Source/Utility/dsp.h **** #else
 607              		.loc 12 36 5 view .LVU113
 608              		.syntax unified
 609              	@ 36 "../../DaisySP//Source/Utility/dsp.h" 1
 610 0060 89FE0A9A 		vmaxnm.f32 s18, s18, s20
 611              	@ 0 "" 2
 612              	.LVL26:
  40:../../DaisySP//Source/Utility/dsp.h **** }
 613              		.loc 12 40 5 is_stmt 1 view .LVU114
  40:../../DaisySP//Source/Utility/dsp.h **** }
 614              		.loc 12 40 5 is_stmt 0 view .LVU115
 615              		.thumb
 616              		.syntax unified
 617              	.LBE638:
 618              	.LBE639:
 619              	.LBB640:
 620              	.LBI632:
  43:../../DaisySP//Source/Utility/dsp.h **** {
 621              		.loc 12 43 14 is_stmt 1 view .LVU116
 622              	.LBB634:
ARM GAS  /var/folders/hl/qgbwny5j0fd895c2c41bk3tw0000gp/T//cc63D1lp.s 			page 26


  45:../../DaisySP//Source/Utility/dsp.h **** #ifdef __arm__
 623              		.loc 12 45 5 view .LVU117
  47:../../DaisySP//Source/Utility/dsp.h **** #else
 624              		.loc 12 47 5 view .LVU118
 625              	.LBE634:
 626              	.LBE640:
 627              	.LBE644:
 628              	.LBE649:
 629              	.LBE699:
 630              	.LBB700:
 631              	.LBB668:
 632              	.LBB659:
 633              	.LBB660:
 634              	.LBB661:
  36:../../DaisySP//Source/Utility/dsp.h **** #else
 635              		.loc 12 36 5 is_stmt 0 view .LVU119
 636              		.syntax unified
 637              	@ 36 "../../DaisySP//Source/Utility/dsp.h" 1
 638 0064 C8FE8A8A 		vmaxnm.f32 s17, s17, s20
 639              	@ 0 "" 2
 640              		.thumb
 641              		.syntax unified
 642              	.LBE661:
 643              	.LBE660:
 644              	.LBE659:
 645              	.LBE668:
 646              	.LBE700:
 647              	.LBB701:
 648              	.LBB650:
 649              	.LBB645:
 650              	.LBB641:
 651              	.LBB635:
  47:../../DaisySP//Source/Utility/dsp.h **** #else
 652              		.loc 12 47 5 view .LVU120
 653              		.syntax unified
 654              	@ 47 "../../DaisySP//Source/Utility/dsp.h" 1
 655 0068 89FE6A9A 		vminnm.f32 s18, s18, s21
 656              	@ 0 "" 2
 657              	.LVL27:
  51:../../DaisySP//Source/Utility/dsp.h **** }
 658              		.loc 12 51 5 is_stmt 1 view .LVU121
  51:../../DaisySP//Source/Utility/dsp.h **** }
 659              		.loc 12 51 5 is_stmt 0 view .LVU122
 660              		.thumb
 661              		.syntax unified
 662              	.LBE635:
 663              	.LBE641:
 664              	.LBE645:
 665              	.LBE650:
 666              	.LBE701:
  24:test.cpp      **** 	grainFeedback = fmap(hw.GetAdcValue(CV_4), 0.f, 1.f);
 667              		.loc 10 24 2 is_stmt 1 view .LVU123
 668              	.LBB702:
 669              	.LBI657:
 161:../../DaisySP//Source/Utility/dsp.h **** {
 670              		.loc 12 161 1 view .LVU124
 671              	.LBE702:
ARM GAS  /var/folders/hl/qgbwny5j0fd895c2c41bk3tw0000gp/T//cc63D1lp.s 			page 27


 163:../../DaisySP//Source/Utility/dsp.h ****     {
 672              		.loc 12 163 5 view .LVU125
 673              	.LBB703:
 674              	.LBB669:
 172:../../DaisySP//Source/Utility/dsp.h ****         default: return fclamp(min + in * (max - min), min, max);
 675              		.loc 12 172 9 view .LVU126
 676              		.loc 12 173 9 view .LVU127
 677              		.loc 12 173 18 view .LVU128
 678              	.LBB666:
 679              	.LBI659:
  56:../../DaisySP//Source/Utility/dsp.h **** {
 680              		.loc 12 56 14 view .LVU129
 681              	.LBE666:
 682              	.LBE669:
 683              	.LBE703:
  58:../../DaisySP//Source/Utility/dsp.h **** }
 684              		.loc 12 58 5 view .LVU130
 685              	.LBB704:
 686              	.LBB670:
 687              	.LBB667:
 688              	.LBB663:
 689              	.LBI660:
  32:../../DaisySP//Source/Utility/dsp.h **** {
 690              		.loc 12 32 14 view .LVU131
 691              	.LBB662:
  34:../../DaisySP//Source/Utility/dsp.h **** #ifdef __arm__
 692              		.loc 12 34 5 view .LVU132
  36:../../DaisySP//Source/Utility/dsp.h **** #else
 693              		.loc 12 36 5 view .LVU133
  40:../../DaisySP//Source/Utility/dsp.h **** }
 694              		.loc 12 40 5 view .LVU134
  40:../../DaisySP//Source/Utility/dsp.h **** }
 695              		.loc 12 40 5 is_stmt 0 view .LVU135
 696              	.LBE662:
 697              	.LBE663:
 698              	.LBB664:
 699              	.LBI664:
  43:../../DaisySP//Source/Utility/dsp.h **** {
 700              		.loc 12 43 14 is_stmt 1 view .LVU136
 701              	.LBB665:
  45:../../DaisySP//Source/Utility/dsp.h **** #ifdef __arm__
 702              		.loc 12 45 5 view .LVU137
  47:../../DaisySP//Source/Utility/dsp.h **** #else
 703              		.loc 12 47 5 view .LVU138
 704              		.syntax unified
 705              	@ 47 "../../DaisySP//Source/Utility/dsp.h" 1
 706 006c C8FEEA8A 		vminnm.f32 s17, s17, s21
 707              	@ 0 "" 2
 708              	.LVL28:
  51:../../DaisySP//Source/Utility/dsp.h **** }
 709              		.loc 12 51 5 view .LVU139
  51:../../DaisySP//Source/Utility/dsp.h **** }
 710              		.loc 12 51 5 is_stmt 0 view .LVU140
 711              		.thumb
 712              		.syntax unified
 713              	.LBE665:
 714              	.LBE664:
ARM GAS  /var/folders/hl/qgbwny5j0fd895c2c41bk3tw0000gp/T//cc63D1lp.s 			page 28


 715              	.LBE667:
 716              	.LBE670:
 717              	.LBE704:
  25:test.cpp      **** 	revFeedback = fmap(hw.GetAdcValue(ADC_10), 0.f, .99f);
 718              		.loc 10 25 2 is_stmt 1 view .LVU141
 719              	.LBB705:
 720              	.LBI671:
 161:../../DaisySP//Source/Utility/dsp.h **** {
 721              		.loc 12 161 1 view .LVU142
 722              	.LBE705:
 163:../../DaisySP//Source/Utility/dsp.h ****     {
 723              		.loc 12 163 5 view .LVU143
 724              	.LBB706:
 725              	.LBB682:
 172:../../DaisySP//Source/Utility/dsp.h ****         default: return fclamp(min + in * (max - min), min, max);
 726              		.loc 12 172 9 view .LVU144
 727              		.loc 12 173 9 view .LVU145
 728              		.loc 12 173 18 view .LVU146
 729              	.LBB680:
 730              	.LBI673:
  56:../../DaisySP//Source/Utility/dsp.h **** {
 731              		.loc 12 56 14 view .LVU147
 732              	.LBE680:
 733              	.LBE682:
 734              	.LBE706:
  58:../../DaisySP//Source/Utility/dsp.h **** }
 735              		.loc 12 58 5 view .LVU148
 736              	.LBB707:
 737              	.LBB683:
 738              	.LBB681:
 739              	.LBB677:
 740              	.LBI674:
  32:../../DaisySP//Source/Utility/dsp.h **** {
 741              		.loc 12 32 14 view .LVU149
 742              	.LBB676:
  34:../../DaisySP//Source/Utility/dsp.h **** #ifdef __arm__
 743              		.loc 12 34 5 view .LVU150
  36:../../DaisySP//Source/Utility/dsp.h **** #else
 744              		.loc 12 36 5 view .LVU151
  40:../../DaisySP//Source/Utility/dsp.h **** }
 745              		.loc 12 40 5 view .LVU152
  40:../../DaisySP//Source/Utility/dsp.h **** }
 746              		.loc 12 40 5 is_stmt 0 view .LVU153
 747              	.LBE676:
 748              	.LBE677:
 749              	.LBB678:
 750              	.LBI678:
  43:../../DaisySP//Source/Utility/dsp.h **** {
 751              		.loc 12 43 14 is_stmt 1 view .LVU154
 752              	.LBB679:
  45:../../DaisySP//Source/Utility/dsp.h **** #ifdef __arm__
 753              		.loc 12 45 5 view .LVU155
  47:../../DaisySP//Source/Utility/dsp.h **** #else
 754              		.loc 12 47 5 view .LVU156
 755              		.syntax unified
 756              	@ 47 "../../DaisySP//Source/Utility/dsp.h" 1
 757 0070 88FE6A8A 		vminnm.f32 s16, s16, s21
ARM GAS  /var/folders/hl/qgbwny5j0fd895c2c41bk3tw0000gp/T//cc63D1lp.s 			page 29


 758              	@ 0 "" 2
 759              	.LVL29:
  51:../../DaisySP//Source/Utility/dsp.h **** }
 760              		.loc 12 51 5 view .LVU157
  51:../../DaisySP//Source/Utility/dsp.h **** }
 761              		.loc 12 51 5 is_stmt 0 view .LVU158
 762              		.thumb
 763              		.syntax unified
 764              	.LBE679:
 765              	.LBE678:
 766              	.LBE681:
 767              	.LBE683:
 768              	.LBE707:
 769              		.loc 10 26 2 is_stmt 1 view .LVU159
 770              	.LBB708:
 771              	.LBI684:
 161:../../DaisySP//Source/Utility/dsp.h **** {
 772              		.loc 12 161 1 view .LVU160
 773              	.LBE708:
 163:../../DaisySP//Source/Utility/dsp.h ****     {
 774              		.loc 12 163 5 view .LVU161
 775              	.LBB709:
 776              	.LBB695:
 172:../../DaisySP//Source/Utility/dsp.h ****         default: return fclamp(min + in * (max - min), min, max);
 777              		.loc 12 172 9 view .LVU162
 778              		.loc 12 173 9 view .LVU163
 779              		.loc 12 173 18 view .LVU164
 780              		.loc 12 173 31 is_stmt 0 view .LVU165
 781 0074 DFED2AAA 		vldr.32	s21, .L18+12
 782              	.LBE695:
 783              	.LBE709:
  27:test.cpp      **** 	lpFreq = fmap(hw.GetAdcValue(ADC_11), 1000.f, 19000.f, Mapping::LOG);
 784              		.loc 10 27 15 view .LVU166
 785 0078 0A21     		movs	r1, #10
 786 007a 2748     		ldr	r0, .L18+4
 787 007c 04F5EB65 		add	r5, r4, #1880
 788              	.LBB710:
 789              	.LBB696:
 790              		.loc 12 173 31 view .LVU167
 791 0080 E0EE2A7A 		vfma.f32	s15, s0, s21
 792              	.LVL30:
 793              	.LBB686:
 794              	.LBI686:
  56:../../DaisySP//Source/Utility/dsp.h **** {
 795              		.loc 12 56 14 is_stmt 1 view .LVU168
 796              	.LBE686:
 797              	.LBE696:
 798              	.LBE710:
  58:../../DaisySP//Source/Utility/dsp.h **** }
 799              		.loc 12 58 5 view .LVU169
 800              	.LBB711:
 801              	.LBB697:
 802              	.LBB693:
 803              	.LBB687:
 804              	.LBI687:
  32:../../DaisySP//Source/Utility/dsp.h **** {
 805              		.loc 12 32 14 view .LVU170
ARM GAS  /var/folders/hl/qgbwny5j0fd895c2c41bk3tw0000gp/T//cc63D1lp.s 			page 30


 806              	.LBB688:
  34:../../DaisySP//Source/Utility/dsp.h **** #ifdef __arm__
 807              		.loc 12 34 5 view .LVU171
  36:../../DaisySP//Source/Utility/dsp.h **** #else
 808              		.loc 12 36 5 view .LVU172
 809              		.syntax unified
 810              	@ 36 "../../DaisySP//Source/Utility/dsp.h" 1
 811 0084 87FE8AAA 		vmaxnm.f32 s20, s15, s20
 812              	@ 0 "" 2
 813              	.LVL31:
  40:../../DaisySP//Source/Utility/dsp.h **** }
 814              		.loc 12 40 5 view .LVU173
  40:../../DaisySP//Source/Utility/dsp.h **** }
 815              		.loc 12 40 5 is_stmt 0 view .LVU174
 816              		.thumb
 817              		.syntax unified
 818              	.LBE688:
 819              	.LBE687:
 820              	.LBB689:
 821              	.LBI689:
  43:../../DaisySP//Source/Utility/dsp.h **** {
 822              		.loc 12 43 14 is_stmt 1 view .LVU175
 823              	.LBB690:
  45:../../DaisySP//Source/Utility/dsp.h **** #ifdef __arm__
 824              		.loc 12 45 5 view .LVU176
  47:../../DaisySP//Source/Utility/dsp.h **** #else
 825              		.loc 12 47 5 view .LVU177
 826              	.LBE690:
 827              	.LBE689:
 828              	.LBE693:
 829              	.LBE697:
 830              	.LBE711:
 831              		.loc 10 27 15 is_stmt 0 view .LVU178
 832 0088 FFF7FEFF 		bl	_ZN5daisy8patch_sm12DaisyPatchSM11GetAdcValueEi
 833              	.LVL32:
 834              		.loc 10 27 15 view .LVU179
 835 008c F0EE400A 		vmov.f32	s1, s0
 836              	.LBB712:
 837              	.LBB713:
 838              	.LBB714:
 170:../../DaisySP//Source/Utility/dsp.h ****         }
 839              		.loc 12 170 37 view .LVU180
 840 0090 DFED247A 		vldr.32	s15, .L18+16
 841 0094 B2EE040A 		vmov.f32	s0, #1.0e+1
 842              	.LBE714:
 843              	.LBE713:
 844              	.LBE712:
 845              	.LBB731:
 846              	.LBB698:
 847              	.LBB694:
 848              	.LBB692:
 849              	.LBB691:
  47:../../DaisySP//Source/Utility/dsp.h **** #else
 850              		.loc 12 47 5 view .LVU181
 851              		.syntax unified
 852              	@ 47 "../../DaisySP//Source/Utility/dsp.h" 1
 853 0098 CAFE6AAA 		vminnm.f32 s21, s20, s21
ARM GAS  /var/folders/hl/qgbwny5j0fd895c2c41bk3tw0000gp/T//cc63D1lp.s 			page 31


 854              	@ 0 "" 2
 855              	.LVL33:
  51:../../DaisySP//Source/Utility/dsp.h **** }
 856              		.loc 12 51 5 is_stmt 1 view .LVU182
  51:../../DaisySP//Source/Utility/dsp.h **** }
 857              		.loc 12 51 5 is_stmt 0 view .LVU183
 858              		.thumb
 859              		.syntax unified
 860              	.LBE691:
 861              	.LBE692:
 862              	.LBE694:
 863              	.LBE698:
 864              	.LBE731:
 865              		.loc 10 27 2 is_stmt 1 view .LVU184
 866              	.LBB732:
 867              	.LBI712:
 161:../../DaisySP//Source/Utility/dsp.h **** {
 868              		.loc 12 161 1 view .LVU185
 869              	.LBE732:
 163:../../DaisySP//Source/Utility/dsp.h ****     {
 870              		.loc 12 163 5 view .LVU186
 871              	.LBB733:
 872              	.LBB728:
 873              	.LBI713:
 161:../../DaisySP//Source/Utility/dsp.h **** {
 874              		.loc 12 161 1 view .LVU187
 161:../../DaisySP//Source/Utility/dsp.h **** {
 875              		.loc 12 161 1 is_stmt 0 view .LVU188
 876              	.LBE728:
 877              	.LBE733:
 167:../../DaisySP//Source/Utility/dsp.h ****         {
 878              		.loc 12 167 9 is_stmt 1 view .LVU189
 168:../../DaisySP//Source/Utility/dsp.h ****             const float a = 1.f / log10f(max / min);
 879              		.loc 12 168 9 view .LVU190
 880              	.LBB734:
 881              	.LBB729:
 882              	.LBB726:
 169:../../DaisySP//Source/Utility/dsp.h ****             return fclamp(min * powf(10, in / a), min, max);
 883              		.loc 12 169 13 view .LVU191
 170:../../DaisySP//Source/Utility/dsp.h ****         }
 884              		.loc 12 170 13 view .LVU192
 170:../../DaisySP//Source/Utility/dsp.h ****         }
 885              		.loc 12 170 26 is_stmt 0 view .LVU193
 886 009c 9FED22AA 		vldr.32	s20, .L18+20
 170:../../DaisySP//Source/Utility/dsp.h ****         }
 887              		.loc 12 170 37 view .LVU194
 888 00a0 C0EEA70A 		vdiv.f32	s1, s1, s15
 889              	.LVL34:
 170:../../DaisySP//Source/Utility/dsp.h ****         }
 890              		.loc 12 170 37 view .LVU195
 891 00a4 FFF7FEFF 		bl	powf
 892              	.LVL35:
 893              	.LBB715:
 894              	.LBI715:
  56:../../DaisySP//Source/Utility/dsp.h **** {
 895              		.loc 12 56 14 is_stmt 1 view .LVU196
 896              	.LBE715:
ARM GAS  /var/folders/hl/qgbwny5j0fd895c2c41bk3tw0000gp/T//cc63D1lp.s 			page 32


 897              	.LBE726:
 898              	.LBE729:
 899              	.LBE734:
  58:../../DaisySP//Source/Utility/dsp.h **** }
 900              		.loc 12 58 5 view .LVU197
 901              	.LBB735:
 902              	.LBB730:
 903              	.LBB727:
 904              	.LBB724:
 905              	.LBB716:
 906              	.LBI716:
  32:../../DaisySP//Source/Utility/dsp.h **** {
 907              		.loc 12 32 14 view .LVU198
 908              	.LBB717:
  34:../../DaisySP//Source/Utility/dsp.h **** #ifdef __arm__
 909              		.loc 12 34 5 view .LVU199
  36:../../DaisySP//Source/Utility/dsp.h **** #else
 910              		.loc 12 36 5 view .LVU200
 911              	.LBE717:
 912              	.LBE716:
 913              	.LBB719:
 914              	.LBB720:
  47:../../DaisySP//Source/Utility/dsp.h **** #else
 915              		.loc 12 47 5 is_stmt 0 view .LVU201
 916 00a8 DFED207A 		vldr.32	s15, .L18+24
 917              	.LBE720:
 918              	.LBE719:
 919              	.LBE724:
 170:../../DaisySP//Source/Utility/dsp.h ****         }
 920              		.loc 12 170 26 view .LVU202
 921 00ac 20EE0A0A 		vmul.f32	s0, s0, s20
 922              	.LVL36:
 923              	.LBB725:
 924              	.LBB722:
 925              	.LBB718:
  36:../../DaisySP//Source/Utility/dsp.h **** #else
 926              		.loc 12 36 5 view .LVU203
 927              		.syntax unified
 928              	@ 36 "../../DaisySP//Source/Utility/dsp.h" 1
 929 00b0 80FE0AAA 		vmaxnm.f32 s20, s0, s20
 930              	@ 0 "" 2
 931              	.LVL37:
  40:../../DaisySP//Source/Utility/dsp.h **** }
 932              		.loc 12 40 5 is_stmt 1 view .LVU204
  40:../../DaisySP//Source/Utility/dsp.h **** }
 933              		.loc 12 40 5 is_stmt 0 view .LVU205
 934              		.thumb
 935              		.syntax unified
 936              	.LBE718:
 937              	.LBE722:
 938              	.LBB723:
 939              	.LBI719:
  43:../../DaisySP//Source/Utility/dsp.h **** {
 940              		.loc 12 43 14 is_stmt 1 view .LVU206
 941              	.LBB721:
  45:../../DaisySP//Source/Utility/dsp.h **** #ifdef __arm__
 942              		.loc 12 45 5 view .LVU207
ARM GAS  /var/folders/hl/qgbwny5j0fd895c2c41bk3tw0000gp/T//cc63D1lp.s 			page 33


  47:../../DaisySP//Source/Utility/dsp.h **** #else
 943              		.loc 12 47 5 view .LVU208
 944              		.syntax unified
 945              	@ 47 "../../DaisySP//Source/Utility/dsp.h" 1
 946 00b4 8AFE67AA 		vminnm.f32 s20, s20, s15
 947              	@ 0 "" 2
 948              	.LVL38:
  51:../../DaisySP//Source/Utility/dsp.h **** }
 949              		.loc 12 51 5 view .LVU209
  51:../../DaisySP//Source/Utility/dsp.h **** }
 950              		.loc 12 51 5 is_stmt 0 view .LVU210
 951              		.thumb
 952              		.syntax unified
 953              	.LBE721:
 954              	.LBE723:
 955              	.LBE725:
 956              	.LBE727:
 957              	.LBE730:
 958              	.LBE735:
  28:test.cpp      **** 	
  29:test.cpp      **** 	for (size_t i = 0; i < kGrainCount; i++){
 959              		.loc 10 29 2 is_stmt 1 view .LVU211
 960              	.LBB736:
 961              		.loc 10 29 23 view .LVU212
 962              	.L15:
  30:test.cpp      **** 		grains[i].SetDuration(grainSize);
 963              		.loc 10 30 3 discriminator 2 view .LVU213
 964              	.LBB737:
 965              	.LBI737:
 966              		.file 13 "Grain.h"
   1:Grain.h       **** #pragma once
   2:Grain.h       **** #ifndef GRAIN_H
   3:Grain.h       **** #define GRAIN_H
   4:Grain.h       **** #include <stdint.h>
   5:Grain.h       **** #include "daisysp.h"
   6:Grain.h       **** #ifdef __cplusplus
   7:Grain.h       **** 
   8:Grain.h       **** using namespace daisysp;
   9:Grain.h       **** 
  10:Grain.h       **** namespace graindelay
  11:Grain.h       **** {
  12:Grain.h       **** class Grain
  13:Grain.h       **** {
  14:Grain.h       ****     public:
  15:Grain.h       ****         Grain() {}
  16:Grain.h       ****         ~Grain() {}
  17:Grain.h       **** 
  18:Grain.h       ****         void Init(const float sampleRate, float* buffer, const size_t bufferSize)
  19:Grain.h       ****         {
  20:Grain.h       ****             sampleRate_ = sampleRate;
  21:Grain.h       ****             buffer_ = buffer;
  22:Grain.h       ****             bufferSize_ = bufferSize - kInterpolationTail;
  23:Grain.h       ****             for (size_t i = 0; i < bufferSize; i++)
  24:Grain.h       ****                 buffer_[i] = 0;
  25:Grain.h       ****             writeIndex_ = 0;
  26:Grain.h       ****             readPosition_ = 0;
  27:Grain.h       **** 
ARM GAS  /var/folders/hl/qgbwny5j0fd895c2c41bk3tw0000gp/T//cc63D1lp.s 			page 34


  28:Grain.h       ****             feedbackSvf_.Init(sampleRate);
  29:Grain.h       ****             env_.Init(sampleRate);
  30:Grain.h       **** 
  31:Grain.h       ****             audible_ = 0.0f;
  32:Grain.h       ****             speed_ = 1.0f;
  33:Grain.h       ****             amp_ = 0.0f;
  34:Grain.h       ****             grainDensity_ = 0.0f;
  35:Grain.h       ****             feedback_ = 0.0f;
  36:Grain.h       ****         }
  37:Grain.h       **** 
  38:Grain.h       ****         void SetSpeed(const float speed);
  39:Grain.h       **** 
  40:Grain.h       ****         void SetAmp(const float amp)
  41:Grain.h       ****         {
  42:Grain.h       ****             amp_ = fclamp(amp, 0.0f, 1.0f);
  43:Grain.h       ****         }
  44:Grain.h       **** 
  45:Grain.h       ****         inline void SetFeedback(const float feedback)
  46:Grain.h       ****         {
  47:Grain.h       ****             feedback_ = fclamp(feedback, 0.0f, 1.0f);
  48:Grain.h       ****             feedbackSvf_.SetFreq(20.0f + 100.0f * feedback_ * feedback_);   // Formula from https:/
  49:Grain.h       ****         }
  50:Grain.h       **** 
  51:Grain.h       ****         inline void Trigger()
  52:Grain.h       ****         {
  53:Grain.h       ****             readPosition_ = speed_ > sampleRate_ ? ((writeIndex_ - grainSize_) + bufferSize_) % buf
  54:Grain.h       ****             env_.Trigger();
  55:Grain.h       ****         }
  56:Grain.h       **** 
  57:Grain.h       ****         inline void SetDuration(const float length)
 967              		.loc 13 57 21 discriminator 2 view .LVU214
 968              	.LBB738:
  58:Grain.h       ****         {
  59:Grain.h       ****             nextDuration_ = length;
 969              		.loc 13 59 13 discriminator 2 view .LVU215
 970              	.LBE738:
 971              	.LBE737:
  31:test.cpp      **** 		grains[i].SetSpeed(grainSpeed);
 972              		.loc 10 31 21 is_stmt 0 discriminator 2 view .LVU216
 973 00b8 2046     		mov	r0, r4
 974 00ba B0EE490A 		vmov.f32	s0, s18
 975              	.LBB740:
 976              	.LBB739:
 977              		.loc 13 59 27 discriminator 2 view .LVU217
 978 00be C4ED089A 		vstr.32	s19, [r4, #32]
 979              	.LVL39:
 980              		.loc 13 59 27 discriminator 2 view .LVU218
 981              	.LBE739:
 982              	.LBE740:
 983              		.loc 10 31 3 is_stmt 1 discriminator 2 view .LVU219
 984              		.loc 10 31 21 is_stmt 0 discriminator 2 view .LVU220
 985 00c2 FFF7FEFF 		bl	_ZN10graindelay5Grain8SetSpeedEf
 986              	.LVL40:
  32:test.cpp      **** 		grains[i].SetGrainDensity(grainDensity);
 987              		.loc 10 32 3 is_stmt 1 discriminator 2 view .LVU221
 988              	.LBB741:
 989              	.LBI741:
ARM GAS  /var/folders/hl/qgbwny5j0fd895c2c41bk3tw0000gp/T//cc63D1lp.s 			page 35


  60:Grain.h       ****         }
  61:Grain.h       **** 
  62:Grain.h       ****         inline void SetGrainDensity(const float grainDensity)
 990              		.loc 13 62 21 discriminator 2 view .LVU222
 991              	.LBB742:
  63:Grain.h       ****         {
  64:Grain.h       ****             grainDensity_ = fclamp(grainDensity, 0.0f, 1.0f);
 992              		.loc 13 64 13 discriminator 2 view .LVU223
 993              	.LBB743:
 994              	.LBI743:
  56:../../DaisySP//Source/Utility/dsp.h **** {
 995              		.loc 12 56 14 discriminator 2 view .LVU224
 996              	.LBE743:
 997              	.LBE742:
 998              	.LBE741:
 999              	.LBE736:
  58:../../DaisySP//Source/Utility/dsp.h **** }
 1000              		.loc 12 58 5 discriminator 2 view .LVU225
 1001              	.LBB789:
 1002              	.LBB764:
 1003              	.LBB760:
 1004              	.LBB756:
 1005              	.LBB744:
 1006              	.LBI744:
  32:../../DaisySP//Source/Utility/dsp.h **** {
 1007              		.loc 12 32 14 discriminator 2 view .LVU226
 1008              	.LBB745:
  34:../../DaisySP//Source/Utility/dsp.h **** #ifdef __arm__
 1009              		.loc 12 34 5 discriminator 2 view .LVU227
  36:../../DaisySP//Source/Utility/dsp.h **** #else
 1010              		.loc 12 36 5 discriminator 2 view .LVU228
 1011              	.LBE745:
 1012              	.LBE744:
 1013              	.LBE756:
 1014              	.LBE760:
 1015              	.LBE764:
 1016              	.LBB765:
 1017              	.LBB766:
  48:Grain.h       ****         }
 1018              		.loc 13 48 49 is_stmt 0 discriminator 2 view .LVU229
 1019 00c6 DFED1A6A 		vldr.32	s13, .L18+28
 1020              	.LBE766:
 1021              	.LBE765:
 1022              	.LBB782:
 1023              	.LBB761:
 1024              	.LBB757:
 1025              	.LBB748:
 1026              	.LBB749:
  47:../../DaisySP//Source/Utility/dsp.h **** #else
 1027              		.loc 12 47 5 discriminator 2 view .LVU230
 1028 00ca B7EE006A 		vmov.f32	s12, #1.0e+0
 1029              	.LBE749:
 1030              	.LBE748:
 1031              	.LBB752:
 1032              	.LBB746:
  36:../../DaisySP//Source/Utility/dsp.h **** #else
 1033              		.loc 12 36 5 discriminator 2 view .LVU231
ARM GAS  /var/folders/hl/qgbwny5j0fd895c2c41bk3tw0000gp/T//cc63D1lp.s 			page 36


 1034 00ce DFED117A 		vldr.32	s15, .L18
 1035              	.LBE746:
 1036              	.LBE752:
 1037              	.LBE757:
 1038              	.LBE761:
 1039              	.LBE782:
 1040              	.LBB783:
 1041              	.LBB778:
  48:Grain.h       ****         }
 1042              		.loc 13 48 33 discriminator 2 view .LVU232
 1043 00d2 B3EE040A 		vmov.f32	s0, #2.0e+1
 1044              	.LBB767:
 1045              	.LBB768:
 1046              	.LBB769:
  36:../../DaisySP//Source/Utility/dsp.h **** #else
 1047              		.loc 12 36 5 discriminator 2 view .LVU233
 1048              		.syntax unified
 1049              	@ 36 "../../DaisySP//Source/Utility/dsp.h" 1
 1050 00d6 88FE277A 		vmaxnm.f32 s14, s16, s15
 1051              	@ 0 "" 2
 1052              		.thumb
 1053              		.syntax unified
 1054              	.LBE769:
 1055              	.LBE768:
 1056              	.LBB771:
 1057              	.LBB772:
  47:../../DaisySP//Source/Utility/dsp.h **** #else
 1058              		.loc 12 47 5 discriminator 2 view .LVU234
 1059              		.syntax unified
 1060              	@ 47 "../../DaisySP//Source/Utility/dsp.h" 1
 1061 00da 87FE467A 		vminnm.f32 s14, s14, s12
 1062              	@ 0 "" 2
 1063              		.thumb
 1064              		.syntax unified
 1065              	.LBE772:
 1066              	.LBE771:
 1067              	.LBE767:
  48:Grain.h       ****         }
 1068              		.loc 13 48 49 discriminator 2 view .LVU235
 1069 00de 67EE266A 		vmul.f32	s13, s14, s13
  47:Grain.h       ****             feedbackSvf_.SetFreq(20.0f + 100.0f * feedback_ * feedback_);   // Formula from https:/
 1070              		.loc 13 47 23 discriminator 2 view .LVU236
 1071 00e2 84ED077A 		vstr.32	s14, [r4, #28]
  48:Grain.h       ****         }
 1072              		.loc 13 48 33 discriminator 2 view .LVU237
 1073 00e6 04F17000 		add	r0, r4, #112
 1074              	.LBE778:
 1075              	.LBE783:
  29:test.cpp      **** 		grains[i].SetDuration(grainSize);
 1076              		.loc 10 29 23 discriminator 2 view .LVU238
 1077 00ea BC34     		adds	r4, r4, #188
 1078              	.LBB784:
 1079              	.LBB762:
 1080              	.LBB758:
 1081              	.LBB753:
 1082              	.LBB747:
  36:../../DaisySP//Source/Utility/dsp.h **** #else
ARM GAS  /var/folders/hl/qgbwny5j0fd895c2c41bk3tw0000gp/T//cc63D1lp.s 			page 37


 1083              		.loc 12 36 5 discriminator 2 view .LVU239
 1084              		.syntax unified
 1085              	@ 36 "../../DaisySP//Source/Utility/dsp.h" 1
 1086 00ec C8FEA77A 		vmaxnm.f32 s15, s17, s15
 1087              	@ 0 "" 2
 1088              	.LVL41:
  40:../../DaisySP//Source/Utility/dsp.h **** }
 1089              		.loc 12 40 5 is_stmt 1 discriminator 2 view .LVU240
  40:../../DaisySP//Source/Utility/dsp.h **** }
 1090              		.loc 12 40 5 is_stmt 0 discriminator 2 view .LVU241
 1091              		.thumb
 1092              		.syntax unified
 1093              	.LBE747:
 1094              	.LBE753:
 1095              	.LBB754:
 1096              	.LBI748:
  43:../../DaisySP//Source/Utility/dsp.h **** {
 1097              		.loc 12 43 14 is_stmt 1 discriminator 2 view .LVU242
 1098              	.LBB750:
  45:../../DaisySP//Source/Utility/dsp.h **** #ifdef __arm__
 1099              		.loc 12 45 5 discriminator 2 view .LVU243
  47:../../DaisySP//Source/Utility/dsp.h **** #else
 1100              		.loc 12 47 5 discriminator 2 view .LVU244
 1101              	.LBE750:
 1102              	.LBE754:
 1103              	.LBE758:
 1104              	.LBE762:
 1105              	.LBE784:
 1106              	.LBB785:
 1107              	.LBB779:
  48:Grain.h       ****         }
 1108              		.loc 13 48 33 is_stmt 0 discriminator 2 view .LVU245
 1109 00f0 A7EE260A 		vfma.f32	s0, s14, s13
 1110              	.LBE779:
 1111              	.LBE785:
 1112              	.LBB786:
 1113              	.LBB763:
 1114              	.LBB759:
 1115              	.LBB755:
 1116              	.LBB751:
  47:../../DaisySP//Source/Utility/dsp.h **** #else
 1117              		.loc 12 47 5 discriminator 2 view .LVU246
 1118              		.syntax unified
 1119              	@ 47 "../../DaisySP//Source/Utility/dsp.h" 1
 1120 00f4 C7FEC67A 		vminnm.f32 s15, s15, s12
 1121              	@ 0 "" 2
 1122              	.LVL42:
  51:../../DaisySP//Source/Utility/dsp.h **** }
 1123              		.loc 12 51 5 is_stmt 1 discriminator 2 view .LVU247
  51:../../DaisySP//Source/Utility/dsp.h **** }
 1124              		.loc 12 51 5 is_stmt 0 discriminator 2 view .LVU248
 1125              		.thumb
 1126              		.syntax unified
 1127              	.LBE751:
 1128              	.LBE755:
 1129              	.LBE759:
 1130              		.loc 13 64 27 discriminator 2 view .LVU249
ARM GAS  /var/folders/hl/qgbwny5j0fd895c2c41bk3tw0000gp/T//cc63D1lp.s 			page 38


 1131 00f8 44ED267A 		vstr.32	s15, [r4, #-152]
 1132              	.LVL43:
 1133              		.loc 13 64 27 discriminator 2 view .LVU250
 1134              	.LBE763:
 1135              	.LBE786:
  33:test.cpp      **** 		grains[i].SetFeedback(grainFeedback);
 1136              		.loc 10 33 3 is_stmt 1 discriminator 2 view .LVU251
 1137              	.LBB787:
 1138              	.LBI765:
  45:Grain.h       ****         {
 1139              		.loc 13 45 21 discriminator 2 view .LVU252
 1140              	.LBB780:
  47:Grain.h       ****             feedbackSvf_.SetFreq(20.0f + 100.0f * feedback_ * feedback_);   // Formula from https:/
 1141              		.loc 13 47 13 discriminator 2 view .LVU253
 1142              	.LBB776:
 1143              	.LBI767:
  56:../../DaisySP//Source/Utility/dsp.h **** {
 1144              		.loc 12 56 14 discriminator 2 view .LVU254
 1145              	.LBE776:
 1146              	.LBE780:
 1147              	.LBE787:
 1148              	.LBE789:
  58:../../DaisySP//Source/Utility/dsp.h **** }
 1149              		.loc 12 58 5 discriminator 2 view .LVU255
 1150              	.LBB790:
 1151              	.LBB788:
 1152              	.LBB781:
 1153              	.LBB777:
 1154              	.LBB774:
 1155              	.LBI768:
  32:../../DaisySP//Source/Utility/dsp.h **** {
 1156              		.loc 12 32 14 discriminator 2 view .LVU256
 1157              	.LBB770:
  34:../../DaisySP//Source/Utility/dsp.h **** #ifdef __arm__
 1158              		.loc 12 34 5 discriminator 2 view .LVU257
  36:../../DaisySP//Source/Utility/dsp.h **** #else
 1159              		.loc 12 36 5 discriminator 2 view .LVU258
  40:../../DaisySP//Source/Utility/dsp.h **** }
 1160              		.loc 12 40 5 discriminator 2 view .LVU259
  40:../../DaisySP//Source/Utility/dsp.h **** }
 1161              		.loc 12 40 5 is_stmt 0 discriminator 2 view .LVU260
 1162              	.LBE770:
 1163              	.LBE774:
 1164              	.LBB775:
 1165              	.LBI771:
  43:../../DaisySP//Source/Utility/dsp.h **** {
 1166              		.loc 12 43 14 is_stmt 1 discriminator 2 view .LVU261
 1167              	.LBB773:
  45:../../DaisySP//Source/Utility/dsp.h **** #ifdef __arm__
 1168              		.loc 12 45 5 discriminator 2 view .LVU262
  47:../../DaisySP//Source/Utility/dsp.h **** #else
 1169              		.loc 12 47 5 discriminator 2 view .LVU263
  51:../../DaisySP//Source/Utility/dsp.h **** }
 1170              		.loc 12 51 5 discriminator 2 view .LVU264
  51:../../DaisySP//Source/Utility/dsp.h **** }
 1171              		.loc 12 51 5 is_stmt 0 discriminator 2 view .LVU265
 1172              	.LBE773:
ARM GAS  /var/folders/hl/qgbwny5j0fd895c2c41bk3tw0000gp/T//cc63D1lp.s 			page 39


 1173              	.LBE775:
 1174              	.LBE777:
  48:Grain.h       ****         }
 1175              		.loc 13 48 13 is_stmt 1 discriminator 2 view .LVU266
  48:Grain.h       ****         }
 1176              		.loc 13 48 33 is_stmt 0 discriminator 2 view .LVU267
 1177 00fc FFF7FEFF 		bl	_ZN7daisysp3Svf7SetFreqEf
 1178              	.LVL44:
  48:Grain.h       ****         }
 1179              		.loc 13 48 33 discriminator 2 view .LVU268
 1180              	.LBE781:
 1181              	.LBE788:
  29:test.cpp      **** 		grains[i].SetDuration(grainSize);
 1182              		.loc 10 29 2 is_stmt 1 discriminator 2 view .LVU269
  29:test.cpp      **** 		grains[i].SetDuration(grainSize);
 1183              		.loc 10 29 23 discriminator 2 view .LVU270
 1184 0100 AC42     		cmp	r4, r5
 1185 0102 D9D1     		bne	.L15
 1186              	.LBE790:
  34:test.cpp      **** 	}
  35:test.cpp      **** 
  36:test.cpp      **** 	rev.SetFeedback(revFeedback);
 1187              		.loc 10 36 2 view .LVU271
 1188              	.LVL45:
 1189              	.LBB791:
 1190              	.LBI791:
  42:../../DaisySP//Source/Effects/reverbsc.h ****     /** Initializes the reverb module, and sets the sample_rate at which the Process function will 
  43:../../DaisySP//Source/Effects/reverbsc.h ****         Returns 0 if all good, or 1 if it runs out of delay times exceed maximum allowed.
  44:../../DaisySP//Source/Effects/reverbsc.h ****     */
  45:../../DaisySP//Source/Effects/reverbsc.h ****     int Init(float sample_rate);
  46:../../DaisySP//Source/Effects/reverbsc.h **** 
  47:../../DaisySP//Source/Effects/reverbsc.h ****     /** Process the input through the reverb, and updates values of out1, and out2 with the new pro
  48:../../DaisySP//Source/Effects/reverbsc.h ****     */
  49:../../DaisySP//Source/Effects/reverbsc.h ****     int Process(const float &in1, const float &in2, float *out1, float *out2);
  50:../../DaisySP//Source/Effects/reverbsc.h **** 
  51:../../DaisySP//Source/Effects/reverbsc.h ****     /** controls the reverb time. reverb tail becomes infinite when set to 1.0
  52:../../DaisySP//Source/Effects/reverbsc.h ****         \param fb - sets reverb time. range: 0.0 to 1.0
  53:../../DaisySP//Source/Effects/reverbsc.h ****     */
  54:../../DaisySP//Source/Effects/reverbsc.h ****     inline void SetFeedback(const float &fb) { feedback_ = fb; }
 1191              		.loc 9 54 17 view .LVU272
 1192              	.LBB792:
 1193              		.loc 9 54 48 view .LVU273
 1194              		.loc 9 54 58 is_stmt 0 view .LVU274
 1195 0104 0B4B     		ldr	r3, .L18+32
 1196 0106 C3ED00AA 		vstr.32	s21, [r3]
 1197              	.LVL46:
 1198              		.loc 9 54 58 view .LVU275
 1199              	.LBE792:
 1200              	.LBE791:
  37:test.cpp      **** 	rev.SetLpFreq(lpFreq);
 1201              		.loc 10 37 2 is_stmt 1 view .LVU276
 1202              	.LBB793:
 1203              	.LBI793:
  55:../../DaisySP//Source/Effects/reverbsc.h ****     /** controls the internal dampening filter's cutoff frequency.
  56:../../DaisySP//Source/Effects/reverbsc.h ****         \param freq - low pass frequency. range: 0.0 to sample_rate / 2
  57:../../DaisySP//Source/Effects/reverbsc.h ****     */
  58:../../DaisySP//Source/Effects/reverbsc.h ****     inline void SetLpFreq(const float &freq) { lpfreq_ = freq; }
ARM GAS  /var/folders/hl/qgbwny5j0fd895c2c41bk3tw0000gp/T//cc63D1lp.s 			page 40


 1204              		.loc 9 58 17 view .LVU277
 1205              	.LBB794:
 1206              		.loc 9 58 48 view .LVU278
 1207              		.loc 9 58 56 is_stmt 0 view .LVU279
 1208 010a 83ED01AA 		vstr.32	s20, [r3, #4]
 1209              	.LVL47:
 1210              		.loc 9 58 56 view .LVU280
 1211              	.LBE794:
 1212              	.LBE793:
  38:test.cpp      **** }
 1213              		.loc 10 38 1 view .LVU281
 1214 010e BDEC068B 		vldm	sp!, {d8-d10}
 1215              		.cfi_restore 84
 1216              		.cfi_restore 85
 1217              		.cfi_restore 82
 1218              		.cfi_restore 83
 1219              		.cfi_restore 80
 1220              		.cfi_restore 81
 1221              		.cfi_def_cfa_offset 16
 1222              	.LVL48:
 1223              		.loc 10 38 1 view .LVU282
 1224 0112 38BD     		pop	{r3, r4, r5, pc}
 1225              	.L19:
 1226              		.align	2
 1227              	.L18:
 1228 0114 00000000 		.word	0
 1229 0118 00000000 		.word	.LANCHOR18
 1230 011c 00000000 		.word	.LANCHOR19
 1231 0120 A4707D3F 		.word	1065185444
 1232 0124 E731483F 		.word	1061695975
 1233 0128 00007A44 		.word	1148846080
 1234 012c 00709446 		.word	1184133120
 1235 0130 0000C842 		.word	1120403456
 1236 0134 00000000 		.word	rev
 1237              		.cfi_endproc
 1238              	.LFE4810:
 1240              		.section	.text._Z13AudioCallbackPKPKfPPfj,"ax",%progbits
 1241              		.align	1
 1242              		.p2align 2,,3
 1243              		.global	_Z13AudioCallbackPKPKfPPfj
 1244              		.syntax unified
 1245              		.thumb
 1246              		.thumb_func
 1247              		.fpu fpv5-d16
 1249              	_Z13AudioCallbackPKPKfPPfj:
 1250              	.LVL49:
 1251              	.LFB4811:
  39:test.cpp      **** 
  40:test.cpp      **** void AudioCallback(AudioHandle::InputBuffer in, AudioHandle::OutputBuffer out, size_t size)
  41:test.cpp      **** {
 1252              		.loc 10 41 1 is_stmt 1 view -0
 1253              		.cfi_startproc
 1254              		@ args = 0, pretend = 0, frame = 16
 1255              		@ frame_needed = 0, uses_anonymous_args = 0
  42:test.cpp      **** 	hw.ProcessAllControls();
 1256              		.loc 10 42 2 view .LVU284
 1257              	.LBB795:
ARM GAS  /var/folders/hl/qgbwny5j0fd895c2c41bk3tw0000gp/T//cc63D1lp.s 			page 41


 1258              	.LBI795:
  66:../../libDaisy//src/daisy_patch_sm.h **** 
  67:../../libDaisy//src/daisy_patch_sm.h ****         /** Initializes the memories, and core peripherals for the Daisy Patch SM */
  68:../../libDaisy//src/daisy_patch_sm.h ****         void Init();
  69:../../libDaisy//src/daisy_patch_sm.h **** 
  70:../../libDaisy//src/daisy_patch_sm.h ****         /** Starts a non-interleaving audio callback */
  71:../../libDaisy//src/daisy_patch_sm.h ****         void StartAudio(AudioHandle::AudioCallback cb);
  72:../../libDaisy//src/daisy_patch_sm.h **** 
  73:../../libDaisy//src/daisy_patch_sm.h ****         /** Starts an interleaving audio callback */
  74:../../libDaisy//src/daisy_patch_sm.h ****         void StartAudio(AudioHandle::InterleavingAudioCallback cb);
  75:../../libDaisy//src/daisy_patch_sm.h **** 
  76:../../libDaisy//src/daisy_patch_sm.h ****         /** Changes the callback that is executing.
  77:../../libDaisy//src/daisy_patch_sm.h ****          *  This may cause clicks if done while audio is processing.
  78:../../libDaisy//src/daisy_patch_sm.h ****          */
  79:../../libDaisy//src/daisy_patch_sm.h ****         void ChangeAudioCallback(AudioHandle::AudioCallback cb);
  80:../../libDaisy//src/daisy_patch_sm.h **** 
  81:../../libDaisy//src/daisy_patch_sm.h ****         /** Changes the callback that is executing.
  82:../../libDaisy//src/daisy_patch_sm.h ****          *  This may cause clicks if done while audio is processing.
  83:../../libDaisy//src/daisy_patch_sm.h ****          */
  84:../../libDaisy//src/daisy_patch_sm.h ****         void ChangeAudioCallback(AudioHandle::InterleavingAudioCallback cb);
  85:../../libDaisy//src/daisy_patch_sm.h **** 
  86:../../libDaisy//src/daisy_patch_sm.h ****         /** Stops the transmission of audio. */
  87:../../libDaisy//src/daisy_patch_sm.h ****         void StopAudio();
  88:../../libDaisy//src/daisy_patch_sm.h **** 
  89:../../libDaisy//src/daisy_patch_sm.h ****         /** Sets the number of samples processed in an audio callback. 
  90:../../libDaisy//src/daisy_patch_sm.h ****          *  This will only take effect on the next invocation of `StartAudio`
  91:../../libDaisy//src/daisy_patch_sm.h ****          */
  92:../../libDaisy//src/daisy_patch_sm.h ****         void SetAudioBlockSize(size_t size);
  93:../../libDaisy//src/daisy_patch_sm.h **** 
  94:../../libDaisy//src/daisy_patch_sm.h ****         /** Sets the samplerate for the audio engine 
  95:../../libDaisy//src/daisy_patch_sm.h ****          *  This will set it to the closest valid samplerate. Options being:
  96:../../libDaisy//src/daisy_patch_sm.h ****          *  8kHz, 16kHz, 32kHz, 48kHz, and 96kHz
  97:../../libDaisy//src/daisy_patch_sm.h ****          */
  98:../../libDaisy//src/daisy_patch_sm.h ****         void SetAudioSampleRate(float sr);
  99:../../libDaisy//src/daisy_patch_sm.h **** 
 100:../../libDaisy//src/daisy_patch_sm.h ****         void SetAudioSampleRate(SaiHandle::Config::SampleRate sample_rate);
 101:../../libDaisy//src/daisy_patch_sm.h **** 
 102:../../libDaisy//src/daisy_patch_sm.h ****         /** Returns the number of samples processed in an audio callback */
 103:../../libDaisy//src/daisy_patch_sm.h ****         size_t AudioBlockSize();
 104:../../libDaisy//src/daisy_patch_sm.h **** 
 105:../../libDaisy//src/daisy_patch_sm.h ****         /** Returns the audio engine's samplerate in Hz */
 106:../../libDaisy//src/daisy_patch_sm.h ****         float AudioSampleRate();
 107:../../libDaisy//src/daisy_patch_sm.h **** 
 108:../../libDaisy//src/daisy_patch_sm.h ****         /** Returns the rate at which the audio callback will be called in Hz */
 109:../../libDaisy//src/daisy_patch_sm.h ****         float AudioCallbackRate();
 110:../../libDaisy//src/daisy_patch_sm.h **** 
 111:../../libDaisy//src/daisy_patch_sm.h ****         /** Starts the Control ADCs 
 112:../../libDaisy//src/daisy_patch_sm.h ****          * 
 113:../../libDaisy//src/daisy_patch_sm.h ****          *  This is started automatically when Init() is called.
 114:../../libDaisy//src/daisy_patch_sm.h ****          */
 115:../../libDaisy//src/daisy_patch_sm.h ****         void StartAdc();
 116:../../libDaisy//src/daisy_patch_sm.h **** 
 117:../../libDaisy//src/daisy_patch_sm.h ****         /** Stops the Control ADCs */
 118:../../libDaisy//src/daisy_patch_sm.h ****         void StopAdc();
 119:../../libDaisy//src/daisy_patch_sm.h **** 
 120:../../libDaisy//src/daisy_patch_sm.h ****         /** Reads and filters all of the analog control inputs */
 121:../../libDaisy//src/daisy_patch_sm.h ****         void ProcessAnalogControls();
ARM GAS  /var/folders/hl/qgbwny5j0fd895c2c41bk3tw0000gp/T//cc63D1lp.s 			page 42


 122:../../libDaisy//src/daisy_patch_sm.h **** 
 123:../../libDaisy//src/daisy_patch_sm.h ****         /** Reads and debounces any of the digital control inputs 
 124:../../libDaisy//src/daisy_patch_sm.h ****          *  This does nothing on this board at this time.
 125:../../libDaisy//src/daisy_patch_sm.h ****          */
 126:../../libDaisy//src/daisy_patch_sm.h ****         void ProcessDigitalControls();
 127:../../libDaisy//src/daisy_patch_sm.h **** 
 128:../../libDaisy//src/daisy_patch_sm.h ****         /** Does both of the above */
 129:../../libDaisy//src/daisy_patch_sm.h ****         void ProcessAllControls()
 1259              		.loc 2 129 14 view .LVU285
 1260              	.LBB796:
 130:../../libDaisy//src/daisy_patch_sm.h ****         {
 131:../../libDaisy//src/daisy_patch_sm.h ****             ProcessAnalogControls();
 1261              		.loc 2 131 13 view .LVU286
 1262              	.LBE796:
 1263              	.LBE795:
  41:test.cpp      **** 	hw.ProcessAllControls();
 1264              		.loc 10 41 1 is_stmt 0 view .LVU287
 1265 0000 2DE9F04F 		push	{r4, r5, r6, r7, r8, r9, r10, fp, lr}
 1266              		.cfi_def_cfa_offset 36
 1267              		.cfi_offset 4, -36
 1268              		.cfi_offset 5, -32
 1269              		.cfi_offset 6, -28
 1270              		.cfi_offset 7, -24
 1271              		.cfi_offset 8, -20
 1272              		.cfi_offset 9, -16
 1273              		.cfi_offset 10, -12
 1274              		.cfi_offset 11, -8
 1275              		.cfi_offset 14, -4
 1276 0004 9246     		mov	r10, r2
 1277 0006 8046     		mov	r8, r0
 1278              	.LBB799:
 1279              	.LBB797:
 1280              		.loc 2 131 34 view .LVU288
 1281 0008 3748     		ldr	r0, .L30
 1282              	.LVL50:
 1283              		.loc 2 131 34 view .LVU289
 1284              	.LBE797:
 1285              	.LBE799:
  41:test.cpp      **** 	hw.ProcessAllControls();
 1286              		.loc 10 41 1 view .LVU290
 1287 000a 8946     		mov	r9, r1
 1288 000c 2DED028B 		vpush.64	{d8}
 1289              		.cfi_def_cfa_offset 44
 1290              		.cfi_offset 80, -44
 1291              		.cfi_offset 81, -40
 1292 0010 87B0     		sub	sp, sp, #28
 1293              		.cfi_def_cfa_offset 72
 1294              	.LBB800:
 1295              	.LBB798:
 1296              		.loc 2 131 34 view .LVU291
 1297 0012 FFF7FEFF 		bl	_ZN5daisy8patch_sm12DaisyPatchSM21ProcessAnalogControlsEv
 1298              	.LVL51:
 132:../../libDaisy//src/daisy_patch_sm.h ****             ProcessDigitalControls();
 1299              		.loc 2 132 13 is_stmt 1 view .LVU292
 1300              		.loc 2 132 35 is_stmt 0 view .LVU293
 1301 0016 3448     		ldr	r0, .L30
 1302 0018 FFF7FEFF 		bl	_ZN5daisy8patch_sm12DaisyPatchSM22ProcessDigitalControlsEv
ARM GAS  /var/folders/hl/qgbwny5j0fd895c2c41bk3tw0000gp/T//cc63D1lp.s 			page 43


 1303              	.LVL52:
 1304              		.loc 2 132 35 view .LVU294
 1305              	.LBE798:
 1306              	.LBE800:
  43:test.cpp      **** 	updateControls();
 1307              		.loc 10 43 2 is_stmt 1 view .LVU295
 1308              		.loc 10 43 16 is_stmt 0 view .LVU296
 1309 001c FFF7FEFF 		bl	_Z14updateControlsv
 1310              	.LVL53:
  44:test.cpp      **** 	for (size_t i = 0; i < size; i++)
 1311              		.loc 10 44 2 is_stmt 1 view .LVU297
 1312              	.LBB801:
 1313              		.loc 10 44 23 view .LVU298
 1314 0020 BAF1000F 		cmp	r10, #0
 1315 0024 5BD0     		beq	.L20
 1316              		.loc 10 44 14 is_stmt 0 view .LVU299
 1317 0026 0026     		movs	r6, #0
 1318 0028 304D     		ldr	r5, .L30+4
 1319 002a 0DF10C0B 		add	fp, sp, #12
 1320              	.LVL54:
 1321              	.L23:
 1322              	.LBB802:
  45:test.cpp      **** 	{
  46:test.cpp      **** 		float inputs = IN_L[i] + IN_R[i];
 1323              		.loc 10 46 3 is_stmt 1 view .LVU300
  47:test.cpp      **** 		float voicesMix[2], out1, out2;
  48:test.cpp      ****         voicesMix[0] = 0;
 1324              		.loc 10 48 22 is_stmt 0 view .LVU301
 1325 002e 0021     		movs	r1, #0
 1326 0030 B700     		lsls	r7, r6, #2
 1327 0032 2F4C     		ldr	r4, .L30+8
  46:test.cpp      **** 		float voicesMix[2], out1, out2;
 1328              		.loc 10 46 34 view .LVU302
 1329 0034 D8E90023 		ldrd	r2, r3, [r8]
  46:test.cpp      **** 		float voicesMix[2], out1, out2;
 1330              		.loc 10 46 24 view .LVU303
 1331 0038 02EB8602 		add	r2, r2, r6, lsl #2
  46:test.cpp      **** 		float voicesMix[2], out1, out2;
 1332              		.loc 10 46 34 view .LVU304
 1333 003c 03EB8603 		add	r3, r3, r6, lsl #2
  46:test.cpp      **** 		float voicesMix[2], out1, out2;
 1334              		.loc 10 46 9 view .LVU305
 1335 0040 92ED008A 		vldr.32	s16, [r2]
 1336 0044 D3ED007A 		vldr.32	s15, [r3]
 1337              		.loc 10 48 22 view .LVU306
 1338 0048 0491     		str	r1, [sp, #16]	@ float
  46:test.cpp      **** 		float voicesMix[2], out1, out2;
 1339              		.loc 10 46 9 view .LVU307
 1340 004a 38EE278A 		vadd.f32	s16, s16, s15
 1341              	.LVL55:
  47:test.cpp      **** 		float voicesMix[2], out1, out2;
 1342              		.loc 10 47 3 is_stmt 1 view .LVU308
 1343              		.loc 10 48 9 view .LVU309
  49:test.cpp      ****         voicesMix[1] = 0;
 1344              		.loc 10 49 9 view .LVU310
 1345              		.loc 10 49 22 is_stmt 0 view .LVU311
 1346 004e 0591     		str	r1, [sp, #20]	@ float
ARM GAS  /var/folders/hl/qgbwny5j0fd895c2c41bk3tw0000gp/T//cc63D1lp.s 			page 44


  50:test.cpp      **** 		
  51:test.cpp      ****         for (size_t j = 0; j < kGrainCount; j++)
 1347              		.loc 10 51 9 is_stmt 1 view .LVU312
 1348              	.LVL56:
 1349              	.LBB803:
 1350              		.loc 10 51 30 view .LVU313
 1351              	.L22:
 1352              	.LBB804:
  52:test.cpp      ****         {
  53:test.cpp      ****             float grainProcess = grains[j].Process(inputs);
 1353              		.loc 10 53 13 discriminator 2 view .LVU314
 1354              		.loc 10 53 51 is_stmt 0 discriminator 2 view .LVU315
 1355 0050 2046     		mov	r0, r4
 1356 0052 B0EE480A 		vmov.f32	s0, s16
 1357 0056 FFF7FEFF 		bl	_ZN10graindelay5Grain7ProcessEf
 1358              	.LVL57:
  54:test.cpp      ****             voicesMix[0] += grainProcess * (grains[j].GetPan() * -0.5 + 0.5);
 1359              		.loc 10 54 13 is_stmt 1 discriminator 2 view .LVU316
 1360              		.loc 10 54 71 is_stmt 0 discriminator 2 view .LVU317
 1361 005a B6EE005B 		vmov.f64	d5, #5.0e-1
 1362              		.loc 10 54 61 discriminator 2 view .LVU318
 1363 005e 94ED064A 		vldr.32	s8, [r4, #24]
 1364              		.loc 10 54 71 discriminator 2 view .LVU319
 1365 0062 BEEE002B 		vmov.f64	d2, #-5.0e-1
 1366              		.loc 10 54 26 discriminator 2 view .LVU320
 1367 0066 9DED046A 		vldr.32	s12, [sp, #16]
 1368              		.loc 10 54 29 discriminator 2 view .LVU321
 1369 006a B7EEC00A 		vcvt.f64.f32	d0, s0
 1370              	.LVL58:
 1371              	.LBB805:
 1372              	.LBI805:
  65:Grain.h       ****         }
  66:Grain.h       **** 
  67:Grain.h       ****         inline float GetPan() {return pan_;}
 1373              		.loc 13 67 22 is_stmt 1 discriminator 2 view .LVU322
 1374              	.LBB806:
 1375              		.loc 13 67 32 discriminator 2 view .LVU323
 1376              		.loc 13 67 32 is_stmt 0 discriminator 2 view .LVU324
 1377              	.LBE806:
 1378              	.LBE805:
 1379              		.loc 10 54 61 discriminator 2 view .LVU325
 1380 006e B7EEC44A 		vcvt.f64.f32	d4, s8
  55:test.cpp      ****             voicesMix[1] += grainProcess * (grains[j].GetPan() * 0.5 + 0.5);
 1381              		.loc 10 55 26 discriminator 2 view .LVU326
 1382 0072 9DED057A 		vldr.32	s14, [sp, #20]
  54:test.cpp      ****             voicesMix[0] += grainProcess * (grains[j].GetPan() * -0.5 + 0.5);
 1383              		.loc 10 54 71 discriminator 2 view .LVU327
 1384 0076 B0EE453B 		vmov.f64	d3, d5
 1385              	.LBE804:
  51:test.cpp      ****         {
 1386              		.loc 10 51 30 discriminator 2 view .LVU328
 1387 007a BC34     		adds	r4, r4, #188
 1388              	.LBB807:
  54:test.cpp      ****             voicesMix[1] += grainProcess * (grains[j].GetPan() * 0.5 + 0.5);
 1389              		.loc 10 54 26 discriminator 2 view .LVU329
 1390 007c B7EEC66A 		vcvt.f64.f32	d6, s12
 1391              		.loc 10 55 70 discriminator 2 view .LVU330
ARM GAS  /var/folders/hl/qgbwny5j0fd895c2c41bk3tw0000gp/T//cc63D1lp.s 			page 45


 1392 0080 A4EE055B 		vfma.f64	d5, d4, d5
 1393              	.LBE807:
  51:test.cpp      ****         {
 1394              		.loc 10 51 30 discriminator 2 view .LVU331
 1395 0084 A542     		cmp	r5, r4
 1396              	.LBB808:
  54:test.cpp      ****             voicesMix[1] += grainProcess * (grains[j].GetPan() * 0.5 + 0.5);
 1397              		.loc 10 54 71 discriminator 2 view .LVU332
 1398 0086 A4EE023B 		vfma.f64	d3, d4, d2
 1399              		.loc 10 55 26 discriminator 2 view .LVU333
 1400 008a B7EEC77A 		vcvt.f64.f32	d7, s14
 1401 008e A0EE057B 		vfma.f64	d7, d0, d5
  54:test.cpp      ****             voicesMix[1] += grainProcess * (grains[j].GetPan() * 0.5 + 0.5);
 1402              		.loc 10 54 26 discriminator 2 view .LVU334
 1403 0092 A0EE036B 		vfma.f64	d6, d0, d3
 1404              		.loc 10 55 26 discriminator 2 view .LVU335
 1405 0096 B7EEC77B 		vcvt.f32.f64	s14, d7
 1406 009a 8DED057A 		vstr.32	s14, [sp, #20]
  54:test.cpp      ****             voicesMix[1] += grainProcess * (grains[j].GetPan() * 0.5 + 0.5);
 1407              		.loc 10 54 26 discriminator 2 view .LVU336
 1408 009e B7EEC66B 		vcvt.f32.f64	s12, d6
 1409 00a2 8DED046A 		vstr.32	s12, [sp, #16]
 1410              		.loc 10 55 13 is_stmt 1 discriminator 2 view .LVU337
 1411              	.LVL59:
 1412              		.loc 10 55 13 is_stmt 0 discriminator 2 view .LVU338
 1413              	.LBE808:
 1414              	.LBE803:
 1415              	.LBE802:
 1416              	.LBE801:
 1417              		.loc 13 67 32 is_stmt 1 discriminator 2 view .LVU339
 1418              	.LBB813:
 1419              	.LBB810:
 1420              	.LBB809:
  51:test.cpp      ****         {
 1421              		.loc 10 51 9 discriminator 2 view .LVU340
  51:test.cpp      ****         {
 1422              		.loc 10 51 30 discriminator 2 view .LVU341
 1423 00a6 D3D1     		bne	.L22
 1424              	.LBE809:
  56:test.cpp      ****         }
  57:test.cpp      **** 
  58:test.cpp      **** 		rev.Process(voicesMix[0], voicesMix[1], &out1, &out2);
 1425              		.loc 10 58 3 discriminator 2 view .LVU342
 1426              		.loc 10 58 14 is_stmt 0 discriminator 2 view .LVU343
 1427 00a8 02AB     		add	r3, sp, #8
 1428 00aa 05AA     		add	r2, sp, #20
 1429 00ac 04A9     		add	r1, sp, #16
 1430 00ae 1148     		ldr	r0, .L30+12
 1431 00b0 CDF800B0 		str	fp, [sp]
 1432              	.LBE810:
  44:test.cpp      **** 	{
 1433              		.loc 10 44 2 discriminator 2 view .LVU344
 1434 00b4 0136     		adds	r6, r6, #1
 1435              	.LVL60:
 1436              	.LBB811:
 1437              		.loc 10 58 14 discriminator 2 view .LVU345
 1438 00b6 FFF7FEFF 		bl	_ZN7daisysp8ReverbSc7ProcessERKfS2_PfS3_
ARM GAS  /var/folders/hl/qgbwny5j0fd895c2c41bk3tw0000gp/T//cc63D1lp.s 			page 46


 1439              	.LVL61:
  59:test.cpp      **** 
  60:test.cpp      **** 		OUT_L[i] = out1;
 1440              		.loc 10 60 3 is_stmt 1 discriminator 2 view .LVU346
 1441              		.loc 10 60 12 is_stmt 0 discriminator 2 view .LVU347
 1442 00ba D9F80030 		ldr	r3, [r9]
 1443 00be 029A     		ldr	r2, [sp, #8]	@ float
  61:test.cpp      **** 		OUT_R[i] = out2 + (inputs * 0.5f);
 1444              		.loc 10 61 19 discriminator 2 view .LVU348
 1445 00c0 B6EE007A 		vmov.f32	s14, #5.0e-1
  60:test.cpp      **** 		OUT_R[i] = out2 + (inputs * 0.5f);
 1446              		.loc 10 60 12 discriminator 2 view .LVU349
 1447 00c4 3B44     		add	r3, r3, r7
 1448              	.LBE811:
  44:test.cpp      **** 	{
 1449              		.loc 10 44 23 discriminator 2 view .LVU350
 1450 00c6 B245     		cmp	r10, r6
 1451              	.LBB812:
  60:test.cpp      **** 		OUT_R[i] = out2 + (inputs * 0.5f);
 1452              		.loc 10 60 12 discriminator 2 view .LVU351
 1453 00c8 1A60     		str	r2, [r3]	@ float
 1454              		.loc 10 61 3 is_stmt 1 discriminator 2 view .LVU352
 1455              		.loc 10 61 19 is_stmt 0 discriminator 2 view .LVU353
 1456 00ca DDED037A 		vldr.32	s15, [sp, #12]
 1457              		.loc 10 61 10 discriminator 2 view .LVU354
 1458 00ce D9F80430 		ldr	r3, [r9, #4]
 1459              		.loc 10 61 19 discriminator 2 view .LVU355
 1460 00d2 E8EE077A 		vfma.f32	s15, s16, s14
 1461              		.loc 10 61 10 discriminator 2 view .LVU356
 1462 00d6 3B44     		add	r3, r3, r7
 1463              		.loc 10 61 12 discriminator 2 view .LVU357
 1464 00d8 C3ED007A 		vstr.32	s15, [r3]
 1465              	.LBE812:
  44:test.cpp      **** 	{
 1466              		.loc 10 44 2 is_stmt 1 discriminator 2 view .LVU358
 1467              	.LVL62:
  44:test.cpp      **** 	{
 1468              		.loc 10 44 23 discriminator 2 view .LVU359
 1469 00dc A7D1     		bne	.L23
 1470              	.LVL63:
 1471              	.L20:
  44:test.cpp      **** 	{
 1472              		.loc 10 44 23 is_stmt 0 discriminator 2 view .LVU360
 1473              	.LBE813:
  62:test.cpp      **** 	}
  63:test.cpp      **** }
 1474              		.loc 10 63 1 view .LVU361
 1475 00de 07B0     		add	sp, sp, #28
 1476              		.cfi_def_cfa_offset 44
 1477              		@ sp needed
 1478 00e0 BDEC028B 		vldm	sp!, {d8}
 1479              		.cfi_restore 80
 1480              		.cfi_restore 81
 1481              		.cfi_def_cfa_offset 36
 1482 00e4 BDE8F08F 		pop	{r4, r5, r6, r7, r8, r9, r10, fp, pc}
 1483              	.LVL64:
 1484              	.L31:
ARM GAS  /var/folders/hl/qgbwny5j0fd895c2c41bk3tw0000gp/T//cc63D1lp.s 			page 47


 1485              		.loc 10 63 1 view .LVU362
 1486              		.align	2
 1487              	.L30:
 1488 00e8 00000000 		.word	.LANCHOR18
 1489 00ec 58070000 		.word	.LANCHOR19+1880
 1490 00f0 00000000 		.word	.LANCHOR19
 1491 00f4 00000000 		.word	rev
 1492              		.cfi_endproc
 1493              	.LFE4811:
 1495              		.section	.text._Z10InitGrainsf,"ax",%progbits
 1496              		.align	1
 1497              		.p2align 2,,3
 1498              		.global	_Z10InitGrainsf
 1499              		.syntax unified
 1500              		.thumb
 1501              		.thumb_func
 1502              		.fpu fpv5-d16
 1504              	_Z10InitGrainsf:
 1505              	.LVL65:
 1506              	.LFB4812:
  64:test.cpp      **** 
  65:test.cpp      **** 
  66:test.cpp      **** void InitGrains(const float sampleRate)
  67:test.cpp      **** {
 1507              		.loc 10 67 1 is_stmt 1 view -0
 1508              		.cfi_startproc
 1509              		@ args = 0, pretend = 0, frame = 40
 1510              		@ frame_needed = 0, uses_anonymous_args = 0
  68:test.cpp      ****     const float mixValues[kGrainCount] = {0.25f, 0.2f, 0.1f, 0.3f, 0.15f};         // Sum to 1
 1511              		.loc 10 68 5 view .LVU364
 1512              	.LBB825:
 1513              	.LBB826:
 1514              	.LBB827:
  22:Grain.h       ****             for (size_t i = 0; i < bufferSize; i++)
 1515              		.loc 13 22 40 is_stmt 0 view .LVU365
 1516 0000 2F4B     		ldr	r3, .L38
 1517              	.LBE827:
 1518              	.LBE826:
 1519              	.LBE825:
 1520              		.loc 10 68 17 view .LVU366
 1521 0002 4FF07A52 		mov	r2, #1048576000
  67:test.cpp      ****     const float mixValues[kGrainCount] = {0.25f, 0.2f, 0.1f, 0.3f, 0.15f};         // Sum to 1
 1522              		.loc 10 67 1 view .LVU367
 1523 0006 2DE9F041 		push	{r4, r5, r6, r7, r8, lr}
 1524              		.cfi_def_cfa_offset 24
 1525              		.cfi_offset 4, -24
 1526              		.cfi_offset 5, -20
 1527              		.cfi_offset 6, -16
 1528              		.cfi_offset 7, -12
 1529              		.cfi_offset 8, -8
 1530              		.cfi_offset 14, -4
 1531              	.LBB850:
 1532              	.LBB835:
 1533              	.LBB829:
  22:Grain.h       ****             for (size_t i = 0; i < bufferSize; i++)
 1534              		.loc 13 22 38 view .LVU368
 1535 000a 1968     		ldr	r1, [r3]
ARM GAS  /var/folders/hl/qgbwny5j0fd895c2c41bk3tw0000gp/T//cc63D1lp.s 			page 48


 1536              	.LBE829:
 1537              	.LBE835:
 1538              	.LBE850:
 1539              		.loc 10 68 17 view .LVU369
 1540 000c 0023     		movs	r3, #0
 1541              	.LBB851:
 1542              	.LBB836:
 1543              	.LBB830:
  22:Grain.h       ****             for (size_t i = 0; i < bufferSize; i++)
 1544              		.loc 13 22 38 view .LVU370
 1545 000e 2D4F     		ldr	r7, .L38+4
 1546 0010 2D4D     		ldr	r5, .L38+8
 1547 0012 7F1A     		subs	r7, r7, r1
 1548 0014 05F5EB68 		add	r8, r5, #1880
 1549              	.LBE830:
 1550              	.LBE836:
 1551              	.LBE851:
  67:test.cpp      ****     const float mixValues[kGrainCount] = {0.25f, 0.2f, 0.1f, 0.3f, 0.15f};         // Sum to 1
 1552              		.loc 10 67 1 view .LVU371
 1553 0018 2DED028B 		vpush.64	{d8}
 1554              		.cfi_def_cfa_offset 32
 1555              		.cfi_offset 80, -32
 1556              		.cfi_offset 81, -28
 1557 001c 8AB0     		sub	sp, sp, #40
 1558              		.cfi_def_cfa_offset 72
  67:test.cpp      ****     const float mixValues[kGrainCount] = {0.25f, 0.2f, 0.1f, 0.3f, 0.15f};         // Sum to 1
 1559              		.loc 10 67 1 view .LVU372
 1560 001e F0EE408A 		vmov.f32	s17, s0
 1561              		.loc 10 68 17 view .LVU373
 1562 0022 CDE90533 		strd	r3, r3, [sp, #20]
 1563 0026 CDE90733 		strd	r3, r3, [sp, #28]
 1564 002a 0993     		str	r3, [sp, #36]
 1565 002c 6E46     		mov	r6, sp
 1566 002e 274B     		ldr	r3, .L38+12
 1567 0030 0092     		str	r2, [sp]	@ float
 1568 0032 0393     		str	r3, [sp, #12]	@ float
 1569 0034 264A     		ldr	r2, .L38+16
 1570 0036 274B     		ldr	r3, .L38+20
 1571 0038 0192     		str	r2, [sp, #4]	@ float
 1572 003a 0493     		str	r3, [sp, #16]	@ float
  69:test.cpp      ****     for (int i = 0; i < kGrainCount; i++) {
 1573              		.loc 10 69 5 is_stmt 1 view .LVU374
 1574              	.LVL66:
 1575              	.LBB852:
 1576              		.loc 10 69 23 view .LVU375
 1577              	.LBE852:
  68:test.cpp      ****     for (int i = 0; i < kGrainCount; i++) {
 1578              		.loc 10 68 17 is_stmt 0 view .LVU376
 1579 003c 264A     		ldr	r2, .L38+24
 1580 003e 274B     		ldr	r3, .L38+28
 1581 0040 0292     		str	r2, [sp, #8]	@ float
 1582              	.LVL67:
 1583              	.L34:
 1584              	.LBB853:
  70:test.cpp      ****         grains[i].Init(sampleRate, &grainBuffer[kBufferSize * i], kBufferSize);
 1585              		.loc 10 70 9 is_stmt 1 discriminator 2 view .LVU377
 1586 0042 274C     		ldr	r4, .L38+32
ARM GAS  /var/folders/hl/qgbwny5j0fd895c2c41bk3tw0000gp/T//cc63D1lp.s 			page 49


 1587              	.LBB837:
 1588              	.LBB831:
  20:Grain.h       ****             buffer_ = buffer;
 1589              		.loc 13 20 25 is_stmt 0 discriminator 2 view .LVU378
 1590 0044 45ED128A 		vstr.32	s17, [r5, #-72]
 1591 0048 1C44     		add	r4, r4, r3
 1592              	.LVL68:
  20:Grain.h       ****             buffer_ = buffer;
 1593              		.loc 13 20 25 discriminator 2 view .LVU379
 1594              	.LBE831:
 1595              	.LBI826:
  18:Grain.h       ****         {
 1596              		.loc 13 18 14 is_stmt 1 discriminator 2 view .LVU380
 1597              	.LBB832:
  20:Grain.h       ****             buffer_ = buffer;
 1598              		.loc 13 20 13 discriminator 2 view .LVU381
  21:Grain.h       ****             bufferSize_ = bufferSize - kInterpolationTail;
 1599              		.loc 13 21 13 discriminator 2 view .LVU382
  22:Grain.h       ****             for (size_t i = 0; i < bufferSize; i++)
 1600              		.loc 13 22 25 is_stmt 0 discriminator 2 view .LVU383
 1601 004a 45F86C7C 		str	r7, [r5, #-108]
  21:Grain.h       ****             bufferSize_ = bufferSize - kInterpolationTail;
 1602              		.loc 13 21 21 discriminator 2 view .LVU384
 1603 004e 45F8704C 		str	r4, [r5, #-112]
  22:Grain.h       ****             for (size_t i = 0; i < bufferSize; i++)
 1604              		.loc 13 22 13 is_stmt 1 discriminator 2 view .LVU385
  23:Grain.h       ****                 buffer_[i] = 0;
 1605              		.loc 13 23 13 discriminator 2 view .LVU386
 1606              	.LVL69:
 1607              	.LBB828:
  23:Grain.h       ****                 buffer_[i] = 0;
 1608              		.loc 13 23 34 discriminator 2 view .LVU387
 1609              	.L33:
  24:Grain.h       ****             writeIndex_ = 0;
 1610              		.loc 13 24 17 view .LVU388
  24:Grain.h       ****             writeIndex_ = 0;
 1611              		.loc 13 24 28 is_stmt 0 view .LVU389
 1612 0052 9FED248A 		vldr.32	s16, .L38+36
 1613 0056 A4EC018A 		vstmia.32	r4!, {s16}
  23:Grain.h       ****                 buffer_[i] = 0;
 1614              		.loc 13 23 13 is_stmt 1 view .LVU390
  23:Grain.h       ****                 buffer_[i] = 0;
 1615              		.loc 13 23 34 view .LVU391
 1616 005a 9C42     		cmp	r4, r3
 1617 005c F9D1     		bne	.L33
 1618              	.LBE828:
  25:Grain.h       ****             readPosition_ = 0;
 1619              		.loc 13 25 13 view .LVU392
  25:Grain.h       ****             readPosition_ = 0;
 1620              		.loc 13 25 25 is_stmt 0 view .LVU393
 1621 005e 0023     		movs	r3, #0
  28:Grain.h       ****             env_.Init(sampleRate);
 1622              		.loc 13 28 30 view .LVU394
 1623 0060 2846     		mov	r0, r5
 1624 0062 B0EE680A 		vmov.f32	s0, s17
  26:Grain.h       **** 
 1625              		.loc 13 26 27 view .LVU395
ARM GAS  /var/folders/hl/qgbwny5j0fd895c2c41bk3tw0000gp/T//cc63D1lp.s 			page 50


 1626 0066 05ED108A 		vstr.32	s16, [r5, #-64]
  25:Grain.h       ****             readPosition_ = 0;
 1627              		.loc 13 25 25 view .LVU396
 1628 006a 45F8683C 		str	r3, [r5, #-104]
  26:Grain.h       **** 
 1629              		.loc 13 26 13 is_stmt 1 view .LVU397
  28:Grain.h       ****             env_.Init(sampleRate);
 1630              		.loc 13 28 13 view .LVU398
  28:Grain.h       ****             env_.Init(sampleRate);
 1631              		.loc 13 28 30 is_stmt 0 view .LVU399
 1632 006e FFF7FEFF 		bl	_ZN7daisysp3Svf4InitEf
 1633              	.LVL70:
  29:Grain.h       **** 
 1634              		.loc 13 29 13 is_stmt 1 view .LVU400
  29:Grain.h       **** 
 1635              		.loc 13 29 22 is_stmt 0 view .LVU401
 1636 0072 A5F13800 		sub	r0, r5, #56
 1637 0076 B0EE680A 		vmov.f32	s0, s17
 1638 007a FFF7FEFF 		bl	_ZN7daisysp5AdEnv4InitEf
 1639              	.LVL71:
  31:Grain.h       ****             speed_ = 1.0f;
 1640              		.loc 13 31 13 is_stmt 1 view .LVU402
  32:Grain.h       ****             amp_ = 0.0f;
 1641              		.loc 13 32 20 is_stmt 0 view .LVU403
 1642 007e B7EE007A 		vmov.f32	s14, #1.0e+0
 1643              	.LBE832:
 1644              	.LBE837:
  71:test.cpp      ****         grains[i].SetAmp(mixValues[i] * 1.66f);
 1645              		.loc 10 71 37 view .LVU404
 1646 0082 F6EC017A 		vldmia.32	r6!, {s15}
 1647              		.loc 10 71 25 view .LVU405
 1648 0086 DFED186A 		vldr.32	s13, .L38+40
 1649              	.LBB838:
 1650              	.LBB833:
  31:Grain.h       ****             speed_ = 1.0f;
 1651              		.loc 13 31 22 view .LVU406
 1652 008a 05ED0F8A 		vstr.32	s16, [r5, #-60]
  32:Grain.h       ****             amp_ = 0.0f;
 1653              		.loc 13 32 13 is_stmt 1 view .LVU407
  34:Grain.h       ****             feedback_ = 0.0f;
 1654              		.loc 13 34 27 is_stmt 0 view .LVU408
 1655 008e 05ED138A 		vstr.32	s16, [r5, #-76]
 1656              	.LBE833:
 1657              	.LBE838:
 1658              		.loc 10 71 25 view .LVU409
 1659 0092 67EEA67A 		vmul.f32	s15, s15, s13
 1660              	.LBB839:
 1661              	.LBB834:
  35:Grain.h       ****         }
 1662              		.loc 13 35 23 view .LVU410
 1663 0096 05ED158A 		vstr.32	s16, [r5, #-84]
  32:Grain.h       ****             amp_ = 0.0f;
 1664              		.loc 13 32 20 view .LVU411
 1665 009a 05ED117A 		vstr.32	s14, [r5, #-68]
  33:Grain.h       ****             grainDensity_ = 0.0f;
 1666              		.loc 13 33 13 is_stmt 1 view .LVU412
  34:Grain.h       ****             feedback_ = 0.0f;
ARM GAS  /var/folders/hl/qgbwny5j0fd895c2c41bk3tw0000gp/T//cc63D1lp.s 			page 51


 1667              		.loc 13 34 13 view .LVU413
  35:Grain.h       ****         }
 1668              		.loc 13 35 13 view .LVU414
 1669              	.LVL72:
  35:Grain.h       ****         }
 1670              		.loc 13 35 13 is_stmt 0 view .LVU415
 1671              	.LBE834:
 1672              	.LBE839:
 1673              		.loc 10 71 9 is_stmt 1 view .LVU416
 1674              	.LBB840:
 1675              	.LBI840:
  40:Grain.h       ****         {
 1676              		.loc 13 40 14 view .LVU417
 1677              	.LBB841:
  42:Grain.h       ****         }
 1678              		.loc 13 42 13 view .LVU418
 1679              	.LBB842:
 1680              	.LBI842:
  56:../../DaisySP//Source/Utility/dsp.h **** {
 1681              		.loc 12 56 14 view .LVU419
 1682              	.LBE842:
 1683              	.LBE841:
 1684              	.LBE840:
 1685              	.LBE853:
  58:../../DaisySP//Source/Utility/dsp.h **** }
 1686              		.loc 12 58 5 view .LVU420
 1687              	.LBB854:
 1688              	.LBB849:
 1689              	.LBB848:
 1690              	.LBB847:
 1691              	.LBB843:
 1692              	.LBI843:
  32:../../DaisySP//Source/Utility/dsp.h **** {
 1693              		.loc 12 32 14 view .LVU421
 1694              	.LBB844:
  34:../../DaisySP//Source/Utility/dsp.h **** #ifdef __arm__
 1695              		.loc 12 34 5 view .LVU422
  36:../../DaisySP//Source/Utility/dsp.h **** #else
 1696              		.loc 12 36 5 view .LVU423
 1697              		.syntax unified
 1698              	@ 36 "../../DaisySP//Source/Utility/dsp.h" 1
 1699 009e 87FE888A 		vmaxnm.f32 s16, s15, s16
 1700              	@ 0 "" 2
 1701              	.LVL73:
  40:../../DaisySP//Source/Utility/dsp.h **** }
 1702              		.loc 12 40 5 view .LVU424
  40:../../DaisySP//Source/Utility/dsp.h **** }
 1703              		.loc 12 40 5 is_stmt 0 view .LVU425
 1704              		.thumb
 1705              		.syntax unified
 1706              	.LBE844:
 1707              	.LBE843:
 1708              	.LBB845:
 1709              	.LBI845:
  43:../../DaisySP//Source/Utility/dsp.h **** {
 1710              		.loc 12 43 14 is_stmt 1 view .LVU426
 1711              	.LBB846:
ARM GAS  /var/folders/hl/qgbwny5j0fd895c2c41bk3tw0000gp/T//cc63D1lp.s 			page 52


  45:../../DaisySP//Source/Utility/dsp.h **** #ifdef __arm__
 1712              		.loc 12 45 5 view .LVU427
  47:../../DaisySP//Source/Utility/dsp.h **** #else
 1713              		.loc 12 47 5 view .LVU428
 1714              		.syntax unified
 1715              	@ 47 "../../DaisySP//Source/Utility/dsp.h" 1
 1716 00a2 88FE478A 		vminnm.f32 s16, s16, s14
 1717              	@ 0 "" 2
 1718              	.LVL74:
  51:../../DaisySP//Source/Utility/dsp.h **** }
 1719              		.loc 12 51 5 view .LVU429
  51:../../DaisySP//Source/Utility/dsp.h **** }
 1720              		.loc 12 51 5 is_stmt 0 view .LVU430
 1721              		.thumb
 1722              		.syntax unified
 1723              	.LBE846:
 1724              	.LBE845:
 1725              	.LBE847:
  42:Grain.h       ****         }
 1726              		.loc 13 42 18 view .LVU431
 1727 00a6 05ED178A 		vstr.32	s16, [r5, #-92]
  42:Grain.h       ****         }
 1728              		.loc 13 42 18 view .LVU432
 1729              	.LBE848:
 1730              	.LBE849:
  69:test.cpp      ****         grains[i].Init(sampleRate, &grainBuffer[kBufferSize * i], kBufferSize);
 1731              		.loc 10 69 5 is_stmt 1 view .LVU433
  69:test.cpp      ****         grains[i].Init(sampleRate, &grainBuffer[kBufferSize * i], kBufferSize);
 1732              		.loc 10 69 23 view .LVU434
 1733 00aa BC35     		adds	r5, r5, #188
 1734 00ac 0F4B     		ldr	r3, .L38+44
 1735 00ae 4545     		cmp	r5, r8
 1736 00b0 2344     		add	r3, r3, r4
 1737 00b2 C6D1     		bne	.L34
 1738              	.LBE854:
  72:test.cpp      ****     }
  73:test.cpp      **** }
 1739              		.loc 10 73 1 is_stmt 0 view .LVU435
 1740 00b4 0AB0     		add	sp, sp, #40
 1741              		.cfi_def_cfa_offset 32
 1742              		@ sp needed
 1743 00b6 BDEC028B 		vldm	sp!, {d8}
 1744              		.cfi_restore 80
 1745              		.cfi_restore 81
 1746              		.cfi_def_cfa_offset 24
 1747 00ba BDE8F081 		pop	{r4, r5, r6, r7, r8, pc}
 1748              	.L39:
 1749 00be 00BF     		.align	2
 1750              	.L38:
 1751 00c0 00000000 		.word	_ZN10graindelay5Grain18kInterpolationTailE
 1752 00c4 80FC0A00 		.word	720000
 1753 00c8 70000000 		.word	.LANCHOR19+112
 1754 00cc 9A99993E 		.word	1050253722
 1755 00d0 CDCC4C3E 		.word	1045220557
 1756 00d4 9A99193E 		.word	1041865114
 1757 00d8 CDCCCC3D 		.word	1036831949
 1758 00dc 00F22B00 		.word	grainBuffer+2880000
ARM GAS  /var/folders/hl/qgbwny5j0fd895c2c41bk3tw0000gp/T//cc63D1lp.s 			page 53


 1759 00e0 000ED4FF 		.word	-2880000
 1760 00e4 00000000 		.word	0
 1761 00e8 E17AD43F 		.word	1070889697
 1762 00ec 00F22B00 		.word	2880000
 1763              		.cfi_endproc
 1764              	.LFE4812:
 1766              		.section	.text.startup.main,"ax",%progbits
 1767              		.align	1
 1768              		.p2align 2,,3
 1769              		.global	main
 1770              		.syntax unified
 1771              		.thumb
 1772              		.thumb_func
 1773              		.fpu fpv5-d16
 1775              	main:
 1776              	.LFB4813:
  74:test.cpp      **** 
  75:test.cpp      **** int main(void)
  76:test.cpp      **** {
 1777              		.loc 10 76 1 is_stmt 1 view -0
 1778              		.cfi_startproc
 1779              		@ args = 0, pretend = 0, frame = 8
 1780              		@ frame_needed = 0, uses_anonymous_args = 0
  77:test.cpp      **** 	hw.Init();
 1781              		.loc 10 77 2 view .LVU437
  76:test.cpp      **** 	hw.Init();
 1782              		.loc 10 76 1 is_stmt 0 view .LVU438
 1783 0000 00B5     		push	{lr}
 1784              		.cfi_def_cfa_offset 4
 1785              		.cfi_offset 14, -4
 1786              		.loc 10 77 9 view .LVU439
 1787 0002 1048     		ldr	r0, .L43
  76:test.cpp      **** 	hw.Init();
 1788              		.loc 10 76 1 view .LVU440
 1789 0004 83B0     		sub	sp, sp, #12
 1790              		.cfi_def_cfa_offset 16
 1791              		.loc 10 77 9 view .LVU441
 1792 0006 FFF7FEFF 		bl	_ZN5daisy8patch_sm12DaisyPatchSM4InitEv
 1793              	.LVL75:
  78:test.cpp      **** 	hw.SetAudioBlockSize(4); // number of samples handled per callback
 1794              		.loc 10 78 2 is_stmt 1 view .LVU442
 1795              		.loc 10 78 22 is_stmt 0 view .LVU443
 1796 000a 0421     		movs	r1, #4
 1797 000c 0D48     		ldr	r0, .L43
 1798 000e FFF7FEFF 		bl	_ZN5daisy8patch_sm12DaisyPatchSM17SetAudioBlockSizeEj
 1799              	.LVL76:
  79:test.cpp      **** 	hw.SetAudioSampleRate(SaiHandle::Config::SampleRate::SAI_48KHZ);
 1800              		.loc 10 79 2 is_stmt 1 view .LVU444
 1801              		.loc 10 79 23 is_stmt 0 view .LVU445
 1802 0012 0321     		movs	r1, #3
 1803 0014 0B48     		ldr	r0, .L43
 1804 0016 FFF7FEFF 		bl	_ZN5daisy8patch_sm12DaisyPatchSM18SetAudioSampleRateENS_9SaiHandle6Config10SampleRateE
 1805              	.LVL77:
  80:test.cpp      **** 	float sample_rate = hw.AudioSampleRate();
 1806              		.loc 10 80 2 is_stmt 1 view .LVU446
 1807              		.loc 10 80 40 is_stmt 0 view .LVU447
 1808 001a 0A48     		ldr	r0, .L43
ARM GAS  /var/folders/hl/qgbwny5j0fd895c2c41bk3tw0000gp/T//cc63D1lp.s 			page 54


 1809 001c FFF7FEFF 		bl	_ZN5daisy8patch_sm12DaisyPatchSM15AudioSampleRateEv
 1810              	.LVL78:
 1811 0020 8DED010A 		vstr.32	s0, [sp, #4]	@ int
 1812              	.LVL79:
  81:test.cpp      **** 
  82:test.cpp      **** 	InitBed();
 1813              		.loc 10 82 2 is_stmt 1 view .LVU448
 1814              		.loc 10 82 9 is_stmt 0 view .LVU449
 1815 0024 FFF7FEFF 		bl	_ZN5daisy8patch_sm7InitBedEv
 1816              	.LVL80:
  83:test.cpp      **** 	InitGrains(sample_rate);
 1817              		.loc 10 83 2 is_stmt 1 view .LVU450
 1818              		.loc 10 83 12 is_stmt 0 view .LVU451
 1819 0028 9DED010A 		vldr.32	s0, [sp, #4]	@ int
 1820 002c FFF7FEFF 		bl	_Z10InitGrainsf
 1821              	.LVL81:
  84:test.cpp      **** 	rev.Init(sample_rate);
 1822              		.loc 10 84 2 is_stmt 1 view .LVU452
 1823              		.loc 10 84 10 is_stmt 0 view .LVU453
 1824 0030 9DED010A 		vldr.32	s0, [sp, #4]	@ int
 1825 0034 0448     		ldr	r0, .L43+4
 1826 0036 FFF7FEFF 		bl	_ZN7daisysp8ReverbSc4InitEf
 1827              	.LVL82:
  85:test.cpp      **** 	
  86:test.cpp      **** 	hw.StartAudio(AudioCallback);
 1828              		.loc 10 86 2 is_stmt 1 view .LVU454
 1829              		.loc 10 86 15 is_stmt 0 view .LVU455
 1830 003a 0449     		ldr	r1, .L43+8
 1831 003c 0148     		ldr	r0, .L43
 1832 003e FFF7FEFF 		bl	_ZN5daisy8patch_sm12DaisyPatchSM10StartAudioEPFvPKPKfPPfjE
 1833              	.LVL83:
 1834              	.L41:
  87:test.cpp      **** 	while(1) {}
 1835              		.loc 10 87 2 is_stmt 1 discriminator 1 view .LVU456
 1836              		.loc 10 87 2 discriminator 1 view .LVU457
 1837              		.loc 10 87 2 discriminator 1 view .LVU458
 1838              		.loc 10 87 2 discriminator 1 view .LVU459
 1839 0042 FEE7     		b	.L41
 1840              	.L44:
 1841              		.align	2
 1842              	.L43:
 1843 0044 00000000 		.word	.LANCHOR18
 1844 0048 00000000 		.word	rev
 1845 004c 00000000 		.word	_Z13AudioCallbackPKPKfPPfj
 1846              		.cfi_endproc
 1847              	.LFE4813:
 1849              		.section	.text.startup._GLOBAL__sub_I__ZN5daisy8patch_sm8gen_led1E,"ax",%progbits
 1850              		.align	1
 1851              		.p2align 2,,3
 1852              		.syntax unified
 1853              		.thumb
 1854              		.thumb_func
 1855              		.fpu fpv5-d16
 1857              	_GLOBAL__sub_I__ZN5daisy8patch_sm8gen_led1E:
 1858              	.LFB5374:
  88:test.cpp      **** }
 1859              		.loc 10 88 1 view -0
ARM GAS  /var/folders/hl/qgbwny5j0fd895c2c41bk3tw0000gp/T//cc63D1lp.s 			page 55


 1860              		.cfi_startproc
 1861              		@ args = 0, pretend = 0, frame = 0
 1862              		@ frame_needed = 0, uses_anonymous_args = 0
 1863              	.LBB980:
 1864              	.LBI980:
 1865              		.loc 10 88 1 view .LVU461
 1866              	.LVL84:
 1867              	.LBB981:
 1868              	.LBB982:
 1869              	.LBI982:
 1870              		.file 14 "../../libDaisy//src/per/gpio.h"
   1:../../libDaisy//src/per/gpio.h **** #pragma once
   2:../../libDaisy//src/per/gpio.h **** #ifndef DSY_GPIO_H
   3:../../libDaisy//src/per/gpio.h **** #define DSY_GPIO_H
   4:../../libDaisy//src/per/gpio.h **** #include "daisy_core.h"
   5:../../libDaisy//src/per/gpio.h **** 
   6:../../libDaisy//src/per/gpio.h **** #ifdef __cplusplus
   7:../../libDaisy//src/per/gpio.h **** 
   8:../../libDaisy//src/per/gpio.h **** namespace daisy
   9:../../libDaisy//src/per/gpio.h **** {
  10:../../libDaisy//src/per/gpio.h **** /** @brief General Purpose I/O control 
  11:../../libDaisy//src/per/gpio.h ****  *  @details peripheral control over a single GPIO
  12:../../libDaisy//src/per/gpio.h ****  *  @ingroup peripheral
  13:../../libDaisy//src/per/gpio.h ****  *   
  14:../../libDaisy//src/per/gpio.h ****  *  Button Input (with internal Pullup resistor)
  15:../../libDaisy//src/per/gpio.h ****  *  @include GPIO_Input.cpp 
  16:../../libDaisy//src/per/gpio.h ****  * 
  17:../../libDaisy//src/per/gpio.h ****  *  Output Example (perfect for blinking an LED)
  18:../../libDaisy//src/per/gpio.h ****  *  @include GPIO_Output.cpp
  19:../../libDaisy//src/per/gpio.h ****  * 
  20:../../libDaisy//src/per/gpio.h **** */
  21:../../libDaisy//src/per/gpio.h **** class GPIO
  22:../../libDaisy//src/per/gpio.h **** {
  23:../../libDaisy//src/per/gpio.h ****   public:
  24:../../libDaisy//src/per/gpio.h ****     /** @brief Mode of operation for the specified GPIO */
  25:../../libDaisy//src/per/gpio.h ****     enum class Mode
  26:../../libDaisy//src/per/gpio.h ****     {
  27:../../libDaisy//src/per/gpio.h ****         INPUT,     /**< Input for reading state of pin */
  28:../../libDaisy//src/per/gpio.h ****         OUTPUT,    /**< Output w/ push-pull configuration */
  29:../../libDaisy//src/per/gpio.h ****         OUTPUT_OD, /**< Output w/ open-drain configuration */
  30:../../libDaisy//src/per/gpio.h ****         ANALOG,    /**< Analog for connection to ADC or DAC peripheral */
  31:../../libDaisy//src/per/gpio.h ****     };
  32:../../libDaisy//src/per/gpio.h **** 
  33:../../libDaisy//src/per/gpio.h ****     /** @brief Configures whether an internal Pull up or Pull down resistor is used. 
  34:../../libDaisy//src/per/gpio.h ****      *  
  35:../../libDaisy//src/per/gpio.h ****      * Internal Pull up/down resistors are typically 40k ohms, and will be between
  36:../../libDaisy//src/per/gpio.h ****      * 30k and 50k
  37:../../libDaisy//src/per/gpio.h ****      * 
  38:../../libDaisy//src/per/gpio.h ****      * When the Pin is configured in Analog mode, the pull up/down resistors are
  39:../../libDaisy//src/per/gpio.h ****      * disabled by hardware. 
  40:../../libDaisy//src/per/gpio.h ****      */
  41:../../libDaisy//src/per/gpio.h ****     enum class Pull
  42:../../libDaisy//src/per/gpio.h ****     {
  43:../../libDaisy//src/per/gpio.h ****         NOPULL,   /**< No pull up resistor */
  44:../../libDaisy//src/per/gpio.h ****         PULLUP,   /**< Internal pull up enabled */
  45:../../libDaisy//src/per/gpio.h ****         PULLDOWN, /**< Internal pull down enabled*/
  46:../../libDaisy//src/per/gpio.h ****     };
ARM GAS  /var/folders/hl/qgbwny5j0fd895c2c41bk3tw0000gp/T//cc63D1lp.s 			page 56


  47:../../libDaisy//src/per/gpio.h **** 
  48:../../libDaisy//src/per/gpio.h ****     /** @brief Output speed controls the drive strength, and slew rate of the pin */
  49:../../libDaisy//src/per/gpio.h ****     enum class Speed
  50:../../libDaisy//src/per/gpio.h ****     {
  51:../../libDaisy//src/per/gpio.h ****         LOW,
  52:../../libDaisy//src/per/gpio.h ****         MEDIUM,
  53:../../libDaisy//src/per/gpio.h ****         HIGH,
  54:../../libDaisy//src/per/gpio.h ****         VERY_HIGH,
  55:../../libDaisy//src/per/gpio.h ****     };
  56:../../libDaisy//src/per/gpio.h **** 
  57:../../libDaisy//src/per/gpio.h ****     /** @brief Configuration for a given GPIO */
  58:../../libDaisy//src/per/gpio.h ****     struct Config
  59:../../libDaisy//src/per/gpio.h ****     {
  60:../../libDaisy//src/per/gpio.h ****         Pin   pin;
  61:../../libDaisy//src/per/gpio.h ****         Mode  mode;
  62:../../libDaisy//src/per/gpio.h ****         Pull  pull;
  63:../../libDaisy//src/per/gpio.h ****         Speed speed;
  64:../../libDaisy//src/per/gpio.h **** 
  65:../../libDaisy//src/per/gpio.h ****         /** Constructor with no arguments will prepare an invalid GPIO set as
  66:../../libDaisy//src/per/gpio.h ****          *  an input, with no pullup. 
  67:../../libDaisy//src/per/gpio.h ****          */
  68:../../libDaisy//src/per/gpio.h ****         Config()
  69:../../libDaisy//src/per/gpio.h ****         : pin(), mode(Mode::INPUT), pull(Pull::NOPULL), speed(Speed::LOW)
  70:../../libDaisy//src/per/gpio.h ****         {
  71:../../libDaisy//src/per/gpio.h ****         }
  72:../../libDaisy//src/per/gpio.h ****     };
  73:../../libDaisy//src/per/gpio.h **** 
  74:../../libDaisy//src/per/gpio.h ****     GPIO() {}
 1871              		.loc 14 74 5 view .LVU462
 1872              	.LBB983:
 1873              	.LBB984:
 1874              	.LBI984:
  68:../../libDaisy//src/per/gpio.h ****         : pin(), mode(Mode::INPUT), pull(Pull::NOPULL), speed(Speed::LOW)
 1875              		.loc 14 68 9 view .LVU463
 1876              	.LBB985:
 1877              	.LBB986:
 1878              	.LBB987:
 1879              	.LBI987:
 1880              		.file 15 "../../libDaisy//src/daisy_core.h"
   1:../../libDaisy//src/daisy_core.h **** #pragma once
   2:../../libDaisy//src/daisy_core.h **** #ifndef DSY_CORE_HW_H
   3:../../libDaisy//src/daisy_core.h **** #define DSY_CORE_HW_H /**< & */
   4:../../libDaisy//src/daisy_core.h **** #include <stdint.h>
   5:../../libDaisy//src/daisy_core.h **** #include <stdlib.h>
   6:../../libDaisy//src/daisy_core.h **** 
   7:../../libDaisy//src/daisy_core.h **** #if defined(_MSC_VER)
   8:../../libDaisy//src/daisy_core.h **** #define FORCE_INLINE __forceinline /**< & */
   9:../../libDaisy//src/daisy_core.h **** #elif defined(__clang__)
  10:../../libDaisy//src/daisy_core.h **** #define FORCE_INLINE inline __attribute__((always_inline)) /**< & */
  11:../../libDaisy//src/daisy_core.h **** #pragma clang diagnostic ignored "-Wduplicate-decl-specifier"
  12:../../libDaisy//src/daisy_core.h **** #elif defined(__GNUC__)
  13:../../libDaisy//src/daisy_core.h **** #define FORCE_INLINE inline __attribute__((always_inline)) /**< & */
  14:../../libDaisy//src/daisy_core.h **** #else
  15:../../libDaisy//src/daisy_core.h **** #error unknown compiler
  16:../../libDaisy//src/daisy_core.h **** #endif
  17:../../libDaisy//src/daisy_core.h **** 
  18:../../libDaisy//src/daisy_core.h **** /** @addtogroup utility
ARM GAS  /var/folders/hl/qgbwny5j0fd895c2c41bk3tw0000gp/T//cc63D1lp.s 			page 57


  19:../../libDaisy//src/daisy_core.h ****     @{
  20:../../libDaisy//src/daisy_core.h **** */
  21:../../libDaisy//src/daisy_core.h **** 
  22:../../libDaisy//src/daisy_core.h **** /** Macro for area of memory that is configured as cacheless
  23:../../libDaisy//src/daisy_core.h **** This should be used primarily for DMA buffers, and the like.
  24:../../libDaisy//src/daisy_core.h **** */
  25:../../libDaisy//src/daisy_core.h **** #define DMA_BUFFER_MEM_SECTION __attribute__((section(".sram1_bss")))
  26:../../libDaisy//src/daisy_core.h **** /** 
  27:../../libDaisy//src/daisy_core.h **** THE DTCM RAM section is also non-cached. However, is not suitable 
  28:../../libDaisy//src/daisy_core.h **** for DMA transfers. Performance is on par with internal SRAM w/ 
  29:../../libDaisy//src/daisy_core.h **** cache enabled.
  30:../../libDaisy//src/daisy_core.h **** */
  31:../../libDaisy//src/daisy_core.h **** #define DTCM_MEM_SECTION __attribute__((section(".dtcmram_bss")))
  32:../../libDaisy//src/daisy_core.h **** 
  33:../../libDaisy//src/daisy_core.h **** #define FBIPMAX 0.999985f             /**< close to 1.0f-LSB at 16 bit */
  34:../../libDaisy//src/daisy_core.h **** #define FBIPMIN (-FBIPMAX)            /**< - (1 - LSB) */
  35:../../libDaisy//src/daisy_core.h **** #define U82F_SCALE 0.0078740f         /**< 1 / 127 */
  36:../../libDaisy//src/daisy_core.h **** #define F2U8_SCALE 127.0f             /**< 128 - 1 */
  37:../../libDaisy//src/daisy_core.h **** #define S82F_SCALE 0.0078125f         /**< 1 / (2**7) */
  38:../../libDaisy//src/daisy_core.h **** #define F2S8_SCALE 127.0f             /**< (2 ** 7) - 1 */
  39:../../libDaisy//src/daisy_core.h **** #define S162F_SCALE 3.0517578125e-05f /**< 1 / (2** 15) */
  40:../../libDaisy//src/daisy_core.h **** #define F2S16_SCALE 32767.0f          /**< (2 ** 15) - 1 */
  41:../../libDaisy//src/daisy_core.h **** #define F2S24_SCALE 8388608.0f        /**< 2 ** 23 */
  42:../../libDaisy//src/daisy_core.h **** #define S242F_SCALE 1.192092896e-07f  /**< 1 / (2 ** 23) */
  43:../../libDaisy//src/daisy_core.h **** #define S24SIGN 0x800000              /**< 2 ** 23 */
  44:../../libDaisy//src/daisy_core.h **** #define S322F_SCALE 4.6566129e-10f    /**< 1 / (2** 31) */
  45:../../libDaisy//src/daisy_core.h **** #define F2S32_SCALE 2147483647.f      /**< (2 ** 31) - 1 */
  46:../../libDaisy//src/daisy_core.h **** 
  47:../../libDaisy//src/daisy_core.h **** 
  48:../../libDaisy//src/daisy_core.h **** /** shorthand macro for simplifying the reading of the left 
  49:../../libDaisy//src/daisy_core.h ****  *  channel of a non-interleaved output buffer named out */
  50:../../libDaisy//src/daisy_core.h **** #define OUT_L out[0]
  51:../../libDaisy//src/daisy_core.h **** 
  52:../../libDaisy//src/daisy_core.h **** /** shorthand macro for simplifying the reading of the right 
  53:../../libDaisy//src/daisy_core.h ****  *  channel of a non-interleaved output buffer named out */
  54:../../libDaisy//src/daisy_core.h **** #define OUT_R out[1]
  55:../../libDaisy//src/daisy_core.h **** 
  56:../../libDaisy//src/daisy_core.h **** /** shorthand macro for simplifying the reading of the left 
  57:../../libDaisy//src/daisy_core.h ****  *  channel of a non-interleaved input buffer named in */
  58:../../libDaisy//src/daisy_core.h **** #define IN_L in[0]
  59:../../libDaisy//src/daisy_core.h **** 
  60:../../libDaisy//src/daisy_core.h **** /** shorthand macro for simplifying the reading of the right 
  61:../../libDaisy//src/daisy_core.h ****  *  channel of a non-interleaved input buffer named in */
  62:../../libDaisy//src/daisy_core.h **** #define IN_R in[1]
  63:../../libDaisy//src/daisy_core.h **** 
  64:../../libDaisy//src/daisy_core.h **** /** 
  65:../../libDaisy//src/daisy_core.h ****     Computes cube.
  66:../../libDaisy//src/daisy_core.h ****     \param x Number to be cubed
  67:../../libDaisy//src/daisy_core.h ****     \return x ^ 3
  68:../../libDaisy//src/daisy_core.h **** */
  69:../../libDaisy//src/daisy_core.h **** FORCE_INLINE float cube(float x)
  70:../../libDaisy//src/daisy_core.h **** {
  71:../../libDaisy//src/daisy_core.h ****     return (x * x) * x;
  72:../../libDaisy//src/daisy_core.h **** }
  73:../../libDaisy//src/daisy_core.h **** 
  74:../../libDaisy//src/daisy_core.h **** /** 
  75:../../libDaisy//src/daisy_core.h ****     Converts unsigned 8-bit to float
ARM GAS  /var/folders/hl/qgbwny5j0fd895c2c41bk3tw0000gp/T//cc63D1lp.s 			page 58


  76:../../libDaisy//src/daisy_core.h ****     \param x Number to be scaled.
  77:../../libDaisy//src/daisy_core.h ****     \return Scaled number.
  78:../../libDaisy//src/daisy_core.h **** */
  79:../../libDaisy//src/daisy_core.h **** FORCE_INLINE float u82f(uint8_t x)
  80:../../libDaisy//src/daisy_core.h **** {
  81:../../libDaisy//src/daisy_core.h ****     return ((float)x - 127.f) * U82F_SCALE;
  82:../../libDaisy//src/daisy_core.h **** }
  83:../../libDaisy//src/daisy_core.h **** 
  84:../../libDaisy//src/daisy_core.h **** /**
  85:../../libDaisy//src/daisy_core.h ****     Converts float to unsigned 8-bit
  86:../../libDaisy//src/daisy_core.h **** */
  87:../../libDaisy//src/daisy_core.h **** FORCE_INLINE uint8_t f2u8(float x)
  88:../../libDaisy//src/daisy_core.h **** {
  89:../../libDaisy//src/daisy_core.h ****     x = x <= FBIPMIN ? FBIPMIN : x;
  90:../../libDaisy//src/daisy_core.h ****     x = x >= FBIPMAX ? FBIPMAX : x;
  91:../../libDaisy//src/daisy_core.h ****     return (uint8_t)((x * F2U8_SCALE) + F2U8_SCALE);
  92:../../libDaisy//src/daisy_core.h **** }
  93:../../libDaisy//src/daisy_core.h **** 
  94:../../libDaisy//src/daisy_core.h **** 
  95:../../libDaisy//src/daisy_core.h **** /** 
  96:../../libDaisy//src/daisy_core.h ****     Converts Signed 8-bit to float
  97:../../libDaisy//src/daisy_core.h ****     \param x Number to be scaled.
  98:../../libDaisy//src/daisy_core.h ****     \return Scaled number.
  99:../../libDaisy//src/daisy_core.h **** */
 100:../../libDaisy//src/daisy_core.h **** FORCE_INLINE float s82f(int8_t x)
 101:../../libDaisy//src/daisy_core.h **** {
 102:../../libDaisy//src/daisy_core.h ****     return (float)x * S82F_SCALE;
 103:../../libDaisy//src/daisy_core.h **** }
 104:../../libDaisy//src/daisy_core.h **** 
 105:../../libDaisy//src/daisy_core.h **** /**
 106:../../libDaisy//src/daisy_core.h ****     Converts float to Signed 8-bit
 107:../../libDaisy//src/daisy_core.h **** */
 108:../../libDaisy//src/daisy_core.h **** FORCE_INLINE int8_t f2s8(float x)
 109:../../libDaisy//src/daisy_core.h **** {
 110:../../libDaisy//src/daisy_core.h ****     x = x <= FBIPMIN ? FBIPMIN : x;
 111:../../libDaisy//src/daisy_core.h ****     x = x >= FBIPMAX ? FBIPMAX : x;
 112:../../libDaisy//src/daisy_core.h ****     return (int32_t)(x * F2S8_SCALE);
 113:../../libDaisy//src/daisy_core.h **** }
 114:../../libDaisy//src/daisy_core.h **** 
 115:../../libDaisy//src/daisy_core.h **** /** 
 116:../../libDaisy//src/daisy_core.h ****     Converts Signed 16-bit to float
 117:../../libDaisy//src/daisy_core.h ****     \param x Number to be scaled.
 118:../../libDaisy//src/daisy_core.h ****     \return Scaled number.
 119:../../libDaisy//src/daisy_core.h **** */
 120:../../libDaisy//src/daisy_core.h **** FORCE_INLINE float s162f(int16_t x)
 121:../../libDaisy//src/daisy_core.h **** {
 122:../../libDaisy//src/daisy_core.h ****     return (float)x * S162F_SCALE;
 123:../../libDaisy//src/daisy_core.h **** }
 124:../../libDaisy//src/daisy_core.h **** 
 125:../../libDaisy//src/daisy_core.h **** /**
 126:../../libDaisy//src/daisy_core.h ****     Converts float to Signed 16-bit
 127:../../libDaisy//src/daisy_core.h **** */
 128:../../libDaisy//src/daisy_core.h **** FORCE_INLINE int16_t f2s16(float x)
 129:../../libDaisy//src/daisy_core.h **** {
 130:../../libDaisy//src/daisy_core.h ****     x = x <= FBIPMIN ? FBIPMIN : x;
 131:../../libDaisy//src/daisy_core.h ****     x = x >= FBIPMAX ? FBIPMAX : x;
 132:../../libDaisy//src/daisy_core.h ****     return (int32_t)(x * F2S16_SCALE);
ARM GAS  /var/folders/hl/qgbwny5j0fd895c2c41bk3tw0000gp/T//cc63D1lp.s 			page 59


 133:../../libDaisy//src/daisy_core.h **** }
 134:../../libDaisy//src/daisy_core.h **** 
 135:../../libDaisy//src/daisy_core.h **** /**
 136:../../libDaisy//src/daisy_core.h ****     Converts Signed 24-bit to float
 137:../../libDaisy//src/daisy_core.h ****  */
 138:../../libDaisy//src/daisy_core.h **** FORCE_INLINE float s242f(int32_t x)
 139:../../libDaisy//src/daisy_core.h **** {
 140:../../libDaisy//src/daisy_core.h ****     x = (x ^ S24SIGN) - S24SIGN; //sign extend aka ((x<<8)>>8)
 141:../../libDaisy//src/daisy_core.h ****     return (float)x * S242F_SCALE;
 142:../../libDaisy//src/daisy_core.h **** }
 143:../../libDaisy//src/daisy_core.h **** /**
 144:../../libDaisy//src/daisy_core.h ****     Converts float to Signed 24-bit
 145:../../libDaisy//src/daisy_core.h ****  */
 146:../../libDaisy//src/daisy_core.h **** FORCE_INLINE int32_t f2s24(float x)
 147:../../libDaisy//src/daisy_core.h **** {
 148:../../libDaisy//src/daisy_core.h ****     x = x <= FBIPMIN ? FBIPMIN : x;
 149:../../libDaisy//src/daisy_core.h ****     x = x >= FBIPMAX ? FBIPMAX : x;
 150:../../libDaisy//src/daisy_core.h ****     return (int32_t)(x * F2S24_SCALE);
 151:../../libDaisy//src/daisy_core.h **** }
 152:../../libDaisy//src/daisy_core.h **** 
 153:../../libDaisy//src/daisy_core.h **** /**
 154:../../libDaisy//src/daisy_core.h ****     Converts Signed 32-bit to float
 155:../../libDaisy//src/daisy_core.h ****  */
 156:../../libDaisy//src/daisy_core.h **** FORCE_INLINE float s322f(int32_t x)
 157:../../libDaisy//src/daisy_core.h **** {
 158:../../libDaisy//src/daisy_core.h ****     return (float)x * S322F_SCALE;
 159:../../libDaisy//src/daisy_core.h **** }
 160:../../libDaisy//src/daisy_core.h **** /**
 161:../../libDaisy//src/daisy_core.h ****     Converts float to Signed 24-bit
 162:../../libDaisy//src/daisy_core.h ****  */
 163:../../libDaisy//src/daisy_core.h **** FORCE_INLINE int32_t f2s32(float x)
 164:../../libDaisy//src/daisy_core.h **** {
 165:../../libDaisy//src/daisy_core.h ****     x = x <= FBIPMIN ? FBIPMIN : x;
 166:../../libDaisy//src/daisy_core.h ****     x = x >= FBIPMAX ? FBIPMAX : x;
 167:../../libDaisy//src/daisy_core.h ****     return (int32_t)(x * F2S32_SCALE);
 168:../../libDaisy//src/daisy_core.h **** }
 169:../../libDaisy//src/daisy_core.h **** 
 170:../../libDaisy//src/daisy_core.h **** 
 171:../../libDaisy//src/daisy_core.h **** /** Enums and a simple struct for defining a hardware pin on the MCU
 172:../../libDaisy//src/daisy_core.h ****  *  These correlate with the stm32 datasheet, and are used to configure
 173:../../libDaisy//src/daisy_core.h ****  *  the hardware.
 174:../../libDaisy//src/daisy_core.h ****  * 
 175:../../libDaisy//src/daisy_core.h ****  *  This along with the dsy_gpio_pin class should no longer be used.
 176:../../libDaisy//src/daisy_core.h ****  *  They are available for backwards compatability. 
 177:../../libDaisy//src/daisy_core.h ****  * 
 178:../../libDaisy//src/daisy_core.h ****  *  Please use GPIOPort enum and the Pin struct instead.
 179:../../libDaisy//src/daisy_core.h ****  */
 180:../../libDaisy//src/daisy_core.h **** typedef enum
 181:../../libDaisy//src/daisy_core.h **** {
 182:../../libDaisy//src/daisy_core.h ****     DSY_GPIOA, /**< & */
 183:../../libDaisy//src/daisy_core.h ****     DSY_GPIOB, /**< & */
 184:../../libDaisy//src/daisy_core.h ****     DSY_GPIOC, /**< & */
 185:../../libDaisy//src/daisy_core.h ****     DSY_GPIOD, /**< & */
 186:../../libDaisy//src/daisy_core.h ****     DSY_GPIOE, /**< & */
 187:../../libDaisy//src/daisy_core.h ****     DSY_GPIOF, /**< & */
 188:../../libDaisy//src/daisy_core.h ****     DSY_GPIOG, /**< & */
 189:../../libDaisy//src/daisy_core.h ****     DSY_GPIOH, /**< & */
ARM GAS  /var/folders/hl/qgbwny5j0fd895c2c41bk3tw0000gp/T//cc63D1lp.s 			page 60


 190:../../libDaisy//src/daisy_core.h ****     DSY_GPIOI, /**< & */
 191:../../libDaisy//src/daisy_core.h ****     DSY_GPIOJ, /**< & */
 192:../../libDaisy//src/daisy_core.h ****     DSY_GPIOK, /**< & */
 193:../../libDaisy//src/daisy_core.h ****     DSY_GPIOX, /** This is a non-existant port for unsupported bits of hardware. */
 194:../../libDaisy//src/daisy_core.h ****     DSY_GPIO_LAST, /** Final enum member */
 195:../../libDaisy//src/daisy_core.h **** } dsy_gpio_port;
 196:../../libDaisy//src/daisy_core.h **** 
 197:../../libDaisy//src/daisy_core.h **** /** Hardware define pins 
 198:../../libDaisy//src/daisy_core.h ****  *  
 199:../../libDaisy//src/daisy_core.h ****  *  The dsy_gpio_pin struct should no longer be used, and is only available for
 200:../../libDaisy//src/daisy_core.h ****  *  backwards compatability.
 201:../../libDaisy//src/daisy_core.h ****  * 
 202:../../libDaisy//src/daisy_core.h ****  *  Please use Pin struct instead.
 203:../../libDaisy//src/daisy_core.h ****  */
 204:../../libDaisy//src/daisy_core.h **** typedef struct
 205:../../libDaisy//src/daisy_core.h **** {
 206:../../libDaisy//src/daisy_core.h ****     dsy_gpio_port port; /**< & */
 207:../../libDaisy//src/daisy_core.h ****     uint8_t       pin;  /**< number 0-15 */
 208:../../libDaisy//src/daisy_core.h **** } dsy_gpio_pin;
 209:../../libDaisy//src/daisy_core.h **** 
 210:../../libDaisy//src/daisy_core.h **** /** Helper for creating pins from port/pin combos easily
 211:../../libDaisy//src/daisy_core.h ****  * 
 212:../../libDaisy//src/daisy_core.h ****  *  The dsy_gpio_pin struct should no longer be used, and is only available for
 213:../../libDaisy//src/daisy_core.h ****  *  backwards compatability.
 214:../../libDaisy//src/daisy_core.h ****  * 
 215:../../libDaisy//src/daisy_core.h ****  *  Please use Pin struct instead.
 216:../../libDaisy//src/daisy_core.h **** */
 217:../../libDaisy//src/daisy_core.h **** FORCE_INLINE dsy_gpio_pin dsy_pin(dsy_gpio_port port, uint8_t pin)
 218:../../libDaisy//src/daisy_core.h **** {
 219:../../libDaisy//src/daisy_core.h ****     dsy_gpio_pin p;
 220:../../libDaisy//src/daisy_core.h ****     p.port = port;
 221:../../libDaisy//src/daisy_core.h ****     p.pin  = pin;
 222:../../libDaisy//src/daisy_core.h ****     return p;
 223:../../libDaisy//src/daisy_core.h **** }
 224:../../libDaisy//src/daisy_core.h **** 
 225:../../libDaisy//src/daisy_core.h **** /** Helper for testing sameness of two dsy_gpio_pins
 226:../../libDaisy//src/daisy_core.h ****  *  \return    1 if same, 0 if different
 227:../../libDaisy//src/daisy_core.h ****  * 
 228:../../libDaisy//src/daisy_core.h ****  *  The dsy_gpio_pin struct should no longer be used, and is only available for
 229:../../libDaisy//src/daisy_core.h ****  *  backwards compatability.
 230:../../libDaisy//src/daisy_core.h ****  * 
 231:../../libDaisy//src/daisy_core.h ****  *  Please use Pin struct instead.
 232:../../libDaisy//src/daisy_core.h ****  */
 233:../../libDaisy//src/daisy_core.h **** FORCE_INLINE uint8_t dsy_pin_cmp(dsy_gpio_pin *a, dsy_gpio_pin *b)
 234:../../libDaisy//src/daisy_core.h **** {
 235:../../libDaisy//src/daisy_core.h ****     return ((a->port == b->port) && (a->pin == b->pin));
 236:../../libDaisy//src/daisy_core.h **** }
 237:../../libDaisy//src/daisy_core.h **** 
 238:../../libDaisy//src/daisy_core.h **** #ifdef __cplusplus
 239:../../libDaisy//src/daisy_core.h **** 
 240:../../libDaisy//src/daisy_core.h **** namespace daisy
 241:../../libDaisy//src/daisy_core.h **** {
 242:../../libDaisy//src/daisy_core.h **** /** @brief GPIO Port names */
 243:../../libDaisy//src/daisy_core.h **** enum GPIOPort
 244:../../libDaisy//src/daisy_core.h **** {
 245:../../libDaisy//src/daisy_core.h ****     PORTA, /**< Port A */
 246:../../libDaisy//src/daisy_core.h ****     PORTB, /**< Port B */
ARM GAS  /var/folders/hl/qgbwny5j0fd895c2c41bk3tw0000gp/T//cc63D1lp.s 			page 61


 247:../../libDaisy//src/daisy_core.h ****     PORTC, /**< Port C */
 248:../../libDaisy//src/daisy_core.h ****     PORTD, /**< Port D */
 249:../../libDaisy//src/daisy_core.h ****     PORTE, /**< Port E */
 250:../../libDaisy//src/daisy_core.h ****     PORTF, /**< Port F */
 251:../../libDaisy//src/daisy_core.h ****     PORTG, /**< Port G */
 252:../../libDaisy//src/daisy_core.h ****     PORTH, /**< Port H */
 253:../../libDaisy//src/daisy_core.h ****     PORTI, /**< Port I */
 254:../../libDaisy//src/daisy_core.h ****     PORTJ, /**< Port J */
 255:../../libDaisy//src/daisy_core.h ****     PORTK, /**< Port K */
 256:../../libDaisy//src/daisy_core.h ****     PORTX, /**< Used as a dummy port to signal an invalid pin. */
 257:../../libDaisy//src/daisy_core.h **** };
 258:../../libDaisy//src/daisy_core.h **** 
 259:../../libDaisy//src/daisy_core.h **** /** @brief representation of hardware port/pin combination */
 260:../../libDaisy//src/daisy_core.h **** struct Pin
 261:../../libDaisy//src/daisy_core.h **** {
 262:../../libDaisy//src/daisy_core.h ****     GPIOPort port;
 263:../../libDaisy//src/daisy_core.h ****     uint8_t  pin;
 264:../../libDaisy//src/daisy_core.h **** 
 265:../../libDaisy//src/daisy_core.h ****     /** @brief Constructor creates a valid pin. 
 266:../../libDaisy//src/daisy_core.h ****      *  @param pt GPIOPort between PA, and PK corresponding to STM32 Port.
 267:../../libDaisy//src/daisy_core.h ****      *  @param pn pin number in range of 0-15
 268:../../libDaisy//src/daisy_core.h ****     */
 269:../../libDaisy//src/daisy_core.h ****     constexpr Pin(const GPIOPort pt, const uint8_t pn) : port(pt), pin(pn) {}
 270:../../libDaisy//src/daisy_core.h **** 
 271:../../libDaisy//src/daisy_core.h ****     /** @brief Basic Constructor creates an invalid Pin object */
 272:../../libDaisy//src/daisy_core.h ****     constexpr Pin() : port(PORTX), pin(255) {}
 1881              		.loc 15 272 15 view .LVU464
 1882              		.loc 15 272 15 is_stmt 0 view .LVU465
 1883              	.LBE987:
 1884              	.LBE986:
 1885              	.LBE985:
 1886              	.LBE984:
 1887              	.LBE983:
 1888              	.LBE982:
 1889              	.LBE981:
 1890              	.LBE980:
 1891              		.loc 10 88 1 view .LVU466
 1892 0000 38B5     		push	{r3, r4, r5, lr}
 1893              		.cfi_def_cfa_offset 16
 1894              		.cfi_offset 3, -16
 1895              		.cfi_offset 4, -12
 1896              		.cfi_offset 5, -8
 1897              		.cfi_offset 14, -4
 1898              	.LBB1182:
 1899              	.LBB1179:
 1900              	.LBB1000:
 1901              	.LBB1001:
 1902              		.loc 14 74 12 view .LVU467
 1903 0002 454A     		ldr	r2, .L47
 1904              	.LBE1001:
 1905              	.LBE1000:
 1906              	.LBB1011:
 1907              	.LBB997:
 1908              	.LBB994:
 1909              	.LBB991:
 1910              	.LBB988:
  69:../../libDaisy//src/per/gpio.h ****         {
ARM GAS  /var/folders/hl/qgbwny5j0fd895c2c41bk3tw0000gp/T//cc63D1lp.s 			page 62


 1911              		.loc 14 69 73 view .LVU468
 1912 0004 0024     		movs	r4, #0
 1913              	.LBE988:
 1914              	.LBE991:
 1915              	.LBE994:
 1916              		.loc 14 74 12 view .LVU469
 1917 0006 4FF60B73 		movw	r3, #65291
 1918 000a 4448     		ldr	r0, .L47+4
 1919              	.LBE997:
 1920              	.LBE1011:
 1921              	.LBB1012:
 1922              	.LBB1013:
 1923 000c 4449     		ldr	r1, .L47+8
 1924              	.LBE1013:
 1925              	.LBE1012:
 1926              	.LBB1023:
 1927              	.LBB1009:
 1928              	.LBB1002:
 1929              	.LBB1003:
 1930              	.LBB1004:
  69:../../libDaisy//src/per/gpio.h ****         {
 1931              		.loc 14 69 73 view .LVU470
 1932 000e C2E90034 		strd	r3, r4, [r2]
 1933 0012 C2E90244 		strd	r4, r4, [r2, #8]
 1934              	.LBE1004:
 1935              	.LBE1003:
 1936              	.LBE1002:
 1937              	.LBE1009:
 1938              	.LBE1023:
 1939              	.LBB1024:
 1940              	.LBB1025:
 1941              		.loc 14 74 12 view .LVU471
 1942 0016 434A     		ldr	r2, .L47+12
 1943              	.LBB1026:
 1944              	.LBB1027:
 1945              	.LBB1028:
  69:../../libDaisy//src/per/gpio.h ****         {
 1946              		.loc 14 69 73 view .LVU472
 1947 0018 C2E90034 		strd	r3, r4, [r2]
 1948 001c C2E90244 		strd	r4, r4, [r2, #8]
 1949              	.LBE1028:
 1950              	.LBE1027:
 1951              	.LBE1026:
 1952              	.LBE1025:
 1953              	.LBE1024:
 1954              	.LBB1034:
 1955              	.LBB1035:
 1956              		.loc 14 74 12 view .LVU473
 1957 0020 414A     		ldr	r2, .L47+16
 1958              	.LBE1035:
 1959              	.LBE1034:
 1960              	.LBB1049:
 1961              	.LBB998:
 1962              	.LBB995:
 1963              	.LBB992:
 1964              	.LBB989:
  69:../../libDaisy//src/per/gpio.h ****         {
ARM GAS  /var/folders/hl/qgbwny5j0fd895c2c41bk3tw0000gp/T//cc63D1lp.s 			page 63


 1965              		.loc 14 69 73 view .LVU474
 1966 0022 C0E90034 		strd	r3, r4, [r0]
 1967              	.LBE989:
 1968              	.LBE992:
 1969              	.LBE995:
 1970              	.LBE998:
 1971              	.LBE1049:
 1972              	.LBB1050:
 1973              	.LBB1046:
 1974              	.LBB1036:
 1975              	.LBB1037:
 1976              	.LBB1038:
 1977 0026 C2E90034 		strd	r3, r4, [r2]
 1978              	.LBE1038:
 1979              	.LBE1037:
 1980              	.LBE1036:
 1981              	.LBE1046:
 1982              	.LBE1050:
 1983              	.LBB1051:
 1984              	.LBB1021:
 1985              	.LBB1014:
 1986              	.LBB1015:
 1987              	.LBB1016:
 1988 002a C1E90034 		strd	r3, r4, [r1]
 1989              	.LBE1016:
 1990              	.LBE1015:
 1991              	.LBE1014:
 1992              	.LBE1021:
 1993              	.LBE1051:
 1994              	.LBB1052:
 1995              	.LBB999:
 1996              	.LBB996:
 1997              	.LBB993:
 1998              	.LBB990:
 1999 002e C0E90244 		strd	r4, r4, [r0, #8]
 2000              	.LVL85:
  69:../../libDaisy//src/per/gpio.h ****         {
 2001              		.loc 14 69 73 view .LVU475
 2002              	.LBE990:
 2003              	.LBE993:
 2004              	.LBE996:
 2005              	.LBE999:
 2006              	.LBE1052:
 2007              	.LBB1053:
 2008              	.LBI1000:
 2009              		.loc 14 74 5 is_stmt 1 view .LVU476
 2010              	.LBB1010:
 2011              	.LBB1008:
 2012              	.LBI1002:
  68:../../libDaisy//src/per/gpio.h ****         : pin(), mode(Mode::INPUT), pull(Pull::NOPULL), speed(Speed::LOW)
 2013              		.loc 14 68 9 view .LVU477
 2014              	.LBB1007:
 2015              	.LBB1006:
 2016              	.LBB1005:
 2017              	.LBI1005:
 2018              		.loc 15 272 15 view .LVU478
 2019              		.loc 15 272 15 is_stmt 0 view .LVU479
ARM GAS  /var/folders/hl/qgbwny5j0fd895c2c41bk3tw0000gp/T//cc63D1lp.s 			page 64


 2020              	.LBE1005:
 2021              	.LBE1006:
 2022              	.LBE1007:
 2023              	.LBE1008:
 2024              	.LBE1010:
 2025              	.LBE1053:
 2026              	.LBB1054:
 2027              	.LBI1012:
 2028              		.loc 14 74 5 is_stmt 1 view .LVU480
 2029              	.LBB1022:
 2030              	.LBB1020:
 2031              	.LBI1014:
  68:../../libDaisy//src/per/gpio.h ****         : pin(), mode(Mode::INPUT), pull(Pull::NOPULL), speed(Speed::LOW)
 2032              		.loc 14 68 9 view .LVU481
 2033              	.LBB1019:
 2034              	.LBB1018:
 2035              	.LBB1017:
 2036              	.LBI1017:
 2037              		.loc 15 272 15 view .LVU482
 2038              		.loc 15 272 15 is_stmt 0 view .LVU483
 2039              	.LBE1017:
  69:../../libDaisy//src/per/gpio.h ****         {
 2040              		.loc 14 69 73 view .LVU484
 2041 0032 C1E90244 		strd	r4, r4, [r1, #8]
 2042              	.LVL86:
  69:../../libDaisy//src/per/gpio.h ****         {
 2043              		.loc 14 69 73 view .LVU485
 2044              	.LBE1018:
 2045              	.LBE1019:
 2046              	.LBE1020:
 2047              	.LBE1022:
 2048              	.LBE1054:
 2049              	.LBB1055:
 2050              	.LBI1024:
 2051              		.loc 14 74 5 is_stmt 1 view .LVU486
 2052              	.LBB1033:
 2053              	.LBB1032:
 2054              	.LBI1026:
  68:../../libDaisy//src/per/gpio.h ****         : pin(), mode(Mode::INPUT), pull(Pull::NOPULL), speed(Speed::LOW)
 2055              		.loc 14 68 9 view .LVU487
 2056              	.LBB1031:
 2057              	.LBB1030:
 2058              	.LBB1029:
 2059              	.LBI1029:
 2060              		.loc 15 272 15 view .LVU488
 2061              		.loc 15 272 15 is_stmt 0 view .LVU489
 2062              	.LBE1029:
 2063              	.LBE1030:
 2064              	.LBE1031:
 2065              	.LBE1032:
 2066              	.LBE1033:
 2067              	.LBE1055:
 2068              	.LBB1056:
 2069              	.LBI1056:
 2070              		.loc 14 74 5 is_stmt 1 view .LVU490
 2071              	.LBB1057:
 2072              	.LBB1058:
ARM GAS  /var/folders/hl/qgbwny5j0fd895c2c41bk3tw0000gp/T//cc63D1lp.s 			page 65


 2073              	.LBI1058:
  68:../../libDaisy//src/per/gpio.h ****         : pin(), mode(Mode::INPUT), pull(Pull::NOPULL), speed(Speed::LOW)
 2074              		.loc 14 68 9 view .LVU491
 2075              	.LBB1059:
 2076              	.LBB1060:
 2077              	.LBB1061:
 2078              	.LBI1061:
 2079              		.loc 15 272 15 view .LVU492
 2080              		.loc 15 272 15 is_stmt 0 view .LVU493
 2081              	.LBE1061:
 2082              	.LBE1060:
 2083              	.LBE1059:
 2084              	.LBE1058:
 2085              	.LBE1057:
 2086              	.LBE1056:
 2087              	.LBB1071:
 2088              	.LBB1047:
 2089              	.LBB1044:
 2090              	.LBB1042:
 2091              	.LBB1040:
  69:../../libDaisy//src/per/gpio.h ****         {
 2092              		.loc 14 69 73 view .LVU494
 2093 0036 C2E90244 		strd	r4, r4, [r2, #8]
 2094              	.LBE1040:
 2095              	.LBE1042:
 2096              	.LBE1044:
 2097              	.LBE1047:
 2098              	.LBE1071:
 2099              	.LBB1072:
 2100              	.LBB1068:
 2101              		.loc 14 74 12 view .LVU495
 2102 003a 3C48     		ldr	r0, .L47+20
 2103              	.LBE1068:
 2104              	.LBE1072:
 2105              	.LBB1073:
 2106              	.LBB1074:
 2107 003c 3C4A     		ldr	r2, .L47+24
 2108              	.LBE1074:
 2109              	.LBE1073:
 2110              	.LBB1085:
 2111              	.LBB1086:
 2112 003e 3D49     		ldr	r1, .L47+28
 2113              	.LBE1086:
 2114              	.LBE1085:
 2115              	.LBB1096:
 2116              	.LBB1082:
 2117 0040 1360     		str	r3, [r2]
 2118              	.LBE1082:
 2119              	.LBE1096:
 2120              	.LBB1097:
 2121              	.LBB1069:
 2122              	.LBB1066:
 2123              	.LBB1064:
 2124              	.LBB1062:
  69:../../libDaisy//src/per/gpio.h ****         {
 2125              		.loc 14 69 73 view .LVU496
 2126 0042 C0E90034 		strd	r3, r4, [r0]
ARM GAS  /var/folders/hl/qgbwny5j0fd895c2c41bk3tw0000gp/T//cc63D1lp.s 			page 66


 2127              	.LBE1062:
 2128              	.LBE1064:
 2129              	.LBE1066:
 2130              	.LBE1069:
 2131              	.LBE1097:
 2132              	.LBB1098:
 2133              	.LBB1094:
 2134              	.LBB1087:
 2135              	.LBB1088:
 2136              	.LBB1089:
 2137 0046 C1E90034 		strd	r3, r4, [r1]
 2138 004a C1E90244 		strd	r4, r4, [r1, #8]
 2139              	.LBE1089:
 2140              	.LBE1088:
 2141              	.LBE1087:
 2142              	.LBE1094:
 2143              	.LBE1098:
  24:daisy_bed.h   ****     Pin newPinD7 = Pin(static_cast<GPIOPort>(oldPinD7.port), oldPinD7.pin);
 2144              		.loc 11 24 18 view .LVU497
 2145 004e 3A4B     		ldr	r3, .L47+32
  26:daisy_bed.h   ****     Pin newPinA9 = Pin(static_cast<GPIOPort>(oldPinA9.port), oldPinA9.pin);
 2146              		.loc 11 26 18 view .LVU498
 2147 0050 3A49     		ldr	r1, .L47+36
 2148              	.LBB1099:
 2149              	.LBB1070:
 2150              	.LBB1067:
 2151              	.LBB1065:
 2152              	.LBB1063:
  69:../../libDaisy//src/per/gpio.h ****         {
 2153              		.loc 14 69 73 view .LVU499
 2154 0052 C0E90244 		strd	r4, r4, [r0, #8]
 2155              	.LVL87:
  69:../../libDaisy//src/per/gpio.h ****         {
 2156              		.loc 14 69 73 view .LVU500
 2157              	.LBE1063:
 2158              	.LBE1065:
 2159              	.LBE1067:
 2160              	.LBE1070:
 2161              	.LBE1099:
 2162              	.LBB1100:
 2163              	.LBI1034:
 2164              		.loc 14 74 5 is_stmt 1 view .LVU501
 2165              	.LBB1048:
 2166              	.LBB1045:
 2167              	.LBI1036:
  68:../../libDaisy//src/per/gpio.h ****         : pin(), mode(Mode::INPUT), pull(Pull::NOPULL), speed(Speed::LOW)
 2168              		.loc 14 68 9 view .LVU502
 2169              	.LBB1043:
 2170              	.LBB1041:
 2171              	.LBB1039:
 2172              	.LBI1039:
 2173              		.loc 15 272 15 view .LVU503
 2174              		.loc 15 272 15 is_stmt 0 view .LVU504
 2175              	.LBE1039:
 2176              	.LBE1041:
 2177              	.LBE1043:
 2178              	.LBE1045:
ARM GAS  /var/folders/hl/qgbwny5j0fd895c2c41bk3tw0000gp/T//cc63D1lp.s 			page 67


 2179              	.LBE1048:
 2180              	.LBE1100:
 2181              	.LBB1101:
 2182              	.LBI1085:
 2183              		.loc 14 74 5 is_stmt 1 view .LVU505
 2184              	.LBB1095:
 2185              	.LBB1093:
 2186              	.LBI1087:
  68:../../libDaisy//src/per/gpio.h ****         : pin(), mode(Mode::INPUT), pull(Pull::NOPULL), speed(Speed::LOW)
 2187              		.loc 14 68 9 view .LVU506
 2188              	.LBB1092:
 2189              	.LBB1091:
 2190              	.LBB1090:
 2191              	.LBI1090:
 2192              		.loc 15 272 15 view .LVU507
 2193              		.loc 15 272 15 is_stmt 0 view .LVU508
 2194              	.LBE1090:
 2195              	.LBE1091:
 2196              	.LBE1092:
 2197              	.LBE1093:
 2198              	.LBE1095:
 2199              	.LBE1101:
 2200              	.LBB1102:
 2201              	.LBI1073:
 2202              		.loc 14 74 5 is_stmt 1 view .LVU509
 2203              	.LBB1083:
 2204              	.LBB1075:
 2205              	.LBI1075:
  68:../../libDaisy//src/per/gpio.h ****         : pin(), mode(Mode::INPUT), pull(Pull::NOPULL), speed(Speed::LOW)
 2206              		.loc 14 68 9 view .LVU510
 2207              	.LBB1076:
 2208              	.LBB1077:
 2209              	.LBB1078:
 2210              	.LBI1078:
 2211              		.loc 15 272 15 view .LVU511
 2212              		.loc 15 272 15 is_stmt 0 view .LVU512
 2213              	.LBE1078:
  69:../../libDaisy//src/per/gpio.h ****         {
 2214              		.loc 14 69 73 view .LVU513
 2215 0056 C2E90144 		strd	r4, r4, [r2, #4]
 2216              	.LBE1077:
 2217              	.LBE1076:
 2218              	.LBE1075:
 2219              	.LBE1083:
 2220              	.LBE1102:
  24:daisy_bed.h   ****     Pin newPinD7 = Pin(static_cast<GPIOPort>(oldPinD7.port), oldPinD7.pin);
 2221              		.loc 11 24 18 view .LVU514
 2222 005a 3948     		ldr	r0, .L47+40
 2223              	.LBB1103:
 2224              	.LBB1084:
 2225              	.LBB1081:
 2226              	.LBB1080:
 2227              	.LBB1079:
  69:../../libDaisy//src/per/gpio.h ****         {
 2228              		.loc 14 69 73 view .LVU515
 2229 005c D460     		str	r4, [r2, #12]
 2230              	.LVL88:
ARM GAS  /var/folders/hl/qgbwny5j0fd895c2c41bk3tw0000gp/T//cc63D1lp.s 			page 68


  69:../../libDaisy//src/per/gpio.h ****         {
 2231              		.loc 14 69 73 view .LVU516
 2232              	.LBE1079:
 2233              	.LBE1080:
 2234              	.LBE1081:
 2235              	.LBE1084:
 2236              	.LBE1103:
  24:daisy_bed.h   ****     Pin newPinD7 = Pin(static_cast<GPIOPort>(oldPinD7.port), oldPinD7.pin);
 2237              		.loc 11 24 18 view .LVU517
 2238 005e 1D88     		ldrh	r5, [r3]	@ unaligned
  26:daisy_bed.h   ****     Pin newPinA9 = Pin(static_cast<GPIOPort>(oldPinA9.port), oldPinA9.pin);
 2239              		.loc 11 26 18 view .LVU518
 2240 0060 0988     		ldrh	r1, [r1]	@ unaligned
 2241 0062 384B     		ldr	r3, .L47+44
  24:daisy_bed.h   ****     Pin newPinD7 = Pin(static_cast<GPIOPort>(oldPinD7.port), oldPinD7.pin);
 2242              		.loc 11 24 18 view .LVU519
 2243 0064 0580     		strh	r5, [r0]	@ unaligned
  26:daisy_bed.h   ****     Pin newPinA9 = Pin(static_cast<GPIOPort>(oldPinA9.port), oldPinA9.pin);
 2244              		.loc 11 26 18 view .LVU520
 2245 0066 1980     		strh	r1, [r3]	@ unaligned
 2246              	.LBB1104:
 2247              	.LBB1105:
 2248              	.LBB1106:
 269:../../libDaisy//src/daisy_core.h **** 
 2249              		.loc 15 269 74 view .LVU521
 2250 0068 374A     		ldr	r2, .L47+48
 2251              	.LBE1106:
 2252              	.LBE1105:
 2253              	.LBE1104:
  25:daisy_bed.h   ****     dsy_gpio_pin oldPinA9 = DaisyPatchSM::A9;
 2254              		.loc 11 25 55 view .LVU522
 2255 006a 0188     		ldrh	r1, [r0]
 2256              	.LVL89:
 2257              	.LBB1109:
 2258              	.LBI1104:
 269:../../libDaisy//src/daisy_core.h **** 
 2259              		.loc 15 269 15 is_stmt 1 view .LVU523
 2260              	.LBE1109:
  32:daisy_bed.h   ****     Pin newPinD1 = Pin(static_cast<GPIOPort>(oldPinD1.port), oldPinD1.pin);
 2261              		.loc 11 32 18 is_stmt 0 view .LVU524
 2262 006c 3748     		ldr	r0, .L47+52
 2263              	.LBB1110:
 2264              	.LBB1108:
 2265              	.LBB1107:
 269:../../libDaisy//src/daisy_core.h **** 
 2266              		.loc 15 269 74 view .LVU525
 2267 006e 1180     		strh	r1, [r2]	@ movhi
 2268              	.LVL90:
 269:../../libDaisy//src/daisy_core.h **** 
 2269              		.loc 15 269 74 view .LVU526
 2270              	.LBE1107:
 2271              	.LBE1108:
 2272              	.LBE1110:
  30:daisy_bed.h   ****     Pin newPinD2 = Pin(static_cast<GPIOPort>(oldPinD2.port), oldPinD2.pin);
 2273              		.loc 11 30 18 view .LVU527
 2274 0070 3749     		ldr	r1, .L47+56
  32:daisy_bed.h   ****     Pin newPinD1 = Pin(static_cast<GPIOPort>(oldPinD1.port), oldPinD1.pin);
ARM GAS  /var/folders/hl/qgbwny5j0fd895c2c41bk3tw0000gp/T//cc63D1lp.s 			page 69


 2275              		.loc 11 32 18 view .LVU528
 2276 0072 0088     		ldrh	r0, [r0]	@ unaligned
  30:daisy_bed.h   ****     Pin newPinD2 = Pin(static_cast<GPIOPort>(oldPinD2.port), oldPinD2.pin);
 2277              		.loc 11 30 18 view .LVU529
 2278 0074 0D88     		ldrh	r5, [r1]	@ unaligned
  27:daisy_bed.h   **** 
 2279              		.loc 11 27 55 view .LVU530
 2280 0076 1988     		ldrh	r1, [r3]
 2281              	.LVL91:
 2282              	.LBB1111:
 2283              	.LBI1111:
 269:../../libDaisy//src/daisy_core.h **** 
 2284              		.loc 15 269 15 is_stmt 1 view .LVU531
 2285              	.LBB1112:
 2286              	.LBB1113:
 269:../../libDaisy//src/daisy_core.h **** 
 2287              		.loc 15 269 74 is_stmt 0 view .LVU532
 2288 0078 364B     		ldr	r3, .L47+60
 2289              	.LBE1113:
 2290              	.LBE1112:
 2291              	.LBE1111:
  30:daisy_bed.h   ****     Pin newPinD2 = Pin(static_cast<GPIOPort>(oldPinD2.port), oldPinD2.pin);
 2292              		.loc 11 30 18 view .LVU533
 2293 007a 374A     		ldr	r2, .L47+64
 2294              	.LBB1116:
 2295              	.LBB1115:
 2296              	.LBB1114:
 269:../../libDaisy//src/daisy_core.h **** 
 2297              		.loc 15 269 74 view .LVU534
 2298 007c 1980     		strh	r1, [r3]	@ movhi
 2299              	.LVL92:
 269:../../libDaisy//src/daisy_core.h **** 
 2300              		.loc 15 269 74 view .LVU535
 2301              	.LBE1114:
 2302              	.LBE1115:
 2303              	.LBE1116:
  32:daisy_bed.h   ****     Pin newPinD1 = Pin(static_cast<GPIOPort>(oldPinD1.port), oldPinD1.pin);
 2304              		.loc 11 32 18 view .LVU536
 2305 007e 374B     		ldr	r3, .L47+68
  30:daisy_bed.h   ****     Pin newPinD2 = Pin(static_cast<GPIOPort>(oldPinD2.port), oldPinD2.pin);
 2306              		.loc 11 30 18 view .LVU537
 2307 0080 1580     		strh	r5, [r2]	@ unaligned
  32:daisy_bed.h   ****     Pin newPinD1 = Pin(static_cast<GPIOPort>(oldPinD1.port), oldPinD1.pin);
 2308              		.loc 11 32 18 view .LVU538
 2309 0082 1880     		strh	r0, [r3]	@ unaligned
  31:daisy_bed.h   ****     dsy_gpio_pin oldPinD1 = DaisyPatchSM::D1;
 2310              		.loc 11 31 55 view .LVU539
 2311 0084 1288     		ldrh	r2, [r2]
 2312              	.LVL93:
 2313              	.LBB1117:
 2314              	.LBI1117:
 269:../../libDaisy//src/daisy_core.h **** 
 2315              		.loc 15 269 15 is_stmt 1 view .LVU540
 2316              	.LBE1117:
  33:daisy_bed.h   ****     // ^^^ {DSY_GPIOB, 4},  /**< D1  - SPI2 CS */
 2317              		.loc 11 33 55 is_stmt 0 view .LVU541
 2318 0086 1D88     		ldrh	r5, [r3]
ARM GAS  /var/folders/hl/qgbwny5j0fd895c2c41bk3tw0000gp/T//cc63D1lp.s 			page 70


 2319              	.LBB1122:
 2320              	.LBB1118:
 2321              	.LBB1119:
 269:../../libDaisy//src/daisy_core.h **** 
 2322              		.loc 15 269 74 view .LVU542
 2323 0088 354B     		ldr	r3, .L47+72
 2324              	.LBE1119:
 2325              	.LBE1118:
 2326              	.LBE1122:
  37:daisy_bed.h   ****     Pin newPinD3 = Pin(static_cast<GPIOPort>(oldPinD3.port), oldPinD3.pin);
 2327              		.loc 11 37 18 view .LVU543
 2328 008a 3649     		ldr	r1, .L47+76
 2329              	.LBB1123:
 2330              	.LBB1121:
 2331              	.LBB1120:
 269:../../libDaisy//src/daisy_core.h **** 
 2332              		.loc 15 269 74 view .LVU544
 2333 008c 1A80     		strh	r2, [r3]	@ movhi
 2334              	.LVL94:
 269:../../libDaisy//src/daisy_core.h **** 
 2335              		.loc 15 269 74 view .LVU545
 2336              	.LBE1120:
 2337              	.LBE1121:
 2338              	.LBE1123:
 2339              	.LBB1124:
 2340              	.LBI1124:
 269:../../libDaisy//src/daisy_core.h **** 
 2341              		.loc 15 269 15 is_stmt 1 view .LVU546
 2342              	.LBE1124:
  39:daisy_bed.h   ****     Pin newPinD6 = Pin(static_cast<GPIOPort>(oldPinD6.port), oldPinD6.pin);
 2343              		.loc 11 39 18 is_stmt 0 view .LVU547
 2344 008e 364B     		ldr	r3, .L47+80
  37:daisy_bed.h   ****     Pin newPinD3 = Pin(static_cast<GPIOPort>(oldPinD3.port), oldPinD3.pin);
 2345              		.loc 11 37 18 view .LVU548
 2346 0090 B1F800E0 		ldrh	lr, [r1]	@ unaligned
  39:daisy_bed.h   ****     Pin newPinD6 = Pin(static_cast<GPIOPort>(oldPinD6.port), oldPinD6.pin);
 2347              		.loc 11 39 18 view .LVU549
 2348 0094 B3F800C0 		ldrh	ip, [r3]	@ unaligned
  41:daisy_bed.h   ****     Pin newPinD4 = Pin(static_cast<GPIOPort>(oldPinD4.port), oldPinD4.pin);
 2349              		.loc 11 41 18 view .LVU550
 2350 0098 344B     		ldr	r3, .L47+84
 2351              	.LBB1129:
 2352              	.LBB1130:
 2353              	.LBB1131:
 269:../../libDaisy//src/daisy_core.h **** 
 2354              		.loc 15 269 74 view .LVU551
 2355 009a 3548     		ldr	r0, .L47+88
 2356              	.LBE1131:
 2357              	.LBE1130:
 2358              	.LBE1129:
  41:daisy_bed.h   ****     Pin newPinD4 = Pin(static_cast<GPIOPort>(oldPinD4.port), oldPinD4.pin);
 2359              		.loc 11 41 18 view .LVU552
 2360 009c 1988     		ldrh	r1, [r3]	@ unaligned
  43:daisy_bed.h   ****     Pin newPinD5 = Pin(static_cast<GPIOPort>(oldPinD5.port), oldPinD5.pin);
 2361              		.loc 11 43 18 view .LVU553
 2362 009e 354B     		ldr	r3, .L47+92
 2363 00a0 1A88     		ldrh	r2, [r3]	@ unaligned
ARM GAS  /var/folders/hl/qgbwny5j0fd895c2c41bk3tw0000gp/T//cc63D1lp.s 			page 71


  37:daisy_bed.h   ****     Pin newPinD3 = Pin(static_cast<GPIOPort>(oldPinD3.port), oldPinD3.pin);
 2364              		.loc 11 37 18 view .LVU554
 2365 00a2 354B     		ldr	r3, .L47+96
 2366 00a4 A3F800E0 		strh	lr, [r3]	@ unaligned
  38:daisy_bed.h   ****     dsy_gpio_pin oldPinD6 = DaisyPatchSM::D6;
 2367              		.loc 11 38 55 view .LVU555
 2368 00a8 B3F800E0 		ldrh	lr, [r3]
  39:daisy_bed.h   ****     Pin newPinD6 = Pin(static_cast<GPIOPort>(oldPinD6.port), oldPinD6.pin);
 2369              		.loc 11 39 18 view .LVU556
 2370 00ac 334B     		ldr	r3, .L47+100
 2371 00ae A3F800C0 		strh	ip, [r3]	@ unaligned
  40:daisy_bed.h   ****     dsy_gpio_pin oldPinD4 = DaisyPatchSM::D4;
 2372              		.loc 11 40 55 view .LVU557
 2373 00b2 1B88     		ldrh	r3, [r3]
 2374              	.LBB1134:
 2375              	.LBB1133:
 2376              	.LBB1132:
 269:../../libDaisy//src/daisy_core.h **** 
 2377              		.loc 15 269 74 view .LVU558
 2378 00b4 0380     		strh	r3, [r0]	@ movhi
 2379              	.LBE1132:
 2380              	.LBE1133:
 2381              	.LBE1134:
  41:daisy_bed.h   ****     Pin newPinD4 = Pin(static_cast<GPIOPort>(oldPinD4.port), oldPinD4.pin);
 2382              		.loc 11 41 18 view .LVU559
 2383 00b6 324B     		ldr	r3, .L47+104
 2384 00b8 1980     		strh	r1, [r3]	@ unaligned
  42:daisy_bed.h   ****     dsy_gpio_pin oldPinD5 = DaisyPatchSM::D5;
 2385              		.loc 11 42 55 view .LVU560
 2386 00ba B3F800C0 		ldrh	ip, [r3]
  43:daisy_bed.h   ****     Pin newPinD5 = Pin(static_cast<GPIOPort>(oldPinD5.port), oldPinD5.pin);
 2387              		.loc 11 43 18 view .LVU561
 2388 00be 314B     		ldr	r3, .L47+108
  49:daisy_bed.h   **** 
 2389              		.loc 11 49 17 view .LVU562
 2390 00c0 3149     		ldr	r1, .L47+112
  43:daisy_bed.h   ****     Pin newPinD5 = Pin(static_cast<GPIOPort>(oldPinD5.port), oldPinD5.pin);
 2391              		.loc 11 43 18 view .LVU563
 2392 00c2 1A80     		strh	r2, [r3]	@ unaligned
  44:daisy_bed.h   **** 
 2393              		.loc 11 44 55 view .LVU564
 2394 00c4 1888     		ldrh	r0, [r3]
 2395              	.LBB1135:
 2396              	.LBB1125:
 2397              	.LBB1126:
 269:../../libDaisy//src/daisy_core.h **** 
 2398              		.loc 15 269 74 view .LVU565
 2399 00c6 314B     		ldr	r3, .L47+116
 2400              	.LBE1126:
 2401              	.LBE1125:
 2402              	.LBE1135:
  49:daisy_bed.h   **** 
 2403              		.loc 11 49 17 view .LVU566
 2404 00c8 314A     		ldr	r2, .L47+120
 2405              	.LBB1136:
 2406              	.LBB1128:
 2407              	.LBB1127:
ARM GAS  /var/folders/hl/qgbwny5j0fd895c2c41bk3tw0000gp/T//cc63D1lp.s 			page 72


 269:../../libDaisy//src/daisy_core.h **** 
 2408              		.loc 15 269 74 view .LVU567
 2409 00ca 1D80     		strh	r5, [r3]	@ movhi
 2410              	.LVL95:
 269:../../libDaisy//src/daisy_core.h **** 
 2411              		.loc 15 269 74 view .LVU568
 2412              	.LBE1127:
 2413              	.LBE1128:
 2414              	.LBE1136:
 2415              	.LBB1137:
 2416              	.LBI1137:
 269:../../libDaisy//src/daisy_core.h **** 
 2417              		.loc 15 269 15 is_stmt 1 view .LVU569
 2418              	.LBB1138:
 2419              	.LBB1139:
 269:../../libDaisy//src/daisy_core.h **** 
 2420              		.loc 15 269 74 is_stmt 0 view .LVU570
 2421 00cc 314B     		ldr	r3, .L47+124
 2422 00ce A3F800E0 		strh	lr, [r3]	@ movhi
 2423              	.LVL96:
 269:../../libDaisy//src/daisy_core.h **** 
 2424              		.loc 15 269 74 view .LVU571
 2425              	.LBE1139:
 2426              	.LBE1138:
 2427              	.LBE1137:
 2428              	.LBB1140:
 2429              	.LBI1129:
 269:../../libDaisy//src/daisy_core.h **** 
 2430              		.loc 15 269 15 is_stmt 1 view .LVU572
 269:../../libDaisy//src/daisy_core.h **** 
 2431              		.loc 15 269 15 is_stmt 0 view .LVU573
 2432              	.LBE1140:
 2433              	.LBB1141:
 2434              	.LBI1141:
 269:../../libDaisy//src/daisy_core.h **** 
 2435              		.loc 15 269 15 is_stmt 1 view .LVU574
 2436              	.LBB1142:
 2437              	.LBB1143:
 269:../../libDaisy//src/daisy_core.h **** 
 2438              		.loc 15 269 74 is_stmt 0 view .LVU575
 2439 00d2 314B     		ldr	r3, .L47+128
 2440 00d4 A3F800C0 		strh	ip, [r3]	@ movhi
 2441              	.LVL97:
 269:../../libDaisy//src/daisy_core.h **** 
 2442              		.loc 15 269 74 view .LVU576
 2443              	.LBE1143:
 2444              	.LBE1142:
 2445              	.LBE1141:
 2446              	.LBB1144:
 2447              	.LBI1144:
 269:../../libDaisy//src/daisy_core.h **** 
 2448              		.loc 15 269 15 is_stmt 1 view .LVU577
 2449              	.LBB1145:
 2450              	.LBB1146:
 269:../../libDaisy//src/daisy_core.h **** 
 2451              		.loc 15 269 74 is_stmt 0 view .LVU578
 2452 00d8 304B     		ldr	r3, .L47+132
ARM GAS  /var/folders/hl/qgbwny5j0fd895c2c41bk3tw0000gp/T//cc63D1lp.s 			page 73


 2453 00da 1880     		strh	r0, [r3]	@ movhi
 2454              	.LVL98:
 269:../../libDaisy//src/daisy_core.h **** 
 2455              		.loc 15 269 74 view .LVU579
 2456              	.LBE1146:
 2457              	.LBE1145:
 2458              	.LBE1144:
 2459              	.LBB1147:
 2460              	.LBI1147:
  41:../../libDaisy//src/hid/switch.h ****     ~Switch() {}
 2461              		.loc 1 41 5 is_stmt 1 view .LVU580
  41:../../libDaisy//src/hid/switch.h ****     ~Switch() {}
 2462              		.loc 1 41 5 is_stmt 0 view .LVU581
 2463              	.LBE1147:
  49:daisy_bed.h   **** 
 2464              		.loc 11 49 17 view .LVU582
 2465 00dc 3048     		ldr	r0, .L47+136
 2466 00de FFF7FEFF 		bl	__aeabi_atexit
 2467              	.LVL99:
 2468              	.LBB1148:
 2469              	.LBI1148:
  41:../../libDaisy//src/hid/switch.h ****     ~Switch() {}
 2470              		.loc 1 41 5 is_stmt 1 view .LVU583
  41:../../libDaisy//src/hid/switch.h ****     ~Switch() {}
 2471              		.loc 1 41 5 is_stmt 0 view .LVU584
 2472              	.LBE1148:
  49:daisy_bed.h   **** 
 2473              		.loc 11 49 20 view .LVU585
 2474 00e2 2B4A     		ldr	r2, .L47+120
 2475 00e4 2849     		ldr	r1, .L47+112
 2476 00e6 2F48     		ldr	r0, .L47+140
 2477 00e8 FFF7FEFF 		bl	__aeabi_atexit
 2478              	.LVL100:
  15:test.cpp      **** float DSY_SDRAM_BSS 		grainBuffer[kBufferSize * kGrainCount];
 2479              		.loc 10 15 45 is_stmt 1 view .LVU586
  15:test.cpp      **** float DSY_SDRAM_BSS 		grainBuffer[kBufferSize * kGrainCount];
 2480              		.loc 10 15 27 is_stmt 0 view .LVU587
 2481 00ec 284A     		ldr	r2, .L47+120
 2482 00ee 2E49     		ldr	r1, .L47+144
 2483 00f0 2046     		mov	r0, r4
 2484 00f2 FFF7FEFF 		bl	__aeabi_atexit
 2485              	.LVL101:
 2486              	.LBB1149:
 2487              	.LBI1149:
  64:../../libDaisy//src/daisy_patch_sm.h ****         ~DaisyPatchSM() {}
 2488              		.loc 2 64 9 is_stmt 1 view .LVU588
 2489              	.LBB1150:
 2490              	.LBB1151:
 2491              	.LBI1151:
  77:../../libDaisy//src/sys/system.h ****     ~System() {}
 2492              		.loc 8 77 5 view .LVU589
  77:../../libDaisy//src/sys/system.h ****     ~System() {}
 2493              		.loc 8 77 5 is_stmt 0 view .LVU590
 2494              	.LBE1151:
 2495              	.LBB1152:
 2496              	.LBI1152:
 2497              		.file 16 "../../libDaisy//src/per/qspi.h"
ARM GAS  /var/folders/hl/qgbwny5j0fd895c2c41bk3tw0000gp/T//cc63D1lp.s 			page 74


   1:../../libDaisy//src/per/qspi.h **** #ifndef DSY_QSPI
   2:../../libDaisy//src/per/qspi.h **** #define DSY_QSPI /**< Macro */
   3:../../libDaisy//src/per/qspi.h **** 
   4:../../libDaisy//src/per/qspi.h **** #ifndef UNIT_TEST // for unit tests, a dummy implementation
   5:../../libDaisy//src/per/qspi.h **** 
   6:../../libDaisy//src/per/qspi.h **** #include <cstdint>
   7:../../libDaisy//src/per/qspi.h **** #include "daisy_core.h" // Added for dsy_gpio_pin typedef
   8:../../libDaisy//src/per/qspi.h **** 
   9:../../libDaisy//src/per/qspi.h **** #define DSY_QSPI_TEXT       \
  10:../../libDaisy//src/per/qspi.h ****     __attribute__((section( \
  11:../../libDaisy//src/per/qspi.h ****         ".qspiflash_text"))) /**< used for reading memory in memory_mapped mode. */
  12:../../libDaisy//src/per/qspi.h **** #define DSY_QSPI_DATA       \
  13:../../libDaisy//src/per/qspi.h ****     __attribute__((section( \
  14:../../libDaisy//src/per/qspi.h ****         ".qspiflash_data"))) /**< used for reading memory in memory_mapped mode. */
  15:../../libDaisy//src/per/qspi.h **** #define DSY_QSPI_BSS        \
  16:../../libDaisy//src/per/qspi.h ****     __attribute__((section( \
  17:../../libDaisy//src/per/qspi.h ****         ".qspiflash_bss"))) /**< used for reading memory in memory_mapped mode. */
  18:../../libDaisy//src/per/qspi.h **** 
  19:../../libDaisy//src/per/qspi.h **** namespace daisy
  20:../../libDaisy//src/per/qspi.h **** {
  21:../../libDaisy//src/per/qspi.h **** /** @addtogroup serial
  22:../../libDaisy//src/per/qspi.h **** @{
  23:../../libDaisy//src/per/qspi.h **** */
  24:../../libDaisy//src/per/qspi.h **** 
  25:../../libDaisy//src/per/qspi.h **** /** 
  26:../../libDaisy//src/per/qspi.h ****  Driver for QSPI peripheral to interface with external flash memory. \n 
  27:../../libDaisy//src/per/qspi.h ****     Currently supported QSPI Devices: \n 
  28:../../libDaisy//src/per/qspi.h ****     * IS25LP080D
  29:../../libDaisy//src/per/qspi.h **** */
  30:../../libDaisy//src/per/qspi.h **** class QSPIHandle
  31:../../libDaisy//src/per/qspi.h **** {
  32:../../libDaisy//src/per/qspi.h ****   public:
  33:../../libDaisy//src/per/qspi.h ****     enum Result
  34:../../libDaisy//src/per/qspi.h ****     {
  35:../../libDaisy//src/per/qspi.h ****         OK = 0,
  36:../../libDaisy//src/per/qspi.h ****         ERR
  37:../../libDaisy//src/per/qspi.h ****     };
  38:../../libDaisy//src/per/qspi.h **** 
  39:../../libDaisy//src/per/qspi.h ****     /** Indicates the current status of the module. 
  40:../../libDaisy//src/per/qspi.h ****          *  Warnings are indicated by a leading W.
  41:../../libDaisy//src/per/qspi.h ****          *  Errors are indicated by a leading E and cause an immediate exit.
  42:../../libDaisy//src/per/qspi.h ****          * 
  43:../../libDaisy//src/per/qspi.h ****          *  \param GOOD - No errors have been reported.
  44:../../libDaisy//src/per/qspi.h ****          *  \param E_HAL_ERROR - HAL code did not return HAL_OK.
  45:../../libDaisy//src/per/qspi.h ****          *  \param E_SWITCHING_MODES - An error was encountered while switching QSPI peripheral mod
  46:../../libDaisy//src/per/qspi.h ****          *  \param E_INVALID_MODE - QSPI should not be written to while the program is executing fr
  47:../../libDaisy//src/per/qspi.h ****          */
  48:../../libDaisy//src/per/qspi.h ****     enum Status
  49:../../libDaisy//src/per/qspi.h ****     {
  50:../../libDaisy//src/per/qspi.h ****         GOOD = 0,
  51:../../libDaisy//src/per/qspi.h ****         E_HAL_ERROR,
  52:../../libDaisy//src/per/qspi.h ****         E_SWITCHING_MODES,
  53:../../libDaisy//src/per/qspi.h ****         E_INVALID_MODE,
  54:../../libDaisy//src/per/qspi.h ****     };
  55:../../libDaisy//src/per/qspi.h **** 
  56:../../libDaisy//src/per/qspi.h ****     /** Configuration structure for interfacing with QSPI Driver */
  57:../../libDaisy//src/per/qspi.h ****     struct Config
ARM GAS  /var/folders/hl/qgbwny5j0fd895c2c41bk3tw0000gp/T//cc63D1lp.s 			page 75


  58:../../libDaisy//src/per/qspi.h ****     {
  59:../../libDaisy//src/per/qspi.h ****         /** Flash Devices supported. (Both of these are more-or-less the same, just different sizes
  60:../../libDaisy//src/per/qspi.h ****         enum Device
  61:../../libDaisy//src/per/qspi.h ****         {
  62:../../libDaisy//src/per/qspi.h ****             IS25LP080D,  /**< & */
  63:../../libDaisy//src/per/qspi.h ****             IS25LP064A,  /**< & */
  64:../../libDaisy//src/per/qspi.h ****             DEVICE_LAST, /**< & */
  65:../../libDaisy//src/per/qspi.h ****         };
  66:../../libDaisy//src/per/qspi.h **** 
  67:../../libDaisy//src/per/qspi.h ****         /** 
  68:../../libDaisy//src/per/qspi.h ****         Modes of operation.
  69:../../libDaisy//src/per/qspi.h ****         Memory Mapped mode: QSPI configured so that the QSPI can be
  70:../../libDaisy//src/per/qspi.h ****         read from starting address 0x90000000. Writing is not
  71:../../libDaisy//src/per/qspi.h ****         possible in this mode. \n 
  72:../../libDaisy//src/per/qspi.h ****         Indirect Polling mode: Device driver enabled. 
  73:../../libDaisy//src/per/qspi.h ****         */
  74:../../libDaisy//src/per/qspi.h ****         enum Mode
  75:../../libDaisy//src/per/qspi.h ****         {
  76:../../libDaisy//src/per/qspi.h ****             MEMORY_MAPPED,    /**< & */
  77:../../libDaisy//src/per/qspi.h ****             INDIRECT_POLLING, /**< & */
  78:../../libDaisy//src/per/qspi.h ****             MODE_LAST,
  79:../../libDaisy//src/per/qspi.h ****         };
  80:../../libDaisy//src/per/qspi.h **** 
  81:../../libDaisy//src/per/qspi.h ****         //SCK,  CE# (active low)
  82:../../libDaisy//src/per/qspi.h ****         struct
  83:../../libDaisy//src/per/qspi.h ****         {
  84:../../libDaisy//src/per/qspi.h ****             dsy_gpio_pin io0; /**< & */
  85:../../libDaisy//src/per/qspi.h ****             dsy_gpio_pin io1; /**< & */
  86:../../libDaisy//src/per/qspi.h ****             dsy_gpio_pin io2; /**< & */
  87:../../libDaisy//src/per/qspi.h ****             dsy_gpio_pin io3; /**< & */
  88:../../libDaisy//src/per/qspi.h ****             dsy_gpio_pin clk; /**< & */
  89:../../libDaisy//src/per/qspi.h ****             dsy_gpio_pin ncs; /**< & */
  90:../../libDaisy//src/per/qspi.h ****         } pin_config;
  91:../../libDaisy//src/per/qspi.h **** 
  92:../../libDaisy//src/per/qspi.h ****         Device device;
  93:../../libDaisy//src/per/qspi.h ****         Mode   mode;
  94:../../libDaisy//src/per/qspi.h ****     };
  95:../../libDaisy//src/per/qspi.h **** 
  96:../../libDaisy//src/per/qspi.h ****     /** 
  97:../../libDaisy//src/per/qspi.h ****         Initializes QSPI peripheral, and Resets, and prepares memory for access.
  98:../../libDaisy//src/per/qspi.h ****         \param config should be populated with the mode, device and pin_config before calling this 
  99:../../libDaisy//src/per/qspi.h ****         \return Result::OK or Result::ERR
 100:../../libDaisy//src/per/qspi.h ****         */
 101:../../libDaisy//src/per/qspi.h ****     Result Init(const Config& config);
 102:../../libDaisy//src/per/qspi.h **** 
 103:../../libDaisy//src/per/qspi.h ****     /** Returns the current config. */
 104:../../libDaisy//src/per/qspi.h ****     const Config& GetConfig() const;
 105:../../libDaisy//src/per/qspi.h **** 
 106:../../libDaisy//src/per/qspi.h ****     // Couldn't this just be called before anything else in init? That
 107:../../libDaisy//src/per/qspi.h ****     // would make manually calling it unnecessary.
 108:../../libDaisy//src/per/qspi.h ****     /** 
 109:../../libDaisy//src/per/qspi.h ****         Deinitializes the peripheral
 110:../../libDaisy//src/per/qspi.h ****         This should be called before reinitializing QSPI in a different mode.
 111:../../libDaisy//src/per/qspi.h ****         \return Result::OK or Result::ERR
 112:../../libDaisy//src/per/qspi.h ****         */
 113:../../libDaisy//src/per/qspi.h ****     Result DeInit();
 114:../../libDaisy//src/per/qspi.h **** 
ARM GAS  /var/folders/hl/qgbwny5j0fd895c2c41bk3tw0000gp/T//cc63D1lp.s 			page 76


 115:../../libDaisy//src/per/qspi.h ****     /** 
 116:../../libDaisy//src/per/qspi.h ****         Writes a single page to to the specified address on the QSPI chip.
 117:../../libDaisy//src/per/qspi.h ****         For IS25LP*, page size is 256 bytes.
 118:../../libDaisy//src/per/qspi.h ****         \param address Address to write to
 119:../../libDaisy//src/per/qspi.h ****         \param size Buffer size
 120:../../libDaisy//src/per/qspi.h ****         \param buffer Buffer to write
 121:../../libDaisy//src/per/qspi.h ****         \return Result::OK or Result::ERR
 122:../../libDaisy//src/per/qspi.h ****         */
 123:../../libDaisy//src/per/qspi.h ****     Result WritePage(uint32_t address, uint32_t size, uint8_t* buffer);
 124:../../libDaisy//src/per/qspi.h **** 
 125:../../libDaisy//src/per/qspi.h ****     /** 
 126:../../libDaisy//src/per/qspi.h ****         Writes data in buffer to to the QSPI. Starting at address to address+size 
 127:../../libDaisy//src/per/qspi.h ****         \param address Address to write to
 128:../../libDaisy//src/per/qspi.h ****         \param size Buffer size
 129:../../libDaisy//src/per/qspi.h ****         \param buffer Buffer to write
 130:../../libDaisy//src/per/qspi.h ****         \return Result::OK or Result::ERR
 131:../../libDaisy//src/per/qspi.h ****         */
 132:../../libDaisy//src/per/qspi.h ****     Result Write(uint32_t address, uint32_t size, uint8_t* buffer);
 133:../../libDaisy//src/per/qspi.h **** 
 134:../../libDaisy//src/per/qspi.h ****     /** 
 135:../../libDaisy//src/per/qspi.h ****         Erases the area specified on the chip.
 136:../../libDaisy//src/per/qspi.h ****         Erasures will happen by 4K, 32K or 64K increments.
 137:../../libDaisy//src/per/qspi.h ****         Smallest erase possible is 4kB at a time. (on IS25LP*)
 138:../../libDaisy//src/per/qspi.h ****         \param start_addr Address to begin erasing from
 139:../../libDaisy//src/per/qspi.h ****         \param end_addr  Address to stop erasing at
 140:../../libDaisy//src/per/qspi.h ****         \return Result::OK or Result::ERR
 141:../../libDaisy//src/per/qspi.h ****         */
 142:../../libDaisy//src/per/qspi.h ****     Result Erase(uint32_t start_addr, uint32_t end_addr);
 143:../../libDaisy//src/per/qspi.h **** 
 144:../../libDaisy//src/per/qspi.h ****     /**  
 145:../../libDaisy//src/per/qspi.h ****          Erases a single sector of the chip.  
 146:../../libDaisy//src/per/qspi.h ****         TODO: Document the size of this function. 
 147:../../libDaisy//src/per/qspi.h ****         \param address Address of sector to erase
 148:../../libDaisy//src/per/qspi.h ****         \return Result::OK or Result::ERR
 149:../../libDaisy//src/per/qspi.h ****         */
 150:../../libDaisy//src/per/qspi.h ****     Result EraseSector(uint32_t address);
 151:../../libDaisy//src/per/qspi.h **** 
 152:../../libDaisy//src/per/qspi.h ****     /** Returns the current class status. Useful for debugging.
 153:../../libDaisy//src/per/qspi.h ****      *  \returns Status
 154:../../libDaisy//src/per/qspi.h ****      */
 155:../../libDaisy//src/per/qspi.h ****     Status GetStatus();
 156:../../libDaisy//src/per/qspi.h **** 
 157:../../libDaisy//src/per/qspi.h ****     /** Returns a pointer to the actual memory used 
 158:../../libDaisy//src/per/qspi.h ****      *  The memory at this address is read-only
 159:../../libDaisy//src/per/qspi.h ****      *  to write to it use the Write function.
 160:../../libDaisy//src/per/qspi.h ****      * 
 161:../../libDaisy//src/per/qspi.h ****      *  \param offset returns the pointer starting this 
 162:../../libDaisy//src/per/qspi.h ****      *                many bytes into the memory
 163:../../libDaisy//src/per/qspi.h ****     */
 164:../../libDaisy//src/per/qspi.h ****     void* GetData(uint32_t offset = 0);
 165:../../libDaisy//src/per/qspi.h **** 
 166:../../libDaisy//src/per/qspi.h ****     QSPIHandle() : pimpl_(nullptr) {}
 2498              		.loc 16 166 5 is_stmt 1 view .LVU591
 2499              	.LBB1153:
 2500              	.LBB1154:
 2501              		.loc 16 166 34 is_stmt 0 view .LVU592
 2502 00f6 2D48     		ldr	r0, .L47+148
ARM GAS  /var/folders/hl/qgbwny5j0fd895c2c41bk3tw0000gp/T//cc63D1lp.s 			page 77


 2503              	.LBE1154:
 2504              	.LBE1153:
 2505              	.LBE1152:
 2506              	.LBE1150:
 2507              	.LBE1149:
  17:test.cpp      **** ReverbSc DSY_SDRAM_BSS		rev;
 2508              		.loc 10 17 18 view .LVU593
 2509 00f8 2D49     		ldr	r1, .L47+152
 2510 00fa 254A     		ldr	r2, .L47+120
 2511              	.LBB1176:
 2512              	.LBB1174:
 2513              	.LBB1155:
 2514              	.LBB1156:
 2515              	.LBB1157:
 2516              	.LBB1158:
 2517              	.LBB1159:
 2518              		.file 17 "../../libDaisy//src/per/i2c.h"
   1:../../libDaisy//src/per/i2c.h **** #pragma once
   2:../../libDaisy//src/per/i2c.h **** #include "daisy_core.h"
   3:../../libDaisy//src/per/i2c.h **** 
   4:../../libDaisy//src/per/i2c.h **** namespace daisy
   5:../../libDaisy//src/per/i2c.h **** {
   6:../../libDaisy//src/per/i2c.h **** /** A handle for interacting with an I2C peripheral. This is a dumb
   7:../../libDaisy//src/per/i2c.h ****  *  gateway that internally points to one of the four I2C peripherals
   8:../../libDaisy//src/per/i2c.h ****  *  after it was initialised. It can then be copied and passed around.
   9:../../libDaisy//src/per/i2c.h ****  *  Use an I2CHandle like this:
  10:../../libDaisy//src/per/i2c.h ****  *  
  11:../../libDaisy//src/per/i2c.h ****  *      // setup the configuration
  12:../../libDaisy//src/per/i2c.h ****  *      I2CHandle::Config i2c_conf;
  13:../../libDaisy//src/per/i2c.h ****  *      i2c_conf.periph = I2CHandle::Config::Peripheral::I2C_1;
  14:../../libDaisy//src/per/i2c.h ****  *      i2c_conf.speed  = I2CHandle::Config::Speed::I2C_400KHZ;
  15:../../libDaisy//src/per/i2c.h ****  *      i2c_conf.mode   = I2CHandle::Config::Mode::Master;
  16:../../libDaisy//src/per/i2c.h ****  *      i2c_conf.pin_config.scl  = {DSY_GPIOB, 8};
  17:../../libDaisy//src/per/i2c.h ****  *      i2c_conf.pin_config.sda  = {DSY_GPIOB, 9};
  18:../../libDaisy//src/per/i2c.h ****  *      // initialise the peripheral
  19:../../libDaisy//src/per/i2c.h ****  *      I2CHandle i2c;
  20:../../libDaisy//src/per/i2c.h ****  *      i2c.Init(i2c_conf);
  21:../../libDaisy//src/per/i2c.h ****  *      // now i2c points to the corresponding peripheral and can be used.
  22:../../libDaisy//src/per/i2c.h ****  *      i2c.TransmitBlocking( ... );
  23:../../libDaisy//src/per/i2c.h ****  */
  24:../../libDaisy//src/per/i2c.h **** class I2CHandle
  25:../../libDaisy//src/per/i2c.h **** {
  26:../../libDaisy//src/per/i2c.h ****   public:
  27:../../libDaisy//src/per/i2c.h ****     /** Contains settings for initialising an I2C interface. */
  28:../../libDaisy//src/per/i2c.h ****     struct Config
  29:../../libDaisy//src/per/i2c.h ****     {
  30:../../libDaisy//src/per/i2c.h ****         /** Specifies whether the interface will operate in master or slave mode. */
  31:../../libDaisy//src/per/i2c.h ****         enum class Mode
  32:../../libDaisy//src/per/i2c.h ****         {
  33:../../libDaisy//src/per/i2c.h ****             I2C_MASTER,
  34:../../libDaisy//src/per/i2c.h ****             I2C_SLAVE,
  35:../../libDaisy//src/per/i2c.h ****         };
  36:../../libDaisy//src/per/i2c.h **** 
  37:../../libDaisy//src/per/i2c.h ****         /** Specifices the internal peripheral to use (these are mapped to different pins on the ha
  38:../../libDaisy//src/per/i2c.h ****         enum class Peripheral
  39:../../libDaisy//src/per/i2c.h ****         {
  40:../../libDaisy//src/per/i2c.h ****             I2C_1 = 0, /**< & */
ARM GAS  /var/folders/hl/qgbwny5j0fd895c2c41bk3tw0000gp/T//cc63D1lp.s 			page 78


  41:../../libDaisy//src/per/i2c.h ****             I2C_2,     /**< & */
  42:../../libDaisy//src/per/i2c.h ****             I2C_3,     /**< & */
  43:../../libDaisy//src/per/i2c.h ****             I2C_4,     /**< & */
  44:../../libDaisy//src/per/i2c.h ****         };
  45:../../libDaisy//src/per/i2c.h **** 
  46:../../libDaisy//src/per/i2c.h ****         /** Rate at which the clock/data will be sent/received. The device being used will have max
  47:../../libDaisy//src/per/i2c.h ****          *  1MHZ Mode is currently 886kHz
  48:../../libDaisy//src/per/i2c.h ****          */
  49:../../libDaisy//src/per/i2c.h ****         enum class Speed
  50:../../libDaisy//src/per/i2c.h ****         {
  51:../../libDaisy//src/per/i2c.h ****             I2C_100KHZ, /**< & */
  52:../../libDaisy//src/per/i2c.h ****             I2C_400KHZ, /**< & */
  53:../../libDaisy//src/per/i2c.h ****             I2C_1MHZ,   /**< & */
  54:../../libDaisy//src/per/i2c.h ****         };
  55:../../libDaisy//src/per/i2c.h **** 
  56:../../libDaisy//src/per/i2c.h ****         Peripheral periph; /**< & */
  57:../../libDaisy//src/per/i2c.h ****         struct
  58:../../libDaisy//src/per/i2c.h ****         {
  59:../../libDaisy//src/per/i2c.h ****             dsy_gpio_pin scl; /**< & */
  60:../../libDaisy//src/per/i2c.h ****             dsy_gpio_pin sda; /**< & */
  61:../../libDaisy//src/per/i2c.h ****         } pin_config;         /**< & */
  62:../../libDaisy//src/per/i2c.h **** 
  63:../../libDaisy//src/per/i2c.h ****         Speed speed; /**< & */
  64:../../libDaisy//src/per/i2c.h ****         Mode  mode;  /**< & */
  65:../../libDaisy//src/per/i2c.h ****         // 0x10 is chosen as a default to avoid conflicts with reserved addresses
  66:../../libDaisy//src/per/i2c.h ****         uint8_t address = 0x10; /**< & */
  67:../../libDaisy//src/per/i2c.h ****     };
  68:../../libDaisy//src/per/i2c.h **** 
  69:../../libDaisy//src/per/i2c.h ****     /** Return values for I2C functions. */
  70:../../libDaisy//src/per/i2c.h ****     enum class Result
  71:../../libDaisy//src/per/i2c.h ****     {
  72:../../libDaisy//src/per/i2c.h ****         OK, /**< & */
  73:../../libDaisy//src/per/i2c.h ****         ERR /**< & */
  74:../../libDaisy//src/per/i2c.h ****     };
  75:../../libDaisy//src/per/i2c.h **** 
  76:../../libDaisy//src/per/i2c.h ****     enum class Direction
  77:../../libDaisy//src/per/i2c.h ****     {
  78:../../libDaisy//src/per/i2c.h ****         TRANSMIT, /**< & */
  79:../../libDaisy//src/per/i2c.h ****         RECEIVE,  /**< & */
  80:../../libDaisy//src/per/i2c.h ****     };
  81:../../libDaisy//src/per/i2c.h **** 
  82:../../libDaisy//src/per/i2c.h ****     I2CHandle() : pimpl_(nullptr) {}
 2519              		.loc 17 82 33 view .LVU594
 2520 00fc 0462     		str	r4, [r0, #32]
 2521              	.LBE1159:
 2522              	.LBE1158:
 2523              	.LBE1157:
 2524              	.LBE1156:
 2525              	.LBE1155:
 2526              	.LBB1162:
 2527              	.LBB1163:
 2528              	.LBB1164:
 2529              		.file 18 "../../libDaisy//src/per/dac.h"
   1:../../libDaisy//src/per/dac.h **** #pragma once
   2:../../libDaisy//src/per/dac.h **** #ifndef DSY_DAC_H
   3:../../libDaisy//src/per/dac.h **** #define DSY_DAC_H
   4:../../libDaisy//src/per/dac.h **** 
ARM GAS  /var/folders/hl/qgbwny5j0fd895c2c41bk3tw0000gp/T//cc63D1lp.s 			page 79


   5:../../libDaisy//src/per/dac.h **** #include "daisy_core.h"
   6:../../libDaisy//src/per/dac.h **** 
   7:../../libDaisy//src/per/dac.h **** namespace daisy
   8:../../libDaisy//src/per/dac.h **** {
   9:../../libDaisy//src/per/dac.h **** /** @brief DAC handle for Built-in DAC Peripheral 
  10:../../libDaisy//src/per/dac.h ****  *  @ingroup per_analog
  11:../../libDaisy//src/per/dac.h ****  ** 
  12:../../libDaisy//src/per/dac.h ****  ** For now only Normal Mode is supported,
  13:../../libDaisy//src/per/dac.h ****  ** Sample and hold mode provides reduced power consumption, but requires a bit more setup.
  14:../../libDaisy//src/per/dac.h ****  **
  15:../../libDaisy//src/per/dac.h ****  ** For now connecting the DAC through other internal peripherals is also not supported.
  16:../../libDaisy//src/per/dac.h ****  **
  17:../../libDaisy//src/per/dac.h ****  ** Since the DAC channels have dedicated pins we don't need to pass in a pin config like with
  18:../../libDaisy//src/per/dac.h ****  ** other modules. However, it is still important to not try to use the DAC pins for anything else.
  19:../../libDaisy//src/per/dac.h ****  ** DAC Channel 1 is on PA4, and DAC Channel 2 is on PA5
  20:../../libDaisy//src/per/dac.h ****  ***/
  21:../../libDaisy//src/per/dac.h **** class DacHandle
  22:../../libDaisy//src/per/dac.h **** {
  23:../../libDaisy//src/per/dac.h ****   public:
  24:../../libDaisy//src/per/dac.h ****     /** Return Values for the DacHandle class */
  25:../../libDaisy//src/per/dac.h ****     enum class Result
  26:../../libDaisy//src/per/dac.h ****     {
  27:../../libDaisy//src/per/dac.h ****         OK,
  28:../../libDaisy//src/per/dac.h ****         ERR,
  29:../../libDaisy//src/per/dac.h ****     };
  30:../../libDaisy//src/per/dac.h **** 
  31:../../libDaisy//src/per/dac.h ****     /** Selects which channel(s) will be configured for use. */
  32:../../libDaisy//src/per/dac.h ****     enum class Channel
  33:../../libDaisy//src/per/dac.h ****     {
  34:../../libDaisy//src/per/dac.h ****         ONE,
  35:../../libDaisy//src/per/dac.h ****         TWO,
  36:../../libDaisy//src/per/dac.h ****         BOTH,
  37:../../libDaisy//src/per/dac.h ****     };
  38:../../libDaisy//src/per/dac.h **** 
  39:../../libDaisy//src/per/dac.h ****     /** Sets the Mode for the DAC channels.
  40:../../libDaisy//src/per/dac.h ****      **
  41:../../libDaisy//src/per/dac.h ****      ** Polling mode uses the blocking mode to transmit a single value at a time.
  42:../../libDaisy//src/per/dac.h ****      **
  43:../../libDaisy//src/per/dac.h ****      ** DMA mode uses a buffer, and periodically transmits it triggering a 
  44:../../libDaisy//src/per/dac.h ****      ** callback to fill the buffer when it is ready for more samples.
  45:../../libDaisy//src/per/dac.h ****      ***/
  46:../../libDaisy//src/per/dac.h ****     enum class Mode
  47:../../libDaisy//src/per/dac.h ****     {
  48:../../libDaisy//src/per/dac.h ****         POLLING,
  49:../../libDaisy//src/per/dac.h ****         DMA,
  50:../../libDaisy//src/per/dac.h ****     };
  51:../../libDaisy//src/per/dac.h **** 
  52:../../libDaisy//src/per/dac.h ****     /** Sets the number of bits per sample transmitted out of the DAC.
  53:../../libDaisy//src/per/dac.h ****      ** The output range will be: 0V - VDDA
  54:../../libDaisy//src/per/dac.h ****      ** The resolution will be roughly: bitdepth / (VDDA - 0V) 
  55:../../libDaisy//src/per/dac.h ****      ***/
  56:../../libDaisy//src/per/dac.h ****     enum class BitDepth
  57:../../libDaisy//src/per/dac.h ****     {
  58:../../libDaisy//src/per/dac.h ****         BITS_8,
  59:../../libDaisy//src/per/dac.h ****         BITS_12
  60:../../libDaisy//src/per/dac.h ****     };
  61:../../libDaisy//src/per/dac.h **** 
ARM GAS  /var/folders/hl/qgbwny5j0fd895c2c41bk3tw0000gp/T//cc63D1lp.s 			page 80


  62:../../libDaisy//src/per/dac.h ****     /** Sets whether the DAC output is buffered for higher drive ability. */
  63:../../libDaisy//src/per/dac.h ****     enum class BufferState
  64:../../libDaisy//src/per/dac.h ****     {
  65:../../libDaisy//src/per/dac.h ****         ENABLED,
  66:../../libDaisy//src/per/dac.h ****         DISABLED,
  67:../../libDaisy//src/per/dac.h ****     };
  68:../../libDaisy//src/per/dac.h **** 
  69:../../libDaisy//src/per/dac.h ****     /** Configuration structure for initializing the DAC structure. */
  70:../../libDaisy//src/per/dac.h ****     struct Config
  71:../../libDaisy//src/per/dac.h ****     {
  72:../../libDaisy//src/per/dac.h ****         /** Target Samplerate in Hz used to configure the internal 
  73:../../libDaisy//src/per/dac.h ****          ** timebase for DMA mode. Does nothing in POLLING mode.
  74:../../libDaisy//src/per/dac.h ****          ** If the value is 0 at Init time this will default to 48000Hz 
  75:../../libDaisy//src/per/dac.h ****          ** otherwise the driver will attempt meet the target.*/
  76:../../libDaisy//src/per/dac.h ****         uint32_t target_samplerate;
  77:../../libDaisy//src/per/dac.h **** 
  78:../../libDaisy//src/per/dac.h ****         Channel     chn;
  79:../../libDaisy//src/per/dac.h ****         Mode        mode;
  80:../../libDaisy//src/per/dac.h ****         BitDepth    bitdepth;
  81:../../libDaisy//src/per/dac.h ****         BufferState buff_state;
  82:../../libDaisy//src/per/dac.h ****     };
  83:../../libDaisy//src/per/dac.h **** 
  84:../../libDaisy//src/per/dac.h ****     DacHandle() : pimpl_(nullptr) {}
 2530              		.loc 18 84 33 view .LVU595
 2531 00fe 8462     		str	r4, [r0, #40]
 2532              	.LBE1164:
 2533              	.LBE1163:
 2534              	.LBE1162:
 2535              	.LBB1165:
 2536              	.LBB1166:
 2537              	.LBB1167:
  95:../../libDaisy//src/hid/audio.h ****     ~AudioHandle() {}
 2538              		.loc 7 95 35 view .LVU596
 2539 0100 C0E90344 		strd	r4, r4, [r0, #12]
 2540              	.LVL102:
  95:../../libDaisy//src/hid/audio.h ****     ~AudioHandle() {}
 2541              		.loc 7 95 35 view .LVU597
 2542              	.LBE1167:
 2543              	.LBE1166:
 2544              	.LBE1165:
 2545              	.LBB1168:
 2546              	.LBI1168:
  92:../../libDaisy//src/per/adc.h ****     ~AdcHandle() {}
 2547              		.loc 6 92 5 is_stmt 1 view .LVU598
  92:../../libDaisy//src/per/adc.h ****     ~AdcHandle() {}
 2548              		.loc 6 92 5 is_stmt 0 view .LVU599
 2549              	.LBE1168:
 2550              	.LBB1169:
 2551              	.LBI1169:
  40:../../libDaisy//src/hid/usb.h **** 
 2552              		.loc 5 40 5 is_stmt 1 view .LVU600
  40:../../libDaisy//src/hid/usb.h **** 
 2553              		.loc 5 40 5 is_stmt 0 view .LVU601
 2554              	.LBE1169:
 2555              	.LBB1170:
 2556              	.LBI1155:
  28:../../libDaisy//src/dev/codec_pcm3060.h ****     ~Pcm3060() {}
ARM GAS  /var/folders/hl/qgbwny5j0fd895c2c41bk3tw0000gp/T//cc63D1lp.s 			page 81


 2557              		.loc 4 28 5 is_stmt 1 view .LVU602
 2558              	.LBB1161:
 2559              	.LBB1160:
 2560              	.LBI1157:
 2561              		.loc 17 82 5 view .LVU603
 2562              		.loc 17 82 5 is_stmt 0 view .LVU604
 2563              	.LBE1160:
 2564              	.LBE1161:
 2565              	.LBE1170:
 2566              	.LBB1171:
 2567              	.LBI1162:
 2568              		.loc 18 84 5 is_stmt 1 view .LVU605
 2569              		.loc 18 84 5 is_stmt 0 view .LVU606
 2570              	.LBE1171:
 2571              	.LBE1174:
 2572              	.LBE1176:
 2573              	.LBE1179:
 2574              	.LBE1182:
  64:../../libDaisy//src/daisy_patch_sm.h ****         ~DaisyPatchSM() {}
 2575              		.loc 2 64 24 is_stmt 1 view .LVU607
 2576              	.LBB1183:
 2577              	.LBB1180:
 2578              	.LBB1177:
 2579              	.LBB1175:
 2580              	.LBB1172:
 2581              	.LBI1172:
  20:../../libDaisy//src/hid/gatein.h ****     /** GateIn~
 2582              		.loc 3 20 5 view .LVU608
  20:../../libDaisy//src/hid/gatein.h ****     /** GateIn~
 2583              		.loc 3 20 5 is_stmt 0 view .LVU609
 2584              	.LBE1172:
 2585              	.LBB1173:
 2586              	.LBI1173:
  20:../../libDaisy//src/hid/gatein.h ****     /** GateIn~
 2587              		.loc 3 20 5 is_stmt 1 view .LVU610
  20:../../libDaisy//src/hid/gatein.h ****     /** GateIn~
 2588              		.loc 3 20 5 is_stmt 0 view .LVU611
 2589              	.LBE1173:
 2590              	.LBE1175:
 2591              	.LBE1177:
  17:test.cpp      **** ReverbSc DSY_SDRAM_BSS		rev;
 2592              		.loc 10 17 18 view .LVU612
 2593 0104 FFF7FEFF 		bl	__aeabi_atexit
 2594              	.LVL103:
 2595              	.LBB1178:
 2596              	.LBI1178:
  40:../../DaisySP//Source/Effects/reverbsc.h ****     ~ReverbSc() {}
 2597              		.loc 9 40 5 is_stmt 1 view .LVU613
  40:../../DaisySP//Source/Effects/reverbsc.h ****     ~ReverbSc() {}
 2598              		.loc 9 40 5 is_stmt 0 view .LVU614
 2599              	.LBE1178:
  18:test.cpp      **** 
 2600              		.loc 10 18 25 view .LVU615
 2601 0108 214A     		ldr	r2, .L47+120
 2602 010a 2A49     		ldr	r1, .L47+156
 2603 010c 2A48     		ldr	r0, .L47+160
 2604              	.LBE1180:
ARM GAS  /var/folders/hl/qgbwny5j0fd895c2c41bk3tw0000gp/T//cc63D1lp.s 			page 82


 2605              	.LBE1183:
 2606              		.loc 10 88 1 view .LVU616
 2607 010e BDE83840 		pop	{r3, r4, r5, lr}
 2608              		.cfi_restore 14
 2609              		.cfi_restore 5
 2610              		.cfi_restore 4
 2611              		.cfi_restore 3
 2612              		.cfi_def_cfa_offset 0
 2613              	.LBB1184:
 2614              	.LBB1181:
  18:test.cpp      **** 
 2615              		.loc 10 18 25 view .LVU617
 2616 0112 FFF7FEBF 		b	__aeabi_atexit
 2617              	.LVL104:
 2618              	.L48:
 2619 0116 00BF     		.align	2
 2620              	.L47:
 2621 0118 00000000 		.word	.LANCHOR3
 2622 011c 00000000 		.word	.LANCHOR1
 2623 0120 00000000 		.word	.LANCHOR5
 2624 0124 00000000 		.word	.LANCHOR7
 2625 0128 00000000 		.word	.LANCHOR11
 2626 012c 00000000 		.word	.LANCHOR9
 2627 0130 00000000 		.word	.LANCHOR15
 2628 0134 00000000 		.word	.LANCHOR13
 2629 0138 00000000 		.word	_ZN5daisy8patch_sm12DaisyPatchSM2D7E
 2630 013c 00000000 		.word	_ZN5daisy8patch_sm12DaisyPatchSM2A9E
 2631 0140 00000000 		.word	.LANCHOR20
 2632 0144 00000000 		.word	.LANCHOR21
 2633 0148 00000000 		.word	.LANCHOR0
 2634 014c 00000000 		.word	_ZN5daisy8patch_sm12DaisyPatchSM2D1E
 2635 0150 00000000 		.word	_ZN5daisy8patch_sm12DaisyPatchSM2D2E
 2636 0154 00000000 		.word	.LANCHOR2
 2637 0158 00000000 		.word	.LANCHOR22
 2638 015c 00000000 		.word	.LANCHOR23
 2639 0160 00000000 		.word	.LANCHOR4
 2640 0164 00000000 		.word	_ZN5daisy8patch_sm12DaisyPatchSM2D3E
 2641 0168 00000000 		.word	_ZN5daisy8patch_sm12DaisyPatchSM2D6E
 2642 016c 00000000 		.word	_ZN5daisy8patch_sm12DaisyPatchSM2D4E
 2643 0170 00000000 		.word	.LANCHOR12
 2644 0174 00000000 		.word	_ZN5daisy8patch_sm12DaisyPatchSM2D5E
 2645 0178 00000000 		.word	.LANCHOR24
 2646 017c 00000000 		.word	.LANCHOR25
 2647 0180 00000000 		.word	.LANCHOR26
 2648 0184 00000000 		.word	.LANCHOR27
 2649 0188 00000000 		.word	_ZN5daisy6SwitchD1Ev
 2650 018c 00000000 		.word	.LANCHOR6
 2651 0190 00000000 		.word	__dso_handle
 2652 0194 00000000 		.word	.LANCHOR8
 2653 0198 00000000 		.word	.LANCHOR14
 2654 019c 00000000 		.word	.LANCHOR10
 2655 01a0 00000000 		.word	.LANCHOR16
 2656 01a4 00000000 		.word	.LANCHOR17
 2657 01a8 00000000 		.word	__tcf_0
 2658 01ac 00000000 		.word	.LANCHOR18
 2659 01b0 00000000 		.word	_ZN5daisy8patch_sm12DaisyPatchSMD1Ev
 2660 01b4 00000000 		.word	_ZN7daisysp8ReverbScD1Ev
ARM GAS  /var/folders/hl/qgbwny5j0fd895c2c41bk3tw0000gp/T//cc63D1lp.s 			page 83


 2661 01b8 00000000 		.word	rev
 2662              	.LBE1181:
 2663              	.LBE1184:
 2664              		.cfi_endproc
 2665              	.LFE5374:
 2667              		.section	.init_array,"aw",%init_array
 2668              		.align	2
 2669 0000 00000000 		.word	_GLOBAL__sub_I__ZN5daisy8patch_sm8gen_led1E(target1)
 2670              		.global	rev
 2671              		.global	hw
 2672              		.global	grainBuffer
 2673              		.global	_ZN5daisy8patch_sm2b2E
 2674              		.global	_ZN5daisy8patch_sm2b1E
 2675              		.global	_ZN5daisy8patch_sm8newPinD5E
 2676              		.global	_ZN5daisy8patch_sm8oldPinD5E
 2677              		.global	_ZN5daisy8patch_sm8newPinD4E
 2678              		.global	_ZN5daisy8patch_sm8oldPinD4E
 2679              		.global	_ZN5daisy8patch_sm8newPinD6E
 2680              		.global	_ZN5daisy8patch_sm8oldPinD6E
 2681              		.global	_ZN5daisy8patch_sm8newPinD3E
 2682              		.global	_ZN5daisy8patch_sm8oldPinD3E
 2683              		.global	_ZN5daisy8patch_sm8newPinD1E
 2684              		.global	_ZN5daisy8patch_sm8oldPinD1E
 2685              		.global	_ZN5daisy8patch_sm8newPinD2E
 2686              		.global	_ZN5daisy8patch_sm8oldPinD2E
 2687              		.global	_ZN5daisy8patch_sm8newPinA9E
 2688              		.global	_ZN5daisy8patch_sm8oldPinA9E
 2689              		.global	_ZN5daisy8patch_sm8newPinD7E
 2690              		.global	_ZN5daisy8patch_sm8oldPinD7E
 2691              		.global	_ZN5daisy8patch_sm13gate_out_led2E
 2692              		.global	_ZN5daisy8patch_sm13gate_out_led1E
 2693              		.global	_ZN5daisy8patch_sm12gate_in_led2E
 2694              		.global	_ZN5daisy8patch_sm12gate_in_led1E
 2695              		.global	_ZN5daisy8patch_sm7cv_led2E
 2696              		.global	_ZN5daisy8patch_sm7cv_led1E
 2697              		.global	_ZN5daisy8patch_sm8gen_led2E
 2698              		.global	_ZN5daisy8patch_sm8gen_led1E
 2699              		.section	.bss._ZL6grains,"aw",%nobits
 2700              		.align	2
 2701              		.set	.LANCHOR19,. + 0
 2704              	_ZL6grains:
 2705 0000 00000000 		.space	1880
 2705      00000000 
 2705      00000000 
 2705      00000000 
 2705      00000000 
 2706              		.section	.bss._ZN5daisy8patch_sm12gate_in_led1E,"aw",%nobits
 2707              		.align	2
 2708              		.set	.LANCHOR9,. + 0
 2711              	_ZN5daisy8patch_sm12gate_in_led1E:
 2712 0000 00000000 		.space	20
 2712      00000000 
 2712      00000000 
 2712      00000000 
 2712      00000000 
 2713              		.section	.bss._ZN5daisy8patch_sm12gate_in_led2E,"aw",%nobits
 2714              		.align	2
ARM GAS  /var/folders/hl/qgbwny5j0fd895c2c41bk3tw0000gp/T//cc63D1lp.s 			page 84


 2715              		.set	.LANCHOR11,. + 0
 2718              	_ZN5daisy8patch_sm12gate_in_led2E:
 2719 0000 00000000 		.space	20
 2719      00000000 
 2719      00000000 
 2719      00000000 
 2719      00000000 
 2720              		.section	.bss._ZN5daisy8patch_sm13gate_out_led1E,"aw",%nobits
 2721              		.align	2
 2722              		.set	.LANCHOR13,. + 0
 2725              	_ZN5daisy8patch_sm13gate_out_led1E:
 2726 0000 00000000 		.space	20
 2726      00000000 
 2726      00000000 
 2726      00000000 
 2726      00000000 
 2727              		.section	.bss._ZN5daisy8patch_sm13gate_out_led2E,"aw",%nobits
 2728              		.align	2
 2729              		.set	.LANCHOR15,. + 0
 2732              	_ZN5daisy8patch_sm13gate_out_led2E:
 2733 0000 00000000 		.space	20
 2733      00000000 
 2733      00000000 
 2733      00000000 
 2733      00000000 
 2734              		.section	.bss._ZN5daisy8patch_sm2b1E,"aw",%nobits
 2735              		.align	2
 2736              		.set	.LANCHOR16,. + 0
 2739              	_ZN5daisy8patch_sm2b1E:
 2740 0000 00000000 		.space	16
 2740      00000000 
 2740      00000000 
 2740      00000000 
 2741              		.section	.bss._ZN5daisy8patch_sm2b2E,"aw",%nobits
 2742              		.align	2
 2743              		.set	.LANCHOR17,. + 0
 2746              	_ZN5daisy8patch_sm2b2E:
 2747 0000 00000000 		.space	16
 2747      00000000 
 2747      00000000 
 2747      00000000 
 2748              		.section	.bss._ZN5daisy8patch_sm7cv_led1E,"aw",%nobits
 2749              		.align	2
 2750              		.set	.LANCHOR5,. + 0
 2753              	_ZN5daisy8patch_sm7cv_led1E:
 2754 0000 00000000 		.space	20
 2754      00000000 
 2754      00000000 
 2754      00000000 
 2754      00000000 
 2755              		.section	.bss._ZN5daisy8patch_sm7cv_led2E,"aw",%nobits
 2756              		.align	2
 2757              		.set	.LANCHOR7,. + 0
 2760              	_ZN5daisy8patch_sm7cv_led2E:
 2761 0000 00000000 		.space	20
