ARM GAS  /var/folders/hl/qgbwny5j0fd895c2c41bk3tw0000gp/T//cc1L1gWC.s 			page 1


   1              		.cpu cortex-m7
   2              		.arch armv7e-m
   3              		.fpu fpv5-d16
   4              		.eabi_attribute 28, 1
   5              		.eabi_attribute 20, 1
   6              		.eabi_attribute 21, 1
   7              		.eabi_attribute 23, 3
   8              		.eabi_attribute 24, 1
   9              		.eabi_attribute 25, 1
  10              		.eabi_attribute 26, 1
  11              		.eabi_attribute 30, 2
  12              		.eabi_attribute 34, 1
  13              		.eabi_attribute 18, 4
  14              		.file	"Convolution.cpp"
  15              		.text
  16              	.Ltext0:
  17              		.cfi_sections	.debug_frame
  18              		.section	.text._ZN5daisy6SwitchD2Ev,"axG",%progbits,_ZN5daisy6SwitchD5Ev,comdat
  19              		.align	1
  20              		.p2align 2,,3
  21              		.weak	_ZN5daisy6SwitchD2Ev
  22              		.syntax unified
  23              		.thumb
  24              		.thumb_func
  26              	_ZN5daisy6SwitchD2Ev:
  27              	.LVL0:
  28              	.LFB1606:
  29              		.file 1 "../../libDaisy//src/hid/switch.h"
   1:../../libDaisy//src/hid/switch.h **** #pragma once
   2:../../libDaisy//src/hid/switch.h **** #ifndef DSY_SWITCH_H
   3:../../libDaisy//src/hid/switch.h **** #define DSY_SWITCH_H
   4:../../libDaisy//src/hid/switch.h **** #include "daisy_core.h"
   5:../../libDaisy//src/hid/switch.h **** #include "per/gpio.h"
   6:../../libDaisy//src/hid/switch.h **** #include "sys/system.h"
   7:../../libDaisy//src/hid/switch.h **** 
   8:../../libDaisy//src/hid/switch.h **** namespace daisy
   9:../../libDaisy//src/hid/switch.h **** {
  10:../../libDaisy//src/hid/switch.h **** /** 
  11:../../libDaisy//src/hid/switch.h ****     Generic Class for handling momentary/latching switches \n 
  12:../../libDaisy//src/hid/switch.h ****     Inspired/influenced by Mutable Instruments (pichenettes) Switch classes
  13:../../libDaisy//src/hid/switch.h ****     @author Stephen Hensley
  14:../../libDaisy//src/hid/switch.h ****     @date December 2019
  15:../../libDaisy//src/hid/switch.h ****     @ingroup controls
  16:../../libDaisy//src/hid/switch.h **** */
  17:../../libDaisy//src/hid/switch.h **** class Switch
  18:../../libDaisy//src/hid/switch.h **** {
  19:../../libDaisy//src/hid/switch.h ****   public:
  20:../../libDaisy//src/hid/switch.h ****     /** Specifies the expected behavior of the switch */
  21:../../libDaisy//src/hid/switch.h ****     enum Type
  22:../../libDaisy//src/hid/switch.h ****     {
  23:../../libDaisy//src/hid/switch.h ****         TYPE_TOGGLE,    /**< & */
  24:../../libDaisy//src/hid/switch.h ****         TYPE_MOMENTARY, /**< & */
  25:../../libDaisy//src/hid/switch.h ****     };
  26:../../libDaisy//src/hid/switch.h ****     /** Specifies whether the pressed is HIGH or LOW. */
  27:../../libDaisy//src/hid/switch.h ****     enum Polarity
  28:../../libDaisy//src/hid/switch.h ****     {
  29:../../libDaisy//src/hid/switch.h ****         POLARITY_NORMAL,   /**< & */
ARM GAS  /var/folders/hl/qgbwny5j0fd895c2c41bk3tw0000gp/T//cc1L1gWC.s 			page 2


  30:../../libDaisy//src/hid/switch.h ****         POLARITY_INVERTED, /**< & */
  31:../../libDaisy//src/hid/switch.h ****     };
  32:../../libDaisy//src/hid/switch.h **** 
  33:../../libDaisy//src/hid/switch.h ****     /** Specifies whether to use built-in Pull Up/Down resistors to hold button at a given state wh
  34:../../libDaisy//src/hid/switch.h ****     enum Pull
  35:../../libDaisy//src/hid/switch.h ****     {
  36:../../libDaisy//src/hid/switch.h ****         PULL_UP,   /**< & */
  37:../../libDaisy//src/hid/switch.h ****         PULL_DOWN, /**< & */
  38:../../libDaisy//src/hid/switch.h ****         PULL_NONE, /**< & */
  39:../../libDaisy//src/hid/switch.h ****     };
  40:../../libDaisy//src/hid/switch.h **** 
  41:../../libDaisy//src/hid/switch.h ****     Switch() {}
  42:../../libDaisy//src/hid/switch.h ****     ~Switch() {}
  30              		.loc 1 42 5 view -0
  31              		.cfi_startproc
  32              		@ args = 0, pretend = 0, frame = 0
  33              		@ frame_needed = 0, uses_anonymous_args = 0
  34              		@ link register save eliminated.
  35              		.loc 1 42 16 is_stmt 0 view .LVU1
  36 0000 7047     		bx	lr
  37              		.cfi_endproc
  38              	.LFE1606:
  40              		.weak	_ZN5daisy6SwitchD1Ev
  41              		.thumb_set _ZN5daisy6SwitchD1Ev,_ZN5daisy6SwitchD2Ev
  42 0002 00BF     		.section	.text._ZN5daisy8patch_sm12DaisyPatchSMD2Ev,"axG",%progbits,_ZN5daisy8patch_sm12DaisyPatch
  43              		.align	1
  44              		.p2align 2,,3
  45              		.weak	_ZN5daisy8patch_sm12DaisyPatchSMD2Ev
  46              		.syntax unified
  47              		.thumb
  48              		.thumb_func
  50              	_ZN5daisy8patch_sm12DaisyPatchSMD2Ev:
  51              	.LVL1:
  52              	.LFB2529:
  53              		.file 2 "../../libDaisy//src/daisy_patch_sm.h"
   1:../../libDaisy//src/daisy_patch_sm.h **** #pragma once
   2:../../libDaisy//src/daisy_patch_sm.h **** 
   3:../../libDaisy//src/daisy_patch_sm.h **** #include "daisy.h"
   4:../../libDaisy//src/daisy_patch_sm.h **** 
   5:../../libDaisy//src/daisy_patch_sm.h **** namespace daisy
   6:../../libDaisy//src/daisy_patch_sm.h **** {
   7:../../libDaisy//src/daisy_patch_sm.h **** namespace patch_sm
   8:../../libDaisy//src/daisy_patch_sm.h **** {
   9:../../libDaisy//src/daisy_patch_sm.h ****     /** Accessors for the Analog Controls. 
  10:../../libDaisy//src/daisy_patch_sm.h ****      *  These cover the 8x Bipolar CV inputs
  11:../../libDaisy//src/daisy_patch_sm.h ****      *  as well as the 4x 0-3V3 ADC inputs on
  12:../../libDaisy//src/daisy_patch_sm.h ****      *  the hardware 
  13:../../libDaisy//src/daisy_patch_sm.h ****      * 
  14:../../libDaisy//src/daisy_patch_sm.h ****      *  When reading a value with DaisyPatchSM::GetAdcValue()
  15:../../libDaisy//src/daisy_patch_sm.h ****      * 
  16:../../libDaisy//src/daisy_patch_sm.h ****      *  patch.GetAdcValue(patch_sm::CV_1);
  17:../../libDaisy//src/daisy_patch_sm.h ****      */
  18:../../libDaisy//src/daisy_patch_sm.h ****     enum
  19:../../libDaisy//src/daisy_patch_sm.h ****     {
  20:../../libDaisy//src/daisy_patch_sm.h ****         CV_1 = 0,
  21:../../libDaisy//src/daisy_patch_sm.h ****         CV_2,
  22:../../libDaisy//src/daisy_patch_sm.h ****         CV_3,
ARM GAS  /var/folders/hl/qgbwny5j0fd895c2c41bk3tw0000gp/T//cc1L1gWC.s 			page 3


  23:../../libDaisy//src/daisy_patch_sm.h ****         CV_4,
  24:../../libDaisy//src/daisy_patch_sm.h ****         CV_5,
  25:../../libDaisy//src/daisy_patch_sm.h ****         CV_6,
  26:../../libDaisy//src/daisy_patch_sm.h ****         CV_7,
  27:../../libDaisy//src/daisy_patch_sm.h ****         CV_8,
  28:../../libDaisy//src/daisy_patch_sm.h ****         ADC_9,
  29:../../libDaisy//src/daisy_patch_sm.h ****         ADC_10,
  30:../../libDaisy//src/daisy_patch_sm.h ****         ADC_11,
  31:../../libDaisy//src/daisy_patch_sm.h ****         ADC_12,
  32:../../libDaisy//src/daisy_patch_sm.h ****         ADC_LAST,
  33:../../libDaisy//src/daisy_patch_sm.h ****     };
  34:../../libDaisy//src/daisy_patch_sm.h **** 
  35:../../libDaisy//src/daisy_patch_sm.h ****     /** Enum for addressing the CV Outputs via the WriteCvOut function. */
  36:../../libDaisy//src/daisy_patch_sm.h ****     enum
  37:../../libDaisy//src/daisy_patch_sm.h ****     {
  38:../../libDaisy//src/daisy_patch_sm.h ****         CV_OUT_BOTH = 0,
  39:../../libDaisy//src/daisy_patch_sm.h ****         CV_OUT_1,
  40:../../libDaisy//src/daisy_patch_sm.h ****         CV_OUT_2,
  41:../../libDaisy//src/daisy_patch_sm.h ****     };
  42:../../libDaisy//src/daisy_patch_sm.h **** 
  43:../../libDaisy//src/daisy_patch_sm.h **** 
  44:../../libDaisy//src/daisy_patch_sm.h ****     /** @brief Board support file for DaisyPatchSM hardware
  45:../../libDaisy//src/daisy_patch_sm.h ****      *  @author shensley
  46:../../libDaisy//src/daisy_patch_sm.h ****      *  @ingroup boards
  47:../../libDaisy//src/daisy_patch_sm.h ****      * 
  48:../../libDaisy//src/daisy_patch_sm.h ****      *  Daisy Patch SM is a complete Eurorack module DSP engine.
  49:../../libDaisy//src/daisy_patch_sm.h ****      *  Based on the Daisy Seed, with circuits added for 
  50:../../libDaisy//src/daisy_patch_sm.h ****      *  interfacing directly with eurorack modular synthesizers.
  51:../../libDaisy//src/daisy_patch_sm.h ****      */
  52:../../libDaisy//src/daisy_patch_sm.h ****     class DaisyPatchSM
  53:../../libDaisy//src/daisy_patch_sm.h ****     {
  54:../../libDaisy//src/daisy_patch_sm.h ****       public:
  55:../../libDaisy//src/daisy_patch_sm.h ****         /** Helper for mapping pins, and accessing them using the `GetPin` function */
  56:../../libDaisy//src/daisy_patch_sm.h ****         enum class PinBank
  57:../../libDaisy//src/daisy_patch_sm.h ****         {
  58:../../libDaisy//src/daisy_patch_sm.h ****             A,
  59:../../libDaisy//src/daisy_patch_sm.h ****             B,
  60:../../libDaisy//src/daisy_patch_sm.h ****             C,
  61:../../libDaisy//src/daisy_patch_sm.h ****             D
  62:../../libDaisy//src/daisy_patch_sm.h ****         };
  63:../../libDaisy//src/daisy_patch_sm.h **** 
  64:../../libDaisy//src/daisy_patch_sm.h ****         DaisyPatchSM() {}
  65:../../libDaisy//src/daisy_patch_sm.h ****         ~DaisyPatchSM() {}
  54              		.loc 2 65 9 is_stmt 1 view -0
  55              		.cfi_startproc
  56              		@ args = 0, pretend = 0, frame = 0
  57              		@ frame_needed = 0, uses_anonymous_args = 0
  58              		@ link register save eliminated.
  59              	.LBB511:
  60              	.LBI511:
  61              		.file 3 "../../libDaisy//src/hid/gatein.h"
   1:../../libDaisy//src/hid/gatein.h **** #pragma once
   2:../../libDaisy//src/hid/gatein.h **** #ifndef DSY_GATEIN_H
   3:../../libDaisy//src/hid/gatein.h **** #define DSY_GATEIN_H
   4:../../libDaisy//src/hid/gatein.h **** #include "per/gpio.h"
   5:../../libDaisy//src/hid/gatein.h **** 
   6:../../libDaisy//src/hid/gatein.h **** namespace daisy
ARM GAS  /var/folders/hl/qgbwny5j0fd895c2c41bk3tw0000gp/T//cc1L1gWC.s 			page 4


   7:../../libDaisy//src/hid/gatein.h **** {
   8:../../libDaisy//src/hid/gatein.h **** /**
   9:../../libDaisy//src/hid/gatein.h ****    @brief Generic Class for handling gate inputs through GPIO.
  10:../../libDaisy//src/hid/gatein.h ****    @author Stephen Hensley
  11:../../libDaisy//src/hid/gatein.h ****    @date    March 2020
  12:../../libDaisy//src/hid/gatein.h ****    @ingroup controls
  13:../../libDaisy//src/hid/gatein.h **** */
  14:../../libDaisy//src/hid/gatein.h **** class GateIn
  15:../../libDaisy//src/hid/gatein.h **** {
  16:../../libDaisy//src/hid/gatein.h ****   public:
  17:../../libDaisy//src/hid/gatein.h ****     /** GateIn 
  18:../../libDaisy//src/hid/gatein.h ****     Constructor 
  19:../../libDaisy//src/hid/gatein.h ****     */
  20:../../libDaisy//src/hid/gatein.h ****     GateIn() {}
  21:../../libDaisy//src/hid/gatein.h ****     /** GateIn~
  22:../../libDaisy//src/hid/gatein.h ****     Destructor 
  23:../../libDaisy//src/hid/gatein.h ****     */
  24:../../libDaisy//src/hid/gatein.h ****     ~GateIn() {}
  62              		.loc 3 24 5 view .LVU3
  63              		.loc 3 24 5 is_stmt 0 view .LVU4
  64              	.LBE511:
  65              	.LBB512:
  66              	.LBI512:
  67              		.loc 3 24 5 is_stmt 1 view .LVU5
  68              		.loc 3 24 5 is_stmt 0 view .LVU6
  69              	.LBE512:
  70              	.LBB513:
  71              	.LBI513:
  72              		.file 4 "../../libDaisy//src/dev/codec_pcm3060.h"
   1:../../libDaisy//src/dev/codec_pcm3060.h **** #pragma once
   2:../../libDaisy//src/dev/codec_pcm3060.h **** #ifndef DSY_CODEC_PCM3060_H
   3:../../libDaisy//src/dev/codec_pcm3060.h **** #define DSY_CODEC_PCM3060_H
   4:../../libDaisy//src/dev/codec_pcm3060.h **** #include "per/i2c.h"
   5:../../libDaisy//src/dev/codec_pcm3060.h **** namespace daisy
   6:../../libDaisy//src/dev/codec_pcm3060.h **** {
   7:../../libDaisy//src/dev/codec_pcm3060.h **** /**
   8:../../libDaisy//src/dev/codec_pcm3060.h ****  * @brief Driver for the TI PCM3060 Audio Codec.
   9:../../libDaisy//src/dev/codec_pcm3060.h ****  * @addtogroup codec
  10:../../libDaisy//src/dev/codec_pcm3060.h ****  * 
  11:../../libDaisy//src/dev/codec_pcm3060.h ****  * For now this is a limited interface that uses I2C to communicate with the PCM3060
  12:../../libDaisy//src/dev/codec_pcm3060.h ****  * The device can also be accessed with SPI, which is not yet supported.
  13:../../libDaisy//src/dev/codec_pcm3060.h ****  * 
  14:../../libDaisy//src/dev/codec_pcm3060.h ****  * For now all registers are set to their defaults, and the Init function will 
  15:../../libDaisy//src/dev/codec_pcm3060.h ****  * perform a MRST and SRST before setting the format to 24bit LJ, and disabling 
  16:../../libDaisy//src/dev/codec_pcm3060.h ****  * power save for both the ADC and DAC.
  17:../../libDaisy//src/dev/codec_pcm3060.h ****  *
  18:../../libDaisy//src/dev/codec_pcm3060.h ****  */
  19:../../libDaisy//src/dev/codec_pcm3060.h **** class Pcm3060
  20:../../libDaisy//src/dev/codec_pcm3060.h **** {
  21:../../libDaisy//src/dev/codec_pcm3060.h ****   public:
  22:../../libDaisy//src/dev/codec_pcm3060.h ****     enum class Result
  23:../../libDaisy//src/dev/codec_pcm3060.h ****     {
  24:../../libDaisy//src/dev/codec_pcm3060.h ****         OK,
  25:../../libDaisy//src/dev/codec_pcm3060.h ****         ERR,
  26:../../libDaisy//src/dev/codec_pcm3060.h ****     };
  27:../../libDaisy//src/dev/codec_pcm3060.h **** 
  28:../../libDaisy//src/dev/codec_pcm3060.h ****     Pcm3060() {}
ARM GAS  /var/folders/hl/qgbwny5j0fd895c2c41bk3tw0000gp/T//cc1L1gWC.s 			page 5


  29:../../libDaisy//src/dev/codec_pcm3060.h ****     ~Pcm3060() {}
  73              		.loc 4 29 5 is_stmt 1 view .LVU7
  74              		.loc 4 29 5 is_stmt 0 view .LVU8
  75              	.LBE513:
  76              	.LBB514:
  77              	.LBI514:
  78              		.file 5 "../../libDaisy//src/hid/usb.h"
   1:../../libDaisy//src/hid/usb.h **** #pragma once
   2:../../libDaisy//src/hid/usb.h **** #ifndef DSY_HID_USB_H
   3:../../libDaisy//src/hid/usb.h **** #define DSY_HID_USB_H
   4:../../libDaisy//src/hid/usb.h **** #include <stdint.h>
   5:../../libDaisy//src/hid/usb.h **** #include <stdlib.h>
   6:../../libDaisy//src/hid/usb.h **** 
   7:../../libDaisy//src/hid/usb.h **** namespace daisy
   8:../../libDaisy//src/hid/usb.h **** /** @addtogroup human_interface
   9:../../libDaisy//src/hid/usb.h ****     @{
  10:../../libDaisy//src/hid/usb.h **** */
  11:../../libDaisy//src/hid/usb.h **** 
  12:../../libDaisy//src/hid/usb.h **** {
  13:../../libDaisy//src/hid/usb.h **** /** 
  14:../../libDaisy//src/hid/usb.h ****     @brief Interface for initializing and using the USB Peripherals on the daisy
  15:../../libDaisy//src/hid/usb.h ****     @author Stephen Hensley
  16:../../libDaisy//src/hid/usb.h ****     @date December 2019
  17:../../libDaisy//src/hid/usb.h **** */
  18:../../libDaisy//src/hid/usb.h **** class UsbHandle
  19:../../libDaisy//src/hid/usb.h **** {
  20:../../libDaisy//src/hid/usb.h ****   public:
  21:../../libDaisy//src/hid/usb.h ****     /** Return values for USBHandle Functions */
  22:../../libDaisy//src/hid/usb.h ****     enum class Result
  23:../../libDaisy//src/hid/usb.h ****     {
  24:../../libDaisy//src/hid/usb.h ****         OK,
  25:../../libDaisy//src/hid/usb.h ****         ERR,
  26:../../libDaisy//src/hid/usb.h ****     };
  27:../../libDaisy//src/hid/usb.h **** 
  28:../../libDaisy//src/hid/usb.h ****     /** Specified which of the two USB Peripherals to initialize. */
  29:../../libDaisy//src/hid/usb.h ****     enum UsbPeriph
  30:../../libDaisy//src/hid/usb.h ****     {
  31:../../libDaisy//src/hid/usb.h ****         FS_INTERNAL, /**< Internal pin */
  32:../../libDaisy//src/hid/usb.h ****         FS_EXTERNAL, /**< FS External D+ pin is Pin 38 (GPIO32). FS External D- pin is Pin 37 (GPIO
  33:../../libDaisy//src/hid/usb.h ****         FS_BOTH,     /**< Both */
  34:../../libDaisy//src/hid/usb.h ****     };
  35:../../libDaisy//src/hid/usb.h **** 
  36:../../libDaisy//src/hid/usb.h **** 
  37:../../libDaisy//src/hid/usb.h ****     /** Function called upon reception of a buffer */
  38:../../libDaisy//src/hid/usb.h ****     typedef void (*ReceiveCallback)(uint8_t* buff, uint32_t* len);
  39:../../libDaisy//src/hid/usb.h **** 
  40:../../libDaisy//src/hid/usb.h ****     UsbHandle() {}
  41:../../libDaisy//src/hid/usb.h **** 
  42:../../libDaisy//src/hid/usb.h ****     ~UsbHandle() {}
  79              		.loc 5 42 5 is_stmt 1 view .LVU9
  80              		.loc 5 42 5 is_stmt 0 view .LVU10
  81              	.LBE514:
  82              	.LBB515:
  83              	.LBI515:
  84              		.file 6 "../../libDaisy//src/per/adc.h"
   1:../../libDaisy//src/per/adc.h **** #pragma once
   2:../../libDaisy//src/per/adc.h **** #ifndef DSY_ADC_H
ARM GAS  /var/folders/hl/qgbwny5j0fd895c2c41bk3tw0000gp/T//cc1L1gWC.s 			page 6


   3:../../libDaisy//src/per/adc.h **** #define DSY_ADC_H /**< Macro */
   4:../../libDaisy//src/per/adc.h **** #include <stdint.h>
   5:../../libDaisy//src/per/adc.h **** #include <stdlib.h>
   6:../../libDaisy//src/per/adc.h **** #include "daisy_core.h"
   7:../../libDaisy//src/per/adc.h **** #include "per/gpio.h"
   8:../../libDaisy//src/per/adc.h **** 
   9:../../libDaisy//src/per/adc.h **** #define DSY_ADC_MAX_CHANNELS 16 /**< Maximum number of ADC channels */
  10:../../libDaisy//src/per/adc.h **** 
  11:../../libDaisy//src/per/adc.h **** namespace daisy
  12:../../libDaisy//src/per/adc.h **** {
  13:../../libDaisy//src/per/adc.h **** /** @addtogroup per_analog
  14:../../libDaisy//src/per/adc.h ****     @{
  15:../../libDaisy//src/per/adc.h **** */
  16:../../libDaisy//src/per/adc.h **** 
  17:../../libDaisy//src/per/adc.h **** /* While there may not be many configuration options here,
  18:../../libDaisy//src/per/adc.h **** using a struct like this allows us to add more configuration
  19:../../libDaisy//src/per/adc.h **** later without breaking existing functionality.
  20:../../libDaisy//src/per/adc.h **** */
  21:../../libDaisy//src/per/adc.h **** 
  22:../../libDaisy//src/per/adc.h **** /** @brief   Configuration Structure for an ADC Channel 
  23:../../libDaisy//src/per/adc.h ****  *  @details This can be used to configure a a single input, 
  24:../../libDaisy//src/per/adc.h ****  *           or a multiplexed input, allowing up to 8 inputs on 
  25:../../libDaisy//src/per/adc.h ****  *           one channel.
  26:../../libDaisy//src/per/adc.h ****  *  @note    Sharing data lines to multiple muxes _is_ possible, but
  27:../../libDaisy//src/per/adc.h ****  *           each channel sharing data lines must be set to the maximum
  28:../../libDaisy//src/per/adc.h ****  *           number of channels, even if some multiplexers have fewer
  29:../../libDaisy//src/per/adc.h ****  *           inputs connected.
  30:../../libDaisy//src/per/adc.h **** */
  31:../../libDaisy//src/per/adc.h **** struct AdcChannelConfig
  32:../../libDaisy//src/per/adc.h **** {
  33:../../libDaisy//src/per/adc.h ****     /** Which pin to use for multiplexing */
  34:../../libDaisy//src/per/adc.h ****     enum MuxPin
  35:../../libDaisy//src/per/adc.h ****     {
  36:../../libDaisy//src/per/adc.h ****         MUX_SEL_0,    /**< & */
  37:../../libDaisy//src/per/adc.h ****         MUX_SEL_1,    /**< & */
  38:../../libDaisy//src/per/adc.h ****         MUX_SEL_2,    /**< & */
  39:../../libDaisy//src/per/adc.h ****         MUX_SEL_LAST, /**< & */
  40:../../libDaisy//src/per/adc.h ****     };
  41:../../libDaisy//src/per/adc.h **** 
  42:../../libDaisy//src/per/adc.h ****     /** Initializes a single ADC pin as an ADC. 
  43:../../libDaisy//src/per/adc.h ****     \param pin Pin to init.
  44:../../libDaisy//src/per/adc.h ****      */
  45:../../libDaisy//src/per/adc.h ****     void InitSingle(dsy_gpio_pin pin);
  46:../../libDaisy//src/per/adc.h **** 
  47:../../libDaisy//src/per/adc.h ****     /** 
  48:../../libDaisy//src/per/adc.h ****     Initializes a single ADC pin as a Multiplexed ADC.
  49:../../libDaisy//src/per/adc.h ****     Requires a CD405X Multiplexer connected to the pin.
  50:../../libDaisy//src/per/adc.h ****     You only need to supply the mux pins that are required,
  51:../../libDaisy//src/per/adc.h ****     e.g. a 4052 mux would only require mux_0 and mux_1.
  52:../../libDaisy//src/per/adc.h ****     Internal Callbacks handle the pin addressing.
  53:../../libDaisy//src/per/adc.h ****     \param mux_channels must be 1-8
  54:../../libDaisy//src/per/adc.h ****     \param mux_0 First mux pin
  55:../../libDaisy//src/per/adc.h ****     \param mux_1 Second mux pin
  56:../../libDaisy//src/per/adc.h ****     \param mux_2 Third mux pin
  57:../../libDaisy//src/per/adc.h ****     \param adc_pin &
  58:../../libDaisy//src/per/adc.h ****     */
  59:../../libDaisy//src/per/adc.h ****     void InitMux(dsy_gpio_pin adc_pin,
ARM GAS  /var/folders/hl/qgbwny5j0fd895c2c41bk3tw0000gp/T//cc1L1gWC.s 			page 7


  60:../../libDaisy//src/per/adc.h ****                  size_t       mux_channels,
  61:../../libDaisy//src/per/adc.h ****                  dsy_gpio_pin mux_0,
  62:../../libDaisy//src/per/adc.h ****                  dsy_gpio_pin mux_1 = {DSY_GPIOX, 0},
  63:../../libDaisy//src/per/adc.h ****                  dsy_gpio_pin mux_2 = {DSY_GPIOX, 0});
  64:../../libDaisy//src/per/adc.h **** 
  65:../../libDaisy//src/per/adc.h ****     dsy_gpio pin_;                   /**< & */
  66:../../libDaisy//src/per/adc.h ****     dsy_gpio mux_pin_[MUX_SEL_LAST]; /**< & */
  67:../../libDaisy//src/per/adc.h ****     uint8_t  mux_channels_;          /**< & */
  68:../../libDaisy//src/per/adc.h **** };
  69:../../libDaisy//src/per/adc.h **** 
  70:../../libDaisy//src/per/adc.h **** /**
  71:../../libDaisy//src/per/adc.h ****    @brief Handler for analog to digital conversion
  72:../../libDaisy//src/per/adc.h **** */
  73:../../libDaisy//src/per/adc.h **** class AdcHandle
  74:../../libDaisy//src/per/adc.h **** {
  75:../../libDaisy//src/per/adc.h ****   public:
  76:../../libDaisy//src/per/adc.h ****     /** Supported oversampling amounts */
  77:../../libDaisy//src/per/adc.h ****     enum OverSampling
  78:../../libDaisy//src/per/adc.h ****     {
  79:../../libDaisy//src/per/adc.h ****         OVS_NONE, /**< & */
  80:../../libDaisy//src/per/adc.h ****         OVS_4,    /**< & */
  81:../../libDaisy//src/per/adc.h ****         OVS_8,    /**< & */
  82:../../libDaisy//src/per/adc.h ****         OVS_16,   /**< & */
  83:../../libDaisy//src/per/adc.h ****         OVS_32,   /**< & */
  84:../../libDaisy//src/per/adc.h ****         OVS_64,   /**< & */
  85:../../libDaisy//src/per/adc.h ****         OVS_128,  /**< & */
  86:../../libDaisy//src/per/adc.h ****         OVS_256,  /**< & */
  87:../../libDaisy//src/per/adc.h ****         OVS_512,  /**< & */
  88:../../libDaisy//src/per/adc.h ****         OVS_1024, /**< & */
  89:../../libDaisy//src/per/adc.h ****         OVS_LAST, /**< & */
  90:../../libDaisy//src/per/adc.h ****     };
  91:../../libDaisy//src/per/adc.h **** 
  92:../../libDaisy//src/per/adc.h ****     AdcHandle() {}
  93:../../libDaisy//src/per/adc.h ****     ~AdcHandle() {}
  85              		.loc 6 93 5 is_stmt 1 view .LVU11
  86              		.loc 6 93 5 is_stmt 0 view .LVU12
  87              	.LBE515:
  88              	.LBB516:
  89              	.LBI516:
  90              		.file 7 "../../libDaisy//src/hid/audio.h"
   1:../../libDaisy//src/hid/audio.h **** #ifndef DSY_AUDIO_H
   2:../../libDaisy//src/hid/audio.h **** #define DSY_AUDIO_H /**< & */
   3:../../libDaisy//src/hid/audio.h **** 
   4:../../libDaisy//src/hid/audio.h **** #include "per/sai.h"
   5:../../libDaisy//src/hid/audio.h **** 
   6:../../libDaisy//src/hid/audio.h **** namespace daisy
   7:../../libDaisy//src/hid/audio.h **** {
   8:../../libDaisy//src/hid/audio.h **** /** @brief Audio Engine Handle
   9:../../libDaisy//src/hid/audio.h ****  *  @ingroup audio 
  10:../../libDaisy//src/hid/audio.h ****  *  @details This class allows for higher level access to an audio engine.
  11:../../libDaisy//src/hid/audio.h ****  *           If you're using a SOM like the DaisySeed or DaisyPatchSM (or any 
  12:../../libDaisy//src/hid/audio.h ****  *            board that includes one of those objects) then the intialization
  13:../../libDaisy//src/hid/audio.h ****  *            is already taken  care of.
  14:../../libDaisy//src/hid/audio.h ****  *           If you're setting up your own custom hardware, or need to make changes
  15:../../libDaisy//src/hid/audio.h ****  *           you will have to take the following steps:
  16:../../libDaisy//src/hid/audio.h ****  *             1. Create and Initialize an SaiHandle or two depending on your requirements
  17:../../libDaisy//src/hid/audio.h ****  *             2. Initialize the Audio Handle with the desired settings and the Initialized SaiHand
ARM GAS  /var/folders/hl/qgbwny5j0fd895c2c41bk3tw0000gp/T//cc1L1gWC.s 			page 8


  18:../../libDaisy//src/hid/audio.h ****  *             3. If the connected codec requires special configuration or initialization, do so
  19:../../libDaisy//src/hid/audio.h ****  *             4. Write a callback method using either the AudioCallback or the InterleavingAudioCa
  20:../../libDaisy//src/hid/audio.h ****  *             5. Start the Audio using one of the StartAudio function
  21:../../libDaisy//src/hid/audio.h ****  */
  22:../../libDaisy//src/hid/audio.h **** class AudioHandle
  23:../../libDaisy//src/hid/audio.h **** {
  24:../../libDaisy//src/hid/audio.h ****   public:
  25:../../libDaisy//src/hid/audio.h ****     /** Manually configurable details about the Audio Engine */
  26:../../libDaisy//src/hid/audio.h ****     /** TODO: Figure out how to get samplerate in here. */
  27:../../libDaisy//src/hid/audio.h ****     struct Config
  28:../../libDaisy//src/hid/audio.h ****     {
  29:../../libDaisy//src/hid/audio.h ****         /** number of samples to process per callback */
  30:../../libDaisy//src/hid/audio.h ****         size_t blocksize;
  31:../../libDaisy//src/hid/audio.h **** 
  32:../../libDaisy//src/hid/audio.h ****         /**< Sample rate of audio */
  33:../../libDaisy//src/hid/audio.h ****         SaiHandle::Config::SampleRate samplerate;
  34:../../libDaisy//src/hid/audio.h **** 
  35:../../libDaisy//src/hid/audio.h ****         /** factor for adjustment before and after callback for hardware that may have extra headro
  36:../../libDaisy//src/hid/audio.h ****         float postgain;
  37:../../libDaisy//src/hid/audio.h **** 
  38:../../libDaisy//src/hid/audio.h ****         /** factor for additional one-sided compensation to audio path for hardware that may
  39:../../libDaisy//src/hid/audio.h ****          *  have unequal input/output ranges
  40:../../libDaisy//src/hid/audio.h ****          */
  41:../../libDaisy//src/hid/audio.h ****         float output_compensation;
  42:../../libDaisy//src/hid/audio.h **** 
  43:../../libDaisy//src/hid/audio.h ****         /** Sets default values for config struct */
  44:../../libDaisy//src/hid/audio.h ****         Config()
  45:../../libDaisy//src/hid/audio.h ****         : blocksize(48),
  46:../../libDaisy//src/hid/audio.h ****           samplerate(SaiHandle::Config::SampleRate::SAI_48KHZ),
  47:../../libDaisy//src/hid/audio.h ****           postgain(1.f),
  48:../../libDaisy//src/hid/audio.h ****           output_compensation(1.f)
  49:../../libDaisy//src/hid/audio.h ****         {
  50:../../libDaisy//src/hid/audio.h ****         }
  51:../../libDaisy//src/hid/audio.h ****     };
  52:../../libDaisy//src/hid/audio.h **** 
  53:../../libDaisy//src/hid/audio.h ****     enum class Result
  54:../../libDaisy//src/hid/audio.h ****     {
  55:../../libDaisy//src/hid/audio.h ****         OK,
  56:../../libDaisy//src/hid/audio.h ****         ERR,
  57:../../libDaisy//src/hid/audio.h ****     };
  58:../../libDaisy//src/hid/audio.h **** 
  59:../../libDaisy//src/hid/audio.h ****     /** Non-Interleaving input buffer
  60:../../libDaisy//src/hid/audio.h ****      * Buffer arranged by float[chn][sample] 
  61:../../libDaisy//src/hid/audio.h ****      * const so that the user can't modify the input
  62:../../libDaisy//src/hid/audio.h ****      */
  63:../../libDaisy//src/hid/audio.h ****     typedef const float* const* InputBuffer;
  64:../../libDaisy//src/hid/audio.h **** 
  65:../../libDaisy//src/hid/audio.h ****     /** Non-Interleaving output buffer
  66:../../libDaisy//src/hid/audio.h ****      * Arranged by float[chn][sample] 
  67:../../libDaisy//src/hid/audio.h ****      */
  68:../../libDaisy//src/hid/audio.h ****     typedef float** OutputBuffer;
  69:../../libDaisy//src/hid/audio.h **** 
  70:../../libDaisy//src/hid/audio.h ****     /** Type for a Non-Interleaving audio callback 
  71:../../libDaisy//src/hid/audio.h ****      * Non-Interleaving audio callbacks in daisy will be of this type
  72:../../libDaisy//src/hid/audio.h ****      */
  73:../../libDaisy//src/hid/audio.h ****     typedef void (*AudioCallback)(InputBuffer  in,
  74:../../libDaisy//src/hid/audio.h ****                                   OutputBuffer out,
ARM GAS  /var/folders/hl/qgbwny5j0fd895c2c41bk3tw0000gp/T//cc1L1gWC.s 			page 9


  75:../../libDaisy//src/hid/audio.h ****                                   size_t       size);
  76:../../libDaisy//src/hid/audio.h **** 
  77:../../libDaisy//src/hid/audio.h ****     /** Interleaving Input buffer
  78:../../libDaisy//src/hid/audio.h ****      ** audio is prepared as { L0, R0, L1, R1, . . . LN, RN }]
  79:../../libDaisy//src/hid/audio.h ****      ** this is const, as the user shouldn't modify it
  80:../../libDaisy//src/hid/audio.h ****     */
  81:../../libDaisy//src/hid/audio.h ****     typedef const float* InterleavingInputBuffer;
  82:../../libDaisy//src/hid/audio.h **** 
  83:../../libDaisy//src/hid/audio.h ****     /** Interleaving Output buffer 
  84:../../libDaisy//src/hid/audio.h ****      ** audio is prepared as { L0, R0, L1, R1, . . . LN, RN }
  85:../../libDaisy//src/hid/audio.h ****     */
  86:../../libDaisy//src/hid/audio.h ****     typedef float* InterleavingOutputBuffer;
  87:../../libDaisy//src/hid/audio.h **** 
  88:../../libDaisy//src/hid/audio.h ****     /** Interleaving Audio Callback 
  89:../../libDaisy//src/hid/audio.h ****      * Interleaving audio callbacks in daisy must be of this type
  90:../../libDaisy//src/hid/audio.h ****      */
  91:../../libDaisy//src/hid/audio.h ****     typedef void (*InterleavingAudioCallback)(InterleavingInputBuffer  in,
  92:../../libDaisy//src/hid/audio.h ****                                               InterleavingOutputBuffer out,
  93:../../libDaisy//src/hid/audio.h ****                                               size_t                   size);
  94:../../libDaisy//src/hid/audio.h **** 
  95:../../libDaisy//src/hid/audio.h ****     AudioHandle() : pimpl_(nullptr) {}
  96:../../libDaisy//src/hid/audio.h ****     ~AudioHandle() {}
  91              		.loc 7 96 5 is_stmt 1 view .LVU13
  92              		.loc 7 96 5 is_stmt 0 view .LVU14
  93              	.LBE516:
  94              	.LBB517:
  95              	.LBI517:
  96              		.file 8 "../../libDaisy//src/sys/system.h"
   1:../../libDaisy//src/sys/system.h **** #ifndef DSY_SYSTEM_H
   2:../../libDaisy//src/sys/system.h **** #define DSY_SYSTEM_H
   3:../../libDaisy//src/sys/system.h **** 
   4:../../libDaisy//src/sys/system.h **** #ifndef UNIT_TEST // for unit tests, a dummy implementation is provided below
   5:../../libDaisy//src/sys/system.h **** 
   6:../../libDaisy//src/sys/system.h **** #include <cstdint>
   7:../../libDaisy//src/sys/system.h **** #include "per/tim.h"
   8:../../libDaisy//src/sys/system.h **** 
   9:../../libDaisy//src/sys/system.h **** namespace daisy
  10:../../libDaisy//src/sys/system.h **** {
  11:../../libDaisy//src/sys/system.h **** /** A handle for interacting with the Core System. 
  12:../../libDaisy//src/sys/system.h ****  ** This includes the Clock tree, MPU, global DMA initialization,
  13:../../libDaisy//src/sys/system.h ****  ** cache handling, and any other necessary global initiailzation
  14:../../libDaisy//src/sys/system.h ****  **
  15:../../libDaisy//src/sys/system.h ****  ** @author shensley
  16:../../libDaisy//src/sys/system.h ****  ** @ingroup system
  17:../../libDaisy//src/sys/system.h ****  */
  18:../../libDaisy//src/sys/system.h **** class System
  19:../../libDaisy//src/sys/system.h **** {
  20:../../libDaisy//src/sys/system.h ****   public:
  21:../../libDaisy//src/sys/system.h ****     /** Contains settings for initializing the System */
  22:../../libDaisy//src/sys/system.h ****     struct Config
  23:../../libDaisy//src/sys/system.h ****     {
  24:../../libDaisy//src/sys/system.h ****         /** Specifies the system clock frequency that feeds APB/AHB clocks, etc. */
  25:../../libDaisy//src/sys/system.h ****         enum class SysClkFreq
  26:../../libDaisy//src/sys/system.h ****         {
  27:../../libDaisy//src/sys/system.h ****             FREQ_400MHZ,
  28:../../libDaisy//src/sys/system.h ****             FREQ_480MHZ,
  29:../../libDaisy//src/sys/system.h ****         };
ARM GAS  /var/folders/hl/qgbwny5j0fd895c2c41bk3tw0000gp/T//cc1L1gWC.s 			page 10


  30:../../libDaisy//src/sys/system.h **** 
  31:../../libDaisy//src/sys/system.h ****         /** Method to call on the struct to set to defaults
  32:../../libDaisy//src/sys/system.h ****          ** CPU Freq set to 400MHz
  33:../../libDaisy//src/sys/system.h ****          ** Cache Enabled 
  34:../../libDaisy//src/sys/system.h ****          ** */
  35:../../libDaisy//src/sys/system.h ****         void Defaults()
  36:../../libDaisy//src/sys/system.h ****         {
  37:../../libDaisy//src/sys/system.h ****             cpu_freq    = SysClkFreq::FREQ_400MHZ;
  38:../../libDaisy//src/sys/system.h ****             use_dcache  = true;
  39:../../libDaisy//src/sys/system.h ****             use_icache  = true;
  40:../../libDaisy//src/sys/system.h ****             skip_clocks = false;
  41:../../libDaisy//src/sys/system.h ****         }
  42:../../libDaisy//src/sys/system.h **** 
  43:../../libDaisy//src/sys/system.h ****         /** Method to call on the struct to set to boost mode:
  44:../../libDaisy//src/sys/system.h ****          ** CPU Freq set to 480MHz
  45:../../libDaisy//src/sys/system.h ****          ** Cache Enabled 
  46:../../libDaisy//src/sys/system.h ****          ** */
  47:../../libDaisy//src/sys/system.h ****         void Boost()
  48:../../libDaisy//src/sys/system.h ****         {
  49:../../libDaisy//src/sys/system.h ****             cpu_freq    = SysClkFreq::FREQ_480MHZ;
  50:../../libDaisy//src/sys/system.h ****             use_dcache  = true;
  51:../../libDaisy//src/sys/system.h ****             use_icache  = true;
  52:../../libDaisy//src/sys/system.h ****             skip_clocks = false;
  53:../../libDaisy//src/sys/system.h ****         }
  54:../../libDaisy//src/sys/system.h **** 
  55:../../libDaisy//src/sys/system.h ****         SysClkFreq cpu_freq;
  56:../../libDaisy//src/sys/system.h ****         bool       use_dcache;
  57:../../libDaisy//src/sys/system.h ****         bool       use_icache;
  58:../../libDaisy//src/sys/system.h ****         bool       skip_clocks;
  59:../../libDaisy//src/sys/system.h ****     };
  60:../../libDaisy//src/sys/system.h **** 
  61:../../libDaisy//src/sys/system.h ****     /** Describes the different regions of memory available to the Daisy
  62:../../libDaisy//src/sys/system.h ****      * 
  63:../../libDaisy//src/sys/system.h ****      */
  64:../../libDaisy//src/sys/system.h ****     enum MemoryRegion
  65:../../libDaisy//src/sys/system.h ****     {
  66:../../libDaisy//src/sys/system.h ****         INTERNAL_FLASH = 0,
  67:../../libDaisy//src/sys/system.h ****         ITCMRAM,
  68:../../libDaisy//src/sys/system.h ****         DTCMRAM,
  69:../../libDaisy//src/sys/system.h ****         SRAM_D1,
  70:../../libDaisy//src/sys/system.h ****         SRAM_D2,
  71:../../libDaisy//src/sys/system.h ****         SRAM_D3,
  72:../../libDaisy//src/sys/system.h ****         SDRAM,
  73:../../libDaisy//src/sys/system.h ****         QSPI,
  74:../../libDaisy//src/sys/system.h ****         INVALID_ADDRESS,
  75:../../libDaisy//src/sys/system.h ****     };
  76:../../libDaisy//src/sys/system.h **** 
  77:../../libDaisy//src/sys/system.h ****     System() {}
  78:../../libDaisy//src/sys/system.h ****     ~System() {}
  97              		.loc 8 78 5 is_stmt 1 view .LVU15
  98              		.loc 8 78 5 is_stmt 0 view .LVU16
  99              	.LBE517:
 100              		.loc 2 65 26 view .LVU17
 101 0000 7047     		bx	lr
 102              		.cfi_endproc
 103              	.LFE2529:
 105              		.weak	_ZN5daisy8patch_sm12DaisyPatchSMD1Ev
ARM GAS  /var/folders/hl/qgbwny5j0fd895c2c41bk3tw0000gp/T//cc1L1gWC.s 			page 11


 106              		.thumb_set _ZN5daisy8patch_sm12DaisyPatchSMD1Ev,_ZN5daisy8patch_sm12DaisyPatchSMD2Ev
 107 0002 00BF     		.section	.text._ZN7daisysp8ReverbScD2Ev,"axG",%progbits,_ZN7daisysp8ReverbScD5Ev,comdat
 108              		.align	1
 109              		.p2align 2,,3
 110              		.weak	_ZN7daisysp8ReverbScD2Ev
 111              		.syntax unified
 112              		.thumb
 113              		.thumb_func
 115              	_ZN7daisysp8ReverbScD2Ev:
 116              	.LVL2:
 117              	.LFB4427:
 118              		.file 9 "../../DaisySP//Source/Effects/reverbsc.h"
   1:../../DaisySP//Source/Effects/reverbsc.h **** #pragma once
   2:../../DaisySP//Source/Effects/reverbsc.h **** #ifndef DSYSP_REVERBSC_H
   3:../../DaisySP//Source/Effects/reverbsc.h **** #define DSYSP_REVERBSC_H
   4:../../DaisySP//Source/Effects/reverbsc.h **** 
   5:../../DaisySP//Source/Effects/reverbsc.h **** #define DSY_REVERBSC_MAX_SIZE 98936
   6:../../DaisySP//Source/Effects/reverbsc.h **** 
   7:../../DaisySP//Source/Effects/reverbsc.h **** namespace daisysp
   8:../../DaisySP//Source/Effects/reverbsc.h **** {
   9:../../DaisySP//Source/Effects/reverbsc.h **** /**Delay line for internal reverb use
  10:../../DaisySP//Source/Effects/reverbsc.h **** */
  11:../../DaisySP//Source/Effects/reverbsc.h **** typedef struct
  12:../../DaisySP//Source/Effects/reverbsc.h **** {
  13:../../DaisySP//Source/Effects/reverbsc.h ****     int    write_pos;         /**< write position */
  14:../../DaisySP//Source/Effects/reverbsc.h ****     int    buffer_size;       /**< buffer size */
  15:../../DaisySP//Source/Effects/reverbsc.h ****     int    read_pos;          /**< read position */
  16:../../DaisySP//Source/Effects/reverbsc.h ****     int    read_pos_frac;     /**< fractional component of read pos */
  17:../../DaisySP//Source/Effects/reverbsc.h ****     int    read_pos_frac_inc; /**< increment for fractional */
  18:../../DaisySP//Source/Effects/reverbsc.h ****     int    dummy;             /**<  dummy var */
  19:../../DaisySP//Source/Effects/reverbsc.h ****     int    seed_val;          /**< randseed */
  20:../../DaisySP//Source/Effects/reverbsc.h ****     int    rand_line_cnt;     /**< number of random lines */
  21:../../DaisySP//Source/Effects/reverbsc.h ****     float  filter_state;      /**< state of filter */
  22:../../DaisySP//Source/Effects/reverbsc.h ****     float *buf;               /**< buffer ptr */
  23:../../DaisySP//Source/Effects/reverbsc.h **** } ReverbScDl;
  24:../../DaisySP//Source/Effects/reverbsc.h **** 
  25:../../DaisySP//Source/Effects/reverbsc.h **** /** Stereo Reverb
  26:../../DaisySP//Source/Effects/reverbsc.h **** 
  27:../../DaisySP//Source/Effects/reverbsc.h **** Reverb SC:               Ported from csound/soundpipe
  28:../../DaisySP//Source/Effects/reverbsc.h **** 
  29:../../DaisySP//Source/Effects/reverbsc.h **** Original author(s):        Sean Costello, Istvan Varga
  30:../../DaisySP//Source/Effects/reverbsc.h **** 
  31:../../DaisySP//Source/Effects/reverbsc.h **** Year:                    1999, 2005
  32:../../DaisySP//Source/Effects/reverbsc.h **** 
  33:../../DaisySP//Source/Effects/reverbsc.h **** Ported to soundpipe by:  Paul Batchelor
  34:../../DaisySP//Source/Effects/reverbsc.h **** 
  35:../../DaisySP//Source/Effects/reverbsc.h **** Ported by:                Stephen Hensley
  36:../../DaisySP//Source/Effects/reverbsc.h **** */
  37:../../DaisySP//Source/Effects/reverbsc.h **** class ReverbSc
  38:../../DaisySP//Source/Effects/reverbsc.h **** {
  39:../../DaisySP//Source/Effects/reverbsc.h ****   public:
  40:../../DaisySP//Source/Effects/reverbsc.h ****     ReverbSc() {}
  41:../../DaisySP//Source/Effects/reverbsc.h ****     ~ReverbSc() {}
 119              		.loc 9 41 5 is_stmt 1 view -0
 120              		.cfi_startproc
 121              		@ args = 0, pretend = 0, frame = 0
 122              		@ frame_needed = 0, uses_anonymous_args = 0
ARM GAS  /var/folders/hl/qgbwny5j0fd895c2c41bk3tw0000gp/T//cc1L1gWC.s 			page 12


 123              		@ link register save eliminated.
 124              		.loc 9 41 18 is_stmt 0 view .LVU19
 125 0000 7047     		bx	lr
 126              		.cfi_endproc
 127              	.LFE4427:
 129              		.weak	_ZN7daisysp8ReverbScD1Ev
 130              		.thumb_set _ZN7daisysp8ReverbScD1Ev,_ZN7daisysp8ReverbScD2Ev
 131 0002 00BF     		.section	.text._ZN7daisysp7cLooperD2Ev,"axG",%progbits,_ZN7daisysp7cLooperD5Ev,comdat
 132              		.align	1
 133              		.p2align 2,,3
 134              		.weak	_ZN7daisysp7cLooperD2Ev
 135              		.syntax unified
 136              		.thumb
 137              		.thumb_func
 139              	_ZN7daisysp7cLooperD2Ev:
 140              	.LVL3:
 141              	.LFB5030:
 142              		.file 10 "customLooper.h"
   1:customLooper.h **** #pragma once
   2:customLooper.h **** #include <algorithm>
   3:customLooper.h **** #include "Utility/dsp.h"
   4:customLooper.h **** #include <tuple>
   5:customLooper.h **** 
   6:customLooper.h **** /**
   7:customLooper.h ****  * 
   8:customLooper.h ****  * A "custom/modified" version of the looper class from DaisySP. Added features include:
   9:customLooper.h ****  * bool returns for start and halfway through recorded loop
  10:customLooper.h ****  * (NOT IMPLEMENTED YET) variable playback speed.
  11:customLooper.h ****  * 
  12:customLooper.h **** */
  13:customLooper.h **** 
  14:customLooper.h **** namespace daisysp
  15:customLooper.h **** {
  16:customLooper.h **** /** Multimode audio looper
  17:customLooper.h **** * 
  18:customLooper.h **** * Modes are:
  19:customLooper.h **** *  - Normal
  20:customLooper.h **** *  - Onetime Dub
  21:customLooper.h **** *  - Replace
  22:customLooper.h **** *  - Frippertronics
  23:customLooper.h **** *
  24:customLooper.h **** * Read more about the looper modes in the mode enum documentation.
  25:customLooper.h **** */
  26:customLooper.h **** class cLooper
  27:customLooper.h **** {
  28:customLooper.h ****   public:
  29:customLooper.h ****     cLooper() {}
  30:customLooper.h ****     ~cLooper() {}
 143              		.loc 10 30 5 is_stmt 1 view -0
 144              		.cfi_startproc
 145              		@ args = 0, pretend = 0, frame = 0
 146              		@ frame_needed = 0, uses_anonymous_args = 0
 147              		@ link register save eliminated.
 148              		.loc 10 30 17 is_stmt 0 view .LVU21
 149 0000 7047     		bx	lr
 150              		.cfi_endproc
 151              	.LFE5030:
ARM GAS  /var/folders/hl/qgbwny5j0fd895c2c41bk3tw0000gp/T//cc1L1gWC.s 			page 13


 153              		.weak	_ZN7daisysp7cLooperD1Ev
 154              		.thumb_set _ZN7daisysp7cLooperD1Ev,_ZN7daisysp7cLooperD2Ev
 155 0002 00BF     		.section	.text._ZN5daisy8patch_sm7InitBedEv,"ax",%progbits
 156              		.align	1
 157              		.p2align 2,,3
 158              		.global	_ZN5daisy8patch_sm7InitBedEv
 159              		.syntax unified
 160              		.thumb
 161              		.thumb_func
 163              	_ZN5daisy8patch_sm7InitBedEv:
 164              	.LFB4793:
 165              		.file 11 "daisy_bed.h"
   1:daisy_bed.h   **** #pragma once
   2:daisy_bed.h   **** 
   3:daisy_bed.h   **** #include "daisy.h"
   4:daisy_bed.h   **** #include "daisysp.h"
   5:daisy_bed.h   **** #include "per/gpio.h"
   6:daisy_bed.h   **** #include "daisy_patch_sm.h"
   7:daisy_bed.h   **** 
   8:daisy_bed.h   **** namespace daisy
   9:daisy_bed.h   **** {
  10:daisy_bed.h   **** namespace patch_sm
  11:daisy_bed.h   **** {
  12:daisy_bed.h   ****     // simple stupid led set up
  13:daisy_bed.h   ****     GPIO    gen_led1;
  14:daisy_bed.h   ****     GPIO    gen_led2;
  15:daisy_bed.h   ****     GPIO    cv_led1;
  16:daisy_bed.h   ****     GPIO    cv_led2;
  17:daisy_bed.h   ****     GPIO    gate_in_led1;
  18:daisy_bed.h   ****     GPIO    gate_in_led2;
  19:daisy_bed.h   ****     GPIO    gate_out_led1;
  20:daisy_bed.h   ****     GPIO    gate_out_led2;
  21:daisy_bed.h   **** 
  22:daisy_bed.h   **** 
  23:daisy_bed.h   ****     // generic leds
  24:daisy_bed.h   ****     dsy_gpio_pin oldPinD7 = DaisyPatchSM::D7;
  25:daisy_bed.h   ****     Pin newPinD7 = Pin(static_cast<GPIOPort>(oldPinD7.port), oldPinD7.pin);
  26:daisy_bed.h   ****     dsy_gpio_pin oldPinA9 = DaisyPatchSM::A9;
  27:daisy_bed.h   ****     Pin newPinA9 = Pin(static_cast<GPIOPort>(oldPinA9.port), oldPinA9.pin);
  28:daisy_bed.h   **** 
  29:daisy_bed.h   ****     // cv leds
  30:daisy_bed.h   ****     dsy_gpio_pin oldPinD2 = DaisyPatchSM::D2;
  31:daisy_bed.h   ****     Pin newPinD2 = Pin(static_cast<GPIOPort>(oldPinD2.port), oldPinD2.pin);
  32:daisy_bed.h   ****     dsy_gpio_pin oldPinD1 = DaisyPatchSM::D1;
  33:daisy_bed.h   ****     Pin newPinD1 = Pin(static_cast<GPIOPort>(oldPinD1.port), oldPinD1.pin);
  34:daisy_bed.h   ****     // ^^^ {DSY_GPIOB, 4},  /**< D1  - SPI2 CS */
  35:daisy_bed.h   **** 
  36:daisy_bed.h   ****     // gate leds
  37:daisy_bed.h   ****     dsy_gpio_pin oldPinD3 = DaisyPatchSM::D3;
  38:daisy_bed.h   ****     Pin newPinD3 = Pin(static_cast<GPIOPort>(oldPinD3.port), oldPinD3.pin);
  39:daisy_bed.h   ****     dsy_gpio_pin oldPinD6 = DaisyPatchSM::D6;
  40:daisy_bed.h   ****     Pin newPinD6 = Pin(static_cast<GPIOPort>(oldPinD6.port), oldPinD6.pin);
  41:daisy_bed.h   ****     dsy_gpio_pin oldPinD4 = DaisyPatchSM::D4;
  42:daisy_bed.h   ****     Pin newPinD4 = Pin(static_cast<GPIOPort>(oldPinD4.port), oldPinD4.pin);
  43:daisy_bed.h   ****     dsy_gpio_pin oldPinD5 = DaisyPatchSM::D5;
  44:daisy_bed.h   ****     Pin newPinD5 = Pin(static_cast<GPIOPort>(oldPinD5.port), oldPinD5.pin);
  45:daisy_bed.h   **** 
ARM GAS  /var/folders/hl/qgbwny5j0fd895c2c41bk3tw0000gp/T//cc1L1gWC.s 			page 14


  46:daisy_bed.h   ****     // remap
  47:daisy_bed.h   ****      
  48:daisy_bed.h   ****     // map buttons
  49:daisy_bed.h   ****     Switch      b1,b2;
  50:daisy_bed.h   **** 
  51:daisy_bed.h   ****     void InitBed(){
 166              		.loc 11 51 19 is_stmt 1 view -0
 167              		.cfi_startproc
 168              		@ args = 0, pretend = 0, frame = 8
 169              		@ frame_needed = 0, uses_anonymous_args = 0
  52:daisy_bed.h   ****         // leds
  53:daisy_bed.h   ****         gen_led1.Init(newPinD7, GPIO::Mode::OUTPUT);
 170              		.loc 11 53 9 view .LVU23
  51:daisy_bed.h   ****         // leds
 171              		.loc 11 51 19 is_stmt 0 view .LVU24
 172 0000 10B5     		push	{r4, lr}
 173              		.cfi_def_cfa_offset 8
 174              		.cfi_offset 4, -8
 175              		.cfi_offset 14, -4
 176              		.loc 11 53 22 view .LVU25
 177 0002 2D49     		ldr	r1, .L8
  51:daisy_bed.h   ****         // leds
 178              		.loc 11 51 19 view .LVU26
 179 0004 84B0     		sub	sp, sp, #16
 180              		.cfi_def_cfa_offset 24
 181              		.loc 11 53 22 view .LVU27
 182 0006 0024     		movs	r4, #0
 183 0008 0122     		movs	r2, #1
 184 000a 0968     		ldr	r1, [r1]
 185 000c 2346     		mov	r3, r4
 186 000e 2B48     		ldr	r0, .L8+4
 187 0010 0094     		str	r4, [sp]
 188 0012 FFF7FEFF 		bl	_ZN5daisy4GPIO4InitENS_3PinENS0_4ModeENS0_4PullENS0_5SpeedE
 189              	.LVL4:
  54:daisy_bed.h   ****         gen_led2.Init(newPinA9, GPIO::Mode::OUTPUT);
 190              		.loc 11 54 9 is_stmt 1 view .LVU28
 191              		.loc 11 54 22 is_stmt 0 view .LVU29
 192 0016 2A49     		ldr	r1, .L8+8
 193 0018 2346     		mov	r3, r4
 194 001a 0122     		movs	r2, #1
 195 001c 0968     		ldr	r1, [r1]
 196 001e 2948     		ldr	r0, .L8+12
 197 0020 0094     		str	r4, [sp]
 198 0022 FFF7FEFF 		bl	_ZN5daisy4GPIO4InitENS_3PinENS0_4ModeENS0_4PullENS0_5SpeedE
 199              	.LVL5:
  55:daisy_bed.h   ****         cv_led1.Init(newPinD2, GPIO::Mode::OUTPUT);
 200              		.loc 11 55 9 is_stmt 1 view .LVU30
 201              		.loc 11 55 21 is_stmt 0 view .LVU31
 202 0026 2849     		ldr	r1, .L8+16
 203 0028 2346     		mov	r3, r4
 204 002a 0122     		movs	r2, #1
 205 002c 0968     		ldr	r1, [r1]
 206 002e 2748     		ldr	r0, .L8+20
 207 0030 0094     		str	r4, [sp]
 208 0032 FFF7FEFF 		bl	_ZN5daisy4GPIO4InitENS_3PinENS0_4ModeENS0_4PullENS0_5SpeedE
 209              	.LVL6:
  56:daisy_bed.h   ****         cv_led2.Init(newPinD1, GPIO::Mode::OUTPUT);
ARM GAS  /var/folders/hl/qgbwny5j0fd895c2c41bk3tw0000gp/T//cc1L1gWC.s 			page 15


 210              		.loc 11 56 9 is_stmt 1 view .LVU32
 211              		.loc 11 56 21 is_stmt 0 view .LVU33
 212 0036 2649     		ldr	r1, .L8+24
 213 0038 2346     		mov	r3, r4
 214 003a 0122     		movs	r2, #1
 215 003c 0968     		ldr	r1, [r1]
 216 003e 2548     		ldr	r0, .L8+28
 217 0040 0094     		str	r4, [sp]
 218 0042 FFF7FEFF 		bl	_ZN5daisy4GPIO4InitENS_3PinENS0_4ModeENS0_4PullENS0_5SpeedE
 219              	.LVL7:
  57:daisy_bed.h   ****         gate_in_led1.Init(newPinD3, GPIO::Mode::OUTPUT);
 220              		.loc 11 57 9 is_stmt 1 view .LVU34
 221              		.loc 11 57 26 is_stmt 0 view .LVU35
 222 0046 2449     		ldr	r1, .L8+32
 223 0048 2346     		mov	r3, r4
 224 004a 0122     		movs	r2, #1
 225 004c 0968     		ldr	r1, [r1]
 226 004e 2348     		ldr	r0, .L8+36
 227 0050 0094     		str	r4, [sp]
 228 0052 FFF7FEFF 		bl	_ZN5daisy4GPIO4InitENS_3PinENS0_4ModeENS0_4PullENS0_5SpeedE
 229              	.LVL8:
  58:daisy_bed.h   ****         gate_in_led2.Init(newPinD5, GPIO::Mode::OUTPUT);
 230              		.loc 11 58 9 is_stmt 1 view .LVU36
 231              		.loc 11 58 26 is_stmt 0 view .LVU37
 232 0056 2249     		ldr	r1, .L8+40
 233 0058 2346     		mov	r3, r4
 234 005a 0122     		movs	r2, #1
 235 005c 0968     		ldr	r1, [r1]
 236 005e 2148     		ldr	r0, .L8+44
 237 0060 0094     		str	r4, [sp]
 238 0062 FFF7FEFF 		bl	_ZN5daisy4GPIO4InitENS_3PinENS0_4ModeENS0_4PullENS0_5SpeedE
 239              	.LVL9:
  59:daisy_bed.h   ****         gate_out_led1.Init(newPinD6, GPIO::Mode::OUTPUT);
 240              		.loc 11 59 9 is_stmt 1 view .LVU38
 241              		.loc 11 59 27 is_stmt 0 view .LVU39
 242 0066 2049     		ldr	r1, .L8+48
 243 0068 2346     		mov	r3, r4
 244 006a 0122     		movs	r2, #1
 245 006c 0968     		ldr	r1, [r1]
 246 006e 1F48     		ldr	r0, .L8+52
 247 0070 0094     		str	r4, [sp]
 248 0072 FFF7FEFF 		bl	_ZN5daisy4GPIO4InitENS_3PinENS0_4ModeENS0_4PullENS0_5SpeedE
 249              	.LVL10:
  60:daisy_bed.h   ****         gate_out_led2.Init(newPinD4, GPIO::Mode::OUTPUT);
 250              		.loc 11 60 9 is_stmt 1 view .LVU40
 251              		.loc 11 60 27 is_stmt 0 view .LVU41
 252 0076 1E49     		ldr	r1, .L8+56
 253 0078 2346     		mov	r3, r4
 254 007a 0122     		movs	r2, #1
 255 007c 0968     		ldr	r1, [r1]
 256 007e 1D48     		ldr	r0, .L8+60
 257 0080 0094     		str	r4, [sp]
 258 0082 FFF7FEFF 		bl	_ZN5daisy4GPIO4InitENS_3PinENS0_4ModeENS0_4PullENS0_5SpeedE
 259              	.LVL11:
  61:daisy_bed.h   **** 
  62:daisy_bed.h   ****         // buttons
  63:daisy_bed.h   ****         b1.Init(DaisyPatchSM::A8);
ARM GAS  /var/folders/hl/qgbwny5j0fd895c2c41bk3tw0000gp/T//cc1L1gWC.s 			page 16


 260              		.loc 11 63 9 is_stmt 1 view .LVU42
 261              		.loc 11 63 16 is_stmt 0 view .LVU43
 262 0086 1C4B     		ldr	r3, .L8+64
 263 0088 9FED1C0A 		vldr.32	s0, .L8+68
 264 008c 1A78     		ldrb	r2, [r3]	@ zero_extendqisi2
 265 008e 5978     		ldrb	r1, [r3, #1]	@ zero_extendqisi2
 266 0090 1B48     		ldr	r0, .L8+72
 267 0092 42EA0121 		orr	r1, r2, r1, lsl #8
 268 0096 8DED030A 		vstr.32	s0, [sp, #12]	@ int
 269 009a FFF7FEFF 		bl	_ZN5daisy6Switch4InitE12dsy_gpio_pinf
 270              	.LVL12:
  64:daisy_bed.h   ****         b2.Init(DaisyPatchSM::D10);
 271              		.loc 11 64 9 is_stmt 1 view .LVU44
 272              		.loc 11 64 16 is_stmt 0 view .LVU45
 273 009e 194B     		ldr	r3, .L8+76
 274 00a0 9DED030A 		vldr.32	s0, [sp, #12]	@ int
 275 00a4 1A78     		ldrb	r2, [r3]	@ zero_extendqisi2
 276 00a6 5978     		ldrb	r1, [r3, #1]	@ zero_extendqisi2
 277 00a8 1748     		ldr	r0, .L8+80
 278 00aa 42EA0121 		orr	r1, r2, r1, lsl #8
  65:daisy_bed.h   ****     }
 279              		.loc 11 65 5 view .LVU46
 280 00ae 04B0     		add	sp, sp, #16
 281              		.cfi_def_cfa_offset 8
 282              		@ sp needed
 283 00b0 BDE81040 		pop	{r4, lr}
 284              		.cfi_restore 14
 285              		.cfi_restore 4
 286              		.cfi_def_cfa_offset 0
  64:daisy_bed.h   ****         b2.Init(DaisyPatchSM::D10);
 287              		.loc 11 64 16 view .LVU47
 288 00b4 FFF7FEBF 		b	_ZN5daisy6Switch4InitE12dsy_gpio_pinf
 289              	.LVL13:
 290              	.L9:
 291              		.align	2
 292              	.L8:
 293 00b8 00000000 		.word	.LANCHOR0
 294 00bc 00000000 		.word	.LANCHOR1
 295 00c0 00000000 		.word	.LANCHOR2
 296 00c4 00000000 		.word	.LANCHOR3
 297 00c8 00000000 		.word	.LANCHOR4
 298 00cc 00000000 		.word	.LANCHOR5
 299 00d0 00000000 		.word	.LANCHOR6
 300 00d4 00000000 		.word	.LANCHOR7
 301 00d8 00000000 		.word	.LANCHOR8
 302 00dc 00000000 		.word	.LANCHOR9
 303 00e0 00000000 		.word	.LANCHOR10
 304 00e4 00000000 		.word	.LANCHOR11
 305 00e8 00000000 		.word	.LANCHOR12
 306 00ec 00000000 		.word	.LANCHOR13
 307 00f0 00000000 		.word	.LANCHOR14
 308 00f4 00000000 		.word	.LANCHOR15
 309 00f8 00000000 		.word	_ZN5daisy8patch_sm12DaisyPatchSM2A8E
 310 00fc 00000000 		.word	0
 311 0100 00000000 		.word	.LANCHOR16
 312 0104 00000000 		.word	_ZN5daisy8patch_sm12DaisyPatchSM3D10E
 313 0108 00000000 		.word	.LANCHOR17
ARM GAS  /var/folders/hl/qgbwny5j0fd895c2c41bk3tw0000gp/T//cc1L1gWC.s 			page 17


 314              		.cfi_endproc
 315              	.LFE4793:
 317              		.section	.text._ZN5daisy8patch_sm6ledOffEv,"ax",%progbits
 318              		.align	1
 319              		.p2align 2,,3
 320              		.global	_ZN5daisy8patch_sm6ledOffEv
 321              		.syntax unified
 322              		.thumb
 323              		.thumb_func
 325              	_ZN5daisy8patch_sm6ledOffEv:
 326              	.LFB4794:
  66:daisy_bed.h   **** 
  67:daisy_bed.h   ****     void ledOff(){
 327              		.loc 11 67 18 is_stmt 1 view -0
 328              		.cfi_startproc
 329              		@ args = 0, pretend = 0, frame = 0
 330              		@ frame_needed = 0, uses_anonymous_args = 0
  68:daisy_bed.h   ****         gen_led1.Write(false);
 331              		.loc 11 68 9 view .LVU49
  67:daisy_bed.h   ****         gen_led1.Write(false);
 332              		.loc 11 67 18 is_stmt 0 view .LVU50
 333 0000 08B5     		push	{r3, lr}
 334              		.cfi_def_cfa_offset 8
 335              		.cfi_offset 3, -8
 336              		.cfi_offset 14, -4
 337              		.loc 11 68 23 view .LVU51
 338 0002 0021     		movs	r1, #0
 339 0004 0848     		ldr	r0, .L12
 340 0006 FFF7FEFF 		bl	_ZN5daisy4GPIO5WriteEb
 341              	.LVL14:
  69:daisy_bed.h   ****         gen_led2.Write(false);
 342              		.loc 11 69 9 is_stmt 1 view .LVU52
 343              		.loc 11 69 23 is_stmt 0 view .LVU53
 344 000a 0021     		movs	r1, #0
 345 000c 0748     		ldr	r0, .L12+4
 346 000e FFF7FEFF 		bl	_ZN5daisy4GPIO5WriteEb
 347              	.LVL15:
  70:daisy_bed.h   ****         cv_led1.Write(false);
 348              		.loc 11 70 9 is_stmt 1 view .LVU54
 349              		.loc 11 70 22 is_stmt 0 view .LVU55
 350 0012 0021     		movs	r1, #0
 351 0014 0648     		ldr	r0, .L12+8
 352 0016 FFF7FEFF 		bl	_ZN5daisy4GPIO5WriteEb
 353              	.LVL16:
  71:daisy_bed.h   ****         cv_led2.Write(false);
 354              		.loc 11 71 9 is_stmt 1 view .LVU56
 355              		.loc 11 71 22 is_stmt 0 view .LVU57
 356 001a 0021     		movs	r1, #0
 357 001c 0548     		ldr	r0, .L12+12
  72:daisy_bed.h   ****     }
 358              		.loc 11 72 5 view .LVU58
 359 001e BDE80840 		pop	{r3, lr}
 360              		.cfi_restore 14
 361              		.cfi_restore 3
 362              		.cfi_def_cfa_offset 0
  71:daisy_bed.h   ****         cv_led2.Write(false);
 363              		.loc 11 71 22 view .LVU59
ARM GAS  /var/folders/hl/qgbwny5j0fd895c2c41bk3tw0000gp/T//cc1L1gWC.s 			page 18


 364 0022 FFF7FEBF 		b	_ZN5daisy4GPIO5WriteEb
 365              	.LVL17:
 366              	.L13:
 367 0026 00BF     		.align	2
 368              	.L12:
 369 0028 00000000 		.word	.LANCHOR1
 370 002c 00000000 		.word	.LANCHOR3
 371 0030 00000000 		.word	.LANCHOR5
 372 0034 00000000 		.word	.LANCHOR7
 373              		.cfi_endproc
 374              	.LFE4794:
 376              		.section	.text._Z11loopControlv,"ax",%progbits
 377              		.align	1
 378              		.p2align 2,,3
 379              		.global	_Z11loopControlv
 380              		.syntax unified
 381              		.thumb
 382              		.thumb_func
 384              	_Z11loopControlv:
 385              	.LFB5074:
 386              		.file 12 "Convolution.cpp"
   1:Convolution.cpp **** #include "daisy_patch_sm.h"
   2:Convolution.cpp **** #include "daisysp.h"
   3:Convolution.cpp **** #include "daisy_bed.h"
   4:Convolution.cpp **** #include "customLooper.h"
   5:Convolution.cpp **** 
   6:Convolution.cpp **** using namespace daisy;
   7:Convolution.cpp **** using namespace patch_sm;
   8:Convolution.cpp **** using namespace daisysp;
   9:Convolution.cpp **** 
  10:Convolution.cpp **** #define kBuffSize 48000 * 60 // 60 seconds at 48kHz
  11:Convolution.cpp **** float DSY_SDRAM_BSS buffer[kBuffSize];
  12:Convolution.cpp **** 
  13:Convolution.cpp **** DaisyPatchSM 			hw;
  14:Convolution.cpp **** cLooper					loop;
  15:Convolution.cpp **** ReverbSc DSY_SDRAM_BSS	rev;
  16:Convolution.cpp **** 
  17:Convolution.cpp **** void loopControl(){
 387              		.loc 12 17 19 is_stmt 1 view -0
 388              		.cfi_startproc
 389              		@ args = 0, pretend = 0, frame = 0
 390              		@ frame_needed = 0, uses_anonymous_args = 0
  18:Convolution.cpp ****     b2.Debounce();
 391              		.loc 12 18 5 view .LVU61
  17:Convolution.cpp ****     b2.Debounce();
 392              		.loc 12 17 19 is_stmt 0 view .LVU62
 393 0000 10B5     		push	{r4, lr}
 394              		.cfi_def_cfa_offset 8
 395              		.cfi_offset 4, -8
 396              		.cfi_offset 14, -4
  19:Convolution.cpp **** 	b1.Debounce();
 397              		.loc 12 19 13 view .LVU63
 398 0002 264C     		ldr	r4, .L34
  18:Convolution.cpp ****     b2.Debounce();
 399              		.loc 12 18 16 view .LVU64
 400 0004 2648     		ldr	r0, .L34+4
 401 0006 FFF7FEFF 		bl	_ZN5daisy6Switch8DebounceEv
ARM GAS  /var/folders/hl/qgbwny5j0fd895c2c41bk3tw0000gp/T//cc1L1gWC.s 			page 19


 402              	.LVL18:
 403              		.loc 12 19 2 is_stmt 1 view .LVU65
 404              		.loc 12 19 13 is_stmt 0 view .LVU66
 405 000a 2046     		mov	r0, r4
 406 000c FFF7FEFF 		bl	_ZN5daisy6Switch8DebounceEv
 407              	.LVL19:
  20:Convolution.cpp **** 
  21:Convolution.cpp **** 	if(hw.gate_in_1.Trig()||b1.RisingEdge()) {
 408              		.loc 12 21 2 is_stmt 1 view .LVU67
 409              		.loc 12 21 22 is_stmt 0 view .LVU68
 410 0010 2448     		ldr	r0, .L34+8
 411 0012 FFF7FEFF 		bl	_ZN5daisy6GateIn4TrigEv
 412              	.LVL20:
 413              		.loc 12 21 24 view .LVU69
 414 0016 20B9     		cbnz	r0, .L15
 415              	.LVL21:
 416              	.LBB532:
 417              	.LBI532:
  43:../../libDaisy//src/hid/switch.h **** 
  44:../../libDaisy//src/hid/switch.h ****     /** 
  45:../../libDaisy//src/hid/switch.h ****     Initializes the switch object with a given port/pin combo.
  46:../../libDaisy//src/hid/switch.h ****     \param pin port/pin object to tell the switch which hardware pin to use.
  47:../../libDaisy//src/hid/switch.h ****     \param update_rate Does nothing. Backwards compatibility until next breaking update.
  48:../../libDaisy//src/hid/switch.h ****     \param t switch type -- Default: TYPE_MOMENTARY
  49:../../libDaisy//src/hid/switch.h ****     \param pol switch polarity -- Default: POLARITY_INVERTED
  50:../../libDaisy//src/hid/switch.h ****     \param pu switch pull up/down -- Default: PULL_UP
  51:../../libDaisy//src/hid/switch.h ****     */
  52:../../libDaisy//src/hid/switch.h ****     void
  53:../../libDaisy//src/hid/switch.h ****     Init(dsy_gpio_pin pin, float update_rate, Type t, Polarity pol, Pull pu);
  54:../../libDaisy//src/hid/switch.h **** 
  55:../../libDaisy//src/hid/switch.h ****     /**
  56:../../libDaisy//src/hid/switch.h ****        Simplified Init.
  57:../../libDaisy//src/hid/switch.h ****        \param pin port/pin object to tell the switch which hardware pin to use.
  58:../../libDaisy//src/hid/switch.h ****        \param update_rate Left for backwards compatibility until next breaking change.
  59:../../libDaisy//src/hid/switch.h ****     */
  60:../../libDaisy//src/hid/switch.h ****     void Init(dsy_gpio_pin pin, float update_rate = 0.f);
  61:../../libDaisy//src/hid/switch.h **** 
  62:../../libDaisy//src/hid/switch.h ****     /** 
  63:../../libDaisy//src/hid/switch.h ****     Called at update_rate to debounce and handle timing for the switch.
  64:../../libDaisy//src/hid/switch.h ****     In order for events not to be missed, its important that the Edge/Pressed checks
  65:../../libDaisy//src/hid/switch.h ****     be made at the same rate as the debounce function is being called.
  66:../../libDaisy//src/hid/switch.h ****     */
  67:../../libDaisy//src/hid/switch.h ****     void Debounce();
  68:../../libDaisy//src/hid/switch.h **** 
  69:../../libDaisy//src/hid/switch.h ****     /** \return true if a button was just pressed. */
  70:../../libDaisy//src/hid/switch.h ****     inline bool RisingEdge() const { return updated_ ? state_ == 0x7f : false; }
 418              		.loc 1 70 17 is_stmt 1 view .LVU70
 419              	.LBB533:
 420              		.loc 1 70 38 view .LVU71
 421              		.loc 1 70 54 is_stmt 0 view .LVU72
 422 0018 2379     		ldrb	r3, [r4, #4]	@ zero_extendqisi2
 423 001a 83B1     		cbz	r3, .L17
 424              	.LVL22:
 425              		.loc 1 70 54 view .LVU73
 426              	.LBE533:
 427              	.LBE532:
 428              		.loc 12 21 24 view .LVU74
ARM GAS  /var/folders/hl/qgbwny5j0fd895c2c41bk3tw0000gp/T//cc1L1gWC.s 			page 20


 429 001c A37A     		ldrb	r3, [r4, #10]	@ zero_extendqisi2
 430 001e 7F2B     		cmp	r3, #127
 431 0020 0DD1     		bne	.L17
 432              	.L15:
  22:Convolution.cpp ****         loop.TrigRecord();
 433              		.loc 12 22 9 is_stmt 1 view .LVU75
 434              	.LVL23:
 435              	.LBB534:
 436              	.LBI534:
  31:customLooper.h **** 
  32:customLooper.h ****     /** 
  33:customLooper.h ****      ** Normal Mode: Input is added to the existing loop infinitely while recording 
  34:customLooper.h ****      ** 
  35:customLooper.h ****      ** Onetime Dub Mode: Recording starts at the first sample of the buffer and is added
  36:customLooper.h ****      **     to the existing buffer contents. Recording automatically stops after one full loop.
  37:customLooper.h ****      **
  38:customLooper.h ****      ** Replace Mode: Audio in the buffer is replaced while recording is on.
  39:customLooper.h ****      **
  40:customLooper.h ****      ** Frippertronics Mode: infinite looping recording with fixed decay on each loop. The module a
  41:customLooper.h ****      */
  42:customLooper.h ****     enum class Mode
  43:customLooper.h ****     {
  44:customLooper.h ****         NORMAL,
  45:customLooper.h ****         ONETIME_DUB,
  46:customLooper.h ****         REPLACE,
  47:customLooper.h ****         FRIPPERTRONICS,
  48:customLooper.h ****     };
  49:customLooper.h **** 
  50:customLooper.h ****     void Init(float *mem, size_t size)
  51:customLooper.h ****     {
  52:customLooper.h ****         buffer_size_ = size;
  53:customLooper.h ****         buff_        = mem;
  54:customLooper.h **** 
  55:customLooper.h ****         InitBuff();
  56:customLooper.h ****         state_      = State::EMPTY;
  57:customLooper.h ****         mode_       = Mode::NORMAL;
  58:customLooper.h ****         half_speed_ = false;
  59:customLooper.h ****         reverse_    = false;
  60:customLooper.h ****         rec_queue_  = false;
  61:customLooper.h ****         win_idx_    = 0;
  62:customLooper.h ****     }
  63:customLooper.h **** 
  64:customLooper.h ****     /** Handles reading/writing to the Buffer depending on the mode. */
  65:customLooper.h ****     float Process(const float input)
  66:customLooper.h ****     {
  67:customLooper.h ****         float sig = 0.f;
  68:customLooper.h ****         float inc;
  69:customLooper.h ****         bool  hitloop = false;
  70:customLooper.h ****         // Record forward at normal speed during the first loop no matter what.
  71:customLooper.h ****         inc = state_ == State::EMPTY || state_ == State::REC_FIRST
  72:customLooper.h ****                   ? 1.f
  73:customLooper.h ****                   : GetIncrementSize();
  74:customLooper.h ****         win_ = WindowVal(win_idx_ * kWindowFactor);
  75:customLooper.h ****         switch(state_)
  76:customLooper.h ****         {
  77:customLooper.h ****             case State::EMPTY: sig = 0.0f; break;
  78:customLooper.h ****             case State::REC_FIRST:
ARM GAS  /var/folders/hl/qgbwny5j0fd895c2c41bk3tw0000gp/T//cc1L1gWC.s 			page 21


  79:customLooper.h ****                 sig = 0.f;
  80:customLooper.h ****                 Write(pos_, input * win_);
  81:customLooper.h ****                 if(win_idx_ < kWindowSamps - 1)
  82:customLooper.h ****                     win_idx_ += 1;
  83:customLooper.h ****                 recsize_ = pos_;
  84:customLooper.h ****                 pos_ += inc;
  85:customLooper.h ****                 if(pos_ > buffer_size_ - 1)
  86:customLooper.h ****                 {
  87:customLooper.h ****                     state_   = State::PLAYING;
  88:customLooper.h ****                     recsize_ = pos_ - 1;
  89:customLooper.h ****                     pos_     = 0;
  90:customLooper.h ****                 }
  91:customLooper.h ****                 break;
  92:customLooper.h ****             case State::PLAYING:
  93:customLooper.h ****                 sig = Read(pos_);
  94:customLooper.h ****                 /** This is a way of 'seamless looping'
  95:customLooper.h **** 				 ** The first N samps after recording is done are recorded with the input faded out. 
  96:customLooper.h **** 				 */
  97:customLooper.h ****                 if(win_idx_ < kWindowSamps - 1)
  98:customLooper.h ****                 {
  99:customLooper.h ****                     Write(pos_, sig + input * (1.f - win_));
 100:customLooper.h ****                     win_idx_ += 1;
 101:customLooper.h ****                 }
 102:customLooper.h **** 
 103:customLooper.h ****                 pos_ += inc;
 104:customLooper.h ****                 if(pos_ > recsize_ - 1)
 105:customLooper.h ****                 {
 106:customLooper.h ****                     pos_    = 0;
 107:customLooper.h ****                     hitloop = true;
 108:customLooper.h ****                 }
 109:customLooper.h ****                 else if(pos_ < 0)
 110:customLooper.h ****                 {
 111:customLooper.h ****                     pos_    = recsize_ - 1;
 112:customLooper.h ****                     hitloop = true;
 113:customLooper.h ****                 }
 114:customLooper.h ****                 if(hitloop)
 115:customLooper.h **** 
 116:customLooper.h ****                 {
 117:customLooper.h ****                     if(rec_queue_ && mode_ == Mode::ONETIME_DUB)
 118:customLooper.h ****                     {
 119:customLooper.h ****                         rec_queue_ = false;
 120:customLooper.h ****                         state_     = State::REC_DUB;
 121:customLooper.h ****                         win_idx_   = 0;
 122:customLooper.h ****                     }
 123:customLooper.h ****                 }
 124:customLooper.h ****                 break;
 125:customLooper.h ****             case State::REC_DUB:
 126:customLooper.h ****                 sig = Read(pos_);
 127:customLooper.h ****                 switch(mode_)
 128:customLooper.h ****                 {
 129:customLooper.h ****                     case Mode::REPLACE: Write(pos_, input * win_); break;
 130:customLooper.h ****                     case Mode::FRIPPERTRONICS:
 131:customLooper.h ****                         Write(pos_, (input * win_) + (sig * kFripDecayVal));
 132:customLooper.h ****                         break;
 133:customLooper.h ****                     case Mode::NORMAL:
 134:customLooper.h ****                     case Mode::ONETIME_DUB:
 135:customLooper.h ****                     default: Write(pos_, (input * win_) + sig); break;
ARM GAS  /var/folders/hl/qgbwny5j0fd895c2c41bk3tw0000gp/T//cc1L1gWC.s 			page 22


 136:customLooper.h ****                 }
 137:customLooper.h ****                 if(win_idx_ < kWindowSamps - 1)
 138:customLooper.h ****                     win_idx_ += 1;
 139:customLooper.h ****                 pos_ += inc;
 140:customLooper.h ****                 if(pos_ > recsize_ - 1)
 141:customLooper.h ****                 {
 142:customLooper.h ****                     pos_    = 0;
 143:customLooper.h ****                     hitloop = true;
 144:customLooper.h ****                 }
 145:customLooper.h ****                 else if(pos_ < 0)
 146:customLooper.h ****                 {
 147:customLooper.h ****                     pos_    = recsize_ - 1;
 148:customLooper.h ****                     hitloop = true;
 149:customLooper.h ****                 }
 150:customLooper.h ****                 if(hitloop && mode_ == Mode::ONETIME_DUB)
 151:customLooper.h ****                 {
 152:customLooper.h ****                     state_   = State::PLAYING;
 153:customLooper.h ****                     win_idx_ = 0;
 154:customLooper.h ****                 }
 155:customLooper.h **** 
 156:customLooper.h ****                 break;
 157:customLooper.h ****             default: break;
 158:customLooper.h ****         }
 159:customLooper.h ****         near_beginning_ = state_ != State::EMPTY && !Recording() && pos_ < 4800
 160:customLooper.h ****                               ? true
 161:customLooper.h ****                               : false;
 162:customLooper.h **** 
 163:customLooper.h ****         return sig;
 164:customLooper.h ****     }
 165:customLooper.h **** 
 166:customLooper.h ****     /** Effectively erases the buffer 
 167:customLooper.h ****      ** Note: This does not actually change what is in the buffer  */
 168:customLooper.h ****     inline void Clear() { state_ = State::EMPTY; }
 169:customLooper.h **** 
 170:customLooper.h ****     /** Engages/Disengages the recording, depending on Mode.
 171:customLooper.h ****      ** In all modes, the first time this is triggered a new loop will be started.
 172:customLooper.h ****      ** The second trigger will set the loop size, and begin playback of the loop. 
 173:customLooper.h ****     */
 174:customLooper.h ****     inline void TrigRecord()
 437              		.loc 10 174 17 view .LVU76
 438              	.LBB535:
 175:customLooper.h ****     {
 176:customLooper.h ****         switch(state_)
 439              		.loc 10 176 9 view .LVU77
 440              		.loc 10 176 16 is_stmt 0 view .LVU78
 441 0022 214B     		ldr	r3, .L34+12
 442              		.loc 10 176 9 view .LVU79
 443 0024 5A68     		ldr	r2, [r3, #4]
 444 0026 032A     		cmp	r2, #3
 445 0028 34D8     		bhi	.L19
 446 002a DFE802F0 		tbb	[pc, r2]
 447              	.L21:
 448 002e 22       		.byte	(.L23-.L21)/2
 449 002f 02       		.byte	(.L20-.L21)/2
 450 0030 2A       		.byte	(.L22-.L21)/2
 451 0031 02       		.byte	(.L20-.L21)/2
 452              		.p2align 1
ARM GAS  /var/folders/hl/qgbwny5j0fd895c2c41bk3tw0000gp/T//cc1L1gWC.s 			page 23


 453              	.L20:
 177:customLooper.h ****         {
 178:customLooper.h ****             case State::EMPTY:
 179:customLooper.h ****                 pos_        = 0;
 180:customLooper.h ****                 recsize_    = 0;
 181:customLooper.h ****                 state_      = State::REC_FIRST;
 182:customLooper.h ****                 half_speed_ = false;
 183:customLooper.h ****                 reverse_    = false;
 184:customLooper.h ****                 break;
 185:customLooper.h ****             case State::REC_FIRST:
 454              		.loc 10 185 13 is_stmt 1 view .LVU80
 186:customLooper.h ****             case State::REC_DUB: state_ = State::PLAYING; break;
 455              		.loc 10 186 13 view .LVU81
 456              		.loc 10 186 34 view .LVU82
 457              		.loc 10 186 41 is_stmt 0 view .LVU83
 458 0032 0222     		movs	r2, #2
 459 0034 5A60     		str	r2, [r3, #4]
 460              		.loc 10 186 59 is_stmt 1 view .LVU84
 461              	.L24:
 187:customLooper.h ****             case State::PLAYING:
 188:customLooper.h ****                 if(mode_ == Mode::ONETIME_DUB)
 189:customLooper.h ****                     rec_queue_ = true;
 190:customLooper.h ****                 else
 191:customLooper.h ****                     state_ = State::REC_DUB;
 192:customLooper.h ****                 break;
 193:customLooper.h ****             default: state_ = State::EMPTY; break;
 194:customLooper.h ****         }
 195:customLooper.h ****         if(!rec_queue_)
 462              		.loc 10 195 9 view .LVU85
 463 0036 93F82420 		ldrb	r2, [r3, #36]	@ zero_extendqisi2
 464 003a 02B9     		cbnz	r2, .L17
 196:customLooper.h ****             win_idx_ = 0;
 465              		.loc 10 196 13 view .LVU86
 466              		.loc 10 196 22 is_stmt 0 view .LVU87
 467 003c 9A61     		str	r2, [r3, #24]
 468              	.LVL24:
 469              	.L17:
 470              		.loc 10 196 22 view .LVU88
 471              	.LBE535:
 472              	.LBE534:
  23:Convolution.cpp ****     }
  24:Convolution.cpp **** 
  25:Convolution.cpp **** 	if(b2.TimeHeldMs() >= 1000.f) {
 473              		.loc 12 25 2 is_stmt 1 view .LVU89
 474              	.LBB537:
 475              	.LBI537:
  71:../../libDaisy//src/hid/switch.h **** 
  72:../../libDaisy//src/hid/switch.h ****     /** \return true if the button was just released */
  73:../../libDaisy//src/hid/switch.h ****     inline bool FallingEdge() const
  74:../../libDaisy//src/hid/switch.h ****     {
  75:../../libDaisy//src/hid/switch.h ****         return updated_ ? state_ == 0x80 : false;
  76:../../libDaisy//src/hid/switch.h ****     }
  77:../../libDaisy//src/hid/switch.h **** 
  78:../../libDaisy//src/hid/switch.h ****     /** \return true if the button is held down (or if the toggle is on) */
  79:../../libDaisy//src/hid/switch.h ****     inline bool Pressed() const { return state_ == 0xff; }
  80:../../libDaisy//src/hid/switch.h **** 
  81:../../libDaisy//src/hid/switch.h ****     /** \return true if the button is held down, without debouncing */
ARM GAS  /var/folders/hl/qgbwny5j0fd895c2c41bk3tw0000gp/T//cc1L1gWC.s 			page 24


  82:../../libDaisy//src/hid/switch.h ****     inline bool RawState()
  83:../../libDaisy//src/hid/switch.h ****     {
  84:../../libDaisy//src/hid/switch.h ****         return flip_ ? !dsy_gpio_read(&hw_gpio_) : dsy_gpio_read(&hw_gpio_);
  85:../../libDaisy//src/hid/switch.h ****     }
  86:../../libDaisy//src/hid/switch.h **** 
  87:../../libDaisy//src/hid/switch.h ****     /** \return the time in milliseconds that the button has been held (or toggle has been on) */
  88:../../libDaisy//src/hid/switch.h ****     inline float TimeHeldMs() const
 476              		.loc 1 88 18 view .LVU90
 477              	.LBB538:
  89:../../libDaisy//src/hid/switch.h ****     {
  90:../../libDaisy//src/hid/switch.h ****         return Pressed() ? System::GetNow() - rising_edge_time_ : 0;
 478              		.loc 1 90 9 view .LVU91
 479              	.LBB539:
 480              	.LBI539:
  79:../../libDaisy//src/hid/switch.h **** 
 481              		.loc 1 79 17 view .LVU92
 482              	.LBB540:
  79:../../libDaisy//src/hid/switch.h **** 
 483              		.loc 1 79 35 view .LVU93
  79:../../libDaisy//src/hid/switch.h **** 
 484              		.loc 1 79 42 is_stmt 0 view .LVU94
 485 003e 184C     		ldr	r4, .L34+4
 486              	.LBE540:
 487              	.LBE539:
 488              		.loc 1 90 26 view .LVU95
 489 0040 A37A     		ldrb	r3, [r4, #10]	@ zero_extendqisi2
 490 0042 FF2B     		cmp	r3, #255
 491 0044 00D0     		beq	.L32
 492              	.LVL25:
 493              	.L14:
 494              		.loc 1 90 26 view .LVU96
 495              	.LBE538:
 496              	.LBE537:
  26:Convolution.cpp ****         loop.Clear();
  27:Convolution.cpp ****     }
  28:Convolution.cpp **** }
 497              		.loc 12 28 1 view .LVU97
 498 0046 10BD     		pop	{r4, pc}
 499              	.LVL26:
 500              	.L32:
 501              	.LBB547:
 502              	.LBB545:
 503              	.LBB541:
 504              	.LBI541:
  88:../../libDaisy//src/hid/switch.h ****     {
 505              		.loc 1 88 18 is_stmt 1 view .LVU98
 506              	.LBB542:
 507              		.loc 1 90 42 is_stmt 0 view .LVU99
 508 0048 FFF7FEFF 		bl	_ZN5daisy6System6GetNowEv
 509              	.LVL27:
 510              		.loc 1 90 45 view .LVU100
 511 004c 07EE900A 		vmov	s15, r0	@ int
 512              		.loc 1 90 26 view .LVU101
 513 0050 D4ED036A 		vldr.32	s13, [r4, #12]
 514              		.loc 1 90 45 view .LVU102
 515 0054 F8EE677A 		vcvt.f32.u32	s15, s15
 516              	.LBE542:
ARM GAS  /var/folders/hl/qgbwny5j0fd895c2c41bk3tw0000gp/T//cc1L1gWC.s 			page 25


 517              	.LBE541:
 518              	.LBE545:
 519              	.LBE547:
  25:Convolution.cpp ****         loop.Clear();
 520              		.loc 12 25 2 view .LVU103
 521 0058 9FED147A 		vldr.32	s14, .L34+16
 522              	.LBB548:
 523              	.LBB546:
 524              	.LBB544:
 525              	.LBB543:
 526              		.loc 1 90 26 view .LVU104
 527 005c 77EEE67A 		vsub.f32	s15, s15, s13
 528              	.LBE543:
 529              	.LBE544:
 530              	.LBE546:
 531              	.LBE548:
  25:Convolution.cpp ****         loop.Clear();
 532              		.loc 12 25 2 view .LVU105
 533 0060 F4EEC77A 		vcmpe.f32	s15, s14
 534 0064 F1EE10FA 		vmrs	APSR_nzcv, FPSCR
 535 0068 EDDB     		blt	.L14
  26:Convolution.cpp ****         loop.Clear();
 536              		.loc 12 26 9 is_stmt 1 view .LVU106
 537              	.LVL28:
 538              	.LBB549:
 539              	.LBI549:
 168:customLooper.h **** 
 540              		.loc 10 168 17 view .LVU107
 541              	.LBB550:
 168:customLooper.h **** 
 542              		.loc 10 168 27 view .LVU108
 168:customLooper.h **** 
 543              		.loc 10 168 34 is_stmt 0 view .LVU109
 544 006a 0F4B     		ldr	r3, .L34+12
 545 006c 0022     		movs	r2, #0
 546 006e 5A60     		str	r2, [r3, #4]
 547              	.LVL29:
 168:customLooper.h **** 
 548              		.loc 10 168 34 view .LVU110
 549              	.LBE550:
 550              	.LBE549:
 551              		.loc 12 28 1 view .LVU111
 552 0070 10BD     		pop	{r4, pc}
 553              	.LVL30:
 554              	.L23:
 555              	.LBB551:
 556              	.LBB536:
 178:customLooper.h ****                 pos_        = 0;
 557              		.loc 10 178 13 is_stmt 1 view .LVU112
 179:customLooper.h ****                 recsize_    = 0;
 558              		.loc 10 179 17 view .LVU113
 180:customLooper.h ****                 state_      = State::REC_FIRST;
 559              		.loc 10 180 29 is_stmt 0 view .LVU114
 560 0072 0022     		movs	r2, #0
 179:customLooper.h ****                 recsize_    = 0;
 561              		.loc 10 179 29 view .LVU115
 562 0074 0020     		movs	r0, #0
ARM GAS  /var/folders/hl/qgbwny5j0fd895c2c41bk3tw0000gp/T//cc1L1gWC.s 			page 26


 181:customLooper.h ****                 half_speed_ = false;
 563              		.loc 10 181 29 view .LVU116
 564 0076 0121     		movs	r1, #1
 179:customLooper.h ****                 recsize_    = 0;
 565              		.loc 10 179 29 view .LVU117
 566 0078 1861     		str	r0, [r3, #16]	@ float
 180:customLooper.h ****                 state_      = State::REC_FIRST;
 567              		.loc 10 180 17 is_stmt 1 view .LVU118
 180:customLooper.h ****                 state_      = State::REC_FIRST;
 568              		.loc 10 180 29 is_stmt 0 view .LVU119
 569 007a 1A62     		str	r2, [r3, #32]
 181:customLooper.h ****                 half_speed_ = false;
 570              		.loc 10 181 17 is_stmt 1 view .LVU120
 181:customLooper.h ****                 half_speed_ = false;
 571              		.loc 10 181 29 is_stmt 0 view .LVU121
 572 007c 5960     		str	r1, [r3, #4]
 182:customLooper.h ****                 reverse_    = false;
 573              		.loc 10 182 17 is_stmt 1 view .LVU122
 183:customLooper.h ****                 break;
 574              		.loc 10 183 17 view .LVU123
 182:customLooper.h ****                 reverse_    = false;
 575              		.loc 10 182 29 is_stmt 0 view .LVU124
 576 007e 9A83     		strh	r2, [r3, #28]	@ movhi
 184:customLooper.h ****             case State::REC_FIRST:
 577              		.loc 10 184 17 is_stmt 1 view .LVU125
 578 0080 D9E7     		b	.L24
 579              	.L22:
 187:customLooper.h ****                 if(mode_ == Mode::ONETIME_DUB)
 580              		.loc 10 187 13 view .LVU126
 188:customLooper.h ****                     rec_queue_ = true;
 581              		.loc 10 188 17 view .LVU127
 582 0082 1A68     		ldr	r2, [r3]
 583 0084 012A     		cmp	r2, #1
 584 0086 02D0     		beq	.L33
 191:customLooper.h ****                 break;
 585              		.loc 10 191 21 view .LVU128
 191:customLooper.h ****                 break;
 586              		.loc 10 191 28 is_stmt 0 view .LVU129
 587 0088 0322     		movs	r2, #3
 588 008a 5A60     		str	r2, [r3, #4]
 589 008c D3E7     		b	.L24
 590              	.L33:
 189:customLooper.h ****                 else
 591              		.loc 10 189 21 is_stmt 1 view .LVU130
 189:customLooper.h ****                 else
 592              		.loc 10 189 32 is_stmt 0 view .LVU131
 593 008e 83F82420 		strb	r2, [r3, #36]
 195:customLooper.h ****             win_idx_ = 0;
 594              		.loc 10 195 9 is_stmt 1 view .LVU132
 595 0092 D4E7     		b	.L17
 596              	.L19:
 193:customLooper.h ****         }
 597              		.loc 10 193 13 view .LVU133
 193:customLooper.h ****         }
 598              		.loc 10 193 22 view .LVU134
 193:customLooper.h ****         }
 599              		.loc 10 193 29 is_stmt 0 view .LVU135
ARM GAS  /var/folders/hl/qgbwny5j0fd895c2c41bk3tw0000gp/T//cc1L1gWC.s 			page 27


 600 0094 0022     		movs	r2, #0
 601 0096 5A60     		str	r2, [r3, #4]
 193:customLooper.h ****         }
 602              		.loc 10 193 45 is_stmt 1 view .LVU136
 603 0098 CDE7     		b	.L24
 604              	.L35:
 605 009a 00BF     		.align	2
 606              	.L34:
 607 009c 00000000 		.word	.LANCHOR16
 608 00a0 00000000 		.word	.LANCHOR17
 609 00a4 B0010000 		.word	.LANCHOR18+432
 610 00a8 00000000 		.word	.LANCHOR19
 611 00ac 00007A44 		.word	1148846080
 612              	.LBE536:
 613              	.LBE551:
 614              		.cfi_endproc
 615              	.LFE5074:
 617              		.section	.text._Z13AudioCallbackPKPKfPPfj,"ax",%progbits
 618              		.align	1
 619              		.p2align 2,,3
 620              		.global	_Z13AudioCallbackPKPKfPPfj
 621              		.syntax unified
 622              		.thumb
 623              		.thumb_func
 625              	_Z13AudioCallbackPKPKfPPfj:
 626              	.LVL31:
 627              	.LFB5075:
  29:Convolution.cpp **** 
  30:Convolution.cpp **** void AudioCallback(AudioHandle::InputBuffer in, AudioHandle::OutputBuffer out, size_t size)
  31:Convolution.cpp **** {
 628              		.loc 12 31 1 view -0
 629              		.cfi_startproc
 630              		@ args = 0, pretend = 0, frame = 16
 631              		@ frame_needed = 0, uses_anonymous_args = 0
  32:Convolution.cpp **** 	hw.ProcessAllControls();
 632              		.loc 12 32 2 view .LVU138
 633              	.LBB620:
 634              	.LBI620:
  66:../../libDaisy//src/daisy_patch_sm.h **** 
  67:../../libDaisy//src/daisy_patch_sm.h ****         /** Initializes the memories, and core peripherals for the Daisy Patch SM */
  68:../../libDaisy//src/daisy_patch_sm.h ****         void Init();
  69:../../libDaisy//src/daisy_patch_sm.h **** 
  70:../../libDaisy//src/daisy_patch_sm.h ****         /** Starts a non-interleaving audio callback */
  71:../../libDaisy//src/daisy_patch_sm.h ****         void StartAudio(AudioHandle::AudioCallback cb);
  72:../../libDaisy//src/daisy_patch_sm.h **** 
  73:../../libDaisy//src/daisy_patch_sm.h ****         /** Starts an interleaving audio callback */
  74:../../libDaisy//src/daisy_patch_sm.h ****         void StartAudio(AudioHandle::InterleavingAudioCallback cb);
  75:../../libDaisy//src/daisy_patch_sm.h **** 
  76:../../libDaisy//src/daisy_patch_sm.h ****         /** Changes the callback that is executing.
  77:../../libDaisy//src/daisy_patch_sm.h ****          *  This may cause clicks if done while audio is processing.
  78:../../libDaisy//src/daisy_patch_sm.h ****          */
  79:../../libDaisy//src/daisy_patch_sm.h ****         void ChangeAudioCallback(AudioHandle::AudioCallback cb);
  80:../../libDaisy//src/daisy_patch_sm.h **** 
  81:../../libDaisy//src/daisy_patch_sm.h ****         /** Changes the callback that is executing.
  82:../../libDaisy//src/daisy_patch_sm.h ****          *  This may cause clicks if done while audio is processing.
  83:../../libDaisy//src/daisy_patch_sm.h ****          */
  84:../../libDaisy//src/daisy_patch_sm.h ****         void ChangeAudioCallback(AudioHandle::InterleavingAudioCallback cb);
ARM GAS  /var/folders/hl/qgbwny5j0fd895c2c41bk3tw0000gp/T//cc1L1gWC.s 			page 28


  85:../../libDaisy//src/daisy_patch_sm.h **** 
  86:../../libDaisy//src/daisy_patch_sm.h ****         /** Stops the transmission of audio. */
  87:../../libDaisy//src/daisy_patch_sm.h ****         void StopAudio();
  88:../../libDaisy//src/daisy_patch_sm.h **** 
  89:../../libDaisy//src/daisy_patch_sm.h ****         /** Sets the number of samples processed in an audio callback. 
  90:../../libDaisy//src/daisy_patch_sm.h ****          *  This will only take effect on the next invocation of `StartAudio`
  91:../../libDaisy//src/daisy_patch_sm.h ****          */
  92:../../libDaisy//src/daisy_patch_sm.h ****         void SetAudioBlockSize(size_t size);
  93:../../libDaisy//src/daisy_patch_sm.h **** 
  94:../../libDaisy//src/daisy_patch_sm.h ****         /** Sets the samplerate for the audio engine 
  95:../../libDaisy//src/daisy_patch_sm.h ****          *  This will set it to the closest valid samplerate. Options being:
  96:../../libDaisy//src/daisy_patch_sm.h ****          *  8kHz, 16kHz, 32kHz, 48kHz, and 96kHz
  97:../../libDaisy//src/daisy_patch_sm.h ****          */
  98:../../libDaisy//src/daisy_patch_sm.h ****         void SetAudioSampleRate(float sr);
  99:../../libDaisy//src/daisy_patch_sm.h **** 
 100:../../libDaisy//src/daisy_patch_sm.h ****         void SetAudioSampleRate(SaiHandle::Config::SampleRate sample_rate);
 101:../../libDaisy//src/daisy_patch_sm.h **** 
 102:../../libDaisy//src/daisy_patch_sm.h ****         /** Returns the number of samples processed in an audio callback */
 103:../../libDaisy//src/daisy_patch_sm.h ****         size_t AudioBlockSize();
 104:../../libDaisy//src/daisy_patch_sm.h **** 
 105:../../libDaisy//src/daisy_patch_sm.h ****         /** Returns the audio engine's samplerate in Hz */
 106:../../libDaisy//src/daisy_patch_sm.h ****         float AudioSampleRate();
 107:../../libDaisy//src/daisy_patch_sm.h **** 
 108:../../libDaisy//src/daisy_patch_sm.h ****         /** Returns the rate at which the audio callback will be called in Hz */
 109:../../libDaisy//src/daisy_patch_sm.h ****         float AudioCallbackRate();
 110:../../libDaisy//src/daisy_patch_sm.h **** 
 111:../../libDaisy//src/daisy_patch_sm.h ****         /** Starts the Control ADCs 
 112:../../libDaisy//src/daisy_patch_sm.h ****          * 
 113:../../libDaisy//src/daisy_patch_sm.h ****          *  This is started automatically when Init() is called.
 114:../../libDaisy//src/daisy_patch_sm.h ****          */
 115:../../libDaisy//src/daisy_patch_sm.h ****         void StartAdc();
 116:../../libDaisy//src/daisy_patch_sm.h **** 
 117:../../libDaisy//src/daisy_patch_sm.h ****         /** Stops the Control ADCs */
 118:../../libDaisy//src/daisy_patch_sm.h ****         void StopAdc();
 119:../../libDaisy//src/daisy_patch_sm.h **** 
 120:../../libDaisy//src/daisy_patch_sm.h ****         /** Reads and filters all of the analog control inputs */
 121:../../libDaisy//src/daisy_patch_sm.h ****         void ProcessAnalogControls();
 122:../../libDaisy//src/daisy_patch_sm.h **** 
 123:../../libDaisy//src/daisy_patch_sm.h ****         /** Reads and debounces any of the digital control inputs 
 124:../../libDaisy//src/daisy_patch_sm.h ****          *  This does nothing on this board at this time.
 125:../../libDaisy//src/daisy_patch_sm.h ****          */
 126:../../libDaisy//src/daisy_patch_sm.h ****         void ProcessDigitalControls();
 127:../../libDaisy//src/daisy_patch_sm.h **** 
 128:../../libDaisy//src/daisy_patch_sm.h ****         /** Does both of the above */
 129:../../libDaisy//src/daisy_patch_sm.h ****         void ProcessAllControls()
 635              		.loc 2 129 14 view .LVU139
 636              	.LBB621:
 130:../../libDaisy//src/daisy_patch_sm.h ****         {
 131:../../libDaisy//src/daisy_patch_sm.h ****             ProcessAnalogControls();
 637              		.loc 2 131 13 view .LVU140
 638              	.LBE621:
 639              	.LBE620:
  31:Convolution.cpp **** 	hw.ProcessAllControls();
 640              		.loc 12 31 1 is_stmt 0 view .LVU141
 641 0000 2DE9F04F 		push	{r4, r5, r6, r7, r8, r9, r10, fp, lr}
 642              		.cfi_def_cfa_offset 36
 643              		.cfi_offset 4, -36
ARM GAS  /var/folders/hl/qgbwny5j0fd895c2c41bk3tw0000gp/T//cc1L1gWC.s 			page 29


 644              		.cfi_offset 5, -32
 645              		.cfi_offset 6, -28
 646              		.cfi_offset 7, -24
 647              		.cfi_offset 8, -20
 648              		.cfi_offset 9, -16
 649              		.cfi_offset 10, -12
 650              		.cfi_offset 11, -8
 651              		.cfi_offset 14, -4
 652 0004 2DED048B 		vpush.64	{d8, d9}
 653              		.cfi_def_cfa_offset 52
 654              		.cfi_offset 80, -52
 655              		.cfi_offset 81, -48
 656              		.cfi_offset 82, -44
 657              		.cfi_offset 83, -40
 658 0008 87B0     		sub	sp, sp, #28
 659              		.cfi_def_cfa_offset 80
  31:Convolution.cpp **** 	hw.ProcessAllControls();
 660              		.loc 12 31 1 view .LVU142
 661 000a 0746     		mov	r7, r0
 662              	.LBB624:
 663              	.LBB622:
 664              		.loc 2 131 34 view .LVU143
 665 000c D248     		ldr	r0, .L89
 666              	.LVL32:
 667              		.loc 2 131 34 view .LVU144
 668              	.LBE622:
 669              	.LBE624:
  31:Convolution.cpp **** 	hw.ProcessAllControls();
 670              		.loc 12 31 1 view .LVU145
 671 000e 1446     		mov	r4, r2
 672 0010 0392     		str	r2, [sp, #12]
 673 0012 8846     		mov	r8, r1
 674              	.LBB625:
 675              	.LBB623:
 676              		.loc 2 131 34 view .LVU146
 677 0014 FFF7FEFF 		bl	_ZN5daisy8patch_sm12DaisyPatchSM21ProcessAnalogControlsEv
 678              	.LVL33:
 132:../../libDaisy//src/daisy_patch_sm.h ****             ProcessDigitalControls();
 679              		.loc 2 132 13 is_stmt 1 view .LVU147
 680              		.loc 2 132 35 is_stmt 0 view .LVU148
 681 0018 CF48     		ldr	r0, .L89
 682 001a FFF7FEFF 		bl	_ZN5daisy8patch_sm12DaisyPatchSM22ProcessDigitalControlsEv
 683              	.LVL34:
 684              		.loc 2 132 35 view .LVU149
 685              	.LBE623:
 686              	.LBE625:
  33:Convolution.cpp **** 	loopControl();
 687              		.loc 12 33 2 is_stmt 1 view .LVU150
 688              	.LBB626:
 689              	.LBB627:
 690              		.file 13 "../../DaisySP//Source/Utility/dsp.h"
   1:../../DaisySP//Source/Utility/dsp.h **** /** Helpful defines, functions, and other utilities for use in/with daisysp modules.
   2:../../DaisySP//Source/Utility/dsp.h **** */
   3:../../DaisySP//Source/Utility/dsp.h **** #pragma once
   4:../../DaisySP//Source/Utility/dsp.h **** #ifndef DSY_CORE_DSP
   5:../../DaisySP//Source/Utility/dsp.h **** #define DSY_CORE_DSP
   6:../../DaisySP//Source/Utility/dsp.h **** #include <cassert>
ARM GAS  /var/folders/hl/qgbwny5j0fd895c2c41bk3tw0000gp/T//cc1L1gWC.s 			page 30


   7:../../DaisySP//Source/Utility/dsp.h **** #include <cstdint>
   8:../../DaisySP//Source/Utility/dsp.h **** #include <random>
   9:../../DaisySP//Source/Utility/dsp.h **** #include <cmath>
  10:../../DaisySP//Source/Utility/dsp.h **** 
  11:../../DaisySP//Source/Utility/dsp.h **** /** PIs
  12:../../DaisySP//Source/Utility/dsp.h **** */
  13:../../DaisySP//Source/Utility/dsp.h **** #define PI_F 3.1415927410125732421875f
  14:../../DaisySP//Source/Utility/dsp.h **** #define TWOPI_F (2.0f * PI_F)
  15:../../DaisySP//Source/Utility/dsp.h **** #define HALFPI_F (PI_F * 0.5f)
  16:../../DaisySP//Source/Utility/dsp.h **** #define DSY_MIN(in, mn) (in < mn ? in : mn)
  17:../../DaisySP//Source/Utility/dsp.h **** #define DSY_MAX(in, mx) (in > mx ? in : mx)
  18:../../DaisySP//Source/Utility/dsp.h **** #define DSY_CLAMP(in, mn, mx) (DSY_MIN(DSY_MAX(in, mn), mx))
  19:../../DaisySP//Source/Utility/dsp.h **** #define DSY_COUNTOF(_arr) (sizeof(_arr) / sizeof(_arr[0]))
  20:../../DaisySP//Source/Utility/dsp.h **** 
  21:../../DaisySP//Source/Utility/dsp.h **** namespace daisysp
  22:../../DaisySP//Source/Utility/dsp.h **** {
  23:../../DaisySP//Source/Utility/dsp.h **** //Avoids division for random floats. e.g. rand() * kRandFrac
  24:../../DaisySP//Source/Utility/dsp.h **** static constexpr float kRandFrac = 1.f / (float)RAND_MAX;
  25:../../DaisySP//Source/Utility/dsp.h **** 
  26:../../DaisySP//Source/Utility/dsp.h **** //Convert from semitones to other units. e.g. 2 ^ (kOneTwelfth * x)
  27:../../DaisySP//Source/Utility/dsp.h **** static constexpr float kOneTwelfth = 1.f / 12.f;
  28:../../DaisySP//Source/Utility/dsp.h **** 
  29:../../DaisySP//Source/Utility/dsp.h **** /** efficient floating point min/max
  30:../../DaisySP//Source/Utility/dsp.h **** c/o stephen mccaul
  31:../../DaisySP//Source/Utility/dsp.h **** */
  32:../../DaisySP//Source/Utility/dsp.h **** inline float fmax(float a, float b)
  33:../../DaisySP//Source/Utility/dsp.h **** {
  34:../../DaisySP//Source/Utility/dsp.h ****     float r;
  35:../../DaisySP//Source/Utility/dsp.h **** #ifdef __arm__
  36:../../DaisySP//Source/Utility/dsp.h ****     asm("vmaxnm.f32 %[d], %[n], %[m]" : [d] "=t"(r) : [n] "t"(a), [m] "t"(b) :);
  37:../../DaisySP//Source/Utility/dsp.h **** #else
  38:../../DaisySP//Source/Utility/dsp.h ****     r = (a > b) ? a : b;
  39:../../DaisySP//Source/Utility/dsp.h **** #endif // __arm__
  40:../../DaisySP//Source/Utility/dsp.h ****     return r;
  41:../../DaisySP//Source/Utility/dsp.h **** }
  42:../../DaisySP//Source/Utility/dsp.h **** 
  43:../../DaisySP//Source/Utility/dsp.h **** inline float fmin(float a, float b)
  44:../../DaisySP//Source/Utility/dsp.h **** {
  45:../../DaisySP//Source/Utility/dsp.h ****     float r;
  46:../../DaisySP//Source/Utility/dsp.h **** #ifdef __arm__
  47:../../DaisySP//Source/Utility/dsp.h ****     asm("vminnm.f32 %[d], %[n], %[m]" : [d] "=t"(r) : [n] "t"(a), [m] "t"(b) :);
  48:../../DaisySP//Source/Utility/dsp.h **** #else
  49:../../DaisySP//Source/Utility/dsp.h ****     r = (a < b) ? a : b;
  50:../../DaisySP//Source/Utility/dsp.h **** #endif // __arm__
  51:../../DaisySP//Source/Utility/dsp.h ****     return r;
  52:../../DaisySP//Source/Utility/dsp.h **** }
  53:../../DaisySP//Source/Utility/dsp.h **** 
  54:../../DaisySP//Source/Utility/dsp.h **** /** quick fp clamp
  55:../../DaisySP//Source/Utility/dsp.h **** */
  56:../../DaisySP//Source/Utility/dsp.h **** inline float fclamp(float in, float min, float max)
  57:../../DaisySP//Source/Utility/dsp.h **** {
  58:../../DaisySP//Source/Utility/dsp.h ****     return fmin(fmax(in, min), max);
  59:../../DaisySP//Source/Utility/dsp.h **** }
  60:../../DaisySP//Source/Utility/dsp.h **** 
  61:../../DaisySP//Source/Utility/dsp.h **** /** From Musicdsp.org "Fast power and root estimates for 32bit floats)
  62:../../DaisySP//Source/Utility/dsp.h **** Original code by Stefan Stenzel
  63:../../DaisySP//Source/Utility/dsp.h **** These are approximations
ARM GAS  /var/folders/hl/qgbwny5j0fd895c2c41bk3tw0000gp/T//cc1L1gWC.s 			page 31


  64:../../DaisySP//Source/Utility/dsp.h **** */
  65:../../DaisySP//Source/Utility/dsp.h **** inline float fastpower(float f, int n)
  66:../../DaisySP//Source/Utility/dsp.h **** {
  67:../../DaisySP//Source/Utility/dsp.h ****     long *lp, l;
  68:../../DaisySP//Source/Utility/dsp.h ****     lp = (long *)(&f);
  69:../../DaisySP//Source/Utility/dsp.h ****     l  = *lp;
  70:../../DaisySP//Source/Utility/dsp.h ****     l -= 0x3F800000;
  71:../../DaisySP//Source/Utility/dsp.h ****     l <<= (n - 1);
  72:../../DaisySP//Source/Utility/dsp.h ****     l += 0x3F800000;
  73:../../DaisySP//Source/Utility/dsp.h ****     *lp = l;
  74:../../DaisySP//Source/Utility/dsp.h ****     return f;
  75:../../DaisySP//Source/Utility/dsp.h **** }
  76:../../DaisySP//Source/Utility/dsp.h **** 
  77:../../DaisySP//Source/Utility/dsp.h **** inline float fastroot(float f, int n)
  78:../../DaisySP//Source/Utility/dsp.h **** {
  79:../../DaisySP//Source/Utility/dsp.h ****     long *lp, l;
  80:../../DaisySP//Source/Utility/dsp.h ****     lp = (long *)(&f);
  81:../../DaisySP//Source/Utility/dsp.h ****     l  = *lp;
  82:../../DaisySP//Source/Utility/dsp.h ****     l -= 0x3F800000;
  83:../../DaisySP//Source/Utility/dsp.h ****     l >>= (n = 1);
  84:../../DaisySP//Source/Utility/dsp.h ****     l += 0x3F800000;
  85:../../DaisySP//Source/Utility/dsp.h ****     *lp = l;
  86:../../DaisySP//Source/Utility/dsp.h ****     return f;
  87:../../DaisySP//Source/Utility/dsp.h **** }
  88:../../DaisySP//Source/Utility/dsp.h **** 
  89:../../DaisySP//Source/Utility/dsp.h **** /** From http://openaudio.blogspot.com/2017/02/faster-log10-and-pow.html
  90:../../DaisySP//Source/Utility/dsp.h **** No approximation, pow10f(x) gives a 90% speed increase over powf(10.f, x)
  91:../../DaisySP//Source/Utility/dsp.h **** */
  92:../../DaisySP//Source/Utility/dsp.h **** inline float pow10f(float f)
  93:../../DaisySP//Source/Utility/dsp.h **** {
  94:../../DaisySP//Source/Utility/dsp.h ****     return expf(2.302585092994046f * f);
  95:../../DaisySP//Source/Utility/dsp.h **** }
  96:../../DaisySP//Source/Utility/dsp.h **** 
  97:../../DaisySP//Source/Utility/dsp.h **** /* Original code for fastlog2f by Dr. Paul Beckmann from the ARM community forum, adapted from the 
  98:../../DaisySP//Source/Utility/dsp.h **** About 25% performance increase over std::log10f
  99:../../DaisySP//Source/Utility/dsp.h **** */
 100:../../DaisySP//Source/Utility/dsp.h **** inline float fastlog2f(float f)
 101:../../DaisySP//Source/Utility/dsp.h **** {
 102:../../DaisySP//Source/Utility/dsp.h ****     float frac;
 103:../../DaisySP//Source/Utility/dsp.h ****     int   exp;
 104:../../DaisySP//Source/Utility/dsp.h ****     frac = frexpf(fabsf(f), &exp);
 105:../../DaisySP//Source/Utility/dsp.h ****     f    = 1.23149591368684f;
 106:../../DaisySP//Source/Utility/dsp.h ****     f *= frac;
 107:../../DaisySP//Source/Utility/dsp.h ****     f += -4.11852516267426f;
 108:../../DaisySP//Source/Utility/dsp.h ****     f *= frac;
 109:../../DaisySP//Source/Utility/dsp.h ****     f += 6.02197014179219f;
 110:../../DaisySP//Source/Utility/dsp.h ****     f *= frac;
 111:../../DaisySP//Source/Utility/dsp.h ****     f += -3.13396450166353f;
 112:../../DaisySP//Source/Utility/dsp.h ****     f += exp;
 113:../../DaisySP//Source/Utility/dsp.h ****     return (f);
 114:../../DaisySP//Source/Utility/dsp.h **** }
 115:../../DaisySP//Source/Utility/dsp.h **** 
 116:../../DaisySP//Source/Utility/dsp.h **** inline float fastlog10f(float f)
 117:../../DaisySP//Source/Utility/dsp.h **** {
 118:../../DaisySP//Source/Utility/dsp.h ****     return fastlog2f(f) * 0.3010299956639812f;
 119:../../DaisySP//Source/Utility/dsp.h **** }
 120:../../DaisySP//Source/Utility/dsp.h **** 
ARM GAS  /var/folders/hl/qgbwny5j0fd895c2c41bk3tw0000gp/T//cc1L1gWC.s 			page 32


 121:../../DaisySP//Source/Utility/dsp.h **** /** Midi to frequency helper
 122:../../DaisySP//Source/Utility/dsp.h **** */
 123:../../DaisySP//Source/Utility/dsp.h **** inline float mtof(float m)
 124:../../DaisySP//Source/Utility/dsp.h **** {
 125:../../DaisySP//Source/Utility/dsp.h ****     return powf(2, (m - 69.0f) / 12.0f) * 440.0f;
 126:../../DaisySP//Source/Utility/dsp.h **** }
 127:../../DaisySP//Source/Utility/dsp.h **** 
 128:../../DaisySP//Source/Utility/dsp.h **** 
 129:../../DaisySP//Source/Utility/dsp.h **** /** one pole lpf
 130:../../DaisySP//Source/Utility/dsp.h **** out is passed by reference, and must be retained between
 131:../../DaisySP//Source/Utility/dsp.h **** calls to properly filter the signal
 132:../../DaisySP//Source/Utility/dsp.h **** coeff can be calculated:
 133:../../DaisySP//Source/Utility/dsp.h **** coeff = 1.0 / (time * sample_rate) ; where time is in seconds
 134:../../DaisySP//Source/Utility/dsp.h **** */
 135:../../DaisySP//Source/Utility/dsp.h **** inline void fonepole(float &out, float in, float coeff)
 136:../../DaisySP//Source/Utility/dsp.h **** {
 137:../../DaisySP//Source/Utility/dsp.h ****     out += coeff * (in - out);
 138:../../DaisySP//Source/Utility/dsp.h **** }
 139:../../DaisySP//Source/Utility/dsp.h **** 
 140:../../DaisySP//Source/Utility/dsp.h **** /** Curves to use with the fmap function */
 141:../../DaisySP//Source/Utility/dsp.h **** enum class Mapping
 142:../../DaisySP//Source/Utility/dsp.h **** {
 143:../../DaisySP//Source/Utility/dsp.h ****     LINEAR,
 144:../../DaisySP//Source/Utility/dsp.h ****     EXP,
 145:../../DaisySP//Source/Utility/dsp.h ****     LOG,
 146:../../DaisySP//Source/Utility/dsp.h **** };
 147:../../DaisySP//Source/Utility/dsp.h **** 
 148:../../DaisySP//Source/Utility/dsp.h **** /** Maps a float between a specified range, using a specified curve. 
 149:../../DaisySP//Source/Utility/dsp.h ****  * 
 150:../../DaisySP//Source/Utility/dsp.h ****  *  \param in a value between 0 to 1 that will be mapped to the new range.
 151:../../DaisySP//Source/Utility/dsp.h ****  *  \param min the new minimum value
 152:../../DaisySP//Source/Utility/dsp.h ****  *  \param max the new maxmimum value
 153:../../DaisySP//Source/Utility/dsp.h ****  *  \param curve a Mapping Value to adjust the response curve of the transformation
 154:../../DaisySP//Source/Utility/dsp.h ****  *               defaults to Linear. @see Mapping
 155:../../DaisySP//Source/Utility/dsp.h ****  * 
 156:../../DaisySP//Source/Utility/dsp.h ****  *  When using the log curve min and max, must be greater than zero.
 157:../../DaisySP//Source/Utility/dsp.h ****  * 
 158:../../DaisySP//Source/Utility/dsp.h ****  *  \retval returns the transformed float within the new range.
 159:../../DaisySP//Source/Utility/dsp.h **** */
 160:../../DaisySP//Source/Utility/dsp.h **** inline float
 161:../../DaisySP//Source/Utility/dsp.h **** fmap(float in, float min, float max, Mapping curve = Mapping::LINEAR)
 162:../../DaisySP//Source/Utility/dsp.h **** {
 163:../../DaisySP//Source/Utility/dsp.h ****     switch(curve)
 164:../../DaisySP//Source/Utility/dsp.h ****     {
 165:../../DaisySP//Source/Utility/dsp.h ****         case Mapping::EXP:
 166:../../DaisySP//Source/Utility/dsp.h ****             return fclamp(min + (in * in) * (max - min), min, max);
 167:../../DaisySP//Source/Utility/dsp.h ****         case Mapping::LOG:
 168:../../DaisySP//Source/Utility/dsp.h ****         {
 169:../../DaisySP//Source/Utility/dsp.h ****             const float a = 1.f / log10f(max / min);
 170:../../DaisySP//Source/Utility/dsp.h ****             return fclamp(min * powf(10, in / a), min, max);
 171:../../DaisySP//Source/Utility/dsp.h ****         }
 172:../../DaisySP//Source/Utility/dsp.h ****         case Mapping::LINEAR:
 173:../../DaisySP//Source/Utility/dsp.h ****         default: return fclamp(min + in * (max - min), min, max);
 691              		.loc 13 173 31 is_stmt 0 view .LVU151
 692 001e 9FEDCF8A 		vldr.32	s16, .L89+4
 693              	.LBE627:
 694              	.LBE626:
ARM GAS  /var/folders/hl/qgbwny5j0fd895c2c41bk3tw0000gp/T//cc1L1gWC.s 			page 33


 695              		.loc 12 33 13 view .LVU152
 696 0022 FFF7FEFF 		bl	_Z11loopControlv
 697              	.LVL35:
  34:Convolution.cpp **** 	float in_level, loop_level, rev_feedback, rev_lpf, speed_level;
 698              		.loc 12 34 2 is_stmt 1 view .LVU153
  35:Convolution.cpp **** 
  36:Convolution.cpp **** 	in_level = hw.GetAdcValue(CV_4);
 699              		.loc 12 36 2 view .LVU154
 700              		.loc 12 36 27 is_stmt 0 view .LVU155
 701 0026 0321     		movs	r1, #3
 702 0028 CB48     		ldr	r0, .L89
 703 002a FFF7FEFF 		bl	_ZN5daisy8patch_sm12DaisyPatchSM11GetAdcValueEi
 704              	.LVL36:
  37:Convolution.cpp **** 	loop_level = hw.GetAdcValue(ADC_12);
 705              		.loc 12 37 29 view .LVU156
 706 002e 0B21     		movs	r1, #11
 707 0030 C948     		ldr	r0, .L89
  36:Convolution.cpp **** 	loop_level = hw.GetAdcValue(ADC_12);
 708              		.loc 12 36 27 view .LVU157
 709 0032 B0EE409A 		vmov.f32	s18, s0
 710              	.LVL37:
 711              		.loc 12 37 2 is_stmt 1 view .LVU158
 712              		.loc 12 37 29 is_stmt 0 view .LVU159
 713 0036 FFF7FEFF 		bl	_ZN5daisy8patch_sm12DaisyPatchSM11GetAdcValueEi
 714              	.LVL38:
  38:Convolution.cpp **** 
  39:Convolution.cpp **** 	rev_feedback = fmap(hw.GetAdcValue(CV_3), 0.3f, 0.99f);
 715              		.loc 12 39 21 view .LVU160
 716 003a 0221     		movs	r1, #2
 717 003c C648     		ldr	r0, .L89
  37:Convolution.cpp **** 
 718              		.loc 12 37 29 view .LVU161
 719 003e F0EE409A 		vmov.f32	s19, s0
 720              	.LVL39:
 721              		.loc 12 39 2 is_stmt 1 view .LVU162
 722              		.loc 12 39 21 is_stmt 0 view .LVU163
 723 0042 FFF7FEFF 		bl	_ZN5daisy8patch_sm12DaisyPatchSM11GetAdcValueEi
 724              	.LVL40:
 725              	.LBB640:
 726              	.LBI626:
 161:../../DaisySP//Source/Utility/dsp.h **** {
 727              		.loc 13 161 1 is_stmt 1 view .LVU164
 728              	.LBE640:
 163:../../DaisySP//Source/Utility/dsp.h ****     {
 729              		.loc 13 163 5 view .LVU165
 730              	.LBB641:
 731              	.LBB637:
 172:../../DaisySP//Source/Utility/dsp.h ****         default: return fclamp(min + in * (max - min), min, max);
 732              		.loc 13 172 9 view .LVU166
 733              		.loc 13 173 9 view .LVU167
 734              		.loc 13 173 18 view .LVU168
 735              		.loc 13 173 31 is_stmt 0 view .LVU169
 736 0046 F0EE487A 		vmov.f32	s15, s16
 737 004a DFEDC56A 		vldr.32	s13, .L89+8
 738              	.LBE637:
 739              	.LBE641:
  40:Convolution.cpp **** 	rev_lpf = fmap(hw.GetAdcValue(ADC_11), 1000.f, 19000.f, Mapping::LOG);
ARM GAS  /var/folders/hl/qgbwny5j0fd895c2c41bk3tw0000gp/T//cc1L1gWC.s 			page 34


 740              		.loc 12 40 16 view .LVU170
 741 004e 0A21     		movs	r1, #10
 742 0050 C148     		ldr	r0, .L89
 743              	.LBB642:
 744              	.LBB638:
 745              	.LBB628:
 746              	.LBB629:
 747              	.LBB630:
  47:../../DaisySP//Source/Utility/dsp.h **** #else
 748              		.loc 13 47 5 view .LVU171
 749 0052 9FEDC47A 		vldr.32	s14, .L89+12
 750              	.LBE630:
 751              	.LBE629:
 752              	.LBE628:
 753              		.loc 13 173 31 view .LVU172
 754 0056 E0EE267A 		vfma.f32	s15, s0, s13
 755              	.LVL41:
 756              	.LBB635:
 757              	.LBI628:
  56:../../DaisySP//Source/Utility/dsp.h **** {
 758              		.loc 13 56 14 is_stmt 1 view .LVU173
 759              	.LBE635:
 760              	.LBE638:
 761              	.LBE642:
  58:../../DaisySP//Source/Utility/dsp.h **** }
 762              		.loc 13 58 5 view .LVU174
 763              	.LBB643:
 764              	.LBB639:
 765              	.LBB636:
 766              	.LBB632:
 767              	.LBI632:
  32:../../DaisySP//Source/Utility/dsp.h **** {
 768              		.loc 13 32 14 view .LVU175
 769              	.LBB633:
  34:../../DaisySP//Source/Utility/dsp.h **** #ifdef __arm__
 770              		.loc 13 34 5 view .LVU176
  36:../../DaisySP//Source/Utility/dsp.h **** #else
 771              		.loc 13 36 5 view .LVU177
 772              		.syntax unified
 773              	@ 36 "../../DaisySP//Source/Utility/dsp.h" 1
 774 005a C7FE887A 		vmaxnm.f32 s15, s15, s16
 775              	@ 0 "" 2
 776              	.LVL42:
  40:../../DaisySP//Source/Utility/dsp.h **** }
 777              		.loc 13 40 5 view .LVU178
  40:../../DaisySP//Source/Utility/dsp.h **** }
 778              		.loc 13 40 5 is_stmt 0 view .LVU179
 779              		.thumb
 780              		.syntax unified
 781              	.LBE633:
 782              	.LBE632:
 783              	.LBB634:
 784              	.LBI629:
  43:../../DaisySP//Source/Utility/dsp.h **** {
 785              		.loc 13 43 14 is_stmt 1 view .LVU180
 786              	.LBB631:
  45:../../DaisySP//Source/Utility/dsp.h **** #ifdef __arm__
ARM GAS  /var/folders/hl/qgbwny5j0fd895c2c41bk3tw0000gp/T//cc1L1gWC.s 			page 35


 787              		.loc 13 45 5 view .LVU181
  47:../../DaisySP//Source/Utility/dsp.h **** #else
 788              		.loc 13 47 5 view .LVU182
 789              		.syntax unified
 790              	@ 47 "../../DaisySP//Source/Utility/dsp.h" 1
 791 005e 87FEC78A 		vminnm.f32 s16, s15, s14
 792              	@ 0 "" 2
 793              	.LVL43:
  51:../../DaisySP//Source/Utility/dsp.h **** }
 794              		.loc 13 51 5 view .LVU183
  51:../../DaisySP//Source/Utility/dsp.h **** }
 795              		.loc 13 51 5 is_stmt 0 view .LVU184
 796              		.thumb
 797              		.syntax unified
 798              	.LBE631:
 799              	.LBE634:
 800              	.LBE636:
 801              	.LBE639:
 802              	.LBE643:
 803              		.loc 12 40 2 is_stmt 1 view .LVU185
 804              		.loc 12 40 16 is_stmt 0 view .LVU186
 805 0062 FFF7FEFF 		bl	_ZN5daisy8patch_sm12DaisyPatchSM11GetAdcValueEi
 806              	.LVL44:
 807 0066 F0EE400A 		vmov.f32	s1, s0
 808              	.LVL45:
 809              	.LBB644:
 810              	.LBI644:
 161:../../DaisySP//Source/Utility/dsp.h **** {
 811              		.loc 13 161 1 is_stmt 1 view .LVU187
 812              	.LBE644:
 163:../../DaisySP//Source/Utility/dsp.h ****     {
 813              		.loc 13 163 5 view .LVU188
 814              	.LBB666:
 815              	.LBB645:
 816              	.LBI645:
 161:../../DaisySP//Source/Utility/dsp.h **** {
 817              		.loc 13 161 1 view .LVU189
 161:../../DaisySP//Source/Utility/dsp.h **** {
 818              		.loc 13 161 1 is_stmt 0 view .LVU190
 819              	.LBE645:
 820              	.LBE666:
 167:../../DaisySP//Source/Utility/dsp.h ****         {
 821              		.loc 13 167 9 is_stmt 1 view .LVU191
 168:../../DaisySP//Source/Utility/dsp.h ****             const float a = 1.f / log10f(max / min);
 822              		.loc 13 168 9 view .LVU192
 823              	.LBB667:
 824              	.LBB662:
 825              	.LBB646:
 169:../../DaisySP//Source/Utility/dsp.h ****             return fclamp(min * powf(10, in / a), min, max);
 826              		.loc 13 169 13 view .LVU193
 170:../../DaisySP//Source/Utility/dsp.h ****         }
 827              		.loc 13 170 13 view .LVU194
 170:../../DaisySP//Source/Utility/dsp.h ****         }
 828              		.loc 13 170 37 is_stmt 0 view .LVU195
 829 006a DFEDBF7A 		vldr.32	s15, .L89+16
 830 006e B2EE040A 		vmov.f32	s0, #1.0e+1
 831              	.LVL46:
ARM GAS  /var/folders/hl/qgbwny5j0fd895c2c41bk3tw0000gp/T//cc1L1gWC.s 			page 36


 170:../../DaisySP//Source/Utility/dsp.h ****         }
 832              		.loc 13 170 37 view .LVU196
 833 0072 C0EEA70A 		vdiv.f32	s1, s1, s15
 834              	.LVL47:
 170:../../DaisySP//Source/Utility/dsp.h ****         }
 835              		.loc 13 170 37 view .LVU197
 836 0076 FFF7FEFF 		bl	powf
 837              	.LVL48:
 838              	.LBB647:
 839              	.LBI647:
  56:../../DaisySP//Source/Utility/dsp.h **** {
 840              		.loc 13 56 14 is_stmt 1 view .LVU198
 841              	.LBE647:
 842              	.LBE646:
 843              	.LBE662:
 844              	.LBE667:
  58:../../DaisySP//Source/Utility/dsp.h **** }
 845              		.loc 13 58 5 view .LVU199
 846              	.LBB668:
 847              	.LBB663:
 848              	.LBB659:
 849              	.LBB656:
 850              	.LBB648:
 851              	.LBI648:
  32:../../DaisySP//Source/Utility/dsp.h **** {
 852              		.loc 13 32 14 view .LVU200
 853              	.LBB649:
  34:../../DaisySP//Source/Utility/dsp.h **** #ifdef __arm__
 854              		.loc 13 34 5 view .LVU201
  36:../../DaisySP//Source/Utility/dsp.h **** #else
 855              		.loc 13 36 5 view .LVU202
 856              	.LBE649:
 857              	.LBE648:
 858              	.LBE656:
 170:../../DaisySP//Source/Utility/dsp.h ****         }
 859              		.loc 13 170 26 is_stmt 0 view .LVU203
 860 007a DFEDBC7A 		vldr.32	s15, .L89+20
 861              	.LBE659:
 862              	.LBE663:
 863              	.LBE668:
 864              	.LBB669:
 865              	.LBB670:
  42:../../DaisySP//Source/Effects/reverbsc.h ****     /** Initializes the reverb module, and sets the sample_rate at which the Process function will 
  43:../../DaisySP//Source/Effects/reverbsc.h ****         Returns 0 if all good, or 1 if it runs out of delay times exceed maximum allowed.
  44:../../DaisySP//Source/Effects/reverbsc.h ****     */
  45:../../DaisySP//Source/Effects/reverbsc.h ****     int Init(float sample_rate);
  46:../../DaisySP//Source/Effects/reverbsc.h **** 
  47:../../DaisySP//Source/Effects/reverbsc.h ****     /** Process the input through the reverb, and updates values of out1, and out2 with the new pro
  48:../../DaisySP//Source/Effects/reverbsc.h ****     */
  49:../../DaisySP//Source/Effects/reverbsc.h ****     int Process(const float &in1, const float &in2, float *out1, float *out2);
  50:../../DaisySP//Source/Effects/reverbsc.h **** 
  51:../../DaisySP//Source/Effects/reverbsc.h ****     /** controls the reverb time. reverb tail becomes infinite when set to 1.0
  52:../../DaisySP//Source/Effects/reverbsc.h ****         \param fb - sets reverb time. range: 0.0 to 1.0
  53:../../DaisySP//Source/Effects/reverbsc.h ****     */
  54:../../DaisySP//Source/Effects/reverbsc.h ****     inline void SetFeedback(const float &fb) { feedback_ = fb; }
 866              		.loc 9 54 58 view .LVU204
 867 007e BC4B     		ldr	r3, .L89+24
ARM GAS  /var/folders/hl/qgbwny5j0fd895c2c41bk3tw0000gp/T//cc1L1gWC.s 			page 37


 868              	.LBE670:
 869              	.LBE669:
  41:Convolution.cpp **** 
  42:Convolution.cpp **** 	rev.SetFeedback(rev_feedback);
  43:Convolution.cpp **** 	rev.SetLpFreq(rev_lpf);
  44:Convolution.cpp **** 
  45:Convolution.cpp **** 	speed_level = fmap(hw.GetAdcValue(CV_1), 0.0f, 2.0f);
 870              		.loc 12 45 20 view .LVU205
 871 0080 0021     		movs	r1, #0
 872 0082 B548     		ldr	r0, .L89
 873              	.LBB673:
 874              	.LBB664:
 875              	.LBB660:
 876              	.LBB657:
 877              	.LBB651:
 878              	.LBB652:
  47:../../DaisySP//Source/Utility/dsp.h **** #else
 879              		.loc 13 47 5 view .LVU206
 880 0084 9FEDBB7A 		vldr.32	s14, .L89+28
 881              	.LBE652:
 882              	.LBE651:
 883              	.LBE657:
 170:../../DaisySP//Source/Utility/dsp.h ****         }
 884              		.loc 13 170 26 view .LVU207
 885 0088 20EE270A 		vmul.f32	s0, s0, s15
 886              	.LVL49:
 170:../../DaisySP//Source/Utility/dsp.h ****         }
 887              		.loc 13 170 26 view .LVU208
 888              	.LBE660:
 889              	.LBE664:
 890              	.LBE673:
 891              	.LBB674:
 892              	.LBB671:
 893              		.loc 9 54 58 view .LVU209
 894 008c 83ED008A 		vstr.32	s16, [r3]
 895              	.LBE671:
 896              	.LBE674:
 897              	.LBB675:
 898              	.LBB665:
 899              	.LBB661:
 900              	.LBB658:
 901              	.LBB654:
 902              	.LBB650:
  36:../../DaisySP//Source/Utility/dsp.h **** #else
 903              		.loc 13 36 5 view .LVU210
 904              		.syntax unified
 905              	@ 36 "../../DaisySP//Source/Utility/dsp.h" 1
 906 0090 C0FE277A 		vmaxnm.f32 s15, s0, s15
 907              	@ 0 "" 2
 908              	.LVL50:
  40:../../DaisySP//Source/Utility/dsp.h **** }
 909              		.loc 13 40 5 is_stmt 1 view .LVU211
  40:../../DaisySP//Source/Utility/dsp.h **** }
 910              		.loc 13 40 5 is_stmt 0 view .LVU212
 911              		.thumb
 912              		.syntax unified
 913              	.LBE650:
ARM GAS  /var/folders/hl/qgbwny5j0fd895c2c41bk3tw0000gp/T//cc1L1gWC.s 			page 38


 914              	.LBE654:
 915              	.LBB655:
 916              	.LBI651:
  43:../../DaisySP//Source/Utility/dsp.h **** {
 917              		.loc 13 43 14 is_stmt 1 view .LVU213
 918              	.LBB653:
  45:../../DaisySP//Source/Utility/dsp.h **** #ifdef __arm__
 919              		.loc 13 45 5 view .LVU214
  47:../../DaisySP//Source/Utility/dsp.h **** #else
 920              		.loc 13 47 5 view .LVU215
 921              		.syntax unified
 922              	@ 47 "../../DaisySP//Source/Utility/dsp.h" 1
 923 0094 C7FEC77A 		vminnm.f32 s15, s15, s14
 924              	@ 0 "" 2
 925              	.LVL51:
  51:../../DaisySP//Source/Utility/dsp.h **** }
 926              		.loc 13 51 5 view .LVU216
  51:../../DaisySP//Source/Utility/dsp.h **** }
 927              		.loc 13 51 5 is_stmt 0 view .LVU217
 928              		.thumb
 929              		.syntax unified
 930              	.LBE653:
 931              	.LBE655:
 932              	.LBE658:
 933              	.LBE661:
 934              	.LBE665:
 935              	.LBE675:
  42:Convolution.cpp **** 	rev.SetLpFreq(rev_lpf);
 936              		.loc 12 42 2 is_stmt 1 view .LVU218
 937              	.LBB676:
 938              	.LBI669:
 939              		.loc 9 54 17 view .LVU219
 940              	.LBB672:
 941              		.loc 9 54 48 view .LVU220
 942              		.loc 9 54 48 is_stmt 0 view .LVU221
 943              	.LBE672:
 944              	.LBE676:
  43:Convolution.cpp **** 
 945              		.loc 12 43 2 is_stmt 1 view .LVU222
 946              	.LBB677:
 947              	.LBI677:
  55:../../DaisySP//Source/Effects/reverbsc.h ****     /** controls the internal dampening filter's cutoff frequency.
  56:../../DaisySP//Source/Effects/reverbsc.h ****         \param freq - low pass frequency. range: 0.0 to sample_rate / 2
  57:../../DaisySP//Source/Effects/reverbsc.h ****     */
  58:../../DaisySP//Source/Effects/reverbsc.h ****     inline void SetLpFreq(const float &freq) { lpfreq_ = freq; }
 948              		.loc 9 58 17 view .LVU223
 949              	.LBB678:
 950              		.loc 9 58 48 view .LVU224
 951              		.loc 9 58 56 is_stmt 0 view .LVU225
 952 0098 C3ED017A 		vstr.32	s15, [r3, #4]
 953              	.LVL52:
 954              		.loc 9 58 56 view .LVU226
 955              	.LBE678:
 956              	.LBE677:
 957              		.loc 12 45 2 is_stmt 1 view .LVU227
 958              		.loc 12 45 20 is_stmt 0 view .LVU228
 959 009c FFF7FEFF 		bl	_ZN5daisy8patch_sm12DaisyPatchSM11GetAdcValueEi
ARM GAS  /var/folders/hl/qgbwny5j0fd895c2c41bk3tw0000gp/T//cc1L1gWC.s 			page 39


 960              	.LVL53:
 961              	.LBB679:
 962              	.LBI679:
 161:../../DaisySP//Source/Utility/dsp.h **** {
 963              		.loc 13 161 1 is_stmt 1 view .LVU229
 964              	.LBE679:
 163:../../DaisySP//Source/Utility/dsp.h ****     {
 965              		.loc 13 163 5 view .LVU230
 966              	.LBB688:
 967              	.LBB680:
 172:../../DaisySP//Source/Utility/dsp.h ****         default: return fclamp(min + in * (max - min), min, max);
 968              		.loc 13 172 9 view .LVU231
 969              		.loc 13 173 9 view .LVU232
 970              		.loc 13 173 18 view .LVU233
 971              	.LBB681:
 972              	.LBI681:
  56:../../DaisySP//Source/Utility/dsp.h **** {
 973              		.loc 13 56 14 view .LVU234
 974              	.LBE681:
 975              	.LBE680:
 976              	.LBE688:
  58:../../DaisySP//Source/Utility/dsp.h **** }
 977              		.loc 13 58 5 view .LVU235
 978              	.LBB689:
 979              	.LBB687:
 980              	.LBB686:
 981              	.LBB682:
 982              	.LBI682:
  32:../../DaisySP//Source/Utility/dsp.h **** {
 983              		.loc 13 32 14 view .LVU236
 984              	.LBB683:
  34:../../DaisySP//Source/Utility/dsp.h **** #ifdef __arm__
 985              		.loc 13 34 5 view .LVU237
  36:../../DaisySP//Source/Utility/dsp.h **** #else
 986              		.loc 13 36 5 view .LVU238
  40:../../DaisySP//Source/Utility/dsp.h **** }
 987              		.loc 13 40 5 view .LVU239
  40:../../DaisySP//Source/Utility/dsp.h **** }
 988              		.loc 13 40 5 is_stmt 0 view .LVU240
 989              	.LBE683:
 990              	.LBE682:
 991              	.LBB684:
 992              	.LBI684:
  43:../../DaisySP//Source/Utility/dsp.h **** {
 993              		.loc 13 43 14 is_stmt 1 view .LVU241
 994              	.LBB685:
  45:../../DaisySP//Source/Utility/dsp.h **** #ifdef __arm__
 995              		.loc 13 45 5 view .LVU242
  47:../../DaisySP//Source/Utility/dsp.h **** #else
 996              		.loc 13 47 5 view .LVU243
  51:../../DaisySP//Source/Utility/dsp.h **** }
 997              		.loc 13 51 5 view .LVU244
  51:../../DaisySP//Source/Utility/dsp.h **** }
 998              		.loc 13 51 5 is_stmt 0 view .LVU245
 999              	.LBE685:
 1000              	.LBE684:
 1001              	.LBE686:
ARM GAS  /var/folders/hl/qgbwny5j0fd895c2c41bk3tw0000gp/T//cc1L1gWC.s 			page 40


 1002              	.LBE687:
 1003              	.LBE689:
  46:Convolution.cpp **** 	loop.setSpeed(speed_level);
 1004              		.loc 12 46 2 is_stmt 1 view .LVU246
 197:customLooper.h ****     }
 198:customLooper.h **** 
 199:customLooper.h ****     /** Returns true if the looper is currently being written to. */
 200:customLooper.h ****     inline const bool Recording() const
 201:customLooper.h ****     {
 202:customLooper.h ****         return state_ == State::REC_DUB || state_ == State::REC_FIRST;
 203:customLooper.h ****     }
 204:customLooper.h **** 
 205:customLooper.h ****     inline const bool RecordingQueued() const { return rec_queue_; }
 206:customLooper.h **** 
 207:customLooper.h ****     /** Increments the Mode by one step useful for buttons, etc. that need to step through the Loop
 208:customLooper.h ****     inline void IncrementMode()
 209:customLooper.h ****     {
 210:customLooper.h ****         int m = static_cast<int>(mode_);
 211:customLooper.h ****         m     = m + 1;
 212:customLooper.h ****         if(m > kNumModes - 1)
 213:customLooper.h ****             m = 0;
 214:customLooper.h ****         mode_ = static_cast<Mode>(m);
 215:customLooper.h ****     }
 216:customLooper.h **** 
 217:customLooper.h ****     /** Sets the recording mode to the specified Mode. */
 218:customLooper.h ****     inline void SetMode(Mode mode) { mode_ = mode; }
 219:customLooper.h **** 
 220:customLooper.h ****     /** Returns the specific recording mode that is currently set. */
 221:customLooper.h ****     inline const Mode GetMode() const { return mode_; }
 222:customLooper.h **** 
 223:customLooper.h ****     inline void ToggleReverse() { reverse_ = !reverse_; }
 224:customLooper.h ****     inline void SetReverse(bool state) { reverse_ = state; }
 225:customLooper.h ****     inline bool GetReverse() const { return reverse_; }
 226:customLooper.h **** 
 227:customLooper.h ****     inline void ToggleHalfSpeed() { half_speed_ = !half_speed_; }
 228:customLooper.h ****     inline void SetHalfSpeed(bool state) { half_speed_ = state; }
 229:customLooper.h ****     inline bool GetHalfSpeed() const { return half_speed_; }
 230:customLooper.h **** 
 231:customLooper.h ****     inline bool IsNearBeginning() { return near_beginning_; }
 232:customLooper.h ****     
 233:customLooper.h ****     /** return pair of booleans indicating if loop position is at the beginning or halfway point */
 234:customLooper.h ****     std::pair<bool, bool> gateLoop() {
 235:customLooper.h ****         bool is_start = false;
 236:customLooper.h ****         bool is_halfway = false;
 237:customLooper.h ****     
 238:customLooper.h ****         if(state_ != State::EMPTY && pos_ == 0){
 239:customLooper.h ****             is_start = true;
 240:customLooper.h ****         } else {
 241:customLooper.h ****             is_start = false;
 242:customLooper.h ****         }
 243:customLooper.h ****         if(state_ != State::EMPTY && pos_ == recsize_ / 2){
 244:customLooper.h ****             is_halfway = true;
 245:customLooper.h ****         } else {
 246:customLooper.h ****             is_halfway = false;
 247:customLooper.h ****         }
 248:customLooper.h ****         
 249:customLooper.h ****         return std::make_pair(is_start, is_halfway);
ARM GAS  /var/folders/hl/qgbwny5j0fd895c2c41bk3tw0000gp/T//cc1L1gWC.s 			page 41


 250:customLooper.h ****     }
 251:customLooper.h **** 
 252:customLooper.h ****     /** to do: test playback speed adjustment 
 253:customLooper.h ****      * \@param speed_factor works 0.0 to ???, where 1.0 is normal speed, anything lower is slower, 
 254:customLooper.h ****     */
 255:customLooper.h ****     float setSpeed(float speed_factor)
 256:customLooper.h ****     {
 257:customLooper.h ****         float inc = 1.f;
 1005              		.loc 10 257 9 view .LVU247
 258:customLooper.h ****         if(half_speed_)
 1006              		.loc 10 258 9 view .LVU248
 259:customLooper.h ****             inc *= 0.5f;
 260:customLooper.h ****         inc *= speed_factor;
 1007              		.loc 10 260 9 view .LVU249
 261:customLooper.h ****         return reverse_ ? -inc : inc;
 1008              		.loc 10 261 9 view .LVU250
 1009              	.LBB690:
  47:Convolution.cpp **** 	
  48:Convolution.cpp **** 	for (size_t i = 0; i < size; i++)
 1010              		.loc 12 48 23 view .LVU251
 1011 00a0 002C     		cmp	r4, #0
 1012 00a2 75D0     		beq	.L36
 1013 00a4 0025     		movs	r5, #0
 1014 00a6 B44C     		ldr	r4, .L89+32
 1015              	.LVL54:
 1016              		.loc 12 48 23 is_stmt 0 view .LVU252
 1017 00a8 05AE     		add	r6, sp, #20
 1018              	.LVL55:
 1019              	.L37:
 1020              	.LBB691:
  49:Convolution.cpp **** 	{
  50:Convolution.cpp **** 		float inputs = (IN_L[i] + IN_R[i]) * in_level;
 1021              		.loc 12 50 3 is_stmt 1 discriminator 2 view .LVU253
 1022              	.LBB692:
 1023              	.LBB693:
  71:customLooper.h ****                   ? 1.f
 1024              		.loc 10 71 15 is_stmt 0 discriminator 2 view .LVU254
 1025 00aa D4F80490 		ldr	r9, [r4, #4]
 1026 00ae 4FEA850A 		lsl	r10, r5, #2
 1027              	.LBE693:
 1028              	.LBE692:
 1029              		.loc 12 50 35 discriminator 2 view .LVU255
 1030 00b2 D7E90023 		ldrd	r2, r3, [r7]
 1031              	.LBB758:
 1032              	.LBB754:
  72:customLooper.h ****                   : GetIncrementSize();
 1033              		.loc 10 72 19 discriminator 2 view .LVU256
 1034 00b6 B9F1010F 		cmp	r9, #1
 1035              	.LBE754:
 1036              	.LBE758:
 1037              		.loc 12 50 25 discriminator 2 view .LVU257
 1038 00ba 02EB8502 		add	r2, r2, r5, lsl #2
 1039              		.loc 12 50 35 discriminator 2 view .LVU258
 1040 00be 03EB8503 		add	r3, r3, r5, lsl #2
 1041              		.loc 12 50 27 discriminator 2 view .LVU259
 1042 00c2 92ED008A 		vldr.32	s16, [r2]
 1043 00c6 D3ED007A 		vldr.32	s15, [r3]
ARM GAS  /var/folders/hl/qgbwny5j0fd895c2c41bk3tw0000gp/T//cc1L1gWC.s 			page 42


 1044 00ca 38EE278A 		vadd.f32	s16, s16, s15
 1045              		.loc 12 50 9 discriminator 2 view .LVU260
 1046 00ce 28EE098A 		vmul.f32	s16, s16, s18
 1047              	.LVL56:
  51:Convolution.cpp **** 		float sig = loop.Process(inputs) * loop_level + inputs;
 1048              		.loc 12 51 3 is_stmt 1 discriminator 2 view .LVU261
 1049              	.LBB759:
 1050              	.LBI692:
  65:customLooper.h ****     {
 1051              		.loc 10 65 11 discriminator 2 view .LVU262
 1052              	.LBB755:
  67:customLooper.h ****         float inc;
 1053              		.loc 10 67 9 discriminator 2 view .LVU263
  68:customLooper.h ****         bool  hitloop = false;
 1054              		.loc 10 68 9 discriminator 2 view .LVU264
  69:customLooper.h ****         // Record forward at normal speed during the first loop no matter what.
 1055              		.loc 10 69 9 discriminator 2 view .LVU265
  71:customLooper.h ****                   ? 1.f
 1056              		.loc 10 71 9 discriminator 2 view .LVU266
  72:customLooper.h ****                   : GetIncrementSize();
 1057              		.loc 10 72 19 is_stmt 0 discriminator 2 view .LVU267
 1058 00d2 2CD9     		bls	.L38
 1059              	.LVL57:
 1060              	.LBB694:
 1061              	.LBI694:
 262:customLooper.h ****     }
 263:customLooper.h **** 
 264:customLooper.h ****   private:
 265:customLooper.h ****     /** Constants */
 266:customLooper.h **** 
 267:customLooper.h ****     /** Decay value for frippertronics mode is sin(PI / 4) */
 268:customLooper.h ****     static constexpr float kFripDecayVal      = 0.7071067811865476f;
 269:customLooper.h ****     static constexpr int   kNumModes          = 4;
 270:customLooper.h ****     static constexpr int   kNumPlaybackSpeeds = 3;
 271:customLooper.h ****     static constexpr int   kWindowSamps       = 1200;
 272:customLooper.h ****     static constexpr float kWindowFactor      = (1.f / kWindowSamps);
 273:customLooper.h **** 
 274:customLooper.h ****     /** Private Member Functions */
 275:customLooper.h ****     float GetIncrementSize()
 1062              		.loc 10 275 11 is_stmt 1 view .LVU268
 1063              	.LBB695:
 276:customLooper.h ****     {
 277:customLooper.h ****         float inc = 1.f;
 1064              		.loc 10 277 9 view .LVU269
 278:customLooper.h ****         if(half_speed_)
 1065              		.loc 10 278 9 view .LVU270
 1066 00d4 227F     		ldrb	r2, [r4, #28]	@ zero_extendqisi2
 279:customLooper.h ****             inc = 0.5f;
 1067              		.loc 10 279 17 is_stmt 0 view .LVU271
 1068 00d6 F7EE008A 		vmov.f32	s17, #1.0e+0
 1069 00da F6EE007A 		vmov.f32	s15, #5.0e-1
 280:customLooper.h ****         return reverse_ ? -inc : inc;
 1070              		.loc 10 280 25 view .LVU272
 1071 00de 637F     		ldrb	r3, [r4, #29]	@ zero_extendqisi2
 279:customLooper.h ****             inc = 0.5f;
 1072              		.loc 10 279 17 view .LVU273
 1073 00e0 002A     		cmp	r2, #0
ARM GAS  /var/folders/hl/qgbwny5j0fd895c2c41bk3tw0000gp/T//cc1L1gWC.s 			page 43


 1074 00e2 48FEA78A 		vseleq.f32	s17, s17, s15
 1075              	.LVL58:
 1076              		.loc 10 280 9 is_stmt 1 view .LVU274
 1077              		.loc 10 280 25 is_stmt 0 view .LVU275
 1078 00e6 0BB1     		cbz	r3, .L40
 1079 00e8 F1EE688A 		vneg.f32	s17, s17
 1080              	.LVL59:
 1081              	.L40:
 1082              		.loc 10 280 25 view .LVU276
 1083              	.LBE695:
 1084              	.LBE694:
  74:customLooper.h ****         switch(state_)
 1085              		.loc 10 74 9 is_stmt 1 view .LVU277
  74:customLooper.h ****         switch(state_)
 1086              		.loc 10 74 26 is_stmt 0 view .LVU278
 1087 00ec D4F818B0 		ldr	fp, [r4, #24]
 1088              	.LVL60:
 1089              	.LBB696:
 1090              	.LBI696:
 281:customLooper.h ****     }
 282:customLooper.h **** 
 283:customLooper.h ****     /** Initialize the buffer */
 284:customLooper.h ****     void InitBuff() { std::fill(&buff_[0], &buff_[buffer_size_ - 1], 0); }
 285:customLooper.h **** 
 286:customLooper.h ****     /** Get a floating point sample from the buffer */
 287:customLooper.h ****     inline const float Read(size_t pos) const { return buff_[pos]; }
 288:customLooper.h **** 
 289:customLooper.h ****     /** Reads from a specified point in the delay line using linear interpolation */
 290:customLooper.h ****     float ReadF(float pos)
 291:customLooper.h ****     {
 292:customLooper.h ****         float    a, b, frac;
 293:customLooper.h ****         uint32_t i_idx = static_cast<uint32_t>(pos);
 294:customLooper.h ****         frac           = pos - i_idx;
 295:customLooper.h ****         a              = buff_[i_idx];
 296:customLooper.h ****         b              = buff_[(i_idx + 1) % buffer_size_];
 297:customLooper.h ****         return a + (b - a) * frac;
 298:customLooper.h ****     }
 299:customLooper.h **** 
 300:customLooper.h ****     /** Write to a known location in the buffer */
 301:customLooper.h ****     inline void Write(size_t pos, float val) { buff_[pos] = val; }
 302:customLooper.h **** 
 303:customLooper.h ****     /** Linear to Constpower approximation for windowing*/
 304:customLooper.h ****     float WindowVal(float in) { return sin(HALFPI_F * in); }
 1091              		.loc 10 304 11 is_stmt 1 view .LVU279
 1092              	.LBB697:
 1093              		.loc 10 304 33 view .LVU280
 1094              	.LBB698:
 1095              	.LBI698:
 1096              		.file 14 "/Library/DaisyToolchain/0.2.0/arm/arm-none-eabi/include/c++/10.3.1/cmath"
   1:/Library/DaisyToolchain/0.2.0/arm/arm-none-eabi/include/c++/10.3.1/cmath **** // -*- C++ -*- C forwarding header.
   2:/Library/DaisyToolchain/0.2.0/arm/arm-none-eabi/include/c++/10.3.1/cmath **** 
   3:/Library/DaisyToolchain/0.2.0/arm/arm-none-eabi/include/c++/10.3.1/cmath **** // Copyright (C) 1997-2020 Free Software Foundation, Inc.
   4:/Library/DaisyToolchain/0.2.0/arm/arm-none-eabi/include/c++/10.3.1/cmath **** //
   5:/Library/DaisyToolchain/0.2.0/arm/arm-none-eabi/include/c++/10.3.1/cmath **** // This file is part of the GNU ISO C++ Library.  This library is free
   6:/Library/DaisyToolchain/0.2.0/arm/arm-none-eabi/include/c++/10.3.1/cmath **** // software; you can redistribute it and/or modify it under the
   7:/Library/DaisyToolchain/0.2.0/arm/arm-none-eabi/include/c++/10.3.1/cmath **** // terms of the GNU General Public License as published by the
   8:/Library/DaisyToolchain/0.2.0/arm/arm-none-eabi/include/c++/10.3.1/cmath **** // Free Software Foundation; either version 3, or (at your option)
ARM GAS  /var/folders/hl/qgbwny5j0fd895c2c41bk3tw0000gp/T//cc1L1gWC.s 			page 44


   9:/Library/DaisyToolchain/0.2.0/arm/arm-none-eabi/include/c++/10.3.1/cmath **** // any later version.
  10:/Library/DaisyToolchain/0.2.0/arm/arm-none-eabi/include/c++/10.3.1/cmath **** 
  11:/Library/DaisyToolchain/0.2.0/arm/arm-none-eabi/include/c++/10.3.1/cmath **** // This library is distributed in the hope that it will be useful,
  12:/Library/DaisyToolchain/0.2.0/arm/arm-none-eabi/include/c++/10.3.1/cmath **** // but WITHOUT ANY WARRANTY; without even the implied warranty of
  13:/Library/DaisyToolchain/0.2.0/arm/arm-none-eabi/include/c++/10.3.1/cmath **** // MERCHANTABILITY or FITNESS FOR A PARTICULAR PURPOSE.  See the
  14:/Library/DaisyToolchain/0.2.0/arm/arm-none-eabi/include/c++/10.3.1/cmath **** // GNU General Public License for more details.
  15:/Library/DaisyToolchain/0.2.0/arm/arm-none-eabi/include/c++/10.3.1/cmath **** 
  16:/Library/DaisyToolchain/0.2.0/arm/arm-none-eabi/include/c++/10.3.1/cmath **** // Under Section 7 of GPL version 3, you are granted additional
  17:/Library/DaisyToolchain/0.2.0/arm/arm-none-eabi/include/c++/10.3.1/cmath **** // permissions described in the GCC Runtime Library Exception, version
  18:/Library/DaisyToolchain/0.2.0/arm/arm-none-eabi/include/c++/10.3.1/cmath **** // 3.1, as published by the Free Software Foundation.
  19:/Library/DaisyToolchain/0.2.0/arm/arm-none-eabi/include/c++/10.3.1/cmath **** 
  20:/Library/DaisyToolchain/0.2.0/arm/arm-none-eabi/include/c++/10.3.1/cmath **** // You should have received a copy of the GNU General Public License and
  21:/Library/DaisyToolchain/0.2.0/arm/arm-none-eabi/include/c++/10.3.1/cmath **** // a copy of the GCC Runtime Library Exception along with this program;
  22:/Library/DaisyToolchain/0.2.0/arm/arm-none-eabi/include/c++/10.3.1/cmath **** // see the files COPYING3 and COPYING.RUNTIME respectively.  If not, see
  23:/Library/DaisyToolchain/0.2.0/arm/arm-none-eabi/include/c++/10.3.1/cmath **** // <http://www.gnu.org/licenses/>.
  24:/Library/DaisyToolchain/0.2.0/arm/arm-none-eabi/include/c++/10.3.1/cmath **** 
  25:/Library/DaisyToolchain/0.2.0/arm/arm-none-eabi/include/c++/10.3.1/cmath **** /** @file include/cmath
  26:/Library/DaisyToolchain/0.2.0/arm/arm-none-eabi/include/c++/10.3.1/cmath ****  *  This is a Standard C++ Library file.  You should @c \#include this file
  27:/Library/DaisyToolchain/0.2.0/arm/arm-none-eabi/include/c++/10.3.1/cmath ****  *  in your programs, rather than any of the @a *.h implementation files.
  28:/Library/DaisyToolchain/0.2.0/arm/arm-none-eabi/include/c++/10.3.1/cmath ****  *
  29:/Library/DaisyToolchain/0.2.0/arm/arm-none-eabi/include/c++/10.3.1/cmath ****  *  This is the C++ version of the Standard C Library header @c math.h,
  30:/Library/DaisyToolchain/0.2.0/arm/arm-none-eabi/include/c++/10.3.1/cmath ****  *  and its contents are (mostly) the same as that header, but are all
  31:/Library/DaisyToolchain/0.2.0/arm/arm-none-eabi/include/c++/10.3.1/cmath ****  *  contained in the namespace @c std (except for names which are defined
  32:/Library/DaisyToolchain/0.2.0/arm/arm-none-eabi/include/c++/10.3.1/cmath ****  *  as macros in C).
  33:/Library/DaisyToolchain/0.2.0/arm/arm-none-eabi/include/c++/10.3.1/cmath ****  */
  34:/Library/DaisyToolchain/0.2.0/arm/arm-none-eabi/include/c++/10.3.1/cmath **** 
  35:/Library/DaisyToolchain/0.2.0/arm/arm-none-eabi/include/c++/10.3.1/cmath **** //
  36:/Library/DaisyToolchain/0.2.0/arm/arm-none-eabi/include/c++/10.3.1/cmath **** // ISO C++ 14882: 26.5  C library
  37:/Library/DaisyToolchain/0.2.0/arm/arm-none-eabi/include/c++/10.3.1/cmath **** //
  38:/Library/DaisyToolchain/0.2.0/arm/arm-none-eabi/include/c++/10.3.1/cmath **** 
  39:/Library/DaisyToolchain/0.2.0/arm/arm-none-eabi/include/c++/10.3.1/cmath **** #pragma GCC system_header
  40:/Library/DaisyToolchain/0.2.0/arm/arm-none-eabi/include/c++/10.3.1/cmath **** 
  41:/Library/DaisyToolchain/0.2.0/arm/arm-none-eabi/include/c++/10.3.1/cmath **** #include <bits/c++config.h>
  42:/Library/DaisyToolchain/0.2.0/arm/arm-none-eabi/include/c++/10.3.1/cmath **** #include <bits/cpp_type_traits.h>
  43:/Library/DaisyToolchain/0.2.0/arm/arm-none-eabi/include/c++/10.3.1/cmath **** #include <ext/type_traits.h>
  44:/Library/DaisyToolchain/0.2.0/arm/arm-none-eabi/include/c++/10.3.1/cmath **** #define _GLIBCXX_INCLUDE_NEXT_C_HEADERS
  45:/Library/DaisyToolchain/0.2.0/arm/arm-none-eabi/include/c++/10.3.1/cmath **** #include_next <math.h>
  46:/Library/DaisyToolchain/0.2.0/arm/arm-none-eabi/include/c++/10.3.1/cmath **** #undef _GLIBCXX_INCLUDE_NEXT_C_HEADERS
  47:/Library/DaisyToolchain/0.2.0/arm/arm-none-eabi/include/c++/10.3.1/cmath **** #include <bits/std_abs.h>
  48:/Library/DaisyToolchain/0.2.0/arm/arm-none-eabi/include/c++/10.3.1/cmath **** 
  49:/Library/DaisyToolchain/0.2.0/arm/arm-none-eabi/include/c++/10.3.1/cmath **** #ifndef _GLIBCXX_CMATH
  50:/Library/DaisyToolchain/0.2.0/arm/arm-none-eabi/include/c++/10.3.1/cmath **** #define _GLIBCXX_CMATH 1
  51:/Library/DaisyToolchain/0.2.0/arm/arm-none-eabi/include/c++/10.3.1/cmath **** 
  52:/Library/DaisyToolchain/0.2.0/arm/arm-none-eabi/include/c++/10.3.1/cmath **** // Get rid of those macros defined in <math.h> in lieu of real functions.
  53:/Library/DaisyToolchain/0.2.0/arm/arm-none-eabi/include/c++/10.3.1/cmath **** #undef div
  54:/Library/DaisyToolchain/0.2.0/arm/arm-none-eabi/include/c++/10.3.1/cmath **** #undef acos
  55:/Library/DaisyToolchain/0.2.0/arm/arm-none-eabi/include/c++/10.3.1/cmath **** #undef asin
  56:/Library/DaisyToolchain/0.2.0/arm/arm-none-eabi/include/c++/10.3.1/cmath **** #undef atan
  57:/Library/DaisyToolchain/0.2.0/arm/arm-none-eabi/include/c++/10.3.1/cmath **** #undef atan2
  58:/Library/DaisyToolchain/0.2.0/arm/arm-none-eabi/include/c++/10.3.1/cmath **** #undef ceil
  59:/Library/DaisyToolchain/0.2.0/arm/arm-none-eabi/include/c++/10.3.1/cmath **** #undef cos
  60:/Library/DaisyToolchain/0.2.0/arm/arm-none-eabi/include/c++/10.3.1/cmath **** #undef cosh
  61:/Library/DaisyToolchain/0.2.0/arm/arm-none-eabi/include/c++/10.3.1/cmath **** #undef exp
  62:/Library/DaisyToolchain/0.2.0/arm/arm-none-eabi/include/c++/10.3.1/cmath **** #undef fabs
  63:/Library/DaisyToolchain/0.2.0/arm/arm-none-eabi/include/c++/10.3.1/cmath **** #undef floor
  64:/Library/DaisyToolchain/0.2.0/arm/arm-none-eabi/include/c++/10.3.1/cmath **** #undef fmod
  65:/Library/DaisyToolchain/0.2.0/arm/arm-none-eabi/include/c++/10.3.1/cmath **** #undef frexp
ARM GAS  /var/folders/hl/qgbwny5j0fd895c2c41bk3tw0000gp/T//cc1L1gWC.s 			page 45


  66:/Library/DaisyToolchain/0.2.0/arm/arm-none-eabi/include/c++/10.3.1/cmath **** #undef ldexp
  67:/Library/DaisyToolchain/0.2.0/arm/arm-none-eabi/include/c++/10.3.1/cmath **** #undef log
  68:/Library/DaisyToolchain/0.2.0/arm/arm-none-eabi/include/c++/10.3.1/cmath **** #undef log10
  69:/Library/DaisyToolchain/0.2.0/arm/arm-none-eabi/include/c++/10.3.1/cmath **** #undef modf
  70:/Library/DaisyToolchain/0.2.0/arm/arm-none-eabi/include/c++/10.3.1/cmath **** #undef pow
  71:/Library/DaisyToolchain/0.2.0/arm/arm-none-eabi/include/c++/10.3.1/cmath **** #undef sin
  72:/Library/DaisyToolchain/0.2.0/arm/arm-none-eabi/include/c++/10.3.1/cmath **** #undef sinh
  73:/Library/DaisyToolchain/0.2.0/arm/arm-none-eabi/include/c++/10.3.1/cmath **** #undef sqrt
  74:/Library/DaisyToolchain/0.2.0/arm/arm-none-eabi/include/c++/10.3.1/cmath **** #undef tan
  75:/Library/DaisyToolchain/0.2.0/arm/arm-none-eabi/include/c++/10.3.1/cmath **** #undef tanh
  76:/Library/DaisyToolchain/0.2.0/arm/arm-none-eabi/include/c++/10.3.1/cmath **** 
  77:/Library/DaisyToolchain/0.2.0/arm/arm-none-eabi/include/c++/10.3.1/cmath **** extern "C++"
  78:/Library/DaisyToolchain/0.2.0/arm/arm-none-eabi/include/c++/10.3.1/cmath **** {
  79:/Library/DaisyToolchain/0.2.0/arm/arm-none-eabi/include/c++/10.3.1/cmath **** namespace std _GLIBCXX_VISIBILITY(default)
  80:/Library/DaisyToolchain/0.2.0/arm/arm-none-eabi/include/c++/10.3.1/cmath **** {
  81:/Library/DaisyToolchain/0.2.0/arm/arm-none-eabi/include/c++/10.3.1/cmath **** _GLIBCXX_BEGIN_NAMESPACE_VERSION
  82:/Library/DaisyToolchain/0.2.0/arm/arm-none-eabi/include/c++/10.3.1/cmath **** 
  83:/Library/DaisyToolchain/0.2.0/arm/arm-none-eabi/include/c++/10.3.1/cmath ****   using ::acos;
  84:/Library/DaisyToolchain/0.2.0/arm/arm-none-eabi/include/c++/10.3.1/cmath **** 
  85:/Library/DaisyToolchain/0.2.0/arm/arm-none-eabi/include/c++/10.3.1/cmath **** #ifndef __CORRECT_ISO_CPP_MATH_H_PROTO
  86:/Library/DaisyToolchain/0.2.0/arm/arm-none-eabi/include/c++/10.3.1/cmath ****   inline _GLIBCXX_CONSTEXPR float
  87:/Library/DaisyToolchain/0.2.0/arm/arm-none-eabi/include/c++/10.3.1/cmath ****   acos(float __x)
  88:/Library/DaisyToolchain/0.2.0/arm/arm-none-eabi/include/c++/10.3.1/cmath ****   { return __builtin_acosf(__x); }
  89:/Library/DaisyToolchain/0.2.0/arm/arm-none-eabi/include/c++/10.3.1/cmath **** 
  90:/Library/DaisyToolchain/0.2.0/arm/arm-none-eabi/include/c++/10.3.1/cmath ****   inline _GLIBCXX_CONSTEXPR long double
  91:/Library/DaisyToolchain/0.2.0/arm/arm-none-eabi/include/c++/10.3.1/cmath ****   acos(long double __x)
  92:/Library/DaisyToolchain/0.2.0/arm/arm-none-eabi/include/c++/10.3.1/cmath ****   { return __builtin_acosl(__x); }
  93:/Library/DaisyToolchain/0.2.0/arm/arm-none-eabi/include/c++/10.3.1/cmath **** #endif
  94:/Library/DaisyToolchain/0.2.0/arm/arm-none-eabi/include/c++/10.3.1/cmath **** 
  95:/Library/DaisyToolchain/0.2.0/arm/arm-none-eabi/include/c++/10.3.1/cmath ****   template<typename _Tp>
  96:/Library/DaisyToolchain/0.2.0/arm/arm-none-eabi/include/c++/10.3.1/cmath ****     inline _GLIBCXX_CONSTEXPR
  97:/Library/DaisyToolchain/0.2.0/arm/arm-none-eabi/include/c++/10.3.1/cmath ****     typename __gnu_cxx::__enable_if<__is_integer<_Tp>::__value, 
  98:/Library/DaisyToolchain/0.2.0/arm/arm-none-eabi/include/c++/10.3.1/cmath ****                                     double>::__type
  99:/Library/DaisyToolchain/0.2.0/arm/arm-none-eabi/include/c++/10.3.1/cmath ****     acos(_Tp __x)
 100:/Library/DaisyToolchain/0.2.0/arm/arm-none-eabi/include/c++/10.3.1/cmath ****     { return __builtin_acos(__x); }
 101:/Library/DaisyToolchain/0.2.0/arm/arm-none-eabi/include/c++/10.3.1/cmath **** 
 102:/Library/DaisyToolchain/0.2.0/arm/arm-none-eabi/include/c++/10.3.1/cmath ****   using ::asin;
 103:/Library/DaisyToolchain/0.2.0/arm/arm-none-eabi/include/c++/10.3.1/cmath **** 
 104:/Library/DaisyToolchain/0.2.0/arm/arm-none-eabi/include/c++/10.3.1/cmath **** #ifndef __CORRECT_ISO_CPP_MATH_H_PROTO
 105:/Library/DaisyToolchain/0.2.0/arm/arm-none-eabi/include/c++/10.3.1/cmath ****   inline _GLIBCXX_CONSTEXPR float
 106:/Library/DaisyToolchain/0.2.0/arm/arm-none-eabi/include/c++/10.3.1/cmath ****   asin(float __x)
 107:/Library/DaisyToolchain/0.2.0/arm/arm-none-eabi/include/c++/10.3.1/cmath ****   { return __builtin_asinf(__x); }
 108:/Library/DaisyToolchain/0.2.0/arm/arm-none-eabi/include/c++/10.3.1/cmath **** 
 109:/Library/DaisyToolchain/0.2.0/arm/arm-none-eabi/include/c++/10.3.1/cmath ****   inline _GLIBCXX_CONSTEXPR long double
 110:/Library/DaisyToolchain/0.2.0/arm/arm-none-eabi/include/c++/10.3.1/cmath ****   asin(long double __x)
 111:/Library/DaisyToolchain/0.2.0/arm/arm-none-eabi/include/c++/10.3.1/cmath ****   { return __builtin_asinl(__x); }
 112:/Library/DaisyToolchain/0.2.0/arm/arm-none-eabi/include/c++/10.3.1/cmath **** #endif
 113:/Library/DaisyToolchain/0.2.0/arm/arm-none-eabi/include/c++/10.3.1/cmath **** 
 114:/Library/DaisyToolchain/0.2.0/arm/arm-none-eabi/include/c++/10.3.1/cmath ****   template<typename _Tp>
 115:/Library/DaisyToolchain/0.2.0/arm/arm-none-eabi/include/c++/10.3.1/cmath ****     inline _GLIBCXX_CONSTEXPR
 116:/Library/DaisyToolchain/0.2.0/arm/arm-none-eabi/include/c++/10.3.1/cmath ****     typename __gnu_cxx::__enable_if<__is_integer<_Tp>::__value,
 117:/Library/DaisyToolchain/0.2.0/arm/arm-none-eabi/include/c++/10.3.1/cmath ****                                     double>::__type
 118:/Library/DaisyToolchain/0.2.0/arm/arm-none-eabi/include/c++/10.3.1/cmath ****     asin(_Tp __x)
 119:/Library/DaisyToolchain/0.2.0/arm/arm-none-eabi/include/c++/10.3.1/cmath ****     { return __builtin_asin(__x); }
 120:/Library/DaisyToolchain/0.2.0/arm/arm-none-eabi/include/c++/10.3.1/cmath **** 
 121:/Library/DaisyToolchain/0.2.0/arm/arm-none-eabi/include/c++/10.3.1/cmath ****   using ::atan;
 122:/Library/DaisyToolchain/0.2.0/arm/arm-none-eabi/include/c++/10.3.1/cmath **** 
ARM GAS  /var/folders/hl/qgbwny5j0fd895c2c41bk3tw0000gp/T//cc1L1gWC.s 			page 46


 123:/Library/DaisyToolchain/0.2.0/arm/arm-none-eabi/include/c++/10.3.1/cmath **** #ifndef __CORRECT_ISO_CPP_MATH_H_PROTO
 124:/Library/DaisyToolchain/0.2.0/arm/arm-none-eabi/include/c++/10.3.1/cmath ****   inline _GLIBCXX_CONSTEXPR float
 125:/Library/DaisyToolchain/0.2.0/arm/arm-none-eabi/include/c++/10.3.1/cmath ****   atan(float __x)
 126:/Library/DaisyToolchain/0.2.0/arm/arm-none-eabi/include/c++/10.3.1/cmath ****   { return __builtin_atanf(__x); }
 127:/Library/DaisyToolchain/0.2.0/arm/arm-none-eabi/include/c++/10.3.1/cmath **** 
 128:/Library/DaisyToolchain/0.2.0/arm/arm-none-eabi/include/c++/10.3.1/cmath ****   inline _GLIBCXX_CONSTEXPR long double
 129:/Library/DaisyToolchain/0.2.0/arm/arm-none-eabi/include/c++/10.3.1/cmath ****   atan(long double __x)
 130:/Library/DaisyToolchain/0.2.0/arm/arm-none-eabi/include/c++/10.3.1/cmath ****   { return __builtin_atanl(__x); }
 131:/Library/DaisyToolchain/0.2.0/arm/arm-none-eabi/include/c++/10.3.1/cmath **** #endif
 132:/Library/DaisyToolchain/0.2.0/arm/arm-none-eabi/include/c++/10.3.1/cmath **** 
 133:/Library/DaisyToolchain/0.2.0/arm/arm-none-eabi/include/c++/10.3.1/cmath ****   template<typename _Tp>
 134:/Library/DaisyToolchain/0.2.0/arm/arm-none-eabi/include/c++/10.3.1/cmath ****     inline _GLIBCXX_CONSTEXPR
 135:/Library/DaisyToolchain/0.2.0/arm/arm-none-eabi/include/c++/10.3.1/cmath ****     typename __gnu_cxx::__enable_if<__is_integer<_Tp>::__value,
 136:/Library/DaisyToolchain/0.2.0/arm/arm-none-eabi/include/c++/10.3.1/cmath ****                                     double>::__type
 137:/Library/DaisyToolchain/0.2.0/arm/arm-none-eabi/include/c++/10.3.1/cmath ****     atan(_Tp __x)
 138:/Library/DaisyToolchain/0.2.0/arm/arm-none-eabi/include/c++/10.3.1/cmath ****     { return __builtin_atan(__x); }
 139:/Library/DaisyToolchain/0.2.0/arm/arm-none-eabi/include/c++/10.3.1/cmath **** 
 140:/Library/DaisyToolchain/0.2.0/arm/arm-none-eabi/include/c++/10.3.1/cmath ****   using ::atan2;
 141:/Library/DaisyToolchain/0.2.0/arm/arm-none-eabi/include/c++/10.3.1/cmath **** 
 142:/Library/DaisyToolchain/0.2.0/arm/arm-none-eabi/include/c++/10.3.1/cmath **** #ifndef __CORRECT_ISO_CPP_MATH_H_PROTO
 143:/Library/DaisyToolchain/0.2.0/arm/arm-none-eabi/include/c++/10.3.1/cmath ****   inline _GLIBCXX_CONSTEXPR float
 144:/Library/DaisyToolchain/0.2.0/arm/arm-none-eabi/include/c++/10.3.1/cmath ****   atan2(float __y, float __x)
 145:/Library/DaisyToolchain/0.2.0/arm/arm-none-eabi/include/c++/10.3.1/cmath ****   { return __builtin_atan2f(__y, __x); }
 146:/Library/DaisyToolchain/0.2.0/arm/arm-none-eabi/include/c++/10.3.1/cmath **** 
 147:/Library/DaisyToolchain/0.2.0/arm/arm-none-eabi/include/c++/10.3.1/cmath ****   inline _GLIBCXX_CONSTEXPR long double
 148:/Library/DaisyToolchain/0.2.0/arm/arm-none-eabi/include/c++/10.3.1/cmath ****   atan2(long double __y, long double __x)
 149:/Library/DaisyToolchain/0.2.0/arm/arm-none-eabi/include/c++/10.3.1/cmath ****   { return __builtin_atan2l(__y, __x); }
 150:/Library/DaisyToolchain/0.2.0/arm/arm-none-eabi/include/c++/10.3.1/cmath **** #endif
 151:/Library/DaisyToolchain/0.2.0/arm/arm-none-eabi/include/c++/10.3.1/cmath **** 
 152:/Library/DaisyToolchain/0.2.0/arm/arm-none-eabi/include/c++/10.3.1/cmath ****   template<typename _Tp, typename _Up>
 153:/Library/DaisyToolchain/0.2.0/arm/arm-none-eabi/include/c++/10.3.1/cmath ****     inline _GLIBCXX_CONSTEXPR
 154:/Library/DaisyToolchain/0.2.0/arm/arm-none-eabi/include/c++/10.3.1/cmath ****     typename __gnu_cxx::__promote_2<_Tp, _Up>::__type
 155:/Library/DaisyToolchain/0.2.0/arm/arm-none-eabi/include/c++/10.3.1/cmath ****     atan2(_Tp __y, _Up __x)
 156:/Library/DaisyToolchain/0.2.0/arm/arm-none-eabi/include/c++/10.3.1/cmath ****     {
 157:/Library/DaisyToolchain/0.2.0/arm/arm-none-eabi/include/c++/10.3.1/cmath ****       typedef typename __gnu_cxx::__promote_2<_Tp, _Up>::__type __type;
 158:/Library/DaisyToolchain/0.2.0/arm/arm-none-eabi/include/c++/10.3.1/cmath ****       return atan2(__type(__y), __type(__x));
 159:/Library/DaisyToolchain/0.2.0/arm/arm-none-eabi/include/c++/10.3.1/cmath ****     }
 160:/Library/DaisyToolchain/0.2.0/arm/arm-none-eabi/include/c++/10.3.1/cmath **** 
 161:/Library/DaisyToolchain/0.2.0/arm/arm-none-eabi/include/c++/10.3.1/cmath ****   using ::ceil;
 162:/Library/DaisyToolchain/0.2.0/arm/arm-none-eabi/include/c++/10.3.1/cmath **** 
 163:/Library/DaisyToolchain/0.2.0/arm/arm-none-eabi/include/c++/10.3.1/cmath **** #ifndef __CORRECT_ISO_CPP_MATH_H_PROTO
 164:/Library/DaisyToolchain/0.2.0/arm/arm-none-eabi/include/c++/10.3.1/cmath ****   inline _GLIBCXX_CONSTEXPR float
 165:/Library/DaisyToolchain/0.2.0/arm/arm-none-eabi/include/c++/10.3.1/cmath ****   ceil(float __x)
 166:/Library/DaisyToolchain/0.2.0/arm/arm-none-eabi/include/c++/10.3.1/cmath ****   { return __builtin_ceilf(__x); }
 167:/Library/DaisyToolchain/0.2.0/arm/arm-none-eabi/include/c++/10.3.1/cmath **** 
 168:/Library/DaisyToolchain/0.2.0/arm/arm-none-eabi/include/c++/10.3.1/cmath ****   inline _GLIBCXX_CONSTEXPR long double
 169:/Library/DaisyToolchain/0.2.0/arm/arm-none-eabi/include/c++/10.3.1/cmath ****   ceil(long double __x)
 170:/Library/DaisyToolchain/0.2.0/arm/arm-none-eabi/include/c++/10.3.1/cmath ****   { return __builtin_ceill(__x); }
 171:/Library/DaisyToolchain/0.2.0/arm/arm-none-eabi/include/c++/10.3.1/cmath **** #endif
 172:/Library/DaisyToolchain/0.2.0/arm/arm-none-eabi/include/c++/10.3.1/cmath **** 
 173:/Library/DaisyToolchain/0.2.0/arm/arm-none-eabi/include/c++/10.3.1/cmath ****   template<typename _Tp>
 174:/Library/DaisyToolchain/0.2.0/arm/arm-none-eabi/include/c++/10.3.1/cmath ****     inline _GLIBCXX_CONSTEXPR
 175:/Library/DaisyToolchain/0.2.0/arm/arm-none-eabi/include/c++/10.3.1/cmath ****     typename __gnu_cxx::__enable_if<__is_integer<_Tp>::__value, 
 176:/Library/DaisyToolchain/0.2.0/arm/arm-none-eabi/include/c++/10.3.1/cmath ****                                     double>::__type
 177:/Library/DaisyToolchain/0.2.0/arm/arm-none-eabi/include/c++/10.3.1/cmath ****     ceil(_Tp __x)
 178:/Library/DaisyToolchain/0.2.0/arm/arm-none-eabi/include/c++/10.3.1/cmath ****     { return __builtin_ceil(__x); }
 179:/Library/DaisyToolchain/0.2.0/arm/arm-none-eabi/include/c++/10.3.1/cmath **** 
ARM GAS  /var/folders/hl/qgbwny5j0fd895c2c41bk3tw0000gp/T//cc1L1gWC.s 			page 47


 180:/Library/DaisyToolchain/0.2.0/arm/arm-none-eabi/include/c++/10.3.1/cmath ****   using ::cos;
 181:/Library/DaisyToolchain/0.2.0/arm/arm-none-eabi/include/c++/10.3.1/cmath **** 
 182:/Library/DaisyToolchain/0.2.0/arm/arm-none-eabi/include/c++/10.3.1/cmath **** #ifndef __CORRECT_ISO_CPP_MATH_H_PROTO
 183:/Library/DaisyToolchain/0.2.0/arm/arm-none-eabi/include/c++/10.3.1/cmath ****   inline _GLIBCXX_CONSTEXPR float
 184:/Library/DaisyToolchain/0.2.0/arm/arm-none-eabi/include/c++/10.3.1/cmath ****   cos(float __x)
 185:/Library/DaisyToolchain/0.2.0/arm/arm-none-eabi/include/c++/10.3.1/cmath ****   { return __builtin_cosf(__x); }
 186:/Library/DaisyToolchain/0.2.0/arm/arm-none-eabi/include/c++/10.3.1/cmath **** 
 187:/Library/DaisyToolchain/0.2.0/arm/arm-none-eabi/include/c++/10.3.1/cmath ****   inline _GLIBCXX_CONSTEXPR long double
 188:/Library/DaisyToolchain/0.2.0/arm/arm-none-eabi/include/c++/10.3.1/cmath ****   cos(long double __x)
 189:/Library/DaisyToolchain/0.2.0/arm/arm-none-eabi/include/c++/10.3.1/cmath ****   { return __builtin_cosl(__x); }
 190:/Library/DaisyToolchain/0.2.0/arm/arm-none-eabi/include/c++/10.3.1/cmath **** #endif
 191:/Library/DaisyToolchain/0.2.0/arm/arm-none-eabi/include/c++/10.3.1/cmath **** 
 192:/Library/DaisyToolchain/0.2.0/arm/arm-none-eabi/include/c++/10.3.1/cmath ****   template<typename _Tp>
 193:/Library/DaisyToolchain/0.2.0/arm/arm-none-eabi/include/c++/10.3.1/cmath ****     inline _GLIBCXX_CONSTEXPR
 194:/Library/DaisyToolchain/0.2.0/arm/arm-none-eabi/include/c++/10.3.1/cmath ****     typename __gnu_cxx::__enable_if<__is_integer<_Tp>::__value,
 195:/Library/DaisyToolchain/0.2.0/arm/arm-none-eabi/include/c++/10.3.1/cmath ****                                     double>::__type
 196:/Library/DaisyToolchain/0.2.0/arm/arm-none-eabi/include/c++/10.3.1/cmath ****     cos(_Tp __x)
 197:/Library/DaisyToolchain/0.2.0/arm/arm-none-eabi/include/c++/10.3.1/cmath ****     { return __builtin_cos(__x); }
 198:/Library/DaisyToolchain/0.2.0/arm/arm-none-eabi/include/c++/10.3.1/cmath **** 
 199:/Library/DaisyToolchain/0.2.0/arm/arm-none-eabi/include/c++/10.3.1/cmath ****   using ::cosh;
 200:/Library/DaisyToolchain/0.2.0/arm/arm-none-eabi/include/c++/10.3.1/cmath **** 
 201:/Library/DaisyToolchain/0.2.0/arm/arm-none-eabi/include/c++/10.3.1/cmath **** #ifndef __CORRECT_ISO_CPP_MATH_H_PROTO
 202:/Library/DaisyToolchain/0.2.0/arm/arm-none-eabi/include/c++/10.3.1/cmath ****   inline _GLIBCXX_CONSTEXPR float
 203:/Library/DaisyToolchain/0.2.0/arm/arm-none-eabi/include/c++/10.3.1/cmath ****   cosh(float __x)
 204:/Library/DaisyToolchain/0.2.0/arm/arm-none-eabi/include/c++/10.3.1/cmath ****   { return __builtin_coshf(__x); }
 205:/Library/DaisyToolchain/0.2.0/arm/arm-none-eabi/include/c++/10.3.1/cmath **** 
 206:/Library/DaisyToolchain/0.2.0/arm/arm-none-eabi/include/c++/10.3.1/cmath ****   inline _GLIBCXX_CONSTEXPR long double
 207:/Library/DaisyToolchain/0.2.0/arm/arm-none-eabi/include/c++/10.3.1/cmath ****   cosh(long double __x)
 208:/Library/DaisyToolchain/0.2.0/arm/arm-none-eabi/include/c++/10.3.1/cmath ****   { return __builtin_coshl(__x); }
 209:/Library/DaisyToolchain/0.2.0/arm/arm-none-eabi/include/c++/10.3.1/cmath **** #endif
 210:/Library/DaisyToolchain/0.2.0/arm/arm-none-eabi/include/c++/10.3.1/cmath **** 
 211:/Library/DaisyToolchain/0.2.0/arm/arm-none-eabi/include/c++/10.3.1/cmath ****   template<typename _Tp>
 212:/Library/DaisyToolchain/0.2.0/arm/arm-none-eabi/include/c++/10.3.1/cmath ****     inline _GLIBCXX_CONSTEXPR
 213:/Library/DaisyToolchain/0.2.0/arm/arm-none-eabi/include/c++/10.3.1/cmath ****     typename __gnu_cxx::__enable_if<__is_integer<_Tp>::__value,
 214:/Library/DaisyToolchain/0.2.0/arm/arm-none-eabi/include/c++/10.3.1/cmath ****                                     double>::__type
 215:/Library/DaisyToolchain/0.2.0/arm/arm-none-eabi/include/c++/10.3.1/cmath ****     cosh(_Tp __x)
 216:/Library/DaisyToolchain/0.2.0/arm/arm-none-eabi/include/c++/10.3.1/cmath ****     { return __builtin_cosh(__x); }
 217:/Library/DaisyToolchain/0.2.0/arm/arm-none-eabi/include/c++/10.3.1/cmath **** 
 218:/Library/DaisyToolchain/0.2.0/arm/arm-none-eabi/include/c++/10.3.1/cmath ****   using ::exp;
 219:/Library/DaisyToolchain/0.2.0/arm/arm-none-eabi/include/c++/10.3.1/cmath **** 
 220:/Library/DaisyToolchain/0.2.0/arm/arm-none-eabi/include/c++/10.3.1/cmath **** #ifndef __CORRECT_ISO_CPP_MATH_H_PROTO
 221:/Library/DaisyToolchain/0.2.0/arm/arm-none-eabi/include/c++/10.3.1/cmath ****   inline _GLIBCXX_CONSTEXPR float
 222:/Library/DaisyToolchain/0.2.0/arm/arm-none-eabi/include/c++/10.3.1/cmath ****   exp(float __x)
 223:/Library/DaisyToolchain/0.2.0/arm/arm-none-eabi/include/c++/10.3.1/cmath ****   { return __builtin_expf(__x); }
 224:/Library/DaisyToolchain/0.2.0/arm/arm-none-eabi/include/c++/10.3.1/cmath **** 
 225:/Library/DaisyToolchain/0.2.0/arm/arm-none-eabi/include/c++/10.3.1/cmath ****   inline _GLIBCXX_CONSTEXPR long double
 226:/Library/DaisyToolchain/0.2.0/arm/arm-none-eabi/include/c++/10.3.1/cmath ****   exp(long double __x)
 227:/Library/DaisyToolchain/0.2.0/arm/arm-none-eabi/include/c++/10.3.1/cmath ****   { return __builtin_expl(__x); }
 228:/Library/DaisyToolchain/0.2.0/arm/arm-none-eabi/include/c++/10.3.1/cmath **** #endif
 229:/Library/DaisyToolchain/0.2.0/arm/arm-none-eabi/include/c++/10.3.1/cmath **** 
 230:/Library/DaisyToolchain/0.2.0/arm/arm-none-eabi/include/c++/10.3.1/cmath ****   template<typename _Tp>
 231:/Library/DaisyToolchain/0.2.0/arm/arm-none-eabi/include/c++/10.3.1/cmath ****     inline _GLIBCXX_CONSTEXPR
 232:/Library/DaisyToolchain/0.2.0/arm/arm-none-eabi/include/c++/10.3.1/cmath ****     typename __gnu_cxx::__enable_if<__is_integer<_Tp>::__value,
 233:/Library/DaisyToolchain/0.2.0/arm/arm-none-eabi/include/c++/10.3.1/cmath ****                                     double>::__type
 234:/Library/DaisyToolchain/0.2.0/arm/arm-none-eabi/include/c++/10.3.1/cmath ****     exp(_Tp __x)
 235:/Library/DaisyToolchain/0.2.0/arm/arm-none-eabi/include/c++/10.3.1/cmath ****     { return __builtin_exp(__x); }
 236:/Library/DaisyToolchain/0.2.0/arm/arm-none-eabi/include/c++/10.3.1/cmath **** 
ARM GAS  /var/folders/hl/qgbwny5j0fd895c2c41bk3tw0000gp/T//cc1L1gWC.s 			page 48


 237:/Library/DaisyToolchain/0.2.0/arm/arm-none-eabi/include/c++/10.3.1/cmath ****   using ::fabs;
 238:/Library/DaisyToolchain/0.2.0/arm/arm-none-eabi/include/c++/10.3.1/cmath **** 
 239:/Library/DaisyToolchain/0.2.0/arm/arm-none-eabi/include/c++/10.3.1/cmath **** #ifndef __CORRECT_ISO_CPP_MATH_H_PROTO
 240:/Library/DaisyToolchain/0.2.0/arm/arm-none-eabi/include/c++/10.3.1/cmath ****   inline _GLIBCXX_CONSTEXPR float
 241:/Library/DaisyToolchain/0.2.0/arm/arm-none-eabi/include/c++/10.3.1/cmath ****   fabs(float __x)
 242:/Library/DaisyToolchain/0.2.0/arm/arm-none-eabi/include/c++/10.3.1/cmath ****   { return __builtin_fabsf(__x); }
 243:/Library/DaisyToolchain/0.2.0/arm/arm-none-eabi/include/c++/10.3.1/cmath **** 
 244:/Library/DaisyToolchain/0.2.0/arm/arm-none-eabi/include/c++/10.3.1/cmath ****   inline _GLIBCXX_CONSTEXPR long double
 245:/Library/DaisyToolchain/0.2.0/arm/arm-none-eabi/include/c++/10.3.1/cmath ****   fabs(long double __x)
 246:/Library/DaisyToolchain/0.2.0/arm/arm-none-eabi/include/c++/10.3.1/cmath ****   { return __builtin_fabsl(__x); }
 247:/Library/DaisyToolchain/0.2.0/arm/arm-none-eabi/include/c++/10.3.1/cmath **** #endif
 248:/Library/DaisyToolchain/0.2.0/arm/arm-none-eabi/include/c++/10.3.1/cmath **** 
 249:/Library/DaisyToolchain/0.2.0/arm/arm-none-eabi/include/c++/10.3.1/cmath ****   template<typename _Tp>
 250:/Library/DaisyToolchain/0.2.0/arm/arm-none-eabi/include/c++/10.3.1/cmath ****     inline _GLIBCXX_CONSTEXPR
 251:/Library/DaisyToolchain/0.2.0/arm/arm-none-eabi/include/c++/10.3.1/cmath ****     typename __gnu_cxx::__enable_if<__is_integer<_Tp>::__value,
 252:/Library/DaisyToolchain/0.2.0/arm/arm-none-eabi/include/c++/10.3.1/cmath ****                                     double>::__type
 253:/Library/DaisyToolchain/0.2.0/arm/arm-none-eabi/include/c++/10.3.1/cmath ****     fabs(_Tp __x)
 254:/Library/DaisyToolchain/0.2.0/arm/arm-none-eabi/include/c++/10.3.1/cmath ****     { return __builtin_fabs(__x); }
 255:/Library/DaisyToolchain/0.2.0/arm/arm-none-eabi/include/c++/10.3.1/cmath **** 
 256:/Library/DaisyToolchain/0.2.0/arm/arm-none-eabi/include/c++/10.3.1/cmath ****   using ::floor;
 257:/Library/DaisyToolchain/0.2.0/arm/arm-none-eabi/include/c++/10.3.1/cmath **** 
 258:/Library/DaisyToolchain/0.2.0/arm/arm-none-eabi/include/c++/10.3.1/cmath **** #ifndef __CORRECT_ISO_CPP_MATH_H_PROTO
 259:/Library/DaisyToolchain/0.2.0/arm/arm-none-eabi/include/c++/10.3.1/cmath ****   inline _GLIBCXX_CONSTEXPR float
 260:/Library/DaisyToolchain/0.2.0/arm/arm-none-eabi/include/c++/10.3.1/cmath ****   floor(float __x)
 261:/Library/DaisyToolchain/0.2.0/arm/arm-none-eabi/include/c++/10.3.1/cmath ****   { return __builtin_floorf(__x); }
 262:/Library/DaisyToolchain/0.2.0/arm/arm-none-eabi/include/c++/10.3.1/cmath **** 
 263:/Library/DaisyToolchain/0.2.0/arm/arm-none-eabi/include/c++/10.3.1/cmath ****   inline _GLIBCXX_CONSTEXPR long double
 264:/Library/DaisyToolchain/0.2.0/arm/arm-none-eabi/include/c++/10.3.1/cmath ****   floor(long double __x)
 265:/Library/DaisyToolchain/0.2.0/arm/arm-none-eabi/include/c++/10.3.1/cmath ****   { return __builtin_floorl(__x); }
 266:/Library/DaisyToolchain/0.2.0/arm/arm-none-eabi/include/c++/10.3.1/cmath **** #endif
 267:/Library/DaisyToolchain/0.2.0/arm/arm-none-eabi/include/c++/10.3.1/cmath **** 
 268:/Library/DaisyToolchain/0.2.0/arm/arm-none-eabi/include/c++/10.3.1/cmath ****   template<typename _Tp>
 269:/Library/DaisyToolchain/0.2.0/arm/arm-none-eabi/include/c++/10.3.1/cmath ****     inline _GLIBCXX_CONSTEXPR
 270:/Library/DaisyToolchain/0.2.0/arm/arm-none-eabi/include/c++/10.3.1/cmath ****     typename __gnu_cxx::__enable_if<__is_integer<_Tp>::__value,
 271:/Library/DaisyToolchain/0.2.0/arm/arm-none-eabi/include/c++/10.3.1/cmath ****                                     double>::__type
 272:/Library/DaisyToolchain/0.2.0/arm/arm-none-eabi/include/c++/10.3.1/cmath ****     floor(_Tp __x)
 273:/Library/DaisyToolchain/0.2.0/arm/arm-none-eabi/include/c++/10.3.1/cmath ****     { return __builtin_floor(__x); }
 274:/Library/DaisyToolchain/0.2.0/arm/arm-none-eabi/include/c++/10.3.1/cmath **** 
 275:/Library/DaisyToolchain/0.2.0/arm/arm-none-eabi/include/c++/10.3.1/cmath ****   using ::fmod;
 276:/Library/DaisyToolchain/0.2.0/arm/arm-none-eabi/include/c++/10.3.1/cmath **** 
 277:/Library/DaisyToolchain/0.2.0/arm/arm-none-eabi/include/c++/10.3.1/cmath **** #ifndef __CORRECT_ISO_CPP_MATH_H_PROTO
 278:/Library/DaisyToolchain/0.2.0/arm/arm-none-eabi/include/c++/10.3.1/cmath ****   inline _GLIBCXX_CONSTEXPR float
 279:/Library/DaisyToolchain/0.2.0/arm/arm-none-eabi/include/c++/10.3.1/cmath ****   fmod(float __x, float __y)
 280:/Library/DaisyToolchain/0.2.0/arm/arm-none-eabi/include/c++/10.3.1/cmath ****   { return __builtin_fmodf(__x, __y); }
 281:/Library/DaisyToolchain/0.2.0/arm/arm-none-eabi/include/c++/10.3.1/cmath **** 
 282:/Library/DaisyToolchain/0.2.0/arm/arm-none-eabi/include/c++/10.3.1/cmath ****   inline _GLIBCXX_CONSTEXPR long double
 283:/Library/DaisyToolchain/0.2.0/arm/arm-none-eabi/include/c++/10.3.1/cmath ****   fmod(long double __x, long double __y)
 284:/Library/DaisyToolchain/0.2.0/arm/arm-none-eabi/include/c++/10.3.1/cmath ****   { return __builtin_fmodl(__x, __y); }
 285:/Library/DaisyToolchain/0.2.0/arm/arm-none-eabi/include/c++/10.3.1/cmath **** #endif
 286:/Library/DaisyToolchain/0.2.0/arm/arm-none-eabi/include/c++/10.3.1/cmath **** 
 287:/Library/DaisyToolchain/0.2.0/arm/arm-none-eabi/include/c++/10.3.1/cmath ****   template<typename _Tp, typename _Up>
 288:/Library/DaisyToolchain/0.2.0/arm/arm-none-eabi/include/c++/10.3.1/cmath ****     inline _GLIBCXX_CONSTEXPR
 289:/Library/DaisyToolchain/0.2.0/arm/arm-none-eabi/include/c++/10.3.1/cmath ****     typename __gnu_cxx::__promote_2<_Tp, _Up>::__type
 290:/Library/DaisyToolchain/0.2.0/arm/arm-none-eabi/include/c++/10.3.1/cmath ****     fmod(_Tp __x, _Up __y)
 291:/Library/DaisyToolchain/0.2.0/arm/arm-none-eabi/include/c++/10.3.1/cmath ****     {
 292:/Library/DaisyToolchain/0.2.0/arm/arm-none-eabi/include/c++/10.3.1/cmath ****       typedef typename __gnu_cxx::__promote_2<_Tp, _Up>::__type __type;
 293:/Library/DaisyToolchain/0.2.0/arm/arm-none-eabi/include/c++/10.3.1/cmath ****       return fmod(__type(__x), __type(__y));
ARM GAS  /var/folders/hl/qgbwny5j0fd895c2c41bk3tw0000gp/T//cc1L1gWC.s 			page 49


 294:/Library/DaisyToolchain/0.2.0/arm/arm-none-eabi/include/c++/10.3.1/cmath ****     }
 295:/Library/DaisyToolchain/0.2.0/arm/arm-none-eabi/include/c++/10.3.1/cmath **** 
 296:/Library/DaisyToolchain/0.2.0/arm/arm-none-eabi/include/c++/10.3.1/cmath ****   using ::frexp;
 297:/Library/DaisyToolchain/0.2.0/arm/arm-none-eabi/include/c++/10.3.1/cmath **** 
 298:/Library/DaisyToolchain/0.2.0/arm/arm-none-eabi/include/c++/10.3.1/cmath **** #ifndef __CORRECT_ISO_CPP_MATH_H_PROTO
 299:/Library/DaisyToolchain/0.2.0/arm/arm-none-eabi/include/c++/10.3.1/cmath ****   inline float
 300:/Library/DaisyToolchain/0.2.0/arm/arm-none-eabi/include/c++/10.3.1/cmath ****   frexp(float __x, int* __exp)
 301:/Library/DaisyToolchain/0.2.0/arm/arm-none-eabi/include/c++/10.3.1/cmath ****   { return __builtin_frexpf(__x, __exp); }
 302:/Library/DaisyToolchain/0.2.0/arm/arm-none-eabi/include/c++/10.3.1/cmath **** 
 303:/Library/DaisyToolchain/0.2.0/arm/arm-none-eabi/include/c++/10.3.1/cmath ****   inline long double
 304:/Library/DaisyToolchain/0.2.0/arm/arm-none-eabi/include/c++/10.3.1/cmath ****   frexp(long double __x, int* __exp)
 305:/Library/DaisyToolchain/0.2.0/arm/arm-none-eabi/include/c++/10.3.1/cmath ****   { return __builtin_frexpl(__x, __exp); }
 306:/Library/DaisyToolchain/0.2.0/arm/arm-none-eabi/include/c++/10.3.1/cmath **** #endif
 307:/Library/DaisyToolchain/0.2.0/arm/arm-none-eabi/include/c++/10.3.1/cmath **** 
 308:/Library/DaisyToolchain/0.2.0/arm/arm-none-eabi/include/c++/10.3.1/cmath ****   template<typename _Tp>
 309:/Library/DaisyToolchain/0.2.0/arm/arm-none-eabi/include/c++/10.3.1/cmath ****     inline _GLIBCXX_CONSTEXPR
 310:/Library/DaisyToolchain/0.2.0/arm/arm-none-eabi/include/c++/10.3.1/cmath ****     typename __gnu_cxx::__enable_if<__is_integer<_Tp>::__value, 
 311:/Library/DaisyToolchain/0.2.0/arm/arm-none-eabi/include/c++/10.3.1/cmath ****                                     double>::__type
 312:/Library/DaisyToolchain/0.2.0/arm/arm-none-eabi/include/c++/10.3.1/cmath ****     frexp(_Tp __x, int* __exp)
 313:/Library/DaisyToolchain/0.2.0/arm/arm-none-eabi/include/c++/10.3.1/cmath ****     { return __builtin_frexp(__x, __exp); }
 314:/Library/DaisyToolchain/0.2.0/arm/arm-none-eabi/include/c++/10.3.1/cmath **** 
 315:/Library/DaisyToolchain/0.2.0/arm/arm-none-eabi/include/c++/10.3.1/cmath ****   using ::ldexp;
 316:/Library/DaisyToolchain/0.2.0/arm/arm-none-eabi/include/c++/10.3.1/cmath **** 
 317:/Library/DaisyToolchain/0.2.0/arm/arm-none-eabi/include/c++/10.3.1/cmath **** #ifndef __CORRECT_ISO_CPP_MATH_H_PROTO
 318:/Library/DaisyToolchain/0.2.0/arm/arm-none-eabi/include/c++/10.3.1/cmath ****   inline _GLIBCXX_CONSTEXPR float
 319:/Library/DaisyToolchain/0.2.0/arm/arm-none-eabi/include/c++/10.3.1/cmath ****   ldexp(float __x, int __exp)
 320:/Library/DaisyToolchain/0.2.0/arm/arm-none-eabi/include/c++/10.3.1/cmath ****   { return __builtin_ldexpf(__x, __exp); }
 321:/Library/DaisyToolchain/0.2.0/arm/arm-none-eabi/include/c++/10.3.1/cmath **** 
 322:/Library/DaisyToolchain/0.2.0/arm/arm-none-eabi/include/c++/10.3.1/cmath ****   inline _GLIBCXX_CONSTEXPR long double
 323:/Library/DaisyToolchain/0.2.0/arm/arm-none-eabi/include/c++/10.3.1/cmath ****   ldexp(long double __x, int __exp)
 324:/Library/DaisyToolchain/0.2.0/arm/arm-none-eabi/include/c++/10.3.1/cmath ****   { return __builtin_ldexpl(__x, __exp); }
 325:/Library/DaisyToolchain/0.2.0/arm/arm-none-eabi/include/c++/10.3.1/cmath **** #endif
 326:/Library/DaisyToolchain/0.2.0/arm/arm-none-eabi/include/c++/10.3.1/cmath **** 
 327:/Library/DaisyToolchain/0.2.0/arm/arm-none-eabi/include/c++/10.3.1/cmath ****   template<typename _Tp>
 328:/Library/DaisyToolchain/0.2.0/arm/arm-none-eabi/include/c++/10.3.1/cmath ****     inline _GLIBCXX_CONSTEXPR
 329:/Library/DaisyToolchain/0.2.0/arm/arm-none-eabi/include/c++/10.3.1/cmath ****     typename __gnu_cxx::__enable_if<__is_integer<_Tp>::__value, 
 330:/Library/DaisyToolchain/0.2.0/arm/arm-none-eabi/include/c++/10.3.1/cmath ****                                     double>::__type
 331:/Library/DaisyToolchain/0.2.0/arm/arm-none-eabi/include/c++/10.3.1/cmath ****     ldexp(_Tp __x, int __exp)
 332:/Library/DaisyToolchain/0.2.0/arm/arm-none-eabi/include/c++/10.3.1/cmath ****     { return __builtin_ldexp(__x, __exp); }
 333:/Library/DaisyToolchain/0.2.0/arm/arm-none-eabi/include/c++/10.3.1/cmath **** 
 334:/Library/DaisyToolchain/0.2.0/arm/arm-none-eabi/include/c++/10.3.1/cmath ****   using ::log;
 335:/Library/DaisyToolchain/0.2.0/arm/arm-none-eabi/include/c++/10.3.1/cmath **** 
 336:/Library/DaisyToolchain/0.2.0/arm/arm-none-eabi/include/c++/10.3.1/cmath **** #ifndef __CORRECT_ISO_CPP_MATH_H_PROTO
 337:/Library/DaisyToolchain/0.2.0/arm/arm-none-eabi/include/c++/10.3.1/cmath ****   inline _GLIBCXX_CONSTEXPR float
 338:/Library/DaisyToolchain/0.2.0/arm/arm-none-eabi/include/c++/10.3.1/cmath ****   log(float __x)
 339:/Library/DaisyToolchain/0.2.0/arm/arm-none-eabi/include/c++/10.3.1/cmath ****   { return __builtin_logf(__x); }
 340:/Library/DaisyToolchain/0.2.0/arm/arm-none-eabi/include/c++/10.3.1/cmath **** 
 341:/Library/DaisyToolchain/0.2.0/arm/arm-none-eabi/include/c++/10.3.1/cmath ****   inline _GLIBCXX_CONSTEXPR long double
 342:/Library/DaisyToolchain/0.2.0/arm/arm-none-eabi/include/c++/10.3.1/cmath ****   log(long double __x)
 343:/Library/DaisyToolchain/0.2.0/arm/arm-none-eabi/include/c++/10.3.1/cmath ****   { return __builtin_logl(__x); }
 344:/Library/DaisyToolchain/0.2.0/arm/arm-none-eabi/include/c++/10.3.1/cmath **** #endif
 345:/Library/DaisyToolchain/0.2.0/arm/arm-none-eabi/include/c++/10.3.1/cmath **** 
 346:/Library/DaisyToolchain/0.2.0/arm/arm-none-eabi/include/c++/10.3.1/cmath ****   template<typename _Tp>
 347:/Library/DaisyToolchain/0.2.0/arm/arm-none-eabi/include/c++/10.3.1/cmath ****     inline _GLIBCXX_CONSTEXPR
 348:/Library/DaisyToolchain/0.2.0/arm/arm-none-eabi/include/c++/10.3.1/cmath ****     typename __gnu_cxx::__enable_if<__is_integer<_Tp>::__value, 
 349:/Library/DaisyToolchain/0.2.0/arm/arm-none-eabi/include/c++/10.3.1/cmath ****                                     double>::__type
 350:/Library/DaisyToolchain/0.2.0/arm/arm-none-eabi/include/c++/10.3.1/cmath ****     log(_Tp __x)
ARM GAS  /var/folders/hl/qgbwny5j0fd895c2c41bk3tw0000gp/T//cc1L1gWC.s 			page 50


 351:/Library/DaisyToolchain/0.2.0/arm/arm-none-eabi/include/c++/10.3.1/cmath ****     { return __builtin_log(__x); }
 352:/Library/DaisyToolchain/0.2.0/arm/arm-none-eabi/include/c++/10.3.1/cmath **** 
 353:/Library/DaisyToolchain/0.2.0/arm/arm-none-eabi/include/c++/10.3.1/cmath ****   using ::log10;
 354:/Library/DaisyToolchain/0.2.0/arm/arm-none-eabi/include/c++/10.3.1/cmath **** 
 355:/Library/DaisyToolchain/0.2.0/arm/arm-none-eabi/include/c++/10.3.1/cmath **** #ifndef __CORRECT_ISO_CPP_MATH_H_PROTO
 356:/Library/DaisyToolchain/0.2.0/arm/arm-none-eabi/include/c++/10.3.1/cmath ****   inline _GLIBCXX_CONSTEXPR float
 357:/Library/DaisyToolchain/0.2.0/arm/arm-none-eabi/include/c++/10.3.1/cmath ****   log10(float __x)
 358:/Library/DaisyToolchain/0.2.0/arm/arm-none-eabi/include/c++/10.3.1/cmath ****   { return __builtin_log10f(__x); }
 359:/Library/DaisyToolchain/0.2.0/arm/arm-none-eabi/include/c++/10.3.1/cmath **** 
 360:/Library/DaisyToolchain/0.2.0/arm/arm-none-eabi/include/c++/10.3.1/cmath ****   inline _GLIBCXX_CONSTEXPR long double
 361:/Library/DaisyToolchain/0.2.0/arm/arm-none-eabi/include/c++/10.3.1/cmath ****   log10(long double __x)
 362:/Library/DaisyToolchain/0.2.0/arm/arm-none-eabi/include/c++/10.3.1/cmath ****   { return __builtin_log10l(__x); }
 363:/Library/DaisyToolchain/0.2.0/arm/arm-none-eabi/include/c++/10.3.1/cmath **** #endif
 364:/Library/DaisyToolchain/0.2.0/arm/arm-none-eabi/include/c++/10.3.1/cmath **** 
 365:/Library/DaisyToolchain/0.2.0/arm/arm-none-eabi/include/c++/10.3.1/cmath ****   template<typename _Tp>
 366:/Library/DaisyToolchain/0.2.0/arm/arm-none-eabi/include/c++/10.3.1/cmath ****     inline _GLIBCXX_CONSTEXPR
 367:/Library/DaisyToolchain/0.2.0/arm/arm-none-eabi/include/c++/10.3.1/cmath ****     typename __gnu_cxx::__enable_if<__is_integer<_Tp>::__value,
 368:/Library/DaisyToolchain/0.2.0/arm/arm-none-eabi/include/c++/10.3.1/cmath ****                                     double>::__type
 369:/Library/DaisyToolchain/0.2.0/arm/arm-none-eabi/include/c++/10.3.1/cmath ****     log10(_Tp __x)
 370:/Library/DaisyToolchain/0.2.0/arm/arm-none-eabi/include/c++/10.3.1/cmath ****     { return __builtin_log10(__x); }
 371:/Library/DaisyToolchain/0.2.0/arm/arm-none-eabi/include/c++/10.3.1/cmath **** 
 372:/Library/DaisyToolchain/0.2.0/arm/arm-none-eabi/include/c++/10.3.1/cmath ****   using ::modf;
 373:/Library/DaisyToolchain/0.2.0/arm/arm-none-eabi/include/c++/10.3.1/cmath **** 
 374:/Library/DaisyToolchain/0.2.0/arm/arm-none-eabi/include/c++/10.3.1/cmath **** #ifndef __CORRECT_ISO_CPP_MATH_H_PROTO
 375:/Library/DaisyToolchain/0.2.0/arm/arm-none-eabi/include/c++/10.3.1/cmath ****   inline float
 376:/Library/DaisyToolchain/0.2.0/arm/arm-none-eabi/include/c++/10.3.1/cmath ****   modf(float __x, float* __iptr)
 377:/Library/DaisyToolchain/0.2.0/arm/arm-none-eabi/include/c++/10.3.1/cmath ****   { return __builtin_modff(__x, __iptr); }
 378:/Library/DaisyToolchain/0.2.0/arm/arm-none-eabi/include/c++/10.3.1/cmath **** 
 379:/Library/DaisyToolchain/0.2.0/arm/arm-none-eabi/include/c++/10.3.1/cmath ****   inline long double
 380:/Library/DaisyToolchain/0.2.0/arm/arm-none-eabi/include/c++/10.3.1/cmath ****   modf(long double __x, long double* __iptr)
 381:/Library/DaisyToolchain/0.2.0/arm/arm-none-eabi/include/c++/10.3.1/cmath ****   { return __builtin_modfl(__x, __iptr); }
 382:/Library/DaisyToolchain/0.2.0/arm/arm-none-eabi/include/c++/10.3.1/cmath **** #endif
 383:/Library/DaisyToolchain/0.2.0/arm/arm-none-eabi/include/c++/10.3.1/cmath **** 
 384:/Library/DaisyToolchain/0.2.0/arm/arm-none-eabi/include/c++/10.3.1/cmath ****   using ::pow;
 385:/Library/DaisyToolchain/0.2.0/arm/arm-none-eabi/include/c++/10.3.1/cmath **** 
 386:/Library/DaisyToolchain/0.2.0/arm/arm-none-eabi/include/c++/10.3.1/cmath **** #ifndef __CORRECT_ISO_CPP_MATH_H_PROTO
 387:/Library/DaisyToolchain/0.2.0/arm/arm-none-eabi/include/c++/10.3.1/cmath ****   inline _GLIBCXX_CONSTEXPR float
 388:/Library/DaisyToolchain/0.2.0/arm/arm-none-eabi/include/c++/10.3.1/cmath ****   pow(float __x, float __y)
 389:/Library/DaisyToolchain/0.2.0/arm/arm-none-eabi/include/c++/10.3.1/cmath ****   { return __builtin_powf(__x, __y); }
 390:/Library/DaisyToolchain/0.2.0/arm/arm-none-eabi/include/c++/10.3.1/cmath **** 
 391:/Library/DaisyToolchain/0.2.0/arm/arm-none-eabi/include/c++/10.3.1/cmath ****   inline _GLIBCXX_CONSTEXPR long double
 392:/Library/DaisyToolchain/0.2.0/arm/arm-none-eabi/include/c++/10.3.1/cmath ****   pow(long double __x, long double __y)
 393:/Library/DaisyToolchain/0.2.0/arm/arm-none-eabi/include/c++/10.3.1/cmath ****   { return __builtin_powl(__x, __y); }
 394:/Library/DaisyToolchain/0.2.0/arm/arm-none-eabi/include/c++/10.3.1/cmath **** 
 395:/Library/DaisyToolchain/0.2.0/arm/arm-none-eabi/include/c++/10.3.1/cmath **** #if __cplusplus < 201103L
 396:/Library/DaisyToolchain/0.2.0/arm/arm-none-eabi/include/c++/10.3.1/cmath ****   // _GLIBCXX_RESOLVE_LIB_DEFECTS
 397:/Library/DaisyToolchain/0.2.0/arm/arm-none-eabi/include/c++/10.3.1/cmath ****   // DR 550. What should the return type of pow(float,int) be?
 398:/Library/DaisyToolchain/0.2.0/arm/arm-none-eabi/include/c++/10.3.1/cmath ****   inline double
 399:/Library/DaisyToolchain/0.2.0/arm/arm-none-eabi/include/c++/10.3.1/cmath ****   pow(double __x, int __i)
 400:/Library/DaisyToolchain/0.2.0/arm/arm-none-eabi/include/c++/10.3.1/cmath ****   { return __builtin_powi(__x, __i); }
 401:/Library/DaisyToolchain/0.2.0/arm/arm-none-eabi/include/c++/10.3.1/cmath **** 
 402:/Library/DaisyToolchain/0.2.0/arm/arm-none-eabi/include/c++/10.3.1/cmath ****   inline float
 403:/Library/DaisyToolchain/0.2.0/arm/arm-none-eabi/include/c++/10.3.1/cmath ****   pow(float __x, int __n)
 404:/Library/DaisyToolchain/0.2.0/arm/arm-none-eabi/include/c++/10.3.1/cmath ****   { return __builtin_powif(__x, __n); }
 405:/Library/DaisyToolchain/0.2.0/arm/arm-none-eabi/include/c++/10.3.1/cmath **** 
 406:/Library/DaisyToolchain/0.2.0/arm/arm-none-eabi/include/c++/10.3.1/cmath ****   inline long double
 407:/Library/DaisyToolchain/0.2.0/arm/arm-none-eabi/include/c++/10.3.1/cmath ****   pow(long double __x, int __n)
ARM GAS  /var/folders/hl/qgbwny5j0fd895c2c41bk3tw0000gp/T//cc1L1gWC.s 			page 51


 408:/Library/DaisyToolchain/0.2.0/arm/arm-none-eabi/include/c++/10.3.1/cmath ****   { return __builtin_powil(__x, __n); }
 409:/Library/DaisyToolchain/0.2.0/arm/arm-none-eabi/include/c++/10.3.1/cmath **** #endif
 410:/Library/DaisyToolchain/0.2.0/arm/arm-none-eabi/include/c++/10.3.1/cmath **** #endif
 411:/Library/DaisyToolchain/0.2.0/arm/arm-none-eabi/include/c++/10.3.1/cmath **** 
 412:/Library/DaisyToolchain/0.2.0/arm/arm-none-eabi/include/c++/10.3.1/cmath ****   template<typename _Tp, typename _Up>
 413:/Library/DaisyToolchain/0.2.0/arm/arm-none-eabi/include/c++/10.3.1/cmath ****     inline _GLIBCXX_CONSTEXPR
 414:/Library/DaisyToolchain/0.2.0/arm/arm-none-eabi/include/c++/10.3.1/cmath ****     typename __gnu_cxx::__promote_2<_Tp, _Up>::__type
 415:/Library/DaisyToolchain/0.2.0/arm/arm-none-eabi/include/c++/10.3.1/cmath ****     pow(_Tp __x, _Up __y)
 416:/Library/DaisyToolchain/0.2.0/arm/arm-none-eabi/include/c++/10.3.1/cmath ****     {
 417:/Library/DaisyToolchain/0.2.0/arm/arm-none-eabi/include/c++/10.3.1/cmath ****       typedef typename __gnu_cxx::__promote_2<_Tp, _Up>::__type __type;
 418:/Library/DaisyToolchain/0.2.0/arm/arm-none-eabi/include/c++/10.3.1/cmath ****       return pow(__type(__x), __type(__y));
 419:/Library/DaisyToolchain/0.2.0/arm/arm-none-eabi/include/c++/10.3.1/cmath ****     }
 420:/Library/DaisyToolchain/0.2.0/arm/arm-none-eabi/include/c++/10.3.1/cmath **** 
 421:/Library/DaisyToolchain/0.2.0/arm/arm-none-eabi/include/c++/10.3.1/cmath ****   using ::sin;
 422:/Library/DaisyToolchain/0.2.0/arm/arm-none-eabi/include/c++/10.3.1/cmath **** 
 423:/Library/DaisyToolchain/0.2.0/arm/arm-none-eabi/include/c++/10.3.1/cmath **** #ifndef __CORRECT_ISO_CPP_MATH_H_PROTO
 424:/Library/DaisyToolchain/0.2.0/arm/arm-none-eabi/include/c++/10.3.1/cmath ****   inline _GLIBCXX_CONSTEXPR float
 425:/Library/DaisyToolchain/0.2.0/arm/arm-none-eabi/include/c++/10.3.1/cmath ****   sin(float __x)
 1097              		.loc 14 425 3 view .LVU281
 1098              	.LBB699:
 426:/Library/DaisyToolchain/0.2.0/arm/arm-none-eabi/include/c++/10.3.1/cmath ****   { return __builtin_sinf(__x); }
 1099              		.loc 14 426 5 view .LVU282
 1100              	.LBE699:
 1101              	.LBE698:
 1102              	.LBE697:
 1103              	.LBE696:
  74:customLooper.h ****         switch(state_)
 1104              		.loc 10 74 25 is_stmt 0 view .LVU283
 1105 00f0 9FEDA27A 		vldr.32	s14, .L89+36
 1106 00f4 07EE90BA 		vmov	s15, fp	@ int
 1107              	.LBB711:
 1108              	.LBB706:
 1109              		.loc 10 304 43 view .LVU284
 1110 00f8 9FEDA10A 		vldr.32	s0, .L89+40
 1111              	.LBE706:
 1112              	.LBE711:
  74:customLooper.h ****         switch(state_)
 1113              		.loc 10 74 25 view .LVU285
 1114 00fc F8EE677A 		vcvt.f32.u32	s15, s15
 1115 0100 67EE877A 		vmul.f32	s15, s15, s14
 1116              	.LVL61:
 1117              	.LBB712:
 1118              	.LBB707:
 1119              	.LBB703:
 1120              	.LBB700:
 1121              		.loc 14 426 26 view .LVU286
 1122 0104 27EE800A 		vmul.f32	s0, s15, s0
 1123              	.LVL62:
 1124              		.loc 14 426 26 view .LVU287
 1125 0108 FFF7FEFF 		bl	sinf
 1126              	.LVL63:
 1127              		.loc 14 426 26 view .LVU288
 1128              	.LBE700:
 1129              	.LBE703:
 1130              	.LBE707:
 1131              	.LBE712:
  75:customLooper.h ****         {
ARM GAS  /var/folders/hl/qgbwny5j0fd895c2c41bk3tw0000gp/T//cc1L1gWC.s 			page 52


 1132              		.loc 10 75 9 view .LVU289
 1133 010c B9F1020F 		cmp	r9, #2
  74:customLooper.h ****         switch(state_)
 1134              		.loc 10 74 14 view .LVU290
 1135 0110 84ED050A 		vstr.32	s0, [r4, #20]
  75:customLooper.h ****         {
 1136              		.loc 10 75 9 is_stmt 1 view .LVU291
 1137 0114 00F0C280 		beq	.L62
 1138 0118 B9F1030F 		cmp	r9, #3
 1139 011c 00F08580 		beq	.L63
 1140              	.LVL64:
 159:customLooper.h ****                               ? true
 1141              		.loc 10 159 9 view .LVU292
 1142              	.LBB713:
 1143              	.LBI713:
 200:customLooper.h ****     {
 1144              		.loc 10 200 23 view .LVU293
 1145              	.LBB714:
 202:customLooper.h ****     }
 1146              		.loc 10 202 9 view .LVU294
 202:customLooper.h ****     }
 1147              		.loc 10 202 41 is_stmt 0 view .LVU295
 1148 0120 29F00201 		bic	r1, r9, #2
 1149              	.LBE714:
 1150              	.LBE713:
 159:customLooper.h ****                               ? true
 1151              		.loc 10 159 50 view .LVU296
 1152 0124 0129     		cmp	r1, #1
 1153 0126 17D0     		beq	.L69
  67:customLooper.h ****         float inc;
 1154              		.loc 10 67 15 view .LVU297
 1155 0128 9FED967A 		vldr.32	s14, .L89+44
 1156 012c 6FE0     		b	.L45
 1157              	.LVL65:
 1158              	.L38:
  74:customLooper.h ****         switch(state_)
 1159              		.loc 10 74 9 is_stmt 1 view .LVU298
  74:customLooper.h ****         switch(state_)
 1160              		.loc 10 74 26 is_stmt 0 view .LVU299
 1161 012e D4F818B0 		ldr	fp, [r4, #24]
 1162              	.LVL66:
 1163              	.LBB718:
 1164              		.loc 10 304 11 is_stmt 1 view .LVU300
 1165              	.LBB708:
 1166              		.loc 10 304 33 view .LVU301
 1167              	.LBB704:
 425:/Library/DaisyToolchain/0.2.0/arm/arm-none-eabi/include/c++/10.3.1/cmath ****   { return __builtin_sinf(__x); }
 1168              		.loc 14 425 3 view .LVU302
 1169              	.LBB701:
 1170              		.loc 14 426 5 view .LVU303
 1171              	.LBE701:
 1172              	.LBE704:
 1173              	.LBE708:
 1174              	.LBE718:
  74:customLooper.h ****         switch(state_)
 1175              		.loc 10 74 25 is_stmt 0 view .LVU304
 1176 0132 9FED927A 		vldr.32	s14, .L89+36
ARM GAS  /var/folders/hl/qgbwny5j0fd895c2c41bk3tw0000gp/T//cc1L1gWC.s 			page 53


 1177 0136 07EE90BA 		vmov	s15, fp	@ int
 1178              	.LBB719:
 1179              	.LBB709:
 1180              		.loc 10 304 43 view .LVU305
 1181 013a 9FED910A 		vldr.32	s0, .L89+40
 1182              	.LBE709:
 1183              	.LBE719:
  74:customLooper.h ****         switch(state_)
 1184              		.loc 10 74 25 view .LVU306
 1185 013e F8EE677A 		vcvt.f32.u32	s15, s15
 1186 0142 67EE877A 		vmul.f32	s15, s15, s14
 1187              	.LVL67:
 1188              	.LBB720:
 1189              	.LBB710:
 1190              	.LBB705:
 1191              	.LBB702:
 1192              		.loc 14 426 26 view .LVU307
 1193 0146 27EE800A 		vmul.f32	s0, s15, s0
 1194              	.LVL68:
 1195              		.loc 14 426 26 view .LVU308
 1196 014a FFF7FEFF 		bl	sinf
 1197              	.LVL69:
 1198              		.loc 14 426 26 view .LVU309
 1199              	.LBE702:
 1200              	.LBE705:
 1201              	.LBE710:
 1202              	.LBE720:
  75:customLooper.h ****         {
 1203              		.loc 10 75 9 view .LVU310
 1204 014e B9F1010F 		cmp	r9, #1
  74:customLooper.h ****         switch(state_)
 1205              		.loc 10 74 14 view .LVU311
 1206 0152 84ED050A 		vstr.32	s0, [r4, #20]
  75:customLooper.h ****         {
 1207              		.loc 10 75 9 is_stmt 1 view .LVU312
 1208 0156 20D0     		beq	.L88
 1209              	.LVL70:
 1210              	.L69:
  67:customLooper.h ****         float inc;
 1211              		.loc 10 67 15 is_stmt 0 view .LVU313
 1212 0158 9FED8A7A 		vldr.32	s14, .L89+44
 1213              	.LVL71:
 1214              	.L87:
 160:customLooper.h ****                               : false;
 1215              		.loc 10 160 31 view .LVU314
 1216 015c 4FF0000C 		mov	ip, #0
 1217              	.L41:
 1218              	.LBE755:
 1219              	.LBE759:
 1220              		.loc 12 51 49 view .LVU315
 1221 0160 A9EE878A 		vfma.f32	s16, s19, s14
 1222              	.LVL72:
  52:Convolution.cpp **** 
  53:Convolution.cpp **** 		float outs;
  54:Convolution.cpp **** 		rev.Process(sig,sig,&outs,&outs);
 1223              		.loc 12 54 14 view .LVU316
 1224 0164 04AA     		add	r2, sp, #16
ARM GAS  /var/folders/hl/qgbwny5j0fd895c2c41bk3tw0000gp/T//cc1L1gWC.s 			page 54


 1225 0166 3346     		mov	r3, r6
 1226 0168 0096     		str	r6, [sp]
 1227 016a 1146     		mov	r1, r2
 1228 016c 8048     		ldr	r0, .L89+24
 1229              	.LBB760:
 1230              	.LBB756:
 159:customLooper.h ****                               ? true
 1231              		.loc 10 159 25 view .LVU317
 1232 016e 84F825C0 		strb	ip, [r4, #37]
 163:customLooper.h ****     }
 1233              		.loc 10 163 9 is_stmt 1 view .LVU318
 1234              	.LVL73:
 163:customLooper.h ****     }
 1235              		.loc 10 163 9 is_stmt 0 view .LVU319
 1236              	.LBE756:
 1237              	.LBE760:
 1238              	.LBE691:
  48:Convolution.cpp **** 	{
 1239              		.loc 12 48 2 view .LVU320
 1240 0172 0135     		adds	r5, r5, #1
 1241              	.LVL74:
 1242              	.LBB762:
  51:Convolution.cpp **** 
 1243              		.loc 12 51 51 view .LVU321
 1244 0174 8DED048A 		vstr.32	s16, [sp, #16]
  53:Convolution.cpp **** 		rev.Process(sig,sig,&outs,&outs);
 1245              		.loc 12 53 3 is_stmt 1 view .LVU322
 1246              		.loc 12 54 3 view .LVU323
 1247              		.loc 12 54 14 is_stmt 0 view .LVU324
 1248 0178 FFF7FEFF 		bl	_ZN7daisysp8ReverbSc7ProcessERKfS2_PfS3_
 1249              	.LVL75:
  55:Convolution.cpp **** 
  56:Convolution.cpp **** 		OUT_L[i] = outs;
 1250              		.loc 12 56 3 is_stmt 1 view .LVU325
 1251              		.loc 12 56 12 is_stmt 0 view .LVU326
 1252 017c 0599     		ldr	r1, [sp, #20]	@ float
  57:Convolution.cpp **** 		OUT_R[i] = outs;
 1253              		.loc 12 57 12 view .LVU327
 1254 017e D8E90023 		ldrd	r2, r3, [r8]
 1255 0182 5344     		add	r3, r3, r10
  56:Convolution.cpp **** 		OUT_R[i] = outs;
 1256              		.loc 12 56 12 view .LVU328
 1257 0184 5244     		add	r2, r2, r10
 1258 0186 1160     		str	r1, [r2]	@ float
 1259              		.loc 12 57 3 is_stmt 1 view .LVU329
 1260              		.loc 12 57 12 is_stmt 0 view .LVU330
 1261 0188 1960     		str	r1, [r3]	@ float
 1262              	.LBE762:
  48:Convolution.cpp **** 	{
 1263              		.loc 12 48 2 is_stmt 1 view .LVU331
 1264              	.LVL76:
  48:Convolution.cpp **** 	{
 1265              		.loc 12 48 23 view .LVU332
 1266 018a 039B     		ldr	r3, [sp, #12]
 1267 018c AB42     		cmp	r3, r5
 1268 018e 8CD1     		bne	.L37
 1269              	.LVL77:
ARM GAS  /var/folders/hl/qgbwny5j0fd895c2c41bk3tw0000gp/T//cc1L1gWC.s 			page 55


 1270              	.L36:
  48:Convolution.cpp **** 	{
 1271              		.loc 12 48 23 is_stmt 0 view .LVU333
 1272              	.LBE690:
  58:Convolution.cpp **** 	}
  59:Convolution.cpp **** }
 1273              		.loc 12 59 1 view .LVU334
 1274 0190 07B0     		add	sp, sp, #28
 1275              		.cfi_remember_state
 1276              		.cfi_def_cfa_offset 52
 1277              		@ sp needed
 1278 0192 BDEC048B 		vldm	sp!, {d8-d9}
 1279              		.cfi_restore 82
 1280              		.cfi_restore 83
 1281              		.cfi_restore 80
 1282              		.cfi_restore 81
 1283              		.cfi_def_cfa_offset 36
 1284              	.LVL78:
 1285              		.loc 12 59 1 view .LVU335
 1286 0196 BDE8F08F 		pop	{r4, r5, r6, r7, r8, r9, r10, fp, pc}
 1287              	.LVL79:
 1288              	.L88:
 1289              		.cfi_restore_state
 1290              	.LBB764:
 1291              	.LBB763:
 1292              	.LBB761:
 1293              	.LBB757:
  78:customLooper.h ****                 sig = 0.f;
 1294              		.loc 10 78 13 is_stmt 1 view .LVU336
  79:customLooper.h ****                 Write(pos_, input * win_);
 1295              		.loc 10 79 17 view .LVU337
  80:customLooper.h ****                 if(win_idx_ < kWindowSamps - 1)
 1296              		.loc 10 80 17 view .LVU338
 1297              	.LBB721:
 1298              	.LBI721:
 301:customLooper.h **** 
 1299              		.loc 10 301 17 view .LVU339
 1300              	.LBB722:
 301:customLooper.h **** 
 1301              		.loc 10 301 48 view .LVU340
 1302              	.LBE722:
 1303              	.LBE721:
  80:customLooper.h ****                 if(win_idx_ < kWindowSamps - 1)
 1304              		.loc 10 80 22 is_stmt 0 view .LVU341
 1305 019a D4ED047A 		vldr.32	s15, [r4, #16]
 1306 019e 28EE000A 		vmul.f32	s0, s16, s0
 1307              	.LVL80:
 1308              	.LBB725:
 1309              	.LBB723:
 301:customLooper.h **** 
 1310              		.loc 10 301 59 view .LVU342
 1311 01a2 A368     		ldr	r3, [r4, #8]
 1312              	.LBE723:
 1313              	.LBE725:
  80:customLooper.h ****                 if(win_idx_ < kWindowSamps - 1)
 1314              		.loc 10 80 22 view .LVU343
 1315 01a4 FCEEE77A 		vcvt.u32.f32	s15, s15
ARM GAS  /var/folders/hl/qgbwny5j0fd895c2c41bk3tw0000gp/T//cc1L1gWC.s 			page 56


 1316              	.LBB726:
 1317              	.LBB724:
 301:customLooper.h **** 
 1318              		.loc 10 301 59 view .LVU344
 1319 01a8 17EE902A 		vmov	r2, s15	@ int
 1320 01ac 03EB8203 		add	r3, r3, r2, lsl #2
 1321 01b0 83ED000A 		vstr.32	s0, [r3]
 1322              	.LVL81:
 301:customLooper.h **** 
 1323              		.loc 10 301 59 view .LVU345
 1324              	.LBE724:
 1325              	.LBE726:
  81:customLooper.h ****                     win_idx_ += 1;
 1326              		.loc 10 81 17 is_stmt 1 view .LVU346
 1327 01b4 40F2AE43 		movw	r3, #1198
 1328 01b8 9B45     		cmp	fp, r3
 1329 01ba 02D8     		bhi	.L42
  82:customLooper.h ****                 recsize_ = pos_;
 1330              		.loc 10 82 21 view .LVU347
  82:customLooper.h ****                 recsize_ = pos_;
 1331              		.loc 10 82 30 is_stmt 0 view .LVU348
 1332 01bc 0BF10103 		add	r3, fp, #1
 1333 01c0 A361     		str	r3, [r4, #24]
 1334              	.L42:
  83:customLooper.h ****                 pos_ += inc;
 1335              		.loc 10 83 17 is_stmt 1 view .LVU349
  83:customLooper.h ****                 pos_ += inc;
 1336              		.loc 10 83 28 is_stmt 0 view .LVU350
 1337 01c2 D4ED047A 		vldr.32	s15, [r4, #16]
  84:customLooper.h ****                 if(pos_ > buffer_size_ - 1)
 1338              		.loc 10 84 22 view .LVU351
 1339 01c6 F7EE006A 		vmov.f32	s13, #1.0e+0
  85:customLooper.h ****                 {
 1340              		.loc 10 85 40 view .LVU352
 1341 01ca E368     		ldr	r3, [r4, #12]
  83:customLooper.h ****                 pos_ += inc;
 1342              		.loc 10 83 26 view .LVU353
 1343 01cc BCEEE77A 		vcvt.u32.f32	s14, s15
  85:customLooper.h ****                 {
 1344              		.loc 10 85 40 view .LVU354
 1345 01d0 013B     		subs	r3, r3, #1
  84:customLooper.h ****                 if(pos_ > buffer_size_ - 1)
 1346              		.loc 10 84 22 view .LVU355
 1347 01d2 77EEA67A 		vadd.f32	s15, s15, s13
  83:customLooper.h ****                 pos_ += inc;
 1348              		.loc 10 83 26 view .LVU356
 1349 01d6 17EE102A 		vmov	r2, s14	@ int
  85:customLooper.h ****                 {
 1350              		.loc 10 85 25 view .LVU357
 1351 01da 07EE103A 		vmov	s14, r3	@ int
  84:customLooper.h ****                 if(pos_ > buffer_size_ - 1)
 1352              		.loc 10 84 22 view .LVU358
 1353 01de C4ED047A 		vstr.32	s15, [r4, #16]
  85:customLooper.h ****                 {
 1354              		.loc 10 85 25 view .LVU359
 1355 01e2 B8EE477A 		vcvt.f32.u32	s14, s14
  83:customLooper.h ****                 pos_ += inc;
ARM GAS  /var/folders/hl/qgbwny5j0fd895c2c41bk3tw0000gp/T//cc1L1gWC.s 			page 57


 1356              		.loc 10 83 26 view .LVU360
 1357 01e6 2262     		str	r2, [r4, #32]
  84:customLooper.h ****                 if(pos_ > buffer_size_ - 1)
 1358              		.loc 10 84 17 is_stmt 1 view .LVU361
  85:customLooper.h ****                 {
 1359              		.loc 10 85 17 view .LVU362
 1360 01e8 F4EEC77A 		vcmpe.f32	s15, s14
 1361 01ec F1EE10FA 		vmrs	APSR_nzcv, FPSCR
 1362 01f0 B2DD     		ble	.L69
  87:customLooper.h ****                     recsize_ = pos_ - 1;
 1363              		.loc 10 87 21 view .LVU363
  88:customLooper.h ****                     pos_     = 0;
 1364              		.loc 10 88 37 is_stmt 0 view .LVU364
 1365 01f2 77EEE67A 		vsub.f32	s15, s15, s13
  89:customLooper.h ****                 }
 1366              		.loc 10 89 30 view .LVU365
 1367 01f6 DFED636A 		vldr.32	s13, .L89+44
  87:customLooper.h ****                     recsize_ = pos_ - 1;
 1368              		.loc 10 87 30 view .LVU366
 1369 01fa 0223     		movs	r3, #2
  79:customLooper.h ****                 Write(pos_, input * win_);
 1370              		.loc 10 79 21 view .LVU367
 1371 01fc B0EE667A 		vmov.f32	s14, s13
  89:customLooper.h ****                 }
 1372              		.loc 10 89 30 view .LVU368
 1373 0200 C4ED046A 		vstr.32	s13, [r4, #16]
  88:customLooper.h ****                     pos_     = 0;
 1374              		.loc 10 88 30 view .LVU369
 1375 0204 FCEEE77A 		vcvt.u32.f32	s15, s15
  87:customLooper.h ****                     recsize_ = pos_ - 1;
 1376              		.loc 10 87 30 view .LVU370
 1377 0208 6360     		str	r3, [r4, #4]
  88:customLooper.h ****                     pos_     = 0;
 1378              		.loc 10 88 21 is_stmt 1 view .LVU371
  89:customLooper.h ****                 }
 1379              		.loc 10 89 21 view .LVU372
 1380              	.LVL82:
 159:customLooper.h ****                               ? true
 1381              		.loc 10 159 9 view .LVU373
 1382              	.LBB727:
 200:customLooper.h ****     {
 1383              		.loc 10 200 23 view .LVU374
 1384              	.LBB715:
 202:customLooper.h ****     }
 1385              		.loc 10 202 9 view .LVU375
 202:customLooper.h ****     }
 1386              		.loc 10 202 9 is_stmt 0 view .LVU376
 1387              	.LBE715:
 1388              	.LBE727:
  88:customLooper.h ****                     pos_     = 0;
 1389              		.loc 10 88 30 view .LVU377
 1390 020a C4ED087A 		vstr.32	s15, [r4, #32]	@ int
 1391              	.LVL83:
 1392              	.L45:
 160:customLooper.h ****                               : false;
 1393              		.loc 10 160 31 view .LVU378
 1394 020e D4ED046A 		vldr.32	s13, [r4, #16]
ARM GAS  /var/folders/hl/qgbwny5j0fd895c2c41bk3tw0000gp/T//cc1L1gWC.s 			page 58


 1395 0212 DFED5D7A 		vldr.32	s15, .L89+48
 1396 0216 F4EEE76A 		vcmpe.f32	s13, s15
 1397 021a F1EE10FA 		vmrs	APSR_nzcv, FPSCR
 1398 021e 4CBF     		ite	mi
 1399 0220 4FF0010C 		movmi	ip, #1
 1400 0224 4FF0000C 		movpl	ip, #0
 1401 0228 9AE7     		b	.L41
 1402              	.LVL84:
 1403              	.L63:
 125:customLooper.h ****                 sig = Read(pos_);
 1404              		.loc 10 125 13 is_stmt 1 view .LVU379
 126:customLooper.h ****                 switch(mode_)
 1405              		.loc 10 126 17 view .LVU380
 1406              	.LBB728:
 1407              	.LBI728:
 287:customLooper.h **** 
 1408              		.loc 10 287 24 view .LVU381
 1409              	.LBB729:
 287:customLooper.h **** 
 1410              		.loc 10 287 49 view .LVU382
 1411              	.LBE729:
 1412              	.LBE728:
 126:customLooper.h ****                 switch(mode_)
 1413              		.loc 10 126 27 is_stmt 0 view .LVU383
 1414 022a D4ED047A 		vldr.32	s15, [r4, #16]
 1415              	.LBB733:
 1416              	.LBB730:
 287:customLooper.h **** 
 1417              		.loc 10 287 65 view .LVU384
 1418 022e A268     		ldr	r2, [r4, #8]
 1419              	.LBE730:
 1420              	.LBE733:
 126:customLooper.h ****                 switch(mode_)
 1421              		.loc 10 126 27 view .LVU385
 1422 0230 FCEEE77A 		vcvt.u32.f32	s15, s15
 1423 0234 17EE903A 		vmov	r3, s15	@ int
 1424              	.LBB734:
 1425              	.LBB731:
 287:customLooper.h **** 
 1426              		.loc 10 287 65 view .LVU386
 1427 0238 02EB8303 		add	r3, r2, r3, lsl #2
 1428              	.LBE731:
 1429              	.LBE734:
 127:customLooper.h ****                 {
 1430              		.loc 10 127 24 view .LVU387
 1431 023c 2268     		ldr	r2, [r4]
 1432 023e 022A     		cmp	r2, #2
 1433              	.LBB735:
 1434              	.LBB732:
 287:customLooper.h **** 
 1435              		.loc 10 287 65 view .LVU388
 1436 0240 93ED007A 		vldr.32	s14, [r3]
 1437              	.LVL85:
 287:customLooper.h **** 
 1438              		.loc 10 287 65 view .LVU389
 1439              	.LBE732:
 1440              	.LBE735:
ARM GAS  /var/folders/hl/qgbwny5j0fd895c2c41bk3tw0000gp/T//cc1L1gWC.s 			page 59


 127:customLooper.h ****                 {
 1441              		.loc 10 127 17 is_stmt 1 view .LVU390
 1442 0244 00F08380 		beq	.L52
 1443 0248 032A     		cmp	r2, #3
 1444 024a 77D0     		beq	.L53
 133:customLooper.h ****                     case Mode::ONETIME_DUB:
 1445              		.loc 10 133 21 view .LVU391
 134:customLooper.h ****                     default: Write(pos_, (input * win_) + sig); break;
 1446              		.loc 10 134 21 view .LVU392
 135:customLooper.h ****                 }
 1447              		.loc 10 135 21 view .LVU393
 135:customLooper.h ****                 }
 1448              		.loc 10 135 30 view .LVU394
 135:customLooper.h ****                 }
 1449              		.loc 10 135 35 is_stmt 0 view .LVU395
 1450 024c F0EE477A 		vmov.f32	s15, s14
 1451 0250 E8EE007A 		vfma.f32	s15, s16, s0
 1452              	.LVL86:
 1453              	.LBB736:
 1454              	.LBI736:
 301:customLooper.h **** 
 1455              		.loc 10 301 17 is_stmt 1 view .LVU396
 1456              	.LBB737:
 301:customLooper.h **** 
 1457              		.loc 10 301 48 view .LVU397
 301:customLooper.h **** 
 1458              		.loc 10 301 59 is_stmt 0 view .LVU398
 1459 0254 C3ED007A 		vstr.32	s15, [r3]
 1460              	.LVL87:
 1461              	.L55:
 301:customLooper.h **** 
 1462              		.loc 10 301 59 view .LVU399
 1463              	.LBE737:
 1464              	.LBE736:
 137:customLooper.h ****                     win_idx_ += 1;
 1465              		.loc 10 137 17 is_stmt 1 view .LVU400
 1466 0258 40F2AE43 		movw	r3, #1198
 1467 025c 9B45     		cmp	fp, r3
 1468 025e 02D8     		bhi	.L56
 138:customLooper.h ****                 pos_ += inc;
 1469              		.loc 10 138 21 view .LVU401
 138:customLooper.h ****                 pos_ += inc;
 1470              		.loc 10 138 30 is_stmt 0 view .LVU402
 1471 0260 0BF10103 		add	r3, fp, #1
 1472 0264 A361     		str	r3, [r4, #24]
 1473              	.L56:
 139:customLooper.h ****                 if(pos_ > recsize_ - 1)
 1474              		.loc 10 139 17 is_stmt 1 view .LVU403
 140:customLooper.h ****                 {
 1475              		.loc 10 140 36 is_stmt 0 view .LVU404
 1476 0266 236A     		ldr	r3, [r4, #32]
 139:customLooper.h ****                 if(pos_ > recsize_ - 1)
 1477              		.loc 10 139 22 view .LVU405
 1478 0268 D4ED047A 		vldr.32	s15, [r4, #16]
 140:customLooper.h ****                 {
 1479              		.loc 10 140 36 view .LVU406
 1480 026c 013B     		subs	r3, r3, #1
ARM GAS  /var/folders/hl/qgbwny5j0fd895c2c41bk3tw0000gp/T//cc1L1gWC.s 			page 60


 139:customLooper.h ****                 if(pos_ > recsize_ - 1)
 1481              		.loc 10 139 22 view .LVU407
 1482 026e 78EEA78A 		vadd.f32	s17, s17, s15
 1483              	.LVL88:
 140:customLooper.h ****                 {
 1484              		.loc 10 140 25 view .LVU408
 1485 0272 07EE903A 		vmov	s15, r3	@ int
 1486 0276 F8EE677A 		vcvt.f32.u32	s15, s15
 139:customLooper.h ****                 if(pos_ > recsize_ - 1)
 1487              		.loc 10 139 22 view .LVU409
 1488 027a C4ED048A 		vstr.32	s17, [r4, #16]
 140:customLooper.h ****                 {
 1489              		.loc 10 140 17 is_stmt 1 view .LVU410
 1490 027e F4EEE78A 		vcmpe.f32	s17, s15
 1491 0282 F1EE10FA 		vmrs	APSR_nzcv, FPSCR
 1492 0286 47DD     		ble	.L84
 142:customLooper.h ****                     hitloop = true;
 1493              		.loc 10 142 21 view .LVU411
 142:customLooper.h ****                     hitloop = true;
 1494              		.loc 10 142 29 is_stmt 0 view .LVU412
 1495 0288 0023     		movs	r3, #0
 1496 028a 2361     		str	r3, [r4, #16]	@ float
 143:customLooper.h ****                 }
 1497              		.loc 10 143 21 is_stmt 1 view .LVU413
 1498              	.LVL89:
 150:customLooper.h ****                 {
 1499              		.loc 10 150 17 view .LVU414
 1500              	.L59:
 150:customLooper.h ****                 {
 1501              		.loc 10 150 28 is_stmt 0 view .LVU415
 1502 028c 012A     		cmp	r2, #1
 1503 028e 7FF465AF 		bne	.L87
 152:customLooper.h ****                     win_idx_ = 0;
 1504              		.loc 10 152 21 is_stmt 1 view .LVU416
 152:customLooper.h ****                     win_idx_ = 0;
 1505              		.loc 10 152 30 is_stmt 0 view .LVU417
 1506 0292 0223     		movs	r3, #2
 1507 0294 6360     		str	r3, [r4, #4]
 153:customLooper.h ****                 }
 1508              		.loc 10 153 21 is_stmt 1 view .LVU418
 153:customLooper.h ****                 }
 1509              		.loc 10 153 30 is_stmt 0 view .LVU419
 1510 0296 0023     		movs	r3, #0
 1511 0298 A361     		str	r3, [r4, #24]
 1512              	.LVL90:
 159:customLooper.h ****                               ? true
 1513              		.loc 10 159 9 is_stmt 1 view .LVU420
 1514              	.LBB738:
 200:customLooper.h ****     {
 1515              		.loc 10 200 23 view .LVU421
 1516              	.LBB716:
 202:customLooper.h ****     }
 1517              		.loc 10 202 9 view .LVU422
 202:customLooper.h ****     }
 1518              		.loc 10 202 9 is_stmt 0 view .LVU423
 1519 029a B8E7     		b	.L45
 1520              	.LVL91:
ARM GAS  /var/folders/hl/qgbwny5j0fd895c2c41bk3tw0000gp/T//cc1L1gWC.s 			page 61


 1521              	.L62:
 202:customLooper.h ****     }
 1522              		.loc 10 202 9 view .LVU424
 1523              	.LBE716:
 1524              	.LBE738:
  92:customLooper.h ****                 sig = Read(pos_);
 1525              		.loc 10 92 13 is_stmt 1 view .LVU425
  93:customLooper.h ****                 /** This is a way of 'seamless looping'
 1526              		.loc 10 93 17 view .LVU426
  93:customLooper.h ****                 /** This is a way of 'seamless looping'
 1527              		.loc 10 93 28 is_stmt 0 view .LVU427
 1528 029c D4ED047A 		vldr.32	s15, [r4, #16]
 1529              	.LVL92:
 1530              	.LBB739:
 1531              	.LBI739:
 287:customLooper.h **** 
 1532              		.loc 10 287 24 is_stmt 1 view .LVU428
 1533              	.LBB740:
 287:customLooper.h **** 
 1534              		.loc 10 287 49 view .LVU429
 287:customLooper.h **** 
 1535              		.loc 10 287 65 is_stmt 0 view .LVU430
 1536 02a0 A268     		ldr	r2, [r4, #8]
 1537              	.LBE740:
 1538              	.LBE739:
  93:customLooper.h ****                 /** This is a way of 'seamless looping'
 1539              		.loc 10 93 27 view .LVU431
 1540 02a2 BCEEE77A 		vcvt.u32.f32	s14, s15
 1541 02a6 17EE103A 		vmov	r3, s14	@ int
 1542              	.LBB743:
 1543              	.LBB741:
 287:customLooper.h **** 
 1544              		.loc 10 287 65 view .LVU432
 1545 02aa 02EB8303 		add	r3, r2, r3, lsl #2
 1546              	.LBE741:
 1547              	.LBE743:
  97:customLooper.h ****                 {
 1548              		.loc 10 97 17 view .LVU433
 1549 02ae 40F2AE42 		movw	r2, #1198
 1550 02b2 9345     		cmp	fp, r2
 1551              	.LBB744:
 1552              	.LBB742:
 287:customLooper.h **** 
 1553              		.loc 10 287 65 view .LVU434
 1554 02b4 93ED007A 		vldr.32	s14, [r3]
 1555              	.LVL93:
 287:customLooper.h **** 
 1556              		.loc 10 287 65 view .LVU435
 1557              	.LBE742:
 1558              	.LBE744:
  97:customLooper.h ****                 {
 1559              		.loc 10 97 17 is_stmt 1 view .LVU436
 1560 02b8 0ED8     		bhi	.L46
  99:customLooper.h ****                     win_idx_ += 1;
 1561              		.loc 10 99 21 view .LVU437
  99:customLooper.h ****                     win_idx_ += 1;
 1562              		.loc 10 99 52 is_stmt 0 view .LVU438
ARM GAS  /var/folders/hl/qgbwny5j0fd895c2c41bk3tw0000gp/T//cc1L1gWC.s 			page 62


 1563 02ba F7EE007A 		vmov.f32	s15, #1.0e+0
 100:customLooper.h ****                 }
 1564              		.loc 10 100 30 view .LVU439
 1565 02be 0BF10102 		add	r2, fp, #1
  99:customLooper.h ****                     win_idx_ += 1;
 1566              		.loc 10 99 52 view .LVU440
 1567 02c2 37EEC00A 		vsub.f32	s0, s15, s0
  99:customLooper.h ****                     win_idx_ += 1;
 1568              		.loc 10 99 26 view .LVU441
 1569 02c6 F0EE477A 		vmov.f32	s15, s14
 1570 02ca E8EE007A 		vfma.f32	s15, s16, s0
 1571              	.LVL94:
 1572              	.LBB745:
 1573              	.LBI745:
 301:customLooper.h **** 
 1574              		.loc 10 301 17 is_stmt 1 view .LVU442
 1575              	.LBB746:
 301:customLooper.h **** 
 1576              		.loc 10 301 48 view .LVU443
 301:customLooper.h **** 
 1577              		.loc 10 301 59 is_stmt 0 view .LVU444
 1578 02ce C3ED007A 		vstr.32	s15, [r3]
 1579              	.LVL95:
 301:customLooper.h **** 
 1580              		.loc 10 301 59 view .LVU445
 1581              	.LBE746:
 1582              	.LBE745:
 100:customLooper.h ****                 }
 1583              		.loc 10 100 21 is_stmt 1 view .LVU446
 103:customLooper.h ****                 if(pos_ > recsize_ - 1)
 1584              		.loc 10 103 22 is_stmt 0 view .LVU447
 1585 02d2 D4ED047A 		vldr.32	s15, [r4, #16]
 100:customLooper.h ****                 }
 1586              		.loc 10 100 30 view .LVU448
 1587 02d6 A261     		str	r2, [r4, #24]
 1588              	.L46:
 103:customLooper.h ****                 if(pos_ > recsize_ - 1)
 1589              		.loc 10 103 17 is_stmt 1 view .LVU449
 104:customLooper.h ****                 {
 1590              		.loc 10 104 36 is_stmt 0 view .LVU450
 1591 02d8 236A     		ldr	r3, [r4, #32]
 103:customLooper.h ****                 if(pos_ > recsize_ - 1)
 1592              		.loc 10 103 22 view .LVU451
 1593 02da 78EEA78A 		vadd.f32	s17, s17, s15
 1594              	.LVL96:
 104:customLooper.h ****                 {
 1595              		.loc 10 104 36 view .LVU452
 1596 02de 013B     		subs	r3, r3, #1
 103:customLooper.h ****                 if(pos_ > recsize_ - 1)
 1597              		.loc 10 103 22 view .LVU453
 1598 02e0 C4ED048A 		vstr.32	s17, [r4, #16]
 104:customLooper.h ****                 {
 1599              		.loc 10 104 17 is_stmt 1 view .LVU454
 104:customLooper.h ****                 {
 1600              		.loc 10 104 25 is_stmt 0 view .LVU455
 1601 02e4 07EE903A 		vmov	s15, r3	@ int
 1602 02e8 F8EE677A 		vcvt.f32.u32	s15, s15
ARM GAS  /var/folders/hl/qgbwny5j0fd895c2c41bk3tw0000gp/T//cc1L1gWC.s 			page 63


 104:customLooper.h ****                 {
 1603              		.loc 10 104 17 view .LVU456
 1604 02ec F4EEE78A 		vcmpe.f32	s17, s15
 1605 02f0 F1EE10FA 		vmrs	APSR_nzcv, FPSCR
 1606 02f4 19DD     		ble	.L82
 106:customLooper.h ****                     hitloop = true;
 1607              		.loc 10 106 21 is_stmt 1 view .LVU457
 106:customLooper.h ****                     hitloop = true;
 1608              		.loc 10 106 29 is_stmt 0 view .LVU458
 1609 02f6 0023     		movs	r3, #0
 1610 02f8 2361     		str	r3, [r4, #16]	@ float
 107:customLooper.h ****                 }
 1611              		.loc 10 107 21 is_stmt 1 view .LVU459
 1612              	.LVL97:
 114:customLooper.h **** 
 1613              		.loc 10 114 17 view .LVU460
 1614              	.L49:
 117:customLooper.h ****                     {
 1615              		.loc 10 117 21 view .LVU461
 1616 02fa 94F82430 		ldrb	r3, [r4, #36]	@ zero_extendqisi2
 1617 02fe 002B     		cmp	r3, #0
 1618 0300 85D0     		beq	.L45
 117:customLooper.h ****                     {
 1619              		.loc 10 117 35 is_stmt 0 view .LVU462
 1620 0302 2368     		ldr	r3, [r4]
 1621 0304 012B     		cmp	r3, #1
 1622 0306 82D1     		bne	.L45
 119:customLooper.h ****                         state_     = State::REC_DUB;
 1623              		.loc 10 119 25 is_stmt 1 view .LVU463
 119:customLooper.h ****                         state_     = State::REC_DUB;
 1624              		.loc 10 119 36 is_stmt 0 view .LVU464
 1625 0308 0023     		movs	r3, #0
 160:customLooper.h ****                               : false;
 1626              		.loc 10 160 31 view .LVU465
 1627 030a 9C46     		mov	ip, r3
 119:customLooper.h ****                         state_     = State::REC_DUB;
 1628              		.loc 10 119 36 view .LVU466
 1629 030c 84F82430 		strb	r3, [r4, #36]
 120:customLooper.h ****                         win_idx_   = 0;
 1630              		.loc 10 120 25 is_stmt 1 view .LVU467
 121:customLooper.h ****                     }
 1631              		.loc 10 121 36 is_stmt 0 view .LVU468
 1632 0310 A361     		str	r3, [r4, #24]
 120:customLooper.h ****                         win_idx_   = 0;
 1633              		.loc 10 120 36 view .LVU469
 1634 0312 0323     		movs	r3, #3
 1635 0314 6360     		str	r3, [r4, #4]
 121:customLooper.h ****                     }
 1636              		.loc 10 121 25 is_stmt 1 view .LVU470
 1637              	.LVL98:
 159:customLooper.h ****                               ? true
 1638              		.loc 10 159 9 view .LVU471
 1639              	.LBB747:
 200:customLooper.h ****     {
 1640              		.loc 10 200 23 view .LVU472
 1641              	.LBB717:
 202:customLooper.h ****     }
ARM GAS  /var/folders/hl/qgbwny5j0fd895c2c41bk3tw0000gp/T//cc1L1gWC.s 			page 64


 1642              		.loc 10 202 9 view .LVU473
 202:customLooper.h ****     }
 1643              		.loc 10 202 9 is_stmt 0 view .LVU474
 1644 0316 23E7     		b	.L41
 1645              	.LVL99:
 1646              	.L84:
 202:customLooper.h ****     }
 1647              		.loc 10 202 9 view .LVU475
 1648              	.LBE717:
 1649              	.LBE747:
 145:customLooper.h ****                 {
 1650              		.loc 10 145 22 is_stmt 1 view .LVU476
 1651 0318 F5EEC08A 		vcmpe.f32	s17, #0
 1652 031c F1EE10FA 		vmrs	APSR_nzcv, FPSCR
 1653 0320 7FF51CAF 		bpl	.L87
 147:customLooper.h ****                     hitloop = true;
 1654              		.loc 10 147 21 view .LVU477
 147:customLooper.h ****                     hitloop = true;
 1655              		.loc 10 147 29 is_stmt 0 view .LVU478
 1656 0324 C4ED047A 		vstr.32	s15, [r4, #16]
 148:customLooper.h ****                 }
 1657              		.loc 10 148 21 is_stmt 1 view .LVU479
 1658              	.LVL100:
 150:customLooper.h ****                 {
 1659              		.loc 10 150 17 view .LVU480
 1660 0328 B0E7     		b	.L59
 1661              	.LVL101:
 1662              	.L82:
 109:customLooper.h ****                 {
 1663              		.loc 10 109 22 view .LVU481
 1664 032a F5EEC08A 		vcmpe.f32	s17, #0
 1665 032e F1EE10FA 		vmrs	APSR_nzcv, FPSCR
 1666 0332 7FF56CAF 		bpl	.L45
 111:customLooper.h ****                     hitloop = true;
 1667              		.loc 10 111 21 view .LVU482
 111:customLooper.h ****                     hitloop = true;
 1668              		.loc 10 111 29 is_stmt 0 view .LVU483
 1669 0336 C4ED047A 		vstr.32	s15, [r4, #16]
 112:customLooper.h ****                 }
 1670              		.loc 10 112 21 is_stmt 1 view .LVU484
 1671              	.LVL102:
 114:customLooper.h **** 
 1672              		.loc 10 114 17 view .LVU485
 1673 033a DEE7     		b	.L49
 1674              	.LVL103:
 1675              	.L53:
 130:customLooper.h ****                         Write(pos_, (input * win_) + (sig * kFripDecayVal));
 1676              		.loc 10 130 21 view .LVU486
 131:customLooper.h ****                         break;
 1677              		.loc 10 131 25 view .LVU487
 131:customLooper.h ****                         break;
 1678              		.loc 10 131 59 is_stmt 0 view .LVU488
 1679 033c DFED137A 		vldr.32	s15, .L89+52
 1680 0340 67EE277A 		vmul.f32	s15, s14, s15
 131:customLooper.h ****                         break;
 1681              		.loc 10 131 30 view .LVU489
 1682 0344 E8EE007A 		vfma.f32	s15, s16, s0
ARM GAS  /var/folders/hl/qgbwny5j0fd895c2c41bk3tw0000gp/T//cc1L1gWC.s 			page 65


 1683              	.LVL104:
 1684              	.LBB748:
 1685              	.LBI748:
 301:customLooper.h **** 
 1686              		.loc 10 301 17 is_stmt 1 view .LVU490
 1687              	.LBB749:
 301:customLooper.h **** 
 1688              		.loc 10 301 48 view .LVU491
 301:customLooper.h **** 
 1689              		.loc 10 301 59 is_stmt 0 view .LVU492
 1690 0348 C3ED007A 		vstr.32	s15, [r3]
 1691              	.LVL105:
 301:customLooper.h **** 
 1692              		.loc 10 301 66 view .LVU493
 1693 034c 84E7     		b	.L55
 1694              	.LVL106:
 1695              	.L52:
 301:customLooper.h **** 
 1696              		.loc 10 301 66 view .LVU494
 1697              	.LBE749:
 1698              	.LBE748:
 129:customLooper.h ****                     case Mode::FRIPPERTRONICS:
 1699              		.loc 10 129 21 is_stmt 1 view .LVU495
 129:customLooper.h ****                     case Mode::FRIPPERTRONICS:
 1700              		.loc 10 129 41 view .LVU496
 1701              	.LBB750:
 1702              	.LBI750:
 301:customLooper.h **** 
 1703              		.loc 10 301 17 view .LVU497
 1704              	.LBB751:
 301:customLooper.h **** 
 1705              		.loc 10 301 48 view .LVU498
 1706              	.LBE751:
 1707              	.LBE750:
 129:customLooper.h ****                     case Mode::FRIPPERTRONICS:
 1708              		.loc 10 129 46 is_stmt 0 view .LVU499
 1709 034e 68EE007A 		vmul.f32	s15, s16, s0
 1710              	.LVL107:
 1711              	.LBB753:
 1712              	.LBB752:
 301:customLooper.h **** 
 1713              		.loc 10 301 59 view .LVU500
 1714 0352 C3ED007A 		vstr.32	s15, [r3]
 1715              	.LVL108:
 301:customLooper.h **** 
 1716              		.loc 10 301 66 view .LVU501
 1717 0356 7FE7     		b	.L55
 1718              	.L90:
 1719              		.align	2
 1720              	.L89:
 1721 0358 00000000 		.word	.LANCHOR18
 1722 035c 9A99993E 		.word	1050253722
 1723 0360 D7A3303F 		.word	1060152279
 1724 0364 A4707D3F 		.word	1065185444
 1725 0368 E731483F 		.word	1061695975
 1726 036c 00007A44 		.word	1148846080
 1727 0370 00000000 		.word	rev
ARM GAS  /var/folders/hl/qgbwny5j0fd895c2c41bk3tw0000gp/T//cc1L1gWC.s 			page 66


 1728 0374 00709446 		.word	1184133120
 1729 0378 00000000 		.word	.LANCHOR19
 1730 037c 0E745A3A 		.word	979006478
 1731 0380 DB0FC93F 		.word	1070141403
 1732 0384 00000000 		.word	0
 1733 0388 00009645 		.word	1167458304
 1734 038c F304353F 		.word	1060439283
 1735              	.LBE752:
 1736              	.LBE753:
 1737              	.LBE757:
 1738              	.LBE761:
 1739              	.LBE763:
 1740              	.LBE764:
 1741              		.cfi_endproc
 1742              	.LFE5075:
 1744              		.section	.text.startup.main,"ax",%progbits
 1745              		.align	1
 1746              		.p2align 2,,3
 1747              		.global	main
 1748              		.syntax unified
 1749              		.thumb
 1750              		.thumb_func
 1752              	main:
 1753              	.LFB5076:
  60:Convolution.cpp **** 
  61:Convolution.cpp **** int main(void)
  62:Convolution.cpp **** {
 1754              		.loc 12 62 1 is_stmt 1 view -0
 1755              		.cfi_startproc
 1756              		@ args = 0, pretend = 0, frame = 8
 1757              		@ frame_needed = 0, uses_anonymous_args = 0
  63:Convolution.cpp **** 	hw.Init();
 1758              		.loc 12 63 2 view .LVU503
  62:Convolution.cpp **** 	hw.Init();
 1759              		.loc 12 62 1 is_stmt 0 view .LVU504
 1760 0000 F0B5     		push	{r4, r5, r6, r7, lr}
 1761              		.cfi_def_cfa_offset 20
 1762              		.cfi_offset 4, -20
 1763              		.cfi_offset 5, -16
 1764              		.cfi_offset 6, -12
 1765              		.cfi_offset 7, -8
 1766              		.cfi_offset 14, -4
 1767              		.loc 12 63 9 view .LVU505
 1768 0002 3348     		ldr	r0, .L97
  62:Convolution.cpp **** 	hw.Init();
 1769              		.loc 12 62 1 view .LVU506
 1770 0004 83B0     		sub	sp, sp, #12
 1771              		.cfi_def_cfa_offset 32
 1772              		.loc 12 63 9 view .LVU507
 1773 0006 FFF7FEFF 		bl	_ZN5daisy8patch_sm12DaisyPatchSM4InitEv
 1774              	.LVL109:
  64:Convolution.cpp **** 	hw.SetAudioBlockSize(64); // number of samples handled per callback
 1775              		.loc 12 64 2 is_stmt 1 view .LVU508
 1776              		.loc 12 64 22 is_stmt 0 view .LVU509
 1777 000a 4021     		movs	r1, #64
 1778 000c 3048     		ldr	r0, .L97
 1779 000e FFF7FEFF 		bl	_ZN5daisy8patch_sm12DaisyPatchSM17SetAudioBlockSizeEj
ARM GAS  /var/folders/hl/qgbwny5j0fd895c2c41bk3tw0000gp/T//cc1L1gWC.s 			page 67


 1780              	.LVL110:
  65:Convolution.cpp **** 	hw.SetAudioSampleRate(SaiHandle::Config::SampleRate::SAI_48KHZ);
 1781              		.loc 12 65 2 is_stmt 1 view .LVU510
 1782              		.loc 12 65 23 is_stmt 0 view .LVU511
 1783 0012 0321     		movs	r1, #3
 1784 0014 2E48     		ldr	r0, .L97
 1785 0016 FFF7FEFF 		bl	_ZN5daisy8patch_sm12DaisyPatchSM18SetAudioSampleRateENS_9SaiHandle6Config10SampleRateE
 1786              	.LVL111:
  66:Convolution.cpp **** 	float sample_rate = hw.AudioSampleRate();
 1787              		.loc 12 66 2 is_stmt 1 view .LVU512
 1788              		.loc 12 66 40 is_stmt 0 view .LVU513
 1789 001a 2D48     		ldr	r0, .L97
 1790 001c FFF7FEFF 		bl	_ZN5daisy8patch_sm12DaisyPatchSM15AudioSampleRateEv
 1791              	.LVL112:
 1792              	.LBB784:
 1793              	.LBB785:
  52:customLooper.h ****         buff_        = mem;
 1794              		.loc 10 52 22 view .LVU514
 1795 0020 2C4D     		ldr	r5, .L97+4
 1796              	.LBE785:
 1797              	.LBE784:
 1798              		.loc 12 66 40 view .LVU515
 1799 0022 8DED010A 		vstr.32	s0, [sp, #4]	@ int
 1800              	.LVL113:
  67:Convolution.cpp **** 
  68:Convolution.cpp **** 	InitBed();
 1801              		.loc 12 68 2 is_stmt 1 view .LVU516
 1802              		.loc 12 68 9 is_stmt 0 view .LVU517
 1803 0026 FFF7FEFF 		bl	_ZN5daisy8patch_sm7InitBedEv
 1804              	.LVL114:
  69:Convolution.cpp **** 	loop.Init(buffer, kBuffSize);
 1805              		.loc 12 69 2 is_stmt 1 view .LVU518
 1806              	.LBB805:
 1807              	.LBI784:
  50:customLooper.h ****     {
 1808              		.loc 10 50 10 view .LVU519
 1809              	.LBB802:
  52:customLooper.h ****         buff_        = mem;
 1810              		.loc 10 52 9 view .LVU520
  52:customLooper.h ****         buff_        = mem;
 1811              		.loc 10 52 22 is_stmt 0 view .LVU521
 1812 002a 2B4B     		ldr	r3, .L97+8
 1813              	.LBB786:
 1814              	.LBB787:
 1815              	.LBB788:
 1816              	.LBB789:
 1817              	.LBB790:
 1818              		.file 15 "/Library/DaisyToolchain/0.2.0/arm/arm-none-eabi/include/c++/10.3.1/bits/stl_algobase.h"
   1:/Library/DaisyToolchain/0.2.0/arm/arm-none-eabi/include/c++/10.3.1/bits/stl_algobase.h **** // Core algorithmic facilities -*- C++ -*-
   2:/Library/DaisyToolchain/0.2.0/arm/arm-none-eabi/include/c++/10.3.1/bits/stl_algobase.h **** 
   3:/Library/DaisyToolchain/0.2.0/arm/arm-none-eabi/include/c++/10.3.1/bits/stl_algobase.h **** // Copyright (C) 2001-2020 Free Software Foundation, Inc.
   4:/Library/DaisyToolchain/0.2.0/arm/arm-none-eabi/include/c++/10.3.1/bits/stl_algobase.h **** //
   5:/Library/DaisyToolchain/0.2.0/arm/arm-none-eabi/include/c++/10.3.1/bits/stl_algobase.h **** // This file is part of the GNU ISO C++ Library.  This library is free
   6:/Library/DaisyToolchain/0.2.0/arm/arm-none-eabi/include/c++/10.3.1/bits/stl_algobase.h **** // software; you can redistribute it and/or modify it under the
   7:/Library/DaisyToolchain/0.2.0/arm/arm-none-eabi/include/c++/10.3.1/bits/stl_algobase.h **** // terms of the GNU General Public License as published by the
   8:/Library/DaisyToolchain/0.2.0/arm/arm-none-eabi/include/c++/10.3.1/bits/stl_algobase.h **** // Free Software Foundation; either version 3, or (at your option)
   9:/Library/DaisyToolchain/0.2.0/arm/arm-none-eabi/include/c++/10.3.1/bits/stl_algobase.h **** // any later version.
ARM GAS  /var/folders/hl/qgbwny5j0fd895c2c41bk3tw0000gp/T//cc1L1gWC.s 			page 68


  10:/Library/DaisyToolchain/0.2.0/arm/arm-none-eabi/include/c++/10.3.1/bits/stl_algobase.h **** 
  11:/Library/DaisyToolchain/0.2.0/arm/arm-none-eabi/include/c++/10.3.1/bits/stl_algobase.h **** // This library is distributed in the hope that it will be useful,
  12:/Library/DaisyToolchain/0.2.0/arm/arm-none-eabi/include/c++/10.3.1/bits/stl_algobase.h **** // but WITHOUT ANY WARRANTY; without even the implied warranty of
  13:/Library/DaisyToolchain/0.2.0/arm/arm-none-eabi/include/c++/10.3.1/bits/stl_algobase.h **** // MERCHANTABILITY or FITNESS FOR A PARTICULAR PURPOSE.  See the
  14:/Library/DaisyToolchain/0.2.0/arm/arm-none-eabi/include/c++/10.3.1/bits/stl_algobase.h **** // GNU General Public License for more details.
  15:/Library/DaisyToolchain/0.2.0/arm/arm-none-eabi/include/c++/10.3.1/bits/stl_algobase.h **** 
  16:/Library/DaisyToolchain/0.2.0/arm/arm-none-eabi/include/c++/10.3.1/bits/stl_algobase.h **** // Under Section 7 of GPL version 3, you are granted additional
  17:/Library/DaisyToolchain/0.2.0/arm/arm-none-eabi/include/c++/10.3.1/bits/stl_algobase.h **** // permissions described in the GCC Runtime Library Exception, version
  18:/Library/DaisyToolchain/0.2.0/arm/arm-none-eabi/include/c++/10.3.1/bits/stl_algobase.h **** // 3.1, as published by the Free Software Foundation.
  19:/Library/DaisyToolchain/0.2.0/arm/arm-none-eabi/include/c++/10.3.1/bits/stl_algobase.h **** 
  20:/Library/DaisyToolchain/0.2.0/arm/arm-none-eabi/include/c++/10.3.1/bits/stl_algobase.h **** // You should have received a copy of the GNU General Public License and
  21:/Library/DaisyToolchain/0.2.0/arm/arm-none-eabi/include/c++/10.3.1/bits/stl_algobase.h **** // a copy of the GCC Runtime Library Exception along with this program;
  22:/Library/DaisyToolchain/0.2.0/arm/arm-none-eabi/include/c++/10.3.1/bits/stl_algobase.h **** // see the files COPYING3 and COPYING.RUNTIME respectively.  If not, see
  23:/Library/DaisyToolchain/0.2.0/arm/arm-none-eabi/include/c++/10.3.1/bits/stl_algobase.h **** // <http://www.gnu.org/licenses/>.
  24:/Library/DaisyToolchain/0.2.0/arm/arm-none-eabi/include/c++/10.3.1/bits/stl_algobase.h **** 
  25:/Library/DaisyToolchain/0.2.0/arm/arm-none-eabi/include/c++/10.3.1/bits/stl_algobase.h **** /*
  26:/Library/DaisyToolchain/0.2.0/arm/arm-none-eabi/include/c++/10.3.1/bits/stl_algobase.h ****  *
  27:/Library/DaisyToolchain/0.2.0/arm/arm-none-eabi/include/c++/10.3.1/bits/stl_algobase.h ****  * Copyright (c) 1994
  28:/Library/DaisyToolchain/0.2.0/arm/arm-none-eabi/include/c++/10.3.1/bits/stl_algobase.h ****  * Hewlett-Packard Company
  29:/Library/DaisyToolchain/0.2.0/arm/arm-none-eabi/include/c++/10.3.1/bits/stl_algobase.h ****  *
  30:/Library/DaisyToolchain/0.2.0/arm/arm-none-eabi/include/c++/10.3.1/bits/stl_algobase.h ****  * Permission to use, copy, modify, distribute and sell this software
  31:/Library/DaisyToolchain/0.2.0/arm/arm-none-eabi/include/c++/10.3.1/bits/stl_algobase.h ****  * and its documentation for any purpose is hereby granted without fee,
  32:/Library/DaisyToolchain/0.2.0/arm/arm-none-eabi/include/c++/10.3.1/bits/stl_algobase.h ****  * provided that the above copyright notice appear in all copies and
  33:/Library/DaisyToolchain/0.2.0/arm/arm-none-eabi/include/c++/10.3.1/bits/stl_algobase.h ****  * that both that copyright notice and this permission notice appear
  34:/Library/DaisyToolchain/0.2.0/arm/arm-none-eabi/include/c++/10.3.1/bits/stl_algobase.h ****  * in supporting documentation.  Hewlett-Packard Company makes no
  35:/Library/DaisyToolchain/0.2.0/arm/arm-none-eabi/include/c++/10.3.1/bits/stl_algobase.h ****  * representations about the suitability of this software for any
  36:/Library/DaisyToolchain/0.2.0/arm/arm-none-eabi/include/c++/10.3.1/bits/stl_algobase.h ****  * purpose.  It is provided "as is" without express or implied warranty.
  37:/Library/DaisyToolchain/0.2.0/arm/arm-none-eabi/include/c++/10.3.1/bits/stl_algobase.h ****  *
  38:/Library/DaisyToolchain/0.2.0/arm/arm-none-eabi/include/c++/10.3.1/bits/stl_algobase.h ****  *
  39:/Library/DaisyToolchain/0.2.0/arm/arm-none-eabi/include/c++/10.3.1/bits/stl_algobase.h ****  * Copyright (c) 1996-1998
  40:/Library/DaisyToolchain/0.2.0/arm/arm-none-eabi/include/c++/10.3.1/bits/stl_algobase.h ****  * Silicon Graphics Computer Systems, Inc.
  41:/Library/DaisyToolchain/0.2.0/arm/arm-none-eabi/include/c++/10.3.1/bits/stl_algobase.h ****  *
  42:/Library/DaisyToolchain/0.2.0/arm/arm-none-eabi/include/c++/10.3.1/bits/stl_algobase.h ****  * Permission to use, copy, modify, distribute and sell this software
  43:/Library/DaisyToolchain/0.2.0/arm/arm-none-eabi/include/c++/10.3.1/bits/stl_algobase.h ****  * and its documentation for any purpose is hereby granted without fee,
  44:/Library/DaisyToolchain/0.2.0/arm/arm-none-eabi/include/c++/10.3.1/bits/stl_algobase.h ****  * provided that the above copyright notice appear in all copies and
  45:/Library/DaisyToolchain/0.2.0/arm/arm-none-eabi/include/c++/10.3.1/bits/stl_algobase.h ****  * that both that copyright notice and this permission notice appear
  46:/Library/DaisyToolchain/0.2.0/arm/arm-none-eabi/include/c++/10.3.1/bits/stl_algobase.h ****  * in supporting documentation.  Silicon Graphics makes no
  47:/Library/DaisyToolchain/0.2.0/arm/arm-none-eabi/include/c++/10.3.1/bits/stl_algobase.h ****  * representations about the suitability of this software for any
  48:/Library/DaisyToolchain/0.2.0/arm/arm-none-eabi/include/c++/10.3.1/bits/stl_algobase.h ****  * purpose.  It is provided "as is" without express or implied warranty.
  49:/Library/DaisyToolchain/0.2.0/arm/arm-none-eabi/include/c++/10.3.1/bits/stl_algobase.h ****  */
  50:/Library/DaisyToolchain/0.2.0/arm/arm-none-eabi/include/c++/10.3.1/bits/stl_algobase.h **** 
  51:/Library/DaisyToolchain/0.2.0/arm/arm-none-eabi/include/c++/10.3.1/bits/stl_algobase.h **** /** @file bits/stl_algobase.h
  52:/Library/DaisyToolchain/0.2.0/arm/arm-none-eabi/include/c++/10.3.1/bits/stl_algobase.h ****  *  This is an internal header file, included by other library headers.
  53:/Library/DaisyToolchain/0.2.0/arm/arm-none-eabi/include/c++/10.3.1/bits/stl_algobase.h ****  *  Do not attempt to use it directly. @headername{algorithm}
  54:/Library/DaisyToolchain/0.2.0/arm/arm-none-eabi/include/c++/10.3.1/bits/stl_algobase.h ****  */
  55:/Library/DaisyToolchain/0.2.0/arm/arm-none-eabi/include/c++/10.3.1/bits/stl_algobase.h **** 
  56:/Library/DaisyToolchain/0.2.0/arm/arm-none-eabi/include/c++/10.3.1/bits/stl_algobase.h **** #ifndef _STL_ALGOBASE_H
  57:/Library/DaisyToolchain/0.2.0/arm/arm-none-eabi/include/c++/10.3.1/bits/stl_algobase.h **** #define _STL_ALGOBASE_H 1
  58:/Library/DaisyToolchain/0.2.0/arm/arm-none-eabi/include/c++/10.3.1/bits/stl_algobase.h **** 
  59:/Library/DaisyToolchain/0.2.0/arm/arm-none-eabi/include/c++/10.3.1/bits/stl_algobase.h **** #include <bits/c++config.h>
  60:/Library/DaisyToolchain/0.2.0/arm/arm-none-eabi/include/c++/10.3.1/bits/stl_algobase.h **** #include <bits/functexcept.h>
  61:/Library/DaisyToolchain/0.2.0/arm/arm-none-eabi/include/c++/10.3.1/bits/stl_algobase.h **** #include <bits/cpp_type_traits.h>
  62:/Library/DaisyToolchain/0.2.0/arm/arm-none-eabi/include/c++/10.3.1/bits/stl_algobase.h **** #include <ext/type_traits.h>
  63:/Library/DaisyToolchain/0.2.0/arm/arm-none-eabi/include/c++/10.3.1/bits/stl_algobase.h **** #include <ext/numeric_traits.h>
  64:/Library/DaisyToolchain/0.2.0/arm/arm-none-eabi/include/c++/10.3.1/bits/stl_algobase.h **** #include <bits/stl_pair.h>
  65:/Library/DaisyToolchain/0.2.0/arm/arm-none-eabi/include/c++/10.3.1/bits/stl_algobase.h **** #include <bits/stl_iterator_base_types.h>
  66:/Library/DaisyToolchain/0.2.0/arm/arm-none-eabi/include/c++/10.3.1/bits/stl_algobase.h **** #include <bits/stl_iterator_base_funcs.h>
ARM GAS  /var/folders/hl/qgbwny5j0fd895c2c41bk3tw0000gp/T//cc1L1gWC.s 			page 69


  67:/Library/DaisyToolchain/0.2.0/arm/arm-none-eabi/include/c++/10.3.1/bits/stl_algobase.h **** #include <bits/stl_iterator.h>
  68:/Library/DaisyToolchain/0.2.0/arm/arm-none-eabi/include/c++/10.3.1/bits/stl_algobase.h **** #include <bits/concept_check.h>
  69:/Library/DaisyToolchain/0.2.0/arm/arm-none-eabi/include/c++/10.3.1/bits/stl_algobase.h **** #include <debug/debug.h>
  70:/Library/DaisyToolchain/0.2.0/arm/arm-none-eabi/include/c++/10.3.1/bits/stl_algobase.h **** #include <bits/move.h> // For std::swap
  71:/Library/DaisyToolchain/0.2.0/arm/arm-none-eabi/include/c++/10.3.1/bits/stl_algobase.h **** #include <bits/predefined_ops.h>
  72:/Library/DaisyToolchain/0.2.0/arm/arm-none-eabi/include/c++/10.3.1/bits/stl_algobase.h **** #if __cplusplus >= 201103L
  73:/Library/DaisyToolchain/0.2.0/arm/arm-none-eabi/include/c++/10.3.1/bits/stl_algobase.h **** # include <type_traits>
  74:/Library/DaisyToolchain/0.2.0/arm/arm-none-eabi/include/c++/10.3.1/bits/stl_algobase.h **** #endif
  75:/Library/DaisyToolchain/0.2.0/arm/arm-none-eabi/include/c++/10.3.1/bits/stl_algobase.h **** #if __cplusplus > 201703L
  76:/Library/DaisyToolchain/0.2.0/arm/arm-none-eabi/include/c++/10.3.1/bits/stl_algobase.h **** # include <compare>
  77:/Library/DaisyToolchain/0.2.0/arm/arm-none-eabi/include/c++/10.3.1/bits/stl_algobase.h **** #endif
  78:/Library/DaisyToolchain/0.2.0/arm/arm-none-eabi/include/c++/10.3.1/bits/stl_algobase.h **** 
  79:/Library/DaisyToolchain/0.2.0/arm/arm-none-eabi/include/c++/10.3.1/bits/stl_algobase.h **** namespace std _GLIBCXX_VISIBILITY(default)
  80:/Library/DaisyToolchain/0.2.0/arm/arm-none-eabi/include/c++/10.3.1/bits/stl_algobase.h **** {
  81:/Library/DaisyToolchain/0.2.0/arm/arm-none-eabi/include/c++/10.3.1/bits/stl_algobase.h **** _GLIBCXX_BEGIN_NAMESPACE_VERSION
  82:/Library/DaisyToolchain/0.2.0/arm/arm-none-eabi/include/c++/10.3.1/bits/stl_algobase.h **** 
  83:/Library/DaisyToolchain/0.2.0/arm/arm-none-eabi/include/c++/10.3.1/bits/stl_algobase.h ****   /*
  84:/Library/DaisyToolchain/0.2.0/arm/arm-none-eabi/include/c++/10.3.1/bits/stl_algobase.h ****    * A constexpr wrapper for __builtin_memcmp.
  85:/Library/DaisyToolchain/0.2.0/arm/arm-none-eabi/include/c++/10.3.1/bits/stl_algobase.h ****    * @param __num The number of elements of type _Tp (not bytes).
  86:/Library/DaisyToolchain/0.2.0/arm/arm-none-eabi/include/c++/10.3.1/bits/stl_algobase.h ****    */
  87:/Library/DaisyToolchain/0.2.0/arm/arm-none-eabi/include/c++/10.3.1/bits/stl_algobase.h ****   template<typename _Tp, typename _Up>
  88:/Library/DaisyToolchain/0.2.0/arm/arm-none-eabi/include/c++/10.3.1/bits/stl_algobase.h ****     _GLIBCXX14_CONSTEXPR
  89:/Library/DaisyToolchain/0.2.0/arm/arm-none-eabi/include/c++/10.3.1/bits/stl_algobase.h ****     inline int
  90:/Library/DaisyToolchain/0.2.0/arm/arm-none-eabi/include/c++/10.3.1/bits/stl_algobase.h ****     __memcmp(const _Tp* __first1, const _Up* __first2, size_t __num)
  91:/Library/DaisyToolchain/0.2.0/arm/arm-none-eabi/include/c++/10.3.1/bits/stl_algobase.h ****     {
  92:/Library/DaisyToolchain/0.2.0/arm/arm-none-eabi/include/c++/10.3.1/bits/stl_algobase.h **** #if __cplusplus >= 201103L
  93:/Library/DaisyToolchain/0.2.0/arm/arm-none-eabi/include/c++/10.3.1/bits/stl_algobase.h ****       static_assert(sizeof(_Tp) == sizeof(_Up), "can be compared with memcmp");
  94:/Library/DaisyToolchain/0.2.0/arm/arm-none-eabi/include/c++/10.3.1/bits/stl_algobase.h **** #endif
  95:/Library/DaisyToolchain/0.2.0/arm/arm-none-eabi/include/c++/10.3.1/bits/stl_algobase.h **** #ifdef __cpp_lib_is_constant_evaluated
  96:/Library/DaisyToolchain/0.2.0/arm/arm-none-eabi/include/c++/10.3.1/bits/stl_algobase.h ****       if (std::is_constant_evaluated())
  97:/Library/DaisyToolchain/0.2.0/arm/arm-none-eabi/include/c++/10.3.1/bits/stl_algobase.h **** 	{
  98:/Library/DaisyToolchain/0.2.0/arm/arm-none-eabi/include/c++/10.3.1/bits/stl_algobase.h **** 	  for(; __num > 0; ++__first1, ++__first2, --__num)
  99:/Library/DaisyToolchain/0.2.0/arm/arm-none-eabi/include/c++/10.3.1/bits/stl_algobase.h **** 	    if (*__first1 != *__first2)
 100:/Library/DaisyToolchain/0.2.0/arm/arm-none-eabi/include/c++/10.3.1/bits/stl_algobase.h **** 	      return *__first1 < *__first2 ? -1 : 1;
 101:/Library/DaisyToolchain/0.2.0/arm/arm-none-eabi/include/c++/10.3.1/bits/stl_algobase.h **** 	  return 0;
 102:/Library/DaisyToolchain/0.2.0/arm/arm-none-eabi/include/c++/10.3.1/bits/stl_algobase.h **** 	}
 103:/Library/DaisyToolchain/0.2.0/arm/arm-none-eabi/include/c++/10.3.1/bits/stl_algobase.h ****       else
 104:/Library/DaisyToolchain/0.2.0/arm/arm-none-eabi/include/c++/10.3.1/bits/stl_algobase.h **** #endif
 105:/Library/DaisyToolchain/0.2.0/arm/arm-none-eabi/include/c++/10.3.1/bits/stl_algobase.h **** 	return __builtin_memcmp(__first1, __first2, sizeof(_Tp) * __num);
 106:/Library/DaisyToolchain/0.2.0/arm/arm-none-eabi/include/c++/10.3.1/bits/stl_algobase.h ****     }
 107:/Library/DaisyToolchain/0.2.0/arm/arm-none-eabi/include/c++/10.3.1/bits/stl_algobase.h **** 
 108:/Library/DaisyToolchain/0.2.0/arm/arm-none-eabi/include/c++/10.3.1/bits/stl_algobase.h **** #if __cplusplus < 201103L
 109:/Library/DaisyToolchain/0.2.0/arm/arm-none-eabi/include/c++/10.3.1/bits/stl_algobase.h ****   // See http://gcc.gnu.org/ml/libstdc++/2004-08/msg00167.html: in a
 110:/Library/DaisyToolchain/0.2.0/arm/arm-none-eabi/include/c++/10.3.1/bits/stl_algobase.h ****   // nutshell, we are partially implementing the resolution of DR 187,
 111:/Library/DaisyToolchain/0.2.0/arm/arm-none-eabi/include/c++/10.3.1/bits/stl_algobase.h ****   // when it's safe, i.e., the value_types are equal.
 112:/Library/DaisyToolchain/0.2.0/arm/arm-none-eabi/include/c++/10.3.1/bits/stl_algobase.h ****   template<bool _BoolType>
 113:/Library/DaisyToolchain/0.2.0/arm/arm-none-eabi/include/c++/10.3.1/bits/stl_algobase.h ****     struct __iter_swap
 114:/Library/DaisyToolchain/0.2.0/arm/arm-none-eabi/include/c++/10.3.1/bits/stl_algobase.h ****     {
 115:/Library/DaisyToolchain/0.2.0/arm/arm-none-eabi/include/c++/10.3.1/bits/stl_algobase.h ****       template<typename _ForwardIterator1, typename _ForwardIterator2>
 116:/Library/DaisyToolchain/0.2.0/arm/arm-none-eabi/include/c++/10.3.1/bits/stl_algobase.h **** 	static void
 117:/Library/DaisyToolchain/0.2.0/arm/arm-none-eabi/include/c++/10.3.1/bits/stl_algobase.h **** 	iter_swap(_ForwardIterator1 __a, _ForwardIterator2 __b)
 118:/Library/DaisyToolchain/0.2.0/arm/arm-none-eabi/include/c++/10.3.1/bits/stl_algobase.h **** 	{
 119:/Library/DaisyToolchain/0.2.0/arm/arm-none-eabi/include/c++/10.3.1/bits/stl_algobase.h **** 	  typedef typename iterator_traits<_ForwardIterator1>::value_type
 120:/Library/DaisyToolchain/0.2.0/arm/arm-none-eabi/include/c++/10.3.1/bits/stl_algobase.h **** 	    _ValueType1;
 121:/Library/DaisyToolchain/0.2.0/arm/arm-none-eabi/include/c++/10.3.1/bits/stl_algobase.h **** 	  _ValueType1 __tmp = *__a;
 122:/Library/DaisyToolchain/0.2.0/arm/arm-none-eabi/include/c++/10.3.1/bits/stl_algobase.h **** 	  *__a = *__b;
 123:/Library/DaisyToolchain/0.2.0/arm/arm-none-eabi/include/c++/10.3.1/bits/stl_algobase.h **** 	  *__b = __tmp;
ARM GAS  /var/folders/hl/qgbwny5j0fd895c2c41bk3tw0000gp/T//cc1L1gWC.s 			page 70


 124:/Library/DaisyToolchain/0.2.0/arm/arm-none-eabi/include/c++/10.3.1/bits/stl_algobase.h **** 	}
 125:/Library/DaisyToolchain/0.2.0/arm/arm-none-eabi/include/c++/10.3.1/bits/stl_algobase.h ****     };
 126:/Library/DaisyToolchain/0.2.0/arm/arm-none-eabi/include/c++/10.3.1/bits/stl_algobase.h **** 
 127:/Library/DaisyToolchain/0.2.0/arm/arm-none-eabi/include/c++/10.3.1/bits/stl_algobase.h ****   template<>
 128:/Library/DaisyToolchain/0.2.0/arm/arm-none-eabi/include/c++/10.3.1/bits/stl_algobase.h ****     struct __iter_swap<true>
 129:/Library/DaisyToolchain/0.2.0/arm/arm-none-eabi/include/c++/10.3.1/bits/stl_algobase.h ****     {
 130:/Library/DaisyToolchain/0.2.0/arm/arm-none-eabi/include/c++/10.3.1/bits/stl_algobase.h ****       template<typename _ForwardIterator1, typename _ForwardIterator2>
 131:/Library/DaisyToolchain/0.2.0/arm/arm-none-eabi/include/c++/10.3.1/bits/stl_algobase.h **** 	static void
 132:/Library/DaisyToolchain/0.2.0/arm/arm-none-eabi/include/c++/10.3.1/bits/stl_algobase.h **** 	iter_swap(_ForwardIterator1 __a, _ForwardIterator2 __b)
 133:/Library/DaisyToolchain/0.2.0/arm/arm-none-eabi/include/c++/10.3.1/bits/stl_algobase.h **** 	{
 134:/Library/DaisyToolchain/0.2.0/arm/arm-none-eabi/include/c++/10.3.1/bits/stl_algobase.h **** 	  swap(*__a, *__b);
 135:/Library/DaisyToolchain/0.2.0/arm/arm-none-eabi/include/c++/10.3.1/bits/stl_algobase.h **** 	}
 136:/Library/DaisyToolchain/0.2.0/arm/arm-none-eabi/include/c++/10.3.1/bits/stl_algobase.h ****     };
 137:/Library/DaisyToolchain/0.2.0/arm/arm-none-eabi/include/c++/10.3.1/bits/stl_algobase.h **** #endif // C++03
 138:/Library/DaisyToolchain/0.2.0/arm/arm-none-eabi/include/c++/10.3.1/bits/stl_algobase.h **** 
 139:/Library/DaisyToolchain/0.2.0/arm/arm-none-eabi/include/c++/10.3.1/bits/stl_algobase.h ****   /**
 140:/Library/DaisyToolchain/0.2.0/arm/arm-none-eabi/include/c++/10.3.1/bits/stl_algobase.h ****    *  @brief Swaps the contents of two iterators.
 141:/Library/DaisyToolchain/0.2.0/arm/arm-none-eabi/include/c++/10.3.1/bits/stl_algobase.h ****    *  @ingroup mutating_algorithms
 142:/Library/DaisyToolchain/0.2.0/arm/arm-none-eabi/include/c++/10.3.1/bits/stl_algobase.h ****    *  @param  __a  An iterator.
 143:/Library/DaisyToolchain/0.2.0/arm/arm-none-eabi/include/c++/10.3.1/bits/stl_algobase.h ****    *  @param  __b  Another iterator.
 144:/Library/DaisyToolchain/0.2.0/arm/arm-none-eabi/include/c++/10.3.1/bits/stl_algobase.h ****    *  @return   Nothing.
 145:/Library/DaisyToolchain/0.2.0/arm/arm-none-eabi/include/c++/10.3.1/bits/stl_algobase.h ****    *
 146:/Library/DaisyToolchain/0.2.0/arm/arm-none-eabi/include/c++/10.3.1/bits/stl_algobase.h ****    *  This function swaps the values pointed to by two iterators, not the
 147:/Library/DaisyToolchain/0.2.0/arm/arm-none-eabi/include/c++/10.3.1/bits/stl_algobase.h ****    *  iterators themselves.
 148:/Library/DaisyToolchain/0.2.0/arm/arm-none-eabi/include/c++/10.3.1/bits/stl_algobase.h ****   */
 149:/Library/DaisyToolchain/0.2.0/arm/arm-none-eabi/include/c++/10.3.1/bits/stl_algobase.h ****   template<typename _ForwardIterator1, typename _ForwardIterator2>
 150:/Library/DaisyToolchain/0.2.0/arm/arm-none-eabi/include/c++/10.3.1/bits/stl_algobase.h ****     _GLIBCXX20_CONSTEXPR
 151:/Library/DaisyToolchain/0.2.0/arm/arm-none-eabi/include/c++/10.3.1/bits/stl_algobase.h ****     inline void
 152:/Library/DaisyToolchain/0.2.0/arm/arm-none-eabi/include/c++/10.3.1/bits/stl_algobase.h ****     iter_swap(_ForwardIterator1 __a, _ForwardIterator2 __b)
 153:/Library/DaisyToolchain/0.2.0/arm/arm-none-eabi/include/c++/10.3.1/bits/stl_algobase.h ****     {
 154:/Library/DaisyToolchain/0.2.0/arm/arm-none-eabi/include/c++/10.3.1/bits/stl_algobase.h ****       // concept requirements
 155:/Library/DaisyToolchain/0.2.0/arm/arm-none-eabi/include/c++/10.3.1/bits/stl_algobase.h ****       __glibcxx_function_requires(_Mutable_ForwardIteratorConcept<
 156:/Library/DaisyToolchain/0.2.0/arm/arm-none-eabi/include/c++/10.3.1/bits/stl_algobase.h **** 				  _ForwardIterator1>)
 157:/Library/DaisyToolchain/0.2.0/arm/arm-none-eabi/include/c++/10.3.1/bits/stl_algobase.h ****       __glibcxx_function_requires(_Mutable_ForwardIteratorConcept<
 158:/Library/DaisyToolchain/0.2.0/arm/arm-none-eabi/include/c++/10.3.1/bits/stl_algobase.h **** 				  _ForwardIterator2>)
 159:/Library/DaisyToolchain/0.2.0/arm/arm-none-eabi/include/c++/10.3.1/bits/stl_algobase.h **** 
 160:/Library/DaisyToolchain/0.2.0/arm/arm-none-eabi/include/c++/10.3.1/bits/stl_algobase.h **** #if __cplusplus < 201103L
 161:/Library/DaisyToolchain/0.2.0/arm/arm-none-eabi/include/c++/10.3.1/bits/stl_algobase.h ****       typedef typename iterator_traits<_ForwardIterator1>::value_type
 162:/Library/DaisyToolchain/0.2.0/arm/arm-none-eabi/include/c++/10.3.1/bits/stl_algobase.h **** 	_ValueType1;
 163:/Library/DaisyToolchain/0.2.0/arm/arm-none-eabi/include/c++/10.3.1/bits/stl_algobase.h ****       typedef typename iterator_traits<_ForwardIterator2>::value_type
 164:/Library/DaisyToolchain/0.2.0/arm/arm-none-eabi/include/c++/10.3.1/bits/stl_algobase.h **** 	_ValueType2;
 165:/Library/DaisyToolchain/0.2.0/arm/arm-none-eabi/include/c++/10.3.1/bits/stl_algobase.h **** 
 166:/Library/DaisyToolchain/0.2.0/arm/arm-none-eabi/include/c++/10.3.1/bits/stl_algobase.h ****       __glibcxx_function_requires(_ConvertibleConcept<_ValueType1,
 167:/Library/DaisyToolchain/0.2.0/arm/arm-none-eabi/include/c++/10.3.1/bits/stl_algobase.h **** 				  _ValueType2>)
 168:/Library/DaisyToolchain/0.2.0/arm/arm-none-eabi/include/c++/10.3.1/bits/stl_algobase.h ****       __glibcxx_function_requires(_ConvertibleConcept<_ValueType2,
 169:/Library/DaisyToolchain/0.2.0/arm/arm-none-eabi/include/c++/10.3.1/bits/stl_algobase.h **** 				  _ValueType1>)
 170:/Library/DaisyToolchain/0.2.0/arm/arm-none-eabi/include/c++/10.3.1/bits/stl_algobase.h **** 
 171:/Library/DaisyToolchain/0.2.0/arm/arm-none-eabi/include/c++/10.3.1/bits/stl_algobase.h ****       typedef typename iterator_traits<_ForwardIterator1>::reference
 172:/Library/DaisyToolchain/0.2.0/arm/arm-none-eabi/include/c++/10.3.1/bits/stl_algobase.h **** 	_ReferenceType1;
 173:/Library/DaisyToolchain/0.2.0/arm/arm-none-eabi/include/c++/10.3.1/bits/stl_algobase.h ****       typedef typename iterator_traits<_ForwardIterator2>::reference
 174:/Library/DaisyToolchain/0.2.0/arm/arm-none-eabi/include/c++/10.3.1/bits/stl_algobase.h **** 	_ReferenceType2;
 175:/Library/DaisyToolchain/0.2.0/arm/arm-none-eabi/include/c++/10.3.1/bits/stl_algobase.h ****       std::__iter_swap<__are_same<_ValueType1, _ValueType2>::__value
 176:/Library/DaisyToolchain/0.2.0/arm/arm-none-eabi/include/c++/10.3.1/bits/stl_algobase.h **** 	&& __are_same<_ValueType1&, _ReferenceType1>::__value
 177:/Library/DaisyToolchain/0.2.0/arm/arm-none-eabi/include/c++/10.3.1/bits/stl_algobase.h **** 	&& __are_same<_ValueType2&, _ReferenceType2>::__value>::
 178:/Library/DaisyToolchain/0.2.0/arm/arm-none-eabi/include/c++/10.3.1/bits/stl_algobase.h **** 	iter_swap(__a, __b);
 179:/Library/DaisyToolchain/0.2.0/arm/arm-none-eabi/include/c++/10.3.1/bits/stl_algobase.h **** #else
 180:/Library/DaisyToolchain/0.2.0/arm/arm-none-eabi/include/c++/10.3.1/bits/stl_algobase.h ****       // _GLIBCXX_RESOLVE_LIB_DEFECTS
ARM GAS  /var/folders/hl/qgbwny5j0fd895c2c41bk3tw0000gp/T//cc1L1gWC.s 			page 71


 181:/Library/DaisyToolchain/0.2.0/arm/arm-none-eabi/include/c++/10.3.1/bits/stl_algobase.h ****       // 187. iter_swap underspecified
 182:/Library/DaisyToolchain/0.2.0/arm/arm-none-eabi/include/c++/10.3.1/bits/stl_algobase.h ****       swap(*__a, *__b);
 183:/Library/DaisyToolchain/0.2.0/arm/arm-none-eabi/include/c++/10.3.1/bits/stl_algobase.h **** #endif
 184:/Library/DaisyToolchain/0.2.0/arm/arm-none-eabi/include/c++/10.3.1/bits/stl_algobase.h ****     }
 185:/Library/DaisyToolchain/0.2.0/arm/arm-none-eabi/include/c++/10.3.1/bits/stl_algobase.h **** 
 186:/Library/DaisyToolchain/0.2.0/arm/arm-none-eabi/include/c++/10.3.1/bits/stl_algobase.h ****   /**
 187:/Library/DaisyToolchain/0.2.0/arm/arm-none-eabi/include/c++/10.3.1/bits/stl_algobase.h ****    *  @brief Swap the elements of two sequences.
 188:/Library/DaisyToolchain/0.2.0/arm/arm-none-eabi/include/c++/10.3.1/bits/stl_algobase.h ****    *  @ingroup mutating_algorithms
 189:/Library/DaisyToolchain/0.2.0/arm/arm-none-eabi/include/c++/10.3.1/bits/stl_algobase.h ****    *  @param  __first1  A forward iterator.
 190:/Library/DaisyToolchain/0.2.0/arm/arm-none-eabi/include/c++/10.3.1/bits/stl_algobase.h ****    *  @param  __last1   A forward iterator.
 191:/Library/DaisyToolchain/0.2.0/arm/arm-none-eabi/include/c++/10.3.1/bits/stl_algobase.h ****    *  @param  __first2  A forward iterator.
 192:/Library/DaisyToolchain/0.2.0/arm/arm-none-eabi/include/c++/10.3.1/bits/stl_algobase.h ****    *  @return   An iterator equal to @p first2+(last1-first1).
 193:/Library/DaisyToolchain/0.2.0/arm/arm-none-eabi/include/c++/10.3.1/bits/stl_algobase.h ****    *
 194:/Library/DaisyToolchain/0.2.0/arm/arm-none-eabi/include/c++/10.3.1/bits/stl_algobase.h ****    *  Swaps each element in the range @p [first1,last1) with the
 195:/Library/DaisyToolchain/0.2.0/arm/arm-none-eabi/include/c++/10.3.1/bits/stl_algobase.h ****    *  corresponding element in the range @p [first2,(last1-first1)).
 196:/Library/DaisyToolchain/0.2.0/arm/arm-none-eabi/include/c++/10.3.1/bits/stl_algobase.h ****    *  The ranges must not overlap.
 197:/Library/DaisyToolchain/0.2.0/arm/arm-none-eabi/include/c++/10.3.1/bits/stl_algobase.h ****   */
 198:/Library/DaisyToolchain/0.2.0/arm/arm-none-eabi/include/c++/10.3.1/bits/stl_algobase.h ****   template<typename _ForwardIterator1, typename _ForwardIterator2>
