ARM GAS  /var/folders/hl/qgbwny5j0fd895c2c41bk3tw0000gp/T//cc1L1gWC.s 			page 1


   1              		.cpu cortex-m7
   2              		.arch armv7e-m
   3              		.fpu fpv5-d16
   4              		.eabi_attribute 28, 1
   5              		.eabi_attribute 20, 1
   6              		.eabi_attribute 21, 1
   7              		.eabi_attribute 23, 3
   8              		.eabi_attribute 24, 1
   9              		.eabi_attribute 25, 1
  10              		.eabi_attribute 26, 1
  11              		.eabi_attribute 30, 2
  12              		.eabi_attribute 34, 1
  13              		.eabi_attribute 18, 4
  14              		.file	"Convolution.cpp"
  15              		.text
  16              	.Ltext0:
  17              		.cfi_sections	.debug_frame
  18              		.section	.text._ZN5daisy6SwitchD2Ev,"axG",%progbits,_ZN5daisy6SwitchD5Ev,comdat
  19              		.align	1
  20              		.p2align 2,,3
  21              		.weak	_ZN5daisy6SwitchD2Ev
  22              		.syntax unified
  23              		.thumb
  24              		.thumb_func
  26              	_ZN5daisy6SwitchD2Ev:
  27              	.LVL0:
  28              	.LFB1606:
  29              		.file 1 "../../libDaisy//src/hid/switch.h"
   1:../../libDaisy//src/hid/switch.h **** #pragma once
   2:../../libDaisy//src/hid/switch.h **** #ifndef DSY_SWITCH_H
   3:../../libDaisy//src/hid/switch.h **** #define DSY_SWITCH_H
   4:../../libDaisy//src/hid/switch.h **** #include "daisy_core.h"
   5:../../libDaisy//src/hid/switch.h **** #include "per/gpio.h"
   6:../../libDaisy//src/hid/switch.h **** #include "sys/system.h"
   7:../../libDaisy//src/hid/switch.h **** 
   8:../../libDaisy//src/hid/switch.h **** namespace daisy
   9:../../libDaisy//src/hid/switch.h **** {
  10:../../libDaisy//src/hid/switch.h **** /** 
  11:../../libDaisy//src/hid/switch.h ****     Generic Class for handling momentary/latching switches \n 
  12:../../libDaisy//src/hid/switch.h ****     Inspired/influenced by Mutable Instruments (pichenettes) Switch classes
  13:../../libDaisy//src/hid/switch.h ****     @author Stephen Hensley
  14:../../libDaisy//src/hid/switch.h ****     @date December 2019
  15:../../libDaisy//src/hid/switch.h ****     @ingroup controls
  16:../../libDaisy//src/hid/switch.h **** */
  17:../../libDaisy//src/hid/switch.h **** class Switch
  18:../../libDaisy//src/hid/switch.h **** {
  19:../../libDaisy//src/hid/switch.h ****   public:
  20:../../libDaisy//src/hid/switch.h ****     /** Specifies the expected behavior of the switch */
  21:../../libDaisy//src/hid/switch.h ****     enum Type
  22:../../libDaisy//src/hid/switch.h ****     {
  23:../../libDaisy//src/hid/switch.h ****         TYPE_TOGGLE,    /**< & */
  24:../../libDaisy//src/hid/switch.h ****         TYPE_MOMENTARY, /**< & */
  25:../../libDaisy//src/hid/switch.h ****     };
  26:../../libDaisy//src/hid/switch.h ****     /** Specifies whether the pressed is HIGH or LOW. */
  27:../../libDaisy//src/hid/switch.h ****     enum Polarity
  28:../../libDaisy//src/hid/switch.h ****     {
  29:../../libDaisy//src/hid/switch.h ****         POLARITY_NORMAL,   /**< & */
ARM GAS  /var/folders/hl/qgbwny5j0fd895c2c41bk3tw0000gp/T//cc1L1gWC.s 			page 2


  30:../../libDaisy//src/hid/switch.h ****         POLARITY_INVERTED, /**< & */
  31:../../libDaisy//src/hid/switch.h ****     };
  32:../../libDaisy//src/hid/switch.h **** 
  33:../../libDaisy//src/hid/switch.h ****     /** Specifies whether to use built-in Pull Up/Down resistors to hold button at a given state wh
  34:../../libDaisy//src/hid/switch.h ****     enum Pull
  35:../../libDaisy//src/hid/switch.h ****     {
  36:../../libDaisy//src/hid/switch.h ****         PULL_UP,   /**< & */
  37:../../libDaisy//src/hid/switch.h ****         PULL_DOWN, /**< & */
  38:../../libDaisy//src/hid/switch.h ****         PULL_NONE, /**< & */
  39:../../libDaisy//src/hid/switch.h ****     };
  40:../../libDaisy//src/hid/switch.h **** 
  41:../../libDaisy//src/hid/switch.h ****     Switch() {}
  42:../../libDaisy//src/hid/switch.h ****     ~Switch() {}
  30              		.loc 1 42 5 view -0
  31              		.cfi_startproc
  32              		@ args = 0, pretend = 0, frame = 0
  33              		@ frame_needed = 0, uses_anonymous_args = 0
  34              		@ link register save eliminated.
  35              		.loc 1 42 16 is_stmt 0 view .LVU1
  36 0000 7047     		bx	lr
  37              		.cfi_endproc
  38              	.LFE1606:
  40              		.weak	_ZN5daisy6SwitchD1Ev
  41              		.thumb_set _ZN5daisy6SwitchD1Ev,_ZN5daisy6SwitchD2Ev
  42 0002 00BF     		.section	.text._ZN5daisy8patch_sm12DaisyPatchSMD2Ev,"axG",%progbits,_ZN5daisy8patch_sm12DaisyPatch
  43              		.align	1
  44              		.p2align 2,,3
  45              		.weak	_ZN5daisy8patch_sm12DaisyPatchSMD2Ev
  46              		.syntax unified
  47              		.thumb
  48              		.thumb_func
  50              	_ZN5daisy8patch_sm12DaisyPatchSMD2Ev:
  51              	.LVL1:
  52              	.LFB2529:
  53              		.file 2 "../../libDaisy//src/daisy_patch_sm.h"
   1:../../libDaisy//src/daisy_patch_sm.h **** #pragma once
   2:../../libDaisy//src/daisy_patch_sm.h **** 
   3:../../libDaisy//src/daisy_patch_sm.h **** #include "daisy.h"
   4:../../libDaisy//src/daisy_patch_sm.h **** 
   5:../../libDaisy//src/daisy_patch_sm.h **** namespace daisy
   6:../../libDaisy//src/daisy_patch_sm.h **** {
   7:../../libDaisy//src/daisy_patch_sm.h **** namespace patch_sm
   8:../../libDaisy//src/daisy_patch_sm.h **** {
   9:../../libDaisy//src/daisy_patch_sm.h ****     /** Accessors for the Analog Controls. 
  10:../../libDaisy//src/daisy_patch_sm.h ****      *  These cover the 8x Bipolar CV inputs
  11:../../libDaisy//src/daisy_patch_sm.h ****      *  as well as the 4x 0-3V3 ADC inputs on
  12:../../libDaisy//src/daisy_patch_sm.h ****      *  the hardware 
  13:../../libDaisy//src/daisy_patch_sm.h ****      * 
  14:../../libDaisy//src/daisy_patch_sm.h ****      *  When reading a value with DaisyPatchSM::GetAdcValue()
  15:../../libDaisy//src/daisy_patch_sm.h ****      * 
  16:../../libDaisy//src/daisy_patch_sm.h ****      *  patch.GetAdcValue(patch_sm::CV_1);
  17:../../libDaisy//src/daisy_patch_sm.h ****      */
  18:../../libDaisy//src/daisy_patch_sm.h ****     enum
  19:../../libDaisy//src/daisy_patch_sm.h ****     {
  20:../../libDaisy//src/daisy_patch_sm.h ****         CV_1 = 0,
  21:../../libDaisy//src/daisy_patch_sm.h ****         CV_2,
  22:../../libDaisy//src/daisy_patch_sm.h ****         CV_3,
ARM GAS  /var/folders/hl/qgbwny5j0fd895c2c41bk3tw0000gp/T//cc1L1gWC.s 			page 3


  23:../../libDaisy//src/daisy_patch_sm.h ****         CV_4,
  24:../../libDaisy//src/daisy_patch_sm.h ****         CV_5,
  25:../../libDaisy//src/daisy_patch_sm.h ****         CV_6,
  26:../../libDaisy//src/daisy_patch_sm.h ****         CV_7,
  27:../../libDaisy//src/daisy_patch_sm.h ****         CV_8,
  28:../../libDaisy//src/daisy_patch_sm.h ****         ADC_9,
  29:../../libDaisy//src/daisy_patch_sm.h ****         ADC_10,
  30:../../libDaisy//src/daisy_patch_sm.h ****         ADC_11,
  31:../../libDaisy//src/daisy_patch_sm.h ****         ADC_12,
  32:../../libDaisy//src/daisy_patch_sm.h ****         ADC_LAST,
  33:../../libDaisy//src/daisy_patch_sm.h ****     };
  34:../../libDaisy//src/daisy_patch_sm.h **** 
  35:../../libDaisy//src/daisy_patch_sm.h ****     /** Enum for addressing the CV Outputs via the WriteCvOut function. */
  36:../../libDaisy//src/daisy_patch_sm.h ****     enum
  37:../../libDaisy//src/daisy_patch_sm.h ****     {
  38:../../libDaisy//src/daisy_patch_sm.h ****         CV_OUT_BOTH = 0,
  39:../../libDaisy//src/daisy_patch_sm.h ****         CV_OUT_1,
  40:../../libDaisy//src/daisy_patch_sm.h ****         CV_OUT_2,
  41:../../libDaisy//src/daisy_patch_sm.h ****     };
  42:../../libDaisy//src/daisy_patch_sm.h **** 
  43:../../libDaisy//src/daisy_patch_sm.h **** 
  44:../../libDaisy//src/daisy_patch_sm.h ****     /** @brief Board support file for DaisyPatchSM hardware
  45:../../libDaisy//src/daisy_patch_sm.h ****      *  @author shensley
  46:../../libDaisy//src/daisy_patch_sm.h ****      *  @ingroup boards
  47:../../libDaisy//src/daisy_patch_sm.h ****      * 
  48:../../libDaisy//src/daisy_patch_sm.h ****      *  Daisy Patch SM is a complete Eurorack module DSP engine.
  49:../../libDaisy//src/daisy_patch_sm.h ****      *  Based on the Daisy Seed, with circuits added for 
  50:../../libDaisy//src/daisy_patch_sm.h ****      *  interfacing directly with eurorack modular synthesizers.
  51:../../libDaisy//src/daisy_patch_sm.h ****      */
  52:../../libDaisy//src/daisy_patch_sm.h ****     class DaisyPatchSM
  53:../../libDaisy//src/daisy_patch_sm.h ****     {
  54:../../libDaisy//src/daisy_patch_sm.h ****       public:
  55:../../libDaisy//src/daisy_patch_sm.h ****         /** Helper for mapping pins, and accessing them using the `GetPin` function */
  56:../../libDaisy//src/daisy_patch_sm.h ****         enum class PinBank
  57:../../libDaisy//src/daisy_patch_sm.h ****         {
  58:../../libDaisy//src/daisy_patch_sm.h ****             A,
  59:../../libDaisy//src/daisy_patch_sm.h ****             B,
  60:../../libDaisy//src/daisy_patch_sm.h ****             C,
  61:../../libDaisy//src/daisy_patch_sm.h ****             D
  62:../../libDaisy//src/daisy_patch_sm.h ****         };
  63:../../libDaisy//src/daisy_patch_sm.h **** 
  64:../../libDaisy//src/daisy_patch_sm.h ****         DaisyPatchSM() {}
  65:../../libDaisy//src/daisy_patch_sm.h ****         ~DaisyPatchSM() {}
  54              		.loc 2 65 9 is_stmt 1 view -0
  55              		.cfi_startproc
  56              		@ args = 0, pretend = 0, frame = 0
  57              		@ frame_needed = 0, uses_anonymous_args = 0
  58              		@ link register save eliminated.
  59              	.LBB511:
  60              	.LBI511:
  61              		.file 3 "../../libDaisy//src/hid/gatein.h"
   1:../../libDaisy//src/hid/gatein.h **** #pragma once
   2:../../libDaisy//src/hid/gatein.h **** #ifndef DSY_GATEIN_H
   3:../../libDaisy//src/hid/gatein.h **** #define DSY_GATEIN_H
   4:../../libDaisy//src/hid/gatein.h **** #include "per/gpio.h"
   5:../../libDaisy//src/hid/gatein.h **** 
   6:../../libDaisy//src/hid/gatein.h **** namespace daisy
ARM GAS  /var/folders/hl/qgbwny5j0fd895c2c41bk3tw0000gp/T//cc1L1gWC.s 			page 4


   7:../../libDaisy//src/hid/gatein.h **** {
   8:../../libDaisy//src/hid/gatein.h **** /**
   9:../../libDaisy//src/hid/gatein.h ****    @brief Generic Class for handling gate inputs through GPIO.
  10:../../libDaisy//src/hid/gatein.h ****    @author Stephen Hensley
  11:../../libDaisy//src/hid/gatein.h ****    @date    March 2020
  12:../../libDaisy//src/hid/gatein.h ****    @ingroup controls
  13:../../libDaisy//src/hid/gatein.h **** */
  14:../../libDaisy//src/hid/gatein.h **** class GateIn
  15:../../libDaisy//src/hid/gatein.h **** {
  16:../../libDaisy//src/hid/gatein.h ****   public:
  17:../../libDaisy//src/hid/gatein.h ****     /** GateIn 
  18:../../libDaisy//src/hid/gatein.h ****     Constructor 
  19:../../libDaisy//src/hid/gatein.h ****     */
  20:../../libDaisy//src/hid/gatein.h ****     GateIn() {}
  21:../../libDaisy//src/hid/gatein.h ****     /** GateIn~
  22:../../libDaisy//src/hid/gatein.h ****     Destructor 
  23:../../libDaisy//src/hid/gatein.h ****     */
  24:../../libDaisy//src/hid/gatein.h ****     ~GateIn() {}
  62              		.loc 3 24 5 view .LVU3
  63              		.loc 3 24 5 is_stmt 0 view .LVU4
  64              	.LBE511:
  65              	.LBB512:
  66              	.LBI512:
  67              		.loc 3 24 5 is_stmt 1 view .LVU5
  68              		.loc 3 24 5 is_stmt 0 view .LVU6
  69              	.LBE512:
  70              	.LBB513:
  71              	.LBI513:
  72              		.file 4 "../../libDaisy//src/dev/codec_pcm3060.h"
   1:../../libDaisy//src/dev/codec_pcm3060.h **** #pragma once
   2:../../libDaisy//src/dev/codec_pcm3060.h **** #ifndef DSY_CODEC_PCM3060_H
   3:../../libDaisy//src/dev/codec_pcm3060.h **** #define DSY_CODEC_PCM3060_H
   4:../../libDaisy//src/dev/codec_pcm3060.h **** #include "per/i2c.h"
   5:../../libDaisy//src/dev/codec_pcm3060.h **** namespace daisy
   6:../../libDaisy//src/dev/codec_pcm3060.h **** {
   7:../../libDaisy//src/dev/codec_pcm3060.h **** /**
   8:../../libDaisy//src/dev/codec_pcm3060.h ****  * @brief Driver for the TI PCM3060 Audio Codec.
   9:../../libDaisy//src/dev/codec_pcm3060.h ****  * @addtogroup codec
  10:../../libDaisy//src/dev/codec_pcm3060.h ****  * 
  11:../../libDaisy//src/dev/codec_pcm3060.h ****  * For now this is a limited interface that uses I2C to communicate with the PCM3060
  12:../../libDaisy//src/dev/codec_pcm3060.h ****  * The device can also be accessed with SPI, which is not yet supported.
  13:../../libDaisy//src/dev/codec_pcm3060.h ****  * 
  14:../../libDaisy//src/dev/codec_pcm3060.h ****  * For now all registers are set to their defaults, and the Init function will 
  15:../../libDaisy//src/dev/codec_pcm3060.h ****  * perform a MRST and SRST before setting the format to 24bit LJ, and disabling 
  16:../../libDaisy//src/dev/codec_pcm3060.h ****  * power save for both the ADC and DAC.
  17:../../libDaisy//src/dev/codec_pcm3060.h ****  *
  18:../../libDaisy//src/dev/codec_pcm3060.h ****  */
  19:../../libDaisy//src/dev/codec_pcm3060.h **** class Pcm3060
  20:../../libDaisy//src/dev/codec_pcm3060.h **** {
  21:../../libDaisy//src/dev/codec_pcm3060.h ****   public:
  22:../../libDaisy//src/dev/codec_pcm3060.h ****     enum class Result
  23:../../libDaisy//src/dev/codec_pcm3060.h ****     {
  24:../../libDaisy//src/dev/codec_pcm3060.h ****         OK,
  25:../../libDaisy//src/dev/codec_pcm3060.h ****         ERR,
  26:../../libDaisy//src/dev/codec_pcm3060.h ****     };
  27:../../libDaisy//src/dev/codec_pcm3060.h **** 
  28:../../libDaisy//src/dev/codec_pcm3060.h ****     Pcm3060() {}
ARM GAS  /var/folders/hl/qgbwny5j0fd895c2c41bk3tw0000gp/T//cc1L1gWC.s 			page 5


  29:../../libDaisy//src/dev/codec_pcm3060.h ****     ~Pcm3060() {}
  73              		.loc 4 29 5 is_stmt 1 view .LVU7
  74              		.loc 4 29 5 is_stmt 0 view .LVU8
  75              	.LBE513:
  76              	.LBB514:
  77              	.LBI514:
  78              		.file 5 "../../libDaisy//src/hid/usb.h"
   1:../../libDaisy//src/hid/usb.h **** #pragma once
   2:../../libDaisy//src/hid/usb.h **** #ifndef DSY_HID_USB_H
   3:../../libDaisy//src/hid/usb.h **** #define DSY_HID_USB_H
   4:../../libDaisy//src/hid/usb.h **** #include <stdint.h>
   5:../../libDaisy//src/hid/usb.h **** #include <stdlib.h>
   6:../../libDaisy//src/hid/usb.h **** 
   7:../../libDaisy//src/hid/usb.h **** namespace daisy
   8:../../libDaisy//src/hid/usb.h **** /** @addtogroup human_interface
   9:../../libDaisy//src/hid/usb.h ****     @{
  10:../../libDaisy//src/hid/usb.h **** */
  11:../../libDaisy//src/hid/usb.h **** 
  12:../../libDaisy//src/hid/usb.h **** {
  13:../../libDaisy//src/hid/usb.h **** /** 
  14:../../libDaisy//src/hid/usb.h ****     @brief Interface for initializing and using the USB Peripherals on the daisy
  15:../../libDaisy//src/hid/usb.h ****     @author Stephen Hensley
  16:../../libDaisy//src/hid/usb.h ****     @date December 2019
  17:../../libDaisy//src/hid/usb.h **** */
  18:../../libDaisy//src/hid/usb.h **** class UsbHandle
  19:../../libDaisy//src/hid/usb.h **** {
  20:../../libDaisy//src/hid/usb.h ****   public:
  21:../../libDaisy//src/hid/usb.h ****     /** Return values for USBHandle Functions */
  22:../../libDaisy//src/hid/usb.h ****     enum class Result
  23:../../libDaisy//src/hid/usb.h ****     {
  24:../../libDaisy//src/hid/usb.h ****         OK,
  25:../../libDaisy//src/hid/usb.h ****         ERR,
  26:../../libDaisy//src/hid/usb.h ****     };
  27:../../libDaisy//src/hid/usb.h **** 
  28:../../libDaisy//src/hid/usb.h ****     /** Specified which of the two USB Peripherals to initialize. */
  29:../../libDaisy//src/hid/usb.h ****     enum UsbPeriph
  30:../../libDaisy//src/hid/usb.h ****     {
  31:../../libDaisy//src/hid/usb.h ****         FS_INTERNAL, /**< Internal pin */
  32:../../libDaisy//src/hid/usb.h ****         FS_EXTERNAL, /**< FS External D+ pin is Pin 38 (GPIO32). FS External D- pin is Pin 37 (GPIO
  33:../../libDaisy//src/hid/usb.h ****         FS_BOTH,     /**< Both */
  34:../../libDaisy//src/hid/usb.h ****     };
  35:../../libDaisy//src/hid/usb.h **** 
  36:../../libDaisy//src/hid/usb.h **** 
  37:../../libDaisy//src/hid/usb.h ****     /** Function called upon reception of a buffer */
  38:../../libDaisy//src/hid/usb.h ****     typedef void (*ReceiveCallback)(uint8_t* buff, uint32_t* len);
  39:../../libDaisy//src/hid/usb.h **** 
  40:../../libDaisy//src/hid/usb.h ****     UsbHandle() {}
  41:../../libDaisy//src/hid/usb.h **** 
  42:../../libDaisy//src/hid/usb.h ****     ~UsbHandle() {}
  79              		.loc 5 42 5 is_stmt 1 view .LVU9
  80              		.loc 5 42 5 is_stmt 0 view .LVU10
  81              	.LBE514:
  82              	.LBB515:
  83              	.LBI515:
  84              		.file 6 "../../libDaisy//src/per/adc.h"
   1:../../libDaisy//src/per/adc.h **** #pragma once
   2:../../libDaisy//src/per/adc.h **** #ifndef DSY_ADC_H
ARM GAS  /var/folders/hl/qgbwny5j0fd895c2c41bk3tw0000gp/T//cc1L1gWC.s 			page 6


   3:../../libDaisy//src/per/adc.h **** #define DSY_ADC_H /**< Macro */
   4:../../libDaisy//src/per/adc.h **** #include <stdint.h>
   5:../../libDaisy//src/per/adc.h **** #include <stdlib.h>
   6:../../libDaisy//src/per/adc.h **** #include "daisy_core.h"
   7:../../libDaisy//src/per/adc.h **** #include "per/gpio.h"
   8:../../libDaisy//src/per/adc.h **** 
   9:../../libDaisy//src/per/adc.h **** #define DSY_ADC_MAX_CHANNELS 16 /**< Maximum number of ADC channels */
  10:../../libDaisy//src/per/adc.h **** 
  11:../../libDaisy//src/per/adc.h **** namespace daisy
  12:../../libDaisy//src/per/adc.h **** {
  13:../../libDaisy//src/per/adc.h **** /** @addtogroup per_analog
  14:../../libDaisy//src/per/adc.h ****     @{
  15:../../libDaisy//src/per/adc.h **** */
  16:../../libDaisy//src/per/adc.h **** 
  17:../../libDaisy//src/per/adc.h **** /* While there may not be many configuration options here,
  18:../../libDaisy//src/per/adc.h **** using a struct like this allows us to add more configuration
  19:../../libDaisy//src/per/adc.h **** later without breaking existing functionality.
  20:../../libDaisy//src/per/adc.h **** */
  21:../../libDaisy//src/per/adc.h **** 
  22:../../libDaisy//src/per/adc.h **** /** @brief   Configuration Structure for an ADC Channel 
  23:../../libDaisy//src/per/adc.h ****  *  @details This can be used to configure a a single input, 
  24:../../libDaisy//src/per/adc.h ****  *           or a multiplexed input, allowing up to 8 inputs on 
  25:../../libDaisy//src/per/adc.h ****  *           one channel.
  26:../../libDaisy//src/per/adc.h ****  *  @note    Sharing data lines to multiple muxes _is_ possible, but
  27:../../libDaisy//src/per/adc.h ****  *           each channel sharing data lines must be set to the maximum
  28:../../libDaisy//src/per/adc.h ****  *           number of channels, even if some multiplexers have fewer
  29:../../libDaisy//src/per/adc.h ****  *           inputs connected.
  30:../../libDaisy//src/per/adc.h **** */
  31:../../libDaisy//src/per/adc.h **** struct AdcChannelConfig
  32:../../libDaisy//src/per/adc.h **** {
  33:../../libDaisy//src/per/adc.h ****     /** Which pin to use for multiplexing */
  34:../../libDaisy//src/per/adc.h ****     enum MuxPin
  35:../../libDaisy//src/per/adc.h ****     {
  36:../../libDaisy//src/per/adc.h ****         MUX_SEL_0,    /**< & */
  37:../../libDaisy//src/per/adc.h ****         MUX_SEL_1,    /**< & */
  38:../../libDaisy//src/per/adc.h ****         MUX_SEL_2,    /**< & */
  39:../../libDaisy//src/per/adc.h ****         MUX_SEL_LAST, /**< & */
  40:../../libDaisy//src/per/adc.h ****     };
  41:../../libDaisy//src/per/adc.h **** 
  42:../../libDaisy//src/per/adc.h ****     /** Initializes a single ADC pin as an ADC. 
  43:../../libDaisy//src/per/adc.h ****     \param pin Pin to init.
  44:../../libDaisy//src/per/adc.h ****      */
  45:../../libDaisy//src/per/adc.h ****     void InitSingle(dsy_gpio_pin pin);
  46:../../libDaisy//src/per/adc.h **** 
  47:../../libDaisy//src/per/adc.h ****     /** 
  48:../../libDaisy//src/per/adc.h ****     Initializes a single ADC pin as a Multiplexed ADC.
  49:../../libDaisy//src/per/adc.h ****     Requires a CD405X Multiplexer connected to the pin.
  50:../../libDaisy//src/per/adc.h ****     You only need to supply the mux pins that are required,
  51:../../libDaisy//src/per/adc.h ****     e.g. a 4052 mux would only require mux_0 and mux_1.
  52:../../libDaisy//src/per/adc.h ****     Internal Callbacks handle the pin addressing.
  53:../../libDaisy//src/per/adc.h ****     \param mux_channels must be 1-8
  54:../../libDaisy//src/per/adc.h ****     \param mux_0 First mux pin
  55:../../libDaisy//src/per/adc.h ****     \param mux_1 Second mux pin
  56:../../libDaisy//src/per/adc.h ****     \param mux_2 Third mux pin
  57:../../libDaisy//src/per/adc.h ****     \param adc_pin &
  58:../../libDaisy//src/per/adc.h ****     */
  59:../../libDaisy//src/per/adc.h ****     void InitMux(dsy_gpio_pin adc_pin,
ARM GAS  /var/folders/hl/qgbwny5j0fd895c2c41bk3tw0000gp/T//cc1L1gWC.s 			page 7


  60:../../libDaisy//src/per/adc.h ****                  size_t       mux_channels,
  61:../../libDaisy//src/per/adc.h ****                  dsy_gpio_pin mux_0,
  62:../../libDaisy//src/per/adc.h ****                  dsy_gpio_pin mux_1 = {DSY_GPIOX, 0},
  63:../../libDaisy//src/per/adc.h ****                  dsy_gpio_pin mux_2 = {DSY_GPIOX, 0});
  64:../../libDaisy//src/per/adc.h **** 
  65:../../libDaisy//src/per/adc.h ****     dsy_gpio pin_;                   /**< & */
  66:../../libDaisy//src/per/adc.h ****     dsy_gpio mux_pin_[MUX_SEL_LAST]; /**< & */
  67:../../libDaisy//src/per/adc.h ****     uint8_t  mux_channels_;          /**< & */
  68:../../libDaisy//src/per/adc.h **** };
  69:../../libDaisy//src/per/adc.h **** 
  70:../../libDaisy//src/per/adc.h **** /**
  71:../../libDaisy//src/per/adc.h ****    @brief Handler for analog to digital conversion
  72:../../libDaisy//src/per/adc.h **** */
  73:../../libDaisy//src/per/adc.h **** class AdcHandle
  74:../../libDaisy//src/per/adc.h **** {
  75:../../libDaisy//src/per/adc.h ****   public:
  76:../../libDaisy//src/per/adc.h ****     /** Supported oversampling amounts */
  77:../../libDaisy//src/per/adc.h ****     enum OverSampling
  78:../../libDaisy//src/per/adc.h ****     {
  79:../../libDaisy//src/per/adc.h ****         OVS_NONE, /**< & */
  80:../../libDaisy//src/per/adc.h ****         OVS_4,    /**< & */
  81:../../libDaisy//src/per/adc.h ****         OVS_8,    /**< & */
  82:../../libDaisy//src/per/adc.h ****         OVS_16,   /**< & */
  83:../../libDaisy//src/per/adc.h ****         OVS_32,   /**< & */
  84:../../libDaisy//src/per/adc.h ****         OVS_64,   /**< & */
  85:../../libDaisy//src/per/adc.h ****         OVS_128,  /**< & */
  86:../../libDaisy//src/per/adc.h ****         OVS_256,  /**< & */
  87:../../libDaisy//src/per/adc.h ****         OVS_512,  /**< & */
  88:../../libDaisy//src/per/adc.h ****         OVS_1024, /**< & */
  89:../../libDaisy//src/per/adc.h ****         OVS_LAST, /**< & */
  90:../../libDaisy//src/per/adc.h ****     };
  91:../../libDaisy//src/per/adc.h **** 
  92:../../libDaisy//src/per/adc.h ****     AdcHandle() {}
  93:../../libDaisy//src/per/adc.h ****     ~AdcHandle() {}
  85              		.loc 6 93 5 is_stmt 1 view .LVU11
  86              		.loc 6 93 5 is_stmt 0 view .LVU12
  87              	.LBE515:
  88              	.LBB516:
  89              	.LBI516:
  90              		.file 7 "../../libDaisy//src/hid/audio.h"
   1:../../libDaisy//src/hid/audio.h **** #ifndef DSY_AUDIO_H
   2:../../libDaisy//src/hid/audio.h **** #define DSY_AUDIO_H /**< & */
   3:../../libDaisy//src/hid/audio.h **** 
   4:../../libDaisy//src/hid/audio.h **** #include "per/sai.h"
   5:../../libDaisy//src/hid/audio.h **** 
   6:../../libDaisy//src/hid/audio.h **** namespace daisy
   7:../../libDaisy//src/hid/audio.h **** {
   8:../../libDaisy//src/hid/audio.h **** /** @brief Audio Engine Handle
   9:../../libDaisy//src/hid/audio.h ****  *  @ingroup audio 
  10:../../libDaisy//src/hid/audio.h ****  *  @details This class allows for higher level access to an audio engine.
  11:../../libDaisy//src/hid/audio.h ****  *           If you're using a SOM like the DaisySeed or DaisyPatchSM (or any 
  12:../../libDaisy//src/hid/audio.h ****  *            board that includes one of those objects) then the intialization
  13:../../libDaisy//src/hid/audio.h ****  *            is already taken  care of.
  14:../../libDaisy//src/hid/audio.h ****  *           If you're setting up your own custom hardware, or need to make changes
  15:../../libDaisy//src/hid/audio.h ****  *           you will have to take the following steps:
  16:../../libDaisy//src/hid/audio.h ****  *             1. Create and Initialize an SaiHandle or two depending on your requirements
  17:../../libDaisy//src/hid/audio.h ****  *             2. Initialize the Audio Handle with the desired settings and the Initialized SaiHand
ARM GAS  /var/folders/hl/qgbwny5j0fd895c2c41bk3tw0000gp/T//cc1L1gWC.s 			page 8


  18:../../libDaisy//src/hid/audio.h ****  *             3. If the connected codec requires special configuration or initialization, do so
  19:../../libDaisy//src/hid/audio.h ****  *             4. Write a callback method using either the AudioCallback or the InterleavingAudioCa
  20:../../libDaisy//src/hid/audio.h ****  *             5. Start the Audio using one of the StartAudio function
  21:../../libDaisy//src/hid/audio.h ****  */
  22:../../libDaisy//src/hid/audio.h **** class AudioHandle
  23:../../libDaisy//src/hid/audio.h **** {
  24:../../libDaisy//src/hid/audio.h ****   public:
  25:../../libDaisy//src/hid/audio.h ****     /** Manually configurable details about the Audio Engine */
  26:../../libDaisy//src/hid/audio.h ****     /** TODO: Figure out how to get samplerate in here. */
  27:../../libDaisy//src/hid/audio.h ****     struct Config
  28:../../libDaisy//src/hid/audio.h ****     {
  29:../../libDaisy//src/hid/audio.h ****         /** number of samples to process per callback */
  30:../../libDaisy//src/hid/audio.h ****         size_t blocksize;
  31:../../libDaisy//src/hid/audio.h **** 
  32:../../libDaisy//src/hid/audio.h ****         /**< Sample rate of audio */
  33:../../libDaisy//src/hid/audio.h ****         SaiHandle::Config::SampleRate samplerate;
  34:../../libDaisy//src/hid/audio.h **** 
  35:../../libDaisy//src/hid/audio.h ****         /** factor for adjustment before and after callback for hardware that may have extra headro
  36:../../libDaisy//src/hid/audio.h ****         float postgain;
  37:../../libDaisy//src/hid/audio.h **** 
  38:../../libDaisy//src/hid/audio.h ****         /** factor for additional one-sided compensation to audio path for hardware that may
  39:../../libDaisy//src/hid/audio.h ****          *  have unequal input/output ranges
  40:../../libDaisy//src/hid/audio.h ****          */
  41:../../libDaisy//src/hid/audio.h ****         float output_compensation;
  42:../../libDaisy//src/hid/audio.h **** 
  43:../../libDaisy//src/hid/audio.h ****         /** Sets default values for config struct */
  44:../../libDaisy//src/hid/audio.h ****         Config()
  45:../../libDaisy//src/hid/audio.h ****         : blocksize(48),
  46:../../libDaisy//src/hid/audio.h ****           samplerate(SaiHandle::Config::SampleRate::SAI_48KHZ),
  47:../../libDaisy//src/hid/audio.h ****           postgain(1.f),
  48:../../libDaisy//src/hid/audio.h ****           output_compensation(1.f)
  49:../../libDaisy//src/hid/audio.h ****         {
  50:../../libDaisy//src/hid/audio.h ****         }
  51:../../libDaisy//src/hid/audio.h ****     };
  52:../../libDaisy//src/hid/audio.h **** 
  53:../../libDaisy//src/hid/audio.h ****     enum class Result
  54:../../libDaisy//src/hid/audio.h ****     {
  55:../../libDaisy//src/hid/audio.h ****         OK,
  56:../../libDaisy//src/hid/audio.h ****         ERR,
  57:../../libDaisy//src/hid/audio.h ****     };
  58:../../libDaisy//src/hid/audio.h **** 
  59:../../libDaisy//src/hid/audio.h ****     /** Non-Interleaving input buffer
  60:../../libDaisy//src/hid/audio.h ****      * Buffer arranged by float[chn][sample] 
  61:../../libDaisy//src/hid/audio.h ****      * const so that the user can't modify the input
  62:../../libDaisy//src/hid/audio.h ****      */
  63:../../libDaisy//src/hid/audio.h ****     typedef const float* const* InputBuffer;
  64:../../libDaisy//src/hid/audio.h **** 
  65:../../libDaisy//src/hid/audio.h ****     /** Non-Interleaving output buffer
  66:../../libDaisy//src/hid/audio.h ****      * Arranged by float[chn][sample] 
  67:../../libDaisy//src/hid/audio.h ****      */
  68:../../libDaisy//src/hid/audio.h ****     typedef float** OutputBuffer;
  69:../../libDaisy//src/hid/audio.h **** 
  70:../../libDaisy//src/hid/audio.h ****     /** Type for a Non-Interleaving audio callback 
  71:../../libDaisy//src/hid/audio.h ****      * Non-Interleaving audio callbacks in daisy will be of this type
  72:../../libDaisy//src/hid/audio.h ****      */
  73:../../libDaisy//src/hid/audio.h ****     typedef void (*AudioCallback)(InputBuffer  in,
  74:../../libDaisy//src/hid/audio.h ****                                   OutputBuffer out,
ARM GAS  /var/folders/hl/qgbwny5j0fd895c2c41bk3tw0000gp/T//cc1L1gWC.s 			page 9


  75:../../libDaisy//src/hid/audio.h ****                                   size_t       size);
  76:../../libDaisy//src/hid/audio.h **** 
  77:../../libDaisy//src/hid/audio.h ****     /** Interleaving Input buffer
  78:../../libDaisy//src/hid/audio.h ****      ** audio is prepared as { L0, R0, L1, R1, . . . LN, RN }]
  79:../../libDaisy//src/hid/audio.h ****      ** this is const, as the user shouldn't modify it
  80:../../libDaisy//src/hid/audio.h ****     */
  81:../../libDaisy//src/hid/audio.h ****     typedef const float* InterleavingInputBuffer;
  82:../../libDaisy//src/hid/audio.h **** 
  83:../../libDaisy//src/hid/audio.h ****     /** Interleaving Output buffer 
  84:../../libDaisy//src/hid/audio.h ****      ** audio is prepared as { L0, R0, L1, R1, . . . LN, RN }
  85:../../libDaisy//src/hid/audio.h ****     */
  86:../../libDaisy//src/hid/audio.h ****     typedef float* InterleavingOutputBuffer;
  87:../../libDaisy//src/hid/audio.h **** 
  88:../../libDaisy//src/hid/audio.h ****     /** Interleaving Audio Callback 
  89:../../libDaisy//src/hid/audio.h ****      * Interleaving audio callbacks in daisy must be of this type
  90:../../libDaisy//src/hid/audio.h ****      */
  91:../../libDaisy//src/hid/audio.h ****     typedef void (*InterleavingAudioCallback)(InterleavingInputBuffer  in,
  92:../../libDaisy//src/hid/audio.h ****                                               InterleavingOutputBuffer out,
  93:../../libDaisy//src/hid/audio.h ****                                               size_t                   size);
  94:../../libDaisy//src/hid/audio.h **** 
  95:../../libDaisy//src/hid/audio.h ****     AudioHandle() : pimpl_(nullptr) {}
  96:../../libDaisy//src/hid/audio.h ****     ~AudioHandle() {}
  91              		.loc 7 96 5 is_stmt 1 view .LVU13
  92              		.loc 7 96 5 is_stmt 0 view .LVU14
  93              	.LBE516:
  94              	.LBB517:
  95              	.LBI517:
  96              		.file 8 "../../libDaisy//src/sys/system.h"
   1:../../libDaisy//src/sys/system.h **** #ifndef DSY_SYSTEM_H
   2:../../libDaisy//src/sys/system.h **** #define DSY_SYSTEM_H
   3:../../libDaisy//src/sys/system.h **** 
   4:../../libDaisy//src/sys/system.h **** #ifndef UNIT_TEST // for unit tests, a dummy implementation is provided below
   5:../../libDaisy//src/sys/system.h **** 
   6:../../libDaisy//src/sys/system.h **** #include <cstdint>
   7:../../libDaisy//src/sys/system.h **** #include "per/tim.h"
   8:../../libDaisy//src/sys/system.h **** 
   9:../../libDaisy//src/sys/system.h **** namespace daisy
  10:../../libDaisy//src/sys/system.h **** {
  11:../../libDaisy//src/sys/system.h **** /** A handle for interacting with the Core System. 
  12:../../libDaisy//src/sys/system.h ****  ** This includes the Clock tree, MPU, global DMA initialization,
  13:../../libDaisy//src/sys/system.h ****  ** cache handling, and any other necessary global initiailzation
  14:../../libDaisy//src/sys/system.h ****  **
  15:../../libDaisy//src/sys/system.h ****  ** @author shensley
  16:../../libDaisy//src/sys/system.h ****  ** @ingroup system
  17:../../libDaisy//src/sys/system.h ****  */
  18:../../libDaisy//src/sys/system.h **** class System
  19:../../libDaisy//src/sys/system.h **** {
  20:../../libDaisy//src/sys/system.h ****   public:
  21:../../libDaisy//src/sys/system.h ****     /** Contains settings for initializing the System */
  22:../../libDaisy//src/sys/system.h ****     struct Config
  23:../../libDaisy//src/sys/system.h ****     {
  24:../../libDaisy//src/sys/system.h ****         /** Specifies the system clock frequency that feeds APB/AHB clocks, etc. */
  25:../../libDaisy//src/sys/system.h ****         enum class SysClkFreq
  26:../../libDaisy//src/sys/system.h ****         {
  27:../../libDaisy//src/sys/system.h ****             FREQ_400MHZ,
  28:../../libDaisy//src/sys/system.h ****             FREQ_480MHZ,
  29:../../libDaisy//src/sys/system.h ****         };
ARM GAS  /var/folders/hl/qgbwny5j0fd895c2c41bk3tw0000gp/T//cc1L1gWC.s 			page 10


  30:../../libDaisy//src/sys/system.h **** 
  31:../../libDaisy//src/sys/system.h ****         /** Method to call on the struct to set to defaults
  32:../../libDaisy//src/sys/system.h ****          ** CPU Freq set to 400MHz
  33:../../libDaisy//src/sys/system.h ****          ** Cache Enabled 
  34:../../libDaisy//src/sys/system.h ****          ** */
  35:../../libDaisy//src/sys/system.h ****         void Defaults()
  36:../../libDaisy//src/sys/system.h ****         {
  37:../../libDaisy//src/sys/system.h ****             cpu_freq    = SysClkFreq::FREQ_400MHZ;
  38:../../libDaisy//src/sys/system.h ****             use_dcache  = true;
  39:../../libDaisy//src/sys/system.h ****             use_icache  = true;
  40:../../libDaisy//src/sys/system.h ****             skip_clocks = false;
  41:../../libDaisy//src/sys/system.h ****         }
  42:../../libDaisy//src/sys/system.h **** 
  43:../../libDaisy//src/sys/system.h ****         /** Method to call on the struct to set to boost mode:
  44:../../libDaisy//src/sys/system.h ****          ** CPU Freq set to 480MHz
  45:../../libDaisy//src/sys/system.h ****          ** Cache Enabled 
  46:../../libDaisy//src/sys/system.h ****          ** */
  47:../../libDaisy//src/sys/system.h ****         void Boost()
  48:../../libDaisy//src/sys/system.h ****         {
  49:../../libDaisy//src/sys/system.h ****             cpu_freq    = SysClkFreq::FREQ_480MHZ;
  50:../../libDaisy//src/sys/system.h ****             use_dcache  = true;
  51:../../libDaisy//src/sys/system.h ****             use_icache  = true;
  52:../../libDaisy//src/sys/system.h ****             skip_clocks = false;
  53:../../libDaisy//src/sys/system.h ****         }
  54:../../libDaisy//src/sys/system.h **** 
  55:../../libDaisy//src/sys/system.h ****         SysClkFreq cpu_freq;
  56:../../libDaisy//src/sys/system.h ****         bool       use_dcache;
  57:../../libDaisy//src/sys/system.h ****         bool       use_icache;
  58:../../libDaisy//src/sys/system.h ****         bool       skip_clocks;
  59:../../libDaisy//src/sys/system.h ****     };
  60:../../libDaisy//src/sys/system.h **** 
  61:../../libDaisy//src/sys/system.h ****     /** Describes the different regions of memory available to the Daisy
  62:../../libDaisy//src/sys/system.h ****      * 
  63:../../libDaisy//src/sys/system.h ****      */
  64:../../libDaisy//src/sys/system.h ****     enum MemoryRegion
  65:../../libDaisy//src/sys/system.h ****     {
  66:../../libDaisy//src/sys/system.h ****         INTERNAL_FLASH = 0,
  67:../../libDaisy//src/sys/system.h ****         ITCMRAM,
  68:../../libDaisy//src/sys/system.h ****         DTCMRAM,
  69:../../libDaisy//src/sys/system.h ****         SRAM_D1,
  70:../../libDaisy//src/sys/system.h ****         SRAM_D2,
  71:../../libDaisy//src/sys/system.h ****         SRAM_D3,
  72:../../libDaisy//src/sys/system.h ****         SDRAM,
  73:../../libDaisy//src/sys/system.h ****         QSPI,
  74:../../libDaisy//src/sys/system.h ****         INVALID_ADDRESS,
  75:../../libDaisy//src/sys/system.h ****     };
  76:../../libDaisy//src/sys/system.h **** 
  77:../../libDaisy//src/sys/system.h ****     System() {}
  78:../../libDaisy//src/sys/system.h ****     ~System() {}
  97              		.loc 8 78 5 is_stmt 1 view .LVU15
  98              		.loc 8 78 5 is_stmt 0 view .LVU16
  99              	.LBE517:
 100              		.loc 2 65 26 view .LVU17
 101 0000 7047     		bx	lr
 102              		.cfi_endproc
 103              	.LFE2529:
 105              		.weak	_ZN5daisy8patch_sm12DaisyPatchSMD1Ev
ARM GAS  /var/folders/hl/qgbwny5j0fd895c2c41bk3tw0000gp/T//cc1L1gWC.s 			page 11


 106              		.thumb_set _ZN5daisy8patch_sm12DaisyPatchSMD1Ev,_ZN5daisy8patch_sm12DaisyPatchSMD2Ev
 107 0002 00BF     		.section	.text._ZN7daisysp8ReverbScD2Ev,"axG",%progbits,_ZN7daisysp8ReverbScD5Ev,comdat
 108              		.align	1
 109              		.p2align 2,,3
 110              		.weak	_ZN7daisysp8ReverbScD2Ev
 111              		.syntax unified
 112              		.thumb
 113              		.thumb_func
 115              	_ZN7daisysp8ReverbScD2Ev:
 116              	.LVL2:
 117              	.LFB4427:
 118              		.file 9 "../../DaisySP//Source/Effects/reverbsc.h"
   1:../../DaisySP//Source/Effects/reverbsc.h **** #pragma once
   2:../../DaisySP//Source/Effects/reverbsc.h **** #ifndef DSYSP_REVERBSC_H
   3:../../DaisySP//Source/Effects/reverbsc.h **** #define DSYSP_REVERBSC_H
   4:../../DaisySP//Source/Effects/reverbsc.h **** 
   5:../../DaisySP//Source/Effects/reverbsc.h **** #define DSY_REVERBSC_MAX_SIZE 98936
   6:../../DaisySP//Source/Effects/reverbsc.h **** 
   7:../../DaisySP//Source/Effects/reverbsc.h **** namespace daisysp
   8:../../DaisySP//Source/Effects/reverbsc.h **** {
   9:../../DaisySP//Source/Effects/reverbsc.h **** /**Delay line for internal reverb use
  10:../../DaisySP//Source/Effects/reverbsc.h **** */
  11:../../DaisySP//Source/Effects/reverbsc.h **** typedef struct
  12:../../DaisySP//Source/Effects/reverbsc.h **** {
  13:../../DaisySP//Source/Effects/reverbsc.h ****     int    write_pos;         /**< write position */
  14:../../DaisySP//Source/Effects/reverbsc.h ****     int    buffer_size;       /**< buffer size */
  15:../../DaisySP//Source/Effects/reverbsc.h ****     int    read_pos;          /**< read position */
  16:../../DaisySP//Source/Effects/reverbsc.h ****     int    read_pos_frac;     /**< fractional component of read pos */
  17:../../DaisySP//Source/Effects/reverbsc.h ****     int    read_pos_frac_inc; /**< increment for fractional */
  18:../../DaisySP//Source/Effects/reverbsc.h ****     int    dummy;             /**<  dummy var */
  19:../../DaisySP//Source/Effects/reverbsc.h ****     int    seed_val;          /**< randseed */
  20:../../DaisySP//Source/Effects/reverbsc.h ****     int    rand_line_cnt;     /**< number of random lines */
  21:../../DaisySP//Source/Effects/reverbsc.h ****     float  filter_state;      /**< state of filter */
  22:../../DaisySP//Source/Effects/reverbsc.h ****     float *buf;               /**< buffer ptr */
  23:../../DaisySP//Source/Effects/reverbsc.h **** } ReverbScDl;
  24:../../DaisySP//Source/Effects/reverbsc.h **** 
  25:../../DaisySP//Source/Effects/reverbsc.h **** /** Stereo Reverb
  26:../../DaisySP//Source/Effects/reverbsc.h **** 
  27:../../DaisySP//Source/Effects/reverbsc.h **** Reverb SC:               Ported from csound/soundpipe
  28:../../DaisySP//Source/Effects/reverbsc.h **** 
  29:../../DaisySP//Source/Effects/reverbsc.h **** Original author(s):        Sean Costello, Istvan Varga
  30:../../DaisySP//Source/Effects/reverbsc.h **** 
  31:../../DaisySP//Source/Effects/reverbsc.h **** Year:                    1999, 2005
  32:../../DaisySP//Source/Effects/reverbsc.h **** 
  33:../../DaisySP//Source/Effects/reverbsc.h **** Ported to soundpipe by:  Paul Batchelor
  34:../../DaisySP//Source/Effects/reverbsc.h **** 
  35:../../DaisySP//Source/Effects/reverbsc.h **** Ported by:                Stephen Hensley
  36:../../DaisySP//Source/Effects/reverbsc.h **** */
  37:../../DaisySP//Source/Effects/reverbsc.h **** class ReverbSc
  38:../../DaisySP//Source/Effects/reverbsc.h **** {
  39:../../DaisySP//Source/Effects/reverbsc.h ****   public:
  40:../../DaisySP//Source/Effects/reverbsc.h ****     ReverbSc() {}
  41:../../DaisySP//Source/Effects/reverbsc.h ****     ~ReverbSc() {}
 119              		.loc 9 41 5 is_stmt 1 view -0
 120              		.cfi_startproc
 121              		@ args = 0, pretend = 0, frame = 0
 122              		@ frame_needed = 0, uses_anonymous_args = 0
ARM GAS  /var/folders/hl/qgbwny5j0fd895c2c41bk3tw0000gp/T//cc1L1gWC.s 			page 12


 123              		@ link register save eliminated.
 124              		.loc 9 41 18 is_stmt 0 view .LVU19
 125 0000 7047     		bx	lr
 126              		.cfi_endproc
 127              	.LFE4427:
 129              		.weak	_ZN7daisysp8ReverbScD1Ev
 130              		.thumb_set _ZN7daisysp8ReverbScD1Ev,_ZN7daisysp8ReverbScD2Ev
 131 0002 00BF     		.section	.text._ZN7daisysp7cLooperD2Ev,"axG",%progbits,_ZN7daisysp7cLooperD5Ev,comdat
 132              		.align	1
 133              		.p2align 2,,3
 134              		.weak	_ZN7daisysp7cLooperD2Ev
 135              		.syntax unified
 136              		.thumb
 137              		.thumb_func
 139              	_ZN7daisysp7cLooperD2Ev:
 140              	.LVL3:
 141              	.LFB5030:
 142              		.file 10 "customLooper.h"
   1:customLooper.h **** #pragma once
   2:customLooper.h **** #include <algorithm>
   3:customLooper.h **** #include "Utility/dsp.h"
   4:customLooper.h **** #include <tuple>
   5:customLooper.h **** 
   6:customLooper.h **** /**
   7:customLooper.h ****  * 
   8:customLooper.h ****  * A "custom/modified" version of the looper class from DaisySP. Added features include:
   9:customLooper.h ****  * bool returns for start and halfway through recorded loop
  10:customLooper.h ****  * (NOT IMPLEMENTED YET) variable playback speed.
  11:customLooper.h ****  * 
  12:customLooper.h **** */
  13:customLooper.h **** 
  14:customLooper.h **** namespace daisysp
  15:customLooper.h **** {
  16:customLooper.h **** /** Multimode audio looper
  17:customLooper.h **** * 
  18:customLooper.h **** * Modes are:
  19:customLooper.h **** *  - Normal
  20:customLooper.h **** *  - Onetime Dub
  21:customLooper.h **** *  - Replace
  22:customLooper.h **** *  - Frippertronics
  23:customLooper.h **** *
  24:customLooper.h **** * Read more about the looper modes in the mode enum documentation.
  25:customLooper.h **** */
  26:customLooper.h **** class cLooper
  27:customLooper.h **** {
  28:customLooper.h ****   public:
  29:customLooper.h ****     cLooper() {}
  30:customLooper.h ****     ~cLooper() {}
 143              		.loc 10 30 5 is_stmt 1 view -0
 144              		.cfi_startproc
 145              		@ args = 0, pretend = 0, frame = 0
 146              		@ frame_needed = 0, uses_anonymous_args = 0
 147              		@ link register save eliminated.
 148              		.loc 10 30 17 is_stmt 0 view .LVU21
 149 0000 7047     		bx	lr
 150              		.cfi_endproc
 151              	.LFE5030:
ARM GAS  /var/folders/hl/qgbwny5j0fd895c2c41bk3tw0000gp/T//cc1L1gWC.s 			page 13


 153              		.weak	_ZN7daisysp7cLooperD1Ev
 154              		.thumb_set _ZN7daisysp7cLooperD1Ev,_ZN7daisysp7cLooperD2Ev
 155 0002 00BF     		.section	.text._ZN5daisy8patch_sm7InitBedEv,"ax",%progbits
 156              		.align	1
 157              		.p2align 2,,3
 158              		.global	_ZN5daisy8patch_sm7InitBedEv
 159              		.syntax unified
 160              		.thumb
 161              		.thumb_func
 163              	_ZN5daisy8patch_sm7InitBedEv:
 164              	.LFB4793:
 165              		.file 11 "daisy_bed.h"
   1:daisy_bed.h   **** #pragma once
   2:daisy_bed.h   **** 
   3:daisy_bed.h   **** #include "daisy.h"
   4:daisy_bed.h   **** #include "daisysp.h"
   5:daisy_bed.h   **** #include "per/gpio.h"
   6:daisy_bed.h   **** #include "daisy_patch_sm.h"
   7:daisy_bed.h   **** 
   8:daisy_bed.h   **** namespace daisy
   9:daisy_bed.h   **** {
  10:daisy_bed.h   **** namespace patch_sm
  11:daisy_bed.h   **** {
  12:daisy_bed.h   ****     // simple stupid led set up
  13:daisy_bed.h   ****     GPIO    gen_led1;
  14:daisy_bed.h   ****     GPIO    gen_led2;
  15:daisy_bed.h   ****     GPIO    cv_led1;
  16:daisy_bed.h   ****     GPIO    cv_led2;
  17:daisy_bed.h   ****     GPIO    gate_in_led1;
  18:daisy_bed.h   ****     GPIO    gate_in_led2;
  19:daisy_bed.h   ****     GPIO    gate_out_led1;
  20:daisy_bed.h   ****     GPIO    gate_out_led2;
  21:daisy_bed.h   **** 
  22:daisy_bed.h   **** 
  23:daisy_bed.h   ****     // generic leds
  24:daisy_bed.h   ****     dsy_gpio_pin oldPinD7 = DaisyPatchSM::D7;
  25:daisy_bed.h   ****     Pin newPinD7 = Pin(static_cast<GPIOPort>(oldPinD7.port), oldPinD7.pin);
  26:daisy_bed.h   ****     dsy_gpio_pin oldPinA9 = DaisyPatchSM::A9;
  27:daisy_bed.h   ****     Pin newPinA9 = Pin(static_cast<GPIOPort>(oldPinA9.port), oldPinA9.pin);
  28:daisy_bed.h   **** 
  29:daisy_bed.h   ****     // cv leds
  30:daisy_bed.h   ****     dsy_gpio_pin oldPinD2 = DaisyPatchSM::D2;
  31:daisy_bed.h   ****     Pin newPinD2 = Pin(static_cast<GPIOPort>(oldPinD2.port), oldPinD2.pin);
  32:daisy_bed.h   ****     dsy_gpio_pin oldPinD1 = DaisyPatchSM::D1;
  33:daisy_bed.h   ****     Pin newPinD1 = Pin(static_cast<GPIOPort>(oldPinD1.port), oldPinD1.pin);
  34:daisy_bed.h   ****     // ^^^ {DSY_GPIOB, 4},  /**< D1  - SPI2 CS */
  35:daisy_bed.h   **** 
  36:daisy_bed.h   ****     // gate leds
  37:daisy_bed.h   ****     dsy_gpio_pin oldPinD3 = DaisyPatchSM::D3;
  38:daisy_bed.h   ****     Pin newPinD3 = Pin(static_cast<GPIOPort>(oldPinD3.port), oldPinD3.pin);
  39:daisy_bed.h   ****     dsy_gpio_pin oldPinD6 = DaisyPatchSM::D6;
  40:daisy_bed.h   ****     Pin newPinD6 = Pin(static_cast<GPIOPort>(oldPinD6.port), oldPinD6.pin);
  41:daisy_bed.h   ****     dsy_gpio_pin oldPinD4 = DaisyPatchSM::D4;
  42:daisy_bed.h   ****     Pin newPinD4 = Pin(static_cast<GPIOPort>(oldPinD4.port), oldPinD4.pin);
  43:daisy_bed.h   ****     dsy_gpio_pin oldPinD5 = DaisyPatchSM::D5;
  44:daisy_bed.h   ****     Pin newPinD5 = Pin(static_cast<GPIOPort>(oldPinD5.port), oldPinD5.pin);
  45:daisy_bed.h   **** 
ARM GAS  /var/folders/hl/qgbwny5j0fd895c2c41bk3tw0000gp/T//cc1L1gWC.s 			page 14


  46:daisy_bed.h   ****     // remap
  47:daisy_bed.h   ****      
  48:daisy_bed.h   ****     // map buttons
  49:daisy_bed.h   ****     Switch      b1,b2;
  50:daisy_bed.h   **** 
  51:daisy_bed.h   ****     void InitBed(){
 166              		.loc 11 51 19 is_stmt 1 view -0
 167              		.cfi_startproc
 168              		@ args = 0, pretend = 0, frame = 8
 169              		@ frame_needed = 0, uses_anonymous_args = 0
  52:daisy_bed.h   ****         // leds
  53:daisy_bed.h   ****         gen_led1.Init(newPinD7, GPIO::Mode::OUTPUT);
 170              		.loc 11 53 9 view .LVU23
  51:daisy_bed.h   ****         // leds
 171              		.loc 11 51 19 is_stmt 0 view .LVU24
 172 0000 10B5     		push	{r4, lr}
 173              		.cfi_def_cfa_offset 8
 174              		.cfi_offset 4, -8
 175              		.cfi_offset 14, -4
 176              		.loc 11 53 22 view .LVU25
 177 0002 2D49     		ldr	r1, .L8
  51:daisy_bed.h   ****         // leds
 178              		.loc 11 51 19 view .LVU26
 179 0004 84B0     		sub	sp, sp, #16
 180              		.cfi_def_cfa_offset 24
 181              		.loc 11 53 22 view .LVU27
 182 0006 0024     		movs	r4, #0
 183 0008 0122     		movs	r2, #1
 184 000a 0968     		ldr	r1, [r1]
 185 000c 2346     		mov	r3, r4
 186 000e 2B48     		ldr	r0, .L8+4
 187 0010 0094     		str	r4, [sp]
 188 0012 FFF7FEFF 		bl	_ZN5daisy4GPIO4InitENS_3PinENS0_4ModeENS0_4PullENS0_5SpeedE
 189              	.LVL4:
  54:daisy_bed.h   ****         gen_led2.Init(newPinA9, GPIO::Mode::OUTPUT);
 190              		.loc 11 54 9 is_stmt 1 view .LVU28
 191              		.loc 11 54 22 is_stmt 0 view .LVU29
 192 0016 2A49     		ldr	r1, .L8+8
 193 0018 2346     		mov	r3, r4
 194 001a 0122     		movs	r2, #1
 195 001c 0968     		ldr	r1, [r1]
 196 001e 2948     		ldr	r0, .L8+12
 197 0020 0094     		str	r4, [sp]
 198 0022 FFF7FEFF 		bl	_ZN5daisy4GPIO4InitENS_3PinENS0_4ModeENS0_4PullENS0_5SpeedE
 199              	.LVL5:
  55:daisy_bed.h   ****         cv_led1.Init(newPinD2, GPIO::Mode::OUTPUT);
 200              		.loc 11 55 9 is_stmt 1 view .LVU30
 201              		.loc 11 55 21 is_stmt 0 view .LVU31
 202 0026 2849     		ldr	r1, .L8+16
 203 0028 2346     		mov	r3, r4
 204 002a 0122     		movs	r2, #1
 205 002c 0968     		ldr	r1, [r1]
 206 002e 2748     		ldr	r0, .L8+20
 207 0030 0094     		str	r4, [sp]
 208 0032 FFF7FEFF 		bl	_ZN5daisy4GPIO4InitENS_3PinENS0_4ModeENS0_4PullENS0_5SpeedE
 209              	.LVL6:
  56:daisy_bed.h   ****         cv_led2.Init(newPinD1, GPIO::Mode::OUTPUT);
ARM GAS  /var/folders/hl/qgbwny5j0fd895c2c41bk3tw0000gp/T//cc1L1gWC.s 			page 15


 210              		.loc 11 56 9 is_stmt 1 view .LVU32
 211              		.loc 11 56 21 is_stmt 0 view .LVU33
 212 0036 2649     		ldr	r1, .L8+24
 213 0038 2346     		mov	r3, r4
 214 003a 0122     		movs	r2, #1
 215 003c 0968     		ldr	r1, [r1]
 216 003e 2548     		ldr	r0, .L8+28
 217 0040 0094     		str	r4, [sp]
 218 0042 FFF7FEFF 		bl	_ZN5daisy4GPIO4InitENS_3PinENS0_4ModeENS0_4PullENS0_5SpeedE
 219              	.LVL7:
  57:daisy_bed.h   ****         gate_in_led1.Init(newPinD3, GPIO::Mode::OUTPUT);
 220              		.loc 11 57 9 is_stmt 1 view .LVU34
 221              		.loc 11 57 26 is_stmt 0 view .LVU35
 222 0046 2449     		ldr	r1, .L8+32
 223 0048 2346     		mov	r3, r4
 224 004a 0122     		movs	r2, #1
 225 004c 0968     		ldr	r1, [r1]
 226 004e 2348     		ldr	r0, .L8+36
 227 0050 0094     		str	r4, [sp]
 228 0052 FFF7FEFF 		bl	_ZN5daisy4GPIO4InitENS_3PinENS0_4ModeENS0_4PullENS0_5SpeedE
 229              	.LVL8:
  58:daisy_bed.h   ****         gate_in_led2.Init(newPinD5, GPIO::Mode::OUTPUT);
 230              		.loc 11 58 9 is_stmt 1 view .LVU36
 231              		.loc 11 58 26 is_stmt 0 view .LVU37
 232 0056 2249     		ldr	r1, .L8+40
 233 0058 2346     		mov	r3, r4
 234 005a 0122     		movs	r2, #1
 235 005c 0968     		ldr	r1, [r1]
 236 005e 2148     		ldr	r0, .L8+44
 237 0060 0094     		str	r4, [sp]
 238 0062 FFF7FEFF 		bl	_ZN5daisy4GPIO4InitENS_3PinENS0_4ModeENS0_4PullENS0_5SpeedE
 239              	.LVL9:
  59:daisy_bed.h   ****         gate_out_led1.Init(newPinD6, GPIO::Mode::OUTPUT);
 240              		.loc 11 59 9 is_stmt 1 view .LVU38
 241              		.loc 11 59 27 is_stmt 0 view .LVU39
 242 0066 2049     		ldr	r1, .L8+48
 243 0068 2346     		mov	r3, r4
 244 006a 0122     		movs	r2, #1
 245 006c 0968     		ldr	r1, [r1]
 246 006e 1F48     		ldr	r0, .L8+52
 247 0070 0094     		str	r4, [sp]
 248 0072 FFF7FEFF 		bl	_ZN5daisy4GPIO4InitENS_3PinENS0_4ModeENS0_4PullENS0_5SpeedE
 249              	.LVL10:
  60:daisy_bed.h   ****         gate_out_led2.Init(newPinD4, GPIO::Mode::OUTPUT);
 250              		.loc 11 60 9 is_stmt 1 view .LVU40
 251              		.loc 11 60 27 is_stmt 0 view .LVU41
 252 0076 1E49     		ldr	r1, .L8+56
 253 0078 2346     		mov	r3, r4
 254 007a 0122     		movs	r2, #1
 255 007c 0968     		ldr	r1, [r1]
 256 007e 1D48     		ldr	r0, .L8+60
 257 0080 0094     		str	r4, [sp]
 258 0082 FFF7FEFF 		bl	_ZN5daisy4GPIO4InitENS_3PinENS0_4ModeENS0_4PullENS0_5SpeedE
 259              	.LVL11:
  61:daisy_bed.h   **** 
  62:daisy_bed.h   ****         // buttons
  63:daisy_bed.h   ****         b1.Init(DaisyPatchSM::A8);
ARM GAS  /var/folders/hl/qgbwny5j0fd895c2c41bk3tw0000gp/T//cc1L1gWC.s 			page 16


 260              		.loc 11 63 9 is_stmt 1 view .LVU42
 261              		.loc 11 63 16 is_stmt 0 view .LVU43
 262 0086 1C4B     		ldr	r3, .L8+64
 263 0088 9FED1C0A 		vldr.32	s0, .L8+68
 264 008c 1A78     		ldrb	r2, [r3]	@ zero_extendqisi2
 265 008e 5978     		ldrb	r1, [r3, #1]	@ zero_extendqisi2
 266 0090 1B48     		ldr	r0, .L8+72
 267 0092 42EA0121 		orr	r1, r2, r1, lsl #8
 268 0096 8DED030A 		vstr.32	s0, [sp, #12]	@ int
 269 009a FFF7FEFF 		bl	_ZN5daisy6Switch4InitE12dsy_gpio_pinf
 270              	.LVL12:
  64:daisy_bed.h   ****         b2.Init(DaisyPatchSM::D10);
 271              		.loc 11 64 9 is_stmt 1 view .LVU44
 272              		.loc 11 64 16 is_stmt 0 view .LVU45
 273 009e 194B     		ldr	r3, .L8+76
 274 00a0 9DED030A 		vldr.32	s0, [sp, #12]	@ int
 275 00a4 1A78     		ldrb	r2, [r3]	@ zero_extendqisi2
 276 00a6 5978     		ldrb	r1, [r3, #1]	@ zero_extendqisi2
 277 00a8 1748     		ldr	r0, .L8+80
 278 00aa 42EA0121 		orr	r1, r2, r1, lsl #8
  65:daisy_bed.h   ****     }
 279              		.loc 11 65 5 view .LVU46
 280 00ae 04B0     		add	sp, sp, #16
 281              		.cfi_def_cfa_offset 8
 282              		@ sp needed
 283 00b0 BDE81040 		pop	{r4, lr}
 284              		.cfi_restore 14
 285              		.cfi_restore 4
 286              		.cfi_def_cfa_offset 0
  64:daisy_bed.h   ****         b2.Init(DaisyPatchSM::D10);
 287              		.loc 11 64 16 view .LVU47
 288 00b4 FFF7FEBF 		b	_ZN5daisy6Switch4InitE12dsy_gpio_pinf
 289              	.LVL13:
 290              	.L9:
 291              		.align	2
 292              	.L8:
 293 00b8 00000000 		.word	.LANCHOR0
 294 00bc 00000000 		.word	.LANCHOR1
 295 00c0 00000000 		.word	.LANCHOR2
 296 00c4 00000000 		.word	.LANCHOR3
 297 00c8 00000000 		.word	.LANCHOR4
 298 00cc 00000000 		.word	.LANCHOR5
 299 00d0 00000000 		.word	.LANCHOR6
 300 00d4 00000000 		.word	.LANCHOR7
 301 00d8 00000000 		.word	.LANCHOR8
 302 00dc 00000000 		.word	.LANCHOR9
 303 00e0 00000000 		.word	.LANCHOR10
 304 00e4 00000000 		.word	.LANCHOR11
 305 00e8 00000000 		.word	.LANCHOR12
 306 00ec 00000000 		.word	.LANCHOR13
 307 00f0 00000000 		.word	.LANCHOR14
 308 00f4 00000000 		.word	.LANCHOR15
 309 00f8 00000000 		.word	_ZN5daisy8patch_sm12DaisyPatchSM2A8E
 310 00fc 00000000 		.word	0
 311 0100 00000000 		.word	.LANCHOR16
 312 0104 00000000 		.word	_ZN5daisy8patch_sm12DaisyPatchSM3D10E
 313 0108 00000000 		.word	.LANCHOR17
ARM GAS  /var/folders/hl/qgbwny5j0fd895c2c41bk3tw0000gp/T//cc1L1gWC.s 			page 17


 314              		.cfi_endproc
 315              	.LFE4793:
 317              		.section	.text._ZN5daisy8patch_sm6ledOffEv,"ax",%progbits
 318              		.align	1
 319              		.p2align 2,,3
 320              		.global	_ZN5daisy8patch_sm6ledOffEv
 321              		.syntax unified
 322              		.thumb
 323              		.thumb_func
 325              	_ZN5daisy8patch_sm6ledOffEv:
 326              	.LFB4794:
  66:daisy_bed.h   **** 
  67:daisy_bed.h   ****     void ledOff(){
 327              		.loc 11 67 18 is_stmt 1 view -0
 328              		.cfi_startproc
 329              		@ args = 0, pretend = 0, frame = 0
 330              		@ frame_needed = 0, uses_anonymous_args = 0
  68:daisy_bed.h   ****         gen_led1.Write(false);
 331              		.loc 11 68 9 view .LVU49
  67:daisy_bed.h   ****         gen_led1.Write(false);
 332              		.loc 11 67 18 is_stmt 0 view .LVU50
 333 0000 08B5     		push	{r3, lr}
 334              		.cfi_def_cfa_offset 8
 335              		.cfi_offset 3, -8
 336              		.cfi_offset 14, -4
 337              		.loc 11 68 23 view .LVU51
 338 0002 0021     		movs	r1, #0
 339 0004 0848     		ldr	r0, .L12
 340 0006 FFF7FEFF 		bl	_ZN5daisy4GPIO5WriteEb
 341              	.LVL14:
  69:daisy_bed.h   ****         gen_led2.Write(false);
 342              		.loc 11 69 9 is_stmt 1 view .LVU52
 343              		.loc 11 69 23 is_stmt 0 view .LVU53
 344 000a 0021     		movs	r1, #0
 345 000c 0748     		ldr	r0, .L12+4
 346 000e FFF7FEFF 		bl	_ZN5daisy4GPIO5WriteEb
 347              	.LVL15:
  70:daisy_bed.h   ****         cv_led1.Write(false);
 348              		.loc 11 70 9 is_stmt 1 view .LVU54
 349              		.loc 11 70 22 is_stmt 0 view .LVU55
 350 0012 0021     		movs	r1, #0
 351 0014 0648     		ldr	r0, .L12+8
 352 0016 FFF7FEFF 		bl	_ZN5daisy4GPIO5WriteEb
 353              	.LVL16:
  71:daisy_bed.h   ****         cv_led2.Write(false);
 354              		.loc 11 71 9 is_stmt 1 view .LVU56
 355              		.loc 11 71 22 is_stmt 0 view .LVU57
 356 001a 0021     		movs	r1, #0
 357 001c 0548     		ldr	r0, .L12+12
  72:daisy_bed.h   ****     }
 358              		.loc 11 72 5 view .LVU58
 359 001e BDE80840 		pop	{r3, lr}
 360              		.cfi_restore 14
 361              		.cfi_restore 3
 362              		.cfi_def_cfa_offset 0
  71:daisy_bed.h   ****         cv_led2.Write(false);
 363              		.loc 11 71 22 view .LVU59
ARM GAS  /var/folders/hl/qgbwny5j0fd895c2c41bk3tw0000gp/T//cc1L1gWC.s 			page 18


 364 0022 FFF7FEBF 		b	_ZN5daisy4GPIO5WriteEb
 365              	.LVL17:
 366              	.L13:
 367 0026 00BF     		.align	2
 368              	.L12:
 369 0028 00000000 		.word	.LANCHOR1
 370 002c 00000000 		.word	.LANCHOR3
 371 0030 00000000 		.word	.LANCHOR5
 372 0034 00000000 		.word	.LANCHOR7
 373              		.cfi_endproc
 374              	.LFE4794:
 376              		.section	.text._Z11loopControlv,"ax",%progbits
 377              		.align	1
 378              		.p2align 2,,3
 379              		.global	_Z11loopControlv
 380              		.syntax unified
 381              		.thumb
 382              		.thumb_func
 384              	_Z11loopControlv:
 385              	.LFB5074:
 386              		.file 12 "Convolution.cpp"
   1:Convolution.cpp **** #include "daisy_patch_sm.h"
   2:Convolution.cpp **** #include "daisysp.h"
   3:Convolution.cpp **** #include "daisy_bed.h"
   4:Convolution.cpp **** #include "customLooper.h"
   5:Convolution.cpp **** 
   6:Convolution.cpp **** using namespace daisy;
   7:Convolution.cpp **** using namespace patch_sm;
   8:Convolution.cpp **** using namespace daisysp;
   9:Convolution.cpp **** 
  10:Convolution.cpp **** #define kBuffSize 48000 * 60 // 60 seconds at 48kHz
  11:Convolution.cpp **** float DSY_SDRAM_BSS buffer[kBuffSize];
  12:Convolution.cpp **** 
  13:Convolution.cpp **** DaisyPatchSM 			hw;
  14:Convolution.cpp **** cLooper					loop;
  15:Convolution.cpp **** ReverbSc DSY_SDRAM_BSS	rev;
  16:Convolution.cpp **** 
  17:Convolution.cpp **** void loopControl(){
 387              		.loc 12 17 19 is_stmt 1 view -0
 388              		.cfi_startproc
 389              		@ args = 0, pretend = 0, frame = 0
 390              		@ frame_needed = 0, uses_anonymous_args = 0
  18:Convolution.cpp ****     b2.Debounce();
 391              		.loc 12 18 5 view .LVU61
  17:Convolution.cpp ****     b2.Debounce();
 392              		.loc 12 17 19 is_stmt 0 view .LVU62
 393 0000 10B5     		push	{r4, lr}
 394              		.cfi_def_cfa_offset 8
 395              		.cfi_offset 4, -8
 396              		.cfi_offset 14, -4
  19:Convolution.cpp **** 	b1.Debounce();
 397              		.loc 12 19 13 view .LVU63
 398 0002 264C     		ldr	r4, .L34
  18:Convolution.cpp ****     b2.Debounce();
 399              		.loc 12 18 16 view .LVU64
 400 0004 2648     		ldr	r0, .L34+4
 401 0006 FFF7FEFF 		bl	_ZN5daisy6Switch8DebounceEv
ARM GAS  /var/folders/hl/qgbwny5j0fd895c2c41bk3tw0000gp/T//cc1L1gWC.s 			page 19


 402              	.LVL18:
 403              		.loc 12 19 2 is_stmt 1 view .LVU65
 404              		.loc 12 19 13 is_stmt 0 view .LVU66
 405 000a 2046     		mov	r0, r4
 406 000c FFF7FEFF 		bl	_ZN5daisy6Switch8DebounceEv
 407              	.LVL19:
  20:Convolution.cpp **** 
  21:Convolution.cpp **** 	if(hw.gate_in_1.Trig()||b1.RisingEdge()) {
 408              		.loc 12 21 2 is_stmt 1 view .LVU67
 409              		.loc 12 21 22 is_stmt 0 view .LVU68
 410 0010 2448     		ldr	r0, .L34+8
 411 0012 FFF7FEFF 		bl	_ZN5daisy6GateIn4TrigEv
 412              	.LVL20:
 413              		.loc 12 21 24 view .LVU69
 414 0016 20B9     		cbnz	r0, .L15
 415              	.LVL21:
 416              	.LBB532:
 417              	.LBI532:
  43:../../libDaisy//src/hid/switch.h **** 
  44:../../libDaisy//src/hid/switch.h ****     /** 
  45:../../libDaisy//src/hid/switch.h ****     Initializes the switch object with a given port/pin combo.
  46:../../libDaisy//src/hid/switch.h ****     \param pin port/pin object to tell the switch which hardware pin to use.
  47:../../libDaisy//src/hid/switch.h ****     \param update_rate Does nothing. Backwards compatibility until next breaking update.
  48:../../libDaisy//src/hid/switch.h ****     \param t switch type -- Default: TYPE_MOMENTARY
  49:../../libDaisy//src/hid/switch.h ****     \param pol switch polarity -- Default: POLARITY_INVERTED
  50:../../libDaisy//src/hid/switch.h ****     \param pu switch pull up/down -- Default: PULL_UP
  51:../../libDaisy//src/hid/switch.h ****     */
  52:../../libDaisy//src/hid/switch.h ****     void
  53:../../libDaisy//src/hid/switch.h ****     Init(dsy_gpio_pin pin, float update_rate, Type t, Polarity pol, Pull pu);
  54:../../libDaisy//src/hid/switch.h **** 
  55:../../libDaisy//src/hid/switch.h ****     /**
  56:../../libDaisy//src/hid/switch.h ****        Simplified Init.
  57:../../libDaisy//src/hid/switch.h ****        \param pin port/pin object to tell the switch which hardware pin to use.
  58:../../libDaisy//src/hid/switch.h ****        \param update_rate Left for backwards compatibility until next breaking change.
  59:../../libDaisy//src/hid/switch.h ****     */
  60:../../libDaisy//src/hid/switch.h ****     void Init(dsy_gpio_pin pin, float update_rate = 0.f);
  61:../../libDaisy//src/hid/switch.h **** 
  62:../../libDaisy//src/hid/switch.h ****     /** 
  63:../../libDaisy//src/hid/switch.h ****     Called at update_rate to debounce and handle timing for the switch.
  64:../../libDaisy//src/hid/switch.h ****     In order for events not to be missed, its important that the Edge/Pressed checks
  65:../../libDaisy//src/hid/switch.h ****     be made at the same rate as the debounce function is being called.
  66:../../libDaisy//src/hid/switch.h ****     */
  67:../../libDaisy//src/hid/switch.h ****     void Debounce();
  68:../../libDaisy//src/hid/switch.h **** 
  69:../../libDaisy//src/hid/switch.h ****     /** \return true if a button was just pressed. */
  70:../../libDaisy//src/hid/switch.h ****     inline bool RisingEdge() const { return updated_ ? state_ == 0x7f : false; }
 418              		.loc 1 70 17 is_stmt 1 view .LVU70
 419              	.LBB533:
 420              		.loc 1 70 38 view .LVU71
 421              		.loc 1 70 54 is_stmt 0 view .LVU72
 422 0018 2379     		ldrb	r3, [r4, #4]	@ zero_extendqisi2
 423 001a 83B1     		cbz	r3, .L17
 424              	.LVL22:
 425              		.loc 1 70 54 view .LVU73
 426              	.LBE533:
 427              	.LBE532:
 428              		.loc 12 21 24 view .LVU74
ARM GAS  /var/folders/hl/qgbwny5j0fd895c2c41bk3tw0000gp/T//cc1L1gWC.s 			page 20


 429 001c A37A     		ldrb	r3, [r4, #10]	@ zero_extendqisi2
 430 001e 7F2B     		cmp	r3, #127
 431 0020 0DD1     		bne	.L17
 432              	.L15:
  22:Convolution.cpp ****         loop.TrigRecord();
 433              		.loc 12 22 9 is_stmt 1 view .LVU75
 434              	.LVL23:
 435              	.LBB534:
 436              	.LBI534:
  31:customLooper.h **** 
  32:customLooper.h ****     /** 
  33:customLooper.h ****      ** Normal Mode: Input is added to the existing loop infinitely while recording 
  34:customLooper.h ****      ** 
  35:customLooper.h ****      ** Onetime Dub Mode: Recording starts at the first sample of the buffer and is added
  36:customLooper.h ****      **     to the existing buffer contents. Recording automatically stops after one full loop.
  37:customLooper.h ****      **
  38:customLooper.h ****      ** Replace Mode: Audio in the buffer is replaced while recording is on.
  39:customLooper.h ****      **
  40:customLooper.h ****      ** Frippertronics Mode: infinite looping recording with fixed decay on each loop. The module a
  41:customLooper.h ****      */
  42:customLooper.h ****     enum class Mode
  43:customLooper.h ****     {
  44:customLooper.h ****         NORMAL,
  45:customLooper.h ****         ONETIME_DUB,
  46:customLooper.h ****         REPLACE,
  47:customLooper.h ****         FRIPPERTRONICS,
  48:customLooper.h ****     };
  49:customLooper.h **** 
  50:customLooper.h ****     void Init(float *mem, size_t size)
  51:customLooper.h ****     {
  52:customLooper.h ****         buffer_size_ = size;
  53:customLooper.h ****         buff_        = mem;
  54:customLooper.h **** 
  55:customLooper.h ****         InitBuff();
  56:customLooper.h ****         state_      = State::EMPTY;
  57:customLooper.h ****         mode_       = Mode::NORMAL;
  58:customLooper.h ****         half_speed_ = false;
  59:customLooper.h ****         reverse_    = false;
  60:customLooper.h ****         rec_queue_  = false;
  61:customLooper.h ****         win_idx_    = 0;
  62:customLooper.h ****     }
  63:customLooper.h **** 
  64:customLooper.h ****     /** Handles reading/writing to the Buffer depending on the mode. */
  65:customLooper.h ****     float Process(const float input)
  66:customLooper.h ****     {
  67:customLooper.h ****         float sig = 0.f;
  68:customLooper.h ****         float inc;
  69:customLooper.h ****         bool  hitloop = false;
  70:customLooper.h ****         // Record forward at normal speed during the first loop no matter what.
  71:customLooper.h ****         inc = state_ == State::EMPTY || state_ == State::REC_FIRST
  72:customLooper.h ****                   ? 1.f
  73:customLooper.h ****                   : GetIncrementSize();
  74:customLooper.h ****         win_ = WindowVal(win_idx_ * kWindowFactor);
  75:customLooper.h ****         switch(state_)
  76:customLooper.h ****         {
  77:customLooper.h ****             case State::EMPTY: sig = 0.0f; break;
  78:customLooper.h ****             case State::REC_FIRST:
ARM GAS  /var/folders/hl/qgbwny5j0fd895c2c41bk3tw0000gp/T//cc1L1gWC.s 			page 21


  79:customLooper.h ****                 sig = 0.f;
  80:customLooper.h ****                 Write(pos_, input * win_);
  81:customLooper.h ****                 if(win_idx_ < kWindowSamps - 1)
  82:customLooper.h ****                     win_idx_ += 1;
  83:customLooper.h ****                 recsize_ = pos_;
  84:customLooper.h ****                 pos_ += inc;
  85:customLooper.h ****                 if(pos_ > buffer_size_ - 1)
  86:customLooper.h ****                 {
  87:customLooper.h ****                     state_   = State::PLAYING;
  88:customLooper.h ****                     recsize_ = pos_ - 1;
  89:customLooper.h ****                     pos_     = 0;
  90:customLooper.h ****                 }
  91:customLooper.h ****                 break;
  92:customLooper.h ****             case State::PLAYING:
  93:customLooper.h ****                 sig = Read(pos_);
  94:customLooper.h ****                 /** This is a way of 'seamless looping'
  95:customLooper.h **** 				 ** The first N samps after recording is done are recorded with the input faded out. 
  96:customLooper.h **** 				 */
  97:customLooper.h ****                 if(win_idx_ < kWindowSamps - 1)
  98:customLooper.h ****                 {
  99:customLooper.h ****                     Write(pos_, sig + input * (1.f - win_));
 100:customLooper.h ****                     win_idx_ += 1;
 101:customLooper.h ****                 }
 102:customLooper.h **** 
 103:customLooper.h ****                 pos_ += inc;
 104:customLooper.h ****                 if(pos_ > recsize_ - 1)
 105:customLooper.h ****                 {
 106:customLooper.h ****                     pos_    = 0;
 107:customLooper.h ****                     hitloop = true;
 108:customLooper.h ****                 }
 109:customLooper.h ****                 else if(pos_ < 0)
 110:customLooper.h ****                 {
 111:customLooper.h ****                     pos_    = recsize_ - 1;
 112:customLooper.h ****                     hitloop = true;
 113:customLooper.h ****                 }
 114:customLooper.h ****                 if(hitloop)
 115:customLooper.h **** 
 116:customLooper.h ****                 {
 117:customLooper.h ****                     if(rec_queue_ && mode_ == Mode::ONETIME_DUB)
 118:customLooper.h ****                     {
 119:customLooper.h ****                         rec_queue_ = false;
 120:customLooper.h ****                         state_     = State::REC_DUB;
 121:customLooper.h ****                         win_idx_   = 0;
 122:customLooper.h ****                     }
 123:customLooper.h ****                 }
 124:customLooper.h ****                 break;
 125:customLooper.h ****             case State::REC_DUB:
 126:customLooper.h ****                 sig = Read(pos_);
 127:customLooper.h ****                 switch(mode_)
 128:customLooper.h ****                 {
 129:customLooper.h ****                     case Mode::REPLACE: Write(pos_, input * win_); break;
 130:customLooper.h ****                     case Mode::FRIPPERTRONICS:
 131:customLooper.h ****                         Write(pos_, (input * win_) + (sig * kFripDecayVal));
 132:customLooper.h ****                         break;
 133:customLooper.h ****                     case Mode::NORMAL:
 134:customLooper.h ****                     case Mode::ONETIME_DUB:
 135:customLooper.h ****                     default: Write(pos_, (input * win_) + sig); break;
ARM GAS  /var/folders/hl/qgbwny5j0fd895c2c41bk3tw0000gp/T//cc1L1gWC.s 			page 22


 136:customLooper.h ****                 }
 137:customLooper.h ****                 if(win_idx_ < kWindowSamps - 1)
 138:customLooper.h ****                     win_idx_ += 1;
 139:customLooper.h ****                 pos_ += inc;
 140:customLooper.h ****                 if(pos_ > recsize_ - 1)
 141:customLooper.h ****                 {
 142:customLooper.h ****                     pos_    = 0;
 143:customLooper.h ****                     hitloop = true;
 144:customLooper.h ****                 }
 145:customLooper.h ****                 else if(pos_ < 0)
 146:customLooper.h ****                 {
 147:customLooper.h ****                     pos_    = recsize_ - 1;
 148:customLooper.h ****                     hitloop = true;
 149:customLooper.h ****                 }
 150:customLooper.h ****                 if(hitloop && mode_ == Mode::ONETIME_DUB)
 151:customLooper.h ****                 {
 152:customLooper.h ****                     state_   = State::PLAYING;
 153:customLooper.h ****                     win_idx_ = 0;
 154:customLooper.h ****                 }
 155:customLooper.h **** 
 156:customLooper.h ****                 break;
 157:customLooper.h ****             default: break;
 158:customLooper.h ****         }
 159:customLooper.h ****         near_beginning_ = state_ != State::EMPTY && !Recording() && pos_ < 4800
 160:customLooper.h ****                               ? true
 161:customLooper.h ****                               : false;
 162:customLooper.h **** 
 163:customLooper.h ****         return sig;
 164:customLooper.h ****     }
 165:customLooper.h **** 
 166:customLooper.h ****     /** Effectively erases the buffer 
 167:customLooper.h ****      ** Note: This does not actually change what is in the buffer  */
 168:customLooper.h ****     inline void Clear() { state_ = State::EMPTY; }
 169:customLooper.h **** 
 170:customLooper.h ****     /** Engages/Disengages the recording, depending on Mode.
 171:customLooper.h ****      ** In all modes, the first time this is triggered a new loop will be started.
 172:customLooper.h ****      ** The second trigger will set the loop size, and begin playback of the loop. 
 173:customLooper.h ****     */
 174:customLooper.h ****     inline void TrigRecord()
 437              		.loc 10 174 17 view .LVU76
 438              	.LBB535:
 175:customLooper.h ****     {
 176:customLooper.h ****         switch(state_)
 439              		.loc 10 176 9 view .LVU77
 440              		.loc 10 176 16 is_stmt 0 view .LVU78
 441 0022 214B     		ldr	r3, .L34+12
 442              		.loc 10 176 9 view .LVU79
 443 0024 5A68     		ldr	r2, [r3, #4]
 444 0026 032A     		cmp	r2, #3
 445 0028 34D8     		bhi	.L19
 446 002a DFE802F0 		tbb	[pc, r2]
 447              	.L21:
 448 002e 22       		.byte	(.L23-.L21)/2
 449 002f 02       		.byte	(.L20-.L21)/2
 450 0030 2A       		.byte	(.L22-.L21)/2
 451 0031 02       		.byte	(.L20-.L21)/2
 452              		.p2align 1
ARM GAS  /var/folders/hl/qgbwny5j0fd895c2c41bk3tw0000gp/T//cc1L1gWC.s 			page 23


 453              	.L20:
 177:customLooper.h ****         {
 178:customLooper.h ****             case State::EMPTY:
 179:customLooper.h ****                 pos_        = 0;
 180:customLooper.h ****                 recsize_    = 0;
 181:customLooper.h ****                 state_      = State::REC_FIRST;
 182:customLooper.h ****                 half_speed_ = false;
 183:customLooper.h ****                 reverse_    = false;
 184:customLooper.h ****                 break;
 185:customLooper.h ****             case State::REC_FIRST:
 454              		.loc 10 185 13 is_stmt 1 view .LVU80
 186:customLooper.h ****             case State::REC_DUB: state_ = State::PLAYING; break;
 455              		.loc 10 186 13 view .LVU81
 456              		.loc 10 186 34 view .LVU82
 457              		.loc 10 186 41 is_stmt 0 view .LVU83
 458 0032 0222     		movs	r2, #2
 459 0034 5A60     		str	r2, [r3, #4]
 460              		.loc 10 186 59 is_stmt 1 view .LVU84
 461              	.L24:
 187:customLooper.h ****             case State::PLAYING:
 188:customLooper.h ****                 if(mode_ == Mode::ONETIME_DUB)
 189:customLooper.h ****                     rec_queue_ = true;
 190:customLooper.h ****                 else
 191:customLooper.h ****                     state_ = State::REC_DUB;
 192:customLooper.h ****                 break;
 193:customLooper.h ****             default: state_ = State::EMPTY; break;
 194:customLooper.h ****         }
 195:customLooper.h ****         if(!rec_queue_)
 462              		.loc 10 195 9 view .LVU85
 463 0036 93F82420 		ldrb	r2, [r3, #36]	@ zero_extendqisi2
 464 003a 02B9     		cbnz	r2, .L17
 196:customLooper.h ****             win_idx_ = 0;
 465              		.loc 10 196 13 view .LVU86
 466              		.loc 10 196 22 is_stmt 0 view .LVU87
 467 003c 9A61     		str	r2, [r3, #24]
 468              	.LVL24:
 469              	.L17:
 470              		.loc 10 196 22 view .LVU88
 471              	.LBE535:
 472              	.LBE534:
  23:Convolution.cpp ****     }
  24:Convolution.cpp **** 
  25:Convolution.cpp **** 	if(b2.TimeHeldMs() >= 1000.f) {
 473              		.loc 12 25 2 is_stmt 1 view .LVU89
 474              	.LBB537:
 475              	.LBI537:
  71:../../libDaisy//src/hid/switch.h **** 
  72:../../libDaisy//src/hid/switch.h ****     /** \return true if the button was just released */
  73:../../libDaisy//src/hid/switch.h ****     inline bool FallingEdge() const
  74:../../libDaisy//src/hid/switch.h ****     {
  75:../../libDaisy//src/hid/switch.h ****         return updated_ ? state_ == 0x80 : false;
  76:../../libDaisy//src/hid/switch.h ****     }
  77:../../libDaisy//src/hid/switch.h **** 
  78:../../libDaisy//src/hid/switch.h ****     /** \return true if the button is held down (or if the toggle is on) */
  79:../../libDaisy//src/hid/switch.h ****     inline bool Pressed() const { return state_ == 0xff; }
  80:../../libDaisy//src/hid/switch.h **** 
  81:../../libDaisy//src/hid/switch.h ****     /** \return true if the button is held down, without debouncing */
ARM GAS  /var/folders/hl/qgbwny5j0fd895c2c41bk3tw0000gp/T//cc1L1gWC.s 			page 24


  82:../../libDaisy//src/hid/switch.h ****     inline bool RawState()
  83:../../libDaisy//src/hid/switch.h ****     {
  84:../../libDaisy//src/hid/switch.h ****         return flip_ ? !dsy_gpio_read(&hw_gpio_) : dsy_gpio_read(&hw_gpio_);
  85:../../libDaisy//src/hid/switch.h ****     }
  86:../../libDaisy//src/hid/switch.h **** 
  87:../../libDaisy//src/hid/switch.h ****     /** \return the time in milliseconds that the button has been held (or toggle has been on) */
  88:../../libDaisy//src/hid/switch.h ****     inline float TimeHeldMs() const
 476              		.loc 1 88 18 view .LVU90
 477              	.LBB538:
  89:../../libDaisy//src/hid/switch.h ****     {
  90:../../libDaisy//src/hid/switch.h ****         return Pressed() ? System::GetNow() - rising_edge_time_ : 0;
 478              		.loc 1 90 9 view .LVU91
 479              	.LBB539:
 480              	.LBI539:
  79:../../libDaisy//src/hid/switch.h **** 
 481              		.loc 1 79 17 view .LVU92
 482              	.LBB540:
  79:../../libDaisy//src/hid/switch.h **** 
 483              		.loc 1 79 35 view .LVU93
  79:../../libDaisy//src/hid/switch.h **** 
 484              		.loc 1 79 42 is_stmt 0 view .LVU94
 485 003e 184C     		ldr	r4, .L34+4
 486              	.LBE540:
 487              	.LBE539:
 488              		.loc 1 90 26 view .LVU95
 489 0040 A37A     		ldrb	r3, [r4, #10]	@ zero_extendqisi2
 490 0042 FF2B     		cmp	r3, #255
 491 0044 00D0     		beq	.L32
 492              	.LVL25:
 493              	.L14:
 494              		.loc 1 90 26 view .LVU96
 495              	.LBE538:
 496              	.LBE537:
  26:Convolution.cpp ****         loop.Clear();
  27:Convolution.cpp ****     }
  28:Convolution.cpp **** }
 497              		.loc 12 28 1 view .LVU97
 498 0046 10BD     		pop	{r4, pc}
 499              	.LVL26:
 500              	.L32:
 501              	.LBB547:
 502              	.LBB545:
 503              	.LBB541:
 504              	.LBI541:
  88:../../libDaisy//src/hid/switch.h ****     {
 505              		.loc 1 88 18 is_stmt 1 view .LVU98
 506              	.LBB542:
 507              		.loc 1 90 42 is_stmt 0 view .LVU99
 508 0048 FFF7FEFF 		bl	_ZN5daisy6System6GetNowEv
 509              	.LVL27:
 510              		.loc 1 90 45 view .LVU100
 511 004c 07EE900A 		vmov	s15, r0	@ int
 512              		.loc 1 90 26 view .LVU101
 513 0050 D4ED036A 		vldr.32	s13, [r4, #12]
 514              		.loc 1 90 45 view .LVU102
 515 0054 F8EE677A 		vcvt.f32.u32	s15, s15
 516              	.LBE542:
ARM GAS  /var/folders/hl/qgbwny5j0fd895c2c41bk3tw0000gp/T//cc1L1gWC.s 			page 25


 517              	.LBE541:
 518              	.LBE545:
 519              	.LBE547:
  25:Convolution.cpp ****         loop.Clear();
 520              		.loc 12 25 2 view .LVU103
 521 0058 9FED147A 		vldr.32	s14, .L34+16
 522              	.LBB548:
 523              	.LBB546:
 524              	.LBB544:
 525              	.LBB543:
 526              		.loc 1 90 26 view .LVU104
 527 005c 77EEE67A 		vsub.f32	s15, s15, s13
 528              	.LBE543:
 529              	.LBE544:
 530              	.LBE546:
 531              	.LBE548:
  25:Convolution.cpp ****         loop.Clear();
 532              		.loc 12 25 2 view .LVU105
 533 0060 F4EEC77A 		vcmpe.f32	s15, s14
 534 0064 F1EE10FA 		vmrs	APSR_nzcv, FPSCR
 535 0068 EDDB     		blt	.L14
  26:Convolution.cpp ****         loop.Clear();
 536              		.loc 12 26 9 is_stmt 1 view .LVU106
 537              	.LVL28:
 538              	.LBB549:
 539              	.LBI549:
 168:customLooper.h **** 
 540              		.loc 10 168 17 view .LVU107
 541              	.LBB550:
 168:customLooper.h **** 
 542              		.loc 10 168 27 view .LVU108
 168:customLooper.h **** 
 543              		.loc 10 168 34 is_stmt 0 view .LVU109
 544 006a 0F4B     		ldr	r3, .L34+12
 545 006c 0022     		movs	r2, #0
 546 006e 5A60     		str	r2, [r3, #4]
 547              	.LVL29:
 168:customLooper.h **** 
 548              		.loc 10 168 34 view .LVU110
 549              	.LBE550:
 550              	.LBE549:
 551              		.loc 12 28 1 view .LVU111
 552 0070 10BD     		pop	{r4, pc}
 553              	.LVL30:
 554              	.L23:
 555              	.LBB551:
 556              	.LBB536:
 178:customLooper.h ****                 pos_        = 0;
 557              		.loc 10 178 13 is_stmt 1 view .LVU112
 179:customLooper.h ****                 recsize_    = 0;
 558              		.loc 10 179 17 view .LVU113
 180:customLooper.h ****                 state_      = State::REC_FIRST;
 559              		.loc 10 180 29 is_stmt 0 view .LVU114
 560 0072 0022     		movs	r2, #0
 179:customLooper.h ****                 recsize_    = 0;
 561              		.loc 10 179 29 view .LVU115
 562 0074 0020     		movs	r0, #0
ARM GAS  /var/folders/hl/qgbwny5j0fd895c2c41bk3tw0000gp/T//cc1L1gWC.s 			page 26


 181:customLooper.h ****                 half_speed_ = false;
 563              		.loc 10 181 29 view .LVU116
 564 0076 0121     		movs	r1, #1
 179:customLooper.h ****                 recsize_    = 0;
 565              		.loc 10 179 29 view .LVU117
 566 0078 1861     		str	r0, [r3, #16]	@ float
 180:customLooper.h ****                 state_      = State::REC_FIRST;
 567              		.loc 10 180 17 is_stmt 1 view .LVU118
 180:customLooper.h ****                 state_      = State::REC_FIRST;
 568              		.loc 10 180 29 is_stmt 0 view .LVU119
 569 007a 1A62     		str	r2, [r3, #32]
 181:customLooper.h ****                 half_speed_ = false;
 570              		.loc 10 181 17 is_stmt 1 view .LVU120
 181:customLooper.h ****                 half_speed_ = false;
 571              		.loc 10 181 29 is_stmt 0 view .LVU121
 572 007c 5960     		str	r1, [r3, #4]
 182:customLooper.h ****                 reverse_    = false;
 573              		.loc 10 182 17 is_stmt 1 view .LVU122
 183:customLooper.h ****                 break;
 574              		.loc 10 183 17 view .LVU123
 182:customLooper.h ****                 reverse_    = false;
 575              		.loc 10 182 29 is_stmt 0 view .LVU124
 576 007e 9A83     		strh	r2, [r3, #28]	@ movhi
 184:customLooper.h ****             case State::REC_FIRST:
 577              		.loc 10 184 17 is_stmt 1 view .LVU125
 578 0080 D9E7     		b	.L24
 579              	.L22:
 187:customLooper.h ****                 if(mode_ == Mode::ONETIME_DUB)
 580              		.loc 10 187 13 view .LVU126
 188:customLooper.h ****                     rec_queue_ = true;
 581              		.loc 10 188 17 view .LVU127
 582 0082 1A68     		ldr	r2, [r3]
 583 0084 012A     		cmp	r2, #1
 584 0086 02D0     		beq	.L33
 191:customLooper.h ****                 break;
 585              		.loc 10 191 21 view .LVU128
 191:customLooper.h ****                 break;
 586              		.loc 10 191 28 is_stmt 0 view .LVU129
 587 0088 0322     		movs	r2, #3
 588 008a 5A60     		str	r2, [r3, #4]
 589 008c D3E7     		b	.L24
 590              	.L33:
 189:customLooper.h ****                 else
 591              		.loc 10 189 21 is_stmt 1 view .LVU130
 189:customLooper.h ****                 else
 592              		.loc 10 189 32 is_stmt 0 view .LVU131
 593 008e 83F82420 		strb	r2, [r3, #36]
 195:customLooper.h ****             win_idx_ = 0;
 594              		.loc 10 195 9 is_stmt 1 view .LVU132
 595 0092 D4E7     		b	.L17
 596              	.L19:
 193:customLooper.h ****         }
 597              		.loc 10 193 13 view .LVU133
 193:customLooper.h ****         }
 598              		.loc 10 193 22 view .LVU134
 193:customLooper.h ****         }
 599              		.loc 10 193 29 is_stmt 0 view .LVU135
ARM GAS  /var/folders/hl/qgbwny5j0fd895c2c41bk3tw0000gp/T//cc1L1gWC.s 			page 27


 600 0094 0022     		movs	r2, #0
 601 0096 5A60     		str	r2, [r3, #4]
 193:customLooper.h ****         }
 602              		.loc 10 193 45 is_stmt 1 view .LVU136
 603 0098 CDE7     		b	.L24
 604              	.L35:
 605 009a 00BF     		.align	2
 606              	.L34:
 607 009c 00000000 		.word	.LANCHOR16
 608 00a0 00000000 		.word	.LANCHOR17
 609 00a4 B0010000 		.word	.LANCHOR18+432
 610 00a8 00000000 		.word	.LANCHOR19
 611 00ac 00007A44 		.word	1148846080
 612              	.LBE536:
 613              	.LBE551:
 614              		.cfi_endproc
 615              	.LFE5074:
 617              		.section	.text._Z13AudioCallbackPKPKfPPfj,"ax",%progbits
 618              		.align	1
 619              		.p2align 2,,3
 620              		.global	_Z13AudioCallbackPKPKfPPfj
 621              		.syntax unified
 622              		.thumb
 623              		.thumb_func
 625              	_Z13AudioCallbackPKPKfPPfj:
 626              	.LVL31:
 627              	.LFB5075:
  29:Convolution.cpp **** 
  30:Convolution.cpp **** void AudioCallback(AudioHandle::InputBuffer in, AudioHandle::OutputBuffer out, size_t size)
  31:Convolution.cpp **** {
 628              		.loc 12 31 1 view -0
 629              		.cfi_startproc
 630              		@ args = 0, pretend = 0, frame = 16
 631              		@ frame_needed = 0, uses_anonymous_args = 0
  32:Convolution.cpp **** 	hw.ProcessAllControls();
 632              		.loc 12 32 2 view .LVU138
 633              	.LBB620:
 634              	.LBI620:
  66:../../libDaisy//src/daisy_patch_sm.h **** 
  67:../../libDaisy//src/daisy_patch_sm.h ****         /** Initializes the memories, and core peripherals for the Daisy Patch SM */
  68:../../libDaisy//src/daisy_patch_sm.h ****         void Init();
  69:../../libDaisy//src/daisy_patch_sm.h **** 
  70:../../libDaisy//src/daisy_patch_sm.h ****         /** Starts a non-interleaving audio callback */
  71:../../libDaisy//src/daisy_patch_sm.h ****         void StartAudio(AudioHandle::AudioCallback cb);
  72:../../libDaisy//src/daisy_patch_sm.h **** 
  73:../../libDaisy//src/daisy_patch_sm.h ****         /** Starts an interleaving audio callback */
  74:../../libDaisy//src/daisy_patch_sm.h ****         void StartAudio(AudioHandle::InterleavingAudioCallback cb);
  75:../../libDaisy//src/daisy_patch_sm.h **** 
  76:../../libDaisy//src/daisy_patch_sm.h ****         /** Changes the callback that is executing.
  77:../../libDaisy//src/daisy_patch_sm.h ****          *  This may cause clicks if done while audio is processing.
  78:../../libDaisy//src/daisy_patch_sm.h ****          */
  79:../../libDaisy//src/daisy_patch_sm.h ****         void ChangeAudioCallback(AudioHandle::AudioCallback cb);
  80:../../libDaisy//src/daisy_patch_sm.h **** 
  81:../../libDaisy//src/daisy_patch_sm.h ****         /** Changes the callback that is executing.
  82:../../libDaisy//src/daisy_patch_sm.h ****          *  This may cause clicks if done while audio is processing.
  83:../../libDaisy//src/daisy_patch_sm.h ****          */
  84:../../libDaisy//src/daisy_patch_sm.h ****         void ChangeAudioCallback(AudioHandle::InterleavingAudioCallback cb);
ARM GAS  /var/folders/hl/qgbwny5j0fd895c2c41bk3tw0000gp/T//cc1L1gWC.s 			page 28


  85:../../libDaisy//src/daisy_patch_sm.h **** 
  86:../../libDaisy//src/daisy_patch_sm.h ****         /** Stops the transmission of audio. */
  87:../../libDaisy//src/daisy_patch_sm.h ****         void StopAudio();
  88:../../libDaisy//src/daisy_patch_sm.h **** 
  89:../../libDaisy//src/daisy_patch_sm.h ****         /** Sets the number of samples processed in an audio callback. 
  90:../../libDaisy//src/daisy_patch_sm.h ****          *  This will only take effect on the next invocation of `StartAudio`
  91:../../libDaisy//src/daisy_patch_sm.h ****          */
  92:../../libDaisy//src/daisy_patch_sm.h ****         void SetAudioBlockSize(size_t size);
  93:../../libDaisy//src/daisy_patch_sm.h **** 
  94:../../libDaisy//src/daisy_patch_sm.h ****         /** Sets the samplerate for the audio engine 
  95:../../libDaisy//src/daisy_patch_sm.h ****          *  This will set it to the closest valid samplerate. Options being:
  96:../../libDaisy//src/daisy_patch_sm.h ****          *  8kHz, 16kHz, 32kHz, 48kHz, and 96kHz
  97:../../libDaisy//src/daisy_patch_sm.h ****          */
  98:../../libDaisy//src/daisy_patch_sm.h ****         void SetAudioSampleRate(float sr);
  99:../../libDaisy//src/daisy_patch_sm.h **** 
 100:../../libDaisy//src/daisy_patch_sm.h ****         void SetAudioSampleRate(SaiHandle::Config::SampleRate sample_rate);
 101:../../libDaisy//src/daisy_patch_sm.h **** 
 102:../../libDaisy//src/daisy_patch_sm.h ****         /** Returns the number of samples processed in an audio callback */
 103:../../libDaisy//src/daisy_patch_sm.h ****         size_t AudioBlockSize();
 104:../../libDaisy//src/daisy_patch_sm.h **** 
 105:../../libDaisy//src/daisy_patch_sm.h ****         /** Returns the audio engine's samplerate in Hz */
 106:../../libDaisy//src/daisy_patch_sm.h ****         float AudioSampleRate();
 107:../../libDaisy//src/daisy_patch_sm.h **** 
 108:../../libDaisy//src/daisy_patch_sm.h ****         /** Returns the rate at which the audio callback will be called in Hz */
 109:../../libDaisy//src/daisy_patch_sm.h ****         float AudioCallbackRate();
 110:../../libDaisy//src/daisy_patch_sm.h **** 
 111:../../libDaisy//src/daisy_patch_sm.h ****         /** Starts the Control ADCs 
 112:../../libDaisy//src/daisy_patch_sm.h ****          * 
 113:../../libDaisy//src/daisy_patch_sm.h ****          *  This is started automatically when Init() is called.
 114:../../libDaisy//src/daisy_patch_sm.h ****          */
 115:../../libDaisy//src/daisy_patch_sm.h ****         void StartAdc();
 116:../../libDaisy//src/daisy_patch_sm.h **** 
 117:../../libDaisy//src/daisy_patch_sm.h ****         /** Stops the Control ADCs */
 118:../../libDaisy//src/daisy_patch_sm.h ****         void StopAdc();
 119:../../libDaisy//src/daisy_patch_sm.h **** 
 120:../../libDaisy//src/daisy_patch_sm.h ****         /** Reads and filters all of the analog control inputs */
 121:../../libDaisy//src/daisy_patch_sm.h ****         void ProcessAnalogControls();
 122:../../libDaisy//src/daisy_patch_sm.h **** 
 123:../../libDaisy//src/daisy_patch_sm.h ****         /** Reads and debounces any of the digital control inputs 
 124:../../libDaisy//src/daisy_patch_sm.h ****          *  This does nothing on this board at this time.
 125:../../libDaisy//src/daisy_patch_sm.h ****          */
 126:../../libDaisy//src/daisy_patch_sm.h ****         void ProcessDigitalControls();
 127:../../libDaisy//src/daisy_patch_sm.h **** 
 128:../../libDaisy//src/daisy_patch_sm.h ****         /** Does both of the above */
 129:../../libDaisy//src/daisy_patch_sm.h ****         void ProcessAllControls()
 635              		.loc 2 129 14 view .LVU139
 636              	.LBB621:
 130:../../libDaisy//src/daisy_patch_sm.h ****         {
 131:../../libDaisy//src/daisy_patch_sm.h ****             ProcessAnalogControls();
 637              		.loc 2 131 13 view .LVU140
 638              	.LBE621:
 639              	.LBE620:
  31:Convolution.cpp **** 	hw.ProcessAllControls();
 640              		.loc 12 31 1 is_stmt 0 view .LVU141
 641 0000 2DE9F04F 		push	{r4, r5, r6, r7, r8, r9, r10, fp, lr}
 642              		.cfi_def_cfa_offset 36
 643              		.cfi_offset 4, -36
ARM GAS  /var/folders/hl/qgbwny5j0fd895c2c41bk3tw0000gp/T//cc1L1gWC.s 			page 29


 644              		.cfi_offset 5, -32
 645              		.cfi_offset 6, -28
 646              		.cfi_offset 7, -24
 647              		.cfi_offset 8, -20
 648              		.cfi_offset 9, -16
 649              		.cfi_offset 10, -12
 650              		.cfi_offset 11, -8
 651              		.cfi_offset 14, -4
 652 0004 2DED048B 		vpush.64	{d8, d9}
 653              		.cfi_def_cfa_offset 52
 654              		.cfi_offset 80, -52
 655              		.cfi_offset 81, -48
 656              		.cfi_offset 82, -44
 657              		.cfi_offset 83, -40
 658 0008 87B0     		sub	sp, sp, #28
 659              		.cfi_def_cfa_offset 80
  31:Convolution.cpp **** 	hw.ProcessAllControls();
 660              		.loc 12 31 1 view .LVU142
 661 000a 0746     		mov	r7, r0
 662              	.LBB624:
 663              	.LBB622:
 664              		.loc 2 131 34 view .LVU143
 665 000c D248     		ldr	r0, .L89
 666              	.LVL32:
 667              		.loc 2 131 34 view .LVU144
 668              	.LBE622:
 669              	.LBE624:
  31:Convolution.cpp **** 	hw.ProcessAllControls();
 670              		.loc 12 31 1 view .LVU145
 671 000e 1446     		mov	r4, r2
 672 0010 0392     		str	r2, [sp, #12]
 673 0012 8846     		mov	r8, r1
 674              	.LBB625:
 675              	.LBB623:
 676              		.loc 2 131 34 view .LVU146
 677 0014 FFF7FEFF 		bl	_ZN5daisy8patch_sm12DaisyPatchSM21ProcessAnalogControlsEv
 678              	.LVL33:
 132:../../libDaisy//src/daisy_patch_sm.h ****             ProcessDigitalControls();
 679              		.loc 2 132 13 is_stmt 1 view .LVU147
 680              		.loc 2 132 35 is_stmt 0 view .LVU148
 681 0018 CF48     		ldr	r0, .L89
 682 001a FFF7FEFF 		bl	_ZN5daisy8patch_sm12DaisyPatchSM22ProcessDigitalControlsEv
 683              	.LVL34:
 684              		.loc 2 132 35 view .LVU149
 685              	.LBE623:
 686              	.LBE625:
  33:Convolution.cpp **** 	loopControl();
 687              		.loc 12 33 2 is_stmt 1 view .LVU150
 688              	.LBB626:
 689              	.LBB627:
 690              		.file 13 "../../DaisySP//Source/Utility/dsp.h"
   1:../../DaisySP//Source/Utility/dsp.h **** /** Helpful defines, functions, and other utilities for use in/with daisysp modules.
   2:../../DaisySP//Source/Utility/dsp.h **** */
   3:../../DaisySP//Source/Utility/dsp.h **** #pragma once
   4:../../DaisySP//Source/Utility/dsp.h **** #ifndef DSY_CORE_DSP
   5:../../DaisySP//Source/Utility/dsp.h **** #define DSY_CORE_DSP
   6:../../DaisySP//Source/Utility/dsp.h **** #include <cassert>
ARM GAS  /var/folders/hl/qgbwny5j0fd895c2c41bk3tw0000gp/T//cc1L1gWC.s 			page 30


   7:../../DaisySP//Source/Utility/dsp.h **** #include <cstdint>
   8:../../DaisySP//Source/Utility/dsp.h **** #include <random>
   9:../../DaisySP//Source/Utility/dsp.h **** #include <cmath>
  10:../../DaisySP//Source/Utility/dsp.h **** 
  11:../../DaisySP//Source/Utility/dsp.h **** /** PIs
  12:../../DaisySP//Source/Utility/dsp.h **** */
  13:../../DaisySP//Source/Utility/dsp.h **** #define PI_F 3.1415927410125732421875f
  14:../../DaisySP//Source/Utility/dsp.h **** #define TWOPI_F (2.0f * PI_F)
  15:../../DaisySP//Source/Utility/dsp.h **** #define HALFPI_F (PI_F * 0.5f)
  16:../../DaisySP//Source/Utility/dsp.h **** #define DSY_MIN(in, mn) (in < mn ? in : mn)
  17:../../DaisySP//Source/Utility/dsp.h **** #define DSY_MAX(in, mx) (in > mx ? in : mx)
  18:../../DaisySP//Source/Utility/dsp.h **** #define DSY_CLAMP(in, mn, mx) (DSY_MIN(DSY_MAX(in, mn), mx))
  19:../../DaisySP//Source/Utility/dsp.h **** #define DSY_COUNTOF(_arr) (sizeof(_arr) / sizeof(_arr[0]))
  20:../../DaisySP//Source/Utility/dsp.h **** 
  21:../../DaisySP//Source/Utility/dsp.h **** namespace daisysp
  22:../../DaisySP//Source/Utility/dsp.h **** {
  23:../../DaisySP//Source/Utility/dsp.h **** //Avoids division for random floats. e.g. rand() * kRandFrac
  24:../../DaisySP//Source/Utility/dsp.h **** static constexpr float kRandFrac = 1.f / (float)RAND_MAX;
  25:../../DaisySP//Source/Utility/dsp.h **** 
  26:../../DaisySP//Source/Utility/dsp.h **** //Convert from semitones to other units. e.g. 2 ^ (kOneTwelfth * x)
  27:../../DaisySP//Source/Utility/dsp.h **** static constexpr float kOneTwelfth = 1.f / 12.f;
  28:../../DaisySP//Source/Utility/dsp.h **** 
  29:../../DaisySP//Source/Utility/dsp.h **** /** efficient floating point min/max
  30:../../DaisySP//Source/Utility/dsp.h **** c/o stephen mccaul
  31:../../DaisySP//Source/Utility/dsp.h **** */
  32:../../DaisySP//Source/Utility/dsp.h **** inline float fmax(float a, float b)
  33:../../DaisySP//Source/Utility/dsp.h **** {
  34:../../DaisySP//Source/Utility/dsp.h ****     float r;
  35:../../DaisySP//Source/Utility/dsp.h **** #ifdef __arm__
  36:../../DaisySP//Source/Utility/dsp.h ****     asm("vmaxnm.f32 %[d], %[n], %[m]" : [d] "=t"(r) : [n] "t"(a), [m] "t"(b) :);
  37:../../DaisySP//Source/Utility/dsp.h **** #else
  38:../../DaisySP//Source/Utility/dsp.h ****     r = (a > b) ? a : b;
  39:../../DaisySP//Source/Utility/dsp.h **** #endif // __arm__
  40:../../DaisySP//Source/Utility/dsp.h ****     return r;
  41:../../DaisySP//Source/Utility/dsp.h **** }
  42:../../DaisySP//Source/Utility/dsp.h **** 
  43:../../DaisySP//Source/Utility/dsp.h **** inline float fmin(float a, float b)
  44:../../DaisySP//Source/Utility/dsp.h **** {
  45:../../DaisySP//Source/Utility/dsp.h ****     float r;
  46:../../DaisySP//Source/Utility/dsp.h **** #ifdef __arm__
  47:../../DaisySP//Source/Utility/dsp.h ****     asm("vminnm.f32 %[d], %[n], %[m]" : [d] "=t"(r) : [n] "t"(a), [m] "t"(b) :);
  48:../../DaisySP//Source/Utility/dsp.h **** #else
  49:../../DaisySP//Source/Utility/dsp.h ****     r = (a < b) ? a : b;
  50:../../DaisySP//Source/Utility/dsp.h **** #endif // __arm__
  51:../../DaisySP//Source/Utility/dsp.h ****     return r;
  52:../../DaisySP//Source/Utility/dsp.h **** }
  53:../../DaisySP//Source/Utility/dsp.h **** 
  54:../../DaisySP//Source/Utility/dsp.h **** /** quick fp clamp
  55:../../DaisySP//Source/Utility/dsp.h **** */
  56:../../DaisySP//Source/Utility/dsp.h **** inline float fclamp(float in, float min, float max)
  57:../../DaisySP//Source/Utility/dsp.h **** {
  58:../../DaisySP//Source/Utility/dsp.h ****     return fmin(fmax(in, min), max);
  59:../../DaisySP//Source/Utility/dsp.h **** }
  60:../../DaisySP//Source/Utility/dsp.h **** 
  61:../../DaisySP//Source/Utility/dsp.h **** /** From Musicdsp.org "Fast power and root estimates for 32bit floats)
  62:../../DaisySP//Source/Utility/dsp.h **** Original code by Stefan Stenzel
  63:../../DaisySP//Source/Utility/dsp.h **** These are approximations
ARM GAS  /var/folders/hl/qgbwny5j0fd895c2c41bk3tw0000gp/T//cc1L1gWC.s 			page 31


  64:../../DaisySP//Source/Utility/dsp.h **** */
  65:../../DaisySP//Source/Utility/dsp.h **** inline float fastpower(float f, int n)
  66:../../DaisySP//Source/Utility/dsp.h **** {
  67:../../DaisySP//Source/Utility/dsp.h ****     long *lp, l;
  68:../../DaisySP//Source/Utility/dsp.h ****     lp = (long *)(&f);
  69:../../DaisySP//Source/Utility/dsp.h ****     l  = *lp;
  70:../../DaisySP//Source/Utility/dsp.h ****     l -= 0x3F800000;
  71:../../DaisySP//Source/Utility/dsp.h ****     l <<= (n - 1);
  72:../../DaisySP//Source/Utility/dsp.h ****     l += 0x3F800000;
  73:../../DaisySP//Source/Utility/dsp.h ****     *lp = l;
  74:../../DaisySP//Source/Utility/dsp.h ****     return f;
  75:../../DaisySP//Source/Utility/dsp.h **** }
  76:../../DaisySP//Source/Utility/dsp.h **** 
  77:../../DaisySP//Source/Utility/dsp.h **** inline float fastroot(float f, int n)
  78:../../DaisySP//Source/Utility/dsp.h **** {
  79:../../DaisySP//Source/Utility/dsp.h ****     long *lp, l;
  80:../../DaisySP//Source/Utility/dsp.h ****     lp = (long *)(&f);
  81:../../DaisySP//Source/Utility/dsp.h ****     l  = *lp;
  82:../../DaisySP//Source/Utility/dsp.h ****     l -= 0x3F800000;
  83:../../DaisySP//Source/Utility/dsp.h ****     l >>= (n = 1);
  84:../../DaisySP//Source/Utility/dsp.h ****     l += 0x3F800000;
  85:../../DaisySP//Source/Utility/dsp.h ****     *lp = l;
  86:../../DaisySP//Source/Utility/dsp.h ****     return f;
  87:../../DaisySP//Source/Utility/dsp.h **** }
  88:../../DaisySP//Source/Utility/dsp.h **** 
  89:../../DaisySP//Source/Utility/dsp.h **** /** From http://openaudio.blogspot.com/2017/02/faster-log10-and-pow.html
  90:../../DaisySP//Source/Utility/dsp.h **** No approximation, pow10f(x) gives a 90% speed increase over powf(10.f, x)
  91:../../DaisySP//Source/Utility/dsp.h **** */
  92:../../DaisySP//Source/Utility/dsp.h **** inline float pow10f(float f)
  93:../../DaisySP//Source/Utility/dsp.h **** {
  94:../../DaisySP//Source/Utility/dsp.h ****     return expf(2.302585092994046f * f);
  95:../../DaisySP//Source/Utility/dsp.h **** }
  96:../../DaisySP//Source/Utility/dsp.h **** 
  97:../../DaisySP//Source/Utility/dsp.h **** /* Original code for fastlog2f by Dr. Paul Beckmann from the ARM community forum, adapted from the 
  98:../../DaisySP//Source/Utility/dsp.h **** About 25% performance increase over std::log10f
  99:../../DaisySP//Source/Utility/dsp.h **** */
 100:../../DaisySP//Source/Utility/dsp.h **** inline float fastlog2f(float f)
 101:../../DaisySP//Source/Utility/dsp.h **** {
 102:../../DaisySP//Source/Utility/dsp.h ****     float frac;
 103:../../DaisySP//Source/Utility/dsp.h ****     int   exp;
 104:../../DaisySP//Source/Utility/dsp.h ****     frac = frexpf(fabsf(f), &exp);
 105:../../DaisySP//Source/Utility/dsp.h ****     f    = 1.23149591368684f;
 106:../../DaisySP//Source/Utility/dsp.h ****     f *= frac;
 107:../../DaisySP//Source/Utility/dsp.h ****     f += -4.11852516267426f;
 108:../../DaisySP//Source/Utility/dsp.h ****     f *= frac;
 109:../../DaisySP//Source/Utility/dsp.h ****     f += 6.02197014179219f;
 110:../../DaisySP//Source/Utility/dsp.h ****     f *= frac;
 111:../../DaisySP//Source/Utility/dsp.h ****     f += -3.13396450166353f;
 112:../../DaisySP//Source/Utility/dsp.h ****     f += exp;
 113:../../DaisySP//Source/Utility/dsp.h ****     return (f);
 114:../../DaisySP//Source/Utility/dsp.h **** }
 115:../../DaisySP//Source/Utility/dsp.h **** 
 116:../../DaisySP//Source/Utility/dsp.h **** inline float fastlog10f(float f)
 117:../../DaisySP//Source/Utility/dsp.h **** {
 118:../../DaisySP//Source/Utility/dsp.h ****     return fastlog2f(f) * 0.3010299956639812f;
 119:../../DaisySP//Source/Utility/dsp.h **** }
 120:../../DaisySP//Source/Utility/dsp.h **** 
ARM GAS  /var/folders/hl/qgbwny5j0fd895c2c41bk3tw0000gp/T//cc1L1gWC.s 			page 32


 121:../../DaisySP//Source/Utility/dsp.h **** /** Midi to frequency helper
 122:../../DaisySP//Source/Utility/dsp.h **** */
 123:../../DaisySP//Source/Utility/dsp.h **** inline float mtof(float m)
 124:../../DaisySP//Source/Utility/dsp.h **** {
 125:../../DaisySP//Source/Utility/dsp.h ****     return powf(2, (m - 69.0f) / 12.0f) * 440.0f;
 126:../../DaisySP//Source/Utility/dsp.h **** }
 127:../../DaisySP//Source/Utility/dsp.h **** 
 128:../../DaisySP//Source/Utility/dsp.h **** 
 129:../../DaisySP//Source/Utility/dsp.h **** /** one pole lpf
 130:../../DaisySP//Source/Utility/dsp.h **** out is passed by reference, and must be retained between
 131:../../DaisySP//Source/Utility/dsp.h **** calls to properly filter the signal
 132:../../DaisySP//Source/Utility/dsp.h **** coeff can be calculated:
 133:../../DaisySP//Source/Utility/dsp.h **** coeff = 1.0 / (time * sample_rate) ; where time is in seconds
 134:../../DaisySP//Source/Utility/dsp.h **** */
 135:../../DaisySP//Source/Utility/dsp.h **** inline void fonepole(float &out, float in, float coeff)
 136:../../DaisySP//Source/Utility/dsp.h **** {
 137:../../DaisySP//Source/Utility/dsp.h ****     out += coeff * (in - out);
 138:../../DaisySP//Source/Utility/dsp.h **** }
 139:../../DaisySP//Source/Utility/dsp.h **** 
 140:../../DaisySP//Source/Utility/dsp.h **** /** Curves to use with the fmap function */
 141:../../DaisySP//Source/Utility/dsp.h **** enum class Mapping
 142:../../DaisySP//Source/Utility/dsp.h **** {
 143:../../DaisySP//Source/Utility/dsp.h ****     LINEAR,
 144:../../DaisySP//Source/Utility/dsp.h ****     EXP,
 145:../../DaisySP//Source/Utility/dsp.h ****     LOG,
 146:../../DaisySP//Source/Utility/dsp.h **** };
 147:../../DaisySP//Source/Utility/dsp.h **** 
 148:../../DaisySP//Source/Utility/dsp.h **** /** Maps a float between a specified range, using a specified curve. 
 149:../../DaisySP//Source/Utility/dsp.h ****  * 
 150:../../DaisySP//Source/Utility/dsp.h ****  *  \param in a value between 0 to 1 that will be mapped to the new range.
 151:../../DaisySP//Source/Utility/dsp.h ****  *  \param min the new minimum value
 152:../../DaisySP//Source/Utility/dsp.h ****  *  \param max the new maxmimum value
 153:../../DaisySP//Source/Utility/dsp.h ****  *  \param curve a Mapping Value to adjust the response curve of the transformation
 154:../../DaisySP//Source/Utility/dsp.h ****  *               defaults to Linear. @see Mapping
 155:../../DaisySP//Source/Utility/dsp.h ****  * 
 156:../../DaisySP//Source/Utility/dsp.h ****  *  When using the log curve min and max, must be greater than zero.
 157:../../DaisySP//Source/Utility/dsp.h ****  * 
 158:../../DaisySP//Source/Utility/dsp.h ****  *  \retval returns the transformed float within the new range.
 159:../../DaisySP//Source/Utility/dsp.h **** */
 160:../../DaisySP//Source/Utility/dsp.h **** inline float
 161:../../DaisySP//Source/Utility/dsp.h **** fmap(float in, float min, float max, Mapping curve = Mapping::LINEAR)
 162:../../DaisySP//Source/Utility/dsp.h **** {
 163:../../DaisySP//Source/Utility/dsp.h ****     switch(curve)
 164:../../DaisySP//Source/Utility/dsp.h ****     {
 165:../../DaisySP//Source/Utility/dsp.h ****         case Mapping::EXP:
 166:../../DaisySP//Source/Utility/dsp.h ****             return fclamp(min + (in * in) * (max - min), min, max);
 167:../../DaisySP//Source/Utility/dsp.h ****         case Mapping::LOG:
 168:../../DaisySP//Source/Utility/dsp.h ****         {
 169:../../DaisySP//Source/Utility/dsp.h ****             const float a = 1.f / log10f(max / min);
 170:../../DaisySP//Source/Utility/dsp.h ****             return fclamp(min * powf(10, in / a), min, max);
 171:../../DaisySP//Source/Utility/dsp.h ****         }
 172:../../DaisySP//Source/Utility/dsp.h ****         case Mapping::LINEAR:
 173:../../DaisySP//Source/Utility/dsp.h ****         default: return fclamp(min + in * (max - min), min, max);
 691              		.loc 13 173 31 is_stmt 0 view .LVU151
 692 001e 9FEDCF8A 		vldr.32	s16, .L89+4
 693              	.LBE627:
 694              	.LBE626:
ARM GAS  /var/folders/hl/qgbwny5j0fd895c2c41bk3tw0000gp/T//cc1L1gWC.s 			page 33


 695              		.loc 12 33 13 view .LVU152
 696 0022 FFF7FEFF 		bl	_Z11loopControlv
 697              	.LVL35:
  34:Convolution.cpp **** 	float in_level, loop_level, rev_feedback, rev_lpf, speed_level;
 698              		.loc 12 34 2 is_stmt 1 view .LVU153
  35:Convolution.cpp **** 
  36:Convolution.cpp **** 	in_level = hw.GetAdcValue(CV_4);
 699              		.loc 12 36 2 view .LVU154
 700              		.loc 12 36 27 is_stmt 0 view .LVU155
 701 0026 0321     		movs	r1, #3
 702 0028 CB48     		ldr	r0, .L89
 703 002a FFF7FEFF 		bl	_ZN5daisy8patch_sm12DaisyPatchSM11GetAdcValueEi
 704              	.LVL36:
  37:Convolution.cpp **** 	loop_level = hw.GetAdcValue(ADC_12);
 705              		.loc 12 37 29 view .LVU156
 706 002e 0B21     		movs	r1, #11
 707 0030 C948     		ldr	r0, .L89
  36:Convolution.cpp **** 	loop_level = hw.GetAdcValue(ADC_12);
 708              		.loc 12 36 27 view .LVU157
 709 0032 B0EE409A 		vmov.f32	s18, s0
 710              	.LVL37:
 711              		.loc 12 37 2 is_stmt 1 view .LVU158
 712              		.loc 12 37 29 is_stmt 0 view .LVU159
 713 0036 FFF7FEFF 		bl	_ZN5daisy8patch_sm12DaisyPatchSM11GetAdcValueEi
 714              	.LVL38:
  38:Convolution.cpp **** 
  39:Convolution.cpp **** 	rev_feedback = fmap(hw.GetAdcValue(CV_3), 0.3f, 0.99f);
 715              		.loc 12 39 21 view .LVU160
 716 003a 0221     		movs	r1, #2
 717 003c C648     		ldr	r0, .L89
  37:Convolution.cpp **** 
 718              		.loc 12 37 29 view .LVU161
 719 003e F0EE409A 		vmov.f32	s19, s0
 720              	.LVL39:
 721              		.loc 12 39 2 is_stmt 1 view .LVU162
 722              		.loc 12 39 21 is_stmt 0 view .LVU163
 723 0042 FFF7FEFF 		bl	_ZN5daisy8patch_sm12DaisyPatchSM11GetAdcValueEi
 724              	.LVL40:
 725              	.LBB640:
 726              	.LBI626:
 161:../../DaisySP//Source/Utility/dsp.h **** {
 727              		.loc 13 161 1 is_stmt 1 view .LVU164
 728              	.LBE640:
 163:../../DaisySP//Source/Utility/dsp.h ****     {
 729              		.loc 13 163 5 view .LVU165
 730              	.LBB641:
 731              	.LBB637:
 172:../../DaisySP//Source/Utility/dsp.h ****         default: return fclamp(min + in * (max - min), min, max);
 732              		.loc 13 172 9 view .LVU166
 733              		.loc 13 173 9 view .LVU167
 734              		.loc 13 173 18 view .LVU168
 735              		.loc 13 173 31 is_stmt 0 view .LVU169
 736 0046 F0EE487A 		vmov.f32	s15, s16
 737 004a DFEDC56A 		vldr.32	s13, .L89+8
 738              	.LBE637:
 739              	.LBE641:
  40:Convolution.cpp **** 	rev_lpf = fmap(hw.GetAdcValue(ADC_11), 1000.f, 19000.f, Mapping::LOG);
ARM GAS  /var/folders/hl/qgbwny5j0fd895c2c41bk3tw0000gp/T//cc1L1gWC.s 			page 34


 740              		.loc 12 40 16 view .LVU170
 741 004e 0A21     		movs	r1, #10
 742 0050 C148     		ldr	r0, .L89
 743              	.LBB642:
 744              	.LBB638:
 745              	.LBB628:
 746              	.LBB629:
 747              	.LBB630:
  47:../../DaisySP//Source/Utility/dsp.h **** #else
 748              		.loc 13 47 5 view .LVU171
 749 0052 9FEDC47A 		vldr.32	s14, .L89+12
 750              	.LBE630:
 751              	.LBE629:
 752              	.LBE628:
 753              		.loc 13 173 31 view .LVU172
 754 0056 E0EE267A 		vfma.f32	s15, s0, s13
 755              	.LVL41:
 756              	.LBB635:
 757              	.LBI628:
  56:../../DaisySP//Source/Utility/dsp.h **** {
 758              		.loc 13 56 14 is_stmt 1 view .LVU173
 759              	.LBE635:
 760              	.LBE638:
 761              	.LBE642:
  58:../../DaisySP//Source/Utility/dsp.h **** }
 762              		.loc 13 58 5 view .LVU174
 763              	.LBB643:
 764              	.LBB639:
 765              	.LBB636:
 766              	.LBB632:
 767              	.LBI632:
  32:../../DaisySP//Source/Utility/dsp.h **** {
 768              		.loc 13 32 14 view .LVU175
 769              	.LBB633:
  34:../../DaisySP//Source/Utility/dsp.h **** #ifdef __arm__
 770              		.loc 13 34 5 view .LVU176
  36:../../DaisySP//Source/Utility/dsp.h **** #else
 771              		.loc 13 36 5 view .LVU177
 772              		.syntax unified
 773              	@ 36 "../../DaisySP//Source/Utility/dsp.h" 1
 774 005a C7FE887A 		vmaxnm.f32 s15, s15, s16
 775              	@ 0 "" 2
 776              	.LVL42:
  40:../../DaisySP//Source/Utility/dsp.h **** }
 777              		.loc 13 40 5 view .LVU178
  40:../../DaisySP//Source/Utility/dsp.h **** }
 778              		.loc 13 40 5 is_stmt 0 view .LVU179
 779              		.thumb
 780              		.syntax unified
 781              	.LBE633:
 782              	.LBE632:
 783              	.LBB634:
 784              	.LBI629:
  43:../../DaisySP//Source/Utility/dsp.h **** {
 785              		.loc 13 43 14 is_stmt 1 view .LVU180
 786              	.LBB631:
  45:../../DaisySP//Source/Utility/dsp.h **** #ifdef __arm__
ARM GAS  /var/folders/hl/qgbwny5j0fd895c2c41bk3tw0000gp/T//cc1L1gWC.s 			page 35


 787              		.loc 13 45 5 view .LVU181
  47:../../DaisySP//Source/Utility/dsp.h **** #else
 788              		.loc 13 47 5 view .LVU182
 789              		.syntax unified
 790              	@ 47 "../../DaisySP//Source/Utility/dsp.h" 1
 791 005e 87FEC78A 		vminnm.f32 s16, s15, s14
 792              	@ 0 "" 2
 793              	.LVL43:
  51:../../DaisySP//Source/Utility/dsp.h **** }
 794              		.loc 13 51 5 view .LVU183
  51:../../DaisySP//Source/Utility/dsp.h **** }
 795              		.loc 13 51 5 is_stmt 0 view .LVU184
 796              		.thumb
 797              		.syntax unified
 798              	.LBE631:
 799              	.LBE634:
 800              	.LBE636:
 801              	.LBE639:
 802              	.LBE643:
 803              		.loc 12 40 2 is_stmt 1 view .LVU185
 804              		.loc 12 40 16 is_stmt 0 view .LVU186
 805 0062 FFF7FEFF 		bl	_ZN5daisy8patch_sm12DaisyPatchSM11GetAdcValueEi
 806              	.LVL44:
 807 0066 F0EE400A 		vmov.f32	s1, s0
 808              	.LVL45:
 809              	.LBB644:
 810              	.LBI644:
 161:../../DaisySP//Source/Utility/dsp.h **** {
 811              		.loc 13 161 1 is_stmt 1 view .LVU187
 812              	.LBE644:
 163:../../DaisySP//Source/Utility/dsp.h ****     {
 813              		.loc 13 163 5 view .LVU188
 814              	.LBB666:
 815              	.LBB645:
 816              	.LBI645:
 161:../../DaisySP//Source/Utility/dsp.h **** {
 817              		.loc 13 161 1 view .LVU189
 161:../../DaisySP//Source/Utility/dsp.h **** {
 818              		.loc 13 161 1 is_stmt 0 view .LVU190
 819              	.LBE645:
 820              	.LBE666:
 167:../../DaisySP//Source/Utility/dsp.h ****         {
 821              		.loc 13 167 9 is_stmt 1 view .LVU191
 168:../../DaisySP//Source/Utility/dsp.h ****             const float a = 1.f / log10f(max / min);
 822              		.loc 13 168 9 view .LVU192
 823              	.LBB667:
 824              	.LBB662:
 825              	.LBB646:
 169:../../DaisySP//Source/Utility/dsp.h ****             return fclamp(min * powf(10, in / a), min, max);
 826              		.loc 13 169 13 view .LVU193
 170:../../DaisySP//Source/Utility/dsp.h ****         }
 827              		.loc 13 170 13 view .LVU194
 170:../../DaisySP//Source/Utility/dsp.h ****         }
 828              		.loc 13 170 37 is_stmt 0 view .LVU195
 829 006a DFEDBF7A 		vldr.32	s15, .L89+16
 830 006e B2EE040A 		vmov.f32	s0, #1.0e+1
 831              	.LVL46:
ARM GAS  /var/folders/hl/qgbwny5j0fd895c2c41bk3tw0000gp/T//cc1L1gWC.s 			page 36


 170:../../DaisySP//Source/Utility/dsp.h ****         }
 832              		.loc 13 170 37 view .LVU196
 833 0072 C0EEA70A 		vdiv.f32	s1, s1, s15
 834              	.LVL47:
 170:../../DaisySP//Source/Utility/dsp.h ****         }
 835              		.loc 13 170 37 view .LVU197
 836 0076 FFF7FEFF 		bl	powf
 837              	.LVL48:
 838              	.LBB647:
 839              	.LBI647:
  56:../../DaisySP//Source/Utility/dsp.h **** {
 840              		.loc 13 56 14 is_stmt 1 view .LVU198
 841              	.LBE647:
 842              	.LBE646:
 843              	.LBE662:
 844              	.LBE667:
  58:../../DaisySP//Source/Utility/dsp.h **** }
 845              		.loc 13 58 5 view .LVU199
 846              	.LBB668:
 847              	.LBB663:
 848              	.LBB659:
 849              	.LBB656:
 850              	.LBB648:
 851              	.LBI648:
  32:../../DaisySP//Source/Utility/dsp.h **** {
 852              		.loc 13 32 14 view .LVU200
 853              	.LBB649:
  34:../../DaisySP//Source/Utility/dsp.h **** #ifdef __arm__
 854              		.loc 13 34 5 view .LVU201
  36:../../DaisySP//Source/Utility/dsp.h **** #else
 855              		.loc 13 36 5 view .LVU202
 856              	.LBE649:
 857              	.LBE648:
 858              	.LBE656:
 170:../../DaisySP//Source/Utility/dsp.h ****         }
 859              		.loc 13 170 26 is_stmt 0 view .LVU203
 860 007a DFEDBC7A 		vldr.32	s15, .L89+20
 861              	.LBE659:
 862              	.LBE663:
 863              	.LBE668:
 864              	.LBB669:
 865              	.LBB670:
  42:../../DaisySP//Source/Effects/reverbsc.h ****     /** Initializes the reverb module, and sets the sample_rate at which the Process function will 
  43:../../DaisySP//Source/Effects/reverbsc.h ****         Returns 0 if all good, or 1 if it runs out of delay times exceed maximum allowed.
  44:../../DaisySP//Source/Effects/reverbsc.h ****     */
  45:../../DaisySP//Source/Effects/reverbsc.h ****     int Init(float sample_rate);
  46:../../DaisySP//Source/Effects/reverbsc.h **** 
  47:../../DaisySP//Source/Effects/reverbsc.h ****     /** Process the input through the reverb, and updates values of out1, and out2 with the new pro
  48:../../DaisySP//Source/Effects/reverbsc.h ****     */
  49:../../DaisySP//Source/Effects/reverbsc.h ****     int Process(const float &in1, const float &in2, float *out1, float *out2);
  50:../../DaisySP//Source/Effects/reverbsc.h **** 
  51:../../DaisySP//Source/Effects/reverbsc.h ****     /** controls the reverb time. reverb tail becomes infinite when set to 1.0
  52:../../DaisySP//Source/Effects/reverbsc.h ****         \param fb - sets reverb time. range: 0.0 to 1.0
  53:../../DaisySP//Source/Effects/reverbsc.h ****     */
  54:../../DaisySP//Source/Effects/reverbsc.h ****     inline void SetFeedback(const float &fb) { feedback_ = fb; }
 866              		.loc 9 54 58 view .LVU204
 867 007e BC4B     		ldr	r3, .L89+24
ARM GAS  /var/folders/hl/qgbwny5j0fd895c2c41bk3tw0000gp/T//cc1L1gWC.s 			page 37


 868              	.LBE670:
 869              	.LBE669:
  41:Convolution.cpp **** 
  42:Convolution.cpp **** 	rev.SetFeedback(rev_feedback);
  43:Convolution.cpp **** 	rev.SetLpFreq(rev_lpf);
  44:Convolution.cpp **** 
  45:Convolution.cpp **** 	speed_level = fmap(hw.GetAdcValue(CV_1), 0.0f, 2.0f);
 870              		.loc 12 45 20 view .LVU205
 871 0080 0021     		movs	r1, #0
 872 0082 B548     		ldr	r0, .L89
 873              	.LBB673:
 874              	.LBB664:
 875              	.LBB660:
 876              	.LBB657:
 877              	.LBB651:
 878              	.LBB652:
  47:../../DaisySP//Source/Utility/dsp.h **** #else
 879              		.loc 13 47 5 view .LVU206
 880 0084 9FEDBB7A 		vldr.32	s14, .L89+28
 881              	.LBE652:
 882              	.LBE651:
 883              	.LBE657:
 170:../../DaisySP//Source/Utility/dsp.h ****         }
 884              		.loc 13 170 26 view .LVU207
 885 0088 20EE270A 		vmul.f32	s0, s0, s15
 886              	.LVL49:
 170:../../DaisySP//Source/Utility/dsp.h ****         }
 887              		.loc 13 170 26 view .LVU208
 888              	.LBE660:
 889              	.LBE664:
 890              	.LBE673:
 891              	.LBB674:
 892              	.LBB671:
 893              		.loc 9 54 58 view .LVU209
 894 008c 83ED008A 		vstr.32	s16, [r3]
 895              	.LBE671:
 896              	.LBE674:
 897              	.LBB675:
 898              	.LBB665:
 899              	.LBB661:
 900              	.LBB658:
 901              	.LBB654:
 902              	.LBB650:
  36:../../DaisySP//Source/Utility/dsp.h **** #else
 903              		.loc 13 36 5 view .LVU210
 904              		.syntax unified
 905              	@ 36 "../../DaisySP//Source/Utility/dsp.h" 1
 906 0090 C0FE277A 		vmaxnm.f32 s15, s0, s15
 907              	@ 0 "" 2
 908              	.LVL50:
  40:../../DaisySP//Source/Utility/dsp.h **** }
 909              		.loc 13 40 5 is_stmt 1 view .LVU211
  40:../../DaisySP//Source/Utility/dsp.h **** }
 910              		.loc 13 40 5 is_stmt 0 view .LVU212
 911              		.thumb
 912              		.syntax unified
 913              	.LBE650:
ARM GAS  /var/folders/hl/qgbwny5j0fd895c2c41bk3tw0000gp/T//cc1L1gWC.s 			page 38


 914              	.LBE654:
 915              	.LBB655:
 916              	.LBI651:
  43:../../DaisySP//Source/Utility/dsp.h **** {
 917              		.loc 13 43 14 is_stmt 1 view .LVU213
 918              	.LBB653:
  45:../../DaisySP//Source/Utility/dsp.h **** #ifdef __arm__
 919              		.loc 13 45 5 view .LVU214
  47:../../DaisySP//Source/Utility/dsp.h **** #else
 920              		.loc 13 47 5 view .LVU215
 921              		.syntax unified
 922              	@ 47 "../../DaisySP//Source/Utility/dsp.h" 1
 923 0094 C7FEC77A 		vminnm.f32 s15, s15, s14
 924              	@ 0 "" 2
 925              	.LVL51:
  51:../../DaisySP//Source/Utility/dsp.h **** }
 926              		.loc 13 51 5 view .LVU216
  51:../../DaisySP//Source/Utility/dsp.h **** }
 927              		.loc 13 51 5 is_stmt 0 view .LVU217
 928              		.thumb
 929              		.syntax unified
 930              	.LBE653:
 931              	.LBE655:
 932              	.LBE658:
 933              	.LBE661:
 934              	.LBE665:
 935              	.LBE675:
  42:Convolution.cpp **** 	rev.SetLpFreq(rev_lpf);
 936              		.loc 12 42 2 is_stmt 1 view .LVU218
 937              	.LBB676:
 938              	.LBI669:
 939              		.loc 9 54 17 view .LVU219
 940              	.LBB672:
 941              		.loc 9 54 48 view .LVU220
 942              		.loc 9 54 48 is_stmt 0 view .LVU221
 943              	.LBE672:
 944              	.LBE676:
  43:Convolution.cpp **** 
 945              		.loc 12 43 2 is_stmt 1 view .LVU222
 946              	.LBB677:
 947              	.LBI677:
  55:../../DaisySP//Source/Effects/reverbsc.h ****     /** controls the internal dampening filter's cutoff frequency.
  56:../../DaisySP//Source/Effects/reverbsc.h ****         \param freq - low pass frequency. range: 0.0 to sample_rate / 2
  57:../../DaisySP//Source/Effects/reverbsc.h ****     */
  58:../../DaisySP//Source/Effects/reverbsc.h ****     inline void SetLpFreq(const float &freq) { lpfreq_ = freq; }
 948              		.loc 9 58 17 view .LVU223
 949              	.LBB678:
 950              		.loc 9 58 48 view .LVU224
 951              		.loc 9 58 56 is_stmt 0 view .LVU225
 952 0098 C3ED017A 		vstr.32	s15, [r3, #4]
 953              	.LVL52:
 954              		.loc 9 58 56 view .LVU226
 955              	.LBE678:
 956              	.LBE677:
 957              		.loc 12 45 2 is_stmt 1 view .LVU227
 958              		.loc 12 45 20 is_stmt 0 view .LVU228
 959 009c FFF7FEFF 		bl	_ZN5daisy8patch_sm12DaisyPatchSM11GetAdcValueEi
ARM GAS  /var/folders/hl/qgbwny5j0fd895c2c41bk3tw0000gp/T//cc1L1gWC.s 			page 39


 960              	.LVL53:
 961              	.LBB679:
 962              	.LBI679:
 161:../../DaisySP//Source/Utility/dsp.h **** {
 963              		.loc 13 161 1 is_stmt 1 view .LVU229
 964              	.LBE679:
 163:../../DaisySP//Source/Utility/dsp.h ****     {
 965              		.loc 13 163 5 view .LVU230
 966              	.LBB688:
 967              	.LBB680:
 172:../../DaisySP//Source/Utility/dsp.h ****         default: return fclamp(min + in * (max - min), min, max);
 968              		.loc 13 172 9 view .LVU231
 969              		.loc 13 173 9 view .LVU232
 970              		.loc 13 173 18 view .LVU233
 971              	.LBB681:
 972              	.LBI681:
  56:../../DaisySP//Source/Utility/dsp.h **** {
 973              		.loc 13 56 14 view .LVU234
 974              	.LBE681:
 975              	.LBE680:
 976              	.LBE688:
  58:../../DaisySP//Source/Utility/dsp.h **** }
 977              		.loc 13 58 5 view .LVU235
 978              	.LBB689:
 979              	.LBB687:
 980              	.LBB686:
 981              	.LBB682:
 982              	.LBI682:
  32:../../DaisySP//Source/Utility/dsp.h **** {
 983              		.loc 13 32 14 view .LVU236
 984              	.LBB683:
  34:../../DaisySP//Source/Utility/dsp.h **** #ifdef __arm__
 985              		.loc 13 34 5 view .LVU237
  36:../../DaisySP//Source/Utility/dsp.h **** #else
 986              		.loc 13 36 5 view .LVU238
  40:../../DaisySP//Source/Utility/dsp.h **** }
 987              		.loc 13 40 5 view .LVU239
  40:../../DaisySP//Source/Utility/dsp.h **** }
 988              		.loc 13 40 5 is_stmt 0 view .LVU240
 989              	.LBE683:
 990              	.LBE682:
 991              	.LBB684:
 992              	.LBI684:
  43:../../DaisySP//Source/Utility/dsp.h **** {
 993              		.loc 13 43 14 is_stmt 1 view .LVU241
 994              	.LBB685:
  45:../../DaisySP//Source/Utility/dsp.h **** #ifdef __arm__
 995              		.loc 13 45 5 view .LVU242
  47:../../DaisySP//Source/Utility/dsp.h **** #else
 996              		.loc 13 47 5 view .LVU243
  51:../../DaisySP//Source/Utility/dsp.h **** }
 997              		.loc 13 51 5 view .LVU244
  51:../../DaisySP//Source/Utility/dsp.h **** }
 998              		.loc 13 51 5 is_stmt 0 view .LVU245
 999              	.LBE685:
 1000              	.LBE684:
 1001              	.LBE686:
ARM GAS  /var/folders/hl/qgbwny5j0fd895c2c41bk3tw0000gp/T//cc1L1gWC.s 			page 40


 1002              	.LBE687:
 1003              	.LBE689:
  46:Convolution.cpp **** 	loop.setSpeed(speed_level);
 1004              		.loc 12 46 2 is_stmt 1 view .LVU246
 197:customLooper.h ****     }
 198:customLooper.h **** 
 199:customLooper.h ****     /** Returns true if the looper is currently being written to. */
 200:customLooper.h ****     inline const bool Recording() const
 201:customLooper.h ****     {
 202:customLooper.h ****         return state_ == State::REC_DUB || state_ == State::REC_FIRST;
 203:customLooper.h ****     }
 204:customLooper.h **** 
 205:customLooper.h ****     inline const bool RecordingQueued() const { return rec_queue_; }
 206:customLooper.h **** 
 207:customLooper.h ****     /** Increments the Mode by one step useful for buttons, etc. that need to step through the Loop
 208:customLooper.h ****     inline void IncrementMode()
 209:customLooper.h ****     {
 210:customLooper.h ****         int m = static_cast<int>(mode_);
 211:customLooper.h ****         m     = m + 1;
 212:customLooper.h ****         if(m > kNumModes - 1)
 213:customLooper.h ****             m = 0;
 214:customLooper.h ****         mode_ = static_cast<Mode>(m);
 215:customLooper.h ****     }
 216:customLooper.h **** 
 217:customLooper.h ****     /** Sets the recording mode to the specified Mode. */
 218:customLooper.h ****     inline void SetMode(Mode mode) { mode_ = mode; }
 219:customLooper.h **** 
 220:customLooper.h ****     /** Returns the specific recording mode that is currently set. */
 221:customLooper.h ****     inline const Mode GetMode() const { return mode_; }
 222:customLooper.h **** 
 223:customLooper.h ****     inline void ToggleReverse() { reverse_ = !reverse_; }
 224:customLooper.h ****     inline void SetReverse(bool state) { reverse_ = state; }
 225:customLooper.h ****     inline bool GetReverse() const { return reverse_; }
 226:customLooper.h **** 
 227:customLooper.h ****     inline void ToggleHalfSpeed() { half_speed_ = !half_speed_; }
 228:customLooper.h ****     inline void SetHalfSpeed(bool state) { half_speed_ = state; }
 229:customLooper.h ****     inline bool GetHalfSpeed() const { return half_speed_; }
 230:customLooper.h **** 
 231:customLooper.h ****     inline bool IsNearBeginning() { return near_beginning_; }
 232:customLooper.h ****     
 233:customLooper.h ****     /** return pair of booleans indicating if loop position is at the beginning or halfway point */
 234:customLooper.h ****     std::pair<bool, bool> gateLoop() {
 235:customLooper.h ****         bool is_start = false;
 236:customLooper.h ****         bool is_halfway = false;
 237:customLooper.h ****     
 238:customLooper.h ****         if(state_ != State::EMPTY && pos_ == 0){
 239:customLooper.h ****             is_start = true;
 240:customLooper.h ****         } else {
 241:customLooper.h ****             is_start = false;
 242:customLooper.h ****         }
 243:customLooper.h ****         if(state_ != State::EMPTY && pos_ == recsize_ / 2){
 244:customLooper.h ****             is_halfway = true;
 245:customLooper.h ****         } else {
 246:customLooper.h ****             is_halfway = false;
 247:customLooper.h ****         }
 248:customLooper.h ****         
 249:customLooper.h ****         return std::make_pair(is_start, is_halfway);
ARM GAS  /var/folders/hl/qgbwny5j0fd895c2c41bk3tw0000gp/T//cc1L1gWC.s 			page 41


 250:customLooper.h ****     }
 251:customLooper.h **** 
 252:customLooper.h ****     /** to do: test playback speed adjustment 
 253:customLooper.h ****      * \@param speed_factor works 0.0 to ???, where 1.0 is normal speed, anything lower is slower, 
 254:customLooper.h ****     */
 255:customLooper.h ****     float setSpeed(float speed_factor)
 256:customLooper.h ****     {
 257:customLooper.h ****         float inc = 1.f;
 1005              		.loc 10 257 9 view .LVU247
 258:customLooper.h ****         if(half_speed_)
 1006              		.loc 10 258 9 view .LVU248
 259:customLooper.h ****             inc *= 0.5f;
 260:customLooper.h ****         inc *= speed_factor;
 1007              		.loc 10 260 9 view .LVU249
 261:customLooper.h ****         return reverse_ ? -inc : inc;
 1008              		.loc 10 261 9 view .LVU250
 1009              	.LBB690:
  47:Convolution.cpp **** 	
  48:Convolution.cpp **** 	for (size_t i = 0; i < size; i++)
 1010              		.loc 12 48 23 view .LVU251
 1011 00a0 002C     		cmp	r4, #0
 1012 00a2 75D0     		beq	.L36
 1013 00a4 0025     		movs	r5, #0
 1014 00a6 B44C     		ldr	r4, .L89+32
 1015              	.LVL54:
 1016              		.loc 12 48 23 is_stmt 0 view .LVU252
 1017 00a8 05AE     		add	r6, sp, #20
 1018              	.LVL55:
 1019              	.L37:
 1020              	.LBB691:
  49:Convolution.cpp **** 	{
  50:Convolution.cpp **** 		float inputs = (IN_L[i] + IN_R[i]) * in_level;
 1021              		.loc 12 50 3 is_stmt 1 discriminator 2 view .LVU253
 1022              	.LBB692:
 1023              	.LBB693:
  71:customLooper.h ****                   ? 1.f
 1024              		.loc 10 71 15 is_stmt 0 discriminator 2 view .LVU254
 1025 00aa D4F80490 		ldr	r9, [r4, #4]
 1026 00ae 4FEA850A 		lsl	r10, r5, #2
 1027              	.LBE693:
 1028              	.LBE692:
 1029              		.loc 12 50 35 discriminator 2 view .LVU255
 1030 00b2 D7E90023 		ldrd	r2, r3, [r7]
 1031              	.LBB758:
 1032              	.LBB754:
  72:customLooper.h ****                   : GetIncrementSize();
 1033              		.loc 10 72 19 discriminator 2 view .LVU256
 1034 00b6 B9F1010F 		cmp	r9, #1
 1035              	.LBE754:
 1036              	.LBE758:
 1037              		.loc 12 50 25 discriminator 2 view .LVU257
 1038 00ba 02EB8502 		add	r2, r2, r5, lsl #2
 1039              		.loc 12 50 35 discriminator 2 view .LVU258
 1040 00be 03EB8503 		add	r3, r3, r5, lsl #2
 1041              		.loc 12 50 27 discriminator 2 view .LVU259
 1042 00c2 92ED008A 		vldr.32	s16, [r2]
 1043 00c6 D3ED007A 		vldr.32	s15, [r3]
ARM GAS  /var/folders/hl/qgbwny5j0fd895c2c41bk3tw0000gp/T//cc1L1gWC.s 			page 42


 1044 00ca 38EE278A 		vadd.f32	s16, s16, s15
 1045              		.loc 12 50 9 discriminator 2 view .LVU260
 1046 00ce 28EE098A 		vmul.f32	s16, s16, s18
 1047              	.LVL56:
  51:Convolution.cpp **** 		float sig = loop.Process(inputs) * loop_level + inputs;
 1048              		.loc 12 51 3 is_stmt 1 discriminator 2 view .LVU261
 1049              	.LBB759:
 1050              	.LBI692:
  65:customLooper.h ****     {
 1051              		.loc 10 65 11 discriminator 2 view .LVU262
 1052              	.LBB755:
  67:customLooper.h ****         float inc;
 1053              		.loc 10 67 9 discriminator 2 view .LVU263
  68:customLooper.h ****         bool  hitloop = false;
 1054              		.loc 10 68 9 discriminator 2 view .LVU264
  69:customLooper.h ****         // Record forward at normal speed during the first loop no matter what.
 1055              		.loc 10 69 9 discriminator 2 view .LVU265
  71:customLooper.h ****                   ? 1.f
 1056              		.loc 10 71 9 discriminator 2 view .LVU266
  72:customLooper.h ****                   : GetIncrementSize();
 1057              		.loc 10 72 19 is_stmt 0 discriminator 2 view .LVU267
 1058 00d2 2CD9     		bls	.L38
 1059              	.LVL57:
 1060              	.LBB694:
 1061              	.LBI694:
 262:customLooper.h ****     }
 263:customLooper.h **** 
 264:customLooper.h ****   private:
 265:customLooper.h ****     /** Constants */
 266:customLooper.h **** 
 267:customLooper.h ****     /** Decay value for frippertronics mode is sin(PI / 4) */
 268:customLooper.h ****     static constexpr float kFripDecayVal      = 0.7071067811865476f;
 269:customLooper.h ****     static constexpr int   kNumModes          = 4;
 270:customLooper.h ****     static constexpr int   kNumPlaybackSpeeds = 3;
 271:customLooper.h ****     static constexpr int   kWindowSamps       = 1200;
 272:customLooper.h ****     static constexpr float kWindowFactor      = (1.f / kWindowSamps);
 273:customLooper.h **** 
 274:customLooper.h ****     /** Private Member Functions */
 275:customLooper.h ****     float GetIncrementSize()
 1062              		.loc 10 275 11 is_stmt 1 view .LVU268
 1063              	.LBB695:
 276:customLooper.h ****     {
 277:customLooper.h ****         float inc = 1.f;
 1064              		.loc 10 277 9 view .LVU269
 278:customLooper.h ****         if(half_speed_)
 1065              		.loc 10 278 9 view .LVU270
 1066 00d4 227F     		ldrb	r2, [r4, #28]	@ zero_extendqisi2
 279:customLooper.h ****             inc = 0.5f;
 1067              		.loc 10 279 17 is_stmt 0 view .LVU271
 1068 00d6 F7EE008A 		vmov.f32	s17, #1.0e+0
 1069 00da F6EE007A 		vmov.f32	s15, #5.0e-1
 280:customLooper.h ****         return reverse_ ? -inc : inc;
 1070              		.loc 10 280 25 view .LVU272
 1071 00de 637F     		ldrb	r3, [r4, #29]	@ zero_extendqisi2
 279:customLooper.h ****             inc = 0.5f;
 1072              		.loc 10 279 17 view .LVU273
 1073 00e0 002A     		cmp	r2, #0
ARM GAS  /var/folders/hl/qgbwny5j0fd895c2c41bk3tw0000gp/T//cc1L1gWC.s 			page 43


 1074 00e2 48FEA78A 		vseleq.f32	s17, s17, s15
 1075              	.LVL58:
 1076              		.loc 10 280 9 is_stmt 1 view .LVU274
 1077              		.loc 10 280 25 is_stmt 0 view .LVU275
 1078 00e6 0BB1     		cbz	r3, .L40
 1079 00e8 F1EE688A 		vneg.f32	s17, s17
 1080              	.LVL59:
 1081              	.L40:
 1082              		.loc 10 280 25 view .LVU276
 1083              	.LBE695:
 1084              	.LBE694:
  74:customLooper.h ****         switch(state_)
 1085              		.loc 10 74 9 is_stmt 1 view .LVU277
  74:customLooper.h ****         switch(state_)
 1086              		.loc 10 74 26 is_stmt 0 view .LVU278
 1087 00ec D4F818B0 		ldr	fp, [r4, #24]
 1088              	.LVL60:
 1089              	.LBB696:
 1090              	.LBI696:
 281:customLooper.h ****     }
 282:customLooper.h **** 
 283:customLooper.h ****     /** Initialize the buffer */
 284:customLooper.h ****     void InitBuff() { std::fill(&buff_[0], &buff_[buffer_size_ - 1], 0); }
 285:customLooper.h **** 
 286:customLooper.h ****     /** Get a floating point sample from the buffer */
 287:customLooper.h ****     inline const float Read(size_t pos) const { return buff_[pos]; }
 288:customLooper.h **** 
 289:customLooper.h ****     /** Reads from a specified point in the delay line using linear interpolation */
 290:customLooper.h ****     float ReadF(float pos)
 291:customLooper.h ****     {
 292:customLooper.h ****         float    a, b, frac;
 293:customLooper.h ****         uint32_t i_idx = static_cast<uint32_t>(pos);
 294:customLooper.h ****         frac           = pos - i_idx;
 295:customLooper.h ****         a              = buff_[i_idx];
 296:customLooper.h ****         b              = buff_[(i_idx + 1) % buffer_size_];
 297:customLooper.h ****         return a + (b - a) * frac;
 298:customLooper.h ****     }
 299:customLooper.h **** 
 300:customLooper.h ****     /** Write to a known location in the buffer */
 301:customLooper.h ****     inline void Write(size_t pos, float val) { buff_[pos] = val; }
 302:customLooper.h **** 
 303:customLooper.h ****     /** Linear to Constpower approximation for windowing*/
 304:customLooper.h ****     float WindowVal(float in) { return sin(HALFPI_F * in); }
 1091              		.loc 10 304 11 is_stmt 1 view .LVU279
 1092              	.LBB697:
 1093              		.loc 10 304 33 view .LVU280
 1094              	.LBB698:
 1095              	.LBI698:
 1096              		.file 14 "/Library/DaisyToolchain/0.2.0/arm/arm-none-eabi/include/c++/10.3.1/cmath"
   1:/Library/DaisyToolchain/0.2.0/arm/arm-none-eabi/include/c++/10.3.1/cmath **** // -*- C++ -*- C forwarding header.
   2:/Library/DaisyToolchain/0.2.0/arm/arm-none-eabi/include/c++/10.3.1/cmath **** 
   3:/Library/DaisyToolchain/0.2.0/arm/arm-none-eabi/include/c++/10.3.1/cmath **** // Copyright (C) 1997-2020 Free Software Foundation, Inc.
   4:/Library/DaisyToolchain/0.2.0/arm/arm-none-eabi/include/c++/10.3.1/cmath **** //
   5:/Library/DaisyToolchain/0.2.0/arm/arm-none-eabi/include/c++/10.3.1/cmath **** // This file is part of the GNU ISO C++ Library.  This library is free
   6:/Library/DaisyToolchain/0.2.0/arm/arm-none-eabi/include/c++/10.3.1/cmath **** // software; you can redistribute it and/or modify it under the
   7:/Library/DaisyToolchain/0.2.0/arm/arm-none-eabi/include/c++/10.3.1/cmath **** // terms of the GNU General Public License as published by the
   8:/Library/DaisyToolchain/0.2.0/arm/arm-none-eabi/include/c++/10.3.1/cmath **** // Free Software Foundation; either version 3, or (at your option)
ARM GAS  /var/folders/hl/qgbwny5j0fd895c2c41bk3tw0000gp/T//cc1L1gWC.s 			page 44


   9:/Library/DaisyToolchain/0.2.0/arm/arm-none-eabi/include/c++/10.3.1/cmath **** // any later version.
  10:/Library/DaisyToolchain/0.2.0/arm/arm-none-eabi/include/c++/10.3.1/cmath **** 
  11:/Library/DaisyToolchain/0.2.0/arm/arm-none-eabi/include/c++/10.3.1/cmath **** // This library is distributed in the hope that it will be useful,
  12:/Library/DaisyToolchain/0.2.0/arm/arm-none-eabi/include/c++/10.3.1/cmath **** // but WITHOUT ANY WARRANTY; without even the implied warranty of
  13:/Library/DaisyToolchain/0.2.0/arm/arm-none-eabi/include/c++/10.3.1/cmath **** // MERCHANTABILITY or FITNESS FOR A PARTICULAR PURPOSE.  See the
  14:/Library/DaisyToolchain/0.2.0/arm/arm-none-eabi/include/c++/10.3.1/cmath **** // GNU General Public License for more details.
  15:/Library/DaisyToolchain/0.2.0/arm/arm-none-eabi/include/c++/10.3.1/cmath **** 
  16:/Library/DaisyToolchain/0.2.0/arm/arm-none-eabi/include/c++/10.3.1/cmath **** // Under Section 7 of GPL version 3, you are granted additional
  17:/Library/DaisyToolchain/0.2.0/arm/arm-none-eabi/include/c++/10.3.1/cmath **** // permissions described in the GCC Runtime Library Exception, version
  18:/Library/DaisyToolchain/0.2.0/arm/arm-none-eabi/include/c++/10.3.1/cmath **** // 3.1, as published by the Free Software Foundation.
  19:/Library/DaisyToolchain/0.2.0/arm/arm-none-eabi/include/c++/10.3.1/cmath **** 
  20:/Library/DaisyToolchain/0.2.0/arm/arm-none-eabi/include/c++/10.3.1/cmath **** // You should have received a copy of the GNU General Public License and
  21:/Library/DaisyToolchain/0.2.0/arm/arm-none-eabi/include/c++/10.3.1/cmath **** // a copy of the GCC Runtime Library Exception along with this program;
  22:/Library/DaisyToolchain/0.2.0/arm/arm-none-eabi/include/c++/10.3.1/cmath **** // see the files COPYING3 and COPYING.RUNTIME respectively.  If not, see
  23:/Library/DaisyToolchain/0.2.0/arm/arm-none-eabi/include/c++/10.3.1/cmath **** // <http://www.gnu.org/licenses/>.
  24:/Library/DaisyToolchain/0.2.0/arm/arm-none-eabi/include/c++/10.3.1/cmath **** 
  25:/Library/DaisyToolchain/0.2.0/arm/arm-none-eabi/include/c++/10.3.1/cmath **** /** @file include/cmath
  26:/Library/DaisyToolchain/0.2.0/arm/arm-none-eabi/include/c++/10.3.1/cmath ****  *  This is a Standard C++ Library file.  You should @c \#include this file
  27:/Library/DaisyToolchain/0.2.0/arm/arm-none-eabi/include/c++/10.3.1/cmath ****  *  in your programs, rather than any of the @a *.h implementation files.
  28:/Library/DaisyToolchain/0.2.0/arm/arm-none-eabi/include/c++/10.3.1/cmath ****  *
  29:/Library/DaisyToolchain/0.2.0/arm/arm-none-eabi/include/c++/10.3.1/cmath ****  *  This is the C++ version of the Standard C Library header @c math.h,
  30:/Library/DaisyToolchain/0.2.0/arm/arm-none-eabi/include/c++/10.3.1/cmath ****  *  and its contents are (mostly) the same as that header, but are all
  31:/Library/DaisyToolchain/0.2.0/arm/arm-none-eabi/include/c++/10.3.1/cmath ****  *  contained in the namespace @c std (except for names which are defined
  32:/Library/DaisyToolchain/0.2.0/arm/arm-none-eabi/include/c++/10.3.1/cmath ****  *  as macros in C).
  33:/Library/DaisyToolchain/0.2.0/arm/arm-none-eabi/include/c++/10.3.1/cmath ****  */
  34:/Library/DaisyToolchain/0.2.0/arm/arm-none-eabi/include/c++/10.3.1/cmath **** 
  35:/Library/DaisyToolchain/0.2.0/arm/arm-none-eabi/include/c++/10.3.1/cmath **** //
  36:/Library/DaisyToolchain/0.2.0/arm/arm-none-eabi/include/c++/10.3.1/cmath **** // ISO C++ 14882: 26.5  C library
  37:/Library/DaisyToolchain/0.2.0/arm/arm-none-eabi/include/c++/10.3.1/cmath **** //
  38:/Library/DaisyToolchain/0.2.0/arm/arm-none-eabi/include/c++/10.3.1/cmath **** 
  39:/Library/DaisyToolchain/0.2.0/arm/arm-none-eabi/include/c++/10.3.1/cmath **** #pragma GCC system_header
  40:/Library/DaisyToolchain/0.2.0/arm/arm-none-eabi/include/c++/10.3.1/cmath **** 
  41:/Library/DaisyToolchain/0.2.0/arm/arm-none-eabi/include/c++/10.3.1/cmath **** #include <bits/c++config.h>
  42:/Library/DaisyToolchain/0.2.0/arm/arm-none-eabi/include/c++/10.3.1/cmath **** #include <bits/cpp_type_traits.h>
  43:/Library/DaisyToolchain/0.2.0/arm/arm-none-eabi/include/c++/10.3.1/cmath **** #include <ext/type_traits.h>
  44:/Library/DaisyToolchain/0.2.0/arm/arm-none-eabi/include/c++/10.3.1/cmath **** #define _GLIBCXX_INCLUDE_NEXT_C_HEADERS
  45:/Library/DaisyToolchain/0.2.0/arm/arm-none-eabi/include/c++/10.3.1/cmath **** #include_next <math.h>
  46:/Library/DaisyToolchain/0.2.0/arm/arm-none-eabi/include/c++/10.3.1/cmath **** #undef _GLIBCXX_INCLUDE_NEXT_C_HEADERS
  47:/Library/DaisyToolchain/0.2.0/arm/arm-none-eabi/include/c++/10.3.1/cmath **** #include <bits/std_abs.h>
  48:/Library/DaisyToolchain/0.2.0/arm/arm-none-eabi/include/c++/10.3.1/cmath **** 
  49:/Library/DaisyToolchain/0.2.0/arm/arm-none-eabi/include/c++/10.3.1/cmath **** #ifndef _GLIBCXX_CMATH
  50:/Library/DaisyToolchain/0.2.0/arm/arm-none-eabi/include/c++/10.3.1/cmath **** #define _GLIBCXX_CMATH 1
  51:/Library/DaisyToolchain/0.2.0/arm/arm-none-eabi/include/c++/10.3.1/cmath **** 
  52:/Library/DaisyToolchain/0.2.0/arm/arm-none-eabi/include/c++/10.3.1/cmath **** // Get rid of those macros defined in <math.h> in lieu of real functions.
  53:/Library/DaisyToolchain/0.2.0/arm/arm-none-eabi/include/c++/10.3.1/cmath **** #undef div
  54:/Library/DaisyToolchain/0.2.0/arm/arm-none-eabi/include/c++/10.3.1/cmath **** #undef acos
  55:/Library/DaisyToolchain/0.2.0/arm/arm-none-eabi/include/c++/10.3.1/cmath **** #undef asin
  56:/Library/DaisyToolchain/0.2.0/arm/arm-none-eabi/include/c++/10.3.1/cmath **** #undef atan
  57:/Library/DaisyToolchain/0.2.0/arm/arm-none-eabi/include/c++/10.3.1/cmath **** #undef atan2
  58:/Library/DaisyToolchain/0.2.0/arm/arm-none-eabi/include/c++/10.3.1/cmath **** #undef ceil
  59:/Library/DaisyToolchain/0.2.0/arm/arm-none-eabi/include/c++/10.3.1/cmath **** #undef cos
  60:/Library/DaisyToolchain/0.2.0/arm/arm-none-eabi/include/c++/10.3.1/cmath **** #undef cosh
  61:/Library/DaisyToolchain/0.2.0/arm/arm-none-eabi/include/c++/10.3.1/cmath **** #undef exp
  62:/Library/DaisyToolchain/0.2.0/arm/arm-none-eabi/include/c++/10.3.1/cmath **** #undef fabs
  63:/Library/DaisyToolchain/0.2.0/arm/arm-none-eabi/include/c++/10.3.1/cmath **** #undef floor
  64:/Library/DaisyToolchain/0.2.0/arm/arm-none-eabi/include/c++/10.3.1/cmath **** #undef fmod
  65:/Library/DaisyToolchain/0.2.0/arm/arm-none-eabi/include/c++/10.3.1/cmath **** #undef frexp
ARM GAS  /var/folders/hl/qgbwny5j0fd895c2c41bk3tw0000gp/T//cc1L1gWC.s 			page 45


  66:/Library/DaisyToolchain/0.2.0/arm/arm-none-eabi/include/c++/10.3.1/cmath **** #undef ldexp
  67:/Library/DaisyToolchain/0.2.0/arm/arm-none-eabi/include/c++/10.3.1/cmath **** #undef log
  68:/Library/DaisyToolchain/0.2.0/arm/arm-none-eabi/include/c++/10.3.1/cmath **** #undef log10
  69:/Library/DaisyToolchain/0.2.0/arm/arm-none-eabi/include/c++/10.3.1/cmath **** #undef modf
  70:/Library/DaisyToolchain/0.2.0/arm/arm-none-eabi/include/c++/10.3.1/cmath **** #undef pow
  71:/Library/DaisyToolchain/0.2.0/arm/arm-none-eabi/include/c++/10.3.1/cmath **** #undef sin
  72:/Library/DaisyToolchain/0.2.0/arm/arm-none-eabi/include/c++/10.3.1/cmath **** #undef sinh
  73:/Library/DaisyToolchain/0.2.0/arm/arm-none-eabi/include/c++/10.3.1/cmath **** #undef sqrt
  74:/Library/DaisyToolchain/0.2.0/arm/arm-none-eabi/include/c++/10.3.1/cmath **** #undef tan
  75:/Library/DaisyToolchain/0.2.0/arm/arm-none-eabi/include/c++/10.3.1/cmath **** #undef tanh
  76:/Library/DaisyToolchain/0.2.0/arm/arm-none-eabi/include/c++/10.3.1/cmath **** 
  77:/Library/DaisyToolchain/0.2.0/arm/arm-none-eabi/include/c++/10.3.1/cmath **** extern "C++"
  78:/Library/DaisyToolchain/0.2.0/arm/arm-none-eabi/include/c++/10.3.1/cmath **** {
  79:/Library/DaisyToolchain/0.2.0/arm/arm-none-eabi/include/c++/10.3.1/cmath **** namespace std _GLIBCXX_VISIBILITY(default)
  80:/Library/DaisyToolchain/0.2.0/arm/arm-none-eabi/include/c++/10.3.1/cmath **** {
  81:/Library/DaisyToolchain/0.2.0/arm/arm-none-eabi/include/c++/10.3.1/cmath **** _GLIBCXX_BEGIN_NAMESPACE_VERSION
  82:/Library/DaisyToolchain/0.2.0/arm/arm-none-eabi/include/c++/10.3.1/cmath **** 
  83:/Library/DaisyToolchain/0.2.0/arm/arm-none-eabi/include/c++/10.3.1/cmath ****   using ::acos;
  84:/Library/DaisyToolchain/0.2.0/arm/arm-none-eabi/include/c++/10.3.1/cmath **** 
  85:/Library/DaisyToolchain/0.2.0/arm/arm-none-eabi/include/c++/10.3.1/cmath **** #ifndef __CORRECT_ISO_CPP_MATH_H_PROTO
  86:/Library/DaisyToolchain/0.2.0/arm/arm-none-eabi/include/c++/10.3.1/cmath ****   inline _GLIBCXX_CONSTEXPR float
  87:/Library/DaisyToolchain/0.2.0/arm/arm-none-eabi/include/c++/10.3.1/cmath ****   acos(float __x)
  88:/Library/DaisyToolchain/0.2.0/arm/arm-none-eabi/include/c++/10.3.1/cmath ****   { return __builtin_acosf(__x); }
  89:/Library/DaisyToolchain/0.2.0/arm/arm-none-eabi/include/c++/10.3.1/cmath **** 
  90:/Library/DaisyToolchain/0.2.0/arm/arm-none-eabi/include/c++/10.3.1/cmath ****   inline _GLIBCXX_CONSTEXPR long double
  91:/Library/DaisyToolchain/0.2.0/arm/arm-none-eabi/include/c++/10.3.1/cmath ****   acos(long double __x)
  92:/Library/DaisyToolchain/0.2.0/arm/arm-none-eabi/include/c++/10.3.1/cmath ****   { return __builtin_acosl(__x); }
  93:/Library/DaisyToolchain/0.2.0/arm/arm-none-eabi/include/c++/10.3.1/cmath **** #endif
  94:/Library/DaisyToolchain/0.2.0/arm/arm-none-eabi/include/c++/10.3.1/cmath **** 
  95:/Library/DaisyToolchain/0.2.0/arm/arm-none-eabi/include/c++/10.3.1/cmath ****   template<typename _Tp>
  96:/Library/DaisyToolchain/0.2.0/arm/arm-none-eabi/include/c++/10.3.1/cmath ****     inline _GLIBCXX_CONSTEXPR
  97:/Library/DaisyToolchain/0.2.0/arm/arm-none-eabi/include/c++/10.3.1/cmath ****     typename __gnu_cxx::__enable_if<__is_integer<_Tp>::__value, 
  98:/Library/DaisyToolchain/0.2.0/arm/arm-none-eabi/include/c++/10.3.1/cmath ****                                     double>::__type
  99:/Library/DaisyToolchain/0.2.0/arm/arm-none-eabi/include/c++/10.3.1/cmath ****     acos(_Tp __x)
 100:/Library/DaisyToolchain/0.2.0/arm/arm-none-eabi/include/c++/10.3.1/cmath ****     { return __builtin_acos(__x); }
 101:/Library/DaisyToolchain/0.2.0/arm/arm-none-eabi/include/c++/10.3.1/cmath **** 
 102:/Library/DaisyToolchain/0.2.0/arm/arm-none-eabi/include/c++/10.3.1/cmath ****   using ::asin;
 103:/Library/DaisyToolchain/0.2.0/arm/arm-none-eabi/include/c++/10.3.1/cmath **** 
 104:/Library/DaisyToolchain/0.2.0/arm/arm-none-eabi/include/c++/10.3.1/cmath **** #ifndef __CORRECT_ISO_CPP_MATH_H_PROTO
 105:/Library/DaisyToolchain/0.2.0/arm/arm-none-eabi/include/c++/10.3.1/cmath ****   inline _GLIBCXX_CONSTEXPR float
 106:/Library/DaisyToolchain/0.2.0/arm/arm-none-eabi/include/c++/10.3.1/cmath ****   asin(float __x)
 107:/Library/DaisyToolchain/0.2.0/arm/arm-none-eabi/include/c++/10.3.1/cmath ****   { return __builtin_asinf(__x); }
 108:/Library/DaisyToolchain/0.2.0/arm/arm-none-eabi/include/c++/10.3.1/cmath **** 
 109:/Library/DaisyToolchain/0.2.0/arm/arm-none-eabi/include/c++/10.3.1/cmath ****   inline _GLIBCXX_CONSTEXPR long double
 110:/Library/DaisyToolchain/0.2.0/arm/arm-none-eabi/include/c++/10.3.1/cmath ****   asin(long double __x)
 111:/Library/DaisyToolchain/0.2.0/arm/arm-none-eabi/include/c++/10.3.1/cmath ****   { return __builtin_asinl(__x); }
 112:/Library/DaisyToolchain/0.2.0/arm/arm-none-eabi/include/c++/10.3.1/cmath **** #endif
 113:/Library/DaisyToolchain/0.2.0/arm/arm-none-eabi/include/c++/10.3.1/cmath **** 
 114:/Library/DaisyToolchain/0.2.0/arm/arm-none-eabi/include/c++/10.3.1/cmath ****   template<typename _Tp>
 115:/Library/DaisyToolchain/0.2.0/arm/arm-none-eabi/include/c++/10.3.1/cmath ****     inline _GLIBCXX_CONSTEXPR
 116:/Library/DaisyToolchain/0.2.0/arm/arm-none-eabi/include/c++/10.3.1/cmath ****     typename __gnu_cxx::__enable_if<__is_integer<_Tp>::__value,
 117:/Library/DaisyToolchain/0.2.0/arm/arm-none-eabi/include/c++/10.3.1/cmath ****                                     double>::__type
 118:/Library/DaisyToolchain/0.2.0/arm/arm-none-eabi/include/c++/10.3.1/cmath ****     asin(_Tp __x)
 119:/Library/DaisyToolchain/0.2.0/arm/arm-none-eabi/include/c++/10.3.1/cmath ****     { return __builtin_asin(__x); }
 120:/Library/DaisyToolchain/0.2.0/arm/arm-none-eabi/include/c++/10.3.1/cmath **** 
 121:/Library/DaisyToolchain/0.2.0/arm/arm-none-eabi/include/c++/10.3.1/cmath ****   using ::atan;
 122:/Library/DaisyToolchain/0.2.0/arm/arm-none-eabi/include/c++/10.3.1/cmath **** 
ARM GAS  /var/folders/hl/qgbwny5j0fd895c2c41bk3tw0000gp/T//cc1L1gWC.s 			page 46


 123:/Library/DaisyToolchain/0.2.0/arm/arm-none-eabi/include/c++/10.3.1/cmath **** #ifndef __CORRECT_ISO_CPP_MATH_H_PROTO
 124:/Library/DaisyToolchain/0.2.0/arm/arm-none-eabi/include/c++/10.3.1/cmath ****   inline _GLIBCXX_CONSTEXPR float
 125:/Library/DaisyToolchain/0.2.0/arm/arm-none-eabi/include/c++/10.3.1/cmath ****   atan(float __x)
 126:/Library/DaisyToolchain/0.2.0/arm/arm-none-eabi/include/c++/10.3.1/cmath ****   { return __builtin_atanf(__x); }
 127:/Library/DaisyToolchain/0.2.0/arm/arm-none-eabi/include/c++/10.3.1/cmath **** 
 128:/Library/DaisyToolchain/0.2.0/arm/arm-none-eabi/include/c++/10.3.1/cmath ****   inline _GLIBCXX_CONSTEXPR long double
 129:/Library/DaisyToolchain/0.2.0/arm/arm-none-eabi/include/c++/10.3.1/cmath ****   atan(long double __x)
 130:/Library/DaisyToolchain/0.2.0/arm/arm-none-eabi/include/c++/10.3.1/cmath ****   { return __builtin_atanl(__x); }
 131:/Library/DaisyToolchain/0.2.0/arm/arm-none-eabi/include/c++/10.3.1/cmath **** #endif
 132:/Library/DaisyToolchain/0.2.0/arm/arm-none-eabi/include/c++/10.3.1/cmath **** 
 133:/Library/DaisyToolchain/0.2.0/arm/arm-none-eabi/include/c++/10.3.1/cmath ****   template<typename _Tp>
 134:/Library/DaisyToolchain/0.2.0/arm/arm-none-eabi/include/c++/10.3.1/cmath ****     inline _GLIBCXX_CONSTEXPR
 135:/Library/DaisyToolchain/0.2.0/arm/arm-none-eabi/include/c++/10.3.1/cmath ****     typename __gnu_cxx::__enable_if<__is_integer<_Tp>::__value,
 136:/Library/DaisyToolchain/0.2.0/arm/arm-none-eabi/include/c++/10.3.1/cmath ****                                     double>::__type
 137:/Library/DaisyToolchain/0.2.0/arm/arm-none-eabi/include/c++/10.3.1/cmath ****     atan(_Tp __x)
 138:/Library/DaisyToolchain/0.2.0/arm/arm-none-eabi/include/c++/10.3.1/cmath ****     { return __builtin_atan(__x); }
 139:/Library/DaisyToolchain/0.2.0/arm/arm-none-eabi/include/c++/10.3.1/cmath **** 
 140:/Library/DaisyToolchain/0.2.0/arm/arm-none-eabi/include/c++/10.3.1/cmath ****   using ::atan2;
 141:/Library/DaisyToolchain/0.2.0/arm/arm-none-eabi/include/c++/10.3.1/cmath **** 
 142:/Library/DaisyToolchain/0.2.0/arm/arm-none-eabi/include/c++/10.3.1/cmath **** #ifndef __CORRECT_ISO_CPP_MATH_H_PROTO
 143:/Library/DaisyToolchain/0.2.0/arm/arm-none-eabi/include/c++/10.3.1/cmath ****   inline _GLIBCXX_CONSTEXPR float
 144:/Library/DaisyToolchain/0.2.0/arm/arm-none-eabi/include/c++/10.3.1/cmath ****   atan2(float __y, float __x)
 145:/Library/DaisyToolchain/0.2.0/arm/arm-none-eabi/include/c++/10.3.1/cmath ****   { return __builtin_atan2f(__y, __x); }
 146:/Library/DaisyToolchain/0.2.0/arm/arm-none-eabi/include/c++/10.3.1/cmath **** 
 147:/Library/DaisyToolchain/0.2.0/arm/arm-none-eabi/include/c++/10.3.1/cmath ****   inline _GLIBCXX_CONSTEXPR long double
 148:/Library/DaisyToolchain/0.2.0/arm/arm-none-eabi/include/c++/10.3.1/cmath ****   atan2(long double __y, long double __x)
 149:/Library/DaisyToolchain/0.2.0/arm/arm-none-eabi/include/c++/10.3.1/cmath ****   { return __builtin_atan2l(__y, __x); }
 150:/Library/DaisyToolchain/0.2.0/arm/arm-none-eabi/include/c++/10.3.1/cmath **** #endif
 151:/Library/DaisyToolchain/0.2.0/arm/arm-none-eabi/include/c++/10.3.1/cmath **** 
 152:/Library/DaisyToolchain/0.2.0/arm/arm-none-eabi/include/c++/10.3.1/cmath ****   template<typename _Tp, typename _Up>
 153:/Library/DaisyToolchain/0.2.0/arm/arm-none-eabi/include/c++/10.3.1/cmath ****     inline _GLIBCXX_CONSTEXPR
 154:/Library/DaisyToolchain/0.2.0/arm/arm-none-eabi/include/c++/10.3.1/cmath ****     typename __gnu_cxx::__promote_2<_Tp, _Up>::__type
 155:/Library/DaisyToolchain/0.2.0/arm/arm-none-eabi/include/c++/10.3.1/cmath ****     atan2(_Tp __y, _Up __x)
 156:/Library/DaisyToolchain/0.2.0/arm/arm-none-eabi/include/c++/10.3.1/cmath ****     {
 157:/Library/DaisyToolchain/0.2.0/arm/arm-none-eabi/include/c++/10.3.1/cmath ****       typedef typename __gnu_cxx::__promote_2<_Tp, _Up>::__type __type;
 158:/Library/DaisyToolchain/0.2.0/arm/arm-none-eabi/include/c++/10.3.1/cmath ****       return atan2(__type(__y), __type(__x));
 159:/Library/DaisyToolchain/0.2.0/arm/arm-none-eabi/include/c++/10.3.1/cmath ****     }
 160:/Library/DaisyToolchain/0.2.0/arm/arm-none-eabi/include/c++/10.3.1/cmath **** 
 161:/Library/DaisyToolchain/0.2.0/arm/arm-none-eabi/include/c++/10.3.1/cmath ****   using ::ceil;
 162:/Library/DaisyToolchain/0.2.0/arm/arm-none-eabi/include/c++/10.3.1/cmath **** 
 163:/Library/DaisyToolchain/0.2.0/arm/arm-none-eabi/include/c++/10.3.1/cmath **** #ifndef __CORRECT_ISO_CPP_MATH_H_PROTO
 164:/Library/DaisyToolchain/0.2.0/arm/arm-none-eabi/include/c++/10.3.1/cmath ****   inline _GLIBCXX_CONSTEXPR float
 165:/Library/DaisyToolchain/0.2.0/arm/arm-none-eabi/include/c++/10.3.1/cmath ****   ceil(float __x)
 166:/Library/DaisyToolchain/0.2.0/arm/arm-none-eabi/include/c++/10.3.1/cmath ****   { return __builtin_ceilf(__x); }
 167:/Library/DaisyToolchain/0.2.0/arm/arm-none-eabi/include/c++/10.3.1/cmath **** 
 168:/Library/DaisyToolchain/0.2.0/arm/arm-none-eabi/include/c++/10.3.1/cmath ****   inline _GLIBCXX_CONSTEXPR long double
 169:/Library/DaisyToolchain/0.2.0/arm/arm-none-eabi/include/c++/10.3.1/cmath ****   ceil(long double __x)
 170:/Library/DaisyToolchain/0.2.0/arm/arm-none-eabi/include/c++/10.3.1/cmath ****   { return __builtin_ceill(__x); }
 171:/Library/DaisyToolchain/0.2.0/arm/arm-none-eabi/include/c++/10.3.1/cmath **** #endif
 172:/Library/DaisyToolchain/0.2.0/arm/arm-none-eabi/include/c++/10.3.1/cmath **** 
 173:/Library/DaisyToolchain/0.2.0/arm/arm-none-eabi/include/c++/10.3.1/cmath ****   template<typename _Tp>
 174:/Library/DaisyToolchain/0.2.0/arm/arm-none-eabi/include/c++/10.3.1/cmath ****     inline _GLIBCXX_CONSTEXPR
 175:/Library/DaisyToolchain/0.2.0/arm/arm-none-eabi/include/c++/10.3.1/cmath ****     typename __gnu_cxx::__enable_if<__is_integer<_Tp>::__value, 
 176:/Library/DaisyToolchain/0.2.0/arm/arm-none-eabi/include/c++/10.3.1/cmath ****                                     double>::__type
 177:/Library/DaisyToolchain/0.2.0/arm/arm-none-eabi/include/c++/10.3.1/cmath ****     ceil(_Tp __x)
 178:/Library/DaisyToolchain/0.2.0/arm/arm-none-eabi/include/c++/10.3.1/cmath ****     { return __builtin_ceil(__x); }
 179:/Library/DaisyToolchain/0.2.0/arm/arm-none-eabi/include/c++/10.3.1/cmath **** 
ARM GAS  /var/folders/hl/qgbwny5j0fd895c2c41bk3tw0000gp/T//cc1L1gWC.s 			page 47


 180:/Library/DaisyToolchain/0.2.0/arm/arm-none-eabi/include/c++/10.3.1/cmath ****   using ::cos;
 181:/Library/DaisyToolchain/0.2.0/arm/arm-none-eabi/include/c++/10.3.1/cmath **** 
 182:/Library/DaisyToolchain/0.2.0/arm/arm-none-eabi/include/c++/10.3.1/cmath **** #ifndef __CORRECT_ISO_CPP_MATH_H_PROTO
 183:/Library/DaisyToolchain/0.2.0/arm/arm-none-eabi/include/c++/10.3.1/cmath ****   inline _GLIBCXX_CONSTEXPR float
 184:/Library/DaisyToolchain/0.2.0/arm/arm-none-eabi/include/c++/10.3.1/cmath ****   cos(float __x)
 185:/Library/DaisyToolchain/0.2.0/arm/arm-none-eabi/include/c++/10.3.1/cmath ****   { return __builtin_cosf(__x); }
 186:/Library/DaisyToolchain/0.2.0/arm/arm-none-eabi/include/c++/10.3.1/cmath **** 
 187:/Library/DaisyToolchain/0.2.0/arm/arm-none-eabi/include/c++/10.3.1/cmath ****   inline _GLIBCXX_CONSTEXPR long double
 188:/Library/DaisyToolchain/0.2.0/arm/arm-none-eabi/include/c++/10.3.1/cmath ****   cos(long double __x)
 189:/Library/DaisyToolchain/0.2.0/arm/arm-none-eabi/include/c++/10.3.1/cmath ****   { return __builtin_cosl(__x); }
 190:/Library/DaisyToolchain/0.2.0/arm/arm-none-eabi/include/c++/10.3.1/cmath **** #endif
 191:/Library/DaisyToolchain/0.2.0/arm/arm-none-eabi/include/c++/10.3.1/cmath **** 
 192:/Library/DaisyToolchain/0.2.0/arm/arm-none-eabi/include/c++/10.3.1/cmath ****   template<typename _Tp>
 193:/Library/DaisyToolchain/0.2.0/arm/arm-none-eabi/include/c++/10.3.1/cmath ****     inline _GLIBCXX_CONSTEXPR
 194:/Library/DaisyToolchain/0.2.0/arm/arm-none-eabi/include/c++/10.3.1/cmath ****     typename __gnu_cxx::__enable_if<__is_integer<_Tp>::__value,
 195:/Library/DaisyToolchain/0.2.0/arm/arm-none-eabi/include/c++/10.3.1/cmath ****                                     double>::__type
 196:/Library/DaisyToolchain/0.2.0/arm/arm-none-eabi/include/c++/10.3.1/cmath ****     cos(_Tp __x)
 197:/Library/DaisyToolchain/0.2.0/arm/arm-none-eabi/include/c++/10.3.1/cmath ****     { return __builtin_cos(__x); }
 198:/Library/DaisyToolchain/0.2.0/arm/arm-none-eabi/include/c++/10.3.1/cmath **** 
 199:/Library/DaisyToolchain/0.2.0/arm/arm-none-eabi/include/c++/10.3.1/cmath ****   using ::cosh;
 200:/Library/DaisyToolchain/0.2.0/arm/arm-none-eabi/include/c++/10.3.1/cmath **** 
 201:/Library/DaisyToolchain/0.2.0/arm/arm-none-eabi/include/c++/10.3.1/cmath **** #ifndef __CORRECT_ISO_CPP_MATH_H_PROTO
 202:/Library/DaisyToolchain/0.2.0/arm/arm-none-eabi/include/c++/10.3.1/cmath ****   inline _GLIBCXX_CONSTEXPR float
 203:/Library/DaisyToolchain/0.2.0/arm/arm-none-eabi/include/c++/10.3.1/cmath ****   cosh(float __x)
 204:/Library/DaisyToolchain/0.2.0/arm/arm-none-eabi/include/c++/10.3.1/cmath ****   { return __builtin_coshf(__x); }
 205:/Library/DaisyToolchain/0.2.0/arm/arm-none-eabi/include/c++/10.3.1/cmath **** 
 206:/Library/DaisyToolchain/0.2.0/arm/arm-none-eabi/include/c++/10.3.1/cmath ****   inline _GLIBCXX_CONSTEXPR long double
 207:/Library/DaisyToolchain/0.2.0/arm/arm-none-eabi/include/c++/10.3.1/cmath ****   cosh(long double __x)
 208:/Library/DaisyToolchain/0.2.0/arm/arm-none-eabi/include/c++/10.3.1/cmath ****   { return __builtin_coshl(__x); }
 209:/Library/DaisyToolchain/0.2.0/arm/arm-none-eabi/include/c++/10.3.1/cmath **** #endif
 210:/Library/DaisyToolchain/0.2.0/arm/arm-none-eabi/include/c++/10.3.1/cmath **** 
 211:/Library/DaisyToolchain/0.2.0/arm/arm-none-eabi/include/c++/10.3.1/cmath ****   template<typename _Tp>
 212:/Library/DaisyToolchain/0.2.0/arm/arm-none-eabi/include/c++/10.3.1/cmath ****     inline _GLIBCXX_CONSTEXPR
 213:/Library/DaisyToolchain/0.2.0/arm/arm-none-eabi/include/c++/10.3.1/cmath ****     typename __gnu_cxx::__enable_if<__is_integer<_Tp>::__value,
 214:/Library/DaisyToolchain/0.2.0/arm/arm-none-eabi/include/c++/10.3.1/cmath ****                                     double>::__type
 215:/Library/DaisyToolchain/0.2.0/arm/arm-none-eabi/include/c++/10.3.1/cmath ****     cosh(_Tp __x)
 216:/Library/DaisyToolchain/0.2.0/arm/arm-none-eabi/include/c++/10.3.1/cmath ****     { return __builtin_cosh(__x); }
 217:/Library/DaisyToolchain/0.2.0/arm/arm-none-eabi/include/c++/10.3.1/cmath **** 
 218:/Library/DaisyToolchain/0.2.0/arm/arm-none-eabi/include/c++/10.3.1/cmath ****   using ::exp;
 219:/Library/DaisyToolchain/0.2.0/arm/arm-none-eabi/include/c++/10.3.1/cmath **** 
 220:/Library/DaisyToolchain/0.2.0/arm/arm-none-eabi/include/c++/10.3.1/cmath **** #ifndef __CORRECT_ISO_CPP_MATH_H_PROTO
 221:/Library/DaisyToolchain/0.2.0/arm/arm-none-eabi/include/c++/10.3.1/cmath ****   inline _GLIBCXX_CONSTEXPR float
 222:/Library/DaisyToolchain/0.2.0/arm/arm-none-eabi/include/c++/10.3.1/cmath ****   exp(float __x)
 223:/Library/DaisyToolchain/0.2.0/arm/arm-none-eabi/include/c++/10.3.1/cmath ****   { return __builtin_expf(__x); }
 224:/Library/DaisyToolchain/0.2.0/arm/arm-none-eabi/include/c++/10.3.1/cmath **** 
 225:/Library/DaisyToolchain/0.2.0/arm/arm-none-eabi/include/c++/10.3.1/cmath ****   inline _GLIBCXX_CONSTEXPR long double
 226:/Library/DaisyToolchain/0.2.0/arm/arm-none-eabi/include/c++/10.3.1/cmath ****   exp(long double __x)
 227:/Library/DaisyToolchain/0.2.0/arm/arm-none-eabi/include/c++/10.3.1/cmath ****   { return __builtin_expl(__x); }
 228:/Library/DaisyToolchain/0.2.0/arm/arm-none-eabi/include/c++/10.3.1/cmath **** #endif
 229:/Library/DaisyToolchain/0.2.0/arm/arm-none-eabi/include/c++/10.3.1/cmath **** 
 230:/Library/DaisyToolchain/0.2.0/arm/arm-none-eabi/include/c++/10.3.1/cmath ****   template<typename _Tp>
 231:/Library/DaisyToolchain/0.2.0/arm/arm-none-eabi/include/c++/10.3.1/cmath ****     inline _GLIBCXX_CONSTEXPR
 232:/Library/DaisyToolchain/0.2.0/arm/arm-none-eabi/include/c++/10.3.1/cmath ****     typename __gnu_cxx::__enable_if<__is_integer<_Tp>::__value,
 233:/Library/DaisyToolchain/0.2.0/arm/arm-none-eabi/include/c++/10.3.1/cmath ****                                     double>::__type
 234:/Library/DaisyToolchain/0.2.0/arm/arm-none-eabi/include/c++/10.3.1/cmath ****     exp(_Tp __x)
 235:/Library/DaisyToolchain/0.2.0/arm/arm-none-eabi/include/c++/10.3.1/cmath ****     { return __builtin_exp(__x); }
 236:/Library/DaisyToolchain/0.2.0/arm/arm-none-eabi/include/c++/10.3.1/cmath **** 
ARM GAS  /var/folders/hl/qgbwny5j0fd895c2c41bk3tw0000gp/T//cc1L1gWC.s 			page 48


 237:/Library/DaisyToolchain/0.2.0/arm/arm-none-eabi/include/c++/10.3.1/cmath ****   using ::fabs;
 238:/Library/DaisyToolchain/0.2.0/arm/arm-none-eabi/include/c++/10.3.1/cmath **** 
 239:/Library/DaisyToolchain/0.2.0/arm/arm-none-eabi/include/c++/10.3.1/cmath **** #ifndef __CORRECT_ISO_CPP_MATH_H_PROTO
 240:/Library/DaisyToolchain/0.2.0/arm/arm-none-eabi/include/c++/10.3.1/cmath ****   inline _GLIBCXX_CONSTEXPR float
 241:/Library/DaisyToolchain/0.2.0/arm/arm-none-eabi/include/c++/10.3.1/cmath ****   fabs(float __x)
 242:/Library/DaisyToolchain/0.2.0/arm/arm-none-eabi/include/c++/10.3.1/cmath ****   { return __builtin_fabsf(__x); }
 243:/Library/DaisyToolchain/0.2.0/arm/arm-none-eabi/include/c++/10.3.1/cmath **** 
 244:/Library/DaisyToolchain/0.2.0/arm/arm-none-eabi/include/c++/10.3.1/cmath ****   inline _GLIBCXX_CONSTEXPR long double
 245:/Library/DaisyToolchain/0.2.0/arm/arm-none-eabi/include/c++/10.3.1/cmath ****   fabs(long double __x)
 246:/Library/DaisyToolchain/0.2.0/arm/arm-none-eabi/include/c++/10.3.1/cmath ****   { return __builtin_fabsl(__x); }
 247:/Library/DaisyToolchain/0.2.0/arm/arm-none-eabi/include/c++/10.3.1/cmath **** #endif
 248:/Library/DaisyToolchain/0.2.0/arm/arm-none-eabi/include/c++/10.3.1/cmath **** 
 249:/Library/DaisyToolchain/0.2.0/arm/arm-none-eabi/include/c++/10.3.1/cmath ****   template<typename _Tp>
 250:/Library/DaisyToolchain/0.2.0/arm/arm-none-eabi/include/c++/10.3.1/cmath ****     inline _GLIBCXX_CONSTEXPR
 251:/Library/DaisyToolchain/0.2.0/arm/arm-none-eabi/include/c++/10.3.1/cmath ****     typename __gnu_cxx::__enable_if<__is_integer<_Tp>::__value,
 252:/Library/DaisyToolchain/0.2.0/arm/arm-none-eabi/include/c++/10.3.1/cmath ****                                     double>::__type
 253:/Library/DaisyToolchain/0.2.0/arm/arm-none-eabi/include/c++/10.3.1/cmath ****     fabs(_Tp __x)
 254:/Library/DaisyToolchain/0.2.0/arm/arm-none-eabi/include/c++/10.3.1/cmath ****     { return __builtin_fabs(__x); }
 255:/Library/DaisyToolchain/0.2.0/arm/arm-none-eabi/include/c++/10.3.1/cmath **** 
 256:/Library/DaisyToolchain/0.2.0/arm/arm-none-eabi/include/c++/10.3.1/cmath ****   using ::floor;
 257:/Library/DaisyToolchain/0.2.0/arm/arm-none-eabi/include/c++/10.3.1/cmath **** 
 258:/Library/DaisyToolchain/0.2.0/arm/arm-none-eabi/include/c++/10.3.1/cmath **** #ifndef __CORRECT_ISO_CPP_MATH_H_PROTO
 259:/Library/DaisyToolchain/0.2.0/arm/arm-none-eabi/include/c++/10.3.1/cmath ****   inline _GLIBCXX_CONSTEXPR float
 260:/Library/DaisyToolchain/0.2.0/arm/arm-none-eabi/include/c++/10.3.1/cmath ****   floor(float __x)
 261:/Library/DaisyToolchain/0.2.0/arm/arm-none-eabi/include/c++/10.3.1/cmath ****   { return __builtin_floorf(__x); }
 262:/Library/DaisyToolchain/0.2.0/arm/arm-none-eabi/include/c++/10.3.1/cmath **** 
 263:/Library/DaisyToolchain/0.2.0/arm/arm-none-eabi/include/c++/10.3.1/cmath ****   inline _GLIBCXX_CONSTEXPR long double
 264:/Library/DaisyToolchain/0.2.0/arm/arm-none-eabi/include/c++/10.3.1/cmath ****   floor(long double __x)
 265:/Library/DaisyToolchain/0.2.0/arm/arm-none-eabi/include/c++/10.3.1/cmath ****   { return __builtin_floorl(__x); }
 266:/Library/DaisyToolchain/0.2.0/arm/arm-none-eabi/include/c++/10.3.1/cmath **** #endif
 267:/Library/DaisyToolchain/0.2.0/arm/arm-none-eabi/include/c++/10.3.1/cmath **** 
 268:/Library/DaisyToolchain/0.2.0/arm/arm-none-eabi/include/c++/10.3.1/cmath ****   template<typename _Tp>
 269:/Library/DaisyToolchain/0.2.0/arm/arm-none-eabi/include/c++/10.3.1/cmath ****     inline _GLIBCXX_CONSTEXPR
 270:/Library/DaisyToolchain/0.2.0/arm/arm-none-eabi/include/c++/10.3.1/cmath ****     typename __gnu_cxx::__enable_if<__is_integer<_Tp>::__value,
 271:/Library/DaisyToolchain/0.2.0/arm/arm-none-eabi/include/c++/10.3.1/cmath ****                                     double>::__type
 272:/Library/DaisyToolchain/0.2.0/arm/arm-none-eabi/include/c++/10.3.1/cmath ****     floor(_Tp __x)
 273:/Library/DaisyToolchain/0.2.0/arm/arm-none-eabi/include/c++/10.3.1/cmath ****     { return __builtin_floor(__x); }
 274:/Library/DaisyToolchain/0.2.0/arm/arm-none-eabi/include/c++/10.3.1/cmath **** 
 275:/Library/DaisyToolchain/0.2.0/arm/arm-none-eabi/include/c++/10.3.1/cmath ****   using ::fmod;
 276:/Library/DaisyToolchain/0.2.0/arm/arm-none-eabi/include/c++/10.3.1/cmath **** 
 277:/Library/DaisyToolchain/0.2.0/arm/arm-none-eabi/include/c++/10.3.1/cmath **** #ifndef __CORRECT_ISO_CPP_MATH_H_PROTO
 278:/Library/DaisyToolchain/0.2.0/arm/arm-none-eabi/include/c++/10.3.1/cmath ****   inline _GLIBCXX_CONSTEXPR float
 279:/Library/DaisyToolchain/0.2.0/arm/arm-none-eabi/include/c++/10.3.1/cmath ****   fmod(float __x, float __y)
 280:/Library/DaisyToolchain/0.2.0/arm/arm-none-eabi/include/c++/10.3.1/cmath ****   { return __builtin_fmodf(__x, __y); }
 281:/Library/DaisyToolchain/0.2.0/arm/arm-none-eabi/include/c++/10.3.1/cmath **** 
 282:/Library/DaisyToolchain/0.2.0/arm/arm-none-eabi/include/c++/10.3.1/cmath ****   inline _GLIBCXX_CONSTEXPR long double
 283:/Library/DaisyToolchain/0.2.0/arm/arm-none-eabi/include/c++/10.3.1/cmath ****   fmod(long double __x, long double __y)
 284:/Library/DaisyToolchain/0.2.0/arm/arm-none-eabi/include/c++/10.3.1/cmath ****   { return __builtin_fmodl(__x, __y); }
 285:/Library/DaisyToolchain/0.2.0/arm/arm-none-eabi/include/c++/10.3.1/cmath **** #endif
 286:/Library/DaisyToolchain/0.2.0/arm/arm-none-eabi/include/c++/10.3.1/cmath **** 
 287:/Library/DaisyToolchain/0.2.0/arm/arm-none-eabi/include/c++/10.3.1/cmath ****   template<typename _Tp, typename _Up>
 288:/Library/DaisyToolchain/0.2.0/arm/arm-none-eabi/include/c++/10.3.1/cmath ****     inline _GLIBCXX_CONSTEXPR
 289:/Library/DaisyToolchain/0.2.0/arm/arm-none-eabi/include/c++/10.3.1/cmath ****     typename __gnu_cxx::__promote_2<_Tp, _Up>::__type
 290:/Library/DaisyToolchain/0.2.0/arm/arm-none-eabi/include/c++/10.3.1/cmath ****     fmod(_Tp __x, _Up __y)
 291:/Library/DaisyToolchain/0.2.0/arm/arm-none-eabi/include/c++/10.3.1/cmath ****     {
 292:/Library/DaisyToolchain/0.2.0/arm/arm-none-eabi/include/c++/10.3.1/cmath ****       typedef typename __gnu_cxx::__promote_2<_Tp, _Up>::__type __type;
 293:/Library/DaisyToolchain/0.2.0/arm/arm-none-eabi/include/c++/10.3.1/cmath ****       return fmod(__type(__x), __type(__y));
ARM GAS  /var/folders/hl/qgbwny5j0fd895c2c41bk3tw0000gp/T//cc1L1gWC.s 			page 49


 294:/Library/DaisyToolchain/0.2.0/arm/arm-none-eabi/include/c++/10.3.1/cmath ****     }
 295:/Library/DaisyToolchain/0.2.0/arm/arm-none-eabi/include/c++/10.3.1/cmath **** 
 296:/Library/DaisyToolchain/0.2.0/arm/arm-none-eabi/include/c++/10.3.1/cmath ****   using ::frexp;
 297:/Library/DaisyToolchain/0.2.0/arm/arm-none-eabi/include/c++/10.3.1/cmath **** 
 298:/Library/DaisyToolchain/0.2.0/arm/arm-none-eabi/include/c++/10.3.1/cmath **** #ifndef __CORRECT_ISO_CPP_MATH_H_PROTO
 299:/Library/DaisyToolchain/0.2.0/arm/arm-none-eabi/include/c++/10.3.1/cmath ****   inline float
 300:/Library/DaisyToolchain/0.2.0/arm/arm-none-eabi/include/c++/10.3.1/cmath ****   frexp(float __x, int* __exp)
 301:/Library/DaisyToolchain/0.2.0/arm/arm-none-eabi/include/c++/10.3.1/cmath ****   { return __builtin_frexpf(__x, __exp); }
 302:/Library/DaisyToolchain/0.2.0/arm/arm-none-eabi/include/c++/10.3.1/cmath **** 
 303:/Library/DaisyToolchain/0.2.0/arm/arm-none-eabi/include/c++/10.3.1/cmath ****   inline long double
 304:/Library/DaisyToolchain/0.2.0/arm/arm-none-eabi/include/c++/10.3.1/cmath ****   frexp(long double __x, int* __exp)
 305:/Library/DaisyToolchain/0.2.0/arm/arm-none-eabi/include/c++/10.3.1/cmath ****   { return __builtin_frexpl(__x, __exp); }
 306:/Library/DaisyToolchain/0.2.0/arm/arm-none-eabi/include/c++/10.3.1/cmath **** #endif
 307:/Library/DaisyToolchain/0.2.0/arm/arm-none-eabi/include/c++/10.3.1/cmath **** 
 308:/Library/DaisyToolchain/0.2.0/arm/arm-none-eabi/include/c++/10.3.1/cmath ****   template<typename _Tp>
 309:/Library/DaisyToolchain/0.2.0/arm/arm-none-eabi/include/c++/10.3.1/cmath ****     inline _GLIBCXX_CONSTEXPR
 310:/Library/DaisyToolchain/0.2.0/arm/arm-none-eabi/include/c++/10.3.1/cmath ****     typename __gnu_cxx::__enable_if<__is_integer<_Tp>::__value, 
 311:/Library/DaisyToolchain/0.2.0/arm/arm-none-eabi/include/c++/10.3.1/cmath ****                                     double>::__type
 312:/Library/DaisyToolchain/0.2.0/arm/arm-none-eabi/include/c++/10.3.1/cmath ****     frexp(_Tp __x, int* __exp)
 313:/Library/DaisyToolchain/0.2.0/arm/arm-none-eabi/include/c++/10.3.1/cmath ****     { return __builtin_frexp(__x, __exp); }
 314:/Library/DaisyToolchain/0.2.0/arm/arm-none-eabi/include/c++/10.3.1/cmath **** 
 315:/Library/DaisyToolchain/0.2.0/arm/arm-none-eabi/include/c++/10.3.1/cmath ****   using ::ldexp;
 316:/Library/DaisyToolchain/0.2.0/arm/arm-none-eabi/include/c++/10.3.1/cmath **** 
 317:/Library/DaisyToolchain/0.2.0/arm/arm-none-eabi/include/c++/10.3.1/cmath **** #ifndef __CORRECT_ISO_CPP_MATH_H_PROTO
 318:/Library/DaisyToolchain/0.2.0/arm/arm-none-eabi/include/c++/10.3.1/cmath ****   inline _GLIBCXX_CONSTEXPR float
 319:/Library/DaisyToolchain/0.2.0/arm/arm-none-eabi/include/c++/10.3.1/cmath ****   ldexp(float __x, int __exp)
 320:/Library/DaisyToolchain/0.2.0/arm/arm-none-eabi/include/c++/10.3.1/cmath ****   { return __builtin_ldexpf(__x, __exp); }
 321:/Library/DaisyToolchain/0.2.0/arm/arm-none-eabi/include/c++/10.3.1/cmath **** 
 322:/Library/DaisyToolchain/0.2.0/arm/arm-none-eabi/include/c++/10.3.1/cmath ****   inline _GLIBCXX_CONSTEXPR long double
 323:/Library/DaisyToolchain/0.2.0/arm/arm-none-eabi/include/c++/10.3.1/cmath ****   ldexp(long double __x, int __exp)
 324:/Library/DaisyToolchain/0.2.0/arm/arm-none-eabi/include/c++/10.3.1/cmath ****   { return __builtin_ldexpl(__x, __exp); }
 325:/Library/DaisyToolchain/0.2.0/arm/arm-none-eabi/include/c++/10.3.1/cmath **** #endif
 326:/Library/DaisyToolchain/0.2.0/arm/arm-none-eabi/include/c++/10.3.1/cmath **** 
 327:/Library/DaisyToolchain/0.2.0/arm/arm-none-eabi/include/c++/10.3.1/cmath ****   template<typename _Tp>
 328:/Library/DaisyToolchain/0.2.0/arm/arm-none-eabi/include/c++/10.3.1/cmath ****     inline _GLIBCXX_CONSTEXPR
 329:/Library/DaisyToolchain/0.2.0/arm/arm-none-eabi/include/c++/10.3.1/cmath ****     typename __gnu_cxx::__enable_if<__is_integer<_Tp>::__value, 
 330:/Library/DaisyToolchain/0.2.0/arm/arm-none-eabi/include/c++/10.3.1/cmath ****                                     double>::__type
 331:/Library/DaisyToolchain/0.2.0/arm/arm-none-eabi/include/c++/10.3.1/cmath ****     ldexp(_Tp __x, int __exp)
 332:/Library/DaisyToolchain/0.2.0/arm/arm-none-eabi/include/c++/10.3.1/cmath ****     { return __builtin_ldexp(__x, __exp); }
 333:/Library/DaisyToolchain/0.2.0/arm/arm-none-eabi/include/c++/10.3.1/cmath **** 
 334:/Library/DaisyToolchain/0.2.0/arm/arm-none-eabi/include/c++/10.3.1/cmath ****   using ::log;
 335:/Library/DaisyToolchain/0.2.0/arm/arm-none-eabi/include/c++/10.3.1/cmath **** 
 336:/Library/DaisyToolchain/0.2.0/arm/arm-none-eabi/include/c++/10.3.1/cmath **** #ifndef __CORRECT_ISO_CPP_MATH_H_PROTO
 337:/Library/DaisyToolchain/0.2.0/arm/arm-none-eabi/include/c++/10.3.1/cmath ****   inline _GLIBCXX_CONSTEXPR float
 338:/Library/DaisyToolchain/0.2.0/arm/arm-none-eabi/include/c++/10.3.1/cmath ****   log(float __x)
 339:/Library/DaisyToolchain/0.2.0/arm/arm-none-eabi/include/c++/10.3.1/cmath ****   { return __builtin_logf(__x); }
 340:/Library/DaisyToolchain/0.2.0/arm/arm-none-eabi/include/c++/10.3.1/cmath **** 
 341:/Library/DaisyToolchain/0.2.0/arm/arm-none-eabi/include/c++/10.3.1/cmath ****   inline _GLIBCXX_CONSTEXPR long double
 342:/Library/DaisyToolchain/0.2.0/arm/arm-none-eabi/include/c++/10.3.1/cmath ****   log(long double __x)
 343:/Library/DaisyToolchain/0.2.0/arm/arm-none-eabi/include/c++/10.3.1/cmath ****   { return __builtin_logl(__x); }
 344:/Library/DaisyToolchain/0.2.0/arm/arm-none-eabi/include/c++/10.3.1/cmath **** #endif
 345:/Library/DaisyToolchain/0.2.0/arm/arm-none-eabi/include/c++/10.3.1/cmath **** 
 346:/Library/DaisyToolchain/0.2.0/arm/arm-none-eabi/include/c++/10.3.1/cmath ****   template<typename _Tp>
 347:/Library/DaisyToolchain/0.2.0/arm/arm-none-eabi/include/c++/10.3.1/cmath ****     inline _GLIBCXX_CONSTEXPR
 348:/Library/DaisyToolchain/0.2.0/arm/arm-none-eabi/include/c++/10.3.1/cmath ****     typename __gnu_cxx::__enable_if<__is_integer<_Tp>::__value, 
 349:/Library/DaisyToolchain/0.2.0/arm/arm-none-eabi/include/c++/10.3.1/cmath ****                                     double>::__type
 350:/Library/DaisyToolchain/0.2.0/arm/arm-none-eabi/include/c++/10.3.1/cmath ****     log(_Tp __x)
ARM GAS  /var/folders/hl/qgbwny5j0fd895c2c41bk3tw0000gp/T//cc1L1gWC.s 			page 50


 351:/Library/DaisyToolchain/0.2.0/arm/arm-none-eabi/include/c++/10.3.1/cmath ****     { return __builtin_log(__x); }
 352:/Library/DaisyToolchain/0.2.0/arm/arm-none-eabi/include/c++/10.3.1/cmath **** 
 353:/Library/DaisyToolchain/0.2.0/arm/arm-none-eabi/include/c++/10.3.1/cmath ****   using ::log10;
 354:/Library/DaisyToolchain/0.2.0/arm/arm-none-eabi/include/c++/10.3.1/cmath **** 
 355:/Library/DaisyToolchain/0.2.0/arm/arm-none-eabi/include/c++/10.3.1/cmath **** #ifndef __CORRECT_ISO_CPP_MATH_H_PROTO
 356:/Library/DaisyToolchain/0.2.0/arm/arm-none-eabi/include/c++/10.3.1/cmath ****   inline _GLIBCXX_CONSTEXPR float
 357:/Library/DaisyToolchain/0.2.0/arm/arm-none-eabi/include/c++/10.3.1/cmath ****   log10(float __x)
 358:/Library/DaisyToolchain/0.2.0/arm/arm-none-eabi/include/c++/10.3.1/cmath ****   { return __builtin_log10f(__x); }
 359:/Library/DaisyToolchain/0.2.0/arm/arm-none-eabi/include/c++/10.3.1/cmath **** 
 360:/Library/DaisyToolchain/0.2.0/arm/arm-none-eabi/include/c++/10.3.1/cmath ****   inline _GLIBCXX_CONSTEXPR long double
 361:/Library/DaisyToolchain/0.2.0/arm/arm-none-eabi/include/c++/10.3.1/cmath ****   log10(long double __x)
 362:/Library/DaisyToolchain/0.2.0/arm/arm-none-eabi/include/c++/10.3.1/cmath ****   { return __builtin_log10l(__x); }
 363:/Library/DaisyToolchain/0.2.0/arm/arm-none-eabi/include/c++/10.3.1/cmath **** #endif
 364:/Library/DaisyToolchain/0.2.0/arm/arm-none-eabi/include/c++/10.3.1/cmath **** 
 365:/Library/DaisyToolchain/0.2.0/arm/arm-none-eabi/include/c++/10.3.1/cmath ****   template<typename _Tp>
 366:/Library/DaisyToolchain/0.2.0/arm/arm-none-eabi/include/c++/10.3.1/cmath ****     inline _GLIBCXX_CONSTEXPR
 367:/Library/DaisyToolchain/0.2.0/arm/arm-none-eabi/include/c++/10.3.1/cmath ****     typename __gnu_cxx::__enable_if<__is_integer<_Tp>::__value,
 368:/Library/DaisyToolchain/0.2.0/arm/arm-none-eabi/include/c++/10.3.1/cmath ****                                     double>::__type
 369:/Library/DaisyToolchain/0.2.0/arm/arm-none-eabi/include/c++/10.3.1/cmath ****     log10(_Tp __x)
 370:/Library/DaisyToolchain/0.2.0/arm/arm-none-eabi/include/c++/10.3.1/cmath ****     { return __builtin_log10(__x); }
 371:/Library/DaisyToolchain/0.2.0/arm/arm-none-eabi/include/c++/10.3.1/cmath **** 
 372:/Library/DaisyToolchain/0.2.0/arm/arm-none-eabi/include/c++/10.3.1/cmath ****   using ::modf;
 373:/Library/DaisyToolchain/0.2.0/arm/arm-none-eabi/include/c++/10.3.1/cmath **** 
 374:/Library/DaisyToolchain/0.2.0/arm/arm-none-eabi/include/c++/10.3.1/cmath **** #ifndef __CORRECT_ISO_CPP_MATH_H_PROTO
 375:/Library/DaisyToolchain/0.2.0/arm/arm-none-eabi/include/c++/10.3.1/cmath ****   inline float
 376:/Library/DaisyToolchain/0.2.0/arm/arm-none-eabi/include/c++/10.3.1/cmath ****   modf(float __x, float* __iptr)
 377:/Library/DaisyToolchain/0.2.0/arm/arm-none-eabi/include/c++/10.3.1/cmath ****   { return __builtin_modff(__x, __iptr); }
 378:/Library/DaisyToolchain/0.2.0/arm/arm-none-eabi/include/c++/10.3.1/cmath **** 
 379:/Library/DaisyToolchain/0.2.0/arm/arm-none-eabi/include/c++/10.3.1/cmath ****   inline long double
 380:/Library/DaisyToolchain/0.2.0/arm/arm-none-eabi/include/c++/10.3.1/cmath ****   modf(long double __x, long double* __iptr)
 381:/Library/DaisyToolchain/0.2.0/arm/arm-none-eabi/include/c++/10.3.1/cmath ****   { return __builtin_modfl(__x, __iptr); }
 382:/Library/DaisyToolchain/0.2.0/arm/arm-none-eabi/include/c++/10.3.1/cmath **** #endif
 383:/Library/DaisyToolchain/0.2.0/arm/arm-none-eabi/include/c++/10.3.1/cmath **** 
 384:/Library/DaisyToolchain/0.2.0/arm/arm-none-eabi/include/c++/10.3.1/cmath ****   using ::pow;
 385:/Library/DaisyToolchain/0.2.0/arm/arm-none-eabi/include/c++/10.3.1/cmath **** 
 386:/Library/DaisyToolchain/0.2.0/arm/arm-none-eabi/include/c++/10.3.1/cmath **** #ifndef __CORRECT_ISO_CPP_MATH_H_PROTO
 387:/Library/DaisyToolchain/0.2.0/arm/arm-none-eabi/include/c++/10.3.1/cmath ****   inline _GLIBCXX_CONSTEXPR float
 388:/Library/DaisyToolchain/0.2.0/arm/arm-none-eabi/include/c++/10.3.1/cmath ****   pow(float __x, float __y)
 389:/Library/DaisyToolchain/0.2.0/arm/arm-none-eabi/include/c++/10.3.1/cmath ****   { return __builtin_powf(__x, __y); }
 390:/Library/DaisyToolchain/0.2.0/arm/arm-none-eabi/include/c++/10.3.1/cmath **** 
 391:/Library/DaisyToolchain/0.2.0/arm/arm-none-eabi/include/c++/10.3.1/cmath ****   inline _GLIBCXX_CONSTEXPR long double
 392:/Library/DaisyToolchain/0.2.0/arm/arm-none-eabi/include/c++/10.3.1/cmath ****   pow(long double __x, long double __y)
 393:/Library/DaisyToolchain/0.2.0/arm/arm-none-eabi/include/c++/10.3.1/cmath ****   { return __builtin_powl(__x, __y); }
 394:/Library/DaisyToolchain/0.2.0/arm/arm-none-eabi/include/c++/10.3.1/cmath **** 
 395:/Library/DaisyToolchain/0.2.0/arm/arm-none-eabi/include/c++/10.3.1/cmath **** #if __cplusplus < 201103L
 396:/Library/DaisyToolchain/0.2.0/arm/arm-none-eabi/include/c++/10.3.1/cmath ****   // _GLIBCXX_RESOLVE_LIB_DEFECTS
 397:/Library/DaisyToolchain/0.2.0/arm/arm-none-eabi/include/c++/10.3.1/cmath ****   // DR 550. What should the return type of pow(float,int) be?
 398:/Library/DaisyToolchain/0.2.0/arm/arm-none-eabi/include/c++/10.3.1/cmath ****   inline double
 399:/Library/DaisyToolchain/0.2.0/arm/arm-none-eabi/include/c++/10.3.1/cmath ****   pow(double __x, int __i)
 400:/Library/DaisyToolchain/0.2.0/arm/arm-none-eabi/include/c++/10.3.1/cmath ****   { return __builtin_powi(__x, __i); }
 401:/Library/DaisyToolchain/0.2.0/arm/arm-none-eabi/include/c++/10.3.1/cmath **** 
 402:/Library/DaisyToolchain/0.2.0/arm/arm-none-eabi/include/c++/10.3.1/cmath ****   inline float
 403:/Library/DaisyToolchain/0.2.0/arm/arm-none-eabi/include/c++/10.3.1/cmath ****   pow(float __x, int __n)
 404:/Library/DaisyToolchain/0.2.0/arm/arm-none-eabi/include/c++/10.3.1/cmath ****   { return __builtin_powif(__x, __n); }
 405:/Library/DaisyToolchain/0.2.0/arm/arm-none-eabi/include/c++/10.3.1/cmath **** 
 406:/Library/DaisyToolchain/0.2.0/arm/arm-none-eabi/include/c++/10.3.1/cmath ****   inline long double
 407:/Library/DaisyToolchain/0.2.0/arm/arm-none-eabi/include/c++/10.3.1/cmath ****   pow(long double __x, int __n)
ARM GAS  /var/folders/hl/qgbwny5j0fd895c2c41bk3tw0000gp/T//cc1L1gWC.s 			page 51


 408:/Library/DaisyToolchain/0.2.0/arm/arm-none-eabi/include/c++/10.3.1/cmath ****   { return __builtin_powil(__x, __n); }
 409:/Library/DaisyToolchain/0.2.0/arm/arm-none-eabi/include/c++/10.3.1/cmath **** #endif
 410:/Library/DaisyToolchain/0.2.0/arm/arm-none-eabi/include/c++/10.3.1/cmath **** #endif
 411:/Library/DaisyToolchain/0.2.0/arm/arm-none-eabi/include/c++/10.3.1/cmath **** 
 412:/Library/DaisyToolchain/0.2.0/arm/arm-none-eabi/include/c++/10.3.1/cmath ****   template<typename _Tp, typename _Up>
 413:/Library/DaisyToolchain/0.2.0/arm/arm-none-eabi/include/c++/10.3.1/cmath ****     inline _GLIBCXX_CONSTEXPR
 414:/Library/DaisyToolchain/0.2.0/arm/arm-none-eabi/include/c++/10.3.1/cmath ****     typename __gnu_cxx::__promote_2<_Tp, _Up>::__type
 415:/Library/DaisyToolchain/0.2.0/arm/arm-none-eabi/include/c++/10.3.1/cmath ****     pow(_Tp __x, _Up __y)
 416:/Library/DaisyToolchain/0.2.0/arm/arm-none-eabi/include/c++/10.3.1/cmath ****     {
 417:/Library/DaisyToolchain/0.2.0/arm/arm-none-eabi/include/c++/10.3.1/cmath ****       typedef typename __gnu_cxx::__promote_2<_Tp, _Up>::__type __type;
 418:/Library/DaisyToolchain/0.2.0/arm/arm-none-eabi/include/c++/10.3.1/cmath ****       return pow(__type(__x), __type(__y));
 419:/Library/DaisyToolchain/0.2.0/arm/arm-none-eabi/include/c++/10.3.1/cmath ****     }
 420:/Library/DaisyToolchain/0.2.0/arm/arm-none-eabi/include/c++/10.3.1/cmath **** 
 421:/Library/DaisyToolchain/0.2.0/arm/arm-none-eabi/include/c++/10.3.1/cmath ****   using ::sin;
 422:/Library/DaisyToolchain/0.2.0/arm/arm-none-eabi/include/c++/10.3.1/cmath **** 
 423:/Library/DaisyToolchain/0.2.0/arm/arm-none-eabi/include/c++/10.3.1/cmath **** #ifndef __CORRECT_ISO_CPP_MATH_H_PROTO
 424:/Library/DaisyToolchain/0.2.0/arm/arm-none-eabi/include/c++/10.3.1/cmath ****   inline _GLIBCXX_CONSTEXPR float
 425:/Library/DaisyToolchain/0.2.0/arm/arm-none-eabi/include/c++/10.3.1/cmath ****   sin(float __x)
 1097              		.loc 14 425 3 view .LVU281
 1098              	.LBB699:
 426:/Library/DaisyToolchain/0.2.0/arm/arm-none-eabi/include/c++/10.3.1/cmath ****   { return __builtin_sinf(__x); }
 1099              		.loc 14 426 5 view .LVU282
 1100              	.LBE699:
 1101              	.LBE698:
 1102              	.LBE697:
 1103              	.LBE696:
  74:customLooper.h ****         switch(state_)
 1104              		.loc 10 74 25 is_stmt 0 view .LVU283
 1105 00f0 9FEDA27A 		vldr.32	s14, .L89+36
 1106 00f4 07EE90BA 		vmov	s15, fp	@ int
 1107              	.LBB711:
 1108              	.LBB706:
 1109              		.loc 10 304 43 view .LVU284
 1110 00f8 9FEDA10A 		vldr.32	s0, .L89+40
 1111              	.LBE706:
 1112              	.LBE711:
  74:customLooper.h ****         switch(state_)
 1113              		.loc 10 74 25 view .LVU285
 1114 00fc F8EE677A 		vcvt.f32.u32	s15, s15
 1115 0100 67EE877A 		vmul.f32	s15, s15, s14
 1116              	.LVL61:
 1117              	.LBB712:
 1118              	.LBB707:
 1119              	.LBB703:
 1120              	.LBB700:
 1121              		.loc 14 426 26 view .LVU286
 1122 0104 27EE800A 		vmul.f32	s0, s15, s0
 1123              	.LVL62:
 1124              		.loc 14 426 26 view .LVU287
 1125 0108 FFF7FEFF 		bl	sinf
 1126              	.LVL63:
 1127              		.loc 14 426 26 view .LVU288
 1128              	.LBE700:
 1129              	.LBE703:
 1130              	.LBE707:
 1131              	.LBE712:
  75:customLooper.h ****         {
ARM GAS  /var/folders/hl/qgbwny5j0fd895c2c41bk3tw0000gp/T//cc1L1gWC.s 			page 52


 1132              		.loc 10 75 9 view .LVU289
 1133 010c B9F1020F 		cmp	r9, #2
  74:customLooper.h ****         switch(state_)
 1134              		.loc 10 74 14 view .LVU290
 1135 0110 84ED050A 		vstr.32	s0, [r4, #20]
  75:customLooper.h ****         {
 1136              		.loc 10 75 9 is_stmt 1 view .LVU291
 1137 0114 00F0C280 		beq	.L62
 1138 0118 B9F1030F 		cmp	r9, #3
 1139 011c 00F08580 		beq	.L63
 1140              	.LVL64:
 159:customLooper.h ****                               ? true
 1141              		.loc 10 159 9 view .LVU292
 1142              	.LBB713:
 1143              	.LBI713:
 200:customLooper.h ****     {
 1144              		.loc 10 200 23 view .LVU293
 1145              	.LBB714:
 202:customLooper.h ****     }
 1146              		.loc 10 202 9 view .LVU294
 202:customLooper.h ****     }
 1147              		.loc 10 202 41 is_stmt 0 view .LVU295
 1148 0120 29F00201 		bic	r1, r9, #2
 1149              	.LBE714:
 1150              	.LBE713:
 159:customLooper.h ****                               ? true
 1151              		.loc 10 159 50 view .LVU296
 1152 0124 0129     		cmp	r1, #1
 1153 0126 17D0     		beq	.L69
  67:customLooper.h ****         float inc;
 1154              		.loc 10 67 15 view .LVU297
 1155 0128 9FED967A 		vldr.32	s14, .L89+44
 1156 012c 6FE0     		b	.L45
 1157              	.LVL65:
 1158              	.L38:
  74:customLooper.h ****         switch(state_)
 1159              		.loc 10 74 9 is_stmt 1 view .LVU298
  74:customLooper.h ****         switch(state_)
 1160              		.loc 10 74 26 is_stmt 0 view .LVU299
 1161 012e D4F818B0 		ldr	fp, [r4, #24]
 1162              	.LVL66:
 1163              	.LBB718:
 1164              		.loc 10 304 11 is_stmt 1 view .LVU300
 1165              	.LBB708:
 1166              		.loc 10 304 33 view .LVU301
 1167              	.LBB704:
 425:/Library/DaisyToolchain/0.2.0/arm/arm-none-eabi/include/c++/10.3.1/cmath ****   { return __builtin_sinf(__x); }
 1168              		.loc 14 425 3 view .LVU302
 1169              	.LBB701:
 1170              		.loc 14 426 5 view .LVU303
 1171              	.LBE701:
 1172              	.LBE704:
 1173              	.LBE708:
 1174              	.LBE718:
  74:customLooper.h ****         switch(state_)
 1175              		.loc 10 74 25 is_stmt 0 view .LVU304
 1176 0132 9FED927A 		vldr.32	s14, .L89+36
ARM GAS  /var/folders/hl/qgbwny5j0fd895c2c41bk3tw0000gp/T//cc1L1gWC.s 			page 53


 1177 0136 07EE90BA 		vmov	s15, fp	@ int
 1178              	.LBB719:
 1179              	.LBB709:
 1180              		.loc 10 304 43 view .LVU305
 1181 013a 9FED910A 		vldr.32	s0, .L89+40
 1182              	.LBE709:
 1183              	.LBE719:
  74:customLooper.h ****         switch(state_)
 1184              		.loc 10 74 25 view .LVU306
 1185 013e F8EE677A 		vcvt.f32.u32	s15, s15
 1186 0142 67EE877A 		vmul.f32	s15, s15, s14
 1187              	.LVL67:
 1188              	.LBB720:
 1189              	.LBB710:
 1190              	.LBB705:
 1191              	.LBB702:
 1192              		.loc 14 426 26 view .LVU307
 1193 0146 27EE800A 		vmul.f32	s0, s15, s0
 1194              	.LVL68:
 1195              		.loc 14 426 26 view .LVU308
 1196 014a FFF7FEFF 		bl	sinf
 1197              	.LVL69:
 1198              		.loc 14 426 26 view .LVU309
 1199              	.LBE702:
 1200              	.LBE705:
 1201              	.LBE710:
 1202              	.LBE720:
  75:customLooper.h ****         {
 1203              		.loc 10 75 9 view .LVU310
 1204 014e B9F1010F 		cmp	r9, #1
  74:customLooper.h ****         switch(state_)
 1205              		.loc 10 74 14 view .LVU311
 1206 0152 84ED050A 		vstr.32	s0, [r4, #20]
  75:customLooper.h ****         {
 1207              		.loc 10 75 9 is_stmt 1 view .LVU312
 1208 0156 20D0     		beq	.L88
 1209              	.LVL70:
 1210              	.L69:
  67:customLooper.h ****         float inc;
 1211              		.loc 10 67 15 is_stmt 0 view .LVU313
 1212 0158 9FED8A7A 		vldr.32	s14, .L89+44
 1213              	.LVL71:
 1214              	.L87:
 160:customLooper.h ****                               : false;
 1215              		.loc 10 160 31 view .LVU314
 1216 015c 4FF0000C 		mov	ip, #0
 1217              	.L41:
 1218              	.LBE755:
 1219              	.LBE759:
 1220              		.loc 12 51 49 view .LVU315
 1221 0160 A9EE878A 		vfma.f32	s16, s19, s14
 1222              	.LVL72:
  52:Convolution.cpp **** 
  53:Convolution.cpp **** 		float outs;
  54:Convolution.cpp **** 		rev.Process(sig,sig,&outs,&outs);
 1223              		.loc 12 54 14 view .LVU316
 1224 0164 04AA     		add	r2, sp, #16
ARM GAS  /var/folders/hl/qgbwny5j0fd895c2c41bk3tw0000gp/T//cc1L1gWC.s 			page 54


 1225 0166 3346     		mov	r3, r6
 1226 0168 0096     		str	r6, [sp]
 1227 016a 1146     		mov	r1, r2
 1228 016c 8048     		ldr	r0, .L89+24
 1229              	.LBB760:
 1230              	.LBB756:
 159:customLooper.h ****                               ? true
 1231              		.loc 10 159 25 view .LVU317
 1232 016e 84F825C0 		strb	ip, [r4, #37]
 163:customLooper.h ****     }
 1233              		.loc 10 163 9 is_stmt 1 view .LVU318
 1234              	.LVL73:
 163:customLooper.h ****     }
 1235              		.loc 10 163 9 is_stmt 0 view .LVU319
 1236              	.LBE756:
 1237              	.LBE760:
 1238              	.LBE691:
  48:Convolution.cpp **** 	{
 1239              		.loc 12 48 2 view .LVU320
 1240 0172 0135     		adds	r5, r5, #1
 1241              	.LVL74:
 1242              	.LBB762:
  51:Convolution.cpp **** 
 1243              		.loc 12 51 51 view .LVU321
 1244 0174 8DED048A 		vstr.32	s16, [sp, #16]
  53:Convolution.cpp **** 		rev.Process(sig,sig,&outs,&outs);
 1245              		.loc 12 53 3 is_stmt 1 view .LVU322
 1246              		.loc 12 54 3 view .LVU323
 1247              		.loc 12 54 14 is_stmt 0 view .LVU324
 1248 0178 FFF7FEFF 		bl	_ZN7daisysp8ReverbSc7ProcessERKfS2_PfS3_
 1249              	.LVL75:
  55:Convolution.cpp **** 
  56:Convolution.cpp **** 		OUT_L[i] = outs;
 1250              		.loc 12 56 3 is_stmt 1 view .LVU325
 1251              		.loc 12 56 12 is_stmt 0 view .LVU326
 1252 017c 0599     		ldr	r1, [sp, #20]	@ float
  57:Convolution.cpp **** 		OUT_R[i] = outs;
 1253              		.loc 12 57 12 view .LVU327
 1254 017e D8E90023 		ldrd	r2, r3, [r8]
 1255 0182 5344     		add	r3, r3, r10
  56:Convolution.cpp **** 		OUT_R[i] = outs;
 1256              		.loc 12 56 12 view .LVU328
 1257 0184 5244     		add	r2, r2, r10
 1258 0186 1160     		str	r1, [r2]	@ float
 1259              		.loc 12 57 3 is_stmt 1 view .LVU329
 1260              		.loc 12 57 12 is_stmt 0 view .LVU330
 1261 0188 1960     		str	r1, [r3]	@ float
 1262              	.LBE762:
  48:Convolution.cpp **** 	{
 1263              		.loc 12 48 2 is_stmt 1 view .LVU331
 1264              	.LVL76:
  48:Convolution.cpp **** 	{
 1265              		.loc 12 48 23 view .LVU332
 1266 018a 039B     		ldr	r3, [sp, #12]
 1267 018c AB42     		cmp	r3, r5
 1268 018e 8CD1     		bne	.L37
 1269              	.LVL77:
ARM GAS  /var/folders/hl/qgbwny5j0fd895c2c41bk3tw0000gp/T//cc1L1gWC.s 			page 55


 1270              	.L36:
  48:Convolution.cpp **** 	{
 1271              		.loc 12 48 23 is_stmt 0 view .LVU333
 1272              	.LBE690:
  58:Convolution.cpp **** 	}
  59:Convolution.cpp **** }
 1273              		.loc 12 59 1 view .LVU334
 1274 0190 07B0     		add	sp, sp, #28
 1275              		.cfi_remember_state
 1276              		.cfi_def_cfa_offset 52
 1277              		@ sp needed
 1278 0192 BDEC048B 		vldm	sp!, {d8-d9}
 1279              		.cfi_restore 82
 1280              		.cfi_restore 83
 1281              		.cfi_restore 80
 1282              		.cfi_restore 81
 1283              		.cfi_def_cfa_offset 36
 1284              	.LVL78:
 1285              		.loc 12 59 1 view .LVU335
 1286 0196 BDE8F08F 		pop	{r4, r5, r6, r7, r8, r9, r10, fp, pc}
 1287              	.LVL79:
 1288              	.L88:
 1289              		.cfi_restore_state
 1290              	.LBB764:
 1291              	.LBB763:
 1292              	.LBB761:
 1293              	.LBB757:
  78:customLooper.h ****                 sig = 0.f;
 1294              		.loc 10 78 13 is_stmt 1 view .LVU336
  79:customLooper.h ****                 Write(pos_, input * win_);
 1295              		.loc 10 79 17 view .LVU337
  80:customLooper.h ****                 if(win_idx_ < kWindowSamps - 1)
 1296              		.loc 10 80 17 view .LVU338
 1297              	.LBB721:
 1298              	.LBI721:
 301:customLooper.h **** 
 1299              		.loc 10 301 17 view .LVU339
 1300              	.LBB722:
 301:customLooper.h **** 
 1301              		.loc 10 301 48 view .LVU340
 1302              	.LBE722:
 1303              	.LBE721:
  80:customLooper.h ****                 if(win_idx_ < kWindowSamps - 1)
 1304              		.loc 10 80 22 is_stmt 0 view .LVU341
 1305 019a D4ED047A 		vldr.32	s15, [r4, #16]
 1306 019e 28EE000A 		vmul.f32	s0, s16, s0
 1307              	.LVL80:
 1308              	.LBB725:
 1309              	.LBB723:
 301:customLooper.h **** 
 1310              		.loc 10 301 59 view .LVU342
 1311 01a2 A368     		ldr	r3, [r4, #8]
 1312              	.LBE723:
 1313              	.LBE725:
  80:customLooper.h ****                 if(win_idx_ < kWindowSamps - 1)
 1314              		.loc 10 80 22 view .LVU343
 1315 01a4 FCEEE77A 		vcvt.u32.f32	s15, s15
ARM GAS  /var/folders/hl/qgbwny5j0fd895c2c41bk3tw0000gp/T//cc1L1gWC.s 			page 56


 1316              	.LBB726:
 1317              	.LBB724:
 301:customLooper.h **** 
 1318              		.loc 10 301 59 view .LVU344
 1319 01a8 17EE902A 		vmov	r2, s15	@ int
 1320 01ac 03EB8203 		add	r3, r3, r2, lsl #2
 1321 01b0 83ED000A 		vstr.32	s0, [r3]
 1322              	.LVL81:
 301:customLooper.h **** 
 1323              		.loc 10 301 59 view .LVU345
 1324              	.LBE724:
 1325              	.LBE726:
  81:customLooper.h ****                     win_idx_ += 1;
 1326              		.loc 10 81 17 is_stmt 1 view .LVU346
 1327 01b4 40F2AE43 		movw	r3, #1198
 1328 01b8 9B45     		cmp	fp, r3
 1329 01ba 02D8     		bhi	.L42
  82:customLooper.h ****                 recsize_ = pos_;
 1330              		.loc 10 82 21 view .LVU347
  82:customLooper.h ****                 recsize_ = pos_;
 1331              		.loc 10 82 30 is_stmt 0 view .LVU348
 1332 01bc 0BF10103 		add	r3, fp, #1
 1333 01c0 A361     		str	r3, [r4, #24]
 1334              	.L42:
  83:customLooper.h ****                 pos_ += inc;
 1335              		.loc 10 83 17 is_stmt 1 view .LVU349
  83:customLooper.h ****                 pos_ += inc;
 1336              		.loc 10 83 28 is_stmt 0 view .LVU350
 1337 01c2 D4ED047A 		vldr.32	s15, [r4, #16]
  84:customLooper.h ****                 if(pos_ > buffer_size_ - 1)
 1338              		.loc 10 84 22 view .LVU351
 1339 01c6 F7EE006A 		vmov.f32	s13, #1.0e+0
  85:customLooper.h ****                 {
 1340              		.loc 10 85 40 view .LVU352
 1341 01ca E368     		ldr	r3, [r4, #12]
  83:customLooper.h ****                 pos_ += inc;
 1342              		.loc 10 83 26 view .LVU353
 1343 01cc BCEEE77A 		vcvt.u32.f32	s14, s15
  85:customLooper.h ****                 {
 1344              		.loc 10 85 40 view .LVU354
 1345 01d0 013B     		subs	r3, r3, #1
  84:customLooper.h ****                 if(pos_ > buffer_size_ - 1)
 1346              		.loc 10 84 22 view .LVU355
 1347 01d2 77EEA67A 		vadd.f32	s15, s15, s13
  83:customLooper.h ****                 pos_ += inc;
 1348              		.loc 10 83 26 view .LVU356
 1349 01d6 17EE102A 		vmov	r2, s14	@ int
  85:customLooper.h ****                 {
 1350              		.loc 10 85 25 view .LVU357
 1351 01da 07EE103A 		vmov	s14, r3	@ int
  84:customLooper.h ****                 if(pos_ > buffer_size_ - 1)
 1352              		.loc 10 84 22 view .LVU358
 1353 01de C4ED047A 		vstr.32	s15, [r4, #16]
  85:customLooper.h ****                 {
 1354              		.loc 10 85 25 view .LVU359
 1355 01e2 B8EE477A 		vcvt.f32.u32	s14, s14
  83:customLooper.h ****                 pos_ += inc;
ARM GAS  /var/folders/hl/qgbwny5j0fd895c2c41bk3tw0000gp/T//cc1L1gWC.s 			page 57


 1356              		.loc 10 83 26 view .LVU360
 1357 01e6 2262     		str	r2, [r4, #32]
  84:customLooper.h ****                 if(pos_ > buffer_size_ - 1)
 1358              		.loc 10 84 17 is_stmt 1 view .LVU361
  85:customLooper.h ****                 {
 1359              		.loc 10 85 17 view .LVU362
 1360 01e8 F4EEC77A 		vcmpe.f32	s15, s14
 1361 01ec F1EE10FA 		vmrs	APSR_nzcv, FPSCR
 1362 01f0 B2DD     		ble	.L69
  87:customLooper.h ****                     recsize_ = pos_ - 1;
 1363              		.loc 10 87 21 view .LVU363
  88:customLooper.h ****                     pos_     = 0;
 1364              		.loc 10 88 37 is_stmt 0 view .LVU364
 1365 01f2 77EEE67A 		vsub.f32	s15, s15, s13
  89:customLooper.h ****                 }
 1366              		.loc 10 89 30 view .LVU365
 1367 01f6 DFED636A 		vldr.32	s13, .L89+44
  87:customLooper.h ****                     recsize_ = pos_ - 1;
 1368              		.loc 10 87 30 view .LVU366
 1369 01fa 0223     		movs	r3, #2
  79:customLooper.h ****                 Write(pos_, input * win_);
 1370              		.loc 10 79 21 view .LVU367
 1371 01fc B0EE667A 		vmov.f32	s14, s13
  89:customLooper.h ****                 }
 1372              		.loc 10 89 30 view .LVU368
 1373 0200 C4ED046A 		vstr.32	s13, [r4, #16]
  88:customLooper.h ****                     pos_     = 0;
 1374              		.loc 10 88 30 view .LVU369
 1375 0204 FCEEE77A 		vcvt.u32.f32	s15, s15
  87:customLooper.h ****                     recsize_ = pos_ - 1;
 1376              		.loc 10 87 30 view .LVU370
 1377 0208 6360     		str	r3, [r4, #4]
  88:customLooper.h ****                     pos_     = 0;
 1378              		.loc 10 88 21 is_stmt 1 view .LVU371
  89:customLooper.h ****                 }
 1379              		.loc 10 89 21 view .LVU372
 1380              	.LVL82:
 159:customLooper.h ****                               ? true
 1381              		.loc 10 159 9 view .LVU373
 1382              	.LBB727:
 200:customLooper.h ****     {
 1383              		.loc 10 200 23 view .LVU374
 1384              	.LBB715:
 202:customLooper.h ****     }
 1385              		.loc 10 202 9 view .LVU375
 202:customLooper.h ****     }
 1386              		.loc 10 202 9 is_stmt 0 view .LVU376
 1387              	.LBE715:
 1388              	.LBE727:
  88:customLooper.h ****                     pos_     = 0;
 1389              		.loc 10 88 30 view .LVU377
 1390 020a C4ED087A 		vstr.32	s15, [r4, #32]	@ int
 1391              	.LVL83:
 1392              	.L45:
 160:customLooper.h ****                               : false;
 1393              		.loc 10 160 31 view .LVU378
 1394 020e D4ED046A 		vldr.32	s13, [r4, #16]
ARM GAS  /var/folders/hl/qgbwny5j0fd895c2c41bk3tw0000gp/T//cc1L1gWC.s 			page 58


 1395 0212 DFED5D7A 		vldr.32	s15, .L89+48
 1396 0216 F4EEE76A 		vcmpe.f32	s13, s15
 1397 021a F1EE10FA 		vmrs	APSR_nzcv, FPSCR
 1398 021e 4CBF     		ite	mi
 1399 0220 4FF0010C 		movmi	ip, #1
 1400 0224 4FF0000C 		movpl	ip, #0
 1401 0228 9AE7     		b	.L41
 1402              	.LVL84:
 1403              	.L63:
 125:customLooper.h ****                 sig = Read(pos_);
 1404              		.loc 10 125 13 is_stmt 1 view .LVU379
 126:customLooper.h ****                 switch(mode_)
 1405              		.loc 10 126 17 view .LVU380
 1406              	.LBB728:
 1407              	.LBI728:
 287:customLooper.h **** 
 1408              		.loc 10 287 24 view .LVU381
 1409              	.LBB729:
 287:customLooper.h **** 
 1410              		.loc 10 287 49 view .LVU382
 1411              	.LBE729:
 1412              	.LBE728:
 126:customLooper.h ****                 switch(mode_)
 1413              		.loc 10 126 27 is_stmt 0 view .LVU383
 1414 022a D4ED047A 		vldr.32	s15, [r4, #16]
 1415              	.LBB733:
 1416              	.LBB730:
 287:customLooper.h **** 
 1417              		.loc 10 287 65 view .LVU384
 1418 022e A268     		ldr	r2, [r4, #8]
 1419              	.LBE730:
 1420              	.LBE733:
 126:customLooper.h ****                 switch(mode_)
 1421              		.loc 10 126 27 view .LVU385
 1422 0230 FCEEE77A 		vcvt.u32.f32	s15, s15
 1423 0234 17EE903A 		vmov	r3, s15	@ int
 1424              	.LBB734:
 1425              	.LBB731:
 287:customLooper.h **** 
 1426              		.loc 10 287 65 view .LVU386
 1427 0238 02EB8303 		add	r3, r2, r3, lsl #2
 1428              	.LBE731:
 1429              	.LBE734:
 127:customLooper.h ****                 {
 1430              		.loc 10 127 24 view .LVU387
 1431 023c 2268     		ldr	r2, [r4]
 1432 023e 022A     		cmp	r2, #2
 1433              	.LBB735:
 1434              	.LBB732:
 287:customLooper.h **** 
 1435              		.loc 10 287 65 view .LVU388
 1436 0240 93ED007A 		vldr.32	s14, [r3]
 1437              	.LVL85:
 287:customLooper.h **** 
 1438              		.loc 10 287 65 view .LVU389
 1439              	.LBE732:
 1440              	.LBE735:
ARM GAS  /var/folders/hl/qgbwny5j0fd895c2c41bk3tw0000gp/T//cc1L1gWC.s 			page 59


 127:customLooper.h ****                 {
 1441              		.loc 10 127 17 is_stmt 1 view .LVU390
 1442 0244 00F08380 		beq	.L52
 1443 0248 032A     		cmp	r2, #3
 1444 024a 77D0     		beq	.L53
 133:customLooper.h ****                     case Mode::ONETIME_DUB:
 1445              		.loc 10 133 21 view .LVU391
 134:customLooper.h ****                     default: Write(pos_, (input * win_) + sig); break;
 1446              		.loc 10 134 21 view .LVU392
 135:customLooper.h ****                 }
 1447              		.loc 10 135 21 view .LVU393
 135:customLooper.h ****                 }
 1448              		.loc 10 135 30 view .LVU394
 135:customLooper.h ****                 }
 1449              		.loc 10 135 35 is_stmt 0 view .LVU395
 1450 024c F0EE477A 		vmov.f32	s15, s14
 1451 0250 E8EE007A 		vfma.f32	s15, s16, s0
 1452              	.LVL86:
 1453              	.LBB736:
 1454              	.LBI736:
 301:customLooper.h **** 
 1455              		.loc 10 301 17 is_stmt 1 view .LVU396
 1456              	.LBB737:
 301:customLooper.h **** 
 1457              		.loc 10 301 48 view .LVU397
 301:customLooper.h **** 
 1458              		.loc 10 301 59 is_stmt 0 view .LVU398
 1459 0254 C3ED007A 		vstr.32	s15, [r3]
 1460              	.LVL87:
 1461              	.L55:
 301:customLooper.h **** 
 1462              		.loc 10 301 59 view .LVU399
 1463              	.LBE737:
 1464              	.LBE736:
 137:customLooper.h ****                     win_idx_ += 1;
 1465              		.loc 10 137 17 is_stmt 1 view .LVU400
 1466 0258 40F2AE43 		movw	r3, #1198
 1467 025c 9B45     		cmp	fp, r3
 1468 025e 02D8     		bhi	.L56
 138:customLooper.h ****                 pos_ += inc;
 1469              		.loc 10 138 21 view .LVU401
 138:customLooper.h ****                 pos_ += inc;
 1470              		.loc 10 138 30 is_stmt 0 view .LVU402
 1471 0260 0BF10103 		add	r3, fp, #1
 1472 0264 A361     		str	r3, [r4, #24]
 1473              	.L56:
 139:customLooper.h ****                 if(pos_ > recsize_ - 1)
 1474              		.loc 10 139 17 is_stmt 1 view .LVU403
 140:customLooper.h ****                 {
 1475              		.loc 10 140 36 is_stmt 0 view .LVU404
 1476 0266 236A     		ldr	r3, [r4, #32]
 139:customLooper.h ****                 if(pos_ > recsize_ - 1)
 1477              		.loc 10 139 22 view .LVU405
 1478 0268 D4ED047A 		vldr.32	s15, [r4, #16]
 140:customLooper.h ****                 {
 1479              		.loc 10 140 36 view .LVU406
 1480 026c 013B     		subs	r3, r3, #1
ARM GAS  /var/folders/hl/qgbwny5j0fd895c2c41bk3tw0000gp/T//cc1L1gWC.s 			page 60


 139:customLooper.h ****                 if(pos_ > recsize_ - 1)
 1481              		.loc 10 139 22 view .LVU407
 1482 026e 78EEA78A 		vadd.f32	s17, s17, s15
 1483              	.LVL88:
 140:customLooper.h ****                 {
 1484              		.loc 10 140 25 view .LVU408
 1485 0272 07EE903A 		vmov	s15, r3	@ int
 1486 0276 F8EE677A 		vcvt.f32.u32	s15, s15
 139:customLooper.h ****                 if(pos_ > recsize_ - 1)
 1487              		.loc 10 139 22 view .LVU409
 1488 027a C4ED048A 		vstr.32	s17, [r4, #16]
 140:customLooper.h ****                 {
 1489              		.loc 10 140 17 is_stmt 1 view .LVU410
 1490 027e F4EEE78A 		vcmpe.f32	s17, s15
 1491 0282 F1EE10FA 		vmrs	APSR_nzcv, FPSCR
 1492 0286 47DD     		ble	.L84
 142:customLooper.h ****                     hitloop = true;
 1493              		.loc 10 142 21 view .LVU411
 142:customLooper.h ****                     hitloop = true;
 1494              		.loc 10 142 29 is_stmt 0 view .LVU412
 1495 0288 0023     		movs	r3, #0
 1496 028a 2361     		str	r3, [r4, #16]	@ float
 143:customLooper.h ****                 }
 1497              		.loc 10 143 21 is_stmt 1 view .LVU413
 1498              	.LVL89:
 150:customLooper.h ****                 {
 1499              		.loc 10 150 17 view .LVU414
 1500              	.L59:
 150:customLooper.h ****                 {
 1501              		.loc 10 150 28 is_stmt 0 view .LVU415
 1502 028c 012A     		cmp	r2, #1
 1503 028e 7FF465AF 		bne	.L87
 152:customLooper.h ****                     win_idx_ = 0;
 1504              		.loc 10 152 21 is_stmt 1 view .LVU416
 152:customLooper.h ****                     win_idx_ = 0;
 1505              		.loc 10 152 30 is_stmt 0 view .LVU417
 1506 0292 0223     		movs	r3, #2
 1507 0294 6360     		str	r3, [r4, #4]
 153:customLooper.h ****                 }
 1508              		.loc 10 153 21 is_stmt 1 view .LVU418
 153:customLooper.h ****                 }
 1509              		.loc 10 153 30 is_stmt 0 view .LVU419
 1510 0296 0023     		movs	r3, #0
 1511 0298 A361     		str	r3, [r4, #24]
 1512              	.LVL90:
 159:customLooper.h ****                               ? true
 1513              		.loc 10 159 9 is_stmt 1 view .LVU420
 1514              	.LBB738:
 200:customLooper.h ****     {
 1515              		.loc 10 200 23 view .LVU421
 1516              	.LBB716:
 202:customLooper.h ****     }
 1517              		.loc 10 202 9 view .LVU422
 202:customLooper.h ****     }
 1518              		.loc 10 202 9 is_stmt 0 view .LVU423
 1519 029a B8E7     		b	.L45
 1520              	.LVL91:
ARM GAS  /var/folders/hl/qgbwny5j0fd895c2c41bk3tw0000gp/T//cc1L1gWC.s 			page 61


 1521              	.L62:
 202:customLooper.h ****     }
 1522              		.loc 10 202 9 view .LVU424
 1523              	.LBE716:
 1524              	.LBE738:
  92:customLooper.h ****                 sig = Read(pos_);
 1525              		.loc 10 92 13 is_stmt 1 view .LVU425
  93:customLooper.h ****                 /** This is a way of 'seamless looping'
 1526              		.loc 10 93 17 view .LVU426
  93:customLooper.h ****                 /** This is a way of 'seamless looping'
 1527              		.loc 10 93 28 is_stmt 0 view .LVU427
 1528 029c D4ED047A 		vldr.32	s15, [r4, #16]
 1529              	.LVL92:
 1530              	.LBB739:
 1531              	.LBI739:
 287:customLooper.h **** 
 1532              		.loc 10 287 24 is_stmt 1 view .LVU428
 1533              	.LBB740:
 287:customLooper.h **** 
 1534              		.loc 10 287 49 view .LVU429
 287:customLooper.h **** 
 1535              		.loc 10 287 65 is_stmt 0 view .LVU430
 1536 02a0 A268     		ldr	r2, [r4, #8]
 1537              	.LBE740:
 1538              	.LBE739:
  93:customLooper.h ****                 /** This is a way of 'seamless looping'
 1539              		.loc 10 93 27 view .LVU431
 1540 02a2 BCEEE77A 		vcvt.u32.f32	s14, s15
 1541 02a6 17EE103A 		vmov	r3, s14	@ int
 1542              	.LBB743:
 1543              	.LBB741:
 287:customLooper.h **** 
 1544              		.loc 10 287 65 view .LVU432
 1545 02aa 02EB8303 		add	r3, r2, r3, lsl #2
 1546              	.LBE741:
 1547              	.LBE743:
  97:customLooper.h ****                 {
 1548              		.loc 10 97 17 view .LVU433
 1549 02ae 40F2AE42 		movw	r2, #1198
 1550 02b2 9345     		cmp	fp, r2
 1551              	.LBB744:
 1552              	.LBB742:
 287:customLooper.h **** 
 1553              		.loc 10 287 65 view .LVU434
 1554 02b4 93ED007A 		vldr.32	s14, [r3]
 1555              	.LVL93:
 287:customLooper.h **** 
 1556              		.loc 10 287 65 view .LVU435
 1557              	.LBE742:
 1558              	.LBE744:
  97:customLooper.h ****                 {
 1559              		.loc 10 97 17 is_stmt 1 view .LVU436
 1560 02b8 0ED8     		bhi	.L46
  99:customLooper.h ****                     win_idx_ += 1;
 1561              		.loc 10 99 21 view .LVU437
  99:customLooper.h ****                     win_idx_ += 1;
 1562              		.loc 10 99 52 is_stmt 0 view .LVU438
ARM GAS  /var/folders/hl/qgbwny5j0fd895c2c41bk3tw0000gp/T//cc1L1gWC.s 			page 62


 1563 02ba F7EE007A 		vmov.f32	s15, #1.0e+0
 100:customLooper.h ****                 }
 1564              		.loc 10 100 30 view .LVU439
 1565 02be 0BF10102 		add	r2, fp, #1
  99:customLooper.h ****                     win_idx_ += 1;
 1566              		.loc 10 99 52 view .LVU440
 1567 02c2 37EEC00A 		vsub.f32	s0, s15, s0
  99:customLooper.h ****                     win_idx_ += 1;
 1568              		.loc 10 99 26 view .LVU441
 1569 02c6 F0EE477A 		vmov.f32	s15, s14
 1570 02ca E8EE007A 		vfma.f32	s15, s16, s0
 1571              	.LVL94:
 1572              	.LBB745:
 1573              	.LBI745:
 301:customLooper.h **** 
 1574              		.loc 10 301 17 is_stmt 1 view .LVU442
 1575              	.LBB746:
 301:customLooper.h **** 
 1576              		.loc 10 301 48 view .LVU443
 301:customLooper.h **** 
 1577              		.loc 10 301 59 is_stmt 0 view .LVU444
 1578 02ce C3ED007A 		vstr.32	s15, [r3]
 1579              	.LVL95:
 301:customLooper.h **** 
 1580              		.loc 10 301 59 view .LVU445
 1581              	.LBE746:
 1582              	.LBE745:
 100:customLooper.h ****                 }
 1583              		.loc 10 100 21 is_stmt 1 view .LVU446
 103:customLooper.h ****                 if(pos_ > recsize_ - 1)
 1584              		.loc 10 103 22 is_stmt 0 view .LVU447
 1585 02d2 D4ED047A 		vldr.32	s15, [r4, #16]
 100:customLooper.h ****                 }
 1586              		.loc 10 100 30 view .LVU448
 1587 02d6 A261     		str	r2, [r4, #24]
 1588              	.L46:
 103:customLooper.h ****                 if(pos_ > recsize_ - 1)
 1589              		.loc 10 103 17 is_stmt 1 view .LVU449
 104:customLooper.h ****                 {
 1590              		.loc 10 104 36 is_stmt 0 view .LVU450
 1591 02d8 236A     		ldr	r3, [r4, #32]
 103:customLooper.h ****                 if(pos_ > recsize_ - 1)
 1592              		.loc 10 103 22 view .LVU451
 1593 02da 78EEA78A 		vadd.f32	s17, s17, s15
 1594              	.LVL96:
 104:customLooper.h ****                 {
 1595              		.loc 10 104 36 view .LVU452
 1596 02de 013B     		subs	r3, r3, #1
 103:customLooper.h ****                 if(pos_ > recsize_ - 1)
 1597              		.loc 10 103 22 view .LVU453
 1598 02e0 C4ED048A 		vstr.32	s17, [r4, #16]
 104:customLooper.h ****                 {
 1599              		.loc 10 104 17 is_stmt 1 view .LVU454
 104:customLooper.h ****                 {
 1600              		.loc 10 104 25 is_stmt 0 view .LVU455
 1601 02e4 07EE903A 		vmov	s15, r3	@ int
 1602 02e8 F8EE677A 		vcvt.f32.u32	s15, s15
ARM GAS  /var/folders/hl/qgbwny5j0fd895c2c41bk3tw0000gp/T//cc1L1gWC.s 			page 63


 104:customLooper.h ****                 {
 1603              		.loc 10 104 17 view .LVU456
 1604 02ec F4EEE78A 		vcmpe.f32	s17, s15
 1605 02f0 F1EE10FA 		vmrs	APSR_nzcv, FPSCR
 1606 02f4 19DD     		ble	.L82
 106:customLooper.h ****                     hitloop = true;
 1607              		.loc 10 106 21 is_stmt 1 view .LVU457
 106:customLooper.h ****                     hitloop = true;
 1608              		.loc 10 106 29 is_stmt 0 view .LVU458
 1609 02f6 0023     		movs	r3, #0
 1610 02f8 2361     		str	r3, [r4, #16]	@ float
 107:customLooper.h ****                 }
 1611              		.loc 10 107 21 is_stmt 1 view .LVU459
 1612              	.LVL97:
 114:customLooper.h **** 
 1613              		.loc 10 114 17 view .LVU460
 1614              	.L49:
 117:customLooper.h ****                     {
 1615              		.loc 10 117 21 view .LVU461
 1616 02fa 94F82430 		ldrb	r3, [r4, #36]	@ zero_extendqisi2
 1617 02fe 002B     		cmp	r3, #0
 1618 0300 85D0     		beq	.L45
 117:customLooper.h ****                     {
 1619              		.loc 10 117 35 is_stmt 0 view .LVU462
 1620 0302 2368     		ldr	r3, [r4]
 1621 0304 012B     		cmp	r3, #1
 1622 0306 82D1     		bne	.L45
 119:customLooper.h ****                         state_     = State::REC_DUB;
 1623              		.loc 10 119 25 is_stmt 1 view .LVU463
 119:customLooper.h ****                         state_     = State::REC_DUB;
 1624              		.loc 10 119 36 is_stmt 0 view .LVU464
 1625 0308 0023     		movs	r3, #0
 160:customLooper.h ****                               : false;
 1626              		.loc 10 160 31 view .LVU465
 1627 030a 9C46     		mov	ip, r3
 119:customLooper.h ****                         state_     = State::REC_DUB;
 1628              		.loc 10 119 36 view .LVU466
 1629 030c 84F82430 		strb	r3, [r4, #36]
 120:customLooper.h ****                         win_idx_   = 0;
 1630              		.loc 10 120 25 is_stmt 1 view .LVU467
 121:customLooper.h ****                     }
 1631              		.loc 10 121 36 is_stmt 0 view .LVU468
 1632 0310 A361     		str	r3, [r4, #24]
 120:customLooper.h ****                         win_idx_   = 0;
 1633              		.loc 10 120 36 view .LVU469
 1634 0312 0323     		movs	r3, #3
 1635 0314 6360     		str	r3, [r4, #4]
 121:customLooper.h ****                     }
 1636              		.loc 10 121 25 is_stmt 1 view .LVU470
 1637              	.LVL98:
 159:customLooper.h ****                               ? true
 1638              		.loc 10 159 9 view .LVU471
 1639              	.LBB747:
 200:customLooper.h ****     {
 1640              		.loc 10 200 23 view .LVU472
 1641              	.LBB717:
 202:customLooper.h ****     }
ARM GAS  /var/folders/hl/qgbwny5j0fd895c2c41bk3tw0000gp/T//cc1L1gWC.s 			page 64


 1642              		.loc 10 202 9 view .LVU473
 202:customLooper.h ****     }
 1643              		.loc 10 202 9 is_stmt 0 view .LVU474
 1644 0316 23E7     		b	.L41
 1645              	.LVL99:
 1646              	.L84:
 202:customLooper.h ****     }
 1647              		.loc 10 202 9 view .LVU475
 1648              	.LBE717:
 1649              	.LBE747:
 145:customLooper.h ****                 {
 1650              		.loc 10 145 22 is_stmt 1 view .LVU476
 1651 0318 F5EEC08A 		vcmpe.f32	s17, #0
 1652 031c F1EE10FA 		vmrs	APSR_nzcv, FPSCR
 1653 0320 7FF51CAF 		bpl	.L87
 147:customLooper.h ****                     hitloop = true;
 1654              		.loc 10 147 21 view .LVU477
 147:customLooper.h ****                     hitloop = true;
 1655              		.loc 10 147 29 is_stmt 0 view .LVU478
 1656 0324 C4ED047A 		vstr.32	s15, [r4, #16]
 148:customLooper.h ****                 }
 1657              		.loc 10 148 21 is_stmt 1 view .LVU479
 1658              	.LVL100:
 150:customLooper.h ****                 {
 1659              		.loc 10 150 17 view .LVU480
 1660 0328 B0E7     		b	.L59
 1661              	.LVL101:
 1662              	.L82:
 109:customLooper.h ****                 {
 1663              		.loc 10 109 22 view .LVU481
 1664 032a F5EEC08A 		vcmpe.f32	s17, #0
 1665 032e F1EE10FA 		vmrs	APSR_nzcv, FPSCR
 1666 0332 7FF56CAF 		bpl	.L45
 111:customLooper.h ****                     hitloop = true;
 1667              		.loc 10 111 21 view .LVU482
 111:customLooper.h ****                     hitloop = true;
 1668              		.loc 10 111 29 is_stmt 0 view .LVU483
 1669 0336 C4ED047A 		vstr.32	s15, [r4, #16]
 112:customLooper.h ****                 }
 1670              		.loc 10 112 21 is_stmt 1 view .LVU484
 1671              	.LVL102:
 114:customLooper.h **** 
 1672              		.loc 10 114 17 view .LVU485
 1673 033a DEE7     		b	.L49
 1674              	.LVL103:
 1675              	.L53:
 130:customLooper.h ****                         Write(pos_, (input * win_) + (sig * kFripDecayVal));
 1676              		.loc 10 130 21 view .LVU486
 131:customLooper.h ****                         break;
 1677              		.loc 10 131 25 view .LVU487
 131:customLooper.h ****                         break;
 1678              		.loc 10 131 59 is_stmt 0 view .LVU488
 1679 033c DFED137A 		vldr.32	s15, .L89+52
 1680 0340 67EE277A 		vmul.f32	s15, s14, s15
 131:customLooper.h ****                         break;
 1681              		.loc 10 131 30 view .LVU489
 1682 0344 E8EE007A 		vfma.f32	s15, s16, s0
ARM GAS  /var/folders/hl/qgbwny5j0fd895c2c41bk3tw0000gp/T//cc1L1gWC.s 			page 65


 1683              	.LVL104:
 1684              	.LBB748:
 1685              	.LBI748:
 301:customLooper.h **** 
 1686              		.loc 10 301 17 is_stmt 1 view .LVU490
 1687              	.LBB749:
 301:customLooper.h **** 
 1688              		.loc 10 301 48 view .LVU491
 301:customLooper.h **** 
 1689              		.loc 10 301 59 is_stmt 0 view .LVU492
 1690 0348 C3ED007A 		vstr.32	s15, [r3]
 1691              	.LVL105:
 301:customLooper.h **** 
 1692              		.loc 10 301 66 view .LVU493
 1693 034c 84E7     		b	.L55
 1694              	.LVL106:
 1695              	.L52:
 301:customLooper.h **** 
 1696              		.loc 10 301 66 view .LVU494
 1697              	.LBE749:
 1698              	.LBE748:
 129:customLooper.h ****                     case Mode::FRIPPERTRONICS:
 1699              		.loc 10 129 21 is_stmt 1 view .LVU495
 129:customLooper.h ****                     case Mode::FRIPPERTRONICS:
 1700              		.loc 10 129 41 view .LVU496
 1701              	.LBB750:
 1702              	.LBI750:
 301:customLooper.h **** 
 1703              		.loc 10 301 17 view .LVU497
 1704              	.LBB751:
 301:customLooper.h **** 
 1705              		.loc 10 301 48 view .LVU498
 1706              	.LBE751:
 1707              	.LBE750:
 129:customLooper.h ****                     case Mode::FRIPPERTRONICS:
 1708              		.loc 10 129 46 is_stmt 0 view .LVU499
 1709 034e 68EE007A 		vmul.f32	s15, s16, s0
 1710              	.LVL107:
 1711              	.LBB753:
 1712              	.LBB752:
 301:customLooper.h **** 
 1713              		.loc 10 301 59 view .LVU500
 1714 0352 C3ED007A 		vstr.32	s15, [r3]
 1715              	.LVL108:
 301:customLooper.h **** 
 1716              		.loc 10 301 66 view .LVU501
 1717 0356 7FE7     		b	.L55
 1718              	.L90:
 1719              		.align	2
 1720              	.L89:
 1721 0358 00000000 		.word	.LANCHOR18
 1722 035c 9A99993E 		.word	1050253722
 1723 0360 D7A3303F 		.word	1060152279
 1724 0364 A4707D3F 		.word	1065185444
 1725 0368 E731483F 		.word	1061695975
 1726 036c 00007A44 		.word	1148846080
 1727 0370 00000000 		.word	rev
ARM GAS  /var/folders/hl/qgbwny5j0fd895c2c41bk3tw0000gp/T//cc1L1gWC.s 			page 66


 1728 0374 00709446 		.word	1184133120
 1729 0378 00000000 		.word	.LANCHOR19
 1730 037c 0E745A3A 		.word	979006478
 1731 0380 DB0FC93F 		.word	1070141403
 1732 0384 00000000 		.word	0
 1733 0388 00009645 		.word	1167458304
 1734 038c F304353F 		.word	1060439283
 1735              	.LBE752:
 1736              	.LBE753:
 1737              	.LBE757:
 1738              	.LBE761:
 1739              	.LBE763:
 1740              	.LBE764:
 1741              		.cfi_endproc
 1742              	.LFE5075:
 1744              		.section	.text.startup.main,"ax",%progbits
 1745              		.align	1
 1746              		.p2align 2,,3
 1747              		.global	main
 1748              		.syntax unified
 1749              		.thumb
 1750              		.thumb_func
 1752              	main:
 1753              	.LFB5076:
  60:Convolution.cpp **** 
  61:Convolution.cpp **** int main(void)
  62:Convolution.cpp **** {
 1754              		.loc 12 62 1 is_stmt 1 view -0
 1755              		.cfi_startproc
 1756              		@ args = 0, pretend = 0, frame = 8
 1757              		@ frame_needed = 0, uses_anonymous_args = 0
  63:Convolution.cpp **** 	hw.Init();
 1758              		.loc 12 63 2 view .LVU503
  62:Convolution.cpp **** 	hw.Init();
 1759              		.loc 12 62 1 is_stmt 0 view .LVU504
 1760 0000 F0B5     		push	{r4, r5, r6, r7, lr}
 1761              		.cfi_def_cfa_offset 20
 1762              		.cfi_offset 4, -20
 1763              		.cfi_offset 5, -16
 1764              		.cfi_offset 6, -12
 1765              		.cfi_offset 7, -8
 1766              		.cfi_offset 14, -4
 1767              		.loc 12 63 9 view .LVU505
 1768 0002 3348     		ldr	r0, .L97
  62:Convolution.cpp **** 	hw.Init();
 1769              		.loc 12 62 1 view .LVU506
 1770 0004 83B0     		sub	sp, sp, #12
 1771              		.cfi_def_cfa_offset 32
 1772              		.loc 12 63 9 view .LVU507
 1773 0006 FFF7FEFF 		bl	_ZN5daisy8patch_sm12DaisyPatchSM4InitEv
 1774              	.LVL109:
  64:Convolution.cpp **** 	hw.SetAudioBlockSize(64); // number of samples handled per callback
 1775              		.loc 12 64 2 is_stmt 1 view .LVU508
 1776              		.loc 12 64 22 is_stmt 0 view .LVU509
 1777 000a 4021     		movs	r1, #64
 1778 000c 3048     		ldr	r0, .L97
 1779 000e FFF7FEFF 		bl	_ZN5daisy8patch_sm12DaisyPatchSM17SetAudioBlockSizeEj
ARM GAS  /var/folders/hl/qgbwny5j0fd895c2c41bk3tw0000gp/T//cc1L1gWC.s 			page 67


 1780              	.LVL110:
  65:Convolution.cpp **** 	hw.SetAudioSampleRate(SaiHandle::Config::SampleRate::SAI_48KHZ);
 1781              		.loc 12 65 2 is_stmt 1 view .LVU510
 1782              		.loc 12 65 23 is_stmt 0 view .LVU511
 1783 0012 0321     		movs	r1, #3
 1784 0014 2E48     		ldr	r0, .L97
 1785 0016 FFF7FEFF 		bl	_ZN5daisy8patch_sm12DaisyPatchSM18SetAudioSampleRateENS_9SaiHandle6Config10SampleRateE
 1786              	.LVL111:
  66:Convolution.cpp **** 	float sample_rate = hw.AudioSampleRate();
 1787              		.loc 12 66 2 is_stmt 1 view .LVU512
 1788              		.loc 12 66 40 is_stmt 0 view .LVU513
 1789 001a 2D48     		ldr	r0, .L97
 1790 001c FFF7FEFF 		bl	_ZN5daisy8patch_sm12DaisyPatchSM15AudioSampleRateEv
 1791              	.LVL112:
 1792              	.LBB784:
 1793              	.LBB785:
  52:customLooper.h ****         buff_        = mem;
 1794              		.loc 10 52 22 view .LVU514
 1795 0020 2C4D     		ldr	r5, .L97+4
 1796              	.LBE785:
 1797              	.LBE784:
 1798              		.loc 12 66 40 view .LVU515
 1799 0022 8DED010A 		vstr.32	s0, [sp, #4]	@ int
 1800              	.LVL113:
  67:Convolution.cpp **** 
  68:Convolution.cpp **** 	InitBed();
 1801              		.loc 12 68 2 is_stmt 1 view .LVU516
 1802              		.loc 12 68 9 is_stmt 0 view .LVU517
 1803 0026 FFF7FEFF 		bl	_ZN5daisy8patch_sm7InitBedEv
 1804              	.LVL114:
  69:Convolution.cpp **** 	loop.Init(buffer, kBuffSize);
 1805              		.loc 12 69 2 is_stmt 1 view .LVU518
 1806              	.LBB805:
 1807              	.LBI784:
  50:customLooper.h ****     {
 1808              		.loc 10 50 10 view .LVU519
 1809              	.LBB802:
  52:customLooper.h ****         buff_        = mem;
 1810              		.loc 10 52 9 view .LVU520
  52:customLooper.h ****         buff_        = mem;
 1811              		.loc 10 52 22 is_stmt 0 view .LVU521
 1812 002a 2B4B     		ldr	r3, .L97+8
 1813              	.LBB786:
 1814              	.LBB787:
 1815              	.LBB788:
 1816              	.LBB789:
 1817              	.LBB790:
 1818              		.file 15 "/Library/DaisyToolchain/0.2.0/arm/arm-none-eabi/include/c++/10.3.1/bits/stl_algobase.h"
   1:/Library/DaisyToolchain/0.2.0/arm/arm-none-eabi/include/c++/10.3.1/bits/stl_algobase.h **** // Core algorithmic facilities -*- C++ -*-
   2:/Library/DaisyToolchain/0.2.0/arm/arm-none-eabi/include/c++/10.3.1/bits/stl_algobase.h **** 
   3:/Library/DaisyToolchain/0.2.0/arm/arm-none-eabi/include/c++/10.3.1/bits/stl_algobase.h **** // Copyright (C) 2001-2020 Free Software Foundation, Inc.
   4:/Library/DaisyToolchain/0.2.0/arm/arm-none-eabi/include/c++/10.3.1/bits/stl_algobase.h **** //
   5:/Library/DaisyToolchain/0.2.0/arm/arm-none-eabi/include/c++/10.3.1/bits/stl_algobase.h **** // This file is part of the GNU ISO C++ Library.  This library is free
   6:/Library/DaisyToolchain/0.2.0/arm/arm-none-eabi/include/c++/10.3.1/bits/stl_algobase.h **** // software; you can redistribute it and/or modify it under the
   7:/Library/DaisyToolchain/0.2.0/arm/arm-none-eabi/include/c++/10.3.1/bits/stl_algobase.h **** // terms of the GNU General Public License as published by the
   8:/Library/DaisyToolchain/0.2.0/arm/arm-none-eabi/include/c++/10.3.1/bits/stl_algobase.h **** // Free Software Foundation; either version 3, or (at your option)
   9:/Library/DaisyToolchain/0.2.0/arm/arm-none-eabi/include/c++/10.3.1/bits/stl_algobase.h **** // any later version.
ARM GAS  /var/folders/hl/qgbwny5j0fd895c2c41bk3tw0000gp/T//cc1L1gWC.s 			page 68


  10:/Library/DaisyToolchain/0.2.0/arm/arm-none-eabi/include/c++/10.3.1/bits/stl_algobase.h **** 
  11:/Library/DaisyToolchain/0.2.0/arm/arm-none-eabi/include/c++/10.3.1/bits/stl_algobase.h **** // This library is distributed in the hope that it will be useful,
  12:/Library/DaisyToolchain/0.2.0/arm/arm-none-eabi/include/c++/10.3.1/bits/stl_algobase.h **** // but WITHOUT ANY WARRANTY; without even the implied warranty of
  13:/Library/DaisyToolchain/0.2.0/arm/arm-none-eabi/include/c++/10.3.1/bits/stl_algobase.h **** // MERCHANTABILITY or FITNESS FOR A PARTICULAR PURPOSE.  See the
  14:/Library/DaisyToolchain/0.2.0/arm/arm-none-eabi/include/c++/10.3.1/bits/stl_algobase.h **** // GNU General Public License for more details.
  15:/Library/DaisyToolchain/0.2.0/arm/arm-none-eabi/include/c++/10.3.1/bits/stl_algobase.h **** 
  16:/Library/DaisyToolchain/0.2.0/arm/arm-none-eabi/include/c++/10.3.1/bits/stl_algobase.h **** // Under Section 7 of GPL version 3, you are granted additional
  17:/Library/DaisyToolchain/0.2.0/arm/arm-none-eabi/include/c++/10.3.1/bits/stl_algobase.h **** // permissions described in the GCC Runtime Library Exception, version
  18:/Library/DaisyToolchain/0.2.0/arm/arm-none-eabi/include/c++/10.3.1/bits/stl_algobase.h **** // 3.1, as published by the Free Software Foundation.
  19:/Library/DaisyToolchain/0.2.0/arm/arm-none-eabi/include/c++/10.3.1/bits/stl_algobase.h **** 
  20:/Library/DaisyToolchain/0.2.0/arm/arm-none-eabi/include/c++/10.3.1/bits/stl_algobase.h **** // You should have received a copy of the GNU General Public License and
  21:/Library/DaisyToolchain/0.2.0/arm/arm-none-eabi/include/c++/10.3.1/bits/stl_algobase.h **** // a copy of the GCC Runtime Library Exception along with this program;
  22:/Library/DaisyToolchain/0.2.0/arm/arm-none-eabi/include/c++/10.3.1/bits/stl_algobase.h **** // see the files COPYING3 and COPYING.RUNTIME respectively.  If not, see
  23:/Library/DaisyToolchain/0.2.0/arm/arm-none-eabi/include/c++/10.3.1/bits/stl_algobase.h **** // <http://www.gnu.org/licenses/>.
  24:/Library/DaisyToolchain/0.2.0/arm/arm-none-eabi/include/c++/10.3.1/bits/stl_algobase.h **** 
  25:/Library/DaisyToolchain/0.2.0/arm/arm-none-eabi/include/c++/10.3.1/bits/stl_algobase.h **** /*
  26:/Library/DaisyToolchain/0.2.0/arm/arm-none-eabi/include/c++/10.3.1/bits/stl_algobase.h ****  *
  27:/Library/DaisyToolchain/0.2.0/arm/arm-none-eabi/include/c++/10.3.1/bits/stl_algobase.h ****  * Copyright (c) 1994
  28:/Library/DaisyToolchain/0.2.0/arm/arm-none-eabi/include/c++/10.3.1/bits/stl_algobase.h ****  * Hewlett-Packard Company
  29:/Library/DaisyToolchain/0.2.0/arm/arm-none-eabi/include/c++/10.3.1/bits/stl_algobase.h ****  *
  30:/Library/DaisyToolchain/0.2.0/arm/arm-none-eabi/include/c++/10.3.1/bits/stl_algobase.h ****  * Permission to use, copy, modify, distribute and sell this software
  31:/Library/DaisyToolchain/0.2.0/arm/arm-none-eabi/include/c++/10.3.1/bits/stl_algobase.h ****  * and its documentation for any purpose is hereby granted without fee,
  32:/Library/DaisyToolchain/0.2.0/arm/arm-none-eabi/include/c++/10.3.1/bits/stl_algobase.h ****  * provided that the above copyright notice appear in all copies and
  33:/Library/DaisyToolchain/0.2.0/arm/arm-none-eabi/include/c++/10.3.1/bits/stl_algobase.h ****  * that both that copyright notice and this permission notice appear
  34:/Library/DaisyToolchain/0.2.0/arm/arm-none-eabi/include/c++/10.3.1/bits/stl_algobase.h ****  * in supporting documentation.  Hewlett-Packard Company makes no
  35:/Library/DaisyToolchain/0.2.0/arm/arm-none-eabi/include/c++/10.3.1/bits/stl_algobase.h ****  * representations about the suitability of this software for any
  36:/Library/DaisyToolchain/0.2.0/arm/arm-none-eabi/include/c++/10.3.1/bits/stl_algobase.h ****  * purpose.  It is provided "as is" without express or implied warranty.
  37:/Library/DaisyToolchain/0.2.0/arm/arm-none-eabi/include/c++/10.3.1/bits/stl_algobase.h ****  *
  38:/Library/DaisyToolchain/0.2.0/arm/arm-none-eabi/include/c++/10.3.1/bits/stl_algobase.h ****  *
  39:/Library/DaisyToolchain/0.2.0/arm/arm-none-eabi/include/c++/10.3.1/bits/stl_algobase.h ****  * Copyright (c) 1996-1998
  40:/Library/DaisyToolchain/0.2.0/arm/arm-none-eabi/include/c++/10.3.1/bits/stl_algobase.h ****  * Silicon Graphics Computer Systems, Inc.
  41:/Library/DaisyToolchain/0.2.0/arm/arm-none-eabi/include/c++/10.3.1/bits/stl_algobase.h ****  *
  42:/Library/DaisyToolchain/0.2.0/arm/arm-none-eabi/include/c++/10.3.1/bits/stl_algobase.h ****  * Permission to use, copy, modify, distribute and sell this software
  43:/Library/DaisyToolchain/0.2.0/arm/arm-none-eabi/include/c++/10.3.1/bits/stl_algobase.h ****  * and its documentation for any purpose is hereby granted without fee,
  44:/Library/DaisyToolchain/0.2.0/arm/arm-none-eabi/include/c++/10.3.1/bits/stl_algobase.h ****  * provided that the above copyright notice appear in all copies and
  45:/Library/DaisyToolchain/0.2.0/arm/arm-none-eabi/include/c++/10.3.1/bits/stl_algobase.h ****  * that both that copyright notice and this permission notice appear
  46:/Library/DaisyToolchain/0.2.0/arm/arm-none-eabi/include/c++/10.3.1/bits/stl_algobase.h ****  * in supporting documentation.  Silicon Graphics makes no
  47:/Library/DaisyToolchain/0.2.0/arm/arm-none-eabi/include/c++/10.3.1/bits/stl_algobase.h ****  * representations about the suitability of this software for any
  48:/Library/DaisyToolchain/0.2.0/arm/arm-none-eabi/include/c++/10.3.1/bits/stl_algobase.h ****  * purpose.  It is provided "as is" without express or implied warranty.
  49:/Library/DaisyToolchain/0.2.0/arm/arm-none-eabi/include/c++/10.3.1/bits/stl_algobase.h ****  */
  50:/Library/DaisyToolchain/0.2.0/arm/arm-none-eabi/include/c++/10.3.1/bits/stl_algobase.h **** 
  51:/Library/DaisyToolchain/0.2.0/arm/arm-none-eabi/include/c++/10.3.1/bits/stl_algobase.h **** /** @file bits/stl_algobase.h
  52:/Library/DaisyToolchain/0.2.0/arm/arm-none-eabi/include/c++/10.3.1/bits/stl_algobase.h ****  *  This is an internal header file, included by other library headers.
  53:/Library/DaisyToolchain/0.2.0/arm/arm-none-eabi/include/c++/10.3.1/bits/stl_algobase.h ****  *  Do not attempt to use it directly. @headername{algorithm}
  54:/Library/DaisyToolchain/0.2.0/arm/arm-none-eabi/include/c++/10.3.1/bits/stl_algobase.h ****  */
  55:/Library/DaisyToolchain/0.2.0/arm/arm-none-eabi/include/c++/10.3.1/bits/stl_algobase.h **** 
  56:/Library/DaisyToolchain/0.2.0/arm/arm-none-eabi/include/c++/10.3.1/bits/stl_algobase.h **** #ifndef _STL_ALGOBASE_H
  57:/Library/DaisyToolchain/0.2.0/arm/arm-none-eabi/include/c++/10.3.1/bits/stl_algobase.h **** #define _STL_ALGOBASE_H 1
  58:/Library/DaisyToolchain/0.2.0/arm/arm-none-eabi/include/c++/10.3.1/bits/stl_algobase.h **** 
  59:/Library/DaisyToolchain/0.2.0/arm/arm-none-eabi/include/c++/10.3.1/bits/stl_algobase.h **** #include <bits/c++config.h>
  60:/Library/DaisyToolchain/0.2.0/arm/arm-none-eabi/include/c++/10.3.1/bits/stl_algobase.h **** #include <bits/functexcept.h>
  61:/Library/DaisyToolchain/0.2.0/arm/arm-none-eabi/include/c++/10.3.1/bits/stl_algobase.h **** #include <bits/cpp_type_traits.h>
  62:/Library/DaisyToolchain/0.2.0/arm/arm-none-eabi/include/c++/10.3.1/bits/stl_algobase.h **** #include <ext/type_traits.h>
  63:/Library/DaisyToolchain/0.2.0/arm/arm-none-eabi/include/c++/10.3.1/bits/stl_algobase.h **** #include <ext/numeric_traits.h>
  64:/Library/DaisyToolchain/0.2.0/arm/arm-none-eabi/include/c++/10.3.1/bits/stl_algobase.h **** #include <bits/stl_pair.h>
  65:/Library/DaisyToolchain/0.2.0/arm/arm-none-eabi/include/c++/10.3.1/bits/stl_algobase.h **** #include <bits/stl_iterator_base_types.h>
  66:/Library/DaisyToolchain/0.2.0/arm/arm-none-eabi/include/c++/10.3.1/bits/stl_algobase.h **** #include <bits/stl_iterator_base_funcs.h>
ARM GAS  /var/folders/hl/qgbwny5j0fd895c2c41bk3tw0000gp/T//cc1L1gWC.s 			page 69


  67:/Library/DaisyToolchain/0.2.0/arm/arm-none-eabi/include/c++/10.3.1/bits/stl_algobase.h **** #include <bits/stl_iterator.h>
  68:/Library/DaisyToolchain/0.2.0/arm/arm-none-eabi/include/c++/10.3.1/bits/stl_algobase.h **** #include <bits/concept_check.h>
  69:/Library/DaisyToolchain/0.2.0/arm/arm-none-eabi/include/c++/10.3.1/bits/stl_algobase.h **** #include <debug/debug.h>
  70:/Library/DaisyToolchain/0.2.0/arm/arm-none-eabi/include/c++/10.3.1/bits/stl_algobase.h **** #include <bits/move.h> // For std::swap
  71:/Library/DaisyToolchain/0.2.0/arm/arm-none-eabi/include/c++/10.3.1/bits/stl_algobase.h **** #include <bits/predefined_ops.h>
  72:/Library/DaisyToolchain/0.2.0/arm/arm-none-eabi/include/c++/10.3.1/bits/stl_algobase.h **** #if __cplusplus >= 201103L
  73:/Library/DaisyToolchain/0.2.0/arm/arm-none-eabi/include/c++/10.3.1/bits/stl_algobase.h **** # include <type_traits>
  74:/Library/DaisyToolchain/0.2.0/arm/arm-none-eabi/include/c++/10.3.1/bits/stl_algobase.h **** #endif
  75:/Library/DaisyToolchain/0.2.0/arm/arm-none-eabi/include/c++/10.3.1/bits/stl_algobase.h **** #if __cplusplus > 201703L
  76:/Library/DaisyToolchain/0.2.0/arm/arm-none-eabi/include/c++/10.3.1/bits/stl_algobase.h **** # include <compare>
  77:/Library/DaisyToolchain/0.2.0/arm/arm-none-eabi/include/c++/10.3.1/bits/stl_algobase.h **** #endif
  78:/Library/DaisyToolchain/0.2.0/arm/arm-none-eabi/include/c++/10.3.1/bits/stl_algobase.h **** 
  79:/Library/DaisyToolchain/0.2.0/arm/arm-none-eabi/include/c++/10.3.1/bits/stl_algobase.h **** namespace std _GLIBCXX_VISIBILITY(default)
  80:/Library/DaisyToolchain/0.2.0/arm/arm-none-eabi/include/c++/10.3.1/bits/stl_algobase.h **** {
  81:/Library/DaisyToolchain/0.2.0/arm/arm-none-eabi/include/c++/10.3.1/bits/stl_algobase.h **** _GLIBCXX_BEGIN_NAMESPACE_VERSION
  82:/Library/DaisyToolchain/0.2.0/arm/arm-none-eabi/include/c++/10.3.1/bits/stl_algobase.h **** 
  83:/Library/DaisyToolchain/0.2.0/arm/arm-none-eabi/include/c++/10.3.1/bits/stl_algobase.h ****   /*
  84:/Library/DaisyToolchain/0.2.0/arm/arm-none-eabi/include/c++/10.3.1/bits/stl_algobase.h ****    * A constexpr wrapper for __builtin_memcmp.
  85:/Library/DaisyToolchain/0.2.0/arm/arm-none-eabi/include/c++/10.3.1/bits/stl_algobase.h ****    * @param __num The number of elements of type _Tp (not bytes).
  86:/Library/DaisyToolchain/0.2.0/arm/arm-none-eabi/include/c++/10.3.1/bits/stl_algobase.h ****    */
  87:/Library/DaisyToolchain/0.2.0/arm/arm-none-eabi/include/c++/10.3.1/bits/stl_algobase.h ****   template<typename _Tp, typename _Up>
  88:/Library/DaisyToolchain/0.2.0/arm/arm-none-eabi/include/c++/10.3.1/bits/stl_algobase.h ****     _GLIBCXX14_CONSTEXPR
  89:/Library/DaisyToolchain/0.2.0/arm/arm-none-eabi/include/c++/10.3.1/bits/stl_algobase.h ****     inline int
  90:/Library/DaisyToolchain/0.2.0/arm/arm-none-eabi/include/c++/10.3.1/bits/stl_algobase.h ****     __memcmp(const _Tp* __first1, const _Up* __first2, size_t __num)
  91:/Library/DaisyToolchain/0.2.0/arm/arm-none-eabi/include/c++/10.3.1/bits/stl_algobase.h ****     {
  92:/Library/DaisyToolchain/0.2.0/arm/arm-none-eabi/include/c++/10.3.1/bits/stl_algobase.h **** #if __cplusplus >= 201103L
  93:/Library/DaisyToolchain/0.2.0/arm/arm-none-eabi/include/c++/10.3.1/bits/stl_algobase.h ****       static_assert(sizeof(_Tp) == sizeof(_Up), "can be compared with memcmp");
  94:/Library/DaisyToolchain/0.2.0/arm/arm-none-eabi/include/c++/10.3.1/bits/stl_algobase.h **** #endif
  95:/Library/DaisyToolchain/0.2.0/arm/arm-none-eabi/include/c++/10.3.1/bits/stl_algobase.h **** #ifdef __cpp_lib_is_constant_evaluated
  96:/Library/DaisyToolchain/0.2.0/arm/arm-none-eabi/include/c++/10.3.1/bits/stl_algobase.h ****       if (std::is_constant_evaluated())
  97:/Library/DaisyToolchain/0.2.0/arm/arm-none-eabi/include/c++/10.3.1/bits/stl_algobase.h **** 	{
  98:/Library/DaisyToolchain/0.2.0/arm/arm-none-eabi/include/c++/10.3.1/bits/stl_algobase.h **** 	  for(; __num > 0; ++__first1, ++__first2, --__num)
  99:/Library/DaisyToolchain/0.2.0/arm/arm-none-eabi/include/c++/10.3.1/bits/stl_algobase.h **** 	    if (*__first1 != *__first2)
 100:/Library/DaisyToolchain/0.2.0/arm/arm-none-eabi/include/c++/10.3.1/bits/stl_algobase.h **** 	      return *__first1 < *__first2 ? -1 : 1;
 101:/Library/DaisyToolchain/0.2.0/arm/arm-none-eabi/include/c++/10.3.1/bits/stl_algobase.h **** 	  return 0;
 102:/Library/DaisyToolchain/0.2.0/arm/arm-none-eabi/include/c++/10.3.1/bits/stl_algobase.h **** 	}
 103:/Library/DaisyToolchain/0.2.0/arm/arm-none-eabi/include/c++/10.3.1/bits/stl_algobase.h ****       else
 104:/Library/DaisyToolchain/0.2.0/arm/arm-none-eabi/include/c++/10.3.1/bits/stl_algobase.h **** #endif
 105:/Library/DaisyToolchain/0.2.0/arm/arm-none-eabi/include/c++/10.3.1/bits/stl_algobase.h **** 	return __builtin_memcmp(__first1, __first2, sizeof(_Tp) * __num);
 106:/Library/DaisyToolchain/0.2.0/arm/arm-none-eabi/include/c++/10.3.1/bits/stl_algobase.h ****     }
 107:/Library/DaisyToolchain/0.2.0/arm/arm-none-eabi/include/c++/10.3.1/bits/stl_algobase.h **** 
 108:/Library/DaisyToolchain/0.2.0/arm/arm-none-eabi/include/c++/10.3.1/bits/stl_algobase.h **** #if __cplusplus < 201103L
 109:/Library/DaisyToolchain/0.2.0/arm/arm-none-eabi/include/c++/10.3.1/bits/stl_algobase.h ****   // See http://gcc.gnu.org/ml/libstdc++/2004-08/msg00167.html: in a
 110:/Library/DaisyToolchain/0.2.0/arm/arm-none-eabi/include/c++/10.3.1/bits/stl_algobase.h ****   // nutshell, we are partially implementing the resolution of DR 187,
 111:/Library/DaisyToolchain/0.2.0/arm/arm-none-eabi/include/c++/10.3.1/bits/stl_algobase.h ****   // when it's safe, i.e., the value_types are equal.
 112:/Library/DaisyToolchain/0.2.0/arm/arm-none-eabi/include/c++/10.3.1/bits/stl_algobase.h ****   template<bool _BoolType>
 113:/Library/DaisyToolchain/0.2.0/arm/arm-none-eabi/include/c++/10.3.1/bits/stl_algobase.h ****     struct __iter_swap
 114:/Library/DaisyToolchain/0.2.0/arm/arm-none-eabi/include/c++/10.3.1/bits/stl_algobase.h ****     {
 115:/Library/DaisyToolchain/0.2.0/arm/arm-none-eabi/include/c++/10.3.1/bits/stl_algobase.h ****       template<typename _ForwardIterator1, typename _ForwardIterator2>
 116:/Library/DaisyToolchain/0.2.0/arm/arm-none-eabi/include/c++/10.3.1/bits/stl_algobase.h **** 	static void
 117:/Library/DaisyToolchain/0.2.0/arm/arm-none-eabi/include/c++/10.3.1/bits/stl_algobase.h **** 	iter_swap(_ForwardIterator1 __a, _ForwardIterator2 __b)
 118:/Library/DaisyToolchain/0.2.0/arm/arm-none-eabi/include/c++/10.3.1/bits/stl_algobase.h **** 	{
 119:/Library/DaisyToolchain/0.2.0/arm/arm-none-eabi/include/c++/10.3.1/bits/stl_algobase.h **** 	  typedef typename iterator_traits<_ForwardIterator1>::value_type
 120:/Library/DaisyToolchain/0.2.0/arm/arm-none-eabi/include/c++/10.3.1/bits/stl_algobase.h **** 	    _ValueType1;
 121:/Library/DaisyToolchain/0.2.0/arm/arm-none-eabi/include/c++/10.3.1/bits/stl_algobase.h **** 	  _ValueType1 __tmp = *__a;
 122:/Library/DaisyToolchain/0.2.0/arm/arm-none-eabi/include/c++/10.3.1/bits/stl_algobase.h **** 	  *__a = *__b;
 123:/Library/DaisyToolchain/0.2.0/arm/arm-none-eabi/include/c++/10.3.1/bits/stl_algobase.h **** 	  *__b = __tmp;
ARM GAS  /var/folders/hl/qgbwny5j0fd895c2c41bk3tw0000gp/T//cc1L1gWC.s 			page 70


 124:/Library/DaisyToolchain/0.2.0/arm/arm-none-eabi/include/c++/10.3.1/bits/stl_algobase.h **** 	}
 125:/Library/DaisyToolchain/0.2.0/arm/arm-none-eabi/include/c++/10.3.1/bits/stl_algobase.h ****     };
 126:/Library/DaisyToolchain/0.2.0/arm/arm-none-eabi/include/c++/10.3.1/bits/stl_algobase.h **** 
 127:/Library/DaisyToolchain/0.2.0/arm/arm-none-eabi/include/c++/10.3.1/bits/stl_algobase.h ****   template<>
 128:/Library/DaisyToolchain/0.2.0/arm/arm-none-eabi/include/c++/10.3.1/bits/stl_algobase.h ****     struct __iter_swap<true>
 129:/Library/DaisyToolchain/0.2.0/arm/arm-none-eabi/include/c++/10.3.1/bits/stl_algobase.h ****     {
 130:/Library/DaisyToolchain/0.2.0/arm/arm-none-eabi/include/c++/10.3.1/bits/stl_algobase.h ****       template<typename _ForwardIterator1, typename _ForwardIterator2>
 131:/Library/DaisyToolchain/0.2.0/arm/arm-none-eabi/include/c++/10.3.1/bits/stl_algobase.h **** 	static void
 132:/Library/DaisyToolchain/0.2.0/arm/arm-none-eabi/include/c++/10.3.1/bits/stl_algobase.h **** 	iter_swap(_ForwardIterator1 __a, _ForwardIterator2 __b)
 133:/Library/DaisyToolchain/0.2.0/arm/arm-none-eabi/include/c++/10.3.1/bits/stl_algobase.h **** 	{
 134:/Library/DaisyToolchain/0.2.0/arm/arm-none-eabi/include/c++/10.3.1/bits/stl_algobase.h **** 	  swap(*__a, *__b);
 135:/Library/DaisyToolchain/0.2.0/arm/arm-none-eabi/include/c++/10.3.1/bits/stl_algobase.h **** 	}
 136:/Library/DaisyToolchain/0.2.0/arm/arm-none-eabi/include/c++/10.3.1/bits/stl_algobase.h ****     };
 137:/Library/DaisyToolchain/0.2.0/arm/arm-none-eabi/include/c++/10.3.1/bits/stl_algobase.h **** #endif // C++03
 138:/Library/DaisyToolchain/0.2.0/arm/arm-none-eabi/include/c++/10.3.1/bits/stl_algobase.h **** 
 139:/Library/DaisyToolchain/0.2.0/arm/arm-none-eabi/include/c++/10.3.1/bits/stl_algobase.h ****   /**
 140:/Library/DaisyToolchain/0.2.0/arm/arm-none-eabi/include/c++/10.3.1/bits/stl_algobase.h ****    *  @brief Swaps the contents of two iterators.
 141:/Library/DaisyToolchain/0.2.0/arm/arm-none-eabi/include/c++/10.3.1/bits/stl_algobase.h ****    *  @ingroup mutating_algorithms
 142:/Library/DaisyToolchain/0.2.0/arm/arm-none-eabi/include/c++/10.3.1/bits/stl_algobase.h ****    *  @param  __a  An iterator.
 143:/Library/DaisyToolchain/0.2.0/arm/arm-none-eabi/include/c++/10.3.1/bits/stl_algobase.h ****    *  @param  __b  Another iterator.
 144:/Library/DaisyToolchain/0.2.0/arm/arm-none-eabi/include/c++/10.3.1/bits/stl_algobase.h ****    *  @return   Nothing.
 145:/Library/DaisyToolchain/0.2.0/arm/arm-none-eabi/include/c++/10.3.1/bits/stl_algobase.h ****    *
 146:/Library/DaisyToolchain/0.2.0/arm/arm-none-eabi/include/c++/10.3.1/bits/stl_algobase.h ****    *  This function swaps the values pointed to by two iterators, not the
 147:/Library/DaisyToolchain/0.2.0/arm/arm-none-eabi/include/c++/10.3.1/bits/stl_algobase.h ****    *  iterators themselves.
 148:/Library/DaisyToolchain/0.2.0/arm/arm-none-eabi/include/c++/10.3.1/bits/stl_algobase.h ****   */
 149:/Library/DaisyToolchain/0.2.0/arm/arm-none-eabi/include/c++/10.3.1/bits/stl_algobase.h ****   template<typename _ForwardIterator1, typename _ForwardIterator2>
 150:/Library/DaisyToolchain/0.2.0/arm/arm-none-eabi/include/c++/10.3.1/bits/stl_algobase.h ****     _GLIBCXX20_CONSTEXPR
 151:/Library/DaisyToolchain/0.2.0/arm/arm-none-eabi/include/c++/10.3.1/bits/stl_algobase.h ****     inline void
 152:/Library/DaisyToolchain/0.2.0/arm/arm-none-eabi/include/c++/10.3.1/bits/stl_algobase.h ****     iter_swap(_ForwardIterator1 __a, _ForwardIterator2 __b)
 153:/Library/DaisyToolchain/0.2.0/arm/arm-none-eabi/include/c++/10.3.1/bits/stl_algobase.h ****     {
 154:/Library/DaisyToolchain/0.2.0/arm/arm-none-eabi/include/c++/10.3.1/bits/stl_algobase.h ****       // concept requirements
 155:/Library/DaisyToolchain/0.2.0/arm/arm-none-eabi/include/c++/10.3.1/bits/stl_algobase.h ****       __glibcxx_function_requires(_Mutable_ForwardIteratorConcept<
 156:/Library/DaisyToolchain/0.2.0/arm/arm-none-eabi/include/c++/10.3.1/bits/stl_algobase.h **** 				  _ForwardIterator1>)
 157:/Library/DaisyToolchain/0.2.0/arm/arm-none-eabi/include/c++/10.3.1/bits/stl_algobase.h ****       __glibcxx_function_requires(_Mutable_ForwardIteratorConcept<
 158:/Library/DaisyToolchain/0.2.0/arm/arm-none-eabi/include/c++/10.3.1/bits/stl_algobase.h **** 				  _ForwardIterator2>)
 159:/Library/DaisyToolchain/0.2.0/arm/arm-none-eabi/include/c++/10.3.1/bits/stl_algobase.h **** 
 160:/Library/DaisyToolchain/0.2.0/arm/arm-none-eabi/include/c++/10.3.1/bits/stl_algobase.h **** #if __cplusplus < 201103L
 161:/Library/DaisyToolchain/0.2.0/arm/arm-none-eabi/include/c++/10.3.1/bits/stl_algobase.h ****       typedef typename iterator_traits<_ForwardIterator1>::value_type
 162:/Library/DaisyToolchain/0.2.0/arm/arm-none-eabi/include/c++/10.3.1/bits/stl_algobase.h **** 	_ValueType1;
 163:/Library/DaisyToolchain/0.2.0/arm/arm-none-eabi/include/c++/10.3.1/bits/stl_algobase.h ****       typedef typename iterator_traits<_ForwardIterator2>::value_type
 164:/Library/DaisyToolchain/0.2.0/arm/arm-none-eabi/include/c++/10.3.1/bits/stl_algobase.h **** 	_ValueType2;
 165:/Library/DaisyToolchain/0.2.0/arm/arm-none-eabi/include/c++/10.3.1/bits/stl_algobase.h **** 
 166:/Library/DaisyToolchain/0.2.0/arm/arm-none-eabi/include/c++/10.3.1/bits/stl_algobase.h ****       __glibcxx_function_requires(_ConvertibleConcept<_ValueType1,
 167:/Library/DaisyToolchain/0.2.0/arm/arm-none-eabi/include/c++/10.3.1/bits/stl_algobase.h **** 				  _ValueType2>)
 168:/Library/DaisyToolchain/0.2.0/arm/arm-none-eabi/include/c++/10.3.1/bits/stl_algobase.h ****       __glibcxx_function_requires(_ConvertibleConcept<_ValueType2,
 169:/Library/DaisyToolchain/0.2.0/arm/arm-none-eabi/include/c++/10.3.1/bits/stl_algobase.h **** 				  _ValueType1>)
 170:/Library/DaisyToolchain/0.2.0/arm/arm-none-eabi/include/c++/10.3.1/bits/stl_algobase.h **** 
 171:/Library/DaisyToolchain/0.2.0/arm/arm-none-eabi/include/c++/10.3.1/bits/stl_algobase.h ****       typedef typename iterator_traits<_ForwardIterator1>::reference
 172:/Library/DaisyToolchain/0.2.0/arm/arm-none-eabi/include/c++/10.3.1/bits/stl_algobase.h **** 	_ReferenceType1;
 173:/Library/DaisyToolchain/0.2.0/arm/arm-none-eabi/include/c++/10.3.1/bits/stl_algobase.h ****       typedef typename iterator_traits<_ForwardIterator2>::reference
 174:/Library/DaisyToolchain/0.2.0/arm/arm-none-eabi/include/c++/10.3.1/bits/stl_algobase.h **** 	_ReferenceType2;
 175:/Library/DaisyToolchain/0.2.0/arm/arm-none-eabi/include/c++/10.3.1/bits/stl_algobase.h ****       std::__iter_swap<__are_same<_ValueType1, _ValueType2>::__value
 176:/Library/DaisyToolchain/0.2.0/arm/arm-none-eabi/include/c++/10.3.1/bits/stl_algobase.h **** 	&& __are_same<_ValueType1&, _ReferenceType1>::__value
 177:/Library/DaisyToolchain/0.2.0/arm/arm-none-eabi/include/c++/10.3.1/bits/stl_algobase.h **** 	&& __are_same<_ValueType2&, _ReferenceType2>::__value>::
 178:/Library/DaisyToolchain/0.2.0/arm/arm-none-eabi/include/c++/10.3.1/bits/stl_algobase.h **** 	iter_swap(__a, __b);
 179:/Library/DaisyToolchain/0.2.0/arm/arm-none-eabi/include/c++/10.3.1/bits/stl_algobase.h **** #else
 180:/Library/DaisyToolchain/0.2.0/arm/arm-none-eabi/include/c++/10.3.1/bits/stl_algobase.h ****       // _GLIBCXX_RESOLVE_LIB_DEFECTS
ARM GAS  /var/folders/hl/qgbwny5j0fd895c2c41bk3tw0000gp/T//cc1L1gWC.s 			page 71


 181:/Library/DaisyToolchain/0.2.0/arm/arm-none-eabi/include/c++/10.3.1/bits/stl_algobase.h ****       // 187. iter_swap underspecified
 182:/Library/DaisyToolchain/0.2.0/arm/arm-none-eabi/include/c++/10.3.1/bits/stl_algobase.h ****       swap(*__a, *__b);
 183:/Library/DaisyToolchain/0.2.0/arm/arm-none-eabi/include/c++/10.3.1/bits/stl_algobase.h **** #endif
 184:/Library/DaisyToolchain/0.2.0/arm/arm-none-eabi/include/c++/10.3.1/bits/stl_algobase.h ****     }
 185:/Library/DaisyToolchain/0.2.0/arm/arm-none-eabi/include/c++/10.3.1/bits/stl_algobase.h **** 
 186:/Library/DaisyToolchain/0.2.0/arm/arm-none-eabi/include/c++/10.3.1/bits/stl_algobase.h ****   /**
 187:/Library/DaisyToolchain/0.2.0/arm/arm-none-eabi/include/c++/10.3.1/bits/stl_algobase.h ****    *  @brief Swap the elements of two sequences.
 188:/Library/DaisyToolchain/0.2.0/arm/arm-none-eabi/include/c++/10.3.1/bits/stl_algobase.h ****    *  @ingroup mutating_algorithms
 189:/Library/DaisyToolchain/0.2.0/arm/arm-none-eabi/include/c++/10.3.1/bits/stl_algobase.h ****    *  @param  __first1  A forward iterator.
 190:/Library/DaisyToolchain/0.2.0/arm/arm-none-eabi/include/c++/10.3.1/bits/stl_algobase.h ****    *  @param  __last1   A forward iterator.
 191:/Library/DaisyToolchain/0.2.0/arm/arm-none-eabi/include/c++/10.3.1/bits/stl_algobase.h ****    *  @param  __first2  A forward iterator.
 192:/Library/DaisyToolchain/0.2.0/arm/arm-none-eabi/include/c++/10.3.1/bits/stl_algobase.h ****    *  @return   An iterator equal to @p first2+(last1-first1).
 193:/Library/DaisyToolchain/0.2.0/arm/arm-none-eabi/include/c++/10.3.1/bits/stl_algobase.h ****    *
 194:/Library/DaisyToolchain/0.2.0/arm/arm-none-eabi/include/c++/10.3.1/bits/stl_algobase.h ****    *  Swaps each element in the range @p [first1,last1) with the
 195:/Library/DaisyToolchain/0.2.0/arm/arm-none-eabi/include/c++/10.3.1/bits/stl_algobase.h ****    *  corresponding element in the range @p [first2,(last1-first1)).
 196:/Library/DaisyToolchain/0.2.0/arm/arm-none-eabi/include/c++/10.3.1/bits/stl_algobase.h ****    *  The ranges must not overlap.
 197:/Library/DaisyToolchain/0.2.0/arm/arm-none-eabi/include/c++/10.3.1/bits/stl_algobase.h ****   */
 198:/Library/DaisyToolchain/0.2.0/arm/arm-none-eabi/include/c++/10.3.1/bits/stl_algobase.h ****   template<typename _ForwardIterator1, typename _ForwardIterator2>
 199:/Library/DaisyToolchain/0.2.0/arm/arm-none-eabi/include/c++/10.3.1/bits/stl_algobase.h ****     _GLIBCXX20_CONSTEXPR
 200:/Library/DaisyToolchain/0.2.0/arm/arm-none-eabi/include/c++/10.3.1/bits/stl_algobase.h ****     _ForwardIterator2
 201:/Library/DaisyToolchain/0.2.0/arm/arm-none-eabi/include/c++/10.3.1/bits/stl_algobase.h ****     swap_ranges(_ForwardIterator1 __first1, _ForwardIterator1 __last1,
 202:/Library/DaisyToolchain/0.2.0/arm/arm-none-eabi/include/c++/10.3.1/bits/stl_algobase.h **** 		_ForwardIterator2 __first2)
 203:/Library/DaisyToolchain/0.2.0/arm/arm-none-eabi/include/c++/10.3.1/bits/stl_algobase.h ****     {
 204:/Library/DaisyToolchain/0.2.0/arm/arm-none-eabi/include/c++/10.3.1/bits/stl_algobase.h ****       // concept requirements
 205:/Library/DaisyToolchain/0.2.0/arm/arm-none-eabi/include/c++/10.3.1/bits/stl_algobase.h ****       __glibcxx_function_requires(_Mutable_ForwardIteratorConcept<
 206:/Library/DaisyToolchain/0.2.0/arm/arm-none-eabi/include/c++/10.3.1/bits/stl_algobase.h **** 				  _ForwardIterator1>)
 207:/Library/DaisyToolchain/0.2.0/arm/arm-none-eabi/include/c++/10.3.1/bits/stl_algobase.h ****       __glibcxx_function_requires(_Mutable_ForwardIteratorConcept<
 208:/Library/DaisyToolchain/0.2.0/arm/arm-none-eabi/include/c++/10.3.1/bits/stl_algobase.h **** 				  _ForwardIterator2>)
 209:/Library/DaisyToolchain/0.2.0/arm/arm-none-eabi/include/c++/10.3.1/bits/stl_algobase.h ****       __glibcxx_requires_valid_range(__first1, __last1);
 210:/Library/DaisyToolchain/0.2.0/arm/arm-none-eabi/include/c++/10.3.1/bits/stl_algobase.h **** 
 211:/Library/DaisyToolchain/0.2.0/arm/arm-none-eabi/include/c++/10.3.1/bits/stl_algobase.h ****       for (; __first1 != __last1; ++__first1, (void)++__first2)
 212:/Library/DaisyToolchain/0.2.0/arm/arm-none-eabi/include/c++/10.3.1/bits/stl_algobase.h **** 	std::iter_swap(__first1, __first2);
 213:/Library/DaisyToolchain/0.2.0/arm/arm-none-eabi/include/c++/10.3.1/bits/stl_algobase.h ****       return __first2;
 214:/Library/DaisyToolchain/0.2.0/arm/arm-none-eabi/include/c++/10.3.1/bits/stl_algobase.h ****     }
 215:/Library/DaisyToolchain/0.2.0/arm/arm-none-eabi/include/c++/10.3.1/bits/stl_algobase.h **** 
 216:/Library/DaisyToolchain/0.2.0/arm/arm-none-eabi/include/c++/10.3.1/bits/stl_algobase.h ****   /**
 217:/Library/DaisyToolchain/0.2.0/arm/arm-none-eabi/include/c++/10.3.1/bits/stl_algobase.h ****    *  @brief This does what you think it does.
 218:/Library/DaisyToolchain/0.2.0/arm/arm-none-eabi/include/c++/10.3.1/bits/stl_algobase.h ****    *  @ingroup sorting_algorithms
 219:/Library/DaisyToolchain/0.2.0/arm/arm-none-eabi/include/c++/10.3.1/bits/stl_algobase.h ****    *  @param  __a  A thing of arbitrary type.
 220:/Library/DaisyToolchain/0.2.0/arm/arm-none-eabi/include/c++/10.3.1/bits/stl_algobase.h ****    *  @param  __b  Another thing of arbitrary type.
 221:/Library/DaisyToolchain/0.2.0/arm/arm-none-eabi/include/c++/10.3.1/bits/stl_algobase.h ****    *  @return   The lesser of the parameters.
 222:/Library/DaisyToolchain/0.2.0/arm/arm-none-eabi/include/c++/10.3.1/bits/stl_algobase.h ****    *
 223:/Library/DaisyToolchain/0.2.0/arm/arm-none-eabi/include/c++/10.3.1/bits/stl_algobase.h ****    *  This is the simple classic generic implementation.  It will work on
 224:/Library/DaisyToolchain/0.2.0/arm/arm-none-eabi/include/c++/10.3.1/bits/stl_algobase.h ****    *  temporary expressions, since they are only evaluated once, unlike a
 225:/Library/DaisyToolchain/0.2.0/arm/arm-none-eabi/include/c++/10.3.1/bits/stl_algobase.h ****    *  preprocessor macro.
 226:/Library/DaisyToolchain/0.2.0/arm/arm-none-eabi/include/c++/10.3.1/bits/stl_algobase.h ****   */
 227:/Library/DaisyToolchain/0.2.0/arm/arm-none-eabi/include/c++/10.3.1/bits/stl_algobase.h ****   template<typename _Tp>
 228:/Library/DaisyToolchain/0.2.0/arm/arm-none-eabi/include/c++/10.3.1/bits/stl_algobase.h ****     _GLIBCXX14_CONSTEXPR
 229:/Library/DaisyToolchain/0.2.0/arm/arm-none-eabi/include/c++/10.3.1/bits/stl_algobase.h ****     inline const _Tp&
 230:/Library/DaisyToolchain/0.2.0/arm/arm-none-eabi/include/c++/10.3.1/bits/stl_algobase.h ****     min(const _Tp& __a, const _Tp& __b)
 231:/Library/DaisyToolchain/0.2.0/arm/arm-none-eabi/include/c++/10.3.1/bits/stl_algobase.h ****     {
 232:/Library/DaisyToolchain/0.2.0/arm/arm-none-eabi/include/c++/10.3.1/bits/stl_algobase.h ****       // concept requirements
 233:/Library/DaisyToolchain/0.2.0/arm/arm-none-eabi/include/c++/10.3.1/bits/stl_algobase.h ****       __glibcxx_function_requires(_LessThanComparableConcept<_Tp>)
 234:/Library/DaisyToolchain/0.2.0/arm/arm-none-eabi/include/c++/10.3.1/bits/stl_algobase.h ****       //return __b < __a ? __b : __a;
 235:/Library/DaisyToolchain/0.2.0/arm/arm-none-eabi/include/c++/10.3.1/bits/stl_algobase.h ****       if (__b < __a)
 236:/Library/DaisyToolchain/0.2.0/arm/arm-none-eabi/include/c++/10.3.1/bits/stl_algobase.h **** 	return __b;
 237:/Library/DaisyToolchain/0.2.0/arm/arm-none-eabi/include/c++/10.3.1/bits/stl_algobase.h ****       return __a;
ARM GAS  /var/folders/hl/qgbwny5j0fd895c2c41bk3tw0000gp/T//cc1L1gWC.s 			page 72


 238:/Library/DaisyToolchain/0.2.0/arm/arm-none-eabi/include/c++/10.3.1/bits/stl_algobase.h ****     }
 239:/Library/DaisyToolchain/0.2.0/arm/arm-none-eabi/include/c++/10.3.1/bits/stl_algobase.h **** 
 240:/Library/DaisyToolchain/0.2.0/arm/arm-none-eabi/include/c++/10.3.1/bits/stl_algobase.h ****   /**
 241:/Library/DaisyToolchain/0.2.0/arm/arm-none-eabi/include/c++/10.3.1/bits/stl_algobase.h ****    *  @brief This does what you think it does.
 242:/Library/DaisyToolchain/0.2.0/arm/arm-none-eabi/include/c++/10.3.1/bits/stl_algobase.h ****    *  @ingroup sorting_algorithms
 243:/Library/DaisyToolchain/0.2.0/arm/arm-none-eabi/include/c++/10.3.1/bits/stl_algobase.h ****    *  @param  __a  A thing of arbitrary type.
 244:/Library/DaisyToolchain/0.2.0/arm/arm-none-eabi/include/c++/10.3.1/bits/stl_algobase.h ****    *  @param  __b  Another thing of arbitrary type.
 245:/Library/DaisyToolchain/0.2.0/arm/arm-none-eabi/include/c++/10.3.1/bits/stl_algobase.h ****    *  @return   The greater of the parameters.
 246:/Library/DaisyToolchain/0.2.0/arm/arm-none-eabi/include/c++/10.3.1/bits/stl_algobase.h ****    *
 247:/Library/DaisyToolchain/0.2.0/arm/arm-none-eabi/include/c++/10.3.1/bits/stl_algobase.h ****    *  This is the simple classic generic implementation.  It will work on
 248:/Library/DaisyToolchain/0.2.0/arm/arm-none-eabi/include/c++/10.3.1/bits/stl_algobase.h ****    *  temporary expressions, since they are only evaluated once, unlike a
 249:/Library/DaisyToolchain/0.2.0/arm/arm-none-eabi/include/c++/10.3.1/bits/stl_algobase.h ****    *  preprocessor macro.
 250:/Library/DaisyToolchain/0.2.0/arm/arm-none-eabi/include/c++/10.3.1/bits/stl_algobase.h ****   */
 251:/Library/DaisyToolchain/0.2.0/arm/arm-none-eabi/include/c++/10.3.1/bits/stl_algobase.h ****   template<typename _Tp>
 252:/Library/DaisyToolchain/0.2.0/arm/arm-none-eabi/include/c++/10.3.1/bits/stl_algobase.h ****     _GLIBCXX14_CONSTEXPR
 253:/Library/DaisyToolchain/0.2.0/arm/arm-none-eabi/include/c++/10.3.1/bits/stl_algobase.h ****     inline const _Tp&
 254:/Library/DaisyToolchain/0.2.0/arm/arm-none-eabi/include/c++/10.3.1/bits/stl_algobase.h ****     max(const _Tp& __a, const _Tp& __b)
 255:/Library/DaisyToolchain/0.2.0/arm/arm-none-eabi/include/c++/10.3.1/bits/stl_algobase.h ****     {
 256:/Library/DaisyToolchain/0.2.0/arm/arm-none-eabi/include/c++/10.3.1/bits/stl_algobase.h ****       // concept requirements
 257:/Library/DaisyToolchain/0.2.0/arm/arm-none-eabi/include/c++/10.3.1/bits/stl_algobase.h ****       __glibcxx_function_requires(_LessThanComparableConcept<_Tp>)
 258:/Library/DaisyToolchain/0.2.0/arm/arm-none-eabi/include/c++/10.3.1/bits/stl_algobase.h ****       //return  __a < __b ? __b : __a;
 259:/Library/DaisyToolchain/0.2.0/arm/arm-none-eabi/include/c++/10.3.1/bits/stl_algobase.h ****       if (__a < __b)
 260:/Library/DaisyToolchain/0.2.0/arm/arm-none-eabi/include/c++/10.3.1/bits/stl_algobase.h **** 	return __b;
 261:/Library/DaisyToolchain/0.2.0/arm/arm-none-eabi/include/c++/10.3.1/bits/stl_algobase.h ****       return __a;
 262:/Library/DaisyToolchain/0.2.0/arm/arm-none-eabi/include/c++/10.3.1/bits/stl_algobase.h ****     }
 263:/Library/DaisyToolchain/0.2.0/arm/arm-none-eabi/include/c++/10.3.1/bits/stl_algobase.h **** 
 264:/Library/DaisyToolchain/0.2.0/arm/arm-none-eabi/include/c++/10.3.1/bits/stl_algobase.h ****   /**
 265:/Library/DaisyToolchain/0.2.0/arm/arm-none-eabi/include/c++/10.3.1/bits/stl_algobase.h ****    *  @brief This does what you think it does.
 266:/Library/DaisyToolchain/0.2.0/arm/arm-none-eabi/include/c++/10.3.1/bits/stl_algobase.h ****    *  @ingroup sorting_algorithms
 267:/Library/DaisyToolchain/0.2.0/arm/arm-none-eabi/include/c++/10.3.1/bits/stl_algobase.h ****    *  @param  __a  A thing of arbitrary type.
 268:/Library/DaisyToolchain/0.2.0/arm/arm-none-eabi/include/c++/10.3.1/bits/stl_algobase.h ****    *  @param  __b  Another thing of arbitrary type.
 269:/Library/DaisyToolchain/0.2.0/arm/arm-none-eabi/include/c++/10.3.1/bits/stl_algobase.h ****    *  @param  __comp  A @link comparison_functors comparison functor@endlink.
 270:/Library/DaisyToolchain/0.2.0/arm/arm-none-eabi/include/c++/10.3.1/bits/stl_algobase.h ****    *  @return   The lesser of the parameters.
 271:/Library/DaisyToolchain/0.2.0/arm/arm-none-eabi/include/c++/10.3.1/bits/stl_algobase.h ****    *
 272:/Library/DaisyToolchain/0.2.0/arm/arm-none-eabi/include/c++/10.3.1/bits/stl_algobase.h ****    *  This will work on temporary expressions, since they are only evaluated
 273:/Library/DaisyToolchain/0.2.0/arm/arm-none-eabi/include/c++/10.3.1/bits/stl_algobase.h ****    *  once, unlike a preprocessor macro.
 274:/Library/DaisyToolchain/0.2.0/arm/arm-none-eabi/include/c++/10.3.1/bits/stl_algobase.h ****   */
 275:/Library/DaisyToolchain/0.2.0/arm/arm-none-eabi/include/c++/10.3.1/bits/stl_algobase.h ****   template<typename _Tp, typename _Compare>
 276:/Library/DaisyToolchain/0.2.0/arm/arm-none-eabi/include/c++/10.3.1/bits/stl_algobase.h ****     _GLIBCXX14_CONSTEXPR
 277:/Library/DaisyToolchain/0.2.0/arm/arm-none-eabi/include/c++/10.3.1/bits/stl_algobase.h ****     inline const _Tp&
 278:/Library/DaisyToolchain/0.2.0/arm/arm-none-eabi/include/c++/10.3.1/bits/stl_algobase.h ****     min(const _Tp& __a, const _Tp& __b, _Compare __comp)
 279:/Library/DaisyToolchain/0.2.0/arm/arm-none-eabi/include/c++/10.3.1/bits/stl_algobase.h ****     {
 280:/Library/DaisyToolchain/0.2.0/arm/arm-none-eabi/include/c++/10.3.1/bits/stl_algobase.h ****       //return __comp(__b, __a) ? __b : __a;
 281:/Library/DaisyToolchain/0.2.0/arm/arm-none-eabi/include/c++/10.3.1/bits/stl_algobase.h ****       if (__comp(__b, __a))
 282:/Library/DaisyToolchain/0.2.0/arm/arm-none-eabi/include/c++/10.3.1/bits/stl_algobase.h **** 	return __b;
 283:/Library/DaisyToolchain/0.2.0/arm/arm-none-eabi/include/c++/10.3.1/bits/stl_algobase.h ****       return __a;
 284:/Library/DaisyToolchain/0.2.0/arm/arm-none-eabi/include/c++/10.3.1/bits/stl_algobase.h ****     }
 285:/Library/DaisyToolchain/0.2.0/arm/arm-none-eabi/include/c++/10.3.1/bits/stl_algobase.h **** 
 286:/Library/DaisyToolchain/0.2.0/arm/arm-none-eabi/include/c++/10.3.1/bits/stl_algobase.h ****   /**
 287:/Library/DaisyToolchain/0.2.0/arm/arm-none-eabi/include/c++/10.3.1/bits/stl_algobase.h ****    *  @brief This does what you think it does.
 288:/Library/DaisyToolchain/0.2.0/arm/arm-none-eabi/include/c++/10.3.1/bits/stl_algobase.h ****    *  @ingroup sorting_algorithms
 289:/Library/DaisyToolchain/0.2.0/arm/arm-none-eabi/include/c++/10.3.1/bits/stl_algobase.h ****    *  @param  __a  A thing of arbitrary type.
 290:/Library/DaisyToolchain/0.2.0/arm/arm-none-eabi/include/c++/10.3.1/bits/stl_algobase.h ****    *  @param  __b  Another thing of arbitrary type.
 291:/Library/DaisyToolchain/0.2.0/arm/arm-none-eabi/include/c++/10.3.1/bits/stl_algobase.h ****    *  @param  __comp  A @link comparison_functors comparison functor@endlink.
 292:/Library/DaisyToolchain/0.2.0/arm/arm-none-eabi/include/c++/10.3.1/bits/stl_algobase.h ****    *  @return   The greater of the parameters.
 293:/Library/DaisyToolchain/0.2.0/arm/arm-none-eabi/include/c++/10.3.1/bits/stl_algobase.h ****    *
 294:/Library/DaisyToolchain/0.2.0/arm/arm-none-eabi/include/c++/10.3.1/bits/stl_algobase.h ****    *  This will work on temporary expressions, since they are only evaluated
ARM GAS  /var/folders/hl/qgbwny5j0fd895c2c41bk3tw0000gp/T//cc1L1gWC.s 			page 73


 295:/Library/DaisyToolchain/0.2.0/arm/arm-none-eabi/include/c++/10.3.1/bits/stl_algobase.h ****    *  once, unlike a preprocessor macro.
 296:/Library/DaisyToolchain/0.2.0/arm/arm-none-eabi/include/c++/10.3.1/bits/stl_algobase.h ****   */
 297:/Library/DaisyToolchain/0.2.0/arm/arm-none-eabi/include/c++/10.3.1/bits/stl_algobase.h ****   template<typename _Tp, typename _Compare>
 298:/Library/DaisyToolchain/0.2.0/arm/arm-none-eabi/include/c++/10.3.1/bits/stl_algobase.h ****     _GLIBCXX14_CONSTEXPR
 299:/Library/DaisyToolchain/0.2.0/arm/arm-none-eabi/include/c++/10.3.1/bits/stl_algobase.h ****     inline const _Tp&
 300:/Library/DaisyToolchain/0.2.0/arm/arm-none-eabi/include/c++/10.3.1/bits/stl_algobase.h ****     max(const _Tp& __a, const _Tp& __b, _Compare __comp)
 301:/Library/DaisyToolchain/0.2.0/arm/arm-none-eabi/include/c++/10.3.1/bits/stl_algobase.h ****     {
 302:/Library/DaisyToolchain/0.2.0/arm/arm-none-eabi/include/c++/10.3.1/bits/stl_algobase.h ****       //return __comp(__a, __b) ? __b : __a;
 303:/Library/DaisyToolchain/0.2.0/arm/arm-none-eabi/include/c++/10.3.1/bits/stl_algobase.h ****       if (__comp(__a, __b))
 304:/Library/DaisyToolchain/0.2.0/arm/arm-none-eabi/include/c++/10.3.1/bits/stl_algobase.h **** 	return __b;
 305:/Library/DaisyToolchain/0.2.0/arm/arm-none-eabi/include/c++/10.3.1/bits/stl_algobase.h ****       return __a;
 306:/Library/DaisyToolchain/0.2.0/arm/arm-none-eabi/include/c++/10.3.1/bits/stl_algobase.h ****     }
 307:/Library/DaisyToolchain/0.2.0/arm/arm-none-eabi/include/c++/10.3.1/bits/stl_algobase.h **** 
 308:/Library/DaisyToolchain/0.2.0/arm/arm-none-eabi/include/c++/10.3.1/bits/stl_algobase.h ****   // Fallback implementation of the function in bits/stl_iterator.h used to
 309:/Library/DaisyToolchain/0.2.0/arm/arm-none-eabi/include/c++/10.3.1/bits/stl_algobase.h ****   // remove the __normal_iterator wrapper. See copy, fill, ...
 310:/Library/DaisyToolchain/0.2.0/arm/arm-none-eabi/include/c++/10.3.1/bits/stl_algobase.h ****   template<typename _Iterator>
 311:/Library/DaisyToolchain/0.2.0/arm/arm-none-eabi/include/c++/10.3.1/bits/stl_algobase.h ****     _GLIBCXX20_CONSTEXPR
 312:/Library/DaisyToolchain/0.2.0/arm/arm-none-eabi/include/c++/10.3.1/bits/stl_algobase.h ****     inline _Iterator
 313:/Library/DaisyToolchain/0.2.0/arm/arm-none-eabi/include/c++/10.3.1/bits/stl_algobase.h ****     __niter_base(_Iterator __it)
 314:/Library/DaisyToolchain/0.2.0/arm/arm-none-eabi/include/c++/10.3.1/bits/stl_algobase.h ****     _GLIBCXX_NOEXCEPT_IF(std::is_nothrow_copy_constructible<_Iterator>::value)
 315:/Library/DaisyToolchain/0.2.0/arm/arm-none-eabi/include/c++/10.3.1/bits/stl_algobase.h ****     { return __it; }
 316:/Library/DaisyToolchain/0.2.0/arm/arm-none-eabi/include/c++/10.3.1/bits/stl_algobase.h **** 
 317:/Library/DaisyToolchain/0.2.0/arm/arm-none-eabi/include/c++/10.3.1/bits/stl_algobase.h ****   // Reverse the __niter_base transformation to get a
 318:/Library/DaisyToolchain/0.2.0/arm/arm-none-eabi/include/c++/10.3.1/bits/stl_algobase.h ****   // __normal_iterator back again (this assumes that __normal_iterator
 319:/Library/DaisyToolchain/0.2.0/arm/arm-none-eabi/include/c++/10.3.1/bits/stl_algobase.h ****   // is only used to wrap random access iterators, like pointers).
 320:/Library/DaisyToolchain/0.2.0/arm/arm-none-eabi/include/c++/10.3.1/bits/stl_algobase.h ****   template<typename _From, typename _To>
 321:/Library/DaisyToolchain/0.2.0/arm/arm-none-eabi/include/c++/10.3.1/bits/stl_algobase.h ****     _GLIBCXX20_CONSTEXPR
 322:/Library/DaisyToolchain/0.2.0/arm/arm-none-eabi/include/c++/10.3.1/bits/stl_algobase.h ****     inline _From
 323:/Library/DaisyToolchain/0.2.0/arm/arm-none-eabi/include/c++/10.3.1/bits/stl_algobase.h ****     __niter_wrap(_From __from, _To __res)
 324:/Library/DaisyToolchain/0.2.0/arm/arm-none-eabi/include/c++/10.3.1/bits/stl_algobase.h ****     { return __from + (__res - std::__niter_base(__from)); }
 325:/Library/DaisyToolchain/0.2.0/arm/arm-none-eabi/include/c++/10.3.1/bits/stl_algobase.h **** 
 326:/Library/DaisyToolchain/0.2.0/arm/arm-none-eabi/include/c++/10.3.1/bits/stl_algobase.h ****   // No need to wrap, iterator already has the right type.
 327:/Library/DaisyToolchain/0.2.0/arm/arm-none-eabi/include/c++/10.3.1/bits/stl_algobase.h ****   template<typename _Iterator>
 328:/Library/DaisyToolchain/0.2.0/arm/arm-none-eabi/include/c++/10.3.1/bits/stl_algobase.h ****     _GLIBCXX20_CONSTEXPR
 329:/Library/DaisyToolchain/0.2.0/arm/arm-none-eabi/include/c++/10.3.1/bits/stl_algobase.h ****     inline _Iterator
 330:/Library/DaisyToolchain/0.2.0/arm/arm-none-eabi/include/c++/10.3.1/bits/stl_algobase.h ****     __niter_wrap(const _Iterator&, _Iterator __res)
 331:/Library/DaisyToolchain/0.2.0/arm/arm-none-eabi/include/c++/10.3.1/bits/stl_algobase.h ****     { return __res; }
 332:/Library/DaisyToolchain/0.2.0/arm/arm-none-eabi/include/c++/10.3.1/bits/stl_algobase.h **** 
 333:/Library/DaisyToolchain/0.2.0/arm/arm-none-eabi/include/c++/10.3.1/bits/stl_algobase.h ****   // All of these auxiliary structs serve two purposes.  (1) Replace
 334:/Library/DaisyToolchain/0.2.0/arm/arm-none-eabi/include/c++/10.3.1/bits/stl_algobase.h ****   // calls to copy with memmove whenever possible.  (Memmove, not memcpy,
 335:/Library/DaisyToolchain/0.2.0/arm/arm-none-eabi/include/c++/10.3.1/bits/stl_algobase.h ****   // because the input and output ranges are permitted to overlap.)
 336:/Library/DaisyToolchain/0.2.0/arm/arm-none-eabi/include/c++/10.3.1/bits/stl_algobase.h ****   // (2) If we're using random access iterators, then write the loop as
 337:/Library/DaisyToolchain/0.2.0/arm/arm-none-eabi/include/c++/10.3.1/bits/stl_algobase.h ****   // a for loop with an explicit count.
 338:/Library/DaisyToolchain/0.2.0/arm/arm-none-eabi/include/c++/10.3.1/bits/stl_algobase.h **** 
 339:/Library/DaisyToolchain/0.2.0/arm/arm-none-eabi/include/c++/10.3.1/bits/stl_algobase.h ****   template<bool _IsMove, bool _IsSimple, typename _Category>
 340:/Library/DaisyToolchain/0.2.0/arm/arm-none-eabi/include/c++/10.3.1/bits/stl_algobase.h ****     struct __copy_move
 341:/Library/DaisyToolchain/0.2.0/arm/arm-none-eabi/include/c++/10.3.1/bits/stl_algobase.h ****     {
 342:/Library/DaisyToolchain/0.2.0/arm/arm-none-eabi/include/c++/10.3.1/bits/stl_algobase.h ****       template<typename _II, typename _OI>
 343:/Library/DaisyToolchain/0.2.0/arm/arm-none-eabi/include/c++/10.3.1/bits/stl_algobase.h **** 	_GLIBCXX20_CONSTEXPR
 344:/Library/DaisyToolchain/0.2.0/arm/arm-none-eabi/include/c++/10.3.1/bits/stl_algobase.h **** 	static _OI
 345:/Library/DaisyToolchain/0.2.0/arm/arm-none-eabi/include/c++/10.3.1/bits/stl_algobase.h **** 	__copy_m(_II __first, _II __last, _OI __result)
 346:/Library/DaisyToolchain/0.2.0/arm/arm-none-eabi/include/c++/10.3.1/bits/stl_algobase.h **** 	{
 347:/Library/DaisyToolchain/0.2.0/arm/arm-none-eabi/include/c++/10.3.1/bits/stl_algobase.h **** 	  for (; __first != __last; ++__result, (void)++__first)
 348:/Library/DaisyToolchain/0.2.0/arm/arm-none-eabi/include/c++/10.3.1/bits/stl_algobase.h **** 	    *__result = *__first;
 349:/Library/DaisyToolchain/0.2.0/arm/arm-none-eabi/include/c++/10.3.1/bits/stl_algobase.h **** 	  return __result;
 350:/Library/DaisyToolchain/0.2.0/arm/arm-none-eabi/include/c++/10.3.1/bits/stl_algobase.h **** 	}
 351:/Library/DaisyToolchain/0.2.0/arm/arm-none-eabi/include/c++/10.3.1/bits/stl_algobase.h ****     };
ARM GAS  /var/folders/hl/qgbwny5j0fd895c2c41bk3tw0000gp/T//cc1L1gWC.s 			page 74


 352:/Library/DaisyToolchain/0.2.0/arm/arm-none-eabi/include/c++/10.3.1/bits/stl_algobase.h **** 
 353:/Library/DaisyToolchain/0.2.0/arm/arm-none-eabi/include/c++/10.3.1/bits/stl_algobase.h **** #if __cplusplus >= 201103L
 354:/Library/DaisyToolchain/0.2.0/arm/arm-none-eabi/include/c++/10.3.1/bits/stl_algobase.h ****   template<typename _Category>
 355:/Library/DaisyToolchain/0.2.0/arm/arm-none-eabi/include/c++/10.3.1/bits/stl_algobase.h ****     struct __copy_move<true, false, _Category>
 356:/Library/DaisyToolchain/0.2.0/arm/arm-none-eabi/include/c++/10.3.1/bits/stl_algobase.h ****     {
 357:/Library/DaisyToolchain/0.2.0/arm/arm-none-eabi/include/c++/10.3.1/bits/stl_algobase.h ****       template<typename _II, typename _OI>
 358:/Library/DaisyToolchain/0.2.0/arm/arm-none-eabi/include/c++/10.3.1/bits/stl_algobase.h **** 	_GLIBCXX20_CONSTEXPR
 359:/Library/DaisyToolchain/0.2.0/arm/arm-none-eabi/include/c++/10.3.1/bits/stl_algobase.h **** 	static _OI
 360:/Library/DaisyToolchain/0.2.0/arm/arm-none-eabi/include/c++/10.3.1/bits/stl_algobase.h **** 	__copy_m(_II __first, _II __last, _OI __result)
 361:/Library/DaisyToolchain/0.2.0/arm/arm-none-eabi/include/c++/10.3.1/bits/stl_algobase.h **** 	{
 362:/Library/DaisyToolchain/0.2.0/arm/arm-none-eabi/include/c++/10.3.1/bits/stl_algobase.h **** 	  for (; __first != __last; ++__result, (void)++__first)
 363:/Library/DaisyToolchain/0.2.0/arm/arm-none-eabi/include/c++/10.3.1/bits/stl_algobase.h **** 	    *__result = std::move(*__first);
 364:/Library/DaisyToolchain/0.2.0/arm/arm-none-eabi/include/c++/10.3.1/bits/stl_algobase.h **** 	  return __result;
 365:/Library/DaisyToolchain/0.2.0/arm/arm-none-eabi/include/c++/10.3.1/bits/stl_algobase.h **** 	}
 366:/Library/DaisyToolchain/0.2.0/arm/arm-none-eabi/include/c++/10.3.1/bits/stl_algobase.h ****     };
 367:/Library/DaisyToolchain/0.2.0/arm/arm-none-eabi/include/c++/10.3.1/bits/stl_algobase.h **** #endif
 368:/Library/DaisyToolchain/0.2.0/arm/arm-none-eabi/include/c++/10.3.1/bits/stl_algobase.h **** 
 369:/Library/DaisyToolchain/0.2.0/arm/arm-none-eabi/include/c++/10.3.1/bits/stl_algobase.h ****   template<>
 370:/Library/DaisyToolchain/0.2.0/arm/arm-none-eabi/include/c++/10.3.1/bits/stl_algobase.h ****     struct __copy_move<false, false, random_access_iterator_tag>
 371:/Library/DaisyToolchain/0.2.0/arm/arm-none-eabi/include/c++/10.3.1/bits/stl_algobase.h ****     {
 372:/Library/DaisyToolchain/0.2.0/arm/arm-none-eabi/include/c++/10.3.1/bits/stl_algobase.h ****       template<typename _II, typename _OI>
 373:/Library/DaisyToolchain/0.2.0/arm/arm-none-eabi/include/c++/10.3.1/bits/stl_algobase.h **** 	_GLIBCXX20_CONSTEXPR
 374:/Library/DaisyToolchain/0.2.0/arm/arm-none-eabi/include/c++/10.3.1/bits/stl_algobase.h **** 	static _OI
 375:/Library/DaisyToolchain/0.2.0/arm/arm-none-eabi/include/c++/10.3.1/bits/stl_algobase.h **** 	__copy_m(_II __first, _II __last, _OI __result)
 376:/Library/DaisyToolchain/0.2.0/arm/arm-none-eabi/include/c++/10.3.1/bits/stl_algobase.h **** 	{
 377:/Library/DaisyToolchain/0.2.0/arm/arm-none-eabi/include/c++/10.3.1/bits/stl_algobase.h **** 	  typedef typename iterator_traits<_II>::difference_type _Distance;
 378:/Library/DaisyToolchain/0.2.0/arm/arm-none-eabi/include/c++/10.3.1/bits/stl_algobase.h **** 	  for(_Distance __n = __last - __first; __n > 0; --__n)
 379:/Library/DaisyToolchain/0.2.0/arm/arm-none-eabi/include/c++/10.3.1/bits/stl_algobase.h **** 	    {
 380:/Library/DaisyToolchain/0.2.0/arm/arm-none-eabi/include/c++/10.3.1/bits/stl_algobase.h **** 	      *__result = *__first;
 381:/Library/DaisyToolchain/0.2.0/arm/arm-none-eabi/include/c++/10.3.1/bits/stl_algobase.h **** 	      ++__first;
 382:/Library/DaisyToolchain/0.2.0/arm/arm-none-eabi/include/c++/10.3.1/bits/stl_algobase.h **** 	      ++__result;
 383:/Library/DaisyToolchain/0.2.0/arm/arm-none-eabi/include/c++/10.3.1/bits/stl_algobase.h **** 	    }
 384:/Library/DaisyToolchain/0.2.0/arm/arm-none-eabi/include/c++/10.3.1/bits/stl_algobase.h **** 	  return __result;
 385:/Library/DaisyToolchain/0.2.0/arm/arm-none-eabi/include/c++/10.3.1/bits/stl_algobase.h **** 	}
 386:/Library/DaisyToolchain/0.2.0/arm/arm-none-eabi/include/c++/10.3.1/bits/stl_algobase.h ****     };
 387:/Library/DaisyToolchain/0.2.0/arm/arm-none-eabi/include/c++/10.3.1/bits/stl_algobase.h **** 
 388:/Library/DaisyToolchain/0.2.0/arm/arm-none-eabi/include/c++/10.3.1/bits/stl_algobase.h **** #if __cplusplus >= 201103L
 389:/Library/DaisyToolchain/0.2.0/arm/arm-none-eabi/include/c++/10.3.1/bits/stl_algobase.h ****   template<>
 390:/Library/DaisyToolchain/0.2.0/arm/arm-none-eabi/include/c++/10.3.1/bits/stl_algobase.h ****     struct __copy_move<true, false, random_access_iterator_tag>
 391:/Library/DaisyToolchain/0.2.0/arm/arm-none-eabi/include/c++/10.3.1/bits/stl_algobase.h ****     {
 392:/Library/DaisyToolchain/0.2.0/arm/arm-none-eabi/include/c++/10.3.1/bits/stl_algobase.h ****       template<typename _II, typename _OI>
 393:/Library/DaisyToolchain/0.2.0/arm/arm-none-eabi/include/c++/10.3.1/bits/stl_algobase.h **** 	_GLIBCXX20_CONSTEXPR
 394:/Library/DaisyToolchain/0.2.0/arm/arm-none-eabi/include/c++/10.3.1/bits/stl_algobase.h **** 	static _OI
 395:/Library/DaisyToolchain/0.2.0/arm/arm-none-eabi/include/c++/10.3.1/bits/stl_algobase.h **** 	__copy_m(_II __first, _II __last, _OI __result)
 396:/Library/DaisyToolchain/0.2.0/arm/arm-none-eabi/include/c++/10.3.1/bits/stl_algobase.h **** 	{
 397:/Library/DaisyToolchain/0.2.0/arm/arm-none-eabi/include/c++/10.3.1/bits/stl_algobase.h **** 	  typedef typename iterator_traits<_II>::difference_type _Distance;
 398:/Library/DaisyToolchain/0.2.0/arm/arm-none-eabi/include/c++/10.3.1/bits/stl_algobase.h **** 	  for(_Distance __n = __last - __first; __n > 0; --__n)
 399:/Library/DaisyToolchain/0.2.0/arm/arm-none-eabi/include/c++/10.3.1/bits/stl_algobase.h **** 	    {
 400:/Library/DaisyToolchain/0.2.0/arm/arm-none-eabi/include/c++/10.3.1/bits/stl_algobase.h **** 	      *__result = std::move(*__first);
 401:/Library/DaisyToolchain/0.2.0/arm/arm-none-eabi/include/c++/10.3.1/bits/stl_algobase.h **** 	      ++__first;
 402:/Library/DaisyToolchain/0.2.0/arm/arm-none-eabi/include/c++/10.3.1/bits/stl_algobase.h **** 	      ++__result;
 403:/Library/DaisyToolchain/0.2.0/arm/arm-none-eabi/include/c++/10.3.1/bits/stl_algobase.h **** 	    }
 404:/Library/DaisyToolchain/0.2.0/arm/arm-none-eabi/include/c++/10.3.1/bits/stl_algobase.h **** 	  return __result;
 405:/Library/DaisyToolchain/0.2.0/arm/arm-none-eabi/include/c++/10.3.1/bits/stl_algobase.h **** 	}
 406:/Library/DaisyToolchain/0.2.0/arm/arm-none-eabi/include/c++/10.3.1/bits/stl_algobase.h ****     };
 407:/Library/DaisyToolchain/0.2.0/arm/arm-none-eabi/include/c++/10.3.1/bits/stl_algobase.h **** #endif
 408:/Library/DaisyToolchain/0.2.0/arm/arm-none-eabi/include/c++/10.3.1/bits/stl_algobase.h **** 
ARM GAS  /var/folders/hl/qgbwny5j0fd895c2c41bk3tw0000gp/T//cc1L1gWC.s 			page 75


 409:/Library/DaisyToolchain/0.2.0/arm/arm-none-eabi/include/c++/10.3.1/bits/stl_algobase.h ****   template<bool _IsMove>
 410:/Library/DaisyToolchain/0.2.0/arm/arm-none-eabi/include/c++/10.3.1/bits/stl_algobase.h ****     struct __copy_move<_IsMove, true, random_access_iterator_tag>
 411:/Library/DaisyToolchain/0.2.0/arm/arm-none-eabi/include/c++/10.3.1/bits/stl_algobase.h ****     {
 412:/Library/DaisyToolchain/0.2.0/arm/arm-none-eabi/include/c++/10.3.1/bits/stl_algobase.h ****       template<typename _Tp>
 413:/Library/DaisyToolchain/0.2.0/arm/arm-none-eabi/include/c++/10.3.1/bits/stl_algobase.h **** 	_GLIBCXX20_CONSTEXPR
 414:/Library/DaisyToolchain/0.2.0/arm/arm-none-eabi/include/c++/10.3.1/bits/stl_algobase.h **** 	static _Tp*
 415:/Library/DaisyToolchain/0.2.0/arm/arm-none-eabi/include/c++/10.3.1/bits/stl_algobase.h **** 	__copy_m(const _Tp* __first, const _Tp* __last, _Tp* __result)
 416:/Library/DaisyToolchain/0.2.0/arm/arm-none-eabi/include/c++/10.3.1/bits/stl_algobase.h **** 	{
 417:/Library/DaisyToolchain/0.2.0/arm/arm-none-eabi/include/c++/10.3.1/bits/stl_algobase.h **** #if __cplusplus >= 201103L
 418:/Library/DaisyToolchain/0.2.0/arm/arm-none-eabi/include/c++/10.3.1/bits/stl_algobase.h **** 	  using __assignable = conditional<_IsMove,
 419:/Library/DaisyToolchain/0.2.0/arm/arm-none-eabi/include/c++/10.3.1/bits/stl_algobase.h **** 					   is_move_assignable<_Tp>,
 420:/Library/DaisyToolchain/0.2.0/arm/arm-none-eabi/include/c++/10.3.1/bits/stl_algobase.h **** 					   is_copy_assignable<_Tp>>;
 421:/Library/DaisyToolchain/0.2.0/arm/arm-none-eabi/include/c++/10.3.1/bits/stl_algobase.h **** 	  // trivial types can have deleted assignment
 422:/Library/DaisyToolchain/0.2.0/arm/arm-none-eabi/include/c++/10.3.1/bits/stl_algobase.h **** 	  static_assert( __assignable::type::value, "type is not assignable" );
 423:/Library/DaisyToolchain/0.2.0/arm/arm-none-eabi/include/c++/10.3.1/bits/stl_algobase.h **** #endif
 424:/Library/DaisyToolchain/0.2.0/arm/arm-none-eabi/include/c++/10.3.1/bits/stl_algobase.h **** 	  const ptrdiff_t _Num = __last - __first;
 425:/Library/DaisyToolchain/0.2.0/arm/arm-none-eabi/include/c++/10.3.1/bits/stl_algobase.h **** 	  if (_Num)
 426:/Library/DaisyToolchain/0.2.0/arm/arm-none-eabi/include/c++/10.3.1/bits/stl_algobase.h **** 	    __builtin_memmove(__result, __first, sizeof(_Tp) * _Num);
 427:/Library/DaisyToolchain/0.2.0/arm/arm-none-eabi/include/c++/10.3.1/bits/stl_algobase.h **** 	  return __result + _Num;
 428:/Library/DaisyToolchain/0.2.0/arm/arm-none-eabi/include/c++/10.3.1/bits/stl_algobase.h **** 	}
 429:/Library/DaisyToolchain/0.2.0/arm/arm-none-eabi/include/c++/10.3.1/bits/stl_algobase.h ****     };
 430:/Library/DaisyToolchain/0.2.0/arm/arm-none-eabi/include/c++/10.3.1/bits/stl_algobase.h **** 
 431:/Library/DaisyToolchain/0.2.0/arm/arm-none-eabi/include/c++/10.3.1/bits/stl_algobase.h ****   // Helpers for streambuf iterators (either istream or ostream).
 432:/Library/DaisyToolchain/0.2.0/arm/arm-none-eabi/include/c++/10.3.1/bits/stl_algobase.h ****   // NB: avoid including <iosfwd>, relatively large.
 433:/Library/DaisyToolchain/0.2.0/arm/arm-none-eabi/include/c++/10.3.1/bits/stl_algobase.h ****   template<typename _CharT>
 434:/Library/DaisyToolchain/0.2.0/arm/arm-none-eabi/include/c++/10.3.1/bits/stl_algobase.h ****     struct char_traits;
 435:/Library/DaisyToolchain/0.2.0/arm/arm-none-eabi/include/c++/10.3.1/bits/stl_algobase.h **** 
 436:/Library/DaisyToolchain/0.2.0/arm/arm-none-eabi/include/c++/10.3.1/bits/stl_algobase.h ****   template<typename _CharT, typename _Traits>
 437:/Library/DaisyToolchain/0.2.0/arm/arm-none-eabi/include/c++/10.3.1/bits/stl_algobase.h ****     class istreambuf_iterator;
 438:/Library/DaisyToolchain/0.2.0/arm/arm-none-eabi/include/c++/10.3.1/bits/stl_algobase.h **** 
 439:/Library/DaisyToolchain/0.2.0/arm/arm-none-eabi/include/c++/10.3.1/bits/stl_algobase.h ****   template<typename _CharT, typename _Traits>
 440:/Library/DaisyToolchain/0.2.0/arm/arm-none-eabi/include/c++/10.3.1/bits/stl_algobase.h ****     class ostreambuf_iterator;
 441:/Library/DaisyToolchain/0.2.0/arm/arm-none-eabi/include/c++/10.3.1/bits/stl_algobase.h **** 
 442:/Library/DaisyToolchain/0.2.0/arm/arm-none-eabi/include/c++/10.3.1/bits/stl_algobase.h ****   template<bool _IsMove, typename _CharT>
 443:/Library/DaisyToolchain/0.2.0/arm/arm-none-eabi/include/c++/10.3.1/bits/stl_algobase.h ****     typename __gnu_cxx::__enable_if<__is_char<_CharT>::__value,
 444:/Library/DaisyToolchain/0.2.0/arm/arm-none-eabi/include/c++/10.3.1/bits/stl_algobase.h **** 	     ostreambuf_iterator<_CharT, char_traits<_CharT> > >::__type
 445:/Library/DaisyToolchain/0.2.0/arm/arm-none-eabi/include/c++/10.3.1/bits/stl_algobase.h ****     __copy_move_a2(_CharT*, _CharT*,
 446:/Library/DaisyToolchain/0.2.0/arm/arm-none-eabi/include/c++/10.3.1/bits/stl_algobase.h **** 		   ostreambuf_iterator<_CharT, char_traits<_CharT> >);
 447:/Library/DaisyToolchain/0.2.0/arm/arm-none-eabi/include/c++/10.3.1/bits/stl_algobase.h **** 
 448:/Library/DaisyToolchain/0.2.0/arm/arm-none-eabi/include/c++/10.3.1/bits/stl_algobase.h ****   template<bool _IsMove, typename _CharT>
 449:/Library/DaisyToolchain/0.2.0/arm/arm-none-eabi/include/c++/10.3.1/bits/stl_algobase.h ****     typename __gnu_cxx::__enable_if<__is_char<_CharT>::__value,
 450:/Library/DaisyToolchain/0.2.0/arm/arm-none-eabi/include/c++/10.3.1/bits/stl_algobase.h **** 	     ostreambuf_iterator<_CharT, char_traits<_CharT> > >::__type
 451:/Library/DaisyToolchain/0.2.0/arm/arm-none-eabi/include/c++/10.3.1/bits/stl_algobase.h ****     __copy_move_a2(const _CharT*, const _CharT*,
 452:/Library/DaisyToolchain/0.2.0/arm/arm-none-eabi/include/c++/10.3.1/bits/stl_algobase.h **** 		   ostreambuf_iterator<_CharT, char_traits<_CharT> >);
 453:/Library/DaisyToolchain/0.2.0/arm/arm-none-eabi/include/c++/10.3.1/bits/stl_algobase.h **** 
 454:/Library/DaisyToolchain/0.2.0/arm/arm-none-eabi/include/c++/10.3.1/bits/stl_algobase.h ****   template<bool _IsMove, typename _CharT>
 455:/Library/DaisyToolchain/0.2.0/arm/arm-none-eabi/include/c++/10.3.1/bits/stl_algobase.h ****     typename __gnu_cxx::__enable_if<__is_char<_CharT>::__value,
 456:/Library/DaisyToolchain/0.2.0/arm/arm-none-eabi/include/c++/10.3.1/bits/stl_algobase.h **** 				    _CharT*>::__type
 457:/Library/DaisyToolchain/0.2.0/arm/arm-none-eabi/include/c++/10.3.1/bits/stl_algobase.h ****     __copy_move_a2(istreambuf_iterator<_CharT, char_traits<_CharT> >,
 458:/Library/DaisyToolchain/0.2.0/arm/arm-none-eabi/include/c++/10.3.1/bits/stl_algobase.h **** 		   istreambuf_iterator<_CharT, char_traits<_CharT> >, _CharT*);
 459:/Library/DaisyToolchain/0.2.0/arm/arm-none-eabi/include/c++/10.3.1/bits/stl_algobase.h **** 
 460:/Library/DaisyToolchain/0.2.0/arm/arm-none-eabi/include/c++/10.3.1/bits/stl_algobase.h ****   template<bool _IsMove, typename _II, typename _OI>
 461:/Library/DaisyToolchain/0.2.0/arm/arm-none-eabi/include/c++/10.3.1/bits/stl_algobase.h ****     _GLIBCXX20_CONSTEXPR
 462:/Library/DaisyToolchain/0.2.0/arm/arm-none-eabi/include/c++/10.3.1/bits/stl_algobase.h ****     inline _OI
 463:/Library/DaisyToolchain/0.2.0/arm/arm-none-eabi/include/c++/10.3.1/bits/stl_algobase.h ****     __copy_move_a2(_II __first, _II __last, _OI __result)
 464:/Library/DaisyToolchain/0.2.0/arm/arm-none-eabi/include/c++/10.3.1/bits/stl_algobase.h ****     {
 465:/Library/DaisyToolchain/0.2.0/arm/arm-none-eabi/include/c++/10.3.1/bits/stl_algobase.h ****       typedef typename iterator_traits<_II>::iterator_category _Category;
ARM GAS  /var/folders/hl/qgbwny5j0fd895c2c41bk3tw0000gp/T//cc1L1gWC.s 			page 76


 466:/Library/DaisyToolchain/0.2.0/arm/arm-none-eabi/include/c++/10.3.1/bits/stl_algobase.h **** #ifdef __cpp_lib_is_constant_evaluated
 467:/Library/DaisyToolchain/0.2.0/arm/arm-none-eabi/include/c++/10.3.1/bits/stl_algobase.h ****       if (std::is_constant_evaluated())
 468:/Library/DaisyToolchain/0.2.0/arm/arm-none-eabi/include/c++/10.3.1/bits/stl_algobase.h **** 	return std::__copy_move<_IsMove, false, _Category>::
 469:/Library/DaisyToolchain/0.2.0/arm/arm-none-eabi/include/c++/10.3.1/bits/stl_algobase.h **** 	  __copy_m(__first, __last, __result);
 470:/Library/DaisyToolchain/0.2.0/arm/arm-none-eabi/include/c++/10.3.1/bits/stl_algobase.h **** #endif
 471:/Library/DaisyToolchain/0.2.0/arm/arm-none-eabi/include/c++/10.3.1/bits/stl_algobase.h ****       return std::__copy_move<_IsMove, __memcpyable<_OI, _II>::__value,
 472:/Library/DaisyToolchain/0.2.0/arm/arm-none-eabi/include/c++/10.3.1/bits/stl_algobase.h **** 			      _Category>::__copy_m(__first, __last, __result);
 473:/Library/DaisyToolchain/0.2.0/arm/arm-none-eabi/include/c++/10.3.1/bits/stl_algobase.h ****     }
 474:/Library/DaisyToolchain/0.2.0/arm/arm-none-eabi/include/c++/10.3.1/bits/stl_algobase.h **** 
 475:/Library/DaisyToolchain/0.2.0/arm/arm-none-eabi/include/c++/10.3.1/bits/stl_algobase.h **** _GLIBCXX_BEGIN_NAMESPACE_CONTAINER
 476:/Library/DaisyToolchain/0.2.0/arm/arm-none-eabi/include/c++/10.3.1/bits/stl_algobase.h **** 
 477:/Library/DaisyToolchain/0.2.0/arm/arm-none-eabi/include/c++/10.3.1/bits/stl_algobase.h ****   template<typename _Tp, typename _Ref, typename _Ptr>
 478:/Library/DaisyToolchain/0.2.0/arm/arm-none-eabi/include/c++/10.3.1/bits/stl_algobase.h ****     struct _Deque_iterator;
 479:/Library/DaisyToolchain/0.2.0/arm/arm-none-eabi/include/c++/10.3.1/bits/stl_algobase.h **** 
 480:/Library/DaisyToolchain/0.2.0/arm/arm-none-eabi/include/c++/10.3.1/bits/stl_algobase.h **** _GLIBCXX_END_NAMESPACE_CONTAINER
 481:/Library/DaisyToolchain/0.2.0/arm/arm-none-eabi/include/c++/10.3.1/bits/stl_algobase.h **** 
 482:/Library/DaisyToolchain/0.2.0/arm/arm-none-eabi/include/c++/10.3.1/bits/stl_algobase.h ****   template<bool _IsMove,
 483:/Library/DaisyToolchain/0.2.0/arm/arm-none-eabi/include/c++/10.3.1/bits/stl_algobase.h **** 	   typename _Tp, typename _Ref, typename _Ptr, typename _OI>
 484:/Library/DaisyToolchain/0.2.0/arm/arm-none-eabi/include/c++/10.3.1/bits/stl_algobase.h ****     _OI
 485:/Library/DaisyToolchain/0.2.0/arm/arm-none-eabi/include/c++/10.3.1/bits/stl_algobase.h ****     __copy_move_a1(_GLIBCXX_STD_C::_Deque_iterator<_Tp, _Ref, _Ptr>,
 486:/Library/DaisyToolchain/0.2.0/arm/arm-none-eabi/include/c++/10.3.1/bits/stl_algobase.h **** 		   _GLIBCXX_STD_C::_Deque_iterator<_Tp, _Ref, _Ptr>,
 487:/Library/DaisyToolchain/0.2.0/arm/arm-none-eabi/include/c++/10.3.1/bits/stl_algobase.h **** 		   _OI);
 488:/Library/DaisyToolchain/0.2.0/arm/arm-none-eabi/include/c++/10.3.1/bits/stl_algobase.h **** 
 489:/Library/DaisyToolchain/0.2.0/arm/arm-none-eabi/include/c++/10.3.1/bits/stl_algobase.h ****   template<bool _IsMove,
 490:/Library/DaisyToolchain/0.2.0/arm/arm-none-eabi/include/c++/10.3.1/bits/stl_algobase.h **** 	   typename _ITp, typename _IRef, typename _IPtr, typename _OTp>
 491:/Library/DaisyToolchain/0.2.0/arm/arm-none-eabi/include/c++/10.3.1/bits/stl_algobase.h ****     _GLIBCXX_STD_C::_Deque_iterator<_OTp, _OTp&, _OTp*>
 492:/Library/DaisyToolchain/0.2.0/arm/arm-none-eabi/include/c++/10.3.1/bits/stl_algobase.h ****     __copy_move_a1(_GLIBCXX_STD_C::_Deque_iterator<_ITp, _IRef, _IPtr>,
 493:/Library/DaisyToolchain/0.2.0/arm/arm-none-eabi/include/c++/10.3.1/bits/stl_algobase.h **** 		   _GLIBCXX_STD_C::_Deque_iterator<_ITp, _IRef, _IPtr>,
 494:/Library/DaisyToolchain/0.2.0/arm/arm-none-eabi/include/c++/10.3.1/bits/stl_algobase.h **** 		   _GLIBCXX_STD_C::_Deque_iterator<_OTp, _OTp&, _OTp*>);
 495:/Library/DaisyToolchain/0.2.0/arm/arm-none-eabi/include/c++/10.3.1/bits/stl_algobase.h **** 
 496:/Library/DaisyToolchain/0.2.0/arm/arm-none-eabi/include/c++/10.3.1/bits/stl_algobase.h ****   template<bool _IsMove, typename _II, typename _Tp>
 497:/Library/DaisyToolchain/0.2.0/arm/arm-none-eabi/include/c++/10.3.1/bits/stl_algobase.h ****     typename __gnu_cxx::__enable_if<
 498:/Library/DaisyToolchain/0.2.0/arm/arm-none-eabi/include/c++/10.3.1/bits/stl_algobase.h ****       __is_random_access_iter<_II>::__value,
 499:/Library/DaisyToolchain/0.2.0/arm/arm-none-eabi/include/c++/10.3.1/bits/stl_algobase.h ****       _GLIBCXX_STD_C::_Deque_iterator<_Tp, _Tp&, _Tp*> >::__type
 500:/Library/DaisyToolchain/0.2.0/arm/arm-none-eabi/include/c++/10.3.1/bits/stl_algobase.h ****     __copy_move_a1(_II, _II, _GLIBCXX_STD_C::_Deque_iterator<_Tp, _Tp&, _Tp*>);
 501:/Library/DaisyToolchain/0.2.0/arm/arm-none-eabi/include/c++/10.3.1/bits/stl_algobase.h **** 
 502:/Library/DaisyToolchain/0.2.0/arm/arm-none-eabi/include/c++/10.3.1/bits/stl_algobase.h ****   template<bool _IsMove, typename _II, typename _OI>
 503:/Library/DaisyToolchain/0.2.0/arm/arm-none-eabi/include/c++/10.3.1/bits/stl_algobase.h ****     _GLIBCXX20_CONSTEXPR
 504:/Library/DaisyToolchain/0.2.0/arm/arm-none-eabi/include/c++/10.3.1/bits/stl_algobase.h ****     inline _OI
 505:/Library/DaisyToolchain/0.2.0/arm/arm-none-eabi/include/c++/10.3.1/bits/stl_algobase.h ****     __copy_move_a1(_II __first, _II __last, _OI __result)
 506:/Library/DaisyToolchain/0.2.0/arm/arm-none-eabi/include/c++/10.3.1/bits/stl_algobase.h ****     { return std::__copy_move_a2<_IsMove>(__first, __last, __result); }
 507:/Library/DaisyToolchain/0.2.0/arm/arm-none-eabi/include/c++/10.3.1/bits/stl_algobase.h **** 
 508:/Library/DaisyToolchain/0.2.0/arm/arm-none-eabi/include/c++/10.3.1/bits/stl_algobase.h ****   template<bool _IsMove, typename _II, typename _OI>
 509:/Library/DaisyToolchain/0.2.0/arm/arm-none-eabi/include/c++/10.3.1/bits/stl_algobase.h ****     _GLIBCXX20_CONSTEXPR
 510:/Library/DaisyToolchain/0.2.0/arm/arm-none-eabi/include/c++/10.3.1/bits/stl_algobase.h ****     inline _OI
 511:/Library/DaisyToolchain/0.2.0/arm/arm-none-eabi/include/c++/10.3.1/bits/stl_algobase.h ****     __copy_move_a(_II __first, _II __last, _OI __result)
 512:/Library/DaisyToolchain/0.2.0/arm/arm-none-eabi/include/c++/10.3.1/bits/stl_algobase.h ****     {
 513:/Library/DaisyToolchain/0.2.0/arm/arm-none-eabi/include/c++/10.3.1/bits/stl_algobase.h ****       return std::__niter_wrap(__result,
 514:/Library/DaisyToolchain/0.2.0/arm/arm-none-eabi/include/c++/10.3.1/bits/stl_algobase.h **** 		std::__copy_move_a1<_IsMove>(std::__niter_base(__first),
 515:/Library/DaisyToolchain/0.2.0/arm/arm-none-eabi/include/c++/10.3.1/bits/stl_algobase.h **** 					     std::__niter_base(__last),
 516:/Library/DaisyToolchain/0.2.0/arm/arm-none-eabi/include/c++/10.3.1/bits/stl_algobase.h **** 					     std::__niter_base(__result)));
 517:/Library/DaisyToolchain/0.2.0/arm/arm-none-eabi/include/c++/10.3.1/bits/stl_algobase.h ****     }
 518:/Library/DaisyToolchain/0.2.0/arm/arm-none-eabi/include/c++/10.3.1/bits/stl_algobase.h **** 
 519:/Library/DaisyToolchain/0.2.0/arm/arm-none-eabi/include/c++/10.3.1/bits/stl_algobase.h ****   template<bool _IsMove,
 520:/Library/DaisyToolchain/0.2.0/arm/arm-none-eabi/include/c++/10.3.1/bits/stl_algobase.h **** 	   typename _Ite, typename _Seq, typename _Cat, typename _OI>
 521:/Library/DaisyToolchain/0.2.0/arm/arm-none-eabi/include/c++/10.3.1/bits/stl_algobase.h ****     _OI
 522:/Library/DaisyToolchain/0.2.0/arm/arm-none-eabi/include/c++/10.3.1/bits/stl_algobase.h ****     __copy_move_a(const ::__gnu_debug::_Safe_iterator<_Ite, _Seq, _Cat>&,
ARM GAS  /var/folders/hl/qgbwny5j0fd895c2c41bk3tw0000gp/T//cc1L1gWC.s 			page 77


 523:/Library/DaisyToolchain/0.2.0/arm/arm-none-eabi/include/c++/10.3.1/bits/stl_algobase.h **** 		  const ::__gnu_debug::_Safe_iterator<_Ite, _Seq, _Cat>&,
 524:/Library/DaisyToolchain/0.2.0/arm/arm-none-eabi/include/c++/10.3.1/bits/stl_algobase.h **** 		  _OI);
 525:/Library/DaisyToolchain/0.2.0/arm/arm-none-eabi/include/c++/10.3.1/bits/stl_algobase.h **** 
 526:/Library/DaisyToolchain/0.2.0/arm/arm-none-eabi/include/c++/10.3.1/bits/stl_algobase.h ****   template<bool _IsMove,
 527:/Library/DaisyToolchain/0.2.0/arm/arm-none-eabi/include/c++/10.3.1/bits/stl_algobase.h **** 	   typename _II, typename _Ite, typename _Seq, typename _Cat>
 528:/Library/DaisyToolchain/0.2.0/arm/arm-none-eabi/include/c++/10.3.1/bits/stl_algobase.h ****     __gnu_debug::_Safe_iterator<_Ite, _Seq, _Cat>
 529:/Library/DaisyToolchain/0.2.0/arm/arm-none-eabi/include/c++/10.3.1/bits/stl_algobase.h ****     __copy_move_a(_II, _II,
 530:/Library/DaisyToolchain/0.2.0/arm/arm-none-eabi/include/c++/10.3.1/bits/stl_algobase.h **** 		  const ::__gnu_debug::_Safe_iterator<_Ite, _Seq, _Cat>&);
 531:/Library/DaisyToolchain/0.2.0/arm/arm-none-eabi/include/c++/10.3.1/bits/stl_algobase.h **** 
 532:/Library/DaisyToolchain/0.2.0/arm/arm-none-eabi/include/c++/10.3.1/bits/stl_algobase.h ****   template<bool _IsMove,
 533:/Library/DaisyToolchain/0.2.0/arm/arm-none-eabi/include/c++/10.3.1/bits/stl_algobase.h **** 	   typename _IIte, typename _ISeq, typename _ICat,
 534:/Library/DaisyToolchain/0.2.0/arm/arm-none-eabi/include/c++/10.3.1/bits/stl_algobase.h **** 	   typename _OIte, typename _OSeq, typename _OCat>
 535:/Library/DaisyToolchain/0.2.0/arm/arm-none-eabi/include/c++/10.3.1/bits/stl_algobase.h ****     ::__gnu_debug::_Safe_iterator<_OIte, _OSeq, _OCat>
 536:/Library/DaisyToolchain/0.2.0/arm/arm-none-eabi/include/c++/10.3.1/bits/stl_algobase.h ****     __copy_move_a(const ::__gnu_debug::_Safe_iterator<_IIte, _ISeq, _ICat>&,
 537:/Library/DaisyToolchain/0.2.0/arm/arm-none-eabi/include/c++/10.3.1/bits/stl_algobase.h **** 		  const ::__gnu_debug::_Safe_iterator<_IIte, _ISeq, _ICat>&,
 538:/Library/DaisyToolchain/0.2.0/arm/arm-none-eabi/include/c++/10.3.1/bits/stl_algobase.h **** 		  const ::__gnu_debug::_Safe_iterator<_OIte, _OSeq, _OCat>&);
 539:/Library/DaisyToolchain/0.2.0/arm/arm-none-eabi/include/c++/10.3.1/bits/stl_algobase.h **** 
 540:/Library/DaisyToolchain/0.2.0/arm/arm-none-eabi/include/c++/10.3.1/bits/stl_algobase.h ****   /**
 541:/Library/DaisyToolchain/0.2.0/arm/arm-none-eabi/include/c++/10.3.1/bits/stl_algobase.h ****    *  @brief Copies the range [first,last) into result.
 542:/Library/DaisyToolchain/0.2.0/arm/arm-none-eabi/include/c++/10.3.1/bits/stl_algobase.h ****    *  @ingroup mutating_algorithms
 543:/Library/DaisyToolchain/0.2.0/arm/arm-none-eabi/include/c++/10.3.1/bits/stl_algobase.h ****    *  @param  __first  An input iterator.
 544:/Library/DaisyToolchain/0.2.0/arm/arm-none-eabi/include/c++/10.3.1/bits/stl_algobase.h ****    *  @param  __last   An input iterator.
 545:/Library/DaisyToolchain/0.2.0/arm/arm-none-eabi/include/c++/10.3.1/bits/stl_algobase.h ****    *  @param  __result An output iterator.
 546:/Library/DaisyToolchain/0.2.0/arm/arm-none-eabi/include/c++/10.3.1/bits/stl_algobase.h ****    *  @return   result + (last - first)
 547:/Library/DaisyToolchain/0.2.0/arm/arm-none-eabi/include/c++/10.3.1/bits/stl_algobase.h ****    *
 548:/Library/DaisyToolchain/0.2.0/arm/arm-none-eabi/include/c++/10.3.1/bits/stl_algobase.h ****    *  This inline function will boil down to a call to @c memmove whenever
 549:/Library/DaisyToolchain/0.2.0/arm/arm-none-eabi/include/c++/10.3.1/bits/stl_algobase.h ****    *  possible.  Failing that, if random access iterators are passed, then the
 550:/Library/DaisyToolchain/0.2.0/arm/arm-none-eabi/include/c++/10.3.1/bits/stl_algobase.h ****    *  loop count will be known (and therefore a candidate for compiler
 551:/Library/DaisyToolchain/0.2.0/arm/arm-none-eabi/include/c++/10.3.1/bits/stl_algobase.h ****    *  optimizations such as unrolling).  Result may not be contained within
 552:/Library/DaisyToolchain/0.2.0/arm/arm-none-eabi/include/c++/10.3.1/bits/stl_algobase.h ****    *  [first,last); the copy_backward function should be used instead.
 553:/Library/DaisyToolchain/0.2.0/arm/arm-none-eabi/include/c++/10.3.1/bits/stl_algobase.h ****    *
 554:/Library/DaisyToolchain/0.2.0/arm/arm-none-eabi/include/c++/10.3.1/bits/stl_algobase.h ****    *  Note that the end of the output range is permitted to be contained
 555:/Library/DaisyToolchain/0.2.0/arm/arm-none-eabi/include/c++/10.3.1/bits/stl_algobase.h ****    *  within [first,last).
 556:/Library/DaisyToolchain/0.2.0/arm/arm-none-eabi/include/c++/10.3.1/bits/stl_algobase.h ****   */
 557:/Library/DaisyToolchain/0.2.0/arm/arm-none-eabi/include/c++/10.3.1/bits/stl_algobase.h ****   template<typename _II, typename _OI>
 558:/Library/DaisyToolchain/0.2.0/arm/arm-none-eabi/include/c++/10.3.1/bits/stl_algobase.h ****     _GLIBCXX20_CONSTEXPR
 559:/Library/DaisyToolchain/0.2.0/arm/arm-none-eabi/include/c++/10.3.1/bits/stl_algobase.h ****     inline _OI
 560:/Library/DaisyToolchain/0.2.0/arm/arm-none-eabi/include/c++/10.3.1/bits/stl_algobase.h ****     copy(_II __first, _II __last, _OI __result)
 561:/Library/DaisyToolchain/0.2.0/arm/arm-none-eabi/include/c++/10.3.1/bits/stl_algobase.h ****     {
 562:/Library/DaisyToolchain/0.2.0/arm/arm-none-eabi/include/c++/10.3.1/bits/stl_algobase.h ****       // concept requirements
 563:/Library/DaisyToolchain/0.2.0/arm/arm-none-eabi/include/c++/10.3.1/bits/stl_algobase.h ****       __glibcxx_function_requires(_InputIteratorConcept<_II>)
 564:/Library/DaisyToolchain/0.2.0/arm/arm-none-eabi/include/c++/10.3.1/bits/stl_algobase.h ****       __glibcxx_function_requires(_OutputIteratorConcept<_OI,
 565:/Library/DaisyToolchain/0.2.0/arm/arm-none-eabi/include/c++/10.3.1/bits/stl_algobase.h **** 	    typename iterator_traits<_II>::value_type>)
 566:/Library/DaisyToolchain/0.2.0/arm/arm-none-eabi/include/c++/10.3.1/bits/stl_algobase.h ****       __glibcxx_requires_can_increment_range(__first, __last, __result);
 567:/Library/DaisyToolchain/0.2.0/arm/arm-none-eabi/include/c++/10.3.1/bits/stl_algobase.h **** 
 568:/Library/DaisyToolchain/0.2.0/arm/arm-none-eabi/include/c++/10.3.1/bits/stl_algobase.h ****       return std::__copy_move_a<__is_move_iterator<_II>::__value>
 569:/Library/DaisyToolchain/0.2.0/arm/arm-none-eabi/include/c++/10.3.1/bits/stl_algobase.h **** 	     (std::__miter_base(__first), std::__miter_base(__last), __result);
 570:/Library/DaisyToolchain/0.2.0/arm/arm-none-eabi/include/c++/10.3.1/bits/stl_algobase.h ****     }
 571:/Library/DaisyToolchain/0.2.0/arm/arm-none-eabi/include/c++/10.3.1/bits/stl_algobase.h **** 
 572:/Library/DaisyToolchain/0.2.0/arm/arm-none-eabi/include/c++/10.3.1/bits/stl_algobase.h **** #if __cplusplus >= 201103L
 573:/Library/DaisyToolchain/0.2.0/arm/arm-none-eabi/include/c++/10.3.1/bits/stl_algobase.h ****   /**
 574:/Library/DaisyToolchain/0.2.0/arm/arm-none-eabi/include/c++/10.3.1/bits/stl_algobase.h ****    *  @brief Moves the range [first,last) into result.
 575:/Library/DaisyToolchain/0.2.0/arm/arm-none-eabi/include/c++/10.3.1/bits/stl_algobase.h ****    *  @ingroup mutating_algorithms
 576:/Library/DaisyToolchain/0.2.0/arm/arm-none-eabi/include/c++/10.3.1/bits/stl_algobase.h ****    *  @param  __first  An input iterator.
 577:/Library/DaisyToolchain/0.2.0/arm/arm-none-eabi/include/c++/10.3.1/bits/stl_algobase.h ****    *  @param  __last   An input iterator.
 578:/Library/DaisyToolchain/0.2.0/arm/arm-none-eabi/include/c++/10.3.1/bits/stl_algobase.h ****    *  @param  __result An output iterator.
 579:/Library/DaisyToolchain/0.2.0/arm/arm-none-eabi/include/c++/10.3.1/bits/stl_algobase.h ****    *  @return   result + (last - first)
ARM GAS  /var/folders/hl/qgbwny5j0fd895c2c41bk3tw0000gp/T//cc1L1gWC.s 			page 78


 580:/Library/DaisyToolchain/0.2.0/arm/arm-none-eabi/include/c++/10.3.1/bits/stl_algobase.h ****    *
 581:/Library/DaisyToolchain/0.2.0/arm/arm-none-eabi/include/c++/10.3.1/bits/stl_algobase.h ****    *  This inline function will boil down to a call to @c memmove whenever
 582:/Library/DaisyToolchain/0.2.0/arm/arm-none-eabi/include/c++/10.3.1/bits/stl_algobase.h ****    *  possible.  Failing that, if random access iterators are passed, then the
 583:/Library/DaisyToolchain/0.2.0/arm/arm-none-eabi/include/c++/10.3.1/bits/stl_algobase.h ****    *  loop count will be known (and therefore a candidate for compiler
 584:/Library/DaisyToolchain/0.2.0/arm/arm-none-eabi/include/c++/10.3.1/bits/stl_algobase.h ****    *  optimizations such as unrolling).  Result may not be contained within
 585:/Library/DaisyToolchain/0.2.0/arm/arm-none-eabi/include/c++/10.3.1/bits/stl_algobase.h ****    *  [first,last); the move_backward function should be used instead.
 586:/Library/DaisyToolchain/0.2.0/arm/arm-none-eabi/include/c++/10.3.1/bits/stl_algobase.h ****    *
 587:/Library/DaisyToolchain/0.2.0/arm/arm-none-eabi/include/c++/10.3.1/bits/stl_algobase.h ****    *  Note that the end of the output range is permitted to be contained
 588:/Library/DaisyToolchain/0.2.0/arm/arm-none-eabi/include/c++/10.3.1/bits/stl_algobase.h ****    *  within [first,last).
 589:/Library/DaisyToolchain/0.2.0/arm/arm-none-eabi/include/c++/10.3.1/bits/stl_algobase.h ****   */
 590:/Library/DaisyToolchain/0.2.0/arm/arm-none-eabi/include/c++/10.3.1/bits/stl_algobase.h ****   template<typename _II, typename _OI>
 591:/Library/DaisyToolchain/0.2.0/arm/arm-none-eabi/include/c++/10.3.1/bits/stl_algobase.h ****     _GLIBCXX20_CONSTEXPR
 592:/Library/DaisyToolchain/0.2.0/arm/arm-none-eabi/include/c++/10.3.1/bits/stl_algobase.h ****     inline _OI
 593:/Library/DaisyToolchain/0.2.0/arm/arm-none-eabi/include/c++/10.3.1/bits/stl_algobase.h ****     move(_II __first, _II __last, _OI __result)
 594:/Library/DaisyToolchain/0.2.0/arm/arm-none-eabi/include/c++/10.3.1/bits/stl_algobase.h ****     {
 595:/Library/DaisyToolchain/0.2.0/arm/arm-none-eabi/include/c++/10.3.1/bits/stl_algobase.h ****       // concept requirements
 596:/Library/DaisyToolchain/0.2.0/arm/arm-none-eabi/include/c++/10.3.1/bits/stl_algobase.h ****       __glibcxx_function_requires(_InputIteratorConcept<_II>)
 597:/Library/DaisyToolchain/0.2.0/arm/arm-none-eabi/include/c++/10.3.1/bits/stl_algobase.h ****       __glibcxx_function_requires(_OutputIteratorConcept<_OI,
 598:/Library/DaisyToolchain/0.2.0/arm/arm-none-eabi/include/c++/10.3.1/bits/stl_algobase.h **** 	    typename iterator_traits<_II>::value_type>)
 599:/Library/DaisyToolchain/0.2.0/arm/arm-none-eabi/include/c++/10.3.1/bits/stl_algobase.h ****       __glibcxx_requires_can_increment_range(__first, __last, __result);
 600:/Library/DaisyToolchain/0.2.0/arm/arm-none-eabi/include/c++/10.3.1/bits/stl_algobase.h **** 
 601:/Library/DaisyToolchain/0.2.0/arm/arm-none-eabi/include/c++/10.3.1/bits/stl_algobase.h ****       return std::__copy_move_a<true>(std::__miter_base(__first),
 602:/Library/DaisyToolchain/0.2.0/arm/arm-none-eabi/include/c++/10.3.1/bits/stl_algobase.h **** 				      std::__miter_base(__last), __result);
 603:/Library/DaisyToolchain/0.2.0/arm/arm-none-eabi/include/c++/10.3.1/bits/stl_algobase.h ****     }
 604:/Library/DaisyToolchain/0.2.0/arm/arm-none-eabi/include/c++/10.3.1/bits/stl_algobase.h **** 
 605:/Library/DaisyToolchain/0.2.0/arm/arm-none-eabi/include/c++/10.3.1/bits/stl_algobase.h **** #define _GLIBCXX_MOVE3(_Tp, _Up, _Vp) std::move(_Tp, _Up, _Vp)
 606:/Library/DaisyToolchain/0.2.0/arm/arm-none-eabi/include/c++/10.3.1/bits/stl_algobase.h **** #else
 607:/Library/DaisyToolchain/0.2.0/arm/arm-none-eabi/include/c++/10.3.1/bits/stl_algobase.h **** #define _GLIBCXX_MOVE3(_Tp, _Up, _Vp) std::copy(_Tp, _Up, _Vp)
 608:/Library/DaisyToolchain/0.2.0/arm/arm-none-eabi/include/c++/10.3.1/bits/stl_algobase.h **** #endif
 609:/Library/DaisyToolchain/0.2.0/arm/arm-none-eabi/include/c++/10.3.1/bits/stl_algobase.h **** 
 610:/Library/DaisyToolchain/0.2.0/arm/arm-none-eabi/include/c++/10.3.1/bits/stl_algobase.h ****   template<bool _IsMove, bool _IsSimple, typename _Category>
 611:/Library/DaisyToolchain/0.2.0/arm/arm-none-eabi/include/c++/10.3.1/bits/stl_algobase.h ****     struct __copy_move_backward
 612:/Library/DaisyToolchain/0.2.0/arm/arm-none-eabi/include/c++/10.3.1/bits/stl_algobase.h ****     {
 613:/Library/DaisyToolchain/0.2.0/arm/arm-none-eabi/include/c++/10.3.1/bits/stl_algobase.h ****       template<typename _BI1, typename _BI2>
 614:/Library/DaisyToolchain/0.2.0/arm/arm-none-eabi/include/c++/10.3.1/bits/stl_algobase.h **** 	_GLIBCXX20_CONSTEXPR
 615:/Library/DaisyToolchain/0.2.0/arm/arm-none-eabi/include/c++/10.3.1/bits/stl_algobase.h **** 	static _BI2
 616:/Library/DaisyToolchain/0.2.0/arm/arm-none-eabi/include/c++/10.3.1/bits/stl_algobase.h **** 	__copy_move_b(_BI1 __first, _BI1 __last, _BI2 __result)
 617:/Library/DaisyToolchain/0.2.0/arm/arm-none-eabi/include/c++/10.3.1/bits/stl_algobase.h **** 	{
 618:/Library/DaisyToolchain/0.2.0/arm/arm-none-eabi/include/c++/10.3.1/bits/stl_algobase.h **** 	  while (__first != __last)
 619:/Library/DaisyToolchain/0.2.0/arm/arm-none-eabi/include/c++/10.3.1/bits/stl_algobase.h **** 	    *--__result = *--__last;
 620:/Library/DaisyToolchain/0.2.0/arm/arm-none-eabi/include/c++/10.3.1/bits/stl_algobase.h **** 	  return __result;
 621:/Library/DaisyToolchain/0.2.0/arm/arm-none-eabi/include/c++/10.3.1/bits/stl_algobase.h **** 	}
 622:/Library/DaisyToolchain/0.2.0/arm/arm-none-eabi/include/c++/10.3.1/bits/stl_algobase.h ****     };
 623:/Library/DaisyToolchain/0.2.0/arm/arm-none-eabi/include/c++/10.3.1/bits/stl_algobase.h **** 
 624:/Library/DaisyToolchain/0.2.0/arm/arm-none-eabi/include/c++/10.3.1/bits/stl_algobase.h **** #if __cplusplus >= 201103L
 625:/Library/DaisyToolchain/0.2.0/arm/arm-none-eabi/include/c++/10.3.1/bits/stl_algobase.h ****   template<typename _Category>
 626:/Library/DaisyToolchain/0.2.0/arm/arm-none-eabi/include/c++/10.3.1/bits/stl_algobase.h ****     struct __copy_move_backward<true, false, _Category>
 627:/Library/DaisyToolchain/0.2.0/arm/arm-none-eabi/include/c++/10.3.1/bits/stl_algobase.h ****     {
 628:/Library/DaisyToolchain/0.2.0/arm/arm-none-eabi/include/c++/10.3.1/bits/stl_algobase.h ****       template<typename _BI1, typename _BI2>
 629:/Library/DaisyToolchain/0.2.0/arm/arm-none-eabi/include/c++/10.3.1/bits/stl_algobase.h **** 	_GLIBCXX20_CONSTEXPR
 630:/Library/DaisyToolchain/0.2.0/arm/arm-none-eabi/include/c++/10.3.1/bits/stl_algobase.h **** 	static _BI2
 631:/Library/DaisyToolchain/0.2.0/arm/arm-none-eabi/include/c++/10.3.1/bits/stl_algobase.h **** 	__copy_move_b(_BI1 __first, _BI1 __last, _BI2 __result)
 632:/Library/DaisyToolchain/0.2.0/arm/arm-none-eabi/include/c++/10.3.1/bits/stl_algobase.h **** 	{
 633:/Library/DaisyToolchain/0.2.0/arm/arm-none-eabi/include/c++/10.3.1/bits/stl_algobase.h **** 	  while (__first != __last)
 634:/Library/DaisyToolchain/0.2.0/arm/arm-none-eabi/include/c++/10.3.1/bits/stl_algobase.h **** 	    *--__result = std::move(*--__last);
 635:/Library/DaisyToolchain/0.2.0/arm/arm-none-eabi/include/c++/10.3.1/bits/stl_algobase.h **** 	  return __result;
 636:/Library/DaisyToolchain/0.2.0/arm/arm-none-eabi/include/c++/10.3.1/bits/stl_algobase.h **** 	}
ARM GAS  /var/folders/hl/qgbwny5j0fd895c2c41bk3tw0000gp/T//cc1L1gWC.s 			page 79


 637:/Library/DaisyToolchain/0.2.0/arm/arm-none-eabi/include/c++/10.3.1/bits/stl_algobase.h ****     };
 638:/Library/DaisyToolchain/0.2.0/arm/arm-none-eabi/include/c++/10.3.1/bits/stl_algobase.h **** #endif
 639:/Library/DaisyToolchain/0.2.0/arm/arm-none-eabi/include/c++/10.3.1/bits/stl_algobase.h **** 
 640:/Library/DaisyToolchain/0.2.0/arm/arm-none-eabi/include/c++/10.3.1/bits/stl_algobase.h ****   template<>
 641:/Library/DaisyToolchain/0.2.0/arm/arm-none-eabi/include/c++/10.3.1/bits/stl_algobase.h ****     struct __copy_move_backward<false, false, random_access_iterator_tag>
 642:/Library/DaisyToolchain/0.2.0/arm/arm-none-eabi/include/c++/10.3.1/bits/stl_algobase.h ****     {
 643:/Library/DaisyToolchain/0.2.0/arm/arm-none-eabi/include/c++/10.3.1/bits/stl_algobase.h ****       template<typename _BI1, typename _BI2>
 644:/Library/DaisyToolchain/0.2.0/arm/arm-none-eabi/include/c++/10.3.1/bits/stl_algobase.h **** 	_GLIBCXX20_CONSTEXPR
 645:/Library/DaisyToolchain/0.2.0/arm/arm-none-eabi/include/c++/10.3.1/bits/stl_algobase.h **** 	static _BI2
 646:/Library/DaisyToolchain/0.2.0/arm/arm-none-eabi/include/c++/10.3.1/bits/stl_algobase.h **** 	__copy_move_b(_BI1 __first, _BI1 __last, _BI2 __result)
 647:/Library/DaisyToolchain/0.2.0/arm/arm-none-eabi/include/c++/10.3.1/bits/stl_algobase.h **** 	{
 648:/Library/DaisyToolchain/0.2.0/arm/arm-none-eabi/include/c++/10.3.1/bits/stl_algobase.h **** 	  typename iterator_traits<_BI1>::difference_type
 649:/Library/DaisyToolchain/0.2.0/arm/arm-none-eabi/include/c++/10.3.1/bits/stl_algobase.h **** 	    __n = __last - __first;
 650:/Library/DaisyToolchain/0.2.0/arm/arm-none-eabi/include/c++/10.3.1/bits/stl_algobase.h **** 	  for (; __n > 0; --__n)
 651:/Library/DaisyToolchain/0.2.0/arm/arm-none-eabi/include/c++/10.3.1/bits/stl_algobase.h **** 	    *--__result = *--__last;
 652:/Library/DaisyToolchain/0.2.0/arm/arm-none-eabi/include/c++/10.3.1/bits/stl_algobase.h **** 	  return __result;
 653:/Library/DaisyToolchain/0.2.0/arm/arm-none-eabi/include/c++/10.3.1/bits/stl_algobase.h **** 	}
 654:/Library/DaisyToolchain/0.2.0/arm/arm-none-eabi/include/c++/10.3.1/bits/stl_algobase.h ****     };
 655:/Library/DaisyToolchain/0.2.0/arm/arm-none-eabi/include/c++/10.3.1/bits/stl_algobase.h **** 
 656:/Library/DaisyToolchain/0.2.0/arm/arm-none-eabi/include/c++/10.3.1/bits/stl_algobase.h **** #if __cplusplus >= 201103L
 657:/Library/DaisyToolchain/0.2.0/arm/arm-none-eabi/include/c++/10.3.1/bits/stl_algobase.h ****   template<>
 658:/Library/DaisyToolchain/0.2.0/arm/arm-none-eabi/include/c++/10.3.1/bits/stl_algobase.h ****     struct __copy_move_backward<true, false, random_access_iterator_tag>
 659:/Library/DaisyToolchain/0.2.0/arm/arm-none-eabi/include/c++/10.3.1/bits/stl_algobase.h ****     {
 660:/Library/DaisyToolchain/0.2.0/arm/arm-none-eabi/include/c++/10.3.1/bits/stl_algobase.h ****       template<typename _BI1, typename _BI2>
 661:/Library/DaisyToolchain/0.2.0/arm/arm-none-eabi/include/c++/10.3.1/bits/stl_algobase.h **** 	_GLIBCXX20_CONSTEXPR
 662:/Library/DaisyToolchain/0.2.0/arm/arm-none-eabi/include/c++/10.3.1/bits/stl_algobase.h **** 	static _BI2
 663:/Library/DaisyToolchain/0.2.0/arm/arm-none-eabi/include/c++/10.3.1/bits/stl_algobase.h **** 	__copy_move_b(_BI1 __first, _BI1 __last, _BI2 __result)
 664:/Library/DaisyToolchain/0.2.0/arm/arm-none-eabi/include/c++/10.3.1/bits/stl_algobase.h **** 	{
 665:/Library/DaisyToolchain/0.2.0/arm/arm-none-eabi/include/c++/10.3.1/bits/stl_algobase.h **** 	  typename iterator_traits<_BI1>::difference_type
 666:/Library/DaisyToolchain/0.2.0/arm/arm-none-eabi/include/c++/10.3.1/bits/stl_algobase.h **** 	    __n = __last - __first;
 667:/Library/DaisyToolchain/0.2.0/arm/arm-none-eabi/include/c++/10.3.1/bits/stl_algobase.h **** 	  for (; __n > 0; --__n)
 668:/Library/DaisyToolchain/0.2.0/arm/arm-none-eabi/include/c++/10.3.1/bits/stl_algobase.h **** 	    *--__result = std::move(*--__last);
 669:/Library/DaisyToolchain/0.2.0/arm/arm-none-eabi/include/c++/10.3.1/bits/stl_algobase.h **** 	  return __result;
 670:/Library/DaisyToolchain/0.2.0/arm/arm-none-eabi/include/c++/10.3.1/bits/stl_algobase.h **** 	}
 671:/Library/DaisyToolchain/0.2.0/arm/arm-none-eabi/include/c++/10.3.1/bits/stl_algobase.h ****     };
 672:/Library/DaisyToolchain/0.2.0/arm/arm-none-eabi/include/c++/10.3.1/bits/stl_algobase.h **** #endif
 673:/Library/DaisyToolchain/0.2.0/arm/arm-none-eabi/include/c++/10.3.1/bits/stl_algobase.h **** 
 674:/Library/DaisyToolchain/0.2.0/arm/arm-none-eabi/include/c++/10.3.1/bits/stl_algobase.h ****   template<bool _IsMove>
 675:/Library/DaisyToolchain/0.2.0/arm/arm-none-eabi/include/c++/10.3.1/bits/stl_algobase.h ****     struct __copy_move_backward<_IsMove, true, random_access_iterator_tag>
 676:/Library/DaisyToolchain/0.2.0/arm/arm-none-eabi/include/c++/10.3.1/bits/stl_algobase.h ****     {
 677:/Library/DaisyToolchain/0.2.0/arm/arm-none-eabi/include/c++/10.3.1/bits/stl_algobase.h ****       template<typename _Tp>
 678:/Library/DaisyToolchain/0.2.0/arm/arm-none-eabi/include/c++/10.3.1/bits/stl_algobase.h **** 	_GLIBCXX20_CONSTEXPR
 679:/Library/DaisyToolchain/0.2.0/arm/arm-none-eabi/include/c++/10.3.1/bits/stl_algobase.h **** 	static _Tp*
 680:/Library/DaisyToolchain/0.2.0/arm/arm-none-eabi/include/c++/10.3.1/bits/stl_algobase.h **** 	__copy_move_b(const _Tp* __first, const _Tp* __last, _Tp* __result)
 681:/Library/DaisyToolchain/0.2.0/arm/arm-none-eabi/include/c++/10.3.1/bits/stl_algobase.h **** 	{
 682:/Library/DaisyToolchain/0.2.0/arm/arm-none-eabi/include/c++/10.3.1/bits/stl_algobase.h **** #if __cplusplus >= 201103L
 683:/Library/DaisyToolchain/0.2.0/arm/arm-none-eabi/include/c++/10.3.1/bits/stl_algobase.h **** 	  using __assignable = conditional<_IsMove,
 684:/Library/DaisyToolchain/0.2.0/arm/arm-none-eabi/include/c++/10.3.1/bits/stl_algobase.h **** 					   is_move_assignable<_Tp>,
 685:/Library/DaisyToolchain/0.2.0/arm/arm-none-eabi/include/c++/10.3.1/bits/stl_algobase.h **** 					   is_copy_assignable<_Tp>>;
 686:/Library/DaisyToolchain/0.2.0/arm/arm-none-eabi/include/c++/10.3.1/bits/stl_algobase.h **** 	  // trivial types can have deleted assignment
 687:/Library/DaisyToolchain/0.2.0/arm/arm-none-eabi/include/c++/10.3.1/bits/stl_algobase.h **** 	  static_assert( __assignable::type::value, "type is not assignable" );
 688:/Library/DaisyToolchain/0.2.0/arm/arm-none-eabi/include/c++/10.3.1/bits/stl_algobase.h **** #endif
 689:/Library/DaisyToolchain/0.2.0/arm/arm-none-eabi/include/c++/10.3.1/bits/stl_algobase.h **** 	  const ptrdiff_t _Num = __last - __first;
 690:/Library/DaisyToolchain/0.2.0/arm/arm-none-eabi/include/c++/10.3.1/bits/stl_algobase.h **** 	  if (_Num)
 691:/Library/DaisyToolchain/0.2.0/arm/arm-none-eabi/include/c++/10.3.1/bits/stl_algobase.h **** 	    __builtin_memmove(__result - _Num, __first, sizeof(_Tp) * _Num);
 692:/Library/DaisyToolchain/0.2.0/arm/arm-none-eabi/include/c++/10.3.1/bits/stl_algobase.h **** 	  return __result - _Num;
 693:/Library/DaisyToolchain/0.2.0/arm/arm-none-eabi/include/c++/10.3.1/bits/stl_algobase.h **** 	}
ARM GAS  /var/folders/hl/qgbwny5j0fd895c2c41bk3tw0000gp/T//cc1L1gWC.s 			page 80


 694:/Library/DaisyToolchain/0.2.0/arm/arm-none-eabi/include/c++/10.3.1/bits/stl_algobase.h ****     };
 695:/Library/DaisyToolchain/0.2.0/arm/arm-none-eabi/include/c++/10.3.1/bits/stl_algobase.h **** 
 696:/Library/DaisyToolchain/0.2.0/arm/arm-none-eabi/include/c++/10.3.1/bits/stl_algobase.h ****   template<bool _IsMove, typename _BI1, typename _BI2>
 697:/Library/DaisyToolchain/0.2.0/arm/arm-none-eabi/include/c++/10.3.1/bits/stl_algobase.h ****     _GLIBCXX20_CONSTEXPR
 698:/Library/DaisyToolchain/0.2.0/arm/arm-none-eabi/include/c++/10.3.1/bits/stl_algobase.h ****     inline _BI2
 699:/Library/DaisyToolchain/0.2.0/arm/arm-none-eabi/include/c++/10.3.1/bits/stl_algobase.h ****     __copy_move_backward_a2(_BI1 __first, _BI1 __last, _BI2 __result)
 700:/Library/DaisyToolchain/0.2.0/arm/arm-none-eabi/include/c++/10.3.1/bits/stl_algobase.h ****     {
 701:/Library/DaisyToolchain/0.2.0/arm/arm-none-eabi/include/c++/10.3.1/bits/stl_algobase.h ****       typedef typename iterator_traits<_BI1>::iterator_category _Category;
 702:/Library/DaisyToolchain/0.2.0/arm/arm-none-eabi/include/c++/10.3.1/bits/stl_algobase.h **** #ifdef __cpp_lib_is_constant_evaluated
 703:/Library/DaisyToolchain/0.2.0/arm/arm-none-eabi/include/c++/10.3.1/bits/stl_algobase.h ****       if (std::is_constant_evaluated())
 704:/Library/DaisyToolchain/0.2.0/arm/arm-none-eabi/include/c++/10.3.1/bits/stl_algobase.h **** 	return std::__copy_move_backward<_IsMove, false, _Category>::
 705:/Library/DaisyToolchain/0.2.0/arm/arm-none-eabi/include/c++/10.3.1/bits/stl_algobase.h **** 	  __copy_move_b(__first, __last, __result);
 706:/Library/DaisyToolchain/0.2.0/arm/arm-none-eabi/include/c++/10.3.1/bits/stl_algobase.h **** #endif
 707:/Library/DaisyToolchain/0.2.0/arm/arm-none-eabi/include/c++/10.3.1/bits/stl_algobase.h ****       return std::__copy_move_backward<_IsMove,
 708:/Library/DaisyToolchain/0.2.0/arm/arm-none-eabi/include/c++/10.3.1/bits/stl_algobase.h **** 				       __memcpyable<_BI2, _BI1>::__value,
 709:/Library/DaisyToolchain/0.2.0/arm/arm-none-eabi/include/c++/10.3.1/bits/stl_algobase.h **** 				       _Category>::__copy_move_b(__first,
 710:/Library/DaisyToolchain/0.2.0/arm/arm-none-eabi/include/c++/10.3.1/bits/stl_algobase.h **** 								 __last,
 711:/Library/DaisyToolchain/0.2.0/arm/arm-none-eabi/include/c++/10.3.1/bits/stl_algobase.h **** 								 __result);
 712:/Library/DaisyToolchain/0.2.0/arm/arm-none-eabi/include/c++/10.3.1/bits/stl_algobase.h ****     }
 713:/Library/DaisyToolchain/0.2.0/arm/arm-none-eabi/include/c++/10.3.1/bits/stl_algobase.h **** 
 714:/Library/DaisyToolchain/0.2.0/arm/arm-none-eabi/include/c++/10.3.1/bits/stl_algobase.h ****   template<bool _IsMove, typename _BI1, typename _BI2>
 715:/Library/DaisyToolchain/0.2.0/arm/arm-none-eabi/include/c++/10.3.1/bits/stl_algobase.h ****     _GLIBCXX20_CONSTEXPR
 716:/Library/DaisyToolchain/0.2.0/arm/arm-none-eabi/include/c++/10.3.1/bits/stl_algobase.h ****     inline _BI2
 717:/Library/DaisyToolchain/0.2.0/arm/arm-none-eabi/include/c++/10.3.1/bits/stl_algobase.h ****     __copy_move_backward_a1(_BI1 __first, _BI1 __last, _BI2 __result)
 718:/Library/DaisyToolchain/0.2.0/arm/arm-none-eabi/include/c++/10.3.1/bits/stl_algobase.h ****     { return std::__copy_move_backward_a2<_IsMove>(__first, __last, __result); }
 719:/Library/DaisyToolchain/0.2.0/arm/arm-none-eabi/include/c++/10.3.1/bits/stl_algobase.h **** 
 720:/Library/DaisyToolchain/0.2.0/arm/arm-none-eabi/include/c++/10.3.1/bits/stl_algobase.h ****   template<bool _IsMove,
 721:/Library/DaisyToolchain/0.2.0/arm/arm-none-eabi/include/c++/10.3.1/bits/stl_algobase.h **** 	   typename _Tp, typename _Ref, typename _Ptr, typename _OI>
 722:/Library/DaisyToolchain/0.2.0/arm/arm-none-eabi/include/c++/10.3.1/bits/stl_algobase.h ****     _OI
 723:/Library/DaisyToolchain/0.2.0/arm/arm-none-eabi/include/c++/10.3.1/bits/stl_algobase.h ****     __copy_move_backward_a1(_GLIBCXX_STD_C::_Deque_iterator<_Tp, _Ref, _Ptr>,
 724:/Library/DaisyToolchain/0.2.0/arm/arm-none-eabi/include/c++/10.3.1/bits/stl_algobase.h **** 			    _GLIBCXX_STD_C::_Deque_iterator<_Tp, _Ref, _Ptr>,
 725:/Library/DaisyToolchain/0.2.0/arm/arm-none-eabi/include/c++/10.3.1/bits/stl_algobase.h **** 			    _OI);
 726:/Library/DaisyToolchain/0.2.0/arm/arm-none-eabi/include/c++/10.3.1/bits/stl_algobase.h **** 
 727:/Library/DaisyToolchain/0.2.0/arm/arm-none-eabi/include/c++/10.3.1/bits/stl_algobase.h ****   template<bool _IsMove,
 728:/Library/DaisyToolchain/0.2.0/arm/arm-none-eabi/include/c++/10.3.1/bits/stl_algobase.h **** 	   typename _ITp, typename _IRef, typename _IPtr, typename _OTp>
 729:/Library/DaisyToolchain/0.2.0/arm/arm-none-eabi/include/c++/10.3.1/bits/stl_algobase.h ****     _GLIBCXX_STD_C::_Deque_iterator<_OTp, _OTp&, _OTp*>
 730:/Library/DaisyToolchain/0.2.0/arm/arm-none-eabi/include/c++/10.3.1/bits/stl_algobase.h ****     __copy_move_backward_a1(
 731:/Library/DaisyToolchain/0.2.0/arm/arm-none-eabi/include/c++/10.3.1/bits/stl_algobase.h **** 			_GLIBCXX_STD_C::_Deque_iterator<_ITp, _IRef, _IPtr>,
 732:/Library/DaisyToolchain/0.2.0/arm/arm-none-eabi/include/c++/10.3.1/bits/stl_algobase.h **** 			_GLIBCXX_STD_C::_Deque_iterator<_ITp, _IRef, _IPtr>,
 733:/Library/DaisyToolchain/0.2.0/arm/arm-none-eabi/include/c++/10.3.1/bits/stl_algobase.h **** 			_GLIBCXX_STD_C::_Deque_iterator<_OTp, _OTp&, _OTp*>);
 734:/Library/DaisyToolchain/0.2.0/arm/arm-none-eabi/include/c++/10.3.1/bits/stl_algobase.h **** 
 735:/Library/DaisyToolchain/0.2.0/arm/arm-none-eabi/include/c++/10.3.1/bits/stl_algobase.h ****   template<bool _IsMove, typename _II, typename _Tp>
 736:/Library/DaisyToolchain/0.2.0/arm/arm-none-eabi/include/c++/10.3.1/bits/stl_algobase.h ****     typename __gnu_cxx::__enable_if<
 737:/Library/DaisyToolchain/0.2.0/arm/arm-none-eabi/include/c++/10.3.1/bits/stl_algobase.h ****       __is_random_access_iter<_II>::__value,
 738:/Library/DaisyToolchain/0.2.0/arm/arm-none-eabi/include/c++/10.3.1/bits/stl_algobase.h ****       _GLIBCXX_STD_C::_Deque_iterator<_Tp, _Tp&, _Tp*> >::__type
 739:/Library/DaisyToolchain/0.2.0/arm/arm-none-eabi/include/c++/10.3.1/bits/stl_algobase.h ****     __copy_move_backward_a1(_II, _II,
 740:/Library/DaisyToolchain/0.2.0/arm/arm-none-eabi/include/c++/10.3.1/bits/stl_algobase.h **** 			    _GLIBCXX_STD_C::_Deque_iterator<_Tp, _Tp&, _Tp*>);
 741:/Library/DaisyToolchain/0.2.0/arm/arm-none-eabi/include/c++/10.3.1/bits/stl_algobase.h **** 
 742:/Library/DaisyToolchain/0.2.0/arm/arm-none-eabi/include/c++/10.3.1/bits/stl_algobase.h ****   template<bool _IsMove, typename _II, typename _OI>
 743:/Library/DaisyToolchain/0.2.0/arm/arm-none-eabi/include/c++/10.3.1/bits/stl_algobase.h ****     _GLIBCXX20_CONSTEXPR
 744:/Library/DaisyToolchain/0.2.0/arm/arm-none-eabi/include/c++/10.3.1/bits/stl_algobase.h ****     inline _OI
 745:/Library/DaisyToolchain/0.2.0/arm/arm-none-eabi/include/c++/10.3.1/bits/stl_algobase.h ****     __copy_move_backward_a(_II __first, _II __last, _OI __result)
 746:/Library/DaisyToolchain/0.2.0/arm/arm-none-eabi/include/c++/10.3.1/bits/stl_algobase.h ****     {
 747:/Library/DaisyToolchain/0.2.0/arm/arm-none-eabi/include/c++/10.3.1/bits/stl_algobase.h ****       return std::__niter_wrap(__result,
 748:/Library/DaisyToolchain/0.2.0/arm/arm-none-eabi/include/c++/10.3.1/bits/stl_algobase.h **** 		std::__copy_move_backward_a1<_IsMove>
 749:/Library/DaisyToolchain/0.2.0/arm/arm-none-eabi/include/c++/10.3.1/bits/stl_algobase.h **** 		  (std::__niter_base(__first), std::__niter_base(__last),
 750:/Library/DaisyToolchain/0.2.0/arm/arm-none-eabi/include/c++/10.3.1/bits/stl_algobase.h **** 		   std::__niter_base(__result)));
ARM GAS  /var/folders/hl/qgbwny5j0fd895c2c41bk3tw0000gp/T//cc1L1gWC.s 			page 81


 751:/Library/DaisyToolchain/0.2.0/arm/arm-none-eabi/include/c++/10.3.1/bits/stl_algobase.h ****     }
 752:/Library/DaisyToolchain/0.2.0/arm/arm-none-eabi/include/c++/10.3.1/bits/stl_algobase.h **** 
 753:/Library/DaisyToolchain/0.2.0/arm/arm-none-eabi/include/c++/10.3.1/bits/stl_algobase.h ****   template<bool _IsMove,
 754:/Library/DaisyToolchain/0.2.0/arm/arm-none-eabi/include/c++/10.3.1/bits/stl_algobase.h **** 	   typename _Ite, typename _Seq, typename _Cat, typename _OI>
 755:/Library/DaisyToolchain/0.2.0/arm/arm-none-eabi/include/c++/10.3.1/bits/stl_algobase.h ****     _OI
 756:/Library/DaisyToolchain/0.2.0/arm/arm-none-eabi/include/c++/10.3.1/bits/stl_algobase.h ****     __copy_move_backward_a(
 757:/Library/DaisyToolchain/0.2.0/arm/arm-none-eabi/include/c++/10.3.1/bits/stl_algobase.h **** 		const ::__gnu_debug::_Safe_iterator<_Ite, _Seq, _Cat>&,
 758:/Library/DaisyToolchain/0.2.0/arm/arm-none-eabi/include/c++/10.3.1/bits/stl_algobase.h **** 		const ::__gnu_debug::_Safe_iterator<_Ite, _Seq, _Cat>&,
 759:/Library/DaisyToolchain/0.2.0/arm/arm-none-eabi/include/c++/10.3.1/bits/stl_algobase.h **** 		_OI);
 760:/Library/DaisyToolchain/0.2.0/arm/arm-none-eabi/include/c++/10.3.1/bits/stl_algobase.h **** 
 761:/Library/DaisyToolchain/0.2.0/arm/arm-none-eabi/include/c++/10.3.1/bits/stl_algobase.h ****   template<bool _IsMove,
 762:/Library/DaisyToolchain/0.2.0/arm/arm-none-eabi/include/c++/10.3.1/bits/stl_algobase.h **** 	   typename _II, typename _Ite, typename _Seq, typename _Cat>
 763:/Library/DaisyToolchain/0.2.0/arm/arm-none-eabi/include/c++/10.3.1/bits/stl_algobase.h ****     __gnu_debug::_Safe_iterator<_Ite, _Seq, _Cat>
 764:/Library/DaisyToolchain/0.2.0/arm/arm-none-eabi/include/c++/10.3.1/bits/stl_algobase.h ****     __copy_move_backward_a(_II, _II,
 765:/Library/DaisyToolchain/0.2.0/arm/arm-none-eabi/include/c++/10.3.1/bits/stl_algobase.h **** 		const ::__gnu_debug::_Safe_iterator<_Ite, _Seq, _Cat>&);
 766:/Library/DaisyToolchain/0.2.0/arm/arm-none-eabi/include/c++/10.3.1/bits/stl_algobase.h **** 
 767:/Library/DaisyToolchain/0.2.0/arm/arm-none-eabi/include/c++/10.3.1/bits/stl_algobase.h ****   template<bool _IsMove,
 768:/Library/DaisyToolchain/0.2.0/arm/arm-none-eabi/include/c++/10.3.1/bits/stl_algobase.h **** 	   typename _IIte, typename _ISeq, typename _ICat,
 769:/Library/DaisyToolchain/0.2.0/arm/arm-none-eabi/include/c++/10.3.1/bits/stl_algobase.h **** 	   typename _OIte, typename _OSeq, typename _OCat>
 770:/Library/DaisyToolchain/0.2.0/arm/arm-none-eabi/include/c++/10.3.1/bits/stl_algobase.h ****     ::__gnu_debug::_Safe_iterator<_OIte, _OSeq, _OCat>
 771:/Library/DaisyToolchain/0.2.0/arm/arm-none-eabi/include/c++/10.3.1/bits/stl_algobase.h ****     __copy_move_backward_a(
 772:/Library/DaisyToolchain/0.2.0/arm/arm-none-eabi/include/c++/10.3.1/bits/stl_algobase.h **** 		const ::__gnu_debug::_Safe_iterator<_IIte, _ISeq, _ICat>&,
 773:/Library/DaisyToolchain/0.2.0/arm/arm-none-eabi/include/c++/10.3.1/bits/stl_algobase.h **** 		const ::__gnu_debug::_Safe_iterator<_IIte, _ISeq, _ICat>&,
 774:/Library/DaisyToolchain/0.2.0/arm/arm-none-eabi/include/c++/10.3.1/bits/stl_algobase.h **** 		const ::__gnu_debug::_Safe_iterator<_OIte, _OSeq, _OCat>&);
 775:/Library/DaisyToolchain/0.2.0/arm/arm-none-eabi/include/c++/10.3.1/bits/stl_algobase.h **** 
 776:/Library/DaisyToolchain/0.2.0/arm/arm-none-eabi/include/c++/10.3.1/bits/stl_algobase.h ****   /**
 777:/Library/DaisyToolchain/0.2.0/arm/arm-none-eabi/include/c++/10.3.1/bits/stl_algobase.h ****    *  @brief Copies the range [first,last) into result.
 778:/Library/DaisyToolchain/0.2.0/arm/arm-none-eabi/include/c++/10.3.1/bits/stl_algobase.h ****    *  @ingroup mutating_algorithms
 779:/Library/DaisyToolchain/0.2.0/arm/arm-none-eabi/include/c++/10.3.1/bits/stl_algobase.h ****    *  @param  __first  A bidirectional iterator.
 780:/Library/DaisyToolchain/0.2.0/arm/arm-none-eabi/include/c++/10.3.1/bits/stl_algobase.h ****    *  @param  __last   A bidirectional iterator.
 781:/Library/DaisyToolchain/0.2.0/arm/arm-none-eabi/include/c++/10.3.1/bits/stl_algobase.h ****    *  @param  __result A bidirectional iterator.
 782:/Library/DaisyToolchain/0.2.0/arm/arm-none-eabi/include/c++/10.3.1/bits/stl_algobase.h ****    *  @return   result - (last - first)
 783:/Library/DaisyToolchain/0.2.0/arm/arm-none-eabi/include/c++/10.3.1/bits/stl_algobase.h ****    *
 784:/Library/DaisyToolchain/0.2.0/arm/arm-none-eabi/include/c++/10.3.1/bits/stl_algobase.h ****    *  The function has the same effect as copy, but starts at the end of the
 785:/Library/DaisyToolchain/0.2.0/arm/arm-none-eabi/include/c++/10.3.1/bits/stl_algobase.h ****    *  range and works its way to the start, returning the start of the result.
 786:/Library/DaisyToolchain/0.2.0/arm/arm-none-eabi/include/c++/10.3.1/bits/stl_algobase.h ****    *  This inline function will boil down to a call to @c memmove whenever
 787:/Library/DaisyToolchain/0.2.0/arm/arm-none-eabi/include/c++/10.3.1/bits/stl_algobase.h ****    *  possible.  Failing that, if random access iterators are passed, then the
 788:/Library/DaisyToolchain/0.2.0/arm/arm-none-eabi/include/c++/10.3.1/bits/stl_algobase.h ****    *  loop count will be known (and therefore a candidate for compiler
 789:/Library/DaisyToolchain/0.2.0/arm/arm-none-eabi/include/c++/10.3.1/bits/stl_algobase.h ****    *  optimizations such as unrolling).
 790:/Library/DaisyToolchain/0.2.0/arm/arm-none-eabi/include/c++/10.3.1/bits/stl_algobase.h ****    *
 791:/Library/DaisyToolchain/0.2.0/arm/arm-none-eabi/include/c++/10.3.1/bits/stl_algobase.h ****    *  Result may not be in the range (first,last].  Use copy instead.  Note
 792:/Library/DaisyToolchain/0.2.0/arm/arm-none-eabi/include/c++/10.3.1/bits/stl_algobase.h ****    *  that the start of the output range may overlap [first,last).
 793:/Library/DaisyToolchain/0.2.0/arm/arm-none-eabi/include/c++/10.3.1/bits/stl_algobase.h ****   */
 794:/Library/DaisyToolchain/0.2.0/arm/arm-none-eabi/include/c++/10.3.1/bits/stl_algobase.h ****   template<typename _BI1, typename _BI2>
 795:/Library/DaisyToolchain/0.2.0/arm/arm-none-eabi/include/c++/10.3.1/bits/stl_algobase.h ****     _GLIBCXX20_CONSTEXPR
 796:/Library/DaisyToolchain/0.2.0/arm/arm-none-eabi/include/c++/10.3.1/bits/stl_algobase.h ****     inline _BI2
 797:/Library/DaisyToolchain/0.2.0/arm/arm-none-eabi/include/c++/10.3.1/bits/stl_algobase.h ****     copy_backward(_BI1 __first, _BI1 __last, _BI2 __result)
 798:/Library/DaisyToolchain/0.2.0/arm/arm-none-eabi/include/c++/10.3.1/bits/stl_algobase.h ****     {
 799:/Library/DaisyToolchain/0.2.0/arm/arm-none-eabi/include/c++/10.3.1/bits/stl_algobase.h ****       // concept requirements
 800:/Library/DaisyToolchain/0.2.0/arm/arm-none-eabi/include/c++/10.3.1/bits/stl_algobase.h ****       __glibcxx_function_requires(_BidirectionalIteratorConcept<_BI1>)
 801:/Library/DaisyToolchain/0.2.0/arm/arm-none-eabi/include/c++/10.3.1/bits/stl_algobase.h ****       __glibcxx_function_requires(_Mutable_BidirectionalIteratorConcept<_BI2>)
 802:/Library/DaisyToolchain/0.2.0/arm/arm-none-eabi/include/c++/10.3.1/bits/stl_algobase.h ****       __glibcxx_function_requires(_ConvertibleConcept<
 803:/Library/DaisyToolchain/0.2.0/arm/arm-none-eabi/include/c++/10.3.1/bits/stl_algobase.h **** 	    typename iterator_traits<_BI1>::value_type,
 804:/Library/DaisyToolchain/0.2.0/arm/arm-none-eabi/include/c++/10.3.1/bits/stl_algobase.h **** 	    typename iterator_traits<_BI2>::value_type>)
 805:/Library/DaisyToolchain/0.2.0/arm/arm-none-eabi/include/c++/10.3.1/bits/stl_algobase.h ****       __glibcxx_requires_can_decrement_range(__first, __last, __result);
 806:/Library/DaisyToolchain/0.2.0/arm/arm-none-eabi/include/c++/10.3.1/bits/stl_algobase.h **** 
 807:/Library/DaisyToolchain/0.2.0/arm/arm-none-eabi/include/c++/10.3.1/bits/stl_algobase.h ****       return std::__copy_move_backward_a<__is_move_iterator<_BI1>::__value>
ARM GAS  /var/folders/hl/qgbwny5j0fd895c2c41bk3tw0000gp/T//cc1L1gWC.s 			page 82


 808:/Library/DaisyToolchain/0.2.0/arm/arm-none-eabi/include/c++/10.3.1/bits/stl_algobase.h **** 	     (std::__miter_base(__first), std::__miter_base(__last), __result);
 809:/Library/DaisyToolchain/0.2.0/arm/arm-none-eabi/include/c++/10.3.1/bits/stl_algobase.h ****     }
 810:/Library/DaisyToolchain/0.2.0/arm/arm-none-eabi/include/c++/10.3.1/bits/stl_algobase.h **** 
 811:/Library/DaisyToolchain/0.2.0/arm/arm-none-eabi/include/c++/10.3.1/bits/stl_algobase.h **** #if __cplusplus >= 201103L
 812:/Library/DaisyToolchain/0.2.0/arm/arm-none-eabi/include/c++/10.3.1/bits/stl_algobase.h ****   /**
 813:/Library/DaisyToolchain/0.2.0/arm/arm-none-eabi/include/c++/10.3.1/bits/stl_algobase.h ****    *  @brief Moves the range [first,last) into result.
 814:/Library/DaisyToolchain/0.2.0/arm/arm-none-eabi/include/c++/10.3.1/bits/stl_algobase.h ****    *  @ingroup mutating_algorithms
 815:/Library/DaisyToolchain/0.2.0/arm/arm-none-eabi/include/c++/10.3.1/bits/stl_algobase.h ****    *  @param  __first  A bidirectional iterator.
 816:/Library/DaisyToolchain/0.2.0/arm/arm-none-eabi/include/c++/10.3.1/bits/stl_algobase.h ****    *  @param  __last   A bidirectional iterator.
 817:/Library/DaisyToolchain/0.2.0/arm/arm-none-eabi/include/c++/10.3.1/bits/stl_algobase.h ****    *  @param  __result A bidirectional iterator.
 818:/Library/DaisyToolchain/0.2.0/arm/arm-none-eabi/include/c++/10.3.1/bits/stl_algobase.h ****    *  @return   result - (last - first)
 819:/Library/DaisyToolchain/0.2.0/arm/arm-none-eabi/include/c++/10.3.1/bits/stl_algobase.h ****    *
 820:/Library/DaisyToolchain/0.2.0/arm/arm-none-eabi/include/c++/10.3.1/bits/stl_algobase.h ****    *  The function has the same effect as move, but starts at the end of the
 821:/Library/DaisyToolchain/0.2.0/arm/arm-none-eabi/include/c++/10.3.1/bits/stl_algobase.h ****    *  range and works its way to the start, returning the start of the result.
 822:/Library/DaisyToolchain/0.2.0/arm/arm-none-eabi/include/c++/10.3.1/bits/stl_algobase.h ****    *  This inline function will boil down to a call to @c memmove whenever
 823:/Library/DaisyToolchain/0.2.0/arm/arm-none-eabi/include/c++/10.3.1/bits/stl_algobase.h ****    *  possible.  Failing that, if random access iterators are passed, then the
 824:/Library/DaisyToolchain/0.2.0/arm/arm-none-eabi/include/c++/10.3.1/bits/stl_algobase.h ****    *  loop count will be known (and therefore a candidate for compiler
 825:/Library/DaisyToolchain/0.2.0/arm/arm-none-eabi/include/c++/10.3.1/bits/stl_algobase.h ****    *  optimizations such as unrolling).
 826:/Library/DaisyToolchain/0.2.0/arm/arm-none-eabi/include/c++/10.3.1/bits/stl_algobase.h ****    *
 827:/Library/DaisyToolchain/0.2.0/arm/arm-none-eabi/include/c++/10.3.1/bits/stl_algobase.h ****    *  Result may not be in the range (first,last].  Use move instead.  Note
 828:/Library/DaisyToolchain/0.2.0/arm/arm-none-eabi/include/c++/10.3.1/bits/stl_algobase.h ****    *  that the start of the output range may overlap [first,last).
 829:/Library/DaisyToolchain/0.2.0/arm/arm-none-eabi/include/c++/10.3.1/bits/stl_algobase.h ****   */
 830:/Library/DaisyToolchain/0.2.0/arm/arm-none-eabi/include/c++/10.3.1/bits/stl_algobase.h ****   template<typename _BI1, typename _BI2>
 831:/Library/DaisyToolchain/0.2.0/arm/arm-none-eabi/include/c++/10.3.1/bits/stl_algobase.h ****     _GLIBCXX20_CONSTEXPR
 832:/Library/DaisyToolchain/0.2.0/arm/arm-none-eabi/include/c++/10.3.1/bits/stl_algobase.h ****     inline _BI2
 833:/Library/DaisyToolchain/0.2.0/arm/arm-none-eabi/include/c++/10.3.1/bits/stl_algobase.h ****     move_backward(_BI1 __first, _BI1 __last, _BI2 __result)
 834:/Library/DaisyToolchain/0.2.0/arm/arm-none-eabi/include/c++/10.3.1/bits/stl_algobase.h ****     {
 835:/Library/DaisyToolchain/0.2.0/arm/arm-none-eabi/include/c++/10.3.1/bits/stl_algobase.h ****       // concept requirements
 836:/Library/DaisyToolchain/0.2.0/arm/arm-none-eabi/include/c++/10.3.1/bits/stl_algobase.h ****       __glibcxx_function_requires(_BidirectionalIteratorConcept<_BI1>)
 837:/Library/DaisyToolchain/0.2.0/arm/arm-none-eabi/include/c++/10.3.1/bits/stl_algobase.h ****       __glibcxx_function_requires(_Mutable_BidirectionalIteratorConcept<_BI2>)
 838:/Library/DaisyToolchain/0.2.0/arm/arm-none-eabi/include/c++/10.3.1/bits/stl_algobase.h ****       __glibcxx_function_requires(_ConvertibleConcept<
 839:/Library/DaisyToolchain/0.2.0/arm/arm-none-eabi/include/c++/10.3.1/bits/stl_algobase.h **** 	    typename iterator_traits<_BI1>::value_type,
 840:/Library/DaisyToolchain/0.2.0/arm/arm-none-eabi/include/c++/10.3.1/bits/stl_algobase.h **** 	    typename iterator_traits<_BI2>::value_type>)
 841:/Library/DaisyToolchain/0.2.0/arm/arm-none-eabi/include/c++/10.3.1/bits/stl_algobase.h ****       __glibcxx_requires_can_decrement_range(__first, __last, __result);
 842:/Library/DaisyToolchain/0.2.0/arm/arm-none-eabi/include/c++/10.3.1/bits/stl_algobase.h **** 
 843:/Library/DaisyToolchain/0.2.0/arm/arm-none-eabi/include/c++/10.3.1/bits/stl_algobase.h ****       return std::__copy_move_backward_a<true>(std::__miter_base(__first),
 844:/Library/DaisyToolchain/0.2.0/arm/arm-none-eabi/include/c++/10.3.1/bits/stl_algobase.h **** 					       std::__miter_base(__last),
 845:/Library/DaisyToolchain/0.2.0/arm/arm-none-eabi/include/c++/10.3.1/bits/stl_algobase.h **** 					       __result);
 846:/Library/DaisyToolchain/0.2.0/arm/arm-none-eabi/include/c++/10.3.1/bits/stl_algobase.h ****     }
 847:/Library/DaisyToolchain/0.2.0/arm/arm-none-eabi/include/c++/10.3.1/bits/stl_algobase.h **** 
 848:/Library/DaisyToolchain/0.2.0/arm/arm-none-eabi/include/c++/10.3.1/bits/stl_algobase.h **** #define _GLIBCXX_MOVE_BACKWARD3(_Tp, _Up, _Vp) std::move_backward(_Tp, _Up, _Vp)
 849:/Library/DaisyToolchain/0.2.0/arm/arm-none-eabi/include/c++/10.3.1/bits/stl_algobase.h **** #else
 850:/Library/DaisyToolchain/0.2.0/arm/arm-none-eabi/include/c++/10.3.1/bits/stl_algobase.h **** #define _GLIBCXX_MOVE_BACKWARD3(_Tp, _Up, _Vp) std::copy_backward(_Tp, _Up, _Vp)
 851:/Library/DaisyToolchain/0.2.0/arm/arm-none-eabi/include/c++/10.3.1/bits/stl_algobase.h **** #endif
 852:/Library/DaisyToolchain/0.2.0/arm/arm-none-eabi/include/c++/10.3.1/bits/stl_algobase.h **** 
 853:/Library/DaisyToolchain/0.2.0/arm/arm-none-eabi/include/c++/10.3.1/bits/stl_algobase.h ****   template<typename _ForwardIterator, typename _Tp>
 854:/Library/DaisyToolchain/0.2.0/arm/arm-none-eabi/include/c++/10.3.1/bits/stl_algobase.h ****     _GLIBCXX20_CONSTEXPR
 855:/Library/DaisyToolchain/0.2.0/arm/arm-none-eabi/include/c++/10.3.1/bits/stl_algobase.h ****     inline typename
 856:/Library/DaisyToolchain/0.2.0/arm/arm-none-eabi/include/c++/10.3.1/bits/stl_algobase.h ****     __gnu_cxx::__enable_if<!__is_scalar<_Tp>::__value, void>::__type
 857:/Library/DaisyToolchain/0.2.0/arm/arm-none-eabi/include/c++/10.3.1/bits/stl_algobase.h ****     __fill_a1(_ForwardIterator __first, _ForwardIterator __last,
 858:/Library/DaisyToolchain/0.2.0/arm/arm-none-eabi/include/c++/10.3.1/bits/stl_algobase.h **** 	      const _Tp& __value)
 859:/Library/DaisyToolchain/0.2.0/arm/arm-none-eabi/include/c++/10.3.1/bits/stl_algobase.h ****     {
 860:/Library/DaisyToolchain/0.2.0/arm/arm-none-eabi/include/c++/10.3.1/bits/stl_algobase.h ****       for (; __first != __last; ++__first)
 861:/Library/DaisyToolchain/0.2.0/arm/arm-none-eabi/include/c++/10.3.1/bits/stl_algobase.h **** 	*__first = __value;
 862:/Library/DaisyToolchain/0.2.0/arm/arm-none-eabi/include/c++/10.3.1/bits/stl_algobase.h ****     }
 863:/Library/DaisyToolchain/0.2.0/arm/arm-none-eabi/include/c++/10.3.1/bits/stl_algobase.h **** 
 864:/Library/DaisyToolchain/0.2.0/arm/arm-none-eabi/include/c++/10.3.1/bits/stl_algobase.h ****   template<typename _ForwardIterator, typename _Tp>
ARM GAS  /var/folders/hl/qgbwny5j0fd895c2c41bk3tw0000gp/T//cc1L1gWC.s 			page 83


 865:/Library/DaisyToolchain/0.2.0/arm/arm-none-eabi/include/c++/10.3.1/bits/stl_algobase.h ****     _GLIBCXX20_CONSTEXPR
 866:/Library/DaisyToolchain/0.2.0/arm/arm-none-eabi/include/c++/10.3.1/bits/stl_algobase.h ****     inline typename
 867:/Library/DaisyToolchain/0.2.0/arm/arm-none-eabi/include/c++/10.3.1/bits/stl_algobase.h ****     __gnu_cxx::__enable_if<__is_scalar<_Tp>::__value, void>::__type
 868:/Library/DaisyToolchain/0.2.0/arm/arm-none-eabi/include/c++/10.3.1/bits/stl_algobase.h ****     __fill_a1(_ForwardIterator __first, _ForwardIterator __last,
 869:/Library/DaisyToolchain/0.2.0/arm/arm-none-eabi/include/c++/10.3.1/bits/stl_algobase.h **** 	      const _Tp& __value)
 870:/Library/DaisyToolchain/0.2.0/arm/arm-none-eabi/include/c++/10.3.1/bits/stl_algobase.h ****     {
 871:/Library/DaisyToolchain/0.2.0/arm/arm-none-eabi/include/c++/10.3.1/bits/stl_algobase.h ****       const _Tp __tmp = __value;
 872:/Library/DaisyToolchain/0.2.0/arm/arm-none-eabi/include/c++/10.3.1/bits/stl_algobase.h ****       for (; __first != __last; ++__first)
 873:/Library/DaisyToolchain/0.2.0/arm/arm-none-eabi/include/c++/10.3.1/bits/stl_algobase.h **** 	*__first = __tmp;
 1819              		.loc 15 873 11 view .LVU522
 1820 002c 0021     		movs	r1, #0
 1821              	.LBE790:
 1822              	.LBE789:
 1823              	.LBE788:
 1824              	.LBE787:
 1825              	.LBE786:
  53:customLooper.h **** 
 1826              		.loc 10 53 22 view .LVU523
 1827 002e 2B48     		ldr	r0, .L97+12
 1828              	.LBB799:
 1829              	.LBB797:
 1830              	.LBB795:
 1831              	.LBB793:
 1832              	.LBB791:
 1833              		.loc 15 873 11 view .LVU524
 1834 0030 2B4A     		ldr	r2, .L97+16
 1835              	.LBE791:
 1836              	.LBE793:
 1837              	.LBE795:
 1838              	.LBE797:
 1839              	.LBE799:
  53:customLooper.h **** 
 1840              		.loc 10 53 22 view .LVU525
 1841 0032 C5E90203 		strd	r0, r3, [r5, #8]
  55:customLooper.h ****         state_      = State::EMPTY;
 1842              		.loc 10 55 9 is_stmt 1 view .LVU526
 1843              	.LVL115:
 1844              	.LBB800:
 1845              	.LBI786:
 284:customLooper.h **** 
 1846              		.loc 10 284 10 view .LVU527
 1847              	.LBE800:
 1848              	.LBE802:
 1849              	.LBE805:
 284:customLooper.h **** 
 1850              		.loc 10 284 23 view .LVU528
 1851              	.LBB806:
 1852              	.LBB803:
 1853              	.LBB801:
 1854              	.LBB798:
 1855              	.LBI787:
 874:/Library/DaisyToolchain/0.2.0/arm/arm-none-eabi/include/c++/10.3.1/bits/stl_algobase.h ****     }
 875:/Library/DaisyToolchain/0.2.0/arm/arm-none-eabi/include/c++/10.3.1/bits/stl_algobase.h **** 
 876:/Library/DaisyToolchain/0.2.0/arm/arm-none-eabi/include/c++/10.3.1/bits/stl_algobase.h ****   // Specialization: for char types we can use memset.
 877:/Library/DaisyToolchain/0.2.0/arm/arm-none-eabi/include/c++/10.3.1/bits/stl_algobase.h ****   template<typename _Tp>
 878:/Library/DaisyToolchain/0.2.0/arm/arm-none-eabi/include/c++/10.3.1/bits/stl_algobase.h ****     _GLIBCXX20_CONSTEXPR
 879:/Library/DaisyToolchain/0.2.0/arm/arm-none-eabi/include/c++/10.3.1/bits/stl_algobase.h ****     inline typename
ARM GAS  /var/folders/hl/qgbwny5j0fd895c2c41bk3tw0000gp/T//cc1L1gWC.s 			page 84


 880:/Library/DaisyToolchain/0.2.0/arm/arm-none-eabi/include/c++/10.3.1/bits/stl_algobase.h ****     __gnu_cxx::__enable_if<__is_byte<_Tp>::__value, void>::__type
 881:/Library/DaisyToolchain/0.2.0/arm/arm-none-eabi/include/c++/10.3.1/bits/stl_algobase.h ****     __fill_a1(_Tp* __first, _Tp* __last, const _Tp& __c)
 882:/Library/DaisyToolchain/0.2.0/arm/arm-none-eabi/include/c++/10.3.1/bits/stl_algobase.h ****     {
 883:/Library/DaisyToolchain/0.2.0/arm/arm-none-eabi/include/c++/10.3.1/bits/stl_algobase.h ****       const _Tp __tmp = __c;
 884:/Library/DaisyToolchain/0.2.0/arm/arm-none-eabi/include/c++/10.3.1/bits/stl_algobase.h **** #if __cpp_lib_is_constant_evaluated
 885:/Library/DaisyToolchain/0.2.0/arm/arm-none-eabi/include/c++/10.3.1/bits/stl_algobase.h ****       if (std::is_constant_evaluated())
 886:/Library/DaisyToolchain/0.2.0/arm/arm-none-eabi/include/c++/10.3.1/bits/stl_algobase.h **** 	{
 887:/Library/DaisyToolchain/0.2.0/arm/arm-none-eabi/include/c++/10.3.1/bits/stl_algobase.h **** 	  for (; __first != __last; ++__first)
 888:/Library/DaisyToolchain/0.2.0/arm/arm-none-eabi/include/c++/10.3.1/bits/stl_algobase.h **** 	    *__first = __tmp;
 889:/Library/DaisyToolchain/0.2.0/arm/arm-none-eabi/include/c++/10.3.1/bits/stl_algobase.h **** 	  return;
 890:/Library/DaisyToolchain/0.2.0/arm/arm-none-eabi/include/c++/10.3.1/bits/stl_algobase.h **** 	}
 891:/Library/DaisyToolchain/0.2.0/arm/arm-none-eabi/include/c++/10.3.1/bits/stl_algobase.h **** #endif
 892:/Library/DaisyToolchain/0.2.0/arm/arm-none-eabi/include/c++/10.3.1/bits/stl_algobase.h ****       if (const size_t __len = __last - __first)
 893:/Library/DaisyToolchain/0.2.0/arm/arm-none-eabi/include/c++/10.3.1/bits/stl_algobase.h **** 	__builtin_memset(__first, static_cast<unsigned char>(__tmp), __len);
 894:/Library/DaisyToolchain/0.2.0/arm/arm-none-eabi/include/c++/10.3.1/bits/stl_algobase.h ****     }
 895:/Library/DaisyToolchain/0.2.0/arm/arm-none-eabi/include/c++/10.3.1/bits/stl_algobase.h **** 
 896:/Library/DaisyToolchain/0.2.0/arm/arm-none-eabi/include/c++/10.3.1/bits/stl_algobase.h ****   template<typename _Ite, typename _Cont, typename _Tp>
 897:/Library/DaisyToolchain/0.2.0/arm/arm-none-eabi/include/c++/10.3.1/bits/stl_algobase.h ****     _GLIBCXX20_CONSTEXPR
 898:/Library/DaisyToolchain/0.2.0/arm/arm-none-eabi/include/c++/10.3.1/bits/stl_algobase.h ****     inline void
 899:/Library/DaisyToolchain/0.2.0/arm/arm-none-eabi/include/c++/10.3.1/bits/stl_algobase.h ****     __fill_a1(::__gnu_cxx::__normal_iterator<_Ite, _Cont> __first,
 900:/Library/DaisyToolchain/0.2.0/arm/arm-none-eabi/include/c++/10.3.1/bits/stl_algobase.h **** 	      ::__gnu_cxx::__normal_iterator<_Ite, _Cont> __last,
 901:/Library/DaisyToolchain/0.2.0/arm/arm-none-eabi/include/c++/10.3.1/bits/stl_algobase.h **** 	      const _Tp& __value)
 902:/Library/DaisyToolchain/0.2.0/arm/arm-none-eabi/include/c++/10.3.1/bits/stl_algobase.h ****     { std::__fill_a1(__first.base(), __last.base(), __value); }
 903:/Library/DaisyToolchain/0.2.0/arm/arm-none-eabi/include/c++/10.3.1/bits/stl_algobase.h **** 
 904:/Library/DaisyToolchain/0.2.0/arm/arm-none-eabi/include/c++/10.3.1/bits/stl_algobase.h ****   template<typename _Tp, typename _VTp>
 905:/Library/DaisyToolchain/0.2.0/arm/arm-none-eabi/include/c++/10.3.1/bits/stl_algobase.h ****     void
 906:/Library/DaisyToolchain/0.2.0/arm/arm-none-eabi/include/c++/10.3.1/bits/stl_algobase.h ****     __fill_a1(const _GLIBCXX_STD_C::_Deque_iterator<_Tp, _Tp&, _Tp*>&,
 907:/Library/DaisyToolchain/0.2.0/arm/arm-none-eabi/include/c++/10.3.1/bits/stl_algobase.h **** 	      const _GLIBCXX_STD_C::_Deque_iterator<_Tp, _Tp&, _Tp*>&,
 908:/Library/DaisyToolchain/0.2.0/arm/arm-none-eabi/include/c++/10.3.1/bits/stl_algobase.h **** 	      const _VTp&);
 909:/Library/DaisyToolchain/0.2.0/arm/arm-none-eabi/include/c++/10.3.1/bits/stl_algobase.h **** 
 910:/Library/DaisyToolchain/0.2.0/arm/arm-none-eabi/include/c++/10.3.1/bits/stl_algobase.h ****   template<typename _FIte, typename _Tp>
 911:/Library/DaisyToolchain/0.2.0/arm/arm-none-eabi/include/c++/10.3.1/bits/stl_algobase.h ****     _GLIBCXX20_CONSTEXPR
 912:/Library/DaisyToolchain/0.2.0/arm/arm-none-eabi/include/c++/10.3.1/bits/stl_algobase.h ****     inline void
 913:/Library/DaisyToolchain/0.2.0/arm/arm-none-eabi/include/c++/10.3.1/bits/stl_algobase.h ****     __fill_a(_FIte __first, _FIte __last, const _Tp& __value)
 914:/Library/DaisyToolchain/0.2.0/arm/arm-none-eabi/include/c++/10.3.1/bits/stl_algobase.h ****     { std::__fill_a1(__first, __last, __value); }
 915:/Library/DaisyToolchain/0.2.0/arm/arm-none-eabi/include/c++/10.3.1/bits/stl_algobase.h **** 
 916:/Library/DaisyToolchain/0.2.0/arm/arm-none-eabi/include/c++/10.3.1/bits/stl_algobase.h ****   template<typename _Ite, typename _Seq, typename _Cat, typename _Tp>
 917:/Library/DaisyToolchain/0.2.0/arm/arm-none-eabi/include/c++/10.3.1/bits/stl_algobase.h ****     void
 918:/Library/DaisyToolchain/0.2.0/arm/arm-none-eabi/include/c++/10.3.1/bits/stl_algobase.h ****     __fill_a(const ::__gnu_debug::_Safe_iterator<_Ite, _Seq, _Cat>&,
 919:/Library/DaisyToolchain/0.2.0/arm/arm-none-eabi/include/c++/10.3.1/bits/stl_algobase.h **** 	     const ::__gnu_debug::_Safe_iterator<_Ite, _Seq, _Cat>&,
 920:/Library/DaisyToolchain/0.2.0/arm/arm-none-eabi/include/c++/10.3.1/bits/stl_algobase.h **** 	     const _Tp&);
 921:/Library/DaisyToolchain/0.2.0/arm/arm-none-eabi/include/c++/10.3.1/bits/stl_algobase.h **** 
 922:/Library/DaisyToolchain/0.2.0/arm/arm-none-eabi/include/c++/10.3.1/bits/stl_algobase.h ****   /**
 923:/Library/DaisyToolchain/0.2.0/arm/arm-none-eabi/include/c++/10.3.1/bits/stl_algobase.h ****    *  @brief Fills the range [first,last) with copies of value.
 924:/Library/DaisyToolchain/0.2.0/arm/arm-none-eabi/include/c++/10.3.1/bits/stl_algobase.h ****    *  @ingroup mutating_algorithms
 925:/Library/DaisyToolchain/0.2.0/arm/arm-none-eabi/include/c++/10.3.1/bits/stl_algobase.h ****    *  @param  __first  A forward iterator.
 926:/Library/DaisyToolchain/0.2.0/arm/arm-none-eabi/include/c++/10.3.1/bits/stl_algobase.h ****    *  @param  __last   A forward iterator.
 927:/Library/DaisyToolchain/0.2.0/arm/arm-none-eabi/include/c++/10.3.1/bits/stl_algobase.h ****    *  @param  __value  A reference-to-const of arbitrary type.
 928:/Library/DaisyToolchain/0.2.0/arm/arm-none-eabi/include/c++/10.3.1/bits/stl_algobase.h ****    *  @return   Nothing.
 929:/Library/DaisyToolchain/0.2.0/arm/arm-none-eabi/include/c++/10.3.1/bits/stl_algobase.h ****    *
 930:/Library/DaisyToolchain/0.2.0/arm/arm-none-eabi/include/c++/10.3.1/bits/stl_algobase.h ****    *  This function fills a range with copies of the same value.  For char
 931:/Library/DaisyToolchain/0.2.0/arm/arm-none-eabi/include/c++/10.3.1/bits/stl_algobase.h ****    *  types filling contiguous areas of memory, this becomes an inline call
 932:/Library/DaisyToolchain/0.2.0/arm/arm-none-eabi/include/c++/10.3.1/bits/stl_algobase.h ****    *  to @c memset or @c wmemset.
 933:/Library/DaisyToolchain/0.2.0/arm/arm-none-eabi/include/c++/10.3.1/bits/stl_algobase.h ****   */
 934:/Library/DaisyToolchain/0.2.0/arm/arm-none-eabi/include/c++/10.3.1/bits/stl_algobase.h ****   template<typename _ForwardIterator, typename _Tp>
 935:/Library/DaisyToolchain/0.2.0/arm/arm-none-eabi/include/c++/10.3.1/bits/stl_algobase.h ****     _GLIBCXX20_CONSTEXPR
 936:/Library/DaisyToolchain/0.2.0/arm/arm-none-eabi/include/c++/10.3.1/bits/stl_algobase.h ****     inline void
ARM GAS  /var/folders/hl/qgbwny5j0fd895c2c41bk3tw0000gp/T//cc1L1gWC.s 			page 85


 937:/Library/DaisyToolchain/0.2.0/arm/arm-none-eabi/include/c++/10.3.1/bits/stl_algobase.h ****     fill(_ForwardIterator __first, _ForwardIterator __last, const _Tp& __value)
 1856              		.loc 15 937 5 view .LVU529
 1857              	.LBB796:
 1858              	.LBI788:
 913:/Library/DaisyToolchain/0.2.0/arm/arm-none-eabi/include/c++/10.3.1/bits/stl_algobase.h ****     { std::__fill_a1(__first, __last, __value); }
 1859              		.loc 15 913 5 view .LVU530
 1860              	.LBB794:
 1861              	.LBI789:
 868:/Library/DaisyToolchain/0.2.0/arm/arm-none-eabi/include/c++/10.3.1/bits/stl_algobase.h **** 	      const _Tp& __value)
 1862              		.loc 15 868 5 view .LVU531
 1863              	.LBB792:
 872:/Library/DaisyToolchain/0.2.0/arm/arm-none-eabi/include/c++/10.3.1/bits/stl_algobase.h **** 	*__first = __tmp;
 1864              		.loc 15 872 22 view .LVU532
 873:/Library/DaisyToolchain/0.2.0/arm/arm-none-eabi/include/c++/10.3.1/bits/stl_algobase.h ****     }
 1865              		.loc 15 873 11 is_stmt 0 view .LVU533
 1866 0036 FFF7FEFF 		bl	memset
 1867              	.LVL116:
 873:/Library/DaisyToolchain/0.2.0/arm/arm-none-eabi/include/c++/10.3.1/bits/stl_algobase.h ****     }
 1868              		.loc 15 873 11 view .LVU534
 1869              	.LBE792:
 1870              	.LBE794:
 1871              	.LBE796:
 1872              	.LBE798:
 1873              	.LBE801:
  56:customLooper.h ****         mode_       = Mode::NORMAL;
 1874              		.loc 10 56 9 is_stmt 1 view .LVU535
  56:customLooper.h ****         mode_       = Mode::NORMAL;
 1875              		.loc 10 56 21 is_stmt 0 view .LVU536
 1876 003a 0023     		movs	r3, #0
 1877              	.LBE803:
 1878              	.LBE806:
  70:Convolution.cpp **** 	rev.Init(sample_rate);
 1879              		.loc 12 70 10 view .LVU537
 1880 003c 9DED010A 		vldr.32	s0, [sp, #4]	@ int
 1881 0040 2848     		ldr	r0, .L97+20
 1882              	.LBB807:
 1883              	.LBB804:
  60:customLooper.h ****         win_idx_    = 0;
 1884              		.loc 10 60 21 view .LVU538
 1885 0042 85F82430 		strb	r3, [r5, #36]
  61:customLooper.h ****     }
 1886              		.loc 10 61 21 view .LVU539
 1887 0046 AB61     		str	r3, [r5, #24]
  58:customLooper.h ****         reverse_    = false;
 1888              		.loc 10 58 21 view .LVU540
 1889 0048 AB83     		strh	r3, [r5, #28]	@ movhi
  57:customLooper.h ****         half_speed_ = false;
 1890              		.loc 10 57 21 view .LVU541
 1891 004a C5E90033 		strd	r3, r3, [r5]
  58:customLooper.h ****         reverse_    = false;
 1892              		.loc 10 58 9 is_stmt 1 view .LVU542
  59:customLooper.h ****         rec_queue_  = false;
 1893              		.loc 10 59 9 view .LVU543
  60:customLooper.h ****         win_idx_    = 0;
 1894              		.loc 10 60 9 view .LVU544
  61:customLooper.h ****     }
 1895              		.loc 10 61 9 view .LVU545
ARM GAS  /var/folders/hl/qgbwny5j0fd895c2c41bk3tw0000gp/T//cc1L1gWC.s 			page 86


 1896              	.LVL117:
  61:customLooper.h ****     }
 1897              		.loc 10 61 9 is_stmt 0 view .LVU546
 1898              	.LBE804:
 1899              	.LBE807:
 1900              		.loc 12 70 2 is_stmt 1 view .LVU547
 1901              		.loc 12 70 10 is_stmt 0 view .LVU548
 1902 004e FFF7FEFF 		bl	_ZN7daisysp8ReverbSc4InitEf
 1903              	.LVL118:
  71:Convolution.cpp **** 
  72:Convolution.cpp **** 	hw.StartAudio(AudioCallback);
 1904              		.loc 12 72 2 is_stmt 1 view .LVU549
 1905              		.loc 12 72 15 is_stmt 0 view .LVU550
 1906 0052 2549     		ldr	r1, .L97+24
 1907 0054 1E48     		ldr	r0, .L97
 1908 0056 FFF7FEFF 		bl	_ZN5daisy8patch_sm12DaisyPatchSM10StartAudioEPFvPKPKfPPfjE
 1909              	.LVL119:
 1910 005a 26E0     		b	.L93
 1911              	.LVL120:
 1912              	.L96:
 1913              	.LBB808:
 1914              	.LBB809:
 1915              	.LBB810:
 243:customLooper.h ****             is_halfway = true;
 1916              		.loc 10 243 55 view .LVU551
 1917 005c 2B6A     		ldr	r3, [r5, #32]
 238:customLooper.h ****             is_start = true;
 1918              		.loc 10 238 38 view .LVU552
 1919 005e 95ED047A 		vldr.32	s14, [r5, #16]
 243:customLooper.h ****             is_halfway = true;
 1920              		.loc 10 243 55 view .LVU553
 1921 0062 5B08     		lsrs	r3, r3, #1
 238:customLooper.h ****             is_start = true;
 1922              		.loc 10 238 35 view .LVU554
 1923 0064 B5EE407A 		vcmp.f32	s14, #0
 243:customLooper.h ****             is_halfway = true;
 1924              		.loc 10 243 43 view .LVU555
 1925 0068 07EE903A 		vmov	s15, r3	@ int
 1926 006c F8EEE77A 		vcvt.f32.s32	s15, s15
 238:customLooper.h ****             is_start = true;
 1927              		.loc 10 238 35 view .LVU556
 1928 0070 F1EE10FA 		vmrs	APSR_nzcv, FPSCR
 243:customLooper.h ****             is_halfway = true;
 1929              		.loc 10 243 35 view .LVU557
 1930 0074 F4EE477A 		vcmp.f32	s15, s14
 238:customLooper.h ****             is_start = true;
 1931              		.loc 10 238 35 view .LVU558
 1932 0078 0CBF     		ite	eq
 1933 007a 0121     		moveq	r1, #1
 1934 007c 0021     		movne	r1, #0
 1935              	.LVL121:
 243:customLooper.h ****             is_halfway = true;
 1936              		.loc 10 243 35 view .LVU559
 1937 007e F1EE10FA 		vmrs	APSR_nzcv, FPSCR
 1938              	.LBE810:
 1939              	.LBE809:
  73:Convolution.cpp **** 	while(1) {
ARM GAS  /var/folders/hl/qgbwny5j0fd895c2c41bk3tw0000gp/T//cc1L1gWC.s 			page 87


  74:Convolution.cpp **** 		gate_in_led1.Write(loop.Recording());
  75:Convolution.cpp **** 
  76:Convolution.cpp **** 		std::pair<bool, bool> start_and_halfway = loop.gateLoop(); 
  77:Convolution.cpp **** 		gate_out_led1.Write(start_and_halfway.first);  // first loop
  78:Convolution.cpp **** 		dsy_gpio_write(&hw.gate_out_1, start_and_halfway.first);
 1940              		.loc 12 78 17 view .LVU560
 1941 0082 0F46     		mov	r7, r1
 1942              	.LBB819:
 1943              	.LBB816:
 243:customLooper.h ****             is_halfway = true;
 1944              		.loc 10 243 35 view .LVU561
 1945 0084 0CBF     		ite	eq
 1946 0086 0126     		moveq	r6, #1
 1947 0088 0026     		movne	r6, #0
 1948              	.LBE816:
 1949              	.LBE819:
  79:Convolution.cpp **** 		gate_out_led2.Write(start_and_halfway.second);  // half loop
  80:Convolution.cpp **** 		dsy_gpio_write(&hw.gate_out_2, start_and_halfway.second);
 1950              		.loc 12 80 17 view .LVU562
 1951 008a 3446     		mov	r4, r6
 1952              	.LVL122:
 1953              	.L92:
 1954              	.LBB820:
 1955              	.LBB817:
 249:customLooper.h ****     }
 1956              		.loc 10 249 9 is_stmt 1 view .LVU563
 1957              	.LBB811:
 1958              	.LBI811:
 1959              		.file 16 "/Library/DaisyToolchain/0.2.0/arm/arm-none-eabi/include/c++/10.3.1/bits/stl_pair.h"
   1:/Library/DaisyToolchain/0.2.0/arm/arm-none-eabi/include/c++/10.3.1/bits/stl_pair.h **** // Pair implementation -*- C++ -*-
   2:/Library/DaisyToolchain/0.2.0/arm/arm-none-eabi/include/c++/10.3.1/bits/stl_pair.h **** 
   3:/Library/DaisyToolchain/0.2.0/arm/arm-none-eabi/include/c++/10.3.1/bits/stl_pair.h **** // Copyright (C) 2001-2020 Free Software Foundation, Inc.
   4:/Library/DaisyToolchain/0.2.0/arm/arm-none-eabi/include/c++/10.3.1/bits/stl_pair.h **** //
   5:/Library/DaisyToolchain/0.2.0/arm/arm-none-eabi/include/c++/10.3.1/bits/stl_pair.h **** // This file is part of the GNU ISO C++ Library.  This library is free
   6:/Library/DaisyToolchain/0.2.0/arm/arm-none-eabi/include/c++/10.3.1/bits/stl_pair.h **** // software; you can redistribute it and/or modify it under the
   7:/Library/DaisyToolchain/0.2.0/arm/arm-none-eabi/include/c++/10.3.1/bits/stl_pair.h **** // terms of the GNU General Public License as published by the
   8:/Library/DaisyToolchain/0.2.0/arm/arm-none-eabi/include/c++/10.3.1/bits/stl_pair.h **** // Free Software Foundation; either version 3, or (at your option)
   9:/Library/DaisyToolchain/0.2.0/arm/arm-none-eabi/include/c++/10.3.1/bits/stl_pair.h **** // any later version.
  10:/Library/DaisyToolchain/0.2.0/arm/arm-none-eabi/include/c++/10.3.1/bits/stl_pair.h **** 
  11:/Library/DaisyToolchain/0.2.0/arm/arm-none-eabi/include/c++/10.3.1/bits/stl_pair.h **** // This library is distributed in the hope that it will be useful,
  12:/Library/DaisyToolchain/0.2.0/arm/arm-none-eabi/include/c++/10.3.1/bits/stl_pair.h **** // but WITHOUT ANY WARRANTY; without even the implied warranty of
  13:/Library/DaisyToolchain/0.2.0/arm/arm-none-eabi/include/c++/10.3.1/bits/stl_pair.h **** // MERCHANTABILITY or FITNESS FOR A PARTICULAR PURPOSE.  See the
  14:/Library/DaisyToolchain/0.2.0/arm/arm-none-eabi/include/c++/10.3.1/bits/stl_pair.h **** // GNU General Public License for more details.
  15:/Library/DaisyToolchain/0.2.0/arm/arm-none-eabi/include/c++/10.3.1/bits/stl_pair.h **** 
  16:/Library/DaisyToolchain/0.2.0/arm/arm-none-eabi/include/c++/10.3.1/bits/stl_pair.h **** // Under Section 7 of GPL version 3, you are granted additional
  17:/Library/DaisyToolchain/0.2.0/arm/arm-none-eabi/include/c++/10.3.1/bits/stl_pair.h **** // permissions described in the GCC Runtime Library Exception, version
  18:/Library/DaisyToolchain/0.2.0/arm/arm-none-eabi/include/c++/10.3.1/bits/stl_pair.h **** // 3.1, as published by the Free Software Foundation.
  19:/Library/DaisyToolchain/0.2.0/arm/arm-none-eabi/include/c++/10.3.1/bits/stl_pair.h **** 
  20:/Library/DaisyToolchain/0.2.0/arm/arm-none-eabi/include/c++/10.3.1/bits/stl_pair.h **** // You should have received a copy of the GNU General Public License and
  21:/Library/DaisyToolchain/0.2.0/arm/arm-none-eabi/include/c++/10.3.1/bits/stl_pair.h **** // a copy of the GCC Runtime Library Exception along with this program;
  22:/Library/DaisyToolchain/0.2.0/arm/arm-none-eabi/include/c++/10.3.1/bits/stl_pair.h **** // see the files COPYING3 and COPYING.RUNTIME respectively.  If not, see
  23:/Library/DaisyToolchain/0.2.0/arm/arm-none-eabi/include/c++/10.3.1/bits/stl_pair.h **** // <http://www.gnu.org/licenses/>.
  24:/Library/DaisyToolchain/0.2.0/arm/arm-none-eabi/include/c++/10.3.1/bits/stl_pair.h **** 
  25:/Library/DaisyToolchain/0.2.0/arm/arm-none-eabi/include/c++/10.3.1/bits/stl_pair.h **** /*
  26:/Library/DaisyToolchain/0.2.0/arm/arm-none-eabi/include/c++/10.3.1/bits/stl_pair.h ****  *
  27:/Library/DaisyToolchain/0.2.0/arm/arm-none-eabi/include/c++/10.3.1/bits/stl_pair.h ****  * Copyright (c) 1994
  28:/Library/DaisyToolchain/0.2.0/arm/arm-none-eabi/include/c++/10.3.1/bits/stl_pair.h ****  * Hewlett-Packard Company
ARM GAS  /var/folders/hl/qgbwny5j0fd895c2c41bk3tw0000gp/T//cc1L1gWC.s 			page 88


  29:/Library/DaisyToolchain/0.2.0/arm/arm-none-eabi/include/c++/10.3.1/bits/stl_pair.h ****  *
  30:/Library/DaisyToolchain/0.2.0/arm/arm-none-eabi/include/c++/10.3.1/bits/stl_pair.h ****  * Permission to use, copy, modify, distribute and sell this software
  31:/Library/DaisyToolchain/0.2.0/arm/arm-none-eabi/include/c++/10.3.1/bits/stl_pair.h ****  * and its documentation for any purpose is hereby granted without fee,
  32:/Library/DaisyToolchain/0.2.0/arm/arm-none-eabi/include/c++/10.3.1/bits/stl_pair.h ****  * provided that the above copyright notice appear in all copies and
  33:/Library/DaisyToolchain/0.2.0/arm/arm-none-eabi/include/c++/10.3.1/bits/stl_pair.h ****  * that both that copyright notice and this permission notice appear
  34:/Library/DaisyToolchain/0.2.0/arm/arm-none-eabi/include/c++/10.3.1/bits/stl_pair.h ****  * in supporting documentation.  Hewlett-Packard Company makes no
  35:/Library/DaisyToolchain/0.2.0/arm/arm-none-eabi/include/c++/10.3.1/bits/stl_pair.h ****  * representations about the suitability of this software for any
  36:/Library/DaisyToolchain/0.2.0/arm/arm-none-eabi/include/c++/10.3.1/bits/stl_pair.h ****  * purpose.  It is provided "as is" without express or implied warranty.
  37:/Library/DaisyToolchain/0.2.0/arm/arm-none-eabi/include/c++/10.3.1/bits/stl_pair.h ****  *
  38:/Library/DaisyToolchain/0.2.0/arm/arm-none-eabi/include/c++/10.3.1/bits/stl_pair.h ****  *
  39:/Library/DaisyToolchain/0.2.0/arm/arm-none-eabi/include/c++/10.3.1/bits/stl_pair.h ****  * Copyright (c) 1996,1997
  40:/Library/DaisyToolchain/0.2.0/arm/arm-none-eabi/include/c++/10.3.1/bits/stl_pair.h ****  * Silicon Graphics Computer Systems, Inc.
  41:/Library/DaisyToolchain/0.2.0/arm/arm-none-eabi/include/c++/10.3.1/bits/stl_pair.h ****  *
  42:/Library/DaisyToolchain/0.2.0/arm/arm-none-eabi/include/c++/10.3.1/bits/stl_pair.h ****  * Permission to use, copy, modify, distribute and sell this software
  43:/Library/DaisyToolchain/0.2.0/arm/arm-none-eabi/include/c++/10.3.1/bits/stl_pair.h ****  * and its documentation for any purpose is hereby granted without fee,
  44:/Library/DaisyToolchain/0.2.0/arm/arm-none-eabi/include/c++/10.3.1/bits/stl_pair.h ****  * provided that the above copyright notice appear in all copies and
  45:/Library/DaisyToolchain/0.2.0/arm/arm-none-eabi/include/c++/10.3.1/bits/stl_pair.h ****  * that both that copyright notice and this permission notice appear
  46:/Library/DaisyToolchain/0.2.0/arm/arm-none-eabi/include/c++/10.3.1/bits/stl_pair.h ****  * in supporting documentation.  Silicon Graphics makes no
  47:/Library/DaisyToolchain/0.2.0/arm/arm-none-eabi/include/c++/10.3.1/bits/stl_pair.h ****  * representations about the suitability of this software for any
  48:/Library/DaisyToolchain/0.2.0/arm/arm-none-eabi/include/c++/10.3.1/bits/stl_pair.h ****  * purpose.  It is provided "as is" without express or implied warranty.
  49:/Library/DaisyToolchain/0.2.0/arm/arm-none-eabi/include/c++/10.3.1/bits/stl_pair.h ****  */
  50:/Library/DaisyToolchain/0.2.0/arm/arm-none-eabi/include/c++/10.3.1/bits/stl_pair.h **** 
  51:/Library/DaisyToolchain/0.2.0/arm/arm-none-eabi/include/c++/10.3.1/bits/stl_pair.h **** /** @file bits/stl_pair.h
  52:/Library/DaisyToolchain/0.2.0/arm/arm-none-eabi/include/c++/10.3.1/bits/stl_pair.h ****  *  This is an internal header file, included by other library headers.
  53:/Library/DaisyToolchain/0.2.0/arm/arm-none-eabi/include/c++/10.3.1/bits/stl_pair.h ****  *  Do not attempt to use it directly. @headername{utility}
  54:/Library/DaisyToolchain/0.2.0/arm/arm-none-eabi/include/c++/10.3.1/bits/stl_pair.h ****  */
  55:/Library/DaisyToolchain/0.2.0/arm/arm-none-eabi/include/c++/10.3.1/bits/stl_pair.h **** 
  56:/Library/DaisyToolchain/0.2.0/arm/arm-none-eabi/include/c++/10.3.1/bits/stl_pair.h **** #ifndef _STL_PAIR_H
  57:/Library/DaisyToolchain/0.2.0/arm/arm-none-eabi/include/c++/10.3.1/bits/stl_pair.h **** #define _STL_PAIR_H 1
  58:/Library/DaisyToolchain/0.2.0/arm/arm-none-eabi/include/c++/10.3.1/bits/stl_pair.h **** 
  59:/Library/DaisyToolchain/0.2.0/arm/arm-none-eabi/include/c++/10.3.1/bits/stl_pair.h **** #include <bits/move.h> // for std::move / std::forward, and std::swap
  60:/Library/DaisyToolchain/0.2.0/arm/arm-none-eabi/include/c++/10.3.1/bits/stl_pair.h **** 
  61:/Library/DaisyToolchain/0.2.0/arm/arm-none-eabi/include/c++/10.3.1/bits/stl_pair.h **** #if __cplusplus >= 201103L
  62:/Library/DaisyToolchain/0.2.0/arm/arm-none-eabi/include/c++/10.3.1/bits/stl_pair.h **** # include <type_traits> // for std::__decay_and_strip, std::is_reference_v
  63:/Library/DaisyToolchain/0.2.0/arm/arm-none-eabi/include/c++/10.3.1/bits/stl_pair.h **** #endif
  64:/Library/DaisyToolchain/0.2.0/arm/arm-none-eabi/include/c++/10.3.1/bits/stl_pair.h **** #if __cplusplus > 201703L
  65:/Library/DaisyToolchain/0.2.0/arm/arm-none-eabi/include/c++/10.3.1/bits/stl_pair.h **** # include <compare>
  66:/Library/DaisyToolchain/0.2.0/arm/arm-none-eabi/include/c++/10.3.1/bits/stl_pair.h **** # define __cpp_lib_constexpr_utility 201811L
  67:/Library/DaisyToolchain/0.2.0/arm/arm-none-eabi/include/c++/10.3.1/bits/stl_pair.h **** #endif
  68:/Library/DaisyToolchain/0.2.0/arm/arm-none-eabi/include/c++/10.3.1/bits/stl_pair.h **** 
  69:/Library/DaisyToolchain/0.2.0/arm/arm-none-eabi/include/c++/10.3.1/bits/stl_pair.h **** namespace std _GLIBCXX_VISIBILITY(default)
  70:/Library/DaisyToolchain/0.2.0/arm/arm-none-eabi/include/c++/10.3.1/bits/stl_pair.h **** {
  71:/Library/DaisyToolchain/0.2.0/arm/arm-none-eabi/include/c++/10.3.1/bits/stl_pair.h **** _GLIBCXX_BEGIN_NAMESPACE_VERSION
  72:/Library/DaisyToolchain/0.2.0/arm/arm-none-eabi/include/c++/10.3.1/bits/stl_pair.h **** 
  73:/Library/DaisyToolchain/0.2.0/arm/arm-none-eabi/include/c++/10.3.1/bits/stl_pair.h ****   /**
  74:/Library/DaisyToolchain/0.2.0/arm/arm-none-eabi/include/c++/10.3.1/bits/stl_pair.h ****    *  @addtogroup utilities
  75:/Library/DaisyToolchain/0.2.0/arm/arm-none-eabi/include/c++/10.3.1/bits/stl_pair.h ****    *  @{
  76:/Library/DaisyToolchain/0.2.0/arm/arm-none-eabi/include/c++/10.3.1/bits/stl_pair.h ****    */
  77:/Library/DaisyToolchain/0.2.0/arm/arm-none-eabi/include/c++/10.3.1/bits/stl_pair.h **** 
  78:/Library/DaisyToolchain/0.2.0/arm/arm-none-eabi/include/c++/10.3.1/bits/stl_pair.h **** #if __cplusplus >= 201103L
  79:/Library/DaisyToolchain/0.2.0/arm/arm-none-eabi/include/c++/10.3.1/bits/stl_pair.h ****   /// Tag type for piecewise construction of std::pair objects.
  80:/Library/DaisyToolchain/0.2.0/arm/arm-none-eabi/include/c++/10.3.1/bits/stl_pair.h ****   struct piecewise_construct_t { explicit piecewise_construct_t() = default; };
  81:/Library/DaisyToolchain/0.2.0/arm/arm-none-eabi/include/c++/10.3.1/bits/stl_pair.h **** 
  82:/Library/DaisyToolchain/0.2.0/arm/arm-none-eabi/include/c++/10.3.1/bits/stl_pair.h ****   /// Tag for piecewise construction of std::pair objects.
  83:/Library/DaisyToolchain/0.2.0/arm/arm-none-eabi/include/c++/10.3.1/bits/stl_pair.h ****   _GLIBCXX17_INLINE constexpr piecewise_construct_t piecewise_construct =
  84:/Library/DaisyToolchain/0.2.0/arm/arm-none-eabi/include/c++/10.3.1/bits/stl_pair.h ****     piecewise_construct_t();
  85:/Library/DaisyToolchain/0.2.0/arm/arm-none-eabi/include/c++/10.3.1/bits/stl_pair.h **** 
ARM GAS  /var/folders/hl/qgbwny5j0fd895c2c41bk3tw0000gp/T//cc1L1gWC.s 			page 89


  86:/Library/DaisyToolchain/0.2.0/arm/arm-none-eabi/include/c++/10.3.1/bits/stl_pair.h ****   /// @cond undocumented
  87:/Library/DaisyToolchain/0.2.0/arm/arm-none-eabi/include/c++/10.3.1/bits/stl_pair.h **** 
  88:/Library/DaisyToolchain/0.2.0/arm/arm-none-eabi/include/c++/10.3.1/bits/stl_pair.h ****   // Forward declarations.
  89:/Library/DaisyToolchain/0.2.0/arm/arm-none-eabi/include/c++/10.3.1/bits/stl_pair.h ****   template<typename...>
  90:/Library/DaisyToolchain/0.2.0/arm/arm-none-eabi/include/c++/10.3.1/bits/stl_pair.h ****     class tuple;
  91:/Library/DaisyToolchain/0.2.0/arm/arm-none-eabi/include/c++/10.3.1/bits/stl_pair.h **** 
  92:/Library/DaisyToolchain/0.2.0/arm/arm-none-eabi/include/c++/10.3.1/bits/stl_pair.h ****   template<std::size_t...>
  93:/Library/DaisyToolchain/0.2.0/arm/arm-none-eabi/include/c++/10.3.1/bits/stl_pair.h ****     struct _Index_tuple;
  94:/Library/DaisyToolchain/0.2.0/arm/arm-none-eabi/include/c++/10.3.1/bits/stl_pair.h **** 
  95:/Library/DaisyToolchain/0.2.0/arm/arm-none-eabi/include/c++/10.3.1/bits/stl_pair.h ****   // Concept utility functions, reused in conditionally-explicit
  96:/Library/DaisyToolchain/0.2.0/arm/arm-none-eabi/include/c++/10.3.1/bits/stl_pair.h ****   // constructors.
  97:/Library/DaisyToolchain/0.2.0/arm/arm-none-eabi/include/c++/10.3.1/bits/stl_pair.h ****   // See PR 70437, don't look at is_constructible or
  98:/Library/DaisyToolchain/0.2.0/arm/arm-none-eabi/include/c++/10.3.1/bits/stl_pair.h ****   // is_convertible if the types are the same to
  99:/Library/DaisyToolchain/0.2.0/arm/arm-none-eabi/include/c++/10.3.1/bits/stl_pair.h ****   // avoid querying those properties for incomplete types.
 100:/Library/DaisyToolchain/0.2.0/arm/arm-none-eabi/include/c++/10.3.1/bits/stl_pair.h ****   template <bool, typename _T1, typename _T2>
 101:/Library/DaisyToolchain/0.2.0/arm/arm-none-eabi/include/c++/10.3.1/bits/stl_pair.h ****     struct _PCC
 102:/Library/DaisyToolchain/0.2.0/arm/arm-none-eabi/include/c++/10.3.1/bits/stl_pair.h ****     {
 103:/Library/DaisyToolchain/0.2.0/arm/arm-none-eabi/include/c++/10.3.1/bits/stl_pair.h ****       template <typename _U1, typename _U2>
 104:/Library/DaisyToolchain/0.2.0/arm/arm-none-eabi/include/c++/10.3.1/bits/stl_pair.h ****       static constexpr bool _ConstructiblePair()
 105:/Library/DaisyToolchain/0.2.0/arm/arm-none-eabi/include/c++/10.3.1/bits/stl_pair.h ****       {
 106:/Library/DaisyToolchain/0.2.0/arm/arm-none-eabi/include/c++/10.3.1/bits/stl_pair.h **** 	return __and_<is_constructible<_T1, const _U1&>,
 107:/Library/DaisyToolchain/0.2.0/arm/arm-none-eabi/include/c++/10.3.1/bits/stl_pair.h **** 		      is_constructible<_T2, const _U2&>>::value;
 108:/Library/DaisyToolchain/0.2.0/arm/arm-none-eabi/include/c++/10.3.1/bits/stl_pair.h ****       }
 109:/Library/DaisyToolchain/0.2.0/arm/arm-none-eabi/include/c++/10.3.1/bits/stl_pair.h **** 
 110:/Library/DaisyToolchain/0.2.0/arm/arm-none-eabi/include/c++/10.3.1/bits/stl_pair.h ****       template <typename _U1, typename _U2>
 111:/Library/DaisyToolchain/0.2.0/arm/arm-none-eabi/include/c++/10.3.1/bits/stl_pair.h ****       static constexpr bool _ImplicitlyConvertiblePair()
 112:/Library/DaisyToolchain/0.2.0/arm/arm-none-eabi/include/c++/10.3.1/bits/stl_pair.h ****       {
 113:/Library/DaisyToolchain/0.2.0/arm/arm-none-eabi/include/c++/10.3.1/bits/stl_pair.h **** 	return __and_<is_convertible<const _U1&, _T1>,
 114:/Library/DaisyToolchain/0.2.0/arm/arm-none-eabi/include/c++/10.3.1/bits/stl_pair.h **** 		      is_convertible<const _U2&, _T2>>::value;
 115:/Library/DaisyToolchain/0.2.0/arm/arm-none-eabi/include/c++/10.3.1/bits/stl_pair.h ****       }
 116:/Library/DaisyToolchain/0.2.0/arm/arm-none-eabi/include/c++/10.3.1/bits/stl_pair.h **** 
 117:/Library/DaisyToolchain/0.2.0/arm/arm-none-eabi/include/c++/10.3.1/bits/stl_pair.h ****       template <typename _U1, typename _U2>
 118:/Library/DaisyToolchain/0.2.0/arm/arm-none-eabi/include/c++/10.3.1/bits/stl_pair.h ****       static constexpr bool _MoveConstructiblePair()
 119:/Library/DaisyToolchain/0.2.0/arm/arm-none-eabi/include/c++/10.3.1/bits/stl_pair.h ****       {
 120:/Library/DaisyToolchain/0.2.0/arm/arm-none-eabi/include/c++/10.3.1/bits/stl_pair.h **** 	return __and_<is_constructible<_T1, _U1&&>,
 121:/Library/DaisyToolchain/0.2.0/arm/arm-none-eabi/include/c++/10.3.1/bits/stl_pair.h **** 		      is_constructible<_T2, _U2&&>>::value;
 122:/Library/DaisyToolchain/0.2.0/arm/arm-none-eabi/include/c++/10.3.1/bits/stl_pair.h ****       }
 123:/Library/DaisyToolchain/0.2.0/arm/arm-none-eabi/include/c++/10.3.1/bits/stl_pair.h **** 
 124:/Library/DaisyToolchain/0.2.0/arm/arm-none-eabi/include/c++/10.3.1/bits/stl_pair.h ****       template <typename _U1, typename _U2>
 125:/Library/DaisyToolchain/0.2.0/arm/arm-none-eabi/include/c++/10.3.1/bits/stl_pair.h ****       static constexpr bool _ImplicitlyMoveConvertiblePair()
 126:/Library/DaisyToolchain/0.2.0/arm/arm-none-eabi/include/c++/10.3.1/bits/stl_pair.h ****       {
 127:/Library/DaisyToolchain/0.2.0/arm/arm-none-eabi/include/c++/10.3.1/bits/stl_pair.h **** 	return __and_<is_convertible<_U1&&, _T1>,
 128:/Library/DaisyToolchain/0.2.0/arm/arm-none-eabi/include/c++/10.3.1/bits/stl_pair.h **** 		      is_convertible<_U2&&, _T2>>::value;
 129:/Library/DaisyToolchain/0.2.0/arm/arm-none-eabi/include/c++/10.3.1/bits/stl_pair.h ****       }
 130:/Library/DaisyToolchain/0.2.0/arm/arm-none-eabi/include/c++/10.3.1/bits/stl_pair.h **** 
 131:/Library/DaisyToolchain/0.2.0/arm/arm-none-eabi/include/c++/10.3.1/bits/stl_pair.h ****       template <bool __implicit, typename _U1, typename _U2>
 132:/Library/DaisyToolchain/0.2.0/arm/arm-none-eabi/include/c++/10.3.1/bits/stl_pair.h ****       static constexpr bool _CopyMovePair()
 133:/Library/DaisyToolchain/0.2.0/arm/arm-none-eabi/include/c++/10.3.1/bits/stl_pair.h ****       {
 134:/Library/DaisyToolchain/0.2.0/arm/arm-none-eabi/include/c++/10.3.1/bits/stl_pair.h **** 	using __do_converts = __and_<is_convertible<const _U1&, _T1>,
 135:/Library/DaisyToolchain/0.2.0/arm/arm-none-eabi/include/c++/10.3.1/bits/stl_pair.h **** 				  is_convertible<_U2&&, _T2>>;
 136:/Library/DaisyToolchain/0.2.0/arm/arm-none-eabi/include/c++/10.3.1/bits/stl_pair.h **** 	using __converts = typename conditional<__implicit,
 137:/Library/DaisyToolchain/0.2.0/arm/arm-none-eabi/include/c++/10.3.1/bits/stl_pair.h **** 				       __do_converts,
 138:/Library/DaisyToolchain/0.2.0/arm/arm-none-eabi/include/c++/10.3.1/bits/stl_pair.h **** 				       __not_<__do_converts>>::type;
 139:/Library/DaisyToolchain/0.2.0/arm/arm-none-eabi/include/c++/10.3.1/bits/stl_pair.h **** 	return __and_<is_constructible<_T1, const _U1&>,
 140:/Library/DaisyToolchain/0.2.0/arm/arm-none-eabi/include/c++/10.3.1/bits/stl_pair.h **** 		      is_constructible<_T2, _U2&&>,
 141:/Library/DaisyToolchain/0.2.0/arm/arm-none-eabi/include/c++/10.3.1/bits/stl_pair.h **** 		      __converts
 142:/Library/DaisyToolchain/0.2.0/arm/arm-none-eabi/include/c++/10.3.1/bits/stl_pair.h **** 		      >::value;
ARM GAS  /var/folders/hl/qgbwny5j0fd895c2c41bk3tw0000gp/T//cc1L1gWC.s 			page 90


 143:/Library/DaisyToolchain/0.2.0/arm/arm-none-eabi/include/c++/10.3.1/bits/stl_pair.h ****       }
 144:/Library/DaisyToolchain/0.2.0/arm/arm-none-eabi/include/c++/10.3.1/bits/stl_pair.h **** 
 145:/Library/DaisyToolchain/0.2.0/arm/arm-none-eabi/include/c++/10.3.1/bits/stl_pair.h ****       template <bool __implicit, typename _U1, typename _U2>
 146:/Library/DaisyToolchain/0.2.0/arm/arm-none-eabi/include/c++/10.3.1/bits/stl_pair.h ****       static constexpr bool _MoveCopyPair()
 147:/Library/DaisyToolchain/0.2.0/arm/arm-none-eabi/include/c++/10.3.1/bits/stl_pair.h ****       {
 148:/Library/DaisyToolchain/0.2.0/arm/arm-none-eabi/include/c++/10.3.1/bits/stl_pair.h **** 	using __do_converts = __and_<is_convertible<_U1&&, _T1>,
 149:/Library/DaisyToolchain/0.2.0/arm/arm-none-eabi/include/c++/10.3.1/bits/stl_pair.h **** 				  is_convertible<const _U2&, _T2>>;
 150:/Library/DaisyToolchain/0.2.0/arm/arm-none-eabi/include/c++/10.3.1/bits/stl_pair.h **** 	using __converts = typename conditional<__implicit,
 151:/Library/DaisyToolchain/0.2.0/arm/arm-none-eabi/include/c++/10.3.1/bits/stl_pair.h **** 				       __do_converts,
 152:/Library/DaisyToolchain/0.2.0/arm/arm-none-eabi/include/c++/10.3.1/bits/stl_pair.h **** 				       __not_<__do_converts>>::type;
 153:/Library/DaisyToolchain/0.2.0/arm/arm-none-eabi/include/c++/10.3.1/bits/stl_pair.h **** 	return __and_<is_constructible<_T1, _U1&&>,
 154:/Library/DaisyToolchain/0.2.0/arm/arm-none-eabi/include/c++/10.3.1/bits/stl_pair.h **** 		      is_constructible<_T2, const _U2&&>,
 155:/Library/DaisyToolchain/0.2.0/arm/arm-none-eabi/include/c++/10.3.1/bits/stl_pair.h **** 		      __converts
 156:/Library/DaisyToolchain/0.2.0/arm/arm-none-eabi/include/c++/10.3.1/bits/stl_pair.h **** 		      >::value;
 157:/Library/DaisyToolchain/0.2.0/arm/arm-none-eabi/include/c++/10.3.1/bits/stl_pair.h ****       }
 158:/Library/DaisyToolchain/0.2.0/arm/arm-none-eabi/include/c++/10.3.1/bits/stl_pair.h ****   };
 159:/Library/DaisyToolchain/0.2.0/arm/arm-none-eabi/include/c++/10.3.1/bits/stl_pair.h **** 
 160:/Library/DaisyToolchain/0.2.0/arm/arm-none-eabi/include/c++/10.3.1/bits/stl_pair.h ****   template <typename _T1, typename _T2>
 161:/Library/DaisyToolchain/0.2.0/arm/arm-none-eabi/include/c++/10.3.1/bits/stl_pair.h ****     struct _PCC<false, _T1, _T2>
 162:/Library/DaisyToolchain/0.2.0/arm/arm-none-eabi/include/c++/10.3.1/bits/stl_pair.h ****     {
 163:/Library/DaisyToolchain/0.2.0/arm/arm-none-eabi/include/c++/10.3.1/bits/stl_pair.h ****       template <typename _U1, typename _U2>
 164:/Library/DaisyToolchain/0.2.0/arm/arm-none-eabi/include/c++/10.3.1/bits/stl_pair.h ****       static constexpr bool _ConstructiblePair()
 165:/Library/DaisyToolchain/0.2.0/arm/arm-none-eabi/include/c++/10.3.1/bits/stl_pair.h ****       {
 166:/Library/DaisyToolchain/0.2.0/arm/arm-none-eabi/include/c++/10.3.1/bits/stl_pair.h **** 	return false;
 167:/Library/DaisyToolchain/0.2.0/arm/arm-none-eabi/include/c++/10.3.1/bits/stl_pair.h ****       }
 168:/Library/DaisyToolchain/0.2.0/arm/arm-none-eabi/include/c++/10.3.1/bits/stl_pair.h **** 
 169:/Library/DaisyToolchain/0.2.0/arm/arm-none-eabi/include/c++/10.3.1/bits/stl_pair.h ****       template <typename _U1, typename _U2>
 170:/Library/DaisyToolchain/0.2.0/arm/arm-none-eabi/include/c++/10.3.1/bits/stl_pair.h ****       static constexpr bool _ImplicitlyConvertiblePair()
 171:/Library/DaisyToolchain/0.2.0/arm/arm-none-eabi/include/c++/10.3.1/bits/stl_pair.h ****       {
 172:/Library/DaisyToolchain/0.2.0/arm/arm-none-eabi/include/c++/10.3.1/bits/stl_pair.h **** 	return false;
 173:/Library/DaisyToolchain/0.2.0/arm/arm-none-eabi/include/c++/10.3.1/bits/stl_pair.h ****       }
 174:/Library/DaisyToolchain/0.2.0/arm/arm-none-eabi/include/c++/10.3.1/bits/stl_pair.h **** 
 175:/Library/DaisyToolchain/0.2.0/arm/arm-none-eabi/include/c++/10.3.1/bits/stl_pair.h ****       template <typename _U1, typename _U2>
 176:/Library/DaisyToolchain/0.2.0/arm/arm-none-eabi/include/c++/10.3.1/bits/stl_pair.h ****       static constexpr bool _MoveConstructiblePair()
 177:/Library/DaisyToolchain/0.2.0/arm/arm-none-eabi/include/c++/10.3.1/bits/stl_pair.h ****       {
 178:/Library/DaisyToolchain/0.2.0/arm/arm-none-eabi/include/c++/10.3.1/bits/stl_pair.h **** 	return false;
 179:/Library/DaisyToolchain/0.2.0/arm/arm-none-eabi/include/c++/10.3.1/bits/stl_pair.h ****       }
 180:/Library/DaisyToolchain/0.2.0/arm/arm-none-eabi/include/c++/10.3.1/bits/stl_pair.h **** 
 181:/Library/DaisyToolchain/0.2.0/arm/arm-none-eabi/include/c++/10.3.1/bits/stl_pair.h ****       template <typename _U1, typename _U2>
 182:/Library/DaisyToolchain/0.2.0/arm/arm-none-eabi/include/c++/10.3.1/bits/stl_pair.h ****       static constexpr bool _ImplicitlyMoveConvertiblePair()
 183:/Library/DaisyToolchain/0.2.0/arm/arm-none-eabi/include/c++/10.3.1/bits/stl_pair.h ****       {
 184:/Library/DaisyToolchain/0.2.0/arm/arm-none-eabi/include/c++/10.3.1/bits/stl_pair.h **** 	return false;
 185:/Library/DaisyToolchain/0.2.0/arm/arm-none-eabi/include/c++/10.3.1/bits/stl_pair.h ****       }
 186:/Library/DaisyToolchain/0.2.0/arm/arm-none-eabi/include/c++/10.3.1/bits/stl_pair.h ****   };
 187:/Library/DaisyToolchain/0.2.0/arm/arm-none-eabi/include/c++/10.3.1/bits/stl_pair.h **** #endif // C++11
 188:/Library/DaisyToolchain/0.2.0/arm/arm-none-eabi/include/c++/10.3.1/bits/stl_pair.h **** 
 189:/Library/DaisyToolchain/0.2.0/arm/arm-none-eabi/include/c++/10.3.1/bits/stl_pair.h ****   template<typename _U1, typename _U2> class __pair_base
 190:/Library/DaisyToolchain/0.2.0/arm/arm-none-eabi/include/c++/10.3.1/bits/stl_pair.h ****   {
 191:/Library/DaisyToolchain/0.2.0/arm/arm-none-eabi/include/c++/10.3.1/bits/stl_pair.h **** #if __cplusplus >= 201103L
 192:/Library/DaisyToolchain/0.2.0/arm/arm-none-eabi/include/c++/10.3.1/bits/stl_pair.h ****     template<typename _T1, typename _T2> friend struct pair;
 193:/Library/DaisyToolchain/0.2.0/arm/arm-none-eabi/include/c++/10.3.1/bits/stl_pair.h ****     __pair_base() = default;
 194:/Library/DaisyToolchain/0.2.0/arm/arm-none-eabi/include/c++/10.3.1/bits/stl_pair.h ****     ~__pair_base() = default;
 195:/Library/DaisyToolchain/0.2.0/arm/arm-none-eabi/include/c++/10.3.1/bits/stl_pair.h ****     __pair_base(const __pair_base&) = default;
 196:/Library/DaisyToolchain/0.2.0/arm/arm-none-eabi/include/c++/10.3.1/bits/stl_pair.h ****     __pair_base& operator=(const __pair_base&) = delete;
 197:/Library/DaisyToolchain/0.2.0/arm/arm-none-eabi/include/c++/10.3.1/bits/stl_pair.h **** #endif // C++11
 198:/Library/DaisyToolchain/0.2.0/arm/arm-none-eabi/include/c++/10.3.1/bits/stl_pair.h ****   };
 199:/Library/DaisyToolchain/0.2.0/arm/arm-none-eabi/include/c++/10.3.1/bits/stl_pair.h **** 
ARM GAS  /var/folders/hl/qgbwny5j0fd895c2c41bk3tw0000gp/T//cc1L1gWC.s 			page 91


 200:/Library/DaisyToolchain/0.2.0/arm/arm-none-eabi/include/c++/10.3.1/bits/stl_pair.h ****   /// @endcond
 201:/Library/DaisyToolchain/0.2.0/arm/arm-none-eabi/include/c++/10.3.1/bits/stl_pair.h **** 
 202:/Library/DaisyToolchain/0.2.0/arm/arm-none-eabi/include/c++/10.3.1/bits/stl_pair.h ****  /**
 203:/Library/DaisyToolchain/0.2.0/arm/arm-none-eabi/include/c++/10.3.1/bits/stl_pair.h ****    *  @brief Struct holding two objects of arbitrary type.
 204:/Library/DaisyToolchain/0.2.0/arm/arm-none-eabi/include/c++/10.3.1/bits/stl_pair.h ****    *
 205:/Library/DaisyToolchain/0.2.0/arm/arm-none-eabi/include/c++/10.3.1/bits/stl_pair.h ****    *  @tparam _T1  Type of first object.
 206:/Library/DaisyToolchain/0.2.0/arm/arm-none-eabi/include/c++/10.3.1/bits/stl_pair.h ****    *  @tparam _T2  Type of second object.
 207:/Library/DaisyToolchain/0.2.0/arm/arm-none-eabi/include/c++/10.3.1/bits/stl_pair.h ****    *
 208:/Library/DaisyToolchain/0.2.0/arm/arm-none-eabi/include/c++/10.3.1/bits/stl_pair.h ****    *  <https://gcc.gnu.org/onlinedocs/libstdc++/manual/utilities.html>
 209:/Library/DaisyToolchain/0.2.0/arm/arm-none-eabi/include/c++/10.3.1/bits/stl_pair.h ****    */
 210:/Library/DaisyToolchain/0.2.0/arm/arm-none-eabi/include/c++/10.3.1/bits/stl_pair.h ****   template<typename _T1, typename _T2>
 211:/Library/DaisyToolchain/0.2.0/arm/arm-none-eabi/include/c++/10.3.1/bits/stl_pair.h ****     struct pair
 212:/Library/DaisyToolchain/0.2.0/arm/arm-none-eabi/include/c++/10.3.1/bits/stl_pair.h ****     : private __pair_base<_T1, _T2>
 213:/Library/DaisyToolchain/0.2.0/arm/arm-none-eabi/include/c++/10.3.1/bits/stl_pair.h ****     {
 214:/Library/DaisyToolchain/0.2.0/arm/arm-none-eabi/include/c++/10.3.1/bits/stl_pair.h ****       typedef _T1 first_type;    ///< The type of the `first` member
 215:/Library/DaisyToolchain/0.2.0/arm/arm-none-eabi/include/c++/10.3.1/bits/stl_pair.h ****       typedef _T2 second_type;   ///< The type of the `second` member
 216:/Library/DaisyToolchain/0.2.0/arm/arm-none-eabi/include/c++/10.3.1/bits/stl_pair.h **** 
 217:/Library/DaisyToolchain/0.2.0/arm/arm-none-eabi/include/c++/10.3.1/bits/stl_pair.h ****       _T1 first;                 ///< The first member
 218:/Library/DaisyToolchain/0.2.0/arm/arm-none-eabi/include/c++/10.3.1/bits/stl_pair.h ****       _T2 second;                ///< The second member
 219:/Library/DaisyToolchain/0.2.0/arm/arm-none-eabi/include/c++/10.3.1/bits/stl_pair.h **** 
 220:/Library/DaisyToolchain/0.2.0/arm/arm-none-eabi/include/c++/10.3.1/bits/stl_pair.h ****       // _GLIBCXX_RESOLVE_LIB_DEFECTS
 221:/Library/DaisyToolchain/0.2.0/arm/arm-none-eabi/include/c++/10.3.1/bits/stl_pair.h ****       // 265.  std::pair::pair() effects overly restrictive
 222:/Library/DaisyToolchain/0.2.0/arm/arm-none-eabi/include/c++/10.3.1/bits/stl_pair.h ****       /** The default constructor creates @c first and @c second using their
 223:/Library/DaisyToolchain/0.2.0/arm/arm-none-eabi/include/c++/10.3.1/bits/stl_pair.h ****        *  respective default constructors.  */
 224:/Library/DaisyToolchain/0.2.0/arm/arm-none-eabi/include/c++/10.3.1/bits/stl_pair.h **** #if __cplusplus >= 201103L
 225:/Library/DaisyToolchain/0.2.0/arm/arm-none-eabi/include/c++/10.3.1/bits/stl_pair.h ****       template <typename _U1 = _T1,
 226:/Library/DaisyToolchain/0.2.0/arm/arm-none-eabi/include/c++/10.3.1/bits/stl_pair.h ****                 typename _U2 = _T2,
 227:/Library/DaisyToolchain/0.2.0/arm/arm-none-eabi/include/c++/10.3.1/bits/stl_pair.h ****                 typename enable_if<__and_<
 228:/Library/DaisyToolchain/0.2.0/arm/arm-none-eabi/include/c++/10.3.1/bits/stl_pair.h ****                                      __is_implicitly_default_constructible<_U1>,
 229:/Library/DaisyToolchain/0.2.0/arm/arm-none-eabi/include/c++/10.3.1/bits/stl_pair.h ****                                      __is_implicitly_default_constructible<_U2>>
 230:/Library/DaisyToolchain/0.2.0/arm/arm-none-eabi/include/c++/10.3.1/bits/stl_pair.h ****                                    ::value, bool>::type = true>
 231:/Library/DaisyToolchain/0.2.0/arm/arm-none-eabi/include/c++/10.3.1/bits/stl_pair.h **** #endif
 232:/Library/DaisyToolchain/0.2.0/arm/arm-none-eabi/include/c++/10.3.1/bits/stl_pair.h ****       _GLIBCXX_CONSTEXPR pair()
 233:/Library/DaisyToolchain/0.2.0/arm/arm-none-eabi/include/c++/10.3.1/bits/stl_pair.h ****       : first(), second() { }
 234:/Library/DaisyToolchain/0.2.0/arm/arm-none-eabi/include/c++/10.3.1/bits/stl_pair.h **** 
 235:/Library/DaisyToolchain/0.2.0/arm/arm-none-eabi/include/c++/10.3.1/bits/stl_pair.h **** #if __cplusplus >= 201103L
 236:/Library/DaisyToolchain/0.2.0/arm/arm-none-eabi/include/c++/10.3.1/bits/stl_pair.h ****       template <typename _U1 = _T1,
 237:/Library/DaisyToolchain/0.2.0/arm/arm-none-eabi/include/c++/10.3.1/bits/stl_pair.h ****                 typename _U2 = _T2,
 238:/Library/DaisyToolchain/0.2.0/arm/arm-none-eabi/include/c++/10.3.1/bits/stl_pair.h ****                 typename enable_if<__and_<
 239:/Library/DaisyToolchain/0.2.0/arm/arm-none-eabi/include/c++/10.3.1/bits/stl_pair.h ****                        is_default_constructible<_U1>,
 240:/Library/DaisyToolchain/0.2.0/arm/arm-none-eabi/include/c++/10.3.1/bits/stl_pair.h ****                        is_default_constructible<_U2>,
 241:/Library/DaisyToolchain/0.2.0/arm/arm-none-eabi/include/c++/10.3.1/bits/stl_pair.h ****                        __not_<
 242:/Library/DaisyToolchain/0.2.0/arm/arm-none-eabi/include/c++/10.3.1/bits/stl_pair.h ****                          __and_<__is_implicitly_default_constructible<_U1>,
 243:/Library/DaisyToolchain/0.2.0/arm/arm-none-eabi/include/c++/10.3.1/bits/stl_pair.h ****                                 __is_implicitly_default_constructible<_U2>>>>
 244:/Library/DaisyToolchain/0.2.0/arm/arm-none-eabi/include/c++/10.3.1/bits/stl_pair.h ****                                    ::value, bool>::type = false>
 245:/Library/DaisyToolchain/0.2.0/arm/arm-none-eabi/include/c++/10.3.1/bits/stl_pair.h ****       explicit constexpr pair()
 246:/Library/DaisyToolchain/0.2.0/arm/arm-none-eabi/include/c++/10.3.1/bits/stl_pair.h ****       : first(), second() { }
 247:/Library/DaisyToolchain/0.2.0/arm/arm-none-eabi/include/c++/10.3.1/bits/stl_pair.h **** #endif
 248:/Library/DaisyToolchain/0.2.0/arm/arm-none-eabi/include/c++/10.3.1/bits/stl_pair.h **** 
 249:/Library/DaisyToolchain/0.2.0/arm/arm-none-eabi/include/c++/10.3.1/bits/stl_pair.h **** #if __cplusplus < 201103L
 250:/Library/DaisyToolchain/0.2.0/arm/arm-none-eabi/include/c++/10.3.1/bits/stl_pair.h ****       /// Two objects may be passed to a @c pair constructor to be copied.
 251:/Library/DaisyToolchain/0.2.0/arm/arm-none-eabi/include/c++/10.3.1/bits/stl_pair.h ****       pair(const _T1& __a, const _T2& __b)
 252:/Library/DaisyToolchain/0.2.0/arm/arm-none-eabi/include/c++/10.3.1/bits/stl_pair.h ****       : first(__a), second(__b) { }
 253:/Library/DaisyToolchain/0.2.0/arm/arm-none-eabi/include/c++/10.3.1/bits/stl_pair.h **** #else
 254:/Library/DaisyToolchain/0.2.0/arm/arm-none-eabi/include/c++/10.3.1/bits/stl_pair.h ****       // Shortcut for constraining the templates that don't take pairs.
 255:/Library/DaisyToolchain/0.2.0/arm/arm-none-eabi/include/c++/10.3.1/bits/stl_pair.h ****       /// @cond undocumented
 256:/Library/DaisyToolchain/0.2.0/arm/arm-none-eabi/include/c++/10.3.1/bits/stl_pair.h ****       using _PCCP = _PCC<true, _T1, _T2>;
ARM GAS  /var/folders/hl/qgbwny5j0fd895c2c41bk3tw0000gp/T//cc1L1gWC.s 			page 92


 257:/Library/DaisyToolchain/0.2.0/arm/arm-none-eabi/include/c++/10.3.1/bits/stl_pair.h ****       /// @endcond
 258:/Library/DaisyToolchain/0.2.0/arm/arm-none-eabi/include/c++/10.3.1/bits/stl_pair.h **** 
 259:/Library/DaisyToolchain/0.2.0/arm/arm-none-eabi/include/c++/10.3.1/bits/stl_pair.h ****       /// Construct from two const lvalues, allowing implicit conversions.
 260:/Library/DaisyToolchain/0.2.0/arm/arm-none-eabi/include/c++/10.3.1/bits/stl_pair.h ****       template<typename _U1 = _T1, typename _U2=_T2, typename
 261:/Library/DaisyToolchain/0.2.0/arm/arm-none-eabi/include/c++/10.3.1/bits/stl_pair.h **** 	       enable_if<_PCCP::template
 262:/Library/DaisyToolchain/0.2.0/arm/arm-none-eabi/include/c++/10.3.1/bits/stl_pair.h **** 			   _ConstructiblePair<_U1, _U2>()
 263:/Library/DaisyToolchain/0.2.0/arm/arm-none-eabi/include/c++/10.3.1/bits/stl_pair.h **** 	                 && _PCCP::template
 264:/Library/DaisyToolchain/0.2.0/arm/arm-none-eabi/include/c++/10.3.1/bits/stl_pair.h **** 			   _ImplicitlyConvertiblePair<_U1, _U2>(),
 265:/Library/DaisyToolchain/0.2.0/arm/arm-none-eabi/include/c++/10.3.1/bits/stl_pair.h ****                          bool>::type=true>
 266:/Library/DaisyToolchain/0.2.0/arm/arm-none-eabi/include/c++/10.3.1/bits/stl_pair.h ****       constexpr pair(const _T1& __a, const _T2& __b)
 267:/Library/DaisyToolchain/0.2.0/arm/arm-none-eabi/include/c++/10.3.1/bits/stl_pair.h ****       : first(__a), second(__b) { }
 268:/Library/DaisyToolchain/0.2.0/arm/arm-none-eabi/include/c++/10.3.1/bits/stl_pair.h **** 
 269:/Library/DaisyToolchain/0.2.0/arm/arm-none-eabi/include/c++/10.3.1/bits/stl_pair.h ****       /// Construct from two const lvalues, disallowing implicit conversions.
 270:/Library/DaisyToolchain/0.2.0/arm/arm-none-eabi/include/c++/10.3.1/bits/stl_pair.h ****        template<typename _U1 = _T1, typename _U2=_T2, typename
 271:/Library/DaisyToolchain/0.2.0/arm/arm-none-eabi/include/c++/10.3.1/bits/stl_pair.h **** 		enable_if<_PCCP::template
 272:/Library/DaisyToolchain/0.2.0/arm/arm-none-eabi/include/c++/10.3.1/bits/stl_pair.h **** 			    _ConstructiblePair<_U1, _U2>()
 273:/Library/DaisyToolchain/0.2.0/arm/arm-none-eabi/include/c++/10.3.1/bits/stl_pair.h **** 	                  && !_PCCP::template
 274:/Library/DaisyToolchain/0.2.0/arm/arm-none-eabi/include/c++/10.3.1/bits/stl_pair.h **** 			    _ImplicitlyConvertiblePair<_U1, _U2>(),
 275:/Library/DaisyToolchain/0.2.0/arm/arm-none-eabi/include/c++/10.3.1/bits/stl_pair.h ****                          bool>::type=false>
 276:/Library/DaisyToolchain/0.2.0/arm/arm-none-eabi/include/c++/10.3.1/bits/stl_pair.h ****       explicit constexpr pair(const _T1& __a, const _T2& __b)
 277:/Library/DaisyToolchain/0.2.0/arm/arm-none-eabi/include/c++/10.3.1/bits/stl_pair.h ****       : first(__a), second(__b) { }
 278:/Library/DaisyToolchain/0.2.0/arm/arm-none-eabi/include/c++/10.3.1/bits/stl_pair.h **** #endif
 279:/Library/DaisyToolchain/0.2.0/arm/arm-none-eabi/include/c++/10.3.1/bits/stl_pair.h **** 
 280:/Library/DaisyToolchain/0.2.0/arm/arm-none-eabi/include/c++/10.3.1/bits/stl_pair.h **** #if __cplusplus < 201103L
 281:/Library/DaisyToolchain/0.2.0/arm/arm-none-eabi/include/c++/10.3.1/bits/stl_pair.h ****       /// There is also a templated constructor to convert from other pairs.
 282:/Library/DaisyToolchain/0.2.0/arm/arm-none-eabi/include/c++/10.3.1/bits/stl_pair.h ****       template<typename _U1, typename _U2>
 283:/Library/DaisyToolchain/0.2.0/arm/arm-none-eabi/include/c++/10.3.1/bits/stl_pair.h **** 	pair(const pair<_U1, _U2>& __p)
 284:/Library/DaisyToolchain/0.2.0/arm/arm-none-eabi/include/c++/10.3.1/bits/stl_pair.h **** 	: first(__p.first), second(__p.second) { }
 285:/Library/DaisyToolchain/0.2.0/arm/arm-none-eabi/include/c++/10.3.1/bits/stl_pair.h **** #else
 286:/Library/DaisyToolchain/0.2.0/arm/arm-none-eabi/include/c++/10.3.1/bits/stl_pair.h ****       // Shortcut for constraining the templates that take pairs.
 287:/Library/DaisyToolchain/0.2.0/arm/arm-none-eabi/include/c++/10.3.1/bits/stl_pair.h ****       /// @cond undocumented
 288:/Library/DaisyToolchain/0.2.0/arm/arm-none-eabi/include/c++/10.3.1/bits/stl_pair.h ****       template <typename _U1, typename _U2>
 289:/Library/DaisyToolchain/0.2.0/arm/arm-none-eabi/include/c++/10.3.1/bits/stl_pair.h ****         using _PCCFP = _PCC<!is_same<_T1, _U1>::value
 290:/Library/DaisyToolchain/0.2.0/arm/arm-none-eabi/include/c++/10.3.1/bits/stl_pair.h **** 			    || !is_same<_T2, _U2>::value,
 291:/Library/DaisyToolchain/0.2.0/arm/arm-none-eabi/include/c++/10.3.1/bits/stl_pair.h **** 			    _T1, _T2>;
 292:/Library/DaisyToolchain/0.2.0/arm/arm-none-eabi/include/c++/10.3.1/bits/stl_pair.h ****       /// @endcond
 293:/Library/DaisyToolchain/0.2.0/arm/arm-none-eabi/include/c++/10.3.1/bits/stl_pair.h **** 
 294:/Library/DaisyToolchain/0.2.0/arm/arm-none-eabi/include/c++/10.3.1/bits/stl_pair.h ****       template<typename _U1, typename _U2, typename
 295:/Library/DaisyToolchain/0.2.0/arm/arm-none-eabi/include/c++/10.3.1/bits/stl_pair.h **** 	       enable_if<_PCCFP<_U1, _U2>::template
 296:/Library/DaisyToolchain/0.2.0/arm/arm-none-eabi/include/c++/10.3.1/bits/stl_pair.h **** 			   _ConstructiblePair<_U1, _U2>()
 297:/Library/DaisyToolchain/0.2.0/arm/arm-none-eabi/include/c++/10.3.1/bits/stl_pair.h **** 	                 && _PCCFP<_U1, _U2>::template
 298:/Library/DaisyToolchain/0.2.0/arm/arm-none-eabi/include/c++/10.3.1/bits/stl_pair.h **** 			   _ImplicitlyConvertiblePair<_U1, _U2>(),
 299:/Library/DaisyToolchain/0.2.0/arm/arm-none-eabi/include/c++/10.3.1/bits/stl_pair.h **** 			  bool>::type=true>
 300:/Library/DaisyToolchain/0.2.0/arm/arm-none-eabi/include/c++/10.3.1/bits/stl_pair.h ****         constexpr pair(const pair<_U1, _U2>& __p)
 301:/Library/DaisyToolchain/0.2.0/arm/arm-none-eabi/include/c++/10.3.1/bits/stl_pair.h ****         : first(__p.first), second(__p.second) { }
 302:/Library/DaisyToolchain/0.2.0/arm/arm-none-eabi/include/c++/10.3.1/bits/stl_pair.h **** 
 303:/Library/DaisyToolchain/0.2.0/arm/arm-none-eabi/include/c++/10.3.1/bits/stl_pair.h ****       template<typename _U1, typename _U2, typename
 304:/Library/DaisyToolchain/0.2.0/arm/arm-none-eabi/include/c++/10.3.1/bits/stl_pair.h **** 	       enable_if<_PCCFP<_U1, _U2>::template
 305:/Library/DaisyToolchain/0.2.0/arm/arm-none-eabi/include/c++/10.3.1/bits/stl_pair.h **** 			   _ConstructiblePair<_U1, _U2>()
 306:/Library/DaisyToolchain/0.2.0/arm/arm-none-eabi/include/c++/10.3.1/bits/stl_pair.h **** 			 && !_PCCFP<_U1, _U2>::template
 307:/Library/DaisyToolchain/0.2.0/arm/arm-none-eabi/include/c++/10.3.1/bits/stl_pair.h **** 			   _ImplicitlyConvertiblePair<_U1, _U2>(),
 308:/Library/DaisyToolchain/0.2.0/arm/arm-none-eabi/include/c++/10.3.1/bits/stl_pair.h ****                          bool>::type=false>
 309:/Library/DaisyToolchain/0.2.0/arm/arm-none-eabi/include/c++/10.3.1/bits/stl_pair.h **** 	explicit constexpr pair(const pair<_U1, _U2>& __p)
 310:/Library/DaisyToolchain/0.2.0/arm/arm-none-eabi/include/c++/10.3.1/bits/stl_pair.h **** 	: first(__p.first), second(__p.second) { }
 311:/Library/DaisyToolchain/0.2.0/arm/arm-none-eabi/include/c++/10.3.1/bits/stl_pair.h **** #endif
 312:/Library/DaisyToolchain/0.2.0/arm/arm-none-eabi/include/c++/10.3.1/bits/stl_pair.h **** 
 313:/Library/DaisyToolchain/0.2.0/arm/arm-none-eabi/include/c++/10.3.1/bits/stl_pair.h **** #if __cplusplus >= 201103L
ARM GAS  /var/folders/hl/qgbwny5j0fd895c2c41bk3tw0000gp/T//cc1L1gWC.s 			page 93


 314:/Library/DaisyToolchain/0.2.0/arm/arm-none-eabi/include/c++/10.3.1/bits/stl_pair.h ****       constexpr pair(const pair&) = default;	///< Copy constructor
 315:/Library/DaisyToolchain/0.2.0/arm/arm-none-eabi/include/c++/10.3.1/bits/stl_pair.h ****       constexpr pair(pair&&) = default;		///< Move constructor
 316:/Library/DaisyToolchain/0.2.0/arm/arm-none-eabi/include/c++/10.3.1/bits/stl_pair.h **** 
 317:/Library/DaisyToolchain/0.2.0/arm/arm-none-eabi/include/c++/10.3.1/bits/stl_pair.h ****       // DR 811.
 318:/Library/DaisyToolchain/0.2.0/arm/arm-none-eabi/include/c++/10.3.1/bits/stl_pair.h ****       template<typename _U1, typename
 319:/Library/DaisyToolchain/0.2.0/arm/arm-none-eabi/include/c++/10.3.1/bits/stl_pair.h **** 	       enable_if<_PCCP::template
 320:/Library/DaisyToolchain/0.2.0/arm/arm-none-eabi/include/c++/10.3.1/bits/stl_pair.h **** 			   _MoveCopyPair<true, _U1, _T2>(),
 321:/Library/DaisyToolchain/0.2.0/arm/arm-none-eabi/include/c++/10.3.1/bits/stl_pair.h ****                          bool>::type=true>
 322:/Library/DaisyToolchain/0.2.0/arm/arm-none-eabi/include/c++/10.3.1/bits/stl_pair.h ****        constexpr pair(_U1&& __x, const _T2& __y)
 323:/Library/DaisyToolchain/0.2.0/arm/arm-none-eabi/include/c++/10.3.1/bits/stl_pair.h ****        : first(std::forward<_U1>(__x)), second(__y) { }
 324:/Library/DaisyToolchain/0.2.0/arm/arm-none-eabi/include/c++/10.3.1/bits/stl_pair.h **** 
 325:/Library/DaisyToolchain/0.2.0/arm/arm-none-eabi/include/c++/10.3.1/bits/stl_pair.h ****       template<typename _U1, typename
 326:/Library/DaisyToolchain/0.2.0/arm/arm-none-eabi/include/c++/10.3.1/bits/stl_pair.h **** 	       enable_if<_PCCP::template
 327:/Library/DaisyToolchain/0.2.0/arm/arm-none-eabi/include/c++/10.3.1/bits/stl_pair.h **** 			   _MoveCopyPair<false, _U1, _T2>(),
 328:/Library/DaisyToolchain/0.2.0/arm/arm-none-eabi/include/c++/10.3.1/bits/stl_pair.h ****                          bool>::type=false>
 329:/Library/DaisyToolchain/0.2.0/arm/arm-none-eabi/include/c++/10.3.1/bits/stl_pair.h ****        explicit constexpr pair(_U1&& __x, const _T2& __y)
 330:/Library/DaisyToolchain/0.2.0/arm/arm-none-eabi/include/c++/10.3.1/bits/stl_pair.h ****        : first(std::forward<_U1>(__x)), second(__y) { }
 331:/Library/DaisyToolchain/0.2.0/arm/arm-none-eabi/include/c++/10.3.1/bits/stl_pair.h **** 
 332:/Library/DaisyToolchain/0.2.0/arm/arm-none-eabi/include/c++/10.3.1/bits/stl_pair.h ****       template<typename _U2, typename
 333:/Library/DaisyToolchain/0.2.0/arm/arm-none-eabi/include/c++/10.3.1/bits/stl_pair.h **** 	       enable_if<_PCCP::template
 334:/Library/DaisyToolchain/0.2.0/arm/arm-none-eabi/include/c++/10.3.1/bits/stl_pair.h **** 			   _CopyMovePair<true, _T1, _U2>(),
 335:/Library/DaisyToolchain/0.2.0/arm/arm-none-eabi/include/c++/10.3.1/bits/stl_pair.h ****                          bool>::type=true>
 336:/Library/DaisyToolchain/0.2.0/arm/arm-none-eabi/include/c++/10.3.1/bits/stl_pair.h ****        constexpr pair(const _T1& __x, _U2&& __y)
 337:/Library/DaisyToolchain/0.2.0/arm/arm-none-eabi/include/c++/10.3.1/bits/stl_pair.h ****        : first(__x), second(std::forward<_U2>(__y)) { }
 338:/Library/DaisyToolchain/0.2.0/arm/arm-none-eabi/include/c++/10.3.1/bits/stl_pair.h **** 
 339:/Library/DaisyToolchain/0.2.0/arm/arm-none-eabi/include/c++/10.3.1/bits/stl_pair.h ****       template<typename _U2, typename
 340:/Library/DaisyToolchain/0.2.0/arm/arm-none-eabi/include/c++/10.3.1/bits/stl_pair.h **** 	       enable_if<_PCCP::template
 341:/Library/DaisyToolchain/0.2.0/arm/arm-none-eabi/include/c++/10.3.1/bits/stl_pair.h **** 			   _CopyMovePair<false, _T1, _U2>(),
 342:/Library/DaisyToolchain/0.2.0/arm/arm-none-eabi/include/c++/10.3.1/bits/stl_pair.h ****                          bool>::type=false>
 343:/Library/DaisyToolchain/0.2.0/arm/arm-none-eabi/include/c++/10.3.1/bits/stl_pair.h ****        explicit pair(const _T1& __x, _U2&& __y)
 344:/Library/DaisyToolchain/0.2.0/arm/arm-none-eabi/include/c++/10.3.1/bits/stl_pair.h ****        : first(__x), second(std::forward<_U2>(__y)) { }
 345:/Library/DaisyToolchain/0.2.0/arm/arm-none-eabi/include/c++/10.3.1/bits/stl_pair.h **** 
 346:/Library/DaisyToolchain/0.2.0/arm/arm-none-eabi/include/c++/10.3.1/bits/stl_pair.h ****       template<typename _U1, typename _U2, typename
 347:/Library/DaisyToolchain/0.2.0/arm/arm-none-eabi/include/c++/10.3.1/bits/stl_pair.h **** 	       enable_if<_PCCP::template
 348:/Library/DaisyToolchain/0.2.0/arm/arm-none-eabi/include/c++/10.3.1/bits/stl_pair.h **** 			   _MoveConstructiblePair<_U1, _U2>()
 349:/Library/DaisyToolchain/0.2.0/arm/arm-none-eabi/include/c++/10.3.1/bits/stl_pair.h **** 			  && _PCCP::template
 350:/Library/DaisyToolchain/0.2.0/arm/arm-none-eabi/include/c++/10.3.1/bits/stl_pair.h **** 			   _ImplicitlyMoveConvertiblePair<_U1, _U2>(),
 351:/Library/DaisyToolchain/0.2.0/arm/arm-none-eabi/include/c++/10.3.1/bits/stl_pair.h ****                          bool>::type=true>
 352:/Library/DaisyToolchain/0.2.0/arm/arm-none-eabi/include/c++/10.3.1/bits/stl_pair.h **** 	constexpr pair(_U1&& __x, _U2&& __y)
 353:/Library/DaisyToolchain/0.2.0/arm/arm-none-eabi/include/c++/10.3.1/bits/stl_pair.h **** 	: first(std::forward<_U1>(__x)), second(std::forward<_U2>(__y)) { }
 354:/Library/DaisyToolchain/0.2.0/arm/arm-none-eabi/include/c++/10.3.1/bits/stl_pair.h **** 
 355:/Library/DaisyToolchain/0.2.0/arm/arm-none-eabi/include/c++/10.3.1/bits/stl_pair.h ****       template<typename _U1, typename _U2, typename
 356:/Library/DaisyToolchain/0.2.0/arm/arm-none-eabi/include/c++/10.3.1/bits/stl_pair.h **** 	       enable_if<_PCCP::template
 357:/Library/DaisyToolchain/0.2.0/arm/arm-none-eabi/include/c++/10.3.1/bits/stl_pair.h **** 			   _MoveConstructiblePair<_U1, _U2>()
 358:/Library/DaisyToolchain/0.2.0/arm/arm-none-eabi/include/c++/10.3.1/bits/stl_pair.h **** 			  && !_PCCP::template
 359:/Library/DaisyToolchain/0.2.0/arm/arm-none-eabi/include/c++/10.3.1/bits/stl_pair.h **** 			   _ImplicitlyMoveConvertiblePair<_U1, _U2>(),
 360:/Library/DaisyToolchain/0.2.0/arm/arm-none-eabi/include/c++/10.3.1/bits/stl_pair.h ****                          bool>::type=false>
 361:/Library/DaisyToolchain/0.2.0/arm/arm-none-eabi/include/c++/10.3.1/bits/stl_pair.h **** 	explicit constexpr pair(_U1&& __x, _U2&& __y)
 362:/Library/DaisyToolchain/0.2.0/arm/arm-none-eabi/include/c++/10.3.1/bits/stl_pair.h **** 	: first(std::forward<_U1>(__x)), second(std::forward<_U2>(__y)) { }
 363:/Library/DaisyToolchain/0.2.0/arm/arm-none-eabi/include/c++/10.3.1/bits/stl_pair.h **** 
 364:/Library/DaisyToolchain/0.2.0/arm/arm-none-eabi/include/c++/10.3.1/bits/stl_pair.h **** 
 365:/Library/DaisyToolchain/0.2.0/arm/arm-none-eabi/include/c++/10.3.1/bits/stl_pair.h ****       template<typename _U1, typename _U2, typename
 366:/Library/DaisyToolchain/0.2.0/arm/arm-none-eabi/include/c++/10.3.1/bits/stl_pair.h **** 	       enable_if<_PCCFP<_U1, _U2>::template
 367:/Library/DaisyToolchain/0.2.0/arm/arm-none-eabi/include/c++/10.3.1/bits/stl_pair.h **** 			   _MoveConstructiblePair<_U1, _U2>()
 368:/Library/DaisyToolchain/0.2.0/arm/arm-none-eabi/include/c++/10.3.1/bits/stl_pair.h **** 			  && _PCCFP<_U1, _U2>::template
 369:/Library/DaisyToolchain/0.2.0/arm/arm-none-eabi/include/c++/10.3.1/bits/stl_pair.h **** 			   _ImplicitlyMoveConvertiblePair<_U1, _U2>(),
 370:/Library/DaisyToolchain/0.2.0/arm/arm-none-eabi/include/c++/10.3.1/bits/stl_pair.h ****                          bool>::type=true>
ARM GAS  /var/folders/hl/qgbwny5j0fd895c2c41bk3tw0000gp/T//cc1L1gWC.s 			page 94


 371:/Library/DaisyToolchain/0.2.0/arm/arm-none-eabi/include/c++/10.3.1/bits/stl_pair.h **** 	constexpr pair(pair<_U1, _U2>&& __p)
 372:/Library/DaisyToolchain/0.2.0/arm/arm-none-eabi/include/c++/10.3.1/bits/stl_pair.h **** 	: first(std::forward<_U1>(__p.first)),
 373:/Library/DaisyToolchain/0.2.0/arm/arm-none-eabi/include/c++/10.3.1/bits/stl_pair.h **** 	  second(std::forward<_U2>(__p.second)) { }
 374:/Library/DaisyToolchain/0.2.0/arm/arm-none-eabi/include/c++/10.3.1/bits/stl_pair.h **** 
 375:/Library/DaisyToolchain/0.2.0/arm/arm-none-eabi/include/c++/10.3.1/bits/stl_pair.h ****       template<typename _U1, typename _U2, typename
 376:/Library/DaisyToolchain/0.2.0/arm/arm-none-eabi/include/c++/10.3.1/bits/stl_pair.h **** 	       enable_if<_PCCFP<_U1, _U2>::template
 377:/Library/DaisyToolchain/0.2.0/arm/arm-none-eabi/include/c++/10.3.1/bits/stl_pair.h **** 			   _MoveConstructiblePair<_U1, _U2>()
 378:/Library/DaisyToolchain/0.2.0/arm/arm-none-eabi/include/c++/10.3.1/bits/stl_pair.h **** 			  && !_PCCFP<_U1, _U2>::template
 379:/Library/DaisyToolchain/0.2.0/arm/arm-none-eabi/include/c++/10.3.1/bits/stl_pair.h **** 			   _ImplicitlyMoveConvertiblePair<_U1, _U2>(),
 380:/Library/DaisyToolchain/0.2.0/arm/arm-none-eabi/include/c++/10.3.1/bits/stl_pair.h ****                          bool>::type=false>
 381:/Library/DaisyToolchain/0.2.0/arm/arm-none-eabi/include/c++/10.3.1/bits/stl_pair.h **** 	explicit constexpr pair(pair<_U1, _U2>&& __p)
 382:/Library/DaisyToolchain/0.2.0/arm/arm-none-eabi/include/c++/10.3.1/bits/stl_pair.h **** 	: first(std::forward<_U1>(__p.first)),
 383:/Library/DaisyToolchain/0.2.0/arm/arm-none-eabi/include/c++/10.3.1/bits/stl_pair.h **** 	  second(std::forward<_U2>(__p.second)) { }
 384:/Library/DaisyToolchain/0.2.0/arm/arm-none-eabi/include/c++/10.3.1/bits/stl_pair.h **** 
 385:/Library/DaisyToolchain/0.2.0/arm/arm-none-eabi/include/c++/10.3.1/bits/stl_pair.h ****       template<typename... _Args1, typename... _Args2>
 386:/Library/DaisyToolchain/0.2.0/arm/arm-none-eabi/include/c++/10.3.1/bits/stl_pair.h **** 	_GLIBCXX20_CONSTEXPR
 387:/Library/DaisyToolchain/0.2.0/arm/arm-none-eabi/include/c++/10.3.1/bits/stl_pair.h ****         pair(piecewise_construct_t, tuple<_Args1...>, tuple<_Args2...>);
 388:/Library/DaisyToolchain/0.2.0/arm/arm-none-eabi/include/c++/10.3.1/bits/stl_pair.h **** 
 389:/Library/DaisyToolchain/0.2.0/arm/arm-none-eabi/include/c++/10.3.1/bits/stl_pair.h ****       _GLIBCXX20_CONSTEXPR pair&
 390:/Library/DaisyToolchain/0.2.0/arm/arm-none-eabi/include/c++/10.3.1/bits/stl_pair.h ****       operator=(typename conditional<
 391:/Library/DaisyToolchain/0.2.0/arm/arm-none-eabi/include/c++/10.3.1/bits/stl_pair.h **** 		__and_<is_copy_assignable<_T1>,
 392:/Library/DaisyToolchain/0.2.0/arm/arm-none-eabi/include/c++/10.3.1/bits/stl_pair.h **** 		       is_copy_assignable<_T2>>::value,
 393:/Library/DaisyToolchain/0.2.0/arm/arm-none-eabi/include/c++/10.3.1/bits/stl_pair.h **** 		const pair&, const __nonesuch&>::type __p)
 394:/Library/DaisyToolchain/0.2.0/arm/arm-none-eabi/include/c++/10.3.1/bits/stl_pair.h ****       {
 395:/Library/DaisyToolchain/0.2.0/arm/arm-none-eabi/include/c++/10.3.1/bits/stl_pair.h **** 	first = __p.first;
 396:/Library/DaisyToolchain/0.2.0/arm/arm-none-eabi/include/c++/10.3.1/bits/stl_pair.h **** 	second = __p.second;
 397:/Library/DaisyToolchain/0.2.0/arm/arm-none-eabi/include/c++/10.3.1/bits/stl_pair.h **** 	return *this;
 398:/Library/DaisyToolchain/0.2.0/arm/arm-none-eabi/include/c++/10.3.1/bits/stl_pair.h ****       }
 399:/Library/DaisyToolchain/0.2.0/arm/arm-none-eabi/include/c++/10.3.1/bits/stl_pair.h **** 
 400:/Library/DaisyToolchain/0.2.0/arm/arm-none-eabi/include/c++/10.3.1/bits/stl_pair.h ****       _GLIBCXX20_CONSTEXPR pair&
 401:/Library/DaisyToolchain/0.2.0/arm/arm-none-eabi/include/c++/10.3.1/bits/stl_pair.h ****       operator=(typename conditional<
 402:/Library/DaisyToolchain/0.2.0/arm/arm-none-eabi/include/c++/10.3.1/bits/stl_pair.h **** 		__and_<is_move_assignable<_T1>,
 403:/Library/DaisyToolchain/0.2.0/arm/arm-none-eabi/include/c++/10.3.1/bits/stl_pair.h **** 		       is_move_assignable<_T2>>::value,
 404:/Library/DaisyToolchain/0.2.0/arm/arm-none-eabi/include/c++/10.3.1/bits/stl_pair.h **** 		pair&&, __nonesuch&&>::type __p)
 405:/Library/DaisyToolchain/0.2.0/arm/arm-none-eabi/include/c++/10.3.1/bits/stl_pair.h ****       noexcept(__and_<is_nothrow_move_assignable<_T1>,
 406:/Library/DaisyToolchain/0.2.0/arm/arm-none-eabi/include/c++/10.3.1/bits/stl_pair.h **** 		      is_nothrow_move_assignable<_T2>>::value)
 407:/Library/DaisyToolchain/0.2.0/arm/arm-none-eabi/include/c++/10.3.1/bits/stl_pair.h ****       {
 408:/Library/DaisyToolchain/0.2.0/arm/arm-none-eabi/include/c++/10.3.1/bits/stl_pair.h **** 	first = std::forward<first_type>(__p.first);
 409:/Library/DaisyToolchain/0.2.0/arm/arm-none-eabi/include/c++/10.3.1/bits/stl_pair.h **** 	second = std::forward<second_type>(__p.second);
 410:/Library/DaisyToolchain/0.2.0/arm/arm-none-eabi/include/c++/10.3.1/bits/stl_pair.h **** 	return *this;
 411:/Library/DaisyToolchain/0.2.0/arm/arm-none-eabi/include/c++/10.3.1/bits/stl_pair.h ****       }
 412:/Library/DaisyToolchain/0.2.0/arm/arm-none-eabi/include/c++/10.3.1/bits/stl_pair.h **** 
 413:/Library/DaisyToolchain/0.2.0/arm/arm-none-eabi/include/c++/10.3.1/bits/stl_pair.h ****       template<typename _U1, typename _U2>
 414:/Library/DaisyToolchain/0.2.0/arm/arm-none-eabi/include/c++/10.3.1/bits/stl_pair.h **** 	_GLIBCXX20_CONSTEXPR
 415:/Library/DaisyToolchain/0.2.0/arm/arm-none-eabi/include/c++/10.3.1/bits/stl_pair.h **** 	typename enable_if<__and_<is_assignable<_T1&, const _U1&>,
 416:/Library/DaisyToolchain/0.2.0/arm/arm-none-eabi/include/c++/10.3.1/bits/stl_pair.h **** 				  is_assignable<_T2&, const _U2&>>::value,
 417:/Library/DaisyToolchain/0.2.0/arm/arm-none-eabi/include/c++/10.3.1/bits/stl_pair.h **** 			   pair&>::type
 418:/Library/DaisyToolchain/0.2.0/arm/arm-none-eabi/include/c++/10.3.1/bits/stl_pair.h **** 	operator=(const pair<_U1, _U2>& __p)
 419:/Library/DaisyToolchain/0.2.0/arm/arm-none-eabi/include/c++/10.3.1/bits/stl_pair.h **** 	{
 420:/Library/DaisyToolchain/0.2.0/arm/arm-none-eabi/include/c++/10.3.1/bits/stl_pair.h **** 	  first = __p.first;
 421:/Library/DaisyToolchain/0.2.0/arm/arm-none-eabi/include/c++/10.3.1/bits/stl_pair.h **** 	  second = __p.second;
 422:/Library/DaisyToolchain/0.2.0/arm/arm-none-eabi/include/c++/10.3.1/bits/stl_pair.h **** 	  return *this;
 423:/Library/DaisyToolchain/0.2.0/arm/arm-none-eabi/include/c++/10.3.1/bits/stl_pair.h **** 	}
 424:/Library/DaisyToolchain/0.2.0/arm/arm-none-eabi/include/c++/10.3.1/bits/stl_pair.h **** 
 425:/Library/DaisyToolchain/0.2.0/arm/arm-none-eabi/include/c++/10.3.1/bits/stl_pair.h ****       template<typename _U1, typename _U2>
 426:/Library/DaisyToolchain/0.2.0/arm/arm-none-eabi/include/c++/10.3.1/bits/stl_pair.h **** 	_GLIBCXX20_CONSTEXPR
 427:/Library/DaisyToolchain/0.2.0/arm/arm-none-eabi/include/c++/10.3.1/bits/stl_pair.h **** 	typename enable_if<__and_<is_assignable<_T1&, _U1&&>,
ARM GAS  /var/folders/hl/qgbwny5j0fd895c2c41bk3tw0000gp/T//cc1L1gWC.s 			page 95


 428:/Library/DaisyToolchain/0.2.0/arm/arm-none-eabi/include/c++/10.3.1/bits/stl_pair.h **** 				  is_assignable<_T2&, _U2&&>>::value,
 429:/Library/DaisyToolchain/0.2.0/arm/arm-none-eabi/include/c++/10.3.1/bits/stl_pair.h **** 			   pair&>::type
 430:/Library/DaisyToolchain/0.2.0/arm/arm-none-eabi/include/c++/10.3.1/bits/stl_pair.h **** 	operator=(pair<_U1, _U2>&& __p)
 431:/Library/DaisyToolchain/0.2.0/arm/arm-none-eabi/include/c++/10.3.1/bits/stl_pair.h **** 	{
 432:/Library/DaisyToolchain/0.2.0/arm/arm-none-eabi/include/c++/10.3.1/bits/stl_pair.h **** 	  first = std::forward<_U1>(__p.first);
 433:/Library/DaisyToolchain/0.2.0/arm/arm-none-eabi/include/c++/10.3.1/bits/stl_pair.h **** 	  second = std::forward<_U2>(__p.second);
 434:/Library/DaisyToolchain/0.2.0/arm/arm-none-eabi/include/c++/10.3.1/bits/stl_pair.h **** 	  return *this;
 435:/Library/DaisyToolchain/0.2.0/arm/arm-none-eabi/include/c++/10.3.1/bits/stl_pair.h **** 	}
 436:/Library/DaisyToolchain/0.2.0/arm/arm-none-eabi/include/c++/10.3.1/bits/stl_pair.h **** 
 437:/Library/DaisyToolchain/0.2.0/arm/arm-none-eabi/include/c++/10.3.1/bits/stl_pair.h ****       /// Swap the first members and then the second members.
 438:/Library/DaisyToolchain/0.2.0/arm/arm-none-eabi/include/c++/10.3.1/bits/stl_pair.h ****       _GLIBCXX20_CONSTEXPR void
 439:/Library/DaisyToolchain/0.2.0/arm/arm-none-eabi/include/c++/10.3.1/bits/stl_pair.h ****       swap(pair& __p)
 440:/Library/DaisyToolchain/0.2.0/arm/arm-none-eabi/include/c++/10.3.1/bits/stl_pair.h ****       noexcept(__and_<__is_nothrow_swappable<_T1>,
 441:/Library/DaisyToolchain/0.2.0/arm/arm-none-eabi/include/c++/10.3.1/bits/stl_pair.h ****                       __is_nothrow_swappable<_T2>>::value)
 442:/Library/DaisyToolchain/0.2.0/arm/arm-none-eabi/include/c++/10.3.1/bits/stl_pair.h ****       {
 443:/Library/DaisyToolchain/0.2.0/arm/arm-none-eabi/include/c++/10.3.1/bits/stl_pair.h **** 	using std::swap;
 444:/Library/DaisyToolchain/0.2.0/arm/arm-none-eabi/include/c++/10.3.1/bits/stl_pair.h **** 	swap(first, __p.first);
 445:/Library/DaisyToolchain/0.2.0/arm/arm-none-eabi/include/c++/10.3.1/bits/stl_pair.h **** 	swap(second, __p.second);
 446:/Library/DaisyToolchain/0.2.0/arm/arm-none-eabi/include/c++/10.3.1/bits/stl_pair.h ****       }
 447:/Library/DaisyToolchain/0.2.0/arm/arm-none-eabi/include/c++/10.3.1/bits/stl_pair.h **** 
 448:/Library/DaisyToolchain/0.2.0/arm/arm-none-eabi/include/c++/10.3.1/bits/stl_pair.h ****     private:
 449:/Library/DaisyToolchain/0.2.0/arm/arm-none-eabi/include/c++/10.3.1/bits/stl_pair.h ****       template<typename... _Args1, std::size_t... _Indexes1,
 450:/Library/DaisyToolchain/0.2.0/arm/arm-none-eabi/include/c++/10.3.1/bits/stl_pair.h ****                typename... _Args2, std::size_t... _Indexes2>
 451:/Library/DaisyToolchain/0.2.0/arm/arm-none-eabi/include/c++/10.3.1/bits/stl_pair.h **** 	_GLIBCXX20_CONSTEXPR
 452:/Library/DaisyToolchain/0.2.0/arm/arm-none-eabi/include/c++/10.3.1/bits/stl_pair.h ****         pair(tuple<_Args1...>&, tuple<_Args2...>&,
 453:/Library/DaisyToolchain/0.2.0/arm/arm-none-eabi/include/c++/10.3.1/bits/stl_pair.h ****              _Index_tuple<_Indexes1...>, _Index_tuple<_Indexes2...>);
 454:/Library/DaisyToolchain/0.2.0/arm/arm-none-eabi/include/c++/10.3.1/bits/stl_pair.h **** #endif // C++11
 455:/Library/DaisyToolchain/0.2.0/arm/arm-none-eabi/include/c++/10.3.1/bits/stl_pair.h ****     };
 456:/Library/DaisyToolchain/0.2.0/arm/arm-none-eabi/include/c++/10.3.1/bits/stl_pair.h **** 
 457:/Library/DaisyToolchain/0.2.0/arm/arm-none-eabi/include/c++/10.3.1/bits/stl_pair.h ****   /// @relates pair @{
 458:/Library/DaisyToolchain/0.2.0/arm/arm-none-eabi/include/c++/10.3.1/bits/stl_pair.h **** 
 459:/Library/DaisyToolchain/0.2.0/arm/arm-none-eabi/include/c++/10.3.1/bits/stl_pair.h **** #if __cpp_deduction_guides >= 201606
 460:/Library/DaisyToolchain/0.2.0/arm/arm-none-eabi/include/c++/10.3.1/bits/stl_pair.h ****   template<typename _T1, typename _T2> pair(_T1, _T2) -> pair<_T1, _T2>;
 461:/Library/DaisyToolchain/0.2.0/arm/arm-none-eabi/include/c++/10.3.1/bits/stl_pair.h **** #endif
 462:/Library/DaisyToolchain/0.2.0/arm/arm-none-eabi/include/c++/10.3.1/bits/stl_pair.h **** 
 463:/Library/DaisyToolchain/0.2.0/arm/arm-none-eabi/include/c++/10.3.1/bits/stl_pair.h ****   /// Two pairs of the same type are equal iff their members are equal.
 464:/Library/DaisyToolchain/0.2.0/arm/arm-none-eabi/include/c++/10.3.1/bits/stl_pair.h ****   template<typename _T1, typename _T2>
 465:/Library/DaisyToolchain/0.2.0/arm/arm-none-eabi/include/c++/10.3.1/bits/stl_pair.h ****     inline _GLIBCXX_CONSTEXPR bool
 466:/Library/DaisyToolchain/0.2.0/arm/arm-none-eabi/include/c++/10.3.1/bits/stl_pair.h ****     operator==(const pair<_T1, _T2>& __x, const pair<_T1, _T2>& __y)
 467:/Library/DaisyToolchain/0.2.0/arm/arm-none-eabi/include/c++/10.3.1/bits/stl_pair.h ****     { return __x.first == __y.first && __x.second == __y.second; }
 468:/Library/DaisyToolchain/0.2.0/arm/arm-none-eabi/include/c++/10.3.1/bits/stl_pair.h **** 
 469:/Library/DaisyToolchain/0.2.0/arm/arm-none-eabi/include/c++/10.3.1/bits/stl_pair.h **** #if __cpp_lib_three_way_comparison && __cpp_lib_concepts
 470:/Library/DaisyToolchain/0.2.0/arm/arm-none-eabi/include/c++/10.3.1/bits/stl_pair.h ****   template<typename _T1, typename _T2>
 471:/Library/DaisyToolchain/0.2.0/arm/arm-none-eabi/include/c++/10.3.1/bits/stl_pair.h ****     constexpr common_comparison_category_t<__detail::__synth3way_t<_T1>,
 472:/Library/DaisyToolchain/0.2.0/arm/arm-none-eabi/include/c++/10.3.1/bits/stl_pair.h **** 					   __detail::__synth3way_t<_T2>>
 473:/Library/DaisyToolchain/0.2.0/arm/arm-none-eabi/include/c++/10.3.1/bits/stl_pair.h ****     operator<=>(const pair<_T1, _T2>& __x, const pair<_T1, _T2>& __y)
 474:/Library/DaisyToolchain/0.2.0/arm/arm-none-eabi/include/c++/10.3.1/bits/stl_pair.h ****     {
 475:/Library/DaisyToolchain/0.2.0/arm/arm-none-eabi/include/c++/10.3.1/bits/stl_pair.h ****       if (auto __c = __detail::__synth3way(__x.first, __y.first); __c != 0)
 476:/Library/DaisyToolchain/0.2.0/arm/arm-none-eabi/include/c++/10.3.1/bits/stl_pair.h **** 	return __c;
 477:/Library/DaisyToolchain/0.2.0/arm/arm-none-eabi/include/c++/10.3.1/bits/stl_pair.h ****       return __detail::__synth3way(__x.second, __y.second);
 478:/Library/DaisyToolchain/0.2.0/arm/arm-none-eabi/include/c++/10.3.1/bits/stl_pair.h ****     }
 479:/Library/DaisyToolchain/0.2.0/arm/arm-none-eabi/include/c++/10.3.1/bits/stl_pair.h **** #else
 480:/Library/DaisyToolchain/0.2.0/arm/arm-none-eabi/include/c++/10.3.1/bits/stl_pair.h ****   /** Defines a lexicographical order for pairs.
 481:/Library/DaisyToolchain/0.2.0/arm/arm-none-eabi/include/c++/10.3.1/bits/stl_pair.h ****    *
 482:/Library/DaisyToolchain/0.2.0/arm/arm-none-eabi/include/c++/10.3.1/bits/stl_pair.h ****    * For two pairs of the same type, `P` is ordered before `Q` if
 483:/Library/DaisyToolchain/0.2.0/arm/arm-none-eabi/include/c++/10.3.1/bits/stl_pair.h ****    * `P.first` is less than `Q.first`, or if `P.first` and `Q.first`
 484:/Library/DaisyToolchain/0.2.0/arm/arm-none-eabi/include/c++/10.3.1/bits/stl_pair.h ****    * are equivalent (neither is less than the other) and `P.second` is less
ARM GAS  /var/folders/hl/qgbwny5j0fd895c2c41bk3tw0000gp/T//cc1L1gWC.s 			page 96


 485:/Library/DaisyToolchain/0.2.0/arm/arm-none-eabi/include/c++/10.3.1/bits/stl_pair.h ****    * than `Q.second`.
 486:/Library/DaisyToolchain/0.2.0/arm/arm-none-eabi/include/c++/10.3.1/bits/stl_pair.h ****   */
 487:/Library/DaisyToolchain/0.2.0/arm/arm-none-eabi/include/c++/10.3.1/bits/stl_pair.h ****   template<typename _T1, typename _T2>
 488:/Library/DaisyToolchain/0.2.0/arm/arm-none-eabi/include/c++/10.3.1/bits/stl_pair.h ****     inline _GLIBCXX_CONSTEXPR bool
 489:/Library/DaisyToolchain/0.2.0/arm/arm-none-eabi/include/c++/10.3.1/bits/stl_pair.h ****     operator<(const pair<_T1, _T2>& __x, const pair<_T1, _T2>& __y)
 490:/Library/DaisyToolchain/0.2.0/arm/arm-none-eabi/include/c++/10.3.1/bits/stl_pair.h ****     { return __x.first < __y.first
 491:/Library/DaisyToolchain/0.2.0/arm/arm-none-eabi/include/c++/10.3.1/bits/stl_pair.h **** 	     || (!(__y.first < __x.first) && __x.second < __y.second); }
 492:/Library/DaisyToolchain/0.2.0/arm/arm-none-eabi/include/c++/10.3.1/bits/stl_pair.h **** 
 493:/Library/DaisyToolchain/0.2.0/arm/arm-none-eabi/include/c++/10.3.1/bits/stl_pair.h ****   /// Uses @c operator== to find the result.
 494:/Library/DaisyToolchain/0.2.0/arm/arm-none-eabi/include/c++/10.3.1/bits/stl_pair.h ****   template<typename _T1, typename _T2>
 495:/Library/DaisyToolchain/0.2.0/arm/arm-none-eabi/include/c++/10.3.1/bits/stl_pair.h ****     inline _GLIBCXX_CONSTEXPR bool
 496:/Library/DaisyToolchain/0.2.0/arm/arm-none-eabi/include/c++/10.3.1/bits/stl_pair.h ****     operator!=(const pair<_T1, _T2>& __x, const pair<_T1, _T2>& __y)
 497:/Library/DaisyToolchain/0.2.0/arm/arm-none-eabi/include/c++/10.3.1/bits/stl_pair.h ****     { return !(__x == __y); }
 498:/Library/DaisyToolchain/0.2.0/arm/arm-none-eabi/include/c++/10.3.1/bits/stl_pair.h **** 
 499:/Library/DaisyToolchain/0.2.0/arm/arm-none-eabi/include/c++/10.3.1/bits/stl_pair.h ****   /// Uses @c operator< to find the result.
 500:/Library/DaisyToolchain/0.2.0/arm/arm-none-eabi/include/c++/10.3.1/bits/stl_pair.h ****   template<typename _T1, typename _T2>
 501:/Library/DaisyToolchain/0.2.0/arm/arm-none-eabi/include/c++/10.3.1/bits/stl_pair.h ****     inline _GLIBCXX_CONSTEXPR bool
 502:/Library/DaisyToolchain/0.2.0/arm/arm-none-eabi/include/c++/10.3.1/bits/stl_pair.h ****     operator>(const pair<_T1, _T2>& __x, const pair<_T1, _T2>& __y)
 503:/Library/DaisyToolchain/0.2.0/arm/arm-none-eabi/include/c++/10.3.1/bits/stl_pair.h ****     { return __y < __x; }
 504:/Library/DaisyToolchain/0.2.0/arm/arm-none-eabi/include/c++/10.3.1/bits/stl_pair.h **** 
 505:/Library/DaisyToolchain/0.2.0/arm/arm-none-eabi/include/c++/10.3.1/bits/stl_pair.h ****   /// Uses @c operator< to find the result.
 506:/Library/DaisyToolchain/0.2.0/arm/arm-none-eabi/include/c++/10.3.1/bits/stl_pair.h ****   template<typename _T1, typename _T2>
 507:/Library/DaisyToolchain/0.2.0/arm/arm-none-eabi/include/c++/10.3.1/bits/stl_pair.h ****     inline _GLIBCXX_CONSTEXPR bool
 508:/Library/DaisyToolchain/0.2.0/arm/arm-none-eabi/include/c++/10.3.1/bits/stl_pair.h ****     operator<=(const pair<_T1, _T2>& __x, const pair<_T1, _T2>& __y)
 509:/Library/DaisyToolchain/0.2.0/arm/arm-none-eabi/include/c++/10.3.1/bits/stl_pair.h ****     { return !(__y < __x); }
 510:/Library/DaisyToolchain/0.2.0/arm/arm-none-eabi/include/c++/10.3.1/bits/stl_pair.h **** 
 511:/Library/DaisyToolchain/0.2.0/arm/arm-none-eabi/include/c++/10.3.1/bits/stl_pair.h ****   /// Uses @c operator< to find the result.
 512:/Library/DaisyToolchain/0.2.0/arm/arm-none-eabi/include/c++/10.3.1/bits/stl_pair.h ****   template<typename _T1, typename _T2>
 513:/Library/DaisyToolchain/0.2.0/arm/arm-none-eabi/include/c++/10.3.1/bits/stl_pair.h ****     inline _GLIBCXX_CONSTEXPR bool
 514:/Library/DaisyToolchain/0.2.0/arm/arm-none-eabi/include/c++/10.3.1/bits/stl_pair.h ****     operator>=(const pair<_T1, _T2>& __x, const pair<_T1, _T2>& __y)
 515:/Library/DaisyToolchain/0.2.0/arm/arm-none-eabi/include/c++/10.3.1/bits/stl_pair.h ****     { return !(__x < __y); }
 516:/Library/DaisyToolchain/0.2.0/arm/arm-none-eabi/include/c++/10.3.1/bits/stl_pair.h **** #endif // !(three_way_comparison && concepts)
 517:/Library/DaisyToolchain/0.2.0/arm/arm-none-eabi/include/c++/10.3.1/bits/stl_pair.h **** 
 518:/Library/DaisyToolchain/0.2.0/arm/arm-none-eabi/include/c++/10.3.1/bits/stl_pair.h **** #if __cplusplus >= 201103L
 519:/Library/DaisyToolchain/0.2.0/arm/arm-none-eabi/include/c++/10.3.1/bits/stl_pair.h ****   /** Swap overload for pairs. Calls std::pair::swap().
 520:/Library/DaisyToolchain/0.2.0/arm/arm-none-eabi/include/c++/10.3.1/bits/stl_pair.h ****    *
 521:/Library/DaisyToolchain/0.2.0/arm/arm-none-eabi/include/c++/10.3.1/bits/stl_pair.h ****    * @note This std::swap overload is not declared in C++03 mode,
 522:/Library/DaisyToolchain/0.2.0/arm/arm-none-eabi/include/c++/10.3.1/bits/stl_pair.h ****    * which has performance implications, e.g. see https://gcc.gnu.org/PR38466
 523:/Library/DaisyToolchain/0.2.0/arm/arm-none-eabi/include/c++/10.3.1/bits/stl_pair.h ****   */
 524:/Library/DaisyToolchain/0.2.0/arm/arm-none-eabi/include/c++/10.3.1/bits/stl_pair.h ****   template<typename _T1, typename _T2>
 525:/Library/DaisyToolchain/0.2.0/arm/arm-none-eabi/include/c++/10.3.1/bits/stl_pair.h ****     _GLIBCXX20_CONSTEXPR inline
 526:/Library/DaisyToolchain/0.2.0/arm/arm-none-eabi/include/c++/10.3.1/bits/stl_pair.h **** #if __cplusplus > 201402L || !defined(__STRICT_ANSI__) // c++1z or gnu++11
 527:/Library/DaisyToolchain/0.2.0/arm/arm-none-eabi/include/c++/10.3.1/bits/stl_pair.h ****     // Constrained free swap overload, see p0185r1
 528:/Library/DaisyToolchain/0.2.0/arm/arm-none-eabi/include/c++/10.3.1/bits/stl_pair.h ****     typename enable_if<__and_<__is_swappable<_T1>,
 529:/Library/DaisyToolchain/0.2.0/arm/arm-none-eabi/include/c++/10.3.1/bits/stl_pair.h ****                               __is_swappable<_T2>>::value>::type
 530:/Library/DaisyToolchain/0.2.0/arm/arm-none-eabi/include/c++/10.3.1/bits/stl_pair.h **** #else
 531:/Library/DaisyToolchain/0.2.0/arm/arm-none-eabi/include/c++/10.3.1/bits/stl_pair.h ****     void
 532:/Library/DaisyToolchain/0.2.0/arm/arm-none-eabi/include/c++/10.3.1/bits/stl_pair.h **** #endif
 533:/Library/DaisyToolchain/0.2.0/arm/arm-none-eabi/include/c++/10.3.1/bits/stl_pair.h ****     swap(pair<_T1, _T2>& __x, pair<_T1, _T2>& __y)
 534:/Library/DaisyToolchain/0.2.0/arm/arm-none-eabi/include/c++/10.3.1/bits/stl_pair.h ****     noexcept(noexcept(__x.swap(__y)))
 535:/Library/DaisyToolchain/0.2.0/arm/arm-none-eabi/include/c++/10.3.1/bits/stl_pair.h ****     { __x.swap(__y); }
 536:/Library/DaisyToolchain/0.2.0/arm/arm-none-eabi/include/c++/10.3.1/bits/stl_pair.h **** 
 537:/Library/DaisyToolchain/0.2.0/arm/arm-none-eabi/include/c++/10.3.1/bits/stl_pair.h **** #if __cplusplus > 201402L || !defined(__STRICT_ANSI__) // c++1z or gnu++11
 538:/Library/DaisyToolchain/0.2.0/arm/arm-none-eabi/include/c++/10.3.1/bits/stl_pair.h ****   template<typename _T1, typename _T2>
 539:/Library/DaisyToolchain/0.2.0/arm/arm-none-eabi/include/c++/10.3.1/bits/stl_pair.h ****     typename enable_if<!__and_<__is_swappable<_T1>,
 540:/Library/DaisyToolchain/0.2.0/arm/arm-none-eabi/include/c++/10.3.1/bits/stl_pair.h **** 			       __is_swappable<_T2>>::value>::type
 541:/Library/DaisyToolchain/0.2.0/arm/arm-none-eabi/include/c++/10.3.1/bits/stl_pair.h ****     swap(pair<_T1, _T2>&, pair<_T1, _T2>&) = delete;
ARM GAS  /var/folders/hl/qgbwny5j0fd895c2c41bk3tw0000gp/T//cc1L1gWC.s 			page 97


 542:/Library/DaisyToolchain/0.2.0/arm/arm-none-eabi/include/c++/10.3.1/bits/stl_pair.h **** #endif
 543:/Library/DaisyToolchain/0.2.0/arm/arm-none-eabi/include/c++/10.3.1/bits/stl_pair.h **** #endif // __cplusplus >= 201103L
 544:/Library/DaisyToolchain/0.2.0/arm/arm-none-eabi/include/c++/10.3.1/bits/stl_pair.h **** 
 545:/Library/DaisyToolchain/0.2.0/arm/arm-none-eabi/include/c++/10.3.1/bits/stl_pair.h ****   /// @} relates pair
 546:/Library/DaisyToolchain/0.2.0/arm/arm-none-eabi/include/c++/10.3.1/bits/stl_pair.h **** 
 547:/Library/DaisyToolchain/0.2.0/arm/arm-none-eabi/include/c++/10.3.1/bits/stl_pair.h ****   /**
 548:/Library/DaisyToolchain/0.2.0/arm/arm-none-eabi/include/c++/10.3.1/bits/stl_pair.h ****    *  @brief A convenience wrapper for creating a pair from two objects.
 549:/Library/DaisyToolchain/0.2.0/arm/arm-none-eabi/include/c++/10.3.1/bits/stl_pair.h ****    *  @param  __x  The first object.
 550:/Library/DaisyToolchain/0.2.0/arm/arm-none-eabi/include/c++/10.3.1/bits/stl_pair.h ****    *  @param  __y  The second object.
 551:/Library/DaisyToolchain/0.2.0/arm/arm-none-eabi/include/c++/10.3.1/bits/stl_pair.h ****    *  @return   A newly-constructed pair<> object of the appropriate type.
 552:/Library/DaisyToolchain/0.2.0/arm/arm-none-eabi/include/c++/10.3.1/bits/stl_pair.h ****    *
 553:/Library/DaisyToolchain/0.2.0/arm/arm-none-eabi/include/c++/10.3.1/bits/stl_pair.h ****    *  The C++98 standard says the objects are passed by reference-to-const,
 554:/Library/DaisyToolchain/0.2.0/arm/arm-none-eabi/include/c++/10.3.1/bits/stl_pair.h ****    *  but C++03 says they are passed by value (this was LWG issue #181).
 555:/Library/DaisyToolchain/0.2.0/arm/arm-none-eabi/include/c++/10.3.1/bits/stl_pair.h ****    *
 556:/Library/DaisyToolchain/0.2.0/arm/arm-none-eabi/include/c++/10.3.1/bits/stl_pair.h ****    *  Since C++11 they have been passed by forwarding reference and then
 557:/Library/DaisyToolchain/0.2.0/arm/arm-none-eabi/include/c++/10.3.1/bits/stl_pair.h ****    *  forwarded to the new members of the pair. To create a pair with a
 558:/Library/DaisyToolchain/0.2.0/arm/arm-none-eabi/include/c++/10.3.1/bits/stl_pair.h ****    *  member of reference type, pass a `reference_wrapper` to this function.
 559:/Library/DaisyToolchain/0.2.0/arm/arm-none-eabi/include/c++/10.3.1/bits/stl_pair.h ****    */
 560:/Library/DaisyToolchain/0.2.0/arm/arm-none-eabi/include/c++/10.3.1/bits/stl_pair.h ****   // _GLIBCXX_RESOLVE_LIB_DEFECTS
 561:/Library/DaisyToolchain/0.2.0/arm/arm-none-eabi/include/c++/10.3.1/bits/stl_pair.h ****   // 181.  make_pair() unintended behavior
 562:/Library/DaisyToolchain/0.2.0/arm/arm-none-eabi/include/c++/10.3.1/bits/stl_pair.h **** #if __cplusplus >= 201103L
 563:/Library/DaisyToolchain/0.2.0/arm/arm-none-eabi/include/c++/10.3.1/bits/stl_pair.h ****   // NB: DR 706.
 564:/Library/DaisyToolchain/0.2.0/arm/arm-none-eabi/include/c++/10.3.1/bits/stl_pair.h ****   template<typename _T1, typename _T2>
 565:/Library/DaisyToolchain/0.2.0/arm/arm-none-eabi/include/c++/10.3.1/bits/stl_pair.h ****     constexpr pair<typename __decay_and_strip<_T1>::__type,
 566:/Library/DaisyToolchain/0.2.0/arm/arm-none-eabi/include/c++/10.3.1/bits/stl_pair.h ****                    typename __decay_and_strip<_T2>::__type>
 567:/Library/DaisyToolchain/0.2.0/arm/arm-none-eabi/include/c++/10.3.1/bits/stl_pair.h ****     make_pair(_T1&& __x, _T2&& __y)
 1960              		.loc 16 567 5 view .LVU564
 1961              	.LBB812:
 1962              	.LBB813:
 1963              	.LBI813:
 352:/Library/DaisyToolchain/0.2.0/arm/arm-none-eabi/include/c++/10.3.1/bits/stl_pair.h **** 	: first(std::forward<_U1>(__x)), second(std::forward<_U2>(__y)) { }
 1964              		.loc 16 352 12 view .LVU565
 1965              	.LBB814:
 1966              	.LBI814:
 1967              		.file 17 "/Library/DaisyToolchain/0.2.0/arm/arm-none-eabi/include/c++/10.3.1/bits/move.h"
   1:/Library/DaisyToolchain/0.2.0/arm/arm-none-eabi/include/c++/10.3.1/bits/move.h **** // Move, forward and identity for C++11 + swap -*- C++ -*-
   2:/Library/DaisyToolchain/0.2.0/arm/arm-none-eabi/include/c++/10.3.1/bits/move.h **** 
   3:/Library/DaisyToolchain/0.2.0/arm/arm-none-eabi/include/c++/10.3.1/bits/move.h **** // Copyright (C) 2007-2020 Free Software Foundation, Inc.
   4:/Library/DaisyToolchain/0.2.0/arm/arm-none-eabi/include/c++/10.3.1/bits/move.h **** //
   5:/Library/DaisyToolchain/0.2.0/arm/arm-none-eabi/include/c++/10.3.1/bits/move.h **** // This file is part of the GNU ISO C++ Library.  This library is free
   6:/Library/DaisyToolchain/0.2.0/arm/arm-none-eabi/include/c++/10.3.1/bits/move.h **** // software; you can redistribute it and/or modify it under the
   7:/Library/DaisyToolchain/0.2.0/arm/arm-none-eabi/include/c++/10.3.1/bits/move.h **** // terms of the GNU General Public License as published by the
   8:/Library/DaisyToolchain/0.2.0/arm/arm-none-eabi/include/c++/10.3.1/bits/move.h **** // Free Software Foundation; either version 3, or (at your option)
   9:/Library/DaisyToolchain/0.2.0/arm/arm-none-eabi/include/c++/10.3.1/bits/move.h **** // any later version.
  10:/Library/DaisyToolchain/0.2.0/arm/arm-none-eabi/include/c++/10.3.1/bits/move.h **** 
  11:/Library/DaisyToolchain/0.2.0/arm/arm-none-eabi/include/c++/10.3.1/bits/move.h **** // This library is distributed in the hope that it will be useful,
  12:/Library/DaisyToolchain/0.2.0/arm/arm-none-eabi/include/c++/10.3.1/bits/move.h **** // but WITHOUT ANY WARRANTY; without even the implied warranty of
  13:/Library/DaisyToolchain/0.2.0/arm/arm-none-eabi/include/c++/10.3.1/bits/move.h **** // MERCHANTABILITY or FITNESS FOR A PARTICULAR PURPOSE.  See the
  14:/Library/DaisyToolchain/0.2.0/arm/arm-none-eabi/include/c++/10.3.1/bits/move.h **** // GNU General Public License for more details.
  15:/Library/DaisyToolchain/0.2.0/arm/arm-none-eabi/include/c++/10.3.1/bits/move.h **** 
  16:/Library/DaisyToolchain/0.2.0/arm/arm-none-eabi/include/c++/10.3.1/bits/move.h **** // Under Section 7 of GPL version 3, you are granted additional
  17:/Library/DaisyToolchain/0.2.0/arm/arm-none-eabi/include/c++/10.3.1/bits/move.h **** // permissions described in the GCC Runtime Library Exception, version
  18:/Library/DaisyToolchain/0.2.0/arm/arm-none-eabi/include/c++/10.3.1/bits/move.h **** // 3.1, as published by the Free Software Foundation.
  19:/Library/DaisyToolchain/0.2.0/arm/arm-none-eabi/include/c++/10.3.1/bits/move.h **** 
  20:/Library/DaisyToolchain/0.2.0/arm/arm-none-eabi/include/c++/10.3.1/bits/move.h **** // You should have received a copy of the GNU General Public License and
  21:/Library/DaisyToolchain/0.2.0/arm/arm-none-eabi/include/c++/10.3.1/bits/move.h **** // a copy of the GCC Runtime Library Exception along with this program;
  22:/Library/DaisyToolchain/0.2.0/arm/arm-none-eabi/include/c++/10.3.1/bits/move.h **** // see the files COPYING3 and COPYING.RUNTIME respectively.  If not, see
ARM GAS  /var/folders/hl/qgbwny5j0fd895c2c41bk3tw0000gp/T//cc1L1gWC.s 			page 98


  23:/Library/DaisyToolchain/0.2.0/arm/arm-none-eabi/include/c++/10.3.1/bits/move.h **** // <http://www.gnu.org/licenses/>.
  24:/Library/DaisyToolchain/0.2.0/arm/arm-none-eabi/include/c++/10.3.1/bits/move.h **** 
  25:/Library/DaisyToolchain/0.2.0/arm/arm-none-eabi/include/c++/10.3.1/bits/move.h **** /** @file bits/move.h
  26:/Library/DaisyToolchain/0.2.0/arm/arm-none-eabi/include/c++/10.3.1/bits/move.h ****  *  This is an internal header file, included by other library headers.
  27:/Library/DaisyToolchain/0.2.0/arm/arm-none-eabi/include/c++/10.3.1/bits/move.h ****  *  Do not attempt to use it directly. @headername{utility}
  28:/Library/DaisyToolchain/0.2.0/arm/arm-none-eabi/include/c++/10.3.1/bits/move.h ****  */
  29:/Library/DaisyToolchain/0.2.0/arm/arm-none-eabi/include/c++/10.3.1/bits/move.h **** 
  30:/Library/DaisyToolchain/0.2.0/arm/arm-none-eabi/include/c++/10.3.1/bits/move.h **** #ifndef _MOVE_H
  31:/Library/DaisyToolchain/0.2.0/arm/arm-none-eabi/include/c++/10.3.1/bits/move.h **** #define _MOVE_H 1
  32:/Library/DaisyToolchain/0.2.0/arm/arm-none-eabi/include/c++/10.3.1/bits/move.h **** 
  33:/Library/DaisyToolchain/0.2.0/arm/arm-none-eabi/include/c++/10.3.1/bits/move.h **** #include <bits/c++config.h>
  34:/Library/DaisyToolchain/0.2.0/arm/arm-none-eabi/include/c++/10.3.1/bits/move.h **** #if __cplusplus < 201103L
  35:/Library/DaisyToolchain/0.2.0/arm/arm-none-eabi/include/c++/10.3.1/bits/move.h **** # include <bits/concept_check.h>
  36:/Library/DaisyToolchain/0.2.0/arm/arm-none-eabi/include/c++/10.3.1/bits/move.h **** #endif
  37:/Library/DaisyToolchain/0.2.0/arm/arm-none-eabi/include/c++/10.3.1/bits/move.h **** 
  38:/Library/DaisyToolchain/0.2.0/arm/arm-none-eabi/include/c++/10.3.1/bits/move.h **** namespace std _GLIBCXX_VISIBILITY(default)
  39:/Library/DaisyToolchain/0.2.0/arm/arm-none-eabi/include/c++/10.3.1/bits/move.h **** {
  40:/Library/DaisyToolchain/0.2.0/arm/arm-none-eabi/include/c++/10.3.1/bits/move.h **** _GLIBCXX_BEGIN_NAMESPACE_VERSION
  41:/Library/DaisyToolchain/0.2.0/arm/arm-none-eabi/include/c++/10.3.1/bits/move.h **** 
  42:/Library/DaisyToolchain/0.2.0/arm/arm-none-eabi/include/c++/10.3.1/bits/move.h ****   // Used, in C++03 mode too, by allocators, etc.
  43:/Library/DaisyToolchain/0.2.0/arm/arm-none-eabi/include/c++/10.3.1/bits/move.h ****   /**
  44:/Library/DaisyToolchain/0.2.0/arm/arm-none-eabi/include/c++/10.3.1/bits/move.h ****    *  @brief Same as C++11 std::addressof
  45:/Library/DaisyToolchain/0.2.0/arm/arm-none-eabi/include/c++/10.3.1/bits/move.h ****    *  @ingroup utilities
  46:/Library/DaisyToolchain/0.2.0/arm/arm-none-eabi/include/c++/10.3.1/bits/move.h ****    */
  47:/Library/DaisyToolchain/0.2.0/arm/arm-none-eabi/include/c++/10.3.1/bits/move.h ****   template<typename _Tp>
  48:/Library/DaisyToolchain/0.2.0/arm/arm-none-eabi/include/c++/10.3.1/bits/move.h ****     inline _GLIBCXX_CONSTEXPR _Tp*
  49:/Library/DaisyToolchain/0.2.0/arm/arm-none-eabi/include/c++/10.3.1/bits/move.h ****     __addressof(_Tp& __r) _GLIBCXX_NOEXCEPT
  50:/Library/DaisyToolchain/0.2.0/arm/arm-none-eabi/include/c++/10.3.1/bits/move.h ****     { return __builtin_addressof(__r); }
  51:/Library/DaisyToolchain/0.2.0/arm/arm-none-eabi/include/c++/10.3.1/bits/move.h **** 
  52:/Library/DaisyToolchain/0.2.0/arm/arm-none-eabi/include/c++/10.3.1/bits/move.h **** #if __cplusplus >= 201103L
  53:/Library/DaisyToolchain/0.2.0/arm/arm-none-eabi/include/c++/10.3.1/bits/move.h **** 
  54:/Library/DaisyToolchain/0.2.0/arm/arm-none-eabi/include/c++/10.3.1/bits/move.h **** _GLIBCXX_END_NAMESPACE_VERSION
  55:/Library/DaisyToolchain/0.2.0/arm/arm-none-eabi/include/c++/10.3.1/bits/move.h **** } // namespace
  56:/Library/DaisyToolchain/0.2.0/arm/arm-none-eabi/include/c++/10.3.1/bits/move.h **** 
  57:/Library/DaisyToolchain/0.2.0/arm/arm-none-eabi/include/c++/10.3.1/bits/move.h **** #include <type_traits> // Brings in std::declval too.
  58:/Library/DaisyToolchain/0.2.0/arm/arm-none-eabi/include/c++/10.3.1/bits/move.h **** 
  59:/Library/DaisyToolchain/0.2.0/arm/arm-none-eabi/include/c++/10.3.1/bits/move.h **** namespace std _GLIBCXX_VISIBILITY(default)
  60:/Library/DaisyToolchain/0.2.0/arm/arm-none-eabi/include/c++/10.3.1/bits/move.h **** {
  61:/Library/DaisyToolchain/0.2.0/arm/arm-none-eabi/include/c++/10.3.1/bits/move.h **** _GLIBCXX_BEGIN_NAMESPACE_VERSION
  62:/Library/DaisyToolchain/0.2.0/arm/arm-none-eabi/include/c++/10.3.1/bits/move.h **** 
  63:/Library/DaisyToolchain/0.2.0/arm/arm-none-eabi/include/c++/10.3.1/bits/move.h ****   /**
  64:/Library/DaisyToolchain/0.2.0/arm/arm-none-eabi/include/c++/10.3.1/bits/move.h ****    *  @addtogroup utilities
  65:/Library/DaisyToolchain/0.2.0/arm/arm-none-eabi/include/c++/10.3.1/bits/move.h ****    *  @{
  66:/Library/DaisyToolchain/0.2.0/arm/arm-none-eabi/include/c++/10.3.1/bits/move.h ****    */
  67:/Library/DaisyToolchain/0.2.0/arm/arm-none-eabi/include/c++/10.3.1/bits/move.h **** 
  68:/Library/DaisyToolchain/0.2.0/arm/arm-none-eabi/include/c++/10.3.1/bits/move.h ****   /**
  69:/Library/DaisyToolchain/0.2.0/arm/arm-none-eabi/include/c++/10.3.1/bits/move.h ****    *  @brief  Forward an lvalue.
  70:/Library/DaisyToolchain/0.2.0/arm/arm-none-eabi/include/c++/10.3.1/bits/move.h ****    *  @return The parameter cast to the specified type.
  71:/Library/DaisyToolchain/0.2.0/arm/arm-none-eabi/include/c++/10.3.1/bits/move.h ****    *
  72:/Library/DaisyToolchain/0.2.0/arm/arm-none-eabi/include/c++/10.3.1/bits/move.h ****    *  This function is used to implement "perfect forwarding".
  73:/Library/DaisyToolchain/0.2.0/arm/arm-none-eabi/include/c++/10.3.1/bits/move.h ****    */
  74:/Library/DaisyToolchain/0.2.0/arm/arm-none-eabi/include/c++/10.3.1/bits/move.h ****   template<typename _Tp>
  75:/Library/DaisyToolchain/0.2.0/arm/arm-none-eabi/include/c++/10.3.1/bits/move.h ****     constexpr _Tp&&
  76:/Library/DaisyToolchain/0.2.0/arm/arm-none-eabi/include/c++/10.3.1/bits/move.h ****     forward(typename std::remove_reference<_Tp>::type& __t) noexcept
 1968              		.loc 17 76 5 view .LVU566
 1969              		.loc 17 76 5 is_stmt 0 view .LVU567
 1970              	.LBE814:
ARM GAS  /var/folders/hl/qgbwny5j0fd895c2c41bk3tw0000gp/T//cc1L1gWC.s 			page 99


 1971              	.LBB815:
 1972              	.LBI815:
 1973              		.loc 17 76 5 is_stmt 1 view .LVU568
 1974              		.loc 17 76 5 is_stmt 0 view .LVU569
 1975              	.LBE815:
 1976              	.LBE813:
 1977              	.LBE812:
 1978              	.LBE811:
 1979              	.LBE817:
 1980              	.LBE820:
  77:Convolution.cpp **** 		dsy_gpio_write(&hw.gate_out_1, start_and_halfway.first);
 1981              		.loc 12 77 3 is_stmt 1 view .LVU570
  77:Convolution.cpp **** 		dsy_gpio_write(&hw.gate_out_1, start_and_halfway.first);
 1982              		.loc 12 77 22 is_stmt 0 view .LVU571
 1983 008c 1748     		ldr	r0, .L97+28
 1984 008e FFF7FEFF 		bl	_ZN5daisy4GPIO5WriteEb
 1985              	.LVL123:
  78:Convolution.cpp **** 		gate_out_led2.Write(start_and_halfway.second);  // half loop
 1986              		.loc 12 78 3 is_stmt 1 view .LVU572
  78:Convolution.cpp **** 		gate_out_led2.Write(start_and_halfway.second);  // half loop
 1987              		.loc 12 78 17 is_stmt 0 view .LVU573
 1988 0092 3946     		mov	r1, r7
 1989 0094 1648     		ldr	r0, .L97+32
 1990 0096 FFF7FEFF 		bl	dsy_gpio_write
 1991              	.LVL124:
  79:Convolution.cpp **** 		dsy_gpio_write(&hw.gate_out_2, start_and_halfway.second);
 1992              		.loc 12 79 3 is_stmt 1 view .LVU574
  79:Convolution.cpp **** 		dsy_gpio_write(&hw.gate_out_2, start_and_halfway.second);
 1993              		.loc 12 79 22 is_stmt 0 view .LVU575
 1994 009a 3146     		mov	r1, r6
 1995 009c 1548     		ldr	r0, .L97+36
 1996 009e FFF7FEFF 		bl	_ZN5daisy4GPIO5WriteEb
 1997              	.LVL125:
 1998              		.loc 12 80 3 is_stmt 1 view .LVU576
 1999              		.loc 12 80 17 is_stmt 0 view .LVU577
 2000 00a2 2146     		mov	r1, r4
 2001 00a4 1448     		ldr	r0, .L97+40
 2002 00a6 FFF7FEFF 		bl	dsy_gpio_write
 2003              	.LVL126:
 2004              		.loc 12 80 17 view .LVU578
 2005              	.LBE808:
  73:Convolution.cpp **** 		gate_in_led1.Write(loop.Recording());
 2006              		.loc 12 73 2 is_stmt 1 view .LVU579
 2007              	.L93:
  73:Convolution.cpp **** 		gate_in_led1.Write(loop.Recording());
 2008              		.loc 12 73 2 discriminator 1 view .LVU580
 2009              	.LBB826:
  74:Convolution.cpp **** 
 2010              		.loc 12 74 3 discriminator 1 view .LVU581
 2011              	.LBB821:
 2012              	.LBI821:
 200:customLooper.h ****     {
 2013              		.loc 10 200 23 discriminator 1 view .LVU582
 2014              	.LBB822:
 202:customLooper.h ****     }
 2015              		.loc 10 202 9 discriminator 1 view .LVU583
 202:customLooper.h ****     }
ARM GAS  /var/folders/hl/qgbwny5j0fd895c2c41bk3tw0000gp/T//cc1L1gWC.s 			page 100


 2016              		.loc 10 202 41 is_stmt 0 discriminator 1 view .LVU584
 2017 00aa 6968     		ldr	r1, [r5, #4]
 2018              	.LBE822:
 2019              	.LBE821:
  74:Convolution.cpp **** 
 2020              		.loc 12 74 21 discriminator 1 view .LVU585
 2021 00ac 1348     		ldr	r0, .L97+44
 2022              	.LBB824:
 2023              	.LBB823:
 202:customLooper.h ****     }
 2024              		.loc 10 202 41 discriminator 1 view .LVU586
 2025 00ae 21F00201 		bic	r1, r1, #2
 2026              	.LBE823:
 2027              	.LBE824:
  74:Convolution.cpp **** 
 2028              		.loc 12 74 21 discriminator 1 view .LVU587
 2029 00b2 A1F10101 		sub	r1, #1
 2030 00b6 B1FA81F1 		clz	r1, r1
 2031 00ba 4909     		lsrs	r1, r1, #5
 2032 00bc FFF7FEFF 		bl	_ZN5daisy4GPIO5WriteEb
 2033              	.LVL127:
  76:Convolution.cpp **** 		gate_out_led1.Write(start_and_halfway.first);  // first loop
 2034              		.loc 12 76 3 is_stmt 1 discriminator 1 view .LVU588
 2035              	.LBB825:
 2036              	.LBI809:
 234:customLooper.h ****         bool is_start = false;
 2037              		.loc 10 234 27 discriminator 1 view .LVU589
 2038              	.LBB818:
 235:customLooper.h ****         bool is_halfway = false;
 2039              		.loc 10 235 9 discriminator 1 view .LVU590
 236:customLooper.h ****     
 2040              		.loc 10 236 9 discriminator 1 view .LVU591
 238:customLooper.h ****             is_start = true;
 2041              		.loc 10 238 9 discriminator 1 view .LVU592
 2042 00c0 6B68     		ldr	r3, [r5, #4]
 2043 00c2 1C46     		mov	r4, r3
 2044 00c4 002B     		cmp	r3, #0
 2045 00c6 C9D1     		bne	.L96
 2046 00c8 1F46     		mov	r7, r3
 241:customLooper.h ****         }
 2047              		.loc 10 241 22 is_stmt 0 view .LVU593
 2048 00ca 1946     		mov	r1, r3
 246:customLooper.h ****         }
 2049              		.loc 10 246 24 view .LVU594
 2050 00cc 1E46     		mov	r6, r3
 2051 00ce DDE7     		b	.L92
 2052              	.L98:
 2053              		.align	2
 2054              	.L97:
 2055 00d0 00000000 		.word	.LANCHOR18
 2056 00d4 00000000 		.word	.LANCHOR19
 2057 00d8 00F22B00 		.word	2880000
 2058 00dc 00000000 		.word	buffer
 2059 00e0 FCC7AF00 		.word	11519996
 2060 00e4 00000000 		.word	rev
 2061 00e8 00000000 		.word	_Z13AudioCallbackPKPKfPPfj
 2062 00ec 00000000 		.word	.LANCHOR13
ARM GAS  /var/folders/hl/qgbwny5j0fd895c2c41bk3tw0000gp/T//cc1L1gWC.s 			page 101


 2063 00f0 BE010000 		.word	.LANCHOR18+446
 2064 00f4 00000000 		.word	.LANCHOR15
 2065 00f8 C2010000 		.word	.LANCHOR18+450
 2066 00fc 00000000 		.word	.LANCHOR9
 2067              	.LBE818:
 2068              	.LBE825:
 2069              	.LBE826:
 2070              		.cfi_endproc
 2071              	.LFE5076:
 2073              		.section	.text.startup._GLOBAL__sub_I__ZN5daisy8patch_sm8gen_led1E,"ax",%progbits
 2074              		.align	1
 2075              		.p2align 2,,3
 2076              		.syntax unified
 2077              		.thumb
 2078              		.thumb_func
 2080              	_GLOBAL__sub_I__ZN5daisy8patch_sm8gen_led1E:
 2081              	.LFB5636:
  81:Convolution.cpp **** 	}
  82:Convolution.cpp **** }
 2082              		.loc 12 82 1 is_stmt 1 view -0
 2083              		.cfi_startproc
 2084              		@ args = 0, pretend = 0, frame = 0
 2085              		@ frame_needed = 0, uses_anonymous_args = 0
 2086              	.LBB951:
 2087              	.LBI951:
 2088              		.loc 12 82 1 view .LVU596
 2089              	.LVL128:
 2090              	.LBB952:
 2091              	.LBB953:
 2092              	.LBI953:
 2093              		.file 18 "../../libDaisy//src/per/gpio.h"
   1:../../libDaisy//src/per/gpio.h **** #pragma once
   2:../../libDaisy//src/per/gpio.h **** #ifndef DSY_GPIO_H
   3:../../libDaisy//src/per/gpio.h **** #define DSY_GPIO_H
   4:../../libDaisy//src/per/gpio.h **** #include "daisy_core.h"
   5:../../libDaisy//src/per/gpio.h **** 
   6:../../libDaisy//src/per/gpio.h **** #ifdef __cplusplus
   7:../../libDaisy//src/per/gpio.h **** 
   8:../../libDaisy//src/per/gpio.h **** namespace daisy
   9:../../libDaisy//src/per/gpio.h **** {
  10:../../libDaisy//src/per/gpio.h **** /** @brief General Purpose I/O control 
  11:../../libDaisy//src/per/gpio.h ****  *  @details peripheral control over a single GPIO
  12:../../libDaisy//src/per/gpio.h ****  *  @ingroup peripheral
  13:../../libDaisy//src/per/gpio.h ****  *   
  14:../../libDaisy//src/per/gpio.h ****  *  Button Input (with internal Pullup resistor)
  15:../../libDaisy//src/per/gpio.h ****  *  @include GPIO_Input.cpp 
  16:../../libDaisy//src/per/gpio.h ****  * 
  17:../../libDaisy//src/per/gpio.h ****  *  Output Example (perfect for blinking an LED)
  18:../../libDaisy//src/per/gpio.h ****  *  @include GPIO_Output.cpp
  19:../../libDaisy//src/per/gpio.h ****  * 
  20:../../libDaisy//src/per/gpio.h **** */
  21:../../libDaisy//src/per/gpio.h **** class GPIO
  22:../../libDaisy//src/per/gpio.h **** {
  23:../../libDaisy//src/per/gpio.h ****   public:
  24:../../libDaisy//src/per/gpio.h ****     /** @brief Mode of operation for the specified GPIO */
  25:../../libDaisy//src/per/gpio.h ****     enum class Mode
  26:../../libDaisy//src/per/gpio.h ****     {
ARM GAS  /var/folders/hl/qgbwny5j0fd895c2c41bk3tw0000gp/T//cc1L1gWC.s 			page 102


  27:../../libDaisy//src/per/gpio.h ****         INPUT,     /**< Input for reading state of pin */
  28:../../libDaisy//src/per/gpio.h ****         OUTPUT,    /**< Output w/ push-pull configuration */
  29:../../libDaisy//src/per/gpio.h ****         OUTPUT_OD, /**< Output w/ open-drain configuration */
  30:../../libDaisy//src/per/gpio.h ****         ANALOG,    /**< Analog for connection to ADC or DAC peripheral */
  31:../../libDaisy//src/per/gpio.h ****     };
  32:../../libDaisy//src/per/gpio.h **** 
  33:../../libDaisy//src/per/gpio.h ****     /** @brief Configures whether an internal Pull up or Pull down resistor is used. 
  34:../../libDaisy//src/per/gpio.h ****      *  
  35:../../libDaisy//src/per/gpio.h ****      * Internal Pull up/down resistors are typically 40k ohms, and will be between
  36:../../libDaisy//src/per/gpio.h ****      * 30k and 50k
  37:../../libDaisy//src/per/gpio.h ****      * 
  38:../../libDaisy//src/per/gpio.h ****      * When the Pin is configured in Analog mode, the pull up/down resistors are
  39:../../libDaisy//src/per/gpio.h ****      * disabled by hardware. 
  40:../../libDaisy//src/per/gpio.h ****      */
  41:../../libDaisy//src/per/gpio.h ****     enum class Pull
  42:../../libDaisy//src/per/gpio.h ****     {
  43:../../libDaisy//src/per/gpio.h ****         NOPULL,   /**< No pull up resistor */
  44:../../libDaisy//src/per/gpio.h ****         PULLUP,   /**< Internal pull up enabled */
  45:../../libDaisy//src/per/gpio.h ****         PULLDOWN, /**< Internal pull down enabled*/
  46:../../libDaisy//src/per/gpio.h ****     };
  47:../../libDaisy//src/per/gpio.h **** 
  48:../../libDaisy//src/per/gpio.h ****     /** @brief Output speed controls the drive strength, and slew rate of the pin */
  49:../../libDaisy//src/per/gpio.h ****     enum class Speed
  50:../../libDaisy//src/per/gpio.h ****     {
  51:../../libDaisy//src/per/gpio.h ****         LOW,
  52:../../libDaisy//src/per/gpio.h ****         MEDIUM,
  53:../../libDaisy//src/per/gpio.h ****         HIGH,
  54:../../libDaisy//src/per/gpio.h ****         VERY_HIGH,
  55:../../libDaisy//src/per/gpio.h ****     };
  56:../../libDaisy//src/per/gpio.h **** 
  57:../../libDaisy//src/per/gpio.h ****     /** @brief Configuration for a given GPIO */
  58:../../libDaisy//src/per/gpio.h ****     struct Config
  59:../../libDaisy//src/per/gpio.h ****     {
  60:../../libDaisy//src/per/gpio.h ****         Pin   pin;
  61:../../libDaisy//src/per/gpio.h ****         Mode  mode;
  62:../../libDaisy//src/per/gpio.h ****         Pull  pull;
  63:../../libDaisy//src/per/gpio.h ****         Speed speed;
  64:../../libDaisy//src/per/gpio.h **** 
  65:../../libDaisy//src/per/gpio.h ****         /** Constructor with no arguments will prepare an invalid GPIO set as
  66:../../libDaisy//src/per/gpio.h ****          *  an input, with no pullup. 
  67:../../libDaisy//src/per/gpio.h ****          */
  68:../../libDaisy//src/per/gpio.h ****         Config()
  69:../../libDaisy//src/per/gpio.h ****         : pin(), mode(Mode::INPUT), pull(Pull::NOPULL), speed(Speed::LOW)
  70:../../libDaisy//src/per/gpio.h ****         {
  71:../../libDaisy//src/per/gpio.h ****         }
  72:../../libDaisy//src/per/gpio.h ****     };
  73:../../libDaisy//src/per/gpio.h **** 
  74:../../libDaisy//src/per/gpio.h ****     GPIO() {}
 2094              		.loc 18 74 5 view .LVU597
 2095              	.LBB954:
 2096              	.LBB955:
 2097              	.LBI955:
  68:../../libDaisy//src/per/gpio.h ****         : pin(), mode(Mode::INPUT), pull(Pull::NOPULL), speed(Speed::LOW)
 2098              		.loc 18 68 9 view .LVU598
 2099              	.LBB956:
 2100              	.LBB957:
 2101              	.LBB958:
ARM GAS  /var/folders/hl/qgbwny5j0fd895c2c41bk3tw0000gp/T//cc1L1gWC.s 			page 103


 2102              	.LBI958:
 2103              		.file 19 "../../libDaisy//src/daisy_core.h"
   1:../../libDaisy//src/daisy_core.h **** #pragma once
   2:../../libDaisy//src/daisy_core.h **** #ifndef DSY_CORE_HW_H
   3:../../libDaisy//src/daisy_core.h **** #define DSY_CORE_HW_H /**< & */
   4:../../libDaisy//src/daisy_core.h **** #include <stdint.h>
   5:../../libDaisy//src/daisy_core.h **** #include <stdlib.h>
   6:../../libDaisy//src/daisy_core.h **** 
   7:../../libDaisy//src/daisy_core.h **** #if defined(_MSC_VER)
   8:../../libDaisy//src/daisy_core.h **** #define FORCE_INLINE __forceinline /**< & */
   9:../../libDaisy//src/daisy_core.h **** #elif defined(__clang__)
  10:../../libDaisy//src/daisy_core.h **** #define FORCE_INLINE inline __attribute__((always_inline)) /**< & */
  11:../../libDaisy//src/daisy_core.h **** #pragma clang diagnostic ignored "-Wduplicate-decl-specifier"
  12:../../libDaisy//src/daisy_core.h **** #elif defined(__GNUC__)
  13:../../libDaisy//src/daisy_core.h **** #define FORCE_INLINE inline __attribute__((always_inline)) /**< & */
  14:../../libDaisy//src/daisy_core.h **** #else
  15:../../libDaisy//src/daisy_core.h **** #error unknown compiler
  16:../../libDaisy//src/daisy_core.h **** #endif
  17:../../libDaisy//src/daisy_core.h **** 
  18:../../libDaisy//src/daisy_core.h **** /** @addtogroup utility
  19:../../libDaisy//src/daisy_core.h ****     @{
  20:../../libDaisy//src/daisy_core.h **** */
  21:../../libDaisy//src/daisy_core.h **** 
  22:../../libDaisy//src/daisy_core.h **** /** Macro for area of memory that is configured as cacheless
  23:../../libDaisy//src/daisy_core.h **** This should be used primarily for DMA buffers, and the like.
  24:../../libDaisy//src/daisy_core.h **** */
  25:../../libDaisy//src/daisy_core.h **** #define DMA_BUFFER_MEM_SECTION __attribute__((section(".sram1_bss")))
  26:../../libDaisy//src/daisy_core.h **** /** 
  27:../../libDaisy//src/daisy_core.h **** THE DTCM RAM section is also non-cached. However, is not suitable 
  28:../../libDaisy//src/daisy_core.h **** for DMA transfers. Performance is on par with internal SRAM w/ 
  29:../../libDaisy//src/daisy_core.h **** cache enabled.
  30:../../libDaisy//src/daisy_core.h **** */
  31:../../libDaisy//src/daisy_core.h **** #define DTCM_MEM_SECTION __attribute__((section(".dtcmram_bss")))
  32:../../libDaisy//src/daisy_core.h **** 
  33:../../libDaisy//src/daisy_core.h **** #define FBIPMAX 0.999985f             /**< close to 1.0f-LSB at 16 bit */
  34:../../libDaisy//src/daisy_core.h **** #define FBIPMIN (-FBIPMAX)            /**< - (1 - LSB) */
  35:../../libDaisy//src/daisy_core.h **** #define U82F_SCALE 0.0078740f         /**< 1 / 127 */
  36:../../libDaisy//src/daisy_core.h **** #define F2U8_SCALE 127.0f             /**< 128 - 1 */
  37:../../libDaisy//src/daisy_core.h **** #define S82F_SCALE 0.0078125f         /**< 1 / (2**7) */
  38:../../libDaisy//src/daisy_core.h **** #define F2S8_SCALE 127.0f             /**< (2 ** 7) - 1 */
  39:../../libDaisy//src/daisy_core.h **** #define S162F_SCALE 3.0517578125e-05f /**< 1 / (2** 15) */
  40:../../libDaisy//src/daisy_core.h **** #define F2S16_SCALE 32767.0f          /**< (2 ** 15) - 1 */
  41:../../libDaisy//src/daisy_core.h **** #define F2S24_SCALE 8388608.0f        /**< 2 ** 23 */
  42:../../libDaisy//src/daisy_core.h **** #define S242F_SCALE 1.192092896e-07f  /**< 1 / (2 ** 23) */
  43:../../libDaisy//src/daisy_core.h **** #define S24SIGN 0x800000              /**< 2 ** 23 */
  44:../../libDaisy//src/daisy_core.h **** #define S322F_SCALE 4.6566129e-10f    /**< 1 / (2** 31) */
  45:../../libDaisy//src/daisy_core.h **** #define F2S32_SCALE 2147483647.f      /**< (2 ** 31) - 1 */
  46:../../libDaisy//src/daisy_core.h **** 
  47:../../libDaisy//src/daisy_core.h **** 
  48:../../libDaisy//src/daisy_core.h **** /** shorthand macro for simplifying the reading of the left 
  49:../../libDaisy//src/daisy_core.h ****  *  channel of a non-interleaved output buffer named out */
  50:../../libDaisy//src/daisy_core.h **** #define OUT_L out[0]
  51:../../libDaisy//src/daisy_core.h **** 
  52:../../libDaisy//src/daisy_core.h **** /** shorthand macro for simplifying the reading of the right 
  53:../../libDaisy//src/daisy_core.h ****  *  channel of a non-interleaved output buffer named out */
  54:../../libDaisy//src/daisy_core.h **** #define OUT_R out[1]
  55:../../libDaisy//src/daisy_core.h **** 
ARM GAS  /var/folders/hl/qgbwny5j0fd895c2c41bk3tw0000gp/T//cc1L1gWC.s 			page 104


  56:../../libDaisy//src/daisy_core.h **** /** shorthand macro for simplifying the reading of the left 
  57:../../libDaisy//src/daisy_core.h ****  *  channel of a non-interleaved input buffer named in */
  58:../../libDaisy//src/daisy_core.h **** #define IN_L in[0]
  59:../../libDaisy//src/daisy_core.h **** 
  60:../../libDaisy//src/daisy_core.h **** /** shorthand macro for simplifying the reading of the right 
  61:../../libDaisy//src/daisy_core.h ****  *  channel of a non-interleaved input buffer named in */
  62:../../libDaisy//src/daisy_core.h **** #define IN_R in[1]
  63:../../libDaisy//src/daisy_core.h **** 
  64:../../libDaisy//src/daisy_core.h **** /** 
  65:../../libDaisy//src/daisy_core.h ****     Computes cube.
  66:../../libDaisy//src/daisy_core.h ****     \param x Number to be cubed
  67:../../libDaisy//src/daisy_core.h ****     \return x ^ 3
  68:../../libDaisy//src/daisy_core.h **** */
  69:../../libDaisy//src/daisy_core.h **** FORCE_INLINE float cube(float x)
  70:../../libDaisy//src/daisy_core.h **** {
  71:../../libDaisy//src/daisy_core.h ****     return (x * x) * x;
  72:../../libDaisy//src/daisy_core.h **** }
  73:../../libDaisy//src/daisy_core.h **** 
  74:../../libDaisy//src/daisy_core.h **** /** 
  75:../../libDaisy//src/daisy_core.h ****     Converts unsigned 8-bit to float
  76:../../libDaisy//src/daisy_core.h ****     \param x Number to be scaled.
  77:../../libDaisy//src/daisy_core.h ****     \return Scaled number.
  78:../../libDaisy//src/daisy_core.h **** */
  79:../../libDaisy//src/daisy_core.h **** FORCE_INLINE float u82f(uint8_t x)
  80:../../libDaisy//src/daisy_core.h **** {
  81:../../libDaisy//src/daisy_core.h ****     return ((float)x - 127.f) * U82F_SCALE;
  82:../../libDaisy//src/daisy_core.h **** }
  83:../../libDaisy//src/daisy_core.h **** 
  84:../../libDaisy//src/daisy_core.h **** /**
  85:../../libDaisy//src/daisy_core.h ****     Converts float to unsigned 8-bit
  86:../../libDaisy//src/daisy_core.h **** */
  87:../../libDaisy//src/daisy_core.h **** FORCE_INLINE uint8_t f2u8(float x)
  88:../../libDaisy//src/daisy_core.h **** {
  89:../../libDaisy//src/daisy_core.h ****     x = x <= FBIPMIN ? FBIPMIN : x;
  90:../../libDaisy//src/daisy_core.h ****     x = x >= FBIPMAX ? FBIPMAX : x;
  91:../../libDaisy//src/daisy_core.h ****     return (uint8_t)((x * F2U8_SCALE) + F2U8_SCALE);
  92:../../libDaisy//src/daisy_core.h **** }
  93:../../libDaisy//src/daisy_core.h **** 
  94:../../libDaisy//src/daisy_core.h **** 
  95:../../libDaisy//src/daisy_core.h **** /** 
  96:../../libDaisy//src/daisy_core.h ****     Converts Signed 8-bit to float
  97:../../libDaisy//src/daisy_core.h ****     \param x Number to be scaled.
  98:../../libDaisy//src/daisy_core.h ****     \return Scaled number.
  99:../../libDaisy//src/daisy_core.h **** */
 100:../../libDaisy//src/daisy_core.h **** FORCE_INLINE float s82f(int8_t x)
 101:../../libDaisy//src/daisy_core.h **** {
 102:../../libDaisy//src/daisy_core.h ****     return (float)x * S82F_SCALE;
 103:../../libDaisy//src/daisy_core.h **** }
 104:../../libDaisy//src/daisy_core.h **** 
 105:../../libDaisy//src/daisy_core.h **** /**
 106:../../libDaisy//src/daisy_core.h ****     Converts float to Signed 8-bit
 107:../../libDaisy//src/daisy_core.h **** */
 108:../../libDaisy//src/daisy_core.h **** FORCE_INLINE int8_t f2s8(float x)
 109:../../libDaisy//src/daisy_core.h **** {
 110:../../libDaisy//src/daisy_core.h ****     x = x <= FBIPMIN ? FBIPMIN : x;
 111:../../libDaisy//src/daisy_core.h ****     x = x >= FBIPMAX ? FBIPMAX : x;
 112:../../libDaisy//src/daisy_core.h ****     return (int32_t)(x * F2S8_SCALE);
ARM GAS  /var/folders/hl/qgbwny5j0fd895c2c41bk3tw0000gp/T//cc1L1gWC.s 			page 105


 113:../../libDaisy//src/daisy_core.h **** }
 114:../../libDaisy//src/daisy_core.h **** 
 115:../../libDaisy//src/daisy_core.h **** /** 
 116:../../libDaisy//src/daisy_core.h ****     Converts Signed 16-bit to float
 117:../../libDaisy//src/daisy_core.h ****     \param x Number to be scaled.
 118:../../libDaisy//src/daisy_core.h ****     \return Scaled number.
 119:../../libDaisy//src/daisy_core.h **** */
 120:../../libDaisy//src/daisy_core.h **** FORCE_INLINE float s162f(int16_t x)
 121:../../libDaisy//src/daisy_core.h **** {
 122:../../libDaisy//src/daisy_core.h ****     return (float)x * S162F_SCALE;
 123:../../libDaisy//src/daisy_core.h **** }
 124:../../libDaisy//src/daisy_core.h **** 
 125:../../libDaisy//src/daisy_core.h **** /**
 126:../../libDaisy//src/daisy_core.h ****     Converts float to Signed 16-bit
 127:../../libDaisy//src/daisy_core.h **** */
 128:../../libDaisy//src/daisy_core.h **** FORCE_INLINE int16_t f2s16(float x)
 129:../../libDaisy//src/daisy_core.h **** {
 130:../../libDaisy//src/daisy_core.h ****     x = x <= FBIPMIN ? FBIPMIN : x;
 131:../../libDaisy//src/daisy_core.h ****     x = x >= FBIPMAX ? FBIPMAX : x;
 132:../../libDaisy//src/daisy_core.h ****     return (int32_t)(x * F2S16_SCALE);
 133:../../libDaisy//src/daisy_core.h **** }
 134:../../libDaisy//src/daisy_core.h **** 
 135:../../libDaisy//src/daisy_core.h **** /**
 136:../../libDaisy//src/daisy_core.h ****     Converts Signed 24-bit to float
 137:../../libDaisy//src/daisy_core.h ****  */
 138:../../libDaisy//src/daisy_core.h **** FORCE_INLINE float s242f(int32_t x)
 139:../../libDaisy//src/daisy_core.h **** {
 140:../../libDaisy//src/daisy_core.h ****     x = (x ^ S24SIGN) - S24SIGN; //sign extend aka ((x<<8)>>8)
 141:../../libDaisy//src/daisy_core.h ****     return (float)x * S242F_SCALE;
 142:../../libDaisy//src/daisy_core.h **** }
 143:../../libDaisy//src/daisy_core.h **** /**
 144:../../libDaisy//src/daisy_core.h ****     Converts float to Signed 24-bit
 145:../../libDaisy//src/daisy_core.h ****  */
 146:../../libDaisy//src/daisy_core.h **** FORCE_INLINE int32_t f2s24(float x)
 147:../../libDaisy//src/daisy_core.h **** {
 148:../../libDaisy//src/daisy_core.h ****     x = x <= FBIPMIN ? FBIPMIN : x;
 149:../../libDaisy//src/daisy_core.h ****     x = x >= FBIPMAX ? FBIPMAX : x;
 150:../../libDaisy//src/daisy_core.h ****     return (int32_t)(x * F2S24_SCALE);
 151:../../libDaisy//src/daisy_core.h **** }
 152:../../libDaisy//src/daisy_core.h **** 
 153:../../libDaisy//src/daisy_core.h **** /**
 154:../../libDaisy//src/daisy_core.h ****     Converts Signed 32-bit to float
 155:../../libDaisy//src/daisy_core.h ****  */
 156:../../libDaisy//src/daisy_core.h **** FORCE_INLINE float s322f(int32_t x)
 157:../../libDaisy//src/daisy_core.h **** {
 158:../../libDaisy//src/daisy_core.h ****     return (float)x * S322F_SCALE;
 159:../../libDaisy//src/daisy_core.h **** }
 160:../../libDaisy//src/daisy_core.h **** /**
 161:../../libDaisy//src/daisy_core.h ****     Converts float to Signed 24-bit
 162:../../libDaisy//src/daisy_core.h ****  */
 163:../../libDaisy//src/daisy_core.h **** FORCE_INLINE int32_t f2s32(float x)
 164:../../libDaisy//src/daisy_core.h **** {
 165:../../libDaisy//src/daisy_core.h ****     x = x <= FBIPMIN ? FBIPMIN : x;
 166:../../libDaisy//src/daisy_core.h ****     x = x >= FBIPMAX ? FBIPMAX : x;
 167:../../libDaisy//src/daisy_core.h ****     return (int32_t)(x * F2S32_SCALE);
 168:../../libDaisy//src/daisy_core.h **** }
 169:../../libDaisy//src/daisy_core.h **** 
ARM GAS  /var/folders/hl/qgbwny5j0fd895c2c41bk3tw0000gp/T//cc1L1gWC.s 			page 106


 170:../../libDaisy//src/daisy_core.h **** 
 171:../../libDaisy//src/daisy_core.h **** /** Enums and a simple struct for defining a hardware pin on the MCU
 172:../../libDaisy//src/daisy_core.h ****  *  These correlate with the stm32 datasheet, and are used to configure
 173:../../libDaisy//src/daisy_core.h ****  *  the hardware.
 174:../../libDaisy//src/daisy_core.h ****  * 
 175:../../libDaisy//src/daisy_core.h ****  *  This along with the dsy_gpio_pin class should no longer be used.
 176:../../libDaisy//src/daisy_core.h ****  *  They are available for backwards compatability. 
 177:../../libDaisy//src/daisy_core.h ****  * 
 178:../../libDaisy//src/daisy_core.h ****  *  Please use GPIOPort enum and the Pin struct instead.
 179:../../libDaisy//src/daisy_core.h ****  */
 180:../../libDaisy//src/daisy_core.h **** typedef enum
 181:../../libDaisy//src/daisy_core.h **** {
 182:../../libDaisy//src/daisy_core.h ****     DSY_GPIOA, /**< & */
 183:../../libDaisy//src/daisy_core.h ****     DSY_GPIOB, /**< & */
 184:../../libDaisy//src/daisy_core.h ****     DSY_GPIOC, /**< & */
 185:../../libDaisy//src/daisy_core.h ****     DSY_GPIOD, /**< & */
 186:../../libDaisy//src/daisy_core.h ****     DSY_GPIOE, /**< & */
 187:../../libDaisy//src/daisy_core.h ****     DSY_GPIOF, /**< & */
 188:../../libDaisy//src/daisy_core.h ****     DSY_GPIOG, /**< & */
 189:../../libDaisy//src/daisy_core.h ****     DSY_GPIOH, /**< & */
 190:../../libDaisy//src/daisy_core.h ****     DSY_GPIOI, /**< & */
 191:../../libDaisy//src/daisy_core.h ****     DSY_GPIOJ, /**< & */
 192:../../libDaisy//src/daisy_core.h ****     DSY_GPIOK, /**< & */
 193:../../libDaisy//src/daisy_core.h ****     DSY_GPIOX, /** This is a non-existant port for unsupported bits of hardware. */
 194:../../libDaisy//src/daisy_core.h ****     DSY_GPIO_LAST, /** Final enum member */
 195:../../libDaisy//src/daisy_core.h **** } dsy_gpio_port;
 196:../../libDaisy//src/daisy_core.h **** 
 197:../../libDaisy//src/daisy_core.h **** /** Hardware define pins 
 198:../../libDaisy//src/daisy_core.h ****  *  
 199:../../libDaisy//src/daisy_core.h ****  *  The dsy_gpio_pin struct should no longer be used, and is only available for
 200:../../libDaisy//src/daisy_core.h ****  *  backwards compatability.
 201:../../libDaisy//src/daisy_core.h ****  * 
 202:../../libDaisy//src/daisy_core.h ****  *  Please use Pin struct instead.
 203:../../libDaisy//src/daisy_core.h ****  */
 204:../../libDaisy//src/daisy_core.h **** typedef struct
 205:../../libDaisy//src/daisy_core.h **** {
 206:../../libDaisy//src/daisy_core.h ****     dsy_gpio_port port; /**< & */
 207:../../libDaisy//src/daisy_core.h ****     uint8_t       pin;  /**< number 0-15 */
 208:../../libDaisy//src/daisy_core.h **** } dsy_gpio_pin;
 209:../../libDaisy//src/daisy_core.h **** 
 210:../../libDaisy//src/daisy_core.h **** /** Helper for creating pins from port/pin combos easily
 211:../../libDaisy//src/daisy_core.h ****  * 
 212:../../libDaisy//src/daisy_core.h ****  *  The dsy_gpio_pin struct should no longer be used, and is only available for
 213:../../libDaisy//src/daisy_core.h ****  *  backwards compatability.
 214:../../libDaisy//src/daisy_core.h ****  * 
 215:../../libDaisy//src/daisy_core.h ****  *  Please use Pin struct instead.
 216:../../libDaisy//src/daisy_core.h **** */
 217:../../libDaisy//src/daisy_core.h **** FORCE_INLINE dsy_gpio_pin dsy_pin(dsy_gpio_port port, uint8_t pin)
 218:../../libDaisy//src/daisy_core.h **** {
 219:../../libDaisy//src/daisy_core.h ****     dsy_gpio_pin p;
 220:../../libDaisy//src/daisy_core.h ****     p.port = port;
 221:../../libDaisy//src/daisy_core.h ****     p.pin  = pin;
 222:../../libDaisy//src/daisy_core.h ****     return p;
 223:../../libDaisy//src/daisy_core.h **** }
 224:../../libDaisy//src/daisy_core.h **** 
 225:../../libDaisy//src/daisy_core.h **** /** Helper for testing sameness of two dsy_gpio_pins
 226:../../libDaisy//src/daisy_core.h ****  *  \return    1 if same, 0 if different
ARM GAS  /var/folders/hl/qgbwny5j0fd895c2c41bk3tw0000gp/T//cc1L1gWC.s 			page 107


 227:../../libDaisy//src/daisy_core.h ****  * 
 228:../../libDaisy//src/daisy_core.h ****  *  The dsy_gpio_pin struct should no longer be used, and is only available for
 229:../../libDaisy//src/daisy_core.h ****  *  backwards compatability.
 230:../../libDaisy//src/daisy_core.h ****  * 
 231:../../libDaisy//src/daisy_core.h ****  *  Please use Pin struct instead.
 232:../../libDaisy//src/daisy_core.h ****  */
 233:../../libDaisy//src/daisy_core.h **** FORCE_INLINE uint8_t dsy_pin_cmp(dsy_gpio_pin *a, dsy_gpio_pin *b)
 234:../../libDaisy//src/daisy_core.h **** {
 235:../../libDaisy//src/daisy_core.h ****     return ((a->port == b->port) && (a->pin == b->pin));
 236:../../libDaisy//src/daisy_core.h **** }
 237:../../libDaisy//src/daisy_core.h **** 
 238:../../libDaisy//src/daisy_core.h **** #ifdef __cplusplus
 239:../../libDaisy//src/daisy_core.h **** 
 240:../../libDaisy//src/daisy_core.h **** namespace daisy
 241:../../libDaisy//src/daisy_core.h **** {
 242:../../libDaisy//src/daisy_core.h **** /** @brief GPIO Port names */
 243:../../libDaisy//src/daisy_core.h **** enum GPIOPort
 244:../../libDaisy//src/daisy_core.h **** {
 245:../../libDaisy//src/daisy_core.h ****     PORTA, /**< Port A */
 246:../../libDaisy//src/daisy_core.h ****     PORTB, /**< Port B */
 247:../../libDaisy//src/daisy_core.h ****     PORTC, /**< Port C */
 248:../../libDaisy//src/daisy_core.h ****     PORTD, /**< Port D */
 249:../../libDaisy//src/daisy_core.h ****     PORTE, /**< Port E */
 250:../../libDaisy//src/daisy_core.h ****     PORTF, /**< Port F */
 251:../../libDaisy//src/daisy_core.h ****     PORTG, /**< Port G */
 252:../../libDaisy//src/daisy_core.h ****     PORTH, /**< Port H */
 253:../../libDaisy//src/daisy_core.h ****     PORTI, /**< Port I */
 254:../../libDaisy//src/daisy_core.h ****     PORTJ, /**< Port J */
 255:../../libDaisy//src/daisy_core.h ****     PORTK, /**< Port K */
 256:../../libDaisy//src/daisy_core.h ****     PORTX, /**< Used as a dummy port to signal an invalid pin. */
 257:../../libDaisy//src/daisy_core.h **** };
 258:../../libDaisy//src/daisy_core.h **** 
 259:../../libDaisy//src/daisy_core.h **** /** @brief representation of hardware port/pin combination */
 260:../../libDaisy//src/daisy_core.h **** struct Pin
 261:../../libDaisy//src/daisy_core.h **** {
 262:../../libDaisy//src/daisy_core.h ****     GPIOPort port;
 263:../../libDaisy//src/daisy_core.h ****     uint8_t  pin;
 264:../../libDaisy//src/daisy_core.h **** 
 265:../../libDaisy//src/daisy_core.h ****     /** @brief Constructor creates a valid pin. 
 266:../../libDaisy//src/daisy_core.h ****      *  @param pt GPIOPort between PA, and PK corresponding to STM32 Port.
 267:../../libDaisy//src/daisy_core.h ****      *  @param pn pin number in range of 0-15
 268:../../libDaisy//src/daisy_core.h ****     */
 269:../../libDaisy//src/daisy_core.h ****     constexpr Pin(const GPIOPort pt, const uint8_t pn) : port(pt), pin(pn) {}
 270:../../libDaisy//src/daisy_core.h **** 
 271:../../libDaisy//src/daisy_core.h ****     /** @brief Basic Constructor creates an invalid Pin object */
 272:../../libDaisy//src/daisy_core.h ****     constexpr Pin() : port(PORTX), pin(255) {}
 2104              		.loc 19 272 15 view .LVU599
 2105              		.loc 19 272 15 is_stmt 0 view .LVU600
 2106              	.LBE958:
 2107              	.LBE957:
 2108              	.LBE956:
 2109              	.LBE955:
 2110              	.LBE954:
 2111              	.LBE953:
 2112              	.LBE952:
 2113              	.LBE951:
 2114              		.loc 12 82 1 view .LVU601
ARM GAS  /var/folders/hl/qgbwny5j0fd895c2c41bk3tw0000gp/T//cc1L1gWC.s 			page 108


 2115 0000 38B5     		push	{r3, r4, r5, lr}
 2116              		.cfi_def_cfa_offset 16
 2117              		.cfi_offset 3, -16
 2118              		.cfi_offset 4, -12
 2119              		.cfi_offset 5, -8
 2120              		.cfi_offset 14, -4
 2121              	.LBB1154:
 2122              	.LBB1151:
 2123              	.LBB971:
 2124              	.LBB972:
 2125              		.loc 18 74 12 view .LVU602
 2126 0002 454A     		ldr	r2, .L101
 2127              	.LBE972:
 2128              	.LBE971:
 2129              	.LBB982:
 2130              	.LBB968:
 2131              	.LBB965:
 2132              	.LBB962:
 2133              	.LBB959:
  69:../../libDaisy//src/per/gpio.h ****         {
 2134              		.loc 18 69 73 view .LVU603
 2135 0004 0024     		movs	r4, #0
 2136              	.LBE959:
 2137              	.LBE962:
 2138              	.LBE965:
 2139              		.loc 18 74 12 view .LVU604
 2140 0006 4FF60B73 		movw	r3, #65291
 2141 000a 4448     		ldr	r0, .L101+4
 2142              	.LBE968:
 2143              	.LBE982:
 2144              	.LBB983:
 2145              	.LBB984:
 2146 000c 4449     		ldr	r1, .L101+8
 2147              	.LBE984:
 2148              	.LBE983:
 2149              	.LBB994:
 2150              	.LBB980:
 2151              	.LBB973:
 2152              	.LBB974:
 2153              	.LBB975:
  69:../../libDaisy//src/per/gpio.h ****         {
 2154              		.loc 18 69 73 view .LVU605
 2155 000e C2E90034 		strd	r3, r4, [r2]
 2156 0012 C2E90244 		strd	r4, r4, [r2, #8]
 2157              	.LBE975:
 2158              	.LBE974:
 2159              	.LBE973:
 2160              	.LBE980:
 2161              	.LBE994:
 2162              	.LBB995:
 2163              	.LBB996:
 2164              		.loc 18 74 12 view .LVU606
 2165 0016 434A     		ldr	r2, .L101+12
 2166              	.LBB997:
 2167              	.LBB998:
 2168              	.LBB999:
  69:../../libDaisy//src/per/gpio.h ****         {
ARM GAS  /var/folders/hl/qgbwny5j0fd895c2c41bk3tw0000gp/T//cc1L1gWC.s 			page 109


 2169              		.loc 18 69 73 view .LVU607
 2170 0018 C2E90034 		strd	r3, r4, [r2]
 2171 001c C2E90244 		strd	r4, r4, [r2, #8]
 2172              	.LBE999:
 2173              	.LBE998:
 2174              	.LBE997:
 2175              	.LBE996:
 2176              	.LBE995:
 2177              	.LBB1005:
 2178              	.LBB1006:
 2179              		.loc 18 74 12 view .LVU608
 2180 0020 414A     		ldr	r2, .L101+16
 2181              	.LBE1006:
 2182              	.LBE1005:
 2183              	.LBB1020:
 2184              	.LBB969:
 2185              	.LBB966:
 2186              	.LBB963:
 2187              	.LBB960:
  69:../../libDaisy//src/per/gpio.h ****         {
 2188              		.loc 18 69 73 view .LVU609
 2189 0022 C0E90034 		strd	r3, r4, [r0]
 2190              	.LBE960:
 2191              	.LBE963:
 2192              	.LBE966:
 2193              	.LBE969:
 2194              	.LBE1020:
 2195              	.LBB1021:
 2196              	.LBB1017:
 2197              	.LBB1007:
 2198              	.LBB1008:
 2199              	.LBB1009:
 2200 0026 C2E90034 		strd	r3, r4, [r2]
 2201              	.LBE1009:
 2202              	.LBE1008:
 2203              	.LBE1007:
 2204              	.LBE1017:
 2205              	.LBE1021:
 2206              	.LBB1022:
 2207              	.LBB992:
 2208              	.LBB985:
 2209              	.LBB986:
 2210              	.LBB987:
 2211 002a C1E90034 		strd	r3, r4, [r1]
 2212              	.LBE987:
 2213              	.LBE986:
 2214              	.LBE985:
 2215              	.LBE992:
 2216              	.LBE1022:
 2217              	.LBB1023:
 2218              	.LBB970:
 2219              	.LBB967:
 2220              	.LBB964:
 2221              	.LBB961:
 2222 002e C0E90244 		strd	r4, r4, [r0, #8]
 2223              	.LVL129:
  69:../../libDaisy//src/per/gpio.h ****         {
ARM GAS  /var/folders/hl/qgbwny5j0fd895c2c41bk3tw0000gp/T//cc1L1gWC.s 			page 110


 2224              		.loc 18 69 73 view .LVU610
 2225              	.LBE961:
 2226              	.LBE964:
 2227              	.LBE967:
 2228              	.LBE970:
 2229              	.LBE1023:
 2230              	.LBB1024:
 2231              	.LBI971:
 2232              		.loc 18 74 5 is_stmt 1 view .LVU611
 2233              	.LBB981:
 2234              	.LBB979:
 2235              	.LBI973:
  68:../../libDaisy//src/per/gpio.h ****         : pin(), mode(Mode::INPUT), pull(Pull::NOPULL), speed(Speed::LOW)
 2236              		.loc 18 68 9 view .LVU612
 2237              	.LBB978:
 2238              	.LBB977:
 2239              	.LBB976:
 2240              	.LBI976:
 2241              		.loc 19 272 15 view .LVU613
 2242              		.loc 19 272 15 is_stmt 0 view .LVU614
 2243              	.LBE976:
 2244              	.LBE977:
 2245              	.LBE978:
 2246              	.LBE979:
 2247              	.LBE981:
 2248              	.LBE1024:
 2249              	.LBB1025:
 2250              	.LBI983:
 2251              		.loc 18 74 5 is_stmt 1 view .LVU615
 2252              	.LBB993:
 2253              	.LBB991:
 2254              	.LBI985:
  68:../../libDaisy//src/per/gpio.h ****         : pin(), mode(Mode::INPUT), pull(Pull::NOPULL), speed(Speed::LOW)
 2255              		.loc 18 68 9 view .LVU616
 2256              	.LBB990:
 2257              	.LBB989:
 2258              	.LBB988:
 2259              	.LBI988:
 2260              		.loc 19 272 15 view .LVU617
 2261              		.loc 19 272 15 is_stmt 0 view .LVU618
 2262              	.LBE988:
  69:../../libDaisy//src/per/gpio.h ****         {
 2263              		.loc 18 69 73 view .LVU619
 2264 0032 C1E90244 		strd	r4, r4, [r1, #8]
 2265              	.LVL130:
  69:../../libDaisy//src/per/gpio.h ****         {
 2266              		.loc 18 69 73 view .LVU620
 2267              	.LBE989:
 2268              	.LBE990:
 2269              	.LBE991:
 2270              	.LBE993:
 2271              	.LBE1025:
 2272              	.LBB1026:
 2273              	.LBI995:
 2274              		.loc 18 74 5 is_stmt 1 view .LVU621
 2275              	.LBB1004:
 2276              	.LBB1003:
ARM GAS  /var/folders/hl/qgbwny5j0fd895c2c41bk3tw0000gp/T//cc1L1gWC.s 			page 111


 2277              	.LBI997:
  68:../../libDaisy//src/per/gpio.h ****         : pin(), mode(Mode::INPUT), pull(Pull::NOPULL), speed(Speed::LOW)
 2278              		.loc 18 68 9 view .LVU622
 2279              	.LBB1002:
 2280              	.LBB1001:
 2281              	.LBB1000:
 2282              	.LBI1000:
 2283              		.loc 19 272 15 view .LVU623
 2284              		.loc 19 272 15 is_stmt 0 view .LVU624
 2285              	.LBE1000:
 2286              	.LBE1001:
 2287              	.LBE1002:
 2288              	.LBE1003:
 2289              	.LBE1004:
 2290              	.LBE1026:
 2291              	.LBB1027:
 2292              	.LBI1027:
 2293              		.loc 18 74 5 is_stmt 1 view .LVU625
 2294              	.LBB1028:
 2295              	.LBB1029:
 2296              	.LBI1029:
  68:../../libDaisy//src/per/gpio.h ****         : pin(), mode(Mode::INPUT), pull(Pull::NOPULL), speed(Speed::LOW)
 2297              		.loc 18 68 9 view .LVU626
 2298              	.LBB1030:
 2299              	.LBB1031:
 2300              	.LBB1032:
 2301              	.LBI1032:
 2302              		.loc 19 272 15 view .LVU627
 2303              		.loc 19 272 15 is_stmt 0 view .LVU628
 2304              	.LBE1032:
 2305              	.LBE1031:
 2306              	.LBE1030:
 2307              	.LBE1029:
 2308              	.LBE1028:
 2309              	.LBE1027:
 2310              	.LBB1042:
 2311              	.LBB1018:
 2312              	.LBB1015:
 2313              	.LBB1013:
 2314              	.LBB1011:
  69:../../libDaisy//src/per/gpio.h ****         {
 2315              		.loc 18 69 73 view .LVU629
 2316 0036 C2E90244 		strd	r4, r4, [r2, #8]
 2317              	.LBE1011:
 2318              	.LBE1013:
 2319              	.LBE1015:
 2320              	.LBE1018:
 2321              	.LBE1042:
 2322              	.LBB1043:
 2323              	.LBB1039:
 2324              		.loc 18 74 12 view .LVU630
 2325 003a 3C48     		ldr	r0, .L101+20
 2326              	.LBE1039:
 2327              	.LBE1043:
 2328              	.LBB1044:
 2329              	.LBB1045:
 2330 003c 3C4A     		ldr	r2, .L101+24
ARM GAS  /var/folders/hl/qgbwny5j0fd895c2c41bk3tw0000gp/T//cc1L1gWC.s 			page 112


 2331              	.LBE1045:
 2332              	.LBE1044:
 2333              	.LBB1056:
 2334              	.LBB1057:
 2335 003e 3D49     		ldr	r1, .L101+28
 2336              	.LBE1057:
 2337              	.LBE1056:
 2338              	.LBB1067:
 2339              	.LBB1053:
 2340 0040 1360     		str	r3, [r2]
 2341              	.LBE1053:
 2342              	.LBE1067:
 2343              	.LBB1068:
 2344              	.LBB1040:
 2345              	.LBB1037:
 2346              	.LBB1035:
 2347              	.LBB1033:
  69:../../libDaisy//src/per/gpio.h ****         {
 2348              		.loc 18 69 73 view .LVU631
 2349 0042 C0E90034 		strd	r3, r4, [r0]
 2350              	.LBE1033:
 2351              	.LBE1035:
 2352              	.LBE1037:
 2353              	.LBE1040:
 2354              	.LBE1068:
 2355              	.LBB1069:
 2356              	.LBB1065:
 2357              	.LBB1058:
 2358              	.LBB1059:
 2359              	.LBB1060:
 2360 0046 C1E90034 		strd	r3, r4, [r1]
 2361 004a C1E90244 		strd	r4, r4, [r1, #8]
 2362              	.LBE1060:
 2363              	.LBE1059:
 2364              	.LBE1058:
 2365              	.LBE1065:
 2366              	.LBE1069:
  24:daisy_bed.h   ****     Pin newPinD7 = Pin(static_cast<GPIOPort>(oldPinD7.port), oldPinD7.pin);
 2367              		.loc 11 24 18 view .LVU632
 2368 004e 3A4B     		ldr	r3, .L101+32
  26:daisy_bed.h   ****     Pin newPinA9 = Pin(static_cast<GPIOPort>(oldPinA9.port), oldPinA9.pin);
 2369              		.loc 11 26 18 view .LVU633
 2370 0050 3A49     		ldr	r1, .L101+36
 2371              	.LBB1070:
 2372              	.LBB1041:
 2373              	.LBB1038:
 2374              	.LBB1036:
 2375              	.LBB1034:
  69:../../libDaisy//src/per/gpio.h ****         {
 2376              		.loc 18 69 73 view .LVU634
 2377 0052 C0E90244 		strd	r4, r4, [r0, #8]
 2378              	.LVL131:
  69:../../libDaisy//src/per/gpio.h ****         {
 2379              		.loc 18 69 73 view .LVU635
 2380              	.LBE1034:
 2381              	.LBE1036:
 2382              	.LBE1038:
ARM GAS  /var/folders/hl/qgbwny5j0fd895c2c41bk3tw0000gp/T//cc1L1gWC.s 			page 113


 2383              	.LBE1041:
 2384              	.LBE1070:
 2385              	.LBB1071:
 2386              	.LBI1005:
 2387              		.loc 18 74 5 is_stmt 1 view .LVU636
 2388              	.LBB1019:
 2389              	.LBB1016:
 2390              	.LBI1007:
  68:../../libDaisy//src/per/gpio.h ****         : pin(), mode(Mode::INPUT), pull(Pull::NOPULL), speed(Speed::LOW)
 2391              		.loc 18 68 9 view .LVU637
 2392              	.LBB1014:
 2393              	.LBB1012:
 2394              	.LBB1010:
 2395              	.LBI1010:
 2396              		.loc 19 272 15 view .LVU638
 2397              		.loc 19 272 15 is_stmt 0 view .LVU639
 2398              	.LBE1010:
 2399              	.LBE1012:
 2400              	.LBE1014:
 2401              	.LBE1016:
 2402              	.LBE1019:
 2403              	.LBE1071:
 2404              	.LBB1072:
 2405              	.LBI1056:
 2406              		.loc 18 74 5 is_stmt 1 view .LVU640
 2407              	.LBB1066:
 2408              	.LBB1064:
 2409              	.LBI1058:
  68:../../libDaisy//src/per/gpio.h ****         : pin(), mode(Mode::INPUT), pull(Pull::NOPULL), speed(Speed::LOW)
 2410              		.loc 18 68 9 view .LVU641
 2411              	.LBB1063:
 2412              	.LBB1062:
 2413              	.LBB1061:
 2414              	.LBI1061:
 2415              		.loc 19 272 15 view .LVU642
 2416              		.loc 19 272 15 is_stmt 0 view .LVU643
 2417              	.LBE1061:
 2418              	.LBE1062:
 2419              	.LBE1063:
 2420              	.LBE1064:
 2421              	.LBE1066:
 2422              	.LBE1072:
 2423              	.LBB1073:
 2424              	.LBI1044:
 2425              		.loc 18 74 5 is_stmt 1 view .LVU644
 2426              	.LBB1054:
 2427              	.LBB1046:
 2428              	.LBI1046:
  68:../../libDaisy//src/per/gpio.h ****         : pin(), mode(Mode::INPUT), pull(Pull::NOPULL), speed(Speed::LOW)
 2429              		.loc 18 68 9 view .LVU645
 2430              	.LBB1047:
 2431              	.LBB1048:
 2432              	.LBB1049:
 2433              	.LBI1049:
 2434              		.loc 19 272 15 view .LVU646
 2435              		.loc 19 272 15 is_stmt 0 view .LVU647
 2436              	.LBE1049:
ARM GAS  /var/folders/hl/qgbwny5j0fd895c2c41bk3tw0000gp/T//cc1L1gWC.s 			page 114


  69:../../libDaisy//src/per/gpio.h ****         {
 2437              		.loc 18 69 73 view .LVU648
 2438 0056 C2E90144 		strd	r4, r4, [r2, #4]
 2439              	.LBE1048:
 2440              	.LBE1047:
 2441              	.LBE1046:
 2442              	.LBE1054:
 2443              	.LBE1073:
  24:daisy_bed.h   ****     Pin newPinD7 = Pin(static_cast<GPIOPort>(oldPinD7.port), oldPinD7.pin);
 2444              		.loc 11 24 18 view .LVU649
 2445 005a 3948     		ldr	r0, .L101+40
 2446              	.LBB1074:
 2447              	.LBB1055:
 2448              	.LBB1052:
 2449              	.LBB1051:
 2450              	.LBB1050:
  69:../../libDaisy//src/per/gpio.h ****         {
 2451              		.loc 18 69 73 view .LVU650
 2452 005c D460     		str	r4, [r2, #12]
 2453              	.LVL132:
  69:../../libDaisy//src/per/gpio.h ****         {
 2454              		.loc 18 69 73 view .LVU651
 2455              	.LBE1050:
 2456              	.LBE1051:
 2457              	.LBE1052:
 2458              	.LBE1055:
 2459              	.LBE1074:
  24:daisy_bed.h   ****     Pin newPinD7 = Pin(static_cast<GPIOPort>(oldPinD7.port), oldPinD7.pin);
 2460              		.loc 11 24 18 view .LVU652
 2461 005e 1D88     		ldrh	r5, [r3]	@ unaligned
  26:daisy_bed.h   ****     Pin newPinA9 = Pin(static_cast<GPIOPort>(oldPinA9.port), oldPinA9.pin);
 2462              		.loc 11 26 18 view .LVU653
 2463 0060 0988     		ldrh	r1, [r1]	@ unaligned
 2464 0062 384B     		ldr	r3, .L101+44
  24:daisy_bed.h   ****     Pin newPinD7 = Pin(static_cast<GPIOPort>(oldPinD7.port), oldPinD7.pin);
 2465              		.loc 11 24 18 view .LVU654
 2466 0064 0580     		strh	r5, [r0]	@ unaligned
  26:daisy_bed.h   ****     Pin newPinA9 = Pin(static_cast<GPIOPort>(oldPinA9.port), oldPinA9.pin);
 2467              		.loc 11 26 18 view .LVU655
 2468 0066 1980     		strh	r1, [r3]	@ unaligned
 2469              	.LBB1075:
 2470              	.LBB1076:
 2471              	.LBB1077:
 269:../../libDaisy//src/daisy_core.h **** 
 2472              		.loc 19 269 74 view .LVU656
 2473 0068 374A     		ldr	r2, .L101+48
 2474              	.LBE1077:
 2475              	.LBE1076:
 2476              	.LBE1075:
  25:daisy_bed.h   ****     dsy_gpio_pin oldPinA9 = DaisyPatchSM::A9;
 2477              		.loc 11 25 55 view .LVU657
 2478 006a 0188     		ldrh	r1, [r0]
 2479              	.LVL133:
 2480              	.LBB1080:
 2481              	.LBI1075:
 269:../../libDaisy//src/daisy_core.h **** 
 2482              		.loc 19 269 15 is_stmt 1 view .LVU658
ARM GAS  /var/folders/hl/qgbwny5j0fd895c2c41bk3tw0000gp/T//cc1L1gWC.s 			page 115


 2483              	.LBE1080:
  32:daisy_bed.h   ****     Pin newPinD1 = Pin(static_cast<GPIOPort>(oldPinD1.port), oldPinD1.pin);
 2484              		.loc 11 32 18 is_stmt 0 view .LVU659
 2485 006c 3748     		ldr	r0, .L101+52
 2486              	.LBB1081:
 2487              	.LBB1079:
 2488              	.LBB1078:
 269:../../libDaisy//src/daisy_core.h **** 
 2489              		.loc 19 269 74 view .LVU660
 2490 006e 1180     		strh	r1, [r2]	@ movhi
 2491              	.LVL134:
 269:../../libDaisy//src/daisy_core.h **** 
 2492              		.loc 19 269 74 view .LVU661
 2493              	.LBE1078:
 2494              	.LBE1079:
 2495              	.LBE1081:
  30:daisy_bed.h   ****     Pin newPinD2 = Pin(static_cast<GPIOPort>(oldPinD2.port), oldPinD2.pin);
 2496              		.loc 11 30 18 view .LVU662
 2497 0070 3749     		ldr	r1, .L101+56
  32:daisy_bed.h   ****     Pin newPinD1 = Pin(static_cast<GPIOPort>(oldPinD1.port), oldPinD1.pin);
 2498              		.loc 11 32 18 view .LVU663
 2499 0072 0088     		ldrh	r0, [r0]	@ unaligned
  30:daisy_bed.h   ****     Pin newPinD2 = Pin(static_cast<GPIOPort>(oldPinD2.port), oldPinD2.pin);
 2500              		.loc 11 30 18 view .LVU664
 2501 0074 0D88     		ldrh	r5, [r1]	@ unaligned
  27:daisy_bed.h   **** 
 2502              		.loc 11 27 55 view .LVU665
 2503 0076 1988     		ldrh	r1, [r3]
 2504              	.LVL135:
 2505              	.LBB1082:
 2506              	.LBI1082:
 269:../../libDaisy//src/daisy_core.h **** 
 2507              		.loc 19 269 15 is_stmt 1 view .LVU666
 2508              	.LBB1083:
 2509              	.LBB1084:
 269:../../libDaisy//src/daisy_core.h **** 
 2510              		.loc 19 269 74 is_stmt 0 view .LVU667
 2511 0078 364B     		ldr	r3, .L101+60
 2512              	.LBE1084:
 2513              	.LBE1083:
 2514              	.LBE1082:
  30:daisy_bed.h   ****     Pin newPinD2 = Pin(static_cast<GPIOPort>(oldPinD2.port), oldPinD2.pin);
 2515              		.loc 11 30 18 view .LVU668
 2516 007a 374A     		ldr	r2, .L101+64
 2517              	.LBB1087:
 2518              	.LBB1086:
 2519              	.LBB1085:
 269:../../libDaisy//src/daisy_core.h **** 
 2520              		.loc 19 269 74 view .LVU669
 2521 007c 1980     		strh	r1, [r3]	@ movhi
 2522              	.LVL136:
 269:../../libDaisy//src/daisy_core.h **** 
 2523              		.loc 19 269 74 view .LVU670
 2524              	.LBE1085:
 2525              	.LBE1086:
 2526              	.LBE1087:
  32:daisy_bed.h   ****     Pin newPinD1 = Pin(static_cast<GPIOPort>(oldPinD1.port), oldPinD1.pin);
ARM GAS  /var/folders/hl/qgbwny5j0fd895c2c41bk3tw0000gp/T//cc1L1gWC.s 			page 116


 2527              		.loc 11 32 18 view .LVU671
 2528 007e 374B     		ldr	r3, .L101+68
  30:daisy_bed.h   ****     Pin newPinD2 = Pin(static_cast<GPIOPort>(oldPinD2.port), oldPinD2.pin);
 2529              		.loc 11 30 18 view .LVU672
 2530 0080 1580     		strh	r5, [r2]	@ unaligned
  32:daisy_bed.h   ****     Pin newPinD1 = Pin(static_cast<GPIOPort>(oldPinD1.port), oldPinD1.pin);
 2531              		.loc 11 32 18 view .LVU673
 2532 0082 1880     		strh	r0, [r3]	@ unaligned
  31:daisy_bed.h   ****     dsy_gpio_pin oldPinD1 = DaisyPatchSM::D1;
 2533              		.loc 11 31 55 view .LVU674
 2534 0084 1288     		ldrh	r2, [r2]
 2535              	.LVL137:
 2536              	.LBB1088:
 2537              	.LBI1088:
 269:../../libDaisy//src/daisy_core.h **** 
 2538              		.loc 19 269 15 is_stmt 1 view .LVU675
 2539              	.LBE1088:
  33:daisy_bed.h   ****     // ^^^ {DSY_GPIOB, 4},  /**< D1  - SPI2 CS */
 2540              		.loc 11 33 55 is_stmt 0 view .LVU676
 2541 0086 1D88     		ldrh	r5, [r3]
 2542              	.LBB1093:
 2543              	.LBB1089:
 2544              	.LBB1090:
 269:../../libDaisy//src/daisy_core.h **** 
 2545              		.loc 19 269 74 view .LVU677
 2546 0088 354B     		ldr	r3, .L101+72
 2547              	.LBE1090:
 2548              	.LBE1089:
 2549              	.LBE1093:
  37:daisy_bed.h   ****     Pin newPinD3 = Pin(static_cast<GPIOPort>(oldPinD3.port), oldPinD3.pin);
 2550              		.loc 11 37 18 view .LVU678
 2551 008a 3649     		ldr	r1, .L101+76
 2552              	.LBB1094:
 2553              	.LBB1092:
 2554              	.LBB1091:
 269:../../libDaisy//src/daisy_core.h **** 
 2555              		.loc 19 269 74 view .LVU679
 2556 008c 1A80     		strh	r2, [r3]	@ movhi
 2557              	.LVL138:
 269:../../libDaisy//src/daisy_core.h **** 
 2558              		.loc 19 269 74 view .LVU680
 2559              	.LBE1091:
 2560              	.LBE1092:
 2561              	.LBE1094:
 2562              	.LBB1095:
 2563              	.LBI1095:
 269:../../libDaisy//src/daisy_core.h **** 
 2564              		.loc 19 269 15 is_stmt 1 view .LVU681
 2565              	.LBE1095:
  39:daisy_bed.h   ****     Pin newPinD6 = Pin(static_cast<GPIOPort>(oldPinD6.port), oldPinD6.pin);
 2566              		.loc 11 39 18 is_stmt 0 view .LVU682
 2567 008e 364B     		ldr	r3, .L101+80
  37:daisy_bed.h   ****     Pin newPinD3 = Pin(static_cast<GPIOPort>(oldPinD3.port), oldPinD3.pin);
 2568              		.loc 11 37 18 view .LVU683
 2569 0090 B1F800E0 		ldrh	lr, [r1]	@ unaligned
  39:daisy_bed.h   ****     Pin newPinD6 = Pin(static_cast<GPIOPort>(oldPinD6.port), oldPinD6.pin);
 2570              		.loc 11 39 18 view .LVU684
ARM GAS  /var/folders/hl/qgbwny5j0fd895c2c41bk3tw0000gp/T//cc1L1gWC.s 			page 117


 2571 0094 B3F800C0 		ldrh	ip, [r3]	@ unaligned
  41:daisy_bed.h   ****     Pin newPinD4 = Pin(static_cast<GPIOPort>(oldPinD4.port), oldPinD4.pin);
 2572              		.loc 11 41 18 view .LVU685
 2573 0098 344B     		ldr	r3, .L101+84
 2574              	.LBB1100:
 2575              	.LBB1101:
 2576              	.LBB1102:
 269:../../libDaisy//src/daisy_core.h **** 
 2577              		.loc 19 269 74 view .LVU686
 2578 009a 3548     		ldr	r0, .L101+88
 2579              	.LBE1102:
 2580              	.LBE1101:
 2581              	.LBE1100:
  41:daisy_bed.h   ****     Pin newPinD4 = Pin(static_cast<GPIOPort>(oldPinD4.port), oldPinD4.pin);
 2582              		.loc 11 41 18 view .LVU687
 2583 009c 1988     		ldrh	r1, [r3]	@ unaligned
  43:daisy_bed.h   ****     Pin newPinD5 = Pin(static_cast<GPIOPort>(oldPinD5.port), oldPinD5.pin);
 2584              		.loc 11 43 18 view .LVU688
 2585 009e 354B     		ldr	r3, .L101+92
 2586 00a0 1A88     		ldrh	r2, [r3]	@ unaligned
  37:daisy_bed.h   ****     Pin newPinD3 = Pin(static_cast<GPIOPort>(oldPinD3.port), oldPinD3.pin);
 2587              		.loc 11 37 18 view .LVU689
 2588 00a2 354B     		ldr	r3, .L101+96
 2589 00a4 A3F800E0 		strh	lr, [r3]	@ unaligned
  38:daisy_bed.h   ****     dsy_gpio_pin oldPinD6 = DaisyPatchSM::D6;
 2590              		.loc 11 38 55 view .LVU690
 2591 00a8 B3F800E0 		ldrh	lr, [r3]
  39:daisy_bed.h   ****     Pin newPinD6 = Pin(static_cast<GPIOPort>(oldPinD6.port), oldPinD6.pin);
 2592              		.loc 11 39 18 view .LVU691
 2593 00ac 334B     		ldr	r3, .L101+100
 2594 00ae A3F800C0 		strh	ip, [r3]	@ unaligned
  40:daisy_bed.h   ****     dsy_gpio_pin oldPinD4 = DaisyPatchSM::D4;
 2595              		.loc 11 40 55 view .LVU692
 2596 00b2 1B88     		ldrh	r3, [r3]
 2597              	.LBB1105:
 2598              	.LBB1104:
 2599              	.LBB1103:
 269:../../libDaisy//src/daisy_core.h **** 
 2600              		.loc 19 269 74 view .LVU693
 2601 00b4 0380     		strh	r3, [r0]	@ movhi
 2602              	.LBE1103:
 2603              	.LBE1104:
 2604              	.LBE1105:
  41:daisy_bed.h   ****     Pin newPinD4 = Pin(static_cast<GPIOPort>(oldPinD4.port), oldPinD4.pin);
 2605              		.loc 11 41 18 view .LVU694
 2606 00b6 324B     		ldr	r3, .L101+104
 2607 00b8 1980     		strh	r1, [r3]	@ unaligned
  42:daisy_bed.h   ****     dsy_gpio_pin oldPinD5 = DaisyPatchSM::D5;
 2608              		.loc 11 42 55 view .LVU695
 2609 00ba B3F800C0 		ldrh	ip, [r3]
  43:daisy_bed.h   ****     Pin newPinD5 = Pin(static_cast<GPIOPort>(oldPinD5.port), oldPinD5.pin);
 2610              		.loc 11 43 18 view .LVU696
 2611 00be 314B     		ldr	r3, .L101+108
  49:daisy_bed.h   **** 
 2612              		.loc 11 49 17 view .LVU697
 2613 00c0 3149     		ldr	r1, .L101+112
  43:daisy_bed.h   ****     Pin newPinD5 = Pin(static_cast<GPIOPort>(oldPinD5.port), oldPinD5.pin);
ARM GAS  /var/folders/hl/qgbwny5j0fd895c2c41bk3tw0000gp/T//cc1L1gWC.s 			page 118


 2614              		.loc 11 43 18 view .LVU698
 2615 00c2 1A80     		strh	r2, [r3]	@ unaligned
  44:daisy_bed.h   **** 
 2616              		.loc 11 44 55 view .LVU699
 2617 00c4 1888     		ldrh	r0, [r3]
 2618              	.LBB1106:
 2619              	.LBB1096:
 2620              	.LBB1097:
 269:../../libDaisy//src/daisy_core.h **** 
 2621              		.loc 19 269 74 view .LVU700
 2622 00c6 314B     		ldr	r3, .L101+116
 2623              	.LBE1097:
 2624              	.LBE1096:
 2625              	.LBE1106:
  49:daisy_bed.h   **** 
 2626              		.loc 11 49 17 view .LVU701
 2627 00c8 314A     		ldr	r2, .L101+120
 2628              	.LBB1107:
 2629              	.LBB1099:
 2630              	.LBB1098:
 269:../../libDaisy//src/daisy_core.h **** 
 2631              		.loc 19 269 74 view .LVU702
 2632 00ca 1D80     		strh	r5, [r3]	@ movhi
 2633              	.LVL139:
 269:../../libDaisy//src/daisy_core.h **** 
 2634              		.loc 19 269 74 view .LVU703
 2635              	.LBE1098:
 2636              	.LBE1099:
 2637              	.LBE1107:
 2638              	.LBB1108:
 2639              	.LBI1108:
 269:../../libDaisy//src/daisy_core.h **** 
 2640              		.loc 19 269 15 is_stmt 1 view .LVU704
 2641              	.LBB1109:
 2642              	.LBB1110:
 269:../../libDaisy//src/daisy_core.h **** 
 2643              		.loc 19 269 74 is_stmt 0 view .LVU705
 2644 00cc 314B     		ldr	r3, .L101+124
 2645 00ce A3F800E0 		strh	lr, [r3]	@ movhi
 2646              	.LVL140:
 269:../../libDaisy//src/daisy_core.h **** 
 2647              		.loc 19 269 74 view .LVU706
 2648              	.LBE1110:
 2649              	.LBE1109:
 2650              	.LBE1108:
 2651              	.LBB1111:
 2652              	.LBI1100:
 269:../../libDaisy//src/daisy_core.h **** 
 2653              		.loc 19 269 15 is_stmt 1 view .LVU707
 269:../../libDaisy//src/daisy_core.h **** 
 2654              		.loc 19 269 15 is_stmt 0 view .LVU708
 2655              	.LBE1111:
 2656              	.LBB1112:
 2657              	.LBI1112:
 269:../../libDaisy//src/daisy_core.h **** 
 2658              		.loc 19 269 15 is_stmt 1 view .LVU709
 2659              	.LBB1113:
ARM GAS  /var/folders/hl/qgbwny5j0fd895c2c41bk3tw0000gp/T//cc1L1gWC.s 			page 119


 2660              	.LBB1114:
 269:../../libDaisy//src/daisy_core.h **** 
 2661              		.loc 19 269 74 is_stmt 0 view .LVU710
 2662 00d2 314B     		ldr	r3, .L101+128
 2663 00d4 A3F800C0 		strh	ip, [r3]	@ movhi
 2664              	.LVL141:
 269:../../libDaisy//src/daisy_core.h **** 
 2665              		.loc 19 269 74 view .LVU711
 2666              	.LBE1114:
 2667              	.LBE1113:
 2668              	.LBE1112:
 2669              	.LBB1115:
 2670              	.LBI1115:
 269:../../libDaisy//src/daisy_core.h **** 
 2671              		.loc 19 269 15 is_stmt 1 view .LVU712
 2672              	.LBB1116:
 2673              	.LBB1117:
 269:../../libDaisy//src/daisy_core.h **** 
 2674              		.loc 19 269 74 is_stmt 0 view .LVU713
 2675 00d8 304B     		ldr	r3, .L101+132
 2676 00da 1880     		strh	r0, [r3]	@ movhi
 2677              	.LVL142:
 269:../../libDaisy//src/daisy_core.h **** 
 2678              		.loc 19 269 74 view .LVU714
 2679              	.LBE1117:
 2680              	.LBE1116:
 2681              	.LBE1115:
 2682              	.LBB1118:
 2683              	.LBI1118:
  41:../../libDaisy//src/hid/switch.h ****     ~Switch() {}
 2684              		.loc 1 41 5 is_stmt 1 view .LVU715
  41:../../libDaisy//src/hid/switch.h ****     ~Switch() {}
 2685              		.loc 1 41 5 is_stmt 0 view .LVU716
 2686              	.LBE1118:
  49:daisy_bed.h   **** 
 2687              		.loc 11 49 17 view .LVU717
 2688 00dc 3048     		ldr	r0, .L101+136
 2689 00de FFF7FEFF 		bl	__aeabi_atexit
 2690              	.LVL143:
 2691              	.LBB1119:
 2692              	.LBI1119:
  41:../../libDaisy//src/hid/switch.h ****     ~Switch() {}
 2693              		.loc 1 41 5 is_stmt 1 view .LVU718
  41:../../libDaisy//src/hid/switch.h ****     ~Switch() {}
 2694              		.loc 1 41 5 is_stmt 0 view .LVU719
 2695              	.LBE1119:
  49:daisy_bed.h   **** 
 2696              		.loc 11 49 20 view .LVU720
 2697 00e2 2B4A     		ldr	r2, .L101+120
 2698 00e4 2849     		ldr	r1, .L101+112
 2699 00e6 2F48     		ldr	r0, .L101+140
 2700 00e8 FFF7FEFF 		bl	__aeabi_atexit
 2701              	.LVL144:
 2702              	.LBB1120:
 2703              	.LBI1120:
  64:../../libDaisy//src/daisy_patch_sm.h ****         ~DaisyPatchSM() {}
 2704              		.loc 2 64 9 is_stmt 1 view .LVU721
ARM GAS  /var/folders/hl/qgbwny5j0fd895c2c41bk3tw0000gp/T//cc1L1gWC.s 			page 120


 2705              	.LBB1121:
 2706              	.LBB1122:
 2707              	.LBI1122:
  77:../../libDaisy//src/sys/system.h ****     ~System() {}
 2708              		.loc 8 77 5 view .LVU722
  77:../../libDaisy//src/sys/system.h ****     ~System() {}
 2709              		.loc 8 77 5 is_stmt 0 view .LVU723
 2710              	.LBE1122:
 2711              	.LBB1123:
 2712              	.LBI1123:
 2713              		.file 20 "../../libDaisy//src/per/qspi.h"
   1:../../libDaisy//src/per/qspi.h **** #ifndef DSY_QSPI
   2:../../libDaisy//src/per/qspi.h **** #define DSY_QSPI /**< Macro */
   3:../../libDaisy//src/per/qspi.h **** 
   4:../../libDaisy//src/per/qspi.h **** #ifndef UNIT_TEST // for unit tests, a dummy implementation
   5:../../libDaisy//src/per/qspi.h **** 
   6:../../libDaisy//src/per/qspi.h **** #include <cstdint>
   7:../../libDaisy//src/per/qspi.h **** #include "daisy_core.h" // Added for dsy_gpio_pin typedef
   8:../../libDaisy//src/per/qspi.h **** 
   9:../../libDaisy//src/per/qspi.h **** #define DSY_QSPI_TEXT       \
  10:../../libDaisy//src/per/qspi.h ****     __attribute__((section( \
  11:../../libDaisy//src/per/qspi.h ****         ".qspiflash_text"))) /**< used for reading memory in memory_mapped mode. */
  12:../../libDaisy//src/per/qspi.h **** #define DSY_QSPI_DATA       \
  13:../../libDaisy//src/per/qspi.h ****     __attribute__((section( \
  14:../../libDaisy//src/per/qspi.h ****         ".qspiflash_data"))) /**< used for reading memory in memory_mapped mode. */
  15:../../libDaisy//src/per/qspi.h **** #define DSY_QSPI_BSS        \
  16:../../libDaisy//src/per/qspi.h ****     __attribute__((section( \
  17:../../libDaisy//src/per/qspi.h ****         ".qspiflash_bss"))) /**< used for reading memory in memory_mapped mode. */
  18:../../libDaisy//src/per/qspi.h **** 
  19:../../libDaisy//src/per/qspi.h **** namespace daisy
  20:../../libDaisy//src/per/qspi.h **** {
  21:../../libDaisy//src/per/qspi.h **** /** @addtogroup serial
  22:../../libDaisy//src/per/qspi.h **** @{
  23:../../libDaisy//src/per/qspi.h **** */
  24:../../libDaisy//src/per/qspi.h **** 
  25:../../libDaisy//src/per/qspi.h **** /** 
  26:../../libDaisy//src/per/qspi.h ****  Driver for QSPI peripheral to interface with external flash memory. \n 
  27:../../libDaisy//src/per/qspi.h ****     Currently supported QSPI Devices: \n 
  28:../../libDaisy//src/per/qspi.h ****     * IS25LP080D
  29:../../libDaisy//src/per/qspi.h **** */
  30:../../libDaisy//src/per/qspi.h **** class QSPIHandle
  31:../../libDaisy//src/per/qspi.h **** {
  32:../../libDaisy//src/per/qspi.h ****   public:
  33:../../libDaisy//src/per/qspi.h ****     enum Result
  34:../../libDaisy//src/per/qspi.h ****     {
  35:../../libDaisy//src/per/qspi.h ****         OK = 0,
  36:../../libDaisy//src/per/qspi.h ****         ERR
  37:../../libDaisy//src/per/qspi.h ****     };
  38:../../libDaisy//src/per/qspi.h **** 
  39:../../libDaisy//src/per/qspi.h ****     /** Indicates the current status of the module. 
  40:../../libDaisy//src/per/qspi.h ****          *  Warnings are indicated by a leading W.
  41:../../libDaisy//src/per/qspi.h ****          *  Errors are indicated by a leading E and cause an immediate exit.
  42:../../libDaisy//src/per/qspi.h ****          * 
  43:../../libDaisy//src/per/qspi.h ****          *  \param GOOD - No errors have been reported.
  44:../../libDaisy//src/per/qspi.h ****          *  \param E_HAL_ERROR - HAL code did not return HAL_OK.
  45:../../libDaisy//src/per/qspi.h ****          *  \param E_SWITCHING_MODES - An error was encountered while switching QSPI peripheral mod
  46:../../libDaisy//src/per/qspi.h ****          *  \param E_INVALID_MODE - QSPI should not be written to while the program is executing fr
ARM GAS  /var/folders/hl/qgbwny5j0fd895c2c41bk3tw0000gp/T//cc1L1gWC.s 			page 121


  47:../../libDaisy//src/per/qspi.h ****          */
  48:../../libDaisy//src/per/qspi.h ****     enum Status
  49:../../libDaisy//src/per/qspi.h ****     {
  50:../../libDaisy//src/per/qspi.h ****         GOOD = 0,
  51:../../libDaisy//src/per/qspi.h ****         E_HAL_ERROR,
  52:../../libDaisy//src/per/qspi.h ****         E_SWITCHING_MODES,
  53:../../libDaisy//src/per/qspi.h ****         E_INVALID_MODE,
  54:../../libDaisy//src/per/qspi.h ****     };
  55:../../libDaisy//src/per/qspi.h **** 
  56:../../libDaisy//src/per/qspi.h ****     /** Configuration structure for interfacing with QSPI Driver */
  57:../../libDaisy//src/per/qspi.h ****     struct Config
  58:../../libDaisy//src/per/qspi.h ****     {
  59:../../libDaisy//src/per/qspi.h ****         /** Flash Devices supported. (Both of these are more-or-less the same, just different sizes
  60:../../libDaisy//src/per/qspi.h ****         enum Device
  61:../../libDaisy//src/per/qspi.h ****         {
  62:../../libDaisy//src/per/qspi.h ****             IS25LP080D,  /**< & */
  63:../../libDaisy//src/per/qspi.h ****             IS25LP064A,  /**< & */
  64:../../libDaisy//src/per/qspi.h ****             DEVICE_LAST, /**< & */
  65:../../libDaisy//src/per/qspi.h ****         };
  66:../../libDaisy//src/per/qspi.h **** 
  67:../../libDaisy//src/per/qspi.h ****         /** 
  68:../../libDaisy//src/per/qspi.h ****         Modes of operation.
  69:../../libDaisy//src/per/qspi.h ****         Memory Mapped mode: QSPI configured so that the QSPI can be
  70:../../libDaisy//src/per/qspi.h ****         read from starting address 0x90000000. Writing is not
  71:../../libDaisy//src/per/qspi.h ****         possible in this mode. \n 
  72:../../libDaisy//src/per/qspi.h ****         Indirect Polling mode: Device driver enabled. 
  73:../../libDaisy//src/per/qspi.h ****         */
  74:../../libDaisy//src/per/qspi.h ****         enum Mode
  75:../../libDaisy//src/per/qspi.h ****         {
  76:../../libDaisy//src/per/qspi.h ****             MEMORY_MAPPED,    /**< & */
  77:../../libDaisy//src/per/qspi.h ****             INDIRECT_POLLING, /**< & */
  78:../../libDaisy//src/per/qspi.h ****             MODE_LAST,
  79:../../libDaisy//src/per/qspi.h ****         };
  80:../../libDaisy//src/per/qspi.h **** 
  81:../../libDaisy//src/per/qspi.h ****         //SCK,  CE# (active low)
  82:../../libDaisy//src/per/qspi.h ****         struct
  83:../../libDaisy//src/per/qspi.h ****         {
  84:../../libDaisy//src/per/qspi.h ****             dsy_gpio_pin io0; /**< & */
  85:../../libDaisy//src/per/qspi.h ****             dsy_gpio_pin io1; /**< & */
  86:../../libDaisy//src/per/qspi.h ****             dsy_gpio_pin io2; /**< & */
  87:../../libDaisy//src/per/qspi.h ****             dsy_gpio_pin io3; /**< & */
  88:../../libDaisy//src/per/qspi.h ****             dsy_gpio_pin clk; /**< & */
  89:../../libDaisy//src/per/qspi.h ****             dsy_gpio_pin ncs; /**< & */
  90:../../libDaisy//src/per/qspi.h ****         } pin_config;
  91:../../libDaisy//src/per/qspi.h **** 
  92:../../libDaisy//src/per/qspi.h ****         Device device;
  93:../../libDaisy//src/per/qspi.h ****         Mode   mode;
  94:../../libDaisy//src/per/qspi.h ****     };
  95:../../libDaisy//src/per/qspi.h **** 
  96:../../libDaisy//src/per/qspi.h ****     /** 
  97:../../libDaisy//src/per/qspi.h ****         Initializes QSPI peripheral, and Resets, and prepares memory for access.
  98:../../libDaisy//src/per/qspi.h ****         \param config should be populated with the mode, device and pin_config before calling this 
  99:../../libDaisy//src/per/qspi.h ****         \return Result::OK or Result::ERR
 100:../../libDaisy//src/per/qspi.h ****         */
 101:../../libDaisy//src/per/qspi.h ****     Result Init(const Config& config);
 102:../../libDaisy//src/per/qspi.h **** 
 103:../../libDaisy//src/per/qspi.h ****     /** Returns the current config. */
ARM GAS  /var/folders/hl/qgbwny5j0fd895c2c41bk3tw0000gp/T//cc1L1gWC.s 			page 122


 104:../../libDaisy//src/per/qspi.h ****     const Config& GetConfig() const;
 105:../../libDaisy//src/per/qspi.h **** 
 106:../../libDaisy//src/per/qspi.h ****     // Couldn't this just be called before anything else in init? That
 107:../../libDaisy//src/per/qspi.h ****     // would make manually calling it unnecessary.
 108:../../libDaisy//src/per/qspi.h ****     /** 
 109:../../libDaisy//src/per/qspi.h ****         Deinitializes the peripheral
 110:../../libDaisy//src/per/qspi.h ****         This should be called before reinitializing QSPI in a different mode.
 111:../../libDaisy//src/per/qspi.h ****         \return Result::OK or Result::ERR
 112:../../libDaisy//src/per/qspi.h ****         */
 113:../../libDaisy//src/per/qspi.h ****     Result DeInit();
 114:../../libDaisy//src/per/qspi.h **** 
 115:../../libDaisy//src/per/qspi.h ****     /** 
 116:../../libDaisy//src/per/qspi.h ****         Writes a single page to to the specified address on the QSPI chip.
 117:../../libDaisy//src/per/qspi.h ****         For IS25LP*, page size is 256 bytes.
 118:../../libDaisy//src/per/qspi.h ****         \param address Address to write to
 119:../../libDaisy//src/per/qspi.h ****         \param size Buffer size
 120:../../libDaisy//src/per/qspi.h ****         \param buffer Buffer to write
 121:../../libDaisy//src/per/qspi.h ****         \return Result::OK or Result::ERR
 122:../../libDaisy//src/per/qspi.h ****         */
 123:../../libDaisy//src/per/qspi.h ****     Result WritePage(uint32_t address, uint32_t size, uint8_t* buffer);
 124:../../libDaisy//src/per/qspi.h **** 
 125:../../libDaisy//src/per/qspi.h ****     /** 
 126:../../libDaisy//src/per/qspi.h ****         Writes data in buffer to to the QSPI. Starting at address to address+size 
 127:../../libDaisy//src/per/qspi.h ****         \param address Address to write to
 128:../../libDaisy//src/per/qspi.h ****         \param size Buffer size
 129:../../libDaisy//src/per/qspi.h ****         \param buffer Buffer to write
 130:../../libDaisy//src/per/qspi.h ****         \return Result::OK or Result::ERR
 131:../../libDaisy//src/per/qspi.h ****         */
 132:../../libDaisy//src/per/qspi.h ****     Result Write(uint32_t address, uint32_t size, uint8_t* buffer);
 133:../../libDaisy//src/per/qspi.h **** 
 134:../../libDaisy//src/per/qspi.h ****     /** 
 135:../../libDaisy//src/per/qspi.h ****         Erases the area specified on the chip.
 136:../../libDaisy//src/per/qspi.h ****         Erasures will happen by 4K, 32K or 64K increments.
 137:../../libDaisy//src/per/qspi.h ****         Smallest erase possible is 4kB at a time. (on IS25LP*)
 138:../../libDaisy//src/per/qspi.h ****         \param start_addr Address to begin erasing from
 139:../../libDaisy//src/per/qspi.h ****         \param end_addr  Address to stop erasing at
 140:../../libDaisy//src/per/qspi.h ****         \return Result::OK or Result::ERR
 141:../../libDaisy//src/per/qspi.h ****         */
 142:../../libDaisy//src/per/qspi.h ****     Result Erase(uint32_t start_addr, uint32_t end_addr);
 143:../../libDaisy//src/per/qspi.h **** 
 144:../../libDaisy//src/per/qspi.h ****     /**  
 145:../../libDaisy//src/per/qspi.h ****          Erases a single sector of the chip.  
 146:../../libDaisy//src/per/qspi.h ****         TODO: Document the size of this function. 
 147:../../libDaisy//src/per/qspi.h ****         \param address Address of sector to erase
 148:../../libDaisy//src/per/qspi.h ****         \return Result::OK or Result::ERR
 149:../../libDaisy//src/per/qspi.h ****         */
 150:../../libDaisy//src/per/qspi.h ****     Result EraseSector(uint32_t address);
 151:../../libDaisy//src/per/qspi.h **** 
 152:../../libDaisy//src/per/qspi.h ****     /** Returns the current class status. Useful for debugging.
 153:../../libDaisy//src/per/qspi.h ****      *  \returns Status
 154:../../libDaisy//src/per/qspi.h ****      */
 155:../../libDaisy//src/per/qspi.h ****     Status GetStatus();
 156:../../libDaisy//src/per/qspi.h **** 
 157:../../libDaisy//src/per/qspi.h ****     /** Returns a pointer to the actual memory used 
 158:../../libDaisy//src/per/qspi.h ****      *  The memory at this address is read-only
 159:../../libDaisy//src/per/qspi.h ****      *  to write to it use the Write function.
 160:../../libDaisy//src/per/qspi.h ****      * 
ARM GAS  /var/folders/hl/qgbwny5j0fd895c2c41bk3tw0000gp/T//cc1L1gWC.s 			page 123


 161:../../libDaisy//src/per/qspi.h ****      *  \param offset returns the pointer starting this 
 162:../../libDaisy//src/per/qspi.h ****      *                many bytes into the memory
 163:../../libDaisy//src/per/qspi.h ****     */
 164:../../libDaisy//src/per/qspi.h ****     void* GetData(uint32_t offset = 0);
 165:../../libDaisy//src/per/qspi.h **** 
 166:../../libDaisy//src/per/qspi.h ****     QSPIHandle() : pimpl_(nullptr) {}
 2714              		.loc 20 166 5 is_stmt 1 view .LVU724
 2715              	.LBB1124:
 2716              	.LBB1125:
 2717              		.loc 20 166 34 is_stmt 0 view .LVU725
 2718 00ec 2E48     		ldr	r0, .L101+144
 2719              	.LBE1125:
 2720              	.LBE1124:
 2721              	.LBE1123:
 2722              	.LBE1121:
 2723              	.LBE1120:
  13:Convolution.cpp **** cLooper					loop;
 2724              		.loc 12 13 17 view .LVU726
 2725 00ee 2F49     		ldr	r1, .L101+148
 2726 00f0 274A     		ldr	r2, .L101+120
 2727              	.LBB1147:
 2728              	.LBB1145:
 2729              	.LBB1126:
 2730              	.LBB1127:
 2731              	.LBB1128:
 2732              	.LBB1129:
 2733              	.LBB1130:
 2734              		.file 21 "../../libDaisy//src/per/i2c.h"
   1:../../libDaisy//src/per/i2c.h **** #pragma once
   2:../../libDaisy//src/per/i2c.h **** #include "daisy_core.h"
   3:../../libDaisy//src/per/i2c.h **** 
   4:../../libDaisy//src/per/i2c.h **** namespace daisy
   5:../../libDaisy//src/per/i2c.h **** {
   6:../../libDaisy//src/per/i2c.h **** /** A handle for interacting with an I2C peripheral. This is a dumb
   7:../../libDaisy//src/per/i2c.h ****  *  gateway that internally points to one of the four I2C peripherals
   8:../../libDaisy//src/per/i2c.h ****  *  after it was initialised. It can then be copied and passed around.
   9:../../libDaisy//src/per/i2c.h ****  *  Use an I2CHandle like this:
  10:../../libDaisy//src/per/i2c.h ****  *  
  11:../../libDaisy//src/per/i2c.h ****  *      // setup the configuration
  12:../../libDaisy//src/per/i2c.h ****  *      I2CHandle::Config i2c_conf;
  13:../../libDaisy//src/per/i2c.h ****  *      i2c_conf.periph = I2CHandle::Config::Peripheral::I2C_1;
  14:../../libDaisy//src/per/i2c.h ****  *      i2c_conf.speed  = I2CHandle::Config::Speed::I2C_400KHZ;
  15:../../libDaisy//src/per/i2c.h ****  *      i2c_conf.mode   = I2CHandle::Config::Mode::Master;
  16:../../libDaisy//src/per/i2c.h ****  *      i2c_conf.pin_config.scl  = {DSY_GPIOB, 8};
  17:../../libDaisy//src/per/i2c.h ****  *      i2c_conf.pin_config.sda  = {DSY_GPIOB, 9};
  18:../../libDaisy//src/per/i2c.h ****  *      // initialise the peripheral
  19:../../libDaisy//src/per/i2c.h ****  *      I2CHandle i2c;
  20:../../libDaisy//src/per/i2c.h ****  *      i2c.Init(i2c_conf);
  21:../../libDaisy//src/per/i2c.h ****  *      // now i2c points to the corresponding peripheral and can be used.
  22:../../libDaisy//src/per/i2c.h ****  *      i2c.TransmitBlocking( ... );
  23:../../libDaisy//src/per/i2c.h ****  */
  24:../../libDaisy//src/per/i2c.h **** class I2CHandle
  25:../../libDaisy//src/per/i2c.h **** {
  26:../../libDaisy//src/per/i2c.h ****   public:
  27:../../libDaisy//src/per/i2c.h ****     /** Contains settings for initialising an I2C interface. */
  28:../../libDaisy//src/per/i2c.h ****     struct Config
  29:../../libDaisy//src/per/i2c.h ****     {
ARM GAS  /var/folders/hl/qgbwny5j0fd895c2c41bk3tw0000gp/T//cc1L1gWC.s 			page 124


  30:../../libDaisy//src/per/i2c.h ****         /** Specifies whether the interface will operate in master or slave mode. */
  31:../../libDaisy//src/per/i2c.h ****         enum class Mode
  32:../../libDaisy//src/per/i2c.h ****         {
  33:../../libDaisy//src/per/i2c.h ****             I2C_MASTER,
  34:../../libDaisy//src/per/i2c.h ****             I2C_SLAVE,
  35:../../libDaisy//src/per/i2c.h ****         };
  36:../../libDaisy//src/per/i2c.h **** 
  37:../../libDaisy//src/per/i2c.h ****         /** Specifices the internal peripheral to use (these are mapped to different pins on the ha
  38:../../libDaisy//src/per/i2c.h ****         enum class Peripheral
  39:../../libDaisy//src/per/i2c.h ****         {
  40:../../libDaisy//src/per/i2c.h ****             I2C_1 = 0, /**< & */
  41:../../libDaisy//src/per/i2c.h ****             I2C_2,     /**< & */
  42:../../libDaisy//src/per/i2c.h ****             I2C_3,     /**< & */
  43:../../libDaisy//src/per/i2c.h ****             I2C_4,     /**< & */
  44:../../libDaisy//src/per/i2c.h ****         };
  45:../../libDaisy//src/per/i2c.h **** 
  46:../../libDaisy//src/per/i2c.h ****         /** Rate at which the clock/data will be sent/received. The device being used will have max
  47:../../libDaisy//src/per/i2c.h ****          *  1MHZ Mode is currently 886kHz
  48:../../libDaisy//src/per/i2c.h ****          */
  49:../../libDaisy//src/per/i2c.h ****         enum class Speed
  50:../../libDaisy//src/per/i2c.h ****         {
  51:../../libDaisy//src/per/i2c.h ****             I2C_100KHZ, /**< & */
  52:../../libDaisy//src/per/i2c.h ****             I2C_400KHZ, /**< & */
  53:../../libDaisy//src/per/i2c.h ****             I2C_1MHZ,   /**< & */
  54:../../libDaisy//src/per/i2c.h ****         };
  55:../../libDaisy//src/per/i2c.h **** 
  56:../../libDaisy//src/per/i2c.h ****         Peripheral periph; /**< & */
  57:../../libDaisy//src/per/i2c.h ****         struct
  58:../../libDaisy//src/per/i2c.h ****         {
  59:../../libDaisy//src/per/i2c.h ****             dsy_gpio_pin scl; /**< & */
  60:../../libDaisy//src/per/i2c.h ****             dsy_gpio_pin sda; /**< & */
  61:../../libDaisy//src/per/i2c.h ****         } pin_config;         /**< & */
  62:../../libDaisy//src/per/i2c.h **** 
  63:../../libDaisy//src/per/i2c.h ****         Speed speed; /**< & */
  64:../../libDaisy//src/per/i2c.h ****         Mode  mode;  /**< & */
  65:../../libDaisy//src/per/i2c.h ****         // 0x10 is chosen as a default to avoid conflicts with reserved addresses
  66:../../libDaisy//src/per/i2c.h ****         uint8_t address = 0x10; /**< & */
  67:../../libDaisy//src/per/i2c.h ****     };
  68:../../libDaisy//src/per/i2c.h **** 
  69:../../libDaisy//src/per/i2c.h ****     /** Return values for I2C functions. */
  70:../../libDaisy//src/per/i2c.h ****     enum class Result
  71:../../libDaisy//src/per/i2c.h ****     {
  72:../../libDaisy//src/per/i2c.h ****         OK, /**< & */
  73:../../libDaisy//src/per/i2c.h ****         ERR /**< & */
  74:../../libDaisy//src/per/i2c.h ****     };
  75:../../libDaisy//src/per/i2c.h **** 
  76:../../libDaisy//src/per/i2c.h ****     enum class Direction
  77:../../libDaisy//src/per/i2c.h ****     {
  78:../../libDaisy//src/per/i2c.h ****         TRANSMIT, /**< & */
  79:../../libDaisy//src/per/i2c.h ****         RECEIVE,  /**< & */
  80:../../libDaisy//src/per/i2c.h ****     };
  81:../../libDaisy//src/per/i2c.h **** 
  82:../../libDaisy//src/per/i2c.h ****     I2CHandle() : pimpl_(nullptr) {}
 2735              		.loc 21 82 33 view .LVU727
 2736 00f2 0462     		str	r4, [r0, #32]
 2737              	.LBE1130:
 2738              	.LBE1129:
ARM GAS  /var/folders/hl/qgbwny5j0fd895c2c41bk3tw0000gp/T//cc1L1gWC.s 			page 125


 2739              	.LBE1128:
 2740              	.LBE1127:
 2741              	.LBE1126:
 2742              	.LBB1133:
 2743              	.LBB1134:
 2744              	.LBB1135:
 2745              		.file 22 "../../libDaisy//src/per/dac.h"
   1:../../libDaisy//src/per/dac.h **** #pragma once
   2:../../libDaisy//src/per/dac.h **** #ifndef DSY_DAC_H
   3:../../libDaisy//src/per/dac.h **** #define DSY_DAC_H
   4:../../libDaisy//src/per/dac.h **** 
   5:../../libDaisy//src/per/dac.h **** #include "daisy_core.h"
   6:../../libDaisy//src/per/dac.h **** 
   7:../../libDaisy//src/per/dac.h **** namespace daisy
   8:../../libDaisy//src/per/dac.h **** {
   9:../../libDaisy//src/per/dac.h **** /** @brief DAC handle for Built-in DAC Peripheral 
  10:../../libDaisy//src/per/dac.h ****  *  @ingroup per_analog
  11:../../libDaisy//src/per/dac.h ****  ** 
  12:../../libDaisy//src/per/dac.h ****  ** For now only Normal Mode is supported,
  13:../../libDaisy//src/per/dac.h ****  ** Sample and hold mode provides reduced power consumption, but requires a bit more setup.
  14:../../libDaisy//src/per/dac.h ****  **
  15:../../libDaisy//src/per/dac.h ****  ** For now connecting the DAC through other internal peripherals is also not supported.
  16:../../libDaisy//src/per/dac.h ****  **
  17:../../libDaisy//src/per/dac.h ****  ** Since the DAC channels have dedicated pins we don't need to pass in a pin config like with
  18:../../libDaisy//src/per/dac.h ****  ** other modules. However, it is still important to not try to use the DAC pins for anything else.
  19:../../libDaisy//src/per/dac.h ****  ** DAC Channel 1 is on PA4, and DAC Channel 2 is on PA5
  20:../../libDaisy//src/per/dac.h ****  ***/
  21:../../libDaisy//src/per/dac.h **** class DacHandle
  22:../../libDaisy//src/per/dac.h **** {
  23:../../libDaisy//src/per/dac.h ****   public:
  24:../../libDaisy//src/per/dac.h ****     /** Return Values for the DacHandle class */
  25:../../libDaisy//src/per/dac.h ****     enum class Result
  26:../../libDaisy//src/per/dac.h ****     {
  27:../../libDaisy//src/per/dac.h ****         OK,
  28:../../libDaisy//src/per/dac.h ****         ERR,
  29:../../libDaisy//src/per/dac.h ****     };
  30:../../libDaisy//src/per/dac.h **** 
  31:../../libDaisy//src/per/dac.h ****     /** Selects which channel(s) will be configured for use. */
  32:../../libDaisy//src/per/dac.h ****     enum class Channel
  33:../../libDaisy//src/per/dac.h ****     {
  34:../../libDaisy//src/per/dac.h ****         ONE,
  35:../../libDaisy//src/per/dac.h ****         TWO,
  36:../../libDaisy//src/per/dac.h ****         BOTH,
  37:../../libDaisy//src/per/dac.h ****     };
  38:../../libDaisy//src/per/dac.h **** 
  39:../../libDaisy//src/per/dac.h ****     /** Sets the Mode for the DAC channels.
  40:../../libDaisy//src/per/dac.h ****      **
  41:../../libDaisy//src/per/dac.h ****      ** Polling mode uses the blocking mode to transmit a single value at a time.
  42:../../libDaisy//src/per/dac.h ****      **
  43:../../libDaisy//src/per/dac.h ****      ** DMA mode uses a buffer, and periodically transmits it triggering a 
  44:../../libDaisy//src/per/dac.h ****      ** callback to fill the buffer when it is ready for more samples.
  45:../../libDaisy//src/per/dac.h ****      ***/
  46:../../libDaisy//src/per/dac.h ****     enum class Mode
  47:../../libDaisy//src/per/dac.h ****     {
  48:../../libDaisy//src/per/dac.h ****         POLLING,
  49:../../libDaisy//src/per/dac.h ****         DMA,
  50:../../libDaisy//src/per/dac.h ****     };
ARM GAS  /var/folders/hl/qgbwny5j0fd895c2c41bk3tw0000gp/T//cc1L1gWC.s 			page 126


  51:../../libDaisy//src/per/dac.h **** 
  52:../../libDaisy//src/per/dac.h ****     /** Sets the number of bits per sample transmitted out of the DAC.
  53:../../libDaisy//src/per/dac.h ****      ** The output range will be: 0V - VDDA
  54:../../libDaisy//src/per/dac.h ****      ** The resolution will be roughly: bitdepth / (VDDA - 0V) 
  55:../../libDaisy//src/per/dac.h ****      ***/
  56:../../libDaisy//src/per/dac.h ****     enum class BitDepth
  57:../../libDaisy//src/per/dac.h ****     {
  58:../../libDaisy//src/per/dac.h ****         BITS_8,
  59:../../libDaisy//src/per/dac.h ****         BITS_12
  60:../../libDaisy//src/per/dac.h ****     };
  61:../../libDaisy//src/per/dac.h **** 
  62:../../libDaisy//src/per/dac.h ****     /** Sets whether the DAC output is buffered for higher drive ability. */
  63:../../libDaisy//src/per/dac.h ****     enum class BufferState
  64:../../libDaisy//src/per/dac.h ****     {
  65:../../libDaisy//src/per/dac.h ****         ENABLED,
  66:../../libDaisy//src/per/dac.h ****         DISABLED,
  67:../../libDaisy//src/per/dac.h ****     };
  68:../../libDaisy//src/per/dac.h **** 
  69:../../libDaisy//src/per/dac.h ****     /** Configuration structure for initializing the DAC structure. */
  70:../../libDaisy//src/per/dac.h ****     struct Config
  71:../../libDaisy//src/per/dac.h ****     {
  72:../../libDaisy//src/per/dac.h ****         /** Target Samplerate in Hz used to configure the internal 
  73:../../libDaisy//src/per/dac.h ****          ** timebase for DMA mode. Does nothing in POLLING mode.
  74:../../libDaisy//src/per/dac.h ****          ** If the value is 0 at Init time this will default to 48000Hz 
  75:../../libDaisy//src/per/dac.h ****          ** otherwise the driver will attempt meet the target.*/
  76:../../libDaisy//src/per/dac.h ****         uint32_t target_samplerate;
  77:../../libDaisy//src/per/dac.h **** 
  78:../../libDaisy//src/per/dac.h ****         Channel     chn;
  79:../../libDaisy//src/per/dac.h ****         Mode        mode;
  80:../../libDaisy//src/per/dac.h ****         BitDepth    bitdepth;
  81:../../libDaisy//src/per/dac.h ****         BufferState buff_state;
  82:../../libDaisy//src/per/dac.h ****     };
  83:../../libDaisy//src/per/dac.h **** 
  84:../../libDaisy//src/per/dac.h ****     DacHandle() : pimpl_(nullptr) {}
 2746              		.loc 22 84 33 view .LVU728
 2747 00f4 8462     		str	r4, [r0, #40]
 2748              	.LBE1135:
 2749              	.LBE1134:
 2750              	.LBE1133:
 2751              	.LBB1136:
 2752              	.LBB1137:
 2753              	.LBB1138:
  95:../../libDaisy//src/hid/audio.h ****     ~AudioHandle() {}
 2754              		.loc 7 95 35 view .LVU729
 2755 00f6 C0E90344 		strd	r4, r4, [r0, #12]
 2756              	.LVL145:
  95:../../libDaisy//src/hid/audio.h ****     ~AudioHandle() {}
 2757              		.loc 7 95 35 view .LVU730
 2758              	.LBE1138:
 2759              	.LBE1137:
 2760              	.LBE1136:
 2761              	.LBB1139:
 2762              	.LBI1139:
  92:../../libDaisy//src/per/adc.h ****     ~AdcHandle() {}
 2763              		.loc 6 92 5 is_stmt 1 view .LVU731
  92:../../libDaisy//src/per/adc.h ****     ~AdcHandle() {}
 2764              		.loc 6 92 5 is_stmt 0 view .LVU732
ARM GAS  /var/folders/hl/qgbwny5j0fd895c2c41bk3tw0000gp/T//cc1L1gWC.s 			page 127


 2765              	.LBE1139:
 2766              	.LBB1140:
 2767              	.LBI1140:
  40:../../libDaisy//src/hid/usb.h **** 
 2768              		.loc 5 40 5 is_stmt 1 view .LVU733
  40:../../libDaisy//src/hid/usb.h **** 
 2769              		.loc 5 40 5 is_stmt 0 view .LVU734
 2770              	.LBE1140:
 2771              	.LBB1141:
 2772              	.LBI1126:
  28:../../libDaisy//src/dev/codec_pcm3060.h ****     ~Pcm3060() {}
 2773              		.loc 4 28 5 is_stmt 1 view .LVU735
 2774              	.LBB1132:
 2775              	.LBB1131:
 2776              	.LBI1128:
 2777              		.loc 21 82 5 view .LVU736
 2778              		.loc 21 82 5 is_stmt 0 view .LVU737
 2779              	.LBE1131:
 2780              	.LBE1132:
 2781              	.LBE1141:
 2782              	.LBB1142:
 2783              	.LBI1133:
 2784              		.loc 22 84 5 is_stmt 1 view .LVU738
 2785              		.loc 22 84 5 is_stmt 0 view .LVU739
 2786              	.LBE1142:
 2787              	.LBE1145:
 2788              	.LBE1147:
 2789              	.LBE1151:
 2790              	.LBE1154:
  64:../../libDaisy//src/daisy_patch_sm.h ****         ~DaisyPatchSM() {}
 2791              		.loc 2 64 24 is_stmt 1 view .LVU740
 2792              	.LBB1155:
 2793              	.LBB1152:
 2794              	.LBB1148:
 2795              	.LBB1146:
 2796              	.LBB1143:
 2797              	.LBI1143:
  20:../../libDaisy//src/hid/gatein.h ****     /** GateIn~
 2798              		.loc 3 20 5 view .LVU741
  20:../../libDaisy//src/hid/gatein.h ****     /** GateIn~
 2799              		.loc 3 20 5 is_stmt 0 view .LVU742
 2800              	.LBE1143:
 2801              	.LBB1144:
 2802              	.LBI1144:
  20:../../libDaisy//src/hid/gatein.h ****     /** GateIn~
 2803              		.loc 3 20 5 is_stmt 1 view .LVU743
  20:../../libDaisy//src/hid/gatein.h ****     /** GateIn~
 2804              		.loc 3 20 5 is_stmt 0 view .LVU744
 2805              	.LBE1144:
 2806              	.LBE1146:
 2807              	.LBE1148:
  13:Convolution.cpp **** cLooper					loop;
 2808              		.loc 12 13 17 view .LVU745
 2809 00fa FFF7FEFF 		bl	__aeabi_atexit
 2810              	.LVL146:
 2811              	.LBB1149:
 2812              	.LBI1149:
ARM GAS  /var/folders/hl/qgbwny5j0fd895c2c41bk3tw0000gp/T//cc1L1gWC.s 			page 128


  29:customLooper.h ****     ~cLooper() {}
 2813              		.loc 10 29 5 is_stmt 1 view .LVU746
  29:customLooper.h ****     ~cLooper() {}
 2814              		.loc 10 29 5 is_stmt 0 view .LVU747
 2815              	.LBE1149:
  14:Convolution.cpp **** ReverbSc DSY_SDRAM_BSS	rev;
 2816              		.loc 12 14 13 view .LVU748
 2817 00fe 244A     		ldr	r2, .L101+120
 2818 0100 2B49     		ldr	r1, .L101+152
 2819 0102 2C48     		ldr	r0, .L101+156
 2820 0104 FFF7FEFF 		bl	__aeabi_atexit
 2821              	.LVL147:
 2822              	.LBB1150:
 2823              	.LBI1150:
  40:../../DaisySP//Source/Effects/reverbsc.h ****     ~ReverbSc() {}
 2824              		.loc 9 40 5 is_stmt 1 view .LVU749
  40:../../DaisySP//Source/Effects/reverbsc.h ****     ~ReverbSc() {}
 2825              		.loc 9 40 5 is_stmt 0 view .LVU750
 2826              	.LBE1150:
  15:Convolution.cpp **** 
 2827              		.loc 12 15 24 view .LVU751
 2828 0108 214A     		ldr	r2, .L101+120
 2829 010a 2B49     		ldr	r1, .L101+160
 2830 010c 2B48     		ldr	r0, .L101+164
 2831              	.LBE1152:
 2832              	.LBE1155:
 2833              		.loc 12 82 1 view .LVU752
 2834 010e BDE83840 		pop	{r3, r4, r5, lr}
 2835              		.cfi_restore 14
 2836              		.cfi_restore 5
 2837              		.cfi_restore 4
 2838              		.cfi_restore 3
 2839              		.cfi_def_cfa_offset 0
 2840              	.LBB1156:
 2841              	.LBB1153:
  15:Convolution.cpp **** 
 2842              		.loc 12 15 24 view .LVU753
 2843 0112 FFF7FEBF 		b	__aeabi_atexit
 2844              	.LVL148:
 2845              	.L102:
 2846 0116 00BF     		.align	2
 2847              	.L101:
 2848 0118 00000000 		.word	.LANCHOR3
 2849 011c 00000000 		.word	.LANCHOR1
 2850 0120 00000000 		.word	.LANCHOR5
 2851 0124 00000000 		.word	.LANCHOR7
 2852 0128 00000000 		.word	.LANCHOR11
 2853 012c 00000000 		.word	.LANCHOR9
 2854 0130 00000000 		.word	.LANCHOR15
 2855 0134 00000000 		.word	.LANCHOR13
 2856 0138 00000000 		.word	_ZN5daisy8patch_sm12DaisyPatchSM2D7E
 2857 013c 00000000 		.word	_ZN5daisy8patch_sm12DaisyPatchSM2A9E
 2858 0140 00000000 		.word	.LANCHOR20
 2859 0144 00000000 		.word	.LANCHOR21
 2860 0148 00000000 		.word	.LANCHOR0
 2861 014c 00000000 		.word	_ZN5daisy8patch_sm12DaisyPatchSM2D1E
 2862 0150 00000000 		.word	_ZN5daisy8patch_sm12DaisyPatchSM2D2E
ARM GAS  /var/folders/hl/qgbwny5j0fd895c2c41bk3tw0000gp/T//cc1L1gWC.s 			page 129


 2863 0154 00000000 		.word	.LANCHOR2
 2864 0158 00000000 		.word	.LANCHOR22
 2865 015c 00000000 		.word	.LANCHOR23
 2866 0160 00000000 		.word	.LANCHOR4
 2867 0164 00000000 		.word	_ZN5daisy8patch_sm12DaisyPatchSM2D3E
 2868 0168 00000000 		.word	_ZN5daisy8patch_sm12DaisyPatchSM2D6E
 2869 016c 00000000 		.word	_ZN5daisy8patch_sm12DaisyPatchSM2D4E
 2870 0170 00000000 		.word	.LANCHOR12
 2871 0174 00000000 		.word	_ZN5daisy8patch_sm12DaisyPatchSM2D5E
 2872 0178 00000000 		.word	.LANCHOR24
 2873 017c 00000000 		.word	.LANCHOR25
 2874 0180 00000000 		.word	.LANCHOR26
 2875 0184 00000000 		.word	.LANCHOR27
 2876 0188 00000000 		.word	_ZN5daisy6SwitchD1Ev
 2877 018c 00000000 		.word	.LANCHOR6
 2878 0190 00000000 		.word	__dso_handle
 2879 0194 00000000 		.word	.LANCHOR8
 2880 0198 00000000 		.word	.LANCHOR14
 2881 019c 00000000 		.word	.LANCHOR10
 2882 01a0 00000000 		.word	.LANCHOR16
 2883 01a4 00000000 		.word	.LANCHOR17
 2884 01a8 00000000 		.word	.LANCHOR18
 2885 01ac 00000000 		.word	_ZN5daisy8patch_sm12DaisyPatchSMD1Ev
 2886 01b0 00000000 		.word	_ZN7daisysp7cLooperD1Ev
 2887 01b4 00000000 		.word	.LANCHOR19
 2888 01b8 00000000 		.word	_ZN7daisysp8ReverbScD1Ev
 2889 01bc 00000000 		.word	rev
 2890              	.LBE1153:
 2891              	.LBE1156:
 2892              		.cfi_endproc
 2893              	.LFE5636:
 2895              		.section	.init_array,"aw",%init_array
 2896              		.align	2
 2897 0000 00000000 		.word	_GLOBAL__sub_I__ZN5daisy8patch_sm8gen_led1E(target1)
 2898              		.global	rev
 2899              		.global	loop
 2900              		.global	hw
 2901              		.global	buffer
 2902              		.global	_ZN5daisy8patch_sm2b2E
 2903              		.global	_ZN5daisy8patch_sm2b1E
 2904              		.global	_ZN5daisy8patch_sm8newPinD5E
 2905              		.global	_ZN5daisy8patch_sm8oldPinD5E
 2906              		.global	_ZN5daisy8patch_sm8newPinD4E
 2907              		.global	_ZN5daisy8patch_sm8oldPinD4E
 2908              		.global	_ZN5daisy8patch_sm8newPinD6E
 2909              		.global	_ZN5daisy8patch_sm8oldPinD6E
 2910              		.global	_ZN5daisy8patch_sm8newPinD3E
 2911              		.global	_ZN5daisy8patch_sm8oldPinD3E
 2912              		.global	_ZN5daisy8patch_sm8newPinD1E
 2913              		.global	_ZN5daisy8patch_sm8oldPinD1E
 2914              		.global	_ZN5daisy8patch_sm8newPinD2E
 2915              		.global	_ZN5daisy8patch_sm8oldPinD2E
 2916              		.global	_ZN5daisy8patch_sm8newPinA9E
 2917              		.global	_ZN5daisy8patch_sm8oldPinA9E
 2918              		.global	_ZN5daisy8patch_sm8newPinD7E
 2919              		.global	_ZN5daisy8patch_sm8oldPinD7E
 2920              		.global	_ZN5daisy8patch_sm13gate_out_led2E
ARM GAS  /var/folders/hl/qgbwny5j0fd895c2c41bk3tw0000gp/T//cc1L1gWC.s 			page 130


 2921              		.global	_ZN5daisy8patch_sm13gate_out_led1E
 2922              		.global	_ZN5daisy8patch_sm12gate_in_led2E
 2923              		.global	_ZN5daisy8patch_sm12gate_in_led1E
 2924              		.global	_ZN5daisy8patch_sm7cv_led2E
 2925              		.global	_ZN5daisy8patch_sm7cv_led1E
 2926              		.global	_ZN5daisy8patch_sm8gen_led2E
 2927              		.global	_ZN5daisy8patch_sm8gen_led1E
 2928              		.section	.bss._ZN5daisy8patch_sm12gate_in_led1E,"aw",%nobits
 2929              		.align	2
 2930              		.set	.LANCHOR9,. + 0
 2933              	_ZN5daisy8patch_sm12gate_in_led1E:
 2934 0000 00000000 		.space	20
 2934      00000000 
 2934      00000000 
 2934      00000000 
 2934      00000000 
 2935              		.section	.bss._ZN5daisy8patch_sm12gate_in_led2E,"aw",%nobits
 2936              		.align	2
 2937              		.set	.LANCHOR11,. + 0
 2940              	_ZN5daisy8patch_sm12gate_in_led2E:
 2941 0000 00000000 		.space	20
 2941      00000000 
 2941      00000000 
 2941      00000000 
 2941      00000000 
 2942              		.section	.bss._ZN5daisy8patch_sm13gate_out_led1E,"aw",%nobits
 2943              		.align	2
 2944              		.set	.LANCHOR13,. + 0
 2947              	_ZN5daisy8patch_sm13gate_out_led1E:
 2948 0000 00000000 		.space	20
 2948      00000000 
 2948      00000000 
 2948      00000000 
 2948      00000000 
 2949              		.section	.bss._ZN5daisy8patch_sm13gate_out_led2E,"aw",%nobits
 2950              		.align	2
 2951              		.set	.LANCHOR15,. + 0
 2954              	_ZN5daisy8patch_sm13gate_out_led2E:
 2955 0000 00000000 		.space	20
 2955      00000000 
 2955      00000000 
 2955      00000000 
 2955      00000000 
 2956              		.section	.bss._ZN5daisy8patch_sm2b1E,"aw",%nobits
 2957              		.align	2
 2958              		.set	.LANCHOR16,. + 0
 2961              	_ZN5daisy8patch_sm2b1E:
 2962 0000 00000000 		.space	16
 2962      00000000 
 2962      00000000 
 2962      00000000 
 2963              		.section	.bss._ZN5daisy8patch_sm2b2E,"aw",%nobits
 2964              		.align	2
 2965              		.set	.LANCHOR17,. + 0
 2968              	_ZN5daisy8patch_sm2b2E:
 2969 0000 00000000 		.space	16
 2969      00000000 
ARM GAS  /var/folders/hl/qgbwny5j0fd895c2c41bk3tw0000gp/T//cc1L1gWC.s 			page 131


 2969      00000000 
 2969      00000000 
 2970              		.section	.bss._ZN5daisy8patch_sm7cv_led1E,"aw",%nobits
 2971              		.align	2
 2972              		.set	.LANCHOR5,. + 0
 2975              	_ZN5daisy8patch_sm7cv_led1E:
 2976 0000 00000000 		.space	20
 2976      00000000 
 2976      00000000 
 2976      00000000 
 2976      00000000 
 2977              		.section	.bss._ZN5daisy8patch_sm7cv_led2E,"aw",%nobits
 2978              		.align	2
 2979              		.set	.LANCHOR7,. + 0
 2982              	_ZN5daisy8patch_sm7cv_led2E:
 2983 0000 00000000 		.space	20
 2983      00000000 
 2983      00000000 
 2983      00000000 
 2983      00000000 
 2984              		.section	.bss._ZN5daisy8patch_sm8gen_led1E,"aw",%nobits
 2985              		.align	2
 2986              		.set	.LANCHOR1,. + 0
 2989              	_ZN5daisy8patch_sm8gen_led1E:
 2990 0000 00000000 		.space	20
 2990      00000000 
 2990      00000000 
 2990      00000000 
 2990      00000000 
 2991              		.section	.bss._ZN5daisy8patch_sm8gen_led2E,"aw",%nobits
 2992              		.align	2
 2993              		.set	.LANCHOR3,. + 0
 2996              	_ZN5daisy8patch_sm8gen_led2E:
 2997 0000 00000000 		.space	20
 2997      00000000 
 2997      00000000 
 2997      00000000 
 2997      00000000 
 2998              		.section	.bss._ZN5daisy8patch_sm8newPinA9E,"aw",%nobits
 2999              		.align	2
 3000              		.set	.LANCHOR2,. + 0
 3003              	_ZN5daisy8patch_sm8newPinA9E:
 3004 0000 0000     		.space	2
 3005              		.section	.bss._ZN5daisy8patch_sm8newPinD1E,"aw",%nobits
 3006              		.align	2
 3007              		.set	.LANCHOR6,. + 0
 3010              	_ZN5daisy8patch_sm8newPinD1E:
 3011 0000 0000     		.space	2
 3012              		.section	.bss._ZN5daisy8patch_sm8newPinD2E,"aw",%nobits
 3013              		.align	2
 3014              		.set	.LANCHOR4,. + 0
 3017              	_ZN5daisy8patch_sm8newPinD2E:
 3018 0000 0000     		.space	2
 3019              		.section	.bss._ZN5daisy8patch_sm8newPinD3E,"aw",%nobits
 3020              		.align	2
 3021              		.set	.LANCHOR8,. + 0
 3024              	_ZN5daisy8patch_sm8newPinD3E:
ARM GAS  /var/folders/hl/qgbwny5j0fd895c2c41bk3tw0000gp/T//cc1L1gWC.s 			page 132


 3025 0000 0000     		.space	2
 3026              		.section	.bss._ZN5daisy8patch_sm8newPinD4E,"aw",%nobits
 3027              		.align	2
 3028              		.set	.LANCHOR14,. + 0
 3031              	_ZN5daisy8patch_sm8newPinD4E:
 3032 0000 0000     		.space	2
 3033              		.section	.bss._ZN5daisy8patch_sm8newPinD5E,"aw",%nobits
 3034              		.align	2
 3035              		.set	.LANCHOR10,. + 0
 3038              	_ZN5daisy8patch_sm8newPinD5E:
 3039 0000 0000     		.space	2
 3040              		.section	.bss._ZN5daisy8patch_sm8newPinD6E,"aw",%nobits
 3041              		.align	2
 3042              		.set	.LANCHOR12,. + 0
 3045              	_ZN5daisy8patch_sm8newPinD6E:
 3046 0000 0000     		.space	2
 3047              		.section	.bss._ZN5daisy8patch_sm8newPinD7E,"aw",%nobits
 3048              		.align	2
 3049              		.set	.LANCHOR0,. + 0
 3052              	_ZN5daisy8patch_sm8newPinD7E:
 3053 0000 0000     		.space	2
 3054              		.section	.bss._ZN5daisy8patch_sm8oldPinA9E,"aw",%nobits
 3055              		.align	2
 3056              		.set	.LANCHOR21,. + 0
 3059              	_ZN5daisy8patch_sm8oldPinA9E:
 3060 0000 0000     		.space	2
 3061              		.section	.bss._ZN5daisy8patch_sm8oldPinD1E,"aw",%nobits
 3062              		.align	2
 3063              		.set	.LANCHOR23,. + 0
 3066              	_ZN5daisy8patch_sm8oldPinD1E:
 3067 0000 0000     		.space	2
 3068              		.section	.bss._ZN5daisy8patch_sm8oldPinD2E,"aw",%nobits
 3069              		.align	2
 3070              		.set	.LANCHOR22,. + 0
 3073              	_ZN5daisy8patch_sm8oldPinD2E:
 3074 0000 0000     		.space	2
 3075              		.section	.bss._ZN5daisy8patch_sm8oldPinD3E,"aw",%nobits
 3076              		.align	2
 3077              		.set	.LANCHOR24,. + 0
 3080              	_ZN5daisy8patch_sm8oldPinD3E:
 3081 0000 0000     		.space	2
 3082              		.section	.bss._ZN5daisy8patch_sm8oldPinD4E,"aw",%nobits
 3083              		.align	2
 3084              		.set	.LANCHOR26,. + 0
 3087              	_ZN5daisy8patch_sm8oldPinD4E:
 3088 0000 0000     		.space	2
 3089              		.section	.bss._ZN5daisy8patch_sm8oldPinD5E,"aw",%nobits
 3090              		.align	2
 3091              		.set	.LANCHOR27,. + 0
 3094              	_ZN5daisy8patch_sm8oldPinD5E:
 3095 0000 0000     		.space	2
 3096              		.section	.bss._ZN5daisy8patch_sm8oldPinD6E,"aw",%nobits
 3097              		.align	2
 3098              		.set	.LANCHOR25,. + 0
 3101              	_ZN5daisy8patch_sm8oldPinD6E:
 3102 0000 0000     		.space	2
 3103              		.section	.bss._ZN5daisy8patch_sm8oldPinD7E,"aw",%nobits
ARM GAS  /var/folders/hl/qgbwny5j0fd895c2c41bk3tw0000gp/T//cc1L1gWC.s 			page 133


 3104              		.align	2
 3105              		.set	.LANCHOR20,. + 0
 3108              	_ZN5daisy8patch_sm8oldPinD7E:
 3109 0000 0000     		.space	2
 3110              		.section	.bss.hw,"aw",%nobits
 3111              		.align	2
 3112              		.set	.LANCHOR18,. + 0
 3115              	hw:
 3116 0000 00000000 		.space	464
 3116      00000000 
 3116      00000000 
 3116      00000000 
 3116      00000000 
 3117              		.section	.bss.loop,"aw",%nobits
 3118              		.align	2
 3119              		.set	.LANCHOR19,. + 0
 3122              	loop:
 3123 0000 00000000 		.space	40
 3123      00000000 
 3123      00000000 
 3123      00000000 
 3123      00000000 
 3124              		.section	.sdram_bss,"aw"
 3125              		.align	2
 3128              	rev:
 3129 0000 00000000 		.space	396100
 3129      00000000 
 3129      00000000 
 3129      00000000 
 3129      00000000 
 3132              	buffer:
 3133 60b44 00000000 		.space	11520000
 3133      00000000 
 3133      00000000 
 3133      00000000 
 3133      00000000 
 3134              		.text
 3135              	.Letext0:
 3136              		.file 23 "/Library/DaisyToolchain/0.2.0/arm/arm-none-eabi/include/machine/_default_types.h"
 3137              		.file 24 "/Library/DaisyToolchain/0.2.0/arm/arm-none-eabi/include/sys/_stdint.h"
 3138              		.file 25 "/Library/DaisyToolchain/0.2.0/arm/arm-none-eabi/include/stdint.h"
 3139              		.file 26 "/Library/DaisyToolchain/0.2.0/arm/lib/gcc/arm-none-eabi/10.3.1/include/stddef.h"
 3140              		.file 27 "/Library/DaisyToolchain/0.2.0/arm/arm-none-eabi/include/c++/10.3.1/bits/std_abs.h"
 3141              		.file 28 "/Library/DaisyToolchain/0.2.0/arm/arm-none-eabi/include/c++/10.3.1/cstdlib"
 3142              		.file 29 "/Library/DaisyToolchain/0.2.0/arm/arm-none-eabi/include/c++/10.3.1/cstdint"
 3143              		.file 30 "/Library/DaisyToolchain/0.2.0/arm/arm-none-eabi/include/c++/10.3.1/type_traits"
 3144              		.file 31 "/Library/DaisyToolchain/0.2.0/arm/arm-none-eabi/include/c++/10.3.1/bits/cpp_type_traits.
 3145              		.file 32 "/Library/DaisyToolchain/0.2.0/arm/arm-none-eabi/include/c++/10.3.1/debug/debug.h"
 3146              		.file 33 "/Library/DaisyToolchain/0.2.0/arm/arm-none-eabi/include/c++/10.3.1/arm-none-eabi/thumb/v
 3147              		.file 34 "/Library/DaisyToolchain/0.2.0/arm/arm-none-eabi/include/c++/10.3.1/bits/algorithmfwd.h"
 3148              		.file 35 "/Library/DaisyToolchain/0.2.0/arm/arm-none-eabi/include/c++/10.3.1/bits/exception_ptr.h"
 3149              		.file 36 "/Library/DaisyToolchain/0.2.0/arm/arm-none-eabi/include/c++/10.3.1/cstdarg"
 3150              		.file 37 "/Library/DaisyToolchain/0.2.0/arm/arm-none-eabi/include/c++/10.3.1/cstdio"
 3151              		.file 38 "/Library/DaisyToolchain/0.2.0/arm/arm-none-eabi/include/c++/10.3.1/cstring"
 3152              		.file 39 "/Library/DaisyToolchain/0.2.0/arm/arm-none-eabi/include/c++/10.3.1/cwchar"
 3153              		.file 40 "/Library/DaisyToolchain/0.2.0/arm/arm-none-eabi/include/c++/10.3.1/clocale"
 3154              		.file 41 "/Library/DaisyToolchain/0.2.0/arm/arm-none-eabi/include/c++/10.3.1/bits/basic_string.h"
ARM GAS  /var/folders/hl/qgbwny5j0fd895c2c41bk3tw0000gp/T//cc1L1gWC.s 			page 134


 3155              		.file 42 "/Library/DaisyToolchain/0.2.0/arm/arm-none-eabi/include/c++/10.3.1/bits/stl_iterator.h"
 3156              		.file 43 "/Library/DaisyToolchain/0.2.0/arm/arm-none-eabi/include/c++/10.3.1/bits/uses_allocator.h
 3157              		.file 44 "/Library/DaisyToolchain/0.2.0/arm/arm-none-eabi/include/c++/10.3.1/tuple"
 3158              		.file 45 "/Library/DaisyToolchain/0.2.0/arm/arm-none-eabi/include/c++/10.3.1/bits/predefined_ops.h
 3159              		.file 46 "/Library/DaisyToolchain/0.2.0/arm/arm-none-eabi/include/sys/_types.h"
 3160              		.file 47 "/Library/DaisyToolchain/0.2.0/arm/arm-none-eabi/include/sys/reent.h"
 3161              		.file 48 "/Library/DaisyToolchain/0.2.0/arm/arm-none-eabi/include/sys/lock.h"
 3162              		.file 49 "/Library/DaisyToolchain/0.2.0/arm/arm-none-eabi/include/math.h"
 3163              		.file 50 "/Library/DaisyToolchain/0.2.0/arm/arm-none-eabi/include/stdlib.h"
 3164              		.file 51 "/Library/DaisyToolchain/0.2.0/arm/arm-none-eabi/include/c++/10.3.1/math.h"
 3165              		.file 52 "/Library/DaisyToolchain/0.2.0/arm/arm-none-eabi/include/c++/10.3.1/stdlib.h"
 3166              		.file 53 "../../libDaisy//src/per/tim.h"
 3167              		.file 54 "../../libDaisy//src/per/sai.h"
 3168              		.file 55 "../../libDaisy//src/hid/ctrl.h"
 3169              		.file 56 "../../libDaisy//src/util/wav_format.h"
 3170              		.file 57 "../../libDaisy//src/dev/max11300.h"
 3171              		.file 58 "../../libDaisy//src/dev/sdram.h"
 3172              		.file 59 "/Library/DaisyToolchain/0.2.0/arm/lib/gcc/arm-none-eabi/10.3.1/include/stdarg.h"
 3173              		.file 60 "/Library/DaisyToolchain/0.2.0/arm/arm-none-eabi/include/stdio.h"
 3174              		.file 61 "/Library/DaisyToolchain/0.2.0/arm/arm-none-eabi/include/string.h"
 3175              		.file 62 "../../DaisySP//Source/Control/adenv.h"
 3176              		.file 63 "/Library/DaisyToolchain/0.2.0/arm/arm-none-eabi/include/wchar.h"
 3177              		.file 64 "/Library/DaisyToolchain/0.2.0/arm/arm-none-eabi/include/locale.h"
 3178              		.file 65 "../../libDaisy//src/dev/sr_595.h"
 3179              		.file 66 "<built-in>"
ARM GAS  /var/folders/hl/qgbwny5j0fd895c2c41bk3tw0000gp/T//cc1L1gWC.s 			page 135


DEFINED SYMBOLS
                            *ABS*:0000000000000000 Convolution.cpp
/var/folders/hl/qgbwny5j0fd895c2c41bk3tw0000gp/T//cc1L1gWC.s:19     .text._ZN5daisy6SwitchD2Ev:0000000000000000 $t
/var/folders/hl/qgbwny5j0fd895c2c41bk3tw0000gp/T//cc1L1gWC.s:26     .text._ZN5daisy6SwitchD2Ev:0000000000000000 _ZN5daisy6SwitchD2Ev
/var/folders/hl/qgbwny5j0fd895c2c41bk3tw0000gp/T//cc1L1gWC.s:26     .text._ZN5daisy6SwitchD2Ev:0000000000000000 _ZN5daisy6SwitchD1Ev
/var/folders/hl/qgbwny5j0fd895c2c41bk3tw0000gp/T//cc1L1gWC.s:43     .text._ZN5daisy8patch_sm12DaisyPatchSMD2Ev:0000000000000000 $t
/var/folders/hl/qgbwny5j0fd895c2c41bk3tw0000gp/T//cc1L1gWC.s:50     .text._ZN5daisy8patch_sm12DaisyPatchSMD2Ev:0000000000000000 _ZN5daisy8patch_sm12DaisyPatchSMD2Ev
/var/folders/hl/qgbwny5j0fd895c2c41bk3tw0000gp/T//cc1L1gWC.s:50     .text._ZN5daisy8patch_sm12DaisyPatchSMD2Ev:0000000000000000 _ZN5daisy8patch_sm12DaisyPatchSMD1Ev
/var/folders/hl/qgbwny5j0fd895c2c41bk3tw0000gp/T//cc1L1gWC.s:108    .text._ZN7daisysp8ReverbScD2Ev:0000000000000000 $t
/var/folders/hl/qgbwny5j0fd895c2c41bk3tw0000gp/T//cc1L1gWC.s:115    .text._ZN7daisysp8ReverbScD2Ev:0000000000000000 _ZN7daisysp8ReverbScD2Ev
/var/folders/hl/qgbwny5j0fd895c2c41bk3tw0000gp/T//cc1L1gWC.s:115    .text._ZN7daisysp8ReverbScD2Ev:0000000000000000 _ZN7daisysp8ReverbScD1Ev
/var/folders/hl/qgbwny5j0fd895c2c41bk3tw0000gp/T//cc1L1gWC.s:132    .text._ZN7daisysp7cLooperD2Ev:0000000000000000 $t
/var/folders/hl/qgbwny5j0fd895c2c41bk3tw0000gp/T//cc1L1gWC.s:139    .text._ZN7daisysp7cLooperD2Ev:0000000000000000 _ZN7daisysp7cLooperD2Ev
/var/folders/hl/qgbwny5j0fd895c2c41bk3tw0000gp/T//cc1L1gWC.s:139    .text._ZN7daisysp7cLooperD2Ev:0000000000000000 _ZN7daisysp7cLooperD1Ev
/var/folders/hl/qgbwny5j0fd895c2c41bk3tw0000gp/T//cc1L1gWC.s:156    .text._ZN5daisy8patch_sm7InitBedEv:0000000000000000 $t
/var/folders/hl/qgbwny5j0fd895c2c41bk3tw0000gp/T//cc1L1gWC.s:163    .text._ZN5daisy8patch_sm7InitBedEv:0000000000000000 _ZN5daisy8patch_sm7InitBedEv
/var/folders/hl/qgbwny5j0fd895c2c41bk3tw0000gp/T//cc1L1gWC.s:293    .text._ZN5daisy8patch_sm7InitBedEv:00000000000000b8 $d
/var/folders/hl/qgbwny5j0fd895c2c41bk3tw0000gp/T//cc1L1gWC.s:318    .text._ZN5daisy8patch_sm6ledOffEv:0000000000000000 $t
/var/folders/hl/qgbwny5j0fd895c2c41bk3tw0000gp/T//cc1L1gWC.s:325    .text._ZN5daisy8patch_sm6ledOffEv:0000000000000000 _ZN5daisy8patch_sm6ledOffEv
/var/folders/hl/qgbwny5j0fd895c2c41bk3tw0000gp/T//cc1L1gWC.s:369    .text._ZN5daisy8patch_sm6ledOffEv:0000000000000028 $d
/var/folders/hl/qgbwny5j0fd895c2c41bk3tw0000gp/T//cc1L1gWC.s:377    .text._Z11loopControlv:0000000000000000 $t
/var/folders/hl/qgbwny5j0fd895c2c41bk3tw0000gp/T//cc1L1gWC.s:384    .text._Z11loopControlv:0000000000000000 _Z11loopControlv
/var/folders/hl/qgbwny5j0fd895c2c41bk3tw0000gp/T//cc1L1gWC.s:448    .text._Z11loopControlv:000000000000002e $d
/var/folders/hl/qgbwny5j0fd895c2c41bk3tw0000gp/T//cc1L1gWC.s:452    .text._Z11loopControlv:0000000000000032 $t
/var/folders/hl/qgbwny5j0fd895c2c41bk3tw0000gp/T//cc1L1gWC.s:607    .text._Z11loopControlv:000000000000009c $d
/var/folders/hl/qgbwny5j0fd895c2c41bk3tw0000gp/T//cc1L1gWC.s:618    .text._Z13AudioCallbackPKPKfPPfj:0000000000000000 $t
/var/folders/hl/qgbwny5j0fd895c2c41bk3tw0000gp/T//cc1L1gWC.s:625    .text._Z13AudioCallbackPKPKfPPfj:0000000000000000 _Z13AudioCallbackPKPKfPPfj
/var/folders/hl/qgbwny5j0fd895c2c41bk3tw0000gp/T//cc1L1gWC.s:1721   .text._Z13AudioCallbackPKPKfPPfj:0000000000000358 $d
/var/folders/hl/qgbwny5j0fd895c2c41bk3tw0000gp/T//cc1L1gWC.s:3128   .sdram_bss:0000000000000000 rev
/var/folders/hl/qgbwny5j0fd895c2c41bk3tw0000gp/T//cc1L1gWC.s:1745   .text.startup.main:0000000000000000 $t
/var/folders/hl/qgbwny5j0fd895c2c41bk3tw0000gp/T//cc1L1gWC.s:1752   .text.startup.main:0000000000000000 main
/var/folders/hl/qgbwny5j0fd895c2c41bk3tw0000gp/T//cc1L1gWC.s:2055   .text.startup.main:00000000000000d0 $d
/var/folders/hl/qgbwny5j0fd895c2c41bk3tw0000gp/T//cc1L1gWC.s:3132   .sdram_bss:0000000000060b44 buffer
/var/folders/hl/qgbwny5j0fd895c2c41bk3tw0000gp/T//cc1L1gWC.s:2074   .text.startup._GLOBAL__sub_I__ZN5daisy8patch_sm8gen_led1E:0000000000000000 $t
/var/folders/hl/qgbwny5j0fd895c2c41bk3tw0000gp/T//cc1L1gWC.s:2080   .text.startup._GLOBAL__sub_I__ZN5daisy8patch_sm8gen_led1E:0000000000000000 _GLOBAL__sub_I__ZN5daisy8patch_sm8gen_led1E
/var/folders/hl/qgbwny5j0fd895c2c41bk3tw0000gp/T//cc1L1gWC.s:2848   .text.startup._GLOBAL__sub_I__ZN5daisy8patch_sm8gen_led1E:0000000000000118 $d
/var/folders/hl/qgbwny5j0fd895c2c41bk3tw0000gp/T//cc1L1gWC.s:2896   .init_array:0000000000000000 $d
/var/folders/hl/qgbwny5j0fd895c2c41bk3tw0000gp/T//cc1L1gWC.s:3122   .bss.loop:0000000000000000 loop
/var/folders/hl/qgbwny5j0fd895c2c41bk3tw0000gp/T//cc1L1gWC.s:3115   .bss.hw:0000000000000000 hw
/var/folders/hl/qgbwny5j0fd895c2c41bk3tw0000gp/T//cc1L1gWC.s:2968   .bss._ZN5daisy8patch_sm2b2E:0000000000000000 _ZN5daisy8patch_sm2b2E
/var/folders/hl/qgbwny5j0fd895c2c41bk3tw0000gp/T//cc1L1gWC.s:2961   .bss._ZN5daisy8patch_sm2b1E:0000000000000000 _ZN5daisy8patch_sm2b1E
/var/folders/hl/qgbwny5j0fd895c2c41bk3tw0000gp/T//cc1L1gWC.s:3038   .bss._ZN5daisy8patch_sm8newPinD5E:0000000000000000 _ZN5daisy8patch_sm8newPinD5E
/var/folders/hl/qgbwny5j0fd895c2c41bk3tw0000gp/T//cc1L1gWC.s:3094   .bss._ZN5daisy8patch_sm8oldPinD5E:0000000000000000 _ZN5daisy8patch_sm8oldPinD5E
/var/folders/hl/qgbwny5j0fd895c2c41bk3tw0000gp/T//cc1L1gWC.s:3031   .bss._ZN5daisy8patch_sm8newPinD4E:0000000000000000 _ZN5daisy8patch_sm8newPinD4E
/var/folders/hl/qgbwny5j0fd895c2c41bk3tw0000gp/T//cc1L1gWC.s:3087   .bss._ZN5daisy8patch_sm8oldPinD4E:0000000000000000 _ZN5daisy8patch_sm8oldPinD4E
/var/folders/hl/qgbwny5j0fd895c2c41bk3tw0000gp/T//cc1L1gWC.s:3045   .bss._ZN5daisy8patch_sm8newPinD6E:0000000000000000 _ZN5daisy8patch_sm8newPinD6E
/var/folders/hl/qgbwny5j0fd895c2c41bk3tw0000gp/T//cc1L1gWC.s:3101   .bss._ZN5daisy8patch_sm8oldPinD6E:0000000000000000 _ZN5daisy8patch_sm8oldPinD6E
/var/folders/hl/qgbwny5j0fd895c2c41bk3tw0000gp/T//cc1L1gWC.s:3024   .bss._ZN5daisy8patch_sm8newPinD3E:0000000000000000 _ZN5daisy8patch_sm8newPinD3E
/var/folders/hl/qgbwny5j0fd895c2c41bk3tw0000gp/T//cc1L1gWC.s:3080   .bss._ZN5daisy8patch_sm8oldPinD3E:0000000000000000 _ZN5daisy8patch_sm8oldPinD3E
/var/folders/hl/qgbwny5j0fd895c2c41bk3tw0000gp/T//cc1L1gWC.s:3010   .bss._ZN5daisy8patch_sm8newPinD1E:0000000000000000 _ZN5daisy8patch_sm8newPinD1E
/var/folders/hl/qgbwny5j0fd895c2c41bk3tw0000gp/T//cc1L1gWC.s:3066   .bss._ZN5daisy8patch_sm8oldPinD1E:0000000000000000 _ZN5daisy8patch_sm8oldPinD1E
/var/folders/hl/qgbwny5j0fd895c2c41bk3tw0000gp/T//cc1L1gWC.s:3017   .bss._ZN5daisy8patch_sm8newPinD2E:0000000000000000 _ZN5daisy8patch_sm8newPinD2E
/var/folders/hl/qgbwny5j0fd895c2c41bk3tw0000gp/T//cc1L1gWC.s:3073   .bss._ZN5daisy8patch_sm8oldPinD2E:0000000000000000 _ZN5daisy8patch_sm8oldPinD2E
/var/folders/hl/qgbwny5j0fd895c2c41bk3tw0000gp/T//cc1L1gWC.s:3003   .bss._ZN5daisy8patch_sm8newPinA9E:0000000000000000 _ZN5daisy8patch_sm8newPinA9E
/var/folders/hl/qgbwny5j0fd895c2c41bk3tw0000gp/T//cc1L1gWC.s:3059   .bss._ZN5daisy8patch_sm8oldPinA9E:0000000000000000 _ZN5daisy8patch_sm8oldPinA9E
/var/folders/hl/qgbwny5j0fd895c2c41bk3tw0000gp/T//cc1L1gWC.s:3052   .bss._ZN5daisy8patch_sm8newPinD7E:0000000000000000 _ZN5daisy8patch_sm8newPinD7E
/var/folders/hl/qgbwny5j0fd895c2c41bk3tw0000gp/T//cc1L1gWC.s:3108   .bss._ZN5daisy8patch_sm8oldPinD7E:0000000000000000 _ZN5daisy8patch_sm8oldPinD7E
ARM GAS  /var/folders/hl/qgbwny5j0fd895c2c41bk3tw0000gp/T//cc1L1gWC.s 			page 136


/var/folders/hl/qgbwny5j0fd895c2c41bk3tw0000gp/T//cc1L1gWC.s:2954   .bss._ZN5daisy8patch_sm13gate_out_led2E:0000000000000000 _ZN5daisy8patch_sm13gate_out_led2E
/var/folders/hl/qgbwny5j0fd895c2c41bk3tw0000gp/T//cc1L1gWC.s:2947   .bss._ZN5daisy8patch_sm13gate_out_led1E:0000000000000000 _ZN5daisy8patch_sm13gate_out_led1E
/var/folders/hl/qgbwny5j0fd895c2c41bk3tw0000gp/T//cc1L1gWC.s:2940   .bss._ZN5daisy8patch_sm12gate_in_led2E:0000000000000000 _ZN5daisy8patch_sm12gate_in_led2E
/var/folders/hl/qgbwny5j0fd895c2c41bk3tw0000gp/T//cc1L1gWC.s:2933   .bss._ZN5daisy8patch_sm12gate_in_led1E:0000000000000000 _ZN5daisy8patch_sm12gate_in_led1E
/var/folders/hl/qgbwny5j0fd895c2c41bk3tw0000gp/T//cc1L1gWC.s:2982   .bss._ZN5daisy8patch_sm7cv_led2E:0000000000000000 _ZN5daisy8patch_sm7cv_led2E
/var/folders/hl/qgbwny5j0fd895c2c41bk3tw0000gp/T//cc1L1gWC.s:2975   .bss._ZN5daisy8patch_sm7cv_led1E:0000000000000000 _ZN5daisy8patch_sm7cv_led1E
/var/folders/hl/qgbwny5j0fd895c2c41bk3tw0000gp/T//cc1L1gWC.s:2996   .bss._ZN5daisy8patch_sm8gen_led2E:0000000000000000 _ZN5daisy8patch_sm8gen_led2E
/var/folders/hl/qgbwny5j0fd895c2c41bk3tw0000gp/T//cc1L1gWC.s:2989   .bss._ZN5daisy8patch_sm8gen_led1E:0000000000000000 _ZN5daisy8patch_sm8gen_led1E
/var/folders/hl/qgbwny5j0fd895c2c41bk3tw0000gp/T//cc1L1gWC.s:2929   .bss._ZN5daisy8patch_sm12gate_in_led1E:0000000000000000 $d
/var/folders/hl/qgbwny5j0fd895c2c41bk3tw0000gp/T//cc1L1gWC.s:2936   .bss._ZN5daisy8patch_sm12gate_in_led2E:0000000000000000 $d
/var/folders/hl/qgbwny5j0fd895c2c41bk3tw0000gp/T//cc1L1gWC.s:2943   .bss._ZN5daisy8patch_sm13gate_out_led1E:0000000000000000 $d
/var/folders/hl/qgbwny5j0fd895c2c41bk3tw0000gp/T//cc1L1gWC.s:2950   .bss._ZN5daisy8patch_sm13gate_out_led2E:0000000000000000 $d
/var/folders/hl/qgbwny5j0fd895c2c41bk3tw0000gp/T//cc1L1gWC.s:2957   .bss._ZN5daisy8patch_sm2b1E:0000000000000000 $d
/var/folders/hl/qgbwny5j0fd895c2c41bk3tw0000gp/T//cc1L1gWC.s:2964   .bss._ZN5daisy8patch_sm2b2E:0000000000000000 $d
/var/folders/hl/qgbwny5j0fd895c2c41bk3tw0000gp/T//cc1L1gWC.s:2971   .bss._ZN5daisy8patch_sm7cv_led1E:0000000000000000 $d
/var/folders/hl/qgbwny5j0fd895c2c41bk3tw0000gp/T//cc1L1gWC.s:2978   .bss._ZN5daisy8patch_sm7cv_led2E:0000000000000000 $d
/var/folders/hl/qgbwny5j0fd895c2c41bk3tw0000gp/T//cc1L1gWC.s:2985   .bss._ZN5daisy8patch_sm8gen_led1E:0000000000000000 $d
/var/folders/hl/qgbwny5j0fd895c2c41bk3tw0000gp/T//cc1L1gWC.s:2992   .bss._ZN5daisy8patch_sm8gen_led2E:0000000000000000 $d
/var/folders/hl/qgbwny5j0fd895c2c41bk3tw0000gp/T//cc1L1gWC.s:2999   .bss._ZN5daisy8patch_sm8newPinA9E:0000000000000000 $d
/var/folders/hl/qgbwny5j0fd895c2c41bk3tw0000gp/T//cc1L1gWC.s:3006   .bss._ZN5daisy8patch_sm8newPinD1E:0000000000000000 $d
/var/folders/hl/qgbwny5j0fd895c2c41bk3tw0000gp/T//cc1L1gWC.s:3013   .bss._ZN5daisy8patch_sm8newPinD2E:0000000000000000 $d
/var/folders/hl/qgbwny5j0fd895c2c41bk3tw0000gp/T//cc1L1gWC.s:3020   .bss._ZN5daisy8patch_sm8newPinD3E:0000000000000000 $d
/var/folders/hl/qgbwny5j0fd895c2c41bk3tw0000gp/T//cc1L1gWC.s:3027   .bss._ZN5daisy8patch_sm8newPinD4E:0000000000000000 $d
/var/folders/hl/qgbwny5j0fd895c2c41bk3tw0000gp/T//cc1L1gWC.s:3034   .bss._ZN5daisy8patch_sm8newPinD5E:0000000000000000 $d
/var/folders/hl/qgbwny5j0fd895c2c41bk3tw0000gp/T//cc1L1gWC.s:3041   .bss._ZN5daisy8patch_sm8newPinD6E:0000000000000000 $d
/var/folders/hl/qgbwny5j0fd895c2c41bk3tw0000gp/T//cc1L1gWC.s:3048   .bss._ZN5daisy8patch_sm8newPinD7E:0000000000000000 $d
/var/folders/hl/qgbwny5j0fd895c2c41bk3tw0000gp/T//cc1L1gWC.s:3055   .bss._ZN5daisy8patch_sm8oldPinA9E:0000000000000000 $d
/var/folders/hl/qgbwny5j0fd895c2c41bk3tw0000gp/T//cc1L1gWC.s:3062   .bss._ZN5daisy8patch_sm8oldPinD1E:0000000000000000 $d
/var/folders/hl/qgbwny5j0fd895c2c41bk3tw0000gp/T//cc1L1gWC.s:3069   .bss._ZN5daisy8patch_sm8oldPinD2E:0000000000000000 $d
/var/folders/hl/qgbwny5j0fd895c2c41bk3tw0000gp/T//cc1L1gWC.s:3076   .bss._ZN5daisy8patch_sm8oldPinD3E:0000000000000000 $d
/var/folders/hl/qgbwny5j0fd895c2c41bk3tw0000gp/T//cc1L1gWC.s:3083   .bss._ZN5daisy8patch_sm8oldPinD4E:0000000000000000 $d
/var/folders/hl/qgbwny5j0fd895c2c41bk3tw0000gp/T//cc1L1gWC.s:3090   .bss._ZN5daisy8patch_sm8oldPinD5E:0000000000000000 $d
/var/folders/hl/qgbwny5j0fd895c2c41bk3tw0000gp/T//cc1L1gWC.s:3097   .bss._ZN5daisy8patch_sm8oldPinD6E:0000000000000000 $d
/var/folders/hl/qgbwny5j0fd895c2c41bk3tw0000gp/T//cc1L1gWC.s:3104   .bss._ZN5daisy8patch_sm8oldPinD7E:0000000000000000 $d
/var/folders/hl/qgbwny5j0fd895c2c41bk3tw0000gp/T//cc1L1gWC.s:3111   .bss.hw:0000000000000000 $d
/var/folders/hl/qgbwny5j0fd895c2c41bk3tw0000gp/T//cc1L1gWC.s:3118   .bss.loop:0000000000000000 $d
/var/folders/hl/qgbwny5j0fd895c2c41bk3tw0000gp/T//cc1L1gWC.s:3125   .sdram_bss:0000000000000000 $d
                           .group:0000000000000000 _ZN5daisy6SwitchD5Ev
                           .group:0000000000000000 _ZN5daisy8patch_sm12DaisyPatchSMD5Ev
                           .group:0000000000000000 _ZN7daisysp8ReverbScD5Ev
                           .group:0000000000000000 _ZN7daisysp7cLooperD5Ev

UNDEFINED SYMBOLS
_ZN5daisy4GPIO4InitENS_3PinENS0_4ModeENS0_4PullENS0_5SpeedE
_ZN5daisy6Switch4InitE12dsy_gpio_pinf
_ZN5daisy8patch_sm12DaisyPatchSM2A8E
_ZN5daisy8patch_sm12DaisyPatchSM3D10E
_ZN5daisy4GPIO5WriteEb
_ZN5daisy6Switch8DebounceEv
_ZN5daisy6GateIn4TrigEv
_ZN5daisy6System6GetNowEv
_ZN5daisy8patch_sm12DaisyPatchSM21ProcessAnalogControlsEv
_ZN5daisy8patch_sm12DaisyPatchSM22ProcessDigitalControlsEv
_ZN5daisy8patch_sm12DaisyPatchSM11GetAdcValueEi
powf
sinf
_ZN7daisysp8ReverbSc7ProcessERKfS2_PfS3_
ARM GAS  /var/folders/hl/qgbwny5j0fd895c2c41bk3tw0000gp/T//cc1L1gWC.s 			page 137


_ZN5daisy8patch_sm12DaisyPatchSM4InitEv
_ZN5daisy8patch_sm12DaisyPatchSM17SetAudioBlockSizeEj
_ZN5daisy8patch_sm12DaisyPatchSM18SetAudioSampleRateENS_9SaiHandle6Config10SampleRateE
_ZN5daisy8patch_sm12DaisyPatchSM15AudioSampleRateEv
memset
_ZN7daisysp8ReverbSc4InitEf
_ZN5daisy8patch_sm12DaisyPatchSM10StartAudioEPFvPKPKfPPfjE
dsy_gpio_write
__aeabi_atexit
_ZN5daisy8patch_sm12DaisyPatchSM2D7E
_ZN5daisy8patch_sm12DaisyPatchSM2A9E
_ZN5daisy8patch_sm12DaisyPatchSM2D1E
_ZN5daisy8patch_sm12DaisyPatchSM2D2E
_ZN5daisy8patch_sm12DaisyPatchSM2D3E
_ZN5daisy8patch_sm12DaisyPatchSM2D6E
_ZN5daisy8patch_sm12DaisyPatchSM2D4E
_ZN5daisy8patch_sm12DaisyPatchSM2D5E
__dso_handle
