ARM GAS  /var/folders/hl/qgbwny5j0fd895c2c41bk3tw0000gp/T//cc3keNI2.s 			page 1


   1              		.cpu cortex-m7
   2              		.arch armv7e-m
   3              		.fpu fpv5-d16
   4              		.eabi_attribute 28, 1
   5              		.eabi_attribute 20, 1
   6              		.eabi_attribute 21, 1
   7              		.eabi_attribute 23, 3
   8              		.eabi_attribute 24, 1
   9              		.eabi_attribute 25, 1
  10              		.eabi_attribute 26, 1
  11              		.eabi_attribute 30, 2
  12              		.eabi_attribute 34, 1
  13              		.eabi_attribute 18, 4
  14              		.file	"PluckEcho.cpp"
  15              		.text
  16              	.Ltext0:
  17              		.cfi_sections	.debug_frame
  18              		.section	.text._ZN5daisy7EncoderD2Ev,"axG",%progbits,_ZN5daisy7EncoderD5Ev,comdat
  19              		.align	1
  20              		.p2align 2,,3
  21              		.weak	_ZN5daisy7EncoderD2Ev
  22              		.syntax unified
  23              		.thumb
  24              		.thumb_func
  26              	_ZN5daisy7EncoderD2Ev:
  27              	.LVL0:
  28              	.LFB1618:
  29              		.file 1 "../../libDaisy/src/hid/encoder.h"
   1:../../libDaisy/src/hid/encoder.h **** #pragma once
   2:../../libDaisy/src/hid/encoder.h **** #ifndef DSY_ENCODER_H
   3:../../libDaisy/src/hid/encoder.h **** #define DSY_ENCODER_H
   4:../../libDaisy/src/hid/encoder.h **** #include "daisy_core.h"
   5:../../libDaisy/src/hid/encoder.h **** #include "per/gpio.h"
   6:../../libDaisy/src/hid/encoder.h **** #include "hid/switch.h"
   7:../../libDaisy/src/hid/encoder.h **** 
   8:../../libDaisy/src/hid/encoder.h **** namespace daisy
   9:../../libDaisy/src/hid/encoder.h **** {
  10:../../libDaisy/src/hid/encoder.h **** /** 
  11:../../libDaisy/src/hid/encoder.h ****     @brief Generic Class for handling Quadrature Encoders \n 
  12:../../libDaisy/src/hid/encoder.h ****     Inspired/influenced by Mutable Instruments (pichenettes) Encoder classes
  13:../../libDaisy/src/hid/encoder.h ****     @author Stephen Hensley
  14:../../libDaisy/src/hid/encoder.h ****     @date December 2019
  15:../../libDaisy/src/hid/encoder.h ****     @ingroup controls
  16:../../libDaisy/src/hid/encoder.h **** */
  17:../../libDaisy/src/hid/encoder.h **** class Encoder
  18:../../libDaisy/src/hid/encoder.h **** {
  19:../../libDaisy/src/hid/encoder.h ****   public:
  20:../../libDaisy/src/hid/encoder.h ****     Encoder() {}
  21:../../libDaisy/src/hid/encoder.h ****     ~Encoder() {}
  30              		.loc 1 21 5 view -0
  31              		.cfi_startproc
  32              		@ args = 0, pretend = 0, frame = 0
  33              		@ frame_needed = 0, uses_anonymous_args = 0
  34              		@ link register save eliminated.
  35              	.LBB705:
  36              	.LBI705:
  37              		.file 2 "../../libDaisy/src/hid/switch.h"
ARM GAS  /var/folders/hl/qgbwny5j0fd895c2c41bk3tw0000gp/T//cc3keNI2.s 			page 2


   1:../../libDaisy/src/hid/switch.h **** #pragma once
   2:../../libDaisy/src/hid/switch.h **** #ifndef DSY_SWITCH_H
   3:../../libDaisy/src/hid/switch.h **** #define DSY_SWITCH_H
   4:../../libDaisy/src/hid/switch.h **** #include "daisy_core.h"
   5:../../libDaisy/src/hid/switch.h **** #include "per/gpio.h"
   6:../../libDaisy/src/hid/switch.h **** #include "sys/system.h"
   7:../../libDaisy/src/hid/switch.h **** 
   8:../../libDaisy/src/hid/switch.h **** namespace daisy
   9:../../libDaisy/src/hid/switch.h **** {
  10:../../libDaisy/src/hid/switch.h **** /** 
  11:../../libDaisy/src/hid/switch.h ****     Generic Class for handling momentary/latching switches \n 
  12:../../libDaisy/src/hid/switch.h ****     Inspired/influenced by Mutable Instruments (pichenettes) Switch classes
  13:../../libDaisy/src/hid/switch.h ****     @author Stephen Hensley
  14:../../libDaisy/src/hid/switch.h ****     @date December 2019
  15:../../libDaisy/src/hid/switch.h ****     @ingroup controls
  16:../../libDaisy/src/hid/switch.h **** */
  17:../../libDaisy/src/hid/switch.h **** class Switch
  18:../../libDaisy/src/hid/switch.h **** {
  19:../../libDaisy/src/hid/switch.h ****   public:
  20:../../libDaisy/src/hid/switch.h ****     /** Specifies the expected behavior of the switch */
  21:../../libDaisy/src/hid/switch.h ****     enum Type
  22:../../libDaisy/src/hid/switch.h ****     {
  23:../../libDaisy/src/hid/switch.h ****         TYPE_TOGGLE,    /**< & */
  24:../../libDaisy/src/hid/switch.h ****         TYPE_MOMENTARY, /**< & */
  25:../../libDaisy/src/hid/switch.h ****     };
  26:../../libDaisy/src/hid/switch.h ****     /** Specifies whether the pressed is HIGH or LOW. */
  27:../../libDaisy/src/hid/switch.h ****     enum Polarity
  28:../../libDaisy/src/hid/switch.h ****     {
  29:../../libDaisy/src/hid/switch.h ****         POLARITY_NORMAL,   /**< & */
  30:../../libDaisy/src/hid/switch.h ****         POLARITY_INVERTED, /**< & */
  31:../../libDaisy/src/hid/switch.h ****     };
  32:../../libDaisy/src/hid/switch.h **** 
  33:../../libDaisy/src/hid/switch.h ****     /** Specifies whether to use built-in Pull Up/Down resistors to hold button at a given state wh
  34:../../libDaisy/src/hid/switch.h ****     enum Pull
  35:../../libDaisy/src/hid/switch.h ****     {
  36:../../libDaisy/src/hid/switch.h ****         PULL_UP,   /**< & */
  37:../../libDaisy/src/hid/switch.h ****         PULL_DOWN, /**< & */
  38:../../libDaisy/src/hid/switch.h ****         PULL_NONE, /**< & */
  39:../../libDaisy/src/hid/switch.h ****     };
  40:../../libDaisy/src/hid/switch.h **** 
  41:../../libDaisy/src/hid/switch.h ****     Switch() {}
  42:../../libDaisy/src/hid/switch.h ****     ~Switch() {}
  38              		.loc 2 42 5 view .LVU1
  39              		.loc 2 42 5 is_stmt 0 view .LVU2
  40              	.LBE705:
  41              		.loc 1 21 17 view .LVU3
  42 0000 7047     		bx	lr
  43              		.cfi_endproc
  44              	.LFE1618:
  46              		.weak	_ZN5daisy7EncoderD1Ev
  47              		.thumb_set _ZN5daisy7EncoderD1Ev,_ZN5daisy7EncoderD2Ev
  48 0002 00BF     		.section	.text._ZN5daisy8patch_sm12DaisyPatchSMD2Ev,"axG",%progbits,_ZN5daisy8patch_sm12DaisyPatch
  49              		.align	1
  50              		.p2align 2,,3
  51              		.weak	_ZN5daisy8patch_sm12DaisyPatchSMD2Ev
  52              		.syntax unified
  53              		.thumb
ARM GAS  /var/folders/hl/qgbwny5j0fd895c2c41bk3tw0000gp/T//cc3keNI2.s 			page 3


  54              		.thumb_func
  56              	_ZN5daisy8patch_sm12DaisyPatchSMD2Ev:
  57              	.LVL1:
  58              	.LFB2529:
  59              		.file 3 "../../libDaisy/src/daisy_patch_sm.h"
   1:../../libDaisy/src/daisy_patch_sm.h **** #pragma once
   2:../../libDaisy/src/daisy_patch_sm.h **** 
   3:../../libDaisy/src/daisy_patch_sm.h **** #include "daisy.h"
   4:../../libDaisy/src/daisy_patch_sm.h **** 
   5:../../libDaisy/src/daisy_patch_sm.h **** namespace daisy
   6:../../libDaisy/src/daisy_patch_sm.h **** {
   7:../../libDaisy/src/daisy_patch_sm.h **** namespace patch_sm
   8:../../libDaisy/src/daisy_patch_sm.h **** {
   9:../../libDaisy/src/daisy_patch_sm.h ****     /** Accessors for the Analog Controls. 
  10:../../libDaisy/src/daisy_patch_sm.h ****      *  These cover the 8x Bipolar CV inputs
  11:../../libDaisy/src/daisy_patch_sm.h ****      *  as well as the 4x 0-3V3 ADC inputs on
  12:../../libDaisy/src/daisy_patch_sm.h ****      *  the hardware 
  13:../../libDaisy/src/daisy_patch_sm.h ****      * 
  14:../../libDaisy/src/daisy_patch_sm.h ****      *  When reading a value with DaisyPatchSM::GetAdcValue()
  15:../../libDaisy/src/daisy_patch_sm.h ****      * 
  16:../../libDaisy/src/daisy_patch_sm.h ****      *  patch.GetAdcValue(patch_sm::CV_1);
  17:../../libDaisy/src/daisy_patch_sm.h ****      */
  18:../../libDaisy/src/daisy_patch_sm.h ****     enum
  19:../../libDaisy/src/daisy_patch_sm.h ****     {
  20:../../libDaisy/src/daisy_patch_sm.h ****         CV_1 = 0,
  21:../../libDaisy/src/daisy_patch_sm.h ****         CV_2,
  22:../../libDaisy/src/daisy_patch_sm.h ****         CV_3,
  23:../../libDaisy/src/daisy_patch_sm.h ****         CV_4,
  24:../../libDaisy/src/daisy_patch_sm.h ****         CV_5,
  25:../../libDaisy/src/daisy_patch_sm.h ****         CV_6,
  26:../../libDaisy/src/daisy_patch_sm.h ****         CV_7,
  27:../../libDaisy/src/daisy_patch_sm.h ****         CV_8,
  28:../../libDaisy/src/daisy_patch_sm.h ****         ADC_9,
  29:../../libDaisy/src/daisy_patch_sm.h ****         ADC_10,
  30:../../libDaisy/src/daisy_patch_sm.h ****         ADC_11,
  31:../../libDaisy/src/daisy_patch_sm.h ****         ADC_12,
  32:../../libDaisy/src/daisy_patch_sm.h ****         ADC_LAST,
  33:../../libDaisy/src/daisy_patch_sm.h ****     };
  34:../../libDaisy/src/daisy_patch_sm.h **** 
  35:../../libDaisy/src/daisy_patch_sm.h ****     /** Enum for addressing the CV Outputs via the WriteCvOut function. */
  36:../../libDaisy/src/daisy_patch_sm.h ****     enum
  37:../../libDaisy/src/daisy_patch_sm.h ****     {
  38:../../libDaisy/src/daisy_patch_sm.h ****         CV_OUT_BOTH = 0,
  39:../../libDaisy/src/daisy_patch_sm.h ****         CV_OUT_1,
  40:../../libDaisy/src/daisy_patch_sm.h ****         CV_OUT_2,
  41:../../libDaisy/src/daisy_patch_sm.h ****     };
  42:../../libDaisy/src/daisy_patch_sm.h **** 
  43:../../libDaisy/src/daisy_patch_sm.h **** 
  44:../../libDaisy/src/daisy_patch_sm.h ****     /** @brief Board support file for DaisyPatchSM hardware
  45:../../libDaisy/src/daisy_patch_sm.h ****      *  @author shensley
  46:../../libDaisy/src/daisy_patch_sm.h ****      *  @ingroup boards
  47:../../libDaisy/src/daisy_patch_sm.h ****      * 
  48:../../libDaisy/src/daisy_patch_sm.h ****      *  Daisy Patch SM is a complete Eurorack module DSP engine.
  49:../../libDaisy/src/daisy_patch_sm.h ****      *  Based on the Daisy Seed, with circuits added for 
  50:../../libDaisy/src/daisy_patch_sm.h ****      *  interfacing directly with eurorack modular synthesizers.
  51:../../libDaisy/src/daisy_patch_sm.h ****      */
  52:../../libDaisy/src/daisy_patch_sm.h ****     class DaisyPatchSM
ARM GAS  /var/folders/hl/qgbwny5j0fd895c2c41bk3tw0000gp/T//cc3keNI2.s 			page 4


  53:../../libDaisy/src/daisy_patch_sm.h ****     {
  54:../../libDaisy/src/daisy_patch_sm.h ****       public:
  55:../../libDaisy/src/daisy_patch_sm.h ****         /** Helper for mapping pins, and accessing them using the `GetPin` function */
  56:../../libDaisy/src/daisy_patch_sm.h ****         enum class PinBank
  57:../../libDaisy/src/daisy_patch_sm.h ****         {
  58:../../libDaisy/src/daisy_patch_sm.h ****             A,
  59:../../libDaisy/src/daisy_patch_sm.h ****             B,
  60:../../libDaisy/src/daisy_patch_sm.h ****             C,
  61:../../libDaisy/src/daisy_patch_sm.h ****             D
  62:../../libDaisy/src/daisy_patch_sm.h ****         };
  63:../../libDaisy/src/daisy_patch_sm.h **** 
  64:../../libDaisy/src/daisy_patch_sm.h ****         DaisyPatchSM() {}
  65:../../libDaisy/src/daisy_patch_sm.h ****         ~DaisyPatchSM() {}
  60              		.loc 3 65 9 is_stmt 1 view -0
  61              		.cfi_startproc
  62              		@ args = 0, pretend = 0, frame = 0
  63              		@ frame_needed = 0, uses_anonymous_args = 0
  64              		@ link register save eliminated.
  65              	.LBB706:
  66              	.LBI706:
  67              		.file 4 "../../libDaisy/src/hid/gatein.h"
   1:../../libDaisy/src/hid/gatein.h **** #pragma once
   2:../../libDaisy/src/hid/gatein.h **** #ifndef DSY_GATEIN_H
   3:../../libDaisy/src/hid/gatein.h **** #define DSY_GATEIN_H
   4:../../libDaisy/src/hid/gatein.h **** #include "per/gpio.h"
   5:../../libDaisy/src/hid/gatein.h **** 
   6:../../libDaisy/src/hid/gatein.h **** namespace daisy
   7:../../libDaisy/src/hid/gatein.h **** {
   8:../../libDaisy/src/hid/gatein.h **** /**
   9:../../libDaisy/src/hid/gatein.h ****    @brief Generic Class for handling gate inputs through GPIO.
  10:../../libDaisy/src/hid/gatein.h ****    @author Stephen Hensley
  11:../../libDaisy/src/hid/gatein.h ****    @date    March 2020
  12:../../libDaisy/src/hid/gatein.h ****    @ingroup controls
  13:../../libDaisy/src/hid/gatein.h **** */
  14:../../libDaisy/src/hid/gatein.h **** class GateIn
  15:../../libDaisy/src/hid/gatein.h **** {
  16:../../libDaisy/src/hid/gatein.h ****   public:
  17:../../libDaisy/src/hid/gatein.h ****     /** GateIn 
  18:../../libDaisy/src/hid/gatein.h ****     Constructor 
  19:../../libDaisy/src/hid/gatein.h ****     */
  20:../../libDaisy/src/hid/gatein.h ****     GateIn() {}
  21:../../libDaisy/src/hid/gatein.h ****     /** GateIn~
  22:../../libDaisy/src/hid/gatein.h ****     Destructor 
  23:../../libDaisy/src/hid/gatein.h ****     */
  24:../../libDaisy/src/hid/gatein.h ****     ~GateIn() {}
  68              		.loc 4 24 5 view .LVU5
  69              		.loc 4 24 5 is_stmt 0 view .LVU6
  70              	.LBE706:
  71              	.LBB707:
  72              	.LBI707:
  73              		.loc 4 24 5 is_stmt 1 view .LVU7
  74              		.loc 4 24 5 is_stmt 0 view .LVU8
  75              	.LBE707:
  76              	.LBB708:
  77              	.LBI708:
  78              		.file 5 "../../libDaisy/src/dev/codec_pcm3060.h"
   1:../../libDaisy/src/dev/codec_pcm3060.h **** #pragma once
ARM GAS  /var/folders/hl/qgbwny5j0fd895c2c41bk3tw0000gp/T//cc3keNI2.s 			page 5


   2:../../libDaisy/src/dev/codec_pcm3060.h **** #ifndef DSY_CODEC_PCM3060_H
   3:../../libDaisy/src/dev/codec_pcm3060.h **** #define DSY_CODEC_PCM3060_H
   4:../../libDaisy/src/dev/codec_pcm3060.h **** #include "per/i2c.h"
   5:../../libDaisy/src/dev/codec_pcm3060.h **** namespace daisy
   6:../../libDaisy/src/dev/codec_pcm3060.h **** {
   7:../../libDaisy/src/dev/codec_pcm3060.h **** /**
   8:../../libDaisy/src/dev/codec_pcm3060.h ****  * @brief Driver for the TI PCM3060 Audio Codec.
   9:../../libDaisy/src/dev/codec_pcm3060.h ****  * @addtogroup codec
  10:../../libDaisy/src/dev/codec_pcm3060.h ****  * 
  11:../../libDaisy/src/dev/codec_pcm3060.h ****  * For now this is a limited interface that uses I2C to communicate with the PCM3060
  12:../../libDaisy/src/dev/codec_pcm3060.h ****  * The device can also be accessed with SPI, which is not yet supported.
  13:../../libDaisy/src/dev/codec_pcm3060.h ****  * 
  14:../../libDaisy/src/dev/codec_pcm3060.h ****  * For now all registers are set to their defaults, and the Init function will 
  15:../../libDaisy/src/dev/codec_pcm3060.h ****  * perform a MRST and SRST before setting the format to 24bit LJ, and disabling 
  16:../../libDaisy/src/dev/codec_pcm3060.h ****  * power save for both the ADC and DAC.
  17:../../libDaisy/src/dev/codec_pcm3060.h ****  *
  18:../../libDaisy/src/dev/codec_pcm3060.h ****  */
  19:../../libDaisy/src/dev/codec_pcm3060.h **** class Pcm3060
  20:../../libDaisy/src/dev/codec_pcm3060.h **** {
  21:../../libDaisy/src/dev/codec_pcm3060.h ****   public:
  22:../../libDaisy/src/dev/codec_pcm3060.h ****     enum class Result
  23:../../libDaisy/src/dev/codec_pcm3060.h ****     {
  24:../../libDaisy/src/dev/codec_pcm3060.h ****         OK,
  25:../../libDaisy/src/dev/codec_pcm3060.h ****         ERR,
  26:../../libDaisy/src/dev/codec_pcm3060.h ****     };
  27:../../libDaisy/src/dev/codec_pcm3060.h **** 
  28:../../libDaisy/src/dev/codec_pcm3060.h ****     Pcm3060() {}
  29:../../libDaisy/src/dev/codec_pcm3060.h ****     ~Pcm3060() {}
  79              		.loc 5 29 5 is_stmt 1 view .LVU9
  80              		.loc 5 29 5 is_stmt 0 view .LVU10
  81              	.LBE708:
  82              	.LBB709:
  83              	.LBI709:
  84              		.file 6 "../../libDaisy/src/hid/usb.h"
   1:../../libDaisy/src/hid/usb.h **** #pragma once
   2:../../libDaisy/src/hid/usb.h **** #ifndef DSY_HID_USB_H
   3:../../libDaisy/src/hid/usb.h **** #define DSY_HID_USB_H
   4:../../libDaisy/src/hid/usb.h **** #include <stdint.h>
   5:../../libDaisy/src/hid/usb.h **** #include <stdlib.h>
   6:../../libDaisy/src/hid/usb.h **** 
   7:../../libDaisy/src/hid/usb.h **** namespace daisy
   8:../../libDaisy/src/hid/usb.h **** /** @addtogroup human_interface
   9:../../libDaisy/src/hid/usb.h ****     @{
  10:../../libDaisy/src/hid/usb.h **** */
  11:../../libDaisy/src/hid/usb.h **** 
  12:../../libDaisy/src/hid/usb.h **** {
  13:../../libDaisy/src/hid/usb.h **** /** 
  14:../../libDaisy/src/hid/usb.h ****     @brief Interface for initializing and using the USB Peripherals on the daisy
  15:../../libDaisy/src/hid/usb.h ****     @author Stephen Hensley
  16:../../libDaisy/src/hid/usb.h ****     @date December 2019
  17:../../libDaisy/src/hid/usb.h **** */
  18:../../libDaisy/src/hid/usb.h **** class UsbHandle
  19:../../libDaisy/src/hid/usb.h **** {
  20:../../libDaisy/src/hid/usb.h ****   public:
  21:../../libDaisy/src/hid/usb.h ****     /** Return values for USBHandle Functions */
  22:../../libDaisy/src/hid/usb.h ****     enum class Result
  23:../../libDaisy/src/hid/usb.h ****     {
ARM GAS  /var/folders/hl/qgbwny5j0fd895c2c41bk3tw0000gp/T//cc3keNI2.s 			page 6


  24:../../libDaisy/src/hid/usb.h ****         OK,
  25:../../libDaisy/src/hid/usb.h ****         ERR,
  26:../../libDaisy/src/hid/usb.h ****     };
  27:../../libDaisy/src/hid/usb.h **** 
  28:../../libDaisy/src/hid/usb.h ****     /** Specified which of the two USB Peripherals to initialize. */
  29:../../libDaisy/src/hid/usb.h ****     enum UsbPeriph
  30:../../libDaisy/src/hid/usb.h ****     {
  31:../../libDaisy/src/hid/usb.h ****         FS_INTERNAL, /**< Internal pin */
  32:../../libDaisy/src/hid/usb.h ****         FS_EXTERNAL, /**< FS External D+ pin is Pin 38 (GPIO32). FS External D- pin is Pin 37 (GPIO
  33:../../libDaisy/src/hid/usb.h ****         FS_BOTH,     /**< Both */
  34:../../libDaisy/src/hid/usb.h ****     };
  35:../../libDaisy/src/hid/usb.h **** 
  36:../../libDaisy/src/hid/usb.h **** 
  37:../../libDaisy/src/hid/usb.h ****     /** Function called upon reception of a buffer */
  38:../../libDaisy/src/hid/usb.h ****     typedef void (*ReceiveCallback)(uint8_t* buff, uint32_t* len);
  39:../../libDaisy/src/hid/usb.h **** 
  40:../../libDaisy/src/hid/usb.h ****     UsbHandle() {}
  41:../../libDaisy/src/hid/usb.h **** 
  42:../../libDaisy/src/hid/usb.h ****     ~UsbHandle() {}
  85              		.loc 6 42 5 is_stmt 1 view .LVU11
  86              		.loc 6 42 5 is_stmt 0 view .LVU12
  87              	.LBE709:
  88              	.LBB710:
  89              	.LBI710:
  90              		.file 7 "../../libDaisy/src/per/adc.h"
   1:../../libDaisy/src/per/adc.h **** #pragma once
   2:../../libDaisy/src/per/adc.h **** #ifndef DSY_ADC_H
   3:../../libDaisy/src/per/adc.h **** #define DSY_ADC_H /**< Macro */
   4:../../libDaisy/src/per/adc.h **** #include <stdint.h>
   5:../../libDaisy/src/per/adc.h **** #include <stdlib.h>
   6:../../libDaisy/src/per/adc.h **** #include "daisy_core.h"
   7:../../libDaisy/src/per/adc.h **** #include "per/gpio.h"
   8:../../libDaisy/src/per/adc.h **** 
   9:../../libDaisy/src/per/adc.h **** #define DSY_ADC_MAX_CHANNELS 16 /**< Maximum number of ADC channels */
  10:../../libDaisy/src/per/adc.h **** 
  11:../../libDaisy/src/per/adc.h **** namespace daisy
  12:../../libDaisy/src/per/adc.h **** {
  13:../../libDaisy/src/per/adc.h **** /** @addtogroup per_analog
  14:../../libDaisy/src/per/adc.h ****     @{
  15:../../libDaisy/src/per/adc.h **** */
  16:../../libDaisy/src/per/adc.h **** 
  17:../../libDaisy/src/per/adc.h **** /* While there may not be many configuration options here,
  18:../../libDaisy/src/per/adc.h **** using a struct like this allows us to add more configuration
  19:../../libDaisy/src/per/adc.h **** later without breaking existing functionality.
  20:../../libDaisy/src/per/adc.h **** */
  21:../../libDaisy/src/per/adc.h **** 
  22:../../libDaisy/src/per/adc.h **** /** @brief   Configuration Structure for an ADC Channel 
  23:../../libDaisy/src/per/adc.h ****  *  @details This can be used to configure a a single input, 
  24:../../libDaisy/src/per/adc.h ****  *           or a multiplexed input, allowing up to 8 inputs on 
  25:../../libDaisy/src/per/adc.h ****  *           one channel.
  26:../../libDaisy/src/per/adc.h ****  *  @note    Sharing data lines to multiple muxes _is_ possible, but
  27:../../libDaisy/src/per/adc.h ****  *           each channel sharing data lines must be set to the maximum
  28:../../libDaisy/src/per/adc.h ****  *           number of channels, even if some multiplexers have fewer
  29:../../libDaisy/src/per/adc.h ****  *           inputs connected.
  30:../../libDaisy/src/per/adc.h **** */
  31:../../libDaisy/src/per/adc.h **** struct AdcChannelConfig
  32:../../libDaisy/src/per/adc.h **** {
ARM GAS  /var/folders/hl/qgbwny5j0fd895c2c41bk3tw0000gp/T//cc3keNI2.s 			page 7


  33:../../libDaisy/src/per/adc.h ****     /** Which pin to use for multiplexing */
  34:../../libDaisy/src/per/adc.h ****     enum MuxPin
  35:../../libDaisy/src/per/adc.h ****     {
  36:../../libDaisy/src/per/adc.h ****         MUX_SEL_0,    /**< & */
  37:../../libDaisy/src/per/adc.h ****         MUX_SEL_1,    /**< & */
  38:../../libDaisy/src/per/adc.h ****         MUX_SEL_2,    /**< & */
  39:../../libDaisy/src/per/adc.h ****         MUX_SEL_LAST, /**< & */
  40:../../libDaisy/src/per/adc.h ****     };
  41:../../libDaisy/src/per/adc.h **** 
  42:../../libDaisy/src/per/adc.h ****     /** Initializes a single ADC pin as an ADC. 
  43:../../libDaisy/src/per/adc.h ****     \param pin Pin to init.
  44:../../libDaisy/src/per/adc.h ****      */
  45:../../libDaisy/src/per/adc.h ****     void InitSingle(dsy_gpio_pin pin);
  46:../../libDaisy/src/per/adc.h **** 
  47:../../libDaisy/src/per/adc.h ****     /** 
  48:../../libDaisy/src/per/adc.h ****     Initializes a single ADC pin as a Multiplexed ADC.
  49:../../libDaisy/src/per/adc.h ****     Requires a CD405X Multiplexer connected to the pin.
  50:../../libDaisy/src/per/adc.h ****     You only need to supply the mux pins that are required,
  51:../../libDaisy/src/per/adc.h ****     e.g. a 4052 mux would only require mux_0 and mux_1.
  52:../../libDaisy/src/per/adc.h ****     Internal Callbacks handle the pin addressing.
  53:../../libDaisy/src/per/adc.h ****     \param mux_channels must be 1-8
  54:../../libDaisy/src/per/adc.h ****     \param mux_0 First mux pin
  55:../../libDaisy/src/per/adc.h ****     \param mux_1 Second mux pin
  56:../../libDaisy/src/per/adc.h ****     \param mux_2 Third mux pin
  57:../../libDaisy/src/per/adc.h ****     \param adc_pin &
  58:../../libDaisy/src/per/adc.h ****     */
  59:../../libDaisy/src/per/adc.h ****     void InitMux(dsy_gpio_pin adc_pin,
  60:../../libDaisy/src/per/adc.h ****                  size_t       mux_channels,
  61:../../libDaisy/src/per/adc.h ****                  dsy_gpio_pin mux_0,
  62:../../libDaisy/src/per/adc.h ****                  dsy_gpio_pin mux_1 = {DSY_GPIOX, 0},
  63:../../libDaisy/src/per/adc.h ****                  dsy_gpio_pin mux_2 = {DSY_GPIOX, 0});
  64:../../libDaisy/src/per/adc.h **** 
  65:../../libDaisy/src/per/adc.h ****     dsy_gpio pin_;                   /**< & */
  66:../../libDaisy/src/per/adc.h ****     dsy_gpio mux_pin_[MUX_SEL_LAST]; /**< & */
  67:../../libDaisy/src/per/adc.h ****     uint8_t  mux_channels_;          /**< & */
  68:../../libDaisy/src/per/adc.h **** };
  69:../../libDaisy/src/per/adc.h **** 
  70:../../libDaisy/src/per/adc.h **** /**
  71:../../libDaisy/src/per/adc.h ****    @brief Handler for analog to digital conversion
  72:../../libDaisy/src/per/adc.h **** */
  73:../../libDaisy/src/per/adc.h **** class AdcHandle
  74:../../libDaisy/src/per/adc.h **** {
  75:../../libDaisy/src/per/adc.h ****   public:
  76:../../libDaisy/src/per/adc.h ****     /** Supported oversampling amounts */
  77:../../libDaisy/src/per/adc.h ****     enum OverSampling
  78:../../libDaisy/src/per/adc.h ****     {
  79:../../libDaisy/src/per/adc.h ****         OVS_NONE, /**< & */
  80:../../libDaisy/src/per/adc.h ****         OVS_4,    /**< & */
  81:../../libDaisy/src/per/adc.h ****         OVS_8,    /**< & */
  82:../../libDaisy/src/per/adc.h ****         OVS_16,   /**< & */
  83:../../libDaisy/src/per/adc.h ****         OVS_32,   /**< & */
  84:../../libDaisy/src/per/adc.h ****         OVS_64,   /**< & */
  85:../../libDaisy/src/per/adc.h ****         OVS_128,  /**< & */
  86:../../libDaisy/src/per/adc.h ****         OVS_256,  /**< & */
  87:../../libDaisy/src/per/adc.h ****         OVS_512,  /**< & */
  88:../../libDaisy/src/per/adc.h ****         OVS_1024, /**< & */
  89:../../libDaisy/src/per/adc.h ****         OVS_LAST, /**< & */
ARM GAS  /var/folders/hl/qgbwny5j0fd895c2c41bk3tw0000gp/T//cc3keNI2.s 			page 8


  90:../../libDaisy/src/per/adc.h ****     };
  91:../../libDaisy/src/per/adc.h **** 
  92:../../libDaisy/src/per/adc.h ****     AdcHandle() {}
  93:../../libDaisy/src/per/adc.h ****     ~AdcHandle() {}
  91              		.loc 7 93 5 is_stmt 1 view .LVU13
  92              		.loc 7 93 5 is_stmt 0 view .LVU14
  93              	.LBE710:
  94              	.LBB711:
  95              	.LBI711:
  96              		.file 8 "../../libDaisy/src/hid/audio.h"
   1:../../libDaisy/src/hid/audio.h **** #ifndef DSY_AUDIO_H
   2:../../libDaisy/src/hid/audio.h **** #define DSY_AUDIO_H /**< & */
   3:../../libDaisy/src/hid/audio.h **** 
   4:../../libDaisy/src/hid/audio.h **** #include "per/sai.h"
   5:../../libDaisy/src/hid/audio.h **** 
   6:../../libDaisy/src/hid/audio.h **** namespace daisy
   7:../../libDaisy/src/hid/audio.h **** {
   8:../../libDaisy/src/hid/audio.h **** /** @brief Audio Engine Handle
   9:../../libDaisy/src/hid/audio.h ****  *  @ingroup audio 
  10:../../libDaisy/src/hid/audio.h ****  *  @details This class allows for higher level access to an audio engine.
  11:../../libDaisy/src/hid/audio.h ****  *           If you're using a SOM like the DaisySeed or DaisyPatchSM (or any 
  12:../../libDaisy/src/hid/audio.h ****  *            board that includes one of those objects) then the intialization
  13:../../libDaisy/src/hid/audio.h ****  *            is already taken  care of.
  14:../../libDaisy/src/hid/audio.h ****  *           If you're setting up your own custom hardware, or need to make changes
  15:../../libDaisy/src/hid/audio.h ****  *           you will have to take the following steps:
  16:../../libDaisy/src/hid/audio.h ****  *             1. Create and Initialize an SaiHandle or two depending on your requirements
  17:../../libDaisy/src/hid/audio.h ****  *             2. Initialize the Audio Handle with the desired settings and the Initialized SaiHand
  18:../../libDaisy/src/hid/audio.h ****  *             3. If the connected codec requires special configuration or initialization, do so
  19:../../libDaisy/src/hid/audio.h ****  *             4. Write a callback method using either the AudioCallback or the InterleavingAudioCa
  20:../../libDaisy/src/hid/audio.h ****  *             5. Start the Audio using one of the StartAudio function
  21:../../libDaisy/src/hid/audio.h ****  */
  22:../../libDaisy/src/hid/audio.h **** class AudioHandle
  23:../../libDaisy/src/hid/audio.h **** {
  24:../../libDaisy/src/hid/audio.h ****   public:
  25:../../libDaisy/src/hid/audio.h ****     /** Manually configurable details about the Audio Engine */
  26:../../libDaisy/src/hid/audio.h ****     /** TODO: Figure out how to get samplerate in here. */
  27:../../libDaisy/src/hid/audio.h ****     struct Config
  28:../../libDaisy/src/hid/audio.h ****     {
  29:../../libDaisy/src/hid/audio.h ****         /** number of samples to process per callback */
  30:../../libDaisy/src/hid/audio.h ****         size_t blocksize;
  31:../../libDaisy/src/hid/audio.h **** 
  32:../../libDaisy/src/hid/audio.h ****         /**< Sample rate of audio */
  33:../../libDaisy/src/hid/audio.h ****         SaiHandle::Config::SampleRate samplerate;
  34:../../libDaisy/src/hid/audio.h **** 
  35:../../libDaisy/src/hid/audio.h ****         /** factor for adjustment before and after callback for hardware that may have extra headro
  36:../../libDaisy/src/hid/audio.h ****         float postgain;
  37:../../libDaisy/src/hid/audio.h **** 
  38:../../libDaisy/src/hid/audio.h ****         /** factor for additional one-sided compensation to audio path for hardware that may
  39:../../libDaisy/src/hid/audio.h ****          *  have unequal input/output ranges
  40:../../libDaisy/src/hid/audio.h ****          */
  41:../../libDaisy/src/hid/audio.h ****         float output_compensation;
  42:../../libDaisy/src/hid/audio.h **** 
  43:../../libDaisy/src/hid/audio.h ****         /** Sets default values for config struct */
  44:../../libDaisy/src/hid/audio.h ****         Config()
  45:../../libDaisy/src/hid/audio.h ****         : blocksize(48),
  46:../../libDaisy/src/hid/audio.h ****           samplerate(SaiHandle::Config::SampleRate::SAI_48KHZ),
  47:../../libDaisy/src/hid/audio.h ****           postgain(1.f),
ARM GAS  /var/folders/hl/qgbwny5j0fd895c2c41bk3tw0000gp/T//cc3keNI2.s 			page 9


  48:../../libDaisy/src/hid/audio.h ****           output_compensation(1.f)
  49:../../libDaisy/src/hid/audio.h ****         {
  50:../../libDaisy/src/hid/audio.h ****         }
  51:../../libDaisy/src/hid/audio.h ****     };
  52:../../libDaisy/src/hid/audio.h **** 
  53:../../libDaisy/src/hid/audio.h ****     enum class Result
  54:../../libDaisy/src/hid/audio.h ****     {
  55:../../libDaisy/src/hid/audio.h ****         OK,
  56:../../libDaisy/src/hid/audio.h ****         ERR,
  57:../../libDaisy/src/hid/audio.h ****     };
  58:../../libDaisy/src/hid/audio.h **** 
  59:../../libDaisy/src/hid/audio.h ****     /** Non-Interleaving input buffer
  60:../../libDaisy/src/hid/audio.h ****      * Buffer arranged by float[chn][sample] 
  61:../../libDaisy/src/hid/audio.h ****      * const so that the user can't modify the input
  62:../../libDaisy/src/hid/audio.h ****      */
  63:../../libDaisy/src/hid/audio.h ****     typedef const float* const* InputBuffer;
  64:../../libDaisy/src/hid/audio.h **** 
  65:../../libDaisy/src/hid/audio.h ****     /** Non-Interleaving output buffer
  66:../../libDaisy/src/hid/audio.h ****      * Arranged by float[chn][sample] 
  67:../../libDaisy/src/hid/audio.h ****      */
  68:../../libDaisy/src/hid/audio.h ****     typedef float** OutputBuffer;
  69:../../libDaisy/src/hid/audio.h **** 
  70:../../libDaisy/src/hid/audio.h ****     /** Type for a Non-Interleaving audio callback 
  71:../../libDaisy/src/hid/audio.h ****      * Non-Interleaving audio callbacks in daisy will be of this type
  72:../../libDaisy/src/hid/audio.h ****      */
  73:../../libDaisy/src/hid/audio.h ****     typedef void (*AudioCallback)(InputBuffer  in,
  74:../../libDaisy/src/hid/audio.h ****                                   OutputBuffer out,
  75:../../libDaisy/src/hid/audio.h ****                                   size_t       size);
  76:../../libDaisy/src/hid/audio.h **** 
  77:../../libDaisy/src/hid/audio.h ****     /** Interleaving Input buffer
  78:../../libDaisy/src/hid/audio.h ****      ** audio is prepared as { L0, R0, L1, R1, . . . LN, RN }]
  79:../../libDaisy/src/hid/audio.h ****      ** this is const, as the user shouldn't modify it
  80:../../libDaisy/src/hid/audio.h ****     */
  81:../../libDaisy/src/hid/audio.h ****     typedef const float* InterleavingInputBuffer;
  82:../../libDaisy/src/hid/audio.h **** 
  83:../../libDaisy/src/hid/audio.h ****     /** Interleaving Output buffer 
  84:../../libDaisy/src/hid/audio.h ****      ** audio is prepared as { L0, R0, L1, R1, . . . LN, RN }
  85:../../libDaisy/src/hid/audio.h ****     */
  86:../../libDaisy/src/hid/audio.h ****     typedef float* InterleavingOutputBuffer;
  87:../../libDaisy/src/hid/audio.h **** 
  88:../../libDaisy/src/hid/audio.h ****     /** Interleaving Audio Callback 
  89:../../libDaisy/src/hid/audio.h ****      * Interleaving audio callbacks in daisy must be of this type
  90:../../libDaisy/src/hid/audio.h ****      */
  91:../../libDaisy/src/hid/audio.h ****     typedef void (*InterleavingAudioCallback)(InterleavingInputBuffer  in,
  92:../../libDaisy/src/hid/audio.h ****                                               InterleavingOutputBuffer out,
  93:../../libDaisy/src/hid/audio.h ****                                               size_t                   size);
  94:../../libDaisy/src/hid/audio.h **** 
  95:../../libDaisy/src/hid/audio.h ****     AudioHandle() : pimpl_(nullptr) {}
  96:../../libDaisy/src/hid/audio.h ****     ~AudioHandle() {}
  97              		.loc 8 96 5 is_stmt 1 view .LVU15
  98              		.loc 8 96 5 is_stmt 0 view .LVU16
  99              	.LBE711:
 100              	.LBB712:
 101              	.LBI712:
 102              		.file 9 "../../libDaisy/src/sys/system.h"
   1:../../libDaisy/src/sys/system.h **** #ifndef DSY_SYSTEM_H
   2:../../libDaisy/src/sys/system.h **** #define DSY_SYSTEM_H
ARM GAS  /var/folders/hl/qgbwny5j0fd895c2c41bk3tw0000gp/T//cc3keNI2.s 			page 10


   3:../../libDaisy/src/sys/system.h **** 
   4:../../libDaisy/src/sys/system.h **** #ifndef UNIT_TEST // for unit tests, a dummy implementation is provided below
   5:../../libDaisy/src/sys/system.h **** 
   6:../../libDaisy/src/sys/system.h **** #include <cstdint>
   7:../../libDaisy/src/sys/system.h **** #include "per/tim.h"
   8:../../libDaisy/src/sys/system.h **** 
   9:../../libDaisy/src/sys/system.h **** namespace daisy
  10:../../libDaisy/src/sys/system.h **** {
  11:../../libDaisy/src/sys/system.h **** /** A handle for interacting with the Core System. 
  12:../../libDaisy/src/sys/system.h ****  ** This includes the Clock tree, MPU, global DMA initialization,
  13:../../libDaisy/src/sys/system.h ****  ** cache handling, and any other necessary global initiailzation
  14:../../libDaisy/src/sys/system.h ****  **
  15:../../libDaisy/src/sys/system.h ****  ** @author shensley
  16:../../libDaisy/src/sys/system.h ****  ** @ingroup system
  17:../../libDaisy/src/sys/system.h ****  */
  18:../../libDaisy/src/sys/system.h **** class System
  19:../../libDaisy/src/sys/system.h **** {
  20:../../libDaisy/src/sys/system.h ****   public:
  21:../../libDaisy/src/sys/system.h ****     /** Contains settings for initializing the System */
  22:../../libDaisy/src/sys/system.h ****     struct Config
  23:../../libDaisy/src/sys/system.h ****     {
  24:../../libDaisy/src/sys/system.h ****         /** Specifies the system clock frequency that feeds APB/AHB clocks, etc. */
  25:../../libDaisy/src/sys/system.h ****         enum class SysClkFreq
  26:../../libDaisy/src/sys/system.h ****         {
  27:../../libDaisy/src/sys/system.h ****             FREQ_400MHZ,
  28:../../libDaisy/src/sys/system.h ****             FREQ_480MHZ,
  29:../../libDaisy/src/sys/system.h ****         };
  30:../../libDaisy/src/sys/system.h **** 
  31:../../libDaisy/src/sys/system.h ****         /** Method to call on the struct to set to defaults
  32:../../libDaisy/src/sys/system.h ****          ** CPU Freq set to 400MHz
  33:../../libDaisy/src/sys/system.h ****          ** Cache Enabled 
  34:../../libDaisy/src/sys/system.h ****          ** */
  35:../../libDaisy/src/sys/system.h ****         void Defaults()
  36:../../libDaisy/src/sys/system.h ****         {
  37:../../libDaisy/src/sys/system.h ****             cpu_freq    = SysClkFreq::FREQ_400MHZ;
  38:../../libDaisy/src/sys/system.h ****             use_dcache  = true;
  39:../../libDaisy/src/sys/system.h ****             use_icache  = true;
  40:../../libDaisy/src/sys/system.h ****             skip_clocks = false;
  41:../../libDaisy/src/sys/system.h ****         }
  42:../../libDaisy/src/sys/system.h **** 
  43:../../libDaisy/src/sys/system.h ****         /** Method to call on the struct to set to boost mode:
  44:../../libDaisy/src/sys/system.h ****          ** CPU Freq set to 480MHz
  45:../../libDaisy/src/sys/system.h ****          ** Cache Enabled 
  46:../../libDaisy/src/sys/system.h ****          ** */
  47:../../libDaisy/src/sys/system.h ****         void Boost()
  48:../../libDaisy/src/sys/system.h ****         {
  49:../../libDaisy/src/sys/system.h ****             cpu_freq    = SysClkFreq::FREQ_480MHZ;
  50:../../libDaisy/src/sys/system.h ****             use_dcache  = true;
  51:../../libDaisy/src/sys/system.h ****             use_icache  = true;
  52:../../libDaisy/src/sys/system.h ****             skip_clocks = false;
  53:../../libDaisy/src/sys/system.h ****         }
  54:../../libDaisy/src/sys/system.h **** 
  55:../../libDaisy/src/sys/system.h ****         SysClkFreq cpu_freq;
  56:../../libDaisy/src/sys/system.h ****         bool       use_dcache;
  57:../../libDaisy/src/sys/system.h ****         bool       use_icache;
  58:../../libDaisy/src/sys/system.h ****         bool       skip_clocks;
  59:../../libDaisy/src/sys/system.h ****     };
ARM GAS  /var/folders/hl/qgbwny5j0fd895c2c41bk3tw0000gp/T//cc3keNI2.s 			page 11


  60:../../libDaisy/src/sys/system.h **** 
  61:../../libDaisy/src/sys/system.h ****     /** Describes the different regions of memory available to the Daisy
  62:../../libDaisy/src/sys/system.h ****      * 
  63:../../libDaisy/src/sys/system.h ****      */
  64:../../libDaisy/src/sys/system.h ****     enum MemoryRegion
  65:../../libDaisy/src/sys/system.h ****     {
  66:../../libDaisy/src/sys/system.h ****         INTERNAL_FLASH = 0,
  67:../../libDaisy/src/sys/system.h ****         ITCMRAM,
  68:../../libDaisy/src/sys/system.h ****         DTCMRAM,
  69:../../libDaisy/src/sys/system.h ****         SRAM_D1,
  70:../../libDaisy/src/sys/system.h ****         SRAM_D2,
  71:../../libDaisy/src/sys/system.h ****         SRAM_D3,
  72:../../libDaisy/src/sys/system.h ****         SDRAM,
  73:../../libDaisy/src/sys/system.h ****         QSPI,
  74:../../libDaisy/src/sys/system.h ****         INVALID_ADDRESS,
  75:../../libDaisy/src/sys/system.h ****     };
  76:../../libDaisy/src/sys/system.h **** 
  77:../../libDaisy/src/sys/system.h ****     System() {}
  78:../../libDaisy/src/sys/system.h ****     ~System() {}
 103              		.loc 9 78 5 is_stmt 1 view .LVU17
 104              		.loc 9 78 5 is_stmt 0 view .LVU18
 105              	.LBE712:
 106              		.loc 3 65 26 view .LVU19
 107 0000 7047     		bx	lr
 108              		.cfi_endproc
 109              	.LFE2529:
 111              		.weak	_ZN5daisy8patch_sm12DaisyPatchSMD1Ev
 112              		.thumb_set _ZN5daisy8patch_sm12DaisyPatchSMD1Ev,_ZN5daisy8patch_sm12DaisyPatchSMD2Ev
 113 0002 00BF     		.section	.text._ZN7daisysp8ReverbScD2Ev,"axG",%progbits,_ZN7daisysp8ReverbScD5Ev,comdat
 114              		.align	1
 115              		.p2align 2,,3
 116              		.weak	_ZN7daisysp8ReverbScD2Ev
 117              		.syntax unified
 118              		.thumb
 119              		.thumb_func
 121              	_ZN7daisysp8ReverbScD2Ev:
 122              	.LVL2:
 123              	.LFB4427:
 124              		.file 10 "../../DaisySP/Source/Effects/reverbsc.h"
   1:../../DaisySP/Source/Effects/reverbsc.h **** #pragma once
   2:../../DaisySP/Source/Effects/reverbsc.h **** #ifndef DSYSP_REVERBSC_H
   3:../../DaisySP/Source/Effects/reverbsc.h **** #define DSYSP_REVERBSC_H
   4:../../DaisySP/Source/Effects/reverbsc.h **** 
   5:../../DaisySP/Source/Effects/reverbsc.h **** #define DSY_REVERBSC_MAX_SIZE 98936
   6:../../DaisySP/Source/Effects/reverbsc.h **** 
   7:../../DaisySP/Source/Effects/reverbsc.h **** namespace daisysp
   8:../../DaisySP/Source/Effects/reverbsc.h **** {
   9:../../DaisySP/Source/Effects/reverbsc.h **** /**Delay line for internal reverb use
  10:../../DaisySP/Source/Effects/reverbsc.h **** */
  11:../../DaisySP/Source/Effects/reverbsc.h **** typedef struct
  12:../../DaisySP/Source/Effects/reverbsc.h **** {
  13:../../DaisySP/Source/Effects/reverbsc.h ****     int    write_pos;         /**< write position */
  14:../../DaisySP/Source/Effects/reverbsc.h ****     int    buffer_size;       /**< buffer size */
  15:../../DaisySP/Source/Effects/reverbsc.h ****     int    read_pos;          /**< read position */
  16:../../DaisySP/Source/Effects/reverbsc.h ****     int    read_pos_frac;     /**< fractional component of read pos */
  17:../../DaisySP/Source/Effects/reverbsc.h ****     int    read_pos_frac_inc; /**< increment for fractional */
  18:../../DaisySP/Source/Effects/reverbsc.h ****     int    dummy;             /**<  dummy var */
ARM GAS  /var/folders/hl/qgbwny5j0fd895c2c41bk3tw0000gp/T//cc3keNI2.s 			page 12


  19:../../DaisySP/Source/Effects/reverbsc.h ****     int    seed_val;          /**< randseed */
  20:../../DaisySP/Source/Effects/reverbsc.h ****     int    rand_line_cnt;     /**< number of random lines */
  21:../../DaisySP/Source/Effects/reverbsc.h ****     float  filter_state;      /**< state of filter */
  22:../../DaisySP/Source/Effects/reverbsc.h ****     float *buf;               /**< buffer ptr */
  23:../../DaisySP/Source/Effects/reverbsc.h **** } ReverbScDl;
  24:../../DaisySP/Source/Effects/reverbsc.h **** 
  25:../../DaisySP/Source/Effects/reverbsc.h **** /** Stereo Reverb
  26:../../DaisySP/Source/Effects/reverbsc.h **** 
  27:../../DaisySP/Source/Effects/reverbsc.h **** Reverb SC:               Ported from csound/soundpipe
  28:../../DaisySP/Source/Effects/reverbsc.h **** 
  29:../../DaisySP/Source/Effects/reverbsc.h **** Original author(s):        Sean Costello, Istvan Varga
  30:../../DaisySP/Source/Effects/reverbsc.h **** 
  31:../../DaisySP/Source/Effects/reverbsc.h **** Year:                    1999, 2005
  32:../../DaisySP/Source/Effects/reverbsc.h **** 
  33:../../DaisySP/Source/Effects/reverbsc.h **** Ported to soundpipe by:  Paul Batchelor
  34:../../DaisySP/Source/Effects/reverbsc.h **** 
  35:../../DaisySP/Source/Effects/reverbsc.h **** Ported by:                Stephen Hensley
  36:../../DaisySP/Source/Effects/reverbsc.h **** */
  37:../../DaisySP/Source/Effects/reverbsc.h **** class ReverbSc
  38:../../DaisySP/Source/Effects/reverbsc.h **** {
  39:../../DaisySP/Source/Effects/reverbsc.h ****   public:
  40:../../DaisySP/Source/Effects/reverbsc.h ****     ReverbSc() {}
  41:../../DaisySP/Source/Effects/reverbsc.h ****     ~ReverbSc() {}
 125              		.loc 10 41 5 is_stmt 1 view -0
 126              		.cfi_startproc
 127              		@ args = 0, pretend = 0, frame = 0
 128              		@ frame_needed = 0, uses_anonymous_args = 0
 129              		@ link register save eliminated.
 130              		.loc 10 41 18 is_stmt 0 view .LVU21
 131 0000 7047     		bx	lr
 132              		.cfi_endproc
 133              	.LFE4427:
 135              		.weak	_ZN7daisysp8ReverbScD1Ev
 136              		.thumb_set _ZN7daisysp8ReverbScD1Ev,_ZN7daisysp8ReverbScD2Ev
 137 0002 00BF     		.section	.text._ZN5daisy11OledDisplayINS_13SSD130xDriverILj128ELj64ENS_24SSD130x4WireSpiTransportE
 138              		.align	1
 139              		.p2align 2,,3
 140              		.weak	_ZN5daisy11OledDisplayINS_13SSD130xDriverILj128ELj64ENS_24SSD130x4WireSpiTransportEEEE4FillE
 141              		.syntax unified
 142              		.thumb
 143              		.thumb_func
 145              	_ZN5daisy11OledDisplayINS_13SSD130xDriverILj128ELj64ENS_24SSD130x4WireSpiTransportEEEE4FillEb:
 146              	.LVL3:
 147              	.LFB5154:
 148              		.file 11 "../../libDaisy/src/hid/disp/oled_display.h"
   1:../../libDaisy/src/hid/disp/oled_display.h **** #pragma once
   2:../../libDaisy/src/hid/disp/oled_display.h **** #ifndef DSY_OLED_DISPLAY_H
   3:../../libDaisy/src/hid/disp/oled_display.h **** #define DSY_OLED_DISPLAY_H /**< Macro */
   4:../../libDaisy/src/hid/disp/oled_display.h **** 
   5:../../libDaisy/src/hid/disp/oled_display.h **** #include "display.h"
   6:../../libDaisy/src/hid/disp/oled_display.h **** 
   7:../../libDaisy/src/hid/disp/oled_display.h **** namespace daisy
   8:../../libDaisy/src/hid/disp/oled_display.h **** {
   9:../../libDaisy/src/hid/disp/oled_display.h **** /** 
  10:../../libDaisy/src/hid/disp/oled_display.h ****  * This class is for drawing to a monochrome OLED display. 
  11:../../libDaisy/src/hid/disp/oled_display.h ****  * @ingroup device
  12:../../libDaisy/src/hid/disp/oled_display.h **** */
ARM GAS  /var/folders/hl/qgbwny5j0fd895c2c41bk3tw0000gp/T//cc3keNI2.s 			page 13


  13:../../libDaisy/src/hid/disp/oled_display.h **** template <typename DisplayDriver>
  14:../../libDaisy/src/hid/disp/oled_display.h **** class OledDisplay : public OneBitGraphicsDisplayImpl<OledDisplay<DisplayDriver>>
  15:../../libDaisy/src/hid/disp/oled_display.h **** {
  16:../../libDaisy/src/hid/disp/oled_display.h ****   public:
  17:../../libDaisy/src/hid/disp/oled_display.h ****     OledDisplay() {}
  18:../../libDaisy/src/hid/disp/oled_display.h ****     virtual ~OledDisplay() {}
  19:../../libDaisy/src/hid/disp/oled_display.h **** 
  20:../../libDaisy/src/hid/disp/oled_display.h ****     struct Config
  21:../../libDaisy/src/hid/disp/oled_display.h ****     {
  22:../../libDaisy/src/hid/disp/oled_display.h ****         typename DisplayDriver::Config driver_config;
  23:../../libDaisy/src/hid/disp/oled_display.h ****     };
  24:../../libDaisy/src/hid/disp/oled_display.h **** 
  25:../../libDaisy/src/hid/disp/oled_display.h ****     void Init(Config config) { driver_.Init(config.driver_config); }
  26:../../libDaisy/src/hid/disp/oled_display.h **** 
  27:../../libDaisy/src/hid/disp/oled_display.h ****     uint16_t Height() const override { return driver_.Height(); }
  28:../../libDaisy/src/hid/disp/oled_display.h ****     uint16_t Width() const override { return driver_.Width(); }
  29:../../libDaisy/src/hid/disp/oled_display.h **** 
  30:../../libDaisy/src/hid/disp/oled_display.h ****     /** 
  31:../../libDaisy/src/hid/disp/oled_display.h ****     Fills the entire display with either on/off.
  32:../../libDaisy/src/hid/disp/oled_display.h ****     \param on Sets on or off.
  33:../../libDaisy/src/hid/disp/oled_display.h ****     */
  34:../../libDaisy/src/hid/disp/oled_display.h ****     void Fill(bool on) override { driver_.Fill(on); }
 149              		.loc 11 34 10 is_stmt 1 view -0
 150              		.cfi_startproc
 151              		@ args = 0, pretend = 0, frame = 0
 152              		@ frame_needed = 0, uses_anonymous_args = 0
 153              		@ link register save eliminated.
 154              	.LBB713:
 155              	.LBI713:
 156              		.file 12 "../../libDaisy/src/dev/oled_ssd130x.h"
   1:../../libDaisy/src/dev/oled_ssd130x.h **** #pragma once
   2:../../libDaisy/src/dev/oled_ssd130x.h **** #ifndef SA_OLED_SSD130X_H
   3:../../libDaisy/src/dev/oled_ssd130x.h **** #define SA_OLED_SSD130X_H /**< & */
   4:../../libDaisy/src/dev/oled_ssd130x.h **** 
   5:../../libDaisy/src/dev/oled_ssd130x.h **** #include "per/i2c.h"
   6:../../libDaisy/src/dev/oled_ssd130x.h **** #include "per/spi.h"
   7:../../libDaisy/src/dev/oled_ssd130x.h **** #include "per/gpio.h"
   8:../../libDaisy/src/dev/oled_ssd130x.h **** #include "sys/system.h"
   9:../../libDaisy/src/dev/oled_ssd130x.h **** 
  10:../../libDaisy/src/dev/oled_ssd130x.h **** namespace daisy
  11:../../libDaisy/src/dev/oled_ssd130x.h **** {
  12:../../libDaisy/src/dev/oled_ssd130x.h **** /**
  13:../../libDaisy/src/dev/oled_ssd130x.h ****  * I2C Transport for SSD1306 / SSD1309 OLED display devices
  14:../../libDaisy/src/dev/oled_ssd130x.h ****  */
  15:../../libDaisy/src/dev/oled_ssd130x.h **** class SSD130xI2CTransport
  16:../../libDaisy/src/dev/oled_ssd130x.h **** {
  17:../../libDaisy/src/dev/oled_ssd130x.h ****   public:
  18:../../libDaisy/src/dev/oled_ssd130x.h ****     struct Config
  19:../../libDaisy/src/dev/oled_ssd130x.h ****     {
  20:../../libDaisy/src/dev/oled_ssd130x.h ****         Config()
  21:../../libDaisy/src/dev/oled_ssd130x.h ****         {
  22:../../libDaisy/src/dev/oled_ssd130x.h ****             // Intialize using defaults
  23:../../libDaisy/src/dev/oled_ssd130x.h ****             Defaults();
  24:../../libDaisy/src/dev/oled_ssd130x.h ****         }
  25:../../libDaisy/src/dev/oled_ssd130x.h ****         I2CHandle::Config i2c_config;
  26:../../libDaisy/src/dev/oled_ssd130x.h ****         uint8_t           i2c_address;
  27:../../libDaisy/src/dev/oled_ssd130x.h ****         void              Defaults()
ARM GAS  /var/folders/hl/qgbwny5j0fd895c2c41bk3tw0000gp/T//cc3keNI2.s 			page 14


  28:../../libDaisy/src/dev/oled_ssd130x.h ****         {
  29:../../libDaisy/src/dev/oled_ssd130x.h ****             i2c_config.periph         = I2CHandle::Config::Peripheral::I2C_1;
  30:../../libDaisy/src/dev/oled_ssd130x.h ****             i2c_config.speed          = I2CHandle::Config::Speed::I2C_1MHZ;
  31:../../libDaisy/src/dev/oled_ssd130x.h ****             i2c_config.mode           = I2CHandle::Config::Mode::I2C_MASTER;
  32:../../libDaisy/src/dev/oled_ssd130x.h ****             i2c_config.pin_config.scl = {DSY_GPIOB, 8};
  33:../../libDaisy/src/dev/oled_ssd130x.h ****             i2c_config.pin_config.sda = {DSY_GPIOB, 9};
  34:../../libDaisy/src/dev/oled_ssd130x.h ****             i2c_address               = 0x3C;
  35:../../libDaisy/src/dev/oled_ssd130x.h ****         }
  36:../../libDaisy/src/dev/oled_ssd130x.h ****     };
  37:../../libDaisy/src/dev/oled_ssd130x.h ****     void Init(const Config& config)
  38:../../libDaisy/src/dev/oled_ssd130x.h ****     {
  39:../../libDaisy/src/dev/oled_ssd130x.h ****         i2c_address_ = config.i2c_address;
  40:../../libDaisy/src/dev/oled_ssd130x.h ****         i2c_.Init(config.i2c_config);
  41:../../libDaisy/src/dev/oled_ssd130x.h ****     };
  42:../../libDaisy/src/dev/oled_ssd130x.h ****     void SendCommand(uint8_t cmd)
  43:../../libDaisy/src/dev/oled_ssd130x.h ****     {
  44:../../libDaisy/src/dev/oled_ssd130x.h ****         uint8_t buf[2] = {0X00, cmd};
  45:../../libDaisy/src/dev/oled_ssd130x.h ****         i2c_.TransmitBlocking(i2c_address_, buf, 2, 1000);
  46:../../libDaisy/src/dev/oled_ssd130x.h ****     };
  47:../../libDaisy/src/dev/oled_ssd130x.h **** 
  48:../../libDaisy/src/dev/oled_ssd130x.h ****     void SendData(uint8_t* buff, size_t size)
  49:../../libDaisy/src/dev/oled_ssd130x.h ****     {
  50:../../libDaisy/src/dev/oled_ssd130x.h ****         for(size_t i = 0; i < size; i++)
  51:../../libDaisy/src/dev/oled_ssd130x.h ****         {
  52:../../libDaisy/src/dev/oled_ssd130x.h ****             uint8_t buf[2] = {0X40, buff[i]};
  53:../../libDaisy/src/dev/oled_ssd130x.h ****             i2c_.TransmitBlocking(i2c_address_, buf, 2, 1000);
  54:../../libDaisy/src/dev/oled_ssd130x.h ****         }
  55:../../libDaisy/src/dev/oled_ssd130x.h ****     };
  56:../../libDaisy/src/dev/oled_ssd130x.h **** 
  57:../../libDaisy/src/dev/oled_ssd130x.h ****   private:
  58:../../libDaisy/src/dev/oled_ssd130x.h ****     daisy::I2CHandle i2c_;
  59:../../libDaisy/src/dev/oled_ssd130x.h ****     uint8_t          i2c_address_;
  60:../../libDaisy/src/dev/oled_ssd130x.h **** };
  61:../../libDaisy/src/dev/oled_ssd130x.h **** 
  62:../../libDaisy/src/dev/oled_ssd130x.h **** /**
  63:../../libDaisy/src/dev/oled_ssd130x.h ****  * 4 Wire SPI Transport for SSD1306 / SSD1309 OLED display devices
  64:../../libDaisy/src/dev/oled_ssd130x.h ****  */
  65:../../libDaisy/src/dev/oled_ssd130x.h **** class SSD130x4WireSpiTransport
  66:../../libDaisy/src/dev/oled_ssd130x.h **** {
  67:../../libDaisy/src/dev/oled_ssd130x.h ****   public:
  68:../../libDaisy/src/dev/oled_ssd130x.h ****     struct Config
  69:../../libDaisy/src/dev/oled_ssd130x.h ****     {
  70:../../libDaisy/src/dev/oled_ssd130x.h ****         Config()
  71:../../libDaisy/src/dev/oled_ssd130x.h ****         {
  72:../../libDaisy/src/dev/oled_ssd130x.h ****             // Initialize using defaults
  73:../../libDaisy/src/dev/oled_ssd130x.h ****             Defaults();
  74:../../libDaisy/src/dev/oled_ssd130x.h ****         }
  75:../../libDaisy/src/dev/oled_ssd130x.h ****         SpiHandle::Config spi_config;
  76:../../libDaisy/src/dev/oled_ssd130x.h ****         struct
  77:../../libDaisy/src/dev/oled_ssd130x.h ****         {
  78:../../libDaisy/src/dev/oled_ssd130x.h ****             dsy_gpio_pin dc;    /**< & */
  79:../../libDaisy/src/dev/oled_ssd130x.h ****             dsy_gpio_pin reset; /**< & */
  80:../../libDaisy/src/dev/oled_ssd130x.h ****         } pin_config;
  81:../../libDaisy/src/dev/oled_ssd130x.h ****         void Defaults()
  82:../../libDaisy/src/dev/oled_ssd130x.h ****         {
  83:../../libDaisy/src/dev/oled_ssd130x.h ****             // SPI peripheral config
  84:../../libDaisy/src/dev/oled_ssd130x.h ****             spi_config.periph = SpiHandle::Config::Peripheral::SPI_1;
ARM GAS  /var/folders/hl/qgbwny5j0fd895c2c41bk3tw0000gp/T//cc3keNI2.s 			page 15


  85:../../libDaisy/src/dev/oled_ssd130x.h ****             spi_config.mode   = SpiHandle::Config::Mode::MASTER;
  86:../../libDaisy/src/dev/oled_ssd130x.h ****             spi_config.direction
  87:../../libDaisy/src/dev/oled_ssd130x.h ****                 = SpiHandle::Config::Direction::TWO_LINES_TX_ONLY;
  88:../../libDaisy/src/dev/oled_ssd130x.h ****             spi_config.datasize       = 8;
  89:../../libDaisy/src/dev/oled_ssd130x.h ****             spi_config.clock_polarity = SpiHandle::Config::ClockPolarity::LOW;
  90:../../libDaisy/src/dev/oled_ssd130x.h ****             spi_config.clock_phase    = SpiHandle::Config::ClockPhase::ONE_EDGE;
  91:../../libDaisy/src/dev/oled_ssd130x.h ****             spi_config.nss            = SpiHandle::Config::NSS::HARD_OUTPUT;
  92:../../libDaisy/src/dev/oled_ssd130x.h ****             spi_config.baud_prescaler = SpiHandle::Config::BaudPrescaler::PS_8;
  93:../../libDaisy/src/dev/oled_ssd130x.h ****             // SPI pin config
  94:../../libDaisy/src/dev/oled_ssd130x.h ****             spi_config.pin_config.sclk = {DSY_GPIOG, 11};
  95:../../libDaisy/src/dev/oled_ssd130x.h ****             spi_config.pin_config.miso = {DSY_GPIOX, 0};
  96:../../libDaisy/src/dev/oled_ssd130x.h ****             spi_config.pin_config.mosi = {DSY_GPIOB, 5};
  97:../../libDaisy/src/dev/oled_ssd130x.h ****             spi_config.pin_config.nss  = {DSY_GPIOG, 10};
  98:../../libDaisy/src/dev/oled_ssd130x.h ****             // SSD130x control pin config
  99:../../libDaisy/src/dev/oled_ssd130x.h ****             pin_config.dc    = {DSY_GPIOB, 4};
 100:../../libDaisy/src/dev/oled_ssd130x.h ****             pin_config.reset = {DSY_GPIOB, 15};
 101:../../libDaisy/src/dev/oled_ssd130x.h ****         }
 102:../../libDaisy/src/dev/oled_ssd130x.h ****     };
 103:../../libDaisy/src/dev/oled_ssd130x.h ****     void Init(const Config& config)
 104:../../libDaisy/src/dev/oled_ssd130x.h ****     {
 105:../../libDaisy/src/dev/oled_ssd130x.h ****         // Initialize both GPIO
 106:../../libDaisy/src/dev/oled_ssd130x.h ****         pin_dc_.mode = DSY_GPIO_MODE_OUTPUT_PP;
 107:../../libDaisy/src/dev/oled_ssd130x.h ****         pin_dc_.pin  = config.pin_config.dc;
 108:../../libDaisy/src/dev/oled_ssd130x.h ****         dsy_gpio_init(&pin_dc_);
 109:../../libDaisy/src/dev/oled_ssd130x.h ****         pin_reset_.mode = DSY_GPIO_MODE_OUTPUT_PP;
 110:../../libDaisy/src/dev/oled_ssd130x.h ****         pin_reset_.pin  = config.pin_config.reset;
 111:../../libDaisy/src/dev/oled_ssd130x.h ****         dsy_gpio_init(&pin_reset_);
 112:../../libDaisy/src/dev/oled_ssd130x.h **** 
 113:../../libDaisy/src/dev/oled_ssd130x.h ****         // Initialize SPI
 114:../../libDaisy/src/dev/oled_ssd130x.h ****         spi_.Init(config.spi_config);
 115:../../libDaisy/src/dev/oled_ssd130x.h **** 
 116:../../libDaisy/src/dev/oled_ssd130x.h ****         // Reset and Configure OLED.
 117:../../libDaisy/src/dev/oled_ssd130x.h ****         dsy_gpio_write(&pin_reset_, 0);
 118:../../libDaisy/src/dev/oled_ssd130x.h ****         System::Delay(10);
 119:../../libDaisy/src/dev/oled_ssd130x.h ****         dsy_gpio_write(&pin_reset_, 1);
 120:../../libDaisy/src/dev/oled_ssd130x.h ****         System::Delay(10);
 121:../../libDaisy/src/dev/oled_ssd130x.h ****     };
 122:../../libDaisy/src/dev/oled_ssd130x.h ****     void SendCommand(uint8_t cmd)
 123:../../libDaisy/src/dev/oled_ssd130x.h ****     {
 124:../../libDaisy/src/dev/oled_ssd130x.h ****         dsy_gpio_write(&pin_dc_, 0);
 125:../../libDaisy/src/dev/oled_ssd130x.h ****         spi_.BlockingTransmit(&cmd, 1);
 126:../../libDaisy/src/dev/oled_ssd130x.h ****     };
 127:../../libDaisy/src/dev/oled_ssd130x.h **** 
 128:../../libDaisy/src/dev/oled_ssd130x.h ****     void SendData(uint8_t* buff, size_t size)
 129:../../libDaisy/src/dev/oled_ssd130x.h ****     {
 130:../../libDaisy/src/dev/oled_ssd130x.h ****         dsy_gpio_write(&pin_dc_, 1);
 131:../../libDaisy/src/dev/oled_ssd130x.h ****         spi_.BlockingTransmit(buff, size);
 132:../../libDaisy/src/dev/oled_ssd130x.h ****     };
 133:../../libDaisy/src/dev/oled_ssd130x.h **** 
 134:../../libDaisy/src/dev/oled_ssd130x.h ****   private:
 135:../../libDaisy/src/dev/oled_ssd130x.h ****     SpiHandle spi_;
 136:../../libDaisy/src/dev/oled_ssd130x.h ****     dsy_gpio  pin_reset_;
 137:../../libDaisy/src/dev/oled_ssd130x.h ****     dsy_gpio  pin_dc_;
 138:../../libDaisy/src/dev/oled_ssd130x.h **** };
 139:../../libDaisy/src/dev/oled_ssd130x.h **** 
 140:../../libDaisy/src/dev/oled_ssd130x.h **** /**
 141:../../libDaisy/src/dev/oled_ssd130x.h ****  * Soft SPI Transport for SSD1306 / SSD1309 OLED display devices
ARM GAS  /var/folders/hl/qgbwny5j0fd895c2c41bk3tw0000gp/T//cc3keNI2.s 			page 16


 142:../../libDaisy/src/dev/oled_ssd130x.h ****  */
 143:../../libDaisy/src/dev/oled_ssd130x.h **** class SSD130x4WireSoftSpiTransport
 144:../../libDaisy/src/dev/oled_ssd130x.h **** {
 145:../../libDaisy/src/dev/oled_ssd130x.h ****   public:
 146:../../libDaisy/src/dev/oled_ssd130x.h ****     struct Config
 147:../../libDaisy/src/dev/oled_ssd130x.h ****     {
 148:../../libDaisy/src/dev/oled_ssd130x.h ****         Config()
 149:../../libDaisy/src/dev/oled_ssd130x.h ****         {
 150:../../libDaisy/src/dev/oled_ssd130x.h ****             // Initialize using defaults
 151:../../libDaisy/src/dev/oled_ssd130x.h ****             Defaults();
 152:../../libDaisy/src/dev/oled_ssd130x.h ****         }
 153:../../libDaisy/src/dev/oled_ssd130x.h ****         struct
 154:../../libDaisy/src/dev/oled_ssd130x.h ****         {
 155:../../libDaisy/src/dev/oled_ssd130x.h ****             uint32_t     sclk_delay;
 156:../../libDaisy/src/dev/oled_ssd130x.h ****             dsy_gpio_pin sclk;
 157:../../libDaisy/src/dev/oled_ssd130x.h ****             dsy_gpio_pin mosi;
 158:../../libDaisy/src/dev/oled_ssd130x.h ****             dsy_gpio_pin dc;
 159:../../libDaisy/src/dev/oled_ssd130x.h ****             dsy_gpio_pin reset;
 160:../../libDaisy/src/dev/oled_ssd130x.h ****         } pin_config;
 161:../../libDaisy/src/dev/oled_ssd130x.h ****         void Defaults()
 162:../../libDaisy/src/dev/oled_ssd130x.h ****         {
 163:../../libDaisy/src/dev/oled_ssd130x.h ****             pin_config.sclk_delay = 0; // fast as possible?!
 164:../../libDaisy/src/dev/oled_ssd130x.h ****             // SPI peripheral config
 165:../../libDaisy/src/dev/oled_ssd130x.h ****             pin_config.sclk = {DSY_GPIOD, 3}; /**< D10 - SPI2 SCK  */
 166:../../libDaisy/src/dev/oled_ssd130x.h ****             pin_config.mosi = {DSY_GPIOC, 3}; /**< D9  - SPI2 MOSI */
 167:../../libDaisy/src/dev/oled_ssd130x.h ****             // SSD130x control pin config
 168:../../libDaisy/src/dev/oled_ssd130x.h ****             pin_config.dc    = {DSY_GPIOC, 11}; //D2
 169:../../libDaisy/src/dev/oled_ssd130x.h ****             pin_config.reset = {DSY_GPIOC, 10}; //D3
 170:../../libDaisy/src/dev/oled_ssd130x.h ****         }
 171:../../libDaisy/src/dev/oled_ssd130x.h ****     };
 172:../../libDaisy/src/dev/oled_ssd130x.h ****     void Init(const Config& config)
 173:../../libDaisy/src/dev/oled_ssd130x.h ****     {
 174:../../libDaisy/src/dev/oled_ssd130x.h ****         // Initialize both GPIO
 175:../../libDaisy/src/dev/oled_ssd130x.h ****         pin_sclk_.mode = DSY_GPIO_MODE_OUTPUT_PP;
 176:../../libDaisy/src/dev/oled_ssd130x.h ****         pin_sclk_.pin  = config.pin_config.sclk;
 177:../../libDaisy/src/dev/oled_ssd130x.h ****         dsy_gpio_init(&pin_sclk_);
 178:../../libDaisy/src/dev/oled_ssd130x.h ****         dsy_gpio_write(&pin_sclk_, 1); //ClockPolarity::LOW
 179:../../libDaisy/src/dev/oled_ssd130x.h ****         clk_delay      = config.pin_config.sclk_delay;
 180:../../libDaisy/src/dev/oled_ssd130x.h ****         pin_mosi_.mode = DSY_GPIO_MODE_OUTPUT_PP;
 181:../../libDaisy/src/dev/oled_ssd130x.h ****         pin_mosi_.pin  = config.pin_config.mosi;
 182:../../libDaisy/src/dev/oled_ssd130x.h ****         dsy_gpio_init(&pin_mosi_);
 183:../../libDaisy/src/dev/oled_ssd130x.h ****         dsy_gpio_write(&pin_mosi_, 0);
 184:../../libDaisy/src/dev/oled_ssd130x.h **** 
 185:../../libDaisy/src/dev/oled_ssd130x.h ****         pin_dc_.mode = DSY_GPIO_MODE_OUTPUT_PP;
 186:../../libDaisy/src/dev/oled_ssd130x.h ****         pin_dc_.pin  = config.pin_config.dc;
 187:../../libDaisy/src/dev/oled_ssd130x.h ****         dsy_gpio_init(&pin_dc_);
 188:../../libDaisy/src/dev/oled_ssd130x.h ****         pin_reset_.mode = DSY_GPIO_MODE_OUTPUT_PP;
 189:../../libDaisy/src/dev/oled_ssd130x.h ****         pin_reset_.pin  = config.pin_config.reset;
 190:../../libDaisy/src/dev/oled_ssd130x.h ****         dsy_gpio_init(&pin_reset_);
 191:../../libDaisy/src/dev/oled_ssd130x.h **** 
 192:../../libDaisy/src/dev/oled_ssd130x.h ****         // Reset and Configure OLED.
 193:../../libDaisy/src/dev/oled_ssd130x.h ****         dsy_gpio_write(&pin_reset_, 0);
 194:../../libDaisy/src/dev/oled_ssd130x.h ****         System::Delay(10);
 195:../../libDaisy/src/dev/oled_ssd130x.h ****         dsy_gpio_write(&pin_reset_, 1);
 196:../../libDaisy/src/dev/oled_ssd130x.h ****         System::Delay(10);
 197:../../libDaisy/src/dev/oled_ssd130x.h ****     };
 198:../../libDaisy/src/dev/oled_ssd130x.h ****     void SendCommand(uint8_t cmd)
ARM GAS  /var/folders/hl/qgbwny5j0fd895c2c41bk3tw0000gp/T//cc3keNI2.s 			page 17


 199:../../libDaisy/src/dev/oled_ssd130x.h ****     {
 200:../../libDaisy/src/dev/oled_ssd130x.h ****         dsy_gpio_write(&pin_dc_, 0);
 201:../../libDaisy/src/dev/oled_ssd130x.h ****         SoftSpiTransmit(cmd);
 202:../../libDaisy/src/dev/oled_ssd130x.h ****     };
 203:../../libDaisy/src/dev/oled_ssd130x.h **** 
 204:../../libDaisy/src/dev/oled_ssd130x.h ****     void SendData(uint8_t* buff, size_t size)
 205:../../libDaisy/src/dev/oled_ssd130x.h ****     {
 206:../../libDaisy/src/dev/oled_ssd130x.h ****         dsy_gpio_write(&pin_dc_, 1);
 207:../../libDaisy/src/dev/oled_ssd130x.h ****         for(size_t i = 0; i < size; i++)
 208:../../libDaisy/src/dev/oled_ssd130x.h ****             SoftSpiTransmit(buff[i]);
 209:../../libDaisy/src/dev/oled_ssd130x.h ****     };
 210:../../libDaisy/src/dev/oled_ssd130x.h **** 
 211:../../libDaisy/src/dev/oled_ssd130x.h ****   private:
 212:../../libDaisy/src/dev/oled_ssd130x.h ****     void SoftSpiTransmit(uint8_t val)
 213:../../libDaisy/src/dev/oled_ssd130x.h ****     {
 214:../../libDaisy/src/dev/oled_ssd130x.h ****         // bit flip
 215:../../libDaisy/src/dev/oled_ssd130x.h ****         val = ((val & 0x01) << 7) | ((val & 0x02) << 5) | ((val & 0x04) << 3)
 216:../../libDaisy/src/dev/oled_ssd130x.h ****               | ((val & 0x08) << 1) | ((val & 0x10) >> 1) | ((val & 0x20) >> 3)
 217:../../libDaisy/src/dev/oled_ssd130x.h ****               | ((val & 0x40) >> 5) | ((val & 0x80) >> 7);
 218:../../libDaisy/src/dev/oled_ssd130x.h **** 
 219:../../libDaisy/src/dev/oled_ssd130x.h ****         for(uint8_t bit = 0u; bit < 8u; bit++)
 220:../../libDaisy/src/dev/oled_ssd130x.h ****         {
 221:../../libDaisy/src/dev/oled_ssd130x.h ****             dsy_gpio_write(&pin_mosi_, ((val & (1 << bit)) ? 1 : 0));
 222:../../libDaisy/src/dev/oled_ssd130x.h **** 
 223:../../libDaisy/src/dev/oled_ssd130x.h ****             System::DelayTicks(clk_delay);
 224:../../libDaisy/src/dev/oled_ssd130x.h **** 
 225:../../libDaisy/src/dev/oled_ssd130x.h ****             dsy_gpio_toggle(&pin_sclk_);
 226:../../libDaisy/src/dev/oled_ssd130x.h **** 
 227:../../libDaisy/src/dev/oled_ssd130x.h ****             System::DelayTicks(clk_delay);
 228:../../libDaisy/src/dev/oled_ssd130x.h **** 
 229:../../libDaisy/src/dev/oled_ssd130x.h ****             dsy_gpio_toggle(&pin_sclk_);
 230:../../libDaisy/src/dev/oled_ssd130x.h ****         }
 231:../../libDaisy/src/dev/oled_ssd130x.h ****     }
 232:../../libDaisy/src/dev/oled_ssd130x.h **** 
 233:../../libDaisy/src/dev/oled_ssd130x.h ****     uint32_t clk_delay;
 234:../../libDaisy/src/dev/oled_ssd130x.h ****     dsy_gpio pin_sclk_;
 235:../../libDaisy/src/dev/oled_ssd130x.h ****     dsy_gpio pin_mosi_;
 236:../../libDaisy/src/dev/oled_ssd130x.h ****     dsy_gpio pin_reset_;
 237:../../libDaisy/src/dev/oled_ssd130x.h ****     dsy_gpio pin_dc_;
 238:../../libDaisy/src/dev/oled_ssd130x.h **** };
 239:../../libDaisy/src/dev/oled_ssd130x.h **** 
 240:../../libDaisy/src/dev/oled_ssd130x.h **** 
 241:../../libDaisy/src/dev/oled_ssd130x.h **** /**
 242:../../libDaisy/src/dev/oled_ssd130x.h ****  * A driver implementation for the SSD1306/SSD1309
 243:../../libDaisy/src/dev/oled_ssd130x.h ****  */
 244:../../libDaisy/src/dev/oled_ssd130x.h **** template <size_t width, size_t height, typename Transport>
 245:../../libDaisy/src/dev/oled_ssd130x.h **** class SSD130xDriver
 246:../../libDaisy/src/dev/oled_ssd130x.h **** {
 247:../../libDaisy/src/dev/oled_ssd130x.h ****   public:
 248:../../libDaisy/src/dev/oled_ssd130x.h ****     struct Config
 249:../../libDaisy/src/dev/oled_ssd130x.h ****     {
 250:../../libDaisy/src/dev/oled_ssd130x.h ****         typename Transport::Config transport_config;
 251:../../libDaisy/src/dev/oled_ssd130x.h ****     };
 252:../../libDaisy/src/dev/oled_ssd130x.h **** 
 253:../../libDaisy/src/dev/oled_ssd130x.h ****     void Init(Config config)
 254:../../libDaisy/src/dev/oled_ssd130x.h ****     {
 255:../../libDaisy/src/dev/oled_ssd130x.h ****         transport_.Init(config.transport_config);
ARM GAS  /var/folders/hl/qgbwny5j0fd895c2c41bk3tw0000gp/T//cc3keNI2.s 			page 18


 256:../../libDaisy/src/dev/oled_ssd130x.h **** 
 257:../../libDaisy/src/dev/oled_ssd130x.h ****         // Init routine...
 258:../../libDaisy/src/dev/oled_ssd130x.h **** 
 259:../../libDaisy/src/dev/oled_ssd130x.h ****         // Display Off
 260:../../libDaisy/src/dev/oled_ssd130x.h ****         transport_.SendCommand(0xaE);
 261:../../libDaisy/src/dev/oled_ssd130x.h ****         // Dimension dependent commands...
 262:../../libDaisy/src/dev/oled_ssd130x.h ****         switch(height)
 263:../../libDaisy/src/dev/oled_ssd130x.h ****         {
 264:../../libDaisy/src/dev/oled_ssd130x.h ****             case 16:
 265:../../libDaisy/src/dev/oled_ssd130x.h ****                 // Display Clock Divide Ratio
 266:../../libDaisy/src/dev/oled_ssd130x.h ****                 transport_.SendCommand(0xD5);
 267:../../libDaisy/src/dev/oled_ssd130x.h ****                 transport_.SendCommand(0x60);
 268:../../libDaisy/src/dev/oled_ssd130x.h ****                 // Multiplex Ratio
 269:../../libDaisy/src/dev/oled_ssd130x.h ****                 transport_.SendCommand(0xA8);
 270:../../libDaisy/src/dev/oled_ssd130x.h ****                 transport_.SendCommand(0x0F);
 271:../../libDaisy/src/dev/oled_ssd130x.h ****                 // COM Pins
 272:../../libDaisy/src/dev/oled_ssd130x.h ****                 transport_.SendCommand(0xDA);
 273:../../libDaisy/src/dev/oled_ssd130x.h ****                 transport_.SendCommand(0x02);
 274:../../libDaisy/src/dev/oled_ssd130x.h ****                 break;
 275:../../libDaisy/src/dev/oled_ssd130x.h ****             case 32:
 276:../../libDaisy/src/dev/oled_ssd130x.h ****                 // Display Clock Divide Ratio
 277:../../libDaisy/src/dev/oled_ssd130x.h ****                 transport_.SendCommand(0xD5);
 278:../../libDaisy/src/dev/oled_ssd130x.h ****                 transport_.SendCommand(0x80);
 279:../../libDaisy/src/dev/oled_ssd130x.h ****                 // Multiplex Ratio
 280:../../libDaisy/src/dev/oled_ssd130x.h ****                 transport_.SendCommand(0xA8);
 281:../../libDaisy/src/dev/oled_ssd130x.h ****                 transport_.SendCommand(0x1F);
 282:../../libDaisy/src/dev/oled_ssd130x.h ****                 // COM Pins
 283:../../libDaisy/src/dev/oled_ssd130x.h ****                 transport_.SendCommand(0xDA);
 284:../../libDaisy/src/dev/oled_ssd130x.h ****                 if(width == 64)
 285:../../libDaisy/src/dev/oled_ssd130x.h ****                 {
 286:../../libDaisy/src/dev/oled_ssd130x.h ****                     transport_.SendCommand(0x12);
 287:../../libDaisy/src/dev/oled_ssd130x.h ****                 }
 288:../../libDaisy/src/dev/oled_ssd130x.h ****                 else
 289:../../libDaisy/src/dev/oled_ssd130x.h ****                 {
 290:../../libDaisy/src/dev/oled_ssd130x.h ****                     transport_.SendCommand(0x02);
 291:../../libDaisy/src/dev/oled_ssd130x.h ****                 }
 292:../../libDaisy/src/dev/oled_ssd130x.h **** 
 293:../../libDaisy/src/dev/oled_ssd130x.h ****                 break;
 294:../../libDaisy/src/dev/oled_ssd130x.h ****             case 48:
 295:../../libDaisy/src/dev/oled_ssd130x.h ****                 // Display Clock Divide Ratio
 296:../../libDaisy/src/dev/oled_ssd130x.h ****                 transport_.SendCommand(0xD5);
 297:../../libDaisy/src/dev/oled_ssd130x.h ****                 transport_.SendCommand(0x80);
 298:../../libDaisy/src/dev/oled_ssd130x.h ****                 // Multiplex Ratio
 299:../../libDaisy/src/dev/oled_ssd130x.h ****                 transport_.SendCommand(0xA8);
 300:../../libDaisy/src/dev/oled_ssd130x.h ****                 transport_.SendCommand(0x2F);
 301:../../libDaisy/src/dev/oled_ssd130x.h ****                 // COM Pins
 302:../../libDaisy/src/dev/oled_ssd130x.h ****                 transport_.SendCommand(0xDA);
 303:../../libDaisy/src/dev/oled_ssd130x.h ****                 transport_.SendCommand(0x12);
 304:../../libDaisy/src/dev/oled_ssd130x.h ****                 break;
 305:../../libDaisy/src/dev/oled_ssd130x.h ****             default: // 128
 306:../../libDaisy/src/dev/oled_ssd130x.h ****                 // Display Clock Divide Ratio
 307:../../libDaisy/src/dev/oled_ssd130x.h ****                 transport_.SendCommand(0xD5);
 308:../../libDaisy/src/dev/oled_ssd130x.h ****                 transport_.SendCommand(0x80);
 309:../../libDaisy/src/dev/oled_ssd130x.h ****                 // Multiplex Ratio
 310:../../libDaisy/src/dev/oled_ssd130x.h ****                 transport_.SendCommand(0xA8);
 311:../../libDaisy/src/dev/oled_ssd130x.h ****                 transport_.SendCommand(0x3F);
 312:../../libDaisy/src/dev/oled_ssd130x.h ****                 // COM Pins
ARM GAS  /var/folders/hl/qgbwny5j0fd895c2c41bk3tw0000gp/T//cc3keNI2.s 			page 19


 313:../../libDaisy/src/dev/oled_ssd130x.h ****                 transport_.SendCommand(0xDA);
 314:../../libDaisy/src/dev/oled_ssd130x.h ****                 transport_.SendCommand(0x12);
 315:../../libDaisy/src/dev/oled_ssd130x.h ****                 break;
 316:../../libDaisy/src/dev/oled_ssd130x.h ****         }
 317:../../libDaisy/src/dev/oled_ssd130x.h **** 
 318:../../libDaisy/src/dev/oled_ssd130x.h ****         // Display Offset
 319:../../libDaisy/src/dev/oled_ssd130x.h ****         transport_.SendCommand(0xD3);
 320:../../libDaisy/src/dev/oled_ssd130x.h ****         transport_.SendCommand(0x00);
 321:../../libDaisy/src/dev/oled_ssd130x.h ****         // Start Line Address
 322:../../libDaisy/src/dev/oled_ssd130x.h ****         transport_.SendCommand(0x40);
 323:../../libDaisy/src/dev/oled_ssd130x.h ****         // Normal Display
 324:../../libDaisy/src/dev/oled_ssd130x.h ****         transport_.SendCommand(0xA6);
 325:../../libDaisy/src/dev/oled_ssd130x.h ****         // All On Resume
 326:../../libDaisy/src/dev/oled_ssd130x.h ****         transport_.SendCommand(0xA4);
 327:../../libDaisy/src/dev/oled_ssd130x.h ****         // Charge Pump
 328:../../libDaisy/src/dev/oled_ssd130x.h ****         transport_.SendCommand(0x8D);
 329:../../libDaisy/src/dev/oled_ssd130x.h ****         transport_.SendCommand(0x14);
 330:../../libDaisy/src/dev/oled_ssd130x.h ****         // Set Segment Remap
 331:../../libDaisy/src/dev/oled_ssd130x.h ****         transport_.SendCommand(0xA1);
 332:../../libDaisy/src/dev/oled_ssd130x.h ****         // COM Output Scan Direction
 333:../../libDaisy/src/dev/oled_ssd130x.h ****         transport_.SendCommand(0xC8);
 334:../../libDaisy/src/dev/oled_ssd130x.h ****         // Contrast Control
 335:../../libDaisy/src/dev/oled_ssd130x.h ****         transport_.SendCommand(0x81);
 336:../../libDaisy/src/dev/oled_ssd130x.h ****         transport_.SendCommand(0x8F);
 337:../../libDaisy/src/dev/oled_ssd130x.h ****         // Pre Charge
 338:../../libDaisy/src/dev/oled_ssd130x.h ****         transport_.SendCommand(0xD9);
 339:../../libDaisy/src/dev/oled_ssd130x.h ****         transport_.SendCommand(0x25);
 340:../../libDaisy/src/dev/oled_ssd130x.h ****         // VCOM Detect
 341:../../libDaisy/src/dev/oled_ssd130x.h ****         transport_.SendCommand(0xDB);
 342:../../libDaisy/src/dev/oled_ssd130x.h ****         transport_.SendCommand(0x34);
 343:../../libDaisy/src/dev/oled_ssd130x.h **** 
 344:../../libDaisy/src/dev/oled_ssd130x.h **** 
 345:../../libDaisy/src/dev/oled_ssd130x.h ****         // Display On
 346:../../libDaisy/src/dev/oled_ssd130x.h ****         transport_.SendCommand(0xAF); //--turn on oled panel
 347:../../libDaisy/src/dev/oled_ssd130x.h ****     };
 348:../../libDaisy/src/dev/oled_ssd130x.h **** 
 349:../../libDaisy/src/dev/oled_ssd130x.h ****     size_t Width() const { return width; };
 350:../../libDaisy/src/dev/oled_ssd130x.h ****     size_t Height() const { return height; };
 351:../../libDaisy/src/dev/oled_ssd130x.h **** 
 352:../../libDaisy/src/dev/oled_ssd130x.h ****     void DrawPixel(uint_fast8_t x, uint_fast8_t y, bool on)
 353:../../libDaisy/src/dev/oled_ssd130x.h ****     {
 354:../../libDaisy/src/dev/oled_ssd130x.h ****         if(x >= width || y >= height)
 355:../../libDaisy/src/dev/oled_ssd130x.h ****             return;
 356:../../libDaisy/src/dev/oled_ssd130x.h ****         if(on)
 357:../../libDaisy/src/dev/oled_ssd130x.h ****             buffer_[x + (y / 8) * width] |= (1 << (y % 8));
 358:../../libDaisy/src/dev/oled_ssd130x.h ****         else
 359:../../libDaisy/src/dev/oled_ssd130x.h ****             buffer_[x + (y / 8) * width] &= ~(1 << (y % 8));
 360:../../libDaisy/src/dev/oled_ssd130x.h ****     }
 361:../../libDaisy/src/dev/oled_ssd130x.h **** 
 362:../../libDaisy/src/dev/oled_ssd130x.h ****     void Fill(bool on)
 157              		.loc 12 362 10 view .LVU23
 158              	.LBB714:
 363:../../libDaisy/src/dev/oled_ssd130x.h ****     {
 364:../../libDaisy/src/dev/oled_ssd130x.h ****         for(size_t i = 0; i < sizeof(buffer_); i++)
 159              		.loc 12 364 29 view .LVU24
 365:../../libDaisy/src/dev/oled_ssd130x.h ****         {
 366:../../libDaisy/src/dev/oled_ssd130x.h ****             buffer_[i] = on ? 0xff : 0x00;
ARM GAS  /var/folders/hl/qgbwny5j0fd895c2c41bk3tw0000gp/T//cc3keNI2.s 			page 20


 160              		.loc 12 366 24 is_stmt 0 view .LVU25
 161 0000 4942     		rsbs	r1, r1, #0
 162              	.LVL4:
 163              		.loc 12 366 24 view .LVU26
 164 0002 4FF48062 		mov	r2, #1024
 165 0006 1430     		adds	r0, r0, #20
 166              	.LVL5:
 167              		.loc 12 366 24 view .LVU27
 168 0008 C9B2     		uxtb	r1, r1
 169 000a FFF7FEBF 		b	memset
 170              	.LVL6:
 171              		.loc 12 366 24 view .LVU28
 172              	.LBE714:
 173              	.LBE713:
 174              		.cfi_endproc
 175              	.LFE5154:
 177 000e 00BF     		.section	.text._ZN7daisysp9PolyPluckILj32EED2Ev,"axG",%progbits,_ZN7daisysp9PolyPluckILj32EED5Ev,c
 178              		.align	1
 179              		.p2align 2,,3
 180              		.weak	_ZN7daisysp9PolyPluckILj32EED2Ev
 181              		.syntax unified
 182              		.thumb
 183              		.thumb_func
 185              	_ZN7daisysp9PolyPluckILj32EED2Ev:
 186              	.LVL7:
 187              	.LFB5429:
 188              		.file 13 "../../DaisySP/Source/PhysicalModeling/PolyPluck.h"
   1:../../DaisySP/Source/PhysicalModeling/PolyPluck.h **** #pragma once
   2:../../DaisySP/Source/PhysicalModeling/PolyPluck.h **** #ifndef DSY_POLYPLUCK_H
   3:../../DaisySP/Source/PhysicalModeling/PolyPluck.h **** #define DSY_POLYPLUCK_H
   4:../../DaisySP/Source/PhysicalModeling/PolyPluck.h **** 
   5:../../DaisySP/Source/PhysicalModeling/PolyPluck.h **** #include <stdlib.h>
   6:../../DaisySP/Source/PhysicalModeling/PolyPluck.h **** #include "Utility/dsp.h"
   7:../../DaisySP/Source/PhysicalModeling/PolyPluck.h **** #include "PhysicalModeling/pluck.h"
   8:../../DaisySP/Source/PhysicalModeling/PolyPluck.h **** #include "Utility/dcblock.h"
   9:../../DaisySP/Source/PhysicalModeling/PolyPluck.h **** 
  10:../../DaisySP/Source/PhysicalModeling/PolyPluck.h **** namespace daisysp
  11:../../DaisySP/Source/PhysicalModeling/PolyPluck.h **** {
  12:../../DaisySP/Source/PhysicalModeling/PolyPluck.h **** /** Simplified Pseudo-Polyphonic Pluck Voice
  13:../../DaisySP/Source/PhysicalModeling/PolyPluck.h **** 
  14:../../DaisySP/Source/PhysicalModeling/PolyPluck.h **** Template Based Pluck Voice, with configurable number of voices and simple pseudo-polyphony.
  15:../../DaisySP/Source/PhysicalModeling/PolyPluck.h **** 
  16:../../DaisySP/Source/PhysicalModeling/PolyPluck.h **** DC Blocking included to prevent biases from causing unwanted saturation distortion.
  17:../../DaisySP/Source/PhysicalModeling/PolyPluck.h **** 
  18:../../DaisySP/Source/PhysicalModeling/PolyPluck.h **** **Author**: shensley
  19:../../DaisySP/Source/PhysicalModeling/PolyPluck.h **** 
  20:../../DaisySP/Source/PhysicalModeling/PolyPluck.h **** **Date Added**: March 2020
  21:../../DaisySP/Source/PhysicalModeling/PolyPluck.h **** */
  22:../../DaisySP/Source/PhysicalModeling/PolyPluck.h **** template <size_t num_voices>
  23:../../DaisySP/Source/PhysicalModeling/PolyPluck.h **** class PolyPluck
 189              		.loc 13 23 7 is_stmt 1 view -0
 190              		.cfi_startproc
 191              		@ args = 0, pretend = 0, frame = 0
 192              		@ frame_needed = 0, uses_anonymous_args = 0
 193              		@ link register save eliminated.
 194              	.LBB715:
 195              	.LBI715:
ARM GAS  /var/folders/hl/qgbwny5j0fd895c2c41bk3tw0000gp/T//cc3keNI2.s 			page 21


 196              		.file 14 "../../DaisySP/Source/Utility/dcblock.h"
   1:../../DaisySP/Source/Utility/dcblock.h **** 
   2:../../DaisySP/Source/Utility/dcblock.h **** #pragma once
   3:../../DaisySP/Source/Utility/dcblock.h **** #ifndef DSY_DCBLOCK_H
   4:../../DaisySP/Source/Utility/dcblock.h **** #define DSY_DCBLOCK_H
   5:../../DaisySP/Source/Utility/dcblock.h **** #ifdef __cplusplus
   6:../../DaisySP/Source/Utility/dcblock.h **** 
   7:../../DaisySP/Source/Utility/dcblock.h **** namespace daisysp
   8:../../DaisySP/Source/Utility/dcblock.h **** {
   9:../../DaisySP/Source/Utility/dcblock.h **** /** Removes DC component of a signal
  10:../../DaisySP/Source/Utility/dcblock.h ****     */
  11:../../DaisySP/Source/Utility/dcblock.h **** class DcBlock
  12:../../DaisySP/Source/Utility/dcblock.h **** {
  13:../../DaisySP/Source/Utility/dcblock.h ****   public:
  14:../../DaisySP/Source/Utility/dcblock.h ****     DcBlock(){};
  15:../../DaisySP/Source/Utility/dcblock.h ****     ~DcBlock(){};
 197              		.loc 14 15 5 view .LVU30
 198              		.loc 14 15 5 is_stmt 0 view .LVU31
 199              	.LBE715:
 200              		.loc 13 23 7 view .LVU32
 201 0000 7047     		bx	lr
 202              		.cfi_endproc
 203              	.LFE5429:
 205              		.weak	_ZN7daisysp9PolyPluckILj32EED1Ev
 206              		.thumb_set _ZN7daisysp9PolyPluckILj32EED1Ev,_ZN7daisysp9PolyPluckILj32EED2Ev
 207 0002 00BF     		.section	.text._ZN5daisy11OledDisplayINS_13SSD130xDriverILj128ELj64ENS_24SSD130x4WireSpiTransportE
 208              		.align	1
 209              		.p2align 2,,3
 210              		.weak	_ZN5daisy11OledDisplayINS_13SSD130xDriverILj128ELj64ENS_24SSD130x4WireSpiTransportEEEED2Ev
 211              		.syntax unified
 212              		.thumb
 213              		.thumb_func
 215              	_ZN5daisy11OledDisplayINS_13SSD130xDriverILj128ELj64ENS_24SSD130x4WireSpiTransportEEEED2Ev:
 216              	.LVL8:
 217              	.LFB5432:
  18:../../libDaisy/src/hid/disp/oled_display.h **** 
 218              		.loc 11 18 13 is_stmt 1 view -0
 219              		.cfi_startproc
 220              		@ args = 0, pretend = 0, frame = 0
 221              		@ frame_needed = 0, uses_anonymous_args = 0
 222              		@ link register save eliminated.
 223              	.LBB716:
 224              	.LBI716:
 225              		.file 15 "../../libDaisy/src/hid/disp/display.h"
   1:../../libDaisy/src/hid/disp/display.h **** #pragma once
   2:../../libDaisy/src/hid/disp/display.h **** #ifndef DSY_DISPLAY_H
   3:../../libDaisy/src/hid/disp/display.h **** #define DSY_DISPLAY_H /**< Macro */
   4:../../libDaisy/src/hid/disp/display.h **** #include <cmath>
   5:../../libDaisy/src/hid/disp/display.h **** #include "util/oled_fonts.h"
   6:../../libDaisy/src/hid/disp/display.h **** #include "daisy_core.h"
   7:../../libDaisy/src/hid/disp/display.h **** #include "graphics_common.h"
   8:../../libDaisy/src/hid/disp/display.h **** 
   9:../../libDaisy/src/hid/disp/display.h **** #ifndef deg2rad
  10:../../libDaisy/src/hid/disp/display.h **** #define deg2rad(deg) ((deg)*3.141592 / 180.0)
  11:../../libDaisy/src/hid/disp/display.h **** #endif
  12:../../libDaisy/src/hid/disp/display.h **** 
  13:../../libDaisy/src/hid/disp/display.h **** namespace daisy
ARM GAS  /var/folders/hl/qgbwny5j0fd895c2c41bk3tw0000gp/T//cc3keNI2.s 			page 22


  14:../../libDaisy/src/hid/disp/display.h **** {
  15:../../libDaisy/src/hid/disp/display.h **** /** 
  16:../../libDaisy/src/hid/disp/display.h ****  * This interface is used as a base class for all types of 1bit-per-pixel
  17:../../libDaisy/src/hid/disp/display.h ****  * graphics displays.
  18:../../libDaisy/src/hid/disp/display.h **** */
  19:../../libDaisy/src/hid/disp/display.h **** class OneBitGraphicsDisplay
  20:../../libDaisy/src/hid/disp/display.h **** {
  21:../../libDaisy/src/hid/disp/display.h ****   public:
  22:../../libDaisy/src/hid/disp/display.h ****     OneBitGraphicsDisplay() {}
  23:../../libDaisy/src/hid/disp/display.h ****     virtual ~OneBitGraphicsDisplay() {}
  24:../../libDaisy/src/hid/disp/display.h **** 
  25:../../libDaisy/src/hid/disp/display.h ****     virtual uint16_t Height() const = 0;
  26:../../libDaisy/src/hid/disp/display.h ****     virtual uint16_t Width() const  = 0;
  27:../../libDaisy/src/hid/disp/display.h **** 
  28:../../libDaisy/src/hid/disp/display.h ****     Rectangle GetBounds() const
  29:../../libDaisy/src/hid/disp/display.h ****     {
  30:../../libDaisy/src/hid/disp/display.h ****         return Rectangle(int16_t(Width()), int16_t(Height()));
  31:../../libDaisy/src/hid/disp/display.h ****     }
  32:../../libDaisy/src/hid/disp/display.h **** 
  33:../../libDaisy/src/hid/disp/display.h **** 
  34:../../libDaisy/src/hid/disp/display.h ****     size_t CurrentX() { return currentX_; };
  35:../../libDaisy/src/hid/disp/display.h ****     size_t CurrentY() { return currentY_; };
  36:../../libDaisy/src/hid/disp/display.h **** 
  37:../../libDaisy/src/hid/disp/display.h ****     /** 
  38:../../libDaisy/src/hid/disp/display.h ****     Fills the entire display with either on/off.
  39:../../libDaisy/src/hid/disp/display.h ****     \param on Sets on or off.
  40:../../libDaisy/src/hid/disp/display.h ****     */
  41:../../libDaisy/src/hid/disp/display.h ****     virtual void Fill(bool on) = 0;
  42:../../libDaisy/src/hid/disp/display.h **** 
  43:../../libDaisy/src/hid/disp/display.h ****     /**
  44:../../libDaisy/src/hid/disp/display.h ****     Sets the pixel at the specified coordinate to be on/off.
  45:../../libDaisy/src/hid/disp/display.h ****     \param x   x Coordinate
  46:../../libDaisy/src/hid/disp/display.h ****     \param y   y coordinate
  47:../../libDaisy/src/hid/disp/display.h ****     \param on  on or off
  48:../../libDaisy/src/hid/disp/display.h ****     */
  49:../../libDaisy/src/hid/disp/display.h ****     virtual void DrawPixel(uint_fast8_t x, uint_fast8_t y, bool on) = 0;
  50:../../libDaisy/src/hid/disp/display.h **** 
  51:../../libDaisy/src/hid/disp/display.h ****     /**
  52:../../libDaisy/src/hid/disp/display.h ****     Draws a line from (x1, y1) to (y1, y2)
  53:../../libDaisy/src/hid/disp/display.h ****     \param x1  x Coordinate of the starting point
  54:../../libDaisy/src/hid/disp/display.h ****     \param y1  y Coordinate of the starting point
  55:../../libDaisy/src/hid/disp/display.h ****     \param x2  x Coordinate of the ending point
  56:../../libDaisy/src/hid/disp/display.h ****     \param y2  y Coordinate of the ending point
  57:../../libDaisy/src/hid/disp/display.h ****     \param on  on or off
  58:../../libDaisy/src/hid/disp/display.h ****     */
  59:../../libDaisy/src/hid/disp/display.h ****     virtual void DrawLine(uint_fast8_t x1,
  60:../../libDaisy/src/hid/disp/display.h ****                           uint_fast8_t y1,
  61:../../libDaisy/src/hid/disp/display.h ****                           uint_fast8_t x2,
  62:../../libDaisy/src/hid/disp/display.h ****                           uint_fast8_t y2,
  63:../../libDaisy/src/hid/disp/display.h ****                           bool         on)
  64:../../libDaisy/src/hid/disp/display.h ****         = 0;
  65:../../libDaisy/src/hid/disp/display.h **** 
  66:../../libDaisy/src/hid/disp/display.h ****     /**
  67:../../libDaisy/src/hid/disp/display.h ****     Draws a rectangle based on two coordinates.
  68:../../libDaisy/src/hid/disp/display.h ****     \param x1 x Coordinate of the first point
  69:../../libDaisy/src/hid/disp/display.h ****     \param y1 y Coordinate of the first point
  70:../../libDaisy/src/hid/disp/display.h ****     \param x2 x Coordinate of the second point
ARM GAS  /var/folders/hl/qgbwny5j0fd895c2c41bk3tw0000gp/T//cc3keNI2.s 			page 23


  71:../../libDaisy/src/hid/disp/display.h ****     \param y2 y Coordinate of the second point
  72:../../libDaisy/src/hid/disp/display.h ****     \param on on or off
  73:../../libDaisy/src/hid/disp/display.h ****     \param fill fill the rectangle or draw only the outline
  74:../../libDaisy/src/hid/disp/display.h ****     */
  75:../../libDaisy/src/hid/disp/display.h ****     virtual void DrawRect(uint_fast8_t x1,
  76:../../libDaisy/src/hid/disp/display.h ****                           uint_fast8_t y1,
  77:../../libDaisy/src/hid/disp/display.h ****                           uint_fast8_t x2,
  78:../../libDaisy/src/hid/disp/display.h ****                           uint_fast8_t y2,
  79:../../libDaisy/src/hid/disp/display.h ****                           bool         on,
  80:../../libDaisy/src/hid/disp/display.h ****                           bool         fill = false)
  81:../../libDaisy/src/hid/disp/display.h ****         = 0;
  82:../../libDaisy/src/hid/disp/display.h **** 
  83:../../libDaisy/src/hid/disp/display.h ****     /**
  84:../../libDaisy/src/hid/disp/display.h ****     Draws a rectangle.
  85:../../libDaisy/src/hid/disp/display.h ****     \param rect the rectangle
  86:../../libDaisy/src/hid/disp/display.h ****     \param on   on or off
  87:../../libDaisy/src/hid/disp/display.h ****     \param fill fill the rectangle or draw only the outline
  88:../../libDaisy/src/hid/disp/display.h ****     */
  89:../../libDaisy/src/hid/disp/display.h ****     void DrawRect(const Rectangle& rect, bool on, bool fill = false)
  90:../../libDaisy/src/hid/disp/display.h ****     {
  91:../../libDaisy/src/hid/disp/display.h ****         DrawRect(rect.GetX(),
  92:../../libDaisy/src/hid/disp/display.h ****                  rect.GetY(),
  93:../../libDaisy/src/hid/disp/display.h ****                  rect.GetRight(),
  94:../../libDaisy/src/hid/disp/display.h ****                  rect.GetBottom(),
  95:../../libDaisy/src/hid/disp/display.h ****                  on,
  96:../../libDaisy/src/hid/disp/display.h ****                  fill);
  97:../../libDaisy/src/hid/disp/display.h ****     }
  98:../../libDaisy/src/hid/disp/display.h **** 
  99:../../libDaisy/src/hid/disp/display.h ****     /**
 100:../../libDaisy/src/hid/disp/display.h ****     Draws an arc around the specified coordinate
 101:../../libDaisy/src/hid/disp/display.h ****     \param x           x Coordinate of the center of the arc
 102:../../libDaisy/src/hid/disp/display.h ****     \param y           y Coordinate of the center of the arc
 103:../../libDaisy/src/hid/disp/display.h ****     \param radius      radius of the arc
 104:../../libDaisy/src/hid/disp/display.h ****     \param start_angle angle where to start the arc
 105:../../libDaisy/src/hid/disp/display.h ****     \param sweep       total angle of the arc
 106:../../libDaisy/src/hid/disp/display.h ****     \param on  on or off
 107:../../libDaisy/src/hid/disp/display.h ****     */
 108:../../libDaisy/src/hid/disp/display.h ****     virtual void DrawArc(uint_fast8_t x,
 109:../../libDaisy/src/hid/disp/display.h ****                          uint_fast8_t y,
 110:../../libDaisy/src/hid/disp/display.h ****                          uint_fast8_t radius,
 111:../../libDaisy/src/hid/disp/display.h ****                          int_fast16_t start_angle,
 112:../../libDaisy/src/hid/disp/display.h ****                          int_fast16_t sweep,
 113:../../libDaisy/src/hid/disp/display.h ****                          bool         on)
 114:../../libDaisy/src/hid/disp/display.h ****         = 0;
 115:../../libDaisy/src/hid/disp/display.h **** 
 116:../../libDaisy/src/hid/disp/display.h ****     /**
 117:../../libDaisy/src/hid/disp/display.h ****     Draws a circle around the specified coordinate
 118:../../libDaisy/src/hid/disp/display.h ****     \param x           x Coordinate of the center of the circle
 119:../../libDaisy/src/hid/disp/display.h ****     \param y           y Coordinate of the center of the circle
 120:../../libDaisy/src/hid/disp/display.h ****     \param radius      radius of the circle
 121:../../libDaisy/src/hid/disp/display.h ****     \param on  on or off
 122:../../libDaisy/src/hid/disp/display.h ****     */
 123:../../libDaisy/src/hid/disp/display.h ****     void
 124:../../libDaisy/src/hid/disp/display.h ****     DrawCircle(uint_fast8_t x, uint_fast8_t y, uint_fast8_t radius, bool on)
 125:../../libDaisy/src/hid/disp/display.h ****     {
 126:../../libDaisy/src/hid/disp/display.h ****         DrawArc(x, y, radius, 0, 360, on);
 127:../../libDaisy/src/hid/disp/display.h ****     };
ARM GAS  /var/folders/hl/qgbwny5j0fd895c2c41bk3tw0000gp/T//cc3keNI2.s 			page 24


 128:../../libDaisy/src/hid/disp/display.h **** 
 129:../../libDaisy/src/hid/disp/display.h ****     /** 
 130:../../libDaisy/src/hid/disp/display.h ****     Writes the character with the specific FontDef
 131:../../libDaisy/src/hid/disp/display.h ****     to the display buffer at the current Cursor position.
 132:../../libDaisy/src/hid/disp/display.h ****     \param ch character to be written
 133:../../libDaisy/src/hid/disp/display.h ****     \param font font to be written in
 134:../../libDaisy/src/hid/disp/display.h ****     \param on    on or off
 135:../../libDaisy/src/hid/disp/display.h ****     \return &
 136:../../libDaisy/src/hid/disp/display.h ****     */
 137:../../libDaisy/src/hid/disp/display.h ****     virtual char WriteChar(char ch, FontDef font, bool on) = 0;
 138:../../libDaisy/src/hid/disp/display.h **** 
 139:../../libDaisy/src/hid/disp/display.h ****     /** 
 140:../../libDaisy/src/hid/disp/display.h ****     Similar to WriteChar, except it will handle an entire String.
 141:../../libDaisy/src/hid/disp/display.h ****     Wrapping does not happen automatically, so the width
 142:../../libDaisy/src/hid/disp/display.h ****     of the string must be kept within the dimensions of the screen.
 143:../../libDaisy/src/hid/disp/display.h ****     \param str string to be written
 144:../../libDaisy/src/hid/disp/display.h ****     \param font font to use
 145:../../libDaisy/src/hid/disp/display.h ****     \param on  on or off
 146:../../libDaisy/src/hid/disp/display.h ****     \return &
 147:../../libDaisy/src/hid/disp/display.h ****     */
 148:../../libDaisy/src/hid/disp/display.h ****     virtual char WriteString(const char* str, FontDef font, bool on) = 0;
 149:../../libDaisy/src/hid/disp/display.h **** 
 150:../../libDaisy/src/hid/disp/display.h ****     /** 
 151:../../libDaisy/src/hid/disp/display.h ****     Similar to WriteString but justified within a bounding box.
 152:../../libDaisy/src/hid/disp/display.h ****     \param str          string to be written
 153:../../libDaisy/src/hid/disp/display.h ****     \param font         font to use
 154:../../libDaisy/src/hid/disp/display.h ****     \param boundingBox  the bounding box to draw the text in
 155:../../libDaisy/src/hid/disp/display.h ****     \param alignment    the alignment to use
 156:../../libDaisy/src/hid/disp/display.h ****     \param on           on or off
 157:../../libDaisy/src/hid/disp/display.h ****     \return The rectangle that was drawn to
 158:../../libDaisy/src/hid/disp/display.h ****     */
 159:../../libDaisy/src/hid/disp/display.h ****     virtual Rectangle WriteStringAligned(const char*    str,
 160:../../libDaisy/src/hid/disp/display.h ****                                          const FontDef& font,
 161:../../libDaisy/src/hid/disp/display.h ****                                          Rectangle      boundingBox,
 162:../../libDaisy/src/hid/disp/display.h ****                                          Alignment      alignment,
 163:../../libDaisy/src/hid/disp/display.h ****                                          bool           on)
 164:../../libDaisy/src/hid/disp/display.h ****         = 0;
 165:../../libDaisy/src/hid/disp/display.h **** 
 166:../../libDaisy/src/hid/disp/display.h ****     /** 
 167:../../libDaisy/src/hid/disp/display.h ****     Moves the 'Cursor' position used for WriteChar, and WriteStr to the specified coordinate.
 168:../../libDaisy/src/hid/disp/display.h ****     \param x x pos
 169:../../libDaisy/src/hid/disp/display.h ****     \param y y pos
 170:../../libDaisy/src/hid/disp/display.h ****     */
 171:../../libDaisy/src/hid/disp/display.h ****     void SetCursor(uint16_t x, uint16_t y)
 172:../../libDaisy/src/hid/disp/display.h ****     {
 173:../../libDaisy/src/hid/disp/display.h ****         currentX_ = (x >= Width()) ? Width() - 1 : x;
 174:../../libDaisy/src/hid/disp/display.h ****         currentY_ = (y >= Height()) ? Height() - 1 : y;
 175:../../libDaisy/src/hid/disp/display.h ****     }
 176:../../libDaisy/src/hid/disp/display.h **** 
 177:../../libDaisy/src/hid/disp/display.h ****     /** 
 178:../../libDaisy/src/hid/disp/display.h ****     Writes the current display buffer to the OLED device using SPI or I2C depending on 
 179:../../libDaisy/src/hid/disp/display.h ****     how the object was initialized.
 180:../../libDaisy/src/hid/disp/display.h ****     */
 181:../../libDaisy/src/hid/disp/display.h ****     virtual void Update() = 0;
 182:../../libDaisy/src/hid/disp/display.h **** 
 183:../../libDaisy/src/hid/disp/display.h ****   protected:
 184:../../libDaisy/src/hid/disp/display.h ****     uint16_t currentX_;
ARM GAS  /var/folders/hl/qgbwny5j0fd895c2c41bk3tw0000gp/T//cc3keNI2.s 			page 25


 185:../../libDaisy/src/hid/disp/display.h ****     uint16_t currentY_;
 186:../../libDaisy/src/hid/disp/display.h **** };
 187:../../libDaisy/src/hid/disp/display.h **** 
 188:../../libDaisy/src/hid/disp/display.h **** /** This class is intended as a intermediary class for your actual implementation of the OneBitGrap
 189:../../libDaisy/src/hid/disp/display.h ****  *  interface. It uses the CRTP design pattern where the template argument is the child class. It p
 190:../../libDaisy/src/hid/disp/display.h ****  *  implementations for most of the functions, except DrawPixel(), Update() and Fill(), which you'l
 191:../../libDaisy/src/hid/disp/display.h ****  *  to provide in your child class.
 192:../../libDaisy/src/hid/disp/display.h ****  *  The main goal of this class is to provide common drawing functions without relying on massive a
 193:../../libDaisy/src/hid/disp/display.h ****  *  virtual function calls that would result in a performance loss. To achieve this, any drawing fu
 194:../../libDaisy/src/hid/disp/display.h ****  *  is implemented here and internally calls other drawing functions (e.g. DrawRect() which interna
 195:../../libDaisy/src/hid/disp/display.h ****  *  DrawPixel() and DrawLine()) makes these calls via the qualified name of these functions to expl
 196:../../libDaisy/src/hid/disp/display.h ****  *  suppress the virtual dispatch mechanism like this:
 197:../../libDaisy/src/hid/disp/display.h ****  * 
 198:../../libDaisy/src/hid/disp/display.h ****  *      ChildType::DrawPixel(...); // no virtual function call; direct call into the child class fu
 199:../../libDaisy/src/hid/disp/display.h ****  *  
 200:../../libDaisy/src/hid/disp/display.h ****  *  To create a custom OneBitGraphicsDisplay implementation, you can 
 201:../../libDaisy/src/hid/disp/display.h ****  *  A) inherit from OneBitGraphicsDisplay directly and provide all the drawing functions yourself
 202:../../libDaisy/src/hid/disp/display.h ****  *  B) Inherit from OneBitGraphicsDisplayImpl and only provide DrawPixel(), Fill() and Update()
 203:../../libDaisy/src/hid/disp/display.h ****  *     like this:
 204:../../libDaisy/src/hid/disp/display.h ****  *  
 205:../../libDaisy/src/hid/disp/display.h ****  *      class MyDisplayClass : public OneBitGraphicsDisplayImpl<MyDisplayClass> 
 206:../../libDaisy/src/hid/disp/display.h ****  *      {
 207:../../libDaisy/src/hid/disp/display.h ****  *      public:
 208:../../libDaisy/src/hid/disp/display.h ****  *          void Fill() override { ... };
 209:../../libDaisy/src/hid/disp/display.h ****  *          void DrawPixel(uint_fast8_t x, uint_fast8_t y, bool on) override { ... };
 210:../../libDaisy/src/hid/disp/display.h ****  *          void Update() override { ... }
 211:../../libDaisy/src/hid/disp/display.h ****  *      };
 212:../../libDaisy/src/hid/disp/display.h ****  *  
 213:../../libDaisy/src/hid/disp/display.h ****  */
 214:../../libDaisy/src/hid/disp/display.h **** template <class ChildType>
 215:../../libDaisy/src/hid/disp/display.h **** class OneBitGraphicsDisplayImpl : public OneBitGraphicsDisplay
 216:../../libDaisy/src/hid/disp/display.h **** {
 217:../../libDaisy/src/hid/disp/display.h ****   public:
 218:../../libDaisy/src/hid/disp/display.h ****     OneBitGraphicsDisplayImpl() {}
 219:../../libDaisy/src/hid/disp/display.h ****     virtual ~OneBitGraphicsDisplayImpl() {}
 226              		.loc 15 219 13 view .LVU34
 227              	.LBB717:
 228              	.LBI717:
  23:../../libDaisy/src/hid/disp/display.h **** 
 229              		.loc 15 23 13 view .LVU35
  23:../../libDaisy/src/hid/disp/display.h **** 
 230              		.loc 15 23 13 is_stmt 0 view .LVU36
 231              	.LBE717:
 232              	.LBE716:
  18:../../libDaisy/src/hid/disp/oled_display.h **** 
 233              		.loc 11 18 29 view .LVU37
 234 0000 7047     		bx	lr
 235              		.cfi_endproc
 236              	.LFE5432:
 238              		.weak	_ZN5daisy11OledDisplayINS_13SSD130xDriverILj128ELj64ENS_24SSD130x4WireSpiTransportEEEED1Ev
 239              		.thumb_set _ZN5daisy11OledDisplayINS_13SSD130xDriverILj128ELj64ENS_24SSD130x4WireSpiTransportEEEED
 240 0002 00BF     		.section	.text._ZNK5daisy11OledDisplayINS_13SSD130xDriverILj128ELj64ENS_24SSD130x4WireSpiTransport
 241              		.align	1
 242              		.p2align 2,,3
 243              		.weak	_ZNK5daisy11OledDisplayINS_13SSD130xDriverILj128ELj64ENS_24SSD130x4WireSpiTransportEEEE6Heig
 244              		.syntax unified
 245              		.thumb
ARM GAS  /var/folders/hl/qgbwny5j0fd895c2c41bk3tw0000gp/T//cc3keNI2.s 			page 26


 246              		.thumb_func
 248              	_ZNK5daisy11OledDisplayINS_13SSD130xDriverILj128ELj64ENS_24SSD130x4WireSpiTransportEEEE6HeightEv:
 249              	.LVL9:
 250              	.LFB5435:
  27:../../libDaisy/src/hid/disp/oled_display.h ****     uint16_t Width() const override { return driver_.Width(); }
 251              		.loc 11 27 14 is_stmt 1 view -0
 252              		.cfi_startproc
 253              		@ args = 0, pretend = 0, frame = 0
 254              		@ frame_needed = 0, uses_anonymous_args = 0
 255              		@ link register save eliminated.
  27:../../libDaisy/src/hid/disp/oled_display.h ****     uint16_t Width() const override { return driver_.Width(); }
 256              		.loc 11 27 65 is_stmt 0 view .LVU39
 257 0000 4020     		movs	r0, #64
 258              	.LVL10:
  27:../../libDaisy/src/hid/disp/oled_display.h ****     uint16_t Width() const override { return driver_.Width(); }
 259              		.loc 11 27 65 view .LVU40
 260 0002 7047     		bx	lr
 261              		.cfi_endproc
 262              	.LFE5435:
 264              		.section	.text._ZNK5daisy11OledDisplayINS_13SSD130xDriverILj128ELj64ENS_24SSD130x4WireSpiTransport
 265              		.align	1
 266              		.p2align 2,,3
 267              		.weak	_ZNK5daisy11OledDisplayINS_13SSD130xDriverILj128ELj64ENS_24SSD130x4WireSpiTransportEEEE5Widt
 268              		.syntax unified
 269              		.thumb
 270              		.thumb_func
 272              	_ZNK5daisy11OledDisplayINS_13SSD130xDriverILj128ELj64ENS_24SSD130x4WireSpiTransportEEEE5WidthEv:
 273              	.LVL11:
 274              	.LFB5436:
  28:../../libDaisy/src/hid/disp/oled_display.h **** 
 275              		.loc 11 28 14 is_stmt 1 view -0
 276              		.cfi_startproc
 277              		@ args = 0, pretend = 0, frame = 0
 278              		@ frame_needed = 0, uses_anonymous_args = 0
 279              		@ link register save eliminated.
  28:../../libDaisy/src/hid/disp/oled_display.h **** 
 280              		.loc 11 28 63 is_stmt 0 view .LVU42
 281 0000 8020     		movs	r0, #128
 282              	.LVL12:
  28:../../libDaisy/src/hid/disp/oled_display.h **** 
 283              		.loc 11 28 63 view .LVU43
 284 0002 7047     		bx	lr
 285              		.cfi_endproc
 286              	.LFE5436:
 288              		.section	.text._ZN7daisysp9DelayLineIfLj480000EED2Ev,"axG",%progbits,_ZN7daisysp9DelayLineIfLj4800
 289              		.align	1
 290              		.p2align 2,,3
 291              		.weak	_ZN7daisysp9DelayLineIfLj480000EED2Ev
 292              		.syntax unified
 293              		.thumb
 294              		.thumb_func
 296              	_ZN7daisysp9DelayLineIfLj480000EED2Ev:
 297              	.LVL13:
 298              	.LFB5442:
 299              		.file 16 "../../DaisySP/Source/Utility/delayline.h"
   1:../../DaisySP/Source/Utility/delayline.h **** #pragma once
   2:../../DaisySP/Source/Utility/delayline.h **** #ifndef DSY_DELAY_H
ARM GAS  /var/folders/hl/qgbwny5j0fd895c2c41bk3tw0000gp/T//cc3keNI2.s 			page 27


   3:../../DaisySP/Source/Utility/delayline.h **** #define DSY_DELAY_H
   4:../../DaisySP/Source/Utility/delayline.h **** #include <stdlib.h>
   5:../../DaisySP/Source/Utility/delayline.h **** #include <stdint.h>
   6:../../DaisySP/Source/Utility/delayline.h **** namespace daisysp
   7:../../DaisySP/Source/Utility/delayline.h **** {
   8:../../DaisySP/Source/Utility/delayline.h **** /** Simple Delay line.
   9:../../DaisySP/Source/Utility/delayline.h **** November 2019
  10:../../DaisySP/Source/Utility/delayline.h **** 
  11:../../DaisySP/Source/Utility/delayline.h **** Converted to Template December 2019
  12:../../DaisySP/Source/Utility/delayline.h **** 
  13:../../DaisySP/Source/Utility/delayline.h **** declaration example: (1 second of floats)
  14:../../DaisySP/Source/Utility/delayline.h **** 
  15:../../DaisySP/Source/Utility/delayline.h **** DelayLine<float, SAMPLE_RATE> del;
  16:../../DaisySP/Source/Utility/delayline.h **** 
  17:../../DaisySP/Source/Utility/delayline.h **** By: shensley
  18:../../DaisySP/Source/Utility/delayline.h **** */
  19:../../DaisySP/Source/Utility/delayline.h **** template <typename T, size_t max_size>
  20:../../DaisySP/Source/Utility/delayline.h **** class DelayLine
  21:../../DaisySP/Source/Utility/delayline.h **** {
  22:../../DaisySP/Source/Utility/delayline.h ****   public:
  23:../../DaisySP/Source/Utility/delayline.h ****     DelayLine() {}
  24:../../DaisySP/Source/Utility/delayline.h ****     ~DelayLine() {}
 300              		.loc 16 24 5 is_stmt 1 view -0
 301              		.cfi_startproc
 302              		@ args = 0, pretend = 0, frame = 0
 303              		@ frame_needed = 0, uses_anonymous_args = 0
 304              		@ link register save eliminated.
 305              		.loc 16 24 19 is_stmt 0 view .LVU45
 306 0000 7047     		bx	lr
 307              		.cfi_endproc
 308              	.LFE5442:
 310              		.weak	_ZN7daisysp9DelayLineIfLj480000EED1Ev
 311              		.thumb_set _ZN7daisysp9DelayLineIfLj480000EED1Ev,_ZN7daisysp9DelayLineIfLj480000EED2Ev
 312 0002 00BF     		.section	.text._Z13AudioCallbackPKPKfPPfj,"ax",%progbits
 313              		.align	1
 314              		.p2align 2,,3
 315              		.global	_Z13AudioCallbackPKPKfPPfj
 316              		.syntax unified
 317              		.thumb
 318              		.thumb_func
 320              	_Z13AudioCallbackPKPKfPPfj:
 321              	.LVL14:
 322              	.LFB4824:
 323              		.file 17 "PluckEcho.cpp"
   1:PluckEcho.cpp **** #include "daisy_patch_sm.h"
   2:PluckEcho.cpp **** #include "daisysp.h"
   3:PluckEcho.cpp **** #include <string>
   4:PluckEcho.cpp **** #include <hid/encoder.h>
   5:PluckEcho.cpp **** #include "dev/oled_ssd130x.h"
   6:PluckEcho.cpp **** 
   7:PluckEcho.cpp **** using namespace daisy;
   8:PluckEcho.cpp **** using namespace daisysp;
   9:PluckEcho.cpp **** using namespace patch_sm;
  10:PluckEcho.cpp **** using MyOledDisplay = OledDisplay<SSD130x4WireSpi128x64Driver>;
  11:PluckEcho.cpp **** 
  12:PluckEcho.cpp **** // Hardware
  13:PluckEcho.cpp **** DaisyPatchSM hw;
ARM GAS  /var/folders/hl/qgbwny5j0fd895c2c41bk3tw0000gp/T//cc3keNI2.s 			page 28


  14:PluckEcho.cpp **** MyOledDisplay display;
  15:PluckEcho.cpp **** Encoder myEnc;
  16:PluckEcho.cpp **** 
  17:PluckEcho.cpp **** #define NUM_VOICES 32
  18:PluckEcho.cpp **** #define MAX_DELAY ((size_t)(10.0f * 48000.0f))
  19:PluckEcho.cpp **** 
  20:PluckEcho.cpp **** // Synthesis
  21:PluckEcho.cpp **** PolyPluck<NUM_VOICES> synth;
  22:PluckEcho.cpp **** // 10 second delay line on the external SDRAM
  23:PluckEcho.cpp **** DelayLine<float, MAX_DELAY> DSY_SDRAM_BSS delay;
  24:PluckEcho.cpp **** ReverbSc                                  verb;
  25:PluckEcho.cpp **** 
  26:PluckEcho.cpp **** // Persistent filtered Value for smooth delay time changes.
  27:PluckEcho.cpp **** float smooth_time;
  28:PluckEcho.cpp **** 
  29:PluckEcho.cpp **** void AudioCallback(AudioHandle::InputBuffer  in,
  30:PluckEcho.cpp ****                    AudioHandle::OutputBuffer out,
  31:PluckEcho.cpp ****                    size_t                    size)
  32:PluckEcho.cpp **** {
 324              		.loc 17 32 1 is_stmt 1 view -0
 325              		.cfi_startproc
 326              		@ args = 0, pretend = 0, frame = 24
 327              		@ frame_needed = 0, uses_anonymous_args = 0
  33:PluckEcho.cpp ****     float sig, delsig;           // Mono Audio Vars
 328              		.loc 17 33 5 view .LVU47
  34:PluckEcho.cpp ****     float trig, nn, decay;       // Pluck Vars
 329              		.loc 17 34 5 view .LVU48
  35:PluckEcho.cpp ****     float deltime, delfb, kval;  // Delay Vars
 330              		.loc 17 35 5 view .LVU49
  36:PluckEcho.cpp ****     float dry, send, wetl, wetr; // Effects Vars
 331              		.loc 17 36 5 view .LVU50
  37:PluckEcho.cpp ****     float samplerate;
 332              		.loc 17 37 5 view .LVU51
  38:PluckEcho.cpp **** 
  39:PluckEcho.cpp ****     // Assign Output Buffers
  40:PluckEcho.cpp ****     float *out_left, *out_right;
 333              		.loc 17 40 5 view .LVU52
  41:PluckEcho.cpp ****     out_left  = out[0];
 334              		.loc 17 41 5 view .LVU53
  32:PluckEcho.cpp ****     float sig, delsig;           // Mono Audio Vars
 335              		.loc 17 32 1 is_stmt 0 view .LVU54
 336 0000 2DE9F04F 		push	{r4, r5, r6, r7, r8, r9, r10, fp, lr}
 337              		.cfi_def_cfa_offset 36
 338              		.cfi_offset 4, -36
 339              		.cfi_offset 5, -32
 340              		.cfi_offset 6, -28
 341              		.cfi_offset 7, -24
 342              		.cfi_offset 8, -20
 343              		.cfi_offset 9, -16
 344              		.cfi_offset 10, -12
 345              		.cfi_offset 11, -8
 346              		.cfi_offset 14, -4
 347 0004 2DED068B 		vpush.64	{d8, d9, d10}
 348              		.cfi_def_cfa_offset 60
 349              		.cfi_offset 80, -60
 350              		.cfi_offset 81, -56
 351              		.cfi_offset 82, -52
ARM GAS  /var/folders/hl/qgbwny5j0fd895c2c41bk3tw0000gp/T//cc3keNI2.s 			page 29


 352              		.cfi_offset 83, -48
 353              		.cfi_offset 84, -44
 354              		.cfi_offset 85, -40
 355 0008 89B0     		sub	sp, sp, #36
 356              		.cfi_def_cfa_offset 96
  42:PluckEcho.cpp ****     out_right = out[1];
  43:PluckEcho.cpp **** 
  44:PluckEcho.cpp ****     samplerate = hw.AudioSampleRate();
 357              		.loc 17 44 36 view .LVU55
 358 000a A848     		ldr	r0, .L36
 359              	.LVL15:
  32:PluckEcho.cpp ****     float sig, delsig;           // Mono Audio Vars
 360              		.loc 17 32 1 view .LVU56
 361 000c 0F46     		mov	r7, r1
 362              	.LVL16:
  42:PluckEcho.cpp ****     out_right = out[1];
 363              		.loc 17 42 5 is_stmt 1 view .LVU57
 364              		.loc 17 44 5 view .LVU58
  32:PluckEcho.cpp ****     float sig, delsig;           // Mono Audio Vars
 365              		.loc 17 32 1 is_stmt 0 view .LVU59
 366 000e 0392     		str	r2, [sp, #12]
 367              		.loc 17 44 36 view .LVU60
 368 0010 FFF7FEFF 		bl	_ZN5daisy8patch_sm12DaisyPatchSM15AudioSampleRateEv
 369              	.LVL17:
  45:PluckEcho.cpp ****     hw.ProcessDigitalControls();
 370              		.loc 17 45 30 view .LVU61
 371 0014 A548     		ldr	r0, .L36
  44:PluckEcho.cpp ****     hw.ProcessDigitalControls();
 372              		.loc 17 44 36 view .LVU62
 373 0016 B0EE409A 		vmov.f32	s18, s0
 374              	.LVL18:
 375              		.loc 17 45 5 is_stmt 1 view .LVU63
 376              		.loc 17 45 30 is_stmt 0 view .LVU64
 377 001a FFF7FEFF 		bl	_ZN5daisy8patch_sm12DaisyPatchSM22ProcessDigitalControlsEv
 378              	.LVL19:
  46:PluckEcho.cpp ****     hw.ProcessAnalogControls();
 379              		.loc 17 46 5 is_stmt 1 view .LVU65
 380              		.loc 17 46 29 is_stmt 0 view .LVU66
 381 001e A348     		ldr	r0, .L36
 382 0020 FFF7FEFF 		bl	_ZN5daisy8patch_sm12DaisyPatchSM21ProcessAnalogControlsEv
 383              	.LVL20:
  47:PluckEcho.cpp **** 
  48:PluckEcho.cpp ****     // Handle Triggering the Plucks
  49:PluckEcho.cpp ****     trig = 0.0f;
 384              		.loc 17 49 5 is_stmt 1 view .LVU67
  50:PluckEcho.cpp ****     if(myEnc.RisingEdge() || hw.gate_in_1.Trig())
 385              		.loc 17 50 5 view .LVU68
 386              	.LBB764:
 387              	.LBI764:
  22:../../libDaisy/src/hid/encoder.h **** 
  23:../../libDaisy/src/hid/encoder.h ****     /** Initializes the encoder with the specified hardware pins.
  24:../../libDaisy/src/hid/encoder.h ****      * Update rate is to be deprecated in a future release
  25:../../libDaisy/src/hid/encoder.h ****      */
  26:../../libDaisy/src/hid/encoder.h ****     void Init(dsy_gpio_pin a,
  27:../../libDaisy/src/hid/encoder.h ****               dsy_gpio_pin b,
  28:../../libDaisy/src/hid/encoder.h ****               dsy_gpio_pin click,
  29:../../libDaisy/src/hid/encoder.h ****               float        update_rate = 0.f);
ARM GAS  /var/folders/hl/qgbwny5j0fd895c2c41bk3tw0000gp/T//cc3keNI2.s 			page 30


  30:../../libDaisy/src/hid/encoder.h ****     /** Called at update_rate to debounce and handle timing for the switch.
  31:../../libDaisy/src/hid/encoder.h ****      * In order for events not to be missed, its important that the Edge/Pressed checks be made at 
  32:../../libDaisy/src/hid/encoder.h ****      */
  33:../../libDaisy/src/hid/encoder.h ****     void Debounce();
  34:../../libDaisy/src/hid/encoder.h **** 
  35:../../libDaisy/src/hid/encoder.h ****     /** Returns +1 if the encoder was turned clockwise, -1 if it was turned counter-clockwise, or 0
  36:../../libDaisy/src/hid/encoder.h ****     inline int32_t Increment() const { return updated_ ? inc_ : 0; }
  37:../../libDaisy/src/hid/encoder.h **** 
  38:../../libDaisy/src/hid/encoder.h ****     /** Returns true if the encoder was just pressed. */
  39:../../libDaisy/src/hid/encoder.h ****     inline bool RisingEdge() const { return sw_.RisingEdge(); }
 388              		.loc 1 39 17 view .LVU69
 389              	.LBE764:
 390              		.loc 1 39 38 view .LVU70
 391              	.LBB767:
 392              	.LBB765:
 393              	.LBI765:
  43:../../libDaisy/src/hid/switch.h **** 
  44:../../libDaisy/src/hid/switch.h ****     /** 
  45:../../libDaisy/src/hid/switch.h ****     Initializes the switch object with a given port/pin combo.
  46:../../libDaisy/src/hid/switch.h ****     \param pin port/pin object to tell the switch which hardware pin to use.
  47:../../libDaisy/src/hid/switch.h ****     \param update_rate Does nothing. Backwards compatibility until next breaking update.
  48:../../libDaisy/src/hid/switch.h ****     \param t switch type -- Default: TYPE_MOMENTARY
  49:../../libDaisy/src/hid/switch.h ****     \param pol switch polarity -- Default: POLARITY_INVERTED
  50:../../libDaisy/src/hid/switch.h ****     \param pu switch pull up/down -- Default: PULL_UP
  51:../../libDaisy/src/hid/switch.h ****     */
  52:../../libDaisy/src/hid/switch.h ****     void
  53:../../libDaisy/src/hid/switch.h ****     Init(dsy_gpio_pin pin, float update_rate, Type t, Polarity pol, Pull pu);
  54:../../libDaisy/src/hid/switch.h **** 
  55:../../libDaisy/src/hid/switch.h ****     /**
  56:../../libDaisy/src/hid/switch.h ****        Simplified Init.
  57:../../libDaisy/src/hid/switch.h ****        \param pin port/pin object to tell the switch which hardware pin to use.
  58:../../libDaisy/src/hid/switch.h ****        \param update_rate Left for backwards compatibility until next breaking change.
  59:../../libDaisy/src/hid/switch.h ****     */
  60:../../libDaisy/src/hid/switch.h ****     void Init(dsy_gpio_pin pin, float update_rate = 0.f);
  61:../../libDaisy/src/hid/switch.h **** 
  62:../../libDaisy/src/hid/switch.h ****     /** 
  63:../../libDaisy/src/hid/switch.h ****     Called at update_rate to debounce and handle timing for the switch.
  64:../../libDaisy/src/hid/switch.h ****     In order for events not to be missed, its important that the Edge/Pressed checks
  65:../../libDaisy/src/hid/switch.h ****     be made at the same rate as the debounce function is being called.
  66:../../libDaisy/src/hid/switch.h ****     */
  67:../../libDaisy/src/hid/switch.h ****     void Debounce();
  68:../../libDaisy/src/hid/switch.h **** 
  69:../../libDaisy/src/hid/switch.h ****     /** \return true if a button was just pressed. */
  70:../../libDaisy/src/hid/switch.h ****     inline bool RisingEdge() const { return updated_ ? state_ == 0x7f : false; }
 394              		.loc 2 70 17 view .LVU71
 395              	.LBB766:
 396              		.loc 2 70 38 view .LVU72
 397              		.loc 2 70 45 is_stmt 0 view .LVU73
 398 0024 A24B     		ldr	r3, .L36+4
 399              		.loc 2 70 54 view .LVU74
 400 0026 1A7B     		ldrb	r2, [r3, #12]	@ zero_extendqisi2
 401 0028 002A     		cmp	r2, #0
 402 002a 00F03381 		beq	.L12
 403              	.LVL21:
 404              		.loc 2 70 54 view .LVU75
 405              	.LBE766:
 406              	.LBE765:
ARM GAS  /var/folders/hl/qgbwny5j0fd895c2c41bk3tw0000gp/T//cc3keNI2.s 			page 31


 407              	.LBE767:
 408              		.loc 17 50 27 view .LVU76
 409 002e 9B7C     		ldrb	r3, [r3, #18]	@ zero_extendqisi2
 410 0030 7F2B     		cmp	r3, #127
 411 0032 40F02F81 		bne	.L12
 412              	.L14:
  51:PluckEcho.cpp ****         trig = 1.0f;
 413              		.loc 17 51 14 view .LVU77
 414 0036 F7EE008A 		vmov.f32	s17, #1.0e+0
 415              	.L13:
 416              	.LVL22:
  52:PluckEcho.cpp **** 
  53:PluckEcho.cpp ****     // Set MIDI Note for new Pluck notes.
  54:PluckEcho.cpp ****     //nn = 24.0f + hw.GetAdcValue(CV_5) * 60.0f;
  55:PluckEcho.cpp ****     //nn = static_cast<int32_t>(nn); // Quantize to semitones
  56:PluckEcho.cpp **** 
  57:PluckEcho.cpp ****     // adding course tune and cv in 
  58:PluckEcho.cpp ****     float knob_coarse = hw.GetAdcValue(CV_1);
 417              		.loc 17 58 5 is_stmt 1 view .LVU78
 418              	.LBB768:
 419              	.LBB769:
 420              		.file 18 "../../DaisySP/Source/Utility/dsp.h"
   1:../../DaisySP/Source/Utility/dsp.h **** /** Helpful defines, functions, and other utilities for use in/with daisysp modules.
   2:../../DaisySP/Source/Utility/dsp.h **** */
   3:../../DaisySP/Source/Utility/dsp.h **** #pragma once
   4:../../DaisySP/Source/Utility/dsp.h **** #ifndef DSY_CORE_DSP
   5:../../DaisySP/Source/Utility/dsp.h **** #define DSY_CORE_DSP
   6:../../DaisySP/Source/Utility/dsp.h **** #include <cassert>
   7:../../DaisySP/Source/Utility/dsp.h **** #include <cstdint>
   8:../../DaisySP/Source/Utility/dsp.h **** #include <random>
   9:../../DaisySP/Source/Utility/dsp.h **** #include <cmath>
  10:../../DaisySP/Source/Utility/dsp.h **** 
  11:../../DaisySP/Source/Utility/dsp.h **** /** PIs
  12:../../DaisySP/Source/Utility/dsp.h **** */
  13:../../DaisySP/Source/Utility/dsp.h **** #define PI_F 3.1415927410125732421875f
  14:../../DaisySP/Source/Utility/dsp.h **** #define TWOPI_F (2.0f * PI_F)
  15:../../DaisySP/Source/Utility/dsp.h **** #define HALFPI_F (PI_F * 0.5f)
  16:../../DaisySP/Source/Utility/dsp.h **** #define DSY_MIN(in, mn) (in < mn ? in : mn)
  17:../../DaisySP/Source/Utility/dsp.h **** #define DSY_MAX(in, mx) (in > mx ? in : mx)
  18:../../DaisySP/Source/Utility/dsp.h **** #define DSY_CLAMP(in, mn, mx) (DSY_MIN(DSY_MAX(in, mn), mx))
  19:../../DaisySP/Source/Utility/dsp.h **** #define DSY_COUNTOF(_arr) (sizeof(_arr) / sizeof(_arr[0]))
  20:../../DaisySP/Source/Utility/dsp.h **** 
  21:../../DaisySP/Source/Utility/dsp.h **** namespace daisysp
  22:../../DaisySP/Source/Utility/dsp.h **** {
  23:../../DaisySP/Source/Utility/dsp.h **** //Avoids division for random floats. e.g. rand() * kRandFrac
  24:../../DaisySP/Source/Utility/dsp.h **** static constexpr float kRandFrac = 1.f / (float)RAND_MAX;
  25:../../DaisySP/Source/Utility/dsp.h **** 
  26:../../DaisySP/Source/Utility/dsp.h **** //Convert from semitones to other units. e.g. 2 ^ (kOneTwelfth * x)
  27:../../DaisySP/Source/Utility/dsp.h **** static constexpr float kOneTwelfth = 1.f / 12.f;
  28:../../DaisySP/Source/Utility/dsp.h **** 
  29:../../DaisySP/Source/Utility/dsp.h **** /** efficient floating point min/max
  30:../../DaisySP/Source/Utility/dsp.h **** c/o stephen mccaul
  31:../../DaisySP/Source/Utility/dsp.h **** */
  32:../../DaisySP/Source/Utility/dsp.h **** inline float fmax(float a, float b)
  33:../../DaisySP/Source/Utility/dsp.h **** {
  34:../../DaisySP/Source/Utility/dsp.h ****     float r;
  35:../../DaisySP/Source/Utility/dsp.h **** #ifdef __arm__
ARM GAS  /var/folders/hl/qgbwny5j0fd895c2c41bk3tw0000gp/T//cc3keNI2.s 			page 32


  36:../../DaisySP/Source/Utility/dsp.h ****     asm("vmaxnm.f32 %[d], %[n], %[m]" : [d] "=t"(r) : [n] "t"(a), [m] "t"(b) :);
  37:../../DaisySP/Source/Utility/dsp.h **** #else
  38:../../DaisySP/Source/Utility/dsp.h ****     r = (a > b) ? a : b;
  39:../../DaisySP/Source/Utility/dsp.h **** #endif // __arm__
  40:../../DaisySP/Source/Utility/dsp.h ****     return r;
  41:../../DaisySP/Source/Utility/dsp.h **** }
  42:../../DaisySP/Source/Utility/dsp.h **** 
  43:../../DaisySP/Source/Utility/dsp.h **** inline float fmin(float a, float b)
  44:../../DaisySP/Source/Utility/dsp.h **** {
  45:../../DaisySP/Source/Utility/dsp.h ****     float r;
  46:../../DaisySP/Source/Utility/dsp.h **** #ifdef __arm__
  47:../../DaisySP/Source/Utility/dsp.h ****     asm("vminnm.f32 %[d], %[n], %[m]" : [d] "=t"(r) : [n] "t"(a), [m] "t"(b) :);
  48:../../DaisySP/Source/Utility/dsp.h **** #else
  49:../../DaisySP/Source/Utility/dsp.h ****     r = (a < b) ? a : b;
  50:../../DaisySP/Source/Utility/dsp.h **** #endif // __arm__
  51:../../DaisySP/Source/Utility/dsp.h ****     return r;
  52:../../DaisySP/Source/Utility/dsp.h **** }
  53:../../DaisySP/Source/Utility/dsp.h **** 
  54:../../DaisySP/Source/Utility/dsp.h **** /** quick fp clamp
  55:../../DaisySP/Source/Utility/dsp.h **** */
  56:../../DaisySP/Source/Utility/dsp.h **** inline float fclamp(float in, float min, float max)
  57:../../DaisySP/Source/Utility/dsp.h **** {
  58:../../DaisySP/Source/Utility/dsp.h ****     return fmin(fmax(in, min), max);
  59:../../DaisySP/Source/Utility/dsp.h **** }
  60:../../DaisySP/Source/Utility/dsp.h **** 
  61:../../DaisySP/Source/Utility/dsp.h **** /** From Musicdsp.org "Fast power and root estimates for 32bit floats)
  62:../../DaisySP/Source/Utility/dsp.h **** Original code by Stefan Stenzel
  63:../../DaisySP/Source/Utility/dsp.h **** These are approximations
  64:../../DaisySP/Source/Utility/dsp.h **** */
  65:../../DaisySP/Source/Utility/dsp.h **** inline float fastpower(float f, int n)
  66:../../DaisySP/Source/Utility/dsp.h **** {
  67:../../DaisySP/Source/Utility/dsp.h ****     long *lp, l;
  68:../../DaisySP/Source/Utility/dsp.h ****     lp = (long *)(&f);
  69:../../DaisySP/Source/Utility/dsp.h ****     l  = *lp;
  70:../../DaisySP/Source/Utility/dsp.h ****     l -= 0x3F800000;
  71:../../DaisySP/Source/Utility/dsp.h ****     l <<= (n - 1);
  72:../../DaisySP/Source/Utility/dsp.h ****     l += 0x3F800000;
  73:../../DaisySP/Source/Utility/dsp.h ****     *lp = l;
  74:../../DaisySP/Source/Utility/dsp.h ****     return f;
  75:../../DaisySP/Source/Utility/dsp.h **** }
  76:../../DaisySP/Source/Utility/dsp.h **** 
  77:../../DaisySP/Source/Utility/dsp.h **** inline float fastroot(float f, int n)
  78:../../DaisySP/Source/Utility/dsp.h **** {
  79:../../DaisySP/Source/Utility/dsp.h ****     long *lp, l;
  80:../../DaisySP/Source/Utility/dsp.h ****     lp = (long *)(&f);
  81:../../DaisySP/Source/Utility/dsp.h ****     l  = *lp;
  82:../../DaisySP/Source/Utility/dsp.h ****     l -= 0x3F800000;
  83:../../DaisySP/Source/Utility/dsp.h ****     l >>= (n = 1);
  84:../../DaisySP/Source/Utility/dsp.h ****     l += 0x3F800000;
  85:../../DaisySP/Source/Utility/dsp.h ****     *lp = l;
  86:../../DaisySP/Source/Utility/dsp.h ****     return f;
  87:../../DaisySP/Source/Utility/dsp.h **** }
  88:../../DaisySP/Source/Utility/dsp.h **** 
  89:../../DaisySP/Source/Utility/dsp.h **** /** From http://openaudio.blogspot.com/2017/02/faster-log10-and-pow.html
  90:../../DaisySP/Source/Utility/dsp.h **** No approximation, pow10f(x) gives a 90% speed increase over powf(10.f, x)
  91:../../DaisySP/Source/Utility/dsp.h **** */
  92:../../DaisySP/Source/Utility/dsp.h **** inline float pow10f(float f)
ARM GAS  /var/folders/hl/qgbwny5j0fd895c2c41bk3tw0000gp/T//cc3keNI2.s 			page 33


  93:../../DaisySP/Source/Utility/dsp.h **** {
  94:../../DaisySP/Source/Utility/dsp.h ****     return expf(2.302585092994046f * f);
  95:../../DaisySP/Source/Utility/dsp.h **** }
  96:../../DaisySP/Source/Utility/dsp.h **** 
  97:../../DaisySP/Source/Utility/dsp.h **** /* Original code for fastlog2f by Dr. Paul Beckmann from the ARM community forum, adapted from the 
  98:../../DaisySP/Source/Utility/dsp.h **** About 25% performance increase over std::log10f
  99:../../DaisySP/Source/Utility/dsp.h **** */
 100:../../DaisySP/Source/Utility/dsp.h **** inline float fastlog2f(float f)
 101:../../DaisySP/Source/Utility/dsp.h **** {
 102:../../DaisySP/Source/Utility/dsp.h ****     float frac;
 103:../../DaisySP/Source/Utility/dsp.h ****     int   exp;
 104:../../DaisySP/Source/Utility/dsp.h ****     frac = frexpf(fabsf(f), &exp);
 105:../../DaisySP/Source/Utility/dsp.h ****     f    = 1.23149591368684f;
 106:../../DaisySP/Source/Utility/dsp.h ****     f *= frac;
 107:../../DaisySP/Source/Utility/dsp.h ****     f += -4.11852516267426f;
 108:../../DaisySP/Source/Utility/dsp.h ****     f *= frac;
 109:../../DaisySP/Source/Utility/dsp.h ****     f += 6.02197014179219f;
 110:../../DaisySP/Source/Utility/dsp.h ****     f *= frac;
 111:../../DaisySP/Source/Utility/dsp.h ****     f += -3.13396450166353f;
 112:../../DaisySP/Source/Utility/dsp.h ****     f += exp;
 113:../../DaisySP/Source/Utility/dsp.h ****     return (f);
 114:../../DaisySP/Source/Utility/dsp.h **** }
 115:../../DaisySP/Source/Utility/dsp.h **** 
 116:../../DaisySP/Source/Utility/dsp.h **** inline float fastlog10f(float f)
 117:../../DaisySP/Source/Utility/dsp.h **** {
 118:../../DaisySP/Source/Utility/dsp.h ****     return fastlog2f(f) * 0.3010299956639812f;
 119:../../DaisySP/Source/Utility/dsp.h **** }
 120:../../DaisySP/Source/Utility/dsp.h **** 
 121:../../DaisySP/Source/Utility/dsp.h **** /** Midi to frequency helper
 122:../../DaisySP/Source/Utility/dsp.h **** */
 123:../../DaisySP/Source/Utility/dsp.h **** inline float mtof(float m)
 124:../../DaisySP/Source/Utility/dsp.h **** {
 125:../../DaisySP/Source/Utility/dsp.h ****     return powf(2, (m - 69.0f) / 12.0f) * 440.0f;
 126:../../DaisySP/Source/Utility/dsp.h **** }
 127:../../DaisySP/Source/Utility/dsp.h **** 
 128:../../DaisySP/Source/Utility/dsp.h **** 
 129:../../DaisySP/Source/Utility/dsp.h **** /** one pole lpf
 130:../../DaisySP/Source/Utility/dsp.h **** out is passed by reference, and must be retained between
 131:../../DaisySP/Source/Utility/dsp.h **** calls to properly filter the signal
 132:../../DaisySP/Source/Utility/dsp.h **** coeff can be calculated:
 133:../../DaisySP/Source/Utility/dsp.h **** coeff = 1.0 / (time * sample_rate) ; where time is in seconds
 134:../../DaisySP/Source/Utility/dsp.h **** */
 135:../../DaisySP/Source/Utility/dsp.h **** inline void fonepole(float &out, float in, float coeff)
 136:../../DaisySP/Source/Utility/dsp.h **** {
 137:../../DaisySP/Source/Utility/dsp.h ****     out += coeff * (in - out);
 138:../../DaisySP/Source/Utility/dsp.h **** }
 139:../../DaisySP/Source/Utility/dsp.h **** 
 140:../../DaisySP/Source/Utility/dsp.h **** /** Curves to use with the fmap function */
 141:../../DaisySP/Source/Utility/dsp.h **** enum class Mapping
 142:../../DaisySP/Source/Utility/dsp.h **** {
 143:../../DaisySP/Source/Utility/dsp.h ****     LINEAR,
 144:../../DaisySP/Source/Utility/dsp.h ****     EXP,
 145:../../DaisySP/Source/Utility/dsp.h ****     LOG,
 146:../../DaisySP/Source/Utility/dsp.h **** };
 147:../../DaisySP/Source/Utility/dsp.h **** 
 148:../../DaisySP/Source/Utility/dsp.h **** /** Maps a float between a specified range, using a specified curve. 
 149:../../DaisySP/Source/Utility/dsp.h ****  * 
ARM GAS  /var/folders/hl/qgbwny5j0fd895c2c41bk3tw0000gp/T//cc3keNI2.s 			page 34


 150:../../DaisySP/Source/Utility/dsp.h ****  *  \param in a value between 0 to 1 that will be mapped to the new range.
 151:../../DaisySP/Source/Utility/dsp.h ****  *  \param min the new minimum value
 152:../../DaisySP/Source/Utility/dsp.h ****  *  \param max the new maxmimum value
 153:../../DaisySP/Source/Utility/dsp.h ****  *  \param curve a Mapping Value to adjust the response curve of the transformation
 154:../../DaisySP/Source/Utility/dsp.h ****  *               defaults to Linear. @see Mapping
 155:../../DaisySP/Source/Utility/dsp.h ****  * 
 156:../../DaisySP/Source/Utility/dsp.h ****  *  When using the log curve min and max, must be greater than zero.
 157:../../DaisySP/Source/Utility/dsp.h ****  * 
 158:../../DaisySP/Source/Utility/dsp.h ****  *  \retval returns the transformed float within the new range.
 159:../../DaisySP/Source/Utility/dsp.h **** */
 160:../../DaisySP/Source/Utility/dsp.h **** inline float
 161:../../DaisySP/Source/Utility/dsp.h **** fmap(float in, float min, float max, Mapping curve = Mapping::LINEAR)
 162:../../DaisySP/Source/Utility/dsp.h **** {
 163:../../DaisySP/Source/Utility/dsp.h ****     switch(curve)
 164:../../DaisySP/Source/Utility/dsp.h ****     {
 165:../../DaisySP/Source/Utility/dsp.h ****         case Mapping::EXP:
 166:../../DaisySP/Source/Utility/dsp.h ****             return fclamp(min + (in * in) * (max - min), min, max);
 167:../../DaisySP/Source/Utility/dsp.h ****         case Mapping::LOG:
 168:../../DaisySP/Source/Utility/dsp.h ****         {
 169:../../DaisySP/Source/Utility/dsp.h ****             const float a = 1.f / log10f(max / min);
 170:../../DaisySP/Source/Utility/dsp.h ****             return fclamp(min * powf(10, in / a), min, max);
 171:../../DaisySP/Source/Utility/dsp.h ****         }
 172:../../DaisySP/Source/Utility/dsp.h ****         case Mapping::LINEAR:
 173:../../DaisySP/Source/Utility/dsp.h ****         default: return fclamp(min + in * (max - min), min, max);
 421              		.loc 18 173 31 is_stmt 0 view .LVU79
 422 003a F2EE08AA 		vmov.f32	s21, #1.2e+1
 423              	.LBE769:
 424              	.LBE768:
 425              		.loc 17 58 39 view .LVU80
 426 003e 0021     		movs	r1, #0
 427 0040 9A48     		ldr	r0, .L36
 428 0042 FFF7FEFF 		bl	_ZN5daisy8patch_sm12DaisyPatchSM11GetAdcValueEi
 429              	.LVL23:
  59:PluckEcho.cpp ****     float coarse_tune = fmap(knob_coarse, 12, 84);
 430              		.loc 17 59 5 is_stmt 1 view .LVU81
 431              	.LBB786:
 432              	.LBI768:
 161:../../DaisySP/Source/Utility/dsp.h **** {
 433              		.loc 18 161 1 view .LVU82
 434              	.LBE786:
 163:../../DaisySP/Source/Utility/dsp.h ****     {
 435              		.loc 18 163 5 view .LVU83
 436              	.LBB787:
 437              	.LBB782:
 172:../../DaisySP/Source/Utility/dsp.h ****         default: return fclamp(min + in * (max - min), min, max);
 438              		.loc 18 172 9 view .LVU84
 439              		.loc 18 173 9 view .LVU85
 440              		.loc 18 173 18 view .LVU86
 441              		.loc 18 173 31 is_stmt 0 view .LVU87
 442 0046 9FED9B7A 		vldr.32	s14, .L36+8
 443 004a F0EE6A7A 		vmov.f32	s15, s21
 444              	.LBE782:
 445              	.LBE787:
  60:PluckEcho.cpp **** 
  61:PluckEcho.cpp ****     float cv_voct = hw.GetAdcValue(CV_5);
 446              		.loc 17 61 35 view .LVU88
 447 004e 0421     		movs	r1, #4
ARM GAS  /var/folders/hl/qgbwny5j0fd895c2c41bk3tw0000gp/T//cc3keNI2.s 			page 35


 448 0050 9648     		ldr	r0, .L36
 449              	.LBB788:
 450              	.LBB783:
 451              	.LBB770:
 452              	.LBB771:
 453              	.LBB772:
  47:../../DaisySP/Source/Utility/dsp.h **** #else
 454              		.loc 18 47 5 view .LVU89
 455 0052 9FED998A 		vldr.32	s16, .L36+12
 456              	.LBE772:
 457              	.LBE771:
 458              	.LBE770:
 459              		.loc 18 173 31 view .LVU90
 460 0056 E0EE077A 		vfma.f32	s15, s0, s14
 461              	.LVL24:
 462              	.LBB779:
 463              	.LBI770:
  56:../../DaisySP/Source/Utility/dsp.h **** {
 464              		.loc 18 56 14 is_stmt 1 view .LVU91
 465              	.LBE779:
 466              	.LBE783:
 467              	.LBE788:
  58:../../DaisySP/Source/Utility/dsp.h **** }
 468              		.loc 18 58 5 view .LVU92
 469              	.LBB789:
 470              	.LBB784:
 471              	.LBB780:
 472              	.LBB774:
 473              	.LBI774:
  32:../../DaisySP/Source/Utility/dsp.h **** {
 474              		.loc 18 32 14 view .LVU93
 475              	.LBB775:
  34:../../DaisySP/Source/Utility/dsp.h **** #ifdef __arm__
 476              		.loc 18 34 5 view .LVU94
  36:../../DaisySP/Source/Utility/dsp.h **** #else
 477              		.loc 18 36 5 view .LVU95
 478              	.LBE775:
 479              	.LBE774:
 480              	.LBE780:
 481              	.LBE784:
 482              	.LBE789:
 483              	.LBB790:
 484              	.LBB791:
  24:../../DaisySP/Source/PhysicalModeling/PolyPluck.h **** {
  25:../../DaisySP/Source/PhysicalModeling/PolyPluck.h ****   public:
  26:../../DaisySP/Source/PhysicalModeling/PolyPluck.h ****     /** Initializes the PolyPluck instance.
  27:../../DaisySP/Source/PhysicalModeling/PolyPluck.h ****         \param sample_rate: rate in Hz that the Process() function will be called.
  28:../../DaisySP/Source/PhysicalModeling/PolyPluck.h ****     */
  29:../../DaisySP/Source/PhysicalModeling/PolyPluck.h ****     void Init(float sample_rate)
  30:../../DaisySP/Source/PhysicalModeling/PolyPluck.h ****     {
  31:../../DaisySP/Source/PhysicalModeling/PolyPluck.h ****         active_voice_ = 0;
  32:../../DaisySP/Source/PhysicalModeling/PolyPluck.h ****         p_damp_       = 0.95f;
  33:../../DaisySP/Source/PhysicalModeling/PolyPluck.h ****         p_decay_      = 0.75f;
  34:../../DaisySP/Source/PhysicalModeling/PolyPluck.h ****         for(size_t i = 0; i < num_voices; i++)
  35:../../DaisySP/Source/PhysicalModeling/PolyPluck.h ****         {
  36:../../DaisySP/Source/PhysicalModeling/PolyPluck.h ****             plk_[i].Init(sample_rate, plkbuff_[i], 256, PLUCK_MODE_RECURSIVE);
  37:../../DaisySP/Source/PhysicalModeling/PolyPluck.h ****             plk_[i].SetDamp(0.85f);
ARM GAS  /var/folders/hl/qgbwny5j0fd895c2c41bk3tw0000gp/T//cc3keNI2.s 			page 36


  38:../../DaisySP/Source/PhysicalModeling/PolyPluck.h ****             plk_[i].SetAmp(0.18f);
  39:../../DaisySP/Source/PhysicalModeling/PolyPluck.h ****             plk_[i].SetDecay(0.85f);
  40:../../DaisySP/Source/PhysicalModeling/PolyPluck.h ****         }
  41:../../DaisySP/Source/PhysicalModeling/PolyPluck.h ****         blk_.Init(sample_rate);
  42:../../DaisySP/Source/PhysicalModeling/PolyPluck.h ****     }
  43:../../DaisySP/Source/PhysicalModeling/PolyPluck.h **** 
  44:../../DaisySP/Source/PhysicalModeling/PolyPluck.h ****     /** Process function, synthesizes and sums the output of all voices,
  45:../../DaisySP/Source/PhysicalModeling/PolyPluck.h ****         triggering a new voice with frequency of MIDI note number when trig > 0.
  46:../../DaisySP/Source/PhysicalModeling/PolyPluck.h **** 
  47:../../DaisySP/Source/PhysicalModeling/PolyPluck.h ****         \param trig: value by reference of trig. When trig > 0 a the next voice will be triggered, 
  48:../../DaisySP/Source/PhysicalModeling/PolyPluck.h ****         \param note: MIDI note number for the active_voice.
  49:../../DaisySP/Source/PhysicalModeling/PolyPluck.h ****     */
  50:../../DaisySP/Source/PhysicalModeling/PolyPluck.h ****     float Process(float &trig, float note)
  51:../../DaisySP/Source/PhysicalModeling/PolyPluck.h ****     {
  52:../../DaisySP/Source/PhysicalModeling/PolyPluck.h ****         float sig, tval;
  53:../../DaisySP/Source/PhysicalModeling/PolyPluck.h ****         sig = 0.0f;
  54:../../DaisySP/Source/PhysicalModeling/PolyPluck.h ****         if(trig > 0.0f)
  55:../../DaisySP/Source/PhysicalModeling/PolyPluck.h ****         {
  56:../../DaisySP/Source/PhysicalModeling/PolyPluck.h ****             // increment active voice
  57:../../DaisySP/Source/PhysicalModeling/PolyPluck.h ****             active_voice_ = (active_voice_ + 1) % num_voices;
  58:../../DaisySP/Source/PhysicalModeling/PolyPluck.h ****             // set new voice to new note
  59:../../DaisySP/Source/PhysicalModeling/PolyPluck.h ****             plk_[active_voice_].SetDamp(p_damp_);
  60:../../DaisySP/Source/PhysicalModeling/PolyPluck.h ****             plk_[active_voice_].SetDecay(p_decay_);
  61:../../DaisySP/Source/PhysicalModeling/PolyPluck.h ****             plk_[active_voice_].SetAmp(0.25f);
  62:../../DaisySP/Source/PhysicalModeling/PolyPluck.h ****         }
  63:../../DaisySP/Source/PhysicalModeling/PolyPluck.h ****         plk_[active_voice_].SetFreq(mtof(note));
  64:../../DaisySP/Source/PhysicalModeling/PolyPluck.h **** 
  65:../../DaisySP/Source/PhysicalModeling/PolyPluck.h ****         for(size_t i = 0; i < num_voices; i++)
  66:../../DaisySP/Source/PhysicalModeling/PolyPluck.h ****         {
  67:../../DaisySP/Source/PhysicalModeling/PolyPluck.h ****             tval = (trig > 0.0f && i == active_voice_) ? 1.0f : 0.0f;
  68:../../DaisySP/Source/PhysicalModeling/PolyPluck.h ****             sig += plk_[i].Process(tval);
  69:../../DaisySP/Source/PhysicalModeling/PolyPluck.h ****         }
  70:../../DaisySP/Source/PhysicalModeling/PolyPluck.h ****         if(trig > 0.0f)
  71:../../DaisySP/Source/PhysicalModeling/PolyPluck.h ****             trig = 0.0f;
  72:../../DaisySP/Source/PhysicalModeling/PolyPluck.h ****         return blk_.Process(sig);
  73:../../DaisySP/Source/PhysicalModeling/PolyPluck.h ****     }
  74:../../DaisySP/Source/PhysicalModeling/PolyPluck.h **** 
  75:../../DaisySP/Source/PhysicalModeling/PolyPluck.h ****     /** Sets the decay coefficients of the pluck voices. 
  76:../../DaisySP/Source/PhysicalModeling/PolyPluck.h ****         \param p expects 0.0-1.0 input.
  77:../../DaisySP/Source/PhysicalModeling/PolyPluck.h ****     */
  78:../../DaisySP/Source/PhysicalModeling/PolyPluck.h ****     void SetDecay(float p) { p_damp_ = p; }
 485              		.loc 13 78 38 is_stmt 0 view .LVU96
 486 005a 984C     		ldr	r4, .L36+16
 487              	.LBE791:
 488              	.LBE790:
 489              	.LBB794:
 490              	.LBB785:
 491              	.LBB781:
 492              	.LBB777:
 493              	.LBB776:
  36:../../DaisySP/Source/Utility/dsp.h **** #else
 494              		.loc 18 36 5 view .LVU97
 495              		.syntax unified
 496              	@ 36 "../../DaisySP/Source/Utility/dsp.h" 1
 497 005c C7FEAA7A 		vmaxnm.f32 s15, s15, s21
 498              	@ 0 "" 2
 499              	.LVL25:
ARM GAS  /var/folders/hl/qgbwny5j0fd895c2c41bk3tw0000gp/T//cc3keNI2.s 			page 37


  40:../../DaisySP/Source/Utility/dsp.h **** }
 500              		.loc 18 40 5 is_stmt 1 view .LVU98
  40:../../DaisySP/Source/Utility/dsp.h **** }
 501              		.loc 18 40 5 is_stmt 0 view .LVU99
 502              		.thumb
 503              		.syntax unified
 504              	.LBE776:
 505              	.LBE777:
 506              	.LBB778:
 507              	.LBI771:
  43:../../DaisySP/Source/Utility/dsp.h **** {
 508              		.loc 18 43 14 is_stmt 1 view .LVU100
 509              	.LBB773:
  45:../../DaisySP/Source/Utility/dsp.h **** #ifdef __arm__
 510              		.loc 18 45 5 view .LVU101
  47:../../DaisySP/Source/Utility/dsp.h **** #else
 511              		.loc 18 47 5 view .LVU102
 512              		.syntax unified
 513              	@ 47 "../../DaisySP/Source/Utility/dsp.h" 1
 514 0060 C7FEC89A 		vminnm.f32 s19, s15, s16
 515              	@ 0 "" 2
 516              	.LVL26:
  51:../../DaisySP/Source/Utility/dsp.h **** }
 517              		.loc 18 51 5 view .LVU103
  51:../../DaisySP/Source/Utility/dsp.h **** }
 518              		.loc 18 51 5 is_stmt 0 view .LVU104
 519              		.thumb
 520              		.syntax unified
 521              	.LBE773:
 522              	.LBE778:
 523              	.LBE781:
 524              	.LBE785:
 525              	.LBE794:
 526              		.loc 17 61 5 is_stmt 1 view .LVU105
 527              		.loc 17 61 35 is_stmt 0 view .LVU106
 528 0064 FFF7FEFF 		bl	_ZN5daisy8patch_sm12DaisyPatchSM11GetAdcValueEi
 529              	.LVL27:
  62:PluckEcho.cpp ****     float voct    = fmap(cv_voct, 0, 60);
 530              		.loc 17 62 5 is_stmt 1 view .LVU107
 531              	.LBB795:
 532              	.LBI795:
 161:../../DaisySP/Source/Utility/dsp.h **** {
 533              		.loc 18 161 1 view .LVU108
 534              	.LBE795:
 163:../../DaisySP/Source/Utility/dsp.h ****     {
 535              		.loc 18 163 5 view .LVU109
 536              	.LBB806:
 537              	.LBB796:
 172:../../DaisySP/Source/Utility/dsp.h ****         default: return fclamp(min + in * (max - min), min, max);
 538              		.loc 18 172 9 view .LVU110
 539              		.loc 18 173 9 view .LVU111
 540              		.loc 18 173 18 view .LVU112
 541              		.loc 18 173 31 is_stmt 0 view .LVU113
 542 0068 9FED957A 		vldr.32	s14, .L36+20
 543 006c DFED956A 		vldr.32	s13, .L36+24
 544              	.LBE796:
 545              	.LBE806:
ARM GAS  /var/folders/hl/qgbwny5j0fd895c2c41bk3tw0000gp/T//cc3keNI2.s 			page 38


  63:PluckEcho.cpp **** 
  64:PluckEcho.cpp ****     /** Convert from MIDI note number to frequency */
  65:PluckEcho.cpp ****     nn = fclamp(coarse_tune + voct, 0.f, 127.f);
  66:PluckEcho.cpp ****     nn = static_cast<int32_t>(nn); // Quantize to semitones
  67:PluckEcho.cpp **** 
  68:PluckEcho.cpp ****     // Read knobs for decay;
  69:PluckEcho.cpp ****     decay = 0.5f + (hw.GetAdcValue(CV_2) * 0.5f);
 546              		.loc 17 69 35 view .LVU114
 547 0070 0121     		movs	r1, #1
 548              	.LBB807:
 549              	.LBB803:
 550              		.loc 18 173 31 view .LVU115
 551 0072 F0EE477A 		vmov.f32	s15, s14
 552              	.LBE803:
 553              	.LBE807:
 554              		.loc 17 69 35 view .LVU116
 555 0076 8D48     		ldr	r0, .L36
 556              	.LBB808:
 557              	.LBB809:
 558              	.LBB810:
  47:../../DaisySP/Source/Utility/dsp.h **** #else
 559              		.loc 18 47 5 view .LVU117
 560 0078 9FED936A 		vldr.32	s12, .L36+28
 561              	.LBE810:
 562              	.LBE809:
 563              	.LBE808:
 564              	.LBB817:
 565              	.LBB804:
 566              		.loc 18 173 31 view .LVU118
 567 007c E0EE267A 		vfma.f32	s15, s0, s13
 568              	.LVL28:
 569              	.LBB797:
 570              	.LBI797:
  56:../../DaisySP/Source/Utility/dsp.h **** {
 571              		.loc 18 56 14 is_stmt 1 view .LVU119
 572              	.LBE797:
 573              	.LBE804:
 574              	.LBE817:
  58:../../DaisySP/Source/Utility/dsp.h **** }
 575              		.loc 18 58 5 view .LVU120
 576              	.LBB818:
 577              	.LBB805:
 578              	.LBB802:
 579              	.LBB798:
 580              	.LBI798:
  32:../../DaisySP/Source/Utility/dsp.h **** {
 581              		.loc 18 32 14 view .LVU121
 582              	.LBB799:
  34:../../DaisySP/Source/Utility/dsp.h **** #ifdef __arm__
 583              		.loc 18 34 5 view .LVU122
  36:../../DaisySP/Source/Utility/dsp.h **** #else
 584              		.loc 18 36 5 view .LVU123
 585              		.syntax unified
 586              	@ 36 "../../DaisySP/Source/Utility/dsp.h" 1
 587 0080 87FE878A 		vmaxnm.f32 s16, s15, s14
 588              	@ 0 "" 2
 589              	.LVL29:
ARM GAS  /var/folders/hl/qgbwny5j0fd895c2c41bk3tw0000gp/T//cc3keNI2.s 			page 39


  40:../../DaisySP/Source/Utility/dsp.h **** }
 590              		.loc 18 40 5 view .LVU124
  40:../../DaisySP/Source/Utility/dsp.h **** }
 591              		.loc 18 40 5 is_stmt 0 view .LVU125
 592              		.thumb
 593              		.syntax unified
 594              	.LBE799:
 595              	.LBE798:
 596              	.LBB800:
 597              	.LBI800:
  43:../../DaisySP/Source/Utility/dsp.h **** {
 598              		.loc 18 43 14 is_stmt 1 view .LVU126
 599              	.LBB801:
  45:../../DaisySP/Source/Utility/dsp.h **** #ifdef __arm__
 600              		.loc 18 45 5 view .LVU127
  47:../../DaisySP/Source/Utility/dsp.h **** #else
 601              		.loc 18 47 5 view .LVU128
 602              		.syntax unified
 603              	@ 47 "../../DaisySP/Source/Utility/dsp.h" 1
 604 0084 88FE668A 		vminnm.f32 s16, s16, s13
 605              	@ 0 "" 2
 606              	.LVL30:
  51:../../DaisySP/Source/Utility/dsp.h **** }
 607              		.loc 18 51 5 view .LVU129
  51:../../DaisySP/Source/Utility/dsp.h **** }
 608              		.loc 18 51 5 is_stmt 0 view .LVU130
 609              		.thumb
 610              		.syntax unified
 611              	.LBE801:
 612              	.LBE800:
 613              	.LBE802:
 614              	.LBE805:
 615              	.LBE818:
  65:PluckEcho.cpp ****     nn = static_cast<int32_t>(nn); // Quantize to semitones
 616              		.loc 17 65 5 is_stmt 1 view .LVU131
 617              	.LBB819:
 618              	.LBI808:
  56:../../DaisySP/Source/Utility/dsp.h **** {
 619              		.loc 18 56 14 view .LVU132
 620              	.LBE819:
  58:../../DaisySP/Source/Utility/dsp.h **** }
 621              		.loc 18 58 5 view .LVU133
 622              	.LBB820:
 623              	.LBB812:
 624              	.LBI812:
  32:../../DaisySP/Source/Utility/dsp.h **** {
 625              		.loc 18 32 14 view .LVU134
 626              	.LBB813:
  34:../../DaisySP/Source/Utility/dsp.h **** #ifdef __arm__
 627              		.loc 18 34 5 view .LVU135
  36:../../DaisySP/Source/Utility/dsp.h **** #else
 628              		.loc 18 36 5 view .LVU136
 629              	.LBE813:
 630              	.LBE812:
 631              	.LBE820:
  65:PluckEcho.cpp ****     nn = static_cast<int32_t>(nn); // Quantize to semitones
 632              		.loc 17 65 16 is_stmt 0 view .LVU137
ARM GAS  /var/folders/hl/qgbwny5j0fd895c2c41bk3tw0000gp/T//cc3keNI2.s 			page 40


 633 0088 38EE298A 		vadd.f32	s16, s16, s19
 634              	.LVL31:
 635              	.LBB821:
 636              	.LBB815:
 637              	.LBB814:
  36:../../DaisySP/Source/Utility/dsp.h **** #else
 638              		.loc 18 36 5 view .LVU138
 639              		.syntax unified
 640              	@ 36 "../../DaisySP/Source/Utility/dsp.h" 1
 641 008c 88FE078A 		vmaxnm.f32 s16, s16, s14
 642              	@ 0 "" 2
 643              	.LVL32:
  40:../../DaisySP/Source/Utility/dsp.h **** }
 644              		.loc 18 40 5 is_stmt 1 view .LVU139
  40:../../DaisySP/Source/Utility/dsp.h **** }
 645              		.loc 18 40 5 is_stmt 0 view .LVU140
 646              		.thumb
 647              		.syntax unified
 648              	.LBE814:
 649              	.LBE815:
 650              	.LBB816:
 651              	.LBI809:
  43:../../DaisySP/Source/Utility/dsp.h **** {
 652              		.loc 18 43 14 is_stmt 1 view .LVU141
 653              	.LBB811:
  45:../../DaisySP/Source/Utility/dsp.h **** #ifdef __arm__
 654              		.loc 18 45 5 view .LVU142
  47:../../DaisySP/Source/Utility/dsp.h **** #else
 655              		.loc 18 47 5 view .LVU143
 656              		.syntax unified
 657              	@ 47 "../../DaisySP/Source/Utility/dsp.h" 1
 658 0090 88FE468A 		vminnm.f32 s16, s16, s12
 659              	@ 0 "" 2
 660              	.LVL33:
  51:../../DaisySP/Source/Utility/dsp.h **** }
 661              		.loc 18 51 5 view .LVU144
  51:../../DaisySP/Source/Utility/dsp.h **** }
 662              		.loc 18 51 5 is_stmt 0 view .LVU145
 663              		.thumb
 664              		.syntax unified
 665              	.LBE811:
 666              	.LBE816:
 667              	.LBE821:
  66:PluckEcho.cpp **** 
 668              		.loc 17 66 5 is_stmt 1 view .LVU146
 669              		.loc 17 69 35 is_stmt 0 view .LVU147
 670 0094 FFF7FEFF 		bl	_ZN5daisy8patch_sm12DaisyPatchSM11GetAdcValueEi
 671              	.LVL34:
 672              		.loc 17 69 11 view .LVU148
 673 0098 F6EE007A 		vmov.f32	s15, #5.0e-1
 674              	.LBB822:
 675              	.LBB792:
 676              		.loc 13 78 38 view .LVU149
 677 009c 04F28C63 		addw	r3, r4, #1676
 678              	.LBE792:
 679              	.LBE822:
  70:PluckEcho.cpp ****     synth.SetDecay(decay);
ARM GAS  /var/folders/hl/qgbwny5j0fd895c2c41bk3tw0000gp/T//cc3keNI2.s 			page 41


  71:PluckEcho.cpp **** 
  72:PluckEcho.cpp ****     // Get Delay Parameters from knobs.
  73:PluckEcho.cpp ****     kval    = hw.GetAdcValue(CV_3);
 680              		.loc 17 73 29 view .LVU150
 681 00a0 0221     		movs	r1, #2
 682 00a2 8248     		ldr	r0, .L36
  66:PluckEcho.cpp **** 
 683              		.loc 17 66 10 view .LVU151
 684 00a4 BDEEC88A 		vcvt.s32.f32	s16, s16
 685              	.LVL35:
  69:PluckEcho.cpp ****     synth.SetDecay(decay);
 686              		.loc 17 69 11 view .LVU152
 687 00a8 E0EE277A 		vfma.f32	s15, s0, s15
  66:PluckEcho.cpp **** 
 688              		.loc 17 66 8 view .LVU153
 689 00ac B8EEC88A 		vcvt.f32.s32	s16, s16
 690              	.LVL36:
  69:PluckEcho.cpp ****     synth.SetDecay(decay);
 691              		.loc 17 69 5 is_stmt 1 view .LVU154
  70:PluckEcho.cpp ****     synth.SetDecay(decay);
 692              		.loc 17 70 5 view .LVU155
 693              	.LBB823:
 694              	.LBI790:
 695              		.loc 13 78 10 view .LVU156
 696              	.LBB793:
 697              		.loc 13 78 38 is_stmt 0 view .LVU157
 698 00b0 C3ED007A 		vstr.32	s15, [r3]
 699              	.LVL37:
 700              		.loc 13 78 38 view .LVU158
 701              	.LBE793:
 702              	.LBE823:
 703              		.loc 17 73 5 is_stmt 1 view .LVU159
 704              		.loc 17 73 29 is_stmt 0 view .LVU160
 705 00b4 FFF7FEFF 		bl	_ZN5daisy8patch_sm12DaisyPatchSM11GetAdcValueEi
 706              	.LVL38:
  74:PluckEcho.cpp ****     deltime = (0.001f + (kval * kval) * 5.0f) * samplerate;
 707              		.loc 17 74 5 is_stmt 1 view .LVU161
 708              		.loc 17 74 23 is_stmt 0 view .LVU162
 709 00b8 F1EE046A 		vmov.f32	s13, #5.0e+0
 710 00bc 9FED837A 		vldr.32	s14, .L36+32
 711              		.loc 17 74 31 view .LVU163
 712 00c0 60EE007A 		vmul.f32	s15, s0, s0
  75:PluckEcho.cpp ****     delfb   = hw.GetAdcValue(CV_4);
 713              		.loc 17 75 29 view .LVU164
 714 00c4 0321     		movs	r1, #3
 715 00c6 7948     		ldr	r0, .L36
  74:PluckEcho.cpp ****     deltime = (0.001f + (kval * kval) * 5.0f) * samplerate;
 716              		.loc 17 74 23 view .LVU165
 717 00c8 A7EEA67A 		vfma.f32	s14, s15, s13
  74:PluckEcho.cpp ****     deltime = (0.001f + (kval * kval) * 5.0f) * samplerate;
 718              		.loc 17 74 13 view .LVU166
 719 00cc 27EE099A 		vmul.f32	s18, s14, s18
 720              	.LVL39:
 721              		.loc 17 75 5 is_stmt 1 view .LVU167
 722              		.loc 17 75 29 is_stmt 0 view .LVU168
 723 00d0 FFF7FEFF 		bl	_ZN5daisy8patch_sm12DaisyPatchSM11GetAdcValueEi
 724              	.LVL40:
ARM GAS  /var/folders/hl/qgbwny5j0fd895c2c41bk3tw0000gp/T//cc3keNI2.s 			page 42


 725              	.LBB824:
  76:PluckEcho.cpp **** 
  77:PluckEcho.cpp ****     // Synthesis.
  78:PluckEcho.cpp ****     for(size_t i = 0; i < size; i++)
 726              		.loc 17 78 25 view .LVU169
 727 00d4 039B     		ldr	r3, [sp, #12]
 728              	.LBE824:
  75:PluckEcho.cpp ****     delfb   = hw.GetAdcValue(CV_4);
 729              		.loc 17 75 29 view .LVU170
 730 00d6 F0EE409A 		vmov.f32	s19, s0
 731              	.LVL41:
 732              		.loc 17 78 5 is_stmt 1 view .LVU171
 733              	.LBB924:
 734              		.loc 17 78 25 view .LVU172
 735 00da 002B     		cmp	r3, #0
 736 00dc 00F0D580 		beq	.L11
 737              	.LBB825:
 738              	.LBB826:
 739              	.LBB827:
 740              	.LBB828:
 125:../../DaisySP/Source/Utility/dsp.h **** }
 741              		.loc 18 125 23 is_stmt 0 view .LVU173
 742 00e0 DFED7B7A 		vldr.32	s15, .L36+36
 743              	.LBE828:
 744              	.LBE827:
 745              	.LBE826:
 746              	.LBE825:
 747              		.loc 17 78 16 view .LVU174
 748 00e4 0026     		movs	r6, #0
 749 00e6 DFF81082 		ldr	r8, .L36+76
 750 00ea A4F50049 		sub	r9, r4, #32768
 751              	.LBB863:
 752              	.LBB858:
 753              	.LBB834:
 754              	.LBB829:
 125:../../DaisySP/Source/Utility/dsp.h **** }
 755              		.loc 18 125 23 view .LVU175
 756 00ee 38EE678A 		vsub.f32	s16, s16, s15
 757              	.LVL42:
 125:../../DaisySP/Source/Utility/dsp.h **** }
 758              		.loc 18 125 23 view .LVU176
 759 00f2 784D     		ldr	r5, .L36+40
 125:../../DaisySP/Source/Utility/dsp.h **** }
 760              		.loc 18 125 16 view .LVU177
 761 00f4 88EE2AAA 		vdiv.f32	s20, s16, s21
 762              	.LVL43:
 763              	.L24:
 125:../../DaisySP/Source/Utility/dsp.h **** }
 764              		.loc 18 125 16 view .LVU178
 765              	.LBE829:
 766              	.LBE834:
 767              	.LBE858:
 768              	.LBE863:
  79:PluckEcho.cpp ****     {
  80:PluckEcho.cpp ****         // Smooth delaytime, and set.
  81:PluckEcho.cpp ****         fonepole(smooth_time, deltime, 0.0005f);
 769              		.loc 17 81 9 is_stmt 1 view .LVU179
ARM GAS  /var/folders/hl/qgbwny5j0fd895c2c41bk3tw0000gp/T//cc3keNI2.s 			page 43


 770              	.LBB864:
 771              	.LBI864:
 135:../../DaisySP/Source/Utility/dsp.h **** {
 772              		.loc 18 135 13 view .LVU180
 773              	.LBB865:
 137:../../DaisySP/Source/Utility/dsp.h **** }
 774              		.loc 18 137 5 view .LVU181
 137:../../DaisySP/Source/Utility/dsp.h **** }
 775              		.loc 18 137 9 is_stmt 0 view .LVU182
 776 00f8 D8ED007A 		vldr.32	s15, [r8]
 777 00fc 9FED767A 		vldr.32	s14, .L36+44
 778              	.LBE865:
 779              	.LBE864:
 780              	.LBB869:
 781              	.LBB870:
  25:../../DaisySP/Source/Utility/delayline.h ****     /** initializes the delay line by clearing the values within, and setting delay to 1 sample.
  26:../../DaisySP/Source/Utility/delayline.h ****     */
  27:../../DaisySP/Source/Utility/delayline.h ****     void Init() { Reset(); }
  28:../../DaisySP/Source/Utility/delayline.h ****     /** clears buffer, sets write ptr to 0, and delay to 1 sample.
  29:../../DaisySP/Source/Utility/delayline.h ****     */
  30:../../DaisySP/Source/Utility/delayline.h ****     void Reset()
  31:../../DaisySP/Source/Utility/delayline.h ****     {
  32:../../DaisySP/Source/Utility/delayline.h ****         for(size_t i = 0; i < max_size; i++)
  33:../../DaisySP/Source/Utility/delayline.h ****         {
  34:../../DaisySP/Source/Utility/delayline.h ****             line_[i] = T(0);
  35:../../DaisySP/Source/Utility/delayline.h ****         }
  36:../../DaisySP/Source/Utility/delayline.h ****         write_ptr_ = 0;
  37:../../DaisySP/Source/Utility/delayline.h ****         delay_     = 1;
  38:../../DaisySP/Source/Utility/delayline.h ****     }
  39:../../DaisySP/Source/Utility/delayline.h **** 
  40:../../DaisySP/Source/Utility/delayline.h ****     /** sets the delay time in samples
  41:../../DaisySP/Source/Utility/delayline.h ****         If a float is passed in, a fractional component will be calculated for interpolating the de
  42:../../DaisySP/Source/Utility/delayline.h ****     */
  43:../../DaisySP/Source/Utility/delayline.h ****     inline void SetDelay(size_t delay)
  44:../../DaisySP/Source/Utility/delayline.h ****     {
  45:../../DaisySP/Source/Utility/delayline.h ****         frac_  = 0.0f;
  46:../../DaisySP/Source/Utility/delayline.h ****         delay_ = delay < max_size ? delay : max_size - 1;
  47:../../DaisySP/Source/Utility/delayline.h ****     }
  48:../../DaisySP/Source/Utility/delayline.h **** 
  49:../../DaisySP/Source/Utility/delayline.h ****     /** sets the delay time in samples
  50:../../DaisySP/Source/Utility/delayline.h ****         If a float is passed in, a fractional component will be calculated for interpolating the de
  51:../../DaisySP/Source/Utility/delayline.h ****     */
  52:../../DaisySP/Source/Utility/delayline.h ****     inline void SetDelay(float delay)
  53:../../DaisySP/Source/Utility/delayline.h ****     {
  54:../../DaisySP/Source/Utility/delayline.h ****         int32_t int_delay = static_cast<int32_t>(delay);
  55:../../DaisySP/Source/Utility/delayline.h ****         frac_             = delay - static_cast<float>(int_delay);
  56:../../DaisySP/Source/Utility/delayline.h ****         delay_ = static_cast<size_t>(int_delay) < max_size ? int_delay
 782              		.loc 16 56 60 view .LVU183
 783 0100 764B     		ldr	r3, .L36+48
 784              	.LBE870:
 785              	.LBE869:
 786              	.LBB875:
 787              	.LBB866:
 137:../../DaisySP/Source/Utility/dsp.h **** }
 788              		.loc 18 137 24 view .LVU184
 789 0102 79EE676A 		vsub.f32	s13, s18, s15
 790              	.LBE866:
ARM GAS  /var/folders/hl/qgbwny5j0fd895c2c41bk3tw0000gp/T//cc3keNI2.s 			page 44


 791              	.LBE875:
 792              	.LBB876:
 793              	.LBB859:
  54:../../DaisySP/Source/PhysicalModeling/PolyPluck.h ****         {
 794              		.loc 13 54 9 view .LVU185
 795 0106 F5EEC08A 		vcmpe.f32	s17, #0
 796              	.LBE859:
 797              	.LBE876:
 798              	.LBB877:
 799              	.LBB867:
 137:../../DaisySP/Source/Utility/dsp.h **** }
 800              		.loc 18 137 9 view .LVU186
 801 010a E6EE877A 		vfma.f32	s15, s13, s14
 802              	.LBE867:
 803              	.LBE877:
 804              	.LBB878:
 805              	.LBB871:
  54:../../DaisySP/Source/Utility/delayline.h ****         frac_             = delay - static_cast<float>(int_delay);
 806              		.loc 16 54 17 view .LVU187
 807 010e BDEEE77A 		vcvt.s32.f32	s14, s15
 808              	.LBE871:
 809              	.LBE878:
 810              	.LBB879:
 811              	.LBB868:
 137:../../DaisySP/Source/Utility/dsp.h **** }
 812              		.loc 18 137 9 view .LVU188
 813 0112 C8ED007A 		vstr.32	s15, [r8]
 814              	.LVL44:
 137:../../DaisySP/Source/Utility/dsp.h **** }
 815              		.loc 18 137 9 view .LVU189
 816              	.LBE868:
 817              	.LBE879:
  82:PluckEcho.cpp ****         delay.SetDelay(smooth_time);
 818              		.loc 17 82 9 is_stmt 1 view .LVU190
 819              	.LBB880:
 820              	.LBI869:
  52:../../DaisySP/Source/Utility/delayline.h ****     {
 821              		.loc 16 52 17 view .LVU191
 822              	.LBB872:
 823              		.loc 16 56 60 is_stmt 0 view .LVU192
 824 0116 17EE102A 		vmov	r2, s14	@ int
  55:../../DaisySP/Source/Utility/delayline.h ****         delay_ = static_cast<size_t>(int_delay) < max_size ? int_delay
 825              		.loc 16 55 37 view .LVU193
 826 011a F8EEC76A 		vcvt.f32.s32	s13, s14
 827              		.loc 16 56 60 view .LVU194
 828 011e 9A42     		cmp	r2, r3
  55:../../DaisySP/Source/Utility/delayline.h ****         delay_ = static_cast<size_t>(int_delay) < max_size ? int_delay
 829              		.loc 16 55 35 view .LVU195
 830 0120 77EEE67A 		vsub.f32	s15, s15, s13
 831              	.LVL45:
 832              		.loc 16 56 60 view .LVU196
 833 0124 28BF     		it	cs
 834 0126 1A46     		movcs	r2, r3
 835              	.LBE872:
 836              	.LBE880:
 837              	.LBB881:
 838              	.LBB860:
ARM GAS  /var/folders/hl/qgbwny5j0fd895c2c41bk3tw0000gp/T//cc3keNI2.s 			page 45


  54:../../DaisySP/Source/PhysicalModeling/PolyPluck.h ****         {
 839              		.loc 13 54 9 view .LVU197
 840 0128 F1EE10FA 		vmrs	APSR_nzcv, FPSCR
 841              	.LBE860:
 842              	.LBE881:
 843              	.LBB882:
 844              	.LBB873:
 845              		.loc 16 56 16 view .LVU198
 846 012c AA60     		str	r2, [r5, #8]
 847              	.LVL46:
 848              		.loc 16 56 16 view .LVU199
 849              	.LBE873:
 850              	.LBE882:
  83:PluckEcho.cpp **** 
  84:PluckEcho.cpp ****         // Synthesize Plucks
  85:PluckEcho.cpp ****         sig = synth.Process(trig, nn);
 851              		.loc 17 85 9 is_stmt 1 view .LVU200
 852              	.LBB883:
 853              	.LBI825:
  50:../../DaisySP/Source/PhysicalModeling/PolyPluck.h ****     {
 854              		.loc 13 50 11 view .LVU201
  50:../../DaisySP/Source/PhysicalModeling/PolyPluck.h ****     {
 855              		.loc 13 50 11 is_stmt 0 view .LVU202
 856              	.LBE883:
 857              	.LBB884:
 858              	.LBB874:
  55:../../DaisySP/Source/Utility/delayline.h ****         delay_ = static_cast<size_t>(int_delay) < max_size ? int_delay
 859              		.loc 16 55 27 view .LVU203
 860 012e C5ED007A 		vstr.32	s15, [r5]
 861              	.LBE874:
 862              	.LBE884:
 863              	.LBB885:
 864              	.LBB861:
  54:../../DaisySP/Source/PhysicalModeling/PolyPluck.h ****         {
 865              		.loc 13 54 9 view .LVU204
 866 0132 40F3B880 		ble	.L35
  57:../../DaisySP/Source/PhysicalModeling/PolyPluck.h ****             // set new voice to new note
 867              		.loc 13 57 44 view .LVU205
 868 0136 D4F89436 		ldr	r3, [r4, #1684]
  59:../../DaisySP/Source/PhysicalModeling/PolyPluck.h ****             plk_[active_voice_].SetDecay(p_decay_);
 869              		.loc 13 59 40 view .LVU206
 870 013a 04F28C62 		addw	r2, r4, #1676
  57:../../DaisySP/Source/PhysicalModeling/PolyPluck.h ****             // set new voice to new note
 871              		.loc 13 57 44 view .LVU207
 872 013e 0133     		adds	r3, r3, #1
 873              	.LBB835:
 874              	.LBB836:
 875              		.file 19 "../../DaisySP/Source/PhysicalModeling/pluck.h"
   1:../../DaisySP/Source/PhysicalModeling/pluck.h **** 
   2:../../DaisySP/Source/PhysicalModeling/pluck.h **** #pragma once
   3:../../DaisySP/Source/PhysicalModeling/pluck.h **** #ifndef DSY_PLUCK_H
   4:../../DaisySP/Source/PhysicalModeling/pluck.h **** #define DSY_PLUCK_H
   5:../../DaisySP/Source/PhysicalModeling/pluck.h **** 
   6:../../DaisySP/Source/PhysicalModeling/pluck.h **** #include <stdint.h>
   7:../../DaisySP/Source/PhysicalModeling/pluck.h **** #ifdef __cplusplus
   8:../../DaisySP/Source/PhysicalModeling/pluck.h **** 
   9:../../DaisySP/Source/PhysicalModeling/pluck.h **** namespace daisysp
ARM GAS  /var/folders/hl/qgbwny5j0fd895c2c41bk3tw0000gp/T//cc3keNI2.s 			page 46


  10:../../DaisySP/Source/PhysicalModeling/pluck.h **** {
  11:../../DaisySP/Source/PhysicalModeling/pluck.h **** /** The method of natural decay that the algorithm will use.
  12:../../DaisySP/Source/PhysicalModeling/pluck.h ****     - RECURSIVE: 1st order recursive filter, with coefs .5.
  13:../../DaisySP/Source/PhysicalModeling/pluck.h ****     - WEIGHTED_AVERAGE: weighted averaging. 
  14:../../DaisySP/Source/PhysicalModeling/pluck.h ****     */
  15:../../DaisySP/Source/PhysicalModeling/pluck.h **** enum
  16:../../DaisySP/Source/PhysicalModeling/pluck.h **** {
  17:../../DaisySP/Source/PhysicalModeling/pluck.h ****     PLUCK_MODE_RECURSIVE,
  18:../../DaisySP/Source/PhysicalModeling/pluck.h ****     PLUCK_MODE_WEIGHTED_AVERAGE,
  19:../../DaisySP/Source/PhysicalModeling/pluck.h ****     PLUCK_LAST,
  20:../../DaisySP/Source/PhysicalModeling/pluck.h **** };
  21:../../DaisySP/Source/PhysicalModeling/pluck.h **** 
  22:../../DaisySP/Source/PhysicalModeling/pluck.h **** /** Produces a naturally decaying plucked string or drum sound based on the Karplus-Strong algorith
  23:../../DaisySP/Source/PhysicalModeling/pluck.h **** 
  24:../../DaisySP/Source/PhysicalModeling/pluck.h ****     Ported from soundpipe to DaisySP
  25:../../DaisySP/Source/PhysicalModeling/pluck.h ****     
  26:../../DaisySP/Source/PhysicalModeling/pluck.h ****     This code was originally extracted from the Csound opcode "pluck"
  27:../../DaisySP/Source/PhysicalModeling/pluck.h **** 
  28:../../DaisySP/Source/PhysicalModeling/pluck.h ****     Original Author(s): Barry Vercoe, John ffitch
  29:../../DaisySP/Source/PhysicalModeling/pluck.h ****     Year: 1991
  30:../../DaisySP/Source/PhysicalModeling/pluck.h **** 
  31:../../DaisySP/Source/PhysicalModeling/pluck.h ****     Location: OOps/ugens4.c
  32:../../DaisySP/Source/PhysicalModeling/pluck.h ****     */
  33:../../DaisySP/Source/PhysicalModeling/pluck.h **** class Pluck
  34:../../DaisySP/Source/PhysicalModeling/pluck.h **** {
  35:../../DaisySP/Source/PhysicalModeling/pluck.h ****   public:
  36:../../DaisySP/Source/PhysicalModeling/pluck.h ****     Pluck() {}
  37:../../DaisySP/Source/PhysicalModeling/pluck.h ****     ~Pluck() {}
  38:../../DaisySP/Source/PhysicalModeling/pluck.h ****     /** Initializes the Pluck module.
  39:../../DaisySP/Source/PhysicalModeling/pluck.h **** 
  40:../../DaisySP/Source/PhysicalModeling/pluck.h ****             \param sample_rate: Sample rate of the audio engine being run.
  41:../../DaisySP/Source/PhysicalModeling/pluck.h ****             \param buf: buffer used as an impulse when triggering the Pluck algorithm
  42:../../DaisySP/Source/PhysicalModeling/pluck.h ****             \param npt: number of elementes in buf.
  43:../../DaisySP/Source/PhysicalModeling/pluck.h ****             \param mode: Sets the mode of the algorithm.
  44:../../DaisySP/Source/PhysicalModeling/pluck.h ****     */
  45:../../DaisySP/Source/PhysicalModeling/pluck.h ****     void Init(float sample_rate, float *buf, int32_t npt, int32_t mode);
  46:../../DaisySP/Source/PhysicalModeling/pluck.h **** 
  47:../../DaisySP/Source/PhysicalModeling/pluck.h **** 
  48:../../DaisySP/Source/PhysicalModeling/pluck.h ****     /** Processes the waveform to be generated, returning one sample. This should be called once pe
  49:../../DaisySP/Source/PhysicalModeling/pluck.h ****     */
  50:../../DaisySP/Source/PhysicalModeling/pluck.h ****     float Process(float &trig);
  51:../../DaisySP/Source/PhysicalModeling/pluck.h **** 
  52:../../DaisySP/Source/PhysicalModeling/pluck.h ****     /** 
  53:../../DaisySP/Source/PhysicalModeling/pluck.h ****         Sets the amplitude of the output signal.
  54:../../DaisySP/Source/PhysicalModeling/pluck.h ****         Input range: 0-1?
  55:../../DaisySP/Source/PhysicalModeling/pluck.h ****     */
  56:../../DaisySP/Source/PhysicalModeling/pluck.h ****     inline void SetAmp(float amp) { amp_ = amp; }
  57:../../DaisySP/Source/PhysicalModeling/pluck.h ****     /** Sets the frequency of the output signal in Hz.
  58:../../DaisySP/Source/PhysicalModeling/pluck.h ****         Input range: Any positive value
  59:../../DaisySP/Source/PhysicalModeling/pluck.h ****     */
  60:../../DaisySP/Source/PhysicalModeling/pluck.h ****     inline void SetFreq(float freq) { freq_ = freq; }
  61:../../DaisySP/Source/PhysicalModeling/pluck.h ****     /** Sets the time it takes for a triggered note to end in seconds.
  62:../../DaisySP/Source/PhysicalModeling/pluck.h ****         Input range: 0-1
  63:../../DaisySP/Source/PhysicalModeling/pluck.h ****     */
  64:../../DaisySP/Source/PhysicalModeling/pluck.h ****     inline void SetDecay(float decay) { decay_ = decay; }
  65:../../DaisySP/Source/PhysicalModeling/pluck.h ****     /** Sets the dampening factor applied by the filter (based on PLUCK_MODE)
  66:../../DaisySP/Source/PhysicalModeling/pluck.h ****         Input range: 0-1
ARM GAS  /var/folders/hl/qgbwny5j0fd895c2c41bk3tw0000gp/T//cc3keNI2.s 			page 47


  67:../../DaisySP/Source/PhysicalModeling/pluck.h ****     */
  68:../../DaisySP/Source/PhysicalModeling/pluck.h ****     inline void SetDamp(float damp) { damp_ = damp; }
 876              		.loc 19 68 45 view .LVU208
 877 0140 1268     		ldr	r2, [r2]	@ float
 878              	.LBE836:
 879              	.LBE835:
  57:../../DaisySP/Source/PhysicalModeling/PolyPluck.h ****             // set new voice to new note
 880              		.loc 13 57 49 view .LVU209
 881 0142 03F01F0A 		and	r10, r3, #31
 882              	.LBB839:
 883              	.LBB837:
 884              		.loc 19 68 45 view .LVU210
 885 0146 3423     		movs	r3, #52
 886 0148 03FB0A93 		mla	r3, r3, r10, r9
 887              	.LBE837:
 888              	.LBE839:
  57:../../DaisySP/Source/PhysicalModeling/PolyPluck.h ****             // set new voice to new note
 889              		.loc 13 57 27 view .LVU211
 890 014c C4F894A6 		str	r10, [r4, #1684]
 891              	.LVL47:
 892              	.LBB840:
 893              	.LBI835:
 894              		.loc 19 68 17 is_stmt 1 view .LVU212
 895              	.LBB838:
 896              		.loc 19 68 39 view .LVU213
 897              		.loc 19 68 45 is_stmt 0 view .LVU214
 898 0150 9A61     		str	r2, [r3, #24]	@ float
 899              	.LVL48:
 900              		.loc 19 68 45 view .LVU215
 901              	.LBE838:
 902              	.LBE840:
 903              	.LBB841:
 904              	.LBI841:
  64:../../DaisySP/Source/PhysicalModeling/pluck.h ****     /** Sets the dampening factor applied by the filter (based on PLUCK_MODE)
 905              		.loc 19 64 17 is_stmt 1 view .LVU216
 906              	.LBB842:
  64:../../DaisySP/Source/PhysicalModeling/pluck.h ****     /** Sets the dampening factor applied by the filter (based on PLUCK_MODE)
 907              		.loc 19 64 41 view .LVU217
 908              	.LBE842:
 909              	.LBE841:
  60:../../DaisySP/Source/PhysicalModeling/PolyPluck.h ****             plk_[active_voice_].SetAmp(0.25f);
 910              		.loc 13 60 41 is_stmt 0 view .LVU218
 911 0152 04F5D262 		add	r2, r4, #1680
 912              	.LBB844:
 913              	.LBB843:
  64:../../DaisySP/Source/PhysicalModeling/pluck.h ****     /** Sets the dampening factor applied by the filter (based on PLUCK_MODE)
 914              		.loc 19 64 48 view .LVU219
 915 0156 1268     		ldr	r2, [r2]	@ float
 916 0158 5A61     		str	r2, [r3, #20]	@ float
 917              	.LVL49:
  64:../../DaisySP/Source/PhysicalModeling/pluck.h ****     /** Sets the dampening factor applied by the filter (based on PLUCK_MODE)
 918              		.loc 19 64 48 view .LVU220
 919              	.LBE843:
 920              	.LBE844:
 921              	.LBB845:
 922              	.LBI845:
  56:../../DaisySP/Source/PhysicalModeling/pluck.h ****     /** Sets the frequency of the output signal in Hz.
ARM GAS  /var/folders/hl/qgbwny5j0fd895c2c41bk3tw0000gp/T//cc3keNI2.s 			page 48


 923              		.loc 19 56 17 is_stmt 1 view .LVU221
 924              	.LBB846:
  56:../../DaisySP/Source/PhysicalModeling/pluck.h ****     /** Sets the frequency of the output signal in Hz.
 925              		.loc 19 56 37 view .LVU222
  56:../../DaisySP/Source/PhysicalModeling/pluck.h ****     /** Sets the frequency of the output signal in Hz.
 926              		.loc 19 56 42 is_stmt 0 view .LVU223
 927 015a 4FF07A52 		mov	r2, #1048576000
 928 015e DA60     		str	r2, [r3, #12]	@ float
 929              	.LVL50:
 930              	.L17:
  56:../../DaisySP/Source/PhysicalModeling/pluck.h ****     /** Sets the frequency of the output signal in Hz.
 931              		.loc 19 56 42 view .LVU224
 932              	.LBE846:
 933              	.LBE845:
 934              	.LBB847:
 935              	.LBI827:
 123:../../DaisySP/Source/Utility/dsp.h **** {
 936              		.loc 18 123 14 is_stmt 1 view .LVU225
 937              	.LBB830:
 125:../../DaisySP/Source/Utility/dsp.h **** }
 938              		.loc 18 125 5 view .LVU226
 125:../../DaisySP/Source/Utility/dsp.h **** }
 939              		.loc 18 125 16 is_stmt 0 view .LVU227
 940 0160 B0EE000A 		vmov.f32	s0, #2.0e+0
 941              	.LBE830:
 942              	.LBE847:
  53:../../DaisySP/Source/PhysicalModeling/PolyPluck.h ****         if(trig > 0.0f)
 943              		.loc 13 53 13 view .LVU228
 944 0164 9FED568A 		vldr.32	s16, .L36+20
 945              	.LBB848:
 946              	.LBB831:
 125:../../DaisySP/Source/Utility/dsp.h **** }
 947              		.loc 18 125 16 view .LVU229
 948 0168 F0EE4A0A 		vmov.f32	s1, s20
 949 016c DFF88CB1 		ldr	fp, .L36+80
 950 0170 FFF7FEFF 		bl	powf
 951              	.LVL51:
 125:../../DaisySP/Source/Utility/dsp.h **** }
 952              		.loc 18 125 16 view .LVU230
 953              	.LBE831:
 954              	.LBE848:
 955              	.LBB849:
 956              	.LBI849:
  60:../../DaisySP/Source/PhysicalModeling/pluck.h ****     /** Sets the time it takes for a triggered note to end in seconds.
 957              		.loc 19 60 17 is_stmt 1 view .LVU231
 958              	.LBB850:
  60:../../DaisySP/Source/PhysicalModeling/pluck.h ****     /** Sets the time it takes for a triggered note to end in seconds.
 959              		.loc 19 60 39 view .LVU232
 960              	.LBE850:
 961              	.LBE849:
 962              	.LBB853:
 963              	.LBB832:
 125:../../DaisySP/Source/Utility/dsp.h **** }
 964              		.loc 18 125 43 is_stmt 0 view .LVU233
 965 0174 DFED5A7A 		vldr.32	s15, .L36+52
 966              	.LBE832:
 967              	.LBE853:
ARM GAS  /var/folders/hl/qgbwny5j0fd895c2c41bk3tw0000gp/T//cc3keNI2.s 			page 49


 968              	.LBB854:
 969              	.LBB851:
  60:../../DaisySP/Source/PhysicalModeling/pluck.h ****     /** Sets the time it takes for a triggered note to end in seconds.
 970              		.loc 19 60 45 view .LVU234
 971 0178 3423     		movs	r3, #52
 972              	.LBE851:
 973              	.LBE854:
 974              	.LBB855:
 975              	.LBB833:
 125:../../DaisySP/Source/Utility/dsp.h **** }
 976              		.loc 18 125 43 view .LVU235
 977 017a 20EE270A 		vmul.f32	s0, s0, s15
 978              	.LVL52:
 125:../../DaisySP/Source/Utility/dsp.h **** }
 979              		.loc 18 125 43 view .LVU236
 980              	.LBE833:
 981              	.LBE855:
 982              	.LBB856:
 983              	.LBB852:
  60:../../DaisySP/Source/PhysicalModeling/pluck.h ****     /** Sets the time it takes for a triggered note to end in seconds.
 984              		.loc 19 60 45 view .LVU237
 985 017e 03FB0A9A 		mla	r10, r3, r10, r9
 986 0182 8AED040A 		vstr.32	s0, [r10, #16]
 987              	.LVL53:
  60:../../DaisySP/Source/PhysicalModeling/pluck.h ****     /** Sets the time it takes for a triggered note to end in seconds.
 988              		.loc 19 60 45 view .LVU238
 989              	.LBE852:
 990              	.LBE856:
 991              	.LBB857:
  65:../../DaisySP/Source/PhysicalModeling/PolyPluck.h ****         {
 992              		.loc 13 65 29 is_stmt 1 view .LVU239
  65:../../DaisySP/Source/PhysicalModeling/PolyPluck.h ****         {
 993              		.loc 13 65 20 is_stmt 0 view .LVU240
 994 0186 4FF0000A 		mov	r10, #0
 995              	.LVL54:
 996              	.L20:
  67:../../DaisySP/Source/PhysicalModeling/PolyPluck.h ****             sig += plk_[i].Process(tval);
 997              		.loc 13 67 56 view .LVU241
 998 018a F5EEC08A 		vcmpe.f32	s17, #0
 999 018e 9FED4C7A 		vldr.32	s14, .L36+20
 1000 0192 F7EE006A 		vmov.f32	s13, #1.0e+0
 1001 0196 F0EE477A 		vmov.f32	s15, s14
 1002 019a F1EE10FA 		vmrs	APSR_nzcv, FPSCR
 1003 019e 04DD     		ble	.L18
  67:../../DaisySP/Source/PhysicalModeling/PolyPluck.h ****             sig += plk_[i].Process(tval);
 1004              		.loc 13 67 33 view .LVU242
 1005 01a0 D4F89436 		ldr	r3, [r4, #1684]
  67:../../DaisySP/Source/PhysicalModeling/PolyPluck.h ****             sig += plk_[i].Process(tval);
 1006              		.loc 13 67 56 view .LVU243
 1007 01a4 9A45     		cmp	r10, r3
 1008 01a6 46FE877A 		vseleq.f32	s15, s13, s14
 1009              	.L18:
  65:../../DaisySP/Source/PhysicalModeling/PolyPluck.h ****         {
 1010              		.loc 13 65 9 view .LVU244
 1011 01aa 0AF1010A 		add	r10, r10, #1
 1012              	.LVL55:
  68:../../DaisySP/Source/PhysicalModeling/PolyPluck.h ****         }
ARM GAS  /var/folders/hl/qgbwny5j0fd895c2c41bk3tw0000gp/T//cc3keNI2.s 			page 50


 1013              		.loc 13 68 35 view .LVU245
 1014 01ae 5846     		mov	r0, fp
 1015 01b0 07A9     		add	r1, sp, #28
  67:../../DaisySP/Source/PhysicalModeling/PolyPluck.h ****             sig += plk_[i].Process(tval);
 1016              		.loc 13 67 18 view .LVU246
 1017 01b2 CDED077A 		vstr.32	s15, [sp, #28]
  68:../../DaisySP/Source/PhysicalModeling/PolyPluck.h ****         }
 1018              		.loc 13 68 35 view .LVU247
 1019 01b6 FFF7FEFF 		bl	_ZN7daisysp5Pluck7ProcessERf
 1020              	.LVL56:
  65:../../DaisySP/Source/PhysicalModeling/PolyPluck.h ****         {
 1021              		.loc 13 65 29 view .LVU248
 1022 01ba BAF1200F 		cmp	r10, #32
  68:../../DaisySP/Source/PhysicalModeling/PolyPluck.h ****         }
 1023              		.loc 13 68 17 view .LVU249
 1024 01be 38EE008A 		vadd.f32	s16, s16, s0
 1025              	.LVL57:
  65:../../DaisySP/Source/PhysicalModeling/PolyPluck.h ****         {
 1026              		.loc 13 65 9 is_stmt 1 view .LVU250
  65:../../DaisySP/Source/PhysicalModeling/PolyPluck.h ****         {
 1027              		.loc 13 65 29 view .LVU251
 1028 01c2 0BF1340B 		add	fp, fp, #52
 1029 01c6 E0D1     		bne	.L20
 1030              	.LBE857:
  70:../../DaisySP/Source/PhysicalModeling/PolyPluck.h ****             trig = 0.0f;
 1031              		.loc 13 70 9 is_stmt 0 view .LVU252
 1032 01c8 F5EEC08A 		vcmpe.f32	s17, #0
  72:../../DaisySP/Source/PhysicalModeling/PolyPluck.h ****     }
 1033              		.loc 13 72 28 view .LVU253
 1034 01cc 4548     		ldr	r0, .L36+56
 1035 01ce B0EE480A 		vmov.f32	s0, s16
  70:../../DaisySP/Source/PhysicalModeling/PolyPluck.h ****             trig = 0.0f;
 1036              		.loc 13 70 9 view .LVU254
 1037 01d2 F1EE10FA 		vmrs	APSR_nzcv, FPSCR
  71:../../DaisySP/Source/PhysicalModeling/PolyPluck.h ****         return blk_.Process(sig);
 1038              		.loc 13 71 18 view .LVU255
 1039 01d6 C8BF     		it	gt
 1040 01d8 DFED398A 		vldrgt.32	s17, .L36+20
 1041              	.LVL58:
  72:../../DaisySP/Source/PhysicalModeling/PolyPluck.h ****     }
 1042              		.loc 13 72 28 view .LVU256
 1043 01dc FFF7FEFF 		bl	_ZN7daisysp7DcBlock7ProcessEf
 1044              	.LVL59:
 1045              	.LBE861:
 1046              	.LBE885:
  86:PluckEcho.cpp **** 
  87:PluckEcho.cpp ****         //		// Handle Delay
  88:PluckEcho.cpp ****         delsig = delay.Read();
  89:PluckEcho.cpp ****         delay.Write(sig + (delsig * delfb));
  90:PluckEcho.cpp **** 
  91:PluckEcho.cpp ****         // Create Reverb Send
  92:PluckEcho.cpp ****         dry  = sig + delsig;
  93:PluckEcho.cpp ****         send = dry * 0.6f;
  94:PluckEcho.cpp ****         verb.Process(send, send, &wetl, &wetr);
 1047              		.loc 17 94 21 view .LVU257
 1048 01e0 06AB     		add	r3, sp, #24
 1049              	.LBB886:
ARM GAS  /var/folders/hl/qgbwny5j0fd895c2c41bk3tw0000gp/T//cc3keNI2.s 			page 51


 1050              	.LBB887:
  57:../../DaisySP/Source/Utility/delayline.h ****                                                            : max_size - 1;
  58:../../DaisySP/Source/Utility/delayline.h ****     }
  59:../../DaisySP/Source/Utility/delayline.h **** 
  60:../../DaisySP/Source/Utility/delayline.h ****     /** writes the sample of type T to the delay line, and advances the write ptr
  61:../../DaisySP/Source/Utility/delayline.h ****     */
  62:../../DaisySP/Source/Utility/delayline.h ****     inline void Write(const T sample)
  63:../../DaisySP/Source/Utility/delayline.h ****     {
  64:../../DaisySP/Source/Utility/delayline.h ****         line_[write_ptr_] = sample;
  65:../../DaisySP/Source/Utility/delayline.h ****         write_ptr_        = (write_ptr_ - 1 + max_size) % max_size;
  66:../../DaisySP/Source/Utility/delayline.h ****     }
  67:../../DaisySP/Source/Utility/delayline.h **** 
  68:../../DaisySP/Source/Utility/delayline.h ****     /** returns the next sample of type T in the delay line, interpolated if necessary.
  69:../../DaisySP/Source/Utility/delayline.h ****     */
  70:../../DaisySP/Source/Utility/delayline.h ****     inline const T Read() const
  71:../../DaisySP/Source/Utility/delayline.h ****     {
  72:../../DaisySP/Source/Utility/delayline.h ****         T a = line_[(write_ptr_ + delay_) % max_size];
 1051              		.loc 16 72 22 view .LVU258
 1052 01e2 6968     		ldr	r1, [r5, #4]
 1053              		.loc 16 72 43 view .LVU259
 1054 01e4 404A     		ldr	r2, .L36+60
 1055              	.LBE887:
 1056              	.LBE886:
 1057              		.loc 17 94 21 view .LVU260
 1058 01e6 0093     		str	r3, [sp]
 1059              	.LBB897:
 1060              	.LBB898:
  64:../../DaisySP/Source/Utility/delayline.h ****         write_ptr_        = (write_ptr_ - 1 + max_size) % max_size;
 1061              		.loc 16 64 27 view .LVU261
 1062 01e8 05EB810C 		add	ip, r5, r1, lsl #2
 1063              	.LBE898:
 1064              	.LBE897:
 1065              	.LBB906:
 1066              	.LBB888:
 1067              		.loc 16 72 33 view .LVU262
 1068 01ec AB68     		ldr	r3, [r5, #8]
 1069              		.loc 16 72 43 view .LVU263
 1070 01ee DFF810E1 		ldr	lr, .L36+84
 1071              		.loc 16 72 33 view .LVU264
 1072 01f2 0B44     		add	r3, r3, r1
 1073              	.LBE888:
 1074              	.LBE906:
 1075              	.LBB907:
 1076              	.LBB899:
  65:../../DaisySP/Source/Utility/delayline.h ****     }
 1077              		.loc 16 65 45 view .LVU265
 1078 01f4 3948     		ldr	r0, .L36+48
 1079              	.LBE899:
 1080              	.LBE907:
 1081              	.LBB908:
 1082              	.LBB889:
  73:../../DaisySP/Source/Utility/delayline.h ****         T b = line_[(write_ptr_ + delay_ + 1) % max_size];
  74:../../DaisySP/Source/Utility/delayline.h ****         return a + (b - a) * frac_;
 1083              		.loc 16 74 30 view .LVU266
 1084 01f6 95ED006A 		vldr.32	s12, [r5]
  72:../../DaisySP/Source/Utility/delayline.h ****         T b = line_[(write_ptr_ + delay_ + 1) % max_size];
 1085              		.loc 16 72 43 view .LVU267
ARM GAS  /var/folders/hl/qgbwny5j0fd895c2c41bk3tw0000gp/T//cc3keNI2.s 			page 52


 1086 01fa A2FB03BA 		umull	fp, r10, r2, r3
 1087              	.LVL60:
  72:../../DaisySP/Source/Utility/delayline.h ****         T b = line_[(write_ptr_ + delay_ + 1) % max_size];
 1088              		.loc 16 72 43 view .LVU268
 1089              	.LBE889:
 1090              	.LBE908:
 1091              	.LBB909:
 1092              	.LBB900:
  65:../../DaisySP/Source/Utility/delayline.h ****     }
 1093              		.loc 16 65 45 view .LVU269
 1094 01fe 0844     		add	r0, r0, r1
 1095              	.LBE900:
 1096              	.LBE909:
 1097              	.LBB910:
 1098              	.LBB890:
  73:../../DaisySP/Source/Utility/delayline.h ****         T b = line_[(write_ptr_ + delay_ + 1) % max_size];
 1099              		.loc 16 73 42 view .LVU270
 1100 0200 591C     		adds	r1, r3, #1
 1101              	.LBE890:
 1102              	.LBE910:
  93:PluckEcho.cpp ****         verb.Process(send, send, &wetl, &wetr);
 1103              		.loc 17 93 20 view .LVU271
 1104 0202 9FED3A7A 		vldr.32	s14, .L36+64
 1105              	.LVL61:
  88:PluckEcho.cpp ****         delay.Write(sig + (delsig * delfb));
 1106              		.loc 17 88 9 is_stmt 1 view .LVU272
 1107              	.LBB911:
 1108              	.LBI886:
  70:../../DaisySP/Source/Utility/delayline.h ****     {
 1109              		.loc 16 70 20 view .LVU273
 1110              	.LBB891:
  72:../../DaisySP/Source/Utility/delayline.h ****         T b = line_[(write_ptr_ + delay_ + 1) % max_size];
 1111              		.loc 16 72 43 is_stmt 0 view .LVU274
 1112 0206 4FEA5A4A 		lsr	r10, r10, #17
 1113 020a 0EFB1A33 		mls	r3, lr, r10, r3
  72:../../DaisySP/Source/Utility/delayline.h ****         T b = line_[(write_ptr_ + delay_ + 1) % max_size];
 1114              		.loc 16 72 11 view .LVU275
 1115 020e 05EB8303 		add	r3, r5, r3, lsl #2
 1116 0212 D3ED037A 		vldr.32	s15, [r3, #12]
 1117              	.LVL62:
  73:../../DaisySP/Source/Utility/delayline.h ****         return a + (b - a) * frac_;
 1118              		.loc 16 73 47 view .LVU276
 1119 0216 A2FB01A3 		umull	r10, r3, r2, r1
 1120              	.LBE891:
 1121              	.LBE911:
 1122              	.LBB912:
 1123              	.LBB901:
  65:../../DaisySP/Source/Utility/delayline.h ****     }
 1124              		.loc 16 65 57 view .LVU277
 1125 021a A2FB00A2 		umull	r10, r2, r2, r0
 1126              	.LBE901:
 1127              	.LBE912:
 1128              	.LBB913:
 1129              	.LBB892:
  73:../../DaisySP/Source/Utility/delayline.h ****         return a + (b - a) * frac_;
 1130              		.loc 16 73 47 view .LVU278
 1131 021e 5B0C     		lsrs	r3, r3, #17
ARM GAS  /var/folders/hl/qgbwny5j0fd895c2c41bk3tw0000gp/T//cc3keNI2.s 			page 53


 1132              	.LBE892:
 1133              	.LBE913:
 1134              	.LBB914:
 1135              	.LBB902:
  65:../../DaisySP/Source/Utility/delayline.h ****     }
 1136              		.loc 16 65 57 view .LVU279
 1137 0220 520C     		lsrs	r2, r2, #17
 1138              	.LBE902:
 1139              	.LBE914:
 1140              	.LBB915:
 1141              	.LBB893:
  73:../../DaisySP/Source/Utility/delayline.h ****         return a + (b - a) * frac_;
 1142              		.loc 16 73 47 view .LVU280
 1143 0222 0EFB1311 		mls	r1, lr, r3, r1
 1144              	.LVL63:
  73:../../DaisySP/Source/Utility/delayline.h ****         return a + (b - a) * frac_;
 1145              		.loc 16 73 47 view .LVU281
 1146              	.LBE893:
 1147              	.LBE915:
 1148              		.loc 17 94 21 view .LVU282
 1149 0226 05AB     		add	r3, sp, #20
 1150              	.LBB916:
 1151              	.LBB903:
  65:../../DaisySP/Source/Utility/delayline.h ****     }
 1152              		.loc 16 65 57 view .LVU283
 1153 0228 0EFB1200 		mls	r0, lr, r2, r0
 1154              	.LBE903:
 1155              	.LBE916:
 1156              		.loc 17 94 21 view .LVU284
 1157 022c 04AA     		add	r2, sp, #16
 1158              	.LBB917:
 1159              	.LBB894:
  73:../../DaisySP/Source/Utility/delayline.h ****         return a + (b - a) * frac_;
 1160              		.loc 16 73 11 view .LVU285
 1161 022e 05EB8101 		add	r1, r5, r1, lsl #2
 1162              	.LBE894:
 1163              	.LBE917:
 1164              	.LBB918:
 1165              	.LBB904:
  65:../../DaisySP/Source/Utility/delayline.h ****     }
 1166              		.loc 16 65 27 view .LVU286
 1167 0232 6860     		str	r0, [r5, #4]
 1168              	.LVL64:
  65:../../DaisySP/Source/Utility/delayline.h ****     }
 1169              		.loc 16 65 27 view .LVU287
 1170              	.LBE904:
 1171              	.LBE918:
 1172              	.LBB919:
 1173              	.LBB895:
 1174              		.loc 16 74 23 view .LVU288
 1175 0234 D1ED036A 		vldr.32	s13, [r1, #12]
 1176              	.LBE895:
 1177              	.LBE919:
 1178              		.loc 17 94 21 view .LVU289
 1179 0238 1146     		mov	r1, r2
 1180 023a 2D48     		ldr	r0, .L36+68
 1181              	.LBB920:
ARM GAS  /var/folders/hl/qgbwny5j0fd895c2c41bk3tw0000gp/T//cc3keNI2.s 			page 54


 1182              	.LBB896:
 1183              		.loc 16 74 23 view .LVU290
 1184 023c 76EEE76A 		vsub.f32	s13, s13, s15
 1185              		.loc 16 74 30 view .LVU291
 1186 0240 E6EE867A 		vfma.f32	s15, s13, s12
 1187              	.LVL65:
 1188              		.loc 16 74 30 view .LVU292
 1189              	.LBE896:
 1190              	.LBE920:
  89:PluckEcho.cpp **** 
 1191              		.loc 17 89 9 is_stmt 1 view .LVU293
  92:PluckEcho.cpp ****         send = dry * 0.6f;
 1192              		.loc 17 92 14 is_stmt 0 view .LVU294
 1193 0244 37EE808A 		vadd.f32	s16, s15, s0
  89:PluckEcho.cpp **** 
 1194              		.loc 17 89 20 view .LVU295
 1195 0248 A9EEA70A 		vfma.f32	s0, s19, s15
 1196              	.LVL66:
 1197              	.LBB921:
 1198              	.LBI897:
  62:../../DaisySP/Source/Utility/delayline.h ****     {
 1199              		.loc 16 62 17 is_stmt 1 view .LVU296
  62:../../DaisySP/Source/Utility/delayline.h ****     {
 1200              		.loc 16 62 17 is_stmt 0 view .LVU297
 1201              	.LBE921:
  92:PluckEcho.cpp ****         send = dry * 0.6f;
 1202              		.loc 17 92 9 is_stmt 1 view .LVU298
  93:PluckEcho.cpp ****         verb.Process(send, send, &wetl, &wetr);
 1203              		.loc 17 93 9 view .LVU299
  93:PluckEcho.cpp ****         verb.Process(send, send, &wetl, &wetr);
 1204              		.loc 17 93 20 is_stmt 0 view .LVU300
 1205 024c 28EE077A 		vmul.f32	s14, s16, s14
  93:PluckEcho.cpp ****         verb.Process(send, send, &wetl, &wetr);
 1206              		.loc 17 93 14 view .LVU301
 1207 0250 8DED047A 		vstr.32	s14, [sp, #16]
 1208              		.loc 17 94 9 is_stmt 1 view .LVU302
 1209              	.LBB922:
 1210              	.LBB905:
  64:../../DaisySP/Source/Utility/delayline.h ****         write_ptr_        = (write_ptr_ - 1 + max_size) % max_size;
 1211              		.loc 16 64 27 is_stmt 0 view .LVU303
 1212 0254 8CED030A 		vstr.32	s0, [ip, #12]
 1213              	.LBE905:
 1214              	.LBE922:
 1215              		.loc 17 94 21 view .LVU304
 1216 0258 FFF7FEFF 		bl	_ZN7daisysp8ReverbSc7ProcessERKfS2_PfS3_
 1217              	.LVL67:
  95:PluckEcho.cpp **** 
  96:PluckEcho.cpp ****         // Output
  97:PluckEcho.cpp ****         OUT_L[i]  = dry + wetl;
 1218              		.loc 17 97 9 is_stmt 1 view .LVU305
 1219              		.loc 17 97 25 is_stmt 0 view .LVU306
 1220 025c DDED057A 		vldr.32	s15, [sp, #20]
 1221              		.loc 17 97 19 view .LVU307
 1222 0260 3B68     		ldr	r3, [r7]
 1223              		.loc 17 97 25 view .LVU308
 1224 0262 77EE887A 		vadd.f32	s15, s15, s16
 1225              		.loc 17 97 19 view .LVU309
ARM GAS  /var/folders/hl/qgbwny5j0fd895c2c41bk3tw0000gp/T//cc3keNI2.s 			page 55


 1226 0266 03EB8603 		add	r3, r3, r6, lsl #2
 1227 026a C3ED007A 		vstr.32	s15, [r3]
  98:PluckEcho.cpp ****         OUT_R[i] = dry + wetr;
 1228              		.loc 17 98 9 is_stmt 1 view .LVU310
 1229              		.loc 17 98 24 is_stmt 0 view .LVU311
 1230 026e DDED067A 		vldr.32	s15, [sp, #24]
 1231              		.loc 17 98 18 view .LVU312
 1232 0272 7B68     		ldr	r3, [r7, #4]
 1233              		.loc 17 98 24 view .LVU313
 1234 0274 77EE887A 		vadd.f32	s15, s15, s16
 1235              		.loc 17 98 18 view .LVU314
 1236 0278 03EB8603 		add	r3, r3, r6, lsl #2
  78:PluckEcho.cpp ****     {
 1237              		.loc 17 78 5 view .LVU315
 1238 027c 0136     		adds	r6, r6, #1
 1239              	.LVL68:
 1240              		.loc 17 98 18 view .LVU316
 1241 027e C3ED007A 		vstr.32	s15, [r3]
  78:PluckEcho.cpp ****     {
 1242              		.loc 17 78 5 is_stmt 1 view .LVU317
 1243              	.LVL69:
  78:PluckEcho.cpp ****     {
 1244              		.loc 17 78 25 view .LVU318
 1245 0282 039B     		ldr	r3, [sp, #12]
 1246 0284 B342     		cmp	r3, r6
 1247 0286 7FF437AF 		bne	.L24
 1248              	.LVL70:
 1249              	.L11:
  78:PluckEcho.cpp ****     {
 1250              		.loc 17 78 25 is_stmt 0 view .LVU319
 1251              	.LBE924:
  99:PluckEcho.cpp ****     }
 100:PluckEcho.cpp **** }
 1252              		.loc 17 100 1 view .LVU320
 1253 028a 09B0     		add	sp, sp, #36
 1254              		.cfi_remember_state
 1255              		.cfi_def_cfa_offset 60
 1256              		@ sp needed
 1257 028c BDEC068B 		vldm	sp!, {d8-d10}
 1258              		.cfi_restore 84
 1259              		.cfi_restore 85
 1260              		.cfi_restore 82
 1261              		.cfi_restore 83
 1262              		.cfi_restore 80
 1263              		.cfi_restore 81
 1264              		.cfi_def_cfa_offset 36
 1265              	.LVL71:
 1266              		.loc 17 100 1 view .LVU321
 1267 0290 BDE8F08F 		pop	{r4, r5, r6, r7, r8, r9, r10, fp, pc}
 1268              	.LVL72:
 1269              	.L12:
 1270              		.cfi_restore_state
  50:PluckEcho.cpp ****         trig = 1.0f;
 1271              		.loc 17 50 47 discriminator 2 view .LVU322
 1272 0294 1748     		ldr	r0, .L36+72
 1273 0296 FFF7FEFF 		bl	_ZN5daisy6GateIn4TrigEv
 1274              	.LVL73:
ARM GAS  /var/folders/hl/qgbwny5j0fd895c2c41bk3tw0000gp/T//cc3keNI2.s 			page 56


  50:PluckEcho.cpp ****         trig = 1.0f;
 1275              		.loc 17 50 27 discriminator 2 view .LVU323
 1276 029a 0028     		cmp	r0, #0
 1277 029c 7FF4CBAE 		bne	.L14
  49:PluckEcho.cpp ****     if(myEnc.RisingEdge() || hw.gate_in_1.Trig())
 1278              		.loc 17 49 10 view .LVU324
 1279 02a0 DFED078A 		vldr.32	s17, .L36+20
 1280 02a4 C9E6     		b	.L13
 1281              	.LVL74:
 1282              	.L35:
 1283              	.LBB925:
 1284              	.LBB923:
 1285              	.LBB862:
  63:../../DaisySP/Source/PhysicalModeling/PolyPluck.h **** 
 1286              		.loc 13 63 14 view .LVU325
 1287 02a6 D4F894A6 		ldr	r10, [r4, #1684]
 1288 02aa 59E7     		b	.L17
 1289              	.L37:
 1290              		.align	2
 1291              	.L36:
 1292 02ac 00000000 		.word	.LANCHOR0
 1293 02b0 00000000 		.word	.LANCHOR1
 1294 02b4 00009042 		.word	1116733440
 1295 02b8 0000A842 		.word	1118306304
 1296 02bc 00800000 		.word	synth+32768
 1297 02c0 00000000 		.word	0
 1298 02c4 00007042 		.word	1114636288
 1299 02c8 0000FE42 		.word	1123942400
 1300 02cc 6F12833A 		.word	981668463
 1301 02d0 00008A42 		.word	1116340224
 1302 02d4 00000000 		.word	delay
 1303 02d8 6F12033A 		.word	973279855
 1304 02dc FF520700 		.word	479999
 1305 02e0 0000DC43 		.word	1138491392
 1306 02e4 00000000 		.word	synth
 1307 02e8 73B2E745 		.word	1172812403
 1308 02ec 9A99193F 		.word	1058642330
 1309 02f0 00000000 		.word	verb
 1310 02f4 B0010000 		.word	.LANCHOR0+432
 1311 02f8 00000000 		.word	.LANCHOR2
 1312 02fc 0C000000 		.word	synth+12
 1313 0300 00530700 		.word	480000
 1314              	.LBE862:
 1315              	.LBE923:
 1316              	.LBE925:
 1317              		.cfi_endproc
 1318              	.LFE4824:
 1320              		.section	.text._ZN5daisy11OledDisplayINS_13SSD130xDriverILj128ELj64ENS_24SSD130x4WireSpiTransportE
 1321              		.align	1
 1322              		.p2align 2,,3
 1323              		.weak	_ZN5daisy11OledDisplayINS_13SSD130xDriverILj128ELj64ENS_24SSD130x4WireSpiTransportEEEED0Ev
 1324              		.syntax unified
 1325              		.thumb
 1326              		.thumb_func
 1328              	_ZN5daisy11OledDisplayINS_13SSD130xDriverILj128ELj64ENS_24SSD130x4WireSpiTransportEEEED0Ev:
 1329              	.LVL75:
 1330              	.LFB5434:
ARM GAS  /var/folders/hl/qgbwny5j0fd895c2c41bk3tw0000gp/T//cc3keNI2.s 			page 57


  18:../../libDaisy/src/hid/disp/oled_display.h **** 
 1331              		.loc 11 18 13 is_stmt 1 view -0
 1332              		.cfi_startproc
 1333              		@ args = 0, pretend = 0, frame = 0
 1334              		@ frame_needed = 0, uses_anonymous_args = 0
  18:../../libDaisy/src/hid/disp/oled_display.h **** 
 1335              		.loc 11 18 13 is_stmt 0 view .LVU327
 1336 0000 10B5     		push	{r4, lr}
 1337              		.cfi_def_cfa_offset 8
 1338              		.cfi_offset 4, -8
 1339              		.cfi_offset 14, -4
  18:../../libDaisy/src/hid/disp/oled_display.h **** 
 1340              		.loc 11 18 13 view .LVU328
 1341 0002 0446     		mov	r4, r0
 1342              	.LVL76:
 1343              	.LBB926:
 1344              	.LBI926:
  18:../../libDaisy/src/hid/disp/oled_display.h **** 
 1345              		.loc 11 18 13 is_stmt 1 view .LVU329
 1346              	.LBB927:
 1347              	.LBI927:
 1348              		.loc 15 219 13 view .LVU330
 1349              	.LBB928:
 1350              	.LBI928:
  23:../../libDaisy/src/hid/disp/display.h **** 
 1351              		.loc 15 23 13 view .LVU331
  23:../../libDaisy/src/hid/disp/display.h **** 
 1352              		.loc 15 23 13 is_stmt 0 view .LVU332
 1353              	.LBE928:
 1354              	.LBE927:
 1355              	.LBE926:
  18:../../libDaisy/src/hid/disp/oled_display.h **** 
 1356              		.loc 11 18 29 view .LVU333
 1357 0004 40F21441 		movw	r1, #1044
 1358 0008 FFF7FEFF 		bl	_ZdlPvj
 1359              	.LVL77:
  18:../../libDaisy/src/hid/disp/oled_display.h **** 
 1360              		.loc 11 18 29 view .LVU334
 1361 000c 2046     		mov	r0, r4
 1362 000e 10BD     		pop	{r4, pc}
  18:../../libDaisy/src/hid/disp/oled_display.h **** 
 1363              		.loc 11 18 29 view .LVU335
 1364              		.cfi_endproc
 1365              	.LFE5434:
 1367              		.section	.text._ZN5daisy11OledDisplayINS_13SSD130xDriverILj128ELj64ENS_24SSD130x4WireSpiTransportE
 1368              		.align	1
 1369              		.p2align 2,,3
 1370              		.weak	_ZN5daisy11OledDisplayINS_13SSD130xDriverILj128ELj64ENS_24SSD130x4WireSpiTransportEEEE6Updat
 1371              		.syntax unified
 1372              		.thumb
 1373              		.thumb_func
 1375              	_ZN5daisy11OledDisplayINS_13SSD130xDriverILj128ELj64ENS_24SSD130x4WireSpiTransportEEEE6UpdateEv:
 1376              	.LVL78:
 1377              	.LFB5156:
  35:../../libDaisy/src/hid/disp/oled_display.h **** 
  36:../../libDaisy/src/hid/disp/oled_display.h ****     /**
  37:../../libDaisy/src/hid/disp/oled_display.h ****     Sets the pixel at the specified coordinate to be on/off.
ARM GAS  /var/folders/hl/qgbwny5j0fd895c2c41bk3tw0000gp/T//cc3keNI2.s 			page 58


  38:../../libDaisy/src/hid/disp/oled_display.h ****     \param x   x Coordinate
  39:../../libDaisy/src/hid/disp/oled_display.h ****     \param y   y coordinate
  40:../../libDaisy/src/hid/disp/oled_display.h ****     \param on  on or off
  41:../../libDaisy/src/hid/disp/oled_display.h ****     */
  42:../../libDaisy/src/hid/disp/oled_display.h ****     void DrawPixel(uint_fast8_t x, uint_fast8_t y, bool on) override
  43:../../libDaisy/src/hid/disp/oled_display.h ****     {
  44:../../libDaisy/src/hid/disp/oled_display.h ****         driver_.DrawPixel(x, y, on);
  45:../../libDaisy/src/hid/disp/oled_display.h ****     }
  46:../../libDaisy/src/hid/disp/oled_display.h **** 
  47:../../libDaisy/src/hid/disp/oled_display.h ****     /** 
  48:../../libDaisy/src/hid/disp/oled_display.h ****     Writes the current display buffer to the OLED device using SPI or I2C depending on 
  49:../../libDaisy/src/hid/disp/oled_display.h ****     how the object was initialized.
  50:../../libDaisy/src/hid/disp/oled_display.h ****     */
  51:../../libDaisy/src/hid/disp/oled_display.h ****     void Update() override { driver_.Update(); }
 1378              		.loc 11 51 10 is_stmt 1 view -0
 1379              		.cfi_startproc
 1380              		@ args = 0, pretend = 0, frame = 8
 1381              		@ frame_needed = 0, uses_anonymous_args = 0
 1382              	.LBB939:
 1383              	.LBI939:
 367:../../libDaisy/src/dev/oled_ssd130x.h ****         }
 368:../../libDaisy/src/dev/oled_ssd130x.h ****     };
 369:../../libDaisy/src/dev/oled_ssd130x.h **** 
 370:../../libDaisy/src/dev/oled_ssd130x.h ****     /**
 371:../../libDaisy/src/dev/oled_ssd130x.h ****      * Update the display 
 372:../../libDaisy/src/dev/oled_ssd130x.h ****     */
 373:../../libDaisy/src/dev/oled_ssd130x.h ****     void Update()
 1384              		.loc 12 373 10 view .LVU337
 1385              	.LBB940:
 374:../../libDaisy/src/dev/oled_ssd130x.h ****     {
 375:../../libDaisy/src/dev/oled_ssd130x.h ****         uint8_t i;
 376:../../libDaisy/src/dev/oled_ssd130x.h ****         uint8_t high_column_addr;
 377:../../libDaisy/src/dev/oled_ssd130x.h ****         switch(height)
 378:../../libDaisy/src/dev/oled_ssd130x.h ****         {
 379:../../libDaisy/src/dev/oled_ssd130x.h ****             case 32: high_column_addr = 0x12; break;
 380:../../libDaisy/src/dev/oled_ssd130x.h **** 
 381:../../libDaisy/src/dev/oled_ssd130x.h ****             default: high_column_addr = 0x10; break;
 382:../../libDaisy/src/dev/oled_ssd130x.h ****         }
 383:../../libDaisy/src/dev/oled_ssd130x.h ****         for(i = 0; i < (height / 8); i++)
 1386              		.loc 12 383 22 view .LVU338
 1387              	.LBE940:
 1388              	.LBE939:
 1389              		.loc 11 51 10 is_stmt 0 view .LVU339
 1390 0000 2DE9F041 		push	{r4, r5, r6, r7, r8, lr}
 1391              		.cfi_def_cfa_offset 24
 1392              		.cfi_offset 4, -24
 1393              		.cfi_offset 5, -20
 1394              		.cfi_offset 6, -16
 1395              		.cfi_offset 7, -12
 1396              		.cfi_offset 8, -8
 1397              		.cfi_offset 14, -4
 1398              	.LBB962:
 1399              	.LBB960:
 1400              	.LBB941:
 1401              	.LBB942:
 125:../../libDaisy/src/dev/oled_ssd130x.h ****     };
 1402              		.loc 12 125 30 view .LVU340
ARM GAS  /var/folders/hl/qgbwny5j0fd895c2c41bk3tw0000gp/T//cc3keNI2.s 			page 59


 1403 0004 B024     		movs	r4, #176
 1404              	.LBE942:
 1405              	.LBE941:
 1406              	.LBE960:
 1407              	.LBE962:
 1408              		.loc 11 51 10 view .LVU341
 1409 0006 82B0     		sub	sp, sp, #8
 1410              		.cfi_def_cfa_offset 32
 1411              	.LBB963:
 1412              	.LBB961:
 1413              	.LBB947:
 1414              	.LBB943:
 124:../../libDaisy/src/dev/oled_ssd130x.h ****         spi_.BlockingTransmit(&cmd, 1);
 1415              		.loc 12 124 24 view .LVU342
 1416 0008 00F10806 		add	r6, r0, #8
 1417 000c 00F11005 		add	r5, r0, #16
 1418 0010 00F11408 		add	r8, r0, #20
 1419              	.LVL79:
 1420              	.L41:
 124:../../libDaisy/src/dev/oled_ssd130x.h ****         spi_.BlockingTransmit(&cmd, 1);
 1421              		.loc 12 124 24 view .LVU343
 1422 0014 0027     		movs	r7, #0
 124:../../libDaisy/src/dev/oled_ssd130x.h ****         spi_.BlockingTransmit(&cmd, 1);
 1423              		.loc 12 124 23 view .LVU344
 1424 0016 2846     		mov	r0, r5
 1425 0018 8DF80740 		strb	r4, [sp, #7]
 1426              	.LVL80:
 124:../../libDaisy/src/dev/oled_ssd130x.h ****         spi_.BlockingTransmit(&cmd, 1);
 1427              		.loc 12 124 23 view .LVU345
 1428              	.LBE943:
 1429              	.LBI941:
 122:../../libDaisy/src/dev/oled_ssd130x.h ****     {
 1430              		.loc 12 122 10 is_stmt 1 view .LVU346
 1431              	.LBB944:
 124:../../libDaisy/src/dev/oled_ssd130x.h ****         spi_.BlockingTransmit(&cmd, 1);
 1432              		.loc 12 124 9 view .LVU347
 1433              	.LBE944:
 1434              	.LBE947:
 1435              		.loc 12 383 22 is_stmt 0 view .LVU348
 1436 001c 0134     		adds	r4, r4, #1
 1437              	.LVL81:
 1438              	.LBB948:
 1439              	.LBB945:
 124:../../libDaisy/src/dev/oled_ssd130x.h ****         spi_.BlockingTransmit(&cmd, 1);
 1440              		.loc 12 124 23 view .LVU349
 1441 001e 3946     		mov	r1, r7
 1442 0020 FFF7FEFF 		bl	dsy_gpio_write
 1443              	.LVL82:
 125:../../libDaisy/src/dev/oled_ssd130x.h ****     };
 1444              		.loc 12 125 9 is_stmt 1 view .LVU350
 125:../../libDaisy/src/dev/oled_ssd130x.h ****     };
 1445              		.loc 12 125 30 is_stmt 0 view .LVU351
 1446 0024 6423     		movs	r3, #100
 1447 0026 0122     		movs	r2, #1
 1448 0028 0DF10701 		add	r1, sp, #7
 1449 002c 3046     		mov	r0, r6
 1450              	.LBE945:
ARM GAS  /var/folders/hl/qgbwny5j0fd895c2c41bk3tw0000gp/T//cc3keNI2.s 			page 60


 1451              	.LBE948:
 1452              		.loc 12 383 22 view .LVU352
 1453 002e E4B2     		uxtb	r4, r4
 1454              	.LBB949:
 1455              	.LBB946:
 125:../../libDaisy/src/dev/oled_ssd130x.h ****     };
 1456              		.loc 12 125 30 view .LVU353
 1457 0030 FFF7FEFF 		bl	_ZN5daisy9SpiHandle16BlockingTransmitEPhjm
 1458              	.LVL83:
 125:../../libDaisy/src/dev/oled_ssd130x.h ****     };
 1459              		.loc 12 125 30 view .LVU354
 1460              	.LBE946:
 1461              	.LBE949:
 1462              	.LBB950:
 1463              	.LBB951:
 124:../../libDaisy/src/dev/oled_ssd130x.h ****         spi_.BlockingTransmit(&cmd, 1);
 1464              		.loc 12 124 23 view .LVU355
 1465 0034 3946     		mov	r1, r7
 1466 0036 2846     		mov	r0, r5
 1467 0038 8DF80770 		strb	r7, [sp, #7]
 1468              	.LVL84:
 124:../../libDaisy/src/dev/oled_ssd130x.h ****         spi_.BlockingTransmit(&cmd, 1);
 1469              		.loc 12 124 23 view .LVU356
 1470              	.LBE951:
 1471              	.LBI950:
 122:../../libDaisy/src/dev/oled_ssd130x.h ****     {
 1472              		.loc 12 122 10 is_stmt 1 view .LVU357
 1473              	.LBB952:
 124:../../libDaisy/src/dev/oled_ssd130x.h ****         spi_.BlockingTransmit(&cmd, 1);
 1474              		.loc 12 124 9 view .LVU358
 124:../../libDaisy/src/dev/oled_ssd130x.h ****         spi_.BlockingTransmit(&cmd, 1);
 1475              		.loc 12 124 23 is_stmt 0 view .LVU359
 1476 003c FFF7FEFF 		bl	dsy_gpio_write
 1477              	.LVL85:
 125:../../libDaisy/src/dev/oled_ssd130x.h ****     };
 1478              		.loc 12 125 9 is_stmt 1 view .LVU360
 125:../../libDaisy/src/dev/oled_ssd130x.h ****     };
 1479              		.loc 12 125 30 is_stmt 0 view .LVU361
 1480 0040 0122     		movs	r2, #1
 1481 0042 6423     		movs	r3, #100
 1482 0044 0DF10701 		add	r1, sp, #7
 1483 0048 3046     		mov	r0, r6
 1484 004a FFF7FEFF 		bl	_ZN5daisy9SpiHandle16BlockingTransmitEPhjm
 1485              	.LVL86:
 125:../../libDaisy/src/dev/oled_ssd130x.h ****     };
 1486              		.loc 12 125 30 view .LVU362
 1487 004e 1023     		movs	r3, #16
 1488              	.LBE952:
 1489              	.LBE950:
 1490              	.LBB953:
 1491              	.LBB954:
 124:../../libDaisy/src/dev/oled_ssd130x.h ****         spi_.BlockingTransmit(&cmd, 1);
 1492              		.loc 12 124 23 view .LVU363
 1493 0050 3946     		mov	r1, r7
 1494 0052 2846     		mov	r0, r5
 1495 0054 8DF80730 		strb	r3, [sp, #7]
 1496              	.LVL87:
ARM GAS  /var/folders/hl/qgbwny5j0fd895c2c41bk3tw0000gp/T//cc3keNI2.s 			page 61


 124:../../libDaisy/src/dev/oled_ssd130x.h ****         spi_.BlockingTransmit(&cmd, 1);
 1497              		.loc 12 124 23 view .LVU364
 1498              	.LBE954:
 1499              	.LBI953:
 122:../../libDaisy/src/dev/oled_ssd130x.h ****     {
 1500              		.loc 12 122 10 is_stmt 1 view .LVU365
 1501              	.LBB955:
 124:../../libDaisy/src/dev/oled_ssd130x.h ****         spi_.BlockingTransmit(&cmd, 1);
 1502              		.loc 12 124 9 view .LVU366
 124:../../libDaisy/src/dev/oled_ssd130x.h ****         spi_.BlockingTransmit(&cmd, 1);
 1503              		.loc 12 124 23 is_stmt 0 view .LVU367
 1504 0058 FFF7FEFF 		bl	dsy_gpio_write
 1505              	.LVL88:
 125:../../libDaisy/src/dev/oled_ssd130x.h ****     };
 1506              		.loc 12 125 9 is_stmt 1 view .LVU368
 125:../../libDaisy/src/dev/oled_ssd130x.h ****     };
 1507              		.loc 12 125 30 is_stmt 0 view .LVU369
 1508 005c 6423     		movs	r3, #100
 1509 005e 0122     		movs	r2, #1
 1510 0060 0DF10701 		add	r1, sp, #7
 1511 0064 3046     		mov	r0, r6
 1512 0066 FFF7FEFF 		bl	_ZN5daisy9SpiHandle16BlockingTransmitEPhjm
 1513              	.LVL89:
 125:../../libDaisy/src/dev/oled_ssd130x.h ****     };
 1514              		.loc 12 125 30 view .LVU370
 1515              	.LBE955:
 1516              	.LBE953:
 1517              	.LBB956:
 1518              	.LBI956:
 128:../../libDaisy/src/dev/oled_ssd130x.h ****     {
 1519              		.loc 12 128 10 is_stmt 1 view .LVU371
 1520              	.LBB957:
 130:../../libDaisy/src/dev/oled_ssd130x.h ****         spi_.BlockingTransmit(buff, size);
 1521              		.loc 12 130 9 view .LVU372
 130:../../libDaisy/src/dev/oled_ssd130x.h ****         spi_.BlockingTransmit(buff, size);
 1522              		.loc 12 130 23 is_stmt 0 view .LVU373
 1523 006a 0121     		movs	r1, #1
 1524 006c 2846     		mov	r0, r5
 1525 006e FFF7FEFF 		bl	dsy_gpio_write
 1526              	.LVL90:
 131:../../libDaisy/src/dev/oled_ssd130x.h ****     };
 1527              		.loc 12 131 9 is_stmt 1 view .LVU374
 131:../../libDaisy/src/dev/oled_ssd130x.h ****     };
 1528              		.loc 12 131 30 is_stmt 0 view .LVU375
 1529 0072 8022     		movs	r2, #128
 1530 0074 4146     		mov	r1, r8
 1531 0076 6423     		movs	r3, #100
 1532 0078 3046     		mov	r0, r6
 1533              	.LBE957:
 1534              	.LBE956:
 1535              		.loc 12 383 22 view .LVU376
 1536 007a 9044     		add	r8, r8, r2
 1537              	.LVL91:
 1538              	.LBB959:
 1539              	.LBB958:
 131:../../libDaisy/src/dev/oled_ssd130x.h ****     };
 1540              		.loc 12 131 30 view .LVU377
ARM GAS  /var/folders/hl/qgbwny5j0fd895c2c41bk3tw0000gp/T//cc3keNI2.s 			page 62


 1541 007c FFF7FEFF 		bl	_ZN5daisy9SpiHandle16BlockingTransmitEPhjm
 1542              	.LVL92:
 131:../../libDaisy/src/dev/oled_ssd130x.h ****     };
 1543              		.loc 12 131 30 view .LVU378
 1544              	.LBE958:
 1545              	.LBE959:
 1546              		.loc 12 383 9 is_stmt 1 view .LVU379
 1547              		.loc 12 383 22 view .LVU380
 1548 0080 B82C     		cmp	r4, #184
 1549 0082 C7D1     		bne	.L41
 1550              	.LBE961:
 1551              	.LBE963:
 1552              		.loc 11 51 48 is_stmt 0 view .LVU381
 1553 0084 02B0     		add	sp, sp, #8
 1554              		.cfi_def_cfa_offset 24
 1555              		@ sp needed
 1556 0086 BDE8F081 		pop	{r4, r5, r6, r7, r8, pc}
 1557              		.loc 11 51 48 view .LVU382
 1558              		.cfi_endproc
 1559              	.LFE5156:
 1561 008a 00BF     		.section	.text._ZN5daisy25OneBitGraphicsDisplayImplINS_11OledDisplayINS_13SSD130xDriverILj128ELj64
 1562              		.align	1
 1563              		.p2align 2,,3
 1564              		.weak	_ZN5daisy25OneBitGraphicsDisplayImplINS_11OledDisplayINS_13SSD130xDriverILj128ELj64ENS_24SSD
 1565              		.syntax unified
 1566              		.thumb
 1567              		.thumb_func
 1569              	_ZN5daisy25OneBitGraphicsDisplayImplINS_11OledDisplayINS_13SSD130xDriverILj128ELj64ENS_24SSD130x4Wi
 1570              	.LVL93:
 1571              	.LFB5155:
 220:../../libDaisy/src/hid/disp/display.h **** 
 221:../../libDaisy/src/hid/disp/display.h ****     void DrawLine(uint_fast8_t x1,
 222:../../libDaisy/src/hid/disp/display.h ****                   uint_fast8_t y1,
 223:../../libDaisy/src/hid/disp/display.h ****                   uint_fast8_t x2,
 224:../../libDaisy/src/hid/disp/display.h ****                   uint_fast8_t y2,
 225:../../libDaisy/src/hid/disp/display.h ****                   bool         on) override
 226:../../libDaisy/src/hid/disp/display.h ****     {
 227:../../libDaisy/src/hid/disp/display.h ****         int_fast16_t deltaX = abs((int_fast16_t)x2 - (int_fast16_t)x1);
 228:../../libDaisy/src/hid/disp/display.h ****         int_fast16_t deltaY = abs((int_fast16_t)y2 - (int_fast16_t)y1);
 229:../../libDaisy/src/hid/disp/display.h ****         int_fast16_t signX  = ((x1 < x2) ? 1 : -1);
 230:../../libDaisy/src/hid/disp/display.h ****         int_fast16_t signY  = ((y1 < y2) ? 1 : -1);
 231:../../libDaisy/src/hid/disp/display.h ****         int_fast16_t error  = deltaX - deltaY;
 232:../../libDaisy/src/hid/disp/display.h ****         int_fast16_t error2;
 233:../../libDaisy/src/hid/disp/display.h **** 
 234:../../libDaisy/src/hid/disp/display.h ****         // If we write "ChildType::DrawPixel(x2, y2, on);", we end up with
 235:../../libDaisy/src/hid/disp/display.h ****         // all sorts of weird compiler errors when the Child class is a template
 236:../../libDaisy/src/hid/disp/display.h ****         // class. The only way around this is to use this very verbose syntax:
 237:../../libDaisy/src/hid/disp/display.h ****         ((ChildType*)(this))->ChildType::DrawPixel(x2, y2, on);
 238:../../libDaisy/src/hid/disp/display.h **** 
 239:../../libDaisy/src/hid/disp/display.h ****         while((x1 != x2) || (y1 != y2))
 240:../../libDaisy/src/hid/disp/display.h ****         {
 241:../../libDaisy/src/hid/disp/display.h ****             ((ChildType*)(this))->ChildType::DrawPixel(x1, y1, on);
 242:../../libDaisy/src/hid/disp/display.h ****             error2 = error * 2;
 243:../../libDaisy/src/hid/disp/display.h ****             if(error2 > -deltaY)
 244:../../libDaisy/src/hid/disp/display.h ****             {
 245:../../libDaisy/src/hid/disp/display.h ****                 error -= deltaY;
 246:../../libDaisy/src/hid/disp/display.h ****                 x1 += signX;
ARM GAS  /var/folders/hl/qgbwny5j0fd895c2c41bk3tw0000gp/T//cc3keNI2.s 			page 63


 247:../../libDaisy/src/hid/disp/display.h ****             }
 248:../../libDaisy/src/hid/disp/display.h **** 
 249:../../libDaisy/src/hid/disp/display.h ****             if(error2 < deltaX)
 250:../../libDaisy/src/hid/disp/display.h ****             {
 251:../../libDaisy/src/hid/disp/display.h ****                 error += deltaX;
 252:../../libDaisy/src/hid/disp/display.h ****                 y1 += signY;
 253:../../libDaisy/src/hid/disp/display.h ****             }
 254:../../libDaisy/src/hid/disp/display.h ****         }
 255:../../libDaisy/src/hid/disp/display.h ****     }
 256:../../libDaisy/src/hid/disp/display.h **** 
 257:../../libDaisy/src/hid/disp/display.h ****     void DrawRect(uint_fast8_t x1,
 258:../../libDaisy/src/hid/disp/display.h ****                   uint_fast8_t y1,
 259:../../libDaisy/src/hid/disp/display.h ****                   uint_fast8_t x2,
 260:../../libDaisy/src/hid/disp/display.h ****                   uint_fast8_t y2,
 261:../../libDaisy/src/hid/disp/display.h ****                   bool         on,
 262:../../libDaisy/src/hid/disp/display.h ****                   bool         fill = false) override
 263:../../libDaisy/src/hid/disp/display.h ****     {
 264:../../libDaisy/src/hid/disp/display.h ****         if(fill)
 265:../../libDaisy/src/hid/disp/display.h ****         {
 266:../../libDaisy/src/hid/disp/display.h ****             for(uint_fast8_t x = x1; x <= x2; x++)
 267:../../libDaisy/src/hid/disp/display.h ****             {
 268:../../libDaisy/src/hid/disp/display.h ****                 for(uint_fast8_t y = y1; y <= y2; y++)
 269:../../libDaisy/src/hid/disp/display.h ****                 {
 270:../../libDaisy/src/hid/disp/display.h ****                     ((ChildType*)(this))->ChildType::DrawPixel(x, y, on);
 271:../../libDaisy/src/hid/disp/display.h ****                 }
 272:../../libDaisy/src/hid/disp/display.h ****             }
 273:../../libDaisy/src/hid/disp/display.h ****         }
 274:../../libDaisy/src/hid/disp/display.h ****         else
 275:../../libDaisy/src/hid/disp/display.h ****         {
 276:../../libDaisy/src/hid/disp/display.h ****             ((ChildType*)(this))->ChildType::DrawLine(x1, y1, x2, y1, on);
 277:../../libDaisy/src/hid/disp/display.h ****             ((ChildType*)(this))->ChildType::DrawLine(x2, y1, x2, y2, on);
 278:../../libDaisy/src/hid/disp/display.h ****             ((ChildType*)(this))->ChildType::DrawLine(x2, y2, x1, y2, on);
 279:../../libDaisy/src/hid/disp/display.h ****             ((ChildType*)(this))->ChildType::DrawLine(x1, y2, x1, y1, on);
 280:../../libDaisy/src/hid/disp/display.h ****         }
 281:../../libDaisy/src/hid/disp/display.h ****     }
 282:../../libDaisy/src/hid/disp/display.h **** 
 283:../../libDaisy/src/hid/disp/display.h ****     void DrawArc(uint_fast8_t x,
 284:../../libDaisy/src/hid/disp/display.h ****                  uint_fast8_t y,
 285:../../libDaisy/src/hid/disp/display.h ****                  uint_fast8_t radius,
 286:../../libDaisy/src/hid/disp/display.h ****                  int_fast16_t start_angle,
 287:../../libDaisy/src/hid/disp/display.h ****                  int_fast16_t sweep,
 288:../../libDaisy/src/hid/disp/display.h ****                  bool         on) override
 289:../../libDaisy/src/hid/disp/display.h ****     {
 290:../../libDaisy/src/hid/disp/display.h ****         // Values to calculate the circle
 291:../../libDaisy/src/hid/disp/display.h ****         int_fast16_t t_x, t_y, err, e2;
 292:../../libDaisy/src/hid/disp/display.h **** 
 293:../../libDaisy/src/hid/disp/display.h ****         // Temporary values to speed up comparisons
 294:../../libDaisy/src/hid/disp/display.h ****         float t_sxy, t_syx, t_sxny, t_synx;
 295:../../libDaisy/src/hid/disp/display.h ****         float t_exy, t_eyx, t_exny, t_eynx;
 296:../../libDaisy/src/hid/disp/display.h **** 
 297:../../libDaisy/src/hid/disp/display.h ****         float start_angle_rad, end_angle_rad;
 298:../../libDaisy/src/hid/disp/display.h ****         float start_x, start_y, end_x, end_y;
 299:../../libDaisy/src/hid/disp/display.h **** 
 300:../../libDaisy/src/hid/disp/display.h ****         bool d1, d2, d3, d4;
 301:../../libDaisy/src/hid/disp/display.h **** 
 302:../../libDaisy/src/hid/disp/display.h ****         d1 = d2 = d3 = d4 = true;
 303:../../libDaisy/src/hid/disp/display.h **** 
ARM GAS  /var/folders/hl/qgbwny5j0fd895c2c41bk3tw0000gp/T//cc3keNI2.s 			page 64


 304:../../libDaisy/src/hid/disp/display.h ****         bool circle = false;
 305:../../libDaisy/src/hid/disp/display.h **** 
 306:../../libDaisy/src/hid/disp/display.h ****         if(sweep < 0)
 307:../../libDaisy/src/hid/disp/display.h ****         {
 308:../../libDaisy/src/hid/disp/display.h ****             start_angle += sweep;
 309:../../libDaisy/src/hid/disp/display.h ****             sweep = -sweep;
 310:../../libDaisy/src/hid/disp/display.h ****         }
 311:../../libDaisy/src/hid/disp/display.h **** 
 312:../../libDaisy/src/hid/disp/display.h ****         start_angle_rad = deg2rad(start_angle);
 313:../../libDaisy/src/hid/disp/display.h ****         end_angle_rad   = deg2rad(start_angle + sweep);
 314:../../libDaisy/src/hid/disp/display.h **** 
 315:../../libDaisy/src/hid/disp/display.h ****         start_x = cos(start_angle_rad) * radius;
 316:../../libDaisy/src/hid/disp/display.h ****         start_y = -sin(start_angle_rad) * radius;
 317:../../libDaisy/src/hid/disp/display.h ****         end_x   = cos(end_angle_rad) * radius;
 318:../../libDaisy/src/hid/disp/display.h ****         end_y   = -sin(end_angle_rad) * radius;
 319:../../libDaisy/src/hid/disp/display.h **** 
 320:../../libDaisy/src/hid/disp/display.h ****         // Check if start and endpoint are very near
 321:../../libDaisy/src/hid/disp/display.h ****         if((end_x - start_x) * (end_x - start_x)
 322:../../libDaisy/src/hid/disp/display.h ****                + (end_y - start_y) * (end_y - start_y)
 323:../../libDaisy/src/hid/disp/display.h ****            < 2.0f)
 324:../../libDaisy/src/hid/disp/display.h ****         {
 325:../../libDaisy/src/hid/disp/display.h ****             if(sweep > 180)
 326:../../libDaisy/src/hid/disp/display.h ****                 circle = true;
 327:../../libDaisy/src/hid/disp/display.h ****             else
 328:../../libDaisy/src/hid/disp/display.h ****                 // Nothing to draw
 329:../../libDaisy/src/hid/disp/display.h ****                 return;
 330:../../libDaisy/src/hid/disp/display.h ****         }
 331:../../libDaisy/src/hid/disp/display.h **** 
 332:../../libDaisy/src/hid/disp/display.h ****         t_x = -radius;
 333:../../libDaisy/src/hid/disp/display.h ****         t_y = 0;
 334:../../libDaisy/src/hid/disp/display.h ****         err = 2 - 2 * radius;
 335:../../libDaisy/src/hid/disp/display.h **** 
 336:../../libDaisy/src/hid/disp/display.h ****         do
 337:../../libDaisy/src/hid/disp/display.h ****         {
 338:../../libDaisy/src/hid/disp/display.h ****             if(!circle)
 339:../../libDaisy/src/hid/disp/display.h ****             {
 340:../../libDaisy/src/hid/disp/display.h ****                 t_sxy  = start_x * t_y;
 341:../../libDaisy/src/hid/disp/display.h ****                 t_syx  = start_y * t_x;
 342:../../libDaisy/src/hid/disp/display.h ****                 t_sxny = start_x * -t_y;
 343:../../libDaisy/src/hid/disp/display.h ****                 t_synx = start_y * -t_x;
 344:../../libDaisy/src/hid/disp/display.h ****                 t_exy  = end_x * t_y;
 345:../../libDaisy/src/hid/disp/display.h ****                 t_eyx  = end_y * t_x;
 346:../../libDaisy/src/hid/disp/display.h ****                 t_exny = end_x * -t_y;
 347:../../libDaisy/src/hid/disp/display.h ****                 t_eynx = end_y * -t_x;
 348:../../libDaisy/src/hid/disp/display.h **** 
 349:../../libDaisy/src/hid/disp/display.h ****                 if(sweep > 180)
 350:../../libDaisy/src/hid/disp/display.h ****                 {
 351:../../libDaisy/src/hid/disp/display.h ****                     d1 = (t_sxy - t_synx < 0 || t_exy - t_eynx > 0);
 352:../../libDaisy/src/hid/disp/display.h ****                     d2 = (t_sxy - t_syx < 0 || t_exy - t_eyx > 0);
 353:../../libDaisy/src/hid/disp/display.h ****                     d3 = (t_sxny - t_syx < 0 || t_exny - t_eyx > 0);
 354:../../libDaisy/src/hid/disp/display.h ****                     d4 = (t_sxny - t_synx < 0 || t_exny - t_eynx > 0);
 355:../../libDaisy/src/hid/disp/display.h ****                 }
 356:../../libDaisy/src/hid/disp/display.h ****                 else
 357:../../libDaisy/src/hid/disp/display.h ****                 {
 358:../../libDaisy/src/hid/disp/display.h ****                     d1 = (t_sxy - t_synx < 0 && t_exy - t_eynx > 0);
 359:../../libDaisy/src/hid/disp/display.h ****                     d2 = (t_sxy - t_syx < 0 && t_exy - t_eyx > 0);
 360:../../libDaisy/src/hid/disp/display.h ****                     d3 = (t_sxny - t_syx < 0 && t_exny - t_eyx > 0);
ARM GAS  /var/folders/hl/qgbwny5j0fd895c2c41bk3tw0000gp/T//cc3keNI2.s 			page 65


 361:../../libDaisy/src/hid/disp/display.h ****                     d4 = (t_sxny - t_synx < 0 && t_exny - t_eynx > 0);
 362:../../libDaisy/src/hid/disp/display.h ****                 }
 363:../../libDaisy/src/hid/disp/display.h ****             }
 364:../../libDaisy/src/hid/disp/display.h **** 
 365:../../libDaisy/src/hid/disp/display.h ****             if(d1)
 366:../../libDaisy/src/hid/disp/display.h ****                 ((ChildType*)(this))
 367:../../libDaisy/src/hid/disp/display.h ****                     ->ChildType::DrawPixel(x - t_x, y + t_y, on);
 368:../../libDaisy/src/hid/disp/display.h ****             if(d2)
 369:../../libDaisy/src/hid/disp/display.h ****                 ((ChildType*)(this))
 370:../../libDaisy/src/hid/disp/display.h ****                     ->ChildType::DrawPixel(x + t_x, y + t_y, on);
 371:../../libDaisy/src/hid/disp/display.h ****             if(d3)
 372:../../libDaisy/src/hid/disp/display.h ****                 ((ChildType*)(this))
 373:../../libDaisy/src/hid/disp/display.h ****                     ->ChildType::DrawPixel(x + t_x, y - t_y, on);
 374:../../libDaisy/src/hid/disp/display.h ****             if(d4)
 375:../../libDaisy/src/hid/disp/display.h ****                 ((ChildType*)(this))
 376:../../libDaisy/src/hid/disp/display.h ****                     ->ChildType::DrawPixel(x - t_x, y - t_y, on);
 377:../../libDaisy/src/hid/disp/display.h **** 
 378:../../libDaisy/src/hid/disp/display.h ****             e2 = err;
 379:../../libDaisy/src/hid/disp/display.h ****             if(e2 <= t_y)
 380:../../libDaisy/src/hid/disp/display.h ****             {
 381:../../libDaisy/src/hid/disp/display.h ****                 t_y++;
 382:../../libDaisy/src/hid/disp/display.h ****                 err = err + (t_y * 2 + 1);
 383:../../libDaisy/src/hid/disp/display.h ****                 if(-t_x == t_y && e2 <= t_x)
 384:../../libDaisy/src/hid/disp/display.h ****                 {
 385:../../libDaisy/src/hid/disp/display.h ****                     e2 = 0;
 386:../../libDaisy/src/hid/disp/display.h ****                 }
 387:../../libDaisy/src/hid/disp/display.h ****             }
 388:../../libDaisy/src/hid/disp/display.h ****             if(e2 > t_x)
 389:../../libDaisy/src/hid/disp/display.h ****             {
 390:../../libDaisy/src/hid/disp/display.h ****                 t_x++;
 391:../../libDaisy/src/hid/disp/display.h ****                 err = err + (t_x * 2 + 1);
 392:../../libDaisy/src/hid/disp/display.h ****             }
 393:../../libDaisy/src/hid/disp/display.h ****         } while(t_x <= 0);
 394:../../libDaisy/src/hid/disp/display.h ****     }
 395:../../libDaisy/src/hid/disp/display.h **** 
 396:../../libDaisy/src/hid/disp/display.h ****     char WriteChar(char ch, FontDef font, bool on) override
 397:../../libDaisy/src/hid/disp/display.h ****     {
 398:../../libDaisy/src/hid/disp/display.h ****         uint32_t i, b, j;
 399:../../libDaisy/src/hid/disp/display.h **** 
 400:../../libDaisy/src/hid/disp/display.h ****         // Check if character is valid
 401:../../libDaisy/src/hid/disp/display.h ****         if(ch < 32 || ch > 126)
 402:../../libDaisy/src/hid/disp/display.h ****             return 0;
 403:../../libDaisy/src/hid/disp/display.h **** 
 404:../../libDaisy/src/hid/disp/display.h ****         // Check remaining space on current line
 405:../../libDaisy/src/hid/disp/display.h ****         if(Width() < (currentX_ + font.FontWidth)
 406:../../libDaisy/src/hid/disp/display.h ****            || Height() < (currentY_ + font.FontHeight))
 407:../../libDaisy/src/hid/disp/display.h ****         {
 408:../../libDaisy/src/hid/disp/display.h ****             // Not enough space on current line
 409:../../libDaisy/src/hid/disp/display.h ****             return 0;
 410:../../libDaisy/src/hid/disp/display.h ****         }
 411:../../libDaisy/src/hid/disp/display.h **** 
 412:../../libDaisy/src/hid/disp/display.h ****         // Use the font to write
 413:../../libDaisy/src/hid/disp/display.h ****         for(i = 0; i < font.FontHeight; i++)
 414:../../libDaisy/src/hid/disp/display.h ****         {
 415:../../libDaisy/src/hid/disp/display.h ****             b = font.data[(ch - 32) * font.FontHeight + i];
 416:../../libDaisy/src/hid/disp/display.h ****             for(j = 0; j < font.FontWidth; j++)
 417:../../libDaisy/src/hid/disp/display.h ****             {
ARM GAS  /var/folders/hl/qgbwny5j0fd895c2c41bk3tw0000gp/T//cc3keNI2.s 			page 66


 418:../../libDaisy/src/hid/disp/display.h ****                 if((b << j) & 0x8000)
 419:../../libDaisy/src/hid/disp/display.h ****                 {
 420:../../libDaisy/src/hid/disp/display.h ****                     ((ChildType*)(this))
 421:../../libDaisy/src/hid/disp/display.h ****                         ->ChildType::DrawPixel(
 422:../../libDaisy/src/hid/disp/display.h ****                             currentX_ + j, (currentY_ + i), on);
 423:../../libDaisy/src/hid/disp/display.h ****                 }
 424:../../libDaisy/src/hid/disp/display.h ****                 else
 425:../../libDaisy/src/hid/disp/display.h ****                 {
 426:../../libDaisy/src/hid/disp/display.h ****                     ((ChildType*)(this))
 427:../../libDaisy/src/hid/disp/display.h ****                         ->ChildType::DrawPixel(
 428:../../libDaisy/src/hid/disp/display.h ****                             currentX_ + j, (currentY_ + i), !on);
 429:../../libDaisy/src/hid/disp/display.h ****                 }
 430:../../libDaisy/src/hid/disp/display.h ****             }
 431:../../libDaisy/src/hid/disp/display.h ****         }
 432:../../libDaisy/src/hid/disp/display.h **** 
 433:../../libDaisy/src/hid/disp/display.h ****         // The current space is now taken
 434:../../libDaisy/src/hid/disp/display.h ****         SetCursor(currentX_ + font.FontWidth, currentY_);
 435:../../libDaisy/src/hid/disp/display.h **** 
 436:../../libDaisy/src/hid/disp/display.h ****         // Return written char for validation
 437:../../libDaisy/src/hid/disp/display.h ****         return ch;
 438:../../libDaisy/src/hid/disp/display.h ****     }
 439:../../libDaisy/src/hid/disp/display.h **** 
 440:../../libDaisy/src/hid/disp/display.h ****     char WriteString(const char* str, FontDef font, bool on) override
 1572              		.loc 15 440 10 is_stmt 1 view -0
 1573              		.cfi_startproc
 1574              		@ args = 4, pretend = 0, frame = 32
 1575              		@ frame_needed = 0, uses_anonymous_args = 0
 1576              		.loc 15 440 10 is_stmt 0 view .LVU384
 1577 0000 2DE9F04F 		push	{r4, r5, r6, r7, r8, r9, r10, fp, lr}
 1578              		.cfi_def_cfa_offset 36
 1579              		.cfi_offset 4, -36
 1580              		.cfi_offset 5, -32
 1581              		.cfi_offset 6, -28
 1582              		.cfi_offset 7, -24
 1583              		.cfi_offset 8, -20
 1584              		.cfi_offset 9, -16
 1585              		.cfi_offset 10, -12
 1586              		.cfi_offset 11, -8
 1587              		.cfi_offset 14, -4
 1588 0004 89B0     		sub	sp, sp, #36
 1589              		.cfi_def_cfa_offset 72
 1590              		.loc 15 440 10 view .LVU385
 1591 0006 08AC     		add	r4, sp, #32
 1592 0008 9DF84870 		ldrb	r7, [sp, #72]	@ zero_extendqisi2
 1593 000c 0191     		str	r1, [sp, #4]
 1594 000e 04E90C00 		stmdb	r4, {r2, r3}
 441:../../libDaisy/src/hid/disp/display.h ****     {
 442:../../libDaisy/src/hid/disp/display.h ****         // Write until null-byte
 443:../../libDaisy/src/hid/disp/display.h ****         while(*str)
 1595              		.loc 15 443 9 is_stmt 1 view .LVU386
 1596 0012 0B78     		ldrb	r3, [r1]	@ zero_extendqisi2
 1597 0014 002B     		cmp	r3, #0
 1598 0016 00F0AB80 		beq	.L68
 1599 001a 1A46     		mov	r2, r3
 1600 001c 9DF81880 		ldrb	r8, [sp, #24]	@ zero_extendqisi2
 1601 0020 9DF81930 		ldrb	r3, [sp, #25]	@ zero_extendqisi2
 1602 0024 0646     		mov	r6, r0
ARM GAS  /var/folders/hl/qgbwny5j0fd895c2c41bk3tw0000gp/T//cc3keNI2.s 			page 67


 1603 0026 4546     		mov	r5, r8
 1604 0028 9046     		mov	r8, r2
 1605 002a 0393     		str	r3, [sp, #12]
 1606 002c 079B     		ldr	r3, [sp, #28]
 1607 002e 0593     		str	r3, [sp, #20]
 1608              	.LVL94:
 1609              	.L69:
 1610              	.LBB992:
 1611              	.LBI992:
 396:../../libDaisy/src/hid/disp/display.h ****     {
 1612              		.loc 15 396 10 view .LVU387
 1613              	.LBB993:
 401:../../libDaisy/src/hid/disp/display.h ****             return 0;
 1614              		.loc 15 401 20 is_stmt 0 view .LVU388
 1615 0030 A8F12004 		sub	r4, r8, #32
 401:../../libDaisy/src/hid/disp/display.h ****             return 0;
 1616              		.loc 15 401 9 view .LVU389
 1617 0034 E3B2     		uxtb	r3, r4
 1618 0036 5E2B     		cmp	r3, #94
 1619 0038 00F29E80 		bhi	.L50
 405:../../libDaisy/src/hid/disp/display.h ****            || Height() < (currentY_ + font.FontHeight))
 1620              		.loc 15 405 17 view .LVU390
 1621 003c 3368     		ldr	r3, [r6]
 1622 003e 5E4A     		ldr	r2, .L90
 1623 0040 DB68     		ldr	r3, [r3, #12]
 1624 0042 9342     		cmp	r3, r2
 1625 0044 40F09B80 		bne	.L83
 1626 0048 8020     		movs	r0, #128
 1627              	.L49:
 405:../../libDaisy/src/hid/disp/display.h ****            || Height() < (currentY_ + font.FontHeight))
 1628              		.loc 15 405 23 view .LVU391
 1629 004a B388     		ldrh	r3, [r6, #4]
 405:../../libDaisy/src/hid/disp/display.h ****            || Height() < (currentY_ + font.FontHeight))
 1630              		.loc 15 405 33 view .LVU392
 1631 004c 2B44     		add	r3, r3, r5
 406:../../libDaisy/src/hid/disp/display.h ****         {
 1632              		.loc 15 406 12 view .LVU393
 1633 004e 8342     		cmp	r3, r0
 1634 0050 00F39280 		bgt	.L50
 406:../../libDaisy/src/hid/disp/display.h ****         {
 1635              		.loc 15 406 21 view .LVU394
 1636 0054 3368     		ldr	r3, [r6]
 1637 0056 594A     		ldr	r2, .L90+4
 1638 0058 9B68     		ldr	r3, [r3, #8]
 1639 005a 9342     		cmp	r3, r2
 1640 005c 40F09280 		bne	.L84
 1641 0060 4020     		movs	r0, #64
 1642              	.L51:
 406:../../libDaisy/src/hid/disp/display.h ****         {
 1643              		.loc 15 406 27 view .LVU395
 1644 0062 F188     		ldrh	r1, [r6, #6]
 406:../../libDaisy/src/hid/disp/display.h ****         {
 1645              		.loc 15 406 37 view .LVU396
 1646 0064 039A     		ldr	r2, [sp, #12]
 406:../../libDaisy/src/hid/disp/display.h ****         {
 1647              		.loc 15 406 27 view .LVU397
 1648 0066 0291     		str	r1, [sp, #8]
ARM GAS  /var/folders/hl/qgbwny5j0fd895c2c41bk3tw0000gp/T//cc3keNI2.s 			page 68


 406:../../libDaisy/src/hid/disp/display.h ****         {
 1649              		.loc 15 406 37 view .LVU398
 1650 0068 8B18     		adds	r3, r1, r2
 406:../../libDaisy/src/hid/disp/display.h ****         {
 1651              		.loc 15 406 12 view .LVU399
 1652 006a 8342     		cmp	r3, r0
 1653 006c 00F38480 		bgt	.L50
 1654              	.LVL95:
 413:../../libDaisy/src/hid/disp/display.h ****         {
 1655              		.loc 15 413 22 is_stmt 1 view .LVU400
 1656 0070 002A     		cmp	r2, #0
 1657 0072 00F09180 		beq	.L52
 415:../../libDaisy/src/hid/disp/display.h ****             for(j = 0; j < font.FontWidth; j++)
 1658              		.loc 15 415 37 is_stmt 0 view .LVU401
 1659 0076 02FB04F4 		mul	r4, r2, r4
 1660 007a 6FF00049 		mvn	r9, #-2147483648
 1661 007e 059B     		ldr	r3, [sp, #20]
 1662 0080 A144     		add	r9, r9, r4
 1663 0082 1444     		add	r4, r4, r2
 434:../../libDaisy/src/hid/disp/display.h **** 
 1664              		.loc 15 434 19 view .LVU402
 1665 0084 B6F804B0 		ldrh	fp, [r6, #4]
 1666 0088 03EB4909 		add	r9, r3, r9, lsl #1
 1667 008c 023B     		subs	r3, r3, #2
 1668 008e CDF81080 		str	r8, [sp, #16]
 1669 0092 03EB4403 		add	r3, r3, r4, lsl #1
 1670 0096 0C46     		mov	r4, r1
 1671 0098 9A46     		mov	r10, r3
 1672              	.LVL96:
 1673              	.L55:
 415:../../libDaisy/src/hid/disp/display.h ****             for(j = 0; j < font.FontWidth; j++)
 1674              		.loc 15 415 15 view .LVU403
 1675 009a 39F802CF 		ldrh	ip, [r9, #2]!
 1676              	.LVL97:
 416:../../libDaisy/src/hid/disp/display.h ****             {
 1677              		.loc 15 416 26 is_stmt 1 view .LVU404
 1678 009e A5B3     		cbz	r5, .L60
 1679              	.LBB994:
 1680              	.LBB995:
 1681              	.LBB996:
 1682              	.LBB997:
 1683              	.LBB998:
 359:../../libDaisy/src/dev/oled_ssd130x.h ****     }
 1684              		.loc 12 359 55 is_stmt 0 view .LVU405
 1685 00a0 04F00703 		and	r3, r4, #7
 359:../../libDaisy/src/dev/oled_ssd130x.h ****     }
 1686              		.loc 12 359 49 view .LVU406
 1687 00a4 4FF0010E 		mov	lr, #1
 359:../../libDaisy/src/dev/oled_ssd130x.h ****     }
 1688              		.loc 12 359 28 view .LVU407
 1689 00a8 E208     		lsrs	r2, r4, #3
 1690 00aa 5946     		mov	r1, fp
 359:../../libDaisy/src/dev/oled_ssd130x.h ****     }
 1691              		.loc 12 359 49 view .LVU408
 1692 00ac 0EFA03FE 		lsl	lr, lr, r3
 1693 00b0 0BF11403 		add	r3, fp, #20
 359:../../libDaisy/src/dev/oled_ssd130x.h ****     }
ARM GAS  /var/folders/hl/qgbwny5j0fd895c2c41bk3tw0000gp/T//cc3keNI2.s 			page 69


 1694              		.loc 12 359 42 view .LVU409
 1695 00b4 4FFA8EFE 		sxtb	lr, lr
 1696 00b8 03EBC212 		add	r2, r3, r2, lsl #7
 1697              	.LBE998:
 1698              	.LBE997:
 1699              	.LBE996:
 1700              	.LBE995:
 1701              	.LBE994:
 416:../../libDaisy/src/hid/disp/display.h ****             {
 1702              		.loc 15 416 19 view .LVU410
 1703 00bc 0023     		movs	r3, #0
 1704              	.LBB1016:
 1705              	.LBB1011:
 1706              	.LBB1006:
 1707              	.LBB1002:
 1708              	.LBB999:
 359:../../libDaisy/src/dev/oled_ssd130x.h ****     }
 1709              		.loc 12 359 42 view .LVU411
 1710 00be 6FEA0E08 		mvn	r8, lr
 1711 00c2 3244     		add	r2, r2, r6
 1712 00c4 0DE0     		b	.L61
 1713              	.LVL98:
 1714              	.L85:
 359:../../libDaisy/src/dev/oled_ssd130x.h ****     }
 1715              		.loc 12 359 42 view .LVU412
 1716              	.LBE999:
 1717              	.LBE1002:
 1718              	.LBE1006:
 1719              	.LBE1011:
 1720              	.LBE1016:
 1721              	.LBB1017:
 1722              	.LBI1017:
  42:../../libDaisy/src/hid/disp/oled_display.h ****     {
 1723              		.loc 11 42 10 is_stmt 1 view .LVU413
 1724              	.LBB1018:
 1725              	.LBI1018:
 352:../../libDaisy/src/dev/oled_ssd130x.h ****     {
 1726              		.loc 12 352 10 view .LVU414
 1727              	.LBB1019:
 354:../../libDaisy/src/dev/oled_ssd130x.h ****             return;
 1728              		.loc 12 354 9 is_stmt 0 view .LVU415
 1729 00c6 7F29     		cmp	r1, #127
 1730 00c8 06D8     		bhi	.L57
 1731 00ca 3F2C     		cmp	r4, #63
 1732 00cc 04D8     		bhi	.L57
 357:../../libDaisy/src/dev/oled_ssd130x.h ****         else
 1733              		.loc 12 357 42 view .LVU416
 1734 00ce 1078     		ldrb	r0, [r2]	@ zero_extendqisi2
 356:../../libDaisy/src/dev/oled_ssd130x.h ****             buffer_[x + (y / 8) * width] |= (1 << (y % 8));
 1735              		.loc 12 356 9 view .LVU417
 1736 00d0 97B1     		cbz	r7, .L59
 1737              	.L82:
 356:../../libDaisy/src/dev/oled_ssd130x.h ****             buffer_[x + (y / 8) * width] |= (1 << (y % 8));
 1738              		.loc 12 356 9 view .LVU418
 1739              	.LBE1019:
 1740              	.LBE1018:
 1741              	.LBE1017:
ARM GAS  /var/folders/hl/qgbwny5j0fd895c2c41bk3tw0000gp/T//cc3keNI2.s 			page 70


 1742              	.LBB1020:
 1743              	.LBB1012:
 1744              	.LBB1007:
 357:../../libDaisy/src/dev/oled_ssd130x.h ****         else
 1745              		.loc 12 357 42 view .LVU419
 1746 00d2 4EEA0000 		orr	r0, lr, r0
 1747 00d6 1070     		strb	r0, [r2]
 1748              	.L57:
 1749              	.LBE1007:
 1750              	.LBE1012:
 1751              	.LBE1020:
 416:../../libDaisy/src/hid/disp/display.h ****             {
 1752              		.loc 15 416 13 is_stmt 1 view .LVU420
 1753 00d8 0133     		adds	r3, r3, #1
 1754              	.LVL99:
 416:../../libDaisy/src/hid/disp/display.h ****             {
 1755              		.loc 15 416 26 view .LVU421
 1756 00da 0132     		adds	r2, r2, #1
 1757 00dc 0131     		adds	r1, r1, #1
 1758 00de AB42     		cmp	r3, r5
 1759 00e0 13D0     		beq	.L60
 1760              	.LVL100:
 1761              	.L61:
 418:../../libDaisy/src/hid/disp/display.h ****                 {
 1762              		.loc 15 418 23 is_stmt 0 view .LVU422
 1763 00e2 0CFA03F0 		lsl	r0, ip, r3
 418:../../libDaisy/src/hid/disp/display.h ****                 {
 1764              		.loc 15 418 17 view .LVU423
 1765 00e6 0004     		lsls	r0, r0, #16
 1766 00e8 EDD4     		bmi	.L85
 1767              	.LVL101:
 1768              	.LBB1021:
 1769              	.LBI994:
  42:../../libDaisy/src/hid/disp/oled_display.h ****     {
 1770              		.loc 11 42 10 is_stmt 1 view .LVU424
 1771              	.LBB1013:
 1772              	.LBI995:
 352:../../libDaisy/src/dev/oled_ssd130x.h ****     {
 1773              		.loc 12 352 10 view .LVU425
 1774              	.LBB1008:
 354:../../libDaisy/src/dev/oled_ssd130x.h ****             return;
 1775              		.loc 12 354 9 is_stmt 0 view .LVU426
 1776 00ea 7F29     		cmp	r1, #127
 1777 00ec F4D8     		bhi	.L57
 1778 00ee 3F2C     		cmp	r4, #63
 1779 00f0 F2D8     		bhi	.L57
 357:../../libDaisy/src/dev/oled_ssd130x.h ****         else
 1780              		.loc 12 357 42 view .LVU427
 1781 00f2 1078     		ldrb	r0, [r2]	@ zero_extendqisi2
 356:../../libDaisy/src/dev/oled_ssd130x.h ****             buffer_[x + (y / 8) * width] |= (1 << (y % 8));
 1782              		.loc 12 356 9 view .LVU428
 1783 00f4 002F     		cmp	r7, #0
 1784 00f6 ECD0     		beq	.L82
 1785              	.L59:
 1786              	.LVL102:
 1787              	.LBB1003:
 1788              	.LBI997:
ARM GAS  /var/folders/hl/qgbwny5j0fd895c2c41bk3tw0000gp/T//cc3keNI2.s 			page 71


 352:../../libDaisy/src/dev/oled_ssd130x.h ****     {
 1789              		.loc 12 352 10 is_stmt 1 view .LVU429
 352:../../libDaisy/src/dev/oled_ssd130x.h ****     {
 1790              		.loc 12 352 10 is_stmt 0 view .LVU430
 1791              	.LBE1003:
 1792              	.LBE1008:
 1793              	.LBE1013:
 1794              	.LBE1021:
 416:../../libDaisy/src/hid/disp/display.h ****             {
 1795              		.loc 15 416 13 view .LVU431
 1796 00f8 0133     		adds	r3, r3, #1
 1797              	.LVL103:
 1798              	.LBB1022:
 1799              	.LBB1014:
 1800              	.LBB1009:
 1801              	.LBB1004:
 1802              	.LBB1000:
 359:../../libDaisy/src/dev/oled_ssd130x.h ****     }
 1803              		.loc 12 359 42 view .LVU432
 1804 00fa 08EA0000 		and	r0, r8, r0
 1805              	.LBE1000:
 1806              	.LBE1004:
 1807              	.LBE1009:
 1808              	.LBE1014:
 1809              	.LBE1022:
 416:../../libDaisy/src/hid/disp/display.h ****             {
 1810              		.loc 15 416 26 view .LVU433
 1811 00fe 0132     		adds	r2, r2, #1
 1812 0100 0131     		adds	r1, r1, #1
 1813 0102 AB42     		cmp	r3, r5
 1814              	.LBB1023:
 1815              	.LBB1015:
 1816              	.LBB1010:
 1817              	.LBB1005:
 1818              	.LBB1001:
 359:../../libDaisy/src/dev/oled_ssd130x.h ****     }
 1819              		.loc 12 359 42 view .LVU434
 1820 0104 02F8010C 		strb	r0, [r2, #-1]
 359:../../libDaisy/src/dev/oled_ssd130x.h ****     }
 1821              		.loc 12 359 42 view .LVU435
 1822              	.LBE1001:
 1823              	.LBE1005:
 1824              	.LBE1010:
 1825              	.LBE1015:
 1826              	.LBE1023:
 416:../../libDaisy/src/hid/disp/display.h ****             {
 1827              		.loc 15 416 13 is_stmt 1 view .LVU436
 1828              	.LVL104:
 416:../../libDaisy/src/hid/disp/display.h ****             {
 1829              		.loc 15 416 26 view .LVU437
 1830 0108 EBD1     		bne	.L61
 1831              	.LVL105:
 1832              	.L60:
 413:../../libDaisy/src/hid/disp/display.h ****         {
 1833              		.loc 15 413 9 view .LVU438
 413:../../libDaisy/src/hid/disp/display.h ****         {
 1834              		.loc 15 413 22 view .LVU439
ARM GAS  /var/folders/hl/qgbwny5j0fd895c2c41bk3tw0000gp/T//cc3keNI2.s 			page 72


 1835 010a D145     		cmp	r9, r10
 1836 010c 04F10104 		add	r4, r4, #1
 1837 0110 C3D1     		bne	.L55
 1838 0112 DDF81080 		ldr	r8, [sp, #16]
 1839              	.LVL106:
 1840              	.L54:
 1841              	.LBB1024:
 1842              	.LBB1025:
 173:../../libDaisy/src/hid/disp/display.h ****         currentY_ = (y >= Height()) ? Height() - 1 : y;
 1843              		.loc 15 173 33 is_stmt 0 view .LVU440
 1844 0116 3268     		ldr	r2, [r6]
 1845              	.LBE1025:
 1846              	.LBE1024:
 434:../../libDaisy/src/hid/disp/display.h **** 
 1847              		.loc 15 434 18 view .LVU441
 1848 0118 0BEB0504 		add	r4, fp, r5
 1849 011c 2649     		ldr	r1, .L90
 1850              	.LBB1030:
 1851              	.LBB1026:
 173:../../libDaisy/src/hid/disp/display.h ****         currentY_ = (y >= Height()) ? Height() - 1 : y;
 1852              		.loc 15 173 33 view .LVU442
 1853 011e D368     		ldr	r3, [r2, #12]
 1854              	.LBE1026:
 1855              	.LBE1030:
 434:../../libDaisy/src/hid/disp/display.h **** 
 1856              		.loc 15 434 18 view .LVU443
 1857 0120 A4B2     		uxth	r4, r4
 1858              	.LVL107:
 1859              	.LBB1031:
 1860              	.LBI1024:
 171:../../libDaisy/src/hid/disp/display.h ****     {
 1861              		.loc 15 171 10 is_stmt 1 view .LVU444
 1862              	.LBB1027:
 173:../../libDaisy/src/hid/disp/display.h ****         currentY_ = (y >= Height()) ? Height() - 1 : y;
 1863              		.loc 15 173 9 view .LVU445
 1864 0122 8B42     		cmp	r3, r1
 1865 0124 34D1     		bne	.L86
 173:../../libDaisy/src/hid/disp/display.h ****         currentY_ = (y >= Height()) ? Height() - 1 : y;
 1866              		.loc 15 173 33 is_stmt 0 view .LVU446
 1867 0126 8020     		movs	r0, #128
 1868              	.L62:
 173:../../libDaisy/src/hid/disp/display.h ****         currentY_ = (y >= Height()) ? Height() - 1 : y;
 1869              		.loc 15 173 19 view .LVU447
 1870 0128 8442     		cmp	r4, r0
 1871 012a 04D3     		bcc	.L63
 173:../../libDaisy/src/hid/disp/display.h ****         currentY_ = (y >= Height()) ? Height() - 1 : y;
 1872              		.loc 15 173 44 view .LVU448
 1873 012c D368     		ldr	r3, [r2, #12]
 1874 012e 2249     		ldr	r1, .L90
 1875 0130 8B42     		cmp	r3, r1
 1876 0132 3AD1     		bne	.L87
 1877 0134 7F24     		movs	r4, #127
 1878              	.LVL108:
 1879              	.L63:
 174:../../libDaisy/src/hid/disp/display.h ****     }
 1880              		.loc 15 174 34 view .LVU449
 1881 0136 9368     		ldr	r3, [r2, #8]
ARM GAS  /var/folders/hl/qgbwny5j0fd895c2c41bk3tw0000gp/T//cc3keNI2.s 			page 73


 1882 0138 204A     		ldr	r2, .L90+4
 173:../../libDaisy/src/hid/disp/display.h ****         currentY_ = (y >= Height()) ? Height() - 1 : y;
 1883              		.loc 15 173 19 view .LVU450
 1884 013a B480     		strh	r4, [r6, #4]	@ movhi
 174:../../libDaisy/src/hid/disp/display.h ****     }
 1885              		.loc 15 174 9 is_stmt 1 view .LVU451
 1886 013c 9342     		cmp	r3, r2
 1887 013e 24D1     		bne	.L88
 174:../../libDaisy/src/hid/disp/display.h ****     }
 1888              		.loc 15 174 34 is_stmt 0 view .LVU452
 1889 0140 4020     		movs	r0, #64
 1890              	.L65:
 174:../../libDaisy/src/hid/disp/display.h ****     }
 1891              		.loc 15 174 19 view .LVU453
 1892 0142 029B     		ldr	r3, [sp, #8]
 1893 0144 8342     		cmp	r3, r0
 1894 0146 06D3     		bcc	.L66
 174:../../libDaisy/src/hid/disp/display.h ****     }
 1895              		.loc 15 174 46 view .LVU454
 1896 0148 3368     		ldr	r3, [r6]
 1897 014a 1C4A     		ldr	r2, .L90+4
 1898 014c 9B68     		ldr	r3, [r3, #8]
 1899 014e 9342     		cmp	r3, r2
 1900 0150 25D1     		bne	.L89
 1901 0152 3F23     		movs	r3, #63
 1902 0154 0293     		str	r3, [sp, #8]
 1903              	.LVL109:
 1904              	.L66:
 174:../../libDaisy/src/hid/disp/display.h ****     }
 1905              		.loc 15 174 19 view .LVU455
 1906 0156 029B     		ldr	r3, [sp, #8]
 1907 0158 F380     		strh	r3, [r6, #6]	@ movhi
 1908              	.LVL110:
 1909              	.L48:
 174:../../libDaisy/src/hid/disp/display.h ****     }
 1910              		.loc 15 174 19 view .LVU456
 1911              	.LBE1027:
 1912              	.LBE1031:
 1913              	.LBE993:
 1914              	.LBE992:
 444:../../libDaisy/src/hid/disp/display.h ****         {
 445:../../libDaisy/src/hid/disp/display.h ****             if(((ChildType*)(this))->ChildType::WriteChar(*str, font, on)
 446:../../libDaisy/src/hid/disp/display.h ****                != *str)
 1915              		.loc 15 446 16 view .LVU457
 1916 015a 019B     		ldr	r3, [sp, #4]
 1917 015c 1878     		ldrb	r0, [r3]	@ zero_extendqisi2
 445:../../libDaisy/src/hid/disp/display.h ****                != *str)
 1918              		.loc 15 445 13 view .LVU458
 1919 015e 4045     		cmp	r0, r8
 1920 0160 07D1     		bne	.L46
 1921              	.LVL111:
 443:../../libDaisy/src/hid/disp/display.h ****         {
 1922              		.loc 15 443 9 is_stmt 1 view .LVU459
 1923 0162 13F8018F 		ldrb	r8, [r3, #1]!	@ zero_extendqisi2
 1924              	.LVL112:
 443:../../libDaisy/src/hid/disp/display.h ****         {
 1925              		.loc 15 443 9 is_stmt 0 view .LVU460
ARM GAS  /var/folders/hl/qgbwny5j0fd895c2c41bk3tw0000gp/T//cc3keNI2.s 			page 74


 1926 0166 0193     		str	r3, [sp, #4]
 1927 0168 B8F1000F 		cmp	r8, #0
 1928 016c 7FF460AF 		bne	.L69
 1929              	.LVL113:
 1930              	.L68:
 1931              	.LBB1036:
 1932              	.LBB1034:
 402:../../libDaisy/src/hid/disp/display.h **** 
 1933              		.loc 15 402 20 view .LVU461
 1934 0170 0020     		movs	r0, #0
 1935              	.L46:
 1936              	.LBE1034:
 1937              	.LBE1036:
 447:../../libDaisy/src/hid/disp/display.h ****             {
 448:../../libDaisy/src/hid/disp/display.h ****                 // Char could not be written
 449:../../libDaisy/src/hid/disp/display.h ****                 return *str;
 450:../../libDaisy/src/hid/disp/display.h ****             }
 451:../../libDaisy/src/hid/disp/display.h **** 
 452:../../libDaisy/src/hid/disp/display.h ****             // Next char
 453:../../libDaisy/src/hid/disp/display.h ****             str++;
 454:../../libDaisy/src/hid/disp/display.h ****         }
 455:../../libDaisy/src/hid/disp/display.h **** 
 456:../../libDaisy/src/hid/disp/display.h ****         // Everything ok
 457:../../libDaisy/src/hid/disp/display.h ****         return *str;
 458:../../libDaisy/src/hid/disp/display.h ****     }
 1938              		.loc 15 458 5 view .LVU462
 1939 0172 09B0     		add	sp, sp, #36
 1940              		.cfi_remember_state
 1941              		.cfi_def_cfa_offset 36
 1942              		@ sp needed
 1943 0174 BDE8F08F 		pop	{r4, r5, r6, r7, r8, r9, r10, fp, pc}
 1944              	.LVL114:
 1945              	.L50:
 1946              		.cfi_restore_state
 1947              	.LBB1037:
 1948              	.LBB1035:
 402:../../libDaisy/src/hid/disp/display.h **** 
 1949              		.loc 15 402 20 view .LVU463
 1950 0178 4FF00008 		mov	r8, #0
 1951              	.LVL115:
 402:../../libDaisy/src/hid/disp/display.h **** 
 1952              		.loc 15 402 20 view .LVU464
 1953 017c EDE7     		b	.L48
 1954              	.LVL116:
 1955              	.L83:
 405:../../libDaisy/src/hid/disp/display.h ****            || Height() < (currentY_ + font.FontHeight))
 1956              		.loc 15 405 17 view .LVU465
 1957 017e 3046     		mov	r0, r6
 1958 0180 9847     		blx	r3
 1959              	.LVL117:
 1960 0182 62E7     		b	.L49
 1961              	.L84:
 406:../../libDaisy/src/hid/disp/display.h ****         {
 1962              		.loc 15 406 21 view .LVU466
 1963 0184 3046     		mov	r0, r6
 1964 0186 9847     		blx	r3
 1965              	.LVL118:
ARM GAS  /var/folders/hl/qgbwny5j0fd895c2c41bk3tw0000gp/T//cc3keNI2.s 			page 75


 1966 0188 6BE7     		b	.L51
 1967              	.LVL119:
