ARM GAS  /var/folders/hl/qgbwny5j0fd895c2c41bk3tw0000gp/T//ccxZ31iG.s 			page 1


   1              		.cpu cortex-m7
   2              		.eabi_attribute 28, 1
   3              		.eabi_attribute 20, 1
   4              		.eabi_attribute 21, 1
   5              		.eabi_attribute 23, 3
   6              		.eabi_attribute 24, 1
   7              		.eabi_attribute 25, 1
   8              		.eabi_attribute 26, 1
   9              		.eabi_attribute 30, 2
  10              		.eabi_attribute 34, 1
  11              		.eabi_attribute 18, 4
  12              		.file	"thilia.cpp"
  13              		.text
  14              	.Ltext0:
  15              		.cfi_sections	.debug_frame
  16              		.section	.text._ZN5daisy6SwitchD2Ev,"axG",%progbits,_ZN5daisy6SwitchD5Ev,comdat
  17              		.align	1
  18              		.p2align 2,,3
  19              		.weak	_ZN5daisy6SwitchD2Ev
  20              		.arch armv7e-m
  21              		.syntax unified
  22              		.thumb
  23              		.thumb_func
  24              		.fpu fpv5-d16
  26              	_ZN5daisy6SwitchD2Ev:
  27              	.LVL0:
  28              	.LFB1606:
  29              		.file 1 "../../libDaisy//src/hid/switch.h"
   1:../../libDaisy//src/hid/switch.h **** #pragma once
   2:../../libDaisy//src/hid/switch.h **** #ifndef DSY_SWITCH_H
   3:../../libDaisy//src/hid/switch.h **** #define DSY_SWITCH_H
   4:../../libDaisy//src/hid/switch.h **** #include "daisy_core.h"
   5:../../libDaisy//src/hid/switch.h **** #include "per/gpio.h"
   6:../../libDaisy//src/hid/switch.h **** #include "sys/system.h"
   7:../../libDaisy//src/hid/switch.h **** 
   8:../../libDaisy//src/hid/switch.h **** namespace daisy
   9:../../libDaisy//src/hid/switch.h **** {
  10:../../libDaisy//src/hid/switch.h **** /** 
  11:../../libDaisy//src/hid/switch.h ****     Generic Class for handling momentary/latching switches \n 
  12:../../libDaisy//src/hid/switch.h ****     Inspired/influenced by Mutable Instruments (pichenettes) Switch classes
  13:../../libDaisy//src/hid/switch.h ****     @author Stephen Hensley
  14:../../libDaisy//src/hid/switch.h ****     @date December 2019
  15:../../libDaisy//src/hid/switch.h ****     @ingroup controls
  16:../../libDaisy//src/hid/switch.h **** */
  17:../../libDaisy//src/hid/switch.h **** class Switch
  18:../../libDaisy//src/hid/switch.h **** {
  19:../../libDaisy//src/hid/switch.h ****   public:
  20:../../libDaisy//src/hid/switch.h ****     /** Specifies the expected behavior of the switch */
  21:../../libDaisy//src/hid/switch.h ****     enum Type
  22:../../libDaisy//src/hid/switch.h ****     {
  23:../../libDaisy//src/hid/switch.h ****         TYPE_TOGGLE,    /**< & */
  24:../../libDaisy//src/hid/switch.h ****         TYPE_MOMENTARY, /**< & */
  25:../../libDaisy//src/hid/switch.h ****     };
  26:../../libDaisy//src/hid/switch.h ****     /** Specifies whether the pressed is HIGH or LOW. */
  27:../../libDaisy//src/hid/switch.h ****     enum Polarity
  28:../../libDaisy//src/hid/switch.h ****     {
  29:../../libDaisy//src/hid/switch.h ****         POLARITY_NORMAL,   /**< & */
ARM GAS  /var/folders/hl/qgbwny5j0fd895c2c41bk3tw0000gp/T//ccxZ31iG.s 			page 2


  30:../../libDaisy//src/hid/switch.h ****         POLARITY_INVERTED, /**< & */
  31:../../libDaisy//src/hid/switch.h ****     };
  32:../../libDaisy//src/hid/switch.h **** 
  33:../../libDaisy//src/hid/switch.h ****     /** Specifies whether to use built-in Pull Up/Down resistors to hold button at a given state wh
  34:../../libDaisy//src/hid/switch.h ****     enum Pull
  35:../../libDaisy//src/hid/switch.h ****     {
  36:../../libDaisy//src/hid/switch.h ****         PULL_UP,   /**< & */
  37:../../libDaisy//src/hid/switch.h ****         PULL_DOWN, /**< & */
  38:../../libDaisy//src/hid/switch.h ****         PULL_NONE, /**< & */
  39:../../libDaisy//src/hid/switch.h ****     };
  40:../../libDaisy//src/hid/switch.h **** 
  41:../../libDaisy//src/hid/switch.h ****     Switch() {}
  42:../../libDaisy//src/hid/switch.h ****     ~Switch() {}
  30              		.loc 1 42 5 view -0
  31              		.cfi_startproc
  32              		@ args = 0, pretend = 0, frame = 0
  33              		@ frame_needed = 0, uses_anonymous_args = 0
  34              		@ link register save eliminated.
  35              		.loc 1 42 16 is_stmt 0 view .LVU1
  36 0000 7047     		bx	lr
  37              		.cfi_endproc
  38              	.LFE1606:
  40              		.weak	_ZN5daisy6SwitchD1Ev
  41              		.thumb_set _ZN5daisy6SwitchD1Ev,_ZN5daisy6SwitchD2Ev
  42 0002 00BF     		.section	.text._ZN5daisy8patch_sm12DaisyPatchSMD2Ev,"axG",%progbits,_ZN5daisy8patch_sm12DaisyPatch
  43              		.align	1
  44              		.p2align 2,,3
  45              		.weak	_ZN5daisy8patch_sm12DaisyPatchSMD2Ev
  46              		.syntax unified
  47              		.thumb
  48              		.thumb_func
  49              		.fpu fpv5-d16
  51              	_ZN5daisy8patch_sm12DaisyPatchSMD2Ev:
  52              	.LVL1:
  53              	.LFB2529:
  54              		.file 2 "../../libDaisy//src/daisy_patch_sm.h"
   1:../../libDaisy//src/daisy_patch_sm.h **** #pragma once
   2:../../libDaisy//src/daisy_patch_sm.h **** 
   3:../../libDaisy//src/daisy_patch_sm.h **** #include "daisy.h"
   4:../../libDaisy//src/daisy_patch_sm.h **** 
   5:../../libDaisy//src/daisy_patch_sm.h **** namespace daisy
   6:../../libDaisy//src/daisy_patch_sm.h **** {
   7:../../libDaisy//src/daisy_patch_sm.h **** namespace patch_sm
   8:../../libDaisy//src/daisy_patch_sm.h **** {
   9:../../libDaisy//src/daisy_patch_sm.h ****     /** Accessors for the Analog Controls. 
  10:../../libDaisy//src/daisy_patch_sm.h ****      *  These cover the 8x Bipolar CV inputs
  11:../../libDaisy//src/daisy_patch_sm.h ****      *  as well as the 4x 0-3V3 ADC inputs on
  12:../../libDaisy//src/daisy_patch_sm.h ****      *  the hardware 
  13:../../libDaisy//src/daisy_patch_sm.h ****      * 
  14:../../libDaisy//src/daisy_patch_sm.h ****      *  When reading a value with DaisyPatchSM::GetAdcValue()
  15:../../libDaisy//src/daisy_patch_sm.h ****      * 
  16:../../libDaisy//src/daisy_patch_sm.h ****      *  patch.GetAdcValue(patch_sm::CV_1);
  17:../../libDaisy//src/daisy_patch_sm.h ****      */
  18:../../libDaisy//src/daisy_patch_sm.h ****     enum
  19:../../libDaisy//src/daisy_patch_sm.h ****     {
  20:../../libDaisy//src/daisy_patch_sm.h ****         CV_1 = 0,
  21:../../libDaisy//src/daisy_patch_sm.h ****         CV_2,
ARM GAS  /var/folders/hl/qgbwny5j0fd895c2c41bk3tw0000gp/T//ccxZ31iG.s 			page 3


  22:../../libDaisy//src/daisy_patch_sm.h ****         CV_3,
  23:../../libDaisy//src/daisy_patch_sm.h ****         CV_4,
  24:../../libDaisy//src/daisy_patch_sm.h ****         CV_5,
  25:../../libDaisy//src/daisy_patch_sm.h ****         CV_6,
  26:../../libDaisy//src/daisy_patch_sm.h ****         CV_7,
  27:../../libDaisy//src/daisy_patch_sm.h ****         CV_8,
  28:../../libDaisy//src/daisy_patch_sm.h ****         ADC_9,
  29:../../libDaisy//src/daisy_patch_sm.h ****         ADC_10,
  30:../../libDaisy//src/daisy_patch_sm.h ****         ADC_11,
  31:../../libDaisy//src/daisy_patch_sm.h ****         ADC_12,
  32:../../libDaisy//src/daisy_patch_sm.h ****         ADC_LAST,
  33:../../libDaisy//src/daisy_patch_sm.h ****     };
  34:../../libDaisy//src/daisy_patch_sm.h **** 
  35:../../libDaisy//src/daisy_patch_sm.h ****     /** Enum for addressing the CV Outputs via the WriteCvOut function. */
  36:../../libDaisy//src/daisy_patch_sm.h ****     enum
  37:../../libDaisy//src/daisy_patch_sm.h ****     {
  38:../../libDaisy//src/daisy_patch_sm.h ****         CV_OUT_BOTH = 0,
  39:../../libDaisy//src/daisy_patch_sm.h ****         CV_OUT_1,
  40:../../libDaisy//src/daisy_patch_sm.h ****         CV_OUT_2,
  41:../../libDaisy//src/daisy_patch_sm.h ****     };
  42:../../libDaisy//src/daisy_patch_sm.h **** 
  43:../../libDaisy//src/daisy_patch_sm.h **** 
  44:../../libDaisy//src/daisy_patch_sm.h ****     /** @brief Board support file for DaisyPatchSM hardware
  45:../../libDaisy//src/daisy_patch_sm.h ****      *  @author shensley
  46:../../libDaisy//src/daisy_patch_sm.h ****      *  @ingroup boards
  47:../../libDaisy//src/daisy_patch_sm.h ****      * 
  48:../../libDaisy//src/daisy_patch_sm.h ****      *  Daisy Patch SM is a complete Eurorack module DSP engine.
  49:../../libDaisy//src/daisy_patch_sm.h ****      *  Based on the Daisy Seed, with circuits added for 
  50:../../libDaisy//src/daisy_patch_sm.h ****      *  interfacing directly with eurorack modular synthesizers.
  51:../../libDaisy//src/daisy_patch_sm.h ****      */
  52:../../libDaisy//src/daisy_patch_sm.h ****     class DaisyPatchSM
  53:../../libDaisy//src/daisy_patch_sm.h ****     {
  54:../../libDaisy//src/daisy_patch_sm.h ****       public:
  55:../../libDaisy//src/daisy_patch_sm.h ****         /** Helper for mapping pins, and accessing them using the `GetPin` function */
  56:../../libDaisy//src/daisy_patch_sm.h ****         enum class PinBank
  57:../../libDaisy//src/daisy_patch_sm.h ****         {
  58:../../libDaisy//src/daisy_patch_sm.h ****             A,
  59:../../libDaisy//src/daisy_patch_sm.h ****             B,
  60:../../libDaisy//src/daisy_patch_sm.h ****             C,
  61:../../libDaisy//src/daisy_patch_sm.h ****             D
  62:../../libDaisy//src/daisy_patch_sm.h ****         };
  63:../../libDaisy//src/daisy_patch_sm.h **** 
  64:../../libDaisy//src/daisy_patch_sm.h ****         DaisyPatchSM() {}
  65:../../libDaisy//src/daisy_patch_sm.h ****         ~DaisyPatchSM() {}
  55              		.loc 2 65 9 is_stmt 1 view -0
  56              		.cfi_startproc
  57              		@ args = 0, pretend = 0, frame = 0
  58              		@ frame_needed = 0, uses_anonymous_args = 0
  59              		@ link register save eliminated.
  60              	.LBB502:
  61              	.LBI502:
  62              		.file 3 "../../libDaisy//src/hid/gatein.h"
   1:../../libDaisy//src/hid/gatein.h **** #pragma once
   2:../../libDaisy//src/hid/gatein.h **** #ifndef DSY_GATEIN_H
   3:../../libDaisy//src/hid/gatein.h **** #define DSY_GATEIN_H
   4:../../libDaisy//src/hid/gatein.h **** #include "per/gpio.h"
   5:../../libDaisy//src/hid/gatein.h **** 
ARM GAS  /var/folders/hl/qgbwny5j0fd895c2c41bk3tw0000gp/T//ccxZ31iG.s 			page 4


   6:../../libDaisy//src/hid/gatein.h **** namespace daisy
   7:../../libDaisy//src/hid/gatein.h **** {
   8:../../libDaisy//src/hid/gatein.h **** /**
   9:../../libDaisy//src/hid/gatein.h ****    @brief Generic Class for handling gate inputs through GPIO.
  10:../../libDaisy//src/hid/gatein.h ****    @author Stephen Hensley
  11:../../libDaisy//src/hid/gatein.h ****    @date    March 2020
  12:../../libDaisy//src/hid/gatein.h ****    @ingroup controls
  13:../../libDaisy//src/hid/gatein.h **** */
  14:../../libDaisy//src/hid/gatein.h **** class GateIn
  15:../../libDaisy//src/hid/gatein.h **** {
  16:../../libDaisy//src/hid/gatein.h ****   public:
  17:../../libDaisy//src/hid/gatein.h ****     /** GateIn 
  18:../../libDaisy//src/hid/gatein.h ****     Constructor 
  19:../../libDaisy//src/hid/gatein.h ****     */
  20:../../libDaisy//src/hid/gatein.h ****     GateIn() {}
  21:../../libDaisy//src/hid/gatein.h ****     /** GateIn~
  22:../../libDaisy//src/hid/gatein.h ****     Destructor 
  23:../../libDaisy//src/hid/gatein.h ****     */
  24:../../libDaisy//src/hid/gatein.h ****     ~GateIn() {}
  63              		.loc 3 24 5 view .LVU3
  64              		.loc 3 24 5 is_stmt 0 view .LVU4
  65              	.LBE502:
  66              	.LBB503:
  67              	.LBI503:
  68              		.loc 3 24 5 is_stmt 1 view .LVU5
  69              		.loc 3 24 5 is_stmt 0 view .LVU6
  70              	.LBE503:
  71              	.LBB504:
  72              	.LBI504:
  73              		.file 4 "../../libDaisy//src/dev/codec_pcm3060.h"
   1:../../libDaisy//src/dev/codec_pcm3060.h **** #pragma once
   2:../../libDaisy//src/dev/codec_pcm3060.h **** #ifndef DSY_CODEC_PCM3060_H
   3:../../libDaisy//src/dev/codec_pcm3060.h **** #define DSY_CODEC_PCM3060_H
   4:../../libDaisy//src/dev/codec_pcm3060.h **** #include "per/i2c.h"
   5:../../libDaisy//src/dev/codec_pcm3060.h **** namespace daisy
   6:../../libDaisy//src/dev/codec_pcm3060.h **** {
   7:../../libDaisy//src/dev/codec_pcm3060.h **** /**
   8:../../libDaisy//src/dev/codec_pcm3060.h ****  * @brief Driver for the TI PCM3060 Audio Codec.
   9:../../libDaisy//src/dev/codec_pcm3060.h ****  * @addtogroup codec
  10:../../libDaisy//src/dev/codec_pcm3060.h ****  * 
  11:../../libDaisy//src/dev/codec_pcm3060.h ****  * For now this is a limited interface that uses I2C to communicate with the PCM3060
  12:../../libDaisy//src/dev/codec_pcm3060.h ****  * The device can also be accessed with SPI, which is not yet supported.
  13:../../libDaisy//src/dev/codec_pcm3060.h ****  * 
  14:../../libDaisy//src/dev/codec_pcm3060.h ****  * For now all registers are set to their defaults, and the Init function will 
  15:../../libDaisy//src/dev/codec_pcm3060.h ****  * perform a MRST and SRST before setting the format to 24bit LJ, and disabling 
  16:../../libDaisy//src/dev/codec_pcm3060.h ****  * power save for both the ADC and DAC.
  17:../../libDaisy//src/dev/codec_pcm3060.h ****  *
  18:../../libDaisy//src/dev/codec_pcm3060.h ****  */
  19:../../libDaisy//src/dev/codec_pcm3060.h **** class Pcm3060
  20:../../libDaisy//src/dev/codec_pcm3060.h **** {
  21:../../libDaisy//src/dev/codec_pcm3060.h ****   public:
  22:../../libDaisy//src/dev/codec_pcm3060.h ****     enum class Result
  23:../../libDaisy//src/dev/codec_pcm3060.h ****     {
  24:../../libDaisy//src/dev/codec_pcm3060.h ****         OK,
  25:../../libDaisy//src/dev/codec_pcm3060.h ****         ERR,
  26:../../libDaisy//src/dev/codec_pcm3060.h ****     };
  27:../../libDaisy//src/dev/codec_pcm3060.h **** 
ARM GAS  /var/folders/hl/qgbwny5j0fd895c2c41bk3tw0000gp/T//ccxZ31iG.s 			page 5


  28:../../libDaisy//src/dev/codec_pcm3060.h ****     Pcm3060() {}
  29:../../libDaisy//src/dev/codec_pcm3060.h ****     ~Pcm3060() {}
  74              		.loc 4 29 5 is_stmt 1 view .LVU7
  75              		.loc 4 29 5 is_stmt 0 view .LVU8
  76              	.LBE504:
  77              	.LBB505:
  78              	.LBI505:
  79              		.file 5 "../../libDaisy//src/hid/usb.h"
   1:../../libDaisy//src/hid/usb.h **** #pragma once
   2:../../libDaisy//src/hid/usb.h **** #ifndef DSY_HID_USB_H
   3:../../libDaisy//src/hid/usb.h **** #define DSY_HID_USB_H
   4:../../libDaisy//src/hid/usb.h **** #include <stdint.h>
   5:../../libDaisy//src/hid/usb.h **** #include <stdlib.h>
   6:../../libDaisy//src/hid/usb.h **** 
   7:../../libDaisy//src/hid/usb.h **** namespace daisy
   8:../../libDaisy//src/hid/usb.h **** /** @addtogroup human_interface
   9:../../libDaisy//src/hid/usb.h ****     @{
  10:../../libDaisy//src/hid/usb.h **** */
  11:../../libDaisy//src/hid/usb.h **** 
  12:../../libDaisy//src/hid/usb.h **** {
  13:../../libDaisy//src/hid/usb.h **** /** 
  14:../../libDaisy//src/hid/usb.h ****     @brief Interface for initializing and using the USB Peripherals on the daisy
  15:../../libDaisy//src/hid/usb.h ****     @author Stephen Hensley
  16:../../libDaisy//src/hid/usb.h ****     @date December 2019
  17:../../libDaisy//src/hid/usb.h **** */
  18:../../libDaisy//src/hid/usb.h **** class UsbHandle
  19:../../libDaisy//src/hid/usb.h **** {
  20:../../libDaisy//src/hid/usb.h ****   public:
  21:../../libDaisy//src/hid/usb.h ****     /** Return values for USBHandle Functions */
  22:../../libDaisy//src/hid/usb.h ****     enum class Result
  23:../../libDaisy//src/hid/usb.h ****     {
  24:../../libDaisy//src/hid/usb.h ****         OK,
  25:../../libDaisy//src/hid/usb.h ****         ERR,
  26:../../libDaisy//src/hid/usb.h ****     };
  27:../../libDaisy//src/hid/usb.h **** 
  28:../../libDaisy//src/hid/usb.h ****     /** Specified which of the two USB Peripherals to initialize. */
  29:../../libDaisy//src/hid/usb.h ****     enum UsbPeriph
  30:../../libDaisy//src/hid/usb.h ****     {
  31:../../libDaisy//src/hid/usb.h ****         FS_INTERNAL, /**< Internal pin */
  32:../../libDaisy//src/hid/usb.h ****         FS_EXTERNAL, /**< FS External D+ pin is Pin 38 (GPIO32). FS External D- pin is Pin 37 (GPIO
  33:../../libDaisy//src/hid/usb.h ****         FS_BOTH,     /**< Both */
  34:../../libDaisy//src/hid/usb.h ****     };
  35:../../libDaisy//src/hid/usb.h **** 
  36:../../libDaisy//src/hid/usb.h **** 
  37:../../libDaisy//src/hid/usb.h ****     /** Function called upon reception of a buffer */
  38:../../libDaisy//src/hid/usb.h ****     typedef void (*ReceiveCallback)(uint8_t* buff, uint32_t* len);
  39:../../libDaisy//src/hid/usb.h **** 
  40:../../libDaisy//src/hid/usb.h ****     UsbHandle() {}
  41:../../libDaisy//src/hid/usb.h **** 
  42:../../libDaisy//src/hid/usb.h ****     ~UsbHandle() {}
  80              		.loc 5 42 5 is_stmt 1 view .LVU9
  81              		.loc 5 42 5 is_stmt 0 view .LVU10
  82              	.LBE505:
  83              	.LBB506:
  84              	.LBI506:
  85              		.file 6 "../../libDaisy//src/per/adc.h"
   1:../../libDaisy//src/per/adc.h **** #pragma once
ARM GAS  /var/folders/hl/qgbwny5j0fd895c2c41bk3tw0000gp/T//ccxZ31iG.s 			page 6


   2:../../libDaisy//src/per/adc.h **** #ifndef DSY_ADC_H
   3:../../libDaisy//src/per/adc.h **** #define DSY_ADC_H /**< Macro */
   4:../../libDaisy//src/per/adc.h **** #include <stdint.h>
   5:../../libDaisy//src/per/adc.h **** #include <stdlib.h>
   6:../../libDaisy//src/per/adc.h **** #include "daisy_core.h"
   7:../../libDaisy//src/per/adc.h **** #include "per/gpio.h"
   8:../../libDaisy//src/per/adc.h **** 
   9:../../libDaisy//src/per/adc.h **** #define DSY_ADC_MAX_CHANNELS 16 /**< Maximum number of ADC channels */
  10:../../libDaisy//src/per/adc.h **** 
  11:../../libDaisy//src/per/adc.h **** namespace daisy
  12:../../libDaisy//src/per/adc.h **** {
  13:../../libDaisy//src/per/adc.h **** /** @addtogroup per_analog
  14:../../libDaisy//src/per/adc.h ****     @{
  15:../../libDaisy//src/per/adc.h **** */
  16:../../libDaisy//src/per/adc.h **** 
  17:../../libDaisy//src/per/adc.h **** /* While there may not be many configuration options here,
  18:../../libDaisy//src/per/adc.h **** using a struct like this allows us to add more configuration
  19:../../libDaisy//src/per/adc.h **** later without breaking existing functionality.
  20:../../libDaisy//src/per/adc.h **** */
  21:../../libDaisy//src/per/adc.h **** 
  22:../../libDaisy//src/per/adc.h **** /** @brief   Configuration Structure for an ADC Channel 
  23:../../libDaisy//src/per/adc.h ****  *  @details This can be used to configure a a single input, 
  24:../../libDaisy//src/per/adc.h ****  *           or a multiplexed input, allowing up to 8 inputs on 
  25:../../libDaisy//src/per/adc.h ****  *           one channel.
  26:../../libDaisy//src/per/adc.h ****  *  @note    Sharing data lines to multiple muxes _is_ possible, but
  27:../../libDaisy//src/per/adc.h ****  *           each channel sharing data lines must be set to the maximum
  28:../../libDaisy//src/per/adc.h ****  *           number of channels, even if some multiplexers have fewer
  29:../../libDaisy//src/per/adc.h ****  *           inputs connected.
  30:../../libDaisy//src/per/adc.h **** */
  31:../../libDaisy//src/per/adc.h **** struct AdcChannelConfig
  32:../../libDaisy//src/per/adc.h **** {
  33:../../libDaisy//src/per/adc.h ****     /** Which pin to use for multiplexing */
  34:../../libDaisy//src/per/adc.h ****     enum MuxPin
  35:../../libDaisy//src/per/adc.h ****     {
  36:../../libDaisy//src/per/adc.h ****         MUX_SEL_0,    /**< & */
  37:../../libDaisy//src/per/adc.h ****         MUX_SEL_1,    /**< & */
  38:../../libDaisy//src/per/adc.h ****         MUX_SEL_2,    /**< & */
  39:../../libDaisy//src/per/adc.h ****         MUX_SEL_LAST, /**< & */
  40:../../libDaisy//src/per/adc.h ****     };
  41:../../libDaisy//src/per/adc.h **** 
  42:../../libDaisy//src/per/adc.h ****     /** Initializes a single ADC pin as an ADC. 
  43:../../libDaisy//src/per/adc.h ****     \param pin Pin to init.
  44:../../libDaisy//src/per/adc.h ****      */
  45:../../libDaisy//src/per/adc.h ****     void InitSingle(dsy_gpio_pin pin);
  46:../../libDaisy//src/per/adc.h **** 
  47:../../libDaisy//src/per/adc.h ****     /** 
  48:../../libDaisy//src/per/adc.h ****     Initializes a single ADC pin as a Multiplexed ADC.
  49:../../libDaisy//src/per/adc.h ****     Requires a CD405X Multiplexer connected to the pin.
  50:../../libDaisy//src/per/adc.h ****     You only need to supply the mux pins that are required,
  51:../../libDaisy//src/per/adc.h ****     e.g. a 4052 mux would only require mux_0 and mux_1.
  52:../../libDaisy//src/per/adc.h ****     Internal Callbacks handle the pin addressing.
  53:../../libDaisy//src/per/adc.h ****     \param mux_channels must be 1-8
  54:../../libDaisy//src/per/adc.h ****     \param mux_0 First mux pin
  55:../../libDaisy//src/per/adc.h ****     \param mux_1 Second mux pin
  56:../../libDaisy//src/per/adc.h ****     \param mux_2 Third mux pin
  57:../../libDaisy//src/per/adc.h ****     \param adc_pin &
  58:../../libDaisy//src/per/adc.h ****     */
ARM GAS  /var/folders/hl/qgbwny5j0fd895c2c41bk3tw0000gp/T//ccxZ31iG.s 			page 7


  59:../../libDaisy//src/per/adc.h ****     void InitMux(dsy_gpio_pin adc_pin,
  60:../../libDaisy//src/per/adc.h ****                  size_t       mux_channels,
  61:../../libDaisy//src/per/adc.h ****                  dsy_gpio_pin mux_0,
  62:../../libDaisy//src/per/adc.h ****                  dsy_gpio_pin mux_1 = {DSY_GPIOX, 0},
  63:../../libDaisy//src/per/adc.h ****                  dsy_gpio_pin mux_2 = {DSY_GPIOX, 0});
  64:../../libDaisy//src/per/adc.h **** 
  65:../../libDaisy//src/per/adc.h ****     dsy_gpio pin_;                   /**< & */
  66:../../libDaisy//src/per/adc.h ****     dsy_gpio mux_pin_[MUX_SEL_LAST]; /**< & */
  67:../../libDaisy//src/per/adc.h ****     uint8_t  mux_channels_;          /**< & */
  68:../../libDaisy//src/per/adc.h **** };
  69:../../libDaisy//src/per/adc.h **** 
  70:../../libDaisy//src/per/adc.h **** /**
  71:../../libDaisy//src/per/adc.h ****    @brief Handler for analog to digital conversion
  72:../../libDaisy//src/per/adc.h **** */
  73:../../libDaisy//src/per/adc.h **** class AdcHandle
  74:../../libDaisy//src/per/adc.h **** {
  75:../../libDaisy//src/per/adc.h ****   public:
  76:../../libDaisy//src/per/adc.h ****     /** Supported oversampling amounts */
  77:../../libDaisy//src/per/adc.h ****     enum OverSampling
  78:../../libDaisy//src/per/adc.h ****     {
  79:../../libDaisy//src/per/adc.h ****         OVS_NONE, /**< & */
  80:../../libDaisy//src/per/adc.h ****         OVS_4,    /**< & */
  81:../../libDaisy//src/per/adc.h ****         OVS_8,    /**< & */
  82:../../libDaisy//src/per/adc.h ****         OVS_16,   /**< & */
  83:../../libDaisy//src/per/adc.h ****         OVS_32,   /**< & */
  84:../../libDaisy//src/per/adc.h ****         OVS_64,   /**< & */
  85:../../libDaisy//src/per/adc.h ****         OVS_128,  /**< & */
  86:../../libDaisy//src/per/adc.h ****         OVS_256,  /**< & */
  87:../../libDaisy//src/per/adc.h ****         OVS_512,  /**< & */
  88:../../libDaisy//src/per/adc.h ****         OVS_1024, /**< & */
  89:../../libDaisy//src/per/adc.h ****         OVS_LAST, /**< & */
  90:../../libDaisy//src/per/adc.h ****     };
  91:../../libDaisy//src/per/adc.h **** 
  92:../../libDaisy//src/per/adc.h ****     AdcHandle() {}
  93:../../libDaisy//src/per/adc.h ****     ~AdcHandle() {}
  86              		.loc 6 93 5 is_stmt 1 view .LVU11
  87              		.loc 6 93 5 is_stmt 0 view .LVU12
  88              	.LBE506:
  89              	.LBB507:
  90              	.LBI507:
  91              		.file 7 "../../libDaisy//src/hid/audio.h"
   1:../../libDaisy//src/hid/audio.h **** #ifndef DSY_AUDIO_H
   2:../../libDaisy//src/hid/audio.h **** #define DSY_AUDIO_H /**< & */
   3:../../libDaisy//src/hid/audio.h **** 
   4:../../libDaisy//src/hid/audio.h **** #include "per/sai.h"
   5:../../libDaisy//src/hid/audio.h **** 
   6:../../libDaisy//src/hid/audio.h **** namespace daisy
   7:../../libDaisy//src/hid/audio.h **** {
   8:../../libDaisy//src/hid/audio.h **** /** @brief Audio Engine Handle
   9:../../libDaisy//src/hid/audio.h ****  *  @ingroup audio 
  10:../../libDaisy//src/hid/audio.h ****  *  @details This class allows for higher level access to an audio engine.
  11:../../libDaisy//src/hid/audio.h ****  *           If you're using a SOM like the DaisySeed or DaisyPatchSM (or any 
  12:../../libDaisy//src/hid/audio.h ****  *            board that includes one of those objects) then the intialization
  13:../../libDaisy//src/hid/audio.h ****  *            is already taken  care of.
  14:../../libDaisy//src/hid/audio.h ****  *           If you're setting up your own custom hardware, or need to make changes
  15:../../libDaisy//src/hid/audio.h ****  *           you will have to take the following steps:
  16:../../libDaisy//src/hid/audio.h ****  *             1. Create and Initialize an SaiHandle or two depending on your requirements
ARM GAS  /var/folders/hl/qgbwny5j0fd895c2c41bk3tw0000gp/T//ccxZ31iG.s 			page 8


  17:../../libDaisy//src/hid/audio.h ****  *             2. Initialize the Audio Handle with the desired settings and the Initialized SaiHand
  18:../../libDaisy//src/hid/audio.h ****  *             3. If the connected codec requires special configuration or initialization, do so
  19:../../libDaisy//src/hid/audio.h ****  *             4. Write a callback method using either the AudioCallback or the InterleavingAudioCa
  20:../../libDaisy//src/hid/audio.h ****  *             5. Start the Audio using one of the StartAudio function
  21:../../libDaisy//src/hid/audio.h ****  */
  22:../../libDaisy//src/hid/audio.h **** class AudioHandle
  23:../../libDaisy//src/hid/audio.h **** {
  24:../../libDaisy//src/hid/audio.h ****   public:
  25:../../libDaisy//src/hid/audio.h ****     /** Manually configurable details about the Audio Engine */
  26:../../libDaisy//src/hid/audio.h ****     /** TODO: Figure out how to get samplerate in here. */
  27:../../libDaisy//src/hid/audio.h ****     struct Config
  28:../../libDaisy//src/hid/audio.h ****     {
  29:../../libDaisy//src/hid/audio.h ****         /** number of samples to process per callback */
  30:../../libDaisy//src/hid/audio.h ****         size_t blocksize;
  31:../../libDaisy//src/hid/audio.h **** 
  32:../../libDaisy//src/hid/audio.h ****         /**< Sample rate of audio */
  33:../../libDaisy//src/hid/audio.h ****         SaiHandle::Config::SampleRate samplerate;
  34:../../libDaisy//src/hid/audio.h **** 
  35:../../libDaisy//src/hid/audio.h ****         /** factor for adjustment before and after callback for hardware that may have extra headro
  36:../../libDaisy//src/hid/audio.h ****         float postgain;
  37:../../libDaisy//src/hid/audio.h **** 
  38:../../libDaisy//src/hid/audio.h ****         /** factor for additional one-sided compensation to audio path for hardware that may
  39:../../libDaisy//src/hid/audio.h ****          *  have unequal input/output ranges
  40:../../libDaisy//src/hid/audio.h ****          */
  41:../../libDaisy//src/hid/audio.h ****         float output_compensation;
  42:../../libDaisy//src/hid/audio.h **** 
  43:../../libDaisy//src/hid/audio.h ****         /** Sets default values for config struct */
  44:../../libDaisy//src/hid/audio.h ****         Config()
  45:../../libDaisy//src/hid/audio.h ****         : blocksize(48),
  46:../../libDaisy//src/hid/audio.h ****           samplerate(SaiHandle::Config::SampleRate::SAI_48KHZ),
  47:../../libDaisy//src/hid/audio.h ****           postgain(1.f),
  48:../../libDaisy//src/hid/audio.h ****           output_compensation(1.f)
  49:../../libDaisy//src/hid/audio.h ****         {
  50:../../libDaisy//src/hid/audio.h ****         }
  51:../../libDaisy//src/hid/audio.h ****     };
  52:../../libDaisy//src/hid/audio.h **** 
  53:../../libDaisy//src/hid/audio.h ****     enum class Result
  54:../../libDaisy//src/hid/audio.h ****     {
  55:../../libDaisy//src/hid/audio.h ****         OK,
  56:../../libDaisy//src/hid/audio.h ****         ERR,
  57:../../libDaisy//src/hid/audio.h ****     };
  58:../../libDaisy//src/hid/audio.h **** 
  59:../../libDaisy//src/hid/audio.h ****     /** Non-Interleaving input buffer
  60:../../libDaisy//src/hid/audio.h ****      * Buffer arranged by float[chn][sample] 
  61:../../libDaisy//src/hid/audio.h ****      * const so that the user can't modify the input
  62:../../libDaisy//src/hid/audio.h ****      */
  63:../../libDaisy//src/hid/audio.h ****     typedef const float* const* InputBuffer;
  64:../../libDaisy//src/hid/audio.h **** 
  65:../../libDaisy//src/hid/audio.h ****     /** Non-Interleaving output buffer
  66:../../libDaisy//src/hid/audio.h ****      * Arranged by float[chn][sample] 
  67:../../libDaisy//src/hid/audio.h ****      */
  68:../../libDaisy//src/hid/audio.h ****     typedef float** OutputBuffer;
  69:../../libDaisy//src/hid/audio.h **** 
  70:../../libDaisy//src/hid/audio.h ****     /** Type for a Non-Interleaving audio callback 
  71:../../libDaisy//src/hid/audio.h ****      * Non-Interleaving audio callbacks in daisy will be of this type
  72:../../libDaisy//src/hid/audio.h ****      */
  73:../../libDaisy//src/hid/audio.h ****     typedef void (*AudioCallback)(InputBuffer  in,
ARM GAS  /var/folders/hl/qgbwny5j0fd895c2c41bk3tw0000gp/T//ccxZ31iG.s 			page 9


  74:../../libDaisy//src/hid/audio.h ****                                   OutputBuffer out,
  75:../../libDaisy//src/hid/audio.h ****                                   size_t       size);
  76:../../libDaisy//src/hid/audio.h **** 
  77:../../libDaisy//src/hid/audio.h ****     /** Interleaving Input buffer
  78:../../libDaisy//src/hid/audio.h ****      ** audio is prepared as { L0, R0, L1, R1, . . . LN, RN }]
  79:../../libDaisy//src/hid/audio.h ****      ** this is const, as the user shouldn't modify it
  80:../../libDaisy//src/hid/audio.h ****     */
  81:../../libDaisy//src/hid/audio.h ****     typedef const float* InterleavingInputBuffer;
  82:../../libDaisy//src/hid/audio.h **** 
  83:../../libDaisy//src/hid/audio.h ****     /** Interleaving Output buffer 
  84:../../libDaisy//src/hid/audio.h ****      ** audio is prepared as { L0, R0, L1, R1, . . . LN, RN }
  85:../../libDaisy//src/hid/audio.h ****     */
  86:../../libDaisy//src/hid/audio.h ****     typedef float* InterleavingOutputBuffer;
  87:../../libDaisy//src/hid/audio.h **** 
  88:../../libDaisy//src/hid/audio.h ****     /** Interleaving Audio Callback 
  89:../../libDaisy//src/hid/audio.h ****      * Interleaving audio callbacks in daisy must be of this type
  90:../../libDaisy//src/hid/audio.h ****      */
  91:../../libDaisy//src/hid/audio.h ****     typedef void (*InterleavingAudioCallback)(InterleavingInputBuffer  in,
  92:../../libDaisy//src/hid/audio.h ****                                               InterleavingOutputBuffer out,
  93:../../libDaisy//src/hid/audio.h ****                                               size_t                   size);
  94:../../libDaisy//src/hid/audio.h **** 
  95:../../libDaisy//src/hid/audio.h ****     AudioHandle() : pimpl_(nullptr) {}
  96:../../libDaisy//src/hid/audio.h ****     ~AudioHandle() {}
  92              		.loc 7 96 5 is_stmt 1 view .LVU13
  93              		.loc 7 96 5 is_stmt 0 view .LVU14
  94              	.LBE507:
  95              	.LBB508:
  96              	.LBI508:
  97              		.file 8 "../../libDaisy//src/sys/system.h"
   1:../../libDaisy//src/sys/system.h **** #ifndef DSY_SYSTEM_H
   2:../../libDaisy//src/sys/system.h **** #define DSY_SYSTEM_H
   3:../../libDaisy//src/sys/system.h **** 
   4:../../libDaisy//src/sys/system.h **** #ifndef UNIT_TEST // for unit tests, a dummy implementation is provided below
   5:../../libDaisy//src/sys/system.h **** 
   6:../../libDaisy//src/sys/system.h **** #include <cstdint>
   7:../../libDaisy//src/sys/system.h **** #include "per/tim.h"
   8:../../libDaisy//src/sys/system.h **** 
   9:../../libDaisy//src/sys/system.h **** namespace daisy
  10:../../libDaisy//src/sys/system.h **** {
  11:../../libDaisy//src/sys/system.h **** /** A handle for interacting with the Core System. 
  12:../../libDaisy//src/sys/system.h ****  ** This includes the Clock tree, MPU, global DMA initialization,
  13:../../libDaisy//src/sys/system.h ****  ** cache handling, and any other necessary global initiailzation
  14:../../libDaisy//src/sys/system.h ****  **
  15:../../libDaisy//src/sys/system.h ****  ** @author shensley
  16:../../libDaisy//src/sys/system.h ****  ** @ingroup system
  17:../../libDaisy//src/sys/system.h ****  */
  18:../../libDaisy//src/sys/system.h **** class System
  19:../../libDaisy//src/sys/system.h **** {
  20:../../libDaisy//src/sys/system.h ****   public:
  21:../../libDaisy//src/sys/system.h ****     /** Contains settings for initializing the System */
  22:../../libDaisy//src/sys/system.h ****     struct Config
  23:../../libDaisy//src/sys/system.h ****     {
  24:../../libDaisy//src/sys/system.h ****         /** Specifies the system clock frequency that feeds APB/AHB clocks, etc. */
  25:../../libDaisy//src/sys/system.h ****         enum class SysClkFreq
  26:../../libDaisy//src/sys/system.h ****         {
  27:../../libDaisy//src/sys/system.h ****             FREQ_400MHZ,
  28:../../libDaisy//src/sys/system.h ****             FREQ_480MHZ,
ARM GAS  /var/folders/hl/qgbwny5j0fd895c2c41bk3tw0000gp/T//ccxZ31iG.s 			page 10


  29:../../libDaisy//src/sys/system.h ****         };
  30:../../libDaisy//src/sys/system.h **** 
  31:../../libDaisy//src/sys/system.h ****         /** Method to call on the struct to set to defaults
  32:../../libDaisy//src/sys/system.h ****          ** CPU Freq set to 400MHz
  33:../../libDaisy//src/sys/system.h ****          ** Cache Enabled 
  34:../../libDaisy//src/sys/system.h ****          ** */
  35:../../libDaisy//src/sys/system.h ****         void Defaults()
  36:../../libDaisy//src/sys/system.h ****         {
  37:../../libDaisy//src/sys/system.h ****             cpu_freq    = SysClkFreq::FREQ_400MHZ;
  38:../../libDaisy//src/sys/system.h ****             use_dcache  = true;
  39:../../libDaisy//src/sys/system.h ****             use_icache  = true;
  40:../../libDaisy//src/sys/system.h ****             skip_clocks = false;
  41:../../libDaisy//src/sys/system.h ****         }
  42:../../libDaisy//src/sys/system.h **** 
  43:../../libDaisy//src/sys/system.h ****         /** Method to call on the struct to set to boost mode:
  44:../../libDaisy//src/sys/system.h ****          ** CPU Freq set to 480MHz
  45:../../libDaisy//src/sys/system.h ****          ** Cache Enabled 
  46:../../libDaisy//src/sys/system.h ****          ** */
  47:../../libDaisy//src/sys/system.h ****         void Boost()
  48:../../libDaisy//src/sys/system.h ****         {
  49:../../libDaisy//src/sys/system.h ****             cpu_freq    = SysClkFreq::FREQ_480MHZ;
  50:../../libDaisy//src/sys/system.h ****             use_dcache  = true;
  51:../../libDaisy//src/sys/system.h ****             use_icache  = true;
  52:../../libDaisy//src/sys/system.h ****             skip_clocks = false;
  53:../../libDaisy//src/sys/system.h ****         }
  54:../../libDaisy//src/sys/system.h **** 
  55:../../libDaisy//src/sys/system.h ****         SysClkFreq cpu_freq;
  56:../../libDaisy//src/sys/system.h ****         bool       use_dcache;
  57:../../libDaisy//src/sys/system.h ****         bool       use_icache;
  58:../../libDaisy//src/sys/system.h ****         bool       skip_clocks;
  59:../../libDaisy//src/sys/system.h ****     };
  60:../../libDaisy//src/sys/system.h **** 
  61:../../libDaisy//src/sys/system.h ****     /** Describes the different regions of memory available to the Daisy
  62:../../libDaisy//src/sys/system.h ****      * 
  63:../../libDaisy//src/sys/system.h ****      */
  64:../../libDaisy//src/sys/system.h ****     enum MemoryRegion
  65:../../libDaisy//src/sys/system.h ****     {
  66:../../libDaisy//src/sys/system.h ****         INTERNAL_FLASH = 0,
  67:../../libDaisy//src/sys/system.h ****         ITCMRAM,
  68:../../libDaisy//src/sys/system.h ****         DTCMRAM,
  69:../../libDaisy//src/sys/system.h ****         SRAM_D1,
  70:../../libDaisy//src/sys/system.h ****         SRAM_D2,
  71:../../libDaisy//src/sys/system.h ****         SRAM_D3,
  72:../../libDaisy//src/sys/system.h ****         SDRAM,
  73:../../libDaisy//src/sys/system.h ****         QSPI,
  74:../../libDaisy//src/sys/system.h ****         INVALID_ADDRESS,
  75:../../libDaisy//src/sys/system.h ****     };
  76:../../libDaisy//src/sys/system.h **** 
  77:../../libDaisy//src/sys/system.h ****     System() {}
  78:../../libDaisy//src/sys/system.h ****     ~System() {}
  98              		.loc 8 78 5 is_stmt 1 view .LVU15
  99              		.loc 8 78 5 is_stmt 0 view .LVU16
 100              	.LBE508:
 101              		.loc 2 65 26 view .LVU17
 102 0000 7047     		bx	lr
 103              		.cfi_endproc
 104              	.LFE2529:
ARM GAS  /var/folders/hl/qgbwny5j0fd895c2c41bk3tw0000gp/T//ccxZ31iG.s 			page 11


 106              		.weak	_ZN5daisy8patch_sm12DaisyPatchSMD1Ev
 107              		.thumb_set _ZN5daisy8patch_sm12DaisyPatchSMD1Ev,_ZN5daisy8patch_sm12DaisyPatchSMD2Ev
 108 0002 00BF     		.section	.text._ZN7daisysp8ReverbScD2Ev,"axG",%progbits,_ZN7daisysp8ReverbScD5Ev,comdat
 109              		.align	1
 110              		.p2align 2,,3
 111              		.weak	_ZN7daisysp8ReverbScD2Ev
 112              		.syntax unified
 113              		.thumb
 114              		.thumb_func
 115              		.fpu fpv5-d16
 117              	_ZN7daisysp8ReverbScD2Ev:
 118              	.LVL2:
 119              	.LFB4427:
 120              		.file 9 "../../DaisySP//Source/Effects/reverbsc.h"
   1:../../DaisySP//Source/Effects/reverbsc.h **** #pragma once
   2:../../DaisySP//Source/Effects/reverbsc.h **** #ifndef DSYSP_REVERBSC_H
   3:../../DaisySP//Source/Effects/reverbsc.h **** #define DSYSP_REVERBSC_H
   4:../../DaisySP//Source/Effects/reverbsc.h **** 
   5:../../DaisySP//Source/Effects/reverbsc.h **** #define DSY_REVERBSC_MAX_SIZE 98936
   6:../../DaisySP//Source/Effects/reverbsc.h **** 
   7:../../DaisySP//Source/Effects/reverbsc.h **** namespace daisysp
   8:../../DaisySP//Source/Effects/reverbsc.h **** {
   9:../../DaisySP//Source/Effects/reverbsc.h **** /**Delay line for internal reverb use
  10:../../DaisySP//Source/Effects/reverbsc.h **** */
  11:../../DaisySP//Source/Effects/reverbsc.h **** typedef struct
  12:../../DaisySP//Source/Effects/reverbsc.h **** {
  13:../../DaisySP//Source/Effects/reverbsc.h ****     int    write_pos;         /**< write position */
  14:../../DaisySP//Source/Effects/reverbsc.h ****     int    buffer_size;       /**< buffer size */
  15:../../DaisySP//Source/Effects/reverbsc.h ****     int    read_pos;          /**< read position */
  16:../../DaisySP//Source/Effects/reverbsc.h ****     int    read_pos_frac;     /**< fractional component of read pos */
  17:../../DaisySP//Source/Effects/reverbsc.h ****     int    read_pos_frac_inc; /**< increment for fractional */
  18:../../DaisySP//Source/Effects/reverbsc.h ****     int    dummy;             /**<  dummy var */
  19:../../DaisySP//Source/Effects/reverbsc.h ****     int    seed_val;          /**< randseed */
  20:../../DaisySP//Source/Effects/reverbsc.h ****     int    rand_line_cnt;     /**< number of random lines */
  21:../../DaisySP//Source/Effects/reverbsc.h ****     float  filter_state;      /**< state of filter */
  22:../../DaisySP//Source/Effects/reverbsc.h ****     float *buf;               /**< buffer ptr */
  23:../../DaisySP//Source/Effects/reverbsc.h **** } ReverbScDl;
  24:../../DaisySP//Source/Effects/reverbsc.h **** 
  25:../../DaisySP//Source/Effects/reverbsc.h **** /** Stereo Reverb
  26:../../DaisySP//Source/Effects/reverbsc.h **** 
  27:../../DaisySP//Source/Effects/reverbsc.h **** Reverb SC:               Ported from csound/soundpipe
  28:../../DaisySP//Source/Effects/reverbsc.h **** 
  29:../../DaisySP//Source/Effects/reverbsc.h **** Original author(s):        Sean Costello, Istvan Varga
  30:../../DaisySP//Source/Effects/reverbsc.h **** 
  31:../../DaisySP//Source/Effects/reverbsc.h **** Year:                    1999, 2005
  32:../../DaisySP//Source/Effects/reverbsc.h **** 
  33:../../DaisySP//Source/Effects/reverbsc.h **** Ported to soundpipe by:  Paul Batchelor
  34:../../DaisySP//Source/Effects/reverbsc.h **** 
  35:../../DaisySP//Source/Effects/reverbsc.h **** Ported by:                Stephen Hensley
  36:../../DaisySP//Source/Effects/reverbsc.h **** */
  37:../../DaisySP//Source/Effects/reverbsc.h **** class ReverbSc
  38:../../DaisySP//Source/Effects/reverbsc.h **** {
  39:../../DaisySP//Source/Effects/reverbsc.h ****   public:
  40:../../DaisySP//Source/Effects/reverbsc.h ****     ReverbSc() {}
  41:../../DaisySP//Source/Effects/reverbsc.h ****     ~ReverbSc() {}
 121              		.loc 9 41 5 is_stmt 1 view -0
 122              		.cfi_startproc
ARM GAS  /var/folders/hl/qgbwny5j0fd895c2c41bk3tw0000gp/T//ccxZ31iG.s 			page 12


 123              		@ args = 0, pretend = 0, frame = 0
 124              		@ frame_needed = 0, uses_anonymous_args = 0
 125              		@ link register save eliminated.
 126              		.loc 9 41 18 is_stmt 0 view .LVU19
 127 0000 7047     		bx	lr
 128              		.cfi_endproc
 129              	.LFE4427:
 131              		.weak	_ZN7daisysp8ReverbScD1Ev
 132              		.thumb_set _ZN7daisysp8ReverbScD1Ev,_ZN7daisysp8ReverbScD2Ev
 133 0002 00BF     		.section	.text._ZN7daisysp6LooperD2Ev,"axG",%progbits,_ZN7daisysp6LooperD5Ev,comdat
 134              		.align	1
 135              		.p2align 2,,3
 136              		.weak	_ZN7daisysp6LooperD2Ev
 137              		.syntax unified
 138              		.thumb
 139              		.thumb_func
 140              		.fpu fpv5-d16
 142              	_ZN7daisysp6LooperD2Ev:
 143              	.LVL3:
 144              	.LFB4729:
 145              		.file 10 "../../DaisySP//Source/Utility/looper.h"
   1:../../DaisySP//Source/Utility/looper.h **** #pragma once
   2:../../DaisySP//Source/Utility/looper.h **** #include <algorithm>
   3:../../DaisySP//Source/Utility/looper.h **** #include "dsp.h"
   4:../../DaisySP//Source/Utility/looper.h **** 
   5:../../DaisySP//Source/Utility/looper.h **** namespace daisysp
   6:../../DaisySP//Source/Utility/looper.h **** {
   7:../../DaisySP//Source/Utility/looper.h **** /** Multimode audio looper
   8:../../DaisySP//Source/Utility/looper.h **** * 
   9:../../DaisySP//Source/Utility/looper.h **** * Modes are:
  10:../../DaisySP//Source/Utility/looper.h **** *  - Normal
  11:../../DaisySP//Source/Utility/looper.h **** *  - Onetime Dub
  12:../../DaisySP//Source/Utility/looper.h **** *  - Replace
  13:../../DaisySP//Source/Utility/looper.h **** *  - Frippertronics
  14:../../DaisySP//Source/Utility/looper.h **** *
  15:../../DaisySP//Source/Utility/looper.h **** * Read more about the looper modes in the mode enum documentation.
  16:../../DaisySP//Source/Utility/looper.h **** */
  17:../../DaisySP//Source/Utility/looper.h **** class Looper
  18:../../DaisySP//Source/Utility/looper.h **** {
  19:../../DaisySP//Source/Utility/looper.h ****   public:
  20:../../DaisySP//Source/Utility/looper.h ****     Looper() {}
  21:../../DaisySP//Source/Utility/looper.h ****     ~Looper() {}
 146              		.loc 10 21 5 is_stmt 1 view -0
 147              		.cfi_startproc
 148              		@ args = 0, pretend = 0, frame = 0
 149              		@ frame_needed = 0, uses_anonymous_args = 0
 150              		@ link register save eliminated.
 151              		.loc 10 21 16 is_stmt 0 view .LVU21
 152 0000 7047     		bx	lr
 153              		.cfi_endproc
 154              	.LFE4729:
 156              		.weak	_ZN7daisysp6LooperD1Ev
 157              		.thumb_set _ZN7daisysp6LooperD1Ev,_ZN7daisysp6LooperD2Ev
 158 0002 00BF     		.section	.text._ZN7daisysp6Looper7ProcessEf,"axG",%progbits,_ZN7daisysp6Looper7ProcessEf,comdat
 159              		.align	1
 160              		.p2align 2,,3
 161              		.weak	_ZN7daisysp6Looper7ProcessEf
ARM GAS  /var/folders/hl/qgbwny5j0fd895c2c41bk3tw0000gp/T//ccxZ31iG.s 			page 13


 162              		.syntax unified
 163              		.thumb
 164              		.thumb_func
 165              		.fpu fpv5-d16
 167              	_ZN7daisysp6Looper7ProcessEf:
 168              	.LVL4:
 169              	.LFB4732:
  22:../../DaisySP//Source/Utility/looper.h **** 
  23:../../DaisySP//Source/Utility/looper.h ****     /** 
  24:../../DaisySP//Source/Utility/looper.h ****      ** Normal Mode: Input is added to the existing loop infinitely while recording 
  25:../../DaisySP//Source/Utility/looper.h ****      ** 
  26:../../DaisySP//Source/Utility/looper.h ****      ** Onetime Dub Mode: Recording starts at the first sample of the buffer and is added
  27:../../DaisySP//Source/Utility/looper.h ****      **     to the existing buffer contents. Recording automatically stops after one full loop.
  28:../../DaisySP//Source/Utility/looper.h ****      **
  29:../../DaisySP//Source/Utility/looper.h ****      ** Replace Mode: Audio in the buffer is replaced while recording is on.
  30:../../DaisySP//Source/Utility/looper.h ****      **
  31:../../DaisySP//Source/Utility/looper.h ****      ** Frippertronics Mode: infinite looping recording with fixed decay on each loop. The module a
  32:../../DaisySP//Source/Utility/looper.h ****      */
  33:../../DaisySP//Source/Utility/looper.h ****     enum class Mode
  34:../../DaisySP//Source/Utility/looper.h ****     {
  35:../../DaisySP//Source/Utility/looper.h ****         NORMAL,
  36:../../DaisySP//Source/Utility/looper.h ****         ONETIME_DUB,
  37:../../DaisySP//Source/Utility/looper.h ****         REPLACE,
  38:../../DaisySP//Source/Utility/looper.h ****         FRIPPERTRONICS,
  39:../../DaisySP//Source/Utility/looper.h ****     };
  40:../../DaisySP//Source/Utility/looper.h **** 
  41:../../DaisySP//Source/Utility/looper.h ****     void Init(float *mem, size_t size)
  42:../../DaisySP//Source/Utility/looper.h ****     {
  43:../../DaisySP//Source/Utility/looper.h ****         buffer_size_ = size;
  44:../../DaisySP//Source/Utility/looper.h ****         buff_        = mem;
  45:../../DaisySP//Source/Utility/looper.h **** 
  46:../../DaisySP//Source/Utility/looper.h ****         InitBuff();
  47:../../DaisySP//Source/Utility/looper.h ****         state_      = State::EMPTY;
  48:../../DaisySP//Source/Utility/looper.h ****         mode_       = Mode::NORMAL;
  49:../../DaisySP//Source/Utility/looper.h ****         half_speed_ = false;
  50:../../DaisySP//Source/Utility/looper.h ****         reverse_    = false;
  51:../../DaisySP//Source/Utility/looper.h ****         rec_queue_  = false;
  52:../../DaisySP//Source/Utility/looper.h ****         win_idx_    = 0;
  53:../../DaisySP//Source/Utility/looper.h ****     }
  54:../../DaisySP//Source/Utility/looper.h **** 
  55:../../DaisySP//Source/Utility/looper.h ****     /** Handles reading/writing to the Buffer depending on the mode. */
  56:../../DaisySP//Source/Utility/looper.h ****     float Process(const float input)
 170              		.loc 10 56 11 is_stmt 1 view -0
 171              		.cfi_startproc
 172              		@ args = 0, pretend = 0, frame = 0
 173              		@ frame_needed = 0, uses_anonymous_args = 0
  57:../../DaisySP//Source/Utility/looper.h ****     {
  58:../../DaisySP//Source/Utility/looper.h ****         float sig = 0.f;
 174              		.loc 10 58 9 view .LVU23
  59:../../DaisySP//Source/Utility/looper.h ****         float inc;
 175              		.loc 10 59 9 view .LVU24
  60:../../DaisySP//Source/Utility/looper.h ****         bool  hitloop = false;
 176              		.loc 10 60 9 view .LVU25
  61:../../DaisySP//Source/Utility/looper.h ****         // Record forward at normal speed during the first loop no matter what.
  62:../../DaisySP//Source/Utility/looper.h ****         inc = state_ == State::EMPTY || state_ == State::REC_FIRST
 177              		.loc 10 62 9 view .LVU26
  56:../../DaisySP//Source/Utility/looper.h ****     {
ARM GAS  /var/folders/hl/qgbwny5j0fd895c2c41bk3tw0000gp/T//ccxZ31iG.s 			page 14


 178              		.loc 10 56 11 is_stmt 0 view .LVU27
 179 0000 70B5     		push	{r4, r5, r6, lr}
 180              		.cfi_def_cfa_offset 16
 181              		.cfi_offset 4, -16
 182              		.cfi_offset 5, -12
 183              		.cfi_offset 6, -8
 184              		.cfi_offset 14, -4
 185              		.loc 10 62 15 view .LVU28
 186 0002 4568     		ldr	r5, [r0, #4]
  56:../../DaisySP//Source/Utility/looper.h ****     {
 187              		.loc 10 56 11 view .LVU29
 188 0004 0446     		mov	r4, r0
  63:../../DaisySP//Source/Utility/looper.h ****                   ? 1.f
 189              		.loc 10 63 19 view .LVU30
 190 0006 012D     		cmp	r5, #1
  56:../../DaisySP//Source/Utility/looper.h ****     {
 191              		.loc 10 56 11 view .LVU31
 192 0008 2DED028B 		vpush.64	{d8}
 193              		.cfi_def_cfa_offset 24
 194              		.cfi_offset 80, -24
 195              		.cfi_offset 81, -20
  56:../../DaisySP//Source/Utility/looper.h ****     {
 196              		.loc 10 56 11 view .LVU32
 197 000c F0EE408A 		vmov.f32	s17, s0
 198              		.loc 10 63 19 view .LVU33
 199 0010 40F29F80 		bls	.L7
 200              	.LVL5:
 201              	.LBB509:
 202              	.LBI509:
  64:../../DaisySP//Source/Utility/looper.h ****                   : GetIncrementSize();
  65:../../DaisySP//Source/Utility/looper.h ****         win_ = WindowVal(win_idx_ * kWindowFactor);
  66:../../DaisySP//Source/Utility/looper.h ****         switch(state_)
  67:../../DaisySP//Source/Utility/looper.h ****         {
  68:../../DaisySP//Source/Utility/looper.h ****             case State::EMPTY: sig = 0.0f; break;
  69:../../DaisySP//Source/Utility/looper.h ****             case State::REC_FIRST:
  70:../../DaisySP//Source/Utility/looper.h ****                 sig = 0.f;
  71:../../DaisySP//Source/Utility/looper.h ****                 Write(pos_, input * win_);
  72:../../DaisySP//Source/Utility/looper.h ****                 if(win_idx_ < kWindowSamps - 1)
  73:../../DaisySP//Source/Utility/looper.h ****                     win_idx_ += 1;
  74:../../DaisySP//Source/Utility/looper.h ****                 recsize_ = pos_;
  75:../../DaisySP//Source/Utility/looper.h ****                 pos_ += inc;
  76:../../DaisySP//Source/Utility/looper.h ****                 if(pos_ > buffer_size_ - 1)
  77:../../DaisySP//Source/Utility/looper.h ****                 {
  78:../../DaisySP//Source/Utility/looper.h ****                     state_   = State::PLAYING;
  79:../../DaisySP//Source/Utility/looper.h ****                     recsize_ = pos_ - 1;
  80:../../DaisySP//Source/Utility/looper.h ****                     pos_     = 0;
  81:../../DaisySP//Source/Utility/looper.h ****                 }
  82:../../DaisySP//Source/Utility/looper.h ****                 break;
  83:../../DaisySP//Source/Utility/looper.h ****             case State::PLAYING:
  84:../../DaisySP//Source/Utility/looper.h ****                 sig = Read(pos_);
  85:../../DaisySP//Source/Utility/looper.h ****                 /** This is a way of 'seamless looping'
  86:../../DaisySP//Source/Utility/looper.h **** 				 ** The first N samps after recording is done are recorded with the input faded out. 
  87:../../DaisySP//Source/Utility/looper.h **** 				 */
  88:../../DaisySP//Source/Utility/looper.h ****                 if(win_idx_ < kWindowSamps - 1)
  89:../../DaisySP//Source/Utility/looper.h ****                 {
  90:../../DaisySP//Source/Utility/looper.h ****                     Write(pos_, sig + input * (1.f - win_));
  91:../../DaisySP//Source/Utility/looper.h ****                     win_idx_ += 1;
ARM GAS  /var/folders/hl/qgbwny5j0fd895c2c41bk3tw0000gp/T//ccxZ31iG.s 			page 15


  92:../../DaisySP//Source/Utility/looper.h ****                 }
  93:../../DaisySP//Source/Utility/looper.h **** 
  94:../../DaisySP//Source/Utility/looper.h ****                 pos_ += inc;
  95:../../DaisySP//Source/Utility/looper.h ****                 if(pos_ > recsize_ - 1)
  96:../../DaisySP//Source/Utility/looper.h ****                 {
  97:../../DaisySP//Source/Utility/looper.h ****                     pos_    = 0;
  98:../../DaisySP//Source/Utility/looper.h ****                     hitloop = true;
  99:../../DaisySP//Source/Utility/looper.h ****                 }
 100:../../DaisySP//Source/Utility/looper.h ****                 else if(pos_ < 0)
 101:../../DaisySP//Source/Utility/looper.h ****                 {
 102:../../DaisySP//Source/Utility/looper.h ****                     pos_    = recsize_ - 1;
 103:../../DaisySP//Source/Utility/looper.h ****                     hitloop = true;
 104:../../DaisySP//Source/Utility/looper.h ****                 }
 105:../../DaisySP//Source/Utility/looper.h ****                 if(hitloop)
 106:../../DaisySP//Source/Utility/looper.h **** 
 107:../../DaisySP//Source/Utility/looper.h ****                 {
 108:../../DaisySP//Source/Utility/looper.h ****                     if(rec_queue_ && mode_ == Mode::ONETIME_DUB)
 109:../../DaisySP//Source/Utility/looper.h ****                     {
 110:../../DaisySP//Source/Utility/looper.h ****                         rec_queue_ = false;
 111:../../DaisySP//Source/Utility/looper.h ****                         state_     = State::REC_DUB;
 112:../../DaisySP//Source/Utility/looper.h ****                         win_idx_   = 0;
 113:../../DaisySP//Source/Utility/looper.h ****                     }
 114:../../DaisySP//Source/Utility/looper.h ****                 }
 115:../../DaisySP//Source/Utility/looper.h ****                 break;
 116:../../DaisySP//Source/Utility/looper.h ****             case State::REC_DUB:
 117:../../DaisySP//Source/Utility/looper.h ****                 sig = Read(pos_);
 118:../../DaisySP//Source/Utility/looper.h ****                 switch(mode_)
 119:../../DaisySP//Source/Utility/looper.h ****                 {
 120:../../DaisySP//Source/Utility/looper.h ****                     case Mode::REPLACE: Write(pos_, input * win_); break;
 121:../../DaisySP//Source/Utility/looper.h ****                     case Mode::FRIPPERTRONICS:
 122:../../DaisySP//Source/Utility/looper.h ****                         Write(pos_, (input * win_) + (sig * kFripDecayVal));
 123:../../DaisySP//Source/Utility/looper.h ****                         break;
 124:../../DaisySP//Source/Utility/looper.h ****                     case Mode::NORMAL:
 125:../../DaisySP//Source/Utility/looper.h ****                     case Mode::ONETIME_DUB:
 126:../../DaisySP//Source/Utility/looper.h ****                     default: Write(pos_, (input * win_) + sig); break;
 127:../../DaisySP//Source/Utility/looper.h ****                 }
 128:../../DaisySP//Source/Utility/looper.h ****                 if(win_idx_ < kWindowSamps - 1)
 129:../../DaisySP//Source/Utility/looper.h ****                     win_idx_ += 1;
 130:../../DaisySP//Source/Utility/looper.h ****                 pos_ += inc;
 131:../../DaisySP//Source/Utility/looper.h ****                 if(pos_ > recsize_ - 1)
 132:../../DaisySP//Source/Utility/looper.h ****                 {
 133:../../DaisySP//Source/Utility/looper.h ****                     pos_    = 0;
 134:../../DaisySP//Source/Utility/looper.h ****                     hitloop = true;
 135:../../DaisySP//Source/Utility/looper.h ****                 }
 136:../../DaisySP//Source/Utility/looper.h ****                 else if(pos_ < 0)
 137:../../DaisySP//Source/Utility/looper.h ****                 {
 138:../../DaisySP//Source/Utility/looper.h ****                     pos_    = recsize_ - 1;
 139:../../DaisySP//Source/Utility/looper.h ****                     hitloop = true;
 140:../../DaisySP//Source/Utility/looper.h ****                 }
 141:../../DaisySP//Source/Utility/looper.h ****                 if(hitloop && mode_ == Mode::ONETIME_DUB)
 142:../../DaisySP//Source/Utility/looper.h ****                 {
 143:../../DaisySP//Source/Utility/looper.h ****                     state_   = State::PLAYING;
 144:../../DaisySP//Source/Utility/looper.h ****                     win_idx_ = 0;
 145:../../DaisySP//Source/Utility/looper.h ****                 }
 146:../../DaisySP//Source/Utility/looper.h **** 
 147:../../DaisySP//Source/Utility/looper.h ****                 break;
 148:../../DaisySP//Source/Utility/looper.h ****             default: break;
ARM GAS  /var/folders/hl/qgbwny5j0fd895c2c41bk3tw0000gp/T//ccxZ31iG.s 			page 16


 149:../../DaisySP//Source/Utility/looper.h ****         }
 150:../../DaisySP//Source/Utility/looper.h ****         near_beginning_ = state_ != State::EMPTY && !Recording() && pos_ < 4800
 151:../../DaisySP//Source/Utility/looper.h ****                               ? true
 152:../../DaisySP//Source/Utility/looper.h ****                               : false;
 153:../../DaisySP//Source/Utility/looper.h **** 
 154:../../DaisySP//Source/Utility/looper.h ****         return sig;
 155:../../DaisySP//Source/Utility/looper.h ****     }
 156:../../DaisySP//Source/Utility/looper.h **** 
 157:../../DaisySP//Source/Utility/looper.h ****     /** Effectively erases the buffer 
 158:../../DaisySP//Source/Utility/looper.h ****      ** Note: This does not actually change what is in the buffer  */
 159:../../DaisySP//Source/Utility/looper.h ****     inline void Clear() { state_ = State::EMPTY; }
 160:../../DaisySP//Source/Utility/looper.h **** 
 161:../../DaisySP//Source/Utility/looper.h ****     /** Engages/Disengages the recording, depending on Mode.
 162:../../DaisySP//Source/Utility/looper.h ****      ** In all modes, the first time this is triggered a new loop will be started.
 163:../../DaisySP//Source/Utility/looper.h ****      ** The second trigger will set the loop size, and begin playback of the loop. 
 164:../../DaisySP//Source/Utility/looper.h ****     */
 165:../../DaisySP//Source/Utility/looper.h ****     inline void TrigRecord()
 166:../../DaisySP//Source/Utility/looper.h ****     {
 167:../../DaisySP//Source/Utility/looper.h ****         switch(state_)
 168:../../DaisySP//Source/Utility/looper.h ****         {
 169:../../DaisySP//Source/Utility/looper.h ****             case State::EMPTY:
 170:../../DaisySP//Source/Utility/looper.h ****                 pos_        = 0;
 171:../../DaisySP//Source/Utility/looper.h ****                 recsize_    = 0;
 172:../../DaisySP//Source/Utility/looper.h ****                 state_      = State::REC_FIRST;
 173:../../DaisySP//Source/Utility/looper.h ****                 half_speed_ = false;
 174:../../DaisySP//Source/Utility/looper.h ****                 reverse_    = false;
 175:../../DaisySP//Source/Utility/looper.h ****                 break;
 176:../../DaisySP//Source/Utility/looper.h ****             case State::REC_FIRST:
 177:../../DaisySP//Source/Utility/looper.h ****             case State::REC_DUB: state_ = State::PLAYING; break;
 178:../../DaisySP//Source/Utility/looper.h ****             case State::PLAYING:
 179:../../DaisySP//Source/Utility/looper.h ****                 if(mode_ == Mode::ONETIME_DUB)
 180:../../DaisySP//Source/Utility/looper.h ****                     rec_queue_ = true;
 181:../../DaisySP//Source/Utility/looper.h ****                 else
 182:../../DaisySP//Source/Utility/looper.h ****                     state_ = State::REC_DUB;
 183:../../DaisySP//Source/Utility/looper.h ****                 break;
 184:../../DaisySP//Source/Utility/looper.h ****             default: state_ = State::EMPTY; break;
 185:../../DaisySP//Source/Utility/looper.h ****         }
 186:../../DaisySP//Source/Utility/looper.h ****         if(!rec_queue_)
 187:../../DaisySP//Source/Utility/looper.h ****             win_idx_ = 0;
 188:../../DaisySP//Source/Utility/looper.h ****     }
 189:../../DaisySP//Source/Utility/looper.h **** 
 190:../../DaisySP//Source/Utility/looper.h ****     /** Returns true if the looper is currently being written to. */
 191:../../DaisySP//Source/Utility/looper.h ****     inline const bool Recording() const
 192:../../DaisySP//Source/Utility/looper.h ****     {
 193:../../DaisySP//Source/Utility/looper.h ****         return state_ == State::REC_DUB || state_ == State::REC_FIRST;
 194:../../DaisySP//Source/Utility/looper.h ****     }
 195:../../DaisySP//Source/Utility/looper.h **** 
 196:../../DaisySP//Source/Utility/looper.h ****     inline const bool RecordingQueued() const { return rec_queue_; }
 197:../../DaisySP//Source/Utility/looper.h **** 
 198:../../DaisySP//Source/Utility/looper.h ****     /** Increments the Mode by one step useful for buttons, etc. that need to step through the Loop
 199:../../DaisySP//Source/Utility/looper.h ****     inline void IncrementMode()
 200:../../DaisySP//Source/Utility/looper.h ****     {
 201:../../DaisySP//Source/Utility/looper.h ****         int m = static_cast<int>(mode_);
 202:../../DaisySP//Source/Utility/looper.h ****         m     = m + 1;
 203:../../DaisySP//Source/Utility/looper.h ****         if(m > kNumModes - 1)
 204:../../DaisySP//Source/Utility/looper.h ****             m = 0;
 205:../../DaisySP//Source/Utility/looper.h ****         mode_ = static_cast<Mode>(m);
ARM GAS  /var/folders/hl/qgbwny5j0fd895c2c41bk3tw0000gp/T//ccxZ31iG.s 			page 17


 206:../../DaisySP//Source/Utility/looper.h ****     }
 207:../../DaisySP//Source/Utility/looper.h **** 
 208:../../DaisySP//Source/Utility/looper.h ****     /** Sets the recording mode to the specified Mode. */
 209:../../DaisySP//Source/Utility/looper.h ****     inline void SetMode(Mode mode) { mode_ = mode; }
 210:../../DaisySP//Source/Utility/looper.h **** 
 211:../../DaisySP//Source/Utility/looper.h ****     /** Returns the specific recording mode that is currently set. */
 212:../../DaisySP//Source/Utility/looper.h ****     inline const Mode GetMode() const { return mode_; }
 213:../../DaisySP//Source/Utility/looper.h **** 
 214:../../DaisySP//Source/Utility/looper.h ****     inline void ToggleReverse() { reverse_ = !reverse_; }
 215:../../DaisySP//Source/Utility/looper.h ****     inline void SetReverse(bool state) { reverse_ = state; }
 216:../../DaisySP//Source/Utility/looper.h ****     inline bool GetReverse() const { return reverse_; }
 217:../../DaisySP//Source/Utility/looper.h **** 
 218:../../DaisySP//Source/Utility/looper.h ****     inline void ToggleHalfSpeed() { half_speed_ = !half_speed_; }
 219:../../DaisySP//Source/Utility/looper.h ****     inline void SetHalfSpeed(bool state) { half_speed_ = state; }
 220:../../DaisySP//Source/Utility/looper.h ****     inline bool GetHalfSpeed() const { return half_speed_; }
 221:../../DaisySP//Source/Utility/looper.h **** 
 222:../../DaisySP//Source/Utility/looper.h ****     inline bool IsNearBeginning() { return near_beginning_; }
 223:../../DaisySP//Source/Utility/looper.h **** 
 224:../../DaisySP//Source/Utility/looper.h ****   private:
 225:../../DaisySP//Source/Utility/looper.h ****     /** Constants */
 226:../../DaisySP//Source/Utility/looper.h **** 
 227:../../DaisySP//Source/Utility/looper.h ****     /** Decay value for frippertronics mode is sin(PI / 4) */
 228:../../DaisySP//Source/Utility/looper.h ****     static constexpr float kFripDecayVal      = 0.7071067811865476f;
 229:../../DaisySP//Source/Utility/looper.h ****     static constexpr int   kNumModes          = 4;
 230:../../DaisySP//Source/Utility/looper.h ****     static constexpr int   kNumPlaybackSpeeds = 3;
 231:../../DaisySP//Source/Utility/looper.h ****     static constexpr int   kWindowSamps       = 1200;
 232:../../DaisySP//Source/Utility/looper.h ****     static constexpr float kWindowFactor      = (1.f / kWindowSamps);
 233:../../DaisySP//Source/Utility/looper.h **** 
 234:../../DaisySP//Source/Utility/looper.h ****     /** Private Member Functions */
 235:../../DaisySP//Source/Utility/looper.h ****     float GetIncrementSize()
 203              		.loc 10 235 11 is_stmt 1 view .LVU34
 204              	.LBB510:
 236:../../DaisySP//Source/Utility/looper.h ****     {
 237:../../DaisySP//Source/Utility/looper.h ****         float inc = 1.f;
 205              		.loc 10 237 9 view .LVU35
 238:../../DaisySP//Source/Utility/looper.h ****         if(half_speed_)
 206              		.loc 10 238 9 view .LVU36
 207 0014 027F     		ldrb	r2, [r0, #28]	@ zero_extendqisi2
 239:../../DaisySP//Source/Utility/looper.h ****             inc = 0.5f;
 208              		.loc 10 239 17 is_stmt 0 view .LVU37
 209 0016 B7EE008A 		vmov.f32	s16, #1.0e+0
 210 001a F6EE007A 		vmov.f32	s15, #5.0e-1
 240:../../DaisySP//Source/Utility/looper.h ****         return reverse_ ? -inc : inc;
 211              		.loc 10 240 25 view .LVU38
 212 001e 437F     		ldrb	r3, [r0, #29]	@ zero_extendqisi2
 239:../../DaisySP//Source/Utility/looper.h ****             inc = 0.5f;
 213              		.loc 10 239 17 view .LVU39
 214 0020 002A     		cmp	r2, #0
 215 0022 08FE278A 		vseleq.f32	s16, s16, s15
 216              	.LVL6:
 217              		.loc 10 240 9 is_stmt 1 view .LVU40
 218              		.loc 10 240 25 is_stmt 0 view .LVU41
 219 0026 0BB1     		cbz	r3, .L9
 220 0028 B1EE488A 		vneg.f32	s16, s16
 221              	.LVL7:
 222              	.L9:
 223              		.loc 10 240 25 view .LVU42
ARM GAS  /var/folders/hl/qgbwny5j0fd895c2c41bk3tw0000gp/T//ccxZ31iG.s 			page 18


 224              	.LBE510:
 225              	.LBE509:
  65:../../DaisySP//Source/Utility/looper.h ****         switch(state_)
 226              		.loc 10 65 9 is_stmt 1 view .LVU43
  65:../../DaisySP//Source/Utility/looper.h ****         switch(state_)
 227              		.loc 10 65 26 is_stmt 0 view .LVU44
 228 002c A669     		ldr	r6, [r4, #24]
 229              	.LVL8:
 230              	.LBB511:
 231              	.LBI511:
 241:../../DaisySP//Source/Utility/looper.h ****     }
 242:../../DaisySP//Source/Utility/looper.h **** 
 243:../../DaisySP//Source/Utility/looper.h ****     /** Initialize the buffer */
 244:../../DaisySP//Source/Utility/looper.h ****     void InitBuff() { std::fill(&buff_[0], &buff_[buffer_size_ - 1], 0); }
 245:../../DaisySP//Source/Utility/looper.h **** 
 246:../../DaisySP//Source/Utility/looper.h ****     /** Get a floating point sample from the buffer */
 247:../../DaisySP//Source/Utility/looper.h ****     inline const float Read(size_t pos) const { return buff_[pos]; }
 248:../../DaisySP//Source/Utility/looper.h **** 
 249:../../DaisySP//Source/Utility/looper.h ****     /** Reads from a specified point in the delay line using linear interpolation */
 250:../../DaisySP//Source/Utility/looper.h ****     float ReadF(float pos)
 251:../../DaisySP//Source/Utility/looper.h ****     {
 252:../../DaisySP//Source/Utility/looper.h ****         float    a, b, frac;
 253:../../DaisySP//Source/Utility/looper.h ****         uint32_t i_idx = static_cast<uint32_t>(pos);
 254:../../DaisySP//Source/Utility/looper.h ****         frac           = pos - i_idx;
 255:../../DaisySP//Source/Utility/looper.h ****         a              = buff_[i_idx];
 256:../../DaisySP//Source/Utility/looper.h ****         b              = buff_[(i_idx + 1) % buffer_size_];
 257:../../DaisySP//Source/Utility/looper.h ****         return a + (b - a) * frac;
 258:../../DaisySP//Source/Utility/looper.h ****     }
 259:../../DaisySP//Source/Utility/looper.h **** 
 260:../../DaisySP//Source/Utility/looper.h ****     /** Write to a known location in the buffer */
 261:../../DaisySP//Source/Utility/looper.h ****     inline void Write(size_t pos, float val) { buff_[pos] = val; }
 262:../../DaisySP//Source/Utility/looper.h **** 
 263:../../DaisySP//Source/Utility/looper.h ****     /** Linear to Constpower approximation for windowing*/
 264:../../DaisySP//Source/Utility/looper.h ****     float WindowVal(float in) { return sin(HALFPI_F * in); }
 232              		.loc 10 264 11 is_stmt 1 view .LVU45
 233              	.LBB512:
 234              		.loc 10 264 33 view .LVU46
 235              	.LBB513:
 236              	.LBI513:
 237              		.file 11 "/opt/homebrew/Cellar/arm-none-eabi-gcc/10.3-2021.07/gcc/arm-none-eabi/include/c++/10.3.1
   1:/opt/homebrew/Cellar/arm-none-eabi-gcc/10.3-2021.07/gcc/arm-none-eabi/include/c++/10.3.1/cmath **** // -*- C++ -*- C forwarding header.
   2:/opt/homebrew/Cellar/arm-none-eabi-gcc/10.3-2021.07/gcc/arm-none-eabi/include/c++/10.3.1/cmath **** 
   3:/opt/homebrew/Cellar/arm-none-eabi-gcc/10.3-2021.07/gcc/arm-none-eabi/include/c++/10.3.1/cmath **** // Copyright (C) 1997-2020 Free Software Foundation, Inc.
   4:/opt/homebrew/Cellar/arm-none-eabi-gcc/10.3-2021.07/gcc/arm-none-eabi/include/c++/10.3.1/cmath **** //
   5:/opt/homebrew/Cellar/arm-none-eabi-gcc/10.3-2021.07/gcc/arm-none-eabi/include/c++/10.3.1/cmath **** // This file is part of the GNU ISO C++ Library.  This library is free
   6:/opt/homebrew/Cellar/arm-none-eabi-gcc/10.3-2021.07/gcc/arm-none-eabi/include/c++/10.3.1/cmath **** // software; you can redistribute it and/or modify it under the
   7:/opt/homebrew/Cellar/arm-none-eabi-gcc/10.3-2021.07/gcc/arm-none-eabi/include/c++/10.3.1/cmath **** // terms of the GNU General Public License as published by the
   8:/opt/homebrew/Cellar/arm-none-eabi-gcc/10.3-2021.07/gcc/arm-none-eabi/include/c++/10.3.1/cmath **** // Free Software Foundation; either version 3, or (at your option)
   9:/opt/homebrew/Cellar/arm-none-eabi-gcc/10.3-2021.07/gcc/arm-none-eabi/include/c++/10.3.1/cmath **** // any later version.
  10:/opt/homebrew/Cellar/arm-none-eabi-gcc/10.3-2021.07/gcc/arm-none-eabi/include/c++/10.3.1/cmath **** 
  11:/opt/homebrew/Cellar/arm-none-eabi-gcc/10.3-2021.07/gcc/arm-none-eabi/include/c++/10.3.1/cmath **** // This library is distributed in the hope that it will be useful,
  12:/opt/homebrew/Cellar/arm-none-eabi-gcc/10.3-2021.07/gcc/arm-none-eabi/include/c++/10.3.1/cmath **** // but WITHOUT ANY WARRANTY; without even the implied warranty of
  13:/opt/homebrew/Cellar/arm-none-eabi-gcc/10.3-2021.07/gcc/arm-none-eabi/include/c++/10.3.1/cmath **** // MERCHANTABILITY or FITNESS FOR A PARTICULAR PURPOSE.  See the
  14:/opt/homebrew/Cellar/arm-none-eabi-gcc/10.3-2021.07/gcc/arm-none-eabi/include/c++/10.3.1/cmath **** // GNU General Public License for more details.
  15:/opt/homebrew/Cellar/arm-none-eabi-gcc/10.3-2021.07/gcc/arm-none-eabi/include/c++/10.3.1/cmath **** 
  16:/opt/homebrew/Cellar/arm-none-eabi-gcc/10.3-2021.07/gcc/arm-none-eabi/include/c++/10.3.1/cmath **** // Under Section 7 of GPL version 3, you are granted additional
  17:/opt/homebrew/Cellar/arm-none-eabi-gcc/10.3-2021.07/gcc/arm-none-eabi/include/c++/10.3.1/cmath **** // permissions described in the GCC Runtime Library Exception, version
ARM GAS  /var/folders/hl/qgbwny5j0fd895c2c41bk3tw0000gp/T//ccxZ31iG.s 			page 19


  18:/opt/homebrew/Cellar/arm-none-eabi-gcc/10.3-2021.07/gcc/arm-none-eabi/include/c++/10.3.1/cmath **** // 3.1, as published by the Free Software Foundation.
  19:/opt/homebrew/Cellar/arm-none-eabi-gcc/10.3-2021.07/gcc/arm-none-eabi/include/c++/10.3.1/cmath **** 
  20:/opt/homebrew/Cellar/arm-none-eabi-gcc/10.3-2021.07/gcc/arm-none-eabi/include/c++/10.3.1/cmath **** // You should have received a copy of the GNU General Public License and
  21:/opt/homebrew/Cellar/arm-none-eabi-gcc/10.3-2021.07/gcc/arm-none-eabi/include/c++/10.3.1/cmath **** // a copy of the GCC Runtime Library Exception along with this program;
  22:/opt/homebrew/Cellar/arm-none-eabi-gcc/10.3-2021.07/gcc/arm-none-eabi/include/c++/10.3.1/cmath **** // see the files COPYING3 and COPYING.RUNTIME respectively.  If not, see
  23:/opt/homebrew/Cellar/arm-none-eabi-gcc/10.3-2021.07/gcc/arm-none-eabi/include/c++/10.3.1/cmath **** // <http://www.gnu.org/licenses/>.
  24:/opt/homebrew/Cellar/arm-none-eabi-gcc/10.3-2021.07/gcc/arm-none-eabi/include/c++/10.3.1/cmath **** 
  25:/opt/homebrew/Cellar/arm-none-eabi-gcc/10.3-2021.07/gcc/arm-none-eabi/include/c++/10.3.1/cmath **** /** @file include/cmath
  26:/opt/homebrew/Cellar/arm-none-eabi-gcc/10.3-2021.07/gcc/arm-none-eabi/include/c++/10.3.1/cmath ****  *  This is a Standard C++ Library file.  You should @c \#include this file
  27:/opt/homebrew/Cellar/arm-none-eabi-gcc/10.3-2021.07/gcc/arm-none-eabi/include/c++/10.3.1/cmath ****  *  in your programs, rather than any of the @a *.h implementation files.
  28:/opt/homebrew/Cellar/arm-none-eabi-gcc/10.3-2021.07/gcc/arm-none-eabi/include/c++/10.3.1/cmath ****  *
  29:/opt/homebrew/Cellar/arm-none-eabi-gcc/10.3-2021.07/gcc/arm-none-eabi/include/c++/10.3.1/cmath ****  *  This is the C++ version of the Standard C Library header @c math.h,
  30:/opt/homebrew/Cellar/arm-none-eabi-gcc/10.3-2021.07/gcc/arm-none-eabi/include/c++/10.3.1/cmath ****  *  and its contents are (mostly) the same as that header, but are all
  31:/opt/homebrew/Cellar/arm-none-eabi-gcc/10.3-2021.07/gcc/arm-none-eabi/include/c++/10.3.1/cmath ****  *  contained in the namespace @c std (except for names which are defined
  32:/opt/homebrew/Cellar/arm-none-eabi-gcc/10.3-2021.07/gcc/arm-none-eabi/include/c++/10.3.1/cmath ****  *  as macros in C).
  33:/opt/homebrew/Cellar/arm-none-eabi-gcc/10.3-2021.07/gcc/arm-none-eabi/include/c++/10.3.1/cmath ****  */
  34:/opt/homebrew/Cellar/arm-none-eabi-gcc/10.3-2021.07/gcc/arm-none-eabi/include/c++/10.3.1/cmath **** 
  35:/opt/homebrew/Cellar/arm-none-eabi-gcc/10.3-2021.07/gcc/arm-none-eabi/include/c++/10.3.1/cmath **** //
  36:/opt/homebrew/Cellar/arm-none-eabi-gcc/10.3-2021.07/gcc/arm-none-eabi/include/c++/10.3.1/cmath **** // ISO C++ 14882: 26.5  C library
  37:/opt/homebrew/Cellar/arm-none-eabi-gcc/10.3-2021.07/gcc/arm-none-eabi/include/c++/10.3.1/cmath **** //
  38:/opt/homebrew/Cellar/arm-none-eabi-gcc/10.3-2021.07/gcc/arm-none-eabi/include/c++/10.3.1/cmath **** 
  39:/opt/homebrew/Cellar/arm-none-eabi-gcc/10.3-2021.07/gcc/arm-none-eabi/include/c++/10.3.1/cmath **** #pragma GCC system_header
  40:/opt/homebrew/Cellar/arm-none-eabi-gcc/10.3-2021.07/gcc/arm-none-eabi/include/c++/10.3.1/cmath **** 
  41:/opt/homebrew/Cellar/arm-none-eabi-gcc/10.3-2021.07/gcc/arm-none-eabi/include/c++/10.3.1/cmath **** #include <bits/c++config.h>
  42:/opt/homebrew/Cellar/arm-none-eabi-gcc/10.3-2021.07/gcc/arm-none-eabi/include/c++/10.3.1/cmath **** #include <bits/cpp_type_traits.h>
  43:/opt/homebrew/Cellar/arm-none-eabi-gcc/10.3-2021.07/gcc/arm-none-eabi/include/c++/10.3.1/cmath **** #include <ext/type_traits.h>
  44:/opt/homebrew/Cellar/arm-none-eabi-gcc/10.3-2021.07/gcc/arm-none-eabi/include/c++/10.3.1/cmath **** #define _GLIBCXX_INCLUDE_NEXT_C_HEADERS
  45:/opt/homebrew/Cellar/arm-none-eabi-gcc/10.3-2021.07/gcc/arm-none-eabi/include/c++/10.3.1/cmath **** #include_next <math.h>
  46:/opt/homebrew/Cellar/arm-none-eabi-gcc/10.3-2021.07/gcc/arm-none-eabi/include/c++/10.3.1/cmath **** #undef _GLIBCXX_INCLUDE_NEXT_C_HEADERS
  47:/opt/homebrew/Cellar/arm-none-eabi-gcc/10.3-2021.07/gcc/arm-none-eabi/include/c++/10.3.1/cmath **** #include <bits/std_abs.h>
  48:/opt/homebrew/Cellar/arm-none-eabi-gcc/10.3-2021.07/gcc/arm-none-eabi/include/c++/10.3.1/cmath **** 
  49:/opt/homebrew/Cellar/arm-none-eabi-gcc/10.3-2021.07/gcc/arm-none-eabi/include/c++/10.3.1/cmath **** #ifndef _GLIBCXX_CMATH
  50:/opt/homebrew/Cellar/arm-none-eabi-gcc/10.3-2021.07/gcc/arm-none-eabi/include/c++/10.3.1/cmath **** #define _GLIBCXX_CMATH 1
  51:/opt/homebrew/Cellar/arm-none-eabi-gcc/10.3-2021.07/gcc/arm-none-eabi/include/c++/10.3.1/cmath **** 
  52:/opt/homebrew/Cellar/arm-none-eabi-gcc/10.3-2021.07/gcc/arm-none-eabi/include/c++/10.3.1/cmath **** // Get rid of those macros defined in <math.h> in lieu of real functions.
  53:/opt/homebrew/Cellar/arm-none-eabi-gcc/10.3-2021.07/gcc/arm-none-eabi/include/c++/10.3.1/cmath **** #undef div
  54:/opt/homebrew/Cellar/arm-none-eabi-gcc/10.3-2021.07/gcc/arm-none-eabi/include/c++/10.3.1/cmath **** #undef acos
  55:/opt/homebrew/Cellar/arm-none-eabi-gcc/10.3-2021.07/gcc/arm-none-eabi/include/c++/10.3.1/cmath **** #undef asin
  56:/opt/homebrew/Cellar/arm-none-eabi-gcc/10.3-2021.07/gcc/arm-none-eabi/include/c++/10.3.1/cmath **** #undef atan
  57:/opt/homebrew/Cellar/arm-none-eabi-gcc/10.3-2021.07/gcc/arm-none-eabi/include/c++/10.3.1/cmath **** #undef atan2
  58:/opt/homebrew/Cellar/arm-none-eabi-gcc/10.3-2021.07/gcc/arm-none-eabi/include/c++/10.3.1/cmath **** #undef ceil
  59:/opt/homebrew/Cellar/arm-none-eabi-gcc/10.3-2021.07/gcc/arm-none-eabi/include/c++/10.3.1/cmath **** #undef cos
  60:/opt/homebrew/Cellar/arm-none-eabi-gcc/10.3-2021.07/gcc/arm-none-eabi/include/c++/10.3.1/cmath **** #undef cosh
  61:/opt/homebrew/Cellar/arm-none-eabi-gcc/10.3-2021.07/gcc/arm-none-eabi/include/c++/10.3.1/cmath **** #undef exp
  62:/opt/homebrew/Cellar/arm-none-eabi-gcc/10.3-2021.07/gcc/arm-none-eabi/include/c++/10.3.1/cmath **** #undef fabs
  63:/opt/homebrew/Cellar/arm-none-eabi-gcc/10.3-2021.07/gcc/arm-none-eabi/include/c++/10.3.1/cmath **** #undef floor
  64:/opt/homebrew/Cellar/arm-none-eabi-gcc/10.3-2021.07/gcc/arm-none-eabi/include/c++/10.3.1/cmath **** #undef fmod
  65:/opt/homebrew/Cellar/arm-none-eabi-gcc/10.3-2021.07/gcc/arm-none-eabi/include/c++/10.3.1/cmath **** #undef frexp
  66:/opt/homebrew/Cellar/arm-none-eabi-gcc/10.3-2021.07/gcc/arm-none-eabi/include/c++/10.3.1/cmath **** #undef ldexp
  67:/opt/homebrew/Cellar/arm-none-eabi-gcc/10.3-2021.07/gcc/arm-none-eabi/include/c++/10.3.1/cmath **** #undef log
  68:/opt/homebrew/Cellar/arm-none-eabi-gcc/10.3-2021.07/gcc/arm-none-eabi/include/c++/10.3.1/cmath **** #undef log10
  69:/opt/homebrew/Cellar/arm-none-eabi-gcc/10.3-2021.07/gcc/arm-none-eabi/include/c++/10.3.1/cmath **** #undef modf
  70:/opt/homebrew/Cellar/arm-none-eabi-gcc/10.3-2021.07/gcc/arm-none-eabi/include/c++/10.3.1/cmath **** #undef pow
  71:/opt/homebrew/Cellar/arm-none-eabi-gcc/10.3-2021.07/gcc/arm-none-eabi/include/c++/10.3.1/cmath **** #undef sin
  72:/opt/homebrew/Cellar/arm-none-eabi-gcc/10.3-2021.07/gcc/arm-none-eabi/include/c++/10.3.1/cmath **** #undef sinh
  73:/opt/homebrew/Cellar/arm-none-eabi-gcc/10.3-2021.07/gcc/arm-none-eabi/include/c++/10.3.1/cmath **** #undef sqrt
  74:/opt/homebrew/Cellar/arm-none-eabi-gcc/10.3-2021.07/gcc/arm-none-eabi/include/c++/10.3.1/cmath **** #undef tan
ARM GAS  /var/folders/hl/qgbwny5j0fd895c2c41bk3tw0000gp/T//ccxZ31iG.s 			page 20


  75:/opt/homebrew/Cellar/arm-none-eabi-gcc/10.3-2021.07/gcc/arm-none-eabi/include/c++/10.3.1/cmath **** #undef tanh
  76:/opt/homebrew/Cellar/arm-none-eabi-gcc/10.3-2021.07/gcc/arm-none-eabi/include/c++/10.3.1/cmath **** 
  77:/opt/homebrew/Cellar/arm-none-eabi-gcc/10.3-2021.07/gcc/arm-none-eabi/include/c++/10.3.1/cmath **** extern "C++"
  78:/opt/homebrew/Cellar/arm-none-eabi-gcc/10.3-2021.07/gcc/arm-none-eabi/include/c++/10.3.1/cmath **** {
  79:/opt/homebrew/Cellar/arm-none-eabi-gcc/10.3-2021.07/gcc/arm-none-eabi/include/c++/10.3.1/cmath **** namespace std _GLIBCXX_VISIBILITY(default)
  80:/opt/homebrew/Cellar/arm-none-eabi-gcc/10.3-2021.07/gcc/arm-none-eabi/include/c++/10.3.1/cmath **** {
  81:/opt/homebrew/Cellar/arm-none-eabi-gcc/10.3-2021.07/gcc/arm-none-eabi/include/c++/10.3.1/cmath **** _GLIBCXX_BEGIN_NAMESPACE_VERSION
  82:/opt/homebrew/Cellar/arm-none-eabi-gcc/10.3-2021.07/gcc/arm-none-eabi/include/c++/10.3.1/cmath **** 
  83:/opt/homebrew/Cellar/arm-none-eabi-gcc/10.3-2021.07/gcc/arm-none-eabi/include/c++/10.3.1/cmath ****   using ::acos;
  84:/opt/homebrew/Cellar/arm-none-eabi-gcc/10.3-2021.07/gcc/arm-none-eabi/include/c++/10.3.1/cmath **** 
  85:/opt/homebrew/Cellar/arm-none-eabi-gcc/10.3-2021.07/gcc/arm-none-eabi/include/c++/10.3.1/cmath **** #ifndef __CORRECT_ISO_CPP_MATH_H_PROTO
  86:/opt/homebrew/Cellar/arm-none-eabi-gcc/10.3-2021.07/gcc/arm-none-eabi/include/c++/10.3.1/cmath ****   inline _GLIBCXX_CONSTEXPR float
  87:/opt/homebrew/Cellar/arm-none-eabi-gcc/10.3-2021.07/gcc/arm-none-eabi/include/c++/10.3.1/cmath ****   acos(float __x)
  88:/opt/homebrew/Cellar/arm-none-eabi-gcc/10.3-2021.07/gcc/arm-none-eabi/include/c++/10.3.1/cmath ****   { return __builtin_acosf(__x); }
  89:/opt/homebrew/Cellar/arm-none-eabi-gcc/10.3-2021.07/gcc/arm-none-eabi/include/c++/10.3.1/cmath **** 
  90:/opt/homebrew/Cellar/arm-none-eabi-gcc/10.3-2021.07/gcc/arm-none-eabi/include/c++/10.3.1/cmath ****   inline _GLIBCXX_CONSTEXPR long double
  91:/opt/homebrew/Cellar/arm-none-eabi-gcc/10.3-2021.07/gcc/arm-none-eabi/include/c++/10.3.1/cmath ****   acos(long double __x)
  92:/opt/homebrew/Cellar/arm-none-eabi-gcc/10.3-2021.07/gcc/arm-none-eabi/include/c++/10.3.1/cmath ****   { return __builtin_acosl(__x); }
  93:/opt/homebrew/Cellar/arm-none-eabi-gcc/10.3-2021.07/gcc/arm-none-eabi/include/c++/10.3.1/cmath **** #endif
  94:/opt/homebrew/Cellar/arm-none-eabi-gcc/10.3-2021.07/gcc/arm-none-eabi/include/c++/10.3.1/cmath **** 
  95:/opt/homebrew/Cellar/arm-none-eabi-gcc/10.3-2021.07/gcc/arm-none-eabi/include/c++/10.3.1/cmath ****   template<typename _Tp>
  96:/opt/homebrew/Cellar/arm-none-eabi-gcc/10.3-2021.07/gcc/arm-none-eabi/include/c++/10.3.1/cmath ****     inline _GLIBCXX_CONSTEXPR
  97:/opt/homebrew/Cellar/arm-none-eabi-gcc/10.3-2021.07/gcc/arm-none-eabi/include/c++/10.3.1/cmath ****     typename __gnu_cxx::__enable_if<__is_integer<_Tp>::__value, 
  98:/opt/homebrew/Cellar/arm-none-eabi-gcc/10.3-2021.07/gcc/arm-none-eabi/include/c++/10.3.1/cmath ****                                     double>::__type
  99:/opt/homebrew/Cellar/arm-none-eabi-gcc/10.3-2021.07/gcc/arm-none-eabi/include/c++/10.3.1/cmath ****     acos(_Tp __x)
 100:/opt/homebrew/Cellar/arm-none-eabi-gcc/10.3-2021.07/gcc/arm-none-eabi/include/c++/10.3.1/cmath ****     { return __builtin_acos(__x); }
 101:/opt/homebrew/Cellar/arm-none-eabi-gcc/10.3-2021.07/gcc/arm-none-eabi/include/c++/10.3.1/cmath **** 
 102:/opt/homebrew/Cellar/arm-none-eabi-gcc/10.3-2021.07/gcc/arm-none-eabi/include/c++/10.3.1/cmath ****   using ::asin;
 103:/opt/homebrew/Cellar/arm-none-eabi-gcc/10.3-2021.07/gcc/arm-none-eabi/include/c++/10.3.1/cmath **** 
 104:/opt/homebrew/Cellar/arm-none-eabi-gcc/10.3-2021.07/gcc/arm-none-eabi/include/c++/10.3.1/cmath **** #ifndef __CORRECT_ISO_CPP_MATH_H_PROTO
 105:/opt/homebrew/Cellar/arm-none-eabi-gcc/10.3-2021.07/gcc/arm-none-eabi/include/c++/10.3.1/cmath ****   inline _GLIBCXX_CONSTEXPR float
 106:/opt/homebrew/Cellar/arm-none-eabi-gcc/10.3-2021.07/gcc/arm-none-eabi/include/c++/10.3.1/cmath ****   asin(float __x)
 107:/opt/homebrew/Cellar/arm-none-eabi-gcc/10.3-2021.07/gcc/arm-none-eabi/include/c++/10.3.1/cmath ****   { return __builtin_asinf(__x); }
 108:/opt/homebrew/Cellar/arm-none-eabi-gcc/10.3-2021.07/gcc/arm-none-eabi/include/c++/10.3.1/cmath **** 
 109:/opt/homebrew/Cellar/arm-none-eabi-gcc/10.3-2021.07/gcc/arm-none-eabi/include/c++/10.3.1/cmath ****   inline _GLIBCXX_CONSTEXPR long double
 110:/opt/homebrew/Cellar/arm-none-eabi-gcc/10.3-2021.07/gcc/arm-none-eabi/include/c++/10.3.1/cmath ****   asin(long double __x)
 111:/opt/homebrew/Cellar/arm-none-eabi-gcc/10.3-2021.07/gcc/arm-none-eabi/include/c++/10.3.1/cmath ****   { return __builtin_asinl(__x); }
 112:/opt/homebrew/Cellar/arm-none-eabi-gcc/10.3-2021.07/gcc/arm-none-eabi/include/c++/10.3.1/cmath **** #endif
 113:/opt/homebrew/Cellar/arm-none-eabi-gcc/10.3-2021.07/gcc/arm-none-eabi/include/c++/10.3.1/cmath **** 
 114:/opt/homebrew/Cellar/arm-none-eabi-gcc/10.3-2021.07/gcc/arm-none-eabi/include/c++/10.3.1/cmath ****   template<typename _Tp>
 115:/opt/homebrew/Cellar/arm-none-eabi-gcc/10.3-2021.07/gcc/arm-none-eabi/include/c++/10.3.1/cmath ****     inline _GLIBCXX_CONSTEXPR
 116:/opt/homebrew/Cellar/arm-none-eabi-gcc/10.3-2021.07/gcc/arm-none-eabi/include/c++/10.3.1/cmath ****     typename __gnu_cxx::__enable_if<__is_integer<_Tp>::__value,
 117:/opt/homebrew/Cellar/arm-none-eabi-gcc/10.3-2021.07/gcc/arm-none-eabi/include/c++/10.3.1/cmath ****                                     double>::__type
 118:/opt/homebrew/Cellar/arm-none-eabi-gcc/10.3-2021.07/gcc/arm-none-eabi/include/c++/10.3.1/cmath ****     asin(_Tp __x)
 119:/opt/homebrew/Cellar/arm-none-eabi-gcc/10.3-2021.07/gcc/arm-none-eabi/include/c++/10.3.1/cmath ****     { return __builtin_asin(__x); }
 120:/opt/homebrew/Cellar/arm-none-eabi-gcc/10.3-2021.07/gcc/arm-none-eabi/include/c++/10.3.1/cmath **** 
 121:/opt/homebrew/Cellar/arm-none-eabi-gcc/10.3-2021.07/gcc/arm-none-eabi/include/c++/10.3.1/cmath ****   using ::atan;
 122:/opt/homebrew/Cellar/arm-none-eabi-gcc/10.3-2021.07/gcc/arm-none-eabi/include/c++/10.3.1/cmath **** 
 123:/opt/homebrew/Cellar/arm-none-eabi-gcc/10.3-2021.07/gcc/arm-none-eabi/include/c++/10.3.1/cmath **** #ifndef __CORRECT_ISO_CPP_MATH_H_PROTO
 124:/opt/homebrew/Cellar/arm-none-eabi-gcc/10.3-2021.07/gcc/arm-none-eabi/include/c++/10.3.1/cmath ****   inline _GLIBCXX_CONSTEXPR float
 125:/opt/homebrew/Cellar/arm-none-eabi-gcc/10.3-2021.07/gcc/arm-none-eabi/include/c++/10.3.1/cmath ****   atan(float __x)
 126:/opt/homebrew/Cellar/arm-none-eabi-gcc/10.3-2021.07/gcc/arm-none-eabi/include/c++/10.3.1/cmath ****   { return __builtin_atanf(__x); }
 127:/opt/homebrew/Cellar/arm-none-eabi-gcc/10.3-2021.07/gcc/arm-none-eabi/include/c++/10.3.1/cmath **** 
 128:/opt/homebrew/Cellar/arm-none-eabi-gcc/10.3-2021.07/gcc/arm-none-eabi/include/c++/10.3.1/cmath ****   inline _GLIBCXX_CONSTEXPR long double
 129:/opt/homebrew/Cellar/arm-none-eabi-gcc/10.3-2021.07/gcc/arm-none-eabi/include/c++/10.3.1/cmath ****   atan(long double __x)
 130:/opt/homebrew/Cellar/arm-none-eabi-gcc/10.3-2021.07/gcc/arm-none-eabi/include/c++/10.3.1/cmath ****   { return __builtin_atanl(__x); }
 131:/opt/homebrew/Cellar/arm-none-eabi-gcc/10.3-2021.07/gcc/arm-none-eabi/include/c++/10.3.1/cmath **** #endif
ARM GAS  /var/folders/hl/qgbwny5j0fd895c2c41bk3tw0000gp/T//ccxZ31iG.s 			page 21


 132:/opt/homebrew/Cellar/arm-none-eabi-gcc/10.3-2021.07/gcc/arm-none-eabi/include/c++/10.3.1/cmath **** 
 133:/opt/homebrew/Cellar/arm-none-eabi-gcc/10.3-2021.07/gcc/arm-none-eabi/include/c++/10.3.1/cmath ****   template<typename _Tp>
 134:/opt/homebrew/Cellar/arm-none-eabi-gcc/10.3-2021.07/gcc/arm-none-eabi/include/c++/10.3.1/cmath ****     inline _GLIBCXX_CONSTEXPR
 135:/opt/homebrew/Cellar/arm-none-eabi-gcc/10.3-2021.07/gcc/arm-none-eabi/include/c++/10.3.1/cmath ****     typename __gnu_cxx::__enable_if<__is_integer<_Tp>::__value,
 136:/opt/homebrew/Cellar/arm-none-eabi-gcc/10.3-2021.07/gcc/arm-none-eabi/include/c++/10.3.1/cmath ****                                     double>::__type
 137:/opt/homebrew/Cellar/arm-none-eabi-gcc/10.3-2021.07/gcc/arm-none-eabi/include/c++/10.3.1/cmath ****     atan(_Tp __x)
 138:/opt/homebrew/Cellar/arm-none-eabi-gcc/10.3-2021.07/gcc/arm-none-eabi/include/c++/10.3.1/cmath ****     { return __builtin_atan(__x); }
 139:/opt/homebrew/Cellar/arm-none-eabi-gcc/10.3-2021.07/gcc/arm-none-eabi/include/c++/10.3.1/cmath **** 
 140:/opt/homebrew/Cellar/arm-none-eabi-gcc/10.3-2021.07/gcc/arm-none-eabi/include/c++/10.3.1/cmath ****   using ::atan2;
 141:/opt/homebrew/Cellar/arm-none-eabi-gcc/10.3-2021.07/gcc/arm-none-eabi/include/c++/10.3.1/cmath **** 
 142:/opt/homebrew/Cellar/arm-none-eabi-gcc/10.3-2021.07/gcc/arm-none-eabi/include/c++/10.3.1/cmath **** #ifndef __CORRECT_ISO_CPP_MATH_H_PROTO
 143:/opt/homebrew/Cellar/arm-none-eabi-gcc/10.3-2021.07/gcc/arm-none-eabi/include/c++/10.3.1/cmath ****   inline _GLIBCXX_CONSTEXPR float
 144:/opt/homebrew/Cellar/arm-none-eabi-gcc/10.3-2021.07/gcc/arm-none-eabi/include/c++/10.3.1/cmath ****   atan2(float __y, float __x)
 145:/opt/homebrew/Cellar/arm-none-eabi-gcc/10.3-2021.07/gcc/arm-none-eabi/include/c++/10.3.1/cmath ****   { return __builtin_atan2f(__y, __x); }
 146:/opt/homebrew/Cellar/arm-none-eabi-gcc/10.3-2021.07/gcc/arm-none-eabi/include/c++/10.3.1/cmath **** 
 147:/opt/homebrew/Cellar/arm-none-eabi-gcc/10.3-2021.07/gcc/arm-none-eabi/include/c++/10.3.1/cmath ****   inline _GLIBCXX_CONSTEXPR long double
 148:/opt/homebrew/Cellar/arm-none-eabi-gcc/10.3-2021.07/gcc/arm-none-eabi/include/c++/10.3.1/cmath ****   atan2(long double __y, long double __x)
 149:/opt/homebrew/Cellar/arm-none-eabi-gcc/10.3-2021.07/gcc/arm-none-eabi/include/c++/10.3.1/cmath ****   { return __builtin_atan2l(__y, __x); }
 150:/opt/homebrew/Cellar/arm-none-eabi-gcc/10.3-2021.07/gcc/arm-none-eabi/include/c++/10.3.1/cmath **** #endif
 151:/opt/homebrew/Cellar/arm-none-eabi-gcc/10.3-2021.07/gcc/arm-none-eabi/include/c++/10.3.1/cmath **** 
 152:/opt/homebrew/Cellar/arm-none-eabi-gcc/10.3-2021.07/gcc/arm-none-eabi/include/c++/10.3.1/cmath ****   template<typename _Tp, typename _Up>
 153:/opt/homebrew/Cellar/arm-none-eabi-gcc/10.3-2021.07/gcc/arm-none-eabi/include/c++/10.3.1/cmath ****     inline _GLIBCXX_CONSTEXPR
 154:/opt/homebrew/Cellar/arm-none-eabi-gcc/10.3-2021.07/gcc/arm-none-eabi/include/c++/10.3.1/cmath ****     typename __gnu_cxx::__promote_2<_Tp, _Up>::__type
 155:/opt/homebrew/Cellar/arm-none-eabi-gcc/10.3-2021.07/gcc/arm-none-eabi/include/c++/10.3.1/cmath ****     atan2(_Tp __y, _Up __x)
 156:/opt/homebrew/Cellar/arm-none-eabi-gcc/10.3-2021.07/gcc/arm-none-eabi/include/c++/10.3.1/cmath ****     {
 157:/opt/homebrew/Cellar/arm-none-eabi-gcc/10.3-2021.07/gcc/arm-none-eabi/include/c++/10.3.1/cmath ****       typedef typename __gnu_cxx::__promote_2<_Tp, _Up>::__type __type;
 158:/opt/homebrew/Cellar/arm-none-eabi-gcc/10.3-2021.07/gcc/arm-none-eabi/include/c++/10.3.1/cmath ****       return atan2(__type(__y), __type(__x));
 159:/opt/homebrew/Cellar/arm-none-eabi-gcc/10.3-2021.07/gcc/arm-none-eabi/include/c++/10.3.1/cmath ****     }
 160:/opt/homebrew/Cellar/arm-none-eabi-gcc/10.3-2021.07/gcc/arm-none-eabi/include/c++/10.3.1/cmath **** 
 161:/opt/homebrew/Cellar/arm-none-eabi-gcc/10.3-2021.07/gcc/arm-none-eabi/include/c++/10.3.1/cmath ****   using ::ceil;
 162:/opt/homebrew/Cellar/arm-none-eabi-gcc/10.3-2021.07/gcc/arm-none-eabi/include/c++/10.3.1/cmath **** 
 163:/opt/homebrew/Cellar/arm-none-eabi-gcc/10.3-2021.07/gcc/arm-none-eabi/include/c++/10.3.1/cmath **** #ifndef __CORRECT_ISO_CPP_MATH_H_PROTO
 164:/opt/homebrew/Cellar/arm-none-eabi-gcc/10.3-2021.07/gcc/arm-none-eabi/include/c++/10.3.1/cmath ****   inline _GLIBCXX_CONSTEXPR float
 165:/opt/homebrew/Cellar/arm-none-eabi-gcc/10.3-2021.07/gcc/arm-none-eabi/include/c++/10.3.1/cmath ****   ceil(float __x)
 166:/opt/homebrew/Cellar/arm-none-eabi-gcc/10.3-2021.07/gcc/arm-none-eabi/include/c++/10.3.1/cmath ****   { return __builtin_ceilf(__x); }
 167:/opt/homebrew/Cellar/arm-none-eabi-gcc/10.3-2021.07/gcc/arm-none-eabi/include/c++/10.3.1/cmath **** 
 168:/opt/homebrew/Cellar/arm-none-eabi-gcc/10.3-2021.07/gcc/arm-none-eabi/include/c++/10.3.1/cmath ****   inline _GLIBCXX_CONSTEXPR long double
 169:/opt/homebrew/Cellar/arm-none-eabi-gcc/10.3-2021.07/gcc/arm-none-eabi/include/c++/10.3.1/cmath ****   ceil(long double __x)
 170:/opt/homebrew/Cellar/arm-none-eabi-gcc/10.3-2021.07/gcc/arm-none-eabi/include/c++/10.3.1/cmath ****   { return __builtin_ceill(__x); }
 171:/opt/homebrew/Cellar/arm-none-eabi-gcc/10.3-2021.07/gcc/arm-none-eabi/include/c++/10.3.1/cmath **** #endif
 172:/opt/homebrew/Cellar/arm-none-eabi-gcc/10.3-2021.07/gcc/arm-none-eabi/include/c++/10.3.1/cmath **** 
 173:/opt/homebrew/Cellar/arm-none-eabi-gcc/10.3-2021.07/gcc/arm-none-eabi/include/c++/10.3.1/cmath ****   template<typename _Tp>
 174:/opt/homebrew/Cellar/arm-none-eabi-gcc/10.3-2021.07/gcc/arm-none-eabi/include/c++/10.3.1/cmath ****     inline _GLIBCXX_CONSTEXPR
 175:/opt/homebrew/Cellar/arm-none-eabi-gcc/10.3-2021.07/gcc/arm-none-eabi/include/c++/10.3.1/cmath ****     typename __gnu_cxx::__enable_if<__is_integer<_Tp>::__value, 
 176:/opt/homebrew/Cellar/arm-none-eabi-gcc/10.3-2021.07/gcc/arm-none-eabi/include/c++/10.3.1/cmath ****                                     double>::__type
 177:/opt/homebrew/Cellar/arm-none-eabi-gcc/10.3-2021.07/gcc/arm-none-eabi/include/c++/10.3.1/cmath ****     ceil(_Tp __x)
 178:/opt/homebrew/Cellar/arm-none-eabi-gcc/10.3-2021.07/gcc/arm-none-eabi/include/c++/10.3.1/cmath ****     { return __builtin_ceil(__x); }
 179:/opt/homebrew/Cellar/arm-none-eabi-gcc/10.3-2021.07/gcc/arm-none-eabi/include/c++/10.3.1/cmath **** 
 180:/opt/homebrew/Cellar/arm-none-eabi-gcc/10.3-2021.07/gcc/arm-none-eabi/include/c++/10.3.1/cmath ****   using ::cos;
 181:/opt/homebrew/Cellar/arm-none-eabi-gcc/10.3-2021.07/gcc/arm-none-eabi/include/c++/10.3.1/cmath **** 
 182:/opt/homebrew/Cellar/arm-none-eabi-gcc/10.3-2021.07/gcc/arm-none-eabi/include/c++/10.3.1/cmath **** #ifndef __CORRECT_ISO_CPP_MATH_H_PROTO
 183:/opt/homebrew/Cellar/arm-none-eabi-gcc/10.3-2021.07/gcc/arm-none-eabi/include/c++/10.3.1/cmath ****   inline _GLIBCXX_CONSTEXPR float
 184:/opt/homebrew/Cellar/arm-none-eabi-gcc/10.3-2021.07/gcc/arm-none-eabi/include/c++/10.3.1/cmath ****   cos(float __x)
 185:/opt/homebrew/Cellar/arm-none-eabi-gcc/10.3-2021.07/gcc/arm-none-eabi/include/c++/10.3.1/cmath ****   { return __builtin_cosf(__x); }
 186:/opt/homebrew/Cellar/arm-none-eabi-gcc/10.3-2021.07/gcc/arm-none-eabi/include/c++/10.3.1/cmath **** 
 187:/opt/homebrew/Cellar/arm-none-eabi-gcc/10.3-2021.07/gcc/arm-none-eabi/include/c++/10.3.1/cmath ****   inline _GLIBCXX_CONSTEXPR long double
 188:/opt/homebrew/Cellar/arm-none-eabi-gcc/10.3-2021.07/gcc/arm-none-eabi/include/c++/10.3.1/cmath ****   cos(long double __x)
ARM GAS  /var/folders/hl/qgbwny5j0fd895c2c41bk3tw0000gp/T//ccxZ31iG.s 			page 22


 189:/opt/homebrew/Cellar/arm-none-eabi-gcc/10.3-2021.07/gcc/arm-none-eabi/include/c++/10.3.1/cmath ****   { return __builtin_cosl(__x); }
 190:/opt/homebrew/Cellar/arm-none-eabi-gcc/10.3-2021.07/gcc/arm-none-eabi/include/c++/10.3.1/cmath **** #endif
 191:/opt/homebrew/Cellar/arm-none-eabi-gcc/10.3-2021.07/gcc/arm-none-eabi/include/c++/10.3.1/cmath **** 
 192:/opt/homebrew/Cellar/arm-none-eabi-gcc/10.3-2021.07/gcc/arm-none-eabi/include/c++/10.3.1/cmath ****   template<typename _Tp>
 193:/opt/homebrew/Cellar/arm-none-eabi-gcc/10.3-2021.07/gcc/arm-none-eabi/include/c++/10.3.1/cmath ****     inline _GLIBCXX_CONSTEXPR
 194:/opt/homebrew/Cellar/arm-none-eabi-gcc/10.3-2021.07/gcc/arm-none-eabi/include/c++/10.3.1/cmath ****     typename __gnu_cxx::__enable_if<__is_integer<_Tp>::__value,
 195:/opt/homebrew/Cellar/arm-none-eabi-gcc/10.3-2021.07/gcc/arm-none-eabi/include/c++/10.3.1/cmath ****                                     double>::__type
 196:/opt/homebrew/Cellar/arm-none-eabi-gcc/10.3-2021.07/gcc/arm-none-eabi/include/c++/10.3.1/cmath ****     cos(_Tp __x)
 197:/opt/homebrew/Cellar/arm-none-eabi-gcc/10.3-2021.07/gcc/arm-none-eabi/include/c++/10.3.1/cmath ****     { return __builtin_cos(__x); }
 198:/opt/homebrew/Cellar/arm-none-eabi-gcc/10.3-2021.07/gcc/arm-none-eabi/include/c++/10.3.1/cmath **** 
 199:/opt/homebrew/Cellar/arm-none-eabi-gcc/10.3-2021.07/gcc/arm-none-eabi/include/c++/10.3.1/cmath ****   using ::cosh;
 200:/opt/homebrew/Cellar/arm-none-eabi-gcc/10.3-2021.07/gcc/arm-none-eabi/include/c++/10.3.1/cmath **** 
 201:/opt/homebrew/Cellar/arm-none-eabi-gcc/10.3-2021.07/gcc/arm-none-eabi/include/c++/10.3.1/cmath **** #ifndef __CORRECT_ISO_CPP_MATH_H_PROTO
 202:/opt/homebrew/Cellar/arm-none-eabi-gcc/10.3-2021.07/gcc/arm-none-eabi/include/c++/10.3.1/cmath ****   inline _GLIBCXX_CONSTEXPR float
 203:/opt/homebrew/Cellar/arm-none-eabi-gcc/10.3-2021.07/gcc/arm-none-eabi/include/c++/10.3.1/cmath ****   cosh(float __x)
 204:/opt/homebrew/Cellar/arm-none-eabi-gcc/10.3-2021.07/gcc/arm-none-eabi/include/c++/10.3.1/cmath ****   { return __builtin_coshf(__x); }
 205:/opt/homebrew/Cellar/arm-none-eabi-gcc/10.3-2021.07/gcc/arm-none-eabi/include/c++/10.3.1/cmath **** 
 206:/opt/homebrew/Cellar/arm-none-eabi-gcc/10.3-2021.07/gcc/arm-none-eabi/include/c++/10.3.1/cmath ****   inline _GLIBCXX_CONSTEXPR long double
 207:/opt/homebrew/Cellar/arm-none-eabi-gcc/10.3-2021.07/gcc/arm-none-eabi/include/c++/10.3.1/cmath ****   cosh(long double __x)
 208:/opt/homebrew/Cellar/arm-none-eabi-gcc/10.3-2021.07/gcc/arm-none-eabi/include/c++/10.3.1/cmath ****   { return __builtin_coshl(__x); }
 209:/opt/homebrew/Cellar/arm-none-eabi-gcc/10.3-2021.07/gcc/arm-none-eabi/include/c++/10.3.1/cmath **** #endif
 210:/opt/homebrew/Cellar/arm-none-eabi-gcc/10.3-2021.07/gcc/arm-none-eabi/include/c++/10.3.1/cmath **** 
 211:/opt/homebrew/Cellar/arm-none-eabi-gcc/10.3-2021.07/gcc/arm-none-eabi/include/c++/10.3.1/cmath ****   template<typename _Tp>
 212:/opt/homebrew/Cellar/arm-none-eabi-gcc/10.3-2021.07/gcc/arm-none-eabi/include/c++/10.3.1/cmath ****     inline _GLIBCXX_CONSTEXPR
 213:/opt/homebrew/Cellar/arm-none-eabi-gcc/10.3-2021.07/gcc/arm-none-eabi/include/c++/10.3.1/cmath ****     typename __gnu_cxx::__enable_if<__is_integer<_Tp>::__value,
 214:/opt/homebrew/Cellar/arm-none-eabi-gcc/10.3-2021.07/gcc/arm-none-eabi/include/c++/10.3.1/cmath ****                                     double>::__type
 215:/opt/homebrew/Cellar/arm-none-eabi-gcc/10.3-2021.07/gcc/arm-none-eabi/include/c++/10.3.1/cmath ****     cosh(_Tp __x)
 216:/opt/homebrew/Cellar/arm-none-eabi-gcc/10.3-2021.07/gcc/arm-none-eabi/include/c++/10.3.1/cmath ****     { return __builtin_cosh(__x); }
 217:/opt/homebrew/Cellar/arm-none-eabi-gcc/10.3-2021.07/gcc/arm-none-eabi/include/c++/10.3.1/cmath **** 
 218:/opt/homebrew/Cellar/arm-none-eabi-gcc/10.3-2021.07/gcc/arm-none-eabi/include/c++/10.3.1/cmath ****   using ::exp;
 219:/opt/homebrew/Cellar/arm-none-eabi-gcc/10.3-2021.07/gcc/arm-none-eabi/include/c++/10.3.1/cmath **** 
 220:/opt/homebrew/Cellar/arm-none-eabi-gcc/10.3-2021.07/gcc/arm-none-eabi/include/c++/10.3.1/cmath **** #ifndef __CORRECT_ISO_CPP_MATH_H_PROTO
 221:/opt/homebrew/Cellar/arm-none-eabi-gcc/10.3-2021.07/gcc/arm-none-eabi/include/c++/10.3.1/cmath ****   inline _GLIBCXX_CONSTEXPR float
 222:/opt/homebrew/Cellar/arm-none-eabi-gcc/10.3-2021.07/gcc/arm-none-eabi/include/c++/10.3.1/cmath ****   exp(float __x)
 223:/opt/homebrew/Cellar/arm-none-eabi-gcc/10.3-2021.07/gcc/arm-none-eabi/include/c++/10.3.1/cmath ****   { return __builtin_expf(__x); }
 224:/opt/homebrew/Cellar/arm-none-eabi-gcc/10.3-2021.07/gcc/arm-none-eabi/include/c++/10.3.1/cmath **** 
 225:/opt/homebrew/Cellar/arm-none-eabi-gcc/10.3-2021.07/gcc/arm-none-eabi/include/c++/10.3.1/cmath ****   inline _GLIBCXX_CONSTEXPR long double
 226:/opt/homebrew/Cellar/arm-none-eabi-gcc/10.3-2021.07/gcc/arm-none-eabi/include/c++/10.3.1/cmath ****   exp(long double __x)
 227:/opt/homebrew/Cellar/arm-none-eabi-gcc/10.3-2021.07/gcc/arm-none-eabi/include/c++/10.3.1/cmath ****   { return __builtin_expl(__x); }
 228:/opt/homebrew/Cellar/arm-none-eabi-gcc/10.3-2021.07/gcc/arm-none-eabi/include/c++/10.3.1/cmath **** #endif
 229:/opt/homebrew/Cellar/arm-none-eabi-gcc/10.3-2021.07/gcc/arm-none-eabi/include/c++/10.3.1/cmath **** 
 230:/opt/homebrew/Cellar/arm-none-eabi-gcc/10.3-2021.07/gcc/arm-none-eabi/include/c++/10.3.1/cmath ****   template<typename _Tp>
 231:/opt/homebrew/Cellar/arm-none-eabi-gcc/10.3-2021.07/gcc/arm-none-eabi/include/c++/10.3.1/cmath ****     inline _GLIBCXX_CONSTEXPR
 232:/opt/homebrew/Cellar/arm-none-eabi-gcc/10.3-2021.07/gcc/arm-none-eabi/include/c++/10.3.1/cmath ****     typename __gnu_cxx::__enable_if<__is_integer<_Tp>::__value,
 233:/opt/homebrew/Cellar/arm-none-eabi-gcc/10.3-2021.07/gcc/arm-none-eabi/include/c++/10.3.1/cmath ****                                     double>::__type
 234:/opt/homebrew/Cellar/arm-none-eabi-gcc/10.3-2021.07/gcc/arm-none-eabi/include/c++/10.3.1/cmath ****     exp(_Tp __x)
 235:/opt/homebrew/Cellar/arm-none-eabi-gcc/10.3-2021.07/gcc/arm-none-eabi/include/c++/10.3.1/cmath ****     { return __builtin_exp(__x); }
 236:/opt/homebrew/Cellar/arm-none-eabi-gcc/10.3-2021.07/gcc/arm-none-eabi/include/c++/10.3.1/cmath **** 
 237:/opt/homebrew/Cellar/arm-none-eabi-gcc/10.3-2021.07/gcc/arm-none-eabi/include/c++/10.3.1/cmath ****   using ::fabs;
 238:/opt/homebrew/Cellar/arm-none-eabi-gcc/10.3-2021.07/gcc/arm-none-eabi/include/c++/10.3.1/cmath **** 
 239:/opt/homebrew/Cellar/arm-none-eabi-gcc/10.3-2021.07/gcc/arm-none-eabi/include/c++/10.3.1/cmath **** #ifndef __CORRECT_ISO_CPP_MATH_H_PROTO
 240:/opt/homebrew/Cellar/arm-none-eabi-gcc/10.3-2021.07/gcc/arm-none-eabi/include/c++/10.3.1/cmath ****   inline _GLIBCXX_CONSTEXPR float
 241:/opt/homebrew/Cellar/arm-none-eabi-gcc/10.3-2021.07/gcc/arm-none-eabi/include/c++/10.3.1/cmath ****   fabs(float __x)
 242:/opt/homebrew/Cellar/arm-none-eabi-gcc/10.3-2021.07/gcc/arm-none-eabi/include/c++/10.3.1/cmath ****   { return __builtin_fabsf(__x); }
 243:/opt/homebrew/Cellar/arm-none-eabi-gcc/10.3-2021.07/gcc/arm-none-eabi/include/c++/10.3.1/cmath **** 
 244:/opt/homebrew/Cellar/arm-none-eabi-gcc/10.3-2021.07/gcc/arm-none-eabi/include/c++/10.3.1/cmath ****   inline _GLIBCXX_CONSTEXPR long double
 245:/opt/homebrew/Cellar/arm-none-eabi-gcc/10.3-2021.07/gcc/arm-none-eabi/include/c++/10.3.1/cmath ****   fabs(long double __x)
ARM GAS  /var/folders/hl/qgbwny5j0fd895c2c41bk3tw0000gp/T//ccxZ31iG.s 			page 23


 246:/opt/homebrew/Cellar/arm-none-eabi-gcc/10.3-2021.07/gcc/arm-none-eabi/include/c++/10.3.1/cmath ****   { return __builtin_fabsl(__x); }
 247:/opt/homebrew/Cellar/arm-none-eabi-gcc/10.3-2021.07/gcc/arm-none-eabi/include/c++/10.3.1/cmath **** #endif
 248:/opt/homebrew/Cellar/arm-none-eabi-gcc/10.3-2021.07/gcc/arm-none-eabi/include/c++/10.3.1/cmath **** 
 249:/opt/homebrew/Cellar/arm-none-eabi-gcc/10.3-2021.07/gcc/arm-none-eabi/include/c++/10.3.1/cmath ****   template<typename _Tp>
 250:/opt/homebrew/Cellar/arm-none-eabi-gcc/10.3-2021.07/gcc/arm-none-eabi/include/c++/10.3.1/cmath ****     inline _GLIBCXX_CONSTEXPR
 251:/opt/homebrew/Cellar/arm-none-eabi-gcc/10.3-2021.07/gcc/arm-none-eabi/include/c++/10.3.1/cmath ****     typename __gnu_cxx::__enable_if<__is_integer<_Tp>::__value,
 252:/opt/homebrew/Cellar/arm-none-eabi-gcc/10.3-2021.07/gcc/arm-none-eabi/include/c++/10.3.1/cmath ****                                     double>::__type
 253:/opt/homebrew/Cellar/arm-none-eabi-gcc/10.3-2021.07/gcc/arm-none-eabi/include/c++/10.3.1/cmath ****     fabs(_Tp __x)
 254:/opt/homebrew/Cellar/arm-none-eabi-gcc/10.3-2021.07/gcc/arm-none-eabi/include/c++/10.3.1/cmath ****     { return __builtin_fabs(__x); }
 255:/opt/homebrew/Cellar/arm-none-eabi-gcc/10.3-2021.07/gcc/arm-none-eabi/include/c++/10.3.1/cmath **** 
 256:/opt/homebrew/Cellar/arm-none-eabi-gcc/10.3-2021.07/gcc/arm-none-eabi/include/c++/10.3.1/cmath ****   using ::floor;
 257:/opt/homebrew/Cellar/arm-none-eabi-gcc/10.3-2021.07/gcc/arm-none-eabi/include/c++/10.3.1/cmath **** 
 258:/opt/homebrew/Cellar/arm-none-eabi-gcc/10.3-2021.07/gcc/arm-none-eabi/include/c++/10.3.1/cmath **** #ifndef __CORRECT_ISO_CPP_MATH_H_PROTO
 259:/opt/homebrew/Cellar/arm-none-eabi-gcc/10.3-2021.07/gcc/arm-none-eabi/include/c++/10.3.1/cmath ****   inline _GLIBCXX_CONSTEXPR float
 260:/opt/homebrew/Cellar/arm-none-eabi-gcc/10.3-2021.07/gcc/arm-none-eabi/include/c++/10.3.1/cmath ****   floor(float __x)
 261:/opt/homebrew/Cellar/arm-none-eabi-gcc/10.3-2021.07/gcc/arm-none-eabi/include/c++/10.3.1/cmath ****   { return __builtin_floorf(__x); }
 262:/opt/homebrew/Cellar/arm-none-eabi-gcc/10.3-2021.07/gcc/arm-none-eabi/include/c++/10.3.1/cmath **** 
 263:/opt/homebrew/Cellar/arm-none-eabi-gcc/10.3-2021.07/gcc/arm-none-eabi/include/c++/10.3.1/cmath ****   inline _GLIBCXX_CONSTEXPR long double
 264:/opt/homebrew/Cellar/arm-none-eabi-gcc/10.3-2021.07/gcc/arm-none-eabi/include/c++/10.3.1/cmath ****   floor(long double __x)
 265:/opt/homebrew/Cellar/arm-none-eabi-gcc/10.3-2021.07/gcc/arm-none-eabi/include/c++/10.3.1/cmath ****   { return __builtin_floorl(__x); }
 266:/opt/homebrew/Cellar/arm-none-eabi-gcc/10.3-2021.07/gcc/arm-none-eabi/include/c++/10.3.1/cmath **** #endif
 267:/opt/homebrew/Cellar/arm-none-eabi-gcc/10.3-2021.07/gcc/arm-none-eabi/include/c++/10.3.1/cmath **** 
 268:/opt/homebrew/Cellar/arm-none-eabi-gcc/10.3-2021.07/gcc/arm-none-eabi/include/c++/10.3.1/cmath ****   template<typename _Tp>
 269:/opt/homebrew/Cellar/arm-none-eabi-gcc/10.3-2021.07/gcc/arm-none-eabi/include/c++/10.3.1/cmath ****     inline _GLIBCXX_CONSTEXPR
 270:/opt/homebrew/Cellar/arm-none-eabi-gcc/10.3-2021.07/gcc/arm-none-eabi/include/c++/10.3.1/cmath ****     typename __gnu_cxx::__enable_if<__is_integer<_Tp>::__value,
 271:/opt/homebrew/Cellar/arm-none-eabi-gcc/10.3-2021.07/gcc/arm-none-eabi/include/c++/10.3.1/cmath ****                                     double>::__type
 272:/opt/homebrew/Cellar/arm-none-eabi-gcc/10.3-2021.07/gcc/arm-none-eabi/include/c++/10.3.1/cmath ****     floor(_Tp __x)
 273:/opt/homebrew/Cellar/arm-none-eabi-gcc/10.3-2021.07/gcc/arm-none-eabi/include/c++/10.3.1/cmath ****     { return __builtin_floor(__x); }
 274:/opt/homebrew/Cellar/arm-none-eabi-gcc/10.3-2021.07/gcc/arm-none-eabi/include/c++/10.3.1/cmath **** 
 275:/opt/homebrew/Cellar/arm-none-eabi-gcc/10.3-2021.07/gcc/arm-none-eabi/include/c++/10.3.1/cmath ****   using ::fmod;
 276:/opt/homebrew/Cellar/arm-none-eabi-gcc/10.3-2021.07/gcc/arm-none-eabi/include/c++/10.3.1/cmath **** 
 277:/opt/homebrew/Cellar/arm-none-eabi-gcc/10.3-2021.07/gcc/arm-none-eabi/include/c++/10.3.1/cmath **** #ifndef __CORRECT_ISO_CPP_MATH_H_PROTO
 278:/opt/homebrew/Cellar/arm-none-eabi-gcc/10.3-2021.07/gcc/arm-none-eabi/include/c++/10.3.1/cmath ****   inline _GLIBCXX_CONSTEXPR float
 279:/opt/homebrew/Cellar/arm-none-eabi-gcc/10.3-2021.07/gcc/arm-none-eabi/include/c++/10.3.1/cmath ****   fmod(float __x, float __y)
 280:/opt/homebrew/Cellar/arm-none-eabi-gcc/10.3-2021.07/gcc/arm-none-eabi/include/c++/10.3.1/cmath ****   { return __builtin_fmodf(__x, __y); }
 281:/opt/homebrew/Cellar/arm-none-eabi-gcc/10.3-2021.07/gcc/arm-none-eabi/include/c++/10.3.1/cmath **** 
 282:/opt/homebrew/Cellar/arm-none-eabi-gcc/10.3-2021.07/gcc/arm-none-eabi/include/c++/10.3.1/cmath ****   inline _GLIBCXX_CONSTEXPR long double
 283:/opt/homebrew/Cellar/arm-none-eabi-gcc/10.3-2021.07/gcc/arm-none-eabi/include/c++/10.3.1/cmath ****   fmod(long double __x, long double __y)
 284:/opt/homebrew/Cellar/arm-none-eabi-gcc/10.3-2021.07/gcc/arm-none-eabi/include/c++/10.3.1/cmath ****   { return __builtin_fmodl(__x, __y); }
 285:/opt/homebrew/Cellar/arm-none-eabi-gcc/10.3-2021.07/gcc/arm-none-eabi/include/c++/10.3.1/cmath **** #endif
 286:/opt/homebrew/Cellar/arm-none-eabi-gcc/10.3-2021.07/gcc/arm-none-eabi/include/c++/10.3.1/cmath **** 
 287:/opt/homebrew/Cellar/arm-none-eabi-gcc/10.3-2021.07/gcc/arm-none-eabi/include/c++/10.3.1/cmath ****   template<typename _Tp, typename _Up>
 288:/opt/homebrew/Cellar/arm-none-eabi-gcc/10.3-2021.07/gcc/arm-none-eabi/include/c++/10.3.1/cmath ****     inline _GLIBCXX_CONSTEXPR
 289:/opt/homebrew/Cellar/arm-none-eabi-gcc/10.3-2021.07/gcc/arm-none-eabi/include/c++/10.3.1/cmath ****     typename __gnu_cxx::__promote_2<_Tp, _Up>::__type
 290:/opt/homebrew/Cellar/arm-none-eabi-gcc/10.3-2021.07/gcc/arm-none-eabi/include/c++/10.3.1/cmath ****     fmod(_Tp __x, _Up __y)
 291:/opt/homebrew/Cellar/arm-none-eabi-gcc/10.3-2021.07/gcc/arm-none-eabi/include/c++/10.3.1/cmath ****     {
 292:/opt/homebrew/Cellar/arm-none-eabi-gcc/10.3-2021.07/gcc/arm-none-eabi/include/c++/10.3.1/cmath ****       typedef typename __gnu_cxx::__promote_2<_Tp, _Up>::__type __type;
 293:/opt/homebrew/Cellar/arm-none-eabi-gcc/10.3-2021.07/gcc/arm-none-eabi/include/c++/10.3.1/cmath ****       return fmod(__type(__x), __type(__y));
 294:/opt/homebrew/Cellar/arm-none-eabi-gcc/10.3-2021.07/gcc/arm-none-eabi/include/c++/10.3.1/cmath ****     }
 295:/opt/homebrew/Cellar/arm-none-eabi-gcc/10.3-2021.07/gcc/arm-none-eabi/include/c++/10.3.1/cmath **** 
 296:/opt/homebrew/Cellar/arm-none-eabi-gcc/10.3-2021.07/gcc/arm-none-eabi/include/c++/10.3.1/cmath ****   using ::frexp;
 297:/opt/homebrew/Cellar/arm-none-eabi-gcc/10.3-2021.07/gcc/arm-none-eabi/include/c++/10.3.1/cmath **** 
 298:/opt/homebrew/Cellar/arm-none-eabi-gcc/10.3-2021.07/gcc/arm-none-eabi/include/c++/10.3.1/cmath **** #ifndef __CORRECT_ISO_CPP_MATH_H_PROTO
 299:/opt/homebrew/Cellar/arm-none-eabi-gcc/10.3-2021.07/gcc/arm-none-eabi/include/c++/10.3.1/cmath ****   inline float
 300:/opt/homebrew/Cellar/arm-none-eabi-gcc/10.3-2021.07/gcc/arm-none-eabi/include/c++/10.3.1/cmath ****   frexp(float __x, int* __exp)
 301:/opt/homebrew/Cellar/arm-none-eabi-gcc/10.3-2021.07/gcc/arm-none-eabi/include/c++/10.3.1/cmath ****   { return __builtin_frexpf(__x, __exp); }
 302:/opt/homebrew/Cellar/arm-none-eabi-gcc/10.3-2021.07/gcc/arm-none-eabi/include/c++/10.3.1/cmath **** 
ARM GAS  /var/folders/hl/qgbwny5j0fd895c2c41bk3tw0000gp/T//ccxZ31iG.s 			page 24


 303:/opt/homebrew/Cellar/arm-none-eabi-gcc/10.3-2021.07/gcc/arm-none-eabi/include/c++/10.3.1/cmath ****   inline long double
 304:/opt/homebrew/Cellar/arm-none-eabi-gcc/10.3-2021.07/gcc/arm-none-eabi/include/c++/10.3.1/cmath ****   frexp(long double __x, int* __exp)
 305:/opt/homebrew/Cellar/arm-none-eabi-gcc/10.3-2021.07/gcc/arm-none-eabi/include/c++/10.3.1/cmath ****   { return __builtin_frexpl(__x, __exp); }
 306:/opt/homebrew/Cellar/arm-none-eabi-gcc/10.3-2021.07/gcc/arm-none-eabi/include/c++/10.3.1/cmath **** #endif
 307:/opt/homebrew/Cellar/arm-none-eabi-gcc/10.3-2021.07/gcc/arm-none-eabi/include/c++/10.3.1/cmath **** 
 308:/opt/homebrew/Cellar/arm-none-eabi-gcc/10.3-2021.07/gcc/arm-none-eabi/include/c++/10.3.1/cmath ****   template<typename _Tp>
 309:/opt/homebrew/Cellar/arm-none-eabi-gcc/10.3-2021.07/gcc/arm-none-eabi/include/c++/10.3.1/cmath ****     inline _GLIBCXX_CONSTEXPR
 310:/opt/homebrew/Cellar/arm-none-eabi-gcc/10.3-2021.07/gcc/arm-none-eabi/include/c++/10.3.1/cmath ****     typename __gnu_cxx::__enable_if<__is_integer<_Tp>::__value, 
 311:/opt/homebrew/Cellar/arm-none-eabi-gcc/10.3-2021.07/gcc/arm-none-eabi/include/c++/10.3.1/cmath ****                                     double>::__type
 312:/opt/homebrew/Cellar/arm-none-eabi-gcc/10.3-2021.07/gcc/arm-none-eabi/include/c++/10.3.1/cmath ****     frexp(_Tp __x, int* __exp)
 313:/opt/homebrew/Cellar/arm-none-eabi-gcc/10.3-2021.07/gcc/arm-none-eabi/include/c++/10.3.1/cmath ****     { return __builtin_frexp(__x, __exp); }
 314:/opt/homebrew/Cellar/arm-none-eabi-gcc/10.3-2021.07/gcc/arm-none-eabi/include/c++/10.3.1/cmath **** 
 315:/opt/homebrew/Cellar/arm-none-eabi-gcc/10.3-2021.07/gcc/arm-none-eabi/include/c++/10.3.1/cmath ****   using ::ldexp;
 316:/opt/homebrew/Cellar/arm-none-eabi-gcc/10.3-2021.07/gcc/arm-none-eabi/include/c++/10.3.1/cmath **** 
 317:/opt/homebrew/Cellar/arm-none-eabi-gcc/10.3-2021.07/gcc/arm-none-eabi/include/c++/10.3.1/cmath **** #ifndef __CORRECT_ISO_CPP_MATH_H_PROTO
 318:/opt/homebrew/Cellar/arm-none-eabi-gcc/10.3-2021.07/gcc/arm-none-eabi/include/c++/10.3.1/cmath ****   inline _GLIBCXX_CONSTEXPR float
 319:/opt/homebrew/Cellar/arm-none-eabi-gcc/10.3-2021.07/gcc/arm-none-eabi/include/c++/10.3.1/cmath ****   ldexp(float __x, int __exp)
 320:/opt/homebrew/Cellar/arm-none-eabi-gcc/10.3-2021.07/gcc/arm-none-eabi/include/c++/10.3.1/cmath ****   { return __builtin_ldexpf(__x, __exp); }
 321:/opt/homebrew/Cellar/arm-none-eabi-gcc/10.3-2021.07/gcc/arm-none-eabi/include/c++/10.3.1/cmath **** 
 322:/opt/homebrew/Cellar/arm-none-eabi-gcc/10.3-2021.07/gcc/arm-none-eabi/include/c++/10.3.1/cmath ****   inline _GLIBCXX_CONSTEXPR long double
 323:/opt/homebrew/Cellar/arm-none-eabi-gcc/10.3-2021.07/gcc/arm-none-eabi/include/c++/10.3.1/cmath ****   ldexp(long double __x, int __exp)
 324:/opt/homebrew/Cellar/arm-none-eabi-gcc/10.3-2021.07/gcc/arm-none-eabi/include/c++/10.3.1/cmath ****   { return __builtin_ldexpl(__x, __exp); }
 325:/opt/homebrew/Cellar/arm-none-eabi-gcc/10.3-2021.07/gcc/arm-none-eabi/include/c++/10.3.1/cmath **** #endif
 326:/opt/homebrew/Cellar/arm-none-eabi-gcc/10.3-2021.07/gcc/arm-none-eabi/include/c++/10.3.1/cmath **** 
 327:/opt/homebrew/Cellar/arm-none-eabi-gcc/10.3-2021.07/gcc/arm-none-eabi/include/c++/10.3.1/cmath ****   template<typename _Tp>
 328:/opt/homebrew/Cellar/arm-none-eabi-gcc/10.3-2021.07/gcc/arm-none-eabi/include/c++/10.3.1/cmath ****     inline _GLIBCXX_CONSTEXPR
 329:/opt/homebrew/Cellar/arm-none-eabi-gcc/10.3-2021.07/gcc/arm-none-eabi/include/c++/10.3.1/cmath ****     typename __gnu_cxx::__enable_if<__is_integer<_Tp>::__value, 
 330:/opt/homebrew/Cellar/arm-none-eabi-gcc/10.3-2021.07/gcc/arm-none-eabi/include/c++/10.3.1/cmath ****                                     double>::__type
 331:/opt/homebrew/Cellar/arm-none-eabi-gcc/10.3-2021.07/gcc/arm-none-eabi/include/c++/10.3.1/cmath ****     ldexp(_Tp __x, int __exp)
 332:/opt/homebrew/Cellar/arm-none-eabi-gcc/10.3-2021.07/gcc/arm-none-eabi/include/c++/10.3.1/cmath ****     { return __builtin_ldexp(__x, __exp); }
 333:/opt/homebrew/Cellar/arm-none-eabi-gcc/10.3-2021.07/gcc/arm-none-eabi/include/c++/10.3.1/cmath **** 
 334:/opt/homebrew/Cellar/arm-none-eabi-gcc/10.3-2021.07/gcc/arm-none-eabi/include/c++/10.3.1/cmath ****   using ::log;
 335:/opt/homebrew/Cellar/arm-none-eabi-gcc/10.3-2021.07/gcc/arm-none-eabi/include/c++/10.3.1/cmath **** 
 336:/opt/homebrew/Cellar/arm-none-eabi-gcc/10.3-2021.07/gcc/arm-none-eabi/include/c++/10.3.1/cmath **** #ifndef __CORRECT_ISO_CPP_MATH_H_PROTO
 337:/opt/homebrew/Cellar/arm-none-eabi-gcc/10.3-2021.07/gcc/arm-none-eabi/include/c++/10.3.1/cmath ****   inline _GLIBCXX_CONSTEXPR float
 338:/opt/homebrew/Cellar/arm-none-eabi-gcc/10.3-2021.07/gcc/arm-none-eabi/include/c++/10.3.1/cmath ****   log(float __x)
 339:/opt/homebrew/Cellar/arm-none-eabi-gcc/10.3-2021.07/gcc/arm-none-eabi/include/c++/10.3.1/cmath ****   { return __builtin_logf(__x); }
 340:/opt/homebrew/Cellar/arm-none-eabi-gcc/10.3-2021.07/gcc/arm-none-eabi/include/c++/10.3.1/cmath **** 
 341:/opt/homebrew/Cellar/arm-none-eabi-gcc/10.3-2021.07/gcc/arm-none-eabi/include/c++/10.3.1/cmath ****   inline _GLIBCXX_CONSTEXPR long double
 342:/opt/homebrew/Cellar/arm-none-eabi-gcc/10.3-2021.07/gcc/arm-none-eabi/include/c++/10.3.1/cmath ****   log(long double __x)
 343:/opt/homebrew/Cellar/arm-none-eabi-gcc/10.3-2021.07/gcc/arm-none-eabi/include/c++/10.3.1/cmath ****   { return __builtin_logl(__x); }
 344:/opt/homebrew/Cellar/arm-none-eabi-gcc/10.3-2021.07/gcc/arm-none-eabi/include/c++/10.3.1/cmath **** #endif
 345:/opt/homebrew/Cellar/arm-none-eabi-gcc/10.3-2021.07/gcc/arm-none-eabi/include/c++/10.3.1/cmath **** 
 346:/opt/homebrew/Cellar/arm-none-eabi-gcc/10.3-2021.07/gcc/arm-none-eabi/include/c++/10.3.1/cmath ****   template<typename _Tp>
 347:/opt/homebrew/Cellar/arm-none-eabi-gcc/10.3-2021.07/gcc/arm-none-eabi/include/c++/10.3.1/cmath ****     inline _GLIBCXX_CONSTEXPR
 348:/opt/homebrew/Cellar/arm-none-eabi-gcc/10.3-2021.07/gcc/arm-none-eabi/include/c++/10.3.1/cmath ****     typename __gnu_cxx::__enable_if<__is_integer<_Tp>::__value, 
 349:/opt/homebrew/Cellar/arm-none-eabi-gcc/10.3-2021.07/gcc/arm-none-eabi/include/c++/10.3.1/cmath ****                                     double>::__type
 350:/opt/homebrew/Cellar/arm-none-eabi-gcc/10.3-2021.07/gcc/arm-none-eabi/include/c++/10.3.1/cmath ****     log(_Tp __x)
 351:/opt/homebrew/Cellar/arm-none-eabi-gcc/10.3-2021.07/gcc/arm-none-eabi/include/c++/10.3.1/cmath ****     { return __builtin_log(__x); }
 352:/opt/homebrew/Cellar/arm-none-eabi-gcc/10.3-2021.07/gcc/arm-none-eabi/include/c++/10.3.1/cmath **** 
 353:/opt/homebrew/Cellar/arm-none-eabi-gcc/10.3-2021.07/gcc/arm-none-eabi/include/c++/10.3.1/cmath ****   using ::log10;
 354:/opt/homebrew/Cellar/arm-none-eabi-gcc/10.3-2021.07/gcc/arm-none-eabi/include/c++/10.3.1/cmath **** 
 355:/opt/homebrew/Cellar/arm-none-eabi-gcc/10.3-2021.07/gcc/arm-none-eabi/include/c++/10.3.1/cmath **** #ifndef __CORRECT_ISO_CPP_MATH_H_PROTO
 356:/opt/homebrew/Cellar/arm-none-eabi-gcc/10.3-2021.07/gcc/arm-none-eabi/include/c++/10.3.1/cmath ****   inline _GLIBCXX_CONSTEXPR float
 357:/opt/homebrew/Cellar/arm-none-eabi-gcc/10.3-2021.07/gcc/arm-none-eabi/include/c++/10.3.1/cmath ****   log10(float __x)
 358:/opt/homebrew/Cellar/arm-none-eabi-gcc/10.3-2021.07/gcc/arm-none-eabi/include/c++/10.3.1/cmath ****   { return __builtin_log10f(__x); }
 359:/opt/homebrew/Cellar/arm-none-eabi-gcc/10.3-2021.07/gcc/arm-none-eabi/include/c++/10.3.1/cmath **** 
ARM GAS  /var/folders/hl/qgbwny5j0fd895c2c41bk3tw0000gp/T//ccxZ31iG.s 			page 25


 360:/opt/homebrew/Cellar/arm-none-eabi-gcc/10.3-2021.07/gcc/arm-none-eabi/include/c++/10.3.1/cmath ****   inline _GLIBCXX_CONSTEXPR long double
 361:/opt/homebrew/Cellar/arm-none-eabi-gcc/10.3-2021.07/gcc/arm-none-eabi/include/c++/10.3.1/cmath ****   log10(long double __x)
 362:/opt/homebrew/Cellar/arm-none-eabi-gcc/10.3-2021.07/gcc/arm-none-eabi/include/c++/10.3.1/cmath ****   { return __builtin_log10l(__x); }
 363:/opt/homebrew/Cellar/arm-none-eabi-gcc/10.3-2021.07/gcc/arm-none-eabi/include/c++/10.3.1/cmath **** #endif
 364:/opt/homebrew/Cellar/arm-none-eabi-gcc/10.3-2021.07/gcc/arm-none-eabi/include/c++/10.3.1/cmath **** 
 365:/opt/homebrew/Cellar/arm-none-eabi-gcc/10.3-2021.07/gcc/arm-none-eabi/include/c++/10.3.1/cmath ****   template<typename _Tp>
 366:/opt/homebrew/Cellar/arm-none-eabi-gcc/10.3-2021.07/gcc/arm-none-eabi/include/c++/10.3.1/cmath ****     inline _GLIBCXX_CONSTEXPR
 367:/opt/homebrew/Cellar/arm-none-eabi-gcc/10.3-2021.07/gcc/arm-none-eabi/include/c++/10.3.1/cmath ****     typename __gnu_cxx::__enable_if<__is_integer<_Tp>::__value,
 368:/opt/homebrew/Cellar/arm-none-eabi-gcc/10.3-2021.07/gcc/arm-none-eabi/include/c++/10.3.1/cmath ****                                     double>::__type
 369:/opt/homebrew/Cellar/arm-none-eabi-gcc/10.3-2021.07/gcc/arm-none-eabi/include/c++/10.3.1/cmath ****     log10(_Tp __x)
 370:/opt/homebrew/Cellar/arm-none-eabi-gcc/10.3-2021.07/gcc/arm-none-eabi/include/c++/10.3.1/cmath ****     { return __builtin_log10(__x); }
 371:/opt/homebrew/Cellar/arm-none-eabi-gcc/10.3-2021.07/gcc/arm-none-eabi/include/c++/10.3.1/cmath **** 
 372:/opt/homebrew/Cellar/arm-none-eabi-gcc/10.3-2021.07/gcc/arm-none-eabi/include/c++/10.3.1/cmath ****   using ::modf;
 373:/opt/homebrew/Cellar/arm-none-eabi-gcc/10.3-2021.07/gcc/arm-none-eabi/include/c++/10.3.1/cmath **** 
 374:/opt/homebrew/Cellar/arm-none-eabi-gcc/10.3-2021.07/gcc/arm-none-eabi/include/c++/10.3.1/cmath **** #ifndef __CORRECT_ISO_CPP_MATH_H_PROTO
 375:/opt/homebrew/Cellar/arm-none-eabi-gcc/10.3-2021.07/gcc/arm-none-eabi/include/c++/10.3.1/cmath ****   inline float
 376:/opt/homebrew/Cellar/arm-none-eabi-gcc/10.3-2021.07/gcc/arm-none-eabi/include/c++/10.3.1/cmath ****   modf(float __x, float* __iptr)
 377:/opt/homebrew/Cellar/arm-none-eabi-gcc/10.3-2021.07/gcc/arm-none-eabi/include/c++/10.3.1/cmath ****   { return __builtin_modff(__x, __iptr); }
 378:/opt/homebrew/Cellar/arm-none-eabi-gcc/10.3-2021.07/gcc/arm-none-eabi/include/c++/10.3.1/cmath **** 
 379:/opt/homebrew/Cellar/arm-none-eabi-gcc/10.3-2021.07/gcc/arm-none-eabi/include/c++/10.3.1/cmath ****   inline long double
 380:/opt/homebrew/Cellar/arm-none-eabi-gcc/10.3-2021.07/gcc/arm-none-eabi/include/c++/10.3.1/cmath ****   modf(long double __x, long double* __iptr)
 381:/opt/homebrew/Cellar/arm-none-eabi-gcc/10.3-2021.07/gcc/arm-none-eabi/include/c++/10.3.1/cmath ****   { return __builtin_modfl(__x, __iptr); }
 382:/opt/homebrew/Cellar/arm-none-eabi-gcc/10.3-2021.07/gcc/arm-none-eabi/include/c++/10.3.1/cmath **** #endif
 383:/opt/homebrew/Cellar/arm-none-eabi-gcc/10.3-2021.07/gcc/arm-none-eabi/include/c++/10.3.1/cmath **** 
 384:/opt/homebrew/Cellar/arm-none-eabi-gcc/10.3-2021.07/gcc/arm-none-eabi/include/c++/10.3.1/cmath ****   using ::pow;
 385:/opt/homebrew/Cellar/arm-none-eabi-gcc/10.3-2021.07/gcc/arm-none-eabi/include/c++/10.3.1/cmath **** 
 386:/opt/homebrew/Cellar/arm-none-eabi-gcc/10.3-2021.07/gcc/arm-none-eabi/include/c++/10.3.1/cmath **** #ifndef __CORRECT_ISO_CPP_MATH_H_PROTO
 387:/opt/homebrew/Cellar/arm-none-eabi-gcc/10.3-2021.07/gcc/arm-none-eabi/include/c++/10.3.1/cmath ****   inline _GLIBCXX_CONSTEXPR float
 388:/opt/homebrew/Cellar/arm-none-eabi-gcc/10.3-2021.07/gcc/arm-none-eabi/include/c++/10.3.1/cmath ****   pow(float __x, float __y)
 389:/opt/homebrew/Cellar/arm-none-eabi-gcc/10.3-2021.07/gcc/arm-none-eabi/include/c++/10.3.1/cmath ****   { return __builtin_powf(__x, __y); }
 390:/opt/homebrew/Cellar/arm-none-eabi-gcc/10.3-2021.07/gcc/arm-none-eabi/include/c++/10.3.1/cmath **** 
 391:/opt/homebrew/Cellar/arm-none-eabi-gcc/10.3-2021.07/gcc/arm-none-eabi/include/c++/10.3.1/cmath ****   inline _GLIBCXX_CONSTEXPR long double
 392:/opt/homebrew/Cellar/arm-none-eabi-gcc/10.3-2021.07/gcc/arm-none-eabi/include/c++/10.3.1/cmath ****   pow(long double __x, long double __y)
 393:/opt/homebrew/Cellar/arm-none-eabi-gcc/10.3-2021.07/gcc/arm-none-eabi/include/c++/10.3.1/cmath ****   { return __builtin_powl(__x, __y); }
 394:/opt/homebrew/Cellar/arm-none-eabi-gcc/10.3-2021.07/gcc/arm-none-eabi/include/c++/10.3.1/cmath **** 
 395:/opt/homebrew/Cellar/arm-none-eabi-gcc/10.3-2021.07/gcc/arm-none-eabi/include/c++/10.3.1/cmath **** #if __cplusplus < 201103L
 396:/opt/homebrew/Cellar/arm-none-eabi-gcc/10.3-2021.07/gcc/arm-none-eabi/include/c++/10.3.1/cmath ****   // _GLIBCXX_RESOLVE_LIB_DEFECTS
 397:/opt/homebrew/Cellar/arm-none-eabi-gcc/10.3-2021.07/gcc/arm-none-eabi/include/c++/10.3.1/cmath ****   // DR 550. What should the return type of pow(float,int) be?
 398:/opt/homebrew/Cellar/arm-none-eabi-gcc/10.3-2021.07/gcc/arm-none-eabi/include/c++/10.3.1/cmath ****   inline double
 399:/opt/homebrew/Cellar/arm-none-eabi-gcc/10.3-2021.07/gcc/arm-none-eabi/include/c++/10.3.1/cmath ****   pow(double __x, int __i)
 400:/opt/homebrew/Cellar/arm-none-eabi-gcc/10.3-2021.07/gcc/arm-none-eabi/include/c++/10.3.1/cmath ****   { return __builtin_powi(__x, __i); }
 401:/opt/homebrew/Cellar/arm-none-eabi-gcc/10.3-2021.07/gcc/arm-none-eabi/include/c++/10.3.1/cmath **** 
 402:/opt/homebrew/Cellar/arm-none-eabi-gcc/10.3-2021.07/gcc/arm-none-eabi/include/c++/10.3.1/cmath ****   inline float
 403:/opt/homebrew/Cellar/arm-none-eabi-gcc/10.3-2021.07/gcc/arm-none-eabi/include/c++/10.3.1/cmath ****   pow(float __x, int __n)
 404:/opt/homebrew/Cellar/arm-none-eabi-gcc/10.3-2021.07/gcc/arm-none-eabi/include/c++/10.3.1/cmath ****   { return __builtin_powif(__x, __n); }
 405:/opt/homebrew/Cellar/arm-none-eabi-gcc/10.3-2021.07/gcc/arm-none-eabi/include/c++/10.3.1/cmath **** 
 406:/opt/homebrew/Cellar/arm-none-eabi-gcc/10.3-2021.07/gcc/arm-none-eabi/include/c++/10.3.1/cmath ****   inline long double
 407:/opt/homebrew/Cellar/arm-none-eabi-gcc/10.3-2021.07/gcc/arm-none-eabi/include/c++/10.3.1/cmath ****   pow(long double __x, int __n)
 408:/opt/homebrew/Cellar/arm-none-eabi-gcc/10.3-2021.07/gcc/arm-none-eabi/include/c++/10.3.1/cmath ****   { return __builtin_powil(__x, __n); }
 409:/opt/homebrew/Cellar/arm-none-eabi-gcc/10.3-2021.07/gcc/arm-none-eabi/include/c++/10.3.1/cmath **** #endif
 410:/opt/homebrew/Cellar/arm-none-eabi-gcc/10.3-2021.07/gcc/arm-none-eabi/include/c++/10.3.1/cmath **** #endif
 411:/opt/homebrew/Cellar/arm-none-eabi-gcc/10.3-2021.07/gcc/arm-none-eabi/include/c++/10.3.1/cmath **** 
 412:/opt/homebrew/Cellar/arm-none-eabi-gcc/10.3-2021.07/gcc/arm-none-eabi/include/c++/10.3.1/cmath ****   template<typename _Tp, typename _Up>
 413:/opt/homebrew/Cellar/arm-none-eabi-gcc/10.3-2021.07/gcc/arm-none-eabi/include/c++/10.3.1/cmath ****     inline _GLIBCXX_CONSTEXPR
 414:/opt/homebrew/Cellar/arm-none-eabi-gcc/10.3-2021.07/gcc/arm-none-eabi/include/c++/10.3.1/cmath ****     typename __gnu_cxx::__promote_2<_Tp, _Up>::__type
 415:/opt/homebrew/Cellar/arm-none-eabi-gcc/10.3-2021.07/gcc/arm-none-eabi/include/c++/10.3.1/cmath ****     pow(_Tp __x, _Up __y)
 416:/opt/homebrew/Cellar/arm-none-eabi-gcc/10.3-2021.07/gcc/arm-none-eabi/include/c++/10.3.1/cmath ****     {
ARM GAS  /var/folders/hl/qgbwny5j0fd895c2c41bk3tw0000gp/T//ccxZ31iG.s 			page 26


 417:/opt/homebrew/Cellar/arm-none-eabi-gcc/10.3-2021.07/gcc/arm-none-eabi/include/c++/10.3.1/cmath ****       typedef typename __gnu_cxx::__promote_2<_Tp, _Up>::__type __type;
 418:/opt/homebrew/Cellar/arm-none-eabi-gcc/10.3-2021.07/gcc/arm-none-eabi/include/c++/10.3.1/cmath ****       return pow(__type(__x), __type(__y));
 419:/opt/homebrew/Cellar/arm-none-eabi-gcc/10.3-2021.07/gcc/arm-none-eabi/include/c++/10.3.1/cmath ****     }
 420:/opt/homebrew/Cellar/arm-none-eabi-gcc/10.3-2021.07/gcc/arm-none-eabi/include/c++/10.3.1/cmath **** 
 421:/opt/homebrew/Cellar/arm-none-eabi-gcc/10.3-2021.07/gcc/arm-none-eabi/include/c++/10.3.1/cmath ****   using ::sin;
 422:/opt/homebrew/Cellar/arm-none-eabi-gcc/10.3-2021.07/gcc/arm-none-eabi/include/c++/10.3.1/cmath **** 
 423:/opt/homebrew/Cellar/arm-none-eabi-gcc/10.3-2021.07/gcc/arm-none-eabi/include/c++/10.3.1/cmath **** #ifndef __CORRECT_ISO_CPP_MATH_H_PROTO
 424:/opt/homebrew/Cellar/arm-none-eabi-gcc/10.3-2021.07/gcc/arm-none-eabi/include/c++/10.3.1/cmath ****   inline _GLIBCXX_CONSTEXPR float
 425:/opt/homebrew/Cellar/arm-none-eabi-gcc/10.3-2021.07/gcc/arm-none-eabi/include/c++/10.3.1/cmath ****   sin(float __x)
 238              		.loc 11 425 3 view .LVU47
 239              	.LBB514:
 426:/opt/homebrew/Cellar/arm-none-eabi-gcc/10.3-2021.07/gcc/arm-none-eabi/include/c++/10.3.1/cmath ****   { return __builtin_sinf(__x); }
 240              		.loc 11 426 5 view .LVU48
 241              	.LBE514:
 242              	.LBE513:
 243              	.LBE512:
 244              	.LBE511:
  65:../../DaisySP//Source/Utility/looper.h ****         switch(state_)
 245              		.loc 10 65 25 is_stmt 0 view .LVU49
 246 002e DFED8B7A 		vldr.32	s15, .L58
 247 0032 07EE106A 		vmov	s14, r6	@ int
 248              	.LBB529:
 249              	.LBB523:
 250              		.loc 10 264 43 view .LVU50
 251 0036 9FED8A0A 		vldr.32	s0, .L58+4
 252              	.LVL9:
 253              		.loc 10 264 43 view .LVU51
 254              	.LBE523:
 255              	.LBE529:
  65:../../DaisySP//Source/Utility/looper.h ****         switch(state_)
 256              		.loc 10 65 25 view .LVU52
 257 003a F8EE476A 		vcvt.f32.u32	s13, s14
 258 003e 66EEA76A 		vmul.f32	s13, s13, s15
 259              	.LVL10:
 260              	.LBB530:
 261              	.LBB524:
 262              	.LBB519:
 263              	.LBB515:
 264              		.loc 11 426 26 view .LVU53
 265 0042 26EE800A 		vmul.f32	s0, s13, s0
 266              	.LVL11:
 267              		.loc 11 426 26 view .LVU54
 268 0046 FFF7FEFF 		bl	sinf
 269              	.LVL12:
 270              		.loc 11 426 26 view .LVU55
 271              	.LBE515:
 272              	.LBE519:
 273              	.LBE524:
 274              	.LBE530:
  66:../../DaisySP//Source/Utility/looper.h ****         {
 275              		.loc 10 66 9 view .LVU56
 276 004a 022D     		cmp	r5, #2
 277              	.LBB531:
 278              	.LBB525:
 279              	.LBB520:
 280              	.LBB516:
 281              		.loc 11 426 26 view .LVU57
ARM GAS  /var/folders/hl/qgbwny5j0fd895c2c41bk3tw0000gp/T//ccxZ31iG.s 			page 27


 282 004c F0EE407A 		vmov.f32	s15, s0
 283              	.LVL13:
 284              		.loc 11 426 26 view .LVU58
 285              	.LBE516:
 286              	.LBE520:
 287              	.LBE525:
 288              	.LBE531:
  65:../../DaisySP//Source/Utility/looper.h ****         switch(state_)
 289              		.loc 10 65 14 view .LVU59
 290 0050 84ED050A 		vstr.32	s0, [r4, #20]
  66:../../DaisySP//Source/Utility/looper.h ****         {
 291              		.loc 10 66 9 is_stmt 1 view .LVU60
 292 0054 3BD0     		beq	.L30
 293 0056 032D     		cmp	r5, #3
 294 0058 40F0F880 		bne	.L55
 116:../../DaisySP//Source/Utility/looper.h ****                 sig = Read(pos_);
 295              		.loc 10 116 13 view .LVU61
 117:../../DaisySP//Source/Utility/looper.h ****                 switch(mode_)
 296              		.loc 10 117 17 view .LVU62
 297              	.LVL14:
 298              	.LBB532:
 299              	.LBI532:
 247:../../DaisySP//Source/Utility/looper.h **** 
 300              		.loc 10 247 24 view .LVU63
 301              	.LBB533:
 247:../../DaisySP//Source/Utility/looper.h **** 
 302              		.loc 10 247 49 view .LVU64
 303              	.LBE533:
 304              	.LBE532:
 117:../../DaisySP//Source/Utility/looper.h ****                 switch(mode_)
 305              		.loc 10 117 27 is_stmt 0 view .LVU65
 306 005c 94ED047A 		vldr.32	s14, [r4, #16]
 307              	.LBB536:
 308              	.LBB534:
 247:../../DaisySP//Source/Utility/looper.h **** 
 309              		.loc 10 247 65 view .LVU66
 310 0060 A268     		ldr	r2, [r4, #8]
 311              	.LBE534:
 312              	.LBE536:
 117:../../DaisySP//Source/Utility/looper.h ****                 switch(mode_)
 313              		.loc 10 117 27 view .LVU67
 314 0062 BCEEC77A 		vcvt.u32.f32	s14, s14
 118:../../DaisySP//Source/Utility/looper.h ****                 {
 315              		.loc 10 118 24 view .LVU68
 316 0066 2168     		ldr	r1, [r4]
 317 0068 0229     		cmp	r1, #2
 117:../../DaisySP//Source/Utility/looper.h ****                 switch(mode_)
 318              		.loc 10 117 27 view .LVU69
 319 006a 17EE103A 		vmov	r3, s14	@ int
 320              	.LBB537:
 321              	.LBB535:
 247:../../DaisySP//Source/Utility/looper.h **** 
 322              		.loc 10 247 65 view .LVU70
 323 006e 02EB8303 		add	r3, r2, r3, lsl #2
 324 0072 93ED000A 		vldr.32	s0, [r3]
 325              	.LVL15:
 247:../../DaisySP//Source/Utility/looper.h **** 
ARM GAS  /var/folders/hl/qgbwny5j0fd895c2c41bk3tw0000gp/T//ccxZ31iG.s 			page 28


 326              		.loc 10 247 65 view .LVU71
 327              	.LBE535:
 328              	.LBE537:
 118:../../DaisySP//Source/Utility/looper.h ****                 {
 329              		.loc 10 118 17 is_stmt 1 view .LVU72
 330 0076 00F0DC80 		beq	.L21
 331 007a 0329     		cmp	r1, #3
 332 007c 00F0D080 		beq	.L22
 124:../../DaisySP//Source/Utility/looper.h ****                     case Mode::ONETIME_DUB:
 333              		.loc 10 124 21 view .LVU73
 125:../../DaisySP//Source/Utility/looper.h ****                     default: Write(pos_, (input * win_) + sig); break;
 334              		.loc 10 125 21 view .LVU74
 126:../../DaisySP//Source/Utility/looper.h ****                 }
 335              		.loc 10 126 21 view .LVU75
 126:../../DaisySP//Source/Utility/looper.h ****                 }
 336              		.loc 10 126 30 view .LVU76
 126:../../DaisySP//Source/Utility/looper.h ****                 }
 337              		.loc 10 126 35 is_stmt 0 view .LVU77
 338 0080 B0EE407A 		vmov.f32	s14, s0
 339 0084 A8EEA77A 		vfma.f32	s14, s17, s15
 340              	.LVL16:
 341              	.LBB538:
 342              	.LBI538:
 261:../../DaisySP//Source/Utility/looper.h **** 
 343              		.loc 10 261 17 is_stmt 1 view .LVU78
 344              	.LBB539:
 261:../../DaisySP//Source/Utility/looper.h **** 
 345              		.loc 10 261 48 view .LVU79
 261:../../DaisySP//Source/Utility/looper.h **** 
 346              		.loc 10 261 59 is_stmt 0 view .LVU80
 347 0088 83ED007A 		vstr.32	s14, [r3]
 348              	.LVL17:
 349              	.L24:
 261:../../DaisySP//Source/Utility/looper.h **** 
 350              		.loc 10 261 59 view .LVU81
 351              	.LBE539:
 352              	.LBE538:
 128:../../DaisySP//Source/Utility/looper.h ****                     win_idx_ += 1;
 353              		.loc 10 128 17 is_stmt 1 view .LVU82
 354 008c 40F2AE43 		movw	r3, #1198
 355 0090 9E42     		cmp	r6, r3
 356 0092 01D8     		bhi	.L25
 129:../../DaisySP//Source/Utility/looper.h ****                 pos_ += inc;
 357              		.loc 10 129 21 view .LVU83
 129:../../DaisySP//Source/Utility/looper.h ****                 pos_ += inc;
 358              		.loc 10 129 30 is_stmt 0 view .LVU84
 359 0094 0136     		adds	r6, r6, #1
 360 0096 A661     		str	r6, [r4, #24]
 361              	.L25:
 130:../../DaisySP//Source/Utility/looper.h ****                 if(pos_ > recsize_ - 1)
 362              		.loc 10 130 17 is_stmt 1 view .LVU85
 131:../../DaisySP//Source/Utility/looper.h ****                 {
 363              		.loc 10 131 36 is_stmt 0 view .LVU86
 364 0098 236A     		ldr	r3, [r4, #32]
 130:../../DaisySP//Source/Utility/looper.h ****                 if(pos_ > recsize_ - 1)
 365              		.loc 10 130 22 view .LVU87
 366 009a D4ED047A 		vldr.32	s15, [r4, #16]
ARM GAS  /var/folders/hl/qgbwny5j0fd895c2c41bk3tw0000gp/T//ccxZ31iG.s 			page 29


 131:../../DaisySP//Source/Utility/looper.h ****                 {
 367              		.loc 10 131 36 view .LVU88
 368 009e 013B     		subs	r3, r3, #1
 130:../../DaisySP//Source/Utility/looper.h ****                 if(pos_ > recsize_ - 1)
 369              		.loc 10 130 22 view .LVU89
 370 00a0 38EE278A 		vadd.f32	s16, s16, s15
 371              	.LVL18:
 131:../../DaisySP//Source/Utility/looper.h ****                 {
 372              		.loc 10 131 25 view .LVU90
 373 00a4 07EE903A 		vmov	s15, r3	@ int
 374 00a8 F8EE677A 		vcvt.f32.u32	s15, s15
 130:../../DaisySP//Source/Utility/looper.h ****                 if(pos_ > recsize_ - 1)
 375              		.loc 10 130 22 view .LVU91
 376 00ac 84ED048A 		vstr.32	s16, [r4, #16]
 131:../../DaisySP//Source/Utility/looper.h ****                 {
 377              		.loc 10 131 17 is_stmt 1 view .LVU92
 378 00b0 B4EEE78A 		vcmpe.f32	s16, s15
 379 00b4 F1EE10FA 		vmrs	APSR_nzcv, FPSCR
 380 00b8 40F3C080 		ble	.L51
 133:../../DaisySP//Source/Utility/looper.h ****                     hitloop = true;
 381              		.loc 10 133 21 view .LVU93
 133:../../DaisySP//Source/Utility/looper.h ****                     hitloop = true;
 382              		.loc 10 133 29 is_stmt 0 view .LVU94
 383 00bc 0023     		movs	r3, #0
 384 00be 2361     		str	r3, [r4, #16]	@ float
 134:../../DaisySP//Source/Utility/looper.h ****                 }
 385              		.loc 10 134 21 is_stmt 1 view .LVU95
 386              	.LVL19:
 141:../../DaisySP//Source/Utility/looper.h ****                 {
 387              		.loc 10 141 17 view .LVU96
 388              	.L28:
 141:../../DaisySP//Source/Utility/looper.h ****                 {
 389              		.loc 10 141 28 is_stmt 0 discriminator 1 view .LVU97
 390 00c0 0129     		cmp	r1, #1
 391 00c2 5BD1     		bne	.L12
 143:../../DaisySP//Source/Utility/looper.h ****                     win_idx_ = 0;
 392              		.loc 10 143 21 is_stmt 1 view .LVU98
 143:../../DaisySP//Source/Utility/looper.h ****                     win_idx_ = 0;
 393              		.loc 10 143 30 is_stmt 0 view .LVU99
 394 00c4 0222     		movs	r2, #2
 144:../../DaisySP//Source/Utility/looper.h ****                 }
 395              		.loc 10 144 30 view .LVU100
 396 00c6 0023     		movs	r3, #0
 143:../../DaisySP//Source/Utility/looper.h ****                     win_idx_ = 0;
 397              		.loc 10 143 30 view .LVU101
 398 00c8 6260     		str	r2, [r4, #4]
 144:../../DaisySP//Source/Utility/looper.h ****                 }
 399              		.loc 10 144 21 is_stmt 1 view .LVU102
 144:../../DaisySP//Source/Utility/looper.h ****                 }
 400              		.loc 10 144 30 is_stmt 0 view .LVU103
 401 00ca A361     		str	r3, [r4, #24]
 402              	.LVL20:
 150:../../DaisySP//Source/Utility/looper.h ****                               ? true
 403              		.loc 10 150 9 is_stmt 1 view .LVU104
 404              	.LBB540:
 405              	.LBI540:
 191:../../DaisySP//Source/Utility/looper.h ****     {
ARM GAS  /var/folders/hl/qgbwny5j0fd895c2c41bk3tw0000gp/T//ccxZ31iG.s 			page 30


 406              		.loc 10 191 23 view .LVU105
 407              	.LBB541:
 193:../../DaisySP//Source/Utility/looper.h ****     }
 408              		.loc 10 193 9 view .LVU106
 193:../../DaisySP//Source/Utility/looper.h ****     }
 409              		.loc 10 193 9 is_stmt 0 view .LVU107
 410 00cc 95E0     		b	.L14
 411              	.LVL21:
 412              	.L30:
 193:../../DaisySP//Source/Utility/looper.h ****     }
 413              		.loc 10 193 9 view .LVU108
 414              	.LBE541:
 415              	.LBE540:
  83:../../DaisySP//Source/Utility/looper.h ****                 sig = Read(pos_);
 416              		.loc 10 83 13 is_stmt 1 view .LVU109
  84:../../DaisySP//Source/Utility/looper.h ****                 /** This is a way of 'seamless looping'
 417              		.loc 10 84 17 view .LVU110
  84:../../DaisySP//Source/Utility/looper.h ****                 /** This is a way of 'seamless looping'
 418              		.loc 10 84 28 is_stmt 0 view .LVU111
 419 00ce 94ED047A 		vldr.32	s14, [r4, #16]
 420              	.LVL22:
 421              	.LBB546:
 422              	.LBI546:
 247:../../DaisySP//Source/Utility/looper.h **** 
 423              		.loc 10 247 24 is_stmt 1 view .LVU112
 424              	.LBB547:
 247:../../DaisySP//Source/Utility/looper.h **** 
 425              		.loc 10 247 49 view .LVU113
 426              	.LBE547:
 427              	.LBE546:
  88:../../DaisySP//Source/Utility/looper.h ****                 {
 428              		.loc 10 88 17 is_stmt 0 view .LVU114
 429 00d2 40F2AE41 		movw	r1, #1198
 430              	.LBB550:
 431              	.LBB548:
 247:../../DaisySP//Source/Utility/looper.h **** 
 432              		.loc 10 247 65 view .LVU115
 433 00d6 A268     		ldr	r2, [r4, #8]
 434              	.LBE548:
 435              	.LBE550:
  84:../../DaisySP//Source/Utility/looper.h ****                 /** This is a way of 'seamless looping'
 436              		.loc 10 84 27 view .LVU116
 437 00d8 FCEEC76A 		vcvt.u32.f32	s13, s14
  88:../../DaisySP//Source/Utility/looper.h ****                 {
 438              		.loc 10 88 17 view .LVU117
 439 00dc 8E42     		cmp	r6, r1
  84:../../DaisySP//Source/Utility/looper.h ****                 /** This is a way of 'seamless looping'
 440              		.loc 10 84 27 view .LVU118
 441 00de 16EE903A 		vmov	r3, s13	@ int
 442              	.LBB551:
 443              	.LBB549:
 247:../../DaisySP//Source/Utility/looper.h **** 
 444              		.loc 10 247 65 view .LVU119
 445 00e2 02EB8303 		add	r3, r2, r3, lsl #2
 446 00e6 93ED000A 		vldr.32	s0, [r3]
 447              	.LVL23:
 247:../../DaisySP//Source/Utility/looper.h **** 
ARM GAS  /var/folders/hl/qgbwny5j0fd895c2c41bk3tw0000gp/T//ccxZ31iG.s 			page 31


 448              		.loc 10 247 65 view .LVU120
 449              	.LBE549:
 450              	.LBE551:
  88:../../DaisySP//Source/Utility/looper.h ****                 {
 451              		.loc 10 88 17 is_stmt 1 view .LVU121
 452 00ea 0DD8     		bhi	.L15
  90:../../DaisySP//Source/Utility/looper.h ****                     win_idx_ += 1;
 453              		.loc 10 90 21 view .LVU122
  90:../../DaisySP//Source/Utility/looper.h ****                     win_idx_ += 1;
 454              		.loc 10 90 52 is_stmt 0 view .LVU123
 455 00ec B7EE007A 		vmov.f32	s14, #1.0e+0
  91:../../DaisySP//Source/Utility/looper.h ****                 }
 456              		.loc 10 91 30 view .LVU124
 457 00f0 0136     		adds	r6, r6, #1
  90:../../DaisySP//Source/Utility/looper.h ****                     win_idx_ += 1;
 458              		.loc 10 90 52 view .LVU125
 459 00f2 77EE677A 		vsub.f32	s15, s14, s15
  90:../../DaisySP//Source/Utility/looper.h ****                     win_idx_ += 1;
 460              		.loc 10 90 26 view .LVU126
 461 00f6 B0EE407A 		vmov.f32	s14, s0
 462 00fa A7EEA87A 		vfma.f32	s14, s15, s17
 463              	.LVL24:
 464              	.LBB552:
 465              	.LBI552:
 261:../../DaisySP//Source/Utility/looper.h **** 
 466              		.loc 10 261 17 is_stmt 1 view .LVU127
 467              	.LBB553:
 261:../../DaisySP//Source/Utility/looper.h **** 
 468              		.loc 10 261 48 view .LVU128
 261:../../DaisySP//Source/Utility/looper.h **** 
 469              		.loc 10 261 59 is_stmt 0 view .LVU129
 470 00fe 83ED007A 		vstr.32	s14, [r3]
 471              	.LVL25:
 261:../../DaisySP//Source/Utility/looper.h **** 
 472              		.loc 10 261 59 view .LVU130
 473              	.LBE553:
 474              	.LBE552:
  91:../../DaisySP//Source/Utility/looper.h ****                 }
 475              		.loc 10 91 21 is_stmt 1 view .LVU131
  94:../../DaisySP//Source/Utility/looper.h ****                 if(pos_ > recsize_ - 1)
 476              		.loc 10 94 22 is_stmt 0 view .LVU132
 477 0102 94ED047A 		vldr.32	s14, [r4, #16]
  91:../../DaisySP//Source/Utility/looper.h ****                 }
 478              		.loc 10 91 30 view .LVU133
 479 0106 A661     		str	r6, [r4, #24]
 480              	.L15:
  94:../../DaisySP//Source/Utility/looper.h ****                 if(pos_ > recsize_ - 1)
 481              		.loc 10 94 17 is_stmt 1 view .LVU134
  95:../../DaisySP//Source/Utility/looper.h ****                 {
 482              		.loc 10 95 36 is_stmt 0 view .LVU135
 483 0108 236A     		ldr	r3, [r4, #32]
  94:../../DaisySP//Source/Utility/looper.h ****                 if(pos_ > recsize_ - 1)
 484              		.loc 10 94 22 view .LVU136
 485 010a 38EE078A 		vadd.f32	s16, s16, s14
 486              	.LVL26:
  95:../../DaisySP//Source/Utility/looper.h ****                 {
 487              		.loc 10 95 36 view .LVU137
ARM GAS  /var/folders/hl/qgbwny5j0fd895c2c41bk3tw0000gp/T//ccxZ31iG.s 			page 32


 488 010e 013B     		subs	r3, r3, #1
  94:../../DaisySP//Source/Utility/looper.h ****                 if(pos_ > recsize_ - 1)
 489              		.loc 10 94 22 view .LVU138
 490 0110 84ED048A 		vstr.32	s16, [r4, #16]
  95:../../DaisySP//Source/Utility/looper.h ****                 {
 491              		.loc 10 95 17 is_stmt 1 view .LVU139
  95:../../DaisySP//Source/Utility/looper.h ****                 {
 492              		.loc 10 95 25 is_stmt 0 view .LVU140
 493 0114 07EE903A 		vmov	s15, r3	@ int
 494 0118 F8EE677A 		vcvt.f32.u32	s15, s15
  95:../../DaisySP//Source/Utility/looper.h ****                 {
 495              		.loc 10 95 17 view .LVU141
 496 011c B4EEE78A 		vcmpe.f32	s16, s15
 497 0120 F1EE10FA 		vmrs	APSR_nzcv, FPSCR
 498 0124 79DC     		bgt	.L56
 100:../../DaisySP//Source/Utility/looper.h ****                 {
 499              		.loc 10 100 22 is_stmt 1 view .LVU142
 500 0126 B5EEC08A 		vcmpe.f32	s16, #0
 501 012a F1EE10FA 		vmrs	APSR_nzcv, FPSCR
 502 012e 64D5     		bpl	.L14
 102:../../DaisySP//Source/Utility/looper.h ****                     hitloop = true;
 503              		.loc 10 102 21 view .LVU143
 102:../../DaisySP//Source/Utility/looper.h ****                     hitloop = true;
 504              		.loc 10 102 29 is_stmt 0 view .LVU144
 505 0130 C4ED047A 		vstr.32	s15, [r4, #16]
 103:../../DaisySP//Source/Utility/looper.h ****                 }
 506              		.loc 10 103 21 is_stmt 1 view .LVU145
 507              	.LVL27:
 105:../../DaisySP//Source/Utility/looper.h **** 
 508              		.loc 10 105 17 view .LVU146
 509              	.L18:
 108:../../DaisySP//Source/Utility/looper.h ****                     {
 510              		.loc 10 108 21 view .LVU147
 511 0134 94F82430 		ldrb	r3, [r4, #36]	@ zero_extendqisi2
 512 0138 002B     		cmp	r3, #0
 513 013a 5ED0     		beq	.L14
 108:../../DaisySP//Source/Utility/looper.h ****                     {
 514              		.loc 10 108 35 is_stmt 0 discriminator 1 view .LVU148
 515 013c 2368     		ldr	r3, [r4]
 516 013e 012B     		cmp	r3, #1
 517 0140 5BD1     		bne	.L14
 110:../../DaisySP//Source/Utility/looper.h ****                         state_     = State::REC_DUB;
 518              		.loc 10 110 25 is_stmt 1 view .LVU149
 110:../../DaisySP//Source/Utility/looper.h ****                         state_     = State::REC_DUB;
 519              		.loc 10 110 36 is_stmt 0 view .LVU150
 520 0142 0022     		movs	r2, #0
 111:../../DaisySP//Source/Utility/looper.h ****                         win_idx_   = 0;
 521              		.loc 10 111 36 view .LVU151
 522 0144 0321     		movs	r1, #3
 151:../../DaisySP//Source/Utility/looper.h ****                               : false;
 523              		.loc 10 151 31 view .LVU152
 524 0146 1346     		mov	r3, r2
 110:../../DaisySP//Source/Utility/looper.h ****                         state_     = State::REC_DUB;
 525              		.loc 10 110 36 view .LVU153
 526 0148 84F82420 		strb	r2, [r4, #36]
 111:../../DaisySP//Source/Utility/looper.h ****                         win_idx_   = 0;
 527              		.loc 10 111 25 is_stmt 1 view .LVU154
ARM GAS  /var/folders/hl/qgbwny5j0fd895c2c41bk3tw0000gp/T//ccxZ31iG.s 			page 33


 111:../../DaisySP//Source/Utility/looper.h ****                         win_idx_   = 0;
 528              		.loc 10 111 36 is_stmt 0 view .LVU155
 529 014c 6160     		str	r1, [r4, #4]
 112:../../DaisySP//Source/Utility/looper.h ****                     }
 530              		.loc 10 112 25 is_stmt 1 view .LVU156
 112:../../DaisySP//Source/Utility/looper.h ****                     }
 531              		.loc 10 112 36 is_stmt 0 view .LVU157
 532 014e A261     		str	r2, [r4, #24]
 533              	.LVL28:
 150:../../DaisySP//Source/Utility/looper.h ****                               ? true
 534              		.loc 10 150 9 is_stmt 1 view .LVU158
 535              	.LBB554:
 191:../../DaisySP//Source/Utility/looper.h ****     {
 536              		.loc 10 191 23 view .LVU159
 537              	.LBB542:
 193:../../DaisySP//Source/Utility/looper.h ****     }
 538              		.loc 10 193 9 view .LVU160
 193:../../DaisySP//Source/Utility/looper.h ****     }
 539              		.loc 10 193 9 is_stmt 0 view .LVU161
 540 0150 15E0     		b	.L10
 541              	.LVL29:
 542              	.L7:
 193:../../DaisySP//Source/Utility/looper.h ****     }
 543              		.loc 10 193 9 view .LVU162
 544              	.LBE542:
 545              	.LBE554:
  65:../../DaisySP//Source/Utility/looper.h ****         switch(state_)
 546              		.loc 10 65 9 is_stmt 1 view .LVU163
  65:../../DaisySP//Source/Utility/looper.h ****         switch(state_)
 547              		.loc 10 65 26 is_stmt 0 view .LVU164
 548 0152 8669     		ldr	r6, [r0, #24]
 549              	.LVL30:
 550              	.LBB555:
 551              		.loc 10 264 11 is_stmt 1 view .LVU165
 552              	.LBB526:
 553              		.loc 10 264 33 view .LVU166
 554              	.LBB521:
 425:/opt/homebrew/Cellar/arm-none-eabi-gcc/10.3-2021.07/gcc/arm-none-eabi/include/c++/10.3.1/cmath ****   { return __builtin_sinf(__x); }
 555              		.loc 11 425 3 view .LVU167
 556              	.LBB517:
 557              		.loc 11 426 5 view .LVU168
 558              	.LBE517:
 559              	.LBE521:
 560              	.LBE526:
 561              	.LBE555:
  65:../../DaisySP//Source/Utility/looper.h ****         switch(state_)
 562              		.loc 10 65 25 is_stmt 0 view .LVU169
 563 0154 9FED417A 		vldr.32	s14, .L58
 564 0158 07EE906A 		vmov	s15, r6	@ int
 565              	.LBB556:
 566              	.LBB527:
 567              		.loc 10 264 43 view .LVU170
 568 015c 9FED400A 		vldr.32	s0, .L58+4
 569              	.LVL31:
 570              		.loc 10 264 43 view .LVU171
 571              	.LBE527:
 572              	.LBE556:
ARM GAS  /var/folders/hl/qgbwny5j0fd895c2c41bk3tw0000gp/T//ccxZ31iG.s 			page 34


  65:../../DaisySP//Source/Utility/looper.h ****         switch(state_)
 573              		.loc 10 65 25 view .LVU172
 574 0160 F8EE677A 		vcvt.f32.u32	s15, s15
 575 0164 67EE877A 		vmul.f32	s15, s15, s14
 576              	.LVL32:
 577              	.LBB557:
 578              	.LBB528:
 579              	.LBB522:
 580              	.LBB518:
 581              		.loc 11 426 26 view .LVU173
 582 0168 27EE800A 		vmul.f32	s0, s15, s0
 583              	.LVL33:
 584              		.loc 11 426 26 view .LVU174
 585 016c FFF7FEFF 		bl	sinf
 586              	.LVL34:
 587              		.loc 11 426 26 view .LVU175
 588              	.LBE518:
 589              	.LBE522:
 590              	.LBE528:
 591              	.LBE557:
  66:../../DaisySP//Source/Utility/looper.h ****         {
 592              		.loc 10 66 9 view .LVU176
 593 0170 012D     		cmp	r5, #1
  65:../../DaisySP//Source/Utility/looper.h ****         switch(state_)
 594              		.loc 10 65 14 view .LVU177
 595 0172 84ED050A 		vstr.32	s0, [r4, #20]
  66:../../DaisySP//Source/Utility/looper.h ****         {
 596              		.loc 10 66 9 is_stmt 1 view .LVU178
 597 0176 07D0     		beq	.L57
 598              	.L48:
  70:../../DaisySP//Source/Utility/looper.h ****                 Write(pos_, input * win_);
 599              		.loc 10 70 21 is_stmt 0 view .LVU179
 600 0178 9FED3A0A 		vldr.32	s0, .L58+8
 601              	.LVL35:
 602              	.L12:
 150:../../DaisySP//Source/Utility/looper.h ****                               ? true
 603              		.loc 10 150 9 is_stmt 1 view .LVU180
 604              	.LBB558:
 191:../../DaisySP//Source/Utility/looper.h ****     {
 605              		.loc 10 191 23 view .LVU181
 606              	.LBB543:
 193:../../DaisySP//Source/Utility/looper.h ****     }
 607              		.loc 10 193 9 view .LVU182
 193:../../DaisySP//Source/Utility/looper.h ****     }
 608              		.loc 10 193 9 is_stmt 0 view .LVU183
 609              	.LBE543:
 610              	.LBE558:
 151:../../DaisySP//Source/Utility/looper.h ****                               : false;
 611              		.loc 10 151 31 view .LVU184
 612 017c 0023     		movs	r3, #0
 613              	.L10:
 614              	.LVL36:
 150:../../DaisySP//Source/Utility/looper.h ****                               ? true
 615              		.loc 10 150 25 view .LVU185
 616 017e 84F82530 		strb	r3, [r4, #37]
 154:../../DaisySP//Source/Utility/looper.h ****     }
 617              		.loc 10 154 9 is_stmt 1 view .LVU186
ARM GAS  /var/folders/hl/qgbwny5j0fd895c2c41bk3tw0000gp/T//ccxZ31iG.s 			page 35


 155:../../DaisySP//Source/Utility/looper.h **** 
 618              		.loc 10 155 5 is_stmt 0 view .LVU187
 619 0182 BDEC028B 		vldm	sp!, {d8}
 620              		.cfi_remember_state
 621              		.cfi_restore 80
 622              		.cfi_restore 81
 623              		.cfi_def_cfa_offset 16
 624 0186 70BD     		pop	{r4, r5, r6, pc}
 625              	.LVL37:
 626              	.L57:
 627              		.cfi_restore_state
  69:../../DaisySP//Source/Utility/looper.h ****                 sig = 0.f;
 628              		.loc 10 69 13 is_stmt 1 view .LVU188
  70:../../DaisySP//Source/Utility/looper.h ****                 Write(pos_, input * win_);
 629              		.loc 10 70 17 view .LVU189
  71:../../DaisySP//Source/Utility/looper.h ****                 if(win_idx_ < kWindowSamps - 1)
 630              		.loc 10 71 17 view .LVU190
 631              	.LBB559:
 632              	.LBI559:
 261:../../DaisySP//Source/Utility/looper.h **** 
 633              		.loc 10 261 17 view .LVU191
 634              	.LBB560:
 261:../../DaisySP//Source/Utility/looper.h **** 
 635              		.loc 10 261 48 view .LVU192
 636              	.LBE560:
 637              	.LBE559:
  71:../../DaisySP//Source/Utility/looper.h ****                 if(win_idx_ < kWindowSamps - 1)
 638              		.loc 10 71 22 is_stmt 0 view .LVU193
 639 0188 D4ED047A 		vldr.32	s15, [r4, #16]
  72:../../DaisySP//Source/Utility/looper.h ****                     win_idx_ += 1;
 640              		.loc 10 72 17 view .LVU194
 641 018c 40F2AE42 		movw	r2, #1198
 642              	.LBB563:
 643              	.LBB561:
 261:../../DaisySP//Source/Utility/looper.h **** 
 644              		.loc 10 261 59 view .LVU195
 645 0190 A368     		ldr	r3, [r4, #8]
 646              	.LBE561:
 647              	.LBE563:
  71:../../DaisySP//Source/Utility/looper.h ****                 if(win_idx_ < kWindowSamps - 1)
 648              		.loc 10 71 22 view .LVU196
 649 0192 28EE807A 		vmul.f32	s14, s17, s0
 650              	.LVL38:
  71:../../DaisySP//Source/Utility/looper.h ****                 if(win_idx_ < kWindowSamps - 1)
 651              		.loc 10 71 22 view .LVU197
 652 0196 FCEEE77A 		vcvt.u32.f32	s15, s15
  72:../../DaisySP//Source/Utility/looper.h ****                     win_idx_ += 1;
 653              		.loc 10 72 17 view .LVU198
 654 019a 9642     		cmp	r6, r2
 655              	.LBB564:
 656              	.LBB562:
 261:../../DaisySP//Source/Utility/looper.h **** 
 657              		.loc 10 261 59 view .LVU199
 658 019c 17EE901A 		vmov	r1, s15	@ int
 659 01a0 03EB8103 		add	r3, r3, r1, lsl #2
 660 01a4 83ED007A 		vstr.32	s14, [r3]
 661              	.LVL39:
ARM GAS  /var/folders/hl/qgbwny5j0fd895c2c41bk3tw0000gp/T//ccxZ31iG.s 			page 36


 261:../../DaisySP//Source/Utility/looper.h **** 
 662              		.loc 10 261 59 view .LVU200
 663              	.LBE562:
 664              	.LBE564:
  72:../../DaisySP//Source/Utility/looper.h ****                     win_idx_ += 1;
 665              		.loc 10 72 17 is_stmt 1 view .LVU201
 666 01a8 01D8     		bhi	.L11
  73:../../DaisySP//Source/Utility/looper.h ****                 recsize_ = pos_;
 667              		.loc 10 73 21 view .LVU202
  73:../../DaisySP//Source/Utility/looper.h ****                 recsize_ = pos_;
 668              		.loc 10 73 30 is_stmt 0 view .LVU203
 669 01aa 0136     		adds	r6, r6, #1
 670 01ac A661     		str	r6, [r4, #24]
 671              	.L11:
  74:../../DaisySP//Source/Utility/looper.h ****                 pos_ += inc;
 672              		.loc 10 74 17 is_stmt 1 view .LVU204
  74:../../DaisySP//Source/Utility/looper.h ****                 pos_ += inc;
 673              		.loc 10 74 28 is_stmt 0 view .LVU205
 674 01ae D4ED047A 		vldr.32	s15, [r4, #16]
  75:../../DaisySP//Source/Utility/looper.h ****                 if(pos_ > buffer_size_ - 1)
 675              		.loc 10 75 22 view .LVU206
 676 01b2 F7EE006A 		vmov.f32	s13, #1.0e+0
  76:../../DaisySP//Source/Utility/looper.h ****                 {
 677              		.loc 10 76 40 view .LVU207
 678 01b6 E368     		ldr	r3, [r4, #12]
  74:../../DaisySP//Source/Utility/looper.h ****                 pos_ += inc;
 679              		.loc 10 74 26 view .LVU208
 680 01b8 BCEEE77A 		vcvt.u32.f32	s14, s15
  76:../../DaisySP//Source/Utility/looper.h ****                 {
 681              		.loc 10 76 40 view .LVU209
 682 01bc 013B     		subs	r3, r3, #1
  75:../../DaisySP//Source/Utility/looper.h ****                 if(pos_ > buffer_size_ - 1)
 683              		.loc 10 75 22 view .LVU210
 684 01be 77EEA67A 		vadd.f32	s15, s15, s13
  74:../../DaisySP//Source/Utility/looper.h ****                 pos_ += inc;
 685              		.loc 10 74 26 view .LVU211
 686 01c2 17EE102A 		vmov	r2, s14	@ int
  76:../../DaisySP//Source/Utility/looper.h ****                 {
 687              		.loc 10 76 25 view .LVU212
 688 01c6 07EE103A 		vmov	s14, r3	@ int
  75:../../DaisySP//Source/Utility/looper.h ****                 if(pos_ > buffer_size_ - 1)
 689              		.loc 10 75 22 view .LVU213
 690 01ca C4ED047A 		vstr.32	s15, [r4, #16]
  76:../../DaisySP//Source/Utility/looper.h ****                 {
 691              		.loc 10 76 25 view .LVU214
 692 01ce B8EE477A 		vcvt.f32.u32	s14, s14
  74:../../DaisySP//Source/Utility/looper.h ****                 pos_ += inc;
 693              		.loc 10 74 26 view .LVU215
 694 01d2 2262     		str	r2, [r4, #32]
  75:../../DaisySP//Source/Utility/looper.h ****                 if(pos_ > buffer_size_ - 1)
 695              		.loc 10 75 17 is_stmt 1 view .LVU216
  76:../../DaisySP//Source/Utility/looper.h ****                 {
 696              		.loc 10 76 17 view .LVU217
 697 01d4 F4EEC77A 		vcmpe.f32	s15, s14
 698 01d8 F1EE10FA 		vmrs	APSR_nzcv, FPSCR
 699 01dc CCDD     		ble	.L48
  78:../../DaisySP//Source/Utility/looper.h ****                     recsize_ = pos_ - 1;
ARM GAS  /var/folders/hl/qgbwny5j0fd895c2c41bk3tw0000gp/T//ccxZ31iG.s 			page 37


 700              		.loc 10 78 21 view .LVU218
  79:../../DaisySP//Source/Utility/looper.h ****                     pos_     = 0;
 701              		.loc 10 79 37 is_stmt 0 view .LVU219
 702 01de 77EEE67A 		vsub.f32	s15, s15, s13
  80:../../DaisySP//Source/Utility/looper.h ****                 }
 703              		.loc 10 80 30 view .LVU220
 704 01e2 9FED207A 		vldr.32	s14, .L58+8
  78:../../DaisySP//Source/Utility/looper.h ****                     recsize_ = pos_ - 1;
 705              		.loc 10 78 30 view .LVU221
 706 01e6 0223     		movs	r3, #2
  70:../../DaisySP//Source/Utility/looper.h ****                 Write(pos_, input * win_);
 707              		.loc 10 70 21 view .LVU222
 708 01e8 B0EE470A 		vmov.f32	s0, s14
  80:../../DaisySP//Source/Utility/looper.h ****                 }
 709              		.loc 10 80 30 view .LVU223
 710 01ec 84ED047A 		vstr.32	s14, [r4, #16]
  79:../../DaisySP//Source/Utility/looper.h ****                     pos_     = 0;
 711              		.loc 10 79 30 view .LVU224
 712 01f0 FCEEE77A 		vcvt.u32.f32	s15, s15
  78:../../DaisySP//Source/Utility/looper.h ****                     recsize_ = pos_ - 1;
 713              		.loc 10 78 30 view .LVU225
 714 01f4 6360     		str	r3, [r4, #4]
  79:../../DaisySP//Source/Utility/looper.h ****                     pos_     = 0;
 715              		.loc 10 79 21 is_stmt 1 view .LVU226
  79:../../DaisySP//Source/Utility/looper.h ****                     pos_     = 0;
 716              		.loc 10 79 30 is_stmt 0 view .LVU227
 717 01f6 C4ED087A 		vstr.32	s15, [r4, #32]	@ int
  80:../../DaisySP//Source/Utility/looper.h ****                 }
 718              		.loc 10 80 21 is_stmt 1 view .LVU228
 719              	.LVL40:
 150:../../DaisySP//Source/Utility/looper.h ****                               ? true
 720              		.loc 10 150 9 view .LVU229
 721              	.LBB565:
 191:../../DaisySP//Source/Utility/looper.h ****     {
 722              		.loc 10 191 23 view .LVU230
 723              	.LBB544:
 193:../../DaisySP//Source/Utility/looper.h ****     }
 724              		.loc 10 193 9 view .LVU231
 725              	.L14:
 193:../../DaisySP//Source/Utility/looper.h ****     }
 726              		.loc 10 193 9 is_stmt 0 view .LVU232
 727              	.LBE544:
 728              	.LBE565:
 151:../../DaisySP//Source/Utility/looper.h ****                               : false;
 729              		.loc 10 151 31 discriminator 1 view .LVU233
 730 01fa 94ED047A 		vldr.32	s14, [r4, #16]
 731 01fe DFED1A7A 		vldr.32	s15, .L58+12
 732 0202 B4EEE77A 		vcmpe.f32	s14, s15
 155:../../DaisySP//Source/Utility/looper.h **** 
 733              		.loc 10 155 5 discriminator 1 view .LVU234
 734 0206 BDEC028B 		vldm	sp!, {d8}
 735              		.cfi_remember_state
 736              		.cfi_restore 80
 737              		.cfi_restore 81
 738              		.cfi_def_cfa_offset 16
 151:../../DaisySP//Source/Utility/looper.h ****                               : false;
 739              		.loc 10 151 31 discriminator 1 view .LVU235
ARM GAS  /var/folders/hl/qgbwny5j0fd895c2c41bk3tw0000gp/T//ccxZ31iG.s 			page 38


 740 020a F1EE10FA 		vmrs	APSR_nzcv, FPSCR
 741 020e 4CBF     		ite	mi
 742 0210 0123     		movmi	r3, #1
 743 0212 0023     		movpl	r3, #0
 150:../../DaisySP//Source/Utility/looper.h ****                               ? true
 744              		.loc 10 150 25 discriminator 1 view .LVU236
 745 0214 84F82530 		strb	r3, [r4, #37]
 154:../../DaisySP//Source/Utility/looper.h ****     }
 746              		.loc 10 154 9 is_stmt 1 discriminator 1 view .LVU237
 155:../../DaisySP//Source/Utility/looper.h **** 
 747              		.loc 10 155 5 is_stmt 0 discriminator 1 view .LVU238
 748 0218 70BD     		pop	{r4, r5, r6, pc}
 749              	.LVL41:
 750              	.L56:
 751              		.cfi_restore_state
  97:../../DaisySP//Source/Utility/looper.h ****                     hitloop = true;
 752              		.loc 10 97 21 is_stmt 1 view .LVU239
  97:../../DaisySP//Source/Utility/looper.h ****                     hitloop = true;
 753              		.loc 10 97 29 is_stmt 0 view .LVU240
 754 021a 0023     		movs	r3, #0
 755 021c 2361     		str	r3, [r4, #16]	@ float
  98:../../DaisySP//Source/Utility/looper.h ****                 }
 756              		.loc 10 98 21 is_stmt 1 view .LVU241
 757              	.LVL42:
 105:../../DaisySP//Source/Utility/looper.h **** 
 758              		.loc 10 105 17 view .LVU242
 759 021e 89E7     		b	.L18
 760              	.LVL43:
 761              	.L22:
 121:../../DaisySP//Source/Utility/looper.h ****                         Write(pos_, (input * win_) + (sig * kFripDecayVal));
 762              		.loc 10 121 21 view .LVU243
 122:../../DaisySP//Source/Utility/looper.h ****                         break;
 763              		.loc 10 122 25 view .LVU244
 122:../../DaisySP//Source/Utility/looper.h ****                         break;
 764              		.loc 10 122 59 is_stmt 0 view .LVU245
 765 0220 9FED127A 		vldr.32	s14, .L58+16
 766 0224 20EE077A 		vmul.f32	s14, s0, s14
 122:../../DaisySP//Source/Utility/looper.h ****                         break;
 767              		.loc 10 122 30 view .LVU246
 768 0228 A8EEA77A 		vfma.f32	s14, s17, s15
 769              	.LVL44:
 770              	.LBB566:
 771              	.LBI566:
 261:../../DaisySP//Source/Utility/looper.h **** 
 772              		.loc 10 261 17 is_stmt 1 view .LVU247
 773              	.LBB567:
 261:../../DaisySP//Source/Utility/looper.h **** 
 774              		.loc 10 261 48 view .LVU248
 261:../../DaisySP//Source/Utility/looper.h **** 
 775              		.loc 10 261 59 is_stmt 0 view .LVU249
 776 022c 83ED007A 		vstr.32	s14, [r3]
 777              	.LVL45:
 261:../../DaisySP//Source/Utility/looper.h **** 
 778              		.loc 10 261 66 view .LVU250
 779 0230 2CE7     		b	.L24
 780              	.LVL46:
 781              	.L21:
ARM GAS  /var/folders/hl/qgbwny5j0fd895c2c41bk3tw0000gp/T//ccxZ31iG.s 			page 39


 261:../../DaisySP//Source/Utility/looper.h **** 
 782              		.loc 10 261 66 view .LVU251
 783              	.LBE567:
 784              	.LBE566:
 120:../../DaisySP//Source/Utility/looper.h ****                     case Mode::FRIPPERTRONICS:
 785              		.loc 10 120 21 is_stmt 1 view .LVU252
 120:../../DaisySP//Source/Utility/looper.h ****                     case Mode::FRIPPERTRONICS:
 786              		.loc 10 120 41 view .LVU253
 787              	.LBB568:
 788              	.LBI568:
 261:../../DaisySP//Source/Utility/looper.h **** 
 789              		.loc 10 261 17 view .LVU254
 790              	.LBB569:
 261:../../DaisySP//Source/Utility/looper.h **** 
 791              		.loc 10 261 48 view .LVU255
 792              	.LBE569:
 793              	.LBE568:
 120:../../DaisySP//Source/Utility/looper.h ****                     case Mode::FRIPPERTRONICS:
 794              		.loc 10 120 46 is_stmt 0 view .LVU256
 795 0232 68EEA77A 		vmul.f32	s15, s17, s15
 796              	.LVL47:
 797              	.LBB571:
 798              	.LBB570:
 261:../../DaisySP//Source/Utility/looper.h **** 
 799              		.loc 10 261 59 view .LVU257
 800 0236 C3ED007A 		vstr.32	s15, [r3]
 801              	.LVL48:
 261:../../DaisySP//Source/Utility/looper.h **** 
 802              		.loc 10 261 66 view .LVU258
 803 023a 27E7     		b	.L24
 804              	.LVL49:
 805              	.L51:
 261:../../DaisySP//Source/Utility/looper.h **** 
 806              		.loc 10 261 66 view .LVU259
 807              	.LBE570:
 808              	.LBE571:
 136:../../DaisySP//Source/Utility/looper.h ****                 {
 809              		.loc 10 136 22 is_stmt 1 view .LVU260
 810 023c B5EEC08A 		vcmpe.f32	s16, #0
 811 0240 F1EE10FA 		vmrs	APSR_nzcv, FPSCR
 812 0244 9AD5     		bpl	.L12
 138:../../DaisySP//Source/Utility/looper.h ****                     hitloop = true;
 813              		.loc 10 138 21 view .LVU261
 138:../../DaisySP//Source/Utility/looper.h ****                     hitloop = true;
 814              		.loc 10 138 29 is_stmt 0 view .LVU262
 815 0246 C4ED047A 		vstr.32	s15, [r4, #16]
 139:../../DaisySP//Source/Utility/looper.h ****                 }
 816              		.loc 10 139 21 is_stmt 1 view .LVU263
 817              	.LVL50:
 141:../../DaisySP//Source/Utility/looper.h ****                 {
 818              		.loc 10 141 17 view .LVU264
 819 024a 39E7     		b	.L28
 820              	.LVL51:
 821              	.L55:
 150:../../DaisySP//Source/Utility/looper.h ****                               ? true
 822              		.loc 10 150 9 view .LVU265
 823              	.LBB572:
ARM GAS  /var/folders/hl/qgbwny5j0fd895c2c41bk3tw0000gp/T//ccxZ31iG.s 			page 40


 191:../../DaisySP//Source/Utility/looper.h ****     {
 824              		.loc 10 191 23 view .LVU266
 825              	.LBB545:
 193:../../DaisySP//Source/Utility/looper.h ****     }
 826              		.loc 10 193 9 view .LVU267
 193:../../DaisySP//Source/Utility/looper.h ****     }
 827              		.loc 10 193 41 is_stmt 0 view .LVU268
 828 024c 25F00205 		bic	r5, r5, #2
 829              	.LBE545:
 830              	.LBE572:
  58:../../DaisySP//Source/Utility/looper.h ****         float inc;
 831              		.loc 10 58 15 view .LVU269
 832 0250 9FED040A 		vldr.32	s0, .L58+8
 150:../../DaisySP//Source/Utility/looper.h ****                               ? true
 833              		.loc 10 150 50 view .LVU270
 834 0254 012D     		cmp	r5, #1
 835 0256 D0D1     		bne	.L14
 836 0258 90E7     		b	.L12
 837              	.L59:
 838 025a 00BF     		.align	2
 839              	.L58:
 840 025c 0E745A3A 		.word	979006478
 841 0260 DB0FC93F 		.word	1070141403
 842 0264 00000000 		.word	0
 843 0268 00009645 		.word	1167458304
 844 026c F304353F 		.word	1060439283
 845              		.cfi_endproc
 846              	.LFE4732:
 848              		.section	.text._Z13AudioCallbackPKPKfPPfj,"ax",%progbits
 849              		.align	1
 850              		.p2align 2,,3
 851              		.global	_Z13AudioCallbackPKPKfPPfj
 852              		.syntax unified
 853              		.thumb
 854              		.thumb_func
 855              		.fpu fpv5-d16
 857              	_Z13AudioCallbackPKPKfPPfj:
 858              	.LVL52:
 859              	.LFB4795:
 860              		.file 12 "thilia.cpp"
   1:thilia.cpp    **** #include "daisy_patch_sm.h"
   2:thilia.cpp    **** #include "daisysp.h"
   3:thilia.cpp    **** #include "daisy_bed.h"
   4:thilia.cpp    **** 
   5:thilia.cpp    **** using namespace daisy;
   6:thilia.cpp    **** using namespace patch_sm;
   7:thilia.cpp    **** using namespace daisysp;
   8:thilia.cpp    **** 
   9:thilia.cpp    **** ReverbSc     reverb;
  10:thilia.cpp    **** DaisyPatchSM patch;
  11:thilia.cpp    **** Switch       button;
  12:thilia.cpp    **** Switch       toggle;
  13:thilia.cpp    **** 
  14:thilia.cpp    **** #define kBuffSize 48000 * 60 // 60 seconds at 48kHz
  15:thilia.cpp    **** 
  16:thilia.cpp    **** 
  17:thilia.cpp    **** // Loopers and the buffers they'll use
ARM GAS  /var/folders/hl/qgbwny5j0fd895c2c41bk3tw0000gp/T//ccxZ31iG.s 			page 41


  18:thilia.cpp    **** Looper              looper_l;
  19:thilia.cpp    **** Looper              looper_r;
  20:thilia.cpp    **** float DSY_SDRAM_BSS buffer_l[kBuffSize];
  21:thilia.cpp    **** float DSY_SDRAM_BSS buffer_r[kBuffSize];
  22:thilia.cpp    **** 
  23:thilia.cpp    **** void AudioCallback(AudioHandle::InputBuffer  in,
  24:thilia.cpp    ****                    AudioHandle::OutputBuffer out,
  25:thilia.cpp    ****                    size_t                    size)
  26:thilia.cpp    **** {
 861              		.loc 12 26 1 is_stmt 1 view -0
 862              		.cfi_startproc
 863              		@ args = 0, pretend = 0, frame = 16
 864              		@ frame_needed = 0, uses_anonymous_args = 0
  27:thilia.cpp    ****     // Process the controls
  28:thilia.cpp    ****     patch.ProcessAllControls();
 865              		.loc 12 28 5 view .LVU272
 866              	.LBB636:
 867              	.LBI636:
  66:../../libDaisy//src/daisy_patch_sm.h **** 
  67:../../libDaisy//src/daisy_patch_sm.h ****         /** Initializes the memories, and core peripherals for the Daisy Patch SM */
  68:../../libDaisy//src/daisy_patch_sm.h ****         void Init();
  69:../../libDaisy//src/daisy_patch_sm.h **** 
  70:../../libDaisy//src/daisy_patch_sm.h ****         /** Starts a non-interleaving audio callback */
  71:../../libDaisy//src/daisy_patch_sm.h ****         void StartAudio(AudioHandle::AudioCallback cb);
  72:../../libDaisy//src/daisy_patch_sm.h **** 
  73:../../libDaisy//src/daisy_patch_sm.h ****         /** Starts an interleaving audio callback */
  74:../../libDaisy//src/daisy_patch_sm.h ****         void StartAudio(AudioHandle::InterleavingAudioCallback cb);
  75:../../libDaisy//src/daisy_patch_sm.h **** 
  76:../../libDaisy//src/daisy_patch_sm.h ****         /** Changes the callback that is executing.
  77:../../libDaisy//src/daisy_patch_sm.h ****          *  This may cause clicks if done while audio is processing.
  78:../../libDaisy//src/daisy_patch_sm.h ****          */
  79:../../libDaisy//src/daisy_patch_sm.h ****         void ChangeAudioCallback(AudioHandle::AudioCallback cb);
  80:../../libDaisy//src/daisy_patch_sm.h **** 
  81:../../libDaisy//src/daisy_patch_sm.h ****         /** Changes the callback that is executing.
  82:../../libDaisy//src/daisy_patch_sm.h ****          *  This may cause clicks if done while audio is processing.
  83:../../libDaisy//src/daisy_patch_sm.h ****          */
  84:../../libDaisy//src/daisy_patch_sm.h ****         void ChangeAudioCallback(AudioHandle::InterleavingAudioCallback cb);
  85:../../libDaisy//src/daisy_patch_sm.h **** 
  86:../../libDaisy//src/daisy_patch_sm.h ****         /** Stops the transmission of audio. */
  87:../../libDaisy//src/daisy_patch_sm.h ****         void StopAudio();
  88:../../libDaisy//src/daisy_patch_sm.h **** 
  89:../../libDaisy//src/daisy_patch_sm.h ****         /** Sets the number of samples processed in an audio callback. 
  90:../../libDaisy//src/daisy_patch_sm.h ****          *  This will only take effect on the next invocation of `StartAudio`
  91:../../libDaisy//src/daisy_patch_sm.h ****          */
  92:../../libDaisy//src/daisy_patch_sm.h ****         void SetAudioBlockSize(size_t size);
  93:../../libDaisy//src/daisy_patch_sm.h **** 
  94:../../libDaisy//src/daisy_patch_sm.h ****         /** Sets the samplerate for the audio engine 
  95:../../libDaisy//src/daisy_patch_sm.h ****          *  This will set it to the closest valid samplerate. Options being:
  96:../../libDaisy//src/daisy_patch_sm.h ****          *  8kHz, 16kHz, 32kHz, 48kHz, and 96kHz
  97:../../libDaisy//src/daisy_patch_sm.h ****          */
  98:../../libDaisy//src/daisy_patch_sm.h ****         void SetAudioSampleRate(float sr);
  99:../../libDaisy//src/daisy_patch_sm.h **** 
 100:../../libDaisy//src/daisy_patch_sm.h ****         void SetAudioSampleRate(SaiHandle::Config::SampleRate sample_rate);
 101:../../libDaisy//src/daisy_patch_sm.h **** 
 102:../../libDaisy//src/daisy_patch_sm.h ****         /** Returns the number of samples processed in an audio callback */
 103:../../libDaisy//src/daisy_patch_sm.h ****         size_t AudioBlockSize();
 104:../../libDaisy//src/daisy_patch_sm.h **** 
ARM GAS  /var/folders/hl/qgbwny5j0fd895c2c41bk3tw0000gp/T//ccxZ31iG.s 			page 42


 105:../../libDaisy//src/daisy_patch_sm.h ****         /** Returns the audio engine's samplerate in Hz */
 106:../../libDaisy//src/daisy_patch_sm.h ****         float AudioSampleRate();
 107:../../libDaisy//src/daisy_patch_sm.h **** 
 108:../../libDaisy//src/daisy_patch_sm.h ****         /** Returns the rate at which the audio callback will be called in Hz */
 109:../../libDaisy//src/daisy_patch_sm.h ****         float AudioCallbackRate();
 110:../../libDaisy//src/daisy_patch_sm.h **** 
 111:../../libDaisy//src/daisy_patch_sm.h ****         /** Starts the Control ADCs 
 112:../../libDaisy//src/daisy_patch_sm.h ****          * 
 113:../../libDaisy//src/daisy_patch_sm.h ****          *  This is started automatically when Init() is called.
 114:../../libDaisy//src/daisy_patch_sm.h ****          */
 115:../../libDaisy//src/daisy_patch_sm.h ****         void StartAdc();
 116:../../libDaisy//src/daisy_patch_sm.h **** 
 117:../../libDaisy//src/daisy_patch_sm.h ****         /** Stops the Control ADCs */
 118:../../libDaisy//src/daisy_patch_sm.h ****         void StopAdc();
 119:../../libDaisy//src/daisy_patch_sm.h **** 
 120:../../libDaisy//src/daisy_patch_sm.h ****         /** Reads and filters all of the analog control inputs */
 121:../../libDaisy//src/daisy_patch_sm.h ****         void ProcessAnalogControls();
 122:../../libDaisy//src/daisy_patch_sm.h **** 
 123:../../libDaisy//src/daisy_patch_sm.h ****         /** Reads and debounces any of the digital control inputs 
 124:../../libDaisy//src/daisy_patch_sm.h ****          *  This does nothing on this board at this time.
 125:../../libDaisy//src/daisy_patch_sm.h ****          */
 126:../../libDaisy//src/daisy_patch_sm.h ****         void ProcessDigitalControls();
 127:../../libDaisy//src/daisy_patch_sm.h **** 
 128:../../libDaisy//src/daisy_patch_sm.h ****         /** Does both of the above */
 129:../../libDaisy//src/daisy_patch_sm.h ****         void ProcessAllControls()
 868              		.loc 2 129 14 view .LVU273
 869              	.LBB637:
 130:../../libDaisy//src/daisy_patch_sm.h ****         {
 131:../../libDaisy//src/daisy_patch_sm.h ****             ProcessAnalogControls();
 870              		.loc 2 131 13 view .LVU274
 871              	.LBE637:
 872              	.LBE636:
  26:thilia.cpp    ****     // Process the controls
 873              		.loc 12 26 1 is_stmt 0 view .LVU275
 874 0000 2DE9F043 		push	{r4, r5, r6, r7, r8, r9, lr}
 875              		.cfi_def_cfa_offset 28
 876              		.cfi_offset 4, -28
 877              		.cfi_offset 5, -24
 878              		.cfi_offset 6, -20
 879              		.cfi_offset 7, -16
 880              		.cfi_offset 8, -12
 881              		.cfi_offset 9, -8
 882              		.cfi_offset 14, -4
 883 0004 0546     		mov	r5, r0
  29:thilia.cpp    ****     b1.Debounce();
 884              		.loc 12 29 16 view .LVU276
 885 0006 DFF89492 		ldr	r9, .L92+52
 886              	.LBB640:
 887              	.LBB638:
 888              		.loc 2 131 34 view .LVU277
 889 000a 9748     		ldr	r0, .L92
 890              	.LVL53:
 891              		.loc 2 131 34 view .LVU278
 892              	.LBE638:
 893              	.LBE640:
  26:thilia.cpp    ****     // Process the controls
 894              		.loc 12 26 1 view .LVU279
ARM GAS  /var/folders/hl/qgbwny5j0fd895c2c41bk3tw0000gp/T//ccxZ31iG.s 			page 43


 895 000c 1746     		mov	r7, r2
 896 000e 0E46     		mov	r6, r1
  30:thilia.cpp    ****     b2.Debounce();
 897              		.loc 12 30 16 view .LVU280
 898 0010 964C     		ldr	r4, .L92+4
  26:thilia.cpp    ****     // Process the controls
 899              		.loc 12 26 1 view .LVU281
 900 0012 2DED048B 		vpush.64	{d8, d9}
 901              		.cfi_def_cfa_offset 44
 902              		.cfi_offset 80, -44
 903              		.cfi_offset 81, -40
 904              		.cfi_offset 82, -36
 905              		.cfi_offset 83, -32
 906 0016 87B0     		sub	sp, sp, #28
 907              		.cfi_def_cfa_offset 72
 908              	.LBB641:
 909              	.LBB642:
 910              		.file 13 "../../DaisySP//Source/Utility/dsp.h"
   1:../../DaisySP//Source/Utility/dsp.h **** /** Helpful defines, functions, and other utilities for use in/with daisysp modules.
   2:../../DaisySP//Source/Utility/dsp.h **** */
   3:../../DaisySP//Source/Utility/dsp.h **** #pragma once
   4:../../DaisySP//Source/Utility/dsp.h **** #ifndef DSY_CORE_DSP
   5:../../DaisySP//Source/Utility/dsp.h **** #define DSY_CORE_DSP
   6:../../DaisySP//Source/Utility/dsp.h **** #include <cassert>
   7:../../DaisySP//Source/Utility/dsp.h **** #include <cstdint>
   8:../../DaisySP//Source/Utility/dsp.h **** #include <random>
   9:../../DaisySP//Source/Utility/dsp.h **** #include <cmath>
  10:../../DaisySP//Source/Utility/dsp.h **** 
  11:../../DaisySP//Source/Utility/dsp.h **** /** PIs
  12:../../DaisySP//Source/Utility/dsp.h **** */
  13:../../DaisySP//Source/Utility/dsp.h **** #define PI_F 3.1415927410125732421875f
  14:../../DaisySP//Source/Utility/dsp.h **** #define TWOPI_F (2.0f * PI_F)
  15:../../DaisySP//Source/Utility/dsp.h **** #define HALFPI_F (PI_F * 0.5f)
  16:../../DaisySP//Source/Utility/dsp.h **** #define DSY_MIN(in, mn) (in < mn ? in : mn)
  17:../../DaisySP//Source/Utility/dsp.h **** #define DSY_MAX(in, mx) (in > mx ? in : mx)
  18:../../DaisySP//Source/Utility/dsp.h **** #define DSY_CLAMP(in, mn, mx) (DSY_MIN(DSY_MAX(in, mn), mx))
  19:../../DaisySP//Source/Utility/dsp.h **** #define DSY_COUNTOF(_arr) (sizeof(_arr) / sizeof(_arr[0]))
  20:../../DaisySP//Source/Utility/dsp.h **** 
  21:../../DaisySP//Source/Utility/dsp.h **** namespace daisysp
  22:../../DaisySP//Source/Utility/dsp.h **** {
  23:../../DaisySP//Source/Utility/dsp.h **** //Avoids division for random floats. e.g. rand() * kRandFrac
  24:../../DaisySP//Source/Utility/dsp.h **** static constexpr float kRandFrac = 1.f / (float)RAND_MAX;
  25:../../DaisySP//Source/Utility/dsp.h **** 
  26:../../DaisySP//Source/Utility/dsp.h **** //Convert from semitones to other units. e.g. 2 ^ (kOneTwelfth * x)
  27:../../DaisySP//Source/Utility/dsp.h **** static constexpr float kOneTwelfth = 1.f / 12.f;
  28:../../DaisySP//Source/Utility/dsp.h **** 
  29:../../DaisySP//Source/Utility/dsp.h **** /** efficient floating point min/max
  30:../../DaisySP//Source/Utility/dsp.h **** c/o stephen mccaul
  31:../../DaisySP//Source/Utility/dsp.h **** */
  32:../../DaisySP//Source/Utility/dsp.h **** inline float fmax(float a, float b)
  33:../../DaisySP//Source/Utility/dsp.h **** {
  34:../../DaisySP//Source/Utility/dsp.h ****     float r;
  35:../../DaisySP//Source/Utility/dsp.h **** #ifdef __arm__
  36:../../DaisySP//Source/Utility/dsp.h ****     asm("vmaxnm.f32 %[d], %[n], %[m]" : [d] "=t"(r) : [n] "t"(a), [m] "t"(b) :);
  37:../../DaisySP//Source/Utility/dsp.h **** #else
  38:../../DaisySP//Source/Utility/dsp.h ****     r = (a > b) ? a : b;
  39:../../DaisySP//Source/Utility/dsp.h **** #endif // __arm__
ARM GAS  /var/folders/hl/qgbwny5j0fd895c2c41bk3tw0000gp/T//ccxZ31iG.s 			page 44


  40:../../DaisySP//Source/Utility/dsp.h ****     return r;
  41:../../DaisySP//Source/Utility/dsp.h **** }
  42:../../DaisySP//Source/Utility/dsp.h **** 
  43:../../DaisySP//Source/Utility/dsp.h **** inline float fmin(float a, float b)
  44:../../DaisySP//Source/Utility/dsp.h **** {
  45:../../DaisySP//Source/Utility/dsp.h ****     float r;
  46:../../DaisySP//Source/Utility/dsp.h **** #ifdef __arm__
  47:../../DaisySP//Source/Utility/dsp.h ****     asm("vminnm.f32 %[d], %[n], %[m]" : [d] "=t"(r) : [n] "t"(a), [m] "t"(b) :);
  48:../../DaisySP//Source/Utility/dsp.h **** #else
  49:../../DaisySP//Source/Utility/dsp.h ****     r = (a < b) ? a : b;
  50:../../DaisySP//Source/Utility/dsp.h **** #endif // __arm__
  51:../../DaisySP//Source/Utility/dsp.h ****     return r;
  52:../../DaisySP//Source/Utility/dsp.h **** }
  53:../../DaisySP//Source/Utility/dsp.h **** 
  54:../../DaisySP//Source/Utility/dsp.h **** /** quick fp clamp
  55:../../DaisySP//Source/Utility/dsp.h **** */
  56:../../DaisySP//Source/Utility/dsp.h **** inline float fclamp(float in, float min, float max)
  57:../../DaisySP//Source/Utility/dsp.h **** {
  58:../../DaisySP//Source/Utility/dsp.h ****     return fmin(fmax(in, min), max);
  59:../../DaisySP//Source/Utility/dsp.h **** }
  60:../../DaisySP//Source/Utility/dsp.h **** 
  61:../../DaisySP//Source/Utility/dsp.h **** /** From Musicdsp.org "Fast power and root estimates for 32bit floats)
  62:../../DaisySP//Source/Utility/dsp.h **** Original code by Stefan Stenzel
  63:../../DaisySP//Source/Utility/dsp.h **** These are approximations
  64:../../DaisySP//Source/Utility/dsp.h **** */
  65:../../DaisySP//Source/Utility/dsp.h **** inline float fastpower(float f, int n)
  66:../../DaisySP//Source/Utility/dsp.h **** {
  67:../../DaisySP//Source/Utility/dsp.h ****     long *lp, l;
  68:../../DaisySP//Source/Utility/dsp.h ****     lp = (long *)(&f);
  69:../../DaisySP//Source/Utility/dsp.h ****     l  = *lp;
  70:../../DaisySP//Source/Utility/dsp.h ****     l -= 0x3F800000;
  71:../../DaisySP//Source/Utility/dsp.h ****     l <<= (n - 1);
  72:../../DaisySP//Source/Utility/dsp.h ****     l += 0x3F800000;
  73:../../DaisySP//Source/Utility/dsp.h ****     *lp = l;
  74:../../DaisySP//Source/Utility/dsp.h ****     return f;
  75:../../DaisySP//Source/Utility/dsp.h **** }
  76:../../DaisySP//Source/Utility/dsp.h **** 
  77:../../DaisySP//Source/Utility/dsp.h **** inline float fastroot(float f, int n)
  78:../../DaisySP//Source/Utility/dsp.h **** {
  79:../../DaisySP//Source/Utility/dsp.h ****     long *lp, l;
  80:../../DaisySP//Source/Utility/dsp.h ****     lp = (long *)(&f);
  81:../../DaisySP//Source/Utility/dsp.h ****     l  = *lp;
  82:../../DaisySP//Source/Utility/dsp.h ****     l -= 0x3F800000;
  83:../../DaisySP//Source/Utility/dsp.h ****     l >>= (n = 1);
  84:../../DaisySP//Source/Utility/dsp.h ****     l += 0x3F800000;
  85:../../DaisySP//Source/Utility/dsp.h ****     *lp = l;
  86:../../DaisySP//Source/Utility/dsp.h ****     return f;
  87:../../DaisySP//Source/Utility/dsp.h **** }
  88:../../DaisySP//Source/Utility/dsp.h **** 
  89:../../DaisySP//Source/Utility/dsp.h **** /** From http://openaudio.blogspot.com/2017/02/faster-log10-and-pow.html
  90:../../DaisySP//Source/Utility/dsp.h **** No approximation, pow10f(x) gives a 90% speed increase over powf(10.f, x)
  91:../../DaisySP//Source/Utility/dsp.h **** */
  92:../../DaisySP//Source/Utility/dsp.h **** inline float pow10f(float f)
  93:../../DaisySP//Source/Utility/dsp.h **** {
  94:../../DaisySP//Source/Utility/dsp.h ****     return expf(2.302585092994046f * f);
  95:../../DaisySP//Source/Utility/dsp.h **** }
  96:../../DaisySP//Source/Utility/dsp.h **** 
ARM GAS  /var/folders/hl/qgbwny5j0fd895c2c41bk3tw0000gp/T//ccxZ31iG.s 			page 45


  97:../../DaisySP//Source/Utility/dsp.h **** /* Original code for fastlog2f by Dr. Paul Beckmann from the ARM community forum, adapted from the 
  98:../../DaisySP//Source/Utility/dsp.h **** About 25% performance increase over std::log10f
  99:../../DaisySP//Source/Utility/dsp.h **** */
 100:../../DaisySP//Source/Utility/dsp.h **** inline float fastlog2f(float f)
 101:../../DaisySP//Source/Utility/dsp.h **** {
 102:../../DaisySP//Source/Utility/dsp.h ****     float frac;
 103:../../DaisySP//Source/Utility/dsp.h ****     int   exp;
 104:../../DaisySP//Source/Utility/dsp.h ****     frac = frexpf(fabsf(f), &exp);
 105:../../DaisySP//Source/Utility/dsp.h ****     f    = 1.23149591368684f;
 106:../../DaisySP//Source/Utility/dsp.h ****     f *= frac;
 107:../../DaisySP//Source/Utility/dsp.h ****     f += -4.11852516267426f;
 108:../../DaisySP//Source/Utility/dsp.h ****     f *= frac;
 109:../../DaisySP//Source/Utility/dsp.h ****     f += 6.02197014179219f;
 110:../../DaisySP//Source/Utility/dsp.h ****     f *= frac;
 111:../../DaisySP//Source/Utility/dsp.h ****     f += -3.13396450166353f;
 112:../../DaisySP//Source/Utility/dsp.h ****     f += exp;
 113:../../DaisySP//Source/Utility/dsp.h ****     return (f);
 114:../../DaisySP//Source/Utility/dsp.h **** }
 115:../../DaisySP//Source/Utility/dsp.h **** 
 116:../../DaisySP//Source/Utility/dsp.h **** inline float fastlog10f(float f)
 117:../../DaisySP//Source/Utility/dsp.h **** {
 118:../../DaisySP//Source/Utility/dsp.h ****     return fastlog2f(f) * 0.3010299956639812f;
 119:../../DaisySP//Source/Utility/dsp.h **** }
 120:../../DaisySP//Source/Utility/dsp.h **** 
 121:../../DaisySP//Source/Utility/dsp.h **** /** Midi to frequency helper
 122:../../DaisySP//Source/Utility/dsp.h **** */
 123:../../DaisySP//Source/Utility/dsp.h **** inline float mtof(float m)
 124:../../DaisySP//Source/Utility/dsp.h **** {
 125:../../DaisySP//Source/Utility/dsp.h ****     return powf(2, (m - 69.0f) / 12.0f) * 440.0f;
 126:../../DaisySP//Source/Utility/dsp.h **** }
 127:../../DaisySP//Source/Utility/dsp.h **** 
 128:../../DaisySP//Source/Utility/dsp.h **** 
 129:../../DaisySP//Source/Utility/dsp.h **** /** one pole lpf
 130:../../DaisySP//Source/Utility/dsp.h **** out is passed by reference, and must be retained between
 131:../../DaisySP//Source/Utility/dsp.h **** calls to properly filter the signal
 132:../../DaisySP//Source/Utility/dsp.h **** coeff can be calculated:
 133:../../DaisySP//Source/Utility/dsp.h **** coeff = 1.0 / (time * sample_rate) ; where time is in seconds
 134:../../DaisySP//Source/Utility/dsp.h **** */
 135:../../DaisySP//Source/Utility/dsp.h **** inline void fonepole(float &out, float in, float coeff)
 136:../../DaisySP//Source/Utility/dsp.h **** {
 137:../../DaisySP//Source/Utility/dsp.h ****     out += coeff * (in - out);
 138:../../DaisySP//Source/Utility/dsp.h **** }
 139:../../DaisySP//Source/Utility/dsp.h **** 
 140:../../DaisySP//Source/Utility/dsp.h **** /** Curves to use with the fmap function */
 141:../../DaisySP//Source/Utility/dsp.h **** enum class Mapping
 142:../../DaisySP//Source/Utility/dsp.h **** {
 143:../../DaisySP//Source/Utility/dsp.h ****     LINEAR,
 144:../../DaisySP//Source/Utility/dsp.h ****     EXP,
 145:../../DaisySP//Source/Utility/dsp.h ****     LOG,
 146:../../DaisySP//Source/Utility/dsp.h **** };
 147:../../DaisySP//Source/Utility/dsp.h **** 
 148:../../DaisySP//Source/Utility/dsp.h **** /** Maps a float between a specified range, using a specified curve. 
 149:../../DaisySP//Source/Utility/dsp.h ****  * 
 150:../../DaisySP//Source/Utility/dsp.h ****  *  \param in a value between 0 to 1 that will be mapped to the new range.
 151:../../DaisySP//Source/Utility/dsp.h ****  *  \param min the new minimum value
 152:../../DaisySP//Source/Utility/dsp.h ****  *  \param max the new maxmimum value
 153:../../DaisySP//Source/Utility/dsp.h ****  *  \param curve a Mapping Value to adjust the response curve of the transformation
ARM GAS  /var/folders/hl/qgbwny5j0fd895c2c41bk3tw0000gp/T//ccxZ31iG.s 			page 46


 154:../../DaisySP//Source/Utility/dsp.h ****  *               defaults to Linear. @see Mapping
 155:../../DaisySP//Source/Utility/dsp.h ****  * 
 156:../../DaisySP//Source/Utility/dsp.h ****  *  When using the log curve min and max, must be greater than zero.
 157:../../DaisySP//Source/Utility/dsp.h ****  * 
 158:../../DaisySP//Source/Utility/dsp.h ****  *  \retval returns the transformed float within the new range.
 159:../../DaisySP//Source/Utility/dsp.h **** */
 160:../../DaisySP//Source/Utility/dsp.h **** inline float
 161:../../DaisySP//Source/Utility/dsp.h **** fmap(float in, float min, float max, Mapping curve = Mapping::LINEAR)
 162:../../DaisySP//Source/Utility/dsp.h **** {
 163:../../DaisySP//Source/Utility/dsp.h ****     switch(curve)
 164:../../DaisySP//Source/Utility/dsp.h ****     {
 165:../../DaisySP//Source/Utility/dsp.h ****         case Mapping::EXP:
 166:../../DaisySP//Source/Utility/dsp.h ****             return fclamp(min + (in * in) * (max - min), min, max);
 167:../../DaisySP//Source/Utility/dsp.h ****         case Mapping::LOG:
 168:../../DaisySP//Source/Utility/dsp.h ****         {
 169:../../DaisySP//Source/Utility/dsp.h ****             const float a = 1.f / log10f(max / min);
 170:../../DaisySP//Source/Utility/dsp.h ****             return fclamp(min * powf(10, in / a), min, max);
 171:../../DaisySP//Source/Utility/dsp.h ****         }
 172:../../DaisySP//Source/Utility/dsp.h ****         case Mapping::LINEAR:
 173:../../DaisySP//Source/Utility/dsp.h ****         default: return fclamp(min + in * (max - min), min, max);
 911              		.loc 13 173 31 view .LVU282
 912 0018 9FED958A 		vldr.32	s16, .L92+8
 913              	.LBE642:
 914              	.LBE641:
 915              	.LBB660:
 916              	.LBB639:
 917              		.loc 2 131 34 view .LVU283
 918 001c FFF7FEFF 		bl	_ZN5daisy8patch_sm12DaisyPatchSM21ProcessAnalogControlsEv
 919              	.LVL54:
 132:../../libDaisy//src/daisy_patch_sm.h ****             ProcessDigitalControls();
 920              		.loc 2 132 13 is_stmt 1 view .LVU284
 921              		.loc 2 132 35 is_stmt 0 view .LVU285
 922 0020 9148     		ldr	r0, .L92
 923 0022 FFF7FEFF 		bl	_ZN5daisy8patch_sm12DaisyPatchSM22ProcessDigitalControlsEv
 924              	.LVL55:
 925              		.loc 2 132 35 view .LVU286
 926              	.LBE639:
 927              	.LBE660:
  29:thilia.cpp    ****     b2.Debounce();
 928              		.loc 12 29 5 is_stmt 1 view .LVU287
  29:thilia.cpp    ****     b2.Debounce();
 929              		.loc 12 29 16 is_stmt 0 view .LVU288
 930 0026 4846     		mov	r0, r9
 931 0028 FFF7FEFF 		bl	_ZN5daisy6Switch8DebounceEv
 932              	.LVL56:
 933              		.loc 12 30 5 is_stmt 1 view .LVU289
 934              		.loc 12 30 16 is_stmt 0 view .LVU290
 935 002c 2046     		mov	r0, r4
 936 002e FFF7FEFF 		bl	_ZN5daisy6Switch8DebounceEv
 937              	.LVL57:
  31:thilia.cpp    ****     bool state = b2.Pressed();
 938              		.loc 12 31 5 is_stmt 1 view .LVU291
 939              	.LBB661:
 940              	.LBI661:
  43:../../libDaisy//src/hid/switch.h **** 
  44:../../libDaisy//src/hid/switch.h ****     /** 
  45:../../libDaisy//src/hid/switch.h ****     Initializes the switch object with a given port/pin combo.
ARM GAS  /var/folders/hl/qgbwny5j0fd895c2c41bk3tw0000gp/T//ccxZ31iG.s 			page 47


  46:../../libDaisy//src/hid/switch.h ****     \param pin port/pin object to tell the switch which hardware pin to use.
  47:../../libDaisy//src/hid/switch.h ****     \param update_rate Does nothing. Backwards compatibility until next breaking update.
  48:../../libDaisy//src/hid/switch.h ****     \param t switch type -- Default: TYPE_MOMENTARY
  49:../../libDaisy//src/hid/switch.h ****     \param pol switch polarity -- Default: POLARITY_INVERTED
  50:../../libDaisy//src/hid/switch.h ****     \param pu switch pull up/down -- Default: PULL_UP
  51:../../libDaisy//src/hid/switch.h ****     */
  52:../../libDaisy//src/hid/switch.h ****     void
  53:../../libDaisy//src/hid/switch.h ****     Init(dsy_gpio_pin pin, float update_rate, Type t, Polarity pol, Pull pu);
  54:../../libDaisy//src/hid/switch.h **** 
  55:../../libDaisy//src/hid/switch.h ****     /**
  56:../../libDaisy//src/hid/switch.h ****        Simplified Init.
  57:../../libDaisy//src/hid/switch.h ****        \param pin port/pin object to tell the switch which hardware pin to use.
  58:../../libDaisy//src/hid/switch.h ****        \param update_rate Left for backwards compatibility until next breaking change.
  59:../../libDaisy//src/hid/switch.h ****     */
  60:../../libDaisy//src/hid/switch.h ****     void Init(dsy_gpio_pin pin, float update_rate = 0.f);
  61:../../libDaisy//src/hid/switch.h **** 
  62:../../libDaisy//src/hid/switch.h ****     /** 
  63:../../libDaisy//src/hid/switch.h ****     Called at update_rate to debounce and handle timing for the switch.
  64:../../libDaisy//src/hid/switch.h ****     In order for events not to be missed, its important that the Edge/Pressed checks
  65:../../libDaisy//src/hid/switch.h ****     be made at the same rate as the debounce function is being called.
  66:../../libDaisy//src/hid/switch.h ****     */
  67:../../libDaisy//src/hid/switch.h ****     void Debounce();
  68:../../libDaisy//src/hid/switch.h **** 
  69:../../libDaisy//src/hid/switch.h ****     /** \return true if a button was just pressed. */
  70:../../libDaisy//src/hid/switch.h ****     inline bool RisingEdge() const { return updated_ ? state_ == 0x7f : false; }
  71:../../libDaisy//src/hid/switch.h **** 
  72:../../libDaisy//src/hid/switch.h ****     /** \return true if the button was just released */
  73:../../libDaisy//src/hid/switch.h ****     inline bool FallingEdge() const
  74:../../libDaisy//src/hid/switch.h ****     {
  75:../../libDaisy//src/hid/switch.h ****         return updated_ ? state_ == 0x80 : false;
  76:../../libDaisy//src/hid/switch.h ****     }
  77:../../libDaisy//src/hid/switch.h **** 
  78:../../libDaisy//src/hid/switch.h ****     /** \return true if the button is held down (or if the toggle is on) */
  79:../../libDaisy//src/hid/switch.h ****     inline bool Pressed() const { return state_ == 0xff; }
 941              		.loc 1 79 17 view .LVU292
 942              	.LBB662:
 943              		.loc 1 79 35 view .LVU293
 944              	.LBE662:
 945              	.LBE661:
  32:thilia.cpp    **** 
  33:thilia.cpp    ****     // Set in and loop gain from CV_1 and CV_2 respectively
  34:thilia.cpp    ****     float in_level   = patch.GetAdcValue(CV_1);
 946              		.loc 12 34 41 is_stmt 0 view .LVU294
 947 0032 0021     		movs	r1, #0
 948 0034 8C48     		ldr	r0, .L92
 949              	.LBB667:
 950              	.LBB663:
 951              		.loc 1 79 52 view .LVU295
 952 0036 94F80A80 		ldrb	r8, [r4, #10]	@ zero_extendqisi2
 953              	.LBE663:
 954              	.LBE667:
 955              		.loc 12 34 41 view .LVU296
 956 003a FFF7FEFF 		bl	_ZN5daisy8patch_sm12DaisyPatchSM11GetAdcValueEi
 957              	.LVL58:
  35:thilia.cpp    ****     float loop_level = patch.GetAdcValue(CV_2);
 958              		.loc 12 35 41 view .LVU297
 959 003e 0121     		movs	r1, #1
ARM GAS  /var/folders/hl/qgbwny5j0fd895c2c41bk3tw0000gp/T//ccxZ31iG.s 			page 48


 960 0040 8948     		ldr	r0, .L92
  34:thilia.cpp    ****     float loop_level = patch.GetAdcValue(CV_2);
 961              		.loc 12 34 41 view .LVU298
 962 0042 B0EE409A 		vmov.f32	s18, s0
 963              		.loc 12 35 41 view .LVU299
 964 0046 FFF7FEFF 		bl	_ZN5daisy8patch_sm12DaisyPatchSM11GetAdcValueEi
 965              	.LVL59:
  36:thilia.cpp    ****     float time_knob = patch.GetAdcValue(CV_3);
 966              		.loc 12 36 40 view .LVU300
 967 004a 0221     		movs	r1, #2
 968 004c 8648     		ldr	r0, .L92
  35:thilia.cpp    ****     float loop_level = patch.GetAdcValue(CV_2);
 969              		.loc 12 35 41 view .LVU301
 970 004e F0EE409A 		vmov.f32	s19, s0
 971              		.loc 12 36 40 view .LVU302
 972 0052 FFF7FEFF 		bl	_ZN5daisy8patch_sm12DaisyPatchSM11GetAdcValueEi
 973              	.LVL60:
 974              	.LBB668:
 975              	.LBB656:
 976              		.loc 13 173 31 view .LVU303
 977 0056 F0EE487A 		vmov.f32	s15, s16
 978 005a 9FED867A 		vldr.32	s14, .L92+12
 979              	.LBE656:
 980              	.LBE668:
  37:thilia.cpp    ****     float time      = fmap(time_knob, 0.3f, 0.99f);
  38:thilia.cpp    ****     float damp_knob = patch.GetAdcValue(CV_4);
 981              		.loc 12 38 40 view .LVU304
 982 005e 8248     		ldr	r0, .L92
 983 0060 0321     		movs	r1, #3
 984              	.LBB669:
 985              	.LBB664:
 986              		.loc 1 79 52 view .LVU305
 987 0062 A8F1FF08 		sub	r8, r8, #255
 988              	.LBE664:
 989              	.LBE669:
 990              	.LBB670:
 991              	.LBB657:
 992              		.loc 13 173 31 view .LVU306
 993 0066 E0EE077A 		vfma.f32	s15, s0, s14
 994              	.LBB643:
 995              	.LBB644:
 996              	.LBB645:
  47:../../DaisySP//Source/Utility/dsp.h **** #else
 997              		.loc 13 47 5 view .LVU307
 998 006a 9FED837A 		vldr.32	s14, .L92+16
 999              	.LBE645:
 1000              	.LBE644:
 1001              	.LBB648:
 1002              	.LBB649:
  36:../../DaisySP//Source/Utility/dsp.h **** #else
 1003              		.loc 13 36 5 view .LVU308
 1004              		.syntax unified
 1005              	@ 36 "../../DaisySP//Source/Utility/dsp.h" 1
 1006 006e C7FE887A 		vmaxnm.f32 s15, s15, s16
 1007              	@ 0 "" 2
 1008              		.thumb
 1009              		.syntax unified
ARM GAS  /var/folders/hl/qgbwny5j0fd895c2c41bk3tw0000gp/T//ccxZ31iG.s 			page 49


 1010              	.LBE649:
 1011              	.LBE648:
 1012              	.LBB651:
 1013              	.LBB646:
  47:../../DaisySP//Source/Utility/dsp.h **** #else
 1014              		.loc 13 47 5 view .LVU309
 1015              		.syntax unified
 1016              	@ 47 "../../DaisySP//Source/Utility/dsp.h" 1
 1017 0072 87FEC78A 		vminnm.f32 s16, s15, s14
 1018              	@ 0 "" 2
 1019              		.thumb
 1020              		.syntax unified
 1021              	.LBE646:
 1022              	.LBE651:
 1023              	.LBE643:
 1024              	.LBE657:
 1025              	.LBE670:
 1026              		.loc 12 38 40 view .LVU310
 1027 0076 FFF7FEFF 		bl	_ZN5daisy8patch_sm12DaisyPatchSM11GetAdcValueEi
 1028              	.LVL61:
 1029              	.LBB671:
 1030              	.LBB672:
 1031              	.LBB673:
 170:../../DaisySP//Source/Utility/dsp.h ****         }
 1032              		.loc 13 170 37 view .LVU311
 1033 007a DFED800A 		vldr.32	s1, .L92+20
 1034              	.LBE673:
 1035              	.LBE672:
 1036              	.LBE671:
 1037              	.LBB699:
 1038              	.LBB665:
 1039              		.loc 1 79 52 view .LVU312
 1040 007e B8FA88F8 		clz	r8, r8
 1041              	.LBE665:
 1042              	.LBE699:
 1043              	.LBB700:
 1044              	.LBB693:
 1045              	.LBB688:
 170:../../DaisySP//Source/Utility/dsp.h ****         }
 1046              		.loc 13 170 37 view .LVU313
 1047 0082 C0EE200A 		vdiv.f32	s1, s0, s1
 1048              	.LBE688:
 1049              	.LBE693:
 1050              	.LBE700:
 1051              	.LBB701:
 1052              	.LBB666:
 1053              		.loc 1 79 52 view .LVU314
 1054 0086 4FEA5818 		lsr	r8, r8, #5
 1055              	.LVL62:
 1056              		.loc 1 79 52 view .LVU315
 1057              	.LBE666:
 1058              	.LBE701:
  34:thilia.cpp    ****     float loop_level = patch.GetAdcValue(CV_2);
 1059              		.loc 12 34 5 is_stmt 1 view .LVU316
  35:thilia.cpp    ****     float time_knob = patch.GetAdcValue(CV_3);
 1060              		.loc 12 35 5 view .LVU317
  36:thilia.cpp    ****     float time      = fmap(time_knob, 0.3f, 0.99f);
ARM GAS  /var/folders/hl/qgbwny5j0fd895c2c41bk3tw0000gp/T//ccxZ31iG.s 			page 50


 1061              		.loc 12 36 5 view .LVU318
  37:thilia.cpp    ****     float damp_knob = patch.GetAdcValue(CV_4);
 1062              		.loc 12 37 5 view .LVU319
 1063              	.LBB702:
 1064              	.LBI641:
 161:../../DaisySP//Source/Utility/dsp.h **** {
 1065              		.loc 13 161 1 view .LVU320
 1066              	.LBE702:
 163:../../DaisySP//Source/Utility/dsp.h ****     {
 1067              		.loc 13 163 5 view .LVU321
 1068              	.LBB703:
 1069              	.LBB658:
 172:../../DaisySP//Source/Utility/dsp.h ****         default: return fclamp(min + in * (max - min), min, max);
 1070              		.loc 13 172 9 view .LVU322
 1071              		.loc 13 173 9 view .LVU323
 1072              		.loc 13 173 18 view .LVU324
 1073              	.LBB654:
 1074              	.LBI643:
  56:../../DaisySP//Source/Utility/dsp.h **** {
 1075              		.loc 13 56 14 view .LVU325
 1076              	.LBE654:
 1077              	.LBE658:
 1078              	.LBE703:
  58:../../DaisySP//Source/Utility/dsp.h **** }
 1079              		.loc 13 58 5 view .LVU326
 1080              	.LBB704:
 1081              	.LBB659:
 1082              	.LBB655:
 1083              	.LBB652:
 1084              	.LBI648:
  32:../../DaisySP//Source/Utility/dsp.h **** {
 1085              		.loc 13 32 14 view .LVU327
 1086              	.LBB650:
  34:../../DaisySP//Source/Utility/dsp.h **** #ifdef __arm__
 1087              		.loc 13 34 5 view .LVU328
  36:../../DaisySP//Source/Utility/dsp.h **** #else
 1088              		.loc 13 36 5 view .LVU329
  40:../../DaisySP//Source/Utility/dsp.h **** }
 1089              		.loc 13 40 5 view .LVU330
  40:../../DaisySP//Source/Utility/dsp.h **** }
 1090              		.loc 13 40 5 is_stmt 0 view .LVU331
 1091              	.LBE650:
 1092              	.LBE652:
 1093              	.LBB653:
 1094              	.LBI644:
  43:../../DaisySP//Source/Utility/dsp.h **** {
 1095              		.loc 13 43 14 is_stmt 1 view .LVU332
 1096              	.LBB647:
  45:../../DaisySP//Source/Utility/dsp.h **** #ifdef __arm__
 1097              		.loc 13 45 5 view .LVU333
  47:../../DaisySP//Source/Utility/dsp.h **** #else
 1098              		.loc 13 47 5 view .LVU334
  51:../../DaisySP//Source/Utility/dsp.h **** }
 1099              		.loc 13 51 5 view .LVU335
  51:../../DaisySP//Source/Utility/dsp.h **** }
 1100              		.loc 13 51 5 is_stmt 0 view .LVU336
 1101              	.LBE647:
ARM GAS  /var/folders/hl/qgbwny5j0fd895c2c41bk3tw0000gp/T//ccxZ31iG.s 			page 51


 1102              	.LBE653:
 1103              	.LBE655:
 1104              	.LBE659:
 1105              	.LBE704:
 1106              		.loc 12 38 5 is_stmt 1 view .LVU337
  39:thilia.cpp    ****     float damp      = fmap(damp_knob, 1000.f, 19000.f, Mapping::LOG);
 1107              		.loc 12 39 5 view .LVU338
 1108              	.LBB705:
 1109              	.LBI671:
 161:../../DaisySP//Source/Utility/dsp.h **** {
 1110              		.loc 13 161 1 view .LVU339
 1111              	.LBE705:
 163:../../DaisySP//Source/Utility/dsp.h ****     {
 1112              		.loc 13 163 5 view .LVU340
 1113              	.LBB706:
 1114              	.LBB694:
 1115              	.LBI672:
 161:../../DaisySP//Source/Utility/dsp.h **** {
 1116              		.loc 13 161 1 view .LVU341
 161:../../DaisySP//Source/Utility/dsp.h **** {
 1117              		.loc 13 161 1 is_stmt 0 view .LVU342
 1118              	.LBE694:
 1119              	.LBE706:
 167:../../DaisySP//Source/Utility/dsp.h ****         {
 1120              		.loc 13 167 9 is_stmt 1 view .LVU343
 168:../../DaisySP//Source/Utility/dsp.h ****             const float a = 1.f / log10f(max / min);
 1121              		.loc 13 168 9 view .LVU344
 1122              	.LBB707:
 1123              	.LBB695:
 1124              	.LBB689:
 169:../../DaisySP//Source/Utility/dsp.h ****             return fclamp(min * powf(10, in / a), min, max);
 1125              		.loc 13 169 13 view .LVU345
 170:../../DaisySP//Source/Utility/dsp.h ****         }
 1126              		.loc 13 170 13 view .LVU346
 170:../../DaisySP//Source/Utility/dsp.h ****         }
 1127              		.loc 13 170 37 is_stmt 0 view .LVU347
 1128 008a B2EE040A 		vmov.f32	s0, #1.0e+1
 1129              	.LVL63:
 170:../../DaisySP//Source/Utility/dsp.h ****         }
 1130              		.loc 13 170 37 view .LVU348
 1131 008e FFF7FEFF 		bl	powf
 1132              	.LVL64:
 1133              	.LBB674:
 1134              	.LBI674:
  56:../../DaisySP//Source/Utility/dsp.h **** {
 1135              		.loc 13 56 14 is_stmt 1 view .LVU349
 1136              	.LBE674:
 1137              	.LBE689:
 1138              	.LBE695:
 1139              	.LBE707:
  58:../../DaisySP//Source/Utility/dsp.h **** }
 1140              		.loc 13 58 5 view .LVU350
 1141              	.LBB708:
 1142              	.LBB696:
 1143              	.LBB690:
 1144              	.LBB685:
 1145              	.LBB675:
ARM GAS  /var/folders/hl/qgbwny5j0fd895c2c41bk3tw0000gp/T//ccxZ31iG.s 			page 52


 1146              	.LBI675:
  32:../../DaisySP//Source/Utility/dsp.h **** {
 1147              		.loc 13 32 14 view .LVU351
 1148              	.LBB676:
  34:../../DaisySP//Source/Utility/dsp.h **** #ifdef __arm__
 1149              		.loc 13 34 5 view .LVU352
  36:../../DaisySP//Source/Utility/dsp.h **** #else
 1150              		.loc 13 36 5 view .LVU353
 1151              	.LBE676:
 1152              	.LBE675:
 1153              	.LBE685:
 170:../../DaisySP//Source/Utility/dsp.h ****         }
 1154              		.loc 13 170 26 is_stmt 0 view .LVU354
 1155 0092 DFED7B7A 		vldr.32	s15, .L92+24
 1156              	.LBE690:
 1157              	.LBE696:
 1158              	.LBE708:
 1159              	.LBB709:
 1160              	.LBB710:
  42:../../DaisySP//Source/Effects/reverbsc.h ****     /** Initializes the reverb module, and sets the sample_rate at which the Process function will 
  43:../../DaisySP//Source/Effects/reverbsc.h ****         Returns 0 if all good, or 1 if it runs out of delay times exceed maximum allowed.
  44:../../DaisySP//Source/Effects/reverbsc.h ****     */
  45:../../DaisySP//Source/Effects/reverbsc.h ****     int Init(float sample_rate);
  46:../../DaisySP//Source/Effects/reverbsc.h **** 
  47:../../DaisySP//Source/Effects/reverbsc.h ****     /** Process the input through the reverb, and updates values of out1, and out2 with the new pro
  48:../../DaisySP//Source/Effects/reverbsc.h ****     */
  49:../../DaisySP//Source/Effects/reverbsc.h ****     int Process(const float &in1, const float &in2, float *out1, float *out2);
  50:../../DaisySP//Source/Effects/reverbsc.h **** 
  51:../../DaisySP//Source/Effects/reverbsc.h ****     /** controls the reverb time. reverb tail becomes infinite when set to 1.0
  52:../../DaisySP//Source/Effects/reverbsc.h ****         \param fb - sets reverb time. range: 0.0 to 1.0
  53:../../DaisySP//Source/Effects/reverbsc.h ****     */
  54:../../DaisySP//Source/Effects/reverbsc.h ****     inline void SetFeedback(const float &fb) { feedback_ = fb; }
 1161              		.loc 9 54 58 view .LVU355
 1162 0096 7B4B     		ldr	r3, .L92+28
 1163              	.LBE710:
 1164              	.LBE709:
  40:thilia.cpp    **** 
  41:thilia.cpp    ****     reverb.SetFeedback(time);
  42:thilia.cpp    ****     reverb.SetLpFreq(damp);
  43:thilia.cpp    **** 
  44:thilia.cpp    ****     //if you press the button, toggle the record state
  45:thilia.cpp    ****     if(patch.gate_in_1.Trig() || b1.RisingEdge())
 1165              		.loc 12 45 28 view .LVU356
 1166 0098 7B48     		ldr	r0, .L92+32
 1167              	.LBB713:
 1168              	.LBB697:
 1169              	.LBB691:
 170:../../DaisySP//Source/Utility/dsp.h ****         }
 1170              		.loc 13 170 26 view .LVU357
 1171 009a 20EE270A 		vmul.f32	s0, s0, s15
 1172              	.LVL65:
 1173              	.LBB686:
 1174              	.LBB678:
 1175              	.LBB679:
  47:../../DaisySP//Source/Utility/dsp.h **** #else
 1176              		.loc 13 47 5 view .LVU358
 1177 009e 9FED7B7A 		vldr.32	s14, .L92+36
ARM GAS  /var/folders/hl/qgbwny5j0fd895c2c41bk3tw0000gp/T//ccxZ31iG.s 			page 53


 1178              	.LBE679:
 1179              	.LBE678:
 1180              	.LBB682:
 1181              	.LBB677:
  36:../../DaisySP//Source/Utility/dsp.h **** #else
 1182              		.loc 13 36 5 view .LVU359
 1183              		.syntax unified
 1184              	@ 36 "../../DaisySP//Source/Utility/dsp.h" 1
 1185 00a2 C0FE277A 		vmaxnm.f32 s15, s0, s15
 1186              	@ 0 "" 2
 1187              	.LVL66:
  40:../../DaisySP//Source/Utility/dsp.h **** }
 1188              		.loc 13 40 5 is_stmt 1 view .LVU360
  40:../../DaisySP//Source/Utility/dsp.h **** }
 1189              		.loc 13 40 5 is_stmt 0 view .LVU361
 1190              		.thumb
 1191              		.syntax unified
 1192              	.LBE677:
 1193              	.LBE682:
 1194              	.LBB683:
 1195              	.LBI678:
  43:../../DaisySP//Source/Utility/dsp.h **** {
 1196              		.loc 13 43 14 is_stmt 1 view .LVU362
 1197              	.LBB680:
  45:../../DaisySP//Source/Utility/dsp.h **** #ifdef __arm__
 1198              		.loc 13 45 5 view .LVU363
  47:../../DaisySP//Source/Utility/dsp.h **** #else
 1199              		.loc 13 47 5 view .LVU364
 1200              	.LBE680:
 1201              	.LBE683:
 1202              	.LBE686:
 1203              	.LBE691:
 1204              	.LBE697:
 1205              	.LBE713:
 1206              	.LBB714:
 1207              	.LBB711:
 1208              		.loc 9 54 58 is_stmt 0 view .LVU365
 1209 00a6 83ED008A 		vstr.32	s16, [r3]
 1210              	.LBE711:
 1211              	.LBE714:
 1212              	.LBB715:
 1213              	.LBB698:
 1214              	.LBB692:
 1215              	.LBB687:
 1216              	.LBB684:
 1217              	.LBB681:
  47:../../DaisySP//Source/Utility/dsp.h **** #else
 1218              		.loc 13 47 5 view .LVU366
 1219              		.syntax unified
 1220              	@ 47 "../../DaisySP//Source/Utility/dsp.h" 1
 1221 00aa C7FEC77A 		vminnm.f32 s15, s15, s14
 1222              	@ 0 "" 2
 1223              	.LVL67:
  51:../../DaisySP//Source/Utility/dsp.h **** }
 1224              		.loc 13 51 5 is_stmt 1 view .LVU367
  51:../../DaisySP//Source/Utility/dsp.h **** }
 1225              		.loc 13 51 5 is_stmt 0 view .LVU368
ARM GAS  /var/folders/hl/qgbwny5j0fd895c2c41bk3tw0000gp/T//ccxZ31iG.s 			page 54


 1226              		.thumb
 1227              		.syntax unified
 1228              	.LBE681:
 1229              	.LBE684:
 1230              	.LBE687:
 1231              	.LBE692:
 1232              	.LBE698:
 1233              	.LBE715:
  41:thilia.cpp    ****     reverb.SetLpFreq(damp);
 1234              		.loc 12 41 5 is_stmt 1 view .LVU369
 1235              	.LBB716:
 1236              	.LBI709:
 1237              		.loc 9 54 17 view .LVU370
 1238              	.LBB712:
 1239              		.loc 9 54 48 view .LVU371
 1240              		.loc 9 54 48 is_stmt 0 view .LVU372
 1241              	.LBE712:
 1242              	.LBE716:
  42:thilia.cpp    **** 
 1243              		.loc 12 42 5 is_stmt 1 view .LVU373
 1244              	.LBB717:
 1245              	.LBI717:
  55:../../DaisySP//Source/Effects/reverbsc.h ****     /** controls the internal dampening filter's cutoff frequency.
  56:../../DaisySP//Source/Effects/reverbsc.h ****         \param freq - low pass frequency. range: 0.0 to sample_rate / 2
  57:../../DaisySP//Source/Effects/reverbsc.h ****     */
  58:../../DaisySP//Source/Effects/reverbsc.h ****     inline void SetLpFreq(const float &freq) { lpfreq_ = freq; }
 1246              		.loc 9 58 17 view .LVU374
 1247              	.LBB718:
 1248              		.loc 9 58 48 view .LVU375
 1249              		.loc 9 58 56 is_stmt 0 view .LVU376
 1250 00ae C3ED017A 		vstr.32	s15, [r3, #4]
 1251              	.LVL68:
 1252              		.loc 9 58 56 view .LVU377
 1253              	.LBE718:
 1254              	.LBE717:
 1255              		.loc 12 45 5 is_stmt 1 view .LVU378
 1256              		.loc 12 45 28 is_stmt 0 view .LVU379
 1257 00b2 FFF7FEFF 		bl	_ZN5daisy6GateIn4TrigEv
 1258              	.LVL69:
 1259              		.loc 12 45 31 view .LVU380
 1260 00b6 0028     		cmp	r0, #0
 1261 00b8 40F08380 		bne	.L61
 1262              	.LVL70:
 1263              	.LBB719:
 1264              	.LBI719:
  70:../../libDaisy//src/hid/switch.h **** 
 1265              		.loc 1 70 17 is_stmt 1 view .LVU381
 1266              	.LBB720:
  70:../../libDaisy//src/hid/switch.h **** 
 1267              		.loc 1 70 38 view .LVU382
  70:../../libDaisy//src/hid/switch.h **** 
 1268              		.loc 1 70 54 is_stmt 0 view .LVU383
 1269 00bc 99F80430 		ldrb	r3, [r9, #4]	@ zero_extendqisi2
 1270 00c0 002B     		cmp	r3, #0
 1271 00c2 7AD1     		bne	.L62
 1272              	.LVL71:
 1273              	.L88:
ARM GAS  /var/folders/hl/qgbwny5j0fd895c2c41bk3tw0000gp/T//ccxZ31iG.s 			page 55


  70:../../libDaisy//src/hid/switch.h **** 
 1274              		.loc 1 70 54 view .LVU384
 1275 00c4 724C     		ldr	r4, .L92+40
 1276 00c6 DFF8D091 		ldr	r9, .L92+48
 1277              	.L63:
 1278              	.LBE720:
 1279              	.LBE719:
  46:thilia.cpp    ****     {
  47:thilia.cpp    ****         looper_l.TrigRecord();
  48:thilia.cpp    ****         looper_r.TrigRecord();
  49:thilia.cpp    ****     }
  50:thilia.cpp    **** 
  51:thilia.cpp    ****     // testing reverse on toggle flip
  52:thilia.cpp    ****     looper_l.SetReverse(state);
 1280              		.loc 12 52 5 is_stmt 1 view .LVU385
 1281              	.LVL72:
 1282              	.LBB721:
 1283              	.LBI721:
 215:../../DaisySP//Source/Utility/looper.h ****     inline bool GetReverse() const { return reverse_; }
 1284              		.loc 10 215 17 view .LVU386
 1285              	.LBB722:
 215:../../DaisySP//Source/Utility/looper.h ****     inline bool GetReverse() const { return reverse_; }
 1286              		.loc 10 215 42 view .LVU387
 215:../../DaisySP//Source/Utility/looper.h ****     inline bool GetReverse() const { return reverse_; }
 1287              		.loc 10 215 51 is_stmt 0 view .LVU388
 1288 00ca 84F81D80 		strb	r8, [r4, #29]
 1289              	.LVL73:
 215:../../DaisySP//Source/Utility/looper.h ****     inline bool GetReverse() const { return reverse_; }
 1290              		.loc 10 215 51 view .LVU389
 1291              	.LBE722:
 1292              	.LBE721:
  53:thilia.cpp    ****     looper_r.SetReverse(state);
 1293              		.loc 12 53 5 is_stmt 1 view .LVU390
 1294              	.LBB723:
 1295              	.LBI723:
 215:../../DaisySP//Source/Utility/looper.h ****     inline bool GetReverse() const { return reverse_; }
 1296              		.loc 10 215 17 view .LVU391
 1297              	.LBB724:
 215:../../DaisySP//Source/Utility/looper.h ****     inline bool GetReverse() const { return reverse_; }
 1298              		.loc 10 215 42 view .LVU392
 215:../../DaisySP//Source/Utility/looper.h ****     inline bool GetReverse() const { return reverse_; }
 1299              		.loc 10 215 51 is_stmt 0 view .LVU393
 1300 00ce 89F81D80 		strb	r8, [r9, #29]
 1301              	.LVL74:
 215:../../DaisySP//Source/Utility/looper.h ****     inline bool GetReverse() const { return reverse_; }
 1302              		.loc 10 215 51 view .LVU394
 1303              	.LBE724:
 1304              	.LBE723:
  54:thilia.cpp    **** 
  55:thilia.cpp    ****     // if you hold the button longer than 1000 ms (1 sec), clear the loop
  56:thilia.cpp    ****     if(button.TimeHeldMs() >= 1000.f)
 1305              		.loc 12 56 5 is_stmt 1 view .LVU395
 1306              	.LBB725:
 1307              	.LBI725:
  80:../../libDaisy//src/hid/switch.h **** 
  81:../../libDaisy//src/hid/switch.h ****     /** \return true if the button is held down, without debouncing */
  82:../../libDaisy//src/hid/switch.h ****     inline bool RawState()
ARM GAS  /var/folders/hl/qgbwny5j0fd895c2c41bk3tw0000gp/T//ccxZ31iG.s 			page 56


  83:../../libDaisy//src/hid/switch.h ****     {
  84:../../libDaisy//src/hid/switch.h ****         return flip_ ? !dsy_gpio_read(&hw_gpio_) : dsy_gpio_read(&hw_gpio_);
  85:../../libDaisy//src/hid/switch.h ****     }
  86:../../libDaisy//src/hid/switch.h **** 
  87:../../libDaisy//src/hid/switch.h ****     /** \return the time in milliseconds that the button has been held (or toggle has been on) */
  88:../../libDaisy//src/hid/switch.h ****     inline float TimeHeldMs() const
 1308              		.loc 1 88 18 view .LVU396
 1309              	.LBB726:
  89:../../libDaisy//src/hid/switch.h ****     {
  90:../../libDaisy//src/hid/switch.h ****         return Pressed() ? System::GetNow() - rising_edge_time_ : 0;
 1310              		.loc 1 90 9 view .LVU397
 1311              	.LBB727:
 1312              	.LBI727:
  79:../../libDaisy//src/hid/switch.h **** 
 1313              		.loc 1 79 17 view .LVU398
 1314              	.LBB728:
  79:../../libDaisy//src/hid/switch.h **** 
 1315              		.loc 1 79 35 view .LVU399
  79:../../libDaisy//src/hid/switch.h **** 
 1316              		.loc 1 79 42 is_stmt 0 view .LVU400
 1317 00d2 DFF8CC81 		ldr	r8, .L92+56
 1318              	.LVL75:
  79:../../libDaisy//src/hid/switch.h **** 
 1319              		.loc 1 79 42 view .LVU401
 1320              	.LBE728:
 1321              	.LBE727:
 1322              		.loc 1 90 26 view .LVU402
 1323 00d6 98F80A30 		ldrb	r3, [r8, #10]	@ zero_extendqisi2
 1324 00da FF2B     		cmp	r3, #255
 1325 00dc 57D0     		beq	.L80
 1326              	.LVL76:
 1327              	.L89:
 1328              		.loc 1 90 26 view .LVU403
 1329              	.LBE726:
 1330              	.LBE725:
 1331              	.LBB735:
 1332              	.LBB736:
 193:../../DaisySP//Source/Utility/looper.h ****     }
 1333              		.loc 10 193 41 view .LVU404
 1334 00de 6168     		ldr	r1, [r4, #4]
 1335 00e0 21F00201 		bic	r1, r1, #2
 1336 00e4 A1F10101 		sub	r1, #1
 1337 00e8 B1FA81F1 		clz	r1, r1
 1338 00ec 4909     		lsrs	r1, r1, #5
 1339              	.L81:
 1340              	.LBE736:
 1341              	.LBE735:
  57:thilia.cpp    ****     {
  58:thilia.cpp    ****         looper_l.Clear();
  59:thilia.cpp    ****         looper_r.Clear();
  60:thilia.cpp    ****     }
  61:thilia.cpp    **** 
  62:thilia.cpp    ****     // Set the led to 5V if the looper is recording
  63:thilia.cpp    ****     gen_led1.Write(looper_l.Recording());
 1342              		.loc 12 63 5 is_stmt 1 view .LVU405
 1343              	.LVL77:
 1344              	.LBB738:
ARM GAS  /var/folders/hl/qgbwny5j0fd895c2c41bk3tw0000gp/T//ccxZ31iG.s 			page 57


 1345              	.LBI735:
 191:../../DaisySP//Source/Utility/looper.h ****     {
 1346              		.loc 10 191 23 view .LVU406
 1347              	.LBB737:
 193:../../DaisySP//Source/Utility/looper.h ****     }
 1348              		.loc 10 193 9 view .LVU407
 193:../../DaisySP//Source/Utility/looper.h ****     }
 1349              		.loc 10 193 9 is_stmt 0 view .LVU408
 1350              	.LBE737:
 1351              	.LBE738:
 1352              		.loc 12 63 19 view .LVU409
 1353 00ee 6948     		ldr	r0, .L92+44
 1354 00f0 FFF7FEFF 		bl	_ZN5daisy4GPIO5WriteEb
 1355              	.LVL78:
  64:thilia.cpp    **** 
  65:thilia.cpp    ****     // Process audio
  66:thilia.cpp    ****     for(size_t i = 0; i < size; i++)
 1356              		.loc 12 66 5 is_stmt 1 view .LVU410
 1357              	.LBB739:
 1358              		.loc 12 66 25 view .LVU411
 1359 00f4 002F     		cmp	r7, #0
 1360 00f6 45D0     		beq	.L60
 1361              		.loc 12 66 16 is_stmt 0 view .LVU412
 1362 00f8 0024     		movs	r4, #0
 1363 00fa 0DF11408 		add	r8, sp, #20
 1364              	.LVL79:
 1365              	.L83:
 1366              	.LBB740:
  67:thilia.cpp    ****     {
  68:thilia.cpp    ****         // store the inputs * the input gain factor
  69:thilia.cpp    ****         float in_l = IN_L[i] * in_level;
 1367              		.loc 12 69 9 is_stmt 1 discriminator 2 view .LVU413
  70:thilia.cpp    ****         float in_r = IN_R[i] * in_level;
  71:thilia.cpp    **** 
  72:thilia.cpp    ****         // store signal = loop signal * loop gain + in * in_gain
  73:thilia.cpp    ****         float sig_l = looper_l.Process(in_l) * loop_level + in_l;
 1368              		.loc 12 73 39 is_stmt 0 discriminator 2 view .LVU414
 1369 00fe 6448     		ldr	r0, .L92+40
 1370 0100 4FEA8409 		lsl	r9, r4, #2
  70:thilia.cpp    ****         float in_r = IN_R[i] * in_level;
 1371              		.loc 12 70 28 discriminator 2 view .LVU415
 1372 0104 D5E90023 		ldrd	r2, r3, [r5]
  69:thilia.cpp    ****         float in_r = IN_R[i] * in_level;
 1373              		.loc 12 69 28 discriminator 2 view .LVU416
 1374 0108 02EB8402 		add	r2, r2, r4, lsl #2
  70:thilia.cpp    ****         float in_r = IN_R[i] * in_level;
 1375              		.loc 12 70 28 discriminator 2 view .LVU417
 1376 010c 03EB8403 		add	r3, r3, r4, lsl #2
 1377              	.LBE740:
  66:thilia.cpp    ****     {
 1378              		.loc 12 66 5 discriminator 2 view .LVU418
 1379 0110 0134     		adds	r4, r4, #1
 1380              	.LVL80:
 1381              	.LBB741:
  69:thilia.cpp    ****         float in_r = IN_R[i] * in_level;
 1382              		.loc 12 69 15 discriminator 2 view .LVU419
 1383 0112 D2ED008A 		vldr.32	s17, [r2]
ARM GAS  /var/folders/hl/qgbwny5j0fd895c2c41bk3tw0000gp/T//ccxZ31iG.s 			page 58


  70:thilia.cpp    ****         float in_r = IN_R[i] * in_level;
 1384              		.loc 12 70 15 discriminator 2 view .LVU420
 1385 0116 93ED008A 		vldr.32	s16, [r3]
  69:thilia.cpp    ****         float in_r = IN_R[i] * in_level;
 1386              		.loc 12 69 15 discriminator 2 view .LVU421
 1387 011a 69EE288A 		vmul.f32	s17, s18, s17
 1388              	.LVL81:
  70:thilia.cpp    ****         float in_r = IN_R[i] * in_level;
 1389              		.loc 12 70 9 is_stmt 1 discriminator 2 view .LVU422
  70:thilia.cpp    ****         float in_r = IN_R[i] * in_level;
 1390              		.loc 12 70 15 is_stmt 0 discriminator 2 view .LVU423
 1391 011e 29EE088A 		vmul.f32	s16, s18, s16
 1392              	.LVL82:
 1393              		.loc 12 73 9 is_stmt 1 discriminator 2 view .LVU424
 1394              		.loc 12 73 39 is_stmt 0 discriminator 2 view .LVU425
 1395 0122 B0EE680A 		vmov.f32	s0, s17
 1396 0126 FFF7FEFF 		bl	_ZN7daisysp6Looper7ProcessEf
 1397              	.LVL83:
 1398 012a F0EE407A 		vmov.f32	s15, s0
  74:thilia.cpp    ****         float sig_r = looper_r.Process(in_r) * loop_level + in_r;
 1399              		.loc 12 74 39 discriminator 2 view .LVU426
 1400 012e 5A48     		ldr	r0, .L92+48
 1401 0130 B0EE480A 		vmov.f32	s0, s16
  73:thilia.cpp    ****         float sig_r = looper_r.Process(in_r) * loop_level + in_r;
 1402              		.loc 12 73 59 discriminator 2 view .LVU427
 1403 0134 E7EEA98A 		vfma.f32	s17, s15, s19
 1404              	.LVL84:
  73:thilia.cpp    ****         float sig_r = looper_r.Process(in_r) * loop_level + in_r;
 1405              		.loc 12 73 61 discriminator 2 view .LVU428
 1406 0138 CDED028A 		vstr.32	s17, [sp, #8]
 1407              		.loc 12 74 9 is_stmt 1 discriminator 2 view .LVU429
 1408              		.loc 12 74 39 is_stmt 0 discriminator 2 view .LVU430
 1409 013c FFF7FEFF 		bl	_ZN7daisysp6Looper7ProcessEf
 1410              	.LVL85:
 1411              		.loc 12 74 59 discriminator 2 view .LVU431
 1412 0140 A0EE298A 		vfma.f32	s16, s0, s19
 1413              	.LVL86:
  75:thilia.cpp    **** 
  76:thilia.cpp    ****         float wetl, wetr;
  77:thilia.cpp    ****         reverb.Process(sig_l, sig_r, &wetl, &wetr);
 1414              		.loc 12 77 23 discriminator 2 view .LVU432
 1415 0144 04AB     		add	r3, sp, #16
 1416 0146 03AA     		add	r2, sp, #12
 1417 0148 02A9     		add	r1, sp, #8
 1418 014a 4E48     		ldr	r0, .L92+28
 1419 014c CDF80080 		str	r8, [sp]
  74:thilia.cpp    **** 
 1420              		.loc 12 74 61 discriminator 2 view .LVU433
 1421 0150 8DED038A 		vstr.32	s16, [sp, #12]
  76:thilia.cpp    ****         reverb.Process(sig_l, sig_r, &wetl, &wetr);
 1422              		.loc 12 76 9 is_stmt 1 discriminator 2 view .LVU434
 1423              		.loc 12 77 9 discriminator 2 view .LVU435
 1424              		.loc 12 77 23 is_stmt 0 discriminator 2 view .LVU436
 1425 0154 FFF7FEFF 		bl	_ZN7daisysp8ReverbSc7ProcessERKfS2_PfS3_
 1426              	.LVL87:
  78:thilia.cpp    **** 
  79:thilia.cpp    ****         // send that signal to the outputs
ARM GAS  /var/folders/hl/qgbwny5j0fd895c2c41bk3tw0000gp/T//ccxZ31iG.s 			page 59


  80:thilia.cpp    ****         OUT_L[i] = sig_l + wetl;
 1427              		.loc 12 80 9 is_stmt 1 discriminator 2 view .LVU437
 1428              		.loc 12 80 26 is_stmt 0 discriminator 2 view .LVU438
 1429 0158 9DED047A 		vldr.32	s14, [sp, #16]
 1430              	.LBE741:
  66:thilia.cpp    ****     {
 1431              		.loc 12 66 25 discriminator 2 view .LVU439
 1432 015c A742     		cmp	r7, r4
 1433              	.LBB742:
 1434              		.loc 12 80 26 discriminator 2 view .LVU440
 1435 015e DDED027A 		vldr.32	s15, [sp, #8]
  81:thilia.cpp    ****         OUT_R[i] = sig_r + wetr;
 1436              		.loc 12 81 18 discriminator 2 view .LVU441
 1437 0162 D6E90023 		ldrd	r2, r3, [r6]
  80:thilia.cpp    ****         OUT_R[i] = sig_r + wetr;
 1438              		.loc 12 80 26 discriminator 2 view .LVU442
 1439 0166 77EE877A 		vadd.f32	s15, s15, s14
  80:thilia.cpp    ****         OUT_R[i] = sig_r + wetr;
 1440              		.loc 12 80 18 discriminator 2 view .LVU443
 1441 016a 4A44     		add	r2, r2, r9
 1442              		.loc 12 81 18 discriminator 2 view .LVU444
 1443 016c 4B44     		add	r3, r3, r9
  80:thilia.cpp    ****         OUT_R[i] = sig_r + wetr;
 1444              		.loc 12 80 18 discriminator 2 view .LVU445
 1445 016e C2ED007A 		vstr.32	s15, [r2]
 1446              		.loc 12 81 9 is_stmt 1 discriminator 2 view .LVU446
 1447              		.loc 12 81 26 is_stmt 0 discriminator 2 view .LVU447
 1448 0172 DDED037A 		vldr.32	s15, [sp, #12]
 1449 0176 9DED057A 		vldr.32	s14, [sp, #20]
 1450 017a 77EE877A 		vadd.f32	s15, s15, s14
 1451              		.loc 12 81 18 discriminator 2 view .LVU448
 1452 017e C3ED007A 		vstr.32	s15, [r3]
 1453              	.LBE742:
  66:thilia.cpp    ****     {
 1454              		.loc 12 66 5 is_stmt 1 discriminator 2 view .LVU449
 1455              	.LVL88:
  66:thilia.cpp    ****     {
 1456              		.loc 12 66 25 discriminator 2 view .LVU450
 1457 0182 BCD1     		bne	.L83
 1458              	.LVL89:
 1459              	.L60:
  66:thilia.cpp    ****     {
 1460              		.loc 12 66 25 is_stmt 0 discriminator 2 view .LVU451
 1461              	.LBE739:
  82:thilia.cpp    ****     }
  83:thilia.cpp    **** }
 1462              		.loc 12 83 1 view .LVU452
 1463 0184 07B0     		add	sp, sp, #28
 1464              		.cfi_remember_state
 1465              		.cfi_def_cfa_offset 44
 1466              		@ sp needed
 1467 0186 BDEC048B 		vldm	sp!, {d8-d9}
 1468              		.cfi_restore 82
 1469              		.cfi_restore 83
 1470              		.cfi_restore 80
 1471              		.cfi_restore 81
 1472              		.cfi_def_cfa_offset 28
ARM GAS  /var/folders/hl/qgbwny5j0fd895c2c41bk3tw0000gp/T//ccxZ31iG.s 			page 60


 1473              	.LVL90:
 1474              		.loc 12 83 1 view .LVU453
 1475 018a BDE8F083 		pop	{r4, r5, r6, r7, r8, r9, pc}
 1476              	.LVL91:
 1477              	.L80:
 1478              		.cfi_restore_state
 1479              	.LBB743:
 1480              	.LBB733:
 1481              	.LBB729:
 1482              	.LBI729:
  88:../../libDaisy//src/hid/switch.h ****     {
 1483              		.loc 1 88 18 is_stmt 1 view .LVU454
 1484              	.LBB730:
 1485              		.loc 1 90 42 is_stmt 0 view .LVU455
 1486 018e FFF7FEFF 		bl	_ZN5daisy6System6GetNowEv
 1487              	.LVL92:
 1488              		.loc 1 90 45 view .LVU456
 1489 0192 07EE900A 		vmov	s15, r0	@ int
 1490              		.loc 1 90 26 view .LVU457
 1491 0196 D8ED036A 		vldr.32	s13, [r8, #12]
 1492              		.loc 1 90 45 view .LVU458
 1493 019a F8EE677A 		vcvt.f32.u32	s15, s15
 1494              	.LBE730:
 1495              	.LBE729:
 1496              	.LBE733:
 1497              	.LBE743:
  56:thilia.cpp    ****     {
 1498              		.loc 12 56 5 view .LVU459
 1499 019e 9FED387A 		vldr.32	s14, .L92+24
 1500              	.LBB744:
 1501              	.LBB734:
 1502              	.LBB732:
 1503              	.LBB731:
 1504              		.loc 1 90 26 view .LVU460
 1505 01a2 77EEE67A 		vsub.f32	s15, s15, s13
 1506              	.LBE731:
 1507              	.LBE732:
 1508              	.LBE734:
 1509              	.LBE744:
  56:thilia.cpp    ****     {
 1510              		.loc 12 56 5 view .LVU461
 1511 01a6 F4EEC77A 		vcmpe.f32	s15, s14
 1512 01aa F1EE10FA 		vmrs	APSR_nzcv, FPSCR
 1513 01ae 96DB     		blt	.L89
  58:thilia.cpp    ****         looper_r.Clear();
 1514              		.loc 12 58 9 is_stmt 1 view .LVU462
 1515              	.LVL93:
 1516              	.LBB745:
 1517              	.LBI745:
 159:../../DaisySP//Source/Utility/looper.h **** 
 1518              		.loc 10 159 17 view .LVU463
 1519              	.LBB746:
 159:../../DaisySP//Source/Utility/looper.h **** 
 1520              		.loc 10 159 27 view .LVU464
 159:../../DaisySP//Source/Utility/looper.h **** 
 1521              		.loc 10 159 34 is_stmt 0 view .LVU465
 1522 01b0 0021     		movs	r1, #0
ARM GAS  /var/folders/hl/qgbwny5j0fd895c2c41bk3tw0000gp/T//ccxZ31iG.s 			page 61


 1523 01b2 6160     		str	r1, [r4, #4]
 1524              	.LVL94:
 159:../../DaisySP//Source/Utility/looper.h **** 
 1525              		.loc 10 159 34 view .LVU466
 1526              	.LBE746:
 1527              	.LBE745:
  59:thilia.cpp    ****     }
 1528              		.loc 12 59 9 is_stmt 1 view .LVU467
 1529              	.LBB747:
 1530              	.LBI747:
 159:../../DaisySP//Source/Utility/looper.h **** 
 1531              		.loc 10 159 17 view .LVU468
 1532              	.LBB748:
 159:../../DaisySP//Source/Utility/looper.h **** 
 1533              		.loc 10 159 27 view .LVU469
 159:../../DaisySP//Source/Utility/looper.h **** 
 1534              		.loc 10 159 34 is_stmt 0 view .LVU470
 1535 01b4 C9F80410 		str	r1, [r9, #4]
 159:../../DaisySP//Source/Utility/looper.h **** 
 1536              		.loc 10 159 50 view .LVU471
 1537 01b8 99E7     		b	.L81
 1538              	.LVL95:
 1539              	.L62:
 159:../../DaisySP//Source/Utility/looper.h **** 
 1540              		.loc 10 159 50 view .LVU472
 1541              	.LBE748:
 1542              	.LBE747:
  45:thilia.cpp    ****     {
 1543              		.loc 12 45 31 view .LVU473
 1544 01ba 99F80A30 		ldrb	r3, [r9, #10]	@ zero_extendqisi2
 1545 01be 7F2B     		cmp	r3, #127
 1546 01c0 80D1     		bne	.L88
 1547              	.L61:
  47:thilia.cpp    ****         looper_r.TrigRecord();
 1548              		.loc 12 47 9 is_stmt 1 view .LVU474
 1549              	.LVL96:
 1550              	.LBB749:
 1551              	.LBI749:
 165:../../DaisySP//Source/Utility/looper.h ****     {
 1552              		.loc 10 165 17 view .LVU475
 1553              	.LBB750:
 167:../../DaisySP//Source/Utility/looper.h ****         {
 1554              		.loc 10 167 9 view .LVU476
 167:../../DaisySP//Source/Utility/looper.h ****         {
 1555              		.loc 10 167 16 is_stmt 0 view .LVU477
 1556 01c2 334C     		ldr	r4, .L92+40
 167:../../DaisySP//Source/Utility/looper.h ****         {
 1557              		.loc 10 167 9 view .LVU478
 1558 01c4 6368     		ldr	r3, [r4, #4]
 1559 01c6 032B     		cmp	r3, #3
 1560 01c8 4AD8     		bhi	.L65
 1561 01ca DFE803F0 		tbb	[pc, r3]
 1562              	.L67:
 1563 01ce 2F       		.byte	(.L69-.L67)/2
 1564 01cf 02       		.byte	(.L66-.L67)/2
 1565 01d0 29       		.byte	(.L68-.L67)/2
 1566 01d1 02       		.byte	(.L66-.L67)/2
ARM GAS  /var/folders/hl/qgbwny5j0fd895c2c41bk3tw0000gp/T//ccxZ31iG.s 			page 62


 1567              		.p2align 1
 1568              	.L66:
 176:../../DaisySP//Source/Utility/looper.h ****             case State::REC_DUB: state_ = State::PLAYING; break;
 1569              		.loc 10 176 13 is_stmt 1 view .LVU479
 177:../../DaisySP//Source/Utility/looper.h ****             case State::PLAYING:
 1570              		.loc 10 177 13 view .LVU480
 177:../../DaisySP//Source/Utility/looper.h ****             case State::PLAYING:
 1571              		.loc 10 177 34 view .LVU481
 177:../../DaisySP//Source/Utility/looper.h ****             case State::PLAYING:
 1572              		.loc 10 177 41 is_stmt 0 view .LVU482
 1573 01d2 0223     		movs	r3, #2
 1574 01d4 6360     		str	r3, [r4, #4]
 177:../../DaisySP//Source/Utility/looper.h ****             case State::PLAYING:
 1575              		.loc 10 177 59 is_stmt 1 view .LVU483
 1576              	.L70:
 186:../../DaisySP//Source/Utility/looper.h ****             win_idx_ = 0;
 1577              		.loc 10 186 9 view .LVU484
 1578 01d6 94F82430 		ldrb	r3, [r4, #36]	@ zero_extendqisi2
 1579 01da 03B9     		cbnz	r3, .L72
 187:../../DaisySP//Source/Utility/looper.h ****     }
 1580              		.loc 10 187 13 view .LVU485
 187:../../DaisySP//Source/Utility/looper.h ****     }
 1581              		.loc 10 187 22 is_stmt 0 view .LVU486
 1582 01dc A361     		str	r3, [r4, #24]
 1583              	.L72:
 1584              	.LVL97:
 187:../../DaisySP//Source/Utility/looper.h ****     }
 1585              		.loc 10 187 22 view .LVU487
 1586              	.LBE750:
 1587              	.LBE749:
  48:thilia.cpp    ****     }
 1588              		.loc 12 48 9 is_stmt 1 view .LVU488
 1589              	.LBB754:
 1590              	.LBI754:
 165:../../DaisySP//Source/Utility/looper.h ****     {
 1591              		.loc 10 165 17 view .LVU489
 1592              	.LBB755:
 167:../../DaisySP//Source/Utility/looper.h ****         {
 1593              		.loc 10 167 9 view .LVU490
 167:../../DaisySP//Source/Utility/looper.h ****         {
 1594              		.loc 10 167 16 is_stmt 0 view .LVU491
 1595 01de DFF8B890 		ldr	r9, .L92+48
 167:../../DaisySP//Source/Utility/looper.h ****         {
 1596              		.loc 10 167 9 view .LVU492
 1597 01e2 D9F80430 		ldr	r3, [r9, #4]
 1598 01e6 032B     		cmp	r3, #3
 1599 01e8 36D8     		bhi	.L73
 1600 01ea DFE803F0 		tbb	[pc, r3]
 1601              	.L75:
 1602 01ee 0D       		.byte	(.L77-.L75)/2
 1603 01ef 02       		.byte	(.L74-.L75)/2
 1604 01f0 27       		.byte	(.L76-.L75)/2
 1605 01f1 02       		.byte	(.L74-.L75)/2
 1606              		.p2align 1
 1607              	.L74:
 176:../../DaisySP//Source/Utility/looper.h ****             case State::REC_DUB: state_ = State::PLAYING; break;
 1608              		.loc 10 176 13 is_stmt 1 view .LVU493
ARM GAS  /var/folders/hl/qgbwny5j0fd895c2c41bk3tw0000gp/T//ccxZ31iG.s 			page 63


 177:../../DaisySP//Source/Utility/looper.h ****             case State::PLAYING:
 1609              		.loc 10 177 13 view .LVU494
 177:../../DaisySP//Source/Utility/looper.h ****             case State::PLAYING:
 1610              		.loc 10 177 34 view .LVU495
 177:../../DaisySP//Source/Utility/looper.h ****             case State::PLAYING:
 1611              		.loc 10 177 41 is_stmt 0 view .LVU496
 1612 01f2 0223     		movs	r3, #2
 1613 01f4 C9F80430 		str	r3, [r9, #4]
 177:../../DaisySP//Source/Utility/looper.h ****             case State::PLAYING:
 1614              		.loc 10 177 59 is_stmt 1 view .LVU497
 1615              	.L78:
 186:../../DaisySP//Source/Utility/looper.h ****             win_idx_ = 0;
 1616              		.loc 10 186 9 view .LVU498
 1617 01f8 99F82430 		ldrb	r3, [r9, #36]	@ zero_extendqisi2
 1618 01fc 002B     		cmp	r3, #0
 1619 01fe 7FF464AF 		bne	.L63
 187:../../DaisySP//Source/Utility/looper.h ****     }
 1620              		.loc 10 187 13 view .LVU499
 187:../../DaisySP//Source/Utility/looper.h ****     }
 1621              		.loc 10 187 22 is_stmt 0 view .LVU500
 1622 0202 C9F81830 		str	r3, [r9, #24]
 1623 0206 60E7     		b	.L63
 1624              	.L77:
 169:../../DaisySP//Source/Utility/looper.h ****                 pos_        = 0;
 1625              		.loc 10 169 13 is_stmt 1 view .LVU501
 170:../../DaisySP//Source/Utility/looper.h ****                 recsize_    = 0;
 1626              		.loc 10 170 17 view .LVU502
 171:../../DaisySP//Source/Utility/looper.h ****                 state_      = State::REC_FIRST;
 1627              		.loc 10 171 29 is_stmt 0 view .LVU503
 1628 0208 0023     		movs	r3, #0
 1629 020a C9F82030 		str	r3, [r9, #32]
 173:../../DaisySP//Source/Utility/looper.h ****                 reverse_    = false;
 1630              		.loc 10 173 29 view .LVU504
 1631 020e 89F81C30 		strb	r3, [r9, #28]
 170:../../DaisySP//Source/Utility/looper.h ****                 recsize_    = 0;
 1632              		.loc 10 170 29 view .LVU505
 1633 0212 0023     		movs	r3, #0
 1634 0214 C9F81030 		str	r3, [r9, #16]	@ float
 171:../../DaisySP//Source/Utility/looper.h ****                 state_      = State::REC_FIRST;
 1635              		.loc 10 171 17 is_stmt 1 view .LVU506
 172:../../DaisySP//Source/Utility/looper.h ****                 half_speed_ = false;
 1636              		.loc 10 172 17 view .LVU507
 172:../../DaisySP//Source/Utility/looper.h ****                 half_speed_ = false;
 1637              		.loc 10 172 29 is_stmt 0 view .LVU508
 1638 0218 0123     		movs	r3, #1
 1639 021a C9F80430 		str	r3, [r9, #4]
 173:../../DaisySP//Source/Utility/looper.h ****                 reverse_    = false;
 1640              		.loc 10 173 17 is_stmt 1 view .LVU509
 174:../../DaisySP//Source/Utility/looper.h ****                 break;
 1641              		.loc 10 174 17 view .LVU510
 175:../../DaisySP//Source/Utility/looper.h ****             case State::REC_FIRST:
 1642              		.loc 10 175 17 view .LVU511
 1643 021e EBE7     		b	.L78
 1644              	.LVL98:
 1645              	.L68:
 175:../../DaisySP//Source/Utility/looper.h ****             case State::REC_FIRST:
 1646              		.loc 10 175 17 is_stmt 0 view .LVU512
ARM GAS  /var/folders/hl/qgbwny5j0fd895c2c41bk3tw0000gp/T//ccxZ31iG.s 			page 64


 1647              	.LBE755:
 1648              	.LBE754:
 1649              	.LBB758:
 1650              	.LBB751:
 178:../../DaisySP//Source/Utility/looper.h ****                 if(mode_ == Mode::ONETIME_DUB)
 1651              		.loc 10 178 13 is_stmt 1 view .LVU513
 179:../../DaisySP//Source/Utility/looper.h ****                     rec_queue_ = true;
 1652              		.loc 10 179 17 view .LVU514
 1653 0220 2368     		ldr	r3, [r4]
 1654 0222 012B     		cmp	r3, #1
 1655 0224 12D0     		beq	.L90
 182:../../DaisySP//Source/Utility/looper.h ****                 break;
 1656              		.loc 10 182 21 view .LVU515
 182:../../DaisySP//Source/Utility/looper.h ****                 break;
 1657              		.loc 10 182 28 is_stmt 0 view .LVU516
 1658 0226 0323     		movs	r3, #3
 1659 0228 6360     		str	r3, [r4, #4]
 1660 022a D4E7     		b	.L70
 1661              	.L69:
 169:../../DaisySP//Source/Utility/looper.h ****                 pos_        = 0;
 1662              		.loc 10 169 13 is_stmt 1 view .LVU517
 170:../../DaisySP//Source/Utility/looper.h ****                 recsize_    = 0;
 1663              		.loc 10 170 17 view .LVU518
 171:../../DaisySP//Source/Utility/looper.h ****                 state_      = State::REC_FIRST;
 1664              		.loc 10 171 29 is_stmt 0 view .LVU519
 1665 022c 0023     		movs	r3, #0
 1666 022e 2362     		str	r3, [r4, #32]
 173:../../DaisySP//Source/Utility/looper.h ****                 reverse_    = false;
 1667              		.loc 10 173 29 view .LVU520
 1668 0230 A383     		strh	r3, [r4, #28]	@ movhi
 170:../../DaisySP//Source/Utility/looper.h ****                 recsize_    = 0;
 1669              		.loc 10 170 29 view .LVU521
 1670 0232 0023     		movs	r3, #0
 1671 0234 2361     		str	r3, [r4, #16]	@ float
 171:../../DaisySP//Source/Utility/looper.h ****                 state_      = State::REC_FIRST;
 1672              		.loc 10 171 17 is_stmt 1 view .LVU522
 172:../../DaisySP//Source/Utility/looper.h ****                 half_speed_ = false;
 1673              		.loc 10 172 17 view .LVU523
 172:../../DaisySP//Source/Utility/looper.h ****                 half_speed_ = false;
 1674              		.loc 10 172 29 is_stmt 0 view .LVU524
 1675 0236 0123     		movs	r3, #1
 1676 0238 6360     		str	r3, [r4, #4]
 173:../../DaisySP//Source/Utility/looper.h ****                 reverse_    = false;
 1677              		.loc 10 173 17 is_stmt 1 view .LVU525
 174:../../DaisySP//Source/Utility/looper.h ****                 break;
 1678              		.loc 10 174 17 view .LVU526
 175:../../DaisySP//Source/Utility/looper.h ****             case State::REC_FIRST:
 1679              		.loc 10 175 17 view .LVU527
 1680 023a CCE7     		b	.L70
 1681              	.LVL99:
 1682              	.L76:
 175:../../DaisySP//Source/Utility/looper.h ****             case State::REC_FIRST:
 1683              		.loc 10 175 17 is_stmt 0 view .LVU528
 1684              	.LBE751:
 1685              	.LBE758:
 1686              	.LBB759:
 1687              	.LBB756:
ARM GAS  /var/folders/hl/qgbwny5j0fd895c2c41bk3tw0000gp/T//ccxZ31iG.s 			page 65


 178:../../DaisySP//Source/Utility/looper.h ****                 if(mode_ == Mode::ONETIME_DUB)
 1688              		.loc 10 178 13 is_stmt 1 view .LVU529
 179:../../DaisySP//Source/Utility/looper.h ****                     rec_queue_ = true;
 1689              		.loc 10 179 17 view .LVU530
 1690 023c D9F80030 		ldr	r3, [r9]
 1691 0240 012B     		cmp	r3, #1
 1692 0242 06D0     		beq	.L91
 182:../../DaisySP//Source/Utility/looper.h ****                 break;
 1693              		.loc 10 182 21 view .LVU531
 182:../../DaisySP//Source/Utility/looper.h ****                 break;
 1694              		.loc 10 182 28 is_stmt 0 view .LVU532
 1695 0244 0323     		movs	r3, #3
 1696 0246 C9F80430 		str	r3, [r9, #4]
 1697 024a D5E7     		b	.L78
 1698              	.LVL100:
 1699              	.L90:
 182:../../DaisySP//Source/Utility/looper.h ****                 break;
 1700              		.loc 10 182 28 view .LVU533
 1701              	.LBE756:
 1702              	.LBE759:
 1703              	.LBB760:
 1704              	.LBB752:
 180:../../DaisySP//Source/Utility/looper.h ****                 else
 1705              		.loc 10 180 21 is_stmt 1 view .LVU534
 180:../../DaisySP//Source/Utility/looper.h ****                 else
 1706              		.loc 10 180 32 is_stmt 0 view .LVU535
 1707 024c 84F82430 		strb	r3, [r4, #36]
 186:../../DaisySP//Source/Utility/looper.h ****             win_idx_ = 0;
 1708              		.loc 10 186 9 is_stmt 1 view .LVU536
 1709 0250 C5E7     		b	.L72
 1710              	.LVL101:
 1711              	.L91:
 186:../../DaisySP//Source/Utility/looper.h ****             win_idx_ = 0;
 1712              		.loc 10 186 9 is_stmt 0 view .LVU537
 1713              	.LBE752:
 1714              	.LBE760:
 1715              	.LBB761:
 1716              	.LBB757:
 180:../../DaisySP//Source/Utility/looper.h ****                 else
 1717              		.loc 10 180 21 is_stmt 1 view .LVU538
 180:../../DaisySP//Source/Utility/looper.h ****                 else
 1718              		.loc 10 180 32 is_stmt 0 view .LVU539
 1719 0252 89F82430 		strb	r3, [r9, #36]
 186:../../DaisySP//Source/Utility/looper.h ****             win_idx_ = 0;
 1720              		.loc 10 186 9 is_stmt 1 view .LVU540
 1721 0256 38E7     		b	.L63
 1722              	.L73:
 184:../../DaisySP//Source/Utility/looper.h ****         }
 1723              		.loc 10 184 13 view .LVU541
 184:../../DaisySP//Source/Utility/looper.h ****         }
 1724              		.loc 10 184 22 view .LVU542
 184:../../DaisySP//Source/Utility/looper.h ****         }
 1725              		.loc 10 184 29 is_stmt 0 view .LVU543
 1726 0258 0023     		movs	r3, #0
 1727 025a C9F80430 		str	r3, [r9, #4]
 184:../../DaisySP//Source/Utility/looper.h ****         }
 1728              		.loc 10 184 45 is_stmt 1 view .LVU544
ARM GAS  /var/folders/hl/qgbwny5j0fd895c2c41bk3tw0000gp/T//ccxZ31iG.s 			page 66


 1729 025e CBE7     		b	.L78
 1730              	.LVL102:
 1731              	.L65:
 184:../../DaisySP//Source/Utility/looper.h ****         }
 1732              		.loc 10 184 45 is_stmt 0 view .LVU545
 1733              	.LBE757:
 1734              	.LBE761:
 1735              	.LBB762:
 1736              	.LBB753:
 184:../../DaisySP//Source/Utility/looper.h ****         }
 1737              		.loc 10 184 13 is_stmt 1 view .LVU546
 184:../../DaisySP//Source/Utility/looper.h ****         }
 1738              		.loc 10 184 22 view .LVU547
 184:../../DaisySP//Source/Utility/looper.h ****         }
 1739              		.loc 10 184 29 is_stmt 0 view .LVU548
 1740 0260 0023     		movs	r3, #0
 1741 0262 6360     		str	r3, [r4, #4]
 184:../../DaisySP//Source/Utility/looper.h ****         }
 1742              		.loc 10 184 45 is_stmt 1 view .LVU549
 1743 0264 B7E7     		b	.L70
 1744              	.L93:
 1745 0266 00BF     		.align	2
 1746              	.L92:
 1747 0268 00000000 		.word	.LANCHOR0
 1748 026c 00000000 		.word	.LANCHOR2
 1749 0270 9A99993E 		.word	1050253722
 1750 0274 D7A3303F 		.word	1060152279
 1751 0278 A4707D3F 		.word	1065185444
 1752 027c E731483F 		.word	1061695975
 1753 0280 00007A44 		.word	1148846080
 1754 0284 00000000 		.word	reverb
 1755 0288 B0010000 		.word	.LANCHOR0+432
 1756 028c 00709446 		.word	1184133120
 1757 0290 00000000 		.word	.LANCHOR3
 1758 0294 00000000 		.word	.LANCHOR6
 1759 0298 00000000 		.word	.LANCHOR4
 1760 029c 00000000 		.word	.LANCHOR1
 1761 02a0 00000000 		.word	.LANCHOR5
 1762              	.LBE753:
 1763              	.LBE762:
 1764              		.cfi_endproc
 1765              	.LFE4795:
 1767              		.section	.text._ZN5daisy8patch_sm7InitBedEv,"ax",%progbits
 1768              		.align	1
 1769              		.p2align 2,,3
 1770              		.global	_ZN5daisy8patch_sm7InitBedEv
 1771              		.syntax unified
 1772              		.thumb
 1773              		.thumb_func
 1774              		.fpu fpv5-d16
 1776              	_ZN5daisy8patch_sm7InitBedEv:
 1777              	.LFB4793:
 1778              		.file 14 "daisy_bed.h"
   1:daisy_bed.h   **** #pragma once
   2:daisy_bed.h   **** 
   3:daisy_bed.h   **** #include "daisy.h"
   4:daisy_bed.h   **** #include "daisysp.h"
ARM GAS  /var/folders/hl/qgbwny5j0fd895c2c41bk3tw0000gp/T//ccxZ31iG.s 			page 67


   5:daisy_bed.h   **** #include "per/gpio.h"
   6:daisy_bed.h   **** #include "daisy_patch_sm.h"
   7:daisy_bed.h   **** 
   8:daisy_bed.h   **** namespace daisy
   9:daisy_bed.h   **** {
  10:daisy_bed.h   **** namespace patch_sm
  11:daisy_bed.h   **** {
  12:daisy_bed.h   ****     // simple stupid led set up
  13:daisy_bed.h   ****     GPIO    gen_led1;
  14:daisy_bed.h   ****     GPIO    gen_led2;
  15:daisy_bed.h   ****     GPIO    cv_led1;
  16:daisy_bed.h   ****     GPIO    cv_led2;
  17:daisy_bed.h   ****     GPIO    gate_in_led1;
  18:daisy_bed.h   ****     GPIO    gate_in_led2;
  19:daisy_bed.h   ****     GPIO    gate_out_led1;
  20:daisy_bed.h   ****     GPIO    gate_out_led2;
  21:daisy_bed.h   **** 
  22:daisy_bed.h   **** 
  23:daisy_bed.h   ****     // generic leds
  24:daisy_bed.h   ****     dsy_gpio_pin oldPinD7 = DaisyPatchSM::D7;
  25:daisy_bed.h   ****     Pin newPinD7 = Pin(static_cast<GPIOPort>(oldPinD7.port), oldPinD7.pin);
  26:daisy_bed.h   ****     dsy_gpio_pin oldPinA9 = DaisyPatchSM::A9;
  27:daisy_bed.h   ****     Pin newPinA9 = Pin(static_cast<GPIOPort>(oldPinA9.port), oldPinA9.pin);
  28:daisy_bed.h   **** 
  29:daisy_bed.h   ****     // cv leds
  30:daisy_bed.h   ****     dsy_gpio_pin oldPinD2 = DaisyPatchSM::D2;
  31:daisy_bed.h   ****     Pin newPinD2 = Pin(static_cast<GPIOPort>(oldPinD2.port), oldPinD2.pin);
  32:daisy_bed.h   ****     dsy_gpio_pin oldPinD1 = DaisyPatchSM::D1;
  33:daisy_bed.h   ****     Pin newPinD1 = Pin(static_cast<GPIOPort>(oldPinD1.port), oldPinD1.pin);
  34:daisy_bed.h   ****     // ^^^ {DSY_GPIOB, 4},  /**< D1  - SPI2 CS */
  35:daisy_bed.h   **** 
  36:daisy_bed.h   ****     // gate leds
  37:daisy_bed.h   ****     dsy_gpio_pin oldPinD3 = DaisyPatchSM::D3;
  38:daisy_bed.h   ****     Pin newPinD3 = Pin(static_cast<GPIOPort>(oldPinD3.port), oldPinD3.pin);
  39:daisy_bed.h   ****     dsy_gpio_pin oldPinD6 = DaisyPatchSM::D6;
  40:daisy_bed.h   ****     Pin newPinD6 = Pin(static_cast<GPIOPort>(oldPinD6.port), oldPinD6.pin);
  41:daisy_bed.h   ****     dsy_gpio_pin oldPinD4 = DaisyPatchSM::D4;
  42:daisy_bed.h   ****     Pin newPinD4 = Pin(static_cast<GPIOPort>(oldPinD4.port), oldPinD4.pin);
  43:daisy_bed.h   ****     dsy_gpio_pin oldPinD5 = DaisyPatchSM::D5;
  44:daisy_bed.h   ****     Pin newPinD5 = Pin(static_cast<GPIOPort>(oldPinD5.port), oldPinD5.pin);
  45:daisy_bed.h   **** 
  46:daisy_bed.h   ****     // remap
  47:daisy_bed.h   ****      
  48:daisy_bed.h   ****     // map buttons
  49:daisy_bed.h   ****     Switch      b1,b2;
  50:daisy_bed.h   **** 
  51:daisy_bed.h   ****     void InitBed(){
 1779              		.loc 14 51 19 view -0
 1780              		.cfi_startproc
 1781              		@ args = 0, pretend = 0, frame = 8
 1782              		@ frame_needed = 0, uses_anonymous_args = 0
  52:daisy_bed.h   ****         // leds
  53:daisy_bed.h   ****         gen_led1.Init(newPinD7, GPIO::Mode::OUTPUT);
 1783              		.loc 14 53 9 view .LVU551
  51:daisy_bed.h   ****         // leds
 1784              		.loc 14 51 19 is_stmt 0 view .LVU552
 1785 0000 10B5     		push	{r4, lr}
ARM GAS  /var/folders/hl/qgbwny5j0fd895c2c41bk3tw0000gp/T//ccxZ31iG.s 			page 68


 1786              		.cfi_def_cfa_offset 8
 1787              		.cfi_offset 4, -8
 1788              		.cfi_offset 14, -4
 1789              		.loc 14 53 22 view .LVU553
 1790 0002 2D49     		ldr	r1, .L96
  51:daisy_bed.h   ****         // leds
 1791              		.loc 14 51 19 view .LVU554
 1792 0004 84B0     		sub	sp, sp, #16
 1793              		.cfi_def_cfa_offset 24
 1794              		.loc 14 53 22 view .LVU555
 1795 0006 0024     		movs	r4, #0
 1796 0008 0122     		movs	r2, #1
 1797 000a 0968     		ldr	r1, [r1]
 1798 000c 2346     		mov	r3, r4
 1799 000e 2B48     		ldr	r0, .L96+4
 1800 0010 0094     		str	r4, [sp]
 1801 0012 FFF7FEFF 		bl	_ZN5daisy4GPIO4InitENS_3PinENS0_4ModeENS0_4PullENS0_5SpeedE
 1802              	.LVL103:
  54:daisy_bed.h   ****         gen_led2.Init(newPinA9, GPIO::Mode::OUTPUT);
 1803              		.loc 14 54 9 is_stmt 1 view .LVU556
 1804              		.loc 14 54 22 is_stmt 0 view .LVU557
 1805 0016 2A49     		ldr	r1, .L96+8
 1806 0018 2346     		mov	r3, r4
 1807 001a 0122     		movs	r2, #1
 1808 001c 0968     		ldr	r1, [r1]
 1809 001e 2948     		ldr	r0, .L96+12
 1810 0020 0094     		str	r4, [sp]
 1811 0022 FFF7FEFF 		bl	_ZN5daisy4GPIO4InitENS_3PinENS0_4ModeENS0_4PullENS0_5SpeedE
 1812              	.LVL104:
  55:daisy_bed.h   ****         cv_led1.Init(newPinD2, GPIO::Mode::OUTPUT);
 1813              		.loc 14 55 9 is_stmt 1 view .LVU558
 1814              		.loc 14 55 21 is_stmt 0 view .LVU559
 1815 0026 2849     		ldr	r1, .L96+16
 1816 0028 2346     		mov	r3, r4
 1817 002a 0122     		movs	r2, #1
 1818 002c 0968     		ldr	r1, [r1]
 1819 002e 2748     		ldr	r0, .L96+20
 1820 0030 0094     		str	r4, [sp]
 1821 0032 FFF7FEFF 		bl	_ZN5daisy4GPIO4InitENS_3PinENS0_4ModeENS0_4PullENS0_5SpeedE
 1822              	.LVL105:
  56:daisy_bed.h   ****         cv_led2.Init(newPinD1, GPIO::Mode::OUTPUT);
 1823              		.loc 14 56 9 is_stmt 1 view .LVU560
 1824              		.loc 14 56 21 is_stmt 0 view .LVU561
 1825 0036 2649     		ldr	r1, .L96+24
 1826 0038 2346     		mov	r3, r4
 1827 003a 0122     		movs	r2, #1
 1828 003c 0968     		ldr	r1, [r1]
 1829 003e 2548     		ldr	r0, .L96+28
 1830 0040 0094     		str	r4, [sp]
 1831 0042 FFF7FEFF 		bl	_ZN5daisy4GPIO4InitENS_3PinENS0_4ModeENS0_4PullENS0_5SpeedE
 1832              	.LVL106:
  57:daisy_bed.h   ****         gate_in_led1.Init(newPinD3, GPIO::Mode::OUTPUT);
